ARM GAS  C:\Users\yqh\AppData\Local\Temp\ccH6G3Im.s 			page 1


   1              		.syntax unified
   2              		.cpu cortex-m3
   3              		.fpu softvfp
   4              		.eabi_attribute 20, 1
   5              		.eabi_attribute 21, 1
   6              		.eabi_attribute 23, 3
   7              		.eabi_attribute 24, 1
   8              		.eabi_attribute 25, 1
   9              		.eabi_attribute 26, 1
  10              		.eabi_attribute 30, 4
  11              		.eabi_attribute 34, 1
  12              		.eabi_attribute 18, 4
  13              		.thumb
  14              		.file	"CyLib.c"
  15              		.text
  16              	.Ltext0:
  17              		.cfi_sections	.debug_frame
  18              		.section	.text.CyIMO_SetTrimValue,"ax",%progbits
  19              		.align	1
  20              		.thumb
  21              		.thumb_func
  22              		.type	CyIMO_SetTrimValue, %function
  23              	CyIMO_SetTrimValue:
  24              	.LFB7:
  25              		.file 1 "Generated_Source\\PSoC5\\CyLib.c"
   1:Generated_Source\PSoC5/CyLib.c **** /***************************************************************************//**
   2:Generated_Source\PSoC5/CyLib.c **** * \file CyLib.c
   3:Generated_Source\PSoC5/CyLib.c **** * \version 5.50
   4:Generated_Source\PSoC5/CyLib.c **** *
   5:Generated_Source\PSoC5/CyLib.c **** * \brief Provides a system API for the clocking, interrupts and watchdog timer.
   6:Generated_Source\PSoC5/CyLib.c **** *
   7:Generated_Source\PSoC5/CyLib.c **** * \note Documentation of the API's in this file is located in the System
   8:Generated_Source\PSoC5/CyLib.c **** * Reference Guide provided with PSoC Creator.
   9:Generated_Source\PSoC5/CyLib.c **** *
  10:Generated_Source\PSoC5/CyLib.c **** ********************************************************************************
  11:Generated_Source\PSoC5/CyLib.c **** * \copyright
  12:Generated_Source\PSoC5/CyLib.c **** * Copyright 2008-2016, Cypress Semiconductor Corporation.  All rights reserved.
  13:Generated_Source\PSoC5/CyLib.c **** * You may use this file only in accordance with the license, terms, conditions,
  14:Generated_Source\PSoC5/CyLib.c **** * disclaimers, and limitations in the end user license agreement accompanying
  15:Generated_Source\PSoC5/CyLib.c **** * the software package with which this file was provided.
  16:Generated_Source\PSoC5/CyLib.c **** *******************************************************************************/
  17:Generated_Source\PSoC5/CyLib.c **** 
  18:Generated_Source\PSoC5/CyLib.c **** #include "CyLib.h"
  19:Generated_Source\PSoC5/CyLib.c **** 
  20:Generated_Source\PSoC5/CyLib.c **** 
  21:Generated_Source\PSoC5/CyLib.c **** /*******************************************************************************
  22:Generated_Source\PSoC5/CyLib.c **** * The CyResetStatus variable is used to obtain value of RESET_SR0 register after
  23:Generated_Source\PSoC5/CyLib.c **** * a device reset. It is set from initialize_psoc() at the early initialization
  24:Generated_Source\PSoC5/CyLib.c **** * stage. In case of IAR EW IDE, initialize_psoc() is executed before the data
  25:Generated_Source\PSoC5/CyLib.c **** * sections are initialized. To avoid zeroing, CyResetStatus should be placed
  26:Generated_Source\PSoC5/CyLib.c **** * to the .noinit section.
  27:Generated_Source\PSoC5/CyLib.c **** *******************************************************************************/
  28:Generated_Source\PSoC5/CyLib.c **** CY_NOINIT uint8 CYXDATA CyResetStatus;
  29:Generated_Source\PSoC5/CyLib.c **** 
  30:Generated_Source\PSoC5/CyLib.c **** 
  31:Generated_Source\PSoC5/CyLib.c **** /* Variable Vdda */
  32:Generated_Source\PSoC5/CyLib.c **** #if(CYDEV_VARIABLE_VDDA == 1)
ARM GAS  C:\Users\yqh\AppData\Local\Temp\ccH6G3Im.s 			page 2


  33:Generated_Source\PSoC5/CyLib.c **** 
  34:Generated_Source\PSoC5/CyLib.c ****     uint8 CyScPumpEnabled = (uint8)(CYDEV_VDDA_MV < 2700);
  35:Generated_Source\PSoC5/CyLib.c **** 
  36:Generated_Source\PSoC5/CyLib.c **** #endif  /* (CYDEV_VARIABLE_VDDA == 1) */
  37:Generated_Source\PSoC5/CyLib.c **** 
  38:Generated_Source\PSoC5/CyLib.c **** 
  39:Generated_Source\PSoC5/CyLib.c **** /* Do not use these definitions directly in your application */
  40:Generated_Source\PSoC5/CyLib.c **** uint32 cydelay_freq_hz  = BCLK__BUS_CLK__HZ;
  41:Generated_Source\PSoC5/CyLib.c **** uint32 cydelay_freq_khz = (BCLK__BUS_CLK__HZ + 999u) / 1000u;
  42:Generated_Source\PSoC5/CyLib.c **** uint8  cydelay_freq_mhz = (uint8)((BCLK__BUS_CLK__HZ + 999999u) / 1000000u);
  43:Generated_Source\PSoC5/CyLib.c **** uint32 cydelay_32k_ms   = 32768u * ((BCLK__BUS_CLK__HZ + 999u) / 1000u);
  44:Generated_Source\PSoC5/CyLib.c **** 
  45:Generated_Source\PSoC5/CyLib.c **** 
  46:Generated_Source\PSoC5/CyLib.c **** /* Function Prototypes */
  47:Generated_Source\PSoC5/CyLib.c **** static uint8 CyUSB_PowerOnCheck(void)  ;
  48:Generated_Source\PSoC5/CyLib.c **** static void CyIMO_SetTrimValue(uint8 freq) ;
  49:Generated_Source\PSoC5/CyLib.c **** static void CyBusClk_Internal_SetDivider(uint16 divider);
  50:Generated_Source\PSoC5/CyLib.c **** 
  51:Generated_Source\PSoC5/CyLib.c **** #if(CY_PSOC5)
  52:Generated_Source\PSoC5/CyLib.c ****     static cySysTickCallback CySysTickCallbacks[CY_SYS_SYST_NUM_OF_CALLBACKS];
  53:Generated_Source\PSoC5/CyLib.c ****     static void CySysTickServiceCallbacks(void);
  54:Generated_Source\PSoC5/CyLib.c ****     uint32 CySysTickInitVar = 0u;
  55:Generated_Source\PSoC5/CyLib.c **** #endif  /* (CY_PSOC5) */
  56:Generated_Source\PSoC5/CyLib.c **** 
  57:Generated_Source\PSoC5/CyLib.c **** 
  58:Generated_Source\PSoC5/CyLib.c **** #if(CY_PSOC3)
  59:Generated_Source\PSoC5/CyLib.c ****     CY_ISR_PROTO(IntDefaultHandler);
  60:Generated_Source\PSoC5/CyLib.c **** #endif /* (CY_PSOC3) */
  61:Generated_Source\PSoC5/CyLib.c **** 
  62:Generated_Source\PSoC5/CyLib.c **** 
  63:Generated_Source\PSoC5/CyLib.c **** /*******************************************************************************
  64:Generated_Source\PSoC5/CyLib.c **** * Function Name: CyPLL_OUT_Start
  65:Generated_Source\PSoC5/CyLib.c **** ****************************************************************************//**
  66:Generated_Source\PSoC5/CyLib.c **** *
  67:Generated_Source\PSoC5/CyLib.c **** *   Enables the PLL.  Optionally waits for it to become stable.
  68:Generated_Source\PSoC5/CyLib.c **** *   Waits at least 250 us or until it is detected that the PLL is stable.
  69:Generated_Source\PSoC5/CyLib.c **** *
  70:Generated_Source\PSoC5/CyLib.c **** *   \param wait:
  71:Generated_Source\PSoC5/CyLib.c **** *    \param 0: Return immediately after configuration
  72:Generated_Source\PSoC5/CyLib.c **** *    \param 1: Wait for PLL lock or timeout.
  73:Generated_Source\PSoC5/CyLib.c **** *
  74:Generated_Source\PSoC5/CyLib.c **** * \return
  75:Generated_Source\PSoC5/CyLib.c **** *   Status
  76:Generated_Source\PSoC5/CyLib.c **** *    CYRET_SUCCESS - Completed successfully
  77:Generated_Source\PSoC5/CyLib.c **** *    CYRET_TIMEOUT - Timeout occurred without detecting a stable clock.
  78:Generated_Source\PSoC5/CyLib.c **** *     If the input source of the clock is jittery, then the lock indication
  79:Generated_Source\PSoC5/CyLib.c **** *     may not occur.  However, after the timeout has expired the generated PLL
  80:Generated_Source\PSoC5/CyLib.c **** *     clock can still be used.
  81:Generated_Source\PSoC5/CyLib.c **** *
  82:Generated_Source\PSoC5/CyLib.c **** * \sideeffect
  83:Generated_Source\PSoC5/CyLib.c **** *  If wait is enabled: This function uses the Fast Time Wheel to time the wait.
  84:Generated_Source\PSoC5/CyLib.c **** *  Any other use of the Fast Time Wheel will be stopped during the period of
  85:Generated_Source\PSoC5/CyLib.c **** *  this function and then restored. This function also uses the 100 KHz ILO.
  86:Generated_Source\PSoC5/CyLib.c **** *  If not enabled, this function will enable the 100 KHz ILO for the period of
  87:Generated_Source\PSoC5/CyLib.c **** *  this function.
  88:Generated_Source\PSoC5/CyLib.c **** *
  89:Generated_Source\PSoC5/CyLib.c **** *  No changes to the setup of the ILO, Fast Time Wheel, Central Time Wheel or
ARM GAS  C:\Users\yqh\AppData\Local\Temp\ccH6G3Im.s 			page 3


  90:Generated_Source\PSoC5/CyLib.c **** *  Once Per Second interrupt may be made by interrupt routines during the period
  91:Generated_Source\PSoC5/CyLib.c **** *  of this function execution. The current operation of the ILO, Central Time
  92:Generated_Source\PSoC5/CyLib.c **** *  Wheel and Once Per Second interrupt are maintained during the operation of
  93:Generated_Source\PSoC5/CyLib.c **** *  this function provided the reading of the Power Manager Interrupt Status
  94:Generated_Source\PSoC5/CyLib.c **** *  Register is only done using the CyPmReadStatus() function.
  95:Generated_Source\PSoC5/CyLib.c **** *
  96:Generated_Source\PSoC5/CyLib.c **** *******************************************************************************/
  97:Generated_Source\PSoC5/CyLib.c **** cystatus CyPLL_OUT_Start(uint8 wait) 
  98:Generated_Source\PSoC5/CyLib.c **** {
  99:Generated_Source\PSoC5/CyLib.c ****     cystatus status = CYRET_SUCCESS;
 100:Generated_Source\PSoC5/CyLib.c **** 
 101:Generated_Source\PSoC5/CyLib.c ****     uint8 iloEnableState;
 102:Generated_Source\PSoC5/CyLib.c ****     uint8 pmTwCfg0State;
 103:Generated_Source\PSoC5/CyLib.c ****     uint8 pmTwCfg2State;
 104:Generated_Source\PSoC5/CyLib.c **** 
 105:Generated_Source\PSoC5/CyLib.c **** 
 106:Generated_Source\PSoC5/CyLib.c ****     /* Enables PLL circuit  */
 107:Generated_Source\PSoC5/CyLib.c ****     CY_CLK_PLL_CFG0_REG |= CY_CLK_PLL_ENABLE;
 108:Generated_Source\PSoC5/CyLib.c **** 
 109:Generated_Source\PSoC5/CyLib.c ****     if(wait != 0u)
 110:Generated_Source\PSoC5/CyLib.c ****     {
 111:Generated_Source\PSoC5/CyLib.c ****         /* Save 100 KHz ILO, FTW interval, enable and interrupt enable */
 112:Generated_Source\PSoC5/CyLib.c ****         iloEnableState = CY_LIB_SLOWCLK_ILO_CR0_REG & CY_LIB_SLOWCLK_ILO_CR0_EN_100KHZ;
 113:Generated_Source\PSoC5/CyLib.c ****         pmTwCfg0State = CY_LIB_PM_TW_CFG0_REG;
 114:Generated_Source\PSoC5/CyLib.c ****         pmTwCfg2State = CY_LIB_PM_TW_CFG2_REG;
 115:Generated_Source\PSoC5/CyLib.c **** 
 116:Generated_Source\PSoC5/CyLib.c ****         CyPmFtwSetInterval(CY_CLK_PLL_FTW_INTERVAL);
 117:Generated_Source\PSoC5/CyLib.c **** 
 118:Generated_Source\PSoC5/CyLib.c ****         status = CYRET_TIMEOUT;
 119:Generated_Source\PSoC5/CyLib.c **** 
 120:Generated_Source\PSoC5/CyLib.c ****         while(0u == (CY_PM_FTW_INT & CyPmReadStatus(CY_PM_FTW_INT)))
 121:Generated_Source\PSoC5/CyLib.c ****         {
 122:Generated_Source\PSoC5/CyLib.c ****             /* Wait for interrupt status */
 123:Generated_Source\PSoC5/CyLib.c ****             if(0u != (CY_CLK_PLL_SR_REG & CY_CLK_PLL_LOCK_STATUS))
 124:Generated_Source\PSoC5/CyLib.c ****             {
 125:Generated_Source\PSoC5/CyLib.c ****                 if(0u != (CY_CLK_PLL_SR_REG & CY_CLK_PLL_LOCK_STATUS))
 126:Generated_Source\PSoC5/CyLib.c ****                 {
 127:Generated_Source\PSoC5/CyLib.c ****                     status = CYRET_SUCCESS;
 128:Generated_Source\PSoC5/CyLib.c ****                     break;
 129:Generated_Source\PSoC5/CyLib.c ****                 }
 130:Generated_Source\PSoC5/CyLib.c ****             }
 131:Generated_Source\PSoC5/CyLib.c ****         }
 132:Generated_Source\PSoC5/CyLib.c **** 
 133:Generated_Source\PSoC5/CyLib.c ****         /* Restore 100 KHz ILO, FTW interval, enable and interrupt enable */
 134:Generated_Source\PSoC5/CyLib.c ****         if(0u == iloEnableState)
 135:Generated_Source\PSoC5/CyLib.c ****         {
 136:Generated_Source\PSoC5/CyLib.c ****             CyILO_Stop100K();
 137:Generated_Source\PSoC5/CyLib.c ****         }
 138:Generated_Source\PSoC5/CyLib.c **** 
 139:Generated_Source\PSoC5/CyLib.c ****         CY_LIB_PM_TW_CFG0_REG = pmTwCfg0State;
 140:Generated_Source\PSoC5/CyLib.c ****         CY_LIB_PM_TW_CFG2_REG = pmTwCfg2State;
 141:Generated_Source\PSoC5/CyLib.c ****     }
 142:Generated_Source\PSoC5/CyLib.c **** 
 143:Generated_Source\PSoC5/CyLib.c ****     return(status);
 144:Generated_Source\PSoC5/CyLib.c **** }
 145:Generated_Source\PSoC5/CyLib.c **** 
 146:Generated_Source\PSoC5/CyLib.c **** 
ARM GAS  C:\Users\yqh\AppData\Local\Temp\ccH6G3Im.s 			page 4


 147:Generated_Source\PSoC5/CyLib.c **** /*******************************************************************************
 148:Generated_Source\PSoC5/CyLib.c **** * Function Name: CyPLL_OUT_Stop
 149:Generated_Source\PSoC5/CyLib.c **** ****************************************************************************//**
 150:Generated_Source\PSoC5/CyLib.c **** *
 151:Generated_Source\PSoC5/CyLib.c **** *  Disables the PLL.
 152:Generated_Source\PSoC5/CyLib.c **** *
 153:Generated_Source\PSoC5/CyLib.c **** *******************************************************************************/
 154:Generated_Source\PSoC5/CyLib.c **** void CyPLL_OUT_Stop(void) 
 155:Generated_Source\PSoC5/CyLib.c **** {
 156:Generated_Source\PSoC5/CyLib.c ****     CY_CLK_PLL_CFG0_REG &= ((uint8)(~CY_CLK_PLL_ENABLE));
 157:Generated_Source\PSoC5/CyLib.c **** }
 158:Generated_Source\PSoC5/CyLib.c **** 
 159:Generated_Source\PSoC5/CyLib.c **** 
 160:Generated_Source\PSoC5/CyLib.c **** /*******************************************************************************
 161:Generated_Source\PSoC5/CyLib.c **** * Function Name: CyPLL_OUT_SetPQ
 162:Generated_Source\PSoC5/CyLib.c **** ****************************************************************************//**
 163:Generated_Source\PSoC5/CyLib.c **** *
 164:Generated_Source\PSoC5/CyLib.c **** *  Sets the P and Q dividers and the charge pump current.
 165:Generated_Source\PSoC5/CyLib.c **** *  The Frequency Out will be P/Q * Frequency In.
 166:Generated_Source\PSoC5/CyLib.c **** *  The PLL must be disabled before calling this function.
 167:Generated_Source\PSoC5/CyLib.c **** *
 168:Generated_Source\PSoC5/CyLib.c **** *  \param uint8 pDiv:
 169:Generated_Source\PSoC5/CyLib.c **** *   Valid range [8 - 255].
 170:Generated_Source\PSoC5/CyLib.c **** *
 171:Generated_Source\PSoC5/CyLib.c **** *  \param uint8 qDiv:
 172:Generated_Source\PSoC5/CyLib.c **** *   Valid range [1 - 16]. Input Frequency / Q must be in range of 1 to 3 MHz.
 173:Generated_Source\PSoC5/CyLib.c **** 
 174:Generated_Source\PSoC5/CyLib.c **** *  \param uint8 current:
 175:Generated_Source\PSoC5/CyLib.c **** *   Valid range [1 - 7]. Charge pump current in uA. Refer to the device TRM and
 176:Generated_Source\PSoC5/CyLib.c **** *   datasheet for more information.
 177:Generated_Source\PSoC5/CyLib.c **** *
 178:Generated_Source\PSoC5/CyLib.c **** * \sideeffect
 179:Generated_Source\PSoC5/CyLib.c **** *  If this function execution results in the CPU clock frequency increasing,
 180:Generated_Source\PSoC5/CyLib.c **** *  then the number of clock cycles the cache will wait before it samples data
 181:Generated_Source\PSoC5/CyLib.c **** *  coming back from the Flash must be adjusted by calling
 182:Generated_Source\PSoC5/CyLib.c **** *  CyFlash_SetWaitCycles() with an appropriate parameter. It can be optionally
 183:Generated_Source\PSoC5/CyLib.c **** *  called if the CPU clock frequency is lowered in order to improve the CPU
 184:Generated_Source\PSoC5/CyLib.c **** *  performance. See CyFlash_SetWaitCycles() description for more information.
 185:Generated_Source\PSoC5/CyLib.c **** *
 186:Generated_Source\PSoC5/CyLib.c **** *******************************************************************************/
 187:Generated_Source\PSoC5/CyLib.c **** void CyPLL_OUT_SetPQ(uint8 pDiv, uint8 qDiv, uint8 current) 
 188:Generated_Source\PSoC5/CyLib.c **** {
 189:Generated_Source\PSoC5/CyLib.c ****     /* Halt CPU in debug mode if PLL is enabled */
 190:Generated_Source\PSoC5/CyLib.c ****     CYASSERT(0u == (CY_CLK_PLL_CFG0_REG & CY_CLK_PLL_ENABLE));
 191:Generated_Source\PSoC5/CyLib.c **** 
 192:Generated_Source\PSoC5/CyLib.c ****     if((pDiv    >= CY_CLK_PLL_MIN_P_VALUE  ) &&
 193:Generated_Source\PSoC5/CyLib.c ****        (qDiv    <= CY_CLK_PLL_MAX_Q_VALUE  ) && (qDiv    >= CY_CLK_PLL_MIN_Q_VALUE  ) &&
 194:Generated_Source\PSoC5/CyLib.c ****        (current >= CY_CLK_PLL_MIN_CUR_VALUE) && (current <= CY_CLK_PLL_MAX_CUR_VALUE))
 195:Generated_Source\PSoC5/CyLib.c ****     {
 196:Generated_Source\PSoC5/CyLib.c ****         /* Set new values */
 197:Generated_Source\PSoC5/CyLib.c ****         CY_CLK_PLL_P_REG = pDiv;
 198:Generated_Source\PSoC5/CyLib.c ****         CY_CLK_PLL_Q_REG = ((uint8)(qDiv - 1u));
 199:Generated_Source\PSoC5/CyLib.c ****         CY_CLK_PLL_CFG1_REG = (CY_CLK_PLL_CFG1_REG & CY_CLK_PLL_CURRENT_MASK) |
 200:Generated_Source\PSoC5/CyLib.c ****                                 ((uint8)(((uint8)(current - 1u)) << CY_CLK_PLL_CURRENT_POSITION));
 201:Generated_Source\PSoC5/CyLib.c ****     }
 202:Generated_Source\PSoC5/CyLib.c ****     else
 203:Generated_Source\PSoC5/CyLib.c ****     {
ARM GAS  C:\Users\yqh\AppData\Local\Temp\ccH6G3Im.s 			page 5


 204:Generated_Source\PSoC5/CyLib.c ****         /***********************************************************************
 205:Generated_Source\PSoC5/CyLib.c ****         * Halt CPU in debug mode if:
 206:Generated_Source\PSoC5/CyLib.c ****         * - P divider is less than required
 207:Generated_Source\PSoC5/CyLib.c ****         * - Q divider is out of range
 208:Generated_Source\PSoC5/CyLib.c ****         * - pump current is out of range
 209:Generated_Source\PSoC5/CyLib.c ****         ***********************************************************************/
 210:Generated_Source\PSoC5/CyLib.c ****         CYASSERT(0u != 0u);
 211:Generated_Source\PSoC5/CyLib.c ****     }
 212:Generated_Source\PSoC5/CyLib.c **** 
 213:Generated_Source\PSoC5/CyLib.c **** }
 214:Generated_Source\PSoC5/CyLib.c **** 
 215:Generated_Source\PSoC5/CyLib.c **** 
 216:Generated_Source\PSoC5/CyLib.c **** /*******************************************************************************
 217:Generated_Source\PSoC5/CyLib.c **** * Function Name: CyPLL_OUT_SetSource
 218:Generated_Source\PSoC5/CyLib.c **** ****************************************************************************//**
 219:Generated_Source\PSoC5/CyLib.c **** *
 220:Generated_Source\PSoC5/CyLib.c **** *  Sets the input clock source to the PLL. The PLL must be disabled before
 221:Generated_Source\PSoC5/CyLib.c **** *  calling this function.
 222:Generated_Source\PSoC5/CyLib.c **** *
 223:Generated_Source\PSoC5/CyLib.c **** *   \param source: One of the three available PLL clock sources
 224:Generated_Source\PSoC5/CyLib.c **** *    \param CY_PLL_SOURCE_IMO  :   IMO
 225:Generated_Source\PSoC5/CyLib.c **** *    \param CY_PLL_SOURCE_XTAL :   MHz Crystal
 226:Generated_Source\PSoC5/CyLib.c **** *    \param CY_PLL_SOURCE_DSI  :   DSI
 227:Generated_Source\PSoC5/CyLib.c **** *
 228:Generated_Source\PSoC5/CyLib.c **** * \sideeffect
 229:Generated_Source\PSoC5/CyLib.c **** *  If this function execution results in the CPU clock frequency increasing,
 230:Generated_Source\PSoC5/CyLib.c **** *  then the number of clock cycles the cache will wait before it samples data
 231:Generated_Source\PSoC5/CyLib.c **** *  coming back from the3 Flash must be adjusted by calling
 232:Generated_Source\PSoC5/CyLib.c **** *  CyFlash_SetWaitCycles() with an appropriate parameter. It can be optionally
 233:Generated_Source\PSoC5/CyLib.c **** *  called if the CPU clock frequency is lowered in order to improve the CPU
 234:Generated_Source\PSoC5/CyLib.c **** *  performance. See CyFlash_SetWaitCycles() description for more information.
 235:Generated_Source\PSoC5/CyLib.c **** *
 236:Generated_Source\PSoC5/CyLib.c **** *******************************************************************************/
 237:Generated_Source\PSoC5/CyLib.c **** void CyPLL_OUT_SetSource(uint8 source) 
 238:Generated_Source\PSoC5/CyLib.c **** {
 239:Generated_Source\PSoC5/CyLib.c ****     /* Halt CPU in debug mode if PLL is enabled */
 240:Generated_Source\PSoC5/CyLib.c ****     CYASSERT(0u == (CY_CLK_PLL_CFG0_REG & CY_CLK_PLL_ENABLE));
 241:Generated_Source\PSoC5/CyLib.c **** 
 242:Generated_Source\PSoC5/CyLib.c ****     switch(source)
 243:Generated_Source\PSoC5/CyLib.c ****     {
 244:Generated_Source\PSoC5/CyLib.c ****         case CY_PLL_SOURCE_IMO:
 245:Generated_Source\PSoC5/CyLib.c ****         case CY_PLL_SOURCE_XTAL:
 246:Generated_Source\PSoC5/CyLib.c ****         case CY_PLL_SOURCE_DSI:
 247:Generated_Source\PSoC5/CyLib.c ****             CY_LIB_CLKDIST_CR_REG = ((CY_LIB_CLKDIST_CR_REG & CY_LIB_CLKDIST_CR_PLL_SCR_MASK) | sou
 248:Generated_Source\PSoC5/CyLib.c ****         break;
 249:Generated_Source\PSoC5/CyLib.c **** 
 250:Generated_Source\PSoC5/CyLib.c ****         default:
 251:Generated_Source\PSoC5/CyLib.c ****             CYASSERT(0u != 0u);
 252:Generated_Source\PSoC5/CyLib.c ****         break;
 253:Generated_Source\PSoC5/CyLib.c ****     }
 254:Generated_Source\PSoC5/CyLib.c **** }
 255:Generated_Source\PSoC5/CyLib.c **** 
 256:Generated_Source\PSoC5/CyLib.c **** 
 257:Generated_Source\PSoC5/CyLib.c **** /*******************************************************************************
 258:Generated_Source\PSoC5/CyLib.c **** * Function Name: CyIMO_Start
 259:Generated_Source\PSoC5/CyLib.c **** ****************************************************************************//**
 260:Generated_Source\PSoC5/CyLib.c **** *
ARM GAS  C:\Users\yqh\AppData\Local\Temp\ccH6G3Im.s 			page 6


 261:Generated_Source\PSoC5/CyLib.c **** *  Enables the IMO. Optionally waits at least 6 us for it to settle.
 262:Generated_Source\PSoC5/CyLib.c **** *
 263:Generated_Source\PSoC5/CyLib.c **** *  \param uint8 wait:
 264:Generated_Source\PSoC5/CyLib.c **** *   \param 0: Return immediately after configuration
 265:Generated_Source\PSoC5/CyLib.c **** *   \param 1: Wait for at least 6 us for the IMO to settle.
 266:Generated_Source\PSoC5/CyLib.c **** *
 267:Generated_Source\PSoC5/CyLib.c **** * \sideeffect
 268:Generated_Source\PSoC5/CyLib.c **** *  If wait is enabled: This function uses the Fast Time Wheel to time the wait.
 269:Generated_Source\PSoC5/CyLib.c **** *  Any other use of the Fast Time Wheel will be stopped during the period of
 270:Generated_Source\PSoC5/CyLib.c **** *  this function and then restored. This function also uses the 100 KHz ILO.
 271:Generated_Source\PSoC5/CyLib.c **** *  If not enabled, this function will enable the 100 KHz ILO for the period of
 272:Generated_Source\PSoC5/CyLib.c **** *  this function.
 273:Generated_Source\PSoC5/CyLib.c **** *
 274:Generated_Source\PSoC5/CyLib.c **** *  No changes to the setup of the ILO, Fast Time Wheel, Central Time Wheel or
 275:Generated_Source\PSoC5/CyLib.c **** *  Once Per Second interrupt may be made by interrupt routines during the period
 276:Generated_Source\PSoC5/CyLib.c **** *  of this function execution. The current operation of the ILO, Central Time
 277:Generated_Source\PSoC5/CyLib.c **** *  Wheel and Once Per Second interrupt are maintained during the operation of
 278:Generated_Source\PSoC5/CyLib.c **** *  this function provided the reading of the Power Manager Interrupt Status
 279:Generated_Source\PSoC5/CyLib.c **** *  Register is only done using the CyPmReadStatus() function.
 280:Generated_Source\PSoC5/CyLib.c **** *
 281:Generated_Source\PSoC5/CyLib.c **** *******************************************************************************/
 282:Generated_Source\PSoC5/CyLib.c **** void CyIMO_Start(uint8 wait) 
 283:Generated_Source\PSoC5/CyLib.c **** {
 284:Generated_Source\PSoC5/CyLib.c ****     uint8 pmFtwCfg2Reg;
 285:Generated_Source\PSoC5/CyLib.c ****     uint8 pmFtwCfg0Reg;
 286:Generated_Source\PSoC5/CyLib.c ****     uint8 ilo100KhzEnable;
 287:Generated_Source\PSoC5/CyLib.c **** 
 288:Generated_Source\PSoC5/CyLib.c **** 
 289:Generated_Source\PSoC5/CyLib.c ****     CY_LIB_PM_ACT_CFG0_REG  |= CY_LIB_PM_ACT_CFG0_IMO_EN;
 290:Generated_Source\PSoC5/CyLib.c ****     CY_LIB_PM_STBY_CFG0_REG |= CY_LIB_PM_STBY_CFG0_IMO_EN;
 291:Generated_Source\PSoC5/CyLib.c **** 
 292:Generated_Source\PSoC5/CyLib.c ****     if(0u != wait)
 293:Generated_Source\PSoC5/CyLib.c ****     {
 294:Generated_Source\PSoC5/CyLib.c ****         /* Need to turn on 100KHz ILO if it happens to not already be running.*/
 295:Generated_Source\PSoC5/CyLib.c ****         ilo100KhzEnable = CY_LIB_SLOWCLK_ILO_CR0_REG & CY_LIB_SLOWCLK_ILO_CR0_EN_100KHZ;
 296:Generated_Source\PSoC5/CyLib.c ****         pmFtwCfg0Reg = CY_LIB_PM_TW_CFG0_REG;
 297:Generated_Source\PSoC5/CyLib.c ****         pmFtwCfg2Reg = CY_LIB_PM_TW_CFG2_REG;
 298:Generated_Source\PSoC5/CyLib.c **** 
 299:Generated_Source\PSoC5/CyLib.c ****         CyPmFtwSetInterval(CY_LIB_CLK_IMO_FTW_TIMEOUT);
 300:Generated_Source\PSoC5/CyLib.c **** 
 301:Generated_Source\PSoC5/CyLib.c ****         while (0u == (CY_PM_FTW_INT & CyPmReadStatus(CY_PM_FTW_INT)))
 302:Generated_Source\PSoC5/CyLib.c ****         {
 303:Generated_Source\PSoC5/CyLib.c ****             /* Wait for interrupt status */
 304:Generated_Source\PSoC5/CyLib.c ****         }
 305:Generated_Source\PSoC5/CyLib.c **** 
 306:Generated_Source\PSoC5/CyLib.c ****         if(0u == ilo100KhzEnable)
 307:Generated_Source\PSoC5/CyLib.c ****         {
 308:Generated_Source\PSoC5/CyLib.c ****             CyILO_Stop100K();
 309:Generated_Source\PSoC5/CyLib.c ****         }
 310:Generated_Source\PSoC5/CyLib.c **** 
 311:Generated_Source\PSoC5/CyLib.c ****         CY_LIB_PM_TW_CFG0_REG = pmFtwCfg0Reg;
 312:Generated_Source\PSoC5/CyLib.c ****         CY_LIB_PM_TW_CFG2_REG = pmFtwCfg2Reg;
 313:Generated_Source\PSoC5/CyLib.c ****     }
 314:Generated_Source\PSoC5/CyLib.c **** }
 315:Generated_Source\PSoC5/CyLib.c **** 
 316:Generated_Source\PSoC5/CyLib.c **** 
 317:Generated_Source\PSoC5/CyLib.c **** /*******************************************************************************
ARM GAS  C:\Users\yqh\AppData\Local\Temp\ccH6G3Im.s 			page 7


 318:Generated_Source\PSoC5/CyLib.c **** * Function Name: CyIMO_Stop
 319:Generated_Source\PSoC5/CyLib.c **** ****************************************************************************//**
 320:Generated_Source\PSoC5/CyLib.c **** *
 321:Generated_Source\PSoC5/CyLib.c **** *   Disables the IMO.
 322:Generated_Source\PSoC5/CyLib.c **** *
 323:Generated_Source\PSoC5/CyLib.c **** *******************************************************************************/
 324:Generated_Source\PSoC5/CyLib.c **** void CyIMO_Stop(void) 
 325:Generated_Source\PSoC5/CyLib.c **** {
 326:Generated_Source\PSoC5/CyLib.c ****     CY_LIB_PM_ACT_CFG0_REG  &= ((uint8) (~CY_LIB_PM_ACT_CFG0_IMO_EN));
 327:Generated_Source\PSoC5/CyLib.c ****     CY_LIB_PM_STBY_CFG0_REG &= ((uint8) (~CY_LIB_PM_STBY_CFG0_IMO_EN));
 328:Generated_Source\PSoC5/CyLib.c **** }
 329:Generated_Source\PSoC5/CyLib.c **** 
 330:Generated_Source\PSoC5/CyLib.c **** 
 331:Generated_Source\PSoC5/CyLib.c **** /*******************************************************************************
 332:Generated_Source\PSoC5/CyLib.c **** * Function Name: CyUSB_PowerOnCheck
 333:Generated_Source\PSoC5/CyLib.c **** ****************************************************************************//**
 334:Generated_Source\PSoC5/CyLib.c **** *
 335:Generated_Source\PSoC5/CyLib.c **** *  Returns the USB power status value. A private function to cy_boot.
 336:Generated_Source\PSoC5/CyLib.c **** *
 337:Generated_Source\PSoC5/CyLib.c **** * \return
 338:Generated_Source\PSoC5/CyLib.c **** *   uint8: one if the USB is enabled, 0 if not enabled.
 339:Generated_Source\PSoC5/CyLib.c **** *
 340:Generated_Source\PSoC5/CyLib.c **** *******************************************************************************/
 341:Generated_Source\PSoC5/CyLib.c **** static uint8 CyUSB_PowerOnCheck(void)  
 342:Generated_Source\PSoC5/CyLib.c **** {
 343:Generated_Source\PSoC5/CyLib.c ****     uint8 poweredOn = 0u;
 344:Generated_Source\PSoC5/CyLib.c **** 
 345:Generated_Source\PSoC5/CyLib.c ****     /* Check whether device is in Active or AltActive and if USB is powered on */
 346:Generated_Source\PSoC5/CyLib.c ****     if((((CY_PM_MODE_CSR_REG & CY_PM_MODE_CSR_MASK) == CY_PM_MODE_CSR_ACTIVE ) &&
 347:Generated_Source\PSoC5/CyLib.c ****        (0u != (CY_LIB_PM_ACT_CFG5_REG & CY_ACT_USB_ENABLED     )))  ||
 348:Generated_Source\PSoC5/CyLib.c ****        (((CY_PM_MODE_CSR_REG & CY_PM_MODE_CSR_MASK) == CY_PM_MODE_CSR_ALT_ACT) &&
 349:Generated_Source\PSoC5/CyLib.c ****        (0u != (CY_LIB_PM_STBY_CFG5_REG & CY_ALT_ACT_USB_ENABLED))))
 350:Generated_Source\PSoC5/CyLib.c ****     {
 351:Generated_Source\PSoC5/CyLib.c ****         poweredOn = 1u;
 352:Generated_Source\PSoC5/CyLib.c ****     }
 353:Generated_Source\PSoC5/CyLib.c **** 
 354:Generated_Source\PSoC5/CyLib.c ****     return (poweredOn);
 355:Generated_Source\PSoC5/CyLib.c **** }
 356:Generated_Source\PSoC5/CyLib.c **** 
 357:Generated_Source\PSoC5/CyLib.c **** 
 358:Generated_Source\PSoC5/CyLib.c **** /*******************************************************************************
 359:Generated_Source\PSoC5/CyLib.c **** * Function Name: CyIMO_SetTrimValue
 360:Generated_Source\PSoC5/CyLib.c **** ****************************************************************************//**
 361:Generated_Source\PSoC5/CyLib.c **** *
 362:Generated_Source\PSoC5/CyLib.c **** *  Sets the IMO factory trim values.
 363:Generated_Source\PSoC5/CyLib.c **** *
 364:Generated_Source\PSoC5/CyLib.c **** *  uint8 freq - frequency for which trims must be set
 365:Generated_Source\PSoC5/CyLib.c **** *
 366:Generated_Source\PSoC5/CyLib.c **** *******************************************************************************/
 367:Generated_Source\PSoC5/CyLib.c **** static void CyIMO_SetTrimValue(uint8 freq) 
 368:Generated_Source\PSoC5/CyLib.c **** {
  26              		.loc 1 368 0
  27              		.cfi_startproc
  28              		@ args = 0, pretend = 0, frame = 0
  29              		@ frame_needed = 0, uses_anonymous_args = 0
  30              		@ link register save eliminated.
  31              	.LVL0:
ARM GAS  C:\Users\yqh\AppData\Local\Temp\ccH6G3Im.s 			page 8


  32              	.LBB14:
  33              	.LBB15:
 346:Generated_Source\PSoC5/CyLib.c ****        (0u != (CY_LIB_PM_ACT_CFG5_REG & CY_ACT_USB_ENABLED     )))  ||
  34              		.loc 1 346 0
  35 0000 204B     		ldr	r3, .L19
  36 0002 1A78     		ldrb	r2, [r3]	@ zero_extendqisi2
  37 0004 5107     		lsls	r1, r2, #29
  38 0006 03D1     		bne	.L2
 347:Generated_Source\PSoC5/CyLib.c ****        (((CY_PM_MODE_CSR_REG & CY_PM_MODE_CSR_MASK) == CY_PM_MODE_CSR_ALT_ACT) &&
  39              		.loc 1 347 0
  40 0008 1F4A     		ldr	r2, .L19+4
  41 000a 1278     		ldrb	r2, [r2]	@ zero_extendqisi2
 346:Generated_Source\PSoC5/CyLib.c ****        (0u != (CY_LIB_PM_ACT_CFG5_REG & CY_ACT_USB_ENABLED     )))  ||
  42              		.loc 1 346 0
  43 000c D207     		lsls	r2, r2, #31
  44 000e 31D4     		bmi	.L3
  45              	.L2:
 348:Generated_Source\PSoC5/CyLib.c ****        (0u != (CY_LIB_PM_STBY_CFG5_REG & CY_ALT_ACT_USB_ENABLED))))
  46              		.loc 1 348 0
  47 0010 1B78     		ldrb	r3, [r3]	@ zero_extendqisi2
 347:Generated_Source\PSoC5/CyLib.c ****        (((CY_PM_MODE_CSR_REG & CY_PM_MODE_CSR_MASK) == CY_PM_MODE_CSR_ALT_ACT) &&
  48              		.loc 1 347 0
  49 0012 03F00703 		and	r3, r3, #7
  50 0016 012B     		cmp	r3, #1
  51 0018 05D1     		bne	.L15
 349:Generated_Source\PSoC5/CyLib.c ****     {
  52              		.loc 1 349 0
  53 001a 1C4B     		ldr	r3, .L19+8
  54 001c 1B78     		ldrb	r3, [r3]	@ zero_extendqisi2
 348:Generated_Source\PSoC5/CyLib.c ****        (0u != (CY_LIB_PM_STBY_CFG5_REG & CY_ALT_ACT_USB_ENABLED))))
  55              		.loc 1 348 0
  56 001e 13F00103 		ands	r3, r3, #1
  57 0022 27D1     		bne	.L3
  58 0024 00E0     		b	.L4
  59              	.L15:
 347:Generated_Source\PSoC5/CyLib.c ****        (((CY_PM_MODE_CSR_REG & CY_PM_MODE_CSR_MASK) == CY_PM_MODE_CSR_ALT_ACT) &&
  60              		.loc 1 347 0
  61 0026 0023     		movs	r3, #0
  62              	.LVL1:
  63              	.L4:
  64              	.LBE15:
  65              	.LBE14:
 369:Generated_Source\PSoC5/CyLib.c ****     uint8 usbPowerOn = CyUSB_PowerOnCheck();
 370:Generated_Source\PSoC5/CyLib.c **** 
 371:Generated_Source\PSoC5/CyLib.c ****     /* If USB is powered */
 372:Generated_Source\PSoC5/CyLib.c ****     if(usbPowerOn == 1u)
 373:Generated_Source\PSoC5/CyLib.c ****     {
 374:Generated_Source\PSoC5/CyLib.c ****         /* Unlock USB write */
 375:Generated_Source\PSoC5/CyLib.c ****         CY_LIB_USB_CR1_REG &= ((uint8)(~CY_LIB_USB_CLK_EN));
 376:Generated_Source\PSoC5/CyLib.c ****     }
 377:Generated_Source\PSoC5/CyLib.c ****     switch(freq)
  66              		.loc 1 377 0
  67 0028 0828     		cmp	r0, #8
  68 002a 2AD8     		bhi	.L1
  69 002c DFE800F0 		tbb	[pc, r0]
  70              	.L7:
  71 0030 05       		.byte	(.L6-.L7)/2
ARM GAS  C:\Users\yqh\AppData\Local\Temp\ccH6G3Im.s 			page 9


  72 0031 07       		.byte	(.L8-.L7)/2
  73 0032 09       		.byte	(.L9-.L7)/2
  74 0033 0B       		.byte	(.L10-.L7)/2
  75 0034 0D       		.byte	(.L11-.L7)/2
  76 0035 0F       		.byte	(.L12-.L7)/2
  77 0036 11       		.byte	(.L13-.L7)/2
  78 0037 29       		.byte	(.L1-.L7)/2
  79 0038 16       		.byte	(.L14-.L7)/2
  80 0039 00       		.p2align 1
  81              	.L6:
 378:Generated_Source\PSoC5/CyLib.c ****     {
 379:Generated_Source\PSoC5/CyLib.c ****     case CY_IMO_FREQ_3MHZ:
 380:Generated_Source\PSoC5/CyLib.c ****         CY_LIB_IMO_TR1_REG = CY_GET_XTND_REG8(CY_LIB_TRIM_IMO_3MHZ_PTR);
  82              		.loc 1 380 0
  83 003a 154B     		ldr	r3, .L19+12
  84 003c 0AE0     		b	.L17
  85              	.L8:
 381:Generated_Source\PSoC5/CyLib.c ****         break;
 382:Generated_Source\PSoC5/CyLib.c **** 
 383:Generated_Source\PSoC5/CyLib.c ****     case CY_IMO_FREQ_6MHZ:
 384:Generated_Source\PSoC5/CyLib.c ****         CY_LIB_IMO_TR1_REG = CY_GET_XTND_REG8(CY_LIB_TRIM_IMO_6MHZ_PTR);
  86              		.loc 1 384 0
  87 003e 154B     		ldr	r3, .L19+16
  88 0040 08E0     		b	.L17
  89              	.L9:
 385:Generated_Source\PSoC5/CyLib.c ****         break;
 386:Generated_Source\PSoC5/CyLib.c **** 
 387:Generated_Source\PSoC5/CyLib.c ****     case CY_IMO_FREQ_12MHZ:
 388:Generated_Source\PSoC5/CyLib.c ****         CY_LIB_IMO_TR1_REG = CY_GET_XTND_REG8(CY_LIB_TRIM_IMO_12MHZ_PTR);
  90              		.loc 1 388 0
  91 0042 154B     		ldr	r3, .L19+20
  92 0044 06E0     		b	.L17
  93              	.L10:
 389:Generated_Source\PSoC5/CyLib.c ****         break;
 390:Generated_Source\PSoC5/CyLib.c **** 
 391:Generated_Source\PSoC5/CyLib.c ****     case CY_IMO_FREQ_24MHZ:
 392:Generated_Source\PSoC5/CyLib.c ****         CY_LIB_IMO_TR1_REG = CY_GET_XTND_REG8(CY_LIB_TRIM_IMO_24MHZ_PTR);
  94              		.loc 1 392 0
  95 0046 154B     		ldr	r3, .L19+24
  96 0048 04E0     		b	.L17
  97              	.L11:
 393:Generated_Source\PSoC5/CyLib.c ****         break;
 394:Generated_Source\PSoC5/CyLib.c **** 
 395:Generated_Source\PSoC5/CyLib.c ****     case CY_IMO_FREQ_48MHZ:
 396:Generated_Source\PSoC5/CyLib.c ****         CY_LIB_IMO_TR1_REG = CY_GET_XTND_REG8(CY_LIB_TRIM_IMO_TR1_PTR);
  98              		.loc 1 396 0
  99 004a 154B     		ldr	r3, .L19+28
 100 004c 02E0     		b	.L17
 101              	.L12:
 397:Generated_Source\PSoC5/CyLib.c ****         break;
 398:Generated_Source\PSoC5/CyLib.c **** 
 399:Generated_Source\PSoC5/CyLib.c ****     case CY_IMO_FREQ_62MHZ:
 400:Generated_Source\PSoC5/CyLib.c ****         CY_LIB_IMO_TR1_REG = CY_GET_XTND_REG8(CY_LIB_TRIM_IMO_67MHZ_PTR);
 102              		.loc 1 400 0
 103 004e 154B     		ldr	r3, .L19+32
 104 0050 00E0     		b	.L17
 105              	.L13:
ARM GAS  C:\Users\yqh\AppData\Local\Temp\ccH6G3Im.s 			page 10


 401:Generated_Source\PSoC5/CyLib.c ****         break;
 402:Generated_Source\PSoC5/CyLib.c **** 
 403:Generated_Source\PSoC5/CyLib.c **** #if(CY_PSOC5)
 404:Generated_Source\PSoC5/CyLib.c ****     case CY_IMO_FREQ_74MHZ:
 405:Generated_Source\PSoC5/CyLib.c ****         CY_LIB_IMO_TR1_REG = CY_GET_XTND_REG8(CY_LIB_TRIM_IMO_80MHZ_PTR);
 106              		.loc 1 405 0
 107 0052 154B     		ldr	r3, .L19+36
 108              	.L17:
 109 0054 1B78     		ldrb	r3, [r3]	@ zero_extendqisi2
 110 0056 154A     		ldr	r2, .L19+40
 111 0058 DBB2     		uxtb	r3, r3
 112 005a 09E0     		b	.L16
 113              	.L14:
 406:Generated_Source\PSoC5/CyLib.c ****         break;
 407:Generated_Source\PSoC5/CyLib.c **** #endif  /* (CY_PSOC5) */
 408:Generated_Source\PSoC5/CyLib.c **** 
 409:Generated_Source\PSoC5/CyLib.c ****     case CY_IMO_FREQ_USB:
 410:Generated_Source\PSoC5/CyLib.c ****         CY_LIB_IMO_TR1_REG = CY_GET_XTND_REG8(CY_LIB_TRIM_IMO_USB_PTR);
 114              		.loc 1 410 0
 115 005c 144A     		ldr	r2, .L19+44
 116 005e 1349     		ldr	r1, .L19+40
 117 0060 1278     		ldrb	r2, [r2]	@ zero_extendqisi2
 118 0062 D2B2     		uxtb	r2, r2
 119 0064 0A70     		strb	r2, [r1]
 411:Generated_Source\PSoC5/CyLib.c **** 
 412:Generated_Source\PSoC5/CyLib.c ****         /* If USB is powered */
 413:Generated_Source\PSoC5/CyLib.c ****         if(usbPowerOn == 1u)
 120              		.loc 1 413 0
 121 0066 63B1     		cbz	r3, .L1
 414:Generated_Source\PSoC5/CyLib.c ****         {
 415:Generated_Source\PSoC5/CyLib.c ****             /* Lock USB Oscillator */
 416:Generated_Source\PSoC5/CyLib.c ****             CY_LIB_USB_CR1_REG |= CY_LIB_USB_CLK_EN;
 122              		.loc 1 416 0
 123 0068 124A     		ldr	r2, .L19+48
 124 006a 1378     		ldrb	r3, [r2]	@ zero_extendqisi2
 125 006c 43F00203 		orr	r3, r3, #2
 126              	.L16:
 127 0070 1370     		strb	r3, [r2]
 128 0072 7047     		bx	lr
 129              	.LVL2:
 130              	.L3:
 375:Generated_Source\PSoC5/CyLib.c ****     }
 131              		.loc 1 375 0
 132 0074 0F4A     		ldr	r2, .L19+48
 133 0076 1378     		ldrb	r3, [r2]	@ zero_extendqisi2
 134 0078 03F0FD03 		and	r3, r3, #253
 135 007c 1370     		strb	r3, [r2]
 136 007e 0123     		movs	r3, #1
 137 0080 D2E7     		b	.L4
 138              	.LVL3:
 139              	.L1:
 140 0082 7047     		bx	lr
 141              	.L20:
 142              		.align	2
 143              	.L19:
 144 0084 93430040 		.word	1073759123
 145 0088 A5430040 		.word	1073759141
ARM GAS  C:\Users\yqh\AppData\Local\Temp\ccH6G3Im.s 			page 11


 146 008c B5430040 		.word	1073759157
 147 0090 08010049 		.word	1224737032
 148 0094 09010049 		.word	1224737033
 149 0098 0A010049 		.word	1224737034
 150 009c 0B010049 		.word	1224737035
 151 00a0 89010049 		.word	1224737161
 152 00a4 0C010049 		.word	1224737036
 153 00a8 0D010049 		.word	1224737037
 154 00ac A1460040 		.word	1073759905
 155 00b0 0F010049 		.word	1224737039
 156 00b4 09600040 		.word	1073766409
 157              		.cfi_endproc
 158              	.LFE7:
 159              		.size	CyIMO_SetTrimValue, .-CyIMO_SetTrimValue
 160              		.section	.text.CyBusClk_Internal_SetDivider,"ax",%progbits
 161              		.align	1
 162              		.thumb
 163              		.thumb_func
 164              		.type	CyBusClk_Internal_SetDivider, %function
 165              	CyBusClk_Internal_SetDivider:
 166              	.LFB14:
 417:Generated_Source\PSoC5/CyLib.c ****         }
 418:Generated_Source\PSoC5/CyLib.c ****         break;
 419:Generated_Source\PSoC5/CyLib.c **** 
 420:Generated_Source\PSoC5/CyLib.c ****     default:
 421:Generated_Source\PSoC5/CyLib.c ****             CYASSERT(0u != 0u);
 422:Generated_Source\PSoC5/CyLib.c ****         break;
 423:Generated_Source\PSoC5/CyLib.c ****     }
 424:Generated_Source\PSoC5/CyLib.c **** 
 425:Generated_Source\PSoC5/CyLib.c **** }
 426:Generated_Source\PSoC5/CyLib.c **** 
 427:Generated_Source\PSoC5/CyLib.c **** 
 428:Generated_Source\PSoC5/CyLib.c **** /*******************************************************************************
 429:Generated_Source\PSoC5/CyLib.c **** * Function Name: CyIMO_SetFreq
 430:Generated_Source\PSoC5/CyLib.c **** ****************************************************************************//**
 431:Generated_Source\PSoC5/CyLib.c **** *
 432:Generated_Source\PSoC5/CyLib.c **** *  Sets the frequency of the IMO. Changes may be made while the IMO is running.
 433:Generated_Source\PSoC5/CyLib.c **** *
 434:Generated_Source\PSoC5/CyLib.c **** *  \param freq: Frequency of IMO operation
 435:Generated_Source\PSoC5/CyLib.c **** *       CY_IMO_FREQ_3MHZ  to set  3   MHz
 436:Generated_Source\PSoC5/CyLib.c **** *       CY_IMO_FREQ_6MHZ  to set  6   MHz
 437:Generated_Source\PSoC5/CyLib.c **** *       CY_IMO_FREQ_12MHZ to set 12   MHz
 438:Generated_Source\PSoC5/CyLib.c **** *       CY_IMO_FREQ_24MHZ to set 24   MHz
 439:Generated_Source\PSoC5/CyLib.c **** *       CY_IMO_FREQ_48MHZ to set 48   MHz
 440:Generated_Source\PSoC5/CyLib.c **** *       CY_IMO_FREQ_62MHZ to set 62.6 MHz
 441:Generated_Source\PSoC5/CyLib.c **** *       CY_IMO_FREQ_74MHZ to set 74.7 MHz (not applicable for PSoC 3)
 442:Generated_Source\PSoC5/CyLib.c **** *       CY_IMO_FREQ_USB   to set 24   MHz (Trimmed for USB operation)
 443:Generated_Source\PSoC5/CyLib.c **** *
 444:Generated_Source\PSoC5/CyLib.c **** * \sideeffect
 445:Generated_Source\PSoC5/CyLib.c **** *  If this function execution results in the CPU clock frequency increasing,
 446:Generated_Source\PSoC5/CyLib.c **** *  then the number of clock cycles the cache will wait before it samples data
 447:Generated_Source\PSoC5/CyLib.c **** *  coming back from the Flash must be adjusted by calling
 448:Generated_Source\PSoC5/CyLib.c **** *  CyFlash_SetWaitCycles() with an appropriate parameter. It can be optionally
 449:Generated_Source\PSoC5/CyLib.c **** *  called if the CPU clock frequency is lowered in order to improve the CPU
 450:Generated_Source\PSoC5/CyLib.c **** *  performance. See CyFlash_SetWaitCycles() description for more information.
 451:Generated_Source\PSoC5/CyLib.c **** *
 452:Generated_Source\PSoC5/CyLib.c **** *  When the USB setting is chosen, the USB clock locking circuit is enabled.
ARM GAS  C:\Users\yqh\AppData\Local\Temp\ccH6G3Im.s 			page 12


 453:Generated_Source\PSoC5/CyLib.c **** *  Otherwise this circuit is disabled. The USB block must be powered before
 454:Generated_Source\PSoC5/CyLib.c **** *  selecting the USB setting.
 455:Generated_Source\PSoC5/CyLib.c **** *
 456:Generated_Source\PSoC5/CyLib.c **** *******************************************************************************/
 457:Generated_Source\PSoC5/CyLib.c **** void CyIMO_SetFreq(uint8 freq) 
 458:Generated_Source\PSoC5/CyLib.c **** {
 459:Generated_Source\PSoC5/CyLib.c ****     uint8 currentFreq;
 460:Generated_Source\PSoC5/CyLib.c ****     uint8 nextFreq;
 461:Generated_Source\PSoC5/CyLib.c **** 
 462:Generated_Source\PSoC5/CyLib.c ****     /***************************************************************************
 463:Generated_Source\PSoC5/CyLib.c ****     * If the IMO frequency is changed,the Trim values must also be set
 464:Generated_Source\PSoC5/CyLib.c ****     * accordingly.This requires reading the current frequency. If the new
 465:Generated_Source\PSoC5/CyLib.c ****     * frequency is faster, then set a new trim and then change the frequency,
 466:Generated_Source\PSoC5/CyLib.c ****     * otherwise change the frequency and then set new trim values.
 467:Generated_Source\PSoC5/CyLib.c ****     ***************************************************************************/
 468:Generated_Source\PSoC5/CyLib.c **** 
 469:Generated_Source\PSoC5/CyLib.c ****     currentFreq = CY_LIB_FASTCLK_IMO_CR_REG & ((uint8)(~CY_LIB_FASTCLK_IMO_CR_RANGE_MASK));
 470:Generated_Source\PSoC5/CyLib.c **** 
 471:Generated_Source\PSoC5/CyLib.c ****     /* Check if requested frequency is USB. */
 472:Generated_Source\PSoC5/CyLib.c ****     nextFreq = (freq == CY_IMO_FREQ_USB) ? CY_IMO_FREQ_24MHZ : freq;
 473:Generated_Source\PSoC5/CyLib.c **** 
 474:Generated_Source\PSoC5/CyLib.c ****     switch (currentFreq)
 475:Generated_Source\PSoC5/CyLib.c ****     {
 476:Generated_Source\PSoC5/CyLib.c ****     case 0u:
 477:Generated_Source\PSoC5/CyLib.c ****         currentFreq = CY_IMO_FREQ_12MHZ;
 478:Generated_Source\PSoC5/CyLib.c ****         break;
 479:Generated_Source\PSoC5/CyLib.c **** 
 480:Generated_Source\PSoC5/CyLib.c ****     case 1u:
 481:Generated_Source\PSoC5/CyLib.c ****         currentFreq = CY_IMO_FREQ_6MHZ;
 482:Generated_Source\PSoC5/CyLib.c ****         break;
 483:Generated_Source\PSoC5/CyLib.c **** 
 484:Generated_Source\PSoC5/CyLib.c ****     case 2u:
 485:Generated_Source\PSoC5/CyLib.c ****         currentFreq = CY_IMO_FREQ_24MHZ;
 486:Generated_Source\PSoC5/CyLib.c ****         break;
 487:Generated_Source\PSoC5/CyLib.c **** 
 488:Generated_Source\PSoC5/CyLib.c ****     case 3u:
 489:Generated_Source\PSoC5/CyLib.c ****         currentFreq = CY_IMO_FREQ_3MHZ;
 490:Generated_Source\PSoC5/CyLib.c ****         break;
 491:Generated_Source\PSoC5/CyLib.c **** 
 492:Generated_Source\PSoC5/CyLib.c ****     case 4u:
 493:Generated_Source\PSoC5/CyLib.c ****         currentFreq = CY_IMO_FREQ_48MHZ;
 494:Generated_Source\PSoC5/CyLib.c ****         break;
 495:Generated_Source\PSoC5/CyLib.c **** 
 496:Generated_Source\PSoC5/CyLib.c ****     case 5u:
 497:Generated_Source\PSoC5/CyLib.c ****         currentFreq = CY_IMO_FREQ_62MHZ;
 498:Generated_Source\PSoC5/CyLib.c ****         break;
 499:Generated_Source\PSoC5/CyLib.c **** 
 500:Generated_Source\PSoC5/CyLib.c **** #if(CY_PSOC5)
 501:Generated_Source\PSoC5/CyLib.c ****     case 6u:
 502:Generated_Source\PSoC5/CyLib.c ****         currentFreq = CY_IMO_FREQ_74MHZ;
 503:Generated_Source\PSoC5/CyLib.c ****         break;
 504:Generated_Source\PSoC5/CyLib.c **** #endif  /* (CY_PSOC5) */
 505:Generated_Source\PSoC5/CyLib.c **** 
 506:Generated_Source\PSoC5/CyLib.c ****     default:
 507:Generated_Source\PSoC5/CyLib.c ****         CYASSERT(0u != 0u);
 508:Generated_Source\PSoC5/CyLib.c ****         break;
 509:Generated_Source\PSoC5/CyLib.c ****     }
ARM GAS  C:\Users\yqh\AppData\Local\Temp\ccH6G3Im.s 			page 13


 510:Generated_Source\PSoC5/CyLib.c **** 
 511:Generated_Source\PSoC5/CyLib.c ****     if (nextFreq >= currentFreq)
 512:Generated_Source\PSoC5/CyLib.c ****     {
 513:Generated_Source\PSoC5/CyLib.c ****         /* Set new trim first */
 514:Generated_Source\PSoC5/CyLib.c ****         CyIMO_SetTrimValue(freq);
 515:Generated_Source\PSoC5/CyLib.c ****     }
 516:Generated_Source\PSoC5/CyLib.c **** 
 517:Generated_Source\PSoC5/CyLib.c ****     /* Set usbclk_on bit when using CY_IMO_FREQ_USB, if not clear it */
 518:Generated_Source\PSoC5/CyLib.c ****     switch(freq)
 519:Generated_Source\PSoC5/CyLib.c ****     {
 520:Generated_Source\PSoC5/CyLib.c ****     case CY_IMO_FREQ_3MHZ:
 521:Generated_Source\PSoC5/CyLib.c ****         CY_LIB_FASTCLK_IMO_CR_REG = ((CY_LIB_FASTCLK_IMO_CR_REG & CY_LIB_FASTCLK_IMO_CR_RANGE_MASK)
 522:Generated_Source\PSoC5/CyLib.c ****             CY_LIB_IMO_3MHZ_VALUE) & ((uint8)(~CY_LIB_IMO_USBCLK_ON_SET));
 523:Generated_Source\PSoC5/CyLib.c ****         break;
 524:Generated_Source\PSoC5/CyLib.c **** 
 525:Generated_Source\PSoC5/CyLib.c ****     case CY_IMO_FREQ_6MHZ:
 526:Generated_Source\PSoC5/CyLib.c ****         CY_LIB_FASTCLK_IMO_CR_REG = ((CY_LIB_FASTCLK_IMO_CR_REG & CY_LIB_FASTCLK_IMO_CR_RANGE_MASK)
 527:Generated_Source\PSoC5/CyLib.c ****             CY_LIB_IMO_6MHZ_VALUE) & ((uint8)(~CY_LIB_IMO_USBCLK_ON_SET));
 528:Generated_Source\PSoC5/CyLib.c ****         break;
 529:Generated_Source\PSoC5/CyLib.c **** 
 530:Generated_Source\PSoC5/CyLib.c ****     case CY_IMO_FREQ_12MHZ:
 531:Generated_Source\PSoC5/CyLib.c ****         CY_LIB_FASTCLK_IMO_CR_REG = ((CY_LIB_FASTCLK_IMO_CR_REG & CY_LIB_FASTCLK_IMO_CR_RANGE_MASK)
 532:Generated_Source\PSoC5/CyLib.c ****             CY_LIB_IMO_12MHZ_VALUE) & ((uint8)(~CY_LIB_IMO_USBCLK_ON_SET));
 533:Generated_Source\PSoC5/CyLib.c ****         break;
 534:Generated_Source\PSoC5/CyLib.c **** 
 535:Generated_Source\PSoC5/CyLib.c ****     case CY_IMO_FREQ_24MHZ:
 536:Generated_Source\PSoC5/CyLib.c ****         CY_LIB_FASTCLK_IMO_CR_REG = ((CY_LIB_FASTCLK_IMO_CR_REG & CY_LIB_FASTCLK_IMO_CR_RANGE_MASK)
 537:Generated_Source\PSoC5/CyLib.c ****             CY_LIB_IMO_24MHZ_VALUE) & ((uint8)(~CY_LIB_IMO_USBCLK_ON_SET));
 538:Generated_Source\PSoC5/CyLib.c ****         break;
 539:Generated_Source\PSoC5/CyLib.c **** 
 540:Generated_Source\PSoC5/CyLib.c ****     case CY_IMO_FREQ_48MHZ:
 541:Generated_Source\PSoC5/CyLib.c ****         CY_LIB_FASTCLK_IMO_CR_REG = ((CY_LIB_FASTCLK_IMO_CR_REG & CY_LIB_FASTCLK_IMO_CR_RANGE_MASK)
 542:Generated_Source\PSoC5/CyLib.c ****             CY_LIB_IMO_48MHZ_VALUE) & ((uint8)(~CY_LIB_IMO_USBCLK_ON_SET));
 543:Generated_Source\PSoC5/CyLib.c ****         break;
 544:Generated_Source\PSoC5/CyLib.c **** 
 545:Generated_Source\PSoC5/CyLib.c ****     case CY_IMO_FREQ_62MHZ:
 546:Generated_Source\PSoC5/CyLib.c ****         CY_LIB_FASTCLK_IMO_CR_REG = ((CY_LIB_FASTCLK_IMO_CR_REG & CY_LIB_FASTCLK_IMO_CR_RANGE_MASK)
 547:Generated_Source\PSoC5/CyLib.c ****             CY_LIB_IMO_62MHZ_VALUE) & ((uint8)(~CY_LIB_IMO_USBCLK_ON_SET));
 548:Generated_Source\PSoC5/CyLib.c ****         break;
 549:Generated_Source\PSoC5/CyLib.c **** 
 550:Generated_Source\PSoC5/CyLib.c **** #if(CY_PSOC5)
 551:Generated_Source\PSoC5/CyLib.c ****     case CY_IMO_FREQ_74MHZ:
 552:Generated_Source\PSoC5/CyLib.c ****         CY_LIB_FASTCLK_IMO_CR_REG = ((CY_LIB_FASTCLK_IMO_CR_REG & CY_LIB_FASTCLK_IMO_CR_RANGE_MASK)
 553:Generated_Source\PSoC5/CyLib.c ****             CY_LIB_IMO_74MHZ_VALUE) & ((uint8)(~CY_LIB_IMO_USBCLK_ON_SET));
 554:Generated_Source\PSoC5/CyLib.c ****         break;
 555:Generated_Source\PSoC5/CyLib.c **** #endif  /* (CY_PSOC5) */
 556:Generated_Source\PSoC5/CyLib.c **** 
 557:Generated_Source\PSoC5/CyLib.c ****     case CY_IMO_FREQ_USB:
 558:Generated_Source\PSoC5/CyLib.c ****         CY_LIB_FASTCLK_IMO_CR_REG = ((CY_LIB_FASTCLK_IMO_CR_REG & CY_LIB_FASTCLK_IMO_CR_RANGE_MASK)
 559:Generated_Source\PSoC5/CyLib.c ****             CY_LIB_IMO_24MHZ_VALUE) | CY_LIB_IMO_USBCLK_ON_SET;
 560:Generated_Source\PSoC5/CyLib.c ****         break;
 561:Generated_Source\PSoC5/CyLib.c **** 
 562:Generated_Source\PSoC5/CyLib.c ****     default:
 563:Generated_Source\PSoC5/CyLib.c ****         CYASSERT(0u != 0u);
 564:Generated_Source\PSoC5/CyLib.c ****         break;
 565:Generated_Source\PSoC5/CyLib.c ****     }
 566:Generated_Source\PSoC5/CyLib.c **** 
ARM GAS  C:\Users\yqh\AppData\Local\Temp\ccH6G3Im.s 			page 14


 567:Generated_Source\PSoC5/CyLib.c ****     /* Tu rn onIMO Doubler, if switching to CY_IMO_FREQ_USB */
 568:Generated_Source\PSoC5/CyLib.c ****     if (freq == CY_IMO_FREQ_USB)
 569:Generated_Source\PSoC5/CyLib.c ****     {
 570:Generated_Source\PSoC5/CyLib.c ****         CyIMO_EnableDoubler();
 571:Generated_Source\PSoC5/CyLib.c ****     }
 572:Generated_Source\PSoC5/CyLib.c ****     else
 573:Generated_Source\PSoC5/CyLib.c ****     {
 574:Generated_Source\PSoC5/CyLib.c ****         CyIMO_DisableDoubler();
 575:Generated_Source\PSoC5/CyLib.c ****     }
 576:Generated_Source\PSoC5/CyLib.c **** 
 577:Generated_Source\PSoC5/CyLib.c ****     if (nextFreq < currentFreq)
 578:Generated_Source\PSoC5/CyLib.c ****     {
 579:Generated_Source\PSoC5/CyLib.c ****         /* Set the trim after setting frequency */
 580:Generated_Source\PSoC5/CyLib.c ****         CyIMO_SetTrimValue(freq);
 581:Generated_Source\PSoC5/CyLib.c ****     }
 582:Generated_Source\PSoC5/CyLib.c **** }
 583:Generated_Source\PSoC5/CyLib.c **** 
 584:Generated_Source\PSoC5/CyLib.c **** 
 585:Generated_Source\PSoC5/CyLib.c **** /*******************************************************************************
 586:Generated_Source\PSoC5/CyLib.c **** * Function Name: CyIMO_SetSource
 587:Generated_Source\PSoC5/CyLib.c **** ****************************************************************************//**
 588:Generated_Source\PSoC5/CyLib.c **** *
 589:Generated_Source\PSoC5/CyLib.c **** *  Sets the source of the clock output from the IMO block.
 590:Generated_Source\PSoC5/CyLib.c **** *
 591:Generated_Source\PSoC5/CyLib.c **** *  The output from the IMO is by default the IMO itself. Optionally the MHz
 592:Generated_Source\PSoC5/CyLib.c **** *  Crystal or DSI input can be the source of the IMO output instead.
 593:Generated_Source\PSoC5/CyLib.c **** *
 594:Generated_Source\PSoC5/CyLib.c **** *   \param source: CY_IMO_SOURCE_DSI to set the DSI as source.
 595:Generated_Source\PSoC5/CyLib.c **** *           CY_IMO_SOURCE_XTAL to set the MHz as source.
 596:Generated_Source\PSoC5/CyLib.c **** *           CY_IMO_SOURCE_IMO to set the IMO itself.
 597:Generated_Source\PSoC5/CyLib.c **** *
 598:Generated_Source\PSoC5/CyLib.c **** * \sideeffect
 599:Generated_Source\PSoC5/CyLib.c **** *  If this function execution resulted in the CPU clock frequency increasing,
 600:Generated_Source\PSoC5/CyLib.c **** *  then the number of clock cycles the cache will wait before it samples data
 601:Generated_Source\PSoC5/CyLib.c **** *  coming back from the Flash must be adjusted by calling
 602:Generated_Source\PSoC5/CyLib.c **** *  CyFlash_SetWaitCycles() with an appropriate parameter. It can be optionally
 603:Generated_Source\PSoC5/CyLib.c **** *  called if the CPU clock frequency is lowered in order to improve the CPU
 604:Generated_Source\PSoC5/CyLib.c **** *  performance. See CyFlash_SetWaitCycles() description for more information.
 605:Generated_Source\PSoC5/CyLib.c **** *
 606:Generated_Source\PSoC5/CyLib.c **** *******************************************************************************/
 607:Generated_Source\PSoC5/CyLib.c **** void CyIMO_SetSource(uint8 source) 
 608:Generated_Source\PSoC5/CyLib.c **** {
 609:Generated_Source\PSoC5/CyLib.c ****     switch(source)
 610:Generated_Source\PSoC5/CyLib.c ****     {
 611:Generated_Source\PSoC5/CyLib.c ****     case CY_IMO_SOURCE_DSI:
 612:Generated_Source\PSoC5/CyLib.c ****         CY_LIB_CLKDIST_CR_REG     &= ((uint8)(~CY_LIB_CLKDIST_CR_IMO2X));
 613:Generated_Source\PSoC5/CyLib.c ****         CY_LIB_FASTCLK_IMO_CR_REG |= CY_LIB_FASTCLK_IMO_IMO;
 614:Generated_Source\PSoC5/CyLib.c ****         break;
 615:Generated_Source\PSoC5/CyLib.c **** 
 616:Generated_Source\PSoC5/CyLib.c ****     case CY_IMO_SOURCE_XTAL:
 617:Generated_Source\PSoC5/CyLib.c ****         CY_LIB_CLKDIST_CR_REG     |= CY_LIB_CLKDIST_CR_IMO2X;
 618:Generated_Source\PSoC5/CyLib.c ****         CY_LIB_FASTCLK_IMO_CR_REG |= CY_LIB_FASTCLK_IMO_IMO;
 619:Generated_Source\PSoC5/CyLib.c ****         break;
 620:Generated_Source\PSoC5/CyLib.c **** 
 621:Generated_Source\PSoC5/CyLib.c ****     case CY_IMO_SOURCE_IMO:
 622:Generated_Source\PSoC5/CyLib.c ****         CY_LIB_FASTCLK_IMO_CR_REG &= ((uint8)(~CY_LIB_FASTCLK_IMO_IMO));
 623:Generated_Source\PSoC5/CyLib.c ****         break;
ARM GAS  C:\Users\yqh\AppData\Local\Temp\ccH6G3Im.s 			page 15


 624:Generated_Source\PSoC5/CyLib.c **** 
 625:Generated_Source\PSoC5/CyLib.c ****     default:
 626:Generated_Source\PSoC5/CyLib.c ****         /* Incorrect source value */
 627:Generated_Source\PSoC5/CyLib.c ****         CYASSERT(0u != 0u);
 628:Generated_Source\PSoC5/CyLib.c ****         break;
 629:Generated_Source\PSoC5/CyLib.c ****     }
 630:Generated_Source\PSoC5/CyLib.c **** }
 631:Generated_Source\PSoC5/CyLib.c **** 
 632:Generated_Source\PSoC5/CyLib.c **** 
 633:Generated_Source\PSoC5/CyLib.c **** /*******************************************************************************
 634:Generated_Source\PSoC5/CyLib.c **** * Function Name: CyIMO_EnableDoubler
 635:Generated_Source\PSoC5/CyLib.c **** ****************************************************************************//**
 636:Generated_Source\PSoC5/CyLib.c **** *
 637:Generated_Source\PSoC5/CyLib.c **** *  Enables the IMO doubler.  The 2x frequency clock is used to convert a 24 MHz
 638:Generated_Source\PSoC5/CyLib.c **** *  input to a 48 MHz output for use by the USB block.
 639:Generated_Source\PSoC5/CyLib.c **** *
 640:Generated_Source\PSoC5/CyLib.c **** *******************************************************************************/
 641:Generated_Source\PSoC5/CyLib.c **** void CyIMO_EnableDoubler(void) 
 642:Generated_Source\PSoC5/CyLib.c **** {
 643:Generated_Source\PSoC5/CyLib.c ****     /* Set FASTCLK_IMO_CR_PTR regigster's 4th bit */
 644:Generated_Source\PSoC5/CyLib.c ****     CY_LIB_FASTCLK_IMO_CR_REG |= CY_LIB_FASTCLK_IMO_DOUBLER;
 645:Generated_Source\PSoC5/CyLib.c **** }
 646:Generated_Source\PSoC5/CyLib.c **** 
 647:Generated_Source\PSoC5/CyLib.c **** 
 648:Generated_Source\PSoC5/CyLib.c **** /*******************************************************************************
 649:Generated_Source\PSoC5/CyLib.c **** * Function Name: CyIMO_DisableDoubler
 650:Generated_Source\PSoC5/CyLib.c **** ****************************************************************************//**
 651:Generated_Source\PSoC5/CyLib.c **** *
 652:Generated_Source\PSoC5/CyLib.c **** *   Disables the IMO doubler.
 653:Generated_Source\PSoC5/CyLib.c **** *
 654:Generated_Source\PSoC5/CyLib.c **** *******************************************************************************/
 655:Generated_Source\PSoC5/CyLib.c **** void CyIMO_DisableDoubler(void) 
 656:Generated_Source\PSoC5/CyLib.c **** {
 657:Generated_Source\PSoC5/CyLib.c ****     CY_LIB_FASTCLK_IMO_CR_REG &= ((uint8)(~CY_LIB_FASTCLK_IMO_DOUBLER));
 658:Generated_Source\PSoC5/CyLib.c **** }
 659:Generated_Source\PSoC5/CyLib.c **** 
 660:Generated_Source\PSoC5/CyLib.c **** 
 661:Generated_Source\PSoC5/CyLib.c **** /*******************************************************************************
 662:Generated_Source\PSoC5/CyLib.c **** * Function Name: CyMasterClk_SetSource
 663:Generated_Source\PSoC5/CyLib.c **** ****************************************************************************//**
 664:Generated_Source\PSoC5/CyLib.c **** *
 665:Generated_Source\PSoC5/CyLib.c **** *  Sets the source of the master clock.
 666:Generated_Source\PSoC5/CyLib.c **** *
 667:Generated_Source\PSoC5/CyLib.c **** *   \param source: One of the four available Master clock sources.
 668:Generated_Source\PSoC5/CyLib.c **** *     CY_MASTER_SOURCE_IMO
 669:Generated_Source\PSoC5/CyLib.c **** *     CY_MASTER_SOURCE_PLL
 670:Generated_Source\PSoC5/CyLib.c **** *     CY_MASTER_SOURCE_XTAL
 671:Generated_Source\PSoC5/CyLib.c **** *     CY_MASTER_SOURCE_DSI
 672:Generated_Source\PSoC5/CyLib.c **** *
 673:Generated_Source\PSoC5/CyLib.c **** * \sideeffect
 674:Generated_Source\PSoC5/CyLib.c **** *  The current source and the new source must both be running and stable before
 675:Generated_Source\PSoC5/CyLib.c **** *  calling this function.
 676:Generated_Source\PSoC5/CyLib.c **** *
 677:Generated_Source\PSoC5/CyLib.c **** *  If this function execution resulted in the CPU clock frequency increasing,
 678:Generated_Source\PSoC5/CyLib.c **** *  then the number of clock cycles the cache will wait before it samples data
 679:Generated_Source\PSoC5/CyLib.c **** *  coming back from the Flash must be adjusted by calling
 680:Generated_Source\PSoC5/CyLib.c **** *  CyFlash_SetWaitCycles() with an appropriate parameter. It can be optionally
ARM GAS  C:\Users\yqh\AppData\Local\Temp\ccH6G3Im.s 			page 16


 681:Generated_Source\PSoC5/CyLib.c **** *  called if the CPU clock frequency is lowered in order to improve the CPU
 682:Generated_Source\PSoC5/CyLib.c **** *  performance. See CyFlash_SetWaitCycles() description for more information.
 683:Generated_Source\PSoC5/CyLib.c **** *
 684:Generated_Source\PSoC5/CyLib.c **** *******************************************************************************/
 685:Generated_Source\PSoC5/CyLib.c **** void CyMasterClk_SetSource(uint8 source) 
 686:Generated_Source\PSoC5/CyLib.c **** {
 687:Generated_Source\PSoC5/CyLib.c ****     CY_LIB_CLKDIST_MSTR1_REG = (CY_LIB_CLKDIST_MSTR1_REG & MASTER_CLK_SRC_CLEAR) |
 688:Generated_Source\PSoC5/CyLib.c ****                                 (source & ((uint8)(~MASTER_CLK_SRC_CLEAR)));
 689:Generated_Source\PSoC5/CyLib.c **** }
 690:Generated_Source\PSoC5/CyLib.c **** 
 691:Generated_Source\PSoC5/CyLib.c **** 
 692:Generated_Source\PSoC5/CyLib.c **** /*******************************************************************************
 693:Generated_Source\PSoC5/CyLib.c **** * Function Name: CyMasterClk_SetDivider
 694:Generated_Source\PSoC5/CyLib.c **** ****************************************************************************//**
 695:Generated_Source\PSoC5/CyLib.c **** *
 696:Generated_Source\PSoC5/CyLib.c **** *  Sets the divider value used to generate Master Clock.
 697:Generated_Source\PSoC5/CyLib.c **** *
 698:Generated_Source\PSoC5/CyLib.c **** *  \param uint8 divider:
 699:Generated_Source\PSoC5/CyLib.c **** *   The valid range is [0-255]. The clock will be divided by this value + 1.
 700:Generated_Source\PSoC5/CyLib.c **** *   For example to divide this parameter by two should be set to 1.
 701:Generated_Source\PSoC5/CyLib.c **** *
 702:Generated_Source\PSoC5/CyLib.c **** * \sideeffect
 703:Generated_Source\PSoC5/CyLib.c **** *  If this function execution resulted in the CPU clock frequency increasing,
 704:Generated_Source\PSoC5/CyLib.c **** *  then the number of clock cycles the cache will wait before it samples data
 705:Generated_Source\PSoC5/CyLib.c **** *  coming back from the Flash must be adjusted by calling
 706:Generated_Source\PSoC5/CyLib.c **** *  CyFlash_SetWaitCycles() with an appropriate parameter. It can be optionally
 707:Generated_Source\PSoC5/CyLib.c **** *  called if the CPU clock frequency is lowered in order to improve the CPU
 708:Generated_Source\PSoC5/CyLib.c **** *  performance. See CyFlash_SetWaitCycles() description for more information.
 709:Generated_Source\PSoC5/CyLib.c **** *
 710:Generated_Source\PSoC5/CyLib.c **** *  When changing the Master or Bus clock divider value from div-by-n to div-by-1
 711:Generated_Source\PSoC5/CyLib.c **** *  the first clock cycle output after the div-by-1 can be up to 4 ns shorter
 712:Generated_Source\PSoC5/CyLib.c **** *  than the final/expected div-by-1 period.
 713:Generated_Source\PSoC5/CyLib.c **** *
 714:Generated_Source\PSoC5/CyLib.c **** *******************************************************************************/
 715:Generated_Source\PSoC5/CyLib.c **** void CyMasterClk_SetDivider(uint8 divider) 
 716:Generated_Source\PSoC5/CyLib.c **** {
 717:Generated_Source\PSoC5/CyLib.c ****     CY_LIB_CLKDIST_MSTR0_REG = divider;
 718:Generated_Source\PSoC5/CyLib.c **** }
 719:Generated_Source\PSoC5/CyLib.c **** 
 720:Generated_Source\PSoC5/CyLib.c **** 
 721:Generated_Source\PSoC5/CyLib.c **** /*******************************************************************************
 722:Generated_Source\PSoC5/CyLib.c **** * Function Name: CyBusClk_Internal_SetDivider
 723:Generated_Source\PSoC5/CyLib.c **** ****************************************************************************//**
 724:Generated_Source\PSoC5/CyLib.c **** *
 725:Generated_Source\PSoC5/CyLib.c **** *  The function used by CyBusClk_SetDivider(). For internal use only.
 726:Generated_Source\PSoC5/CyLib.c **** *
 727:Generated_Source\PSoC5/CyLib.c **** *   \param divider: Valid range [0-65535].
 728:Generated_Source\PSoC5/CyLib.c **** *   The clock will be divided by this value + 1.
 729:Generated_Source\PSoC5/CyLib.c **** *   For example, to divide this parameter by two should be set to 1.
 730:Generated_Source\PSoC5/CyLib.c **** *
 731:Generated_Source\PSoC5/CyLib.c **** *******************************************************************************/
 732:Generated_Source\PSoC5/CyLib.c **** static void CyBusClk_Internal_SetDivider(uint16 divider)
 733:Generated_Source\PSoC5/CyLib.c **** {
 167              		.loc 1 733 0
 168              		.cfi_startproc
 169              		@ args = 0, pretend = 0, frame = 0
 170              		@ frame_needed = 0, uses_anonymous_args = 0
ARM GAS  C:\Users\yqh\AppData\Local\Temp\ccH6G3Im.s 			page 17


 171              		@ link register save eliminated.
 172              	.LVL4:
 734:Generated_Source\PSoC5/CyLib.c ****     /* Mask bits to enable shadow loads  */
 735:Generated_Source\PSoC5/CyLib.c ****     CY_LIB_CLKDIST_AMASK_REG &= CY_LIB_CLKDIST_AMASK_MASK;
 173              		.loc 1 735 0
 174 0000 0B4A     		ldr	r2, .L22
 175 0002 1378     		ldrb	r3, [r2]	@ zero_extendqisi2
 176 0004 03F0F003 		and	r3, r3, #240
 177 0008 1370     		strb	r3, [r2]
 736:Generated_Source\PSoC5/CyLib.c ****     CY_LIB_CLKDIST_DMASK_REG  = CY_LIB_CLKDIST_DMASK_MASK;
 178              		.loc 1 736 0
 179 000a 0A4B     		ldr	r3, .L22+4
 180 000c 0022     		movs	r2, #0
 181 000e 1A70     		strb	r2, [r3]
 737:Generated_Source\PSoC5/CyLib.c **** 
 738:Generated_Source\PSoC5/CyLib.c ****     /* Enable mask bits to enable shadow loads */
 739:Generated_Source\PSoC5/CyLib.c ****     CY_LIB_CLKDIST_BCFG2_REG |= CY_LIB_CLKDIST_BCFG2_MASK;
 182              		.loc 1 739 0
 183 0010 094A     		ldr	r2, .L22+8
 184 0012 1378     		ldrb	r3, [r2]	@ zero_extendqisi2
 185 0014 43F08003 		orr	r3, r3, #128
 186 0018 1370     		strb	r3, [r2]
 740:Generated_Source\PSoC5/CyLib.c **** 
 741:Generated_Source\PSoC5/CyLib.c ****     /* Update Shadow Divider Value Register with new divider */
 742:Generated_Source\PSoC5/CyLib.c ****     CY_LIB_CLKDIST_WRK_LSB_REG = LO8(divider);
 187              		.loc 1 742 0
 188 001a 084B     		ldr	r3, .L22+12
 189 001c C2B2     		uxtb	r2, r0
 190 001e 1A70     		strb	r2, [r3]
 743:Generated_Source\PSoC5/CyLib.c ****     CY_LIB_CLKDIST_WRK_MSB_REG = HI8(divider);
 191              		.loc 1 743 0
 192 0020 000A     		lsrs	r0, r0, #8
 193              	.LVL5:
 744:Generated_Source\PSoC5/CyLib.c **** 
 745:Generated_Source\PSoC5/CyLib.c **** 
 746:Generated_Source\PSoC5/CyLib.c ****     /***************************************************************************
 747:Generated_Source\PSoC5/CyLib.c ****     * Copy shadow value defined in Shadow Divider Value Register
 748:Generated_Source\PSoC5/CyLib.c ****     * (CY_LIB_CLKDIST_WRK_LSB_REG and CY_LIB_CLKDIST_WRK_MSB_REG) to all
 749:Generated_Source\PSoC5/CyLib.c ****     * dividers selected in Analog and Digital Clock Mask Registers
 750:Generated_Source\PSoC5/CyLib.c ****     * (CY_LIB_CLKDIST_AMASK_REG and CY_LIB_CLKDIST_DMASK_REG).
 751:Generated_Source\PSoC5/CyLib.c ****     ***************************************************************************/
 752:Generated_Source\PSoC5/CyLib.c ****     CY_LIB_CLKDIST_LD_REG |= CY_LIB_CLKDIST_LD_LOAD;
 194              		.loc 1 752 0
 195 0022 074A     		ldr	r2, .L22+16
 743:Generated_Source\PSoC5/CyLib.c ****     CY_LIB_CLKDIST_WRK_MSB_REG = HI8(divider);
 196              		.loc 1 743 0
 197 0024 5870     		strb	r0, [r3, #1]
 198              		.loc 1 752 0
 199 0026 1378     		ldrb	r3, [r2]	@ zero_extendqisi2
 200 0028 43F00103 		orr	r3, r3, #1
 201 002c 1370     		strb	r3, [r2]
 202 002e 7047     		bx	lr
 203              	.L23:
 204              		.align	2
 205              	.L22:
 206 0030 14400040 		.word	1073758228
 207 0034 10400040 		.word	1073758224
ARM GAS  C:\Users\yqh\AppData\Local\Temp\ccH6G3Im.s 			page 18


 208 0038 08400040 		.word	1073758216
 209 003c 02400040 		.word	1073758210
 210 0040 01400040 		.word	1073758209
 211              		.cfi_endproc
 212              	.LFE14:
 213              		.size	CyBusClk_Internal_SetDivider, .-CyBusClk_Internal_SetDivider
 214              		.section	.text.CyPLL_OUT_Stop,"ax",%progbits
 215              		.align	1
 216              		.global	CyPLL_OUT_Stop
 217              		.thumb
 218              		.thumb_func
 219              		.type	CyPLL_OUT_Stop, %function
 220              	CyPLL_OUT_Stop:
 221              	.LFB1:
 155:Generated_Source\PSoC5/CyLib.c ****     CY_CLK_PLL_CFG0_REG &= ((uint8)(~CY_CLK_PLL_ENABLE));
 222              		.loc 1 155 0
 223              		.cfi_startproc
 224              		@ args = 0, pretend = 0, frame = 0
 225              		@ frame_needed = 0, uses_anonymous_args = 0
 226              		@ link register save eliminated.
 156:Generated_Source\PSoC5/CyLib.c **** }
 227              		.loc 1 156 0
 228 0000 024A     		ldr	r2, .L25
 229 0002 1378     		ldrb	r3, [r2]	@ zero_extendqisi2
 230 0004 03F0FE03 		and	r3, r3, #254
 231 0008 1370     		strb	r3, [r2]
 232 000a 7047     		bx	lr
 233              	.L26:
 234              		.align	2
 235              	.L25:
 236 000c 20420040 		.word	1073758752
 237              		.cfi_endproc
 238              	.LFE1:
 239              		.size	CyPLL_OUT_Stop, .-CyPLL_OUT_Stop
 240              		.section	.text.CyPLL_OUT_SetPQ,"ax",%progbits
 241              		.align	1
 242              		.global	CyPLL_OUT_SetPQ
 243              		.thumb
 244              		.thumb_func
 245              		.type	CyPLL_OUT_SetPQ, %function
 246              	CyPLL_OUT_SetPQ:
 247              	.LFB2:
 188:Generated_Source\PSoC5/CyLib.c ****     /* Halt CPU in debug mode if PLL is enabled */
 248              		.loc 1 188 0
 249              		.cfi_startproc
 250              		@ args = 0, pretend = 0, frame = 0
 251              		@ frame_needed = 0, uses_anonymous_args = 0
 252              		@ link register save eliminated.
 253              	.LVL6:
 192:Generated_Source\PSoC5/CyLib.c ****        (qDiv    <= CY_CLK_PLL_MAX_Q_VALUE  ) && (qDiv    >= CY_CLK_PLL_MIN_Q_VALUE  ) &&
 254              		.loc 1 192 0
 255 0000 0728     		cmp	r0, #7
 256 0002 12D9     		bls	.L27
 193:Generated_Source\PSoC5/CyLib.c ****        (current >= CY_CLK_PLL_MIN_CUR_VALUE) && (current <= CY_CLK_PLL_MAX_CUR_VALUE))
 257              		.loc 1 193 0
 258 0004 0139     		subs	r1, r1, #1
 259              	.LVL7:
ARM GAS  C:\Users\yqh\AppData\Local\Temp\ccH6G3Im.s 			page 19


 260 0006 C9B2     		uxtb	r1, r1
 261 0008 0F29     		cmp	r1, #15
 262 000a 0ED8     		bhi	.L27
 193:Generated_Source\PSoC5/CyLib.c ****        (current >= CY_CLK_PLL_MIN_CUR_VALUE) && (current <= CY_CLK_PLL_MAX_CUR_VALUE))
 263              		.loc 1 193 0 is_stmt 0 discriminator 1
 264 000c 531E     		subs	r3, r2, #1
 265 000e DAB2     		uxtb	r2, r3
 266              	.LVL8:
 267 0010 062A     		cmp	r2, #6
 268 0012 0AD8     		bhi	.L27
 197:Generated_Source\PSoC5/CyLib.c ****         CY_CLK_PLL_Q_REG = ((uint8)(qDiv - 1u));
 269              		.loc 1 197 0 is_stmt 1
 270 0014 054B     		ldr	r3, .L29
 271 0016 1870     		strb	r0, [r3]
 198:Generated_Source\PSoC5/CyLib.c ****         CY_CLK_PLL_CFG1_REG = (CY_CLK_PLL_CFG1_REG & CY_CLK_PLL_CURRENT_MASK) |
 272              		.loc 1 198 0
 273 0018 5970     		strb	r1, [r3, #1]
 199:Generated_Source\PSoC5/CyLib.c ****                                 ((uint8)(((uint8)(current - 1u)) << CY_CLK_PLL_CURRENT_POSITION));
 274              		.loc 1 199 0
 275 001a 0549     		ldr	r1, .L29+4
 276 001c 0B78     		ldrb	r3, [r1]	@ zero_extendqisi2
 277 001e 03F08F03 		and	r3, r3, #143
 278 0022 43EA0213 		orr	r3, r3, r2, lsl #4
 279 0026 DBB2     		uxtb	r3, r3
 280 0028 0B70     		strb	r3, [r1]
 281              	.L27:
 282 002a 7047     		bx	lr
 283              	.L30:
 284              		.align	2
 285              	.L29:
 286 002c 22420040 		.word	1073758754
 287 0030 21420040 		.word	1073758753
 288              		.cfi_endproc
 289              	.LFE2:
 290              		.size	CyPLL_OUT_SetPQ, .-CyPLL_OUT_SetPQ
 291              		.section	.text.CyPLL_OUT_SetSource,"ax",%progbits
 292              		.align	1
 293              		.global	CyPLL_OUT_SetSource
 294              		.thumb
 295              		.thumb_func
 296              		.type	CyPLL_OUT_SetSource, %function
 297              	CyPLL_OUT_SetSource:
 298              	.LFB3:
 238:Generated_Source\PSoC5/CyLib.c ****     /* Halt CPU in debug mode if PLL is enabled */
 299              		.loc 1 238 0
 300              		.cfi_startproc
 301              		@ args = 0, pretend = 0, frame = 0
 302              		@ frame_needed = 0, uses_anonymous_args = 0
 303              		@ link register save eliminated.
 304              	.LVL9:
 242:Generated_Source\PSoC5/CyLib.c ****     {
 305              		.loc 1 242 0
 306 0000 0228     		cmp	r0, #2
 247:Generated_Source\PSoC5/CyLib.c ****         break;
 307              		.loc 1 247 0
 308 0002 9FBF     		itttt	ls
 309 0004 4FF04022 		movls	r2, #1073758208
ARM GAS  C:\Users\yqh\AppData\Local\Temp\ccH6G3Im.s 			page 20


 310 0008 1378     		ldrbls	r3, [r2]	@ zero_extendqisi2
 311 000a 03F0FC03 		andls	r3, r3, #252
 312 000e 1843     		orrls	r0, r0, r3
 313              	.LVL10:
 314 0010 98BF     		it	ls
 315 0012 1070     		strbls	r0, [r2]
 316 0014 7047     		bx	lr
 317              		.cfi_endproc
 318              	.LFE3:
 319              		.size	CyPLL_OUT_SetSource, .-CyPLL_OUT_SetSource
 320              		.section	.text.CyIMO_Stop,"ax",%progbits
 321              		.align	1
 322              		.global	CyIMO_Stop
 323              		.thumb
 324              		.thumb_func
 325              		.type	CyIMO_Stop, %function
 326              	CyIMO_Stop:
 327              	.LFB5:
 325:Generated_Source\PSoC5/CyLib.c ****     CY_LIB_PM_ACT_CFG0_REG  &= ((uint8) (~CY_LIB_PM_ACT_CFG0_IMO_EN));
 328              		.loc 1 325 0
 329              		.cfi_startproc
 330              		@ args = 0, pretend = 0, frame = 0
 331              		@ frame_needed = 0, uses_anonymous_args = 0
 332              		@ link register save eliminated.
 326:Generated_Source\PSoC5/CyLib.c ****     CY_LIB_PM_STBY_CFG0_REG &= ((uint8) (~CY_LIB_PM_STBY_CFG0_IMO_EN));
 333              		.loc 1 326 0
 334 0000 044A     		ldr	r2, .L35
 335 0002 1378     		ldrb	r3, [r2]	@ zero_extendqisi2
 336 0004 03F0EF03 		and	r3, r3, #239
 337 0008 1370     		strb	r3, [r2]
 327:Generated_Source\PSoC5/CyLib.c **** }
 338              		.loc 1 327 0
 339 000a 137C     		ldrb	r3, [r2, #16]	@ zero_extendqisi2
 340 000c 03F0EF03 		and	r3, r3, #239
 341 0010 1374     		strb	r3, [r2, #16]
 342 0012 7047     		bx	lr
 343              	.L36:
 344              		.align	2
 345              	.L35:
 346 0014 A0430040 		.word	1073759136
 347              		.cfi_endproc
 348              	.LFE5:
 349              		.size	CyIMO_Stop, .-CyIMO_Stop
 350              		.section	.text.CyIMO_SetSource,"ax",%progbits
 351              		.align	1
 352              		.global	CyIMO_SetSource
 353              		.thumb
 354              		.thumb_func
 355              		.type	CyIMO_SetSource, %function
 356              	CyIMO_SetSource:
 357              	.LFB9:
 608:Generated_Source\PSoC5/CyLib.c ****     switch(source)
 358              		.loc 1 608 0
 359              		.cfi_startproc
 360              		@ args = 0, pretend = 0, frame = 0
 361              		@ frame_needed = 0, uses_anonymous_args = 0
 362              		@ link register save eliminated.
ARM GAS  C:\Users\yqh\AppData\Local\Temp\ccH6G3Im.s 			page 21


 363              	.LVL11:
 609:Generated_Source\PSoC5/CyLib.c ****     {
 364              		.loc 1 609 0
 365 0000 0128     		cmp	r0, #1
 366 0002 08D0     		beq	.L39
 367 0004 14D3     		bcc	.L40
 368 0006 0228     		cmp	r0, #2
 369 0008 17D1     		bne	.L37
 612:Generated_Source\PSoC5/CyLib.c ****         CY_LIB_FASTCLK_IMO_CR_REG |= CY_LIB_FASTCLK_IMO_IMO;
 370              		.loc 1 612 0
 371 000a 4FF04022 		mov	r2, #1073758208
 372 000e 1378     		ldrb	r3, [r2]	@ zero_extendqisi2
 373 0010 03F0BF03 		and	r3, r3, #191
 374 0014 04E0     		b	.L42
 375              	.L39:
 617:Generated_Source\PSoC5/CyLib.c ****         CY_LIB_FASTCLK_IMO_CR_REG |= CY_LIB_FASTCLK_IMO_IMO;
 376              		.loc 1 617 0
 377 0016 4FF04022 		mov	r2, #1073758208
 378 001a 1378     		ldrb	r3, [r2]	@ zero_extendqisi2
 379 001c 43F04003 		orr	r3, r3, #64
 380              	.L42:
 381 0020 1370     		strb	r3, [r2]
 618:Generated_Source\PSoC5/CyLib.c ****         break;
 382              		.loc 1 618 0
 383 0022 92F80032 		ldrb	r3, [r2, #512]	@ zero_extendqisi2
 384 0026 43F02003 		orr	r3, r3, #32
 385 002a 82F80032 		strb	r3, [r2, #512]
 619:Generated_Source\PSoC5/CyLib.c **** 
 386              		.loc 1 619 0
 387 002e 7047     		bx	lr
 388              	.L40:
 622:Generated_Source\PSoC5/CyLib.c ****         break;
 389              		.loc 1 622 0
 390 0030 024A     		ldr	r2, .L43
 391 0032 1378     		ldrb	r3, [r2]	@ zero_extendqisi2
 392 0034 03F0DF03 		and	r3, r3, #223
 393 0038 1370     		strb	r3, [r2]
 394              	.L37:
 395 003a 7047     		bx	lr
 396              	.L44:
 397              		.align	2
 398              	.L43:
 399 003c 00420040 		.word	1073758720
 400              		.cfi_endproc
 401              	.LFE9:
 402              		.size	CyIMO_SetSource, .-CyIMO_SetSource
 403              		.section	.text.CyIMO_EnableDoubler,"ax",%progbits
 404              		.align	1
 405              		.global	CyIMO_EnableDoubler
 406              		.thumb
 407              		.thumb_func
 408              		.type	CyIMO_EnableDoubler, %function
 409              	CyIMO_EnableDoubler:
 410              	.LFB10:
 642:Generated_Source\PSoC5/CyLib.c ****     /* Set FASTCLK_IMO_CR_PTR regigster's 4th bit */
 411              		.loc 1 642 0
 412              		.cfi_startproc
ARM GAS  C:\Users\yqh\AppData\Local\Temp\ccH6G3Im.s 			page 22


 413              		@ args = 0, pretend = 0, frame = 0
 414              		@ frame_needed = 0, uses_anonymous_args = 0
 415              		@ link register save eliminated.
 644:Generated_Source\PSoC5/CyLib.c **** }
 416              		.loc 1 644 0
 417 0000 024A     		ldr	r2, .L46
 418 0002 1378     		ldrb	r3, [r2]	@ zero_extendqisi2
 419 0004 43F01003 		orr	r3, r3, #16
 420 0008 1370     		strb	r3, [r2]
 421 000a 7047     		bx	lr
 422              	.L47:
 423              		.align	2
 424              	.L46:
 425 000c 00420040 		.word	1073758720
 426              		.cfi_endproc
 427              	.LFE10:
 428              		.size	CyIMO_EnableDoubler, .-CyIMO_EnableDoubler
 429              		.section	.text.CyIMO_DisableDoubler,"ax",%progbits
 430              		.align	1
 431              		.global	CyIMO_DisableDoubler
 432              		.thumb
 433              		.thumb_func
 434              		.type	CyIMO_DisableDoubler, %function
 435              	CyIMO_DisableDoubler:
 436              	.LFB11:
 656:Generated_Source\PSoC5/CyLib.c ****     CY_LIB_FASTCLK_IMO_CR_REG &= ((uint8)(~CY_LIB_FASTCLK_IMO_DOUBLER));
 437              		.loc 1 656 0
 438              		.cfi_startproc
 439              		@ args = 0, pretend = 0, frame = 0
 440              		@ frame_needed = 0, uses_anonymous_args = 0
 441              		@ link register save eliminated.
 657:Generated_Source\PSoC5/CyLib.c **** }
 442              		.loc 1 657 0
 443 0000 024A     		ldr	r2, .L49
 444 0002 1378     		ldrb	r3, [r2]	@ zero_extendqisi2
 445 0004 03F0EF03 		and	r3, r3, #239
 446 0008 1370     		strb	r3, [r2]
 447 000a 7047     		bx	lr
 448              	.L50:
 449              		.align	2
 450              	.L49:
 451 000c 00420040 		.word	1073758720
 452              		.cfi_endproc
 453              	.LFE11:
 454              		.size	CyIMO_DisableDoubler, .-CyIMO_DisableDoubler
 455              		.section	.text.CyIMO_SetFreq,"ax",%progbits
 456              		.align	1
 457              		.global	CyIMO_SetFreq
 458              		.thumb
 459              		.thumb_func
 460              		.type	CyIMO_SetFreq, %function
 461              	CyIMO_SetFreq:
 462              	.LFB8:
 458:Generated_Source\PSoC5/CyLib.c ****     uint8 currentFreq;
 463              		.loc 1 458 0
 464              		.cfi_startproc
 465              		@ args = 0, pretend = 0, frame = 0
ARM GAS  C:\Users\yqh\AppData\Local\Temp\ccH6G3Im.s 			page 23


 466              		@ frame_needed = 0, uses_anonymous_args = 0
 467              	.LVL12:
 468 0000 F8B5     		push	{r3, r4, r5, r6, r7, lr}
 469              		.cfi_def_cfa_offset 24
 470              		.cfi_offset 3, -24
 471              		.cfi_offset 4, -20
 472              		.cfi_offset 5, -16
 473              		.cfi_offset 6, -12
 474              		.cfi_offset 7, -8
 475              		.cfi_offset 14, -4
 469:Generated_Source\PSoC5/CyLib.c **** 
 476              		.loc 1 469 0
 477 0002 314C     		ldr	r4, .L82
 472:Generated_Source\PSoC5/CyLib.c **** 
 478              		.loc 1 472 0
 479 0004 0828     		cmp	r0, #8
 469:Generated_Source\PSoC5/CyLib.c **** 
 480              		.loc 1 469 0
 481 0006 2578     		ldrb	r5, [r4]	@ zero_extendqisi2
 458:Generated_Source\PSoC5/CyLib.c ****     uint8 currentFreq;
 482              		.loc 1 458 0
 483 0008 0646     		mov	r6, r0
 469:Generated_Source\PSoC5/CyLib.c **** 
 484              		.loc 1 469 0
 485 000a 05F00705 		and	r5, r5, #7
 486              	.LVL13:
 472:Generated_Source\PSoC5/CyLib.c **** 
 487              		.loc 1 472 0
 488 000e 14BF     		ite	ne
 489 0010 0746     		movne	r7, r0
 490 0012 0327     		moveq	r7, #3
 491              	.LVL14:
 474:Generated_Source\PSoC5/CyLib.c ****     {
 492              		.loc 1 474 0
 493 0014 062D     		cmp	r5, #6
 494 0016 08D8     		bhi	.L54
 495 0018 DFE805F0 		tbb	[pc, r5]
 496              	.L55:
 497 001c 06       		.byte	(.L79-.L55)/2
 498 001d 07       		.byte	(.L54-.L55)/2
 499 001e 04       		.byte	(.L57-.L55)/2
 500 001f 0A       		.byte	(.L80-.L55)/2
 501 0020 07       		.byte	(.L54-.L55)/2
 502 0021 07       		.byte	(.L54-.L55)/2
 503 0022 07       		.byte	(.L54-.L55)/2
 504 0023 00       		.p2align 1
 505              	.L57:
 506              	.LVL15:
 485:Generated_Source\PSoC5/CyLib.c ****         break;
 507              		.loc 1 485 0
 508 0024 0325     		movs	r5, #3
 486:Generated_Source\PSoC5/CyLib.c **** 
 509              		.loc 1 486 0
 510 0026 00E0     		b	.L54
 511              	.LVL16:
 512              	.L79:
 477:Generated_Source\PSoC5/CyLib.c ****         break;
ARM GAS  C:\Users\yqh\AppData\Local\Temp\ccH6G3Im.s 			page 24


 513              		.loc 1 477 0
 514 0028 0225     		movs	r5, #2
 515              	.LVL17:
 516              	.L54:
 511:Generated_Source\PSoC5/CyLib.c ****     {
 517              		.loc 1 511 0
 518 002a AF42     		cmp	r7, r5
 519 002c 04D3     		bcc	.L62
 520 002e 00E0     		b	.L58
 521              	.L80:
 489:Generated_Source\PSoC5/CyLib.c ****         break;
 522              		.loc 1 489 0
 523 0030 0025     		movs	r5, #0
 524              	.LVL18:
 525              	.L58:
 514:Generated_Source\PSoC5/CyLib.c ****     }
 526              		.loc 1 514 0
 527 0032 3046     		mov	r0, r6
 528              	.LVL19:
 529 0034 FFF7FEFF 		bl	CyIMO_SetTrimValue
 530              	.LVL20:
 531              	.L62:
 518:Generated_Source\PSoC5/CyLib.c ****     {
 532              		.loc 1 518 0
 533 0038 082E     		cmp	r6, #8
 534 003a 36D8     		bhi	.L63
 535 003c DFE806F0 		tbb	[pc, r6]
 536              	.L65:
 537 0040 05       		.byte	(.L64-.L65)/2
 538 0041 0B       		.byte	(.L66-.L65)/2
 539 0042 11       		.byte	(.L67-.L65)/2
 540 0043 15       		.byte	(.L68-.L65)/2
 541 0044 1B       		.byte	(.L69-.L65)/2
 542 0045 21       		.byte	(.L70-.L65)/2
 543 0046 27       		.byte	(.L71-.L65)/2
 544 0047 35       		.byte	(.L63-.L65)/2
 545 0048 2E       		.byte	(.L72-.L65)/2
 546 0049 00       		.p2align 1
 547              	.L64:
 521:Generated_Source\PSoC5/CyLib.c ****             CY_LIB_IMO_3MHZ_VALUE) & ((uint8)(~CY_LIB_IMO_USBCLK_ON_SET));
 548              		.loc 1 521 0
 549 004a 2378     		ldrb	r3, [r4]	@ zero_extendqisi2
 550 004c 03F0B803 		and	r3, r3, #184
 551 0050 43F00303 		orr	r3, r3, #3
 552 0054 20E0     		b	.L81
 553              	.L66:
 526:Generated_Source\PSoC5/CyLib.c ****             CY_LIB_IMO_6MHZ_VALUE) & ((uint8)(~CY_LIB_IMO_USBCLK_ON_SET));
 554              		.loc 1 526 0
 555 0056 2378     		ldrb	r3, [r4]	@ zero_extendqisi2
 556 0058 03F0B803 		and	r3, r3, #184
 557 005c 43F00103 		orr	r3, r3, #1
 558 0060 1AE0     		b	.L81
 559              	.L67:
 531:Generated_Source\PSoC5/CyLib.c ****             CY_LIB_IMO_12MHZ_VALUE) & ((uint8)(~CY_LIB_IMO_USBCLK_ON_SET));
 560              		.loc 1 531 0
 561 0062 2378     		ldrb	r3, [r4]	@ zero_extendqisi2
 562 0064 03F0B803 		and	r3, r3, #184
ARM GAS  C:\Users\yqh\AppData\Local\Temp\ccH6G3Im.s 			page 25


 563 0068 16E0     		b	.L81
 564              	.L68:
 536:Generated_Source\PSoC5/CyLib.c ****             CY_LIB_IMO_24MHZ_VALUE) & ((uint8)(~CY_LIB_IMO_USBCLK_ON_SET));
 565              		.loc 1 536 0
 566 006a 2378     		ldrb	r3, [r4]	@ zero_extendqisi2
 567 006c 03F0B803 		and	r3, r3, #184
 568 0070 43F00203 		orr	r3, r3, #2
 569 0074 10E0     		b	.L81
 570              	.L69:
 541:Generated_Source\PSoC5/CyLib.c ****             CY_LIB_IMO_48MHZ_VALUE) & ((uint8)(~CY_LIB_IMO_USBCLK_ON_SET));
 571              		.loc 1 541 0
 572 0076 2378     		ldrb	r3, [r4]	@ zero_extendqisi2
 573 0078 03F0B803 		and	r3, r3, #184
 574 007c 43F00403 		orr	r3, r3, #4
 575 0080 0AE0     		b	.L81
 576              	.L70:
 546:Generated_Source\PSoC5/CyLib.c ****             CY_LIB_IMO_62MHZ_VALUE) & ((uint8)(~CY_LIB_IMO_USBCLK_ON_SET));
 577              		.loc 1 546 0
 578 0082 2378     		ldrb	r3, [r4]	@ zero_extendqisi2
 579 0084 03F0B803 		and	r3, r3, #184
 580 0088 43F00503 		orr	r3, r3, #5
 581 008c 04E0     		b	.L81
 582              	.L71:
 552:Generated_Source\PSoC5/CyLib.c ****             CY_LIB_IMO_74MHZ_VALUE) & ((uint8)(~CY_LIB_IMO_USBCLK_ON_SET));
 583              		.loc 1 552 0
 584 008e 2378     		ldrb	r3, [r4]	@ zero_extendqisi2
 585 0090 03F0B803 		and	r3, r3, #184
 586 0094 43F00603 		orr	r3, r3, #6
 587              	.L81:
 588 0098 2370     		strb	r3, [r4]
 554:Generated_Source\PSoC5/CyLib.c **** #endif  /* (CY_PSOC5) */
 589              		.loc 1 554 0
 590 009a 0BE0     		b	.L75
 591              	.L72:
 558:Generated_Source\PSoC5/CyLib.c ****             CY_LIB_IMO_24MHZ_VALUE) | CY_LIB_IMO_USBCLK_ON_SET;
 592              		.loc 1 558 0
 593 009c 2378     		ldrb	r3, [r4]	@ zero_extendqisi2
 594 009e 03F0B803 		and	r3, r3, #184
 595 00a2 43F04203 		orr	r3, r3, #66
 596 00a6 2370     		strb	r3, [r4]
 597 00a8 01E0     		b	.L74
 598              	.L63:
 568:Generated_Source\PSoC5/CyLib.c ****     {
 599              		.loc 1 568 0
 600 00aa 082E     		cmp	r6, #8
 601 00ac 02D1     		bne	.L75
 602              	.L74:
 570:Generated_Source\PSoC5/CyLib.c ****     }
 603              		.loc 1 570 0
 604 00ae FFF7FEFF 		bl	CyIMO_EnableDoubler
 605              	.LVL21:
 606 00b2 01E0     		b	.L76
 607              	.L75:
 574:Generated_Source\PSoC5/CyLib.c ****     }
 608              		.loc 1 574 0
 609 00b4 FFF7FEFF 		bl	CyIMO_DisableDoubler
 610              	.LVL22:
ARM GAS  C:\Users\yqh\AppData\Local\Temp\ccH6G3Im.s 			page 26


 611              	.L76:
 577:Generated_Source\PSoC5/CyLib.c ****     {
 612              		.loc 1 577 0
 613 00b8 AF42     		cmp	r7, r5
 614 00ba 04D2     		bcs	.L51
 580:Generated_Source\PSoC5/CyLib.c ****     }
 615              		.loc 1 580 0
 616 00bc 3046     		mov	r0, r6
 582:Generated_Source\PSoC5/CyLib.c **** 
 617              		.loc 1 582 0
 618 00be BDE8F840 		pop	{r3, r4, r5, r6, r7, lr}
 619              		.cfi_remember_state
 620              		.cfi_restore 14
 621              		.cfi_restore 7
 622              		.cfi_restore 6
 623              		.cfi_restore 5
 624              		.cfi_restore 4
 625              		.cfi_restore 3
 626              		.cfi_def_cfa_offset 0
 627              	.LVL23:
 580:Generated_Source\PSoC5/CyLib.c ****     }
 628              		.loc 1 580 0
 629 00c2 FFF7FEBF 		b	CyIMO_SetTrimValue
 630              	.LVL24:
 631              	.L51:
 632              		.cfi_restore_state
 633 00c6 F8BD     		pop	{r3, r4, r5, r6, r7, pc}
 634              	.LVL25:
 635              	.L83:
 636              		.align	2
 637              	.L82:
 638 00c8 00420040 		.word	1073758720
 639              		.cfi_endproc
 640              	.LFE8:
 641              		.size	CyIMO_SetFreq, .-CyIMO_SetFreq
 642              		.section	.text.CyMasterClk_SetSource,"ax",%progbits
 643              		.align	1
 644              		.global	CyMasterClk_SetSource
 645              		.thumb
 646              		.thumb_func
 647              		.type	CyMasterClk_SetSource, %function
 648              	CyMasterClk_SetSource:
 649              	.LFB12:
 686:Generated_Source\PSoC5/CyLib.c ****     CY_LIB_CLKDIST_MSTR1_REG = (CY_LIB_CLKDIST_MSTR1_REG & MASTER_CLK_SRC_CLEAR) |
 650              		.loc 1 686 0
 651              		.cfi_startproc
 652              		@ args = 0, pretend = 0, frame = 0
 653              		@ frame_needed = 0, uses_anonymous_args = 0
 654              		@ link register save eliminated.
 655              	.LVL26:
 687:Generated_Source\PSoC5/CyLib.c ****                                 (source & ((uint8)(~MASTER_CLK_SRC_CLEAR)));
 656              		.loc 1 687 0
 657 0000 044A     		ldr	r2, .L85
 658 0002 00F00300 		and	r0, r0, #3
 659              	.LVL27:
 660 0006 1378     		ldrb	r3, [r2]	@ zero_extendqisi2
 661 0008 03F0FC03 		and	r3, r3, #252
ARM GAS  C:\Users\yqh\AppData\Local\Temp\ccH6G3Im.s 			page 27


 662 000c 0343     		orrs	r3, r3, r0
 663 000e 1370     		strb	r3, [r2]
 664 0010 7047     		bx	lr
 665              	.L86:
 666 0012 00BF     		.align	2
 667              	.L85:
 668 0014 05400040 		.word	1073758213
 669              		.cfi_endproc
 670              	.LFE12:
 671              		.size	CyMasterClk_SetSource, .-CyMasterClk_SetSource
 672              		.section	.text.CyMasterClk_SetDivider,"ax",%progbits
 673              		.align	1
 674              		.global	CyMasterClk_SetDivider
 675              		.thumb
 676              		.thumb_func
 677              		.type	CyMasterClk_SetDivider, %function
 678              	CyMasterClk_SetDivider:
 679              	.LFB13:
 716:Generated_Source\PSoC5/CyLib.c ****     CY_LIB_CLKDIST_MSTR0_REG = divider;
 680              		.loc 1 716 0
 681              		.cfi_startproc
 682              		@ args = 0, pretend = 0, frame = 0
 683              		@ frame_needed = 0, uses_anonymous_args = 0
 684              		@ link register save eliminated.
 685              	.LVL28:
 717:Generated_Source\PSoC5/CyLib.c **** }
 686              		.loc 1 717 0
 687 0000 014B     		ldr	r3, .L88
 688 0002 1870     		strb	r0, [r3]
 689 0004 7047     		bx	lr
 690              	.L89:
 691 0006 00BF     		.align	2
 692              	.L88:
 693 0008 04400040 		.word	1073758212
 694              		.cfi_endproc
 695              	.LFE13:
 696              		.size	CyMasterClk_SetDivider, .-CyMasterClk_SetDivider
 697              		.section	.text.CyBusClk_SetDivider,"ax",%progbits
 698              		.align	1
 699              		.global	CyBusClk_SetDivider
 700              		.thumb
 701              		.thumb_func
 702              		.type	CyBusClk_SetDivider, %function
 703              	CyBusClk_SetDivider:
 704              	.LFB15:
 753:Generated_Source\PSoC5/CyLib.c **** }
 754:Generated_Source\PSoC5/CyLib.c **** 
 755:Generated_Source\PSoC5/CyLib.c **** 
 756:Generated_Source\PSoC5/CyLib.c **** /*******************************************************************************
 757:Generated_Source\PSoC5/CyLib.c **** * Function Name: CyBusClk_SetDivider
 758:Generated_Source\PSoC5/CyLib.c **** ****************************************************************************//**
 759:Generated_Source\PSoC5/CyLib.c **** *
 760:Generated_Source\PSoC5/CyLib.c **** *  Sets the divider value used to generate the Bus Clock.
 761:Generated_Source\PSoC5/CyLib.c **** *
 762:Generated_Source\PSoC5/CyLib.c **** *  \param divider: Valid range [0-65535]. The clock will be divided by this value + 1.
 763:Generated_Source\PSoC5/CyLib.c **** *  For example, to divide this parameter by two should be set to 1.
 764:Generated_Source\PSoC5/CyLib.c **** *
ARM GAS  C:\Users\yqh\AppData\Local\Temp\ccH6G3Im.s 			page 28


 765:Generated_Source\PSoC5/CyLib.c **** * \sideeffect
 766:Generated_Source\PSoC5/CyLib.c **** *  If this function execution resulted in the CPU clock frequency increasing,
 767:Generated_Source\PSoC5/CyLib.c **** *  then the number of clock cycles the cache will wait before it samples data
 768:Generated_Source\PSoC5/CyLib.c **** *  coming back from the Flash must be adjusted by calling
 769:Generated_Source\PSoC5/CyLib.c **** *  CyFlash_SetWaitCycles() with an appropriate parameter. It can be optionally
 770:Generated_Source\PSoC5/CyLib.c **** *  called if the CPU clock frequency is lowered in order to improve the CPU
 771:Generated_Source\PSoC5/CyLib.c **** *  performance. See CyFlash_SetWaitCycles() description for more information.
 772:Generated_Source\PSoC5/CyLib.c **** *
 773:Generated_Source\PSoC5/CyLib.c **** *******************************************************************************/
 774:Generated_Source\PSoC5/CyLib.c **** void CyBusClk_SetDivider(uint16 divider) 
 775:Generated_Source\PSoC5/CyLib.c **** {
 705              		.loc 1 775 0
 706              		.cfi_startproc
 707              		@ args = 0, pretend = 0, frame = 0
 708              		@ frame_needed = 0, uses_anonymous_args = 0
 709              	.LVL29:
 710 0000 F8B5     		push	{r3, r4, r5, r6, r7, lr}
 711              		.cfi_def_cfa_offset 24
 712              		.cfi_offset 3, -24
 713              		.cfi_offset 4, -20
 714              		.cfi_offset 5, -16
 715              		.cfi_offset 6, -12
 716              		.cfi_offset 7, -8
 717              		.cfi_offset 14, -4
 718              		.loc 1 775 0
 719 0002 0446     		mov	r4, r0
 776:Generated_Source\PSoC5/CyLib.c ****     uint8  masterClkDiv;
 777:Generated_Source\PSoC5/CyLib.c ****     uint16 busClkDiv;
 778:Generated_Source\PSoC5/CyLib.c ****     uint8 interruptState;
 779:Generated_Source\PSoC5/CyLib.c **** 
 780:Generated_Source\PSoC5/CyLib.c ****     interruptState = CyEnterCriticalSection();
 720              		.loc 1 780 0
 721 0004 FFF7FEFF 		bl	CyEnterCriticalSection
 722              	.LVL30:
 781:Generated_Source\PSoC5/CyLib.c **** 
 782:Generated_Source\PSoC5/CyLib.c ****     /* Work around to set bus clock divider value */
 783:Generated_Source\PSoC5/CyLib.c ****     busClkDiv = (uint16)((uint16)CY_LIB_CLKDIST_BCFG_MSB_REG << 8u);
 723              		.loc 1 783 0
 724 0008 164B     		ldr	r3, .L100
 780:Generated_Source\PSoC5/CyLib.c **** 
 725              		.loc 1 780 0
 726 000a 0746     		mov	r7, r0
 727              	.LVL31:
 728              		.loc 1 783 0
 729 000c 1A78     		ldrb	r2, [r3]	@ zero_extendqisi2
 784:Generated_Source\PSoC5/CyLib.c ****     busClkDiv |= CY_LIB_CLKDIST_BCFG_LSB_REG;
 730              		.loc 1 784 0
 731 000e 013B     		subs	r3, r3, #1
 732 0010 1B78     		ldrb	r3, [r3]	@ zero_extendqisi2
 783:Generated_Source\PSoC5/CyLib.c ****     busClkDiv |= CY_LIB_CLKDIST_BCFG_LSB_REG;
 733              		.loc 1 783 0
 734 0012 D2B2     		uxtb	r2, r2
 735              	.LVL32:
 736              		.loc 1 784 0
 737 0014 DBB2     		uxtb	r3, r3
 738              	.LVL33:
 785:Generated_Source\PSoC5/CyLib.c **** 
ARM GAS  C:\Users\yqh\AppData\Local\Temp\ccH6G3Im.s 			page 29


 786:Generated_Source\PSoC5/CyLib.c ****     if ((divider == 0u) || (busClkDiv == 0u))
 739              		.loc 1 786 0
 740 0016 14B1     		cbz	r4, .L91
 741              		.loc 1 786 0 is_stmt 0 discriminator 1
 742 0018 53EA0223 		orrs	r3, r3, r2, lsl #8
 743              	.LVL34:
 744 001c 1AD1     		bne	.L92
 745              	.L91:
 787:Generated_Source\PSoC5/CyLib.c ****     {
 788:Generated_Source\PSoC5/CyLib.c ****         /* Save away master clock divider value */
 789:Generated_Source\PSoC5/CyLib.c ****         masterClkDiv = CY_LIB_CLKDIST_MSTR0_REG;
 746              		.loc 1 789 0 is_stmt 1
 747 001e 124B     		ldr	r3, .L100+4
 748 0020 124E     		ldr	r6, .L100+8
 749 0022 1D78     		ldrb	r5, [r3]	@ zero_extendqisi2
 750 0024 EDB2     		uxtb	r5, r5
 751              	.LVL35:
 790:Generated_Source\PSoC5/CyLib.c **** 
 791:Generated_Source\PSoC5/CyLib.c ****         if (masterClkDiv < CY_LIB_CLKDIST_MASTERCLK_DIV)
 752              		.loc 1 791 0
 753 0026 062D     		cmp	r5, #6
 754              	.LVL36:
 755              	.LBB16:
 756              	.LBB17:
 717:Generated_Source\PSoC5/CyLib.c **** }
 757              		.loc 1 717 0
 758 0028 9CBF     		itt	ls
 759 002a 0722     		movls	r2, #7
 760 002c 1A70     		strbls	r2, [r3]
 761              	.LBE17:
 762              	.LBE16:
 792:Generated_Source\PSoC5/CyLib.c ****         {
 793:Generated_Source\PSoC5/CyLib.c ****             /* Set master clock divider to 7 */
 794:Generated_Source\PSoC5/CyLib.c ****             CyMasterClk_SetDivider(CY_LIB_CLKDIST_MASTERCLK_DIV);
 795:Generated_Source\PSoC5/CyLib.c ****         }
 796:Generated_Source\PSoC5/CyLib.c **** 
 797:Generated_Source\PSoC5/CyLib.c ****         if (divider == 0u)
 763              		.loc 1 797 0
 764 002e 3CB9     		cbnz	r4, .L94
 798:Generated_Source\PSoC5/CyLib.c ****         {
 799:Generated_Source\PSoC5/CyLib.c ****             /* Set SSS bit and divider register desired value */
 800:Generated_Source\PSoC5/CyLib.c ****             CY_LIB_CLKDIST_BCFG2_REG |= CY_LIB_CLKDIST_BCFG2_SSS;
 765              		.loc 1 800 0
 766 0030 3378     		ldrb	r3, [r6]	@ zero_extendqisi2
 801:Generated_Source\PSoC5/CyLib.c ****             CyBusClk_Internal_SetDivider(divider);
 767              		.loc 1 801 0
 768 0032 2046     		mov	r0, r4
 800:Generated_Source\PSoC5/CyLib.c ****             CyBusClk_Internal_SetDivider(divider);
 769              		.loc 1 800 0
 770 0034 43F04003 		orr	r3, r3, #64
 771 0038 3370     		strb	r3, [r6]
 772              		.loc 1 801 0
 773 003a FFF7FEFF 		bl	CyBusClk_Internal_SetDivider
 774              	.LVL37:
 775 003e 06E0     		b	.L95
 776              	.L94:
 802:Generated_Source\PSoC5/CyLib.c ****         }
ARM GAS  C:\Users\yqh\AppData\Local\Temp\ccH6G3Im.s 			page 30


 803:Generated_Source\PSoC5/CyLib.c ****         else
 804:Generated_Source\PSoC5/CyLib.c ****         {
 805:Generated_Source\PSoC5/CyLib.c ****             CyBusClk_Internal_SetDivider(divider);
 777              		.loc 1 805 0
 778 0040 2046     		mov	r0, r4
 779 0042 FFF7FEFF 		bl	CyBusClk_Internal_SetDivider
 780              	.LVL38:
 806:Generated_Source\PSoC5/CyLib.c ****             CY_LIB_CLKDIST_BCFG2_REG &= ((uint8)(~CY_LIB_CLKDIST_BCFG2_SSS));
 781              		.loc 1 806 0
 782 0046 3378     		ldrb	r3, [r6]	@ zero_extendqisi2
 783 0048 03F0BF03 		and	r3, r3, #191
 784 004c 3370     		strb	r3, [r6]
 785              	.L95:
 786              	.LVL39:
 787              	.LBB18:
 788              	.LBB19:
 717:Generated_Source\PSoC5/CyLib.c **** }
 789              		.loc 1 717 0
 790 004e 064B     		ldr	r3, .L100+4
 791 0050 1D70     		strb	r5, [r3]
 792 0052 02E0     		b	.L96
 793              	.LVL40:
 794              	.L92:
 795              	.LBE19:
 796              	.LBE18:
 807:Generated_Source\PSoC5/CyLib.c ****         }
 808:Generated_Source\PSoC5/CyLib.c **** 
 809:Generated_Source\PSoC5/CyLib.c ****         /* Restore master clock */
 810:Generated_Source\PSoC5/CyLib.c ****         CyMasterClk_SetDivider(masterClkDiv);
 811:Generated_Source\PSoC5/CyLib.c ****     }
 812:Generated_Source\PSoC5/CyLib.c ****     else
 813:Generated_Source\PSoC5/CyLib.c ****     {
 814:Generated_Source\PSoC5/CyLib.c ****         CyBusClk_Internal_SetDivider(divider);
 797              		.loc 1 814 0
 798 0054 2046     		mov	r0, r4
 799 0056 FFF7FEFF 		bl	CyBusClk_Internal_SetDivider
 800              	.LVL41:
 801              	.L96:
 815:Generated_Source\PSoC5/CyLib.c ****     }
 816:Generated_Source\PSoC5/CyLib.c **** 
 817:Generated_Source\PSoC5/CyLib.c ****     CyExitCriticalSection(interruptState);
 802              		.loc 1 817 0
 803 005a 3846     		mov	r0, r7
 818:Generated_Source\PSoC5/CyLib.c **** }
 804              		.loc 1 818 0
 805 005c BDE8F840 		pop	{r3, r4, r5, r6, r7, lr}
 806              		.cfi_restore 14
 807              		.cfi_restore 7
 808              		.cfi_restore 6
 809              		.cfi_restore 5
 810              		.cfi_restore 4
 811              		.cfi_restore 3
 812              		.cfi_def_cfa_offset 0
 813              	.LVL42:
 817:Generated_Source\PSoC5/CyLib.c **** }
 814              		.loc 1 817 0
 815 0060 FFF7FEBF 		b	CyExitCriticalSection
ARM GAS  C:\Users\yqh\AppData\Local\Temp\ccH6G3Im.s 			page 31


 816              	.LVL43:
 817              	.L101:
 818              		.align	2
 819              	.L100:
 820 0064 07400040 		.word	1073758215
 821 0068 04400040 		.word	1073758212
 822 006c 08400040 		.word	1073758216
 823              		.cfi_endproc
 824              	.LFE15:
 825              		.size	CyBusClk_SetDivider, .-CyBusClk_SetDivider
 826              		.section	.text.CyUsbClk_SetSource,"ax",%progbits
 827              		.align	1
 828              		.global	CyUsbClk_SetSource
 829              		.thumb
 830              		.thumb_func
 831              		.type	CyUsbClk_SetSource, %function
 832              	CyUsbClk_SetSource:
 833              	.LFB16:
 819:Generated_Source\PSoC5/CyLib.c **** 
 820:Generated_Source\PSoC5/CyLib.c **** 
 821:Generated_Source\PSoC5/CyLib.c **** #if(CY_PSOC3)
 822:Generated_Source\PSoC5/CyLib.c **** 
 823:Generated_Source\PSoC5/CyLib.c ****     /*******************************************************************************
 824:Generated_Source\PSoC5/CyLib.c ****     * Function Name: CyCpuClk_SetDivider
 825:Generated_Source\PSoC5/CyLib.c ****     ****************************************************************************//**
 826:Generated_Source\PSoC5/CyLib.c ****     *
 827:Generated_Source\PSoC5/CyLib.c ****     *  Sets the divider value used to generate the CPU Clock. Only applicable for
 828:Generated_Source\PSoC5/CyLib.c ****     *  PSoC 3 parts.
 829:Generated_Source\PSoC5/CyLib.c ****     *
 830:Generated_Source\PSoC5/CyLib.c ****     *  \param divider: Valid range [0-15]. The clock will be divided by this value + 1.
 831:Generated_Source\PSoC5/CyLib.c ****     *  For example, to divide this parameter by two should be set to 1.
 832:Generated_Source\PSoC5/CyLib.c ****     *
 833:Generated_Source\PSoC5/CyLib.c ****     * \sideeffect
 834:Generated_Source\PSoC5/CyLib.c ****     *  If this function execution resulted in the CPU clock frequency increasing,
 835:Generated_Source\PSoC5/CyLib.c ****     *  then the number of clock cycles the cache will wait before it samples data
 836:Generated_Source\PSoC5/CyLib.c ****     *  coming back from the Flash must be adjusted by calling
 837:Generated_Source\PSoC5/CyLib.c ****     *  CyFlash_SetWaitCycles() with an appropriate parameter. It can be optionally
 838:Generated_Source\PSoC5/CyLib.c ****     *  called if the CPU clock frequency is lowered in order to improve the CPU
 839:Generated_Source\PSoC5/CyLib.c ****     *  performance. See CyFlash_SetWaitCycles() description for more information.
 840:Generated_Source\PSoC5/CyLib.c ****     *
 841:Generated_Source\PSoC5/CyLib.c ****     *******************************************************************************/
 842:Generated_Source\PSoC5/CyLib.c ****     void CyCpuClk_SetDivider(uint8 divider) 
 843:Generated_Source\PSoC5/CyLib.c ****     {
 844:Generated_Source\PSoC5/CyLib.c ****             CY_LIB_CLKDIST_MSTR1_REG = (CY_LIB_CLKDIST_MSTR1_REG & CY_LIB_CLKDIST_MSTR1_DIV_MASK) |
 845:Generated_Source\PSoC5/CyLib.c ****                                 ((uint8)(divider << CY_LIB_CLKDIST_DIV_POSITION));
 846:Generated_Source\PSoC5/CyLib.c ****     }
 847:Generated_Source\PSoC5/CyLib.c **** 
 848:Generated_Source\PSoC5/CyLib.c **** #endif /* (CY_PSOC3) */
 849:Generated_Source\PSoC5/CyLib.c **** 
 850:Generated_Source\PSoC5/CyLib.c **** 
 851:Generated_Source\PSoC5/CyLib.c **** /*******************************************************************************
 852:Generated_Source\PSoC5/CyLib.c **** * Function Name: CyUsbClk_SetSource
 853:Generated_Source\PSoC5/CyLib.c **** ****************************************************************************//**
 854:Generated_Source\PSoC5/CyLib.c **** *
 855:Generated_Source\PSoC5/CyLib.c **** *  Sets the source of the USB clock.
 856:Generated_Source\PSoC5/CyLib.c **** *
 857:Generated_Source\PSoC5/CyLib.c **** *  \param source: One of the four available USB clock sources
ARM GAS  C:\Users\yqh\AppData\Local\Temp\ccH6G3Im.s 			page 32


 858:Generated_Source\PSoC5/CyLib.c **** *    CY_LIB_USB_CLK_IMO2X     - IMO 2x
 859:Generated_Source\PSoC5/CyLib.c **** *    CY_LIB_USB_CLK_IMO       - IMO
 860:Generated_Source\PSoC5/CyLib.c **** *    CY_LIB_USB_CLK_PLL       - PLL
 861:Generated_Source\PSoC5/CyLib.c **** *    CY_LIB_USB_CLK_DSI       - DSI
 862:Generated_Source\PSoC5/CyLib.c **** *
 863:Generated_Source\PSoC5/CyLib.c **** *******************************************************************************/
 864:Generated_Source\PSoC5/CyLib.c **** void CyUsbClk_SetSource(uint8 source) 
 865:Generated_Source\PSoC5/CyLib.c **** {
 834              		.loc 1 865 0
 835              		.cfi_startproc
 836              		@ args = 0, pretend = 0, frame = 0
 837              		@ frame_needed = 0, uses_anonymous_args = 0
 838              		@ link register save eliminated.
 839              	.LVL44:
 866:Generated_Source\PSoC5/CyLib.c ****     CY_LIB_CLKDIST_UCFG_REG = (CY_LIB_CLKDIST_UCFG_REG & ((uint8)(~CY_LIB_CLKDIST_UCFG_SRC_SEL_MASK
 840              		.loc 1 866 0
 841 0000 044A     		ldr	r2, .L103
 842 0002 00F00300 		and	r0, r0, #3
 843              	.LVL45:
 844 0006 1378     		ldrb	r3, [r2]	@ zero_extendqisi2
 845 0008 03F0FC03 		and	r3, r3, #252
 846 000c 0343     		orrs	r3, r3, r0
 847 000e 1370     		strb	r3, [r2]
 848 0010 7047     		bx	lr
 849              	.L104:
 850 0012 00BF     		.align	2
 851              	.L103:
 852 0014 09400040 		.word	1073758217
 853              		.cfi_endproc
 854              	.LFE16:
 855              		.size	CyUsbClk_SetSource, .-CyUsbClk_SetSource
 856              		.section	.text.CyILO_Start1K,"ax",%progbits
 857              		.align	1
 858              		.global	CyILO_Start1K
 859              		.thumb
 860              		.thumb_func
 861              		.type	CyILO_Start1K, %function
 862              	CyILO_Start1K:
 863              	.LFB17:
 867:Generated_Source\PSoC5/CyLib.c ****                         (CY_LIB_CLKDIST_UCFG_SRC_SEL_MASK & source);
 868:Generated_Source\PSoC5/CyLib.c **** }
 869:Generated_Source\PSoC5/CyLib.c **** 
 870:Generated_Source\PSoC5/CyLib.c **** 
 871:Generated_Source\PSoC5/CyLib.c **** /*******************************************************************************
 872:Generated_Source\PSoC5/CyLib.c **** * Function Name: CyILO_Start1K
 873:Generated_Source\PSoC5/CyLib.c **** ****************************************************************************//**
 874:Generated_Source\PSoC5/CyLib.c **** *
 875:Generated_Source\PSoC5/CyLib.c **** *  Enables the ILO 1 KHz oscillator.
 876:Generated_Source\PSoC5/CyLib.c **** *
 877:Generated_Source\PSoC5/CyLib.c **** *  Note The ILO 1 KHz oscillator is always enabled by default, regardless of the
 878:Generated_Source\PSoC5/CyLib.c **** *  selection in the Clock Editor. Therefore, this API is only needed if the
 879:Generated_Source\PSoC5/CyLib.c **** *  oscillator was turned off manually.
 880:Generated_Source\PSoC5/CyLib.c **** *
 881:Generated_Source\PSoC5/CyLib.c **** *******************************************************************************/
 882:Generated_Source\PSoC5/CyLib.c **** void CyILO_Start1K(void) 
 883:Generated_Source\PSoC5/CyLib.c **** {
 864              		.loc 1 883 0
ARM GAS  C:\Users\yqh\AppData\Local\Temp\ccH6G3Im.s 			page 33


 865              		.cfi_startproc
 866              		@ args = 0, pretend = 0, frame = 0
 867              		@ frame_needed = 0, uses_anonymous_args = 0
 868              		@ link register save eliminated.
 884:Generated_Source\PSoC5/CyLib.c ****     /* Set bit 1 of ILO RS */
 885:Generated_Source\PSoC5/CyLib.c ****     CY_LIB_SLOWCLK_ILO_CR0_REG |= CY_LIB_SLOWCLK_ILO_CR0_EN_1KHZ;
 869              		.loc 1 885 0
 870 0000 024A     		ldr	r2, .L106
 871 0002 1378     		ldrb	r3, [r2]	@ zero_extendqisi2
 872 0004 43F00203 		orr	r3, r3, #2
 873 0008 1370     		strb	r3, [r2]
 874 000a 7047     		bx	lr
 875              	.L107:
 876              		.align	2
 877              	.L106:
 878 000c 00430040 		.word	1073758976
 879              		.cfi_endproc
 880              	.LFE17:
 881              		.size	CyILO_Start1K, .-CyILO_Start1K
 882              		.section	.text.CyILO_Stop1K,"ax",%progbits
 883              		.align	1
 884              		.global	CyILO_Stop1K
 885              		.thumb
 886              		.thumb_func
 887              		.type	CyILO_Stop1K, %function
 888              	CyILO_Stop1K:
 889              	.LFB18:
 886:Generated_Source\PSoC5/CyLib.c **** }
 887:Generated_Source\PSoC5/CyLib.c **** 
 888:Generated_Source\PSoC5/CyLib.c **** 
 889:Generated_Source\PSoC5/CyLib.c **** /*******************************************************************************
 890:Generated_Source\PSoC5/CyLib.c **** * Function Name: CyILO_Stop1K
 891:Generated_Source\PSoC5/CyLib.c **** ****************************************************************************//**
 892:Generated_Source\PSoC5/CyLib.c **** *
 893:Generated_Source\PSoC5/CyLib.c **** *  Disables the ILO 1 KHz oscillator.
 894:Generated_Source\PSoC5/CyLib.c **** *
 895:Generated_Source\PSoC5/CyLib.c **** *  Note The ILO 1 KHz oscillator must be enabled if the Sleep or Hibernate low
 896:Generated_Source\PSoC5/CyLib.c **** *  power mode APIs are expected to be used. For more information, refer to the
 897:Generated_Source\PSoC5/CyLib.c **** *  Power Management section of this document.
 898:Generated_Source\PSoC5/CyLib.c **** *
 899:Generated_Source\PSoC5/CyLib.c **** * \sideeffect
 900:Generated_Source\PSoC5/CyLib.c **** *  PSoC5: Stopping the ILO 1 kHz could break the active WDT functionality.
 901:Generated_Source\PSoC5/CyLib.c **** *
 902:Generated_Source\PSoC5/CyLib.c **** *******************************************************************************/
 903:Generated_Source\PSoC5/CyLib.c **** void CyILO_Stop1K(void) 
 904:Generated_Source\PSoC5/CyLib.c **** {
 890              		.loc 1 904 0
 891              		.cfi_startproc
 892              		@ args = 0, pretend = 0, frame = 0
 893              		@ frame_needed = 0, uses_anonymous_args = 0
 894              		@ link register save eliminated.
 905:Generated_Source\PSoC5/CyLib.c ****     /* Clear bit 1 of ILO RS */
 906:Generated_Source\PSoC5/CyLib.c ****     CY_LIB_SLOWCLK_ILO_CR0_REG &= ((uint8)(~CY_LIB_SLOWCLK_ILO_CR0_EN_1KHZ));
 895              		.loc 1 906 0
 896 0000 024A     		ldr	r2, .L109
 897 0002 1378     		ldrb	r3, [r2]	@ zero_extendqisi2
 898 0004 03F0FD03 		and	r3, r3, #253
ARM GAS  C:\Users\yqh\AppData\Local\Temp\ccH6G3Im.s 			page 34


 899 0008 1370     		strb	r3, [r2]
 900 000a 7047     		bx	lr
 901              	.L110:
 902              		.align	2
 903              	.L109:
 904 000c 00430040 		.word	1073758976
 905              		.cfi_endproc
 906              	.LFE18:
 907              		.size	CyILO_Stop1K, .-CyILO_Stop1K
 908              		.section	.text.CyILO_Start100K,"ax",%progbits
 909              		.align	1
 910              		.global	CyILO_Start100K
 911              		.thumb
 912              		.thumb_func
 913              		.type	CyILO_Start100K, %function
 914              	CyILO_Start100K:
 915              	.LFB19:
 907:Generated_Source\PSoC5/CyLib.c **** }
 908:Generated_Source\PSoC5/CyLib.c **** 
 909:Generated_Source\PSoC5/CyLib.c **** 
 910:Generated_Source\PSoC5/CyLib.c **** /*******************************************************************************
 911:Generated_Source\PSoC5/CyLib.c **** * Function Name: CyILO_Start100K
 912:Generated_Source\PSoC5/CyLib.c **** ****************************************************************************//**
 913:Generated_Source\PSoC5/CyLib.c **** *
 914:Generated_Source\PSoC5/CyLib.c **** *  Enables the ILO 100 KHz oscillator.
 915:Generated_Source\PSoC5/CyLib.c **** *
 916:Generated_Source\PSoC5/CyLib.c **** *******************************************************************************/
 917:Generated_Source\PSoC5/CyLib.c **** void CyILO_Start100K(void) 
 918:Generated_Source\PSoC5/CyLib.c **** {
 916              		.loc 1 918 0
 917              		.cfi_startproc
 918              		@ args = 0, pretend = 0, frame = 0
 919              		@ frame_needed = 0, uses_anonymous_args = 0
 920              		@ link register save eliminated.
 919:Generated_Source\PSoC5/CyLib.c ****     CY_LIB_SLOWCLK_ILO_CR0_REG |= CY_LIB_SLOWCLK_ILO_CR0_EN_100KHZ;
 921              		.loc 1 919 0
 922 0000 024A     		ldr	r2, .L112
 923 0002 1378     		ldrb	r3, [r2]	@ zero_extendqisi2
 924 0004 43F00403 		orr	r3, r3, #4
 925 0008 1370     		strb	r3, [r2]
 926 000a 7047     		bx	lr
 927              	.L113:
 928              		.align	2
 929              	.L112:
 930 000c 00430040 		.word	1073758976
 931              		.cfi_endproc
 932              	.LFE19:
 933              		.size	CyILO_Start100K, .-CyILO_Start100K
 934              		.section	.text.CyILO_Stop100K,"ax",%progbits
 935              		.align	1
 936              		.global	CyILO_Stop100K
 937              		.thumb
 938              		.thumb_func
 939              		.type	CyILO_Stop100K, %function
 940              	CyILO_Stop100K:
 941              	.LFB20:
 920:Generated_Source\PSoC5/CyLib.c **** }
ARM GAS  C:\Users\yqh\AppData\Local\Temp\ccH6G3Im.s 			page 35


 921:Generated_Source\PSoC5/CyLib.c **** 
 922:Generated_Source\PSoC5/CyLib.c **** 
 923:Generated_Source\PSoC5/CyLib.c **** /*******************************************************************************
 924:Generated_Source\PSoC5/CyLib.c **** * Function Name: CyILO_Stop100K
 925:Generated_Source\PSoC5/CyLib.c **** ****************************************************************************//**
 926:Generated_Source\PSoC5/CyLib.c **** *
 927:Generated_Source\PSoC5/CyLib.c **** *  Disables the ILO 100 KHz oscillator.
 928:Generated_Source\PSoC5/CyLib.c **** *
 929:Generated_Source\PSoC5/CyLib.c **** *******************************************************************************/
 930:Generated_Source\PSoC5/CyLib.c **** void CyILO_Stop100K(void) 
 931:Generated_Source\PSoC5/CyLib.c **** {
 942              		.loc 1 931 0
 943              		.cfi_startproc
 944              		@ args = 0, pretend = 0, frame = 0
 945              		@ frame_needed = 0, uses_anonymous_args = 0
 946              		@ link register save eliminated.
 932:Generated_Source\PSoC5/CyLib.c ****     CY_LIB_SLOWCLK_ILO_CR0_REG &= ((uint8)(~CY_LIB_SLOWCLK_ILO_CR0_EN_100KHZ));
 947              		.loc 1 932 0
 948 0000 024A     		ldr	r2, .L115
 949 0002 1378     		ldrb	r3, [r2]	@ zero_extendqisi2
 950 0004 03F0FB03 		and	r3, r3, #251
 951 0008 1370     		strb	r3, [r2]
 952 000a 7047     		bx	lr
 953              	.L116:
 954              		.align	2
 955              	.L115:
 956 000c 00430040 		.word	1073758976
 957              		.cfi_endproc
 958              	.LFE20:
 959              		.size	CyILO_Stop100K, .-CyILO_Stop100K
 960              		.section	.text.CyPLL_OUT_Start,"ax",%progbits
 961              		.align	1
 962              		.global	CyPLL_OUT_Start
 963              		.thumb
 964              		.thumb_func
 965              		.type	CyPLL_OUT_Start, %function
 966              	CyPLL_OUT_Start:
 967              	.LFB0:
  98:Generated_Source\PSoC5/CyLib.c ****     cystatus status = CYRET_SUCCESS;
 968              		.loc 1 98 0
 969              		.cfi_startproc
 970              		@ args = 0, pretend = 0, frame = 0
 971              		@ frame_needed = 0, uses_anonymous_args = 0
 972              	.LVL46:
 973 0000 2DE9F041 		push	{r4, r5, r6, r7, r8, lr}
 974              		.cfi_def_cfa_offset 24
 975              		.cfi_offset 4, -24
 976              		.cfi_offset 5, -20
 977              		.cfi_offset 6, -16
 978              		.cfi_offset 7, -12
 979              		.cfi_offset 8, -8
 980              		.cfi_offset 14, -4
 107:Generated_Source\PSoC5/CyLib.c **** 
 981              		.loc 1 107 0
 982 0004 184A     		ldr	r2, .L129
 983 0006 1378     		ldrb	r3, [r2]	@ zero_extendqisi2
 984 0008 43F00103 		orr	r3, r3, #1
ARM GAS  C:\Users\yqh\AppData\Local\Temp\ccH6G3Im.s 			page 36


 985 000c 1370     		strb	r3, [r2]
 109:Generated_Source\PSoC5/CyLib.c ****     {
 986              		.loc 1 109 0
 987 000e 38B3     		cbz	r0, .L123
 112:Generated_Source\PSoC5/CyLib.c ****         pmTwCfg0State = CY_LIB_PM_TW_CFG0_REG;
 988              		.loc 1 112 0
 989 0010 164B     		ldr	r3, .L129+4
 114:Generated_Source\PSoC5/CyLib.c **** 
 990              		.loc 1 114 0
 991 0012 174C     		ldr	r4, .L129+8
 116:Generated_Source\PSoC5/CyLib.c **** 
 992              		.loc 1 116 0
 993 0014 1820     		movs	r0, #24
 994              	.LVL47:
 112:Generated_Source\PSoC5/CyLib.c ****         pmTwCfg0State = CY_LIB_PM_TW_CFG0_REG;
 995              		.loc 1 112 0
 996 0016 1D78     		ldrb	r5, [r3]	@ zero_extendqisi2
 997 0018 2646     		mov	r6, r4
 113:Generated_Source\PSoC5/CyLib.c ****         pmTwCfg2State = CY_LIB_PM_TW_CFG2_REG;
 998              		.loc 1 113 0
 999 001a 93F88080 		ldrb	r8, [r3, #128]	@ zero_extendqisi2
 114:Generated_Source\PSoC5/CyLib.c **** 
 1000              		.loc 1 114 0
 1001 001e 2778     		ldrb	r7, [r4]	@ zero_extendqisi2
 116:Generated_Source\PSoC5/CyLib.c **** 
 1002              		.loc 1 116 0
 1003 0020 FFF7FEFF 		bl	CyPmFtwSetInterval
 1004              	.LVL48:
 112:Generated_Source\PSoC5/CyLib.c ****         pmTwCfg0State = CY_LIB_PM_TW_CFG0_REG;
 1005              		.loc 1 112 0
 1006 0024 05F00405 		and	r5, r5, #4
 1007 0028 EDB2     		uxtb	r5, r5
 1008              	.LVL49:
 113:Generated_Source\PSoC5/CyLib.c ****         pmTwCfg2State = CY_LIB_PM_TW_CFG2_REG;
 1009              		.loc 1 113 0
 1010 002a 5FFA88F8 		uxtb	r8, r8
 1011              	.LVL50:
 114:Generated_Source\PSoC5/CyLib.c **** 
 1012              		.loc 1 114 0
 1013 002e FFB2     		uxtb	r7, r7
 1014              	.LVL51:
 1015              	.L126:
 120:Generated_Source\PSoC5/CyLib.c ****         {
 1016              		.loc 1 120 0
 1017 0030 0120     		movs	r0, #1
 1018 0032 FFF7FEFF 		bl	CyPmReadStatus
 1019              	.LVL52:
 1020 0036 10F00100 		ands	r0, r0, #1
 1021 003a 08D1     		bne	.L128
 123:Generated_Source\PSoC5/CyLib.c ****             {
 1022              		.loc 1 123 0
 1023 003c 0D4B     		ldr	r3, .L129+12
 1024 003e 1A78     		ldrb	r2, [r3]	@ zero_extendqisi2
 1025 0040 D207     		lsls	r2, r2, #31
 1026 0042 F5D5     		bpl	.L126
 125:Generated_Source\PSoC5/CyLib.c ****                 {
 1027              		.loc 1 125 0
ARM GAS  C:\Users\yqh\AppData\Local\Temp\ccH6G3Im.s 			page 37


 1028 0044 1B78     		ldrb	r3, [r3]	@ zero_extendqisi2
 1029 0046 DB07     		lsls	r3, r3, #31
 1030 0048 F2D5     		bpl	.L126
 127:Generated_Source\PSoC5/CyLib.c ****                     break;
 1031              		.loc 1 127 0
 1032 004a 0446     		mov	r4, r0
 1033 004c 00E0     		b	.L120
 1034              	.L128:
 118:Generated_Source\PSoC5/CyLib.c **** 
 1035              		.loc 1 118 0
 1036 004e 1024     		movs	r4, #16
 1037              	.L120:
 1038              	.LVL53:
 134:Generated_Source\PSoC5/CyLib.c ****         {
 1039              		.loc 1 134 0
 1040 0050 0DB9     		cbnz	r5, .L122
 136:Generated_Source\PSoC5/CyLib.c ****         }
 1041              		.loc 1 136 0
 1042 0052 FFF7FEFF 		bl	CyILO_Stop100K
 1043              	.LVL54:
 1044              	.L122:
 139:Generated_Source\PSoC5/CyLib.c ****         CY_LIB_PM_TW_CFG2_REG = pmTwCfg2State;
 1045              		.loc 1 139 0
 1046 0056 084B     		ldr	r3, .L129+16
 1047 0058 83F80080 		strb	r8, [r3]
 140:Generated_Source\PSoC5/CyLib.c ****     }
 1048              		.loc 1 140 0
 1049 005c 3770     		strb	r7, [r6]
 1050 005e 00E0     		b	.L118
 1051              	.LVL55:
 1052              	.L123:
  99:Generated_Source\PSoC5/CyLib.c **** 
 1053              		.loc 1 99 0
 1054 0060 0446     		mov	r4, r0
 1055              	.LVL56:
 1056              	.L118:
 144:Generated_Source\PSoC5/CyLib.c **** 
 1057              		.loc 1 144 0
 1058 0062 2046     		mov	r0, r4
 1059 0064 BDE8F081 		pop	{r4, r5, r6, r7, r8, pc}
 1060              	.LVL57:
 1061              	.L130:
 1062              		.align	2
 1063              	.L129:
 1064 0068 20420040 		.word	1073758752
 1065 006c 00430040 		.word	1073758976
 1066 0070 82430040 		.word	1073759106
 1067 0074 25420040 		.word	1073758757
 1068 0078 80430040 		.word	1073759104
 1069              		.cfi_endproc
 1070              	.LFE0:
 1071              		.size	CyPLL_OUT_Start, .-CyPLL_OUT_Start
 1072              		.section	.text.CyIMO_Start,"ax",%progbits
 1073              		.align	1
 1074              		.global	CyIMO_Start
 1075              		.thumb
 1076              		.thumb_func
ARM GAS  C:\Users\yqh\AppData\Local\Temp\ccH6G3Im.s 			page 38


 1077              		.type	CyIMO_Start, %function
 1078              	CyIMO_Start:
 1079              	.LFB4:
 283:Generated_Source\PSoC5/CyLib.c ****     uint8 pmFtwCfg2Reg;
 1080              		.loc 1 283 0
 1081              		.cfi_startproc
 1082              		@ args = 0, pretend = 0, frame = 0
 1083              		@ frame_needed = 0, uses_anonymous_args = 0
 1084              	.LVL58:
 1085 0000 F8B5     		push	{r3, r4, r5, r6, r7, lr}
 1086              		.cfi_def_cfa_offset 24
 1087              		.cfi_offset 3, -24
 1088              		.cfi_offset 4, -20
 1089              		.cfi_offset 5, -16
 1090              		.cfi_offset 6, -12
 1091              		.cfi_offset 7, -8
 1092              		.cfi_offset 14, -4
 289:Generated_Source\PSoC5/CyLib.c ****     CY_LIB_PM_STBY_CFG0_REG |= CY_LIB_PM_STBY_CFG0_IMO_EN;
 1093              		.loc 1 289 0
 1094 0002 124A     		ldr	r2, .L140
 1095 0004 1378     		ldrb	r3, [r2]	@ zero_extendqisi2
 1096 0006 43F01003 		orr	r3, r3, #16
 1097 000a 1370     		strb	r3, [r2]
 290:Generated_Source\PSoC5/CyLib.c **** 
 1098              		.loc 1 290 0
 1099 000c 137C     		ldrb	r3, [r2, #16]	@ zero_extendqisi2
 1100 000e 43F01003 		orr	r3, r3, #16
 1101 0012 1374     		strb	r3, [r2, #16]
 292:Generated_Source\PSoC5/CyLib.c ****     {
 1102              		.loc 1 292 0
 1103 0014 C0B1     		cbz	r0, .L131
 295:Generated_Source\PSoC5/CyLib.c ****         pmFtwCfg0Reg = CY_LIB_PM_TW_CFG0_REG;
 1104              		.loc 1 295 0
 1105 0016 0E4B     		ldr	r3, .L140+4
 297:Generated_Source\PSoC5/CyLib.c **** 
 1106              		.loc 1 297 0
 1107 0018 0E4D     		ldr	r5, .L140+8
 295:Generated_Source\PSoC5/CyLib.c ****         pmFtwCfg0Reg = CY_LIB_PM_TW_CFG0_REG;
 1108              		.loc 1 295 0
 1109 001a 1C78     		ldrb	r4, [r3]	@ zero_extendqisi2
 296:Generated_Source\PSoC5/CyLib.c ****         pmFtwCfg2Reg = CY_LIB_PM_TW_CFG2_REG;
 1110              		.loc 1 296 0
 1111 001c 93F88070 		ldrb	r7, [r3, #128]	@ zero_extendqisi2
 297:Generated_Source\PSoC5/CyLib.c **** 
 1112              		.loc 1 297 0
 1113 0020 2E78     		ldrb	r6, [r5]	@ zero_extendqisi2
 295:Generated_Source\PSoC5/CyLib.c ****         pmFtwCfg0Reg = CY_LIB_PM_TW_CFG0_REG;
 1114              		.loc 1 295 0
 1115 0022 04F00404 		and	r4, r4, #4
 299:Generated_Source\PSoC5/CyLib.c **** 
 1116              		.loc 1 299 0
 1117 0026 0020     		movs	r0, #0
 1118              	.LVL59:
 295:Generated_Source\PSoC5/CyLib.c ****         pmFtwCfg0Reg = CY_LIB_PM_TW_CFG0_REG;
 1119              		.loc 1 295 0
 1120 0028 E4B2     		uxtb	r4, r4
 1121              	.LVL60:
ARM GAS  C:\Users\yqh\AppData\Local\Temp\ccH6G3Im.s 			page 39


 296:Generated_Source\PSoC5/CyLib.c ****         pmFtwCfg2Reg = CY_LIB_PM_TW_CFG2_REG;
 1122              		.loc 1 296 0
 1123 002a FFB2     		uxtb	r7, r7
 1124              	.LVL61:
 297:Generated_Source\PSoC5/CyLib.c **** 
 1125              		.loc 1 297 0
 1126 002c F6B2     		uxtb	r6, r6
 1127              	.LVL62:
 299:Generated_Source\PSoC5/CyLib.c **** 
 1128              		.loc 1 299 0
 1129 002e FFF7FEFF 		bl	CyPmFtwSetInterval
 1130              	.LVL63:
 1131              	.L133:
 301:Generated_Source\PSoC5/CyLib.c ****         {
 1132              		.loc 1 301 0 discriminator 1
 1133 0032 0120     		movs	r0, #1
 1134 0034 FFF7FEFF 		bl	CyPmReadStatus
 1135              	.LVL64:
 1136 0038 C307     		lsls	r3, r0, #31
 1137 003a FAD5     		bpl	.L133
 306:Generated_Source\PSoC5/CyLib.c ****         {
 1138              		.loc 1 306 0
 1139 003c 0CB9     		cbnz	r4, .L134
 308:Generated_Source\PSoC5/CyLib.c ****         }
 1140              		.loc 1 308 0
 1141 003e FFF7FEFF 		bl	CyILO_Stop100K
 1142              	.LVL65:
 1143              	.L134:
 311:Generated_Source\PSoC5/CyLib.c ****         CY_LIB_PM_TW_CFG2_REG = pmFtwCfg2Reg;
 1144              		.loc 1 311 0
 1145 0042 054B     		ldr	r3, .L140+12
 1146 0044 1F70     		strb	r7, [r3]
 312:Generated_Source\PSoC5/CyLib.c ****     }
 1147              		.loc 1 312 0
 1148 0046 2E70     		strb	r6, [r5]
 1149              	.LVL66:
 1150              	.L131:
 1151 0048 F8BD     		pop	{r3, r4, r5, r6, r7, pc}
 1152              	.L141:
 1153 004a 00BF     		.align	2
 1154              	.L140:
 1155 004c A0430040 		.word	1073759136
 1156 0050 00430040 		.word	1073758976
 1157 0054 82430040 		.word	1073759106
 1158 0058 80430040 		.word	1073759104
 1159              		.cfi_endproc
 1160              	.LFE4:
 1161              		.size	CyIMO_Start, .-CyIMO_Start
 1162              		.section	.text.CyILO_Enable33K,"ax",%progbits
 1163              		.align	1
 1164              		.global	CyILO_Enable33K
 1165              		.thumb
 1166              		.thumb_func
 1167              		.type	CyILO_Enable33K, %function
 1168              	CyILO_Enable33K:
 1169              	.LFB21:
 933:Generated_Source\PSoC5/CyLib.c **** }
ARM GAS  C:\Users\yqh\AppData\Local\Temp\ccH6G3Im.s 			page 40


 934:Generated_Source\PSoC5/CyLib.c **** 
 935:Generated_Source\PSoC5/CyLib.c **** 
 936:Generated_Source\PSoC5/CyLib.c **** /*******************************************************************************
 937:Generated_Source\PSoC5/CyLib.c **** * Function Name: CyILO_Enable33K
 938:Generated_Source\PSoC5/CyLib.c **** ****************************************************************************//**
 939:Generated_Source\PSoC5/CyLib.c **** *
 940:Generated_Source\PSoC5/CyLib.c **** *  Enables the ILO 33 KHz divider.
 941:Generated_Source\PSoC5/CyLib.c **** *
 942:Generated_Source\PSoC5/CyLib.c **** *  Note that the 33 KHz clock is generated from the 100 KHz oscillator,
 943:Generated_Source\PSoC5/CyLib.c **** *  so it must also be running in order to generate the 33 KHz output.
 944:Generated_Source\PSoC5/CyLib.c **** *
 945:Generated_Source\PSoC5/CyLib.c **** *******************************************************************************/
 946:Generated_Source\PSoC5/CyLib.c **** void CyILO_Enable33K(void) 
 947:Generated_Source\PSoC5/CyLib.c **** {
 1170              		.loc 1 947 0
 1171              		.cfi_startproc
 1172              		@ args = 0, pretend = 0, frame = 0
 1173              		@ frame_needed = 0, uses_anonymous_args = 0
 1174              		@ link register save eliminated.
 948:Generated_Source\PSoC5/CyLib.c ****     /* Set bit 5 of ILO RS */
 949:Generated_Source\PSoC5/CyLib.c ****     CY_LIB_SLOWCLK_ILO_CR0_REG |= CY_LIB_SLOWCLK_ILO_CR0_EN_33KHZ;
 1175              		.loc 1 949 0
 1176 0000 024A     		ldr	r2, .L143
 1177 0002 1378     		ldrb	r3, [r2]	@ zero_extendqisi2
 1178 0004 43F02003 		orr	r3, r3, #32
 1179 0008 1370     		strb	r3, [r2]
 1180 000a 7047     		bx	lr
 1181              	.L144:
 1182              		.align	2
 1183              	.L143:
 1184 000c 00430040 		.word	1073758976
 1185              		.cfi_endproc
 1186              	.LFE21:
 1187              		.size	CyILO_Enable33K, .-CyILO_Enable33K
 1188              		.section	.text.CyILO_Disable33K,"ax",%progbits
 1189              		.align	1
 1190              		.global	CyILO_Disable33K
 1191              		.thumb
 1192              		.thumb_func
 1193              		.type	CyILO_Disable33K, %function
 1194              	CyILO_Disable33K:
 1195              	.LFB22:
 950:Generated_Source\PSoC5/CyLib.c **** }
 951:Generated_Source\PSoC5/CyLib.c **** 
 952:Generated_Source\PSoC5/CyLib.c **** 
 953:Generated_Source\PSoC5/CyLib.c **** /*******************************************************************************
 954:Generated_Source\PSoC5/CyLib.c **** * Function Name: CyILO_Disable33K
 955:Generated_Source\PSoC5/CyLib.c **** ****************************************************************************//**
 956:Generated_Source\PSoC5/CyLib.c **** *
 957:Generated_Source\PSoC5/CyLib.c **** *  Disables the ILO 33 KHz divider.
 958:Generated_Source\PSoC5/CyLib.c **** *
 959:Generated_Source\PSoC5/CyLib.c **** *  Note that the 33 KHz clock is generated from the 100 KHz oscillator, but this
 960:Generated_Source\PSoC5/CyLib.c **** *  API does not disable the 100 KHz clock.
 961:Generated_Source\PSoC5/CyLib.c **** *
 962:Generated_Source\PSoC5/CyLib.c **** *******************************************************************************/
 963:Generated_Source\PSoC5/CyLib.c **** void CyILO_Disable33K(void) 
 964:Generated_Source\PSoC5/CyLib.c **** {
ARM GAS  C:\Users\yqh\AppData\Local\Temp\ccH6G3Im.s 			page 41


 1196              		.loc 1 964 0
 1197              		.cfi_startproc
 1198              		@ args = 0, pretend = 0, frame = 0
 1199              		@ frame_needed = 0, uses_anonymous_args = 0
 1200              		@ link register save eliminated.
 965:Generated_Source\PSoC5/CyLib.c ****     CY_LIB_SLOWCLK_ILO_CR0_REG &= ((uint8)(~CY_LIB_SLOWCLK_ILO_CR0_EN_33KHZ));
 1201              		.loc 1 965 0
 1202 0000 024A     		ldr	r2, .L146
 1203 0002 1378     		ldrb	r3, [r2]	@ zero_extendqisi2
 1204 0004 03F0DF03 		and	r3, r3, #223
 1205 0008 1370     		strb	r3, [r2]
 1206 000a 7047     		bx	lr
 1207              	.L147:
 1208              		.align	2
 1209              	.L146:
 1210 000c 00430040 		.word	1073758976
 1211              		.cfi_endproc
 1212              	.LFE22:
 1213              		.size	CyILO_Disable33K, .-CyILO_Disable33K
 1214              		.section	.text.CyILO_SetSource,"ax",%progbits
 1215              		.align	1
 1216              		.global	CyILO_SetSource
 1217              		.thumb
 1218              		.thumb_func
 1219              		.type	CyILO_SetSource, %function
 1220              	CyILO_SetSource:
 1221              	.LFB23:
 966:Generated_Source\PSoC5/CyLib.c **** }
 967:Generated_Source\PSoC5/CyLib.c **** 
 968:Generated_Source\PSoC5/CyLib.c **** 
 969:Generated_Source\PSoC5/CyLib.c **** /*******************************************************************************
 970:Generated_Source\PSoC5/CyLib.c **** * Function Name: CyILO_SetSource
 971:Generated_Source\PSoC5/CyLib.c **** ****************************************************************************//**
 972:Generated_Source\PSoC5/CyLib.c **** *
 973:Generated_Source\PSoC5/CyLib.c **** *  Sets the source of the clock output from the ILO block.
 974:Generated_Source\PSoC5/CyLib.c **** *
 975:Generated_Source\PSoC5/CyLib.c **** *  \param source: One of the three available ILO output sources
 976:Generated_Source\PSoC5/CyLib.c **** *       Value        Define                Source
 977:Generated_Source\PSoC5/CyLib.c **** *       0            CY_ILO_SOURCE_100K    ILO 100 KHz
 978:Generated_Source\PSoC5/CyLib.c **** *       1            CY_ILO_SOURCE_33K     ILO 33 KHz
 979:Generated_Source\PSoC5/CyLib.c **** *       2            CY_ILO_SOURCE_1K      ILO 1 KHz
 980:Generated_Source\PSoC5/CyLib.c **** *
 981:Generated_Source\PSoC5/CyLib.c **** *******************************************************************************/
 982:Generated_Source\PSoC5/CyLib.c **** void CyILO_SetSource(uint8 source) 
 983:Generated_Source\PSoC5/CyLib.c **** {
 1222              		.loc 1 983 0
 1223              		.cfi_startproc
 1224              		@ args = 0, pretend = 0, frame = 0
 1225              		@ frame_needed = 0, uses_anonymous_args = 0
 1226              		@ link register save eliminated.
 1227              	.LVL67:
 984:Generated_Source\PSoC5/CyLib.c ****     CY_LIB_CLKDIST_CR_REG = (CY_LIB_CLKDIST_CR_REG & CY_ILO_SOURCE_BITS_CLEAR) |
 1228              		.loc 1 984 0
 1229 0000 4FF04022 		mov	r2, #1073758208
 1230 0004 1378     		ldrb	r3, [r2]	@ zero_extendqisi2
 985:Generated_Source\PSoC5/CyLib.c ****                     (((uint8) (source << 2u)) & ((uint8)(~CY_ILO_SOURCE_BITS_CLEAR)));
 1231              		.loc 1 985 0
ARM GAS  C:\Users\yqh\AppData\Local\Temp\ccH6G3Im.s 			page 42


 1232 0006 8000     		lsls	r0, r0, #2
 1233              	.LVL68:
 984:Generated_Source\PSoC5/CyLib.c ****     CY_LIB_CLKDIST_CR_REG = (CY_LIB_CLKDIST_CR_REG & CY_ILO_SOURCE_BITS_CLEAR) |
 1234              		.loc 1 984 0
 1235 0008 00F00C00 		and	r0, r0, #12
 1236 000c 03F0F303 		and	r3, r3, #243
 1237 0010 0343     		orrs	r3, r3, r0
 1238 0012 1370     		strb	r3, [r2]
 1239 0014 7047     		bx	lr
 1240              		.cfi_endproc
 1241              	.LFE23:
 1242              		.size	CyILO_SetSource, .-CyILO_SetSource
 1243              		.section	.text.CyILO_SetPowerMode,"ax",%progbits
 1244              		.align	1
 1245              		.global	CyILO_SetPowerMode
 1246              		.thumb
 1247              		.thumb_func
 1248              		.type	CyILO_SetPowerMode, %function
 1249              	CyILO_SetPowerMode:
 1250              	.LFB24:
 986:Generated_Source\PSoC5/CyLib.c **** }
 987:Generated_Source\PSoC5/CyLib.c **** 
 988:Generated_Source\PSoC5/CyLib.c **** 
 989:Generated_Source\PSoC5/CyLib.c **** /*******************************************************************************
 990:Generated_Source\PSoC5/CyLib.c **** * Function Name: CyILO_SetPowerMode
 991:Generated_Source\PSoC5/CyLib.c **** ****************************************************************************//**
 992:Generated_Source\PSoC5/CyLib.c **** *
 993:Generated_Source\PSoC5/CyLib.c **** * Sets the power mode used by the ILO during power down. Allows for lower power
 994:Generated_Source\PSoC5/CyLib.c **** * down power usage resulting in a slower startup time.
 995:Generated_Source\PSoC5/CyLib.c **** *
 996:Generated_Source\PSoC5/CyLib.c **** * \param mode
 997:Generated_Source\PSoC5/CyLib.c **** * CY_ILO_FAST_START - Faster start-up, internal bias left on when powered down
 998:Generated_Source\PSoC5/CyLib.c **** * CY_ILO_SLOW_START - Slower start-up, internal bias off when powered down
 999:Generated_Source\PSoC5/CyLib.c **** *
1000:Generated_Source\PSoC5/CyLib.c **** * \return Prevous power mode state.
1001:Generated_Source\PSoC5/CyLib.c **** *
1002:Generated_Source\PSoC5/CyLib.c **** *******************************************************************************/
1003:Generated_Source\PSoC5/CyLib.c **** uint8 CyILO_SetPowerMode(uint8 mode) 
1004:Generated_Source\PSoC5/CyLib.c **** {
 1251              		.loc 1 1004 0
 1252              		.cfi_startproc
 1253              		@ args = 0, pretend = 0, frame = 0
 1254              		@ frame_needed = 0, uses_anonymous_args = 0
 1255              		@ link register save eliminated.
 1256              	.LVL69:
1005:Generated_Source\PSoC5/CyLib.c ****     uint8 state;
1006:Generated_Source\PSoC5/CyLib.c **** 
1007:Generated_Source\PSoC5/CyLib.c ****     /* Get current state. */
1008:Generated_Source\PSoC5/CyLib.c ****     state = CY_LIB_SLOWCLK_ILO_CR0_REG;
 1257              		.loc 1 1008 0
 1258 0000 064A     		ldr	r2, .L153
 1259 0002 1378     		ldrb	r3, [r2]	@ zero_extendqisi2
 1260 0004 DBB2     		uxtb	r3, r3
 1261              	.LVL70:
1009:Generated_Source\PSoC5/CyLib.c **** 
1010:Generated_Source\PSoC5/CyLib.c ****     /* Set the oscillator power mode. */
1011:Generated_Source\PSoC5/CyLib.c ****     if(mode != CY_ILO_FAST_START)
ARM GAS  C:\Users\yqh\AppData\Local\Temp\ccH6G3Im.s 			page 43


 1262              		.loc 1 1011 0
 1263 0006 10B1     		cbz	r0, .L150
1012:Generated_Source\PSoC5/CyLib.c ****     {
1013:Generated_Source\PSoC5/CyLib.c ****         CY_LIB_SLOWCLK_ILO_CR0_REG = (state | CY_ILO_CONTROL_PD_MODE);
 1264              		.loc 1 1013 0
 1265 0008 43F01001 		orr	r1, r3, #16
 1266 000c 01E0     		b	.L152
 1267              	.L150:
1014:Generated_Source\PSoC5/CyLib.c ****     }
1015:Generated_Source\PSoC5/CyLib.c ****     else
1016:Generated_Source\PSoC5/CyLib.c ****     {
1017:Generated_Source\PSoC5/CyLib.c ****         CY_LIB_SLOWCLK_ILO_CR0_REG = (state & ((uint8)(~CY_ILO_CONTROL_PD_MODE)));
 1268              		.loc 1 1017 0
 1269 000e 03F0EF01 		and	r1, r3, #239
 1270              	.L152:
 1271 0012 1170     		strb	r1, [r2]
1018:Generated_Source\PSoC5/CyLib.c ****     }
1019:Generated_Source\PSoC5/CyLib.c **** 
1020:Generated_Source\PSoC5/CyLib.c ****     /* Return old mode. */
1021:Generated_Source\PSoC5/CyLib.c ****     return ((state & CY_ILO_CONTROL_PD_MODE) >> CY_ILO_CONTROL_PD_POSITION);
1022:Generated_Source\PSoC5/CyLib.c **** }
 1272              		.loc 1 1022 0
 1273 0014 C3F30010 		ubfx	r0, r3, #4, #1
 1274              	.LVL71:
 1275 0018 7047     		bx	lr
 1276              	.L154:
 1277 001a 00BF     		.align	2
 1278              	.L153:
 1279 001c 00430040 		.word	1073758976
 1280              		.cfi_endproc
 1281              	.LFE24:
 1282              		.size	CyILO_SetPowerMode, .-CyILO_SetPowerMode
 1283              		.section	.text.CyXTAL_32KHZ_Stop,"ax",%progbits
 1284              		.align	1
 1285              		.global	CyXTAL_32KHZ_Stop
 1286              		.thumb
 1287              		.thumb_func
 1288              		.type	CyXTAL_32KHZ_Stop, %function
 1289              	CyXTAL_32KHZ_Stop:
 1290              	.LFB26:
1023:Generated_Source\PSoC5/CyLib.c **** 
1024:Generated_Source\PSoC5/CyLib.c **** 
1025:Generated_Source\PSoC5/CyLib.c **** /*******************************************************************************
1026:Generated_Source\PSoC5/CyLib.c **** * Function Name: CyXTAL_32KHZ_Start
1027:Generated_Source\PSoC5/CyLib.c **** ****************************************************************************//**
1028:Generated_Source\PSoC5/CyLib.c **** *
1029:Generated_Source\PSoC5/CyLib.c **** *  Enables the 32 KHz Crystal Oscillator.
1030:Generated_Source\PSoC5/CyLib.c **** *
1031:Generated_Source\PSoC5/CyLib.c **** *******************************************************************************/
1032:Generated_Source\PSoC5/CyLib.c **** void CyXTAL_32KHZ_Start(void) 
1033:Generated_Source\PSoC5/CyLib.c **** {
1034:Generated_Source\PSoC5/CyLib.c ****     volatile uint16 i;
1035:Generated_Source\PSoC5/CyLib.c **** 
1036:Generated_Source\PSoC5/CyLib.c ****     CY_CLK_XTAL32_TST_REG = CY_CLK_XTAL32_TST_DEFAULT;
1037:Generated_Source\PSoC5/CyLib.c ****     CY_CLK_XTAL32_TR_REG  = CY_CLK_XTAL32_TR_STARTUP;
1038:Generated_Source\PSoC5/CyLib.c ****     CY_CLK_XTAL32_CFG_REG = (CY_CLK_XTAL32_CFG_REG & ((uint8)(~CY_CLK_XTAL32_CFG_LP_MASK))) |
1039:Generated_Source\PSoC5/CyLib.c ****                                 CY_CLK_XTAL32_CFG_LP_DEFAULT;
ARM GAS  C:\Users\yqh\AppData\Local\Temp\ccH6G3Im.s 			page 44


1040:Generated_Source\PSoC5/CyLib.c **** 
1041:Generated_Source\PSoC5/CyLib.c ****     #if(CY_PSOC3)
1042:Generated_Source\PSoC5/CyLib.c ****         CY_CLK_XTAL32_CR_REG |= CY_CLK_XTAL32_CR_PDBEN;
1043:Generated_Source\PSoC5/CyLib.c ****     #endif  /* (CY_PSOC3) */
1044:Generated_Source\PSoC5/CyLib.c **** 
1045:Generated_Source\PSoC5/CyLib.c ****     /* Enable operation of 32K Crystal Oscillator */
1046:Generated_Source\PSoC5/CyLib.c ****     CY_CLK_XTAL32_CR_REG |= CY_CLK_XTAL32_CR_EN;
1047:Generated_Source\PSoC5/CyLib.c **** 
1048:Generated_Source\PSoC5/CyLib.c ****     for (i = 1000u; i > 0u; i--)
1049:Generated_Source\PSoC5/CyLib.c ****     {
1050:Generated_Source\PSoC5/CyLib.c ****         if(0u != (CyXTAL_32KHZ_ReadStatus() & CY_XTAL32K_ANA_STAT))
1051:Generated_Source\PSoC5/CyLib.c ****         {
1052:Generated_Source\PSoC5/CyLib.c ****             /* Ready - switch to high power mode */
1053:Generated_Source\PSoC5/CyLib.c ****             (void) CyXTAL_32KHZ_SetPowerMode(0u);
1054:Generated_Source\PSoC5/CyLib.c **** 
1055:Generated_Source\PSoC5/CyLib.c ****             break;
1056:Generated_Source\PSoC5/CyLib.c ****         }
1057:Generated_Source\PSoC5/CyLib.c ****         CyDelayUs(1u);
1058:Generated_Source\PSoC5/CyLib.c ****     }
1059:Generated_Source\PSoC5/CyLib.c **** }
1060:Generated_Source\PSoC5/CyLib.c **** 
1061:Generated_Source\PSoC5/CyLib.c **** 
1062:Generated_Source\PSoC5/CyLib.c **** /*******************************************************************************
1063:Generated_Source\PSoC5/CyLib.c **** * Function Name: CyXTAL_32KHZ_Stop
1064:Generated_Source\PSoC5/CyLib.c **** ****************************************************************************//**
1065:Generated_Source\PSoC5/CyLib.c **** *
1066:Generated_Source\PSoC5/CyLib.c **** *  Disables the 32KHz Crystal Oscillator.
1067:Generated_Source\PSoC5/CyLib.c **** *
1068:Generated_Source\PSoC5/CyLib.c **** *******************************************************************************/
1069:Generated_Source\PSoC5/CyLib.c **** void CyXTAL_32KHZ_Stop(void) 
1070:Generated_Source\PSoC5/CyLib.c **** {
 1291              		.loc 1 1070 0
 1292              		.cfi_startproc
 1293              		@ args = 0, pretend = 0, frame = 0
 1294              		@ frame_needed = 0, uses_anonymous_args = 0
 1295              		@ link register save eliminated.
1071:Generated_Source\PSoC5/CyLib.c ****     CY_CLK_XTAL32_TST_REG  = CY_CLK_XTAL32_TST_DEFAULT;
 1296              		.loc 1 1071 0
 1297 0000 094B     		ldr	r3, .L156
 1298 0002 F322     		movs	r2, #243
 1299 0004 1A70     		strb	r2, [r3]
1072:Generated_Source\PSoC5/CyLib.c ****     CY_CLK_XTAL32_TR_REG   = CY_CLK_XTAL32_TR_POWERDOWN;
 1300              		.loc 1 1072 0
 1301 0006 0022     		movs	r2, #0
 1302 0008 83F88E23 		strb	r2, [r3, #910]
1073:Generated_Source\PSoC5/CyLib.c ****     CY_CLK_XTAL32_CFG_REG = (CY_CLK_XTAL32_CFG_REG & ((uint8)(~CY_CLK_XTAL32_CFG_LP_MASK))) |
 1303              		.loc 1 1073 0
 1304 000c 074A     		ldr	r2, .L156+4
 1305 000e 1378     		ldrb	r3, [r2]	@ zero_extendqisi2
 1306 0010 03F0F303 		and	r3, r3, #243
 1307 0014 43F00403 		orr	r3, r3, #4
 1308 0018 1370     		strb	r3, [r2]
1074:Generated_Source\PSoC5/CyLib.c ****                              CY_CLK_XTAL32_CFG_LP_DEFAULT;
1075:Generated_Source\PSoC5/CyLib.c ****     CY_CLK_XTAL32_CR_REG &= ((uint8)(~(CY_CLK_XTAL32_CR_EN | CY_CLK_XTAL32_CR_LPM)));
 1309              		.loc 1 1075 0
 1310 001a 12F8013C 		ldrb	r3, [r2, #-1]	@ zero_extendqisi2
 1311 001e 03F0FC03 		and	r3, r3, #252
ARM GAS  C:\Users\yqh\AppData\Local\Temp\ccH6G3Im.s 			page 45


 1312 0022 02F8013C 		strb	r3, [r2, #-1]
 1313 0026 7047     		bx	lr
 1314              	.L157:
 1315              		.align	2
 1316              	.L156:
 1317 0028 0A430040 		.word	1073758986
 1318 002c 09430040 		.word	1073758985
 1319              		.cfi_endproc
 1320              	.LFE26:
 1321              		.size	CyXTAL_32KHZ_Stop, .-CyXTAL_32KHZ_Stop
 1322              		.section	.text.CyXTAL_32KHZ_ReadStatus,"ax",%progbits
 1323              		.align	1
 1324              		.global	CyXTAL_32KHZ_ReadStatus
 1325              		.thumb
 1326              		.thumb_func
 1327              		.type	CyXTAL_32KHZ_ReadStatus, %function
 1328              	CyXTAL_32KHZ_ReadStatus:
 1329              	.LFB27:
1076:Generated_Source\PSoC5/CyLib.c **** 
1077:Generated_Source\PSoC5/CyLib.c ****     #if(CY_PSOC3)
1078:Generated_Source\PSoC5/CyLib.c ****         CY_CLK_XTAL32_CR_REG &= ((uint8)(~CY_CLK_XTAL32_CR_PDBEN));
1079:Generated_Source\PSoC5/CyLib.c ****     #endif  /* (CY_PSOC3) */
1080:Generated_Source\PSoC5/CyLib.c **** }
1081:Generated_Source\PSoC5/CyLib.c **** 
1082:Generated_Source\PSoC5/CyLib.c **** 
1083:Generated_Source\PSoC5/CyLib.c **** /*******************************************************************************
1084:Generated_Source\PSoC5/CyLib.c **** * Function Name: CyXTAL_32KHZ_ReadStatus
1085:Generated_Source\PSoC5/CyLib.c **** ****************************************************************************//**
1086:Generated_Source\PSoC5/CyLib.c **** *
1087:Generated_Source\PSoC5/CyLib.c **** *  Returns status of the 32 KHz oscillator.
1088:Generated_Source\PSoC5/CyLib.c **** *
1089:Generated_Source\PSoC5/CyLib.c **** * \return
1090:Generated_Source\PSoC5/CyLib.c **** *  Value     Define                    Source
1091:Generated_Source\PSoC5/CyLib.c **** *  20        CY_XTAL32K_ANA_STAT       Analog measurement
1092:Generated_Source\PSoC5/CyLib.c **** *                                       1: Stable
1093:Generated_Source\PSoC5/CyLib.c **** *                                       0: Not stable
1094:Generated_Source\PSoC5/CyLib.c **** *
1095:Generated_Source\PSoC5/CyLib.c **** *******************************************************************************/
1096:Generated_Source\PSoC5/CyLib.c **** uint8 CyXTAL_32KHZ_ReadStatus(void) 
1097:Generated_Source\PSoC5/CyLib.c **** {
 1330              		.loc 1 1097 0
 1331              		.cfi_startproc
 1332              		@ args = 0, pretend = 0, frame = 0
 1333              		@ frame_needed = 0, uses_anonymous_args = 0
 1334              		@ link register save eliminated.
1098:Generated_Source\PSoC5/CyLib.c ****     return(CY_CLK_XTAL32_CR_REG & CY_XTAL32K_ANA_STAT);
 1335              		.loc 1 1098 0
 1336 0000 024B     		ldr	r3, .L159
 1337 0002 1878     		ldrb	r0, [r3]	@ zero_extendqisi2
1099:Generated_Source\PSoC5/CyLib.c **** }
 1338              		.loc 1 1099 0
 1339 0004 00F02000 		and	r0, r0, #32
 1340 0008 7047     		bx	lr
 1341              	.L160:
 1342 000a 00BF     		.align	2
 1343              	.L159:
 1344 000c 08430040 		.word	1073758984
ARM GAS  C:\Users\yqh\AppData\Local\Temp\ccH6G3Im.s 			page 46


 1345              		.cfi_endproc
 1346              	.LFE27:
 1347              		.size	CyXTAL_32KHZ_ReadStatus, .-CyXTAL_32KHZ_ReadStatus
 1348              		.section	.text.CyXTAL_Start,"ax",%progbits
 1349              		.align	1
 1350              		.global	CyXTAL_Start
 1351              		.thumb
 1352              		.thumb_func
 1353              		.type	CyXTAL_Start, %function
 1354              	CyXTAL_Start:
 1355              	.LFB29:
1100:Generated_Source\PSoC5/CyLib.c **** 
1101:Generated_Source\PSoC5/CyLib.c **** 
1102:Generated_Source\PSoC5/CyLib.c **** /*******************************************************************************
1103:Generated_Source\PSoC5/CyLib.c **** * Function Name: CyXTAL_32KHZ_SetPowerMode
1104:Generated_Source\PSoC5/CyLib.c **** ****************************************************************************//**
1105:Generated_Source\PSoC5/CyLib.c **** *
1106:Generated_Source\PSoC5/CyLib.c **** *  Sets the power mode for the 32 KHz oscillator used during the sleep mode.
1107:Generated_Source\PSoC5/CyLib.c **** *  Allows for lower power during sleep when there are fewer sources of noise.
1108:Generated_Source\PSoC5/CyLib.c **** *  During the active mode the oscillator is always run in the high power mode.
1109:Generated_Source\PSoC5/CyLib.c **** *
1110:Generated_Source\PSoC5/CyLib.c **** *  uint8 mode
1111:Generated_Source\PSoC5/CyLib.c **** *       \param 0: High power mode
1112:Generated_Source\PSoC5/CyLib.c **** *       \param 1: Low power mode during sleep
1113:Generated_Source\PSoC5/CyLib.c **** *
1114:Generated_Source\PSoC5/CyLib.c **** * \return
1115:Generated_Source\PSoC5/CyLib.c **** *  Previous power mode.
1116:Generated_Source\PSoC5/CyLib.c **** *
1117:Generated_Source\PSoC5/CyLib.c **** *******************************************************************************/
1118:Generated_Source\PSoC5/CyLib.c **** uint8 CyXTAL_32KHZ_SetPowerMode(uint8 mode) 
1119:Generated_Source\PSoC5/CyLib.c **** {
1120:Generated_Source\PSoC5/CyLib.c ****     uint8 state = (0u != (CY_CLK_XTAL32_CR_REG & CY_CLK_XTAL32_CR_LPM)) ? 1u : 0u;
1121:Generated_Source\PSoC5/CyLib.c **** 
1122:Generated_Source\PSoC5/CyLib.c ****     CY_CLK_XTAL32_TST_REG = CY_CLK_XTAL32_TST_DEFAULT;
1123:Generated_Source\PSoC5/CyLib.c **** 
1124:Generated_Source\PSoC5/CyLib.c ****     if(1u == mode)
1125:Generated_Source\PSoC5/CyLib.c ****     {
1126:Generated_Source\PSoC5/CyLib.c ****         /* Low power mode during Sleep */
1127:Generated_Source\PSoC5/CyLib.c ****         CY_CLK_XTAL32_TR_REG  = CY_CLK_XTAL32_TR_LOW_POWER;
1128:Generated_Source\PSoC5/CyLib.c ****         CyDelayUs(10u);
1129:Generated_Source\PSoC5/CyLib.c ****         CY_CLK_XTAL32_CFG_REG = (CY_CLK_XTAL32_CFG_REG & ((uint8)(~CY_CLK_XTAL32_CFG_LP_MASK))) |
1130:Generated_Source\PSoC5/CyLib.c ****                                 CY_CLK_XTAL32_CFG_LP_LOWPOWER;
1131:Generated_Source\PSoC5/CyLib.c ****         CyDelayUs(20u);
1132:Generated_Source\PSoC5/CyLib.c ****         CY_CLK_XTAL32_CR_REG |= CY_CLK_XTAL32_CR_LPM;
1133:Generated_Source\PSoC5/CyLib.c ****     }
1134:Generated_Source\PSoC5/CyLib.c ****     else
1135:Generated_Source\PSoC5/CyLib.c ****     {
1136:Generated_Source\PSoC5/CyLib.c ****         /* High power mode */
1137:Generated_Source\PSoC5/CyLib.c ****         CY_CLK_XTAL32_TR_REG  = CY_CLK_XTAL32_TR_HIGH_POWER;
1138:Generated_Source\PSoC5/CyLib.c ****         CyDelayUs(10u);
1139:Generated_Source\PSoC5/CyLib.c ****         CY_CLK_XTAL32_CFG_REG = (CY_CLK_XTAL32_CFG_REG & ((uint8)(~CY_CLK_XTAL32_CFG_LP_MASK))) |
1140:Generated_Source\PSoC5/CyLib.c ****                                 CY_CLK_XTAL32_CFG_LP_DEFAULT;
1141:Generated_Source\PSoC5/CyLib.c ****         CY_CLK_XTAL32_CR_REG &= ((uint8)(~CY_CLK_XTAL32_CR_LPM));
1142:Generated_Source\PSoC5/CyLib.c ****     }
1143:Generated_Source\PSoC5/CyLib.c **** 
1144:Generated_Source\PSoC5/CyLib.c ****     return(state);
1145:Generated_Source\PSoC5/CyLib.c **** }
ARM GAS  C:\Users\yqh\AppData\Local\Temp\ccH6G3Im.s 			page 47


1146:Generated_Source\PSoC5/CyLib.c **** 
1147:Generated_Source\PSoC5/CyLib.c **** 
1148:Generated_Source\PSoC5/CyLib.c **** /*******************************************************************************
1149:Generated_Source\PSoC5/CyLib.c **** * Function Name: CyXTAL_Start
1150:Generated_Source\PSoC5/CyLib.c **** ****************************************************************************//**
1151:Generated_Source\PSoC5/CyLib.c **** *
1152:Generated_Source\PSoC5/CyLib.c **** *  Enables the megahertz crystal.
1153:Generated_Source\PSoC5/CyLib.c **** *
1154:Generated_Source\PSoC5/CyLib.c **** *  PSoC 3:
1155:Generated_Source\PSoC5/CyLib.c **** *  Waits until the XERR bit is low (no error) for a millisecond or until the
1156:Generated_Source\PSoC5/CyLib.c **** *  number of milliseconds specified by the wait parameter has expired.
1157:Generated_Source\PSoC5/CyLib.c **** *
1158:Generated_Source\PSoC5/CyLib.c **** *   \param wait: Valid range [0-255].
1159:Generated_Source\PSoC5/CyLib.c **** *   This is the timeout value in milliseconds.
1160:Generated_Source\PSoC5/CyLib.c **** *   The appropriate value is crystal specific.
1161:Generated_Source\PSoC5/CyLib.c **** *
1162:Generated_Source\PSoC5/CyLib.c **** * \return
1163:Generated_Source\PSoC5/CyLib.c **** *   CYRET_SUCCESS - Completed successfully
1164:Generated_Source\PSoC5/CyLib.c **** *   CYRET_TIMEOUT - Timeout occurred without detecting a low value on XERR.
1165:Generated_Source\PSoC5/CyLib.c **** *
1166:Generated_Source\PSoC5/CyLib.c **** * Side Effects and Restrictions:
1167:Generated_Source\PSoC5/CyLib.c **** *  If wait is enabled (non-zero wait). Uses the Fast Timewheel to time the wait.
1168:Generated_Source\PSoC5/CyLib.c **** *  Any other use of the Fast Timewheel (FTW) will be stopped during the period
1169:Generated_Source\PSoC5/CyLib.c **** *  of this function and then restored.
1170:Generated_Source\PSoC5/CyLib.c **** *
1171:Generated_Source\PSoC5/CyLib.c **** *  Uses the 100KHz ILO.  If not enabled, this function will enable the 100KHz
1172:Generated_Source\PSoC5/CyLib.c **** *  ILO for the period of this function. No changes to the setup of the ILO,
1173:Generated_Source\PSoC5/CyLib.c **** *  Fast Timewheel, Central Timewheel or Once Per Second interrupt may be made
1174:Generated_Source\PSoC5/CyLib.c **** *  by interrupt routines during the period of this function.
1175:Generated_Source\PSoC5/CyLib.c **** *
1176:Generated_Source\PSoC5/CyLib.c **** *  The current operation of the ILO, Central Timewheel and Once Per Second
1177:Generated_Source\PSoC5/CyLib.c **** *  interrupt are maintained during the operation of this function provided the
1178:Generated_Source\PSoC5/CyLib.c **** *  reading of the Power Manager Interrupt Status Register is only done using the
1179:Generated_Source\PSoC5/CyLib.c **** *  CyPmReadStatus() function.
1180:Generated_Source\PSoC5/CyLib.c **** *
1181:Generated_Source\PSoC5/CyLib.c **** *******************************************************************************/
1182:Generated_Source\PSoC5/CyLib.c **** cystatus CyXTAL_Start(uint8 wait) 
1183:Generated_Source\PSoC5/CyLib.c **** {
 1356              		.loc 1 1183 0
 1357              		.cfi_startproc
 1358              		@ args = 0, pretend = 0, frame = 8
 1359              		@ frame_needed = 0, uses_anonymous_args = 0
 1360              	.LVL72:
 1361 0000 2DE9F743 		push	{r0, r1, r2, r4, r5, r6, r7, r8, r9, lr}
 1362              		.cfi_def_cfa_offset 40
 1363              		.cfi_offset 4, -28
 1364              		.cfi_offset 5, -24
 1365              		.cfi_offset 6, -20
 1366              		.cfi_offset 7, -16
 1367              		.cfi_offset 8, -12
 1368              		.cfi_offset 9, -8
 1369              		.cfi_offset 14, -4
1184:Generated_Source\PSoC5/CyLib.c ****     cystatus status = CYRET_SUCCESS;
1185:Generated_Source\PSoC5/CyLib.c ****     volatile uint8  timeout = wait;
1186:Generated_Source\PSoC5/CyLib.c ****     volatile uint8 count;
1187:Generated_Source\PSoC5/CyLib.c ****     uint8 iloEnableState;
1188:Generated_Source\PSoC5/CyLib.c ****     uint8 pmTwCfg0Tmp;
ARM GAS  C:\Users\yqh\AppData\Local\Temp\ccH6G3Im.s 			page 48


1189:Generated_Source\PSoC5/CyLib.c ****     uint8 pmTwCfg2Tmp;
1190:Generated_Source\PSoC5/CyLib.c **** 
1191:Generated_Source\PSoC5/CyLib.c **** 
1192:Generated_Source\PSoC5/CyLib.c ****     /* Enables MHz crystal oscillator circuit  */
1193:Generated_Source\PSoC5/CyLib.c ****     CY_CLK_XMHZ_CSR_REG |= CY_CLK_XMHZ_CSR_ENABLE;
 1370              		.loc 1 1193 0
 1371 0004 234D     		ldr	r5, .L177
1185:Generated_Source\PSoC5/CyLib.c ****     volatile uint8 count;
 1372              		.loc 1 1185 0
 1373 0006 8DF80600 		strb	r0, [sp, #6]
 1374              		.loc 1 1193 0
 1375 000a 2B78     		ldrb	r3, [r5]	@ zero_extendqisi2
 1376 000c 43F00103 		orr	r3, r3, #1
 1377 0010 2B70     		strb	r3, [r5]
1194:Generated_Source\PSoC5/CyLib.c **** 
1195:Generated_Source\PSoC5/CyLib.c **** 
1196:Generated_Source\PSoC5/CyLib.c ****     if(wait > 0u)
 1378              		.loc 1 1196 0
 1379 0012 0028     		cmp	r0, #0
 1380 0014 39D0     		beq	.L169
1197:Generated_Source\PSoC5/CyLib.c ****     {
1198:Generated_Source\PSoC5/CyLib.c ****         /* Save 100 KHz ILO, FTW interval, enable and interrupt enable */
1199:Generated_Source\PSoC5/CyLib.c ****         iloEnableState = CY_LIB_SLOWCLK_ILO_CR0_REG;
 1381              		.loc 1 1199 0
 1382 0016 204B     		ldr	r3, .L177+4
1200:Generated_Source\PSoC5/CyLib.c ****         pmTwCfg0Tmp = CY_LIB_PM_TW_CFG0_REG;
1201:Generated_Source\PSoC5/CyLib.c ****         pmTwCfg2Tmp = CY_LIB_PM_TW_CFG2_REG;
 1383              		.loc 1 1201 0
 1384 0018 204E     		ldr	r6, .L177+8
1199:Generated_Source\PSoC5/CyLib.c ****         pmTwCfg0Tmp = CY_LIB_PM_TW_CFG0_REG;
 1385              		.loc 1 1199 0
 1386 001a 93F80090 		ldrb	r9, [r3]	@ zero_extendqisi2
1200:Generated_Source\PSoC5/CyLib.c ****         pmTwCfg0Tmp = CY_LIB_PM_TW_CFG0_REG;
 1387              		.loc 1 1200 0
 1388 001e 93F88080 		ldrb	r8, [r3, #128]	@ zero_extendqisi2
 1389              		.loc 1 1201 0
 1390 0022 3778     		ldrb	r7, [r6]	@ zero_extendqisi2
1202:Generated_Source\PSoC5/CyLib.c **** 
1203:Generated_Source\PSoC5/CyLib.c ****         /* Set 250 us interval */
1204:Generated_Source\PSoC5/CyLib.c ****         CyPmFtwSetInterval(CY_CLK_XMHZ_FTW_INTERVAL);
 1391              		.loc 1 1204 0
 1392 0024 1820     		movs	r0, #24
 1393              	.LVL73:
1199:Generated_Source\PSoC5/CyLib.c ****         pmTwCfg0Tmp = CY_LIB_PM_TW_CFG0_REG;
 1394              		.loc 1 1199 0
 1395 0026 5FFA89F9 		uxtb	r9, r9
 1396              	.LVL74:
1200:Generated_Source\PSoC5/CyLib.c ****         pmTwCfg2Tmp = CY_LIB_PM_TW_CFG2_REG;
 1397              		.loc 1 1200 0
 1398 002a 5FFA88F8 		uxtb	r8, r8
 1399              	.LVL75:
1201:Generated_Source\PSoC5/CyLib.c **** 
 1400              		.loc 1 1201 0
 1401 002e FFB2     		uxtb	r7, r7
 1402              	.LVL76:
 1403              		.loc 1 1204 0
 1404 0030 FFF7FEFF 		bl	CyPmFtwSetInterval
ARM GAS  C:\Users\yqh\AppData\Local\Temp\ccH6G3Im.s 			page 49


 1405              	.LVL77:
 1406              	.L163:
1205:Generated_Source\PSoC5/CyLib.c ****         status = CYRET_TIMEOUT;
1206:Generated_Source\PSoC5/CyLib.c **** 
1207:Generated_Source\PSoC5/CyLib.c **** 
1208:Generated_Source\PSoC5/CyLib.c ****         for( ; timeout > 0u; timeout--)
 1407              		.loc 1 1208 0 discriminator 1
 1408 0034 9DF80630 		ldrb	r3, [sp, #6]	@ zero_extendqisi2
 1409 0038 E3B1     		cbz	r3, .L175
1209:Generated_Source\PSoC5/CyLib.c ****         {
1210:Generated_Source\PSoC5/CyLib.c ****             /* Read XERR bit to clear it */
1211:Generated_Source\PSoC5/CyLib.c ****             (void) CY_CLK_XMHZ_CSR_REG;
 1410              		.loc 1 1211 0
 1411 003a 2B78     		ldrb	r3, [r5]	@ zero_extendqisi2
1212:Generated_Source\PSoC5/CyLib.c **** 
1213:Generated_Source\PSoC5/CyLib.c ****             /* Wait for 1 millisecond - 4 x 250 us */
1214:Generated_Source\PSoC5/CyLib.c ****             for(count = 4u; count > 0u; count--)
 1412              		.loc 1 1214 0
 1413 003c 0423     		movs	r3, #4
 1414              	.L174:
 1415              		.loc 1 1214 0 is_stmt 0 discriminator 2
 1416 003e 8DF80730 		strb	r3, [sp, #7]
 1417 0042 9DF80730 		ldrb	r3, [sp, #7]	@ zero_extendqisi2
 1418 0046 03F0FF04 		and	r4, r3, #255
 1419 004a 4BB1     		cbz	r3, .L176
 1420              	.L172:
1215:Generated_Source\PSoC5/CyLib.c ****             {
1216:Generated_Source\PSoC5/CyLib.c ****                 while(0u == (CY_PM_FTW_INT & CyPmReadStatus(CY_PM_FTW_INT)))
 1421              		.loc 1 1216 0 is_stmt 1 discriminator 1
 1422 004c 0120     		movs	r0, #1
 1423 004e FFF7FEFF 		bl	CyPmReadStatus
 1424              	.LVL78:
 1425 0052 C207     		lsls	r2, r0, #31
 1426 0054 FAD5     		bpl	.L172
1214:Generated_Source\PSoC5/CyLib.c ****             {
 1427              		.loc 1 1214 0 discriminator 2
 1428 0056 9DF80730 		ldrb	r3, [sp, #7]	@ zero_extendqisi2
 1429 005a 013B     		subs	r3, r3, #1
 1430 005c DBB2     		uxtb	r3, r3
 1431 005e EEE7     		b	.L174
 1432              	.L176:
1217:Generated_Source\PSoC5/CyLib.c ****                 {
1218:Generated_Source\PSoC5/CyLib.c ****                     /* Wait for FTW interrupt event */
1219:Generated_Source\PSoC5/CyLib.c ****                 }
1220:Generated_Source\PSoC5/CyLib.c ****             }
1221:Generated_Source\PSoC5/CyLib.c **** 
1222:Generated_Source\PSoC5/CyLib.c **** 
1223:Generated_Source\PSoC5/CyLib.c ****             /*******************************************************************
1224:Generated_Source\PSoC5/CyLib.c ****             * High output indicates an oscillator failure.
1225:Generated_Source\PSoC5/CyLib.c ****             * Only can be used after a start-up interval (1 ms) is completed.
1226:Generated_Source\PSoC5/CyLib.c ****             *******************************************************************/
1227:Generated_Source\PSoC5/CyLib.c ****             if(0u == (CY_CLK_XMHZ_CSR_REG & CY_CLK_XMHZ_CSR_XERR))
 1433              		.loc 1 1227 0
 1434 0060 2B78     		ldrb	r3, [r5]	@ zero_extendqisi2
 1435 0062 1B06     		lsls	r3, r3, #24
 1436 0064 07D5     		bpl	.L166
1208:Generated_Source\PSoC5/CyLib.c ****         {
ARM GAS  C:\Users\yqh\AppData\Local\Temp\ccH6G3Im.s 			page 50


 1437              		.loc 1 1208 0
 1438 0066 9DF80630 		ldrb	r3, [sp, #6]	@ zero_extendqisi2
 1439 006a 013B     		subs	r3, r3, #1
 1440 006c DBB2     		uxtb	r3, r3
 1441 006e 8DF80630 		strb	r3, [sp, #6]
 1442 0072 DFE7     		b	.L163
 1443              	.L175:
1205:Generated_Source\PSoC5/CyLib.c **** 
 1444              		.loc 1 1205 0
 1445 0074 1024     		movs	r4, #16
 1446              	.L166:
 1447              	.LVL79:
1228:Generated_Source\PSoC5/CyLib.c ****             {
1229:Generated_Source\PSoC5/CyLib.c ****                 status = CYRET_SUCCESS;
1230:Generated_Source\PSoC5/CyLib.c ****                 break;
1231:Generated_Source\PSoC5/CyLib.c ****             }
1232:Generated_Source\PSoC5/CyLib.c ****         }
1233:Generated_Source\PSoC5/CyLib.c **** 
1234:Generated_Source\PSoC5/CyLib.c **** 
1235:Generated_Source\PSoC5/CyLib.c ****         /* Restore 100 KHz ILO, FTW interval, enable and interrupt enable */
1236:Generated_Source\PSoC5/CyLib.c ****         if(0u == (iloEnableState & CY_LIB_SLOWCLK_ILO_CR0_EN_100KHZ))
 1448              		.loc 1 1236 0
 1449 0076 19F0040F 		tst	r9, #4
 1450 007a 01D1     		bne	.L168
1237:Generated_Source\PSoC5/CyLib.c ****         {
1238:Generated_Source\PSoC5/CyLib.c ****             CyILO_Stop100K();
 1451              		.loc 1 1238 0
 1452 007c FFF7FEFF 		bl	CyILO_Stop100K
 1453              	.LVL80:
 1454              	.L168:
1239:Generated_Source\PSoC5/CyLib.c ****         }
1240:Generated_Source\PSoC5/CyLib.c ****         CY_LIB_PM_TW_CFG0_REG = pmTwCfg0Tmp;
 1455              		.loc 1 1240 0
 1456 0080 074B     		ldr	r3, .L177+12
 1457 0082 83F80080 		strb	r8, [r3]
1241:Generated_Source\PSoC5/CyLib.c ****         CY_LIB_PM_TW_CFG2_REG = pmTwCfg2Tmp;
 1458              		.loc 1 1241 0
 1459 0086 3770     		strb	r7, [r6]
 1460 0088 00E0     		b	.L162
 1461              	.LVL81:
 1462              	.L169:
1184:Generated_Source\PSoC5/CyLib.c ****     volatile uint8  timeout = wait;
 1463              		.loc 1 1184 0
 1464 008a 0446     		mov	r4, r0
 1465              	.LVL82:
 1466              	.L162:
1242:Generated_Source\PSoC5/CyLib.c ****     }
1243:Generated_Source\PSoC5/CyLib.c **** 
1244:Generated_Source\PSoC5/CyLib.c ****     return(status);
1245:Generated_Source\PSoC5/CyLib.c **** }
 1467              		.loc 1 1245 0
 1468 008c 2046     		mov	r0, r4
 1469 008e 03B0     		add	sp, sp, #12
 1470              		.cfi_def_cfa_offset 28
 1471              		@ sp needed
 1472 0090 BDE8F083 		pop	{r4, r5, r6, r7, r8, r9, pc}
 1473              	.LVL83:
ARM GAS  C:\Users\yqh\AppData\Local\Temp\ccH6G3Im.s 			page 51


 1474              	.L178:
 1475              		.align	2
 1476              	.L177:
 1477 0094 10420040 		.word	1073758736
 1478 0098 00430040 		.word	1073758976
 1479 009c 82430040 		.word	1073759106
 1480 00a0 80430040 		.word	1073759104
 1481              		.cfi_endproc
 1482              	.LFE29:
 1483              		.size	CyXTAL_Start, .-CyXTAL_Start
 1484              		.section	.text.CyXTAL_Stop,"ax",%progbits
 1485              		.align	1
 1486              		.global	CyXTAL_Stop
 1487              		.thumb
 1488              		.thumb_func
 1489              		.type	CyXTAL_Stop, %function
 1490              	CyXTAL_Stop:
 1491              	.LFB30:
1246:Generated_Source\PSoC5/CyLib.c **** 
1247:Generated_Source\PSoC5/CyLib.c **** 
1248:Generated_Source\PSoC5/CyLib.c **** /*******************************************************************************
1249:Generated_Source\PSoC5/CyLib.c **** * Function Name: CyXTAL_Stop
1250:Generated_Source\PSoC5/CyLib.c **** ****************************************************************************//**
1251:Generated_Source\PSoC5/CyLib.c **** *
1252:Generated_Source\PSoC5/CyLib.c **** *  Disables the megahertz crystal oscillator.
1253:Generated_Source\PSoC5/CyLib.c **** *
1254:Generated_Source\PSoC5/CyLib.c **** *******************************************************************************/
1255:Generated_Source\PSoC5/CyLib.c **** void CyXTAL_Stop(void) 
1256:Generated_Source\PSoC5/CyLib.c **** {
 1492              		.loc 1 1256 0
 1493              		.cfi_startproc
 1494              		@ args = 0, pretend = 0, frame = 0
 1495              		@ frame_needed = 0, uses_anonymous_args = 0
 1496              		@ link register save eliminated.
1257:Generated_Source\PSoC5/CyLib.c ****     /* Disable oscillator. */
1258:Generated_Source\PSoC5/CyLib.c ****     FASTCLK_XMHZ_CSR &= ((uint8)(~XMHZ_CONTROL_ENABLE));
 1497              		.loc 1 1258 0
 1498 0000 024A     		ldr	r2, .L180
 1499 0002 1378     		ldrb	r3, [r2]	@ zero_extendqisi2
 1500 0004 03F0FE03 		and	r3, r3, #254
 1501 0008 1370     		strb	r3, [r2]
 1502 000a 7047     		bx	lr
 1503              	.L181:
 1504              		.align	2
 1505              	.L180:
 1506 000c 10420040 		.word	1073758736
 1507              		.cfi_endproc
 1508              	.LFE30:
 1509              		.size	CyXTAL_Stop, .-CyXTAL_Stop
 1510              		.section	.text.CyXTAL_EnableErrStatus,"ax",%progbits
 1511              		.align	1
 1512              		.global	CyXTAL_EnableErrStatus
 1513              		.thumb
 1514              		.thumb_func
 1515              		.type	CyXTAL_EnableErrStatus, %function
 1516              	CyXTAL_EnableErrStatus:
 1517              	.LFB31:
ARM GAS  C:\Users\yqh\AppData\Local\Temp\ccH6G3Im.s 			page 52


1259:Generated_Source\PSoC5/CyLib.c **** }
1260:Generated_Source\PSoC5/CyLib.c **** 
1261:Generated_Source\PSoC5/CyLib.c **** 
1262:Generated_Source\PSoC5/CyLib.c **** /*******************************************************************************
1263:Generated_Source\PSoC5/CyLib.c **** * Function Name: CyXTAL_EnableErrStatus
1264:Generated_Source\PSoC5/CyLib.c **** ****************************************************************************//**
1265:Generated_Source\PSoC5/CyLib.c **** *
1266:Generated_Source\PSoC5/CyLib.c **** *  Enables the generation of the XERR status bit for the megahertz crystal.
1267:Generated_Source\PSoC5/CyLib.c **** *  This function is not available for PSoC5.
1268:Generated_Source\PSoC5/CyLib.c **** *
1269:Generated_Source\PSoC5/CyLib.c **** *******************************************************************************/
1270:Generated_Source\PSoC5/CyLib.c **** void CyXTAL_EnableErrStatus(void) 
1271:Generated_Source\PSoC5/CyLib.c **** {
 1518              		.loc 1 1271 0
 1519              		.cfi_startproc
 1520              		@ args = 0, pretend = 0, frame = 0
 1521              		@ frame_needed = 0, uses_anonymous_args = 0
 1522              		@ link register save eliminated.
1272:Generated_Source\PSoC5/CyLib.c ****     /* If oscillator has insufficient amplitude, XERR bit will be high. */
1273:Generated_Source\PSoC5/CyLib.c ****     CY_CLK_XMHZ_CSR_REG &= ((uint8)(~CY_CLK_XMHZ_CSR_XFB));
 1523              		.loc 1 1273 0
 1524 0000 024A     		ldr	r2, .L183
 1525 0002 1378     		ldrb	r3, [r2]	@ zero_extendqisi2
 1526 0004 03F0FB03 		and	r3, r3, #251
 1527 0008 1370     		strb	r3, [r2]
 1528 000a 7047     		bx	lr
 1529              	.L184:
 1530              		.align	2
 1531              	.L183:
 1532 000c 10420040 		.word	1073758736
 1533              		.cfi_endproc
 1534              	.LFE31:
 1535              		.size	CyXTAL_EnableErrStatus, .-CyXTAL_EnableErrStatus
 1536              		.section	.text.CyXTAL_DisableErrStatus,"ax",%progbits
 1537              		.align	1
 1538              		.global	CyXTAL_DisableErrStatus
 1539              		.thumb
 1540              		.thumb_func
 1541              		.type	CyXTAL_DisableErrStatus, %function
 1542              	CyXTAL_DisableErrStatus:
 1543              	.LFB32:
1274:Generated_Source\PSoC5/CyLib.c **** }
1275:Generated_Source\PSoC5/CyLib.c **** 
1276:Generated_Source\PSoC5/CyLib.c **** 
1277:Generated_Source\PSoC5/CyLib.c **** /*******************************************************************************
1278:Generated_Source\PSoC5/CyLib.c **** * Function Name: CyXTAL_DisableErrStatus
1279:Generated_Source\PSoC5/CyLib.c **** ****************************************************************************//**
1280:Generated_Source\PSoC5/CyLib.c **** *
1281:Generated_Source\PSoC5/CyLib.c **** *  Disables the generation of the XERR status bit for the megahertz crystal.
1282:Generated_Source\PSoC5/CyLib.c **** *  This function is not available for PSoC5.
1283:Generated_Source\PSoC5/CyLib.c **** *
1284:Generated_Source\PSoC5/CyLib.c **** *******************************************************************************/
1285:Generated_Source\PSoC5/CyLib.c **** void CyXTAL_DisableErrStatus(void) 
1286:Generated_Source\PSoC5/CyLib.c **** {
 1544              		.loc 1 1286 0
 1545              		.cfi_startproc
 1546              		@ args = 0, pretend = 0, frame = 0
ARM GAS  C:\Users\yqh\AppData\Local\Temp\ccH6G3Im.s 			page 53


 1547              		@ frame_needed = 0, uses_anonymous_args = 0
 1548              		@ link register save eliminated.
1287:Generated_Source\PSoC5/CyLib.c ****     /* If oscillator has insufficient amplitude, XERR bit will be high. */
1288:Generated_Source\PSoC5/CyLib.c ****     CY_CLK_XMHZ_CSR_REG |= CY_CLK_XMHZ_CSR_XFB;
 1549              		.loc 1 1288 0
 1550 0000 024A     		ldr	r2, .L186
 1551 0002 1378     		ldrb	r3, [r2]	@ zero_extendqisi2
 1552 0004 43F00403 		orr	r3, r3, #4
 1553 0008 1370     		strb	r3, [r2]
 1554 000a 7047     		bx	lr
 1555              	.L187:
 1556              		.align	2
 1557              	.L186:
 1558 000c 10420040 		.word	1073758736
 1559              		.cfi_endproc
 1560              	.LFE32:
 1561              		.size	CyXTAL_DisableErrStatus, .-CyXTAL_DisableErrStatus
 1562              		.section	.text.CyXTAL_ReadStatus,"ax",%progbits
 1563              		.align	1
 1564              		.global	CyXTAL_ReadStatus
 1565              		.thumb
 1566              		.thumb_func
 1567              		.type	CyXTAL_ReadStatus, %function
 1568              	CyXTAL_ReadStatus:
 1569              	.LFB33:
1289:Generated_Source\PSoC5/CyLib.c **** }
1290:Generated_Source\PSoC5/CyLib.c **** 
1291:Generated_Source\PSoC5/CyLib.c **** 
1292:Generated_Source\PSoC5/CyLib.c **** /*******************************************************************************
1293:Generated_Source\PSoC5/CyLib.c **** * Function Name: CyXTAL_ReadStatus
1294:Generated_Source\PSoC5/CyLib.c **** ****************************************************************************//**
1295:Generated_Source\PSoC5/CyLib.c **** *
1296:Generated_Source\PSoC5/CyLib.c **** *  Reads the XERR status bit for the megahertz crystal. This status bit is a
1297:Generated_Source\PSoC5/CyLib.c **** *  sticky, clear on read. This function is not available for PSoC5.
1298:Generated_Source\PSoC5/CyLib.c **** *
1299:Generated_Source\PSoC5/CyLib.c **** * \return
1300:Generated_Source\PSoC5/CyLib.c **** *   Status
1301:Generated_Source\PSoC5/CyLib.c **** *    0: No error
1302:Generated_Source\PSoC5/CyLib.c **** *    1: Error
1303:Generated_Source\PSoC5/CyLib.c **** *
1304:Generated_Source\PSoC5/CyLib.c **** *******************************************************************************/
1305:Generated_Source\PSoC5/CyLib.c **** uint8 CyXTAL_ReadStatus(void) 
1306:Generated_Source\PSoC5/CyLib.c **** {
 1570              		.loc 1 1306 0
 1571              		.cfi_startproc
 1572              		@ args = 0, pretend = 0, frame = 0
 1573              		@ frame_needed = 0, uses_anonymous_args = 0
 1574              		@ link register save eliminated.
1307:Generated_Source\PSoC5/CyLib.c ****     /***************************************************************************
1308:Generated_Source\PSoC5/CyLib.c ****     * High output indicates an oscillator failure. Only use this after a start-up
1309:Generated_Source\PSoC5/CyLib.c ****     * interval is completed. This can be used for the status and failure recovery.
1310:Generated_Source\PSoC5/CyLib.c ****     ***************************************************************************/
1311:Generated_Source\PSoC5/CyLib.c ****     return((0u != (CY_CLK_XMHZ_CSR_REG & CY_CLK_XMHZ_CSR_XERR)) ? 1u : 0u);
 1575              		.loc 1 1311 0
 1576 0000 014B     		ldr	r3, .L189
 1577 0002 1878     		ldrb	r0, [r3]	@ zero_extendqisi2
1312:Generated_Source\PSoC5/CyLib.c **** }
ARM GAS  C:\Users\yqh\AppData\Local\Temp\ccH6G3Im.s 			page 54


 1578              		.loc 1 1312 0
 1579 0004 C009     		lsrs	r0, r0, #7
 1580 0006 7047     		bx	lr
 1581              	.L190:
 1582              		.align	2
 1583              	.L189:
 1584 0008 10420040 		.word	1073758736
 1585              		.cfi_endproc
 1586              	.LFE33:
 1587              		.size	CyXTAL_ReadStatus, .-CyXTAL_ReadStatus
 1588              		.section	.text.CyXTAL_EnableFaultRecovery,"ax",%progbits
 1589              		.align	1
 1590              		.global	CyXTAL_EnableFaultRecovery
 1591              		.thumb
 1592              		.thumb_func
 1593              		.type	CyXTAL_EnableFaultRecovery, %function
 1594              	CyXTAL_EnableFaultRecovery:
 1595              	.LFB34:
1313:Generated_Source\PSoC5/CyLib.c **** 
1314:Generated_Source\PSoC5/CyLib.c **** 
1315:Generated_Source\PSoC5/CyLib.c **** /*******************************************************************************
1316:Generated_Source\PSoC5/CyLib.c **** * Function Name: CyXTAL_EnableFaultRecovery
1317:Generated_Source\PSoC5/CyLib.c **** ****************************************************************************//**
1318:Generated_Source\PSoC5/CyLib.c **** *
1319:Generated_Source\PSoC5/CyLib.c **** *  Enables the fault recovery circuit which will switch to the IMO in the case
1320:Generated_Source\PSoC5/CyLib.c **** *  of a fault in the megahertz crystal circuit. The crystal must be up and
1321:Generated_Source\PSoC5/CyLib.c **** *  running with the XERR bit at 0, before calling this function to prevent
1322:Generated_Source\PSoC5/CyLib.c **** *  an immediate fault switchover. This function is not available for PSoC5.
1323:Generated_Source\PSoC5/CyLib.c **** *
1324:Generated_Source\PSoC5/CyLib.c **** *******************************************************************************/
1325:Generated_Source\PSoC5/CyLib.c **** void CyXTAL_EnableFaultRecovery(void) 
1326:Generated_Source\PSoC5/CyLib.c **** {
 1596              		.loc 1 1326 0
 1597              		.cfi_startproc
 1598              		@ args = 0, pretend = 0, frame = 0
 1599              		@ frame_needed = 0, uses_anonymous_args = 0
 1600              		@ link register save eliminated.
1327:Generated_Source\PSoC5/CyLib.c ****     CY_CLK_XMHZ_CSR_REG |= CY_CLK_XMHZ_CSR_XPROT;
 1601              		.loc 1 1327 0
 1602 0000 024A     		ldr	r2, .L192
 1603 0002 1378     		ldrb	r3, [r2]	@ zero_extendqisi2
 1604 0004 43F04003 		orr	r3, r3, #64
 1605 0008 1370     		strb	r3, [r2]
 1606 000a 7047     		bx	lr
 1607              	.L193:
 1608              		.align	2
 1609              	.L192:
 1610 000c 10420040 		.word	1073758736
 1611              		.cfi_endproc
 1612              	.LFE34:
 1613              		.size	CyXTAL_EnableFaultRecovery, .-CyXTAL_EnableFaultRecovery
 1614              		.section	.text.CyXTAL_DisableFaultRecovery,"ax",%progbits
 1615              		.align	1
 1616              		.global	CyXTAL_DisableFaultRecovery
 1617              		.thumb
 1618              		.thumb_func
 1619              		.type	CyXTAL_DisableFaultRecovery, %function
ARM GAS  C:\Users\yqh\AppData\Local\Temp\ccH6G3Im.s 			page 55


 1620              	CyXTAL_DisableFaultRecovery:
 1621              	.LFB35:
1328:Generated_Source\PSoC5/CyLib.c **** }
1329:Generated_Source\PSoC5/CyLib.c **** 
1330:Generated_Source\PSoC5/CyLib.c **** 
1331:Generated_Source\PSoC5/CyLib.c **** /*******************************************************************************
1332:Generated_Source\PSoC5/CyLib.c **** * Function Name: CyXTAL_DisableFaultRecovery
1333:Generated_Source\PSoC5/CyLib.c **** ****************************************************************************//**
1334:Generated_Source\PSoC5/CyLib.c **** *
1335:Generated_Source\PSoC5/CyLib.c **** *  Disables the fault recovery circuit which will switch to the IMO in the case
1336:Generated_Source\PSoC5/CyLib.c **** *  of a fault in the megahertz crystal circuit. This function is not available
1337:Generated_Source\PSoC5/CyLib.c **** *  for PSoC5.
1338:Generated_Source\PSoC5/CyLib.c **** *
1339:Generated_Source\PSoC5/CyLib.c **** *******************************************************************************/
1340:Generated_Source\PSoC5/CyLib.c **** void CyXTAL_DisableFaultRecovery(void) 
1341:Generated_Source\PSoC5/CyLib.c **** {
 1622              		.loc 1 1341 0
 1623              		.cfi_startproc
 1624              		@ args = 0, pretend = 0, frame = 0
 1625              		@ frame_needed = 0, uses_anonymous_args = 0
 1626              		@ link register save eliminated.
1342:Generated_Source\PSoC5/CyLib.c ****     CY_CLK_XMHZ_CSR_REG &= ((uint8)(~CY_CLK_XMHZ_CSR_XPROT));
 1627              		.loc 1 1342 0
 1628 0000 024A     		ldr	r2, .L195
 1629 0002 1378     		ldrb	r3, [r2]	@ zero_extendqisi2
 1630 0004 03F0BF03 		and	r3, r3, #191
 1631 0008 1370     		strb	r3, [r2]
 1632 000a 7047     		bx	lr
 1633              	.L196:
 1634              		.align	2
 1635              	.L195:
 1636 000c 10420040 		.word	1073758736
 1637              		.cfi_endproc
 1638              	.LFE35:
 1639              		.size	CyXTAL_DisableFaultRecovery, .-CyXTAL_DisableFaultRecovery
 1640              		.section	.text.CyXTAL_SetStartup,"ax",%progbits
 1641              		.align	1
 1642              		.global	CyXTAL_SetStartup
 1643              		.thumb
 1644              		.thumb_func
 1645              		.type	CyXTAL_SetStartup, %function
 1646              	CyXTAL_SetStartup:
 1647              	.LFB36:
1343:Generated_Source\PSoC5/CyLib.c **** }
1344:Generated_Source\PSoC5/CyLib.c **** 
1345:Generated_Source\PSoC5/CyLib.c **** 
1346:Generated_Source\PSoC5/CyLib.c **** /*******************************************************************************
1347:Generated_Source\PSoC5/CyLib.c **** * Function Name: CyXTAL_SetStartup
1348:Generated_Source\PSoC5/CyLib.c **** ****************************************************************************//**
1349:Generated_Source\PSoC5/CyLib.c **** *
1350:Generated_Source\PSoC5/CyLib.c **** *  Sets the startup settings for the crystal. The logic model outputs a
1351:Generated_Source\PSoC5/CyLib.c **** *  frequency (setting + 4) MHz when enabled.
1352:Generated_Source\PSoC5/CyLib.c **** *
1353:Generated_Source\PSoC5/CyLib.c **** *  This is artificial as the actual frequency is determined by an attached
1354:Generated_Source\PSoC5/CyLib.c **** *  external crystal.
1355:Generated_Source\PSoC5/CyLib.c **** *
1356:Generated_Source\PSoC5/CyLib.c **** *  \param setting: Valid range [0-31].
ARM GAS  C:\Users\yqh\AppData\Local\Temp\ccH6G3Im.s 			page 56


1357:Generated_Source\PSoC5/CyLib.c **** *   The value is dependent on the frequency and quality of the crystal being
1358:Generated_Source\PSoC5/CyLib.c **** *   used. Refer to the device TRM and datasheet for more information.
1359:Generated_Source\PSoC5/CyLib.c **** *
1360:Generated_Source\PSoC5/CyLib.c **** *******************************************************************************/
1361:Generated_Source\PSoC5/CyLib.c **** void CyXTAL_SetStartup(uint8 setting) 
1362:Generated_Source\PSoC5/CyLib.c **** {
 1648              		.loc 1 1362 0
 1649              		.cfi_startproc
 1650              		@ args = 0, pretend = 0, frame = 0
 1651              		@ frame_needed = 0, uses_anonymous_args = 0
 1652              		@ link register save eliminated.
 1653              	.LVL84:
1363:Generated_Source\PSoC5/CyLib.c ****     CY_CLK_XMHZ_CFG0_REG = (CY_CLK_XMHZ_CFG0_REG & ((uint8)(~CY_CLK_XMHZ_CFG0_XCFG_MASK))) |
 1654              		.loc 1 1363 0
 1655 0000 044A     		ldr	r2, .L198
 1656 0002 00F01F00 		and	r0, r0, #31
 1657              	.LVL85:
 1658 0006 1378     		ldrb	r3, [r2]	@ zero_extendqisi2
 1659 0008 03F0E003 		and	r3, r3, #224
 1660 000c 0343     		orrs	r3, r3, r0
 1661 000e 1370     		strb	r3, [r2]
 1662 0010 7047     		bx	lr
 1663              	.L199:
 1664 0012 00BF     		.align	2
 1665              	.L198:
 1666 0014 12420040 		.word	1073758738
 1667              		.cfi_endproc
 1668              	.LFE36:
 1669              		.size	CyXTAL_SetStartup, .-CyXTAL_SetStartup
 1670              		.section	.text.CyXTAL_SetFbVoltage,"ax",%progbits
 1671              		.align	1
 1672              		.global	CyXTAL_SetFbVoltage
 1673              		.thumb
 1674              		.thumb_func
 1675              		.type	CyXTAL_SetFbVoltage, %function
 1676              	CyXTAL_SetFbVoltage:
 1677              	.LFB37:
1364:Generated_Source\PSoC5/CyLib.c ****                            (setting & CY_CLK_XMHZ_CFG0_XCFG_MASK);
1365:Generated_Source\PSoC5/CyLib.c **** }
1366:Generated_Source\PSoC5/CyLib.c **** 
1367:Generated_Source\PSoC5/CyLib.c **** 
1368:Generated_Source\PSoC5/CyLib.c **** 
1369:Generated_Source\PSoC5/CyLib.c **** /*******************************************************************************
1370:Generated_Source\PSoC5/CyLib.c **** * Function Name: CyXTAL_SetFbVoltage
1371:Generated_Source\PSoC5/CyLib.c **** ****************************************************************************//**
1372:Generated_Source\PSoC5/CyLib.c **** *
1373:Generated_Source\PSoC5/CyLib.c **** *  Sets the feedback reference voltage to use for the crystal circuit.
1374:Generated_Source\PSoC5/CyLib.c **** *  This function is only available for PSoC3 and PSoC 5LP.
1375:Generated_Source\PSoC5/CyLib.c **** *
1376:Generated_Source\PSoC5/CyLib.c **** *  \param setting: Valid range [0-15].
1377:Generated_Source\PSoC5/CyLib.c **** *  Refer to the device TRM and datasheet for more information.
1378:Generated_Source\PSoC5/CyLib.c **** *
1379:Generated_Source\PSoC5/CyLib.c **** *******************************************************************************/
1380:Generated_Source\PSoC5/CyLib.c **** void CyXTAL_SetFbVoltage(uint8 setting) 
1381:Generated_Source\PSoC5/CyLib.c **** {
 1678              		.loc 1 1381 0
 1679              		.cfi_startproc
ARM GAS  C:\Users\yqh\AppData\Local\Temp\ccH6G3Im.s 			page 57


 1680              		@ args = 0, pretend = 0, frame = 0
 1681              		@ frame_needed = 0, uses_anonymous_args = 0
 1682              		@ link register save eliminated.
 1683              	.LVL86:
1382:Generated_Source\PSoC5/CyLib.c ****     CY_CLK_XMHZ_CFG1_REG = ((CY_CLK_XMHZ_CFG1_REG & ((uint8)(~CY_CLK_XMHZ_CFG1_VREF_FB_MASK))) |
 1684              		.loc 1 1382 0
 1685 0000 044A     		ldr	r2, .L201
 1686 0002 00F00F00 		and	r0, r0, #15
 1687              	.LVL87:
 1688 0006 1378     		ldrb	r3, [r2]	@ zero_extendqisi2
 1689 0008 03F0F003 		and	r3, r3, #240
 1690 000c 0343     		orrs	r3, r3, r0
 1691 000e 1370     		strb	r3, [r2]
 1692 0010 7047     		bx	lr
 1693              	.L202:
 1694 0012 00BF     		.align	2
 1695              	.L201:
 1696 0014 13420040 		.word	1073758739
 1697              		.cfi_endproc
 1698              	.LFE37:
 1699              		.size	CyXTAL_SetFbVoltage, .-CyXTAL_SetFbVoltage
 1700              		.section	.text.CyXTAL_SetWdVoltage,"ax",%progbits
 1701              		.align	1
 1702              		.global	CyXTAL_SetWdVoltage
 1703              		.thumb
 1704              		.thumb_func
 1705              		.type	CyXTAL_SetWdVoltage, %function
 1706              	CyXTAL_SetWdVoltage:
 1707              	.LFB38:
1383:Generated_Source\PSoC5/CyLib.c ****                             (setting & CY_CLK_XMHZ_CFG1_VREF_FB_MASK));
1384:Generated_Source\PSoC5/CyLib.c **** }
1385:Generated_Source\PSoC5/CyLib.c **** 
1386:Generated_Source\PSoC5/CyLib.c **** 
1387:Generated_Source\PSoC5/CyLib.c **** /*******************************************************************************
1388:Generated_Source\PSoC5/CyLib.c **** * Function Name: CyXTAL_SetWdVoltage
1389:Generated_Source\PSoC5/CyLib.c **** ****************************************************************************//**
1390:Generated_Source\PSoC5/CyLib.c **** *
1391:Generated_Source\PSoC5/CyLib.c **** *  Sets the reference voltage used by the watchdog to detect a failure in the
1392:Generated_Source\PSoC5/CyLib.c **** *  crystal circuit. This function is only available for PSoC3 and PSoC 5LP.
1393:Generated_Source\PSoC5/CyLib.c **** *
1394:Generated_Source\PSoC5/CyLib.c **** *  \param setting: Valid range [0-7].
1395:Generated_Source\PSoC5/CyLib.c **** *  Refer to the device TRM and datasheet for more information.
1396:Generated_Source\PSoC5/CyLib.c **** *
1397:Generated_Source\PSoC5/CyLib.c **** *******************************************************************************/
1398:Generated_Source\PSoC5/CyLib.c **** void CyXTAL_SetWdVoltage(uint8 setting) 
1399:Generated_Source\PSoC5/CyLib.c **** {
 1708              		.loc 1 1399 0
 1709              		.cfi_startproc
 1710              		@ args = 0, pretend = 0, frame = 0
 1711              		@ frame_needed = 0, uses_anonymous_args = 0
 1712              		@ link register save eliminated.
 1713              	.LVL88:
1400:Generated_Source\PSoC5/CyLib.c ****     CY_CLK_XMHZ_CFG1_REG = ((CY_CLK_XMHZ_CFG1_REG & ((uint8)(~CY_CLK_XMHZ_CFG1_VREF_WD_MASK))) |
 1714              		.loc 1 1400 0
 1715 0000 044A     		ldr	r2, .L204
1401:Generated_Source\PSoC5/CyLib.c ****                             (((uint8)(setting << 4u)) & CY_CLK_XMHZ_CFG1_VREF_WD_MASK));
 1716              		.loc 1 1401 0
ARM GAS  C:\Users\yqh\AppData\Local\Temp\ccH6G3Im.s 			page 58


 1717 0002 0001     		lsls	r0, r0, #4
 1718              	.LVL89:
1400:Generated_Source\PSoC5/CyLib.c ****     CY_CLK_XMHZ_CFG1_REG = ((CY_CLK_XMHZ_CFG1_REG & ((uint8)(~CY_CLK_XMHZ_CFG1_VREF_WD_MASK))) |
 1719              		.loc 1 1400 0
 1720 0004 1378     		ldrb	r3, [r2]	@ zero_extendqisi2
 1721 0006 00F07000 		and	r0, r0, #112
 1722 000a 03F08F03 		and	r3, r3, #143
 1723 000e 0343     		orrs	r3, r3, r0
 1724 0010 1370     		strb	r3, [r2]
 1725 0012 7047     		bx	lr
 1726              	.L205:
 1727              		.align	2
 1728              	.L204:
 1729 0014 13420040 		.word	1073758739
 1730              		.cfi_endproc
 1731              	.LFE38:
 1732              		.size	CyXTAL_SetWdVoltage, .-CyXTAL_SetWdVoltage
 1733              		.section	.text.CyHalt,"ax",%progbits
 1734              		.align	1
 1735              		.global	CyHalt
 1736              		.thumb
 1737              		.thumb_func
 1738              		.type	CyHalt, %function
 1739              	CyHalt:
 1740              	.LFB39:
1402:Generated_Source\PSoC5/CyLib.c **** }
1403:Generated_Source\PSoC5/CyLib.c **** 
1404:Generated_Source\PSoC5/CyLib.c **** 
1405:Generated_Source\PSoC5/CyLib.c **** /*******************************************************************************
1406:Generated_Source\PSoC5/CyLib.c **** * Function Name: CyHalt
1407:Generated_Source\PSoC5/CyLib.c **** ****************************************************************************//**
1408:Generated_Source\PSoC5/CyLib.c **** *
1409:Generated_Source\PSoC5/CyLib.c **** *  Halts the CPU.
1410:Generated_Source\PSoC5/CyLib.c **** *
1411:Generated_Source\PSoC5/CyLib.c **** *  \param uint8 reason: Value to be used during debugging.
1412:Generated_Source\PSoC5/CyLib.c **** *
1413:Generated_Source\PSoC5/CyLib.c **** *******************************************************************************/
1414:Generated_Source\PSoC5/CyLib.c **** void CyHalt(uint8 reason) CYREENTRANT
1415:Generated_Source\PSoC5/CyLib.c **** {
 1741              		.loc 1 1415 0
 1742              		.cfi_startproc
 1743              		@ args = 0, pretend = 0, frame = 0
 1744              		@ frame_needed = 0, uses_anonymous_args = 0
 1745              		@ link register save eliminated.
 1746              	.LVL90:
1416:Generated_Source\PSoC5/CyLib.c ****     if(0u != reason)
1417:Generated_Source\PSoC5/CyLib.c ****     {
1418:Generated_Source\PSoC5/CyLib.c ****         /* To remove unreferenced local variable warning */
1419:Generated_Source\PSoC5/CyLib.c ****     }
1420:Generated_Source\PSoC5/CyLib.c **** 
1421:Generated_Source\PSoC5/CyLib.c ****     #if defined (__ARMCC_VERSION)
1422:Generated_Source\PSoC5/CyLib.c ****         __breakpoint(0x0);
1423:Generated_Source\PSoC5/CyLib.c ****     #elif defined(__GNUC__) || defined (__ICCARM__)
1424:Generated_Source\PSoC5/CyLib.c ****         __asm("    bkpt    1");
 1747              		.loc 1 1424 0
 1748              	@ 1424 "Generated_Source\PSoC5\CyLib.c" 1
 1749 0000 01BE     		    bkpt    1
ARM GAS  C:\Users\yqh\AppData\Local\Temp\ccH6G3Im.s 			page 59


 1750              	@ 0 "" 2
 1751              		.thumb
 1752 0002 7047     		bx	lr
 1753              		.cfi_endproc
 1754              	.LFE39:
 1755              		.size	CyHalt, .-CyHalt
 1756              		.section	.text.CySoftwareReset,"ax",%progbits
 1757              		.align	1
 1758              		.global	CySoftwareReset
 1759              		.thumb
 1760              		.thumb_func
 1761              		.type	CySoftwareReset, %function
 1762              	CySoftwareReset:
 1763              	.LFB40:
1425:Generated_Source\PSoC5/CyLib.c ****     #elif defined(__C51__)
1426:Generated_Source\PSoC5/CyLib.c ****         CYDEV_HALT_CPU;
1427:Generated_Source\PSoC5/CyLib.c ****     #endif  /* (__ARMCC_VERSION) */
1428:Generated_Source\PSoC5/CyLib.c **** }
1429:Generated_Source\PSoC5/CyLib.c **** 
1430:Generated_Source\PSoC5/CyLib.c **** 
1431:Generated_Source\PSoC5/CyLib.c **** /*******************************************************************************
1432:Generated_Source\PSoC5/CyLib.c **** * Function Name: CySoftwareReset
1433:Generated_Source\PSoC5/CyLib.c **** ****************************************************************************//**
1434:Generated_Source\PSoC5/CyLib.c **** *
1435:Generated_Source\PSoC5/CyLib.c **** *  Forces a device software reset.
1436:Generated_Source\PSoC5/CyLib.c **** *
1437:Generated_Source\PSoC5/CyLib.c **** *******************************************************************************/
1438:Generated_Source\PSoC5/CyLib.c **** void CySoftwareReset(void) 
1439:Generated_Source\PSoC5/CyLib.c **** {
 1764              		.loc 1 1439 0
 1765              		.cfi_startproc
 1766              		@ args = 0, pretend = 0, frame = 0
 1767              		@ frame_needed = 0, uses_anonymous_args = 0
 1768              		@ link register save eliminated.
1440:Generated_Source\PSoC5/CyLib.c ****     CY_LIB_RESET_CR2_REG |= CY_LIB_RESET_CR2_RESET;
 1769              		.loc 1 1440 0
 1770 0000 024A     		ldr	r2, .L208
 1771 0002 1378     		ldrb	r3, [r2]	@ zero_extendqisi2
 1772 0004 43F00103 		orr	r3, r3, #1
 1773 0008 1370     		strb	r3, [r2]
 1774 000a 7047     		bx	lr
 1775              	.L209:
 1776              		.align	2
 1777              	.L208:
 1778 000c F6460040 		.word	1073759990
 1779              		.cfi_endproc
 1780              	.LFE40:
 1781              		.size	CySoftwareReset, .-CySoftwareReset
 1782              		.section	.text.CyDelay,"ax",%progbits
 1783              		.align	1
 1784              		.global	CyDelay
 1785              		.thumb
 1786              		.thumb_func
 1787              		.type	CyDelay, %function
 1788              	CyDelay:
 1789              	.LFB41:
1441:Generated_Source\PSoC5/CyLib.c **** }
ARM GAS  C:\Users\yqh\AppData\Local\Temp\ccH6G3Im.s 			page 60


1442:Generated_Source\PSoC5/CyLib.c **** 
1443:Generated_Source\PSoC5/CyLib.c **** 
1444:Generated_Source\PSoC5/CyLib.c **** /*******************************************************************************
1445:Generated_Source\PSoC5/CyLib.c **** * Function Name: CyDelay
1446:Generated_Source\PSoC5/CyLib.c **** ****************************************************************************//**
1447:Generated_Source\PSoC5/CyLib.c **** *
1448:Generated_Source\PSoC5/CyLib.c **** *  Blocks for milliseconds.
1449:Generated_Source\PSoC5/CyLib.c **** *
1450:Generated_Source\PSoC5/CyLib.c **** *  Note:
1451:Generated_Source\PSoC5/CyLib.c **** *  CyDelay has been implemented with the instruction cache assumed enabled. When
1452:Generated_Source\PSoC5/CyLib.c **** *  the instruction cache is disabled on PSoC5, CyDelay will be two times larger.
1453:Generated_Source\PSoC5/CyLib.c **** *  For example, with instruction cache disabled CyDelay(100) would result in
1454:Generated_Source\PSoC5/CyLib.c **** *  about 200 ms delay instead of 100 ms.
1455:Generated_Source\PSoC5/CyLib.c **** *
1456:Generated_Source\PSoC5/CyLib.c **** *  \param milliseconds: number of milliseconds to delay.
1457:Generated_Source\PSoC5/CyLib.c **** *
1458:Generated_Source\PSoC5/CyLib.c **** *******************************************************************************/
1459:Generated_Source\PSoC5/CyLib.c **** void CyDelay(uint32 milliseconds) CYREENTRANT
1460:Generated_Source\PSoC5/CyLib.c **** {
 1790              		.loc 1 1460 0
 1791              		.cfi_startproc
 1792              		@ args = 0, pretend = 0, frame = 0
 1793              		@ frame_needed = 0, uses_anonymous_args = 0
 1794              	.LVL91:
 1795 0000 10B5     		push	{r4, lr}
 1796              		.cfi_def_cfa_offset 8
 1797              		.cfi_offset 4, -8
 1798              		.cfi_offset 14, -4
 1799 0002 0446     		mov	r4, r0
 1800              	.LVL92:
 1801              	.L211:
1461:Generated_Source\PSoC5/CyLib.c ****     while (milliseconds > 32768u)
 1802              		.loc 1 1461 0
 1803 0004 B4F5004F 		cmp	r4, #32768
 1804 0008 064B     		ldr	r3, .L214
 1805 000a 05D9     		bls	.L213
1462:Generated_Source\PSoC5/CyLib.c ****     {
1463:Generated_Source\PSoC5/CyLib.c ****         /***********************************************************************
1464:Generated_Source\PSoC5/CyLib.c ****         * This loop prevents overflow.At 100MHz, milliseconds * delay_freq_khz
1465:Generated_Source\PSoC5/CyLib.c ****         * overflows at about 42 seconds.
1466:Generated_Source\PSoC5/CyLib.c ****         ***********************************************************************/
1467:Generated_Source\PSoC5/CyLib.c ****         CyDelayCycles(cydelay_32k_ms);
 1806              		.loc 1 1467 0
 1807 000c 1868     		ldr	r0, [r3]
 1808 000e FFF7FEFF 		bl	CyDelayCycles
 1809              	.LVL93:
1468:Generated_Source\PSoC5/CyLib.c ****         milliseconds = ((uint32)(milliseconds - 32768u));
 1810              		.loc 1 1468 0
 1811 0012 A4F50044 		sub	r4, r4, #32768
 1812              	.LVL94:
 1813 0016 F5E7     		b	.L211
 1814              	.L213:
1469:Generated_Source\PSoC5/CyLib.c ****     }
1470:Generated_Source\PSoC5/CyLib.c **** 
1471:Generated_Source\PSoC5/CyLib.c ****     CyDelayCycles(milliseconds * cydelay_freq_khz);
 1815              		.loc 1 1471 0
 1816 0018 5868     		ldr	r0, [r3, #4]
ARM GAS  C:\Users\yqh\AppData\Local\Temp\ccH6G3Im.s 			page 61


 1817 001a 6043     		muls	r0, r4, r0
1472:Generated_Source\PSoC5/CyLib.c **** }
 1818              		.loc 1 1472 0
 1819 001c BDE81040 		pop	{r4, lr}
 1820              		.cfi_restore 14
 1821              		.cfi_restore 4
 1822              		.cfi_def_cfa_offset 0
 1823              	.LVL95:
1471:Generated_Source\PSoC5/CyLib.c **** }
 1824              		.loc 1 1471 0
 1825 0020 FFF7FEBF 		b	CyDelayCycles
 1826              	.LVL96:
 1827              	.L215:
 1828              		.align	2
 1829              	.L214:
 1830 0024 00000000 		.word	.LANCHOR0
 1831              		.cfi_endproc
 1832              	.LFE41:
 1833              		.size	CyDelay, .-CyDelay
 1834              		.section	.text.CyDelayUs,"ax",%progbits
 1835              		.align	1
 1836              		.global	CyDelayUs
 1837              		.thumb
 1838              		.thumb_func
 1839              		.type	CyDelayUs, %function
 1840              	CyDelayUs:
 1841              	.LFB42:
1473:Generated_Source\PSoC5/CyLib.c **** 
1474:Generated_Source\PSoC5/CyLib.c **** 
1475:Generated_Source\PSoC5/CyLib.c **** #if(!CY_PSOC3)
1476:Generated_Source\PSoC5/CyLib.c **** 
1477:Generated_Source\PSoC5/CyLib.c ****     /* For PSoC3 devices function is defined in CyBootAsmKeil.a51 file */
1478:Generated_Source\PSoC5/CyLib.c **** 
1479:Generated_Source\PSoC5/CyLib.c ****     /*******************************************************************************
1480:Generated_Source\PSoC5/CyLib.c ****     * Function Name: CyDelayUs
1481:Generated_Source\PSoC5/CyLib.c ****     ****************************************************************************//**
1482:Generated_Source\PSoC5/CyLib.c ****     *
1483:Generated_Source\PSoC5/CyLib.c ****     *  Blocks for microseconds.
1484:Generated_Source\PSoC5/CyLib.c ****     *
1485:Generated_Source\PSoC5/CyLib.c ****     *  Note:
1486:Generated_Source\PSoC5/CyLib.c ****     *   CyDelay has been implemented with the instruction cache assumed enabled.
1487:Generated_Source\PSoC5/CyLib.c ****     *   When instruction cache is disabled on PSoC5, CyDelayUs will be two times
1488:Generated_Source\PSoC5/CyLib.c ****     *   larger. Ex: With instruction cache disabled CyDelayUs(100) would result
1489:Generated_Source\PSoC5/CyLib.c ****     *   in about 200us delay instead of 100us.
1490:Generated_Source\PSoC5/CyLib.c ****     *
1491:Generated_Source\PSoC5/CyLib.c ****     *  \param uint16 microseconds: number of microseconds to delay.
1492:Generated_Source\PSoC5/CyLib.c ****     *
1493:Generated_Source\PSoC5/CyLib.c ****     * \sideeffect
1494:Generated_Source\PSoC5/CyLib.c ****     *  CyDelayUS has been implemented with the instruction cache assumed enabled.
1495:Generated_Source\PSoC5/CyLib.c ****     *  When the instruction cache is disabled on PSoC 5, CyDelayUs will be two times
1496:Generated_Source\PSoC5/CyLib.c ****     *  larger. For example, with the instruction cache disabled CyDelayUs(100) would
1497:Generated_Source\PSoC5/CyLib.c ****     *  result in about 200 us delay instead of 100 us.
1498:Generated_Source\PSoC5/CyLib.c ****     *
1499:Generated_Source\PSoC5/CyLib.c ****     *  If the bus clock frequency is a small non-integer number, the actual delay
1500:Generated_Source\PSoC5/CyLib.c ****     *  can be up to twice as long as the nominal value. The actual delay cannot be
1501:Generated_Source\PSoC5/CyLib.c ****     *  shorter than the nominal one.
1502:Generated_Source\PSoC5/CyLib.c ****     *******************************************************************************/
ARM GAS  C:\Users\yqh\AppData\Local\Temp\ccH6G3Im.s 			page 62


1503:Generated_Source\PSoC5/CyLib.c ****     void CyDelayUs(uint16 microseconds) CYREENTRANT
1504:Generated_Source\PSoC5/CyLib.c ****     {
 1842              		.loc 1 1504 0
 1843              		.cfi_startproc
 1844              		@ args = 0, pretend = 0, frame = 0
 1845              		@ frame_needed = 0, uses_anonymous_args = 0
 1846              		@ link register save eliminated.
 1847              	.LVL97:
1505:Generated_Source\PSoC5/CyLib.c ****         CyDelayCycles((uint32)microseconds * cydelay_freq_mhz);
 1848              		.loc 1 1505 0
 1849 0000 024B     		ldr	r3, .L217
 1850 0002 1B7A     		ldrb	r3, [r3, #8]	@ zero_extendqisi2
 1851 0004 5843     		muls	r0, r3, r0
 1852              	.LVL98:
 1853 0006 FFF7FEBF 		b	CyDelayCycles
 1854              	.LVL99:
 1855              	.L218:
 1856 000a 00BF     		.align	2
 1857              	.L217:
 1858 000c 00000000 		.word	.LANCHOR0
 1859              		.cfi_endproc
 1860              	.LFE42:
 1861              		.size	CyDelayUs, .-CyDelayUs
 1862              		.section	.text.CyXTAL_32KHZ_SetPowerMode,"ax",%progbits
 1863              		.align	1
 1864              		.global	CyXTAL_32KHZ_SetPowerMode
 1865              		.thumb
 1866              		.thumb_func
 1867              		.type	CyXTAL_32KHZ_SetPowerMode, %function
 1868              	CyXTAL_32KHZ_SetPowerMode:
 1869              	.LFB28:
1119:Generated_Source\PSoC5/CyLib.c ****     uint8 state = (0u != (CY_CLK_XTAL32_CR_REG & CY_CLK_XTAL32_CR_LPM)) ? 1u : 0u;
 1870              		.loc 1 1119 0
 1871              		.cfi_startproc
 1872              		@ args = 0, pretend = 0, frame = 0
 1873              		@ frame_needed = 0, uses_anonymous_args = 0
 1874              	.LVL100:
 1875 0000 70B5     		push	{r4, r5, r6, lr}
 1876              		.cfi_def_cfa_offset 16
 1877              		.cfi_offset 4, -16
 1878              		.cfi_offset 5, -12
 1879              		.cfi_offset 6, -8
 1880              		.cfi_offset 14, -4
1120:Generated_Source\PSoC5/CyLib.c **** 
 1881              		.loc 1 1120 0
 1882 0002 174C     		ldr	r4, .L223
1122:Generated_Source\PSoC5/CyLib.c **** 
 1883              		.loc 1 1122 0
 1884 0004 174B     		ldr	r3, .L223+4
1120:Generated_Source\PSoC5/CyLib.c **** 
 1885              		.loc 1 1120 0
 1886 0006 2578     		ldrb	r5, [r4]	@ zero_extendqisi2
1122:Generated_Source\PSoC5/CyLib.c **** 
 1887              		.loc 1 1122 0
 1888 0008 F322     		movs	r2, #243
1124:Generated_Source\PSoC5/CyLib.c ****     {
 1889              		.loc 1 1124 0
ARM GAS  C:\Users\yqh\AppData\Local\Temp\ccH6G3Im.s 			page 63


 1890 000a 0128     		cmp	r0, #1
1122:Generated_Source\PSoC5/CyLib.c **** 
 1891              		.loc 1 1122 0
 1892 000c 1A70     		strb	r2, [r3]
1120:Generated_Source\PSoC5/CyLib.c **** 
 1893              		.loc 1 1120 0
 1894 000e C5F34005 		ubfx	r5, r5, #1, #1
 1895              	.LVL101:
 1896 0012 03F28E33 		addw	r3, r3, #910
 1897 0016 144E     		ldr	r6, .L223+8
1124:Generated_Source\PSoC5/CyLib.c ****     {
 1898              		.loc 1 1124 0
 1899 0018 10D1     		bne	.L220
 1900              	.LVL102:
 1901              	.LBB22:
 1902              	.LBB23:
1127:Generated_Source\PSoC5/CyLib.c ****         CyDelayUs(10u);
 1903              		.loc 1 1127 0
 1904 001a 1870     		strb	r0, [r3]
1128:Generated_Source\PSoC5/CyLib.c ****         CY_CLK_XTAL32_CFG_REG = (CY_CLK_XTAL32_CFG_REG & ((uint8)(~CY_CLK_XTAL32_CFG_LP_MASK))) |
 1905              		.loc 1 1128 0
 1906 001c 0A20     		movs	r0, #10
 1907              	.LVL103:
 1908 001e FFF7FEFF 		bl	CyDelayUs
 1909              	.LVL104:
1129:Generated_Source\PSoC5/CyLib.c ****                                 CY_CLK_XTAL32_CFG_LP_LOWPOWER;
 1910              		.loc 1 1129 0
 1911 0022 3378     		ldrb	r3, [r6]	@ zero_extendqisi2
1131:Generated_Source\PSoC5/CyLib.c ****         CY_CLK_XTAL32_CR_REG |= CY_CLK_XTAL32_CR_LPM;
 1912              		.loc 1 1131 0
 1913 0024 1420     		movs	r0, #20
1129:Generated_Source\PSoC5/CyLib.c ****                                 CY_CLK_XTAL32_CFG_LP_LOWPOWER;
 1914              		.loc 1 1129 0
 1915 0026 03F0F303 		and	r3, r3, #243
 1916 002a 43F00803 		orr	r3, r3, #8
 1917 002e 3370     		strb	r3, [r6]
1131:Generated_Source\PSoC5/CyLib.c ****         CY_CLK_XTAL32_CR_REG |= CY_CLK_XTAL32_CR_LPM;
 1918              		.loc 1 1131 0
 1919 0030 FFF7FEFF 		bl	CyDelayUs
 1920              	.LVL105:
1132:Generated_Source\PSoC5/CyLib.c ****     }
 1921              		.loc 1 1132 0
 1922 0034 2378     		ldrb	r3, [r4]	@ zero_extendqisi2
 1923 0036 43F00203 		orr	r3, r3, #2
 1924 003a 0DE0     		b	.L222
 1925              	.LVL106:
 1926              	.L220:
 1927              	.LBE23:
 1928              	.LBE22:
1137:Generated_Source\PSoC5/CyLib.c ****         CyDelayUs(10u);
 1929              		.loc 1 1137 0
 1930 003c 0622     		movs	r2, #6
 1931 003e 1A70     		strb	r2, [r3]
1138:Generated_Source\PSoC5/CyLib.c ****         CY_CLK_XTAL32_CFG_REG = (CY_CLK_XTAL32_CFG_REG & ((uint8)(~CY_CLK_XTAL32_CFG_LP_MASK))) |
 1932              		.loc 1 1138 0
 1933 0040 0A20     		movs	r0, #10
 1934              	.LVL107:
ARM GAS  C:\Users\yqh\AppData\Local\Temp\ccH6G3Im.s 			page 64


 1935 0042 FFF7FEFF 		bl	CyDelayUs
 1936              	.LVL108:
1139:Generated_Source\PSoC5/CyLib.c ****                                 CY_CLK_XTAL32_CFG_LP_DEFAULT;
 1937              		.loc 1 1139 0
 1938 0046 3378     		ldrb	r3, [r6]	@ zero_extendqisi2
 1939 0048 03F0F303 		and	r3, r3, #243
 1940 004c 43F00403 		orr	r3, r3, #4
 1941 0050 3370     		strb	r3, [r6]
1141:Generated_Source\PSoC5/CyLib.c ****     }
 1942              		.loc 1 1141 0
 1943 0052 2378     		ldrb	r3, [r4]	@ zero_extendqisi2
 1944 0054 03F0FD03 		and	r3, r3, #253
 1945              	.L222:
 1946 0058 2370     		strb	r3, [r4]
1145:Generated_Source\PSoC5/CyLib.c **** 
 1947              		.loc 1 1145 0
 1948 005a 2846     		mov	r0, r5
 1949 005c 70BD     		pop	{r4, r5, r6, pc}
 1950              	.LVL109:
 1951              	.L224:
 1952 005e 00BF     		.align	2
 1953              	.L223:
 1954 0060 08430040 		.word	1073758984
 1955 0064 0A430040 		.word	1073758986
 1956 0068 09430040 		.word	1073758985
 1957              		.cfi_endproc
 1958              	.LFE28:
 1959              		.size	CyXTAL_32KHZ_SetPowerMode, .-CyXTAL_32KHZ_SetPowerMode
 1960              		.section	.text.CyXTAL_32KHZ_Start,"ax",%progbits
 1961              		.align	1
 1962              		.global	CyXTAL_32KHZ_Start
 1963              		.thumb
 1964              		.thumb_func
 1965              		.type	CyXTAL_32KHZ_Start, %function
 1966              	CyXTAL_32KHZ_Start:
 1967              	.LFB25:
1033:Generated_Source\PSoC5/CyLib.c ****     volatile uint16 i;
 1968              		.loc 1 1033 0
 1969              		.cfi_startproc
 1970              		@ args = 0, pretend = 0, frame = 8
 1971              		@ frame_needed = 0, uses_anonymous_args = 0
 1972 0000 13B5     		push	{r0, r1, r4, lr}
 1973              		.cfi_def_cfa_offset 16
 1974              		.cfi_offset 4, -8
 1975              		.cfi_offset 14, -4
1036:Generated_Source\PSoC5/CyLib.c ****     CY_CLK_XTAL32_TR_REG  = CY_CLK_XTAL32_TR_STARTUP;
 1976              		.loc 1 1036 0
 1977 0002 174B     		ldr	r3, .L230
 1978 0004 F322     		movs	r2, #243
 1979 0006 1A70     		strb	r2, [r3]
1037:Generated_Source\PSoC5/CyLib.c ****     CY_CLK_XTAL32_CFG_REG = (CY_CLK_XTAL32_CFG_REG & ((uint8)(~CY_CLK_XTAL32_CFG_LP_MASK))) |
 1980              		.loc 1 1037 0
 1981 0008 0322     		movs	r2, #3
 1982 000a 83F88E23 		strb	r2, [r3, #910]
1038:Generated_Source\PSoC5/CyLib.c ****                                 CY_CLK_XTAL32_CFG_LP_DEFAULT;
 1983              		.loc 1 1038 0
 1984 000e 154A     		ldr	r2, .L230+4
ARM GAS  C:\Users\yqh\AppData\Local\Temp\ccH6G3Im.s 			page 65


 1985 0010 1378     		ldrb	r3, [r2]	@ zero_extendqisi2
 1986 0012 03F0F303 		and	r3, r3, #243
 1987 0016 43F00403 		orr	r3, r3, #4
 1988 001a 1370     		strb	r3, [r2]
1046:Generated_Source\PSoC5/CyLib.c **** 
 1989              		.loc 1 1046 0
 1990 001c 124B     		ldr	r3, .L230+8
 1991 001e 1C46     		mov	r4, r3
 1992 0020 1A78     		ldrb	r2, [r3]	@ zero_extendqisi2
 1993 0022 42F00102 		orr	r2, r2, #1
 1994 0026 1A70     		strb	r2, [r3]
1048:Generated_Source\PSoC5/CyLib.c ****     {
 1995              		.loc 1 1048 0
 1996 0028 4FF47A72 		mov	r2, #1000
 1997 002c ADF80620 		strh	r2, [sp, #6]	@ movhi
 1998              	.L226:
1048:Generated_Source\PSoC5/CyLib.c ****     {
 1999              		.loc 1 1048 0 is_stmt 0 discriminator 1
 2000 0030 BDF80630 		ldrh	r3, [sp, #6]
 2001 0034 9BB2     		uxth	r3, r3
 2002 0036 83B1     		cbz	r3, .L225
 2003              	.LBB24:
 2004              	.LBB25:
1098:Generated_Source\PSoC5/CyLib.c **** }
 2005              		.loc 1 1098 0 is_stmt 1
 2006 0038 2378     		ldrb	r3, [r4]	@ zero_extendqisi2
 2007              	.LBE25:
 2008              	.LBE24:
1050:Generated_Source\PSoC5/CyLib.c ****         {
 2009              		.loc 1 1050 0
 2010 003a 9B06     		lsls	r3, r3, #26
 2011 003c 03D5     		bpl	.L227
1053:Generated_Source\PSoC5/CyLib.c **** 
 2012              		.loc 1 1053 0
 2013 003e 0020     		movs	r0, #0
 2014 0040 FFF7FEFF 		bl	CyXTAL_32KHZ_SetPowerMode
 2015              	.LVL110:
1055:Generated_Source\PSoC5/CyLib.c ****         }
 2016              		.loc 1 1055 0
 2017 0044 09E0     		b	.L225
 2018              	.L227:
1057:Generated_Source\PSoC5/CyLib.c ****     }
 2019              		.loc 1 1057 0 discriminator 2
 2020 0046 0120     		movs	r0, #1
 2021 0048 FFF7FEFF 		bl	CyDelayUs
 2022              	.LVL111:
1048:Generated_Source\PSoC5/CyLib.c ****     {
 2023              		.loc 1 1048 0 discriminator 2
 2024 004c BDF80630 		ldrh	r3, [sp, #6]
 2025 0050 013B     		subs	r3, r3, #1
 2026 0052 9BB2     		uxth	r3, r3
 2027 0054 ADF80630 		strh	r3, [sp, #6]	@ movhi
 2028 0058 EAE7     		b	.L226
 2029              	.L225:
1059:Generated_Source\PSoC5/CyLib.c **** 
 2030              		.loc 1 1059 0
 2031 005a 02B0     		add	sp, sp, #8
ARM GAS  C:\Users\yqh\AppData\Local\Temp\ccH6G3Im.s 			page 66


 2032              		.cfi_def_cfa_offset 8
 2033              		@ sp needed
 2034 005c 10BD     		pop	{r4, pc}
 2035              	.L231:
 2036 005e 00BF     		.align	2
 2037              	.L230:
 2038 0060 0A430040 		.word	1073758986
 2039 0064 09430040 		.word	1073758985
 2040 0068 08430040 		.word	1073758984
 2041              		.cfi_endproc
 2042              	.LFE25:
 2043              		.size	CyXTAL_32KHZ_Start, .-CyXTAL_32KHZ_Start
 2044              		.section	.text.CyDelayFreq,"ax",%progbits
 2045              		.align	1
 2046              		.global	CyDelayFreq
 2047              		.thumb
 2048              		.thumb_func
 2049              		.type	CyDelayFreq, %function
 2050              	CyDelayFreq:
 2051              	.LFB43:
1506:Generated_Source\PSoC5/CyLib.c ****     }
1507:Generated_Source\PSoC5/CyLib.c **** 
1508:Generated_Source\PSoC5/CyLib.c **** #endif  /* (!CY_PSOC3) */
1509:Generated_Source\PSoC5/CyLib.c **** 
1510:Generated_Source\PSoC5/CyLib.c **** 
1511:Generated_Source\PSoC5/CyLib.c **** /*******************************************************************************
1512:Generated_Source\PSoC5/CyLib.c **** * Function Name: CyDelayFreq
1513:Generated_Source\PSoC5/CyLib.c **** ****************************************************************************//**
1514:Generated_Source\PSoC5/CyLib.c **** *
1515:Generated_Source\PSoC5/CyLib.c **** *  Sets the clock frequency for CyDelay.
1516:Generated_Source\PSoC5/CyLib.c **** *
1517:Generated_Source\PSoC5/CyLib.c **** *  \param freq: The frequency of the bus clock in Hertz.
1518:Generated_Source\PSoC5/CyLib.c **** *
1519:Generated_Source\PSoC5/CyLib.c **** *******************************************************************************/
1520:Generated_Source\PSoC5/CyLib.c **** void CyDelayFreq(uint32 freq) CYREENTRANT
1521:Generated_Source\PSoC5/CyLib.c **** {
 2052              		.loc 1 1521 0
 2053              		.cfi_startproc
 2054              		@ args = 0, pretend = 0, frame = 0
 2055              		@ frame_needed = 0, uses_anonymous_args = 0
 2056              		@ link register save eliminated.
 2057              	.LVL112:
 2058 0000 0C4A     		ldr	r2, .L235
1522:Generated_Source\PSoC5/CyLib.c ****     if (freq != 0u)
 2059              		.loc 1 1522 0
 2060 0002 08B1     		cbz	r0, .L233
1523:Generated_Source\PSoC5/CyLib.c ****     {
1524:Generated_Source\PSoC5/CyLib.c ****         cydelay_freq_hz = freq;
 2061              		.loc 1 1524 0
 2062 0004 D060     		str	r0, [r2, #12]
 2063 0006 01E0     		b	.L234
 2064              	.L233:
1525:Generated_Source\PSoC5/CyLib.c ****     }
1526:Generated_Source\PSoC5/CyLib.c ****     else
1527:Generated_Source\PSoC5/CyLib.c ****     {
1528:Generated_Source\PSoC5/CyLib.c ****         cydelay_freq_hz = BCLK__BUS_CLK__HZ;
 2065              		.loc 1 1528 0
ARM GAS  C:\Users\yqh\AppData\Local\Temp\ccH6G3Im.s 			page 67


 2066 0008 0B4B     		ldr	r3, .L235+4
 2067 000a D360     		str	r3, [r2, #12]
 2068              	.L234:
1529:Generated_Source\PSoC5/CyLib.c ****     }
1530:Generated_Source\PSoC5/CyLib.c **** 
1531:Generated_Source\PSoC5/CyLib.c ****     cydelay_freq_mhz = (uint8)((cydelay_freq_hz + 999999u) / 1000000u);
 2069              		.loc 1 1531 0
 2070 000c D368     		ldr	r3, [r2, #12]
 2071 000e 0B48     		ldr	r0, .L235+8
 2072              	.LVL113:
 2073 0010 03F57421 		add	r1, r3, #999424
 2074 0014 01F23F21 		addw	r1, r1, #575
 2075 0018 B1FBF0F1 		udiv	r1, r1, r0
1532:Generated_Source\PSoC5/CyLib.c ****     cydelay_freq_khz = (cydelay_freq_hz + 999u) / 1000u;
 2076              		.loc 1 1532 0
 2077 001c 03F2E733 		addw	r3, r3, #999
1531:Generated_Source\PSoC5/CyLib.c ****     cydelay_freq_khz = (cydelay_freq_hz + 999u) / 1000u;
 2078              		.loc 1 1531 0
 2079 0020 1172     		strb	r1, [r2, #8]
 2080              		.loc 1 1532 0
 2081 0022 4FF47A71 		mov	r1, #1000
 2082 0026 B3FBF1F3 		udiv	r3, r3, r1
 2083 002a 5360     		str	r3, [r2, #4]
1533:Generated_Source\PSoC5/CyLib.c ****     cydelay_32k_ms   = 32768u * cydelay_freq_khz;
 2084              		.loc 1 1533 0
 2085 002c DB03     		lsls	r3, r3, #15
 2086 002e 1360     		str	r3, [r2]
 2087 0030 7047     		bx	lr
 2088              	.L236:
 2089 0032 00BF     		.align	2
 2090              	.L235:
 2091 0034 00000000 		.word	.LANCHOR0
 2092 0038 006CDC02 		.word	48000000
 2093 003c 40420F00 		.word	1000000
 2094              		.cfi_endproc
 2095              	.LFE43:
 2096              		.size	CyDelayFreq, .-CyDelayFreq
 2097              		.section	.text.CyWdtStart,"ax",%progbits
 2098              		.align	1
 2099              		.global	CyWdtStart
 2100              		.thumb
 2101              		.thumb_func
 2102              		.type	CyWdtStart, %function
 2103              	CyWdtStart:
 2104              	.LFB44:
1534:Generated_Source\PSoC5/CyLib.c **** }
1535:Generated_Source\PSoC5/CyLib.c **** 
1536:Generated_Source\PSoC5/CyLib.c **** 
1537:Generated_Source\PSoC5/CyLib.c **** /*******************************************************************************
1538:Generated_Source\PSoC5/CyLib.c **** * Function Name: CyWdtStart
1539:Generated_Source\PSoC5/CyLib.c **** ****************************************************************************//**
1540:Generated_Source\PSoC5/CyLib.c **** *
1541:Generated_Source\PSoC5/CyLib.c **** *  Enables the watchdog timer.
1542:Generated_Source\PSoC5/CyLib.c **** *
1543:Generated_Source\PSoC5/CyLib.c **** *  The timer is configured for the specified count interval, the central
1544:Generated_Source\PSoC5/CyLib.c **** *  timewheel is cleared, the setting for the low power mode is configured and
1545:Generated_Source\PSoC5/CyLib.c **** *  the watchdog timer is enabled.
ARM GAS  C:\Users\yqh\AppData\Local\Temp\ccH6G3Im.s 			page 68


1546:Generated_Source\PSoC5/CyLib.c **** *
1547:Generated_Source\PSoC5/CyLib.c **** *  Once enabled the watchdog cannot be disabled. The watchdog counts each time
1548:Generated_Source\PSoC5/CyLib.c **** *  the Central Time Wheel (CTW) reaches the period specified. The watchdog must
1549:Generated_Source\PSoC5/CyLib.c **** *  be cleared using the CyWdtClear() function before three ticks of the watchdog
1550:Generated_Source\PSoC5/CyLib.c **** *  timer occur. The CTW is free running, so this will occur after between 2 and
1551:Generated_Source\PSoC5/CyLib.c **** *  3 timer periods elapse.
1552:Generated_Source\PSoC5/CyLib.c **** *
1553:Generated_Source\PSoC5/CyLib.c **** *  PSoC5: The watchdog timer should not be used during sleep modes. Since the
1554:Generated_Source\PSoC5/CyLib.c **** *  WDT cannot be disabled after it is enabled, the WDT timeout period can be
1555:Generated_Source\PSoC5/CyLib.c **** *  set to be greater than the sleep wakeup period, then feed the dog on each
1556:Generated_Source\PSoC5/CyLib.c **** *  wakeup from Sleep.
1557:Generated_Source\PSoC5/CyLib.c **** *
1558:Generated_Source\PSoC5/CyLib.c **** *  \param ticks: One of the four available timer periods. Once WDT enabled, the
1559:Generated_Source\PSoC5/CyLib.c ****    interval cannot be changed.
1560:Generated_Source\PSoC5/CyLib.c **** *         CYWDT_2_TICKS     -     4 - 6     ms
1561:Generated_Source\PSoC5/CyLib.c **** *         CYWDT_16_TICKS    -    32 - 48    ms
1562:Generated_Source\PSoC5/CyLib.c **** *         CYWDT_128_TICKS   -   256 - 384   ms
1563:Generated_Source\PSoC5/CyLib.c **** *         CYWDT_1024_TICKS  - 2.048 - 3.072 s
1564:Generated_Source\PSoC5/CyLib.c **** *
1565:Generated_Source\PSoC5/CyLib.c **** *  \param lpMode: Low power mode configuration. This parameter is ignored for PSoC 5.
1566:Generated_Source\PSoC5/CyLib.c **** *          The WDT always acts as if CYWDT_LPMODE_NOCHANGE is passed.
1567:Generated_Source\PSoC5/CyLib.c **** *
1568:Generated_Source\PSoC5/CyLib.c **** *          CYWDT_LPMODE_NOCHANGE - No Change
1569:Generated_Source\PSoC5/CyLib.c **** *          CYWDT_LPMODE_MAXINTER - Switch to longest timer mode during low power
1570:Generated_Source\PSoC5/CyLib.c **** *                                 mode
1571:Generated_Source\PSoC5/CyLib.c **** *          CYWDT_LPMODE_DISABLED - Disable WDT during low power mode
1572:Generated_Source\PSoC5/CyLib.c **** *
1573:Generated_Source\PSoC5/CyLib.c **** * \sideeffect
1574:Generated_Source\PSoC5/CyLib.c **** *  PSoC5: The ILO 1 KHz must be enabled for proper WDT operation. Stopping the
1575:Generated_Source\PSoC5/CyLib.c **** *  ILO 1 kHz could break the active WDT functionality.
1576:Generated_Source\PSoC5/CyLib.c **** *
1577:Generated_Source\PSoC5/CyLib.c **** *******************************************************************************/
1578:Generated_Source\PSoC5/CyLib.c **** void CyWdtStart(uint8 ticks, uint8 lpMode) 
1579:Generated_Source\PSoC5/CyLib.c **** {
 2105              		.loc 1 1579 0
 2106              		.cfi_startproc
 2107              		@ args = 0, pretend = 0, frame = 0
 2108              		@ frame_needed = 0, uses_anonymous_args = 0
 2109              		@ link register save eliminated.
 2110              	.LVL114:
1580:Generated_Source\PSoC5/CyLib.c ****     /* Set WDT interval */
1581:Generated_Source\PSoC5/CyLib.c ****     CY_WDT_CFG_REG = (CY_WDT_CFG_REG & ((uint8)(~CY_WDT_CFG_INTERVAL_MASK))) | (ticks & CY_WDT_CFG_
 2111              		.loc 1 1581 0
 2112 0000 0E4B     		ldr	r3, .L238
 2113 0002 00F00300 		and	r0, r0, #3
 2114              	.LVL115:
 2115 0006 1A78     		ldrb	r2, [r3]	@ zero_extendqisi2
1582:Generated_Source\PSoC5/CyLib.c **** 
1583:Generated_Source\PSoC5/CyLib.c ****     /* Reset CTW to ensure that first watchdog period is full */
1584:Generated_Source\PSoC5/CyLib.c ****     CY_WDT_CFG_REG |= CY_WDT_CFG_CTW_RESET;
1585:Generated_Source\PSoC5/CyLib.c ****     CY_WDT_CFG_REG &= ((uint8)(~CY_WDT_CFG_CTW_RESET));
1586:Generated_Source\PSoC5/CyLib.c **** 
1587:Generated_Source\PSoC5/CyLib.c ****     /* Setting low power mode */
1588:Generated_Source\PSoC5/CyLib.c ****     CY_WDT_CFG_REG = (((uint8)(lpMode << CY_WDT_CFG_LPMODE_SHIFT)) & CY_WDT_CFG_LPMODE_MASK) |
 2116              		.loc 1 1588 0
 2117 0008 4901     		lsls	r1, r1, #5
 2118              	.LVL116:
ARM GAS  C:\Users\yqh\AppData\Local\Temp\ccH6G3Im.s 			page 69


1581:Generated_Source\PSoC5/CyLib.c **** 
 2119              		.loc 1 1581 0
 2120 000a 02F0FC02 		and	r2, r2, #252
 2121 000e 0243     		orrs	r2, r2, r0
 2122 0010 1A70     		strb	r2, [r3]
1584:Generated_Source\PSoC5/CyLib.c ****     CY_WDT_CFG_REG &= ((uint8)(~CY_WDT_CFG_CTW_RESET));
 2123              		.loc 1 1584 0
 2124 0012 1A78     		ldrb	r2, [r3]	@ zero_extendqisi2
 2125              		.loc 1 1588 0
 2126 0014 01F06001 		and	r1, r1, #96
1584:Generated_Source\PSoC5/CyLib.c ****     CY_WDT_CFG_REG &= ((uint8)(~CY_WDT_CFG_CTW_RESET));
 2127              		.loc 1 1584 0
 2128 0018 42F08002 		orr	r2, r2, #128
 2129 001c 1A70     		strb	r2, [r3]
1585:Generated_Source\PSoC5/CyLib.c **** 
 2130              		.loc 1 1585 0
 2131 001e 1A78     		ldrb	r2, [r3]	@ zero_extendqisi2
 2132 0020 02F07F02 		and	r2, r2, #127
 2133 0024 1A70     		strb	r2, [r3]
1589:Generated_Source\PSoC5/CyLib.c ****                        (CY_WDT_CFG_REG & ((uint8)(~CY_WDT_CFG_LPMODE_MASK)));
 2134              		.loc 1 1589 0
 2135 0026 1A78     		ldrb	r2, [r3]	@ zero_extendqisi2
1588:Generated_Source\PSoC5/CyLib.c ****                        (CY_WDT_CFG_REG & ((uint8)(~CY_WDT_CFG_LPMODE_MASK)));
 2136              		.loc 1 1588 0
 2137 0028 02F09F02 		and	r2, r2, #159
 2138 002c 0A43     		orrs	r2, r2, r1
 2139 002e 1A70     		strb	r2, [r3]
1590:Generated_Source\PSoC5/CyLib.c **** 
1591:Generated_Source\PSoC5/CyLib.c ****     /* Enables watchdog reset */
1592:Generated_Source\PSoC5/CyLib.c ****     CY_WDT_CFG_REG |= CY_WDT_CFG_WDR_EN;
 2140              		.loc 1 1592 0
 2141 0030 1A78     		ldrb	r2, [r3]	@ zero_extendqisi2
 2142 0032 42F01002 		orr	r2, r2, #16
 2143 0036 1A70     		strb	r2, [r3]
 2144 0038 7047     		bx	lr
 2145              	.L239:
 2146 003a 00BF     		.align	2
 2147              	.L238:
 2148 003c 83430040 		.word	1073759107
 2149              		.cfi_endproc
 2150              	.LFE44:
 2151              		.size	CyWdtStart, .-CyWdtStart
 2152              		.section	.text.CyWdtClear,"ax",%progbits
 2153              		.align	1
 2154              		.global	CyWdtClear
 2155              		.thumb
 2156              		.thumb_func
 2157              		.type	CyWdtClear, %function
 2158              	CyWdtClear:
 2159              	.LFB45:
1593:Generated_Source\PSoC5/CyLib.c **** }
1594:Generated_Source\PSoC5/CyLib.c **** 
1595:Generated_Source\PSoC5/CyLib.c **** 
1596:Generated_Source\PSoC5/CyLib.c **** /*******************************************************************************
1597:Generated_Source\PSoC5/CyLib.c **** * Function Name: CyWdtClear
1598:Generated_Source\PSoC5/CyLib.c **** ****************************************************************************//**
1599:Generated_Source\PSoC5/CyLib.c **** *
ARM GAS  C:\Users\yqh\AppData\Local\Temp\ccH6G3Im.s 			page 70


1600:Generated_Source\PSoC5/CyLib.c **** *  Clears (feeds) the watchdog timer.
1601:Generated_Source\PSoC5/CyLib.c **** *
1602:Generated_Source\PSoC5/CyLib.c **** *******************************************************************************/
1603:Generated_Source\PSoC5/CyLib.c **** void CyWdtClear(void) 
1604:Generated_Source\PSoC5/CyLib.c **** {
 2160              		.loc 1 1604 0
 2161              		.cfi_startproc
 2162              		@ args = 0, pretend = 0, frame = 0
 2163              		@ frame_needed = 0, uses_anonymous_args = 0
 2164              		@ link register save eliminated.
1605:Generated_Source\PSoC5/CyLib.c ****     CY_WDT_CR_REG = CY_WDT_CR_FEED;
 2165              		.loc 1 1605 0
 2166 0000 014B     		ldr	r3, .L241
 2167 0002 0122     		movs	r2, #1
 2168 0004 1A70     		strb	r2, [r3]
 2169 0006 7047     		bx	lr
 2170              	.L242:
 2171              		.align	2
 2172              	.L241:
 2173 0008 84430040 		.word	1073759108
 2174              		.cfi_endproc
 2175              	.LFE45:
 2176              		.size	CyWdtClear, .-CyWdtClear
 2177              		.section	.text.CyVdStickyStatus,"ax",%progbits
 2178              		.align	1
 2179              		.global	CyVdStickyStatus
 2180              		.thumb
 2181              		.thumb_func
 2182              		.type	CyVdStickyStatus, %function
 2183              	CyVdStickyStatus:
 2184              	.LFB52:
1606:Generated_Source\PSoC5/CyLib.c **** }
1607:Generated_Source\PSoC5/CyLib.c **** 
1608:Generated_Source\PSoC5/CyLib.c **** 
1609:Generated_Source\PSoC5/CyLib.c **** 
1610:Generated_Source\PSoC5/CyLib.c **** /*******************************************************************************
1611:Generated_Source\PSoC5/CyLib.c **** * Function Name: CyVdLvDigitEnable
1612:Generated_Source\PSoC5/CyLib.c **** ****************************************************************************//**
1613:Generated_Source\PSoC5/CyLib.c **** *
1614:Generated_Source\PSoC5/CyLib.c **** *  Sets the voltage trip level, enables the output of the digital low-voltage
1615:Generated_Source\PSoC5/CyLib.c **** *  monitor, and optionally configures voltage monitor to reset device upon the
1616:Generated_Source\PSoC5/CyLib.c **** *  low-voltage event instead of generating an interrupt.
1617:Generated_Source\PSoC5/CyLib.c **** *
1618:Generated_Source\PSoC5/CyLib.c **** *  Note The associated interrupt enable/disable state is not changed by the
1619:Generated_Source\PSoC5/CyLib.c **** *  function. The Interrupt component API should be used to register the
1620:Generated_Source\PSoC5/CyLib.c **** *  interrupt service routine and to enable/disable associated interrupt.
1621:Generated_Source\PSoC5/CyLib.c **** *
1622:Generated_Source\PSoC5/CyLib.c **** *  \param reset: Enables device reset on digital low-voltage event:
1623:Generated_Source\PSoC5/CyLib.c **** *   Zero - Interrupt on digital low-voltage event
1624:Generated_Source\PSoC5/CyLib.c **** *   Non-zero - Reset on digital low-voltage event
1625:Generated_Source\PSoC5/CyLib.c **** *
1626:Generated_Source\PSoC5/CyLib.c **** *  \param threshold: Sets the trip point of the digital low-voltage monitoring circuit
1627:Generated_Source\PSoC5/CyLib.c **** *   in steps of approximately 250 mV in range from 1.70 V (0x00) to 5.45 V
1628:Generated_Source\PSoC5/CyLib.c **** *   (0x0F). For example, the trip point is set to 1.80 V when the threshold
1629:Generated_Source\PSoC5/CyLib.c **** *   parameter value is 0x04. Refer to the device TRM for the exact trip voltage
1630:Generated_Source\PSoC5/CyLib.c **** *   values.
1631:Generated_Source\PSoC5/CyLib.c **** *
ARM GAS  C:\Users\yqh\AppData\Local\Temp\ccH6G3Im.s 			page 71


1632:Generated_Source\PSoC5/CyLib.c **** * Side Effects and Restrictions:
1633:Generated_Source\PSoC5/CyLib.c **** *  The voltage resets are momentary. When a voltage reset (analog/digital
1634:Generated_Source\PSoC5/CyLib.c **** *  low-voltage and analog high-voltage) occurs, the RESET_CR1 and RESET_CR3
1635:Generated_Source\PSoC5/CyLib.c **** *  registers are restored to their default values. This means that the voltage
1636:Generated_Source\PSoC5/CyLib.c **** *  monitor circuit is no longer enabled and the device exits reset. If the
1637:Generated_Source\PSoC5/CyLib.c **** *  supply is below the trip level and firmware enables the voltage reset
1638:Generated_Source\PSoC5/CyLib.c **** *  functionality, the device will reset again. This will continue as long as the
1639:Generated_Source\PSoC5/CyLib.c **** *  supply is below the trip level or as long as the user enables the reset
1640:Generated_Source\PSoC5/CyLib.c **** *  functionality of the voltage monitor functionality.
1641:Generated_Source\PSoC5/CyLib.c **** *
1642:Generated_Source\PSoC5/CyLib.c **** *  When any voltage reset occurs, the RESET_SR0 and RESET_SR2 status registers
1643:Generated_Source\PSoC5/CyLib.c **** *  are cleared. This means that analog low-voltage, digital low-voltage and
1644:Generated_Source\PSoC5/CyLib.c **** *  analog high-voltage status bits are not persistent across any voltage reset.
1645:Generated_Source\PSoC5/CyLib.c **** *
1646:Generated_Source\PSoC5/CyLib.c **** *******************************************************************************/
1647:Generated_Source\PSoC5/CyLib.c **** void CyVdLvDigitEnable(uint8 reset, uint8 threshold) 
1648:Generated_Source\PSoC5/CyLib.c **** {
1649:Generated_Source\PSoC5/CyLib.c ****     uint32 intRegTmp;
1650:Generated_Source\PSoC5/CyLib.c ****     uint8 interruptState;
1651:Generated_Source\PSoC5/CyLib.c **** 
1652:Generated_Source\PSoC5/CyLib.c ****     interruptState = CyEnterCriticalSection();
1653:Generated_Source\PSoC5/CyLib.c **** 
1654:Generated_Source\PSoC5/CyLib.c ****     /* Store interrupt enable state */
1655:Generated_Source\PSoC5/CyLib.c ****     intRegTmp = CY_INT_ENABLE_REG & CY_VD_INT_MASK;
1656:Generated_Source\PSoC5/CyLib.c **** 
1657:Generated_Source\PSoC5/CyLib.c ****     /* Disable VD interrupt (write 1) to protect against glitches */
1658:Generated_Source\PSoC5/CyLib.c ****     CY_INT_CLEAR_REG = CY_VD_INT_MASK;
1659:Generated_Source\PSoC5/CyLib.c **** 
1660:Generated_Source\PSoC5/CyLib.c ****     CY_VD_PRES_CONTROL_REG &= ((uint8)(~CY_VD_PRESD_EN));
1661:Generated_Source\PSoC5/CyLib.c **** 
1662:Generated_Source\PSoC5/CyLib.c ****     CY_VD_LVI_TRIP_REG = (threshold & CY_VD_LVI_TRIP_LVID_MASK) |
1663:Generated_Source\PSoC5/CyLib.c ****                             (CY_VD_LVI_TRIP_REG & ((uint8)(~CY_VD_LVI_TRIP_LVID_MASK)));
1664:Generated_Source\PSoC5/CyLib.c ****     CY_VD_LVI_HVI_CONTROL_REG |= CY_VD_LVID_EN;
1665:Generated_Source\PSoC5/CyLib.c **** 
1666:Generated_Source\PSoC5/CyLib.c ****     /* Timeout to eliminate glitches on LVI/HVI when enabling (ID # 127412) */
1667:Generated_Source\PSoC5/CyLib.c ****     CyDelayUs(1u);
1668:Generated_Source\PSoC5/CyLib.c **** 
1669:Generated_Source\PSoC5/CyLib.c ****     (void) CyVdStickyStatus(CY_VD_LVID);
1670:Generated_Source\PSoC5/CyLib.c **** 
1671:Generated_Source\PSoC5/CyLib.c ****     if(0u != reset)
1672:Generated_Source\PSoC5/CyLib.c ****     {
1673:Generated_Source\PSoC5/CyLib.c ****         CY_VD_PRES_CONTROL_REG |= CY_VD_PRESD_EN;
1674:Generated_Source\PSoC5/CyLib.c ****     }
1675:Generated_Source\PSoC5/CyLib.c ****     else
1676:Generated_Source\PSoC5/CyLib.c ****     {
1677:Generated_Source\PSoC5/CyLib.c ****         CY_VD_PRES_CONTROL_REG &= ((uint8)(~CY_VD_PRESD_EN));
1678:Generated_Source\PSoC5/CyLib.c ****     }
1679:Generated_Source\PSoC5/CyLib.c **** 
1680:Generated_Source\PSoC5/CyLib.c ****     /* Clear pending interrupt */
1681:Generated_Source\PSoC5/CyLib.c ****     CY_INT_CLR_PEND_REG = CY_VD_INT_MASK;
1682:Generated_Source\PSoC5/CyLib.c **** 
1683:Generated_Source\PSoC5/CyLib.c ****     /* Restore interrupt enable state */
1684:Generated_Source\PSoC5/CyLib.c ****     CY_INT_ENABLE_REG = intRegTmp;
1685:Generated_Source\PSoC5/CyLib.c **** 
1686:Generated_Source\PSoC5/CyLib.c ****     CyExitCriticalSection(interruptState);
1687:Generated_Source\PSoC5/CyLib.c **** }
1688:Generated_Source\PSoC5/CyLib.c **** 
ARM GAS  C:\Users\yqh\AppData\Local\Temp\ccH6G3Im.s 			page 72


1689:Generated_Source\PSoC5/CyLib.c **** 
1690:Generated_Source\PSoC5/CyLib.c **** /*******************************************************************************
1691:Generated_Source\PSoC5/CyLib.c **** * Function Name: CyVdLvAnalogEnable
1692:Generated_Source\PSoC5/CyLib.c **** ****************************************************************************//**
1693:Generated_Source\PSoC5/CyLib.c **** *
1694:Generated_Source\PSoC5/CyLib.c **** *  Sets the voltage trip level, enables the output of the analog low-voltage
1695:Generated_Source\PSoC5/CyLib.c **** *  monitor, and optionally configures voltage monitor to reset device upon the
1696:Generated_Source\PSoC5/CyLib.c **** *  low-voltage event instead of generating an interrupt.
1697:Generated_Source\PSoC5/CyLib.c **** *
1698:Generated_Source\PSoC5/CyLib.c **** *  Note The associated interrupt enable/disable state is not changed by the
1699:Generated_Source\PSoC5/CyLib.c **** *  function. The Interrupt component API should be used to register the
1700:Generated_Source\PSoC5/CyLib.c **** *  interrupt service routine and to enable/disable associated interrupt.
1701:Generated_Source\PSoC5/CyLib.c **** *
1702:Generated_Source\PSoC5/CyLib.c **** *  \param reset: Enables device reset on analog low-voltage event:
1703:Generated_Source\PSoC5/CyLib.c **** *  Zero - Interrupt on analog low-voltage event
1704:Generated_Source\PSoC5/CyLib.c **** *  Non-zero - Reset on analog low-voltage event
1705:Generated_Source\PSoC5/CyLib.c **** *
1706:Generated_Source\PSoC5/CyLib.c **** *  \param threshold: Sets the trip point of the analog low-voltage monitoring circuit
1707:Generated_Source\PSoC5/CyLib.c **** *  in steps of approximately 250 mV in range from 1.70 V (0x00) to 5.45 V
1708:Generated_Source\PSoC5/CyLib.c **** *  (0x0F). For example, the trip point is set to 1.80 V when value of the
1709:Generated_Source\PSoC5/CyLib.c **** *  threshold parameter is 0x04. Please refer to the device TRM for the exact
1710:Generated_Source\PSoC5/CyLib.c **** *  trip voltage values.
1711:Generated_Source\PSoC5/CyLib.c **** *
1712:Generated_Source\PSoC5/CyLib.c **** * Side Effects and Restrictions:
1713:Generated_Source\PSoC5/CyLib.c **** *  The voltage resets are momentary. When a voltage reset (analog/digital
1714:Generated_Source\PSoC5/CyLib.c **** *  low-voltage and analog high-voltage) occurs, the RESET_CR1 and RESET_CR3
1715:Generated_Source\PSoC5/CyLib.c **** *  registers are restored to their default values. This means that the voltage
1716:Generated_Source\PSoC5/CyLib.c **** *  monitor circuit is no longer enabled and the device exits reset. If the
1717:Generated_Source\PSoC5/CyLib.c **** *  supply is below the trip level and firmware enables the voltage reset
1718:Generated_Source\PSoC5/CyLib.c **** *  functionality, the device will reset again. This will continue as long as
1719:Generated_Source\PSoC5/CyLib.c **** *  the supply is below the trip level or as long as the user enables the reset
1720:Generated_Source\PSoC5/CyLib.c **** *  functionality of the voltage monitor functionality.
1721:Generated_Source\PSoC5/CyLib.c **** *
1722:Generated_Source\PSoC5/CyLib.c **** *  When any voltage reset occurs, the RESET_SR0 and RESET_SR2 status registers
1723:Generated_Source\PSoC5/CyLib.c **** *  are cleared. This means that analog low-voltage, digital low-voltage and
1724:Generated_Source\PSoC5/CyLib.c **** *  analog high-voltage status bits are not persistent across any voltage reset.
1725:Generated_Source\PSoC5/CyLib.c **** *
1726:Generated_Source\PSoC5/CyLib.c **** *******************************************************************************/
1727:Generated_Source\PSoC5/CyLib.c **** void CyVdLvAnalogEnable(uint8 reset, uint8 threshold) 
1728:Generated_Source\PSoC5/CyLib.c **** {
1729:Generated_Source\PSoC5/CyLib.c ****     uint32 intRegTmp;
1730:Generated_Source\PSoC5/CyLib.c ****     uint8 interruptState;
1731:Generated_Source\PSoC5/CyLib.c **** 
1732:Generated_Source\PSoC5/CyLib.c ****     interruptState = CyEnterCriticalSection();
1733:Generated_Source\PSoC5/CyLib.c **** 
1734:Generated_Source\PSoC5/CyLib.c ****     /* Store interrupt enable state */
1735:Generated_Source\PSoC5/CyLib.c ****     intRegTmp = CY_INT_ENABLE_REG & CY_VD_INT_MASK;
1736:Generated_Source\PSoC5/CyLib.c **** 
1737:Generated_Source\PSoC5/CyLib.c ****     /* Disable VD interrupt (write 1) to protect against glitches */
1738:Generated_Source\PSoC5/CyLib.c ****     CY_INT_CLEAR_REG = CY_VD_INT_MASK;
1739:Generated_Source\PSoC5/CyLib.c **** 
1740:Generated_Source\PSoC5/CyLib.c ****     CY_VD_PRES_CONTROL_REG &= ((uint8)(~CY_VD_PRESA_EN));
1741:Generated_Source\PSoC5/CyLib.c **** 
1742:Generated_Source\PSoC5/CyLib.c ****     CY_VD_LVI_TRIP_REG = ((uint8)(threshold << 4u)) | (CY_VD_LVI_TRIP_REG & 0x0Fu);
1743:Generated_Source\PSoC5/CyLib.c ****     CY_VD_LVI_HVI_CONTROL_REG |= CY_VD_LVIA_EN;
1744:Generated_Source\PSoC5/CyLib.c **** 
1745:Generated_Source\PSoC5/CyLib.c ****     /* Timeout to eliminate glitches on LVI/HVI when enabling (ID # 127412) */
ARM GAS  C:\Users\yqh\AppData\Local\Temp\ccH6G3Im.s 			page 73


1746:Generated_Source\PSoC5/CyLib.c ****     CyDelayUs(1u);
1747:Generated_Source\PSoC5/CyLib.c **** 
1748:Generated_Source\PSoC5/CyLib.c ****     (void) CyVdStickyStatus(CY_VD_LVIA);
1749:Generated_Source\PSoC5/CyLib.c **** 
1750:Generated_Source\PSoC5/CyLib.c ****     if(0u != reset)
1751:Generated_Source\PSoC5/CyLib.c ****     {
1752:Generated_Source\PSoC5/CyLib.c ****         CY_VD_PRES_CONTROL_REG |= CY_VD_PRESA_EN;
1753:Generated_Source\PSoC5/CyLib.c ****     }
1754:Generated_Source\PSoC5/CyLib.c ****     else
1755:Generated_Source\PSoC5/CyLib.c ****     {
1756:Generated_Source\PSoC5/CyLib.c ****         CY_VD_PRES_CONTROL_REG &= ((uint8)(~CY_VD_PRESA_EN));
1757:Generated_Source\PSoC5/CyLib.c ****     }
1758:Generated_Source\PSoC5/CyLib.c **** 
1759:Generated_Source\PSoC5/CyLib.c ****     /* Clear pending interrupt */
1760:Generated_Source\PSoC5/CyLib.c ****     CY_INT_CLR_PEND_REG = CY_VD_INT_MASK;
1761:Generated_Source\PSoC5/CyLib.c **** 
1762:Generated_Source\PSoC5/CyLib.c ****     /* Restore interrupt enable state */
1763:Generated_Source\PSoC5/CyLib.c ****     CY_INT_ENABLE_REG = intRegTmp;
1764:Generated_Source\PSoC5/CyLib.c **** 
1765:Generated_Source\PSoC5/CyLib.c ****     CyExitCriticalSection(interruptState);
1766:Generated_Source\PSoC5/CyLib.c **** }
1767:Generated_Source\PSoC5/CyLib.c **** 
1768:Generated_Source\PSoC5/CyLib.c **** 
1769:Generated_Source\PSoC5/CyLib.c **** /*******************************************************************************
1770:Generated_Source\PSoC5/CyLib.c **** * Function Name: CyVdLvDigitDisable
1771:Generated_Source\PSoC5/CyLib.c **** ****************************************************************************//**
1772:Generated_Source\PSoC5/CyLib.c **** *
1773:Generated_Source\PSoC5/CyLib.c **** *  Disables the digital low-voltage monitor, turns off device reset upon the
1774:Generated_Source\PSoC5/CyLib.c **** *  digital low-voltage event, and clears the associated persistent status bit.
1775:Generated_Source\PSoC5/CyLib.c **** *
1776:Generated_Source\PSoC5/CyLib.c **** *  Note The associated interrupt enable/disable state is not changed by the
1777:Generated_Source\PSoC5/CyLib.c **** *  function. The pending interrupt status is not cleared. The Interrupt
1778:Generated_Source\PSoC5/CyLib.c **** *  component API should be used to manipulate with the associated interrupts.
1779:Generated_Source\PSoC5/CyLib.c **** *
1780:Generated_Source\PSoC5/CyLib.c **** *******************************************************************************/
1781:Generated_Source\PSoC5/CyLib.c **** void CyVdLvDigitDisable(void) 
1782:Generated_Source\PSoC5/CyLib.c **** {
1783:Generated_Source\PSoC5/CyLib.c ****     CY_VD_LVI_HVI_CONTROL_REG &= ((uint8)(~CY_VD_LVID_EN));
1784:Generated_Source\PSoC5/CyLib.c ****     CY_VD_PRES_CONTROL_REG &= ((uint8)(~CY_VD_PRESD_EN));
1785:Generated_Source\PSoC5/CyLib.c ****     (void) CyVdStickyStatus(CY_VD_LVID);
1786:Generated_Source\PSoC5/CyLib.c **** 
1787:Generated_Source\PSoC5/CyLib.c ****     while(0u != (CyVdStickyStatus(CY_VD_LVID) & CY_VD_LVID))
1788:Generated_Source\PSoC5/CyLib.c ****     {
1789:Generated_Source\PSoC5/CyLib.c **** 
1790:Generated_Source\PSoC5/CyLib.c ****     }
1791:Generated_Source\PSoC5/CyLib.c **** }
1792:Generated_Source\PSoC5/CyLib.c **** 
1793:Generated_Source\PSoC5/CyLib.c **** 
1794:Generated_Source\PSoC5/CyLib.c **** /*******************************************************************************
1795:Generated_Source\PSoC5/CyLib.c **** * Function Name: CyVdLvAnalogDisable
1796:Generated_Source\PSoC5/CyLib.c **** ****************************************************************************//**
1797:Generated_Source\PSoC5/CyLib.c **** *
1798:Generated_Source\PSoC5/CyLib.c **** *  Disables the analog low-voltage monitor, turns off device reset upon the
1799:Generated_Source\PSoC5/CyLib.c **** *  analog low-voltage event, and clears the associated persistent status bit.
1800:Generated_Source\PSoC5/CyLib.c **** *
1801:Generated_Source\PSoC5/CyLib.c **** *  Note The associated interrupt enable/disable state is not changed by the
1802:Generated_Source\PSoC5/CyLib.c **** *  function. The pending interrupt status is not cleared. The Interrupt
ARM GAS  C:\Users\yqh\AppData\Local\Temp\ccH6G3Im.s 			page 74


1803:Generated_Source\PSoC5/CyLib.c **** *  component API should be used to manipulate with the associated interrupts.
1804:Generated_Source\PSoC5/CyLib.c **** *
1805:Generated_Source\PSoC5/CyLib.c **** *******************************************************************************/
1806:Generated_Source\PSoC5/CyLib.c **** void CyVdLvAnalogDisable(void) 
1807:Generated_Source\PSoC5/CyLib.c **** {
1808:Generated_Source\PSoC5/CyLib.c ****     CY_VD_LVI_HVI_CONTROL_REG &= ((uint8)(~CY_VD_LVIA_EN));
1809:Generated_Source\PSoC5/CyLib.c ****     CY_VD_PRES_CONTROL_REG &= ((uint8)(~CY_VD_PRESA_EN));
1810:Generated_Source\PSoC5/CyLib.c ****     while(0u != (CyVdStickyStatus(CY_VD_LVIA) & CY_VD_LVIA))
1811:Generated_Source\PSoC5/CyLib.c ****     {
1812:Generated_Source\PSoC5/CyLib.c **** 
1813:Generated_Source\PSoC5/CyLib.c ****     }
1814:Generated_Source\PSoC5/CyLib.c **** }
1815:Generated_Source\PSoC5/CyLib.c **** 
1816:Generated_Source\PSoC5/CyLib.c **** 
1817:Generated_Source\PSoC5/CyLib.c **** /*******************************************************************************
1818:Generated_Source\PSoC5/CyLib.c **** * Function Name: CyVdHvAnalogEnable
1819:Generated_Source\PSoC5/CyLib.c **** ****************************************************************************//**
1820:Generated_Source\PSoC5/CyLib.c **** *
1821:Generated_Source\PSoC5/CyLib.c **** *  Enables the output of the analog high-voltage monitor and sets 5.75 V
1822:Generated_Source\PSoC5/CyLib.c **** *  threshold detection for Vdda.
1823:Generated_Source\PSoC5/CyLib.c **** *
1824:Generated_Source\PSoC5/CyLib.c **** *  Note The associated interrupt enable/disable state is not changed by the
1825:Generated_Source\PSoC5/CyLib.c **** *  function. The Interrupt component API should be used to register the
1826:Generated_Source\PSoC5/CyLib.c **** *  interrupt service routine and to enable/disable associated interrupt.
1827:Generated_Source\PSoC5/CyLib.c **** *
1828:Generated_Source\PSoC5/CyLib.c **** *******************************************************************************/
1829:Generated_Source\PSoC5/CyLib.c **** void CyVdHvAnalogEnable(void) 
1830:Generated_Source\PSoC5/CyLib.c **** {
1831:Generated_Source\PSoC5/CyLib.c ****     uint32 intRegTmp;
1832:Generated_Source\PSoC5/CyLib.c ****     uint8 interruptState;
1833:Generated_Source\PSoC5/CyLib.c **** 
1834:Generated_Source\PSoC5/CyLib.c ****     interruptState = CyEnterCriticalSection();
1835:Generated_Source\PSoC5/CyLib.c **** 
1836:Generated_Source\PSoC5/CyLib.c ****     /* Store interrupt enable state */
1837:Generated_Source\PSoC5/CyLib.c ****     intRegTmp = CY_INT_ENABLE_REG & CY_VD_INT_MASK;
1838:Generated_Source\PSoC5/CyLib.c **** 
1839:Generated_Source\PSoC5/CyLib.c ****     /* Disable VD interrupt (write 1) to protect against glitches */
1840:Generated_Source\PSoC5/CyLib.c ****     CY_INT_CLEAR_REG = CY_VD_INT_MASK;
1841:Generated_Source\PSoC5/CyLib.c **** 
1842:Generated_Source\PSoC5/CyLib.c ****     CY_VD_PRES_CONTROL_REG &= ((uint8)(~CY_VD_PRESA_EN));
1843:Generated_Source\PSoC5/CyLib.c **** 
1844:Generated_Source\PSoC5/CyLib.c ****     CY_VD_LVI_HVI_CONTROL_REG |= CY_VD_HVIA_EN;
1845:Generated_Source\PSoC5/CyLib.c **** 
1846:Generated_Source\PSoC5/CyLib.c ****     /* Timeout to eliminate glitches on the LVI/HVI when enabling (ID # 127412)  */
1847:Generated_Source\PSoC5/CyLib.c ****     CyDelayUs(1u);
1848:Generated_Source\PSoC5/CyLib.c **** 
1849:Generated_Source\PSoC5/CyLib.c ****     (void) CyVdStickyStatus(CY_VD_HVIA);
1850:Generated_Source\PSoC5/CyLib.c **** 
1851:Generated_Source\PSoC5/CyLib.c ****     /* Clear pending interrupt */
1852:Generated_Source\PSoC5/CyLib.c ****     CY_INT_CLR_PEND_REG = CY_VD_INT_MASK;
1853:Generated_Source\PSoC5/CyLib.c **** 
1854:Generated_Source\PSoC5/CyLib.c ****     /* Restore interrupt enable state */
1855:Generated_Source\PSoC5/CyLib.c ****     CY_INT_ENABLE_REG = intRegTmp;
1856:Generated_Source\PSoC5/CyLib.c **** 
1857:Generated_Source\PSoC5/CyLib.c ****     CyExitCriticalSection(interruptState);
1858:Generated_Source\PSoC5/CyLib.c **** }
1859:Generated_Source\PSoC5/CyLib.c **** 
ARM GAS  C:\Users\yqh\AppData\Local\Temp\ccH6G3Im.s 			page 75


1860:Generated_Source\PSoC5/CyLib.c **** 
1861:Generated_Source\PSoC5/CyLib.c **** /*******************************************************************************
1862:Generated_Source\PSoC5/CyLib.c **** * Function Name: CyVdHvAnalogDisable
1863:Generated_Source\PSoC5/CyLib.c **** ****************************************************************************//**
1864:Generated_Source\PSoC5/CyLib.c **** *
1865:Generated_Source\PSoC5/CyLib.c **** *  Disables the analog high-voltage monitor and clears the associated persistent
1866:Generated_Source\PSoC5/CyLib.c **** *  status bit.
1867:Generated_Source\PSoC5/CyLib.c **** *
1868:Generated_Source\PSoC5/CyLib.c **** *  Note The associated interrupt enable/disable state is not changed by the
1869:Generated_Source\PSoC5/CyLib.c **** *  function. The pending interrupt status is not cleared. The Interrupt
1870:Generated_Source\PSoC5/CyLib.c **** *  component API should be used to manipulate with the associated interrupts.
1871:Generated_Source\PSoC5/CyLib.c **** *
1872:Generated_Source\PSoC5/CyLib.c **** *******************************************************************************/
1873:Generated_Source\PSoC5/CyLib.c **** void CyVdHvAnalogDisable(void) 
1874:Generated_Source\PSoC5/CyLib.c **** {
1875:Generated_Source\PSoC5/CyLib.c ****     CY_VD_LVI_HVI_CONTROL_REG &= ((uint8)(~CY_VD_HVIA_EN));
1876:Generated_Source\PSoC5/CyLib.c ****     while(0u != (CyVdStickyStatus(CY_VD_HVIA) & CY_VD_HVIA))
1877:Generated_Source\PSoC5/CyLib.c ****     {
1878:Generated_Source\PSoC5/CyLib.c **** 
1879:Generated_Source\PSoC5/CyLib.c ****     }
1880:Generated_Source\PSoC5/CyLib.c **** }
1881:Generated_Source\PSoC5/CyLib.c **** 
1882:Generated_Source\PSoC5/CyLib.c **** 
1883:Generated_Source\PSoC5/CyLib.c **** /*******************************************************************************
