ARM GAS  C:\Users\yqh\AppData\Local\Temp\cclQOk7v.s 			page 1


   1              		.syntax unified
   2              		.cpu cortex-m3
   3              		.fpu softvfp
   4              		.eabi_attribute 20, 1
   5              		.eabi_attribute 21, 1
   6              		.eabi_attribute 23, 3
   7              		.eabi_attribute 24, 1
   8              		.eabi_attribute 25, 1
   9              		.eabi_attribute 26, 1
  10              		.eabi_attribute 30, 4
  11              		.eabi_attribute 34, 1
  12              		.eabi_attribute 18, 4
  13              		.thumb
  14              		.file	"isr_F2F_edge.c"
  15              		.text
  16              	.Ltext0:
  17              		.cfi_sections	.debug_frame
  18              		.section	.text.isr_F2F_edge_Interrupt,"ax",%progbits
  19              		.align	1
  20              		.global	isr_F2F_edge_Interrupt
  21              		.thumb
  22              		.thumb_func
  23              		.type	isr_F2F_edge_Interrupt, %function
  24              	isr_F2F_edge_Interrupt:
  25              	.LFB66:
  26              		.file 1 "Generated_Source\\PSoC5\\isr_F2F_edge.c"
   1:Generated_Source\PSoC5/isr_F2F_edge.c **** /*******************************************************************************
   2:Generated_Source\PSoC5/isr_F2F_edge.c **** * File Name: isr_F2F_edge.c  
   3:Generated_Source\PSoC5/isr_F2F_edge.c **** * Version 1.70
   4:Generated_Source\PSoC5/isr_F2F_edge.c **** *
   5:Generated_Source\PSoC5/isr_F2F_edge.c **** *  Description:
   6:Generated_Source\PSoC5/isr_F2F_edge.c **** *   API for controlling the state of an interrupt.
   7:Generated_Source\PSoC5/isr_F2F_edge.c **** *
   8:Generated_Source\PSoC5/isr_F2F_edge.c **** *
   9:Generated_Source\PSoC5/isr_F2F_edge.c **** *  Note:
  10:Generated_Source\PSoC5/isr_F2F_edge.c **** *
  11:Generated_Source\PSoC5/isr_F2F_edge.c **** ********************************************************************************
  12:Generated_Source\PSoC5/isr_F2F_edge.c **** * Copyright 2008-2015, Cypress Semiconductor Corporation.  All rights reserved.
  13:Generated_Source\PSoC5/isr_F2F_edge.c **** * You may use this file only in accordance with the license, terms, conditions, 
  14:Generated_Source\PSoC5/isr_F2F_edge.c **** * disclaimers, and limitations in the end user license agreement accompanying 
  15:Generated_Source\PSoC5/isr_F2F_edge.c **** * the software package with which this file was provided.
  16:Generated_Source\PSoC5/isr_F2F_edge.c **** *******************************************************************************/
  17:Generated_Source\PSoC5/isr_F2F_edge.c **** 
  18:Generated_Source\PSoC5/isr_F2F_edge.c **** 
  19:Generated_Source\PSoC5/isr_F2F_edge.c **** #include <cydevice_trm.h>
  20:Generated_Source\PSoC5/isr_F2F_edge.c **** #include <CyLib.h>
  21:Generated_Source\PSoC5/isr_F2F_edge.c **** #include <isr_F2F_edge.h>
  22:Generated_Source\PSoC5/isr_F2F_edge.c **** 
  23:Generated_Source\PSoC5/isr_F2F_edge.c **** 
  24:Generated_Source\PSoC5/isr_F2F_edge.c **** #if !defined(isr_F2F_edge__REMOVED) /* Check for removal by optimization */
  25:Generated_Source\PSoC5/isr_F2F_edge.c **** 
  26:Generated_Source\PSoC5/isr_F2F_edge.c **** /*******************************************************************************
  27:Generated_Source\PSoC5/isr_F2F_edge.c **** *  Place your includes, defines and code here 
  28:Generated_Source\PSoC5/isr_F2F_edge.c **** ********************************************************************************/
  29:Generated_Source\PSoC5/isr_F2F_edge.c **** /* `#START isr_F2F_edge_intc` */
  30:Generated_Source\PSoC5/isr_F2F_edge.c **** #include "FilterReg.h"
  31:Generated_Source\PSoC5/isr_F2F_edge.c **** #include "Timeout_Timer_ISR.h"
ARM GAS  C:\Users\yqh\AppData\Local\Temp\cclQOk7v.s 			page 2


  32:Generated_Source\PSoC5/isr_F2F_edge.c **** #include "system.h"
  33:Generated_Source\PSoC5/isr_F2F_edge.c **** //#include "LED_YEL.h" //debug
  34:Generated_Source\PSoC5/isr_F2F_edge.c **** //uint8 ledyelon; //debug   
  35:Generated_Source\PSoC5/isr_F2F_edge.c ****     
  36:Generated_Source\PSoC5/isr_F2F_edge.c **** int f2f_pulsewidth;
  37:Generated_Source\PSoC5/isr_F2F_edge.c **** int f2f_timeout;
  38:Generated_Source\PSoC5/isr_F2F_edge.c ****     
  39:Generated_Source\PSoC5/isr_F2F_edge.c **** /* F2F reader acknowledgement */
  40:Generated_Source\PSoC5/isr_F2F_edge.c **** char f2f_acknowledge_active;
  41:Generated_Source\PSoC5/isr_F2F_edge.c **** char f2f_ack_delay_cnt;
  42:Generated_Source\PSoC5/isr_F2F_edge.c **** 
  43:Generated_Source\PSoC5/isr_F2F_edge.c ****    
  44:Generated_Source\PSoC5/isr_F2F_edge.c **** /* `#END` */
  45:Generated_Source\PSoC5/isr_F2F_edge.c **** 
  46:Generated_Source\PSoC5/isr_F2F_edge.c **** #ifndef CYINT_IRQ_BASE
  47:Generated_Source\PSoC5/isr_F2F_edge.c **** #define CYINT_IRQ_BASE      16
  48:Generated_Source\PSoC5/isr_F2F_edge.c **** #endif /* CYINT_IRQ_BASE */
  49:Generated_Source\PSoC5/isr_F2F_edge.c **** #ifndef CYINT_VECT_TABLE
  50:Generated_Source\PSoC5/isr_F2F_edge.c **** #define CYINT_VECT_TABLE    ((cyisraddress **) CYREG_NVIC_VECT_OFFSET)
  51:Generated_Source\PSoC5/isr_F2F_edge.c **** #endif /* CYINT_VECT_TABLE */
  52:Generated_Source\PSoC5/isr_F2F_edge.c **** 
  53:Generated_Source\PSoC5/isr_F2F_edge.c **** /* Declared in startup, used to set unused interrupts to. */
  54:Generated_Source\PSoC5/isr_F2F_edge.c **** CY_ISR_PROTO(IntDefaultHandler);
  55:Generated_Source\PSoC5/isr_F2F_edge.c **** 
  56:Generated_Source\PSoC5/isr_F2F_edge.c **** 
  57:Generated_Source\PSoC5/isr_F2F_edge.c **** /*******************************************************************************
  58:Generated_Source\PSoC5/isr_F2F_edge.c **** * Function Name: isr_F2F_edge_Start
  59:Generated_Source\PSoC5/isr_F2F_edge.c **** ********************************************************************************
  60:Generated_Source\PSoC5/isr_F2F_edge.c **** *
  61:Generated_Source\PSoC5/isr_F2F_edge.c **** * Summary:
  62:Generated_Source\PSoC5/isr_F2F_edge.c **** *  Set up the interrupt and enable it. This function disables the interrupt, 
  63:Generated_Source\PSoC5/isr_F2F_edge.c **** *  sets the default interrupt vector, sets the priority from the value in the
  64:Generated_Source\PSoC5/isr_F2F_edge.c **** *  Design Wide Resources Interrupt Editor, then enables the interrupt to the 
  65:Generated_Source\PSoC5/isr_F2F_edge.c **** *  interrupt controller.
  66:Generated_Source\PSoC5/isr_F2F_edge.c **** *
  67:Generated_Source\PSoC5/isr_F2F_edge.c **** * Parameters:  
  68:Generated_Source\PSoC5/isr_F2F_edge.c **** *   None
  69:Generated_Source\PSoC5/isr_F2F_edge.c **** *
  70:Generated_Source\PSoC5/isr_F2F_edge.c **** * Return:
  71:Generated_Source\PSoC5/isr_F2F_edge.c **** *   None
  72:Generated_Source\PSoC5/isr_F2F_edge.c **** *
  73:Generated_Source\PSoC5/isr_F2F_edge.c **** *******************************************************************************/
  74:Generated_Source\PSoC5/isr_F2F_edge.c **** void isr_F2F_edge_Start(void)
  75:Generated_Source\PSoC5/isr_F2F_edge.c **** {
  76:Generated_Source\PSoC5/isr_F2F_edge.c ****     /* For all we know the interrupt is active. */
  77:Generated_Source\PSoC5/isr_F2F_edge.c ****     isr_F2F_edge_Disable();
  78:Generated_Source\PSoC5/isr_F2F_edge.c **** 
  79:Generated_Source\PSoC5/isr_F2F_edge.c ****     /* Set the ISR to point to the isr_F2F_edge Interrupt. */
  80:Generated_Source\PSoC5/isr_F2F_edge.c ****     isr_F2F_edge_SetVector(&isr_F2F_edge_Interrupt);
  81:Generated_Source\PSoC5/isr_F2F_edge.c **** 
  82:Generated_Source\PSoC5/isr_F2F_edge.c ****     /* Set the priority. */
  83:Generated_Source\PSoC5/isr_F2F_edge.c ****     isr_F2F_edge_SetPriority((uint8)isr_F2F_edge_INTC_PRIOR_NUMBER);
  84:Generated_Source\PSoC5/isr_F2F_edge.c **** 
  85:Generated_Source\PSoC5/isr_F2F_edge.c ****     /* Enable it. */
  86:Generated_Source\PSoC5/isr_F2F_edge.c ****     isr_F2F_edge_Enable();
  87:Generated_Source\PSoC5/isr_F2F_edge.c **** }
  88:Generated_Source\PSoC5/isr_F2F_edge.c **** 
ARM GAS  C:\Users\yqh\AppData\Local\Temp\cclQOk7v.s 			page 3


  89:Generated_Source\PSoC5/isr_F2F_edge.c **** 
  90:Generated_Source\PSoC5/isr_F2F_edge.c **** /*******************************************************************************
  91:Generated_Source\PSoC5/isr_F2F_edge.c **** * Function Name: isr_F2F_edge_StartEx
  92:Generated_Source\PSoC5/isr_F2F_edge.c **** ********************************************************************************
  93:Generated_Source\PSoC5/isr_F2F_edge.c **** *
  94:Generated_Source\PSoC5/isr_F2F_edge.c **** * Summary:
  95:Generated_Source\PSoC5/isr_F2F_edge.c **** *  Sets up the interrupt and enables it. This function disables the interrupt,
  96:Generated_Source\PSoC5/isr_F2F_edge.c **** *  sets the interrupt vector based on the address passed in, sets the priority 
  97:Generated_Source\PSoC5/isr_F2F_edge.c **** *  from the value in the Design Wide Resources Interrupt Editor, then enables 
  98:Generated_Source\PSoC5/isr_F2F_edge.c **** *  the interrupt to the interrupt controller.
  99:Generated_Source\PSoC5/isr_F2F_edge.c **** *  
 100:Generated_Source\PSoC5/isr_F2F_edge.c **** *  When defining ISR functions, the CY_ISR and CY_ISR_PROTO macros should be 
 101:Generated_Source\PSoC5/isr_F2F_edge.c **** *  used to provide consistent definition across compilers:
 102:Generated_Source\PSoC5/isr_F2F_edge.c **** *  
 103:Generated_Source\PSoC5/isr_F2F_edge.c **** *  Function definition example:
 104:Generated_Source\PSoC5/isr_F2F_edge.c **** *   CY_ISR(MyISR)
 105:Generated_Source\PSoC5/isr_F2F_edge.c **** *   {
 106:Generated_Source\PSoC5/isr_F2F_edge.c **** *   }
 107:Generated_Source\PSoC5/isr_F2F_edge.c **** *   Function prototype example:
 108:Generated_Source\PSoC5/isr_F2F_edge.c **** *   CY_ISR_PROTO(MyISR);
 109:Generated_Source\PSoC5/isr_F2F_edge.c **** *
 110:Generated_Source\PSoC5/isr_F2F_edge.c **** * Parameters:  
 111:Generated_Source\PSoC5/isr_F2F_edge.c **** *   address: Address of the ISR to set in the interrupt vector table.
 112:Generated_Source\PSoC5/isr_F2F_edge.c **** *
 113:Generated_Source\PSoC5/isr_F2F_edge.c **** * Return:
 114:Generated_Source\PSoC5/isr_F2F_edge.c **** *   None
 115:Generated_Source\PSoC5/isr_F2F_edge.c **** *
 116:Generated_Source\PSoC5/isr_F2F_edge.c **** *******************************************************************************/
 117:Generated_Source\PSoC5/isr_F2F_edge.c **** void isr_F2F_edge_StartEx(cyisraddress address)
 118:Generated_Source\PSoC5/isr_F2F_edge.c **** {
 119:Generated_Source\PSoC5/isr_F2F_edge.c ****     /* For all we know the interrupt is active. */
 120:Generated_Source\PSoC5/isr_F2F_edge.c ****     isr_F2F_edge_Disable();
 121:Generated_Source\PSoC5/isr_F2F_edge.c **** 
 122:Generated_Source\PSoC5/isr_F2F_edge.c ****     /* Set the ISR to point to the isr_F2F_edge Interrupt. */
 123:Generated_Source\PSoC5/isr_F2F_edge.c ****     isr_F2F_edge_SetVector(address);
 124:Generated_Source\PSoC5/isr_F2F_edge.c **** 
 125:Generated_Source\PSoC5/isr_F2F_edge.c ****     /* Set the priority. */
 126:Generated_Source\PSoC5/isr_F2F_edge.c ****     isr_F2F_edge_SetPriority((uint8)isr_F2F_edge_INTC_PRIOR_NUMBER);
 127:Generated_Source\PSoC5/isr_F2F_edge.c **** 
 128:Generated_Source\PSoC5/isr_F2F_edge.c ****     /* Enable it. */
 129:Generated_Source\PSoC5/isr_F2F_edge.c ****     isr_F2F_edge_Enable();
 130:Generated_Source\PSoC5/isr_F2F_edge.c **** }
 131:Generated_Source\PSoC5/isr_F2F_edge.c **** 
 132:Generated_Source\PSoC5/isr_F2F_edge.c **** 
 133:Generated_Source\PSoC5/isr_F2F_edge.c **** /*******************************************************************************
 134:Generated_Source\PSoC5/isr_F2F_edge.c **** * Function Name: isr_F2F_edge_Stop
 135:Generated_Source\PSoC5/isr_F2F_edge.c **** ********************************************************************************
 136:Generated_Source\PSoC5/isr_F2F_edge.c **** *
 137:Generated_Source\PSoC5/isr_F2F_edge.c **** * Summary:
 138:Generated_Source\PSoC5/isr_F2F_edge.c **** *   Disables and removes the interrupt.
 139:Generated_Source\PSoC5/isr_F2F_edge.c **** *
 140:Generated_Source\PSoC5/isr_F2F_edge.c **** * Parameters:  
 141:Generated_Source\PSoC5/isr_F2F_edge.c **** *   None
 142:Generated_Source\PSoC5/isr_F2F_edge.c **** *
 143:Generated_Source\PSoC5/isr_F2F_edge.c **** * Return:
 144:Generated_Source\PSoC5/isr_F2F_edge.c **** *   None
 145:Generated_Source\PSoC5/isr_F2F_edge.c **** *
ARM GAS  C:\Users\yqh\AppData\Local\Temp\cclQOk7v.s 			page 4


 146:Generated_Source\PSoC5/isr_F2F_edge.c **** *******************************************************************************/
 147:Generated_Source\PSoC5/isr_F2F_edge.c **** void isr_F2F_edge_Stop(void)
 148:Generated_Source\PSoC5/isr_F2F_edge.c **** {
 149:Generated_Source\PSoC5/isr_F2F_edge.c ****     /* Disable this interrupt. */
 150:Generated_Source\PSoC5/isr_F2F_edge.c ****     isr_F2F_edge_Disable();
 151:Generated_Source\PSoC5/isr_F2F_edge.c **** 
 152:Generated_Source\PSoC5/isr_F2F_edge.c ****     /* Set the ISR to point to the passive one. */
 153:Generated_Source\PSoC5/isr_F2F_edge.c ****     isr_F2F_edge_SetVector(&IntDefaultHandler);
 154:Generated_Source\PSoC5/isr_F2F_edge.c **** }
 155:Generated_Source\PSoC5/isr_F2F_edge.c **** 
 156:Generated_Source\PSoC5/isr_F2F_edge.c **** 
 157:Generated_Source\PSoC5/isr_F2F_edge.c **** /*******************************************************************************
 158:Generated_Source\PSoC5/isr_F2F_edge.c **** * Function Name: isr_F2F_edge_Interrupt
 159:Generated_Source\PSoC5/isr_F2F_edge.c **** ********************************************************************************
 160:Generated_Source\PSoC5/isr_F2F_edge.c **** *
 161:Generated_Source\PSoC5/isr_F2F_edge.c **** * Summary:
 162:Generated_Source\PSoC5/isr_F2F_edge.c **** *   The default Interrupt Service Routine for isr_F2F_edge.
 163:Generated_Source\PSoC5/isr_F2F_edge.c **** *
 164:Generated_Source\PSoC5/isr_F2F_edge.c **** *   Add custom code between the coments to keep the next version of this file
 165:Generated_Source\PSoC5/isr_F2F_edge.c **** *   from over writting your code.
 166:Generated_Source\PSoC5/isr_F2F_edge.c **** *
 167:Generated_Source\PSoC5/isr_F2F_edge.c **** * Parameters:  
 168:Generated_Source\PSoC5/isr_F2F_edge.c **** *
 169:Generated_Source\PSoC5/isr_F2F_edge.c **** * Return:
 170:Generated_Source\PSoC5/isr_F2F_edge.c **** *   None
 171:Generated_Source\PSoC5/isr_F2F_edge.c **** *
 172:Generated_Source\PSoC5/isr_F2F_edge.c **** *******************************************************************************/
 173:Generated_Source\PSoC5/isr_F2F_edge.c **** CY_ISR(isr_F2F_edge_Interrupt)
 174:Generated_Source\PSoC5/isr_F2F_edge.c **** {
  27              		.loc 1 174 0
  28              		.cfi_startproc
  29              		@ args = 0, pretend = 0, frame = 0
  30              		@ frame_needed = 0, uses_anonymous_args = 0
  31 0000 38B5     		push	{r3, r4, r5, lr}
  32              		.cfi_def_cfa_offset 16
  33              		.cfi_offset 3, -16
  34              		.cfi_offset 4, -12
  35              		.cfi_offset 5, -8
  36              		.cfi_offset 14, -4
 175:Generated_Source\PSoC5/isr_F2F_edge.c ****     #ifdef isr_F2F_edge_INTERRUPT_INTERRUPT_CALLBACK
 176:Generated_Source\PSoC5/isr_F2F_edge.c ****         isr_F2F_edge_Interrupt_InterruptCallback();
 177:Generated_Source\PSoC5/isr_F2F_edge.c ****     #endif /* isr_F2F_edge_INTERRUPT_INTERRUPT_CALLBACK */ 
 178:Generated_Source\PSoC5/isr_F2F_edge.c **** 
 179:Generated_Source\PSoC5/isr_F2F_edge.c ****     /*  Place your Interrupt code here. */
 180:Generated_Source\PSoC5/isr_F2F_edge.c ****     /* `#START isr_F2F_edge_Interrupt` */
 181:Generated_Source\PSoC5/isr_F2F_edge.c **** 
 182:Generated_Source\PSoC5/isr_F2F_edge.c ****     FilterReg_Read();  //reset debouncer
  37              		.loc 1 182 0
  38 0002 FFF7FEFF 		bl	FilterReg_Read
  39              	.LVL0:
 183:Generated_Source\PSoC5/isr_F2F_edge.c ****     if(run_mode == MODE_F2F || run_mode == MODE_F2F + BASE_PASS || run_mode == MODE_F2F + BASE_TOC)
  40              		.loc 1 183 0
  41 0006 114B     		ldr	r3, .L12
  42 0008 1B78     		ldrb	r3, [r3]	@ zero_extendqisi2
  43 000a 052B     		cmp	r3, #5
  44 000c 03D0     		beq	.L2
  45              		.loc 1 183 0 is_stmt 0 discriminator 1
ARM GAS  C:\Users\yqh\AppData\Local\Temp\cclQOk7v.s 			page 5


  46 000e 692B     		cmp	r3, #105
  47 0010 01D0     		beq	.L2
  48              		.loc 1 183 0 discriminator 2
  49 0012 372B     		cmp	r3, #55
  50 0014 19D1     		bne	.L1
  51              	.L2:
  52              	.LBB24:
  53              	.LBB25:
 184:Generated_Source\PSoC5/isr_F2F_edge.c ****     {
 185:Generated_Source\PSoC5/isr_F2F_edge.c ****         Timeout_Timer_Isr_Disable();
 186:Generated_Source\PSoC5/isr_F2F_edge.c ****         f2f_pulsewidth = f2f_timeout;
  54              		.loc 1 186 0 is_stmt 1
  55 0016 0E4C     		ldr	r4, .L12+4
 185:Generated_Source\PSoC5/isr_F2F_edge.c ****         f2f_pulsewidth = f2f_timeout;
  56              		.loc 1 185 0
  57 0018 FFF7FEFF 		bl	Timeout_Timer_Isr_Disable
  58              	.LVL1:
  59              		.loc 1 186 0
  60 001c 0D4D     		ldr	r5, .L12+8
  61 001e 2368     		ldr	r3, [r4]
  62 0020 2B60     		str	r3, [r5]
 187:Generated_Source\PSoC5/isr_F2F_edge.c ****         Timeout_Timer_Isr_Enable();
  63              		.loc 1 187 0
  64 0022 FFF7FEFF 		bl	Timeout_Timer_Isr_Enable
  65              	.LVL2:
 188:Generated_Source\PSoC5/isr_F2F_edge.c ****         
 189:Generated_Source\PSoC5/isr_F2F_edge.c ****         if (f2f_pulsewidth < 0x40){
  66              		.loc 1 189 0
  67 0026 2B68     		ldr	r3, [r5]
  68 0028 3F2B     		cmp	r3, #63
 190:Generated_Source\PSoC5/isr_F2F_edge.c ****             //start an acknowledgement to the F2F reader for the Supervision mode
 191:Generated_Source\PSoC5/isr_F2F_edge.c ****             f2f_ack_delay_cnt = 0;
  69              		.loc 1 191 0
  70 002a DFBF     		itttt	le
  71 002c 0A4B     		ldrle	r3, .L12+12
  72 002e 0022     		movle	r2, #0
  73 0030 1A70     		strble	r2, [r3]
 192:Generated_Source\PSoC5/isr_F2F_edge.c ****             f2f_acknowledge_active = 1;
  74              		.loc 1 192 0
  75 0032 0A4B     		ldrle	r3, .L12+16
  76 0034 DCBF     		itt	le
  77 0036 0122     		movle	r2, #1
  78 0038 1A70     		strble	r2, [r3]
 193:Generated_Source\PSoC5/isr_F2F_edge.c ****         }
 194:Generated_Source\PSoC5/isr_F2F_edge.c ****         
 195:Generated_Source\PSoC5/isr_F2F_edge.c ****         Timeout_Timer_Isr_Disable();
  79              		.loc 1 195 0
  80 003a FFF7FEFF 		bl	Timeout_Timer_Isr_Disable
  81              	.LVL3:
 196:Generated_Source\PSoC5/isr_F2F_edge.c ****         f2f_timeout = 0;
  82              		.loc 1 196 0
  83 003e 0023     		movs	r3, #0
  84 0040 2360     		str	r3, [r4]
  85              	.LBE25:
  86              	.LBE24:
 197:Generated_Source\PSoC5/isr_F2F_edge.c ****         Timeout_Timer_Isr_Enable();
 198:Generated_Source\PSoC5/isr_F2F_edge.c ****     }
ARM GAS  C:\Users\yqh\AppData\Local\Temp\cclQOk7v.s 			page 6


 199:Generated_Source\PSoC5/isr_F2F_edge.c **** 
 200:Generated_Source\PSoC5/isr_F2F_edge.c ****     /* `#END` */
 201:Generated_Source\PSoC5/isr_F2F_edge.c **** }
  87              		.loc 1 201 0
  88 0042 BDE83840 		pop	{r3, r4, r5, lr}
  89              		.cfi_remember_state
  90              		.cfi_restore 14
  91              		.cfi_restore 5
  92              		.cfi_restore 4
  93              		.cfi_restore 3
  94              		.cfi_def_cfa_offset 0
  95              	.LBB27:
  96              	.LBB26:
 197:Generated_Source\PSoC5/isr_F2F_edge.c ****         Timeout_Timer_Isr_Enable();
  97              		.loc 1 197 0
  98 0046 FFF7FEBF 		b	Timeout_Timer_Isr_Enable
  99              	.LVL4:
 100              	.L1:
 101              		.cfi_restore_state
 102 004a 38BD     		pop	{r3, r4, r5, pc}
 103              	.L13:
 104              		.align	2
 105              	.L12:
 106 004c 00000000 		.word	run_mode
 107 0050 00000000 		.word	f2f_timeout
 108 0054 00000000 		.word	f2f_pulsewidth
 109 0058 00000000 		.word	f2f_ack_delay_cnt
 110 005c 00000000 		.word	f2f_acknowledge_active
 111              	.LBE26:
 112              	.LBE27:
 113              		.cfi_endproc
 114              	.LFE66:
 115              		.size	isr_F2F_edge_Interrupt, .-isr_F2F_edge_Interrupt
 116              		.section	.text.isr_F2F_edge_Start,"ax",%progbits
 117              		.align	1
 118              		.global	isr_F2F_edge_Start
 119              		.thumb
 120              		.thumb_func
 121              		.type	isr_F2F_edge_Start, %function
 122              	isr_F2F_edge_Start:
 123              	.LFB63:
  75:Generated_Source\PSoC5/isr_F2F_edge.c ****     /* For all we know the interrupt is active. */
 124              		.loc 1 75 0
 125              		.cfi_startproc
 126              		@ args = 0, pretend = 0, frame = 0
 127              		@ frame_needed = 0, uses_anonymous_args = 0
 128              		@ link register save eliminated.
 129              	.LBB28:
 130              	.LBB29:
 202:Generated_Source\PSoC5/isr_F2F_edge.c **** 
 203:Generated_Source\PSoC5/isr_F2F_edge.c **** 
 204:Generated_Source\PSoC5/isr_F2F_edge.c **** /*******************************************************************************
 205:Generated_Source\PSoC5/isr_F2F_edge.c **** * Function Name: isr_F2F_edge_SetVector
 206:Generated_Source\PSoC5/isr_F2F_edge.c **** ********************************************************************************
 207:Generated_Source\PSoC5/isr_F2F_edge.c **** *
 208:Generated_Source\PSoC5/isr_F2F_edge.c **** * Summary:
 209:Generated_Source\PSoC5/isr_F2F_edge.c **** *   Change the ISR vector for the Interrupt. Note calling isr_F2F_edge_Start
ARM GAS  C:\Users\yqh\AppData\Local\Temp\cclQOk7v.s 			page 7


 210:Generated_Source\PSoC5/isr_F2F_edge.c **** *   will override any effect this method would have had. To set the vector 
 211:Generated_Source\PSoC5/isr_F2F_edge.c **** *   before the component has been started use isr_F2F_edge_StartEx instead.
 212:Generated_Source\PSoC5/isr_F2F_edge.c **** * 
 213:Generated_Source\PSoC5/isr_F2F_edge.c **** *   When defining ISR functions, the CY_ISR and CY_ISR_PROTO macros should be 
 214:Generated_Source\PSoC5/isr_F2F_edge.c **** *   used to provide consistent definition across compilers:
 215:Generated_Source\PSoC5/isr_F2F_edge.c **** *
 216:Generated_Source\PSoC5/isr_F2F_edge.c **** *   Function definition example:
 217:Generated_Source\PSoC5/isr_F2F_edge.c **** *   CY_ISR(MyISR)
 218:Generated_Source\PSoC5/isr_F2F_edge.c **** *   {
 219:Generated_Source\PSoC5/isr_F2F_edge.c **** *   }
 220:Generated_Source\PSoC5/isr_F2F_edge.c **** *
 221:Generated_Source\PSoC5/isr_F2F_edge.c **** *   Function prototype example:
 222:Generated_Source\PSoC5/isr_F2F_edge.c **** *     CY_ISR_PROTO(MyISR);
 223:Generated_Source\PSoC5/isr_F2F_edge.c **** *
 224:Generated_Source\PSoC5/isr_F2F_edge.c **** * Parameters:
 225:Generated_Source\PSoC5/isr_F2F_edge.c **** *   address: Address of the ISR to set in the interrupt vector table.
 226:Generated_Source\PSoC5/isr_F2F_edge.c **** *
 227:Generated_Source\PSoC5/isr_F2F_edge.c **** * Return:
 228:Generated_Source\PSoC5/isr_F2F_edge.c **** *   None
 229:Generated_Source\PSoC5/isr_F2F_edge.c **** *
 230:Generated_Source\PSoC5/isr_F2F_edge.c **** *******************************************************************************/
 231:Generated_Source\PSoC5/isr_F2F_edge.c **** void isr_F2F_edge_SetVector(cyisraddress address)
 232:Generated_Source\PSoC5/isr_F2F_edge.c **** {
 233:Generated_Source\PSoC5/isr_F2F_edge.c ****     cyisraddress * ramVectorTable;
 234:Generated_Source\PSoC5/isr_F2F_edge.c **** 
 235:Generated_Source\PSoC5/isr_F2F_edge.c ****     ramVectorTable = (cyisraddress *) *CYINT_VECT_TABLE;
 236:Generated_Source\PSoC5/isr_F2F_edge.c **** 
 237:Generated_Source\PSoC5/isr_F2F_edge.c ****     ramVectorTable[CYINT_IRQ_BASE + (uint32)isr_F2F_edge__INTC_NUMBER] = address;
 238:Generated_Source\PSoC5/isr_F2F_edge.c **** }
 239:Generated_Source\PSoC5/isr_F2F_edge.c **** 
 240:Generated_Source\PSoC5/isr_F2F_edge.c **** 
 241:Generated_Source\PSoC5/isr_F2F_edge.c **** /*******************************************************************************
 242:Generated_Source\PSoC5/isr_F2F_edge.c **** * Function Name: isr_F2F_edge_GetVector
 243:Generated_Source\PSoC5/isr_F2F_edge.c **** ********************************************************************************
 244:Generated_Source\PSoC5/isr_F2F_edge.c **** *
 245:Generated_Source\PSoC5/isr_F2F_edge.c **** * Summary:
 246:Generated_Source\PSoC5/isr_F2F_edge.c **** *   Gets the "address" of the current ISR vector for the Interrupt.
 247:Generated_Source\PSoC5/isr_F2F_edge.c **** *
 248:Generated_Source\PSoC5/isr_F2F_edge.c **** * Parameters:
 249:Generated_Source\PSoC5/isr_F2F_edge.c **** *   None
 250:Generated_Source\PSoC5/isr_F2F_edge.c **** *
 251:Generated_Source\PSoC5/isr_F2F_edge.c **** * Return:
 252:Generated_Source\PSoC5/isr_F2F_edge.c **** *   Address of the ISR in the interrupt vector table.
 253:Generated_Source\PSoC5/isr_F2F_edge.c **** *
 254:Generated_Source\PSoC5/isr_F2F_edge.c **** *******************************************************************************/
 255:Generated_Source\PSoC5/isr_F2F_edge.c **** cyisraddress isr_F2F_edge_GetVector(void)
 256:Generated_Source\PSoC5/isr_F2F_edge.c **** {
 257:Generated_Source\PSoC5/isr_F2F_edge.c ****     cyisraddress * ramVectorTable;
 258:Generated_Source\PSoC5/isr_F2F_edge.c **** 
 259:Generated_Source\PSoC5/isr_F2F_edge.c ****     ramVectorTable = (cyisraddress *) *CYINT_VECT_TABLE;
 260:Generated_Source\PSoC5/isr_F2F_edge.c **** 
 261:Generated_Source\PSoC5/isr_F2F_edge.c ****     return ramVectorTable[CYINT_IRQ_BASE + (uint32)isr_F2F_edge__INTC_NUMBER];
 262:Generated_Source\PSoC5/isr_F2F_edge.c **** }
 263:Generated_Source\PSoC5/isr_F2F_edge.c **** 
 264:Generated_Source\PSoC5/isr_F2F_edge.c **** 
 265:Generated_Source\PSoC5/isr_F2F_edge.c **** /*******************************************************************************
 266:Generated_Source\PSoC5/isr_F2F_edge.c **** * Function Name: isr_F2F_edge_SetPriority
ARM GAS  C:\Users\yqh\AppData\Local\Temp\cclQOk7v.s 			page 8


 267:Generated_Source\PSoC5/isr_F2F_edge.c **** ********************************************************************************
 268:Generated_Source\PSoC5/isr_F2F_edge.c **** *
 269:Generated_Source\PSoC5/isr_F2F_edge.c **** * Summary:
 270:Generated_Source\PSoC5/isr_F2F_edge.c **** *   Sets the Priority of the Interrupt. 
 271:Generated_Source\PSoC5/isr_F2F_edge.c **** *
 272:Generated_Source\PSoC5/isr_F2F_edge.c **** *   Note calling isr_F2F_edge_Start or isr_F2F_edge_StartEx will 
 273:Generated_Source\PSoC5/isr_F2F_edge.c **** *   override any effect this API would have had. This API should only be called
 274:Generated_Source\PSoC5/isr_F2F_edge.c **** *   after isr_F2F_edge_Start or isr_F2F_edge_StartEx has been called. 
 275:Generated_Source\PSoC5/isr_F2F_edge.c **** *   To set the initial priority for the component, use the Design-Wide Resources
 276:Generated_Source\PSoC5/isr_F2F_edge.c **** *   Interrupt Editor.
 277:Generated_Source\PSoC5/isr_F2F_edge.c **** *
 278:Generated_Source\PSoC5/isr_F2F_edge.c **** *   Note This API has no effect on Non-maskable interrupt NMI).
 279:Generated_Source\PSoC5/isr_F2F_edge.c **** *
 280:Generated_Source\PSoC5/isr_F2F_edge.c **** * Parameters:
 281:Generated_Source\PSoC5/isr_F2F_edge.c **** *   priority: Priority of the interrupt, 0 being the highest priority
 282:Generated_Source\PSoC5/isr_F2F_edge.c **** *             PSoC 3 and PSoC 5LP: Priority is from 0 to 7.
 283:Generated_Source\PSoC5/isr_F2F_edge.c **** *             PSoC 4: Priority is from 0 to 3.
 284:Generated_Source\PSoC5/isr_F2F_edge.c **** *
 285:Generated_Source\PSoC5/isr_F2F_edge.c **** * Return:
 286:Generated_Source\PSoC5/isr_F2F_edge.c **** *   None
 287:Generated_Source\PSoC5/isr_F2F_edge.c **** *
 288:Generated_Source\PSoC5/isr_F2F_edge.c **** *******************************************************************************/
 289:Generated_Source\PSoC5/isr_F2F_edge.c **** void isr_F2F_edge_SetPriority(uint8 priority)
 290:Generated_Source\PSoC5/isr_F2F_edge.c **** {
 291:Generated_Source\PSoC5/isr_F2F_edge.c ****     *isr_F2F_edge_INTC_PRIOR = priority << 5;
 292:Generated_Source\PSoC5/isr_F2F_edge.c **** }
 293:Generated_Source\PSoC5/isr_F2F_edge.c **** 
 294:Generated_Source\PSoC5/isr_F2F_edge.c **** 
 295:Generated_Source\PSoC5/isr_F2F_edge.c **** /*******************************************************************************
 296:Generated_Source\PSoC5/isr_F2F_edge.c **** * Function Name: isr_F2F_edge_GetPriority
 297:Generated_Source\PSoC5/isr_F2F_edge.c **** ********************************************************************************
 298:Generated_Source\PSoC5/isr_F2F_edge.c **** *
 299:Generated_Source\PSoC5/isr_F2F_edge.c **** * Summary:
 300:Generated_Source\PSoC5/isr_F2F_edge.c **** *   Gets the Priority of the Interrupt.
 301:Generated_Source\PSoC5/isr_F2F_edge.c **** *
 302:Generated_Source\PSoC5/isr_F2F_edge.c **** * Parameters:
 303:Generated_Source\PSoC5/isr_F2F_edge.c **** *   None
 304:Generated_Source\PSoC5/isr_F2F_edge.c **** *
 305:Generated_Source\PSoC5/isr_F2F_edge.c **** * Return:
 306:Generated_Source\PSoC5/isr_F2F_edge.c **** *   Priority of the interrupt, 0 being the highest priority
 307:Generated_Source\PSoC5/isr_F2F_edge.c **** *    PSoC 3 and PSoC 5LP: Priority is from 0 to 7.
 308:Generated_Source\PSoC5/isr_F2F_edge.c **** *    PSoC 4: Priority is from 0 to 3.
 309:Generated_Source\PSoC5/isr_F2F_edge.c **** *
 310:Generated_Source\PSoC5/isr_F2F_edge.c **** *******************************************************************************/
 311:Generated_Source\PSoC5/isr_F2F_edge.c **** uint8 isr_F2F_edge_GetPriority(void)
 312:Generated_Source\PSoC5/isr_F2F_edge.c **** {
 313:Generated_Source\PSoC5/isr_F2F_edge.c ****     uint8 priority;
 314:Generated_Source\PSoC5/isr_F2F_edge.c **** 
 315:Generated_Source\PSoC5/isr_F2F_edge.c **** 
 316:Generated_Source\PSoC5/isr_F2F_edge.c ****     priority = *isr_F2F_edge_INTC_PRIOR >> 5;
 317:Generated_Source\PSoC5/isr_F2F_edge.c **** 
 318:Generated_Source\PSoC5/isr_F2F_edge.c ****     return priority;
 319:Generated_Source\PSoC5/isr_F2F_edge.c **** }
 320:Generated_Source\PSoC5/isr_F2F_edge.c **** 
 321:Generated_Source\PSoC5/isr_F2F_edge.c **** 
 322:Generated_Source\PSoC5/isr_F2F_edge.c **** /*******************************************************************************
 323:Generated_Source\PSoC5/isr_F2F_edge.c **** * Function Name: isr_F2F_edge_Enable
ARM GAS  C:\Users\yqh\AppData\Local\Temp\cclQOk7v.s 			page 9


 324:Generated_Source\PSoC5/isr_F2F_edge.c **** ********************************************************************************
 325:Generated_Source\PSoC5/isr_F2F_edge.c **** *
 326:Generated_Source\PSoC5/isr_F2F_edge.c **** * Summary:
 327:Generated_Source\PSoC5/isr_F2F_edge.c **** *   Enables the interrupt to the interrupt controller. Do not call this function
 328:Generated_Source\PSoC5/isr_F2F_edge.c **** *   unless ISR_Start() has been called or the functionality of the ISR_Start() 
 329:Generated_Source\PSoC5/isr_F2F_edge.c **** *   function, which sets the vector and the priority, has been called.
 330:Generated_Source\PSoC5/isr_F2F_edge.c **** *
 331:Generated_Source\PSoC5/isr_F2F_edge.c **** * Parameters:
 332:Generated_Source\PSoC5/isr_F2F_edge.c **** *   None
 333:Generated_Source\PSoC5/isr_F2F_edge.c **** *
 334:Generated_Source\PSoC5/isr_F2F_edge.c **** * Return:
 335:Generated_Source\PSoC5/isr_F2F_edge.c **** *   None
 336:Generated_Source\PSoC5/isr_F2F_edge.c **** *
 337:Generated_Source\PSoC5/isr_F2F_edge.c **** *******************************************************************************/
 338:Generated_Source\PSoC5/isr_F2F_edge.c **** void isr_F2F_edge_Enable(void)
 339:Generated_Source\PSoC5/isr_F2F_edge.c **** {
 340:Generated_Source\PSoC5/isr_F2F_edge.c ****     /* Enable the general interrupt. */
 341:Generated_Source\PSoC5/isr_F2F_edge.c ****     *isr_F2F_edge_INTC_SET_EN = isr_F2F_edge__INTC_MASK;
 342:Generated_Source\PSoC5/isr_F2F_edge.c **** }
 343:Generated_Source\PSoC5/isr_F2F_edge.c **** 
 344:Generated_Source\PSoC5/isr_F2F_edge.c **** 
 345:Generated_Source\PSoC5/isr_F2F_edge.c **** /*******************************************************************************
 346:Generated_Source\PSoC5/isr_F2F_edge.c **** * Function Name: isr_F2F_edge_GetState
 347:Generated_Source\PSoC5/isr_F2F_edge.c **** ********************************************************************************
 348:Generated_Source\PSoC5/isr_F2F_edge.c **** *
 349:Generated_Source\PSoC5/isr_F2F_edge.c **** * Summary:
 350:Generated_Source\PSoC5/isr_F2F_edge.c **** *   Gets the state (enabled, disabled) of the Interrupt.
 351:Generated_Source\PSoC5/isr_F2F_edge.c **** *
 352:Generated_Source\PSoC5/isr_F2F_edge.c **** * Parameters:
 353:Generated_Source\PSoC5/isr_F2F_edge.c **** *   None
 354:Generated_Source\PSoC5/isr_F2F_edge.c **** *
 355:Generated_Source\PSoC5/isr_F2F_edge.c **** * Return:
 356:Generated_Source\PSoC5/isr_F2F_edge.c **** *   1 if enabled, 0 if disabled.
 357:Generated_Source\PSoC5/isr_F2F_edge.c **** *
 358:Generated_Source\PSoC5/isr_F2F_edge.c **** *******************************************************************************/
 359:Generated_Source\PSoC5/isr_F2F_edge.c **** uint8 isr_F2F_edge_GetState(void)
 360:Generated_Source\PSoC5/isr_F2F_edge.c **** {
 361:Generated_Source\PSoC5/isr_F2F_edge.c ****     /* Get the state of the general interrupt. */
 362:Generated_Source\PSoC5/isr_F2F_edge.c ****     return ((*isr_F2F_edge_INTC_SET_EN & (uint32)isr_F2F_edge__INTC_MASK) != 0u) ? 1u:0u;
 363:Generated_Source\PSoC5/isr_F2F_edge.c **** }
 364:Generated_Source\PSoC5/isr_F2F_edge.c **** 
 365:Generated_Source\PSoC5/isr_F2F_edge.c **** 
 366:Generated_Source\PSoC5/isr_F2F_edge.c **** /*******************************************************************************
 367:Generated_Source\PSoC5/isr_F2F_edge.c **** * Function Name: isr_F2F_edge_Disable
 368:Generated_Source\PSoC5/isr_F2F_edge.c **** ********************************************************************************
 369:Generated_Source\PSoC5/isr_F2F_edge.c **** *
 370:Generated_Source\PSoC5/isr_F2F_edge.c **** * Summary:
 371:Generated_Source\PSoC5/isr_F2F_edge.c **** *   Disables the Interrupt in the interrupt controller.
 372:Generated_Source\PSoC5/isr_F2F_edge.c **** *
 373:Generated_Source\PSoC5/isr_F2F_edge.c **** * Parameters:
 374:Generated_Source\PSoC5/isr_F2F_edge.c **** *   None
 375:Generated_Source\PSoC5/isr_F2F_edge.c **** *
 376:Generated_Source\PSoC5/isr_F2F_edge.c **** * Return:
 377:Generated_Source\PSoC5/isr_F2F_edge.c **** *   None
 378:Generated_Source\PSoC5/isr_F2F_edge.c **** *
 379:Generated_Source\PSoC5/isr_F2F_edge.c **** *******************************************************************************/
 380:Generated_Source\PSoC5/isr_F2F_edge.c **** void isr_F2F_edge_Disable(void)
ARM GAS  C:\Users\yqh\AppData\Local\Temp\cclQOk7v.s 			page 10


 381:Generated_Source\PSoC5/isr_F2F_edge.c **** {
 382:Generated_Source\PSoC5/isr_F2F_edge.c ****     /* Disable the general interrupt. */
 383:Generated_Source\PSoC5/isr_F2F_edge.c ****     *isr_F2F_edge_INTC_CLR_EN = isr_F2F_edge__INTC_MASK;
 131              		.loc 1 383 0
 132 0000 074A     		ldr	r2, .L15
 133 0002 0823     		movs	r3, #8
 134 0004 1360     		str	r3, [r2]
 135              	.LVL5:
 136              	.LBE29:
 137              	.LBE28:
 138              	.LBB30:
 139              	.LBB31:
 235:Generated_Source\PSoC5/isr_F2F_edge.c **** 
 140              		.loc 1 235 0
 141 0006 02F68832 		addw	r2, r2, #2952
 142 000a 1268     		ldr	r2, [r2]
 143              	.LVL6:
 237:Generated_Source\PSoC5/isr_F2F_edge.c **** }
 144              		.loc 1 237 0
 145 000c 0549     		ldr	r1, .L15+4
 146 000e D164     		str	r1, [r2, #76]
 147              	.LVL7:
 148              	.LBE31:
 149              	.LBE30:
 150              	.LBB32:
 151              	.LBB33:
 291:Generated_Source\PSoC5/isr_F2F_edge.c **** }
 152              		.loc 1 291 0
 153 0010 054A     		ldr	r2, .L15+8
 154              	.LVL8:
 155 0012 E021     		movs	r1, #224
 156 0014 1170     		strb	r1, [r2]
 157              	.LBE33:
 158              	.LBE32:
 159              	.LBB34:
 160              	.LBB35:
 341:Generated_Source\PSoC5/isr_F2F_edge.c **** }
 161              		.loc 1 341 0
 162 0016 A2F20332 		subw	r2, r2, #771
 163 001a 1360     		str	r3, [r2]
 164 001c 7047     		bx	lr
 165              	.L16:
 166 001e 00BF     		.align	2
 167              	.L15:
 168 0020 80E100E0 		.word	-536813184
 169 0024 00000000 		.word	isr_F2F_edge_Interrupt
 170 0028 03E400E0 		.word	-536812541
 171              	.LBE35:
 172              	.LBE34:
 173              		.cfi_endproc
 174              	.LFE63:
 175              		.size	isr_F2F_edge_Start, .-isr_F2F_edge_Start
 176              		.section	.text.isr_F2F_edge_StartEx,"ax",%progbits
 177              		.align	1
 178              		.global	isr_F2F_edge_StartEx
 179              		.thumb
 180              		.thumb_func
ARM GAS  C:\Users\yqh\AppData\Local\Temp\cclQOk7v.s 			page 11


 181              		.type	isr_F2F_edge_StartEx, %function
 182              	isr_F2F_edge_StartEx:
 183              	.LFB64:
 118:Generated_Source\PSoC5/isr_F2F_edge.c ****     /* For all we know the interrupt is active. */
 184              		.loc 1 118 0
 185              		.cfi_startproc
 186              		@ args = 0, pretend = 0, frame = 0
 187              		@ frame_needed = 0, uses_anonymous_args = 0
 188              		@ link register save eliminated.
 189              	.LVL9:
 190              	.LBB36:
 191              	.LBB37:
 192              		.loc 1 383 0
 193 0000 064A     		ldr	r2, .L18
 194 0002 0823     		movs	r3, #8
 195 0004 1360     		str	r3, [r2]
 196              	.LVL10:
 197              	.LBE37:
 198              	.LBE36:
 199              	.LBB38:
 200              	.LBB39:
 235:Generated_Source\PSoC5/isr_F2F_edge.c **** 
 201              		.loc 1 235 0
 202 0006 02F68832 		addw	r2, r2, #2952
 203 000a 1268     		ldr	r2, [r2]
 204              	.LVL11:
 205              	.LBE39:
 206              	.LBE38:
 207              	.LBB41:
 208              	.LBB42:
 291:Generated_Source\PSoC5/isr_F2F_edge.c **** }
 209              		.loc 1 291 0
 210 000c E021     		movs	r1, #224
 211              	.LBE42:
 212              	.LBE41:
 213              	.LBB44:
 214              	.LBB40:
 237:Generated_Source\PSoC5/isr_F2F_edge.c **** }
 215              		.loc 1 237 0
 216 000e D064     		str	r0, [r2, #76]
 217              	.LVL12:
 218              	.LBE40:
 219              	.LBE44:
 220              	.LBB45:
 221              	.LBB43:
 291:Generated_Source\PSoC5/isr_F2F_edge.c **** }
 222              		.loc 1 291 0
 223 0010 034A     		ldr	r2, .L18+4
 224              	.LVL13:
 225 0012 1170     		strb	r1, [r2]
 226              	.LBE43:
 227              	.LBE45:
 228              	.LBB46:
 229              	.LBB47:
 341:Generated_Source\PSoC5/isr_F2F_edge.c **** }
 230              		.loc 1 341 0
 231 0014 A2F20332 		subw	r2, r2, #771
ARM GAS  C:\Users\yqh\AppData\Local\Temp\cclQOk7v.s 			page 12


 232 0018 1360     		str	r3, [r2]
 233 001a 7047     		bx	lr
 234              	.L19:
 235              		.align	2
 236              	.L18:
 237 001c 80E100E0 		.word	-536813184
 238 0020 03E400E0 		.word	-536812541
 239              	.LBE47:
 240              	.LBE46:
 241              		.cfi_endproc
 242              	.LFE64:
 243              		.size	isr_F2F_edge_StartEx, .-isr_F2F_edge_StartEx
 244              		.section	.text.isr_F2F_edge_Stop,"ax",%progbits
 245              		.align	1
 246              		.global	isr_F2F_edge_Stop
 247              		.thumb
 248              		.thumb_func
 249              		.type	isr_F2F_edge_Stop, %function
 250              	isr_F2F_edge_Stop:
 251              	.LFB65:
 148:Generated_Source\PSoC5/isr_F2F_edge.c ****     /* Disable this interrupt. */
 252              		.loc 1 148 0
 253              		.cfi_startproc
 254              		@ args = 0, pretend = 0, frame = 0
 255              		@ frame_needed = 0, uses_anonymous_args = 0
 256              		@ link register save eliminated.
 257              	.LBB48:
 258              	.LBB49:
 259              		.loc 1 383 0
 260 0000 044B     		ldr	r3, .L21
 261 0002 0822     		movs	r2, #8
 262 0004 1A60     		str	r2, [r3]
 263              	.LVL14:
 264              	.LBE49:
 265              	.LBE48:
 266              	.LBB50:
 267              	.LBB51:
 235:Generated_Source\PSoC5/isr_F2F_edge.c **** 
 268              		.loc 1 235 0
 269 0006 03F68833 		addw	r3, r3, #2952
 270 000a 1B68     		ldr	r3, [r3]
 271              	.LVL15:
 237:Generated_Source\PSoC5/isr_F2F_edge.c **** }
 272              		.loc 1 237 0
 273 000c 024A     		ldr	r2, .L21+4
 274 000e DA64     		str	r2, [r3, #76]
 275 0010 7047     		bx	lr
 276              	.L22:
 277 0012 00BF     		.align	2
 278              	.L21:
 279 0014 80E100E0 		.word	-536813184
 280 0018 00000000 		.word	IntDefaultHandler
 281              	.LBE51:
 282              	.LBE50:
 283              		.cfi_endproc
 284              	.LFE65:
 285              		.size	isr_F2F_edge_Stop, .-isr_F2F_edge_Stop
ARM GAS  C:\Users\yqh\AppData\Local\Temp\cclQOk7v.s 			page 13


 286              		.section	.text.isr_F2F_edge_SetVector,"ax",%progbits
 287              		.align	1
 288              		.global	isr_F2F_edge_SetVector
 289              		.thumb
 290              		.thumb_func
 291              		.type	isr_F2F_edge_SetVector, %function
 292              	isr_F2F_edge_SetVector:
 293              	.LFB67:
 232:Generated_Source\PSoC5/isr_F2F_edge.c ****     cyisraddress * ramVectorTable;
 294              		.loc 1 232 0
 295              		.cfi_startproc
 296              		@ args = 0, pretend = 0, frame = 0
 297              		@ frame_needed = 0, uses_anonymous_args = 0
 298              		@ link register save eliminated.
 299              	.LVL16:
 235:Generated_Source\PSoC5/isr_F2F_edge.c **** 
 300              		.loc 1 235 0
 301 0000 014B     		ldr	r3, .L24
 302 0002 1B68     		ldr	r3, [r3]
 303              	.LVL17:
 237:Generated_Source\PSoC5/isr_F2F_edge.c **** }
 304              		.loc 1 237 0
 305 0004 D864     		str	r0, [r3, #76]
 306 0006 7047     		bx	lr
 307              	.L25:
 308              		.align	2
 309              	.L24:
 310 0008 08ED00E0 		.word	-536810232
 311              		.cfi_endproc
 312              	.LFE67:
 313              		.size	isr_F2F_edge_SetVector, .-isr_F2F_edge_SetVector
 314              		.section	.text.isr_F2F_edge_GetVector,"ax",%progbits
 315              		.align	1
 316              		.global	isr_F2F_edge_GetVector
 317              		.thumb
 318              		.thumb_func
 319              		.type	isr_F2F_edge_GetVector, %function
 320              	isr_F2F_edge_GetVector:
 321              	.LFB68:
 256:Generated_Source\PSoC5/isr_F2F_edge.c ****     cyisraddress * ramVectorTable;
 322              		.loc 1 256 0
 323              		.cfi_startproc
 324              		@ args = 0, pretend = 0, frame = 0
 325              		@ frame_needed = 0, uses_anonymous_args = 0
 326              		@ link register save eliminated.
 327              	.LVL18:
 259:Generated_Source\PSoC5/isr_F2F_edge.c **** 
 328              		.loc 1 259 0
 329 0000 014B     		ldr	r3, .L27
 330              	.LVL19:
 261:Generated_Source\PSoC5/isr_F2F_edge.c **** }
 331              		.loc 1 261 0
 332 0002 1B68     		ldr	r3, [r3]
 333              	.LVL20:
 262:Generated_Source\PSoC5/isr_F2F_edge.c **** 
 334              		.loc 1 262 0
 335 0004 D86C     		ldr	r0, [r3, #76]
ARM GAS  C:\Users\yqh\AppData\Local\Temp\cclQOk7v.s 			page 14


 336 0006 7047     		bx	lr
 337              	.L28:
 338              		.align	2
 339              	.L27:
 340 0008 08ED00E0 		.word	-536810232
 341              		.cfi_endproc
 342              	.LFE68:
 343              		.size	isr_F2F_edge_GetVector, .-isr_F2F_edge_GetVector
 344              		.section	.text.isr_F2F_edge_SetPriority,"ax",%progbits
 345              		.align	1
 346              		.global	isr_F2F_edge_SetPriority
 347              		.thumb
 348              		.thumb_func
 349              		.type	isr_F2F_edge_SetPriority, %function
 350              	isr_F2F_edge_SetPriority:
 351              	.LFB69:
 290:Generated_Source\PSoC5/isr_F2F_edge.c ****     *isr_F2F_edge_INTC_PRIOR = priority << 5;
 352              		.loc 1 290 0
 353              		.cfi_startproc
 354              		@ args = 0, pretend = 0, frame = 0
 355              		@ frame_needed = 0, uses_anonymous_args = 0
 356              		@ link register save eliminated.
 357              	.LVL21:
 291:Generated_Source\PSoC5/isr_F2F_edge.c **** }
 358              		.loc 1 291 0
 359 0000 4001     		lsls	r0, r0, #5
 360              	.LVL22:
 361 0002 024B     		ldr	r3, .L30
 362 0004 C0B2     		uxtb	r0, r0
 363 0006 1870     		strb	r0, [r3]
 364 0008 7047     		bx	lr
 365              	.L31:
 366 000a 00BF     		.align	2
 367              	.L30:
 368 000c 03E400E0 		.word	-536812541
 369              		.cfi_endproc
 370              	.LFE69:
 371              		.size	isr_F2F_edge_SetPriority, .-isr_F2F_edge_SetPriority
 372              		.section	.text.isr_F2F_edge_GetPriority,"ax",%progbits
 373              		.align	1
 374              		.global	isr_F2F_edge_GetPriority
 375              		.thumb
 376              		.thumb_func
 377              		.type	isr_F2F_edge_GetPriority, %function
 378              	isr_F2F_edge_GetPriority:
 379              	.LFB70:
 312:Generated_Source\PSoC5/isr_F2F_edge.c ****     uint8 priority;
 380              		.loc 1 312 0
 381              		.cfi_startproc
 382              		@ args = 0, pretend = 0, frame = 0
 383              		@ frame_needed = 0, uses_anonymous_args = 0
 384              		@ link register save eliminated.
 316:Generated_Source\PSoC5/isr_F2F_edge.c **** 
 385              		.loc 1 316 0
 386 0000 014B     		ldr	r3, .L33
 387 0002 1878     		ldrb	r0, [r3]	@ zero_extendqisi2
 388              	.LVL23:
ARM GAS  C:\Users\yqh\AppData\Local\Temp\cclQOk7v.s 			page 15


 319:Generated_Source\PSoC5/isr_F2F_edge.c **** 
 389              		.loc 1 319 0
 390 0004 4009     		lsrs	r0, r0, #5
 391              	.LVL24:
 392 0006 7047     		bx	lr
 393              	.L34:
 394              		.align	2
 395              	.L33:
 396 0008 03E400E0 		.word	-536812541
 397              		.cfi_endproc
 398              	.LFE70:
 399              		.size	isr_F2F_edge_GetPriority, .-isr_F2F_edge_GetPriority
 400              		.section	.text.isr_F2F_edge_Enable,"ax",%progbits
 401              		.align	1
 402              		.global	isr_F2F_edge_Enable
 403              		.thumb
 404              		.thumb_func
 405              		.type	isr_F2F_edge_Enable, %function
 406              	isr_F2F_edge_Enable:
 407              	.LFB71:
 339:Generated_Source\PSoC5/isr_F2F_edge.c ****     /* Enable the general interrupt. */
 408              		.loc 1 339 0
 409              		.cfi_startproc
 410              		@ args = 0, pretend = 0, frame = 0
 411              		@ frame_needed = 0, uses_anonymous_args = 0
 412              		@ link register save eliminated.
 341:Generated_Source\PSoC5/isr_F2F_edge.c **** }
 413              		.loc 1 341 0
 414 0000 014B     		ldr	r3, .L36
 415 0002 0822     		movs	r2, #8
 416 0004 1A60     		str	r2, [r3]
 417 0006 7047     		bx	lr
 418              	.L37:
 419              		.align	2
 420              	.L36:
 421 0008 00E100E0 		.word	-536813312
 422              		.cfi_endproc
 423              	.LFE71:
 424              		.size	isr_F2F_edge_Enable, .-isr_F2F_edge_Enable
 425              		.section	.text.isr_F2F_edge_GetState,"ax",%progbits
 426              		.align	1
 427              		.global	isr_F2F_edge_GetState
 428              		.thumb
 429              		.thumb_func
 430              		.type	isr_F2F_edge_GetState, %function
 431              	isr_F2F_edge_GetState:
 432              	.LFB72:
 360:Generated_Source\PSoC5/isr_F2F_edge.c ****     /* Get the state of the general interrupt. */
 433              		.loc 1 360 0
 434              		.cfi_startproc
 435              		@ args = 0, pretend = 0, frame = 0
 436              		@ frame_needed = 0, uses_anonymous_args = 0
 437              		@ link register save eliminated.
 362:Generated_Source\PSoC5/isr_F2F_edge.c **** }
 438              		.loc 1 362 0
 439 0000 024B     		ldr	r3, .L39
 440 0002 1868     		ldr	r0, [r3]
ARM GAS  C:\Users\yqh\AppData\Local\Temp\cclQOk7v.s 			page 16


 363:Generated_Source\PSoC5/isr_F2F_edge.c **** 
 441              		.loc 1 363 0
 442 0004 C0F3C000 		ubfx	r0, r0, #3, #1
 443 0008 7047     		bx	lr
 444              	.L40:
 445 000a 00BF     		.align	2
 446              	.L39:
 447 000c 00E100E0 		.word	-536813312
 448              		.cfi_endproc
 449              	.LFE72:
 450              		.size	isr_F2F_edge_GetState, .-isr_F2F_edge_GetState
 451              		.section	.text.isr_F2F_edge_Disable,"ax",%progbits
 452              		.align	1
 453              		.global	isr_F2F_edge_Disable
 454              		.thumb
 455              		.thumb_func
 456              		.type	isr_F2F_edge_Disable, %function
 457              	isr_F2F_edge_Disable:
 458              	.LFB73:
 381:Generated_Source\PSoC5/isr_F2F_edge.c ****     /* Disable the general interrupt. */
 459              		.loc 1 381 0
 460              		.cfi_startproc
 461              		@ args = 0, pretend = 0, frame = 0
 462              		@ frame_needed = 0, uses_anonymous_args = 0
 463              		@ link register save eliminated.
 464              		.loc 1 383 0
 465 0000 014B     		ldr	r3, .L42
 466 0002 0822     		movs	r2, #8
 467 0004 1A60     		str	r2, [r3]
 468 0006 7047     		bx	lr
 469              	.L43:
 470              		.align	2
 471              	.L42:
 472 0008 80E100E0 		.word	-536813184
 473              		.cfi_endproc
 474              	.LFE73:
 475              		.size	isr_F2F_edge_Disable, .-isr_F2F_edge_Disable
 476              		.section	.text.isr_F2F_edge_SetPending,"ax",%progbits
 477              		.align	1
 478              		.global	isr_F2F_edge_SetPending
 479              		.thumb
 480              		.thumb_func
 481              		.type	isr_F2F_edge_SetPending, %function
 482              	isr_F2F_edge_SetPending:
 483              	.LFB74:
 384:Generated_Source\PSoC5/isr_F2F_edge.c **** }
 385:Generated_Source\PSoC5/isr_F2F_edge.c **** 
 386:Generated_Source\PSoC5/isr_F2F_edge.c **** 
 387:Generated_Source\PSoC5/isr_F2F_edge.c **** /*******************************************************************************
 388:Generated_Source\PSoC5/isr_F2F_edge.c **** * Function Name: isr_F2F_edge_SetPending
 389:Generated_Source\PSoC5/isr_F2F_edge.c **** ********************************************************************************
 390:Generated_Source\PSoC5/isr_F2F_edge.c **** *
 391:Generated_Source\PSoC5/isr_F2F_edge.c **** * Summary:
 392:Generated_Source\PSoC5/isr_F2F_edge.c **** *   Causes the Interrupt to enter the pending state, a software method of
 393:Generated_Source\PSoC5/isr_F2F_edge.c **** *   generating the interrupt.
 394:Generated_Source\PSoC5/isr_F2F_edge.c **** *
 395:Generated_Source\PSoC5/isr_F2F_edge.c **** * Parameters:
ARM GAS  C:\Users\yqh\AppData\Local\Temp\cclQOk7v.s 			page 17


 396:Generated_Source\PSoC5/isr_F2F_edge.c **** *   None
 397:Generated_Source\PSoC5/isr_F2F_edge.c **** *
 398:Generated_Source\PSoC5/isr_F2F_edge.c **** * Return:
 399:Generated_Source\PSoC5/isr_F2F_edge.c **** *   None
 400:Generated_Source\PSoC5/isr_F2F_edge.c **** *
 401:Generated_Source\PSoC5/isr_F2F_edge.c **** * Side Effects:
 402:Generated_Source\PSoC5/isr_F2F_edge.c **** *   If interrupts are enabled and the interrupt is set up properly, the ISR is
 403:Generated_Source\PSoC5/isr_F2F_edge.c **** *   entered (depending on the priority of this interrupt and other pending 
 404:Generated_Source\PSoC5/isr_F2F_edge.c **** *   interrupts).
 405:Generated_Source\PSoC5/isr_F2F_edge.c **** *
 406:Generated_Source\PSoC5/isr_F2F_edge.c **** *******************************************************************************/
 407:Generated_Source\PSoC5/isr_F2F_edge.c **** void isr_F2F_edge_SetPending(void)
 408:Generated_Source\PSoC5/isr_F2F_edge.c **** {
 484              		.loc 1 408 0
 485              		.cfi_startproc
 486              		@ args = 0, pretend = 0, frame = 0
 487              		@ frame_needed = 0, uses_anonymous_args = 0
 488              		@ link register save eliminated.
 409:Generated_Source\PSoC5/isr_F2F_edge.c ****     *isr_F2F_edge_INTC_SET_PD = isr_F2F_edge__INTC_MASK;
 489              		.loc 1 409 0
 490 0000 014B     		ldr	r3, .L45
 491 0002 0822     		movs	r2, #8
 492 0004 1A60     		str	r2, [r3]
 493 0006 7047     		bx	lr
 494              	.L46:
 495              		.align	2
 496              	.L45:
 497 0008 00E200E0 		.word	-536813056
 498              		.cfi_endproc
 499              	.LFE74:
 500              		.size	isr_F2F_edge_SetPending, .-isr_F2F_edge_SetPending
 501              		.section	.text.isr_F2F_edge_ClearPending,"ax",%progbits
 502              		.align	1
 503              		.global	isr_F2F_edge_ClearPending
 504              		.thumb
 505              		.thumb_func
 506              		.type	isr_F2F_edge_ClearPending, %function
 507              	isr_F2F_edge_ClearPending:
 508              	.LFB75:
 410:Generated_Source\PSoC5/isr_F2F_edge.c **** }
 411:Generated_Source\PSoC5/isr_F2F_edge.c **** 
 412:Generated_Source\PSoC5/isr_F2F_edge.c **** 
 413:Generated_Source\PSoC5/isr_F2F_edge.c **** /*******************************************************************************
 414:Generated_Source\PSoC5/isr_F2F_edge.c **** * Function Name: isr_F2F_edge_ClearPending
 415:Generated_Source\PSoC5/isr_F2F_edge.c **** ********************************************************************************
 416:Generated_Source\PSoC5/isr_F2F_edge.c **** *
 417:Generated_Source\PSoC5/isr_F2F_edge.c **** * Summary:
 418:Generated_Source\PSoC5/isr_F2F_edge.c **** *   Clears a pending interrupt in the interrupt controller.
 419:Generated_Source\PSoC5/isr_F2F_edge.c **** *
 420:Generated_Source\PSoC5/isr_F2F_edge.c **** *   Note Some interrupt sources are clear-on-read and require the block 
 421:Generated_Source\PSoC5/isr_F2F_edge.c **** *   interrupt/status register to be read/cleared with the appropriate block API 
 422:Generated_Source\PSoC5/isr_F2F_edge.c **** *   (GPIO, UART, and so on). Otherwise the ISR will continue to remain in 
 423:Generated_Source\PSoC5/isr_F2F_edge.c **** *   pending state even though the interrupt itself is cleared using this API.
 424:Generated_Source\PSoC5/isr_F2F_edge.c **** *
 425:Generated_Source\PSoC5/isr_F2F_edge.c **** * Parameters:
 426:Generated_Source\PSoC5/isr_F2F_edge.c **** *   None
 427:Generated_Source\PSoC5/isr_F2F_edge.c **** *
ARM GAS  C:\Users\yqh\AppData\Local\Temp\cclQOk7v.s 			page 18


 428:Generated_Source\PSoC5/isr_F2F_edge.c **** * Return:
 429:Generated_Source\PSoC5/isr_F2F_edge.c **** *   None
 430:Generated_Source\PSoC5/isr_F2F_edge.c **** *
 431:Generated_Source\PSoC5/isr_F2F_edge.c **** *******************************************************************************/
 432:Generated_Source\PSoC5/isr_F2F_edge.c **** void isr_F2F_edge_ClearPending(void)
 433:Generated_Source\PSoC5/isr_F2F_edge.c **** {
 509              		.loc 1 433 0
 510              		.cfi_startproc
 511              		@ args = 0, pretend = 0, frame = 0
 512              		@ frame_needed = 0, uses_anonymous_args = 0
 513              		@ link register save eliminated.
 434:Generated_Source\PSoC5/isr_F2F_edge.c ****     *isr_F2F_edge_INTC_CLR_PD = isr_F2F_edge__INTC_MASK;
 514              		.loc 1 434 0
 515 0000 014B     		ldr	r3, .L48
 516 0002 0822     		movs	r2, #8
 517 0004 1A60     		str	r2, [r3]
 518 0006 7047     		bx	lr
 519              	.L49:
 520              		.align	2
 521              	.L48:
 522 0008 80E200E0 		.word	-536812928
 523              		.cfi_endproc
 524              	.LFE75:
 525              		.size	isr_F2F_edge_ClearPending, .-isr_F2F_edge_ClearPending
 526              		.comm	f2f_ack_delay_cnt,1,1
 527              		.comm	f2f_acknowledge_active,1,1
 528              		.comm	f2f_timeout,4,4
 529              		.comm	f2f_pulsewidth,4,4
 530              		.comm	card_in_buf,4,4
 531              		.comm	card_ack,4,4
 532              		.comm	tamper_out_polarity,4,4
 533              		.comm	tamperCR_polarity,4,4
 534              		.comm	tp_old,1,1
 535              		.comm	hw_old,1,1
 536              		.comm	currentAccessType,1,1
 537              		.comm	s,40,4
 538              		.text
 539              	.Letext0:
 540              		.file 2 "c:\\program files (x86)\\cypress\\psoc creator\\4.0\\psoc creator\\import\\gnu\\arm\\4.9.
 541              		.file 3 "c:\\program files (x86)\\cypress\\psoc creator\\4.0\\psoc creator\\import\\gnu\\arm\\4.9.
 542              		.file 4 "Generated_Source\\PSoC5/cytypes.h"
 543              		.file 5 "./softuart.h"
 544              		.file 6 "Generated_Source\\PSoC5/core_cm3.h"
 545              		.file 7 "./system.h"
 546              		.file 8 "Generated_Source\\PSoC5\\Timeout_Timer_ISR.h"
 547              		.file 9 "Generated_Source\\PSoC5\\FilterReg.h"