ARM GAS  C:\Users\yqh\AppData\Local\Temp\cc55pVRK.s 			page 1


   1              		.syntax unified
   2              		.cpu cortex-m3
   3              		.fpu softvfp
   4              		.eabi_attribute 20, 1
   5              		.eabi_attribute 21, 1
   6              		.eabi_attribute 23, 3
   7              		.eabi_attribute 24, 1
   8              		.eabi_attribute 25, 1
   9              		.eabi_attribute 26, 1
  10              		.eabi_attribute 30, 4
  11              		.eabi_attribute 34, 1
  12              		.eabi_attribute 18, 4
  13              		.thumb
  14              		.file	"UART_READER.c"
  15              		.text
  16              	.Ltext0:
  17              		.cfi_sections	.debug_frame
  18              		.section	.text.UART_READER_Init,"ax",%progbits
  19              		.align	1
  20              		.global	UART_READER_Init
  21              		.thumb
  22              		.thumb_func
  23              		.type	UART_READER_Init, %function
  24              	UART_READER_Init:
  25              	.LFB1:
  26              		.file 1 "Generated_Source\\PSoC5\\UART_READER.c"
   1:Generated_Source\PSoC5/UART_READER.c **** /*******************************************************************************
   2:Generated_Source\PSoC5/UART_READER.c **** * File Name: UART_READER.c
   3:Generated_Source\PSoC5/UART_READER.c **** * Version 2.50
   4:Generated_Source\PSoC5/UART_READER.c **** *
   5:Generated_Source\PSoC5/UART_READER.c **** * Description:
   6:Generated_Source\PSoC5/UART_READER.c **** *  This file provides all API functionality of the UART component
   7:Generated_Source\PSoC5/UART_READER.c **** *
   8:Generated_Source\PSoC5/UART_READER.c **** * Note:
   9:Generated_Source\PSoC5/UART_READER.c **** *
  10:Generated_Source\PSoC5/UART_READER.c **** ********************************************************************************
  11:Generated_Source\PSoC5/UART_READER.c **** * Copyright 2008-2015, Cypress Semiconductor Corporation.  All rights reserved.
  12:Generated_Source\PSoC5/UART_READER.c **** * You may use this file only in accordance with the license, terms, conditions,
  13:Generated_Source\PSoC5/UART_READER.c **** * disclaimers, and limitations in the end user license agreement accompanying
  14:Generated_Source\PSoC5/UART_READER.c **** * the software package with which this file was provided.
  15:Generated_Source\PSoC5/UART_READER.c **** *******************************************************************************/
  16:Generated_Source\PSoC5/UART_READER.c **** 
  17:Generated_Source\PSoC5/UART_READER.c **** #include "UART_READER.h"
  18:Generated_Source\PSoC5/UART_READER.c **** #if (UART_READER_INTERNAL_CLOCK_USED)
  19:Generated_Source\PSoC5/UART_READER.c ****     #include "UART_READER_IntClock.h"
  20:Generated_Source\PSoC5/UART_READER.c **** #endif /* End UART_READER_INTERNAL_CLOCK_USED */
  21:Generated_Source\PSoC5/UART_READER.c **** 
  22:Generated_Source\PSoC5/UART_READER.c **** 
  23:Generated_Source\PSoC5/UART_READER.c **** /***************************************
  24:Generated_Source\PSoC5/UART_READER.c **** * Global data allocation
  25:Generated_Source\PSoC5/UART_READER.c **** ***************************************/
  26:Generated_Source\PSoC5/UART_READER.c **** 
  27:Generated_Source\PSoC5/UART_READER.c **** uint8 UART_READER_initVar = 0u;
  28:Generated_Source\PSoC5/UART_READER.c **** 
  29:Generated_Source\PSoC5/UART_READER.c **** #if (UART_READER_TX_INTERRUPT_ENABLED && UART_READER_TX_ENABLED)
  30:Generated_Source\PSoC5/UART_READER.c ****     volatile uint8 UART_READER_txBuffer[UART_READER_TX_BUFFER_SIZE];
  31:Generated_Source\PSoC5/UART_READER.c ****     volatile uint8 UART_READER_txBufferRead = 0u;
ARM GAS  C:\Users\yqh\AppData\Local\Temp\cc55pVRK.s 			page 2


  32:Generated_Source\PSoC5/UART_READER.c ****     uint8 UART_READER_txBufferWrite = 0u;
  33:Generated_Source\PSoC5/UART_READER.c **** #endif /* (UART_READER_TX_INTERRUPT_ENABLED && UART_READER_TX_ENABLED) */
  34:Generated_Source\PSoC5/UART_READER.c **** 
  35:Generated_Source\PSoC5/UART_READER.c **** #if (UART_READER_RX_INTERRUPT_ENABLED && (UART_READER_RX_ENABLED || UART_READER_HD_ENABLED))
  36:Generated_Source\PSoC5/UART_READER.c ****     uint8 UART_READER_errorStatus = 0u;
  37:Generated_Source\PSoC5/UART_READER.c ****     volatile uint8 UART_READER_rxBuffer[UART_READER_RX_BUFFER_SIZE];
  38:Generated_Source\PSoC5/UART_READER.c ****     volatile uint8 UART_READER_rxBufferRead  = 0u;
  39:Generated_Source\PSoC5/UART_READER.c ****     volatile uint8 UART_READER_rxBufferWrite = 0u;
  40:Generated_Source\PSoC5/UART_READER.c ****     volatile uint8 UART_READER_rxBufferLoopDetect = 0u;
  41:Generated_Source\PSoC5/UART_READER.c ****     volatile uint8 UART_READER_rxBufferOverflow   = 0u;
  42:Generated_Source\PSoC5/UART_READER.c ****     #if (UART_READER_RXHW_ADDRESS_ENABLED)
  43:Generated_Source\PSoC5/UART_READER.c ****         volatile uint8 UART_READER_rxAddressMode = UART_READER_RX_ADDRESS_MODE;
  44:Generated_Source\PSoC5/UART_READER.c ****         volatile uint8 UART_READER_rxAddressDetected = 0u;
  45:Generated_Source\PSoC5/UART_READER.c ****     #endif /* (UART_READER_RXHW_ADDRESS_ENABLED) */
  46:Generated_Source\PSoC5/UART_READER.c **** #endif /* (UART_READER_RX_INTERRUPT_ENABLED && (UART_READER_RX_ENABLED || UART_READER_HD_ENABLED)) 
  47:Generated_Source\PSoC5/UART_READER.c **** 
  48:Generated_Source\PSoC5/UART_READER.c **** 
  49:Generated_Source\PSoC5/UART_READER.c **** /*******************************************************************************
  50:Generated_Source\PSoC5/UART_READER.c **** * Function Name: UART_READER_Start
  51:Generated_Source\PSoC5/UART_READER.c **** ********************************************************************************
  52:Generated_Source\PSoC5/UART_READER.c **** *
  53:Generated_Source\PSoC5/UART_READER.c **** * Summary:
  54:Generated_Source\PSoC5/UART_READER.c **** *  This is the preferred method to begin component operation.
  55:Generated_Source\PSoC5/UART_READER.c **** *  UART_READER_Start() sets the initVar variable, calls the
  56:Generated_Source\PSoC5/UART_READER.c **** *  UART_READER_Init() function, and then calls the
  57:Generated_Source\PSoC5/UART_READER.c **** *  UART_READER_Enable() function.
  58:Generated_Source\PSoC5/UART_READER.c **** *
  59:Generated_Source\PSoC5/UART_READER.c **** * Parameters:
  60:Generated_Source\PSoC5/UART_READER.c **** *  None.
  61:Generated_Source\PSoC5/UART_READER.c **** *
  62:Generated_Source\PSoC5/UART_READER.c **** * Return:
  63:Generated_Source\PSoC5/UART_READER.c **** *  None.
  64:Generated_Source\PSoC5/UART_READER.c **** *
  65:Generated_Source\PSoC5/UART_READER.c **** * Global variables:
  66:Generated_Source\PSoC5/UART_READER.c **** *  The UART_READER_intiVar variable is used to indicate initial
  67:Generated_Source\PSoC5/UART_READER.c **** *  configuration of this component. The variable is initialized to zero (0u)
  68:Generated_Source\PSoC5/UART_READER.c **** *  and set to one (1u) the first time UART_READER_Start() is called. This
  69:Generated_Source\PSoC5/UART_READER.c **** *  allows for component initialization without re-initialization in all
  70:Generated_Source\PSoC5/UART_READER.c **** *  subsequent calls to the UART_READER_Start() routine.
  71:Generated_Source\PSoC5/UART_READER.c **** *
  72:Generated_Source\PSoC5/UART_READER.c **** * Reentrant:
  73:Generated_Source\PSoC5/UART_READER.c **** *  No.
  74:Generated_Source\PSoC5/UART_READER.c **** *
  75:Generated_Source\PSoC5/UART_READER.c **** *******************************************************************************/
  76:Generated_Source\PSoC5/UART_READER.c **** void UART_READER_Start(void) 
  77:Generated_Source\PSoC5/UART_READER.c **** {
  78:Generated_Source\PSoC5/UART_READER.c ****     /* If not initialized then initialize all required hardware and software */
  79:Generated_Source\PSoC5/UART_READER.c ****     if(UART_READER_initVar == 0u)
  80:Generated_Source\PSoC5/UART_READER.c ****     {
  81:Generated_Source\PSoC5/UART_READER.c ****         UART_READER_Init();
  82:Generated_Source\PSoC5/UART_READER.c ****         UART_READER_initVar = 1u;
  83:Generated_Source\PSoC5/UART_READER.c ****     }
  84:Generated_Source\PSoC5/UART_READER.c **** 
  85:Generated_Source\PSoC5/UART_READER.c ****     UART_READER_Enable();
  86:Generated_Source\PSoC5/UART_READER.c **** }
  87:Generated_Source\PSoC5/UART_READER.c **** 
  88:Generated_Source\PSoC5/UART_READER.c **** 
ARM GAS  C:\Users\yqh\AppData\Local\Temp\cc55pVRK.s 			page 3


  89:Generated_Source\PSoC5/UART_READER.c **** /*******************************************************************************
  90:Generated_Source\PSoC5/UART_READER.c **** * Function Name: UART_READER_Init
  91:Generated_Source\PSoC5/UART_READER.c **** ********************************************************************************
  92:Generated_Source\PSoC5/UART_READER.c **** *
  93:Generated_Source\PSoC5/UART_READER.c **** * Summary:
  94:Generated_Source\PSoC5/UART_READER.c **** *  Initializes or restores the component according to the customizer Configure
  95:Generated_Source\PSoC5/UART_READER.c **** *  dialog settings. It is not necessary to call UART_READER_Init() because
  96:Generated_Source\PSoC5/UART_READER.c **** *  the UART_READER_Start() API calls this function and is the preferred
  97:Generated_Source\PSoC5/UART_READER.c **** *  method to begin component operation.
  98:Generated_Source\PSoC5/UART_READER.c **** *
  99:Generated_Source\PSoC5/UART_READER.c **** * Parameters:
 100:Generated_Source\PSoC5/UART_READER.c **** *  None.
 101:Generated_Source\PSoC5/UART_READER.c **** *
 102:Generated_Source\PSoC5/UART_READER.c **** * Return:
 103:Generated_Source\PSoC5/UART_READER.c **** *  None.
 104:Generated_Source\PSoC5/UART_READER.c **** *
 105:Generated_Source\PSoC5/UART_READER.c **** *******************************************************************************/
 106:Generated_Source\PSoC5/UART_READER.c **** void UART_READER_Init(void) 
 107:Generated_Source\PSoC5/UART_READER.c **** {
  27              		.loc 1 107 0
  28              		.cfi_startproc
  29              		@ args = 0, pretend = 0, frame = 0
  30              		@ frame_needed = 0, uses_anonymous_args = 0
  31              		@ link register save eliminated.
 108:Generated_Source\PSoC5/UART_READER.c ****     #if(UART_READER_RX_ENABLED || UART_READER_HD_ENABLED)
 109:Generated_Source\PSoC5/UART_READER.c **** 
 110:Generated_Source\PSoC5/UART_READER.c ****         #if (UART_READER_RX_INTERRUPT_ENABLED)
 111:Generated_Source\PSoC5/UART_READER.c ****             /* Set RX interrupt vector and priority */
 112:Generated_Source\PSoC5/UART_READER.c ****             (void) CyIntSetVector(UART_READER_RX_VECT_NUM, &UART_READER_RXISR);
 113:Generated_Source\PSoC5/UART_READER.c ****             CyIntSetPriority(UART_READER_RX_VECT_NUM, UART_READER_RX_PRIOR_NUM);
 114:Generated_Source\PSoC5/UART_READER.c ****             UART_READER_errorStatus = 0u;
 115:Generated_Source\PSoC5/UART_READER.c ****         #endif /* (UART_READER_RX_INTERRUPT_ENABLED) */
 116:Generated_Source\PSoC5/UART_READER.c **** 
 117:Generated_Source\PSoC5/UART_READER.c ****         #if (UART_READER_RXHW_ADDRESS_ENABLED)
 118:Generated_Source\PSoC5/UART_READER.c ****             UART_READER_SetRxAddressMode(UART_READER_RX_ADDRESS_MODE);
 119:Generated_Source\PSoC5/UART_READER.c ****             UART_READER_SetRxAddress1(UART_READER_RX_HW_ADDRESS1);
 120:Generated_Source\PSoC5/UART_READER.c ****             UART_READER_SetRxAddress2(UART_READER_RX_HW_ADDRESS2);
 121:Generated_Source\PSoC5/UART_READER.c ****         #endif /* End UART_READER_RXHW_ADDRESS_ENABLED */
 122:Generated_Source\PSoC5/UART_READER.c **** 
 123:Generated_Source\PSoC5/UART_READER.c ****         /* Init Count7 period */
 124:Generated_Source\PSoC5/UART_READER.c ****         UART_READER_RXBITCTR_PERIOD_REG = UART_READER_RXBITCTR_INIT;
  32              		.loc 1 124 0
  33 0000 024B     		ldr	r3, .L2
  34 0002 7222     		movs	r2, #114
  35 0004 1A70     		strb	r2, [r3]
 125:Generated_Source\PSoC5/UART_READER.c ****         /* Configure the Initial RX interrupt mask */
 126:Generated_Source\PSoC5/UART_READER.c ****         UART_READER_RXSTATUS_MASK_REG  = UART_READER_INIT_RX_INTERRUPTS_MASK;
  36              		.loc 1 126 0
  37 0006 2022     		movs	r2, #32
  38 0008 9A70     		strb	r2, [r3, #2]
  39 000a 7047     		bx	lr
  40              	.L3:
  41              		.align	2
  42              	.L2:
  43 000c 85650040 		.word	1073767813
  44              		.cfi_endproc
  45              	.LFE1:
ARM GAS  C:\Users\yqh\AppData\Local\Temp\cc55pVRK.s 			page 4


  46              		.size	UART_READER_Init, .-UART_READER_Init
  47              		.section	.text.UART_READER_Enable,"ax",%progbits
  48              		.align	1
  49              		.global	UART_READER_Enable
  50              		.thumb
  51              		.thumb_func
  52              		.type	UART_READER_Enable, %function
  53              	UART_READER_Enable:
  54              	.LFB2:
 127:Generated_Source\PSoC5/UART_READER.c ****     #endif /* End UART_READER_RX_ENABLED || UART_READER_HD_ENABLED*/
 128:Generated_Source\PSoC5/UART_READER.c **** 
 129:Generated_Source\PSoC5/UART_READER.c ****     #if(UART_READER_TX_ENABLED)
 130:Generated_Source\PSoC5/UART_READER.c ****         #if (UART_READER_TX_INTERRUPT_ENABLED)
 131:Generated_Source\PSoC5/UART_READER.c ****             /* Set TX interrupt vector and priority */
 132:Generated_Source\PSoC5/UART_READER.c ****             (void) CyIntSetVector(UART_READER_TX_VECT_NUM, &UART_READER_TXISR);
 133:Generated_Source\PSoC5/UART_READER.c ****             CyIntSetPriority(UART_READER_TX_VECT_NUM, UART_READER_TX_PRIOR_NUM);
 134:Generated_Source\PSoC5/UART_READER.c ****         #endif /* (UART_READER_TX_INTERRUPT_ENABLED) */
 135:Generated_Source\PSoC5/UART_READER.c **** 
 136:Generated_Source\PSoC5/UART_READER.c ****         /* Write Counter Value for TX Bit Clk Generator*/
 137:Generated_Source\PSoC5/UART_READER.c ****         #if (UART_READER_TXCLKGEN_DP)
 138:Generated_Source\PSoC5/UART_READER.c ****             UART_READER_TXBITCLKGEN_CTR_REG = UART_READER_BIT_CENTER;
 139:Generated_Source\PSoC5/UART_READER.c ****             UART_READER_TXBITCLKTX_COMPLETE_REG = ((UART_READER_NUMBER_OF_DATA_BITS +
 140:Generated_Source\PSoC5/UART_READER.c ****                         UART_READER_NUMBER_OF_START_BIT) * UART_READER_OVER_SAMPLE_COUNT) - 1u;
 141:Generated_Source\PSoC5/UART_READER.c ****         #else
 142:Generated_Source\PSoC5/UART_READER.c ****             UART_READER_TXBITCTR_PERIOD_REG = ((UART_READER_NUMBER_OF_DATA_BITS +
 143:Generated_Source\PSoC5/UART_READER.c ****                         UART_READER_NUMBER_OF_START_BIT) * UART_READER_OVER_SAMPLE_8) - 1u;
 144:Generated_Source\PSoC5/UART_READER.c ****         #endif /* End UART_READER_TXCLKGEN_DP */
 145:Generated_Source\PSoC5/UART_READER.c **** 
 146:Generated_Source\PSoC5/UART_READER.c ****         /* Configure the Initial TX interrupt mask */
 147:Generated_Source\PSoC5/UART_READER.c ****         #if (UART_READER_TX_INTERRUPT_ENABLED)
 148:Generated_Source\PSoC5/UART_READER.c ****             UART_READER_TXSTATUS_MASK_REG = UART_READER_TX_STS_FIFO_EMPTY;
 149:Generated_Source\PSoC5/UART_READER.c ****         #else
 150:Generated_Source\PSoC5/UART_READER.c ****             UART_READER_TXSTATUS_MASK_REG = UART_READER_INIT_TX_INTERRUPTS_MASK;
 151:Generated_Source\PSoC5/UART_READER.c ****         #endif /*End UART_READER_TX_INTERRUPT_ENABLED*/
 152:Generated_Source\PSoC5/UART_READER.c **** 
 153:Generated_Source\PSoC5/UART_READER.c ****     #endif /* End UART_READER_TX_ENABLED */
 154:Generated_Source\PSoC5/UART_READER.c **** 
 155:Generated_Source\PSoC5/UART_READER.c ****     #if(UART_READER_PARITY_TYPE_SW)  /* Write Parity to Control Register */
 156:Generated_Source\PSoC5/UART_READER.c ****         UART_READER_WriteControlRegister( \
 157:Generated_Source\PSoC5/UART_READER.c ****             (UART_READER_ReadControlRegister() & (uint8)~UART_READER_CTRL_PARITY_TYPE_MASK) | \
 158:Generated_Source\PSoC5/UART_READER.c ****             (uint8)(UART_READER_PARITY_TYPE << UART_READER_CTRL_PARITY_TYPE0_SHIFT) );
 159:Generated_Source\PSoC5/UART_READER.c ****     #endif /* End UART_READER_PARITY_TYPE_SW */
 160:Generated_Source\PSoC5/UART_READER.c **** }
 161:Generated_Source\PSoC5/UART_READER.c **** 
 162:Generated_Source\PSoC5/UART_READER.c **** 
 163:Generated_Source\PSoC5/UART_READER.c **** /*******************************************************************************
 164:Generated_Source\PSoC5/UART_READER.c **** * Function Name: UART_READER_Enable
 165:Generated_Source\PSoC5/UART_READER.c **** ********************************************************************************
 166:Generated_Source\PSoC5/UART_READER.c **** *
 167:Generated_Source\PSoC5/UART_READER.c **** * Summary:
 168:Generated_Source\PSoC5/UART_READER.c **** *  Activates the hardware and begins component operation. It is not necessary
 169:Generated_Source\PSoC5/UART_READER.c **** *  to call UART_READER_Enable() because the UART_READER_Start() API
 170:Generated_Source\PSoC5/UART_READER.c **** *  calls this function, which is the preferred method to begin component
 171:Generated_Source\PSoC5/UART_READER.c **** *  operation.
 172:Generated_Source\PSoC5/UART_READER.c **** 
 173:Generated_Source\PSoC5/UART_READER.c **** * Parameters:
 174:Generated_Source\PSoC5/UART_READER.c **** *  None.
ARM GAS  C:\Users\yqh\AppData\Local\Temp\cc55pVRK.s 			page 5


 175:Generated_Source\PSoC5/UART_READER.c **** *
 176:Generated_Source\PSoC5/UART_READER.c **** * Return:
 177:Generated_Source\PSoC5/UART_READER.c **** *  None.
 178:Generated_Source\PSoC5/UART_READER.c **** *
 179:Generated_Source\PSoC5/UART_READER.c **** * Global Variables:
 180:Generated_Source\PSoC5/UART_READER.c **** *  UART_READER_rxAddressDetected - set to initial state (0).
 181:Generated_Source\PSoC5/UART_READER.c **** *
 182:Generated_Source\PSoC5/UART_READER.c **** *******************************************************************************/
 183:Generated_Source\PSoC5/UART_READER.c **** void UART_READER_Enable(void) 
 184:Generated_Source\PSoC5/UART_READER.c **** {
  55              		.loc 1 184 0
  56              		.cfi_startproc
  57              		@ args = 0, pretend = 0, frame = 0
  58              		@ frame_needed = 0, uses_anonymous_args = 0
  59 0000 08B5     		push	{r3, lr}
  60              		.cfi_def_cfa_offset 8
  61              		.cfi_offset 3, -8
  62              		.cfi_offset 14, -4
 185:Generated_Source\PSoC5/UART_READER.c ****     uint8 enableInterrupts;
 186:Generated_Source\PSoC5/UART_READER.c ****     enableInterrupts = CyEnterCriticalSection();
  63              		.loc 1 186 0
  64 0002 FFF7FEFF 		bl	CyEnterCriticalSection
  65              	.LVL0:
 187:Generated_Source\PSoC5/UART_READER.c **** 
 188:Generated_Source\PSoC5/UART_READER.c ****     #if (UART_READER_RX_ENABLED || UART_READER_HD_ENABLED)
 189:Generated_Source\PSoC5/UART_READER.c ****         /* RX Counter (Count7) Enable */
 190:Generated_Source\PSoC5/UART_READER.c ****         UART_READER_RXBITCTR_CONTROL_REG |= UART_READER_CNTR_ENABLE;
  66              		.loc 1 190 0
  67 0006 064A     		ldr	r2, .L5
  68 0008 1378     		ldrb	r3, [r2]	@ zero_extendqisi2
  69 000a 43F02003 		orr	r3, r3, #32
  70 000e 1370     		strb	r3, [r2]
 191:Generated_Source\PSoC5/UART_READER.c **** 
 192:Generated_Source\PSoC5/UART_READER.c ****         /* Enable the RX Interrupt */
 193:Generated_Source\PSoC5/UART_READER.c ****         UART_READER_RXSTATUS_ACTL_REG  |= UART_READER_INT_ENABLE;
  71              		.loc 1 193 0
  72 0010 9378     		ldrb	r3, [r2, #2]	@ zero_extendqisi2
  73 0012 43F01003 		orr	r3, r3, #16
  74 0016 9370     		strb	r3, [r2, #2]
 194:Generated_Source\PSoC5/UART_READER.c **** 
 195:Generated_Source\PSoC5/UART_READER.c ****         #if (UART_READER_RX_INTERRUPT_ENABLED)
 196:Generated_Source\PSoC5/UART_READER.c ****             UART_READER_EnableRxInt();
 197:Generated_Source\PSoC5/UART_READER.c **** 
 198:Generated_Source\PSoC5/UART_READER.c ****             #if (UART_READER_RXHW_ADDRESS_ENABLED)
 199:Generated_Source\PSoC5/UART_READER.c ****                 UART_READER_rxAddressDetected = 0u;
 200:Generated_Source\PSoC5/UART_READER.c ****             #endif /* (UART_READER_RXHW_ADDRESS_ENABLED) */
 201:Generated_Source\PSoC5/UART_READER.c ****         #endif /* (UART_READER_RX_INTERRUPT_ENABLED) */
 202:Generated_Source\PSoC5/UART_READER.c ****     #endif /* (UART_READER_RX_ENABLED || UART_READER_HD_ENABLED) */
 203:Generated_Source\PSoC5/UART_READER.c **** 
 204:Generated_Source\PSoC5/UART_READER.c ****     #if(UART_READER_TX_ENABLED)
 205:Generated_Source\PSoC5/UART_READER.c ****         /* TX Counter (DP/Count7) Enable */
 206:Generated_Source\PSoC5/UART_READER.c ****         #if(!UART_READER_TXCLKGEN_DP)
 207:Generated_Source\PSoC5/UART_READER.c ****             UART_READER_TXBITCTR_CONTROL_REG |= UART_READER_CNTR_ENABLE;
 208:Generated_Source\PSoC5/UART_READER.c ****         #endif /* End UART_READER_TXCLKGEN_DP */
 209:Generated_Source\PSoC5/UART_READER.c **** 
 210:Generated_Source\PSoC5/UART_READER.c ****         /* Enable the TX Interrupt */
 211:Generated_Source\PSoC5/UART_READER.c ****         UART_READER_TXSTATUS_ACTL_REG |= UART_READER_INT_ENABLE;
ARM GAS  C:\Users\yqh\AppData\Local\Temp\cc55pVRK.s 			page 6


 212:Generated_Source\PSoC5/UART_READER.c ****         #if (UART_READER_TX_INTERRUPT_ENABLED)
 213:Generated_Source\PSoC5/UART_READER.c ****             UART_READER_ClearPendingTxInt(); /* Clear history of TX_NOT_EMPTY */
 214:Generated_Source\PSoC5/UART_READER.c ****             UART_READER_EnableTxInt();
 215:Generated_Source\PSoC5/UART_READER.c ****         #endif /* (UART_READER_TX_INTERRUPT_ENABLED) */
 216:Generated_Source\PSoC5/UART_READER.c ****      #endif /* (UART_READER_TX_INTERRUPT_ENABLED) */
 217:Generated_Source\PSoC5/UART_READER.c **** 
 218:Generated_Source\PSoC5/UART_READER.c ****     #if (UART_READER_INTERNAL_CLOCK_USED)
 219:Generated_Source\PSoC5/UART_READER.c ****         UART_READER_IntClock_Start();  /* Enable the clock */
 220:Generated_Source\PSoC5/UART_READER.c ****     #endif /* (UART_READER_INTERNAL_CLOCK_USED) */
 221:Generated_Source\PSoC5/UART_READER.c **** 
 222:Generated_Source\PSoC5/UART_READER.c ****     CyExitCriticalSection(enableInterrupts);
 223:Generated_Source\PSoC5/UART_READER.c **** }
  75              		.loc 1 223 0
  76 0018 BDE80840 		pop	{r3, lr}
  77              		.cfi_restore 14
  78              		.cfi_restore 3
  79              		.cfi_def_cfa_offset 0
 222:Generated_Source\PSoC5/UART_READER.c **** }
  80              		.loc 1 222 0
  81 001c FFF7FEBF 		b	CyExitCriticalSection
  82              	.LVL1:
  83              	.L6:
  84              		.align	2
  85              	.L5:
  86 0020 95650040 		.word	1073767829
  87              		.cfi_endproc
  88              	.LFE2:
  89              		.size	UART_READER_Enable, .-UART_READER_Enable
  90              		.section	.text.UART_READER_Start,"ax",%progbits
  91              		.align	1
  92              		.global	UART_READER_Start
  93              		.thumb
  94              		.thumb_func
  95              		.type	UART_READER_Start, %function
  96              	UART_READER_Start:
  97              	.LFB0:
  77:Generated_Source\PSoC5/UART_READER.c ****     /* If not initialized then initialize all required hardware and software */
  98              		.loc 1 77 0
  99              		.cfi_startproc
 100              		@ args = 0, pretend = 0, frame = 0
 101              		@ frame_needed = 0, uses_anonymous_args = 0
 102 0000 10B5     		push	{r4, lr}
 103              		.cfi_def_cfa_offset 8
 104              		.cfi_offset 4, -8
 105              		.cfi_offset 14, -4
  79:Generated_Source\PSoC5/UART_READER.c ****     {
 106              		.loc 1 79 0
 107 0002 054C     		ldr	r4, .L10
 108 0004 2378     		ldrb	r3, [r4]	@ zero_extendqisi2
 109 0006 1BB9     		cbnz	r3, .L8
  81:Generated_Source\PSoC5/UART_READER.c ****         UART_READER_initVar = 1u;
 110              		.loc 1 81 0
 111 0008 FFF7FEFF 		bl	UART_READER_Init
 112              	.LVL2:
  82:Generated_Source\PSoC5/UART_READER.c ****     }
 113              		.loc 1 82 0
 114 000c 0123     		movs	r3, #1
ARM GAS  C:\Users\yqh\AppData\Local\Temp\cc55pVRK.s 			page 7


 115 000e 2370     		strb	r3, [r4]
 116              	.L8:
  86:Generated_Source\PSoC5/UART_READER.c **** 
 117              		.loc 1 86 0
 118 0010 BDE81040 		pop	{r4, lr}
 119              		.cfi_restore 14
 120              		.cfi_restore 4
 121              		.cfi_def_cfa_offset 0
  85:Generated_Source\PSoC5/UART_READER.c **** }
 122              		.loc 1 85 0
 123 0014 FFF7FEBF 		b	UART_READER_Enable
 124              	.LVL3:
 125              	.L11:
 126              		.align	2
 127              	.L10:
 128 0018 00000000 		.word	.LANCHOR0
 129              		.cfi_endproc
 130              	.LFE0:
 131              		.size	UART_READER_Start, .-UART_READER_Start
 132              		.section	.text.UART_READER_Stop,"ax",%progbits
 133              		.align	1
 134              		.global	UART_READER_Stop
 135              		.thumb
 136              		.thumb_func
 137              		.type	UART_READER_Stop, %function
 138              	UART_READER_Stop:
 139              	.LFB3:
 224:Generated_Source\PSoC5/UART_READER.c **** 
 225:Generated_Source\PSoC5/UART_READER.c **** 
 226:Generated_Source\PSoC5/UART_READER.c **** /*******************************************************************************
 227:Generated_Source\PSoC5/UART_READER.c **** * Function Name: UART_READER_Stop
 228:Generated_Source\PSoC5/UART_READER.c **** ********************************************************************************
 229:Generated_Source\PSoC5/UART_READER.c **** *
 230:Generated_Source\PSoC5/UART_READER.c **** * Summary:
 231:Generated_Source\PSoC5/UART_READER.c **** *  Disables the UART operation.
 232:Generated_Source\PSoC5/UART_READER.c **** *
 233:Generated_Source\PSoC5/UART_READER.c **** * Parameters:
 234:Generated_Source\PSoC5/UART_READER.c **** *  None.
 235:Generated_Source\PSoC5/UART_READER.c **** *
 236:Generated_Source\PSoC5/UART_READER.c **** * Return:
 237:Generated_Source\PSoC5/UART_READER.c **** *  None.
 238:Generated_Source\PSoC5/UART_READER.c **** *
 239:Generated_Source\PSoC5/UART_READER.c **** *******************************************************************************/
 240:Generated_Source\PSoC5/UART_READER.c **** void UART_READER_Stop(void) 
 241:Generated_Source\PSoC5/UART_READER.c **** {
 140              		.loc 1 241 0
 141              		.cfi_startproc
 142              		@ args = 0, pretend = 0, frame = 0
 143              		@ frame_needed = 0, uses_anonymous_args = 0
 144 0000 08B5     		push	{r3, lr}
 145              		.cfi_def_cfa_offset 8
 146              		.cfi_offset 3, -8
 147              		.cfi_offset 14, -4
 242:Generated_Source\PSoC5/UART_READER.c ****     uint8 enableInterrupts;
 243:Generated_Source\PSoC5/UART_READER.c ****     enableInterrupts = CyEnterCriticalSection();
 148              		.loc 1 243 0
 149 0002 FFF7FEFF 		bl	CyEnterCriticalSection
ARM GAS  C:\Users\yqh\AppData\Local\Temp\cc55pVRK.s 			page 8


 150              	.LVL4:
 244:Generated_Source\PSoC5/UART_READER.c **** 
 245:Generated_Source\PSoC5/UART_READER.c ****     /* Write Bit Counter Disable */
 246:Generated_Source\PSoC5/UART_READER.c ****     #if (UART_READER_RX_ENABLED || UART_READER_HD_ENABLED)
 247:Generated_Source\PSoC5/UART_READER.c ****         UART_READER_RXBITCTR_CONTROL_REG &= (uint8) ~UART_READER_CNTR_ENABLE;
 151              		.loc 1 247 0
 152 0006 064A     		ldr	r2, .L13
 153 0008 1378     		ldrb	r3, [r2]	@ zero_extendqisi2
 154 000a 03F0DF03 		and	r3, r3, #223
 155 000e 1370     		strb	r3, [r2]
 248:Generated_Source\PSoC5/UART_READER.c ****     #endif /* (UART_READER_RX_ENABLED || UART_READER_HD_ENABLED) */
 249:Generated_Source\PSoC5/UART_READER.c **** 
 250:Generated_Source\PSoC5/UART_READER.c ****     #if (UART_READER_TX_ENABLED)
 251:Generated_Source\PSoC5/UART_READER.c ****         #if(!UART_READER_TXCLKGEN_DP)
 252:Generated_Source\PSoC5/UART_READER.c ****             UART_READER_TXBITCTR_CONTROL_REG &= (uint8) ~UART_READER_CNTR_ENABLE;
 253:Generated_Source\PSoC5/UART_READER.c ****         #endif /* (!UART_READER_TXCLKGEN_DP) */
 254:Generated_Source\PSoC5/UART_READER.c ****     #endif /* (UART_READER_TX_ENABLED) */
 255:Generated_Source\PSoC5/UART_READER.c **** 
 256:Generated_Source\PSoC5/UART_READER.c ****     #if (UART_READER_INTERNAL_CLOCK_USED)
 257:Generated_Source\PSoC5/UART_READER.c ****         UART_READER_IntClock_Stop();   /* Disable the clock */
 258:Generated_Source\PSoC5/UART_READER.c ****     #endif /* (UART_READER_INTERNAL_CLOCK_USED) */
 259:Generated_Source\PSoC5/UART_READER.c **** 
 260:Generated_Source\PSoC5/UART_READER.c ****     /* Disable internal interrupt component */
 261:Generated_Source\PSoC5/UART_READER.c ****     #if (UART_READER_RX_ENABLED || UART_READER_HD_ENABLED)
 262:Generated_Source\PSoC5/UART_READER.c ****         UART_READER_RXSTATUS_ACTL_REG  &= (uint8) ~UART_READER_INT_ENABLE;
 156              		.loc 1 262 0
 157 0010 9378     		ldrb	r3, [r2, #2]	@ zero_extendqisi2
 158 0012 03F0EF03 		and	r3, r3, #239
 159 0016 9370     		strb	r3, [r2, #2]
 263:Generated_Source\PSoC5/UART_READER.c **** 
 264:Generated_Source\PSoC5/UART_READER.c ****         #if (UART_READER_RX_INTERRUPT_ENABLED)
 265:Generated_Source\PSoC5/UART_READER.c ****             UART_READER_DisableRxInt();
 266:Generated_Source\PSoC5/UART_READER.c ****         #endif /* (UART_READER_RX_INTERRUPT_ENABLED) */
 267:Generated_Source\PSoC5/UART_READER.c ****     #endif /* (UART_READER_RX_ENABLED || UART_READER_HD_ENABLED) */
 268:Generated_Source\PSoC5/UART_READER.c **** 
 269:Generated_Source\PSoC5/UART_READER.c ****     #if (UART_READER_TX_ENABLED)
 270:Generated_Source\PSoC5/UART_READER.c ****         UART_READER_TXSTATUS_ACTL_REG &= (uint8) ~UART_READER_INT_ENABLE;
 271:Generated_Source\PSoC5/UART_READER.c **** 
 272:Generated_Source\PSoC5/UART_READER.c ****         #if (UART_READER_TX_INTERRUPT_ENABLED)
 273:Generated_Source\PSoC5/UART_READER.c ****             UART_READER_DisableTxInt();
 274:Generated_Source\PSoC5/UART_READER.c ****         #endif /* (UART_READER_TX_INTERRUPT_ENABLED) */
 275:Generated_Source\PSoC5/UART_READER.c ****     #endif /* (UART_READER_TX_ENABLED) */
 276:Generated_Source\PSoC5/UART_READER.c **** 
 277:Generated_Source\PSoC5/UART_READER.c ****     CyExitCriticalSection(enableInterrupts);
 278:Generated_Source\PSoC5/UART_READER.c **** }
 160              		.loc 1 278 0
 161 0018 BDE80840 		pop	{r3, lr}
 162              		.cfi_restore 14
 163              		.cfi_restore 3
 164              		.cfi_def_cfa_offset 0
 277:Generated_Source\PSoC5/UART_READER.c **** }
 165              		.loc 1 277 0
 166 001c FFF7FEBF 		b	CyExitCriticalSection
 167              	.LVL5:
 168              	.L14:
 169              		.align	2
 170              	.L13:
ARM GAS  C:\Users\yqh\AppData\Local\Temp\cc55pVRK.s 			page 9


 171 0020 95650040 		.word	1073767829
 172              		.cfi_endproc
 173              	.LFE3:
 174              		.size	UART_READER_Stop, .-UART_READER_Stop
 175              		.section	.text.UART_READER_ReadControlRegister,"ax",%progbits
 176              		.align	1
 177              		.global	UART_READER_ReadControlRegister
 178              		.thumb
 179              		.thumb_func
 180              		.type	UART_READER_ReadControlRegister, %function
 181              	UART_READER_ReadControlRegister:
 182              	.LFB4:
 279:Generated_Source\PSoC5/UART_READER.c **** 
 280:Generated_Source\PSoC5/UART_READER.c **** 
 281:Generated_Source\PSoC5/UART_READER.c **** /*******************************************************************************
 282:Generated_Source\PSoC5/UART_READER.c **** * Function Name: UART_READER_ReadControlRegister
 283:Generated_Source\PSoC5/UART_READER.c **** ********************************************************************************
 284:Generated_Source\PSoC5/UART_READER.c **** *
 285:Generated_Source\PSoC5/UART_READER.c **** * Summary:
 286:Generated_Source\PSoC5/UART_READER.c **** *  Returns the current value of the control register.
 287:Generated_Source\PSoC5/UART_READER.c **** *
 288:Generated_Source\PSoC5/UART_READER.c **** * Parameters:
 289:Generated_Source\PSoC5/UART_READER.c **** *  None.
 290:Generated_Source\PSoC5/UART_READER.c **** *
 291:Generated_Source\PSoC5/UART_READER.c **** * Return:
 292:Generated_Source\PSoC5/UART_READER.c **** *  Contents of the control register.
 293:Generated_Source\PSoC5/UART_READER.c **** *
 294:Generated_Source\PSoC5/UART_READER.c **** *******************************************************************************/
 295:Generated_Source\PSoC5/UART_READER.c **** uint8 UART_READER_ReadControlRegister(void) 
 296:Generated_Source\PSoC5/UART_READER.c **** {
 183              		.loc 1 296 0
 184              		.cfi_startproc
 185              		@ args = 0, pretend = 0, frame = 0
 186              		@ frame_needed = 0, uses_anonymous_args = 0
 187              		@ link register save eliminated.
 297:Generated_Source\PSoC5/UART_READER.c ****     #if (UART_READER_CONTROL_REG_REMOVED)
 298:Generated_Source\PSoC5/UART_READER.c ****         return(0u);
 299:Generated_Source\PSoC5/UART_READER.c ****     #else
 300:Generated_Source\PSoC5/UART_READER.c ****         return(UART_READER_CONTROL_REG);
 188              		.loc 1 300 0
 189 0000 014B     		ldr	r3, .L16
 190 0002 1878     		ldrb	r0, [r3]	@ zero_extendqisi2
 301:Generated_Source\PSoC5/UART_READER.c ****     #endif /* (UART_READER_CONTROL_REG_REMOVED) */
 302:Generated_Source\PSoC5/UART_READER.c **** }
 191              		.loc 1 302 0
 192 0004 7047     		bx	lr
 193              	.L17:
 194 0006 00BF     		.align	2
 195              	.L16:
 196 0008 76650040 		.word	1073767798
 197              		.cfi_endproc
 198              	.LFE4:
 199              		.size	UART_READER_ReadControlRegister, .-UART_READER_ReadControlRegister
 200              		.section	.text.UART_READER_WriteControlRegister,"ax",%progbits
 201              		.align	1
 202              		.global	UART_READER_WriteControlRegister
 203              		.thumb
ARM GAS  C:\Users\yqh\AppData\Local\Temp\cc55pVRK.s 			page 10


 204              		.thumb_func
 205              		.type	UART_READER_WriteControlRegister, %function
 206              	UART_READER_WriteControlRegister:
 207              	.LFB5:
 303:Generated_Source\PSoC5/UART_READER.c **** 
 304:Generated_Source\PSoC5/UART_READER.c **** 
 305:Generated_Source\PSoC5/UART_READER.c **** /*******************************************************************************
 306:Generated_Source\PSoC5/UART_READER.c **** * Function Name: UART_READER_WriteControlRegister
 307:Generated_Source\PSoC5/UART_READER.c **** ********************************************************************************
 308:Generated_Source\PSoC5/UART_READER.c **** *
 309:Generated_Source\PSoC5/UART_READER.c **** * Summary:
 310:Generated_Source\PSoC5/UART_READER.c **** *  Writes an 8-bit value into the control register
 311:Generated_Source\PSoC5/UART_READER.c **** *
 312:Generated_Source\PSoC5/UART_READER.c **** * Parameters:
 313:Generated_Source\PSoC5/UART_READER.c **** *  control:  control register value
 314:Generated_Source\PSoC5/UART_READER.c **** *
 315:Generated_Source\PSoC5/UART_READER.c **** * Return:
 316:Generated_Source\PSoC5/UART_READER.c **** *  None.
 317:Generated_Source\PSoC5/UART_READER.c **** *
 318:Generated_Source\PSoC5/UART_READER.c **** *******************************************************************************/
 319:Generated_Source\PSoC5/UART_READER.c **** void  UART_READER_WriteControlRegister(uint8 control) 
 320:Generated_Source\PSoC5/UART_READER.c **** {
 208              		.loc 1 320 0
 209              		.cfi_startproc
 210              		@ args = 0, pretend = 0, frame = 0
 211              		@ frame_needed = 0, uses_anonymous_args = 0
 212              		@ link register save eliminated.
 213              	.LVL6:
 321:Generated_Source\PSoC5/UART_READER.c ****     #if (UART_READER_CONTROL_REG_REMOVED)
 322:Generated_Source\PSoC5/UART_READER.c ****         if(0u != control)
 323:Generated_Source\PSoC5/UART_READER.c ****         {
 324:Generated_Source\PSoC5/UART_READER.c ****             /* Suppress compiler warning */
 325:Generated_Source\PSoC5/UART_READER.c ****         }
 326:Generated_Source\PSoC5/UART_READER.c ****     #else
 327:Generated_Source\PSoC5/UART_READER.c ****        UART_READER_CONTROL_REG = control;
 214              		.loc 1 327 0
 215 0000 014B     		ldr	r3, .L19
 216 0002 1870     		strb	r0, [r3]
 217 0004 7047     		bx	lr
 218              	.L20:
 219 0006 00BF     		.align	2
 220              	.L19:
 221 0008 76650040 		.word	1073767798
 222              		.cfi_endproc
 223              	.LFE5:
 224              		.size	UART_READER_WriteControlRegister, .-UART_READER_WriteControlRegister
 225              		.section	.text.UART_READER_SetRxInterruptMode,"ax",%progbits
 226              		.align	1
 227              		.global	UART_READER_SetRxInterruptMode
 228              		.thumb
 229              		.thumb_func
 230              		.type	UART_READER_SetRxInterruptMode, %function
 231              	UART_READER_SetRxInterruptMode:
 232              	.LFB6:
 328:Generated_Source\PSoC5/UART_READER.c ****     #endif /* (UART_READER_CONTROL_REG_REMOVED) */
 329:Generated_Source\PSoC5/UART_READER.c **** }
 330:Generated_Source\PSoC5/UART_READER.c **** 
ARM GAS  C:\Users\yqh\AppData\Local\Temp\cc55pVRK.s 			page 11


 331:Generated_Source\PSoC5/UART_READER.c **** 
 332:Generated_Source\PSoC5/UART_READER.c **** #if(UART_READER_RX_ENABLED || UART_READER_HD_ENABLED)
 333:Generated_Source\PSoC5/UART_READER.c ****     /*******************************************************************************
 334:Generated_Source\PSoC5/UART_READER.c ****     * Function Name: UART_READER_SetRxInterruptMode
 335:Generated_Source\PSoC5/UART_READER.c ****     ********************************************************************************
 336:Generated_Source\PSoC5/UART_READER.c ****     *
 337:Generated_Source\PSoC5/UART_READER.c ****     * Summary:
 338:Generated_Source\PSoC5/UART_READER.c ****     *  Configures the RX interrupt sources enabled.
 339:Generated_Source\PSoC5/UART_READER.c ****     *
 340:Generated_Source\PSoC5/UART_READER.c ****     * Parameters:
 341:Generated_Source\PSoC5/UART_READER.c ****     *  IntSrc:  Bit field containing the RX interrupts to enable. Based on the 
 342:Generated_Source\PSoC5/UART_READER.c ****     *  bit-field arrangement of the status register. This value must be a 
 343:Generated_Source\PSoC5/UART_READER.c ****     *  combination of status register bit-masks shown below:
 344:Generated_Source\PSoC5/UART_READER.c ****     *      UART_READER_RX_STS_FIFO_NOTEMPTY    Interrupt on byte received.
 345:Generated_Source\PSoC5/UART_READER.c ****     *      UART_READER_RX_STS_PAR_ERROR        Interrupt on parity error.
 346:Generated_Source\PSoC5/UART_READER.c ****     *      UART_READER_RX_STS_STOP_ERROR       Interrupt on stop error.
 347:Generated_Source\PSoC5/UART_READER.c ****     *      UART_READER_RX_STS_BREAK            Interrupt on break.
 348:Generated_Source\PSoC5/UART_READER.c ****     *      UART_READER_RX_STS_OVERRUN          Interrupt on overrun error.
 349:Generated_Source\PSoC5/UART_READER.c ****     *      UART_READER_RX_STS_ADDR_MATCH       Interrupt on address match.
 350:Generated_Source\PSoC5/UART_READER.c ****     *      UART_READER_RX_STS_MRKSPC           Interrupt on address detect.
 351:Generated_Source\PSoC5/UART_READER.c ****     *
 352:Generated_Source\PSoC5/UART_READER.c ****     * Return:
 353:Generated_Source\PSoC5/UART_READER.c ****     *  None.
 354:Generated_Source\PSoC5/UART_READER.c ****     *
 355:Generated_Source\PSoC5/UART_READER.c ****     * Theory:
 356:Generated_Source\PSoC5/UART_READER.c ****     *  Enables the output of specific status bits to the interrupt controller
 357:Generated_Source\PSoC5/UART_READER.c ****     *
 358:Generated_Source\PSoC5/UART_READER.c ****     *******************************************************************************/
 359:Generated_Source\PSoC5/UART_READER.c ****     void UART_READER_SetRxInterruptMode(uint8 intSrc) 
 360:Generated_Source\PSoC5/UART_READER.c ****     {
 233              		.loc 1 360 0
 234              		.cfi_startproc
 235              		@ args = 0, pretend = 0, frame = 0
 236              		@ frame_needed = 0, uses_anonymous_args = 0
 237              		@ link register save eliminated.
 238              	.LVL7:
 361:Generated_Source\PSoC5/UART_READER.c ****         UART_READER_RXSTATUS_MASK_REG  = intSrc;
 239              		.loc 1 361 0
 240 0000 014B     		ldr	r3, .L22
 241 0002 1870     		strb	r0, [r3]
 242 0004 7047     		bx	lr
 243              	.L23:
 244 0006 00BF     		.align	2
 245              	.L22:
 246 0008 87650040 		.word	1073767815
 247              		.cfi_endproc
 248              	.LFE6:
 249              		.size	UART_READER_SetRxInterruptMode, .-UART_READER_SetRxInterruptMode
 250              		.section	.text.UART_READER_ReadRxData,"ax",%progbits
 251              		.align	1
 252              		.global	UART_READER_ReadRxData
 253              		.thumb
 254              		.thumb_func
 255              		.type	UART_READER_ReadRxData, %function
 256              	UART_READER_ReadRxData:
 257              	.LFB7:
 362:Generated_Source\PSoC5/UART_READER.c ****     }
ARM GAS  C:\Users\yqh\AppData\Local\Temp\cc55pVRK.s 			page 12


 363:Generated_Source\PSoC5/UART_READER.c **** 
 364:Generated_Source\PSoC5/UART_READER.c **** 
 365:Generated_Source\PSoC5/UART_READER.c ****     /*******************************************************************************
 366:Generated_Source\PSoC5/UART_READER.c ****     * Function Name: UART_READER_ReadRxData
 367:Generated_Source\PSoC5/UART_READER.c ****     ********************************************************************************
 368:Generated_Source\PSoC5/UART_READER.c ****     *
 369:Generated_Source\PSoC5/UART_READER.c ****     * Summary:
 370:Generated_Source\PSoC5/UART_READER.c ****     *  Returns the next byte of received data. This function returns data without
 371:Generated_Source\PSoC5/UART_READER.c ****     *  checking the status. You must check the status separately.
 372:Generated_Source\PSoC5/UART_READER.c ****     *
 373:Generated_Source\PSoC5/UART_READER.c ****     * Parameters:
 374:Generated_Source\PSoC5/UART_READER.c ****     *  None.
 375:Generated_Source\PSoC5/UART_READER.c ****     *
 376:Generated_Source\PSoC5/UART_READER.c ****     * Return:
 377:Generated_Source\PSoC5/UART_READER.c ****     *  Received data from RX register
 378:Generated_Source\PSoC5/UART_READER.c ****     *
 379:Generated_Source\PSoC5/UART_READER.c ****     * Global Variables:
 380:Generated_Source\PSoC5/UART_READER.c ****     *  UART_READER_rxBuffer - RAM buffer pointer for save received data.
 381:Generated_Source\PSoC5/UART_READER.c ****     *  UART_READER_rxBufferWrite - cyclic index for write to rxBuffer,
 382:Generated_Source\PSoC5/UART_READER.c ****     *     checked to identify new data.
 383:Generated_Source\PSoC5/UART_READER.c ****     *  UART_READER_rxBufferRead - cyclic index for read from rxBuffer,
 384:Generated_Source\PSoC5/UART_READER.c ****     *     incremented after each byte has been read from buffer.
 385:Generated_Source\PSoC5/UART_READER.c ****     *  UART_READER_rxBufferLoopDetect - cleared if loop condition was detected
 386:Generated_Source\PSoC5/UART_READER.c ****     *     in RX ISR.
 387:Generated_Source\PSoC5/UART_READER.c ****     *
 388:Generated_Source\PSoC5/UART_READER.c ****     * Reentrant:
 389:Generated_Source\PSoC5/UART_READER.c ****     *  No.
 390:Generated_Source\PSoC5/UART_READER.c ****     *
 391:Generated_Source\PSoC5/UART_READER.c ****     *******************************************************************************/
 392:Generated_Source\PSoC5/UART_READER.c ****     uint8 UART_READER_ReadRxData(void) 
 393:Generated_Source\PSoC5/UART_READER.c ****     {
 258              		.loc 1 393 0
 259              		.cfi_startproc
 260              		@ args = 0, pretend = 0, frame = 0
 261              		@ frame_needed = 0, uses_anonymous_args = 0
 262              		@ link register save eliminated.
 394:Generated_Source\PSoC5/UART_READER.c ****         uint8 rxData;
 395:Generated_Source\PSoC5/UART_READER.c **** 
 396:Generated_Source\PSoC5/UART_READER.c ****     #if (UART_READER_RX_INTERRUPT_ENABLED)
 397:Generated_Source\PSoC5/UART_READER.c **** 
 398:Generated_Source\PSoC5/UART_READER.c ****         uint8 locRxBufferRead;
 399:Generated_Source\PSoC5/UART_READER.c ****         uint8 locRxBufferWrite;
 400:Generated_Source\PSoC5/UART_READER.c **** 
 401:Generated_Source\PSoC5/UART_READER.c ****         /* Protect variables that could change on interrupt */
 402:Generated_Source\PSoC5/UART_READER.c ****         UART_READER_DisableRxInt();
 403:Generated_Source\PSoC5/UART_READER.c **** 
 404:Generated_Source\PSoC5/UART_READER.c ****         locRxBufferRead  = UART_READER_rxBufferRead;
 405:Generated_Source\PSoC5/UART_READER.c ****         locRxBufferWrite = UART_READER_rxBufferWrite;
 406:Generated_Source\PSoC5/UART_READER.c **** 
 407:Generated_Source\PSoC5/UART_READER.c ****         if( (UART_READER_rxBufferLoopDetect != 0u) || (locRxBufferRead != locRxBufferWrite) )
 408:Generated_Source\PSoC5/UART_READER.c ****         {
 409:Generated_Source\PSoC5/UART_READER.c ****             rxData = UART_READER_rxBuffer[locRxBufferRead];
 410:Generated_Source\PSoC5/UART_READER.c ****             locRxBufferRead++;
 411:Generated_Source\PSoC5/UART_READER.c **** 
 412:Generated_Source\PSoC5/UART_READER.c ****             if(locRxBufferRead >= UART_READER_RX_BUFFER_SIZE)
 413:Generated_Source\PSoC5/UART_READER.c ****             {
 414:Generated_Source\PSoC5/UART_READER.c ****                 locRxBufferRead = 0u;
ARM GAS  C:\Users\yqh\AppData\Local\Temp\cc55pVRK.s 			page 13


 415:Generated_Source\PSoC5/UART_READER.c ****             }
 416:Generated_Source\PSoC5/UART_READER.c ****             /* Update the real pointer */
 417:Generated_Source\PSoC5/UART_READER.c ****             UART_READER_rxBufferRead = locRxBufferRead;
 418:Generated_Source\PSoC5/UART_READER.c **** 
 419:Generated_Source\PSoC5/UART_READER.c ****             if(UART_READER_rxBufferLoopDetect != 0u)
 420:Generated_Source\PSoC5/UART_READER.c ****             {
 421:Generated_Source\PSoC5/UART_READER.c ****                 UART_READER_rxBufferLoopDetect = 0u;
 422:Generated_Source\PSoC5/UART_READER.c ****                 #if ((UART_READER_RX_INTERRUPT_ENABLED) && (UART_READER_FLOW_CONTROL != 0u))
 423:Generated_Source\PSoC5/UART_READER.c ****                     /* When Hardware Flow Control selected - return RX mask */
 424:Generated_Source\PSoC5/UART_READER.c ****                     #if( UART_READER_HD_ENABLED )
 425:Generated_Source\PSoC5/UART_READER.c ****                         if((UART_READER_CONTROL_REG & UART_READER_CTRL_HD_SEND) == 0u)
 426:Generated_Source\PSoC5/UART_READER.c ****                         {   /* In Half duplex mode return RX mask only in RX
 427:Generated_Source\PSoC5/UART_READER.c ****                             *  configuration set, otherwise
 428:Generated_Source\PSoC5/UART_READER.c ****                             *  mask will be returned in LoadRxConfig() API.
 429:Generated_Source\PSoC5/UART_READER.c ****                             */
 430:Generated_Source\PSoC5/UART_READER.c ****                             UART_READER_RXSTATUS_MASK_REG  |= UART_READER_RX_STS_FIFO_NOTEMPTY;
 431:Generated_Source\PSoC5/UART_READER.c ****                         }
 432:Generated_Source\PSoC5/UART_READER.c ****                     #else
 433:Generated_Source\PSoC5/UART_READER.c ****                         UART_READER_RXSTATUS_MASK_REG  |= UART_READER_RX_STS_FIFO_NOTEMPTY;
 434:Generated_Source\PSoC5/UART_READER.c ****                     #endif /* end UART_READER_HD_ENABLED */
 435:Generated_Source\PSoC5/UART_READER.c ****                 #endif /* ((UART_READER_RX_INTERRUPT_ENABLED) && (UART_READER_FLOW_CONTROL != 0u)) 
 436:Generated_Source\PSoC5/UART_READER.c ****             }
 437:Generated_Source\PSoC5/UART_READER.c ****         }
 438:Generated_Source\PSoC5/UART_READER.c ****         else
 439:Generated_Source\PSoC5/UART_READER.c ****         {   /* Needs to check status for RX_STS_FIFO_NOTEMPTY bit */
 440:Generated_Source\PSoC5/UART_READER.c ****             rxData = UART_READER_RXDATA_REG;
 441:Generated_Source\PSoC5/UART_READER.c ****         }
 442:Generated_Source\PSoC5/UART_READER.c **** 
 443:Generated_Source\PSoC5/UART_READER.c ****         UART_READER_EnableRxInt();
 444:Generated_Source\PSoC5/UART_READER.c **** 
 445:Generated_Source\PSoC5/UART_READER.c ****     #else
 446:Generated_Source\PSoC5/UART_READER.c **** 
 447:Generated_Source\PSoC5/UART_READER.c ****         /* Needs to check status for RX_STS_FIFO_NOTEMPTY bit */
 448:Generated_Source\PSoC5/UART_READER.c ****         rxData = UART_READER_RXDATA_REG;
 263              		.loc 1 448 0
 264 0000 014B     		ldr	r3, .L25
 265 0002 1878     		ldrb	r0, [r3]	@ zero_extendqisi2
 266              	.LVL8:
 449:Generated_Source\PSoC5/UART_READER.c **** 
 450:Generated_Source\PSoC5/UART_READER.c ****     #endif /* (UART_READER_RX_INTERRUPT_ENABLED) */
 451:Generated_Source\PSoC5/UART_READER.c **** 
 452:Generated_Source\PSoC5/UART_READER.c ****         return(rxData);
 453:Generated_Source\PSoC5/UART_READER.c ****     }
 267              		.loc 1 453 0
 268 0004 7047     		bx	lr
 269              	.L26:
 270 0006 00BF     		.align	2
 271              	.L25:
 272 0008 47650040 		.word	1073767751
 273              		.cfi_endproc
 274              	.LFE7:
 275              		.size	UART_READER_ReadRxData, .-UART_READER_ReadRxData
 276              		.section	.text.UART_READER_ReadRxStatus,"ax",%progbits
 277              		.align	1
 278              		.global	UART_READER_ReadRxStatus
 279              		.thumb
 280              		.thumb_func
ARM GAS  C:\Users\yqh\AppData\Local\Temp\cc55pVRK.s 			page 14


 281              		.type	UART_READER_ReadRxStatus, %function
 282              	UART_READER_ReadRxStatus:
 283              	.LFB8:
 454:Generated_Source\PSoC5/UART_READER.c **** 
 455:Generated_Source\PSoC5/UART_READER.c **** 
 456:Generated_Source\PSoC5/UART_READER.c ****     /*******************************************************************************
 457:Generated_Source\PSoC5/UART_READER.c ****     * Function Name: UART_READER_ReadRxStatus
 458:Generated_Source\PSoC5/UART_READER.c ****     ********************************************************************************
 459:Generated_Source\PSoC5/UART_READER.c ****     *
 460:Generated_Source\PSoC5/UART_READER.c ****     * Summary:
 461:Generated_Source\PSoC5/UART_READER.c ****     *  Returns the current state of the receiver status register and the software
 462:Generated_Source\PSoC5/UART_READER.c ****     *  buffer overflow status.
 463:Generated_Source\PSoC5/UART_READER.c ****     *
 464:Generated_Source\PSoC5/UART_READER.c ****     * Parameters:
 465:Generated_Source\PSoC5/UART_READER.c ****     *  None.
 466:Generated_Source\PSoC5/UART_READER.c ****     *
 467:Generated_Source\PSoC5/UART_READER.c ****     * Return:
 468:Generated_Source\PSoC5/UART_READER.c ****     *  Current state of the status register.
 469:Generated_Source\PSoC5/UART_READER.c ****     *
 470:Generated_Source\PSoC5/UART_READER.c ****     * Side Effect:
 471:Generated_Source\PSoC5/UART_READER.c ****     *  All status register bits are clear-on-read except
 472:Generated_Source\PSoC5/UART_READER.c ****     *  UART_READER_RX_STS_FIFO_NOTEMPTY.
 473:Generated_Source\PSoC5/UART_READER.c ****     *  UART_READER_RX_STS_FIFO_NOTEMPTY clears immediately after RX data
 474:Generated_Source\PSoC5/UART_READER.c ****     *  register read.
 475:Generated_Source\PSoC5/UART_READER.c ****     *
 476:Generated_Source\PSoC5/UART_READER.c ****     * Global Variables:
 477:Generated_Source\PSoC5/UART_READER.c ****     *  UART_READER_rxBufferOverflow - used to indicate overload condition.
 478:Generated_Source\PSoC5/UART_READER.c ****     *   It set to one in RX interrupt when there isn't free space in
 479:Generated_Source\PSoC5/UART_READER.c ****     *   UART_READER_rxBufferRead to write new data. This condition returned
 480:Generated_Source\PSoC5/UART_READER.c ****     *   and cleared to zero by this API as an
 481:Generated_Source\PSoC5/UART_READER.c ****     *   UART_READER_RX_STS_SOFT_BUFF_OVER bit along with RX Status register
 482:Generated_Source\PSoC5/UART_READER.c ****     *   bits.
 483:Generated_Source\PSoC5/UART_READER.c ****     *
 484:Generated_Source\PSoC5/UART_READER.c ****     *******************************************************************************/
 485:Generated_Source\PSoC5/UART_READER.c ****     uint8 UART_READER_ReadRxStatus(void) 
 486:Generated_Source\PSoC5/UART_READER.c ****     {
 284              		.loc 1 486 0
 285              		.cfi_startproc
 286              		@ args = 0, pretend = 0, frame = 0
 287              		@ frame_needed = 0, uses_anonymous_args = 0
 288              		@ link register save eliminated.
 487:Generated_Source\PSoC5/UART_READER.c ****         uint8 status;
 488:Generated_Source\PSoC5/UART_READER.c **** 
 489:Generated_Source\PSoC5/UART_READER.c ****         status = UART_READER_RXSTATUS_REG & UART_READER_RX_HW_MASK;
 289              		.loc 1 489 0
 290 0000 024B     		ldr	r3, .L28
 291 0002 1878     		ldrb	r0, [r3]	@ zero_extendqisi2
 292              	.LVL9:
 490:Generated_Source\PSoC5/UART_READER.c **** 
 491:Generated_Source\PSoC5/UART_READER.c ****     #if (UART_READER_RX_INTERRUPT_ENABLED)
 492:Generated_Source\PSoC5/UART_READER.c ****         if(UART_READER_rxBufferOverflow != 0u)
 493:Generated_Source\PSoC5/UART_READER.c ****         {
 494:Generated_Source\PSoC5/UART_READER.c ****             status |= UART_READER_RX_STS_SOFT_BUFF_OVER;
 495:Generated_Source\PSoC5/UART_READER.c ****             UART_READER_rxBufferOverflow = 0u;
 496:Generated_Source\PSoC5/UART_READER.c ****         }
 497:Generated_Source\PSoC5/UART_READER.c ****     #endif /* (UART_READER_RX_INTERRUPT_ENABLED) */
 498:Generated_Source\PSoC5/UART_READER.c **** 
ARM GAS  C:\Users\yqh\AppData\Local\Temp\cc55pVRK.s 			page 15


 499:Generated_Source\PSoC5/UART_READER.c ****         return(status);
 500:Generated_Source\PSoC5/UART_READER.c ****     }
 293              		.loc 1 500 0
 294 0004 00F07F00 		and	r0, r0, #127
 295              	.LVL10:
 296 0008 7047     		bx	lr
 297              	.L29:
 298 000a 00BF     		.align	2
 299              	.L28:
 300 000c 67650040 		.word	1073767783
 301              		.cfi_endproc
 302              	.LFE8:
 303              		.size	UART_READER_ReadRxStatus, .-UART_READER_ReadRxStatus
 304              		.section	.text.UART_READER_GetChar,"ax",%progbits
 305              		.align	1
 306              		.global	UART_READER_GetChar
 307              		.thumb
 308              		.thumb_func
 309              		.type	UART_READER_GetChar, %function
 310              	UART_READER_GetChar:
 311              	.LFB9:
 501:Generated_Source\PSoC5/UART_READER.c **** 
 502:Generated_Source\PSoC5/UART_READER.c **** 
 503:Generated_Source\PSoC5/UART_READER.c ****     /*******************************************************************************
 504:Generated_Source\PSoC5/UART_READER.c ****     * Function Name: UART_READER_GetChar
 505:Generated_Source\PSoC5/UART_READER.c ****     ********************************************************************************
 506:Generated_Source\PSoC5/UART_READER.c ****     *
 507:Generated_Source\PSoC5/UART_READER.c ****     * Summary:
 508:Generated_Source\PSoC5/UART_READER.c ****     *  Returns the last received byte of data. UART_READER_GetChar() is
 509:Generated_Source\PSoC5/UART_READER.c ****     *  designed for ASCII characters and returns a uint8 where 1 to 255 are values
 510:Generated_Source\PSoC5/UART_READER.c ****     *  for valid characters and 0 indicates an error occurred or no data is present.
 511:Generated_Source\PSoC5/UART_READER.c ****     *
 512:Generated_Source\PSoC5/UART_READER.c ****     * Parameters:
 513:Generated_Source\PSoC5/UART_READER.c ****     *  None.
 514:Generated_Source\PSoC5/UART_READER.c ****     *
 515:Generated_Source\PSoC5/UART_READER.c ****     * Return:
 516:Generated_Source\PSoC5/UART_READER.c ****     *  Character read from UART RX buffer. ASCII characters from 1 to 255 are valid.
 517:Generated_Source\PSoC5/UART_READER.c ****     *  A returned zero signifies an error condition or no data available.
 518:Generated_Source\PSoC5/UART_READER.c ****     *
 519:Generated_Source\PSoC5/UART_READER.c ****     * Global Variables:
 520:Generated_Source\PSoC5/UART_READER.c ****     *  UART_READER_rxBuffer - RAM buffer pointer for save received data.
 521:Generated_Source\PSoC5/UART_READER.c ****     *  UART_READER_rxBufferWrite - cyclic index for write to rxBuffer,
 522:Generated_Source\PSoC5/UART_READER.c ****     *     checked to identify new data.
 523:Generated_Source\PSoC5/UART_READER.c ****     *  UART_READER_rxBufferRead - cyclic index for read from rxBuffer,
 524:Generated_Source\PSoC5/UART_READER.c ****     *     incremented after each byte has been read from buffer.
 525:Generated_Source\PSoC5/UART_READER.c ****     *  UART_READER_rxBufferLoopDetect - cleared if loop condition was detected
 526:Generated_Source\PSoC5/UART_READER.c ****     *     in RX ISR.
 527:Generated_Source\PSoC5/UART_READER.c ****     *
 528:Generated_Source\PSoC5/UART_READER.c ****     * Reentrant:
 529:Generated_Source\PSoC5/UART_READER.c ****     *  No.
 530:Generated_Source\PSoC5/UART_READER.c ****     *
 531:Generated_Source\PSoC5/UART_READER.c ****     *******************************************************************************/
 532:Generated_Source\PSoC5/UART_READER.c ****     uint8 UART_READER_GetChar(void) 
 533:Generated_Source\PSoC5/UART_READER.c ****     {
 312              		.loc 1 533 0
 313              		.cfi_startproc
 314              		@ args = 0, pretend = 0, frame = 0
ARM GAS  C:\Users\yqh\AppData\Local\Temp\cc55pVRK.s 			page 16


 315              		@ frame_needed = 0, uses_anonymous_args = 0
 316              		@ link register save eliminated.
 317              	.LVL11:
 534:Generated_Source\PSoC5/UART_READER.c ****         uint8 rxData = 0u;
 535:Generated_Source\PSoC5/UART_READER.c ****         uint8 rxStatus;
 536:Generated_Source\PSoC5/UART_READER.c **** 
 537:Generated_Source\PSoC5/UART_READER.c ****     #if (UART_READER_RX_INTERRUPT_ENABLED)
 538:Generated_Source\PSoC5/UART_READER.c ****         uint8 locRxBufferRead;
 539:Generated_Source\PSoC5/UART_READER.c ****         uint8 locRxBufferWrite;
 540:Generated_Source\PSoC5/UART_READER.c **** 
 541:Generated_Source\PSoC5/UART_READER.c ****         /* Protect variables that could change on interrupt */
 542:Generated_Source\PSoC5/UART_READER.c ****         UART_READER_DisableRxInt();
 543:Generated_Source\PSoC5/UART_READER.c **** 
 544:Generated_Source\PSoC5/UART_READER.c ****         locRxBufferRead  = UART_READER_rxBufferRead;
 545:Generated_Source\PSoC5/UART_READER.c ****         locRxBufferWrite = UART_READER_rxBufferWrite;
 546:Generated_Source\PSoC5/UART_READER.c **** 
 547:Generated_Source\PSoC5/UART_READER.c ****         if( (UART_READER_rxBufferLoopDetect != 0u) || (locRxBufferRead != locRxBufferWrite) )
 548:Generated_Source\PSoC5/UART_READER.c ****         {
 549:Generated_Source\PSoC5/UART_READER.c ****             rxData = UART_READER_rxBuffer[locRxBufferRead];
 550:Generated_Source\PSoC5/UART_READER.c ****             locRxBufferRead++;
 551:Generated_Source\PSoC5/UART_READER.c ****             if(locRxBufferRead >= UART_READER_RX_BUFFER_SIZE)
 552:Generated_Source\PSoC5/UART_READER.c ****             {
 553:Generated_Source\PSoC5/UART_READER.c ****                 locRxBufferRead = 0u;
 554:Generated_Source\PSoC5/UART_READER.c ****             }
 555:Generated_Source\PSoC5/UART_READER.c ****             /* Update the real pointer */
 556:Generated_Source\PSoC5/UART_READER.c ****             UART_READER_rxBufferRead = locRxBufferRead;
 557:Generated_Source\PSoC5/UART_READER.c **** 
 558:Generated_Source\PSoC5/UART_READER.c ****             if(UART_READER_rxBufferLoopDetect != 0u)
 559:Generated_Source\PSoC5/UART_READER.c ****             {
 560:Generated_Source\PSoC5/UART_READER.c ****                 UART_READER_rxBufferLoopDetect = 0u;
 561:Generated_Source\PSoC5/UART_READER.c ****                 #if( (UART_READER_RX_INTERRUPT_ENABLED) && (UART_READER_FLOW_CONTROL != 0u) )
 562:Generated_Source\PSoC5/UART_READER.c ****                     /* When Hardware Flow Control selected - return RX mask */
 563:Generated_Source\PSoC5/UART_READER.c ****                     #if( UART_READER_HD_ENABLED )
 564:Generated_Source\PSoC5/UART_READER.c ****                         if((UART_READER_CONTROL_REG & UART_READER_CTRL_HD_SEND) == 0u)
 565:Generated_Source\PSoC5/UART_READER.c ****                         {   /* In Half duplex mode return RX mask only if
 566:Generated_Source\PSoC5/UART_READER.c ****                             *  RX configuration set, otherwise
 567:Generated_Source\PSoC5/UART_READER.c ****                             *  mask will be returned in LoadRxConfig() API.
 568:Generated_Source\PSoC5/UART_READER.c ****                             */
 569:Generated_Source\PSoC5/UART_READER.c ****                             UART_READER_RXSTATUS_MASK_REG |= UART_READER_RX_STS_FIFO_NOTEMPTY;
 570:Generated_Source\PSoC5/UART_READER.c ****                         }
 571:Generated_Source\PSoC5/UART_READER.c ****                     #else
 572:Generated_Source\PSoC5/UART_READER.c ****                         UART_READER_RXSTATUS_MASK_REG |= UART_READER_RX_STS_FIFO_NOTEMPTY;
 573:Generated_Source\PSoC5/UART_READER.c ****                     #endif /* end UART_READER_HD_ENABLED */
 574:Generated_Source\PSoC5/UART_READER.c ****                 #endif /* UART_READER_RX_INTERRUPT_ENABLED and Hardware flow control*/
 575:Generated_Source\PSoC5/UART_READER.c ****             }
 576:Generated_Source\PSoC5/UART_READER.c **** 
 577:Generated_Source\PSoC5/UART_READER.c ****         }
 578:Generated_Source\PSoC5/UART_READER.c ****         else
 579:Generated_Source\PSoC5/UART_READER.c ****         {   rxStatus = UART_READER_RXSTATUS_REG;
 580:Generated_Source\PSoC5/UART_READER.c ****             if((rxStatus & UART_READER_RX_STS_FIFO_NOTEMPTY) != 0u)
 581:Generated_Source\PSoC5/UART_READER.c ****             {   /* Read received data from FIFO */
 582:Generated_Source\PSoC5/UART_READER.c ****                 rxData = UART_READER_RXDATA_REG;
 583:Generated_Source\PSoC5/UART_READER.c ****                 /*Check status on error*/
 584:Generated_Source\PSoC5/UART_READER.c ****                 if((rxStatus & (UART_READER_RX_STS_BREAK | UART_READER_RX_STS_PAR_ERROR |
 585:Generated_Source\PSoC5/UART_READER.c ****                                 UART_READER_RX_STS_STOP_ERROR | UART_READER_RX_STS_OVERRUN)) != 0u)
 586:Generated_Source\PSoC5/UART_READER.c ****                 {
 587:Generated_Source\PSoC5/UART_READER.c ****                     rxData = 0u;
ARM GAS  C:\Users\yqh\AppData\Local\Temp\cc55pVRK.s 			page 17


 588:Generated_Source\PSoC5/UART_READER.c ****                 }
 589:Generated_Source\PSoC5/UART_READER.c ****             }
 590:Generated_Source\PSoC5/UART_READER.c ****         }
 591:Generated_Source\PSoC5/UART_READER.c **** 
 592:Generated_Source\PSoC5/UART_READER.c ****         UART_READER_EnableRxInt();
 593:Generated_Source\PSoC5/UART_READER.c **** 
 594:Generated_Source\PSoC5/UART_READER.c ****     #else
 595:Generated_Source\PSoC5/UART_READER.c **** 
 596:Generated_Source\PSoC5/UART_READER.c ****         rxStatus =UART_READER_RXSTATUS_REG;
 318              		.loc 1 596 0
 319 0000 074B     		ldr	r3, .L35
 320 0002 1B78     		ldrb	r3, [r3]	@ zero_extendqisi2
 321 0004 DBB2     		uxtb	r3, r3
 322              	.LVL12:
 597:Generated_Source\PSoC5/UART_READER.c ****         if((rxStatus & UART_READER_RX_STS_FIFO_NOTEMPTY) != 0u)
 323              		.loc 1 597 0
 324 0006 03F02002 		and	r2, r3, #32
 325 000a 02F0FF00 		and	r0, r2, #255
 326 000e 2AB1     		cbz	r2, .L31
 598:Generated_Source\PSoC5/UART_READER.c ****         {
 599:Generated_Source\PSoC5/UART_READER.c ****             /* Read received data from FIFO */
 600:Generated_Source\PSoC5/UART_READER.c ****             rxData = UART_READER_RXDATA_REG;
 327              		.loc 1 600 0
 328 0010 044A     		ldr	r2, .L35+4
 601:Generated_Source\PSoC5/UART_READER.c **** 
 602:Generated_Source\PSoC5/UART_READER.c ****             /*Check status on error*/
 603:Generated_Source\PSoC5/UART_READER.c ****             if((rxStatus & (UART_READER_RX_STS_BREAK | UART_READER_RX_STS_PAR_ERROR |
 329              		.loc 1 603 0
 330 0012 13F01E0F 		tst	r3, #30
 600:Generated_Source\PSoC5/UART_READER.c **** 
 331              		.loc 1 600 0
 332 0016 1078     		ldrb	r0, [r2]	@ zero_extendqisi2
 333              	.LVL13:
 604:Generated_Source\PSoC5/UART_READER.c ****                             UART_READER_RX_STS_STOP_ERROR | UART_READER_RX_STS_OVERRUN)) != 0u)
 605:Generated_Source\PSoC5/UART_READER.c ****             {
 606:Generated_Source\PSoC5/UART_READER.c ****                 rxData = 0u;
 334              		.loc 1 606 0
 335 0018 18BF     		it	ne
 336 001a 0020     		movne	r0, #0
 337              	.LVL14:
 338              	.L31:
 607:Generated_Source\PSoC5/UART_READER.c ****             }
 608:Generated_Source\PSoC5/UART_READER.c ****         }
 609:Generated_Source\PSoC5/UART_READER.c ****     #endif /* (UART_READER_RX_INTERRUPT_ENABLED) */
 610:Generated_Source\PSoC5/UART_READER.c **** 
 611:Generated_Source\PSoC5/UART_READER.c ****         return(rxData);
 612:Generated_Source\PSoC5/UART_READER.c ****     }
 339              		.loc 1 612 0
 340 001c 7047     		bx	lr
 341              	.L36:
 342 001e 00BF     		.align	2
 343              	.L35:
 344 0020 67650040 		.word	1073767783
 345 0024 47650040 		.word	1073767751
 346              		.cfi_endproc
 347              	.LFE9:
 348              		.size	UART_READER_GetChar, .-UART_READER_GetChar
ARM GAS  C:\Users\yqh\AppData\Local\Temp\cc55pVRK.s 			page 18


 349              		.section	.text.UART_READER_GetByte,"ax",%progbits
 350              		.align	1
 351              		.global	UART_READER_GetByte
 352              		.thumb
 353              		.thumb_func
 354              		.type	UART_READER_GetByte, %function
 355              	UART_READER_GetByte:
 356              	.LFB10:
 613:Generated_Source\PSoC5/UART_READER.c **** 
 614:Generated_Source\PSoC5/UART_READER.c **** 
 615:Generated_Source\PSoC5/UART_READER.c ****     /*******************************************************************************
 616:Generated_Source\PSoC5/UART_READER.c ****     * Function Name: UART_READER_GetByte
 617:Generated_Source\PSoC5/UART_READER.c ****     ********************************************************************************
 618:Generated_Source\PSoC5/UART_READER.c ****     *
 619:Generated_Source\PSoC5/UART_READER.c ****     * Summary:
 620:Generated_Source\PSoC5/UART_READER.c ****     *  Reads UART RX buffer immediately, returns received character and error
 621:Generated_Source\PSoC5/UART_READER.c ****     *  condition.
 622:Generated_Source\PSoC5/UART_READER.c ****     *
 623:Generated_Source\PSoC5/UART_READER.c ****     * Parameters:
 624:Generated_Source\PSoC5/UART_READER.c ****     *  None.
 625:Generated_Source\PSoC5/UART_READER.c ****     *
 626:Generated_Source\PSoC5/UART_READER.c ****     * Return:
 627:Generated_Source\PSoC5/UART_READER.c ****     *  MSB contains status and LSB contains UART RX data. If the MSB is nonzero,
 628:Generated_Source\PSoC5/UART_READER.c ****     *  an error has occurred.
 629:Generated_Source\PSoC5/UART_READER.c ****     *
 630:Generated_Source\PSoC5/UART_READER.c ****     * Reentrant:
 631:Generated_Source\PSoC5/UART_READER.c ****     *  No.
 632:Generated_Source\PSoC5/UART_READER.c ****     *
 633:Generated_Source\PSoC5/UART_READER.c ****     *******************************************************************************/
 634:Generated_Source\PSoC5/UART_READER.c ****     uint16 UART_READER_GetByte(void) 
 635:Generated_Source\PSoC5/UART_READER.c ****     {
 357              		.loc 1 635 0
 358              		.cfi_startproc
 359              		@ args = 0, pretend = 0, frame = 0
 360              		@ frame_needed = 0, uses_anonymous_args = 0
 361              		@ link register save eliminated.
 362              	.LBB31:
 363              	.LBB32:
 489:Generated_Source\PSoC5/UART_READER.c **** 
 364              		.loc 1 489 0
 365 0000 044B     		ldr	r3, .L38
 366              	.LBE32:
 367              	.LBE31:
 368              	.LBB34:
 369              	.LBB35:
 448:Generated_Source\PSoC5/UART_READER.c **** 
 370              		.loc 1 448 0
 371 0002 054A     		ldr	r2, .L38+4
 372              	.LBE35:
 373              	.LBE34:
 374              	.LBB37:
 375              	.LBB33:
 489:Generated_Source\PSoC5/UART_READER.c **** 
 376              		.loc 1 489 0
 377 0004 1B78     		ldrb	r3, [r3]	@ zero_extendqisi2
 378              	.LVL15:
 379              	.LBE33:
ARM GAS  C:\Users\yqh\AppData\Local\Temp\cc55pVRK.s 			page 19


 380              	.LBE37:
 381              	.LBB38:
 382              	.LBB36:
 448:Generated_Source\PSoC5/UART_READER.c **** 
 383              		.loc 1 448 0
 384 0006 1078     		ldrb	r0, [r2]	@ zero_extendqisi2
 385              	.LVL16:
 386              	.LBE36:
 387              	.LBE38:
 636:Generated_Source\PSoC5/UART_READER.c ****         
 637:Generated_Source\PSoC5/UART_READER.c ****     #if (UART_READER_RX_INTERRUPT_ENABLED)
 638:Generated_Source\PSoC5/UART_READER.c ****         uint16 locErrorStatus;
 639:Generated_Source\PSoC5/UART_READER.c ****         /* Protect variables that could change on interrupt */
 640:Generated_Source\PSoC5/UART_READER.c ****         UART_READER_DisableRxInt();
 641:Generated_Source\PSoC5/UART_READER.c ****         locErrorStatus = (uint16)UART_READER_errorStatus;
 642:Generated_Source\PSoC5/UART_READER.c ****         UART_READER_errorStatus = 0u;
 643:Generated_Source\PSoC5/UART_READER.c ****         UART_READER_EnableRxInt();
 644:Generated_Source\PSoC5/UART_READER.c ****         return ( (uint16)(locErrorStatus << 8u) | UART_READER_ReadRxData() );
 645:Generated_Source\PSoC5/UART_READER.c ****     #else
 646:Generated_Source\PSoC5/UART_READER.c ****         return ( ((uint16)UART_READER_ReadRxStatus() << 8u) | UART_READER_ReadRxData() );
 388              		.loc 1 646 0
 389 0008 03F07F03 		and	r3, r3, #127
 390              	.LVL17:
 647:Generated_Source\PSoC5/UART_READER.c ****     #endif /* UART_READER_RX_INTERRUPT_ENABLED */
 648:Generated_Source\PSoC5/UART_READER.c ****         
 649:Generated_Source\PSoC5/UART_READER.c ****     }
 391              		.loc 1 649 0
 392 000c 40EA0320 		orr	r0, r0, r3, lsl #8
 393              	.LVL18:
 394 0010 7047     		bx	lr
 395              	.L39:
 396 0012 00BF     		.align	2
 397              	.L38:
 398 0014 67650040 		.word	1073767783
 399 0018 47650040 		.word	1073767751
 400              		.cfi_endproc
 401              	.LFE10:
 402              		.size	UART_READER_GetByte, .-UART_READER_GetByte
 403              		.section	.text.UART_READER_GetRxBufferSize,"ax",%progbits
 404              		.align	1
 405              		.global	UART_READER_GetRxBufferSize
 406              		.thumb
 407              		.thumb_func
 408              		.type	UART_READER_GetRxBufferSize, %function
 409              	UART_READER_GetRxBufferSize:
 410              	.LFB11:
 650:Generated_Source\PSoC5/UART_READER.c **** 
 651:Generated_Source\PSoC5/UART_READER.c **** 
 652:Generated_Source\PSoC5/UART_READER.c ****     /*******************************************************************************
 653:Generated_Source\PSoC5/UART_READER.c ****     * Function Name: UART_READER_GetRxBufferSize
 654:Generated_Source\PSoC5/UART_READER.c ****     ********************************************************************************
 655:Generated_Source\PSoC5/UART_READER.c ****     *
 656:Generated_Source\PSoC5/UART_READER.c ****     * Summary:
 657:Generated_Source\PSoC5/UART_READER.c ****     *  Returns the number of received bytes available in the RX buffer.
 658:Generated_Source\PSoC5/UART_READER.c ****     *  * RX software buffer is disabled (RX Buffer Size parameter is equal to 4): 
 659:Generated_Source\PSoC5/UART_READER.c ****     *    returns 0 for empty RX FIFO or 1 for not empty RX FIFO.
 660:Generated_Source\PSoC5/UART_READER.c ****     *  * RX software buffer is enabled: returns the number of bytes available in 
ARM GAS  C:\Users\yqh\AppData\Local\Temp\cc55pVRK.s 			page 20


 661:Generated_Source\PSoC5/UART_READER.c ****     *    the RX software buffer. Bytes available in the RX FIFO do not take to 
 662:Generated_Source\PSoC5/UART_READER.c ****     *    account.
 663:Generated_Source\PSoC5/UART_READER.c ****     *
 664:Generated_Source\PSoC5/UART_READER.c ****     * Parameters:
 665:Generated_Source\PSoC5/UART_READER.c ****     *  None.
 666:Generated_Source\PSoC5/UART_READER.c ****     *
 667:Generated_Source\PSoC5/UART_READER.c ****     * Return:
 668:Generated_Source\PSoC5/UART_READER.c ****     *  uint8: Number of bytes in the RX buffer. 
 669:Generated_Source\PSoC5/UART_READER.c ****     *    Return value type depends on RX Buffer Size parameter.
 670:Generated_Source\PSoC5/UART_READER.c ****     *
 671:Generated_Source\PSoC5/UART_READER.c ****     * Global Variables:
 672:Generated_Source\PSoC5/UART_READER.c ****     *  UART_READER_rxBufferWrite - used to calculate left bytes.
 673:Generated_Source\PSoC5/UART_READER.c ****     *  UART_READER_rxBufferRead - used to calculate left bytes.
 674:Generated_Source\PSoC5/UART_READER.c ****     *  UART_READER_rxBufferLoopDetect - checked to decide left bytes amount.
 675:Generated_Source\PSoC5/UART_READER.c ****     *
 676:Generated_Source\PSoC5/UART_READER.c ****     * Reentrant:
 677:Generated_Source\PSoC5/UART_READER.c ****     *  No.
 678:Generated_Source\PSoC5/UART_READER.c ****     *
 679:Generated_Source\PSoC5/UART_READER.c ****     * Theory:
 680:Generated_Source\PSoC5/UART_READER.c ****     *  Allows the user to find out how full the RX Buffer is.
 681:Generated_Source\PSoC5/UART_READER.c ****     *
 682:Generated_Source\PSoC5/UART_READER.c ****     *******************************************************************************/
 683:Generated_Source\PSoC5/UART_READER.c ****     uint8 UART_READER_GetRxBufferSize(void)
 684:Generated_Source\PSoC5/UART_READER.c ****                                                             
 685:Generated_Source\PSoC5/UART_READER.c ****     {
 411              		.loc 1 685 0
 412              		.cfi_startproc
 413              		@ args = 0, pretend = 0, frame = 0
 414              		@ frame_needed = 0, uses_anonymous_args = 0
 415              		@ link register save eliminated.
 686:Generated_Source\PSoC5/UART_READER.c ****         uint8 size;
 687:Generated_Source\PSoC5/UART_READER.c **** 
 688:Generated_Source\PSoC5/UART_READER.c ****     #if (UART_READER_RX_INTERRUPT_ENABLED)
 689:Generated_Source\PSoC5/UART_READER.c **** 
 690:Generated_Source\PSoC5/UART_READER.c ****         /* Protect variables that could change on interrupt */
 691:Generated_Source\PSoC5/UART_READER.c ****         UART_READER_DisableRxInt();
 692:Generated_Source\PSoC5/UART_READER.c **** 
 693:Generated_Source\PSoC5/UART_READER.c ****         if(UART_READER_rxBufferRead == UART_READER_rxBufferWrite)
 694:Generated_Source\PSoC5/UART_READER.c ****         {
 695:Generated_Source\PSoC5/UART_READER.c ****             if(UART_READER_rxBufferLoopDetect != 0u)
 696:Generated_Source\PSoC5/UART_READER.c ****             {
 697:Generated_Source\PSoC5/UART_READER.c ****                 size = UART_READER_RX_BUFFER_SIZE;
 698:Generated_Source\PSoC5/UART_READER.c ****             }
 699:Generated_Source\PSoC5/UART_READER.c ****             else
 700:Generated_Source\PSoC5/UART_READER.c ****             {
 701:Generated_Source\PSoC5/UART_READER.c ****                 size = 0u;
 702:Generated_Source\PSoC5/UART_READER.c ****             }
 703:Generated_Source\PSoC5/UART_READER.c ****         }
 704:Generated_Source\PSoC5/UART_READER.c ****         else if(UART_READER_rxBufferRead < UART_READER_rxBufferWrite)
 705:Generated_Source\PSoC5/UART_READER.c ****         {
 706:Generated_Source\PSoC5/UART_READER.c ****             size = (UART_READER_rxBufferWrite - UART_READER_rxBufferRead);
 707:Generated_Source\PSoC5/UART_READER.c ****         }
 708:Generated_Source\PSoC5/UART_READER.c ****         else
 709:Generated_Source\PSoC5/UART_READER.c ****         {
 710:Generated_Source\PSoC5/UART_READER.c ****             size = (UART_READER_RX_BUFFER_SIZE - UART_READER_rxBufferRead) + UART_READER_rxBufferWr
 711:Generated_Source\PSoC5/UART_READER.c ****         }
 712:Generated_Source\PSoC5/UART_READER.c **** 
ARM GAS  C:\Users\yqh\AppData\Local\Temp\cc55pVRK.s 			page 21


 713:Generated_Source\PSoC5/UART_READER.c ****         UART_READER_EnableRxInt();
 714:Generated_Source\PSoC5/UART_READER.c **** 
 715:Generated_Source\PSoC5/UART_READER.c ****     #else
 716:Generated_Source\PSoC5/UART_READER.c **** 
 717:Generated_Source\PSoC5/UART_READER.c ****         /* We can only know if there is data in the fifo. */
 718:Generated_Source\PSoC5/UART_READER.c ****         size = ((UART_READER_RXSTATUS_REG & UART_READER_RX_STS_FIFO_NOTEMPTY) != 0u) ? 1u : 0u;
 416              		.loc 1 718 0
 417 0000 024B     		ldr	r3, .L41
 418 0002 1878     		ldrb	r0, [r3]	@ zero_extendqisi2
 419              	.LVL19:
 719:Generated_Source\PSoC5/UART_READER.c **** 
 720:Generated_Source\PSoC5/UART_READER.c ****     #endif /* (UART_READER_RX_INTERRUPT_ENABLED) */
 721:Generated_Source\PSoC5/UART_READER.c **** 
 722:Generated_Source\PSoC5/UART_READER.c ****         return(size);
 723:Generated_Source\PSoC5/UART_READER.c ****     }
 420              		.loc 1 723 0
 421 0004 C0F34010 		ubfx	r0, r0, #5, #1
 422              	.LVL20:
 423 0008 7047     		bx	lr
 424              	.L42:
 425 000a 00BF     		.align	2
 426              	.L41:
 427 000c 67650040 		.word	1073767783
 428              		.cfi_endproc
 429              	.LFE11:
 430              		.size	UART_READER_GetRxBufferSize, .-UART_READER_GetRxBufferSize
 431              		.section	.text.UART_READER_ClearRxBuffer,"ax",%progbits
 432              		.align	1
 433              		.global	UART_READER_ClearRxBuffer
 434              		.thumb
 435              		.thumb_func
 436              		.type	UART_READER_ClearRxBuffer, %function
 437              	UART_READER_ClearRxBuffer:
 438              	.LFB12:
 724:Generated_Source\PSoC5/UART_READER.c **** 
 725:Generated_Source\PSoC5/UART_READER.c **** 
 726:Generated_Source\PSoC5/UART_READER.c ****     /*******************************************************************************
 727:Generated_Source\PSoC5/UART_READER.c ****     * Function Name: UART_READER_ClearRxBuffer
 728:Generated_Source\PSoC5/UART_READER.c ****     ********************************************************************************
 729:Generated_Source\PSoC5/UART_READER.c ****     *
 730:Generated_Source\PSoC5/UART_READER.c ****     * Summary:
 731:Generated_Source\PSoC5/UART_READER.c ****     *  Clears the receiver memory buffer and hardware RX FIFO of all received data.
 732:Generated_Source\PSoC5/UART_READER.c ****     *
 733:Generated_Source\PSoC5/UART_READER.c ****     * Parameters:
 734:Generated_Source\PSoC5/UART_READER.c ****     *  None.
 735:Generated_Source\PSoC5/UART_READER.c ****     *
 736:Generated_Source\PSoC5/UART_READER.c ****     * Return:
 737:Generated_Source\PSoC5/UART_READER.c ****     *  None.
 738:Generated_Source\PSoC5/UART_READER.c ****     *
 739:Generated_Source\PSoC5/UART_READER.c ****     * Global Variables:
 740:Generated_Source\PSoC5/UART_READER.c ****     *  UART_READER_rxBufferWrite - cleared to zero.
 741:Generated_Source\PSoC5/UART_READER.c ****     *  UART_READER_rxBufferRead - cleared to zero.
 742:Generated_Source\PSoC5/UART_READER.c ****     *  UART_READER_rxBufferLoopDetect - cleared to zero.
 743:Generated_Source\PSoC5/UART_READER.c ****     *  UART_READER_rxBufferOverflow - cleared to zero.
 744:Generated_Source\PSoC5/UART_READER.c ****     *
 745:Generated_Source\PSoC5/UART_READER.c ****     * Reentrant:
 746:Generated_Source\PSoC5/UART_READER.c ****     *  No.
ARM GAS  C:\Users\yqh\AppData\Local\Temp\cc55pVRK.s 			page 22


 747:Generated_Source\PSoC5/UART_READER.c ****     *
 748:Generated_Source\PSoC5/UART_READER.c ****     * Theory:
 749:Generated_Source\PSoC5/UART_READER.c ****     *  Setting the pointers to zero makes the system believe there is no data to
 750:Generated_Source\PSoC5/UART_READER.c ****     *  read and writing will resume at address 0 overwriting any data that may
 751:Generated_Source\PSoC5/UART_READER.c ****     *  have remained in the RAM.
 752:Generated_Source\PSoC5/UART_READER.c ****     *
 753:Generated_Source\PSoC5/UART_READER.c ****     * Side Effects:
 754:Generated_Source\PSoC5/UART_READER.c ****     *  Any received data not read from the RAM or FIFO buffer will be lost.
 755:Generated_Source\PSoC5/UART_READER.c ****     *
 756:Generated_Source\PSoC5/UART_READER.c ****     *******************************************************************************/
 757:Generated_Source\PSoC5/UART_READER.c ****     void UART_READER_ClearRxBuffer(void) 
 758:Generated_Source\PSoC5/UART_READER.c ****     {
 439              		.loc 1 758 0
 440              		.cfi_startproc
 441              		@ args = 0, pretend = 0, frame = 0
 442              		@ frame_needed = 0, uses_anonymous_args = 0
 443 0000 08B5     		push	{r3, lr}
 444              		.cfi_def_cfa_offset 8
 445              		.cfi_offset 3, -8
 446              		.cfi_offset 14, -4
 759:Generated_Source\PSoC5/UART_READER.c ****         uint8 enableInterrupts;
 760:Generated_Source\PSoC5/UART_READER.c **** 
 761:Generated_Source\PSoC5/UART_READER.c ****         /* Clear the HW FIFO */
 762:Generated_Source\PSoC5/UART_READER.c ****         enableInterrupts = CyEnterCriticalSection();
 447              		.loc 1 762 0
 448 0002 FFF7FEFF 		bl	CyEnterCriticalSection
 449              	.LVL21:
 763:Generated_Source\PSoC5/UART_READER.c ****         UART_READER_RXDATA_AUX_CTL_REG |= (uint8)  UART_READER_RX_FIFO_CLR;
 450              		.loc 1 763 0
 451 0006 064B     		ldr	r3, .L44
 452 0008 1A78     		ldrb	r2, [r3]	@ zero_extendqisi2
 453 000a 42F00102 		orr	r2, r2, #1
 454 000e 1A70     		strb	r2, [r3]
 764:Generated_Source\PSoC5/UART_READER.c ****         UART_READER_RXDATA_AUX_CTL_REG &= (uint8) ~UART_READER_RX_FIFO_CLR;
 455              		.loc 1 764 0
 456 0010 1A78     		ldrb	r2, [r3]	@ zero_extendqisi2
 457 0012 02F0FE02 		and	r2, r2, #254
 458 0016 1A70     		strb	r2, [r3]
 765:Generated_Source\PSoC5/UART_READER.c ****         CyExitCriticalSection(enableInterrupts);
 766:Generated_Source\PSoC5/UART_READER.c **** 
 767:Generated_Source\PSoC5/UART_READER.c ****     #if (UART_READER_RX_INTERRUPT_ENABLED)
 768:Generated_Source\PSoC5/UART_READER.c **** 
 769:Generated_Source\PSoC5/UART_READER.c ****         /* Protect variables that could change on interrupt. */
 770:Generated_Source\PSoC5/UART_READER.c ****         UART_READER_DisableRxInt();
 771:Generated_Source\PSoC5/UART_READER.c **** 
 772:Generated_Source\PSoC5/UART_READER.c ****         UART_READER_rxBufferRead = 0u;
 773:Generated_Source\PSoC5/UART_READER.c ****         UART_READER_rxBufferWrite = 0u;
 774:Generated_Source\PSoC5/UART_READER.c ****         UART_READER_rxBufferLoopDetect = 0u;
 775:Generated_Source\PSoC5/UART_READER.c ****         UART_READER_rxBufferOverflow = 0u;
 776:Generated_Source\PSoC5/UART_READER.c **** 
 777:Generated_Source\PSoC5/UART_READER.c ****         UART_READER_EnableRxInt();
 778:Generated_Source\PSoC5/UART_READER.c **** 
 779:Generated_Source\PSoC5/UART_READER.c ****     #endif /* (UART_READER_RX_INTERRUPT_ENABLED) */
 780:Generated_Source\PSoC5/UART_READER.c **** 
 781:Generated_Source\PSoC5/UART_READER.c ****     }
 459              		.loc 1 781 0
 460 0018 BDE80840 		pop	{r3, lr}
ARM GAS  C:\Users\yqh\AppData\Local\Temp\cc55pVRK.s 			page 23


 461              		.cfi_restore 14
 462              		.cfi_restore 3
 463              		.cfi_def_cfa_offset 0
 765:Generated_Source\PSoC5/UART_READER.c ****         CyExitCriticalSection(enableInterrupts);
 464              		.loc 1 765 0
 465 001c FFF7FEBF 		b	CyExitCriticalSection
 466              	.LVL22:
 467              	.L45:
 468              		.align	2
 469              	.L44:
 470 0020 97650040 		.word	1073767831
 471              		.cfi_endproc
 472              	.LFE12:
 473              		.size	UART_READER_ClearRxBuffer, .-UART_READER_ClearRxBuffer
 474              		.section	.text.UART_READER_SetRxAddressMode,"ax",%progbits
 475              		.align	1
 476              		.global	UART_READER_SetRxAddressMode
 477              		.thumb
 478              		.thumb_func
 479              		.type	UART_READER_SetRxAddressMode, %function
 480              	UART_READER_SetRxAddressMode:
 481              	.LFB13:
 782:Generated_Source\PSoC5/UART_READER.c **** 
 783:Generated_Source\PSoC5/UART_READER.c **** 
 784:Generated_Source\PSoC5/UART_READER.c ****     /*******************************************************************************
 785:Generated_Source\PSoC5/UART_READER.c ****     * Function Name: UART_READER_SetRxAddressMode
 786:Generated_Source\PSoC5/UART_READER.c ****     ********************************************************************************
 787:Generated_Source\PSoC5/UART_READER.c ****     *
 788:Generated_Source\PSoC5/UART_READER.c ****     * Summary:
 789:Generated_Source\PSoC5/UART_READER.c ****     *  Sets the software controlled Addressing mode used by the RX portion of the
 790:Generated_Source\PSoC5/UART_READER.c ****     *  UART.
 791:Generated_Source\PSoC5/UART_READER.c ****     *
 792:Generated_Source\PSoC5/UART_READER.c ****     * Parameters:
 793:Generated_Source\PSoC5/UART_READER.c ****     *  addressMode: Enumerated value indicating the mode of RX addressing
 794:Generated_Source\PSoC5/UART_READER.c ****     *  UART_READER__B_UART__AM_SW_BYTE_BYTE -  Software Byte-by-Byte address
 795:Generated_Source\PSoC5/UART_READER.c ****     *                                               detection
 796:Generated_Source\PSoC5/UART_READER.c ****     *  UART_READER__B_UART__AM_SW_DETECT_TO_BUFFER - Software Detect to Buffer
 797:Generated_Source\PSoC5/UART_READER.c ****     *                                               address detection
 798:Generated_Source\PSoC5/UART_READER.c ****     *  UART_READER__B_UART__AM_HW_BYTE_BY_BYTE - Hardware Byte-by-Byte address
 799:Generated_Source\PSoC5/UART_READER.c ****     *                                               detection
 800:Generated_Source\PSoC5/UART_READER.c ****     *  UART_READER__B_UART__AM_HW_DETECT_TO_BUFFER - Hardware Detect to Buffer
 801:Generated_Source\PSoC5/UART_READER.c ****     *                                               address detection
 802:Generated_Source\PSoC5/UART_READER.c ****     *  UART_READER__B_UART__AM_NONE - No address detection
 803:Generated_Source\PSoC5/UART_READER.c ****     *
 804:Generated_Source\PSoC5/UART_READER.c ****     * Return:
 805:Generated_Source\PSoC5/UART_READER.c ****     *  None.
 806:Generated_Source\PSoC5/UART_READER.c ****     *
 807:Generated_Source\PSoC5/UART_READER.c ****     * Global Variables:
 808:Generated_Source\PSoC5/UART_READER.c ****     *  UART_READER_rxAddressMode - the parameter stored in this variable for
 809:Generated_Source\PSoC5/UART_READER.c ****     *   the farther usage in RX ISR.
 810:Generated_Source\PSoC5/UART_READER.c ****     *  UART_READER_rxAddressDetected - set to initial state (0).
 811:Generated_Source\PSoC5/UART_READER.c ****     *
 812:Generated_Source\PSoC5/UART_READER.c ****     *******************************************************************************/
 813:Generated_Source\PSoC5/UART_READER.c ****     void UART_READER_SetRxAddressMode(uint8 addressMode)
 814:Generated_Source\PSoC5/UART_READER.c ****                                                         
 815:Generated_Source\PSoC5/UART_READER.c ****     {
 482              		.loc 1 815 0
ARM GAS  C:\Users\yqh\AppData\Local\Temp\cc55pVRK.s 			page 24


 483              		.cfi_startproc
 484              		@ args = 0, pretend = 0, frame = 0
 485              		@ frame_needed = 0, uses_anonymous_args = 0
 486              		@ link register save eliminated.
 487              	.LVL23:
 488 0000 7047     		bx	lr
 489              		.cfi_endproc
 490              	.LFE13:
 491              		.size	UART_READER_SetRxAddressMode, .-UART_READER_SetRxAddressMode
 492              		.section	.text.UART_READER_SetRxAddress1,"ax",%progbits
 493              		.align	1
 494              		.global	UART_READER_SetRxAddress1
 495              		.thumb
 496              		.thumb_func
 497              		.type	UART_READER_SetRxAddress1, %function
 498              	UART_READER_SetRxAddress1:
 499              	.LFB14:
 816:Generated_Source\PSoC5/UART_READER.c ****         #if(UART_READER_RXHW_ADDRESS_ENABLED)
 817:Generated_Source\PSoC5/UART_READER.c ****             #if(UART_READER_CONTROL_REG_REMOVED)
 818:Generated_Source\PSoC5/UART_READER.c ****                 if(0u != addressMode)
 819:Generated_Source\PSoC5/UART_READER.c ****                 {
 820:Generated_Source\PSoC5/UART_READER.c ****                     /* Suppress compiler warning */
 821:Generated_Source\PSoC5/UART_READER.c ****                 }
 822:Generated_Source\PSoC5/UART_READER.c ****             #else /* UART_READER_CONTROL_REG_REMOVED */
 823:Generated_Source\PSoC5/UART_READER.c ****                 uint8 tmpCtrl;
 824:Generated_Source\PSoC5/UART_READER.c ****                 tmpCtrl = UART_READER_CONTROL_REG & (uint8)~UART_READER_CTRL_RXADDR_MODE_MASK;
 825:Generated_Source\PSoC5/UART_READER.c ****                 tmpCtrl |= (uint8)(addressMode << UART_READER_CTRL_RXADDR_MODE0_SHIFT);
 826:Generated_Source\PSoC5/UART_READER.c ****                 UART_READER_CONTROL_REG = tmpCtrl;
 827:Generated_Source\PSoC5/UART_READER.c **** 
 828:Generated_Source\PSoC5/UART_READER.c ****                 #if(UART_READER_RX_INTERRUPT_ENABLED && \
 829:Generated_Source\PSoC5/UART_READER.c ****                    (UART_READER_RXBUFFERSIZE > UART_READER_FIFO_LENGTH) )
 830:Generated_Source\PSoC5/UART_READER.c ****                     UART_READER_rxAddressMode = addressMode;
 831:Generated_Source\PSoC5/UART_READER.c ****                     UART_READER_rxAddressDetected = 0u;
 832:Generated_Source\PSoC5/UART_READER.c ****                 #endif /* End UART_READER_RXBUFFERSIZE > UART_READER_FIFO_LENGTH*/
 833:Generated_Source\PSoC5/UART_READER.c ****             #endif /* End UART_READER_CONTROL_REG_REMOVED */
 834:Generated_Source\PSoC5/UART_READER.c ****         #else /* UART_READER_RXHW_ADDRESS_ENABLED */
 835:Generated_Source\PSoC5/UART_READER.c ****             if(0u != addressMode)
 836:Generated_Source\PSoC5/UART_READER.c ****             {
 837:Generated_Source\PSoC5/UART_READER.c ****                 /* Suppress compiler warning */
 838:Generated_Source\PSoC5/UART_READER.c ****             }
 839:Generated_Source\PSoC5/UART_READER.c ****         #endif /* End UART_READER_RXHW_ADDRESS_ENABLED */
 840:Generated_Source\PSoC5/UART_READER.c ****     }
 841:Generated_Source\PSoC5/UART_READER.c **** 
 842:Generated_Source\PSoC5/UART_READER.c **** 
 843:Generated_Source\PSoC5/UART_READER.c ****     /*******************************************************************************
 844:Generated_Source\PSoC5/UART_READER.c ****     * Function Name: UART_READER_SetRxAddress1
 845:Generated_Source\PSoC5/UART_READER.c ****     ********************************************************************************
 846:Generated_Source\PSoC5/UART_READER.c ****     *
 847:Generated_Source\PSoC5/UART_READER.c ****     * Summary:
 848:Generated_Source\PSoC5/UART_READER.c ****     *  Sets the first of two hardware-detectable receiver addresses.
 849:Generated_Source\PSoC5/UART_READER.c ****     *
 850:Generated_Source\PSoC5/UART_READER.c ****     * Parameters:
 851:Generated_Source\PSoC5/UART_READER.c ****     *  address: Address #1 for hardware address detection.
 852:Generated_Source\PSoC5/UART_READER.c ****     *
 853:Generated_Source\PSoC5/UART_READER.c ****     * Return:
 854:Generated_Source\PSoC5/UART_READER.c ****     *  None.
 855:Generated_Source\PSoC5/UART_READER.c ****     *
ARM GAS  C:\Users\yqh\AppData\Local\Temp\cc55pVRK.s 			page 25


 856:Generated_Source\PSoC5/UART_READER.c ****     *******************************************************************************/
 857:Generated_Source\PSoC5/UART_READER.c ****     void UART_READER_SetRxAddress1(uint8 address) 
 858:Generated_Source\PSoC5/UART_READER.c ****     {
 500              		.loc 1 858 0
 501              		.cfi_startproc
 502              		@ args = 0, pretend = 0, frame = 0
 503              		@ frame_needed = 0, uses_anonymous_args = 0
 504              		@ link register save eliminated.
 505              	.LVL24:
 859:Generated_Source\PSoC5/UART_READER.c ****         UART_READER_RXADDRESS1_REG = address;
 506              		.loc 1 859 0
 507 0000 014B     		ldr	r3, .L48
 508 0002 1870     		strb	r0, [r3]
 509 0004 7047     		bx	lr
 510              	.L49:
 511 0006 00BF     		.align	2
 512              	.L48:
 513 0008 27650040 		.word	1073767719
 514              		.cfi_endproc
 515              	.LFE14:
 516              		.size	UART_READER_SetRxAddress1, .-UART_READER_SetRxAddress1
 517              		.section	.text.UART_READER_SetRxAddress2,"ax",%progbits
 518              		.align	1
 519              		.global	UART_READER_SetRxAddress2
 520              		.thumb
 521              		.thumb_func
 522              		.type	UART_READER_SetRxAddress2, %function
 523              	UART_READER_SetRxAddress2:
 524              	.LFB15:
 860:Generated_Source\PSoC5/UART_READER.c ****     }
 861:Generated_Source\PSoC5/UART_READER.c **** 
 862:Generated_Source\PSoC5/UART_READER.c **** 
 863:Generated_Source\PSoC5/UART_READER.c ****     /*******************************************************************************
 864:Generated_Source\PSoC5/UART_READER.c ****     * Function Name: UART_READER_SetRxAddress2
 865:Generated_Source\PSoC5/UART_READER.c ****     ********************************************************************************
 866:Generated_Source\PSoC5/UART_READER.c ****     *
 867:Generated_Source\PSoC5/UART_READER.c ****     * Summary:
 868:Generated_Source\PSoC5/UART_READER.c ****     *  Sets the second of two hardware-detectable receiver addresses.
 869:Generated_Source\PSoC5/UART_READER.c ****     *
 870:Generated_Source\PSoC5/UART_READER.c ****     * Parameters:
 871:Generated_Source\PSoC5/UART_READER.c ****     *  address: Address #2 for hardware address detection.
 872:Generated_Source\PSoC5/UART_READER.c ****     *
 873:Generated_Source\PSoC5/UART_READER.c ****     * Return:
 874:Generated_Source\PSoC5/UART_READER.c ****     *  None.
 875:Generated_Source\PSoC5/UART_READER.c ****     *
 876:Generated_Source\PSoC5/UART_READER.c ****     *******************************************************************************/
 877:Generated_Source\PSoC5/UART_READER.c ****     void UART_READER_SetRxAddress2(uint8 address) 
 878:Generated_Source\PSoC5/UART_READER.c ****     {
 525              		.loc 1 878 0
 526              		.cfi_startproc
 527              		@ args = 0, pretend = 0, frame = 0
 528              		@ frame_needed = 0, uses_anonymous_args = 0
 529              		@ link register save eliminated.
 530              	.LVL25:
 879:Generated_Source\PSoC5/UART_READER.c ****         UART_READER_RXADDRESS2_REG = address;
 531              		.loc 1 879 0
 532 0000 014B     		ldr	r3, .L51
ARM GAS  C:\Users\yqh\AppData\Local\Temp\cc55pVRK.s 			page 26


 533 0002 1870     		strb	r0, [r3]
 534 0004 7047     		bx	lr
 535              	.L52:
 536 0006 00BF     		.align	2
 537              	.L51:
 538 0008 37650040 		.word	1073767735
 539              		.cfi_endproc
 540              	.LFE15:
 541              		.size	UART_READER_SetRxAddress2, .-UART_READER_SetRxAddress2
 542              		.section	.text.UART_READER_SetTxInterruptMode,"ax",%progbits
 543              		.align	1
 544              		.global	UART_READER_SetTxInterruptMode
 545              		.thumb
 546              		.thumb_func
 547              		.type	UART_READER_SetTxInterruptMode, %function
 548              	UART_READER_SetTxInterruptMode:
 549              	.LFB16:
 880:Generated_Source\PSoC5/UART_READER.c ****     }
 881:Generated_Source\PSoC5/UART_READER.c **** 
 882:Generated_Source\PSoC5/UART_READER.c **** #endif  /* UART_READER_RX_ENABLED || UART_READER_HD_ENABLED*/
 883:Generated_Source\PSoC5/UART_READER.c **** 
 884:Generated_Source\PSoC5/UART_READER.c **** 
 885:Generated_Source\PSoC5/UART_READER.c **** #if( (UART_READER_TX_ENABLED) || (UART_READER_HD_ENABLED) )
 886:Generated_Source\PSoC5/UART_READER.c ****     /*******************************************************************************
 887:Generated_Source\PSoC5/UART_READER.c ****     * Function Name: UART_READER_SetTxInterruptMode
 888:Generated_Source\PSoC5/UART_READER.c ****     ********************************************************************************
 889:Generated_Source\PSoC5/UART_READER.c ****     *
 890:Generated_Source\PSoC5/UART_READER.c ****     * Summary:
 891:Generated_Source\PSoC5/UART_READER.c ****     *  Configures the TX interrupt sources to be enabled, but does not enable the
 892:Generated_Source\PSoC5/UART_READER.c ****     *  interrupt.
 893:Generated_Source\PSoC5/UART_READER.c ****     *
 894:Generated_Source\PSoC5/UART_READER.c ****     * Parameters:
 895:Generated_Source\PSoC5/UART_READER.c ****     *  intSrc: Bit field containing the TX interrupt sources to enable
 896:Generated_Source\PSoC5/UART_READER.c ****     *   UART_READER_TX_STS_COMPLETE        Interrupt on TX byte complete
 897:Generated_Source\PSoC5/UART_READER.c ****     *   UART_READER_TX_STS_FIFO_EMPTY      Interrupt when TX FIFO is empty
 898:Generated_Source\PSoC5/UART_READER.c ****     *   UART_READER_TX_STS_FIFO_FULL       Interrupt when TX FIFO is full
 899:Generated_Source\PSoC5/UART_READER.c ****     *   UART_READER_TX_STS_FIFO_NOT_FULL   Interrupt when TX FIFO is not full
 900:Generated_Source\PSoC5/UART_READER.c ****     *
 901:Generated_Source\PSoC5/UART_READER.c ****     * Return:
 902:Generated_Source\PSoC5/UART_READER.c ****     *  None.
 903:Generated_Source\PSoC5/UART_READER.c ****     *
 904:Generated_Source\PSoC5/UART_READER.c ****     * Theory:
 905:Generated_Source\PSoC5/UART_READER.c ****     *  Enables the output of specific status bits to the interrupt controller
 906:Generated_Source\PSoC5/UART_READER.c ****     *
 907:Generated_Source\PSoC5/UART_READER.c ****     *******************************************************************************/
 908:Generated_Source\PSoC5/UART_READER.c ****     void UART_READER_SetTxInterruptMode(uint8 intSrc) 
 909:Generated_Source\PSoC5/UART_READER.c ****     {
 550              		.loc 1 909 0
 551              		.cfi_startproc
 552              		@ args = 0, pretend = 0, frame = 0
 553              		@ frame_needed = 0, uses_anonymous_args = 0
 554              		@ link register save eliminated.
 555              	.LVL26:
 910:Generated_Source\PSoC5/UART_READER.c ****         UART_READER_TXSTATUS_MASK_REG = intSrc;
 556              		.loc 1 910 0
 557 0000 014B     		ldr	r3, .L54
 558 0002 1870     		strb	r0, [r3]
ARM GAS  C:\Users\yqh\AppData\Local\Temp\cc55pVRK.s 			page 27


 559 0004 7047     		bx	lr
 560              	.L55:
 561 0006 00BF     		.align	2
 562              	.L54:
 563 0008 87650040 		.word	1073767815
 564              		.cfi_endproc
 565              	.LFE16:
 566              		.size	UART_READER_SetTxInterruptMode, .-UART_READER_SetTxInterruptMode
 567              		.section	.text.UART_READER_WriteTxData,"ax",%progbits
 568              		.align	1
 569              		.global	UART_READER_WriteTxData
 570              		.thumb
 571              		.thumb_func
 572              		.type	UART_READER_WriteTxData, %function
 573              	UART_READER_WriteTxData:
 574              	.LFB17:
 911:Generated_Source\PSoC5/UART_READER.c ****     }
 912:Generated_Source\PSoC5/UART_READER.c **** 
 913:Generated_Source\PSoC5/UART_READER.c **** 
 914:Generated_Source\PSoC5/UART_READER.c ****     /*******************************************************************************
 915:Generated_Source\PSoC5/UART_READER.c ****     * Function Name: UART_READER_WriteTxData
 916:Generated_Source\PSoC5/UART_READER.c ****     ********************************************************************************
 917:Generated_Source\PSoC5/UART_READER.c ****     *
 918:Generated_Source\PSoC5/UART_READER.c ****     * Summary:
 919:Generated_Source\PSoC5/UART_READER.c ****     *  Places a byte of data into the transmit buffer to be sent when the bus is
 920:Generated_Source\PSoC5/UART_READER.c ****     *  available without checking the TX status register. You must check status
 921:Generated_Source\PSoC5/UART_READER.c ****     *  separately.
 922:Generated_Source\PSoC5/UART_READER.c ****     *
 923:Generated_Source\PSoC5/UART_READER.c ****     * Parameters:
 924:Generated_Source\PSoC5/UART_READER.c ****     *  txDataByte: data byte
 925:Generated_Source\PSoC5/UART_READER.c ****     *
 926:Generated_Source\PSoC5/UART_READER.c ****     * Return:
 927:Generated_Source\PSoC5/UART_READER.c ****     * None.
 928:Generated_Source\PSoC5/UART_READER.c ****     *
 929:Generated_Source\PSoC5/UART_READER.c ****     * Global Variables:
 930:Generated_Source\PSoC5/UART_READER.c ****     *  UART_READER_txBuffer - RAM buffer pointer for save data for transmission
 931:Generated_Source\PSoC5/UART_READER.c ****     *  UART_READER_txBufferWrite - cyclic index for write to txBuffer,
 932:Generated_Source\PSoC5/UART_READER.c ****     *    incremented after each byte saved to buffer.
 933:Generated_Source\PSoC5/UART_READER.c ****     *  UART_READER_txBufferRead - cyclic index for read from txBuffer,
 934:Generated_Source\PSoC5/UART_READER.c ****     *    checked to identify the condition to write to FIFO directly or to TX buffer
 935:Generated_Source\PSoC5/UART_READER.c ****     *  UART_READER_initVar - checked to identify that the component has been
 936:Generated_Source\PSoC5/UART_READER.c ****     *    initialized.
 937:Generated_Source\PSoC5/UART_READER.c ****     *
 938:Generated_Source\PSoC5/UART_READER.c ****     * Reentrant:
 939:Generated_Source\PSoC5/UART_READER.c ****     *  No.
 940:Generated_Source\PSoC5/UART_READER.c ****     *
 941:Generated_Source\PSoC5/UART_READER.c ****     *******************************************************************************/
 942:Generated_Source\PSoC5/UART_READER.c ****     void UART_READER_WriteTxData(uint8 txDataByte) 
 943:Generated_Source\PSoC5/UART_READER.c ****     {
 575              		.loc 1 943 0
 576              		.cfi_startproc
 577              		@ args = 0, pretend = 0, frame = 0
 578              		@ frame_needed = 0, uses_anonymous_args = 0
 579              		@ link register save eliminated.
 580              	.LVL27:
 944:Generated_Source\PSoC5/UART_READER.c ****         /* If not Initialized then skip this function*/
 945:Generated_Source\PSoC5/UART_READER.c ****         if(UART_READER_initVar != 0u)
ARM GAS  C:\Users\yqh\AppData\Local\Temp\cc55pVRK.s 			page 28


 581              		.loc 1 945 0
 582 0000 024B     		ldr	r3, .L61
 583 0002 1B78     		ldrb	r3, [r3]	@ zero_extendqisi2
 584 0004 0BB1     		cbz	r3, .L56
 946:Generated_Source\PSoC5/UART_READER.c ****         {
 947:Generated_Source\PSoC5/UART_READER.c ****         #if (UART_READER_TX_INTERRUPT_ENABLED)
 948:Generated_Source\PSoC5/UART_READER.c **** 
 949:Generated_Source\PSoC5/UART_READER.c ****             /* Protect variables that could change on interrupt. */
 950:Generated_Source\PSoC5/UART_READER.c ****             UART_READER_DisableTxInt();
 951:Generated_Source\PSoC5/UART_READER.c **** 
 952:Generated_Source\PSoC5/UART_READER.c ****             if( (UART_READER_txBufferRead == UART_READER_txBufferWrite) &&
 953:Generated_Source\PSoC5/UART_READER.c ****                 ((UART_READER_TXSTATUS_REG & UART_READER_TX_STS_FIFO_FULL) == 0u) )
 954:Generated_Source\PSoC5/UART_READER.c ****             {
 955:Generated_Source\PSoC5/UART_READER.c ****                 /* Add directly to the FIFO. */
 956:Generated_Source\PSoC5/UART_READER.c ****                 UART_READER_TXDATA_REG = txDataByte;
 957:Generated_Source\PSoC5/UART_READER.c ****             }
 958:Generated_Source\PSoC5/UART_READER.c ****             else
 959:Generated_Source\PSoC5/UART_READER.c ****             {
 960:Generated_Source\PSoC5/UART_READER.c ****                 if(UART_READER_txBufferWrite >= UART_READER_TX_BUFFER_SIZE)
 961:Generated_Source\PSoC5/UART_READER.c ****                 {
 962:Generated_Source\PSoC5/UART_READER.c ****                     UART_READER_txBufferWrite = 0u;
 963:Generated_Source\PSoC5/UART_READER.c ****                 }
 964:Generated_Source\PSoC5/UART_READER.c **** 
 965:Generated_Source\PSoC5/UART_READER.c ****                 UART_READER_txBuffer[UART_READER_txBufferWrite] = txDataByte;
 966:Generated_Source\PSoC5/UART_READER.c **** 
 967:Generated_Source\PSoC5/UART_READER.c ****                 /* Add to the software buffer. */
 968:Generated_Source\PSoC5/UART_READER.c ****                 UART_READER_txBufferWrite++;
 969:Generated_Source\PSoC5/UART_READER.c ****             }
 970:Generated_Source\PSoC5/UART_READER.c **** 
 971:Generated_Source\PSoC5/UART_READER.c ****             UART_READER_EnableTxInt();
 972:Generated_Source\PSoC5/UART_READER.c **** 
 973:Generated_Source\PSoC5/UART_READER.c ****         #else
 974:Generated_Source\PSoC5/UART_READER.c **** 
 975:Generated_Source\PSoC5/UART_READER.c ****             /* Add directly to the FIFO. */
 976:Generated_Source\PSoC5/UART_READER.c ****             UART_READER_TXDATA_REG = txDataByte;
 585              		.loc 1 976 0
 586 0006 024B     		ldr	r3, .L61+4
 587 0008 1870     		strb	r0, [r3]
 588              	.L56:
 589 000a 7047     		bx	lr
 590              	.L62:
 591              		.align	2
 592              	.L61:
 593 000c 00000000 		.word	.LANCHOR0
 594 0010 57650040 		.word	1073767767
 595              		.cfi_endproc
 596              	.LFE17:
 597              		.size	UART_READER_WriteTxData, .-UART_READER_WriteTxData
 598              		.section	.text.UART_READER_ReadTxStatus,"ax",%progbits
 599              		.align	1
 600              		.global	UART_READER_ReadTxStatus
 601              		.thumb
 602              		.thumb_func
 603              		.type	UART_READER_ReadTxStatus, %function
 604              	UART_READER_ReadTxStatus:
 605              	.LFB18:
 977:Generated_Source\PSoC5/UART_READER.c **** 
ARM GAS  C:\Users\yqh\AppData\Local\Temp\cc55pVRK.s 			page 29


 978:Generated_Source\PSoC5/UART_READER.c ****         #endif /*(UART_READER_TX_INTERRUPT_ENABLED) */
 979:Generated_Source\PSoC5/UART_READER.c ****         }
 980:Generated_Source\PSoC5/UART_READER.c ****     }
 981:Generated_Source\PSoC5/UART_READER.c **** 
 982:Generated_Source\PSoC5/UART_READER.c **** 
 983:Generated_Source\PSoC5/UART_READER.c ****     /*******************************************************************************
 984:Generated_Source\PSoC5/UART_READER.c ****     * Function Name: UART_READER_ReadTxStatus
 985:Generated_Source\PSoC5/UART_READER.c ****     ********************************************************************************
 986:Generated_Source\PSoC5/UART_READER.c ****     *
 987:Generated_Source\PSoC5/UART_READER.c ****     * Summary:
 988:Generated_Source\PSoC5/UART_READER.c ****     *  Reads the status register for the TX portion of the UART.
 989:Generated_Source\PSoC5/UART_READER.c ****     *
 990:Generated_Source\PSoC5/UART_READER.c ****     * Parameters:
 991:Generated_Source\PSoC5/UART_READER.c ****     *  None.
 992:Generated_Source\PSoC5/UART_READER.c ****     *
 993:Generated_Source\PSoC5/UART_READER.c ****     * Return:
 994:Generated_Source\PSoC5/UART_READER.c ****     *  Contents of the status register
 995:Generated_Source\PSoC5/UART_READER.c ****     *
 996:Generated_Source\PSoC5/UART_READER.c ****     * Theory:
 997:Generated_Source\PSoC5/UART_READER.c ****     *  This function reads the TX status register, which is cleared on read.
 998:Generated_Source\PSoC5/UART_READER.c ****     *  It is up to the user to handle all bits in this return value accordingly,
 999:Generated_Source\PSoC5/UART_READER.c ****     *  even if the bit was not enabled as an interrupt source the event happened
1000:Generated_Source\PSoC5/UART_READER.c ****     *  and must be handled accordingly.
1001:Generated_Source\PSoC5/UART_READER.c ****     *
1002:Generated_Source\PSoC5/UART_READER.c ****     *******************************************************************************/
1003:Generated_Source\PSoC5/UART_READER.c ****     uint8 UART_READER_ReadTxStatus(void) 
1004:Generated_Source\PSoC5/UART_READER.c ****     {
 606              		.loc 1 1004 0
 607              		.cfi_startproc
 608              		@ args = 0, pretend = 0, frame = 0
 609              		@ frame_needed = 0, uses_anonymous_args = 0
 610              		@ link register save eliminated.
1005:Generated_Source\PSoC5/UART_READER.c ****         return(UART_READER_TXSTATUS_REG);
 611              		.loc 1 1005 0
 612 0000 014B     		ldr	r3, .L64
 613 0002 1878     		ldrb	r0, [r3]	@ zero_extendqisi2
1006:Generated_Source\PSoC5/UART_READER.c ****     }
 614              		.loc 1 1006 0
 615 0004 7047     		bx	lr
 616              	.L65:
 617 0006 00BF     		.align	2
 618              	.L64:
 619 0008 67650040 		.word	1073767783
 620              		.cfi_endproc
 621              	.LFE18:
 622              		.size	UART_READER_ReadTxStatus, .-UART_READER_ReadTxStatus
 623              		.section	.text.UART_READER_PutChar,"ax",%progbits
 624              		.align	1
 625              		.global	UART_READER_PutChar
 626              		.thumb
 627              		.thumb_func
 628              		.type	UART_READER_PutChar, %function
 629              	UART_READER_PutChar:
 630              	.LFB19:
1007:Generated_Source\PSoC5/UART_READER.c **** 
1008:Generated_Source\PSoC5/UART_READER.c **** 
1009:Generated_Source\PSoC5/UART_READER.c ****     /*******************************************************************************
ARM GAS  C:\Users\yqh\AppData\Local\Temp\cc55pVRK.s 			page 30


1010:Generated_Source\PSoC5/UART_READER.c ****     * Function Name: UART_READER_PutChar
1011:Generated_Source\PSoC5/UART_READER.c ****     ********************************************************************************
1012:Generated_Source\PSoC5/UART_READER.c ****     *
1013:Generated_Source\PSoC5/UART_READER.c ****     * Summary:
1014:Generated_Source\PSoC5/UART_READER.c ****     *  Puts a byte of data into the transmit buffer to be sent when the bus is
1015:Generated_Source\PSoC5/UART_READER.c ****     *  available. This is a blocking API that waits until the TX buffer has room to
1016:Generated_Source\PSoC5/UART_READER.c ****     *  hold the data.
1017:Generated_Source\PSoC5/UART_READER.c ****     *
1018:Generated_Source\PSoC5/UART_READER.c ****     * Parameters:
1019:Generated_Source\PSoC5/UART_READER.c ****     *  txDataByte: Byte containing the data to transmit
1020:Generated_Source\PSoC5/UART_READER.c ****     *
1021:Generated_Source\PSoC5/UART_READER.c ****     * Return:
1022:Generated_Source\PSoC5/UART_READER.c ****     *  None.
1023:Generated_Source\PSoC5/UART_READER.c ****     *
1024:Generated_Source\PSoC5/UART_READER.c ****     * Global Variables:
1025:Generated_Source\PSoC5/UART_READER.c ****     *  UART_READER_txBuffer - RAM buffer pointer for save data for transmission
1026:Generated_Source\PSoC5/UART_READER.c ****     *  UART_READER_txBufferWrite - cyclic index for write to txBuffer,
1027:Generated_Source\PSoC5/UART_READER.c ****     *     checked to identify free space in txBuffer and incremented after each byte
1028:Generated_Source\PSoC5/UART_READER.c ****     *     saved to buffer.
1029:Generated_Source\PSoC5/UART_READER.c ****     *  UART_READER_txBufferRead - cyclic index for read from txBuffer,
1030:Generated_Source\PSoC5/UART_READER.c ****     *     checked to identify free space in txBuffer.
1031:Generated_Source\PSoC5/UART_READER.c ****     *  UART_READER_initVar - checked to identify that the component has been
1032:Generated_Source\PSoC5/UART_READER.c ****     *     initialized.
1033:Generated_Source\PSoC5/UART_READER.c ****     *
1034:Generated_Source\PSoC5/UART_READER.c ****     * Reentrant:
1035:Generated_Source\PSoC5/UART_READER.c ****     *  No.
1036:Generated_Source\PSoC5/UART_READER.c ****     *
1037:Generated_Source\PSoC5/UART_READER.c ****     * Theory:
1038:Generated_Source\PSoC5/UART_READER.c ****     *  Allows the user to transmit any byte of data in a single transfer
1039:Generated_Source\PSoC5/UART_READER.c ****     *
1040:Generated_Source\PSoC5/UART_READER.c ****     *******************************************************************************/
1041:Generated_Source\PSoC5/UART_READER.c ****     void UART_READER_PutChar(uint8 txDataByte) 
1042:Generated_Source\PSoC5/UART_READER.c ****     {
 631              		.loc 1 1042 0
 632              		.cfi_startproc
 633              		@ args = 0, pretend = 0, frame = 0
 634              		@ frame_needed = 0, uses_anonymous_args = 0
 635              		@ link register save eliminated.
 636              	.LVL28:
 637              	.L67:
1043:Generated_Source\PSoC5/UART_READER.c ****     #if (UART_READER_TX_INTERRUPT_ENABLED)
1044:Generated_Source\PSoC5/UART_READER.c ****         /* The temporary output pointer is used since it takes two instructions
1045:Generated_Source\PSoC5/UART_READER.c ****         *  to increment with a wrap, and we can't risk doing that with the real
1046:Generated_Source\PSoC5/UART_READER.c ****         *  pointer and getting an interrupt in between instructions.
1047:Generated_Source\PSoC5/UART_READER.c ****         */
1048:Generated_Source\PSoC5/UART_READER.c ****         uint8 locTxBufferWrite;
1049:Generated_Source\PSoC5/UART_READER.c ****         uint8 locTxBufferRead;
1050:Generated_Source\PSoC5/UART_READER.c **** 
1051:Generated_Source\PSoC5/UART_READER.c ****         do
1052:Generated_Source\PSoC5/UART_READER.c ****         { /* Block if software buffer is full, so we don't overwrite. */
1053:Generated_Source\PSoC5/UART_READER.c **** 
1054:Generated_Source\PSoC5/UART_READER.c ****         #if ((UART_READER_TX_BUFFER_SIZE > UART_READER_MAX_BYTE_VALUE) && (CY_PSOC3))
1055:Generated_Source\PSoC5/UART_READER.c ****             /* Disable TX interrupt to protect variables from modification */
1056:Generated_Source\PSoC5/UART_READER.c ****             UART_READER_DisableTxInt();
1057:Generated_Source\PSoC5/UART_READER.c ****         #endif /* (UART_READER_TX_BUFFER_SIZE > UART_READER_MAX_BYTE_VALUE) && (CY_PSOC3) */
1058:Generated_Source\PSoC5/UART_READER.c **** 
1059:Generated_Source\PSoC5/UART_READER.c ****             locTxBufferWrite = UART_READER_txBufferWrite;
ARM GAS  C:\Users\yqh\AppData\Local\Temp\cc55pVRK.s 			page 31


1060:Generated_Source\PSoC5/UART_READER.c ****             locTxBufferRead  = UART_READER_txBufferRead;
1061:Generated_Source\PSoC5/UART_READER.c **** 
1062:Generated_Source\PSoC5/UART_READER.c ****         #if ((UART_READER_TX_BUFFER_SIZE > UART_READER_MAX_BYTE_VALUE) && (CY_PSOC3))
1063:Generated_Source\PSoC5/UART_READER.c ****             /* Enable interrupt to continue transmission */
1064:Generated_Source\PSoC5/UART_READER.c ****             UART_READER_EnableTxInt();
1065:Generated_Source\PSoC5/UART_READER.c ****         #endif /* (UART_READER_TX_BUFFER_SIZE > UART_READER_MAX_BYTE_VALUE) && (CY_PSOC3) */
1066:Generated_Source\PSoC5/UART_READER.c ****         }
1067:Generated_Source\PSoC5/UART_READER.c ****         while( (locTxBufferWrite < locTxBufferRead) ? (locTxBufferWrite == (locTxBufferRead - 1u)) 
1068:Generated_Source\PSoC5/UART_READER.c ****                                 ((locTxBufferWrite - locTxBufferRead) ==
1069:Generated_Source\PSoC5/UART_READER.c ****                                 (uint8)(UART_READER_TX_BUFFER_SIZE - 1u)) );
1070:Generated_Source\PSoC5/UART_READER.c **** 
1071:Generated_Source\PSoC5/UART_READER.c ****         if( (locTxBufferRead == locTxBufferWrite) &&
1072:Generated_Source\PSoC5/UART_READER.c ****             ((UART_READER_TXSTATUS_REG & UART_READER_TX_STS_FIFO_FULL) == 0u) )
1073:Generated_Source\PSoC5/UART_READER.c ****         {
1074:Generated_Source\PSoC5/UART_READER.c ****             /* Add directly to the FIFO */
1075:Generated_Source\PSoC5/UART_READER.c ****             UART_READER_TXDATA_REG = txDataByte;
1076:Generated_Source\PSoC5/UART_READER.c ****         }
1077:Generated_Source\PSoC5/UART_READER.c ****         else
1078:Generated_Source\PSoC5/UART_READER.c ****         {
1079:Generated_Source\PSoC5/UART_READER.c ****             if(locTxBufferWrite >= UART_READER_TX_BUFFER_SIZE)
1080:Generated_Source\PSoC5/UART_READER.c ****             {
1081:Generated_Source\PSoC5/UART_READER.c ****                 locTxBufferWrite = 0u;
1082:Generated_Source\PSoC5/UART_READER.c ****             }
1083:Generated_Source\PSoC5/UART_READER.c ****             /* Add to the software buffer. */
1084:Generated_Source\PSoC5/UART_READER.c ****             UART_READER_txBuffer[locTxBufferWrite] = txDataByte;
1085:Generated_Source\PSoC5/UART_READER.c ****             locTxBufferWrite++;
1086:Generated_Source\PSoC5/UART_READER.c **** 
1087:Generated_Source\PSoC5/UART_READER.c ****             /* Finally, update the real output pointer */
1088:Generated_Source\PSoC5/UART_READER.c ****         #if ((UART_READER_TX_BUFFER_SIZE > UART_READER_MAX_BYTE_VALUE) && (CY_PSOC3))
1089:Generated_Source\PSoC5/UART_READER.c ****             UART_READER_DisableTxInt();
1090:Generated_Source\PSoC5/UART_READER.c ****         #endif /* (UART_READER_TX_BUFFER_SIZE > UART_READER_MAX_BYTE_VALUE) && (CY_PSOC3) */
1091:Generated_Source\PSoC5/UART_READER.c **** 
1092:Generated_Source\PSoC5/UART_READER.c ****             UART_READER_txBufferWrite = locTxBufferWrite;
1093:Generated_Source\PSoC5/UART_READER.c **** 
1094:Generated_Source\PSoC5/UART_READER.c ****         #if ((UART_READER_TX_BUFFER_SIZE > UART_READER_MAX_BYTE_VALUE) && (CY_PSOC3))
1095:Generated_Source\PSoC5/UART_READER.c ****             UART_READER_EnableTxInt();
1096:Generated_Source\PSoC5/UART_READER.c ****         #endif /* (UART_READER_TX_BUFFER_SIZE > UART_READER_MAX_BYTE_VALUE) && (CY_PSOC3) */
1097:Generated_Source\PSoC5/UART_READER.c **** 
1098:Generated_Source\PSoC5/UART_READER.c ****             if(0u != (UART_READER_TXSTATUS_REG & UART_READER_TX_STS_FIFO_EMPTY))
1099:Generated_Source\PSoC5/UART_READER.c ****             {
1100:Generated_Source\PSoC5/UART_READER.c ****                 /* Trigger TX interrupt to send software buffer */
1101:Generated_Source\PSoC5/UART_READER.c ****                 UART_READER_SetPendingTxInt();
1102:Generated_Source\PSoC5/UART_READER.c ****             }
1103:Generated_Source\PSoC5/UART_READER.c ****         }
1104:Generated_Source\PSoC5/UART_READER.c **** 
1105:Generated_Source\PSoC5/UART_READER.c ****     #else
1106:Generated_Source\PSoC5/UART_READER.c **** 
1107:Generated_Source\PSoC5/UART_READER.c ****         while((UART_READER_TXSTATUS_REG & UART_READER_TX_STS_FIFO_FULL) != 0u)
 638              		.loc 1 1107 0 discriminator 1
 639 0000 034B     		ldr	r3, .L69
 640 0002 1B78     		ldrb	r3, [r3]	@ zero_extendqisi2
 641 0004 9B06     		lsls	r3, r3, #26
 642 0006 FBD4     		bmi	.L67
1108:Generated_Source\PSoC5/UART_READER.c ****         {
1109:Generated_Source\PSoC5/UART_READER.c ****             /* Wait for room in the FIFO */
1110:Generated_Source\PSoC5/UART_READER.c ****         }
1111:Generated_Source\PSoC5/UART_READER.c **** 
ARM GAS  C:\Users\yqh\AppData\Local\Temp\cc55pVRK.s 			page 32


1112:Generated_Source\PSoC5/UART_READER.c ****         /* Add directly to the FIFO */
1113:Generated_Source\PSoC5/UART_READER.c ****         UART_READER_TXDATA_REG = txDataByte;
 643              		.loc 1 1113 0
 644 0008 024B     		ldr	r3, .L69+4
 645 000a 1870     		strb	r0, [r3]
 646 000c 7047     		bx	lr
 647              	.L70:
 648 000e 00BF     		.align	2
 649              	.L69:
 650 0010 67650040 		.word	1073767783
 651 0014 57650040 		.word	1073767767
 652              		.cfi_endproc
 653              	.LFE19:
 654              		.size	UART_READER_PutChar, .-UART_READER_PutChar
 655              		.section	.text.UART_READER_PutString,"ax",%progbits
 656              		.align	1
 657              		.global	UART_READER_PutString
 658              		.thumb
 659              		.thumb_func
 660              		.type	UART_READER_PutString, %function
 661              	UART_READER_PutString:
 662              	.LFB20:
1114:Generated_Source\PSoC5/UART_READER.c **** 
1115:Generated_Source\PSoC5/UART_READER.c ****     #endif /* UART_READER_TX_INTERRUPT_ENABLED */
1116:Generated_Source\PSoC5/UART_READER.c ****     }
1117:Generated_Source\PSoC5/UART_READER.c **** 
1118:Generated_Source\PSoC5/UART_READER.c **** 
1119:Generated_Source\PSoC5/UART_READER.c ****     /*******************************************************************************
1120:Generated_Source\PSoC5/UART_READER.c ****     * Function Name: UART_READER_PutString
1121:Generated_Source\PSoC5/UART_READER.c ****     ********************************************************************************
1122:Generated_Source\PSoC5/UART_READER.c ****     *
1123:Generated_Source\PSoC5/UART_READER.c ****     * Summary:
1124:Generated_Source\PSoC5/UART_READER.c ****     *  Sends a NULL terminated string to the TX buffer for transmission.
1125:Generated_Source\PSoC5/UART_READER.c ****     *
1126:Generated_Source\PSoC5/UART_READER.c ****     * Parameters:
1127:Generated_Source\PSoC5/UART_READER.c ****     *  string[]: Pointer to the null terminated string array residing in RAM or ROM
1128:Generated_Source\PSoC5/UART_READER.c ****     *
1129:Generated_Source\PSoC5/UART_READER.c ****     * Return:
1130:Generated_Source\PSoC5/UART_READER.c ****     *  None.
1131:Generated_Source\PSoC5/UART_READER.c ****     *
1132:Generated_Source\PSoC5/UART_READER.c ****     * Global Variables:
1133:Generated_Source\PSoC5/UART_READER.c ****     *  UART_READER_initVar - checked to identify that the component has been
1134:Generated_Source\PSoC5/UART_READER.c ****     *     initialized.
1135:Generated_Source\PSoC5/UART_READER.c ****     *
1136:Generated_Source\PSoC5/UART_READER.c ****     * Reentrant:
1137:Generated_Source\PSoC5/UART_READER.c ****     *  No.
1138:Generated_Source\PSoC5/UART_READER.c ****     *
1139:Generated_Source\PSoC5/UART_READER.c ****     * Theory:
1140:Generated_Source\PSoC5/UART_READER.c ****     *  If there is not enough memory in the TX buffer for the entire string, this
1141:Generated_Source\PSoC5/UART_READER.c ****     *  function blocks until the last character of the string is loaded into the
1142:Generated_Source\PSoC5/UART_READER.c ****     *  TX buffer.
1143:Generated_Source\PSoC5/UART_READER.c ****     *
1144:Generated_Source\PSoC5/UART_READER.c ****     *******************************************************************************/
1145:Generated_Source\PSoC5/UART_READER.c ****     void UART_READER_PutString(const char8 string[]) 
1146:Generated_Source\PSoC5/UART_READER.c ****     {
 663              		.loc 1 1146 0
 664              		.cfi_startproc
ARM GAS  C:\Users\yqh\AppData\Local\Temp\cc55pVRK.s 			page 33


 665              		@ args = 0, pretend = 0, frame = 0
 666              		@ frame_needed = 0, uses_anonymous_args = 0
 667              	.LVL29:
 668 0000 38B5     		push	{r3, r4, r5, lr}
 669              		.cfi_def_cfa_offset 16
 670              		.cfi_offset 3, -16
 671              		.cfi_offset 4, -12
 672              		.cfi_offset 5, -8
 673              		.cfi_offset 14, -4
1147:Generated_Source\PSoC5/UART_READER.c ****         uint16 bufIndex = 0u;
1148:Generated_Source\PSoC5/UART_READER.c **** 
1149:Generated_Source\PSoC5/UART_READER.c ****         /* If not Initialized then skip this function */
1150:Generated_Source\PSoC5/UART_READER.c ****         if(UART_READER_initVar != 0u)
 674              		.loc 1 1150 0
 675 0002 074B     		ldr	r3, .L77
1146:Generated_Source\PSoC5/UART_READER.c ****         uint16 bufIndex = 0u;
 676              		.loc 1 1146 0
 677 0004 0546     		mov	r5, r0
 678              		.loc 1 1150 0
 679 0006 1B78     		ldrb	r3, [r3]	@ zero_extendqisi2
 680 0008 03B9     		cbnz	r3, .L75
 681 000a 38BD     		pop	{r3, r4, r5, pc}
 682              	.L75:
 683 000c 0024     		movs	r4, #0
 684              	.LVL30:
 685              	.L72:
1151:Generated_Source\PSoC5/UART_READER.c ****         {
1152:Generated_Source\PSoC5/UART_READER.c ****             /* This is a blocking function, it will not exit until all data is sent */
1153:Generated_Source\PSoC5/UART_READER.c ****             while(string[bufIndex] != (char8) 0)
 686              		.loc 1 1153 0
 687 000e A3B2     		uxth	r3, r4
 688              	.LVL31:
 689 0010 E85C     		ldrb	r0, [r5, r3]	@ zero_extendqisi2
 690 0012 0134     		adds	r4, r4, #1
 691 0014 10B1     		cbz	r0, .L76
1154:Generated_Source\PSoC5/UART_READER.c ****             {
1155:Generated_Source\PSoC5/UART_READER.c ****                 UART_READER_PutChar((uint8)string[bufIndex]);
 692              		.loc 1 1155 0
 693 0016 FFF7FEFF 		bl	UART_READER_PutChar
 694              	.LVL32:
 695 001a F8E7     		b	.L72
 696              	.LVL33:
 697              	.L76:
 698 001c 38BD     		pop	{r3, r4, r5, pc}
 699              	.LVL34:
 700              	.L78:
 701 001e 00BF     		.align	2
 702              	.L77:
 703 0020 00000000 		.word	.LANCHOR0
 704              		.cfi_endproc
 705              	.LFE20:
 706              		.size	UART_READER_PutString, .-UART_READER_PutString
 707              		.section	.text.UART_READER_PutArray,"ax",%progbits
 708              		.align	1
 709              		.global	UART_READER_PutArray
 710              		.thumb
 711              		.thumb_func
ARM GAS  C:\Users\yqh\AppData\Local\Temp\cc55pVRK.s 			page 34


 712              		.type	UART_READER_PutArray, %function
 713              	UART_READER_PutArray:
 714              	.LFB21:
1156:Generated_Source\PSoC5/UART_READER.c ****                 bufIndex++;
1157:Generated_Source\PSoC5/UART_READER.c ****             }
1158:Generated_Source\PSoC5/UART_READER.c ****         }
1159:Generated_Source\PSoC5/UART_READER.c ****     }
1160:Generated_Source\PSoC5/UART_READER.c **** 
1161:Generated_Source\PSoC5/UART_READER.c **** 
1162:Generated_Source\PSoC5/UART_READER.c ****     /*******************************************************************************
1163:Generated_Source\PSoC5/UART_READER.c ****     * Function Name: UART_READER_PutArray
1164:Generated_Source\PSoC5/UART_READER.c ****     ********************************************************************************
1165:Generated_Source\PSoC5/UART_READER.c ****     *
1166:Generated_Source\PSoC5/UART_READER.c ****     * Summary:
1167:Generated_Source\PSoC5/UART_READER.c ****     *  Places N bytes of data from a memory array into the TX buffer for
1168:Generated_Source\PSoC5/UART_READER.c ****     *  transmission.
1169:Generated_Source\PSoC5/UART_READER.c ****     *
1170:Generated_Source\PSoC5/UART_READER.c ****     * Parameters:
1171:Generated_Source\PSoC5/UART_READER.c ****     *  string[]: Address of the memory array residing in RAM or ROM.
1172:Generated_Source\PSoC5/UART_READER.c ****     *  byteCount: Number of bytes to be transmitted. The type depends on TX Buffer
1173:Generated_Source\PSoC5/UART_READER.c ****     *             Size parameter.
1174:Generated_Source\PSoC5/UART_READER.c ****     *
1175:Generated_Source\PSoC5/UART_READER.c ****     * Return:
1176:Generated_Source\PSoC5/UART_READER.c ****     *  None.
1177:Generated_Source\PSoC5/UART_READER.c ****     *
1178:Generated_Source\PSoC5/UART_READER.c ****     * Global Variables:
1179:Generated_Source\PSoC5/UART_READER.c ****     *  UART_READER_initVar - checked to identify that the component has been
1180:Generated_Source\PSoC5/UART_READER.c ****     *     initialized.
1181:Generated_Source\PSoC5/UART_READER.c ****     *
1182:Generated_Source\PSoC5/UART_READER.c ****     * Reentrant:
1183:Generated_Source\PSoC5/UART_READER.c ****     *  No.
1184:Generated_Source\PSoC5/UART_READER.c ****     *
1185:Generated_Source\PSoC5/UART_READER.c ****     * Theory:
1186:Generated_Source\PSoC5/UART_READER.c ****     *  If there is not enough memory in the TX buffer for the entire string, this
1187:Generated_Source\PSoC5/UART_READER.c ****     *  function blocks until the last character of the string is loaded into the
1188:Generated_Source\PSoC5/UART_READER.c ****     *  TX buffer.
1189:Generated_Source\PSoC5/UART_READER.c ****     *
1190:Generated_Source\PSoC5/UART_READER.c ****     *******************************************************************************/
1191:Generated_Source\PSoC5/UART_READER.c ****     void UART_READER_PutArray(const uint8 string[], uint8 byteCount)
1192:Generated_Source\PSoC5/UART_READER.c ****                                                                     
1193:Generated_Source\PSoC5/UART_READER.c ****     {
 715              		.loc 1 1193 0
 716              		.cfi_startproc
 717              		@ args = 0, pretend = 0, frame = 0
 718              		@ frame_needed = 0, uses_anonymous_args = 0
 719              	.LVL35:
 720 0000 38B5     		push	{r3, r4, r5, lr}
 721              		.cfi_def_cfa_offset 16
 722              		.cfi_offset 3, -16
 723              		.cfi_offset 4, -12
 724              		.cfi_offset 5, -8
 725              		.cfi_offset 14, -4
1194:Generated_Source\PSoC5/UART_READER.c ****         uint8 bufIndex = 0u;
1195:Generated_Source\PSoC5/UART_READER.c **** 
1196:Generated_Source\PSoC5/UART_READER.c ****         /* If not Initialized then skip this function */
1197:Generated_Source\PSoC5/UART_READER.c ****         if(UART_READER_initVar != 0u)
 726              		.loc 1 1197 0
ARM GAS  C:\Users\yqh\AppData\Local\Temp\cc55pVRK.s 			page 35


 727 0002 074B     		ldr	r3, .L84
 728 0004 1B78     		ldrb	r3, [r3]	@ zero_extendqisi2
 729 0006 4BB1     		cbz	r3, .L79
 730 0008 0139     		subs	r1, r1, #1
 731              	.LVL36:
 732 000a 451E     		subs	r5, r0, #1
 733 000c 4418     		adds	r4, r0, r1
 734              	.LVL37:
 735              	.L81:
1198:Generated_Source\PSoC5/UART_READER.c ****         {
1199:Generated_Source\PSoC5/UART_READER.c ****             while(bufIndex < byteCount)
 736              		.loc 1 1199 0
 737 000e A542     		cmp	r5, r4
 738 0010 04D0     		beq	.L79
1200:Generated_Source\PSoC5/UART_READER.c ****             {
1201:Generated_Source\PSoC5/UART_READER.c ****                 UART_READER_PutChar(string[bufIndex]);
 739              		.loc 1 1201 0
 740 0012 15F8010F 		ldrb	r0, [r5, #1]!	@ zero_extendqisi2
 741              	.LVL38:
 742 0016 FFF7FEFF 		bl	UART_READER_PutChar
 743              	.LVL39:
 744 001a F8E7     		b	.L81
 745              	.LVL40:
 746              	.L79:
 747 001c 38BD     		pop	{r3, r4, r5, pc}
 748              	.L85:
 749 001e 00BF     		.align	2
 750              	.L84:
 751 0020 00000000 		.word	.LANCHOR0
 752              		.cfi_endproc
 753              	.LFE21:
 754              		.size	UART_READER_PutArray, .-UART_READER_PutArray
 755              		.section	.text.UART_READER_PutCRLF,"ax",%progbits
 756              		.align	1
 757              		.global	UART_READER_PutCRLF
 758              		.thumb
 759              		.thumb_func
 760              		.type	UART_READER_PutCRLF, %function
 761              	UART_READER_PutCRLF:
 762              	.LFB22:
1202:Generated_Source\PSoC5/UART_READER.c ****                 bufIndex++;
1203:Generated_Source\PSoC5/UART_READER.c ****             }
1204:Generated_Source\PSoC5/UART_READER.c ****         }
1205:Generated_Source\PSoC5/UART_READER.c ****     }
1206:Generated_Source\PSoC5/UART_READER.c **** 
1207:Generated_Source\PSoC5/UART_READER.c **** 
1208:Generated_Source\PSoC5/UART_READER.c ****     /*******************************************************************************
1209:Generated_Source\PSoC5/UART_READER.c ****     * Function Name: UART_READER_PutCRLF
1210:Generated_Source\PSoC5/UART_READER.c ****     ********************************************************************************
1211:Generated_Source\PSoC5/UART_READER.c ****     *
1212:Generated_Source\PSoC5/UART_READER.c ****     * Summary:
1213:Generated_Source\PSoC5/UART_READER.c ****     *  Writes a byte of data followed by a carriage return (0x0D) and line feed
1214:Generated_Source\PSoC5/UART_READER.c ****     *  (0x0A) to the transmit buffer.
1215:Generated_Source\PSoC5/UART_READER.c ****     *
1216:Generated_Source\PSoC5/UART_READER.c ****     * Parameters:
1217:Generated_Source\PSoC5/UART_READER.c ****     *  txDataByte: Data byte to transmit before the carriage return and line feed.
1218:Generated_Source\PSoC5/UART_READER.c ****     *
ARM GAS  C:\Users\yqh\AppData\Local\Temp\cc55pVRK.s 			page 36


1219:Generated_Source\PSoC5/UART_READER.c ****     * Return:
1220:Generated_Source\PSoC5/UART_READER.c ****     *  None.
1221:Generated_Source\PSoC5/UART_READER.c ****     *
1222:Generated_Source\PSoC5/UART_READER.c ****     * Global Variables:
1223:Generated_Source\PSoC5/UART_READER.c ****     *  UART_READER_initVar - checked to identify that the component has been
1224:Generated_Source\PSoC5/UART_READER.c ****     *     initialized.
1225:Generated_Source\PSoC5/UART_READER.c ****     *
1226:Generated_Source\PSoC5/UART_READER.c ****     * Reentrant:
1227:Generated_Source\PSoC5/UART_READER.c ****     *  No.
1228:Generated_Source\PSoC5/UART_READER.c ****     *
1229:Generated_Source\PSoC5/UART_READER.c ****     *******************************************************************************/
1230:Generated_Source\PSoC5/UART_READER.c ****     void UART_READER_PutCRLF(uint8 txDataByte) 
1231:Generated_Source\PSoC5/UART_READER.c ****     {
 763              		.loc 1 1231 0
 764              		.cfi_startproc
 765              		@ args = 0, pretend = 0, frame = 0
 766              		@ frame_needed = 0, uses_anonymous_args = 0
 767              	.LVL41:
 768 0000 08B5     		push	{r3, lr}
 769              		.cfi_def_cfa_offset 8
 770              		.cfi_offset 3, -8
 771              		.cfi_offset 14, -4
1232:Generated_Source\PSoC5/UART_READER.c ****         /* If not Initialized then skip this function */
1233:Generated_Source\PSoC5/UART_READER.c ****         if(UART_READER_initVar != 0u)
 772              		.loc 1 1233 0
 773 0002 074B     		ldr	r3, .L88
 774 0004 1B78     		ldrb	r3, [r3]	@ zero_extendqisi2
 775 0006 4BB1     		cbz	r3, .L86
1234:Generated_Source\PSoC5/UART_READER.c ****         {
1235:Generated_Source\PSoC5/UART_READER.c ****             UART_READER_PutChar(txDataByte);
 776              		.loc 1 1235 0
 777 0008 FFF7FEFF 		bl	UART_READER_PutChar
 778              	.LVL42:
1236:Generated_Source\PSoC5/UART_READER.c ****             UART_READER_PutChar(0x0Du);
 779              		.loc 1 1236 0
 780 000c 0D20     		movs	r0, #13
 781 000e FFF7FEFF 		bl	UART_READER_PutChar
 782              	.LVL43:
1237:Generated_Source\PSoC5/UART_READER.c ****             UART_READER_PutChar(0x0Au);
1238:Generated_Source\PSoC5/UART_READER.c ****         }
1239:Generated_Source\PSoC5/UART_READER.c ****     }
 783              		.loc 1 1239 0
 784 0012 BDE80840 		pop	{r3, lr}
 785              		.cfi_remember_state
 786              		.cfi_restore 14
 787              		.cfi_restore 3
 788              		.cfi_def_cfa_offset 0
1237:Generated_Source\PSoC5/UART_READER.c ****             UART_READER_PutChar(0x0Au);
 789              		.loc 1 1237 0
 790 0016 0A20     		movs	r0, #10
 791 0018 FFF7FEBF 		b	UART_READER_PutChar
 792              	.LVL44:
 793              	.L86:
 794              		.cfi_restore_state
 795 001c 08BD     		pop	{r3, pc}
 796              	.L89:
 797 001e 00BF     		.align	2
ARM GAS  C:\Users\yqh\AppData\Local\Temp\cc55pVRK.s 			page 37


 798              	.L88:
 799 0020 00000000 		.word	.LANCHOR0
 800              		.cfi_endproc
 801              	.LFE22:
 802              		.size	UART_READER_PutCRLF, .-UART_READER_PutCRLF
 803              		.section	.text.UART_READER_GetTxBufferSize,"ax",%progbits
 804              		.align	1
 805              		.global	UART_READER_GetTxBufferSize
 806              		.thumb
 807              		.thumb_func
 808              		.type	UART_READER_GetTxBufferSize, %function
 809              	UART_READER_GetTxBufferSize:
 810              	.LFB23:
1240:Generated_Source\PSoC5/UART_READER.c **** 
1241:Generated_Source\PSoC5/UART_READER.c **** 
1242:Generated_Source\PSoC5/UART_READER.c ****     /*******************************************************************************
1243:Generated_Source\PSoC5/UART_READER.c ****     * Function Name: UART_READER_GetTxBufferSize
1244:Generated_Source\PSoC5/UART_READER.c ****     ********************************************************************************
1245:Generated_Source\PSoC5/UART_READER.c ****     *
1246:Generated_Source\PSoC5/UART_READER.c ****     * Summary:
1247:Generated_Source\PSoC5/UART_READER.c ****     *  Returns the number of bytes in the TX buffer which are waiting to be 
1248:Generated_Source\PSoC5/UART_READER.c ****     *  transmitted.
1249:Generated_Source\PSoC5/UART_READER.c ****     *  * TX software buffer is disabled (TX Buffer Size parameter is equal to 4): 
1250:Generated_Source\PSoC5/UART_READER.c ****     *    returns 0 for empty TX FIFO, 1 for not full TX FIFO or 4 for full TX FIFO.
1251:Generated_Source\PSoC5/UART_READER.c ****     *  * TX software buffer is enabled: returns the number of bytes in the TX 
1252:Generated_Source\PSoC5/UART_READER.c ****     *    software buffer which are waiting to be transmitted. Bytes available in the
1253:Generated_Source\PSoC5/UART_READER.c ****     *    TX FIFO do not count.
1254:Generated_Source\PSoC5/UART_READER.c ****     *
1255:Generated_Source\PSoC5/UART_READER.c ****     * Parameters:
1256:Generated_Source\PSoC5/UART_READER.c ****     *  None.
1257:Generated_Source\PSoC5/UART_READER.c ****     *
1258:Generated_Source\PSoC5/UART_READER.c ****     * Return:
1259:Generated_Source\PSoC5/UART_READER.c ****     *  Number of bytes used in the TX buffer. Return value type depends on the TX 
1260:Generated_Source\PSoC5/UART_READER.c ****     *  Buffer Size parameter.
1261:Generated_Source\PSoC5/UART_READER.c ****     *
1262:Generated_Source\PSoC5/UART_READER.c ****     * Global Variables:
1263:Generated_Source\PSoC5/UART_READER.c ****     *  UART_READER_txBufferWrite - used to calculate left space.
1264:Generated_Source\PSoC5/UART_READER.c ****     *  UART_READER_txBufferRead - used to calculate left space.
1265:Generated_Source\PSoC5/UART_READER.c ****     *
1266:Generated_Source\PSoC5/UART_READER.c ****     * Reentrant:
1267:Generated_Source\PSoC5/UART_READER.c ****     *  No.
1268:Generated_Source\PSoC5/UART_READER.c ****     *
1269:Generated_Source\PSoC5/UART_READER.c ****     * Theory:
1270:Generated_Source\PSoC5/UART_READER.c ****     *  Allows the user to find out how full the TX Buffer is.
1271:Generated_Source\PSoC5/UART_READER.c ****     *
1272:Generated_Source\PSoC5/UART_READER.c ****     *******************************************************************************/
1273:Generated_Source\PSoC5/UART_READER.c ****     uint8 UART_READER_GetTxBufferSize(void)
1274:Generated_Source\PSoC5/UART_READER.c ****                                                             
1275:Generated_Source\PSoC5/UART_READER.c ****     {
 811              		.loc 1 1275 0
 812              		.cfi_startproc
 813              		@ args = 0, pretend = 0, frame = 0
 814              		@ frame_needed = 0, uses_anonymous_args = 0
 815              		@ link register save eliminated.
1276:Generated_Source\PSoC5/UART_READER.c ****         uint8 size;
1277:Generated_Source\PSoC5/UART_READER.c **** 
1278:Generated_Source\PSoC5/UART_READER.c ****     #if (UART_READER_TX_INTERRUPT_ENABLED)
ARM GAS  C:\Users\yqh\AppData\Local\Temp\cc55pVRK.s 			page 38


1279:Generated_Source\PSoC5/UART_READER.c **** 
1280:Generated_Source\PSoC5/UART_READER.c ****         /* Protect variables that could change on interrupt. */
1281:Generated_Source\PSoC5/UART_READER.c ****         UART_READER_DisableTxInt();
1282:Generated_Source\PSoC5/UART_READER.c **** 
1283:Generated_Source\PSoC5/UART_READER.c ****         if(UART_READER_txBufferRead == UART_READER_txBufferWrite)
1284:Generated_Source\PSoC5/UART_READER.c ****         {
1285:Generated_Source\PSoC5/UART_READER.c ****             size = 0u;
1286:Generated_Source\PSoC5/UART_READER.c ****         }
1287:Generated_Source\PSoC5/UART_READER.c ****         else if(UART_READER_txBufferRead < UART_READER_txBufferWrite)
1288:Generated_Source\PSoC5/UART_READER.c ****         {
1289:Generated_Source\PSoC5/UART_READER.c ****             size = (UART_READER_txBufferWrite - UART_READER_txBufferRead);
1290:Generated_Source\PSoC5/UART_READER.c ****         }
1291:Generated_Source\PSoC5/UART_READER.c ****         else
1292:Generated_Source\PSoC5/UART_READER.c ****         {
1293:Generated_Source\PSoC5/UART_READER.c ****             size = (UART_READER_TX_BUFFER_SIZE - UART_READER_txBufferRead) +
1294:Generated_Source\PSoC5/UART_READER.c ****                     UART_READER_txBufferWrite;
1295:Generated_Source\PSoC5/UART_READER.c ****         }
1296:Generated_Source\PSoC5/UART_READER.c **** 
1297:Generated_Source\PSoC5/UART_READER.c ****         UART_READER_EnableTxInt();
1298:Generated_Source\PSoC5/UART_READER.c **** 
1299:Generated_Source\PSoC5/UART_READER.c ****     #else
1300:Generated_Source\PSoC5/UART_READER.c **** 
1301:Generated_Source\PSoC5/UART_READER.c ****         size = UART_READER_TXSTATUS_REG;
 816              		.loc 1 1301 0
 817 0000 054B     		ldr	r3, .L93
 818 0002 1878     		ldrb	r0, [r3]	@ zero_extendqisi2
 819 0004 C0B2     		uxtb	r0, r0
 820              	.LVL45:
1302:Generated_Source\PSoC5/UART_READER.c **** 
1303:Generated_Source\PSoC5/UART_READER.c ****         /* Is the fifo is full. */
1304:Generated_Source\PSoC5/UART_READER.c ****         if((size & UART_READER_TX_STS_FIFO_FULL) != 0u)
 821              		.loc 1 1304 0
 822 0006 8306     		lsls	r3, r0, #26
1305:Generated_Source\PSoC5/UART_READER.c ****         {
1306:Generated_Source\PSoC5/UART_READER.c ****             size = UART_READER_FIFO_LENGTH;
1307:Generated_Source\PSoC5/UART_READER.c ****         }
1308:Generated_Source\PSoC5/UART_READER.c ****         else if((size & UART_READER_TX_STS_FIFO_EMPTY) != 0u)
 823              		.loc 1 1308 0
 824 0008 5ABF     		itte	pl
 825 000a 80F00200 		eorpl	r0, r0, #2
 826              	.LVL46:
 827 000e C0F34000 		ubfxpl	r0, r0, #1, #1
1306:Generated_Source\PSoC5/UART_READER.c ****         }
 828              		.loc 1 1306 0
 829 0012 0420     		movmi	r0, #4
 830              	.LVL47:
1309:Generated_Source\PSoC5/UART_READER.c ****         {
1310:Generated_Source\PSoC5/UART_READER.c ****             size = 0u;
1311:Generated_Source\PSoC5/UART_READER.c ****         }
1312:Generated_Source\PSoC5/UART_READER.c ****         else
1313:Generated_Source\PSoC5/UART_READER.c ****         {
1314:Generated_Source\PSoC5/UART_READER.c ****             /* We only know there is data in the fifo. */
1315:Generated_Source\PSoC5/UART_READER.c ****             size = 1u;
1316:Generated_Source\PSoC5/UART_READER.c ****         }
1317:Generated_Source\PSoC5/UART_READER.c **** 
1318:Generated_Source\PSoC5/UART_READER.c ****     #endif /* (UART_READER_TX_INTERRUPT_ENABLED) */
1319:Generated_Source\PSoC5/UART_READER.c **** 
ARM GAS  C:\Users\yqh\AppData\Local\Temp\cc55pVRK.s 			page 39


1320:Generated_Source\PSoC5/UART_READER.c ****     return(size);
1321:Generated_Source\PSoC5/UART_READER.c ****     }
 831              		.loc 1 1321 0
 832 0014 7047     		bx	lr
 833              	.L94:
 834 0016 00BF     		.align	2
 835              	.L93:
 836 0018 67650040 		.word	1073767783
 837              		.cfi_endproc
 838              	.LFE23:
 839              		.size	UART_READER_GetTxBufferSize, .-UART_READER_GetTxBufferSize
 840              		.section	.text.UART_READER_ClearTxBuffer,"ax",%progbits
 841              		.align	1
 842              		.global	UART_READER_ClearTxBuffer
 843              		.thumb
 844              		.thumb_func
 845              		.type	UART_READER_ClearTxBuffer, %function
 846              	UART_READER_ClearTxBuffer:
 847              	.LFB24:
1322:Generated_Source\PSoC5/UART_READER.c **** 
1323:Generated_Source\PSoC5/UART_READER.c **** 
1324:Generated_Source\PSoC5/UART_READER.c ****     /*******************************************************************************
1325:Generated_Source\PSoC5/UART_READER.c ****     * Function Name: UART_READER_ClearTxBuffer
1326:Generated_Source\PSoC5/UART_READER.c ****     ********************************************************************************
1327:Generated_Source\PSoC5/UART_READER.c ****     *
1328:Generated_Source\PSoC5/UART_READER.c ****     * Summary:
1329:Generated_Source\PSoC5/UART_READER.c ****     *  Clears all data from the TX buffer and hardware TX FIFO.
1330:Generated_Source\PSoC5/UART_READER.c ****     *
1331:Generated_Source\PSoC5/UART_READER.c ****     * Parameters:
1332:Generated_Source\PSoC5/UART_READER.c ****     *  None.
1333:Generated_Source\PSoC5/UART_READER.c ****     *
1334:Generated_Source\PSoC5/UART_READER.c ****     * Return:
1335:Generated_Source\PSoC5/UART_READER.c ****     *  None.
1336:Generated_Source\PSoC5/UART_READER.c ****     *
1337:Generated_Source\PSoC5/UART_READER.c ****     * Global Variables:
1338:Generated_Source\PSoC5/UART_READER.c ****     *  UART_READER_txBufferWrite - cleared to zero.
1339:Generated_Source\PSoC5/UART_READER.c ****     *  UART_READER_txBufferRead - cleared to zero.
1340:Generated_Source\PSoC5/UART_READER.c ****     *
1341:Generated_Source\PSoC5/UART_READER.c ****     * Reentrant:
1342:Generated_Source\PSoC5/UART_READER.c ****     *  No.
1343:Generated_Source\PSoC5/UART_READER.c ****     *
1344:Generated_Source\PSoC5/UART_READER.c ****     * Theory:
1345:Generated_Source\PSoC5/UART_READER.c ****     *  Setting the pointers to zero makes the system believe there is no data to
1346:Generated_Source\PSoC5/UART_READER.c ****     *  read and writing will resume at address 0 overwriting any data that may have
1347:Generated_Source\PSoC5/UART_READER.c ****     *  remained in the RAM.
1348:Generated_Source\PSoC5/UART_READER.c ****     *
1349:Generated_Source\PSoC5/UART_READER.c ****     * Side Effects:
1350:Generated_Source\PSoC5/UART_READER.c ****     *  Data waiting in the transmit buffer is not sent; a byte that is currently
1351:Generated_Source\PSoC5/UART_READER.c ****     *  transmitting finishes transmitting.
1352:Generated_Source\PSoC5/UART_READER.c ****     *
1353:Generated_Source\PSoC5/UART_READER.c ****     *******************************************************************************/
1354:Generated_Source\PSoC5/UART_READER.c ****     void UART_READER_ClearTxBuffer(void) 
1355:Generated_Source\PSoC5/UART_READER.c ****     {
 848              		.loc 1 1355 0
 849              		.cfi_startproc
 850              		@ args = 0, pretend = 0, frame = 0
 851              		@ frame_needed = 0, uses_anonymous_args = 0
ARM GAS  C:\Users\yqh\AppData\Local\Temp\cc55pVRK.s 			page 40


 852 0000 08B5     		push	{r3, lr}
 853              		.cfi_def_cfa_offset 8
 854              		.cfi_offset 3, -8
 855              		.cfi_offset 14, -4
1356:Generated_Source\PSoC5/UART_READER.c ****         uint8 enableInterrupts;
1357:Generated_Source\PSoC5/UART_READER.c **** 
1358:Generated_Source\PSoC5/UART_READER.c ****         enableInterrupts = CyEnterCriticalSection();
 856              		.loc 1 1358 0
 857 0002 FFF7FEFF 		bl	CyEnterCriticalSection
 858              	.LVL48:
1359:Generated_Source\PSoC5/UART_READER.c ****         /* Clear the HW FIFO */
1360:Generated_Source\PSoC5/UART_READER.c ****         UART_READER_TXDATA_AUX_CTL_REG |= (uint8)  UART_READER_TX_FIFO_CLR;
 859              		.loc 1 1360 0
 860 0006 064B     		ldr	r3, .L96
 861 0008 1A78     		ldrb	r2, [r3]	@ zero_extendqisi2
 862 000a 42F00202 		orr	r2, r2, #2
 863 000e 1A70     		strb	r2, [r3]
1361:Generated_Source\PSoC5/UART_READER.c ****         UART_READER_TXDATA_AUX_CTL_REG &= (uint8) ~UART_READER_TX_FIFO_CLR;
 864              		.loc 1 1361 0
 865 0010 1A78     		ldrb	r2, [r3]	@ zero_extendqisi2
 866 0012 02F0FD02 		and	r2, r2, #253
 867 0016 1A70     		strb	r2, [r3]
1362:Generated_Source\PSoC5/UART_READER.c ****         CyExitCriticalSection(enableInterrupts);
1363:Generated_Source\PSoC5/UART_READER.c **** 
1364:Generated_Source\PSoC5/UART_READER.c ****     #if (UART_READER_TX_INTERRUPT_ENABLED)
1365:Generated_Source\PSoC5/UART_READER.c **** 
1366:Generated_Source\PSoC5/UART_READER.c ****         /* Protect variables that could change on interrupt. */
1367:Generated_Source\PSoC5/UART_READER.c ****         UART_READER_DisableTxInt();
1368:Generated_Source\PSoC5/UART_READER.c **** 
1369:Generated_Source\PSoC5/UART_READER.c ****         UART_READER_txBufferRead = 0u;
1370:Generated_Source\PSoC5/UART_READER.c ****         UART_READER_txBufferWrite = 0u;
1371:Generated_Source\PSoC5/UART_READER.c **** 
1372:Generated_Source\PSoC5/UART_READER.c ****         /* Enable Tx interrupt. */
1373:Generated_Source\PSoC5/UART_READER.c ****         UART_READER_EnableTxInt();
1374:Generated_Source\PSoC5/UART_READER.c **** 
1375:Generated_Source\PSoC5/UART_READER.c ****     #endif /* (UART_READER_TX_INTERRUPT_ENABLED) */
1376:Generated_Source\PSoC5/UART_READER.c ****     }
 868              		.loc 1 1376 0
 869 0018 BDE80840 		pop	{r3, lr}
 870              		.cfi_restore 14
 871              		.cfi_restore 3
 872              		.cfi_def_cfa_offset 0
1362:Generated_Source\PSoC5/UART_READER.c ****         CyExitCriticalSection(enableInterrupts);
 873              		.loc 1 1362 0
 874 001c FFF7FEBF 		b	CyExitCriticalSection
 875              	.LVL49:
 876              	.L97:
 877              		.align	2
 878              	.L96:
 879 0020 97650040 		.word	1073767831
 880              		.cfi_endproc
 881              	.LFE24:
 882              		.size	UART_READER_ClearTxBuffer, .-UART_READER_ClearTxBuffer
 883              		.section	.text.UART_READER_SendBreak,"ax",%progbits
 884              		.align	1
 885              		.global	UART_READER_SendBreak
 886              		.thumb
ARM GAS  C:\Users\yqh\AppData\Local\Temp\cc55pVRK.s 			page 41


 887              		.thumb_func
 888              		.type	UART_READER_SendBreak, %function
 889              	UART_READER_SendBreak:
 890              	.LFB25:
1377:Generated_Source\PSoC5/UART_READER.c **** 
1378:Generated_Source\PSoC5/UART_READER.c **** 
1379:Generated_Source\PSoC5/UART_READER.c ****     /*******************************************************************************
1380:Generated_Source\PSoC5/UART_READER.c ****     * Function Name: UART_READER_SendBreak
1381:Generated_Source\PSoC5/UART_READER.c ****     ********************************************************************************
1382:Generated_Source\PSoC5/UART_READER.c ****     *
1383:Generated_Source\PSoC5/UART_READER.c ****     * Summary:
1384:Generated_Source\PSoC5/UART_READER.c ****     *  Transmits a break signal on the bus.
1385:Generated_Source\PSoC5/UART_READER.c ****     *
1386:Generated_Source\PSoC5/UART_READER.c ****     * Parameters:
1387:Generated_Source\PSoC5/UART_READER.c ****     *  uint8 retMode:  Send Break return mode. See the following table for options.
1388:Generated_Source\PSoC5/UART_READER.c ****     *   UART_READER_SEND_BREAK - Initialize registers for break, send the Break
1389:Generated_Source\PSoC5/UART_READER.c ****     *       signal and return immediately.
1390:Generated_Source\PSoC5/UART_READER.c ****     *   UART_READER_WAIT_FOR_COMPLETE_REINIT - Wait until break transmission is
1391:Generated_Source\PSoC5/UART_READER.c ****     *       complete, reinitialize registers to normal transmission mode then return
1392:Generated_Source\PSoC5/UART_READER.c ****     *   UART_READER_REINIT - Reinitialize registers to normal transmission mode
1393:Generated_Source\PSoC5/UART_READER.c ****     *       then return.
1394:Generated_Source\PSoC5/UART_READER.c ****     *   UART_READER_SEND_WAIT_REINIT - Performs both options: 
1395:Generated_Source\PSoC5/UART_READER.c ****     *      UART_READER_SEND_BREAK and UART_READER_WAIT_FOR_COMPLETE_REINIT.
1396:Generated_Source\PSoC5/UART_READER.c ****     *      This option is recommended for most cases.
1397:Generated_Source\PSoC5/UART_READER.c ****     *
1398:Generated_Source\PSoC5/UART_READER.c ****     * Return:
1399:Generated_Source\PSoC5/UART_READER.c ****     *  None.
1400:Generated_Source\PSoC5/UART_READER.c ****     *
1401:Generated_Source\PSoC5/UART_READER.c ****     * Global Variables:
1402:Generated_Source\PSoC5/UART_READER.c ****     *  UART_READER_initVar - checked to identify that the component has been
1403:Generated_Source\PSoC5/UART_READER.c ****     *     initialized.
1404:Generated_Source\PSoC5/UART_READER.c ****     *  txPeriod - static variable, used for keeping TX period configuration.
1405:Generated_Source\PSoC5/UART_READER.c ****     *
1406:Generated_Source\PSoC5/UART_READER.c ****     * Reentrant:
1407:Generated_Source\PSoC5/UART_READER.c ****     *  No.
1408:Generated_Source\PSoC5/UART_READER.c ****     *
1409:Generated_Source\PSoC5/UART_READER.c ****     * Theory:
1410:Generated_Source\PSoC5/UART_READER.c ****     *  SendBreak function initializes registers to send 13-bit break signal. It is
1411:Generated_Source\PSoC5/UART_READER.c ****     *  important to return the registers configuration to normal for continue 8-bit
1412:Generated_Source\PSoC5/UART_READER.c ****     *  operation.
1413:Generated_Source\PSoC5/UART_READER.c ****     *  There are 3 variants for this API usage:
1414:Generated_Source\PSoC5/UART_READER.c ****     *  1) SendBreak(3) - function will send the Break signal and take care on the
1415:Generated_Source\PSoC5/UART_READER.c ****     *     configuration returning. Function will block CPU until transmission
1416:Generated_Source\PSoC5/UART_READER.c ****     *     complete.
1417:Generated_Source\PSoC5/UART_READER.c ****     *  2) User may want to use blocking time if UART configured to the low speed
1418:Generated_Source\PSoC5/UART_READER.c ****     *     operation
1419:Generated_Source\PSoC5/UART_READER.c ****     *     Example for this case:
1420:Generated_Source\PSoC5/UART_READER.c ****     *     SendBreak(0);     - initialize Break signal transmission
1421:Generated_Source\PSoC5/UART_READER.c ****     *         Add your code here to use CPU time
1422:Generated_Source\PSoC5/UART_READER.c ****     *     SendBreak(1);     - complete Break operation
1423:Generated_Source\PSoC5/UART_READER.c ****     *  3) Same to 2) but user may want to initialize and use the interrupt to
1424:Generated_Source\PSoC5/UART_READER.c ****     *     complete break operation.
1425:Generated_Source\PSoC5/UART_READER.c ****     *     Example for this case:
1426:Generated_Source\PSoC5/UART_READER.c ****     *     Initialize TX interrupt with "TX - On TX Complete" parameter
1427:Generated_Source\PSoC5/UART_READER.c ****     *     SendBreak(0);     - initialize Break signal transmission
1428:Generated_Source\PSoC5/UART_READER.c ****     *         Add your code here to use CPU time
1429:Generated_Source\PSoC5/UART_READER.c ****     *     When interrupt appear with UART_READER_TX_STS_COMPLETE status:
ARM GAS  C:\Users\yqh\AppData\Local\Temp\cc55pVRK.s 			page 42


1430:Generated_Source\PSoC5/UART_READER.c ****     *     SendBreak(2);     - complete Break operation
1431:Generated_Source\PSoC5/UART_READER.c ****     *
1432:Generated_Source\PSoC5/UART_READER.c ****     * Side Effects:
1433:Generated_Source\PSoC5/UART_READER.c ****     *  The UART_READER_SendBreak() function initializes registers to send a
1434:Generated_Source\PSoC5/UART_READER.c ****     *  break signal.
1435:Generated_Source\PSoC5/UART_READER.c ****     *  Break signal length depends on the break signal bits configuration.
1436:Generated_Source\PSoC5/UART_READER.c ****     *  The register configuration should be reinitialized before normal 8-bit
1437:Generated_Source\PSoC5/UART_READER.c ****     *  communication can continue.
1438:Generated_Source\PSoC5/UART_READER.c ****     *
1439:Generated_Source\PSoC5/UART_READER.c ****     *******************************************************************************/
1440:Generated_Source\PSoC5/UART_READER.c ****     void UART_READER_SendBreak(uint8 retMode) 
1441:Generated_Source\PSoC5/UART_READER.c ****     {
 891              		.loc 1 1441 0
 892              		.cfi_startproc
 893              		@ args = 0, pretend = 0, frame = 0
 894              		@ frame_needed = 0, uses_anonymous_args = 0
 895              		@ link register save eliminated.
 896              	.LVL50:
1442:Generated_Source\PSoC5/UART_READER.c **** 
1443:Generated_Source\PSoC5/UART_READER.c ****         /* If not Initialized then skip this function*/
1444:Generated_Source\PSoC5/UART_READER.c ****         if(UART_READER_initVar != 0u)
 897              		.loc 1 1444 0
 898 0000 134B     		ldr	r3, .L121
 899 0002 1B78     		ldrb	r3, [r3]	@ zero_extendqisi2
 900 0004 1BB3     		cbz	r3, .L98
 901              	.LBB39:
1445:Generated_Source\PSoC5/UART_READER.c ****         {
1446:Generated_Source\PSoC5/UART_READER.c ****             /* Set the Counter to 13-bits and transmit a 00 byte */
1447:Generated_Source\PSoC5/UART_READER.c ****             /* When that is done then reset the counter value back */
1448:Generated_Source\PSoC5/UART_READER.c ****             uint8 tmpStat;
1449:Generated_Source\PSoC5/UART_READER.c **** 
1450:Generated_Source\PSoC5/UART_READER.c ****         #if(UART_READER_HD_ENABLED) /* Half Duplex mode*/
1451:Generated_Source\PSoC5/UART_READER.c **** 
1452:Generated_Source\PSoC5/UART_READER.c ****             if( (retMode == UART_READER_SEND_BREAK) ||
 902              		.loc 1 1452 0
 903 0006 08B1     		cbz	r0, .L101
 904              		.loc 1 1452 0 is_stmt 0 discriminator 1
 905 0008 0328     		cmp	r0, #3
 906 000a 1ED1     		bne	.L102
 907              	.L101:
 908              	.LBB40:
 909              	.LBB41:
 300:Generated_Source\PSoC5/UART_READER.c ****     #endif /* (UART_READER_CONTROL_REG_REMOVED) */
 910              		.loc 1 300 0 is_stmt 1
 911 000c 114A     		ldr	r2, .L121+4
 912 000e 1378     		ldrb	r3, [r2]	@ zero_extendqisi2
 913              	.LBE41:
 914              	.LBE40:
1453:Generated_Source\PSoC5/UART_READER.c ****                 (retMode == UART_READER_SEND_WAIT_REINIT ) )
1454:Generated_Source\PSoC5/UART_READER.c ****             {
1455:Generated_Source\PSoC5/UART_READER.c ****                 /* CTRL_HD_SEND_BREAK - sends break bits in HD mode */
1456:Generated_Source\PSoC5/UART_READER.c ****                 UART_READER_WriteControlRegister(UART_READER_ReadControlRegister() |
 915              		.loc 1 1456 0
 916 0010 43F00203 		orr	r3, r3, #2
 917              	.LVL51:
 918              	.LBB42:
 919              	.LBB43:
ARM GAS  C:\Users\yqh\AppData\Local\Temp\cc55pVRK.s 			page 43


 327:Generated_Source\PSoC5/UART_READER.c ****     #endif /* (UART_READER_CONTROL_REG_REMOVED) */
 920              		.loc 1 327 0
 921 0014 1370     		strb	r3, [r2]
 922              	.LBE43:
 923              	.LBE42:
1457:Generated_Source\PSoC5/UART_READER.c ****                                                       UART_READER_CTRL_HD_SEND_BREAK);
1458:Generated_Source\PSoC5/UART_READER.c ****                 /* Send zeros */
1459:Generated_Source\PSoC5/UART_READER.c ****                 UART_READER_TXDATA_REG = 0u;
 924              		.loc 1 1459 0
 925 0016 104B     		ldr	r3, .L121+8
 926              	.LVL52:
 927 0018 0022     		movs	r2, #0
 928              	.LVL53:
 929 001a 1A70     		strb	r2, [r3]
 930              	.LVL54:
 931              	.L103:
1460:Generated_Source\PSoC5/UART_READER.c **** 
1461:Generated_Source\PSoC5/UART_READER.c ****                 do /* Wait until transmit starts */
1462:Generated_Source\PSoC5/UART_READER.c ****                 {
1463:Generated_Source\PSoC5/UART_READER.c ****                     tmpStat = UART_READER_TXSTATUS_REG;
 932              		.loc 1 1463 0 discriminator 1
 933 001c 0F4B     		ldr	r3, .L121+12
 934 001e 1B78     		ldrb	r3, [r3]	@ zero_extendqisi2
 935              	.LVL55:
1464:Generated_Source\PSoC5/UART_READER.c ****                 }
1465:Generated_Source\PSoC5/UART_READER.c ****                 while((tmpStat & UART_READER_TX_STS_FIFO_EMPTY) != 0u);
 936              		.loc 1 1465 0 discriminator 1
 937 0020 9A07     		lsls	r2, r3, #30
 938 0022 FBD4     		bmi	.L103
1466:Generated_Source\PSoC5/UART_READER.c ****             }
1467:Generated_Source\PSoC5/UART_READER.c **** 
1468:Generated_Source\PSoC5/UART_READER.c ****             if( (retMode == UART_READER_WAIT_FOR_COMPLETE_REINIT) ||
 939              		.loc 1 1468 0
 940 0024 00F0FD03 		and	r3, r0, #253
 941              	.LVL56:
 942 0028 012B     		cmp	r3, #1
 943              	.L120:
 944 002a 03D0     		beq	.L107
 945              	.L108:
1469:Generated_Source\PSoC5/UART_READER.c ****                 (retMode == UART_READER_SEND_WAIT_REINIT) )
1470:Generated_Source\PSoC5/UART_READER.c ****             {
1471:Generated_Source\PSoC5/UART_READER.c ****                 do /* Wait until transmit complete */
1472:Generated_Source\PSoC5/UART_READER.c ****                 {
1473:Generated_Source\PSoC5/UART_READER.c ****                     tmpStat = UART_READER_TXSTATUS_REG;
1474:Generated_Source\PSoC5/UART_READER.c ****                 }
1475:Generated_Source\PSoC5/UART_READER.c ****                 while(((uint8)~tmpStat & UART_READER_TX_STS_COMPLETE) != 0u);
1476:Generated_Source\PSoC5/UART_READER.c ****             }
1477:Generated_Source\PSoC5/UART_READER.c **** 
1478:Generated_Source\PSoC5/UART_READER.c ****             if( (retMode == UART_READER_WAIT_FOR_COMPLETE_REINIT) ||
 946              		.loc 1 1478 0
 947 002c 0138     		subs	r0, r0, #1
 948              	.LVL57:
 949 002e 0228     		cmp	r0, #2
 950 0030 05D9     		bls	.L105
 951 0032 7047     		bx	lr
 952              	.LVL58:
 953              	.L107:
ARM GAS  C:\Users\yqh\AppData\Local\Temp\cc55pVRK.s 			page 44


1473:Generated_Source\PSoC5/UART_READER.c ****                 }
 954              		.loc 1 1473 0 discriminator 1
 955 0034 094B     		ldr	r3, .L121+12
 956 0036 1B78     		ldrb	r3, [r3]	@ zero_extendqisi2
 957              	.LVL59:
1475:Generated_Source\PSoC5/UART_READER.c ****             }
 958              		.loc 1 1475 0 discriminator 1
 959 0038 DB07     		lsls	r3, r3, #31
 960              	.LVL60:
 961 003a FBD5     		bpl	.L107
 962 003c F6E7     		b	.L108
 963              	.LVL61:
 964              	.L105:
 965              	.LBB44:
 966              	.LBB45:
 300:Generated_Source\PSoC5/UART_READER.c ****     #endif /* (UART_READER_CONTROL_REG_REMOVED) */
 967              		.loc 1 300 0
 968 003e 054A     		ldr	r2, .L121+4
 969 0040 1378     		ldrb	r3, [r2]	@ zero_extendqisi2
 970              	.LBE45:
 971              	.LBE44:
1479:Generated_Source\PSoC5/UART_READER.c ****                 (retMode == UART_READER_REINIT) ||
1480:Generated_Source\PSoC5/UART_READER.c ****                 (retMode == UART_READER_SEND_WAIT_REINIT) )
1481:Generated_Source\PSoC5/UART_READER.c ****             {
1482:Generated_Source\PSoC5/UART_READER.c ****                 UART_READER_WriteControlRegister(UART_READER_ReadControlRegister() &
 972              		.loc 1 1482 0
 973 0042 03F0FD03 		and	r3, r3, #253
 974              	.LVL62:
 975              	.LBB46:
 976              	.LBB47:
 327:Generated_Source\PSoC5/UART_READER.c ****     #endif /* (UART_READER_CONTROL_REG_REMOVED) */
 977              		.loc 1 327 0
 978 0046 1370     		strb	r3, [r2]
 979 0048 7047     		bx	lr
 980              	.LVL63:
 981              	.L102:
 982              	.LBE47:
 983              	.LBE46:
1468:Generated_Source\PSoC5/UART_READER.c ****                 (retMode == UART_READER_SEND_WAIT_REINIT) )
 984              		.loc 1 1468 0
 985 004a 0128     		cmp	r0, #1
 986 004c EDE7     		b	.L120
 987              	.L98:
 988 004e 7047     		bx	lr
 989              	.L122:
 990              		.align	2
 991              	.L121:
 992 0050 00000000 		.word	.LANCHOR0
 993 0054 76650040 		.word	1073767798
 994 0058 57650040 		.word	1073767767
 995 005c 67650040 		.word	1073767783
 996              	.LBE39:
 997              		.cfi_endproc
 998              	.LFE25:
 999              		.size	UART_READER_SendBreak, .-UART_READER_SendBreak
 1000              		.section	.text.UART_READER_SetTxAddressMode,"ax",%progbits
 1001              		.align	1
ARM GAS  C:\Users\yqh\AppData\Local\Temp\cc55pVRK.s 			page 45


 1002              		.global	UART_READER_SetTxAddressMode
 1003              		.thumb
 1004              		.thumb_func
 1005              		.type	UART_READER_SetTxAddressMode, %function
 1006              	UART_READER_SetTxAddressMode:
 1007              	.LFB26:
1483:Generated_Source\PSoC5/UART_READER.c ****                                               (uint8)~UART_READER_CTRL_HD_SEND_BREAK);
1484:Generated_Source\PSoC5/UART_READER.c ****             }
1485:Generated_Source\PSoC5/UART_READER.c **** 
1486:Generated_Source\PSoC5/UART_READER.c ****         #else /* UART_READER_HD_ENABLED Full Duplex mode */
1487:Generated_Source\PSoC5/UART_READER.c **** 
1488:Generated_Source\PSoC5/UART_READER.c ****             static uint8 txPeriod;
1489:Generated_Source\PSoC5/UART_READER.c **** 
1490:Generated_Source\PSoC5/UART_READER.c ****             if( (retMode == UART_READER_SEND_BREAK) ||
1491:Generated_Source\PSoC5/UART_READER.c ****                 (retMode == UART_READER_SEND_WAIT_REINIT) )
1492:Generated_Source\PSoC5/UART_READER.c ****             {
1493:Generated_Source\PSoC5/UART_READER.c ****                 /* CTRL_HD_SEND_BREAK - skip to send parity bit at Break signal in Full Duplex mode
1494:Generated_Source\PSoC5/UART_READER.c ****                 #if( (UART_READER_PARITY_TYPE != UART_READER__B_UART__NONE_REVB) || \
1495:Generated_Source\PSoC5/UART_READER.c ****                                     (UART_READER_PARITY_TYPE_SW != 0u) )
1496:Generated_Source\PSoC5/UART_READER.c ****                     UART_READER_WriteControlRegister(UART_READER_ReadControlRegister() |
1497:Generated_Source\PSoC5/UART_READER.c ****                                                           UART_READER_CTRL_HD_SEND_BREAK);
1498:Generated_Source\PSoC5/UART_READER.c ****                 #endif /* End UART_READER_PARITY_TYPE != UART_READER__B_UART__NONE_REVB  */
1499:Generated_Source\PSoC5/UART_READER.c **** 
1500:Generated_Source\PSoC5/UART_READER.c ****                 #if(UART_READER_TXCLKGEN_DP)
1501:Generated_Source\PSoC5/UART_READER.c ****                     txPeriod = UART_READER_TXBITCLKTX_COMPLETE_REG;
1502:Generated_Source\PSoC5/UART_READER.c ****                     UART_READER_TXBITCLKTX_COMPLETE_REG = UART_READER_TXBITCTR_BREAKBITS;
1503:Generated_Source\PSoC5/UART_READER.c ****                 #else
1504:Generated_Source\PSoC5/UART_READER.c ****                     txPeriod = UART_READER_TXBITCTR_PERIOD_REG;
1505:Generated_Source\PSoC5/UART_READER.c ****                     UART_READER_TXBITCTR_PERIOD_REG = UART_READER_TXBITCTR_BREAKBITS8X;
1506:Generated_Source\PSoC5/UART_READER.c ****                 #endif /* End UART_READER_TXCLKGEN_DP */
1507:Generated_Source\PSoC5/UART_READER.c **** 
1508:Generated_Source\PSoC5/UART_READER.c ****                 /* Send zeros */
1509:Generated_Source\PSoC5/UART_READER.c ****                 UART_READER_TXDATA_REG = 0u;
1510:Generated_Source\PSoC5/UART_READER.c **** 
1511:Generated_Source\PSoC5/UART_READER.c ****                 do /* Wait until transmit starts */
1512:Generated_Source\PSoC5/UART_READER.c ****                 {
1513:Generated_Source\PSoC5/UART_READER.c ****                     tmpStat = UART_READER_TXSTATUS_REG;
1514:Generated_Source\PSoC5/UART_READER.c ****                 }
1515:Generated_Source\PSoC5/UART_READER.c ****                 while((tmpStat & UART_READER_TX_STS_FIFO_EMPTY) != 0u);
1516:Generated_Source\PSoC5/UART_READER.c ****             }
1517:Generated_Source\PSoC5/UART_READER.c **** 
1518:Generated_Source\PSoC5/UART_READER.c ****             if( (retMode == UART_READER_WAIT_FOR_COMPLETE_REINIT) ||
1519:Generated_Source\PSoC5/UART_READER.c ****                 (retMode == UART_READER_SEND_WAIT_REINIT) )
1520:Generated_Source\PSoC5/UART_READER.c ****             {
1521:Generated_Source\PSoC5/UART_READER.c ****                 do /* Wait until transmit complete */
1522:Generated_Source\PSoC5/UART_READER.c ****                 {
1523:Generated_Source\PSoC5/UART_READER.c ****                     tmpStat = UART_READER_TXSTATUS_REG;
1524:Generated_Source\PSoC5/UART_READER.c ****                 }
1525:Generated_Source\PSoC5/UART_READER.c ****                 while(((uint8)~tmpStat & UART_READER_TX_STS_COMPLETE) != 0u);
1526:Generated_Source\PSoC5/UART_READER.c ****             }
1527:Generated_Source\PSoC5/UART_READER.c **** 
1528:Generated_Source\PSoC5/UART_READER.c ****             if( (retMode == UART_READER_WAIT_FOR_COMPLETE_REINIT) ||
1529:Generated_Source\PSoC5/UART_READER.c ****                 (retMode == UART_READER_REINIT) ||
1530:Generated_Source\PSoC5/UART_READER.c ****                 (retMode == UART_READER_SEND_WAIT_REINIT) )
1531:Generated_Source\PSoC5/UART_READER.c ****             {
1532:Generated_Source\PSoC5/UART_READER.c **** 
1533:Generated_Source\PSoC5/UART_READER.c ****             #if(UART_READER_TXCLKGEN_DP)
ARM GAS  C:\Users\yqh\AppData\Local\Temp\cc55pVRK.s 			page 46


1534:Generated_Source\PSoC5/UART_READER.c ****                 UART_READER_TXBITCLKTX_COMPLETE_REG = txPeriod;
1535:Generated_Source\PSoC5/UART_READER.c ****             #else
1536:Generated_Source\PSoC5/UART_READER.c ****                 UART_READER_TXBITCTR_PERIOD_REG = txPeriod;
1537:Generated_Source\PSoC5/UART_READER.c ****             #endif /* End UART_READER_TXCLKGEN_DP */
1538:Generated_Source\PSoC5/UART_READER.c **** 
1539:Generated_Source\PSoC5/UART_READER.c ****             #if( (UART_READER_PARITY_TYPE != UART_READER__B_UART__NONE_REVB) || \
1540:Generated_Source\PSoC5/UART_READER.c ****                  (UART_READER_PARITY_TYPE_SW != 0u) )
1541:Generated_Source\PSoC5/UART_READER.c ****                 UART_READER_WriteControlRegister(UART_READER_ReadControlRegister() &
1542:Generated_Source\PSoC5/UART_READER.c ****                                                       (uint8) ~UART_READER_CTRL_HD_SEND_BREAK);
1543:Generated_Source\PSoC5/UART_READER.c ****             #endif /* End UART_READER_PARITY_TYPE != NONE */
1544:Generated_Source\PSoC5/UART_READER.c ****             }
1545:Generated_Source\PSoC5/UART_READER.c ****         #endif    /* End UART_READER_HD_ENABLED */
1546:Generated_Source\PSoC5/UART_READER.c ****         }
1547:Generated_Source\PSoC5/UART_READER.c ****     }
1548:Generated_Source\PSoC5/UART_READER.c **** 
1549:Generated_Source\PSoC5/UART_READER.c **** 
1550:Generated_Source\PSoC5/UART_READER.c ****     /*******************************************************************************
1551:Generated_Source\PSoC5/UART_READER.c ****     * Function Name: UART_READER_SetTxAddressMode
1552:Generated_Source\PSoC5/UART_READER.c ****     ********************************************************************************
1553:Generated_Source\PSoC5/UART_READER.c ****     *
1554:Generated_Source\PSoC5/UART_READER.c ****     * Summary:
1555:Generated_Source\PSoC5/UART_READER.c ****     *  Configures the transmitter to signal the next bytes is address or data.
1556:Generated_Source\PSoC5/UART_READER.c ****     *
1557:Generated_Source\PSoC5/UART_READER.c ****     * Parameters:
1558:Generated_Source\PSoC5/UART_READER.c ****     *  addressMode: 
1559:Generated_Source\PSoC5/UART_READER.c ****     *       UART_READER_SET_SPACE - Configure the transmitter to send the next
1560:Generated_Source\PSoC5/UART_READER.c ****     *                                    byte as a data.
1561:Generated_Source\PSoC5/UART_READER.c ****     *       UART_READER_SET_MARK  - Configure the transmitter to send the next
1562:Generated_Source\PSoC5/UART_READER.c ****     *                                    byte as an address.
1563:Generated_Source\PSoC5/UART_READER.c ****     *
1564:Generated_Source\PSoC5/UART_READER.c ****     * Return:
1565:Generated_Source\PSoC5/UART_READER.c ****     *  None.
1566:Generated_Source\PSoC5/UART_READER.c ****     *
1567:Generated_Source\PSoC5/UART_READER.c ****     * Side Effects:
1568:Generated_Source\PSoC5/UART_READER.c ****     *  This function sets and clears UART_READER_CTRL_MARK bit in the Control
1569:Generated_Source\PSoC5/UART_READER.c ****     *  register.
1570:Generated_Source\PSoC5/UART_READER.c ****     *
1571:Generated_Source\PSoC5/UART_READER.c ****     *******************************************************************************/
1572:Generated_Source\PSoC5/UART_READER.c ****     void UART_READER_SetTxAddressMode(uint8 addressMode) 
1573:Generated_Source\PSoC5/UART_READER.c ****     {
 1008              		.loc 1 1573 0
 1009              		.cfi_startproc
 1010              		@ args = 0, pretend = 0, frame = 0
 1011              		@ frame_needed = 0, uses_anonymous_args = 0
 1012              		@ link register save eliminated.
 1013              	.LVL64:
 1014 0000 044B     		ldr	r3, .L127
 1015              	.LBB48:
 1016              	.LBB49:
 300:Generated_Source\PSoC5/UART_READER.c ****     #endif /* (UART_READER_CONTROL_REG_REMOVED) */
 1017              		.loc 1 300 0
 1018 0002 1A78     		ldrb	r2, [r3]	@ zero_extendqisi2
 1019              	.LBE49:
 1020              	.LBE48:
1574:Generated_Source\PSoC5/UART_READER.c ****         /* Mark/Space sending enable */
1575:Generated_Source\PSoC5/UART_READER.c ****         if(addressMode != 0u)
 1021              		.loc 1 1575 0
ARM GAS  C:\Users\yqh\AppData\Local\Temp\cc55pVRK.s 			page 47


 1022 0004 10B1     		cbz	r0, .L124
1576:Generated_Source\PSoC5/UART_READER.c ****         {
1577:Generated_Source\PSoC5/UART_READER.c ****         #if( UART_READER_CONTROL_REG_REMOVED == 0u )
1578:Generated_Source\PSoC5/UART_READER.c ****             UART_READER_WriteControlRegister(UART_READER_ReadControlRegister() |
 1023              		.loc 1 1578 0
 1024 0006 42F00402 		orr	r2, r2, #4
 1025              	.LVL65:
 1026 000a 01E0     		b	.L126
 1027              	.LVL66:
 1028              	.L124:
1579:Generated_Source\PSoC5/UART_READER.c ****                                                   UART_READER_CTRL_MARK);
1580:Generated_Source\PSoC5/UART_READER.c ****         #endif /* End UART_READER_CONTROL_REG_REMOVED == 0u */
1581:Generated_Source\PSoC5/UART_READER.c ****         }
1582:Generated_Source\PSoC5/UART_READER.c ****         else
1583:Generated_Source\PSoC5/UART_READER.c ****         {
1584:Generated_Source\PSoC5/UART_READER.c ****         #if( UART_READER_CONTROL_REG_REMOVED == 0u )
1585:Generated_Source\PSoC5/UART_READER.c ****             UART_READER_WriteControlRegister(UART_READER_ReadControlRegister() &
 1029              		.loc 1 1585 0
 1030 000c 02F0FB02 		and	r2, r2, #251
 1031              	.L126:
 1032              	.LVL67:
 1033              	.LBB50:
 1034              	.LBB51:
 327:Generated_Source\PSoC5/UART_READER.c ****     #endif /* (UART_READER_CONTROL_REG_REMOVED) */
 1035              		.loc 1 327 0
 1036 0010 1A70     		strb	r2, [r3]
 1037 0012 7047     		bx	lr
 1038              	.L128:
 1039              		.align	2
 1040              	.L127:
 1041 0014 76650040 		.word	1073767798
 1042              	.LBE51:
 1043              	.LBE50:
 1044              		.cfi_endproc
 1045              	.LFE26:
 1046              		.size	UART_READER_SetTxAddressMode, .-UART_READER_SetTxAddressMode
 1047              		.section	.text.UART_READER_LoadRxConfig,"ax",%progbits
 1048              		.align	1
 1049              		.global	UART_READER_LoadRxConfig
 1050              		.thumb
 1051              		.thumb_func
 1052              		.type	UART_READER_LoadRxConfig, %function
 1053              	UART_READER_LoadRxConfig:
 1054              	.LFB27:
1586:Generated_Source\PSoC5/UART_READER.c ****                                                   (uint8) ~UART_READER_CTRL_MARK);
1587:Generated_Source\PSoC5/UART_READER.c ****         #endif /* End UART_READER_CONTROL_REG_REMOVED == 0u */
1588:Generated_Source\PSoC5/UART_READER.c ****         }
1589:Generated_Source\PSoC5/UART_READER.c ****     }
1590:Generated_Source\PSoC5/UART_READER.c **** 
1591:Generated_Source\PSoC5/UART_READER.c **** #endif  /* EndUART_READER_TX_ENABLED */
1592:Generated_Source\PSoC5/UART_READER.c **** 
1593:Generated_Source\PSoC5/UART_READER.c **** #if(UART_READER_HD_ENABLED)
1594:Generated_Source\PSoC5/UART_READER.c **** 
1595:Generated_Source\PSoC5/UART_READER.c **** 
1596:Generated_Source\PSoC5/UART_READER.c ****     /*******************************************************************************
1597:Generated_Source\PSoC5/UART_READER.c ****     * Function Name: UART_READER_LoadRxConfig
1598:Generated_Source\PSoC5/UART_READER.c ****     ********************************************************************************
ARM GAS  C:\Users\yqh\AppData\Local\Temp\cc55pVRK.s 			page 48


1599:Generated_Source\PSoC5/UART_READER.c ****     *
1600:Generated_Source\PSoC5/UART_READER.c ****     * Summary:
1601:Generated_Source\PSoC5/UART_READER.c ****     *  Loads the receiver configuration in half duplex mode. After calling this
1602:Generated_Source\PSoC5/UART_READER.c ****     *  function, the UART is ready to receive data.
1603:Generated_Source\PSoC5/UART_READER.c ****     *
1604:Generated_Source\PSoC5/UART_READER.c ****     * Parameters:
1605:Generated_Source\PSoC5/UART_READER.c ****     *  None.
1606:Generated_Source\PSoC5/UART_READER.c ****     *
1607:Generated_Source\PSoC5/UART_READER.c ****     * Return:
1608:Generated_Source\PSoC5/UART_READER.c ****     *  None.
1609:Generated_Source\PSoC5/UART_READER.c ****     *
1610:Generated_Source\PSoC5/UART_READER.c ****     * Side Effects:
1611:Generated_Source\PSoC5/UART_READER.c ****     *  Valid only in half duplex mode. You must make sure that the previous
1612:Generated_Source\PSoC5/UART_READER.c ****     *  transaction is complete and it is safe to unload the transmitter
1613:Generated_Source\PSoC5/UART_READER.c ****     *  configuration.
1614:Generated_Source\PSoC5/UART_READER.c ****     *
1615:Generated_Source\PSoC5/UART_READER.c ****     *******************************************************************************/
1616:Generated_Source\PSoC5/UART_READER.c ****     void UART_READER_LoadRxConfig(void) 
1617:Generated_Source\PSoC5/UART_READER.c ****     {
 1055              		.loc 1 1617 0
 1056              		.cfi_startproc
 1057              		@ args = 0, pretend = 0, frame = 0
 1058              		@ frame_needed = 0, uses_anonymous_args = 0
 1059              		@ link register save eliminated.
 1060              	.LBB52:
 1061              	.LBB53:
 300:Generated_Source\PSoC5/UART_READER.c ****     #endif /* (UART_READER_CONTROL_REG_REMOVED) */
 1062              		.loc 1 300 0
 1063 0000 044A     		ldr	r2, .L130
 1064 0002 1378     		ldrb	r3, [r2]	@ zero_extendqisi2
 1065              	.LBE53:
 1066              	.LBE52:
1618:Generated_Source\PSoC5/UART_READER.c ****         UART_READER_WriteControlRegister(UART_READER_ReadControlRegister() &
 1067              		.loc 1 1618 0
 1068 0004 03F0FE03 		and	r3, r3, #254
 1069              	.LVL68:
 1070              	.LBB54:
 1071              	.LBB55:
 327:Generated_Source\PSoC5/UART_READER.c ****     #endif /* (UART_READER_CONTROL_REG_REMOVED) */
 1072              		.loc 1 327 0
 1073 0008 1370     		strb	r3, [r2]
 1074              	.LBE55:
 1075              	.LBE54:
1619:Generated_Source\PSoC5/UART_READER.c ****                                                 (uint8)~UART_READER_CTRL_HD_SEND);
1620:Generated_Source\PSoC5/UART_READER.c ****         UART_READER_RXBITCTR_PERIOD_REG = UART_READER_HD_RXBITCTR_INIT;
 1076              		.loc 1 1620 0
 1077 000a 034B     		ldr	r3, .L130+4
 1078              	.LVL69:
 1079 000c 7222     		movs	r2, #114
 1080              	.LVL70:
 1081 000e 1A70     		strb	r2, [r3]
 1082              	.LVL71:
 1083 0010 7047     		bx	lr
 1084              	.L131:
 1085 0012 00BF     		.align	2
 1086              	.L130:
 1087 0014 76650040 		.word	1073767798
ARM GAS  C:\Users\yqh\AppData\Local\Temp\cc55pVRK.s 			page 49


 1088 0018 85650040 		.word	1073767813
 1089              		.cfi_endproc
 1090              	.LFE27:
 1091              		.size	UART_READER_LoadRxConfig, .-UART_READER_LoadRxConfig
 1092              		.section	.text.UART_READER_LoadTxConfig,"ax",%progbits
 1093              		.align	1
 1094              		.global	UART_READER_LoadTxConfig
 1095              		.thumb
 1096              		.thumb_func
 1097              		.type	UART_READER_LoadTxConfig, %function
 1098              	UART_READER_LoadTxConfig:
 1099              	.LFB28:
1621:Generated_Source\PSoC5/UART_READER.c **** 
1622:Generated_Source\PSoC5/UART_READER.c ****     #if (UART_READER_RX_INTERRUPT_ENABLED)
1623:Generated_Source\PSoC5/UART_READER.c ****         /* Enable RX interrupt after set RX configuration */
1624:Generated_Source\PSoC5/UART_READER.c ****         UART_READER_SetRxInterruptMode(UART_READER_INIT_RX_INTERRUPTS_MASK);
1625:Generated_Source\PSoC5/UART_READER.c ****     #endif /* (UART_READER_RX_INTERRUPT_ENABLED) */
1626:Generated_Source\PSoC5/UART_READER.c ****     }
1627:Generated_Source\PSoC5/UART_READER.c **** 
1628:Generated_Source\PSoC5/UART_READER.c **** 
1629:Generated_Source\PSoC5/UART_READER.c ****     /*******************************************************************************
1630:Generated_Source\PSoC5/UART_READER.c ****     * Function Name: UART_READER_LoadTxConfig
1631:Generated_Source\PSoC5/UART_READER.c ****     ********************************************************************************
1632:Generated_Source\PSoC5/UART_READER.c ****     *
1633:Generated_Source\PSoC5/UART_READER.c ****     * Summary:
1634:Generated_Source\PSoC5/UART_READER.c ****     *  Loads the transmitter configuration in half duplex mode. After calling this
1635:Generated_Source\PSoC5/UART_READER.c ****     *  function, the UART is ready to transmit data.
1636:Generated_Source\PSoC5/UART_READER.c ****     *
1637:Generated_Source\PSoC5/UART_READER.c ****     * Parameters:
1638:Generated_Source\PSoC5/UART_READER.c ****     *  None.
1639:Generated_Source\PSoC5/UART_READER.c ****     *
1640:Generated_Source\PSoC5/UART_READER.c ****     * Return:
1641:Generated_Source\PSoC5/UART_READER.c ****     *  None.
1642:Generated_Source\PSoC5/UART_READER.c ****     *
1643:Generated_Source\PSoC5/UART_READER.c ****     * Side Effects:
1644:Generated_Source\PSoC5/UART_READER.c ****     *  Valid only in half duplex mode. You must make sure that the previous
1645:Generated_Source\PSoC5/UART_READER.c ****     *  transaction is complete and it is safe to unload the receiver configuration.
1646:Generated_Source\PSoC5/UART_READER.c ****     *
1647:Generated_Source\PSoC5/UART_READER.c ****     *******************************************************************************/
1648:Generated_Source\PSoC5/UART_READER.c ****     void UART_READER_LoadTxConfig(void) 
1649:Generated_Source\PSoC5/UART_READER.c ****     {
 1100              		.loc 1 1649 0
 1101              		.cfi_startproc
 1102              		@ args = 0, pretend = 0, frame = 0
 1103              		@ frame_needed = 0, uses_anonymous_args = 0
 1104              		@ link register save eliminated.
 1105              	.LBB56:
 1106              	.LBB57:
 300:Generated_Source\PSoC5/UART_READER.c ****     #endif /* (UART_READER_CONTROL_REG_REMOVED) */
 1107              		.loc 1 300 0
 1108 0000 044A     		ldr	r2, .L133
 1109 0002 1378     		ldrb	r3, [r2]	@ zero_extendqisi2
 1110              	.LBE57:
 1111              	.LBE56:
1650:Generated_Source\PSoC5/UART_READER.c ****     #if (UART_READER_RX_INTERRUPT_ENABLED)
1651:Generated_Source\PSoC5/UART_READER.c ****         /* Disable RX interrupts before set TX configuration */
1652:Generated_Source\PSoC5/UART_READER.c ****         UART_READER_SetRxInterruptMode(0u);
ARM GAS  C:\Users\yqh\AppData\Local\Temp\cc55pVRK.s 			page 50


1653:Generated_Source\PSoC5/UART_READER.c ****     #endif /* (UART_READER_RX_INTERRUPT_ENABLED) */
1654:Generated_Source\PSoC5/UART_READER.c **** 
1655:Generated_Source\PSoC5/UART_READER.c ****         UART_READER_WriteControlRegister(UART_READER_ReadControlRegister() | UART_READER_CTRL_HD_SE
 1112              		.loc 1 1655 0
 1113 0004 43F00103 		orr	r3, r3, #1
 1114              	.LVL72:
 1115              	.LBB58:
 1116              	.LBB59:
 327:Generated_Source\PSoC5/UART_READER.c ****     #endif /* (UART_READER_CONTROL_REG_REMOVED) */
 1117              		.loc 1 327 0
 1118 0008 1370     		strb	r3, [r2]
 1119              	.LBE59:
 1120              	.LBE58:
1656:Generated_Source\PSoC5/UART_READER.c ****         UART_READER_RXBITCTR_PERIOD_REG = UART_READER_HD_TXBITCTR_INIT;
 1121              		.loc 1 1656 0
 1122 000a 034B     		ldr	r3, .L133+4
 1123              	.LVL73:
 1124 000c 6F22     		movs	r2, #111
 1125              	.LVL74:
 1126 000e 1A70     		strb	r2, [r3]
 1127              	.LVL75:
 1128 0010 7047     		bx	lr
 1129              	.L134:
 1130 0012 00BF     		.align	2
 1131              	.L133:
 1132 0014 76650040 		.word	1073767798
 1133 0018 85650040 		.word	1073767813
 1134              		.cfi_endproc
 1135              	.LFE28:
 1136              		.size	UART_READER_LoadTxConfig, .-UART_READER_LoadTxConfig
 1137              		.global	UART_READER_initVar
 1138              		.bss
 1139              		.set	.LANCHOR0,. + 0
 1140              		.type	UART_READER_initVar, %object
 1141              		.size	UART_READER_initVar, 1
 1142              	UART_READER_initVar:
 1143 0000 00       		.space	1
 1144              		.text
 1145              	.Letext0:
 1146              		.file 2 "Generated_Source\\PSoC5\\cytypes.h"
 1147              		.file 3 "Generated_Source\\PSoC5\\CyLib.h"