ARM GAS  C:\Users\yqh\AppData\Local\Temp\cc55pVRK.s 			page 1


   1              		.syntax unified
   2              		.cpu cortex-m3
   3              		.fpu softvfp
   4              		.eabi_attribute 20, 1
   5              		.eabi_attribute 21, 1
   6              		.eabi_attribute 23, 3
   7              		.eabi_attribute 24, 1
   8              		.eabi_attribute 25, 1
   9              		.eabi_attribute 26, 1
  10              		.eabi_attribute 30, 4
  11              		.eabi_attribute 34, 1
  12              		.eabi_attribute 18, 4
  13              		.thumb
  14              		.file	"UART_READER.c"
  15              		.text
  16              	.Ltext0:
  17              		.cfi_sections	.debug_frame
  18              		.section	.text.UART_READER_Init,"ax",%progbits
  19              		.align	1
  20              		.global	UART_READER_Init
  21              		.thumb
  22              		.thumb_func
  23              		.type	UART_READER_Init, %function
  24              	UART_READER_Init:
  25              	.LFB1:
  26              		.file 1 "Generated_Source\\PSoC5\\UART_READER.c"
   1:Generated_Source\PSoC5/UART_READER.c **** /*******************************************************************************
   2:Generated_Source\PSoC5/UART_READER.c **** * File Name: UART_READER.c
   3:Generated_Source\PSoC5/UART_READER.c **** * Version 2.50
   4:Generated_Source\PSoC5/UART_READER.c **** *
   5:Generated_Source\PSoC5/UART_READER.c **** * Description:
   6:Generated_Source\PSoC5/UART_READER.c **** *  This file provides all API functionality of the UART component
   7:Generated_Source\PSoC5/UART_READER.c **** *
   8:Generated_Source\PSoC5/UART_READER.c **** * Note:
   9:Generated_Source\PSoC5/UART_READER.c **** *
  10:Generated_Source\PSoC5/UART_READER.c **** ********************************************************************************
  11:Generated_Source\PSoC5/UART_READER.c **** * Copyright 2008-2015, Cypress Semiconductor Corporation.  All rights reserved.
  12:Generated_Source\PSoC5/UART_READER.c **** * You may use this file only in accordance with the license, terms, conditions,
  13:Generated_Source\PSoC5/UART_READER.c **** * disclaimers, and limitations in the end user license agreement accompanying
  14:Generated_Source\PSoC5/UART_READER.c **** * the software package with which this file was provided.
  15:Generated_Source\PSoC5/UART_READER.c **** *******************************************************************************/
  16:Generated_Source\PSoC5/UART_READER.c **** 
  17:Generated_Source\PSoC5/UART_READER.c **** #include "UART_READER.h"
  18:Generated_Source\PSoC5/UART_READER.c **** #if (UART_READER_INTERNAL_CLOCK_USED)
  19:Generated_Source\PSoC5/UART_READER.c ****     #include "UART_READER_IntClock.h"
  20:Generated_Source\PSoC5/UART_READER.c **** #endif /* End UART_READER_INTERNAL_CLOCK_USED */
  21:Generated_Source\PSoC5/UART_READER.c **** 
  22:Generated_Source\PSoC5/UART_READER.c **** 
  23:Generated_Source\PSoC5/UART_READER.c **** /***************************************
  24:Generated_Source\PSoC5/UART_READER.c **** * Global data allocation
  25:Generated_Source\PSoC5/UART_READER.c **** ***************************************/
  26:Generated_Source\PSoC5/UART_READER.c **** 
  27:Generated_Source\PSoC5/UART_READER.c **** uint8 UART_READER_initVar = 0u;
  28:Generated_Source\PSoC5/UART_READER.c **** 
  29:Generated_Source\PSoC5/UART_READER.c **** #if (UART_READER_TX_INTERRUPT_ENABLED && UART_READER_TX_ENABLED)
  30:Generated_Source\PSoC5/UART_READER.c ****     volatile uint8 UART_READER_txBuffer[UART_READER_TX_BUFFER_SIZE];
  31:Generated_Source\PSoC5/UART_READER.c ****     volatile uint8 UART_READER_txBufferRead = 0u;
ARM GAS  C:\Users\yqh\AppData\Local\Temp\cc55pVRK.s 			page 2


  32:Generated_Source\PSoC5/UART_READER.c ****     uint8 UART_READER_txBufferWrite = 0u;
  33:Generated_Source\PSoC5/UART_READER.c **** #endif /* (UART_READER_TX_INTERRUPT_ENABLED && UART_READER_TX_ENABLED) */
  34:Generated_Source\PSoC5/UART_READER.c **** 
  35:Generated_Source\PSoC5/UART_READER.c **** #if (UART_READER_RX_INTERRUPT_ENABLED && (UART_READER_RX_ENABLED || UART_READER_HD_ENABLED))
  36:Generated_Source\PSoC5/UART_READER.c ****     uint8 UART_READER_errorStatus = 0u;
  37:Generated_Source\PSoC5/UART_READER.c ****     volatile uint8 UART_READER_rxBuffer[UART_READER_RX_BUFFER_SIZE];
  38:Generated_Source\PSoC5/UART_READER.c ****     volatile uint8 UART_READER_rxBufferRead  = 0u;
  39:Generated_Source\PSoC5/UART_READER.c ****     volatile uint8 UART_READER_rxBufferWrite = 0u;
  40:Generated_Source\PSoC5/UART_READER.c ****     volatile uint8 UART_READER_rxBufferLoopDetect = 0u;
  41:Generated_Source\PSoC5/UART_READER.c ****     volatile uint8 UART_READER_rxBufferOverflow   = 0u;
  42:Generated_Source\PSoC5/UART_READER.c ****     #if (UART_READER_RXHW_ADDRESS_ENABLED)
  43:Generated_Source\PSoC5/UART_READER.c ****         volatile uint8 UART_READER_rxAddressMode = UART_READER_RX_ADDRESS_MODE;
  44:Generated_Source\PSoC5/UART_READER.c ****         volatile uint8 UART_READER_rxAddressDetected = 0u;
  45:Generated_Source\PSoC5/UART_READER.c ****     #endif /* (UART_READER_RXHW_ADDRESS_ENABLED) */
  46:Generated_Source\PSoC5/UART_READER.c **** #endif /* (UART_READER_RX_INTERRUPT_ENABLED && (UART_READER_RX_ENABLED || UART_READER_HD_ENABLED)) 
  47:Generated_Source\PSoC5/UART_READER.c **** 
  48:Generated_Source\PSoC5/UART_READER.c **** 
  49:Generated_Source\PSoC5/UART_READER.c **** /*******************************************************************************
  50:Generated_Source\PSoC5/UART_READER.c **** * Function Name: UART_READER_Start
  51:Generated_Source\PSoC5/UART_READER.c **** ********************************************************************************
  52:Generated_Source\PSoC5/UART_READER.c **** *
  53:Generated_Source\PSoC5/UART_READER.c **** * Summary:
  54:Generated_Source\PSoC5/UART_READER.c **** *  This is the preferred method to begin component operation.
  55:Generated_Source\PSoC5/UART_READER.c **** *  UART_READER_Start() sets the initVar variable, calls the
  56:Generated_Source\PSoC5/UART_READER.c **** *  UART_READER_Init() function, and then calls the
  57:Generated_Source\PSoC5/UART_READER.c **** *  UART_READER_Enable() function.
  58:Generated_Source\PSoC5/UART_READER.c **** *
  59:Generated_Source\PSoC5/UART_READER.c **** * Parameters:
  60:Generated_Source\PSoC5/UART_READER.c **** *  None.
  61:Generated_Source\PSoC5/UART_READER.c **** *
  62:Generated_Source\PSoC5/UART_READER.c **** * Return:
  63:Generated_Source\PSoC5/UART_READER.c **** *  None.
  64:Generated_Source\PSoC5/UART_READER.c **** *
  65:Generated_Source\PSoC5/UART_READER.c **** * Global variables:
  66:Generated_Source\PSoC5/UART_READER.c **** *  The UART_READER_intiVar variable is used to indicate initial
  67:Generated_Source\PSoC5/UART_READER.c **** *  configuration of this component. The variable is initialized to zero (0u)
  68:Generated_Source\PSoC5/UART_READER.c **** *  and set to one (1u) the first time UART_READER_Start() is called. This
  69:Generated_Source\PSoC5/UART_READER.c **** *  allows for component initialization without re-initialization in all
  70:Generated_Source\PSoC5/UART_READER.c **** *  subsequent calls to the UART_READER_Start() routine.
  71:Generated_Source\PSoC5/UART_READER.c **** *
  72:Generated_Source\PSoC5/UART_READER.c **** * Reentrant:
  73:Generated_Source\PSoC5/UART_READER.c **** *  No.
  74:Generated_Source\PSoC5/UART_READER.c **** *
  75:Generated_Source\PSoC5/UART_READER.c **** *******************************************************************************/
  76:Generated_Source\PSoC5/UART_READER.c **** void UART_READER_Start(void) 
  77:Generated_Source\PSoC5/UART_READER.c **** {
  78:Generated_Source\PSoC5/UART_READER.c ****     /* If not initialized then initialize all required hardware and software */
  79:Generated_Source\PSoC5/UART_READER.c ****     if(UART_READER_initVar == 0u)
  80:Generated_Source\PSoC5/UART_READER.c ****     {
  81:Generated_Source\PSoC5/UART_READER.c ****         UART_READER_Init();
  82:Generated_Source\PSoC5/UART_READER.c ****         UART_READER_initVar = 1u;
  83:Generated_Source\PSoC5/UART_READER.c ****     }
  84:Generated_Source\PSoC5/UART_READER.c **** 
  85:Generated_Source\PSoC5/UART_READER.c ****     UART_READER_Enable();
  86:Generated_Source\PSoC5/UART_READER.c **** }
  87:Generated_Source\PSoC5/UART_READER.c **** 
  88:Generated_Source\PSoC5/UART_READER.c **** 
ARM GAS  C:\Users\yqh\AppData\Local\Temp\cc55pVRK.s 			page 3


  89:Generated_Source\PSoC5/UART_READER.c **** /*******************************************************************************
  90:Generated_Source\PSoC5/UART_READER.c **** * Function Name: UART_READER_Init
  91:Generated_Source\PSoC5/UART_READER.c **** ********************************************************************************
  92:Generated_Source\PSoC5/UART_READER.c **** *
  93:Generated_Source\PSoC5/UART_READER.c **** * Summary:
  94:Generated_Source\PSoC5/UART_READER.c **** *  Initializes or restores the component according to the customizer Configure
  95:Generated_Source\PSoC5/UART_READER.c **** *  dialog settings. It is not necessary to call UART_READER_Init() because
  96:Generated_Source\PSoC5/UART_READER.c **** *  the UART_READER_Start() API calls this function and is the preferred
  97:Generated_Source\PSoC5/UART_READER.c **** *  method to begin component operation.
  98:Generated_Source\PSoC5/UART_READER.c **** *
  99:Generated_Source\PSoC5/UART_READER.c **** * Parameters:
 100:Generated_Source\PSoC5/UART_READER.c **** *  None.
 101:Generated_Source\PSoC5/UART_READER.c **** *
 102:Generated_Source\PSoC5/UART_READER.c **** * Return:
 103:Generated_Source\PSoC5/UART_READER.c **** *  None.
 104:Generated_Source\PSoC5/UART_READER.c **** *
 105:Generated_Source\PSoC5/UART_READER.c **** *******************************************************************************/
 106:Generated_Source\PSoC5/UART_READER.c **** void UART_READER_Init(void) 
 107:Generated_Source\PSoC5/UART_READER.c **** {
  27              		.loc 1 107 0
  28              		.cfi_startproc
  29              		@ args = 0, pretend = 0, frame = 0
  30              		@ frame_needed = 0, uses_anonymous_args = 0
  31              		@ link register save eliminated.
 108:Generated_Source\PSoC5/UART_READER.c ****     #if(UART_READER_RX_ENABLED || UART_READER_HD_ENABLED)
 109:Generated_Source\PSoC5/UART_READER.c **** 
 110:Generated_Source\PSoC5/UART_READER.c ****         #if (UART_READER_RX_INTERRUPT_ENABLED)
 111:Generated_Source\PSoC5/UART_READER.c ****             /* Set RX interrupt vector and priority */
 112:Generated_Source\PSoC5/UART_READER.c ****             (void) CyIntSetVector(UART_READER_RX_VECT_NUM, &UART_READER_RXISR);
 113:Generated_Source\PSoC5/UART_READER.c ****             CyIntSetPriority(UART_READER_RX_VECT_NUM, UART_READER_RX_PRIOR_NUM);
 114:Generated_Source\PSoC5/UART_READER.c ****             UART_READER_errorStatus = 0u;
 115:Generated_Source\PSoC5/UART_READER.c ****         #endif /* (UART_READER_RX_INTERRUPT_ENABLED) */
 116:Generated_Source\PSoC5/UART_READER.c **** 
 117:Generated_Source\PSoC5/UART_READER.c ****         #if (UART_READER_RXHW_ADDRESS_ENABLED)
 118:Generated_Source\PSoC5/UART_READER.c ****             UART_READER_SetRxAddressMode(UART_READER_RX_ADDRESS_MODE);
 119:Generated_Source\PSoC5/UART_READER.c ****             UART_READER_SetRxAddress1(UART_READER_RX_HW_ADDRESS1);
 120:Generated_Source\PSoC5/UART_READER.c ****             UART_READER_SetRxAddress2(UART_READER_RX_HW_ADDRESS2);
 121:Generated_Source\PSoC5/UART_READER.c ****         #endif /* End UART_READER_RXHW_ADDRESS_ENABLED */
 122:Generated_Source\PSoC5/UART_READER.c **** 
 123:Generated_Source\PSoC5/UART_READER.c ****         /* Init Count7 period */
 124:Generated_Source\PSoC5/UART_READER.c ****         UART_READER_RXBITCTR_PERIOD_REG = UART_READER_RXBITCTR_INIT;
  32              		.loc 1 124 0
  33 0000 024B     		ldr	r3, .L2
  34 0002 7222     		movs	r2, #114
  35 0004 1A70     		strb	r2, [r3]
 125:Generated_Source\PSoC5/UART_READER.c ****         /* Configure the Initial RX interrupt mask */
 126:Generated_Source\PSoC5/UART_READER.c ****         UART_READER_RXSTATUS_MASK_REG  = UART_READER_INIT_RX_INTERRUPTS_MASK;
  36              		.loc 1 126 0
  37 0006 2022     		movs	r2, #32
  38 0008 9A70     		strb	r2, [r3, #2]
  39 000a 7047     		bx	lr
  40              	.L3:
  41              		.align	2
  42              	.L2:
  43 000c 85650040 		.word	1073767813
  44              		.cfi_endproc
  45              	.LFE1:
ARM GAS  C:\Users\yqh\AppData\Local\Temp\cc55pVRK.s 			page 4


  46              		.size	UART_READER_Init, .-UART_READER_Init
  47              		.section	.text.UART_READER_Enable,"ax",%progbits
  48              		.align	1
  49              		.global	UART_READER_Enable
  50              		.thumb
  51              		.thumb_func
  52              		.type	UART_READER_Enable, %function
  53              	UART_READER_Enable:
  54              	.LFB2:
 127:Generated_Source\PSoC5/UART_READER.c ****     #endif /* End UART_READER_RX_ENABLED || UART_READER_HD_ENABLED*/
 128:Generated_Source\PSoC5/UART_READER.c **** 
 129:Generated_Source\PSoC5/UART_READER.c ****     #if(UART_READER_TX_ENABLED)
 130:Generated_Source\PSoC5/UART_READER.c ****         #if (UART_READER_TX_INTERRUPT_ENABLED)
 131:Generated_Source\PSoC5/UART_READER.c ****             /* Set TX interrupt vector and priority */
 132:Generated_Source\PSoC5/UART_READER.c ****             (void) CyIntSetVector(UART_READER_TX_VECT_NUM, &UART_READER_TXISR);
 133:Generated_Source\PSoC5/UART_READER.c ****             CyIntSetPriority(UART_READER_TX_VECT_NUM, UART_READER_TX_PRIOR_NUM);
 134:Generated_Source\PSoC5/UART_READER.c ****         #endif /* (UART_READER_TX_INTERRUPT_ENABLED) */
 135:Generated_Source\PSoC5/UART_READER.c **** 
 136:Generated_Source\PSoC5/UART_READER.c ****         /* Write Counter Value for TX Bit Clk Generator*/
 137:Generated_Source\PSoC5/UART_READER.c ****         #if (UART_READER_TXCLKGEN_DP)
 138:Generated_Source\PSoC5/UART_READER.c ****             UART_READER_TXBITCLKGEN_CTR_REG = UART_READER_BIT_CENTER;
 139:Generated_Source\PSoC5/UART_READER.c ****             UART_READER_TXBITCLKTX_COMPLETE_REG = ((UART_READER_NUMBER_OF_DATA_BITS +
 140:Generated_Source\PSoC5/UART_READER.c ****                         UART_READER_NUMBER_OF_START_BIT) * UART_READER_OVER_SAMPLE_COUNT) - 1u;
 141:Generated_Source\PSoC5/UART_READER.c ****         #else
 142:Generated_Source\PSoC5/UART_READER.c ****             UART_READER_TXBITCTR_PERIOD_REG = ((UART_READER_NUMBER_OF_DATA_BITS +
 143:Generated_Source\PSoC5/UART_READER.c ****                         UART_READER_NUMBER_OF_START_BIT) * UART_READER_OVER_SAMPLE_8) - 1u;
 144:Generated_Source\PSoC5/UART_READER.c ****         #endif /* End UART_READER_TXCLKGEN_DP */
 145:Generated_Source\PSoC5/UART_READER.c **** 
 146:Generated_Source\PSoC5/UART_READER.c ****         /* Configure the Initial TX interrupt mask */
 147:Generated_Source\PSoC5/UART_READER.c ****         #if (UART_READER_TX_INTERRUPT_ENABLED)
 148:Generated_Source\PSoC5/UART_READER.c ****             UART_READER_TXSTATUS_MASK_REG = UART_READER_TX_STS_FIFO_EMPTY;
 149:Generated_Source\PSoC5/UART_READER.c ****         #else
 150:Generated_Source\PSoC5/UART_READER.c ****             UART_READER_TXSTATUS_MASK_REG = UART_READER_INIT_TX_INTERRUPTS_MASK;
 151:Generated_Source\PSoC5/UART_READER.c ****         #endif /*End UART_READER_TX_INTERRUPT_ENABLED*/
 152:Generated_Source\PSoC5/UART_READER.c **** 
 153:Generated_Source\PSoC5/UART_READER.c ****     #endif /* End UART_READER_TX_ENABLED */
 154:Generated_Source\PSoC5/UART_READER.c **** 
 155:Generated_Source\PSoC5/UART_READER.c ****     #if(UART_READER_PARITY_TYPE_SW)  /* Write Parity to Control Register */
 156:Generated_Source\PSoC5/UART_READER.c ****         UART_READER_WriteControlRegister( \
 157:Generated_Source\PSoC5/UART_READER.c ****             (UART_READER_ReadControlRegister() & (uint8)~UART_READER_CTRL_PARITY_TYPE_MASK) | \
 158:Generated_Source\PSoC5/UART_READER.c ****             (uint8)(UART_READER_PARITY_TYPE << UART_READER_CTRL_PARITY_TYPE0_SHIFT) );
 159:Generated_Source\PSoC5/UART_READER.c ****     #endif /* End UART_READER_PARITY_TYPE_SW */
 160:Generated_Source\PSoC5/UART_READER.c **** }
 161:Generated_Source\PSoC5/UART_READER.c **** 
 162:Generated_Source\PSoC5/UART_READER.c **** 
 163:Generated_Source\PSoC5/UART_READER.c **** /*******************************************************************************
 164:Generated_Source\PSoC5/UART_READER.c **** * Function Name: UART_READER_Enable
 165:Generated_Source\PSoC5/UART_READER.c **** ********************************************************************************
 166:Generated_Source\PSoC5/UART_READER.c **** *
 167:Generated_Source\PSoC5/UART_READER.c **** * Summary:
 168:Generated_Source\PSoC5/UART_READER.c **** *  Activates the hardware and begins component operation. It is not necessary
 169:Generated_Source\PSoC5/UART_READER.c **** *  to call UART_READER_Enable() because the UART_READER_Start() API
 170:Generated_Source\PSoC5/UART_READER.c **** *  calls this function, which is the preferred method to begin component
 171:Generated_Source\PSoC5/UART_READER.c **** *  operation.
 172:Generated_Source\PSoC5/UART_READER.c **** 
 173:Generated_Source\PSoC5/UART_READER.c **** * Parameters:
 174:Generated_Source\PSoC5/UART_READER.c **** *  None.
ARM GAS  C:\Users\yqh\AppData\Local\Temp\cc55pVRK.s 			page 5


 175:Generated_Source\PSoC5/UART_READER.c **** *
 176:Generated_Source\PSoC5/UART_READER.c **** * Return:
 177:Generated_Source\PSoC5/UART_READER.c **** *  None.
 178:Generated_Source\PSoC5/UART_READER.c **** *
 179:Generated_Source\PSoC5/UART_READER.c **** * Global Variables:
 180:Generated_Source\PSoC5/UART_READER.c **** *  UART_READER_rxAddressDetected - set to initial state (0).
 181:Generated_Source\PSoC5/UART_READER.c **** *
 182:Generated_Source\PSoC5/UART_READER.c **** *******************************************************************************/
 183:Generated_Source\PSoC5/UART_READER.c **** void UART_READER_Enable(void) 
 184:Generated_Source\PSoC5/UART_READER.c **** {
  55              		.loc 1 184 0
  56              		.cfi_startproc
  57              		@ args = 0, pretend = 0, frame = 0
  58              		@ frame_needed = 0, uses_anonymous_args = 0
  59 0000 08B5     		push	{r3, lr}
  60              		.cfi_def_cfa_offset 8
  61              		.cfi_offset 3, -8
  62              		.cfi_offset 14, -4
 185:Generated_Source\PSoC5/UART_READER.c ****     uint8 enableInterrupts;
 186:Generated_Source\PSoC5/UART_READER.c ****     enableInterrupts = CyEnterCriticalSection();
  63              		.loc 1 186 0
  64 0002 FFF7FEFF 		bl	CyEnterCriticalSection
  65              	.LVL0:
 187:Generated_Source\PSoC5/UART_READER.c **** 
 188:Generated_Source\PSoC5/UART_READER.c ****     #if (UART_READER_RX_ENABLED || UART_READER_HD_ENABLED)
 189:Generated_Source\PSoC5/UART_READER.c ****         /* RX Counter (Count7) Enable */
 190:Generated_Source\PSoC5/UART_READER.c ****         UART_READER_RXBITCTR_CONTROL_REG |= UART_READER_CNTR_ENABLE;
  66              		.loc 1 190 0
  67 0006 064A     		ldr	r2, .L5
  68 0008 1378     		ldrb	r3, [r2]	@ zero_extendqisi2
  69 000a 43F02003 		orr	r3, r3, #32
  70 000e 1370     		strb	r3, [r2]
 191:Generated_Source\PSoC5/UART_READER.c **** 
 192:Generated_Source\PSoC5/UART_READER.c ****         /* Enable the RX Interrupt */
 193:Generated_Source\PSoC5/UART_READER.c ****         UART_READER_RXSTATUS_ACTL_REG  |= UART_READER_INT_ENABLE;
  71              		.loc 1 193 0
  72 0010 9378     		ldrb	r3, [r2, #2]	@ zero_extendqisi2
  73 0012 43F01003 		orr	r3, r3, #16
  74 0016 9370     		strb	r3, [r2, #2]
 194:Generated_Source\PSoC5/UART_READER.c **** 
 195:Generated_Source\PSoC5/UART_READER.c ****         #if (UART_READER_RX_INTERRUPT_ENABLED)
 196:Generated_Source\PSoC5/UART_READER.c ****             UART_READER_EnableRxInt();
 197:Generated_Source\PSoC5/UART_READER.c **** 
 198:Generated_Source\PSoC5/UART_READER.c ****             #if (UART_READER_RXHW_ADDRESS_ENABLED)
 199:Generated_Source\PSoC5/UART_READER.c ****                 UART_READER_rxAddressDetected = 0u;
 200:Generated_Source\PSoC5/UART_READER.c ****             #endif /* (UART_READER_RXHW_ADDRESS_ENABLED) */
 201:Generated_Source\PSoC5/UART_READER.c ****         #endif /* (UART_READER_RX_INTERRUPT_ENABLED) */
 202:Generated_Source\PSoC5/UART_READER.c ****     #endif /* (UART_READER_RX_ENABLED || UART_READER_HD_ENABLED) */
 203:Generated_Source\PSoC5/UART_READER.c **** 
 204:Generated_Source\PSoC5/UART_READER.c ****     #if(UART_READER_TX_ENABLED)
 205:Generated_Source\PSoC5/UART_READER.c ****         /* TX Counter (DP/Count7) Enable */
 206:Generated_Source\PSoC5/UART_READER.c ****         #if(!UART_READER_TXCLKGEN_DP)
 207:Generated_Source\PSoC5/UART_READER.c ****             UART_READER_TXBITCTR_CONTROL_REG |= UART_READER_CNTR_ENABLE;
 208:Generated_Source\PSoC5/UART_READER.c ****         #endif /* End UART_READER_TXCLKGEN_DP */
 209:Generated_Source\PSoC5/UART_READER.c **** 
 210:Generated_Source\PSoC5/UART_READER.c ****         /* Enable the TX Interrupt */
 211:Generated_Source\PSoC5/UART_READER.c ****         UART_READER_TXSTATUS_ACTL_REG |= UART_READER_INT_ENABLE;
ARM GAS  C:\Users\yqh\AppData\Local\Temp\cc55pVRK.s 			page 6


 212:Generated_Source\PSoC5/UART_READER.c ****         #if (UART_READER_TX_INTERRUPT_ENABLED)
 213:Generated_Source\PSoC5/UART_READER.c ****             UART_READER_ClearPendingTxInt(); /* Clear history of TX_NOT_EMPTY */
 214:Generated_Source\PSoC5/UART_READER.c ****             UART_READER_EnableTxInt();
 215:Generated_Source\PSoC5/UART_READER.c ****         #endif /* (UART_READER_TX_INTERRUPT_ENABLED) */
 216:Generated_Source\PSoC5/UART_READER.c ****      #endif /* (UART_READER_TX_INTERRUPT_ENABLED) */
 217:Generated_Source\PSoC5/UART_READER.c **** 
 218:Generated_Source\PSoC5/UART_READER.c ****     #if (UART_READER_INTERNAL_CLOCK_USED)
 219:Generated_Source\PSoC5/UART_READER.c ****         UART_READER_IntClock_Start();  /* Enable the clock */
 220:Generated_Source\PSoC5/UART_READER.c ****     #endif /* (UART_READER_INTERNAL_CLOCK_USED) */
 221:Generated_Source\PSoC5/UART_READER.c **** 
 222:Generated_Source\PSoC5/UART_READER.c ****     CyExitCriticalSection(enableInterrupts);
 223:Generated_Source\PSoC5/UART_READER.c **** }
  75              		.loc 1 223 0
  76 0018 BDE80840 		pop	{r3, lr}
  77              		.cfi_restore 14
  78              		.cfi_restore 3
  79              		.cfi_def_cfa_offset 0
 222:Generated_Source\PSoC5/UART_READER.c **** }
  80              		.loc 1 222 0
  81 001c FFF7FEBF 		b	CyExitCriticalSection
  82              	.LVL1:
  83              	.L6:
  84              		.align	2
  85              	.L5:
  86 0020 95650040 		.word	1073767829
  87              		.cfi_endproc
  88              	.LFE2:
  89              		.size	UART_READER_Enable, .-UART_READER_Enable
  90              		.section	.text.UART_READER_Start,"ax",%progbits
  91              		.align	1
  92              		.global	UART_READER_Start
  93              		.thumb
  94              		.thumb_func
  95              		.type	UART_READER_Start, %function
  96              	UART_READER_Start:
  97              	.LFB0:
  77:Generated_Source\PSoC5/UART_READER.c ****     /* If not initialized then initialize all required hardware and software */
  98              		.loc 1 77 0
  99              		.cfi_startproc
 100              		@ args = 0, pretend = 0, frame = 0
 101              		@ frame_needed = 0, uses_anonymous_args = 0
 102 0000 10B5     		push	{r4, lr}
 103              		.cfi_def_cfa_offset 8
 104              		.cfi_offset 4, -8
 105              		.cfi_offset 14, -4
  79:Generated_Source\PSoC5/UART_READER.c ****     {
 106              		.loc 1 79 0
 107 0002 054C     		ldr	r4, .L10
 108 0004 2378     		ldrb	r3, [r4]	@ zero_extendqisi2
 109 0006 1BB9     		cbnz	r3, .L8
  81:Generated_Source\PSoC5/UART_READER.c ****         UART_READER_initVar = 1u;
 110              		.loc 1 81 0
 111 0008 FFF7FEFF 		bl	UART_READER_Init
 112              	.LVL2:
  82:Generated_Source\PSoC5/UART_READER.c ****     }
 113              		.loc 1 82 0
 114 000c 0123     		movs	r3, #1
ARM GAS  C:\Users\yqh\AppData\Local\Temp\cc55pVRK.s 			page 7


 115 000e 2370     		strb	r3, [r4]
 116              	.L8:
  86:Generated_Source\PSoC5/UART_READER.c **** 
 117              		.loc 1 86 0
 118 0010 BDE81040 		pop	{r4, lr}
 119              		.cfi_restore 14
 120              		.cfi_restore 4
 121              		.cfi_def_cfa_offset 0
  85:Generated_Source\PSoC5/UART_READER.c **** }
 122              		.loc 1 85 0
 123 0014 FFF7FEBF 		b	UART_READER_Enable
 124              	.LVL3:
 125              	.L11:
 126              		.align	2
 127              	.L10:
 128 0018 00000000 		.word	.LANCHOR0
 129              		.cfi_endproc
 130              	.LFE0:
 131              		.size	UART_READER_Start, .-UART_READER_Start
 132              		.section	.text.UART_READER_Stop,"ax",%progbits
 133              		.align	1
 134              		.global	UART_READER_Stop
 135              		.thumb
 136              		.thumb_func
 137              		.type	UART_READER_Stop, %function
 138              	UART_READER_Stop:
 139              	.LFB3:
 224:Generated_Source\PSoC5/UART_READER.c **** 
 225:Generated_Source\PSoC5/UART_READER.c **** 
 226:Generated_Source\PSoC5/UART_READER.c **** /*******************************************************************************
 227:Generated_Source\PSoC5/UART_READER.c **** * Function Name: UART_READER_Stop
 228:Generated_Source\PSoC5/UART_READER.c **** ********************************************************************************
 229:Generated_Source\PSoC5/UART_READER.c **** *
 230:Generated_Source\PSoC5/UART_READER.c **** * Summary:
 231:Generated_Source\PSoC5/UART_READER.c **** *  Disables the UART operation.
 232:Generated_Source\PSoC5/UART_READER.c **** *
 233:Generated_Source\PSoC5/UART_READER.c **** * Parameters:
 234:Generated_Source\PSoC5/UART_READER.c **** *  None.
 235:Generated_Source\PSoC5/UART_READER.c **** *
 236:Generated_Source\PSoC5/UART_READER.c **** * Return:
 237:Generated_Source\PSoC5/UART_READER.c **** *  None.
 238:Generated_Source\PSoC5/UART_READER.c **** *
 239:Generated_Source\PSoC5/UART_READER.c **** *******************************************************************************/
 240:Generated_Source\PSoC5/UART_READER.c **** void UART_READER_Stop(void) 
 241:Generated_Source\PSoC5/UART_READER.c **** {
 140              		.loc 1 241 0
 141              		.cfi_startproc
 142              		@ args = 0, pretend = 0, frame = 0
 143              		@ frame_needed = 0, uses_anonymous_args = 0
 144 0000 08B5     		push	{r3, lr}
 145              		.cfi_def_cfa_offset 8
 146              		.cfi_offset 3, -8
 147              		.cfi_offset 14, -4
 242:Generated_Source\PSoC5/UART_READER.c ****     uint8 enableInterrupts;
 243:Generated_Source\PSoC5/UART_READER.c ****     enableInterrupts = CyEnterCriticalSection();
 148              		.loc 1 243 0
 149 0002 FFF7FEFF 		bl	CyEnterCriticalSection
ARM GAS  C:\Users\yqh\AppData\Local\Temp\cc55pVRK.s 			page 8


 150              	.LVL4:
 244:Generated_Source\PSoC5/UART_READER.c **** 
 245:Generated_Source\PSoC5/UART_READER.c ****     /* Write Bit Counter Disable */
 246:Generated_Source\PSoC5/UART_READER.c ****     #if (UART_READER_RX_ENABLED || UART_READER_HD_ENABLED)
 247:Generated_Source\PSoC5/UART_READER.c ****         UART_READER_RXBITCTR_CONTROL_REG &= (uint8) ~UART_READER_CNTR_ENABLE;
 151              		.loc 1 247 0
 152 0006 064A     		ldr	r2, .L13
 153 0008 1378     		ldrb	r3, [r2]	@ zero_extendqisi2
 154 000a 03F0DF03 		and	r3, r3, #223
 155 000e 1370     		strb	r3, [r2]
 248:Generated_Source\PSoC5/UART_READER.c ****     #endif /* (UART_READER_RX_ENABLED || UART_READER_HD_ENABLED) */
 249:Generated_Source\PSoC5/UART_READER.c **** 
 250:Generated_Source\PSoC5/UART_READER.c ****     #if (UART_READER_TX_ENABLED)
 251:Generated_Source\PSoC5/UART_READER.c ****         #if(!UART_READER_TXCLKGEN_DP)
 252:Generated_Source\PSoC5/UART_READER.c ****             UART_READER_TXBITCTR_CONTROL_REG &= (uint8) ~UART_READER_CNTR_ENABLE;
 253:Generated_Source\PSoC5/UART_READER.c ****         #endif /* (!UART_READER_TXCLKGEN_DP) */
 254:Generated_Source\PSoC5/UART_READER.c ****     #endif /* (UART_READER_TX_ENABLED) */
 255:Generated_Source\PSoC5/UART_READER.c **** 
 256:Generated_Source\PSoC5/UART_READER.c ****     #if (UART_READER_INTERNAL_CLOCK_USED)
 257:Generated_Source\PSoC5/UART_READER.c ****         UART_READER_IntClock_Stop();   /* Disable the clock */
 258:Generated_Source\PSoC5/UART_READER.c ****     #endif /* (UART_READER_INTERNAL_CLOCK_USED) */
 259:Generated_Source\PSoC5/UART_READER.c **** 
 260:Generated_Source\PSoC5/UART_READER.c ****     /* Disable internal interrupt component */
 261:Generated_Source\PSoC5/UART_READER.c ****     #if (UART_READER_RX_ENABLED || UART_READER_HD_ENABLED)
 262:Generated_Source\PSoC5/UART_READER.c ****         UART_READER_RXSTATUS_ACTL_REG  &= (uint8) ~UART_READER_INT_ENABLE;
 156              		.loc 1 262 0
 157 0010 9378     		ldrb	r3, [r2, #2]	@ zero_extendqisi2
 158 0012 03F0EF03 		and	r3, r3, #239
 159 0016 9370     		strb	r3, [r2, #2]
 263:Generated_Source\PSoC5/UART_READER.c **** 
 264:Generated_Source\PSoC5/UART_READER.c ****         #if (UART_READER_RX_INTERRUPT_ENABLED)
 265:Generated_Source\PSoC5/UART_READER.c ****             UART_READER_DisableRxInt();
 266:Generated_Source\PSoC5/UART_READER.c ****         #endif /* (UART_READER_RX_INTERRUPT_ENABLED) */
 267:Generated_Source\PSoC5/UART_READER.c ****     #endif /* (UART_READER_RX_ENABLED || UART_READER_HD_ENABLED) */
 268:Generated_Source\PSoC5/UART_READER.c **** 
 269:Generated_Source\PSoC5/UART_READER.c ****     #if (UART_READER_TX_ENABLED)
 270:Generated_Source\PSoC5/UART_READER.c ****         UART_READER_TXSTATUS_ACTL_REG &= (uint8) ~UART_READER_INT_ENABLE;
 271:Generated_Source\PSoC5/UART_READER.c **** 
 272:Generated_Source\PSoC5/UART_READER.c ****         #if (UART_READER_TX_INTERRUPT_ENABLED)
 273:Generated_Source\PSoC5/UART_READER.c ****             UART_READER_DisableTxInt();
 274:Generated_Source\PSoC5/UART_READER.c ****         #endif /* (UART_READER_TX_INTERRUPT_ENABLED) */
 275:Generated_Source\PSoC5/UART_READER.c ****     #endif /* (UART_READER_TX_ENABLED) */
 276:Generated_Source\PSoC5/UART_READER.c **** 
 277:Generated_Source\PSoC5/UART_READER.c ****     CyExitCriticalSection(enableInterrupts);
 278:Generated_Source\PSoC5/UART_READER.c **** }
 160              		.loc 1 278 0
 161 0018 BDE80840 		pop	{r3, lr}
 162              		.cfi_restore 14
 163              		.cfi_restore 3
 164              		.cfi_def_cfa_offset 0
 277:Generated_Source\PSoC5/UART_READER.c **** }
 165              		.loc 1 277 0
 166 001c FFF7FEBF 		b	CyExitCriticalSection
 167              	.LVL5:
 168              	.L14:
 169              		.align	2
 170              	.L13:
ARM GAS  C:\Users\yqh\AppData\Local\Temp\cc55pVRK.s 			page 9


 171 0020 95650040 		.word	1073767829
 172              		.cfi_endproc
 173              	.LFE3:
 174              		.size	UART_READER_Stop, .-UART_READER_Stop
 175              		.section	.text.UART_READER_ReadControlRegister,"ax",%progbits
 176              		.align	1
 177              		.global	UART_READER_ReadControlRegister
 178              		.thumb
 179              		.thumb_func
 180              		.type	UART_READER_ReadControlRegister, %function
 181              	UART_READER_ReadControlRegister:
 182              	.LFB4:
 279:Generated_Source\PSoC5/UART_READER.c **** 
 280:Generated_Source\PSoC5/UART_READER.c **** 
 281:Generated_Source\PSoC5/UART_READER.c **** /*******************************************************************************
 282:Generated_Source\PSoC5/UART_READER.c **** * Function Name: UART_READER_ReadControlRegister
 283:Generated_Source\PSoC5/UART_READER.c **** ********************************************************************************
 284:Generated_Source\PSoC5/UART_READER.c **** *
 285:Generated_Source\PSoC5/UART_READER.c **** * Summary:
 286:Generated_Source\PSoC5/UART_READER.c **** *  Returns the current value of the control register.
 287:Generated_Source\PSoC5/UART_READER.c **** *
 288:Generated_Source\PSoC5/UART_READER.c **** * Parameters:
 289:Generated_Source\PSoC5/UART_READER.c **** *  None.
 290:Generated_Source\PSoC5/UART_READER.c **** *
 291:Generated_Source\PSoC5/UART_READER.c **** * Return:
 292:Generated_Source\PSoC5/UART_READER.c **** *  Contents of the control register.
 293:Generated_Source\PSoC5/UART_READER.c **** *
 294:Generated_Source\PSoC5/UART_READER.c **** *******************************************************************************/
 295:Generated_Source\PSoC5/UART_READER.c **** uint8 UART_READER_ReadControlRegister(void) 
 296:Generated_Source\PSoC5/UART_READER.c **** {
 183              		.loc 1 296 0
 184              		.cfi_startproc
 185              		@ args = 0, pretend = 0, frame = 0
 186              		@ frame_needed = 0, uses_anonymous_args = 0
 187              		@ link register save eliminated.
 297:Generated_Source\PSoC5/UART_READER.c ****     #if (UART_READER_CONTROL_REG_REMOVED)
 298:Generated_Source\PSoC5/UART_READER.c ****         return(0u);
 299:Generated_Source\PSoC5/UART_READER.c ****     #else
 300:Generated_Source\PSoC5/UART_READER.c ****         return(UART_READER_CONTROL_REG);
 188              		.loc 1 300 0
 189 0000 014B     		ldr	r3, .L16
 190 0002 1878     		ldrb	r0, [r3]	@ zero_extendqisi2
 301:Generated_Source\PSoC5/UART_READER.c ****     #endif /* (UART_READER_CONTROL_REG_REMOVED) */
 302:Generated_Source\PSoC5/UART_READER.c **** }
 191              		.loc 1 302 0
 192 0004 7047     		bx	lr
 193              	.L17:
 194 0006 00BF     		.align	2
 195              	.L16:
 196 0008 76650040 		.word	1073767798
 197              		.cfi_endproc
 198              	.LFE4:
 199              		.size	UART_READER_ReadControlRegister, .-UART_READER_ReadControlRegister
 200              		.section	.text.UART_READER_WriteControlRegister,"ax",%progbits
 201              		.align	1
 202              		.global	UART_READER_WriteControlRegister
 203              		.thumb
ARM GAS  C:\Users\yqh\AppData\Local\Temp\cc55pVRK.s 			page 10


 204              		.thumb_func
 205              		.type	UART_READER_WriteControlRegister, %function
 206              	UART_READER_WriteControlRegister:
 207              	.LFB5:
 303:Generated_Source\PSoC5/UART_READER.c **** 
 304:Generated_Source\PSoC5/UART_READER.c **** 
 305:Generated_Source\PSoC5/UART_READER.c **** /*******************************************************************************
 306:Generated_Source\PSoC5/UART_READER.c **** * Function Name: UART_READER_WriteControlRegister
 307:Generated_Source\PSoC5/UART_READER.c **** ********************************************************************************
 308:Generated_Source\PSoC5/UART_READER.c **** *
 309:Generated_Source\PSoC5/UART_READER.c **** * Summary:
 310:Generated_Source\PSoC5/UART_READER.c **** *  Writes an 8-bit value into the control register
 311:Generated_Source\PSoC5/UART_READER.c **** *
 312:Generated_Source\PSoC5/UART_READER.c **** * Parameters:
 313:Generated_Source\PSoC5/UART_READER.c **** *  control:  control register value
 314:Generated_Source\PSoC5/UART_READER.c **** *
 315:Generated_Source\PSoC5/UART_READER.c **** * Return:
 316:Generated_Source\PSoC5/UART_READER.c **** *  None.
 317:Generated_Source\PSoC5/UART_READER.c **** *
 318:Generated_Source\PSoC5/UART_READER.c **** *******************************************************************************/
 319:Generated_Source\PSoC5/UART_READER.c **** void  UART_READER_WriteControlRegister(uint8 control) 
 320:Generated_Source\PSoC5/UART_READER.c **** {
 208              		.loc 1 320 0
 209              		.cfi_startproc
 210              		@ args = 0, pretend = 0, frame = 0
 211              		@ frame_needed = 0, uses_anonymous_args = 0
 212              		@ link register save eliminated.
 213              	.LVL6:
 321:Generated_Source\PSoC5/UART_READER.c ****     #if (UART_READER_CONTROL_REG_REMOVED)
 322:Generated_Source\PSoC5/UART_READER.c ****         if(0u != control)
 323:Generated_Source\PSoC5/UART_READER.c ****         {
 324:Generated_Source\PSoC5/UART_READER.c ****             /* Suppress compiler warning */
 325:Generated_Source\PSoC5/UART_READER.c ****         }
 326:Generated_Source\PSoC5/UART_READER.c ****     #else
 327:Generated_Source\PSoC5/UART_READER.c ****        UART_READER_CONTROL_REG = control;
 214              		.loc 1 327 0
 215 0000 014B     		ldr	r3, .L19
 216 0002 1870     		strb	r0, [r3]
 217 0004 7047     		bx	lr
 218              	.L20:
 219 0006 00BF     		.align	2
 220              	.L19:
 221 0008 76650040 		.word	1073767798
 222              		.cfi_endproc
 223              	.LFE5:
 224              		.size	UART_READER_WriteControlRegister, .-UART_READER_WriteControlRegister
 225              		.section	.text.UART_READER_SetRxInterruptMode,"ax",%progbits
 226              		.align	1
 227              		.global	UART_READER_SetRxInterruptMode
 228              		.thumb
 229              		.thumb_func
 230              		.type	UART_READER_SetRxInterruptMode, %function
 231              	UART_READER_SetRxInterruptMode:
 232              	.LFB6:
 328:Generated_Source\PSoC5/UART_READER.c ****     #endif /* (UART_READER_CONTROL_REG_REMOVED) */
 329:Generated_Source\PSoC5/UART_READER.c **** }
 330:Generated_Source\PSoC5/UART_READER.c **** 
ARM GAS  C:\Users\yqh\AppData\Local\Temp\cc55pVRK.s 			page 11


 331:Generated_Source\PSoC5/UART_READER.c **** 
 332:Generated_Source\PSoC5/UART_READER.c **** #if(UART_READER_RX_ENABLED || UART_READER_HD_ENABLED)
 333:Generated_Source\PSoC5/UART_READER.c ****     /*******************************************************************************
 334:Generated_Source\PSoC5/UART_READER.c ****     * Function Name: UART_READER_SetRxInterruptMode
 335:Generated_Source\PSoC5/UART_READER.c ****     ********************************************************************************
 336:Generated_Source\PSoC5/UART_READER.c ****     *
 337:Generated_Source\PSoC5/UART_READER.c ****     * Summary:
 338:Generated_Source\PSoC5/UART_READER.c ****     *  Configures the RX interrupt sources enabled.
 339:Generated_Source\PSoC5/UART_READER.c ****     *
 340:Generated_Source\PSoC5/UART_READER.c ****     * Parameters:
 341:Generated_Source\PSoC5/UART_READER.c ****     *  IntSrc:  Bit field containing the RX interrupts to enable. Based on the 
 342:Generated_Source\PSoC5/UART_READER.c ****     *  bit-field arrangement of the status register. This value must be a 
 343:Generated_Source\PSoC5/UART_READER.c ****     *  combination of status register bit-masks shown below:
 344:Generated_Source\PSoC5/UART_READER.c ****     *      UART_READER_RX_STS_FIFO_NOTEMPTY    Interrupt on byte received.
 345:Generated_Source\PSoC5/UART_READER.c ****     *      UART_READER_RX_STS_PAR_ERROR        Interrupt on parity error.
 346:Generated_Source\PSoC5/UART_READER.c ****     *      UART_READER_RX_STS_STOP_ERROR       Interrupt on stop error.
 347:Generated_Source\PSoC5/UART_READER.c ****     *      UART_READER_RX_STS_BREAK            Interrupt on break.
 348:Generated_Source\PSoC5/UART_READER.c ****     *      UART_READER_RX_STS_OVERRUN          Interrupt on overrun error.
 349:Generated_Source\PSoC5/UART_READER.c ****     *      UART_READER_RX_STS_ADDR_MATCH       Interrupt on address match.
 350:Generated_Source\PSoC5/UART_READER.c ****     *      UART_READER_RX_STS_MRKSPC           Interrupt on address detect.
 351:Generated_Source\PSoC5/UART_READER.c ****     *
 352:Generated_Source\PSoC5/UART_READER.c ****     * Return:
 353:Generated_Source\PSoC5/UART_READER.c ****     *  None.
 354:Generated_Source\PSoC5/UART_READER.c ****     *
 355:Generated_Source\PSoC5/UART_READER.c ****     * Theory:
 356:Generated_Source\PSoC5/UART_READER.c ****     *  Enables the output of specific status bits to the interrupt controller
 357:Generated_Source\PSoC5/UART_READER.c ****     *
 358:Generated_Source\PSoC5/UART_READER.c ****     *******************************************************************************/
 359:Generated_Source\PSoC5/UART_READER.c ****     void UART_READER_SetRxInterruptMode(uint8 intSrc) 
 360:Generated_Source\PSoC5/UART_READER.c ****     {
 233              		.loc 1 360 0
 234              		.cfi_startproc
 235              		@ args = 0, pretend = 0, frame = 0
 236              		@ frame_needed = 0, uses_anonymous_args = 0
 237              		@ link register save eliminated.
 238              	.LVL7:
 361:Generated_Source\PSoC5/UART_READER.c ****         UART_READER_RXSTATUS_MASK_REG  = intSrc;
 239              		.loc 1 361 0
 240 0000 014B     		ldr	r3, .L22
 241 0002 1870     		strb	r0, [r3]
 242 0004 7047     		bx	lr
 243              	.L23:
 244 0006 00BF     		.align	2
 245              	.L22:
 246 0008 87650040 		.word	1073767815
 247              		.cfi_endproc
 248              	.LFE6:
 249              		.size	UART_READER_SetRxInterruptMode, .-UART_READER_SetRxInterruptMode
 250              		.section	.text.UART_READER_ReadRxData,"ax",%progbits
 251              		.align	1
 252              		.global	UART_READER_ReadRxData
 253              		.thumb
 254              		.thumb_func
 255              		.type	UART_READER_ReadRxData, %function
 256              	UART_READER_ReadRxData:
 257              	.LFB7:
 362:Generated_Source\PSoC5/UART_READER.c ****     }
ARM GAS  C:\Users\yqh\AppData\Local\Temp\cc55pVRK.s 			page 12


 363:Generated_Source\PSoC5/UART_READER.c **** 
 364:Generated_Source\PSoC5/UART_READER.c **** 
 365:Generated_Source\PSoC5/UART_READER.c ****     /*******************************************************************************
 366:Generated_Source\PSoC5/UART_READER.c ****     * Function Name: UART_READER_ReadRxData
 367:Generated_Source\PSoC5/UART_READER.c ****     ********************************************************************************
 368:Generated_Source\PSoC5/UART_READER.c ****     *
 369:Generated_Source\PSoC5/UART_READER.c ****     * Summary:
 370:Generated_Source\PSoC5/UART_READER.c ****     *  Returns the next byte of received data. This function returns data without
 371:Generated_Source\PSoC5/UART_READER.c ****     *  checking the status. You must check the status separately.
 372:Generated_Source\PSoC5/UART_READER.c ****     *
 373:Generated_Source\PSoC5/UART_READER.c ****     * Parameters:
 374:Generated_Source\PSoC5/UART_READER.c ****     *  None.
 375:Generated_Source\PSoC5/UART_READER.c ****     *
 376:Generated_Source\PSoC5/UART_READER.c ****     * Return:
 377:Generated_Source\PSoC5/UART_READER.c ****     *  Received data from RX register
 378:Generated_Source\PSoC5/UART_READER.c ****     *
 379:Generated_Source\PSoC5/UART_READER.c ****     * Global Variables:
 380:Generated_Source\PSoC5/UART_READER.c ****     *  UART_READER_rxBuffer - RAM buffer pointer for save received data.
 381:Generated_Source\PSoC5/UART_READER.c ****     *  UART_READER_rxBufferWrite - cyclic index for write to rxBuffer,
 382:Generated_Source\PSoC5/UART_READER.c ****     *     checked to identify new data.
 383:Generated_Source\PSoC5/UART_READER.c ****     *  UART_READER_rxBufferRead - cyclic index for read from rxBuffer,
 384:Generated_Source\PSoC5/UART_READER.c ****     *     incremented after each byte has been read from buffer.
 385:Generated_Source\PSoC5/UART_READER.c ****     *  UART_READER_rxBufferLoopDetect - cleared if loop condition was detected
 386:Generated_Source\PSoC5/UART_READER.c ****     *     in RX ISR.
 387:Generated_Source\PSoC5/UART_READER.c ****     *
 388:Generated_Source\PSoC5/UART_READER.c ****     * Reentrant:
 389:Generated_Source\PSoC5/UART_READER.c ****     *  No.
 390:Generated_Source\PSoC5/UART_READER.c ****     *
 391:Generated_Source\PSoC5/UART_READER.c ****     *******************************************************************************/
 392:Generated_Source\PSoC5/UART_READER.c ****     uint8 UART_READER_ReadRxData(void) 
 393:Generated_Source\PSoC5/UART_READER.c ****     {
 258              		.loc 1 393 0
 259              		.cfi_startproc
 260              		@ args = 0, pretend = 0, frame = 0
 261              		@ frame_needed = 0, uses_anonymous_args = 0
 262              		@ link register save eliminated.
 394:Generated_Source\PSoC5/UART_READER.c ****         uint8 rxData;
 395:Generated_Source\PSoC5/UART_READER.c **** 
 396:Generated_Source\PSoC5/UART_READER.c ****     #if (UART_READER_RX_INTERRUPT_ENABLED)
 397:Generated_Source\PSoC5/UART_READER.c **** 
 398:Generated_Source\PSoC5/UART_READER.c ****         uint8 locRxBufferRead;
 399:Generated_Source\PSoC5/UART_READER.c ****         uint8 locRxBufferWrite;
 400:Generated_Source\PSoC5/UART_READER.c **** 
 401:Generated_Source\PSoC5/UART_READER.c ****         /* Protect variables that could change on interrupt */
 402:Generated_Source\PSoC5/UART_READER.c ****         UART_READER_DisableRxInt();
 403:Generated_Source\PSoC5/UART_READER.c **** 
 404:Generated_Source\PSoC5/UART_READER.c ****         locRxBufferRead  = UART_READER_rxBufferRead;
 405:Generated_Source\PSoC5/UART_READER.c ****         locRxBufferWrite = UART_READER_rxBufferWrite;
 406:Generated_Source\PSoC5/UART_READER.c **** 
 407:Generated_Source\PSoC5/UART_READER.c ****         if( (UART_READER_rxBufferLoopDetect != 0u) || (locRxBufferRead != locRxBufferWrite) )
 408:Generated_Source\PSoC5/UART_READER.c ****         {
 409:Generated_Source\PSoC5/UART_READER.c ****             rxData = UART_READER_rxBuffer[locRxBufferRead];
 410:Generated_Source\PSoC5/UART_READER.c ****             locRxBufferRead++;
 411:Generated_Source\PSoC5/UART_READER.c **** 
 412:Generated_Source\PSoC5/UART_READER.c ****             if(locRxBufferRead >= UART_READER_RX_BUFFER_SIZE)
 413:Generated_Source\PSoC5/UART_READER.c ****             {
 414:Generated_Source\PSoC5/UART_READER.c ****                 locRxBufferRead = 0u;
ARM GAS  C:\Users\yqh\AppData\Local\Temp\cc55pVRK.s 			page 13


 415:Generated_Source\PSoC5/UART_READER.c ****             }
 416:Generated_Source\PSoC5/UART_READER.c ****             /* Update the real pointer */
 417:Generated_Source\PSoC5/UART_READER.c ****             UART_READER_rxBufferRead = locRxBufferRead;
 418:Generated_Source\PSoC5/UART_READER.c **** 
 419:Generated_Source\PSoC5/UART_READER.c ****             if(UART_READER_rxBufferLoopDetect != 0u)
 420:Generated_Source\PSoC5/UART_READER.c ****             {
 421:Generated_Source\PSoC5/UART_READER.c ****                 UART_READER_rxBufferLoopDetect = 0u;
 422:Generated_Source\PSoC5/UART_READER.c ****                 #if ((UART_READER_RX_INTERRUPT_ENABLED) && (UART_READER_FLOW_CONTROL != 0u))
 423:Generated_Source\PSoC5/UART_READER.c ****                     /* When Hardware Flow Control selected - return RX mask */
 424:Generated_Source\PSoC5/UART_READER.c ****                     #if( UART_READER_HD_ENABLED )
 425:Generated_Source\PSoC5/UART_READER.c ****                         if((UART_READER_CONTROL_REG & UART_READER_CTRL_HD_SEND) == 0u)
 426:Generated_Source\PSoC5/UART_READER.c ****                         {   /* In Half duplex mode return RX mask only in RX
 427:Generated_Source\PSoC5/UART_READER.c ****                             *  configuration set, otherwise
 428:Generated_Source\PSoC5/UART_READER.c ****                             *  mask will be returned in LoadRxConfig() API.
 429:Generated_Source\PSoC5/UART_READER.c ****                             */
 430:Generated_Source\PSoC5/UART_READER.c ****                             UART_READER_RXSTATUS_MASK_REG  |= UART_READER_RX_STS_FIFO_NOTEMPTY;
 431:Generated_Source\PSoC5/UART_READER.c ****                         }
 432:Generated_Source\PSoC5/UART_READER.c ****                     #else
 433:Generated_Source\PSoC5/UART_READER.c ****                         UART_READER_RXSTATUS_MASK_REG  |= UART_READER_RX_STS_FIFO_NOTEMPTY;
 434:Generated_Source\PSoC5/UART_READER.c ****                     #endif /* end UART_READER_HD_ENABLED */
 435:Generated_Source\PSoC5/UART_READER.c ****                 #endif /* ((UART_READER_RX_INTERRUPT_ENABLED) && (UART_READER_FLOW_CONTROL != 0u)) 
 436:Generated_Source\PSoC5/UART_READER.c ****             }
 437:Generated_Source\PSoC5/UART_READER.c ****         }
 438:Generated_Source\PSoC5/UART_READER.c ****         else
 439:Generated_Source\PSoC5/UART_READER.c ****         {   /* Needs to check status for RX_STS_FIFO_NOTEMPTY bit */
 440:Generated_Source\PSoC5/UART_READER.c ****             rxData = UART_READER_RXDATA_REG;
 441:Generated_Source\PSoC5/UART_READER.c ****         }
 442:Generated_Source\PSoC5/UART_READER.c **** 
 443:Generated_Source\PSoC5/UART_READER.c ****         UART_READER_EnableRxInt();
 444:Generated_Source\PSoC5/UART_READER.c **** 
 445:Generated_Source\PSoC5/UART_READER.c ****     #else
 446:Generated_Source\PSoC5/UART_READER.c **** 
 447:Generated_Source\PSoC5/UART_READER.c ****         /* Needs to check status for RX_STS_FIFO_NOTEMPTY bit */
 448:Generated_Source\PSoC5/UART_READER.c ****         rxData = UART_READER_RXDATA_REG;
 263              		.loc 1 448 0
 264 0000 014B     		ldr	r3, .L25
 265 0002 1878     		ldrb	r0, [r3]	@ zero_extendqisi2
 266              	.LVL8:
 449:Generated_Source\PSoC5/UART_READER.c **** 
 450:Generated_Source\PSoC5/UART_READER.c ****     #endif /* (UART_READER_RX_INTERRUPT_ENABLED) */
 451:Generated_Source\PSoC5/UART_READER.c **** 
 452:Generated_Source\PSoC5/UART_READER.c ****         return(rxData);
 453:Generated_Source\PSoC5/UART_READER.c ****     }
 267              		.loc 1 453 0
 268 0004 7047     		bx	lr
 269              	.L26:
 270 0006 00BF     		.align	2
 271              	.L25:
 272 0008 47650040 		.word	1073767751
 273              		.cfi_endproc
 274              	.LFE7:
 275              		.size	UART_READER_ReadRxData, .-UART_READER_ReadRxData
 276              		.section	.text.UART_READER_ReadRxStatus,"ax",%progbits
 277              		.align	1
 278              		.global	UART_READER_ReadRxStatus
 279              		.thumb
 280              		.thumb_func
ARM GAS  C:\Users\yqh\AppData\Local\Temp\cc55pVRK.s 			page 14


 281              		.type	UART_READER_ReadRxStatus, %function
 282              	UART_READER_ReadRxStatus:
 283              	.LFB8:
 454:Generated_Source\PSoC5/UART_READER.c **** 
 455:Generated_Source\PSoC5/UART_READER.c **** 
 456:Generated_Source\PSoC5/UART_READER.c ****     /*******************************************************************************
 457:Generated_Source\PSoC5/UART_READER.c ****     * Function Name: UART_READER_ReadRxStatus
 458:Generated_Source\PSoC5/UART_READER.c ****     ********************************************************************************
 459:Generated_Source\PSoC5/UART_READER.c ****     *
 460:Generated_Source\PSoC5/UART_READER.c ****     * Summary:
 461:Generated_Source\PSoC5/UART_READER.c ****     *  Returns the current state of the receiver status register and the software
 462:Generated_Source\PSoC5/UART_READER.c ****     *  buffer overflow status.
 463:Generated_Source\PSoC5/UART_READER.c ****     *
 464:Generated_Source\PSoC5/UART_READER.c ****     * Parameters:
 465:Generated_Source\PSoC5/UART_READER.c ****     *  None.
 466:Generated_Source\PSoC5/UART_READER.c ****     *
 467:Generated_Source\PSoC5/UART_READER.c ****     * Return:
 468:Generated_Source\PSoC5/UART_READER.c ****     *  Current state of the status register.
 469:Generated_Source\PSoC5/UART_READER.c ****     *
 470:Generated_Source\PSoC5/UART_READER.c ****     * Side Effect:
 471:Generated_Source\PSoC5/UART_READER.c ****     *  All status register bits are clear-on-read except
 472:Generated_Source\PSoC5/UART_READER.c ****     *  UART_READER_RX_STS_FIFO_NOTEMPTY.
 473:Generated_Source\PSoC5/UART_READER.c ****     *  UART_READER_RX_STS_FIFO_NOTEMPTY clears immediately after RX data
 474:Generated_Source\PSoC5/UART_READER.c ****     *  register read.
 475:Generated_Source\PSoC5/UART_READER.c ****     *
 476:Generated_Source\PSoC5/UART_READER.c ****     * Global Variables:
 477:Generated_Source\PSoC5/UART_READER.c ****     *  UART_READER_rxBufferOverflow - used to indicate overload condition.
 478:Generated_Source\PSoC5/UART_READER.c ****     *   It set to one in RX interrupt when there isn't free space in
 479:Generated_Source\PSoC5/UART_READER.c ****     *   UART_READER_rxBufferRead to write new data. This condition returned
 480:Generated_Source\PSoC5/UART_READER.c ****     *   and cleared to zero by this API as an
 481:Generated_Source\PSoC5/UART_READER.c ****     *   UART_READER_RX_STS_SOFT_BUFF_OVER bit along with RX Status register
 482:Generated_Source\PSoC5/UART_READER.c ****     *   bits.
 483:Generated_Source\PSoC5/UART_READER.c ****     *
 484:Generated_Source\PSoC5/UART_READER.c ****     *******************************************************************************/
 485:Generated_Source\PSoC5/UART_READER.c ****     uint8 UART_READER_ReadRxStatus(void) 
 486:Generated_Source\PSoC5/UART_READER.c ****     {
 284              		.loc 1 486 0
 285              		.cfi_startproc
 286              		@ args = 0, pretend = 0, frame = 0
 287              		@ frame_needed = 0, uses_anonymous_args = 0
 288              		@ link register save eliminated.
 487:Generated_Source\PSoC5/UART_READER.c ****         uint8 status;
 488:Generated_Source\PSoC5/UART_READER.c **** 
 489:Generated_Source\PSoC5/UART_READER.c ****         status = UART_READER_RXSTATUS_REG & UART_READER_RX_HW_MASK;
 289              		.loc 1 489 0
 290 0000 024B     		ldr	r3, .L28
 291 0002 1878     		ldrb	r0, [r3]	@ zero_extendqisi2
 292              	.LVL9:
 490:Generated_Source\PSoC5/UART_READER.c **** 
 491:Generated_Source\PSoC5/UART_READER.c ****     #if (UART_READER_RX_INTERRUPT_ENABLED)
 492:Generated_Source\PSoC5/UART_READER.c ****         if(UART_READER_rxBufferOverflow != 0u)
 493:Generated_Source\PSoC5/UART_READER.c ****         {
 494:Generated_Source\PSoC5/UART_READER.c ****             status |= UART_READER_RX_STS_SOFT_BUFF_OVER;
 495:Generated_Source\PSoC5/UART_READER.c ****             UART_READER_rxBufferOverflow = 0u;
 496:Generated_Source\PSoC5/UART_READER.c ****         }
 497:Generated_Source\PSoC5/UART_READER.c ****     #endif /* (UART_READER_RX_INTERRUPT_ENABLED) */
 498:Generated_Source\PSoC5/UART_READER.c **** 
ARM GAS  C:\Users\yqh\AppData\Local\Temp\cc55pVRK.s 			page 15


 499:Generated_Source\PSoC5/UART_READER.c ****         return(status);
 500:Generated_Source\PSoC5/UART_READER.c ****     }
 293              		.loc 1 500 0
 294 0004 00F07F00 		and	r0, r0, #127
 295              	.LVL10:
 296 0008 7047     		bx	lr
 297              	.L29:
 298 000a 00BF     		.align	2
 299              	.L28:
 300 000c 67650040 		.word	1073767783
 301              		.cfi_endproc
 302              	.LFE8:
 303              		.size	UART_READER_ReadRxStatus, .-UART_READER_ReadRxStatus
 304              		.section	.text.UART_READER_GetChar,"ax",%progbits
 305              		.align	1
 306              		.global	UART_READER_GetChar
 307              		.thumb
 308              		.thumb_func
 309              		.type	UART_READER_GetChar, %function
 310              	UART_READER_GetChar:
 311              	.LFB9:
 501:Generated_Source\PSoC5/UART_READER.c **** 
 502:Generated_Source\PSoC5/UART_READER.c **** 
 503:Generated_Source\PSoC5/UART_READER.c ****     /*******************************************************************************
 504:Generated_Source\PSoC5/UART_READER.c ****     * Function Name: UART_READER_GetChar
 505:Generated_Source\PSoC5/UART_READER.c ****     ********************************************************************************
 506:Generated_Source\PSoC5/UART_READER.c ****     *
 507:Generated_Source\PSoC5/UART_READER.c ****     * Summary:
 508:Generated_Source\PSoC5/UART_READER.c ****     *  Returns the last received byte of data. UART_READER_GetChar() is
 509:Generated_Source\PSoC5/UART_READER.c ****     *  designed for ASCII characters and returns a uint8 where 1 to 255 are values
 510:Generated_Source\PSoC5/UART_READER.c ****     *  for valid characters and 0 indicates an error occurred or no data is present.
 511:Generated_Source\PSoC5/UART_READER.c ****     *
 512:Generated_Source\PSoC5/UART_READER.c ****     * Parameters:
 513:Generated_Source\PSoC5/UART_READER.c ****     *  None.
 514:Generated_Source\PSoC5/UART_READER.c ****     *
 515:Generated_Source\PSoC5/UART_READER.c ****     * Return:
 516:Generated_Source\PSoC5/UART_READER.c ****     *  Character read from UART RX buffer. ASCII characters from 1 to 255 are valid.
 517:Generated_Source\PSoC5/UART_READER.c ****     *  A returned zero signifies an error condition or no data available.
 518:Generated_Source\PSoC5/UART_READER.c ****     *
 519:Generated_Source\PSoC5/UART_READER.c ****     * Global Variables:
 520:Generated_Source\PSoC5/UART_READER.c ****     *  UART_READER_rxBuffer - RAM buffer pointer for save received data.
 521:Generated_Source\PSoC5/UART_READER.c ****     *  UART_READER_rxBufferWrite - cyclic index for write to rxBuffer,
 522:Generated_Source\PSoC5/UART_READER.c ****     *     checked to identify new data.
 523:Generated_Source\PSoC5/UART_READER.c ****     *  UART_READER_rxBufferRead - cyclic index for read from rxBuffer,
 524:Generated_Source\PSoC5/UART_READER.c ****     *     incremented after each byte has been read from buffer.
 525:Generated_Source\PSoC5/UART_READER.c ****     *  UART_READER_rxBufferLoopDetect - cleared if loop condition was detected
 526:Generated_Source\PSoC5/UART_READER.c ****     *     in RX ISR.
 527:Generated_Source\PSoC5/UART_READER.c ****     *
 528:Generated_Source\PSoC5/UART_READER.c ****     * Reentrant:
 529:Generated_Source\PSoC5/UART_READER.c ****     *  No.
 530:Generated_Source\PSoC5/UART_READER.c ****     *
 531:Generated_Source\PSoC5/UART_READER.c ****     *******************************************************************************/
 532:Generated_Source\PSoC5/UART_READER.c ****     uint8 UART_READER_GetChar(void) 
 533:Generated_Source\PSoC5/UART_READER.c ****     {
 312              		.loc 1 533 0
 313              		.cfi_startproc
 314              		@ args = 0, pretend = 0, frame = 0
ARM GAS  C:\Users\yqh\AppData\Local\Temp\cc55pVRK.s 			page 16


 315              		@ frame_needed = 0, uses_anonymous_args = 0
 316              		@ link register save eliminated.
 317              	.LVL11:
 534:Generated_Source\PSoC5/UART_READER.c ****         uint8 rxData = 0u;
 535:Generated_Source\PSoC5/UART_READER.c ****         uint8 rxStatus;
 536:Generated_Source\PSoC5/UART_READER.c **** 
 537:Generated_Source\PSoC5/UART_READER.c ****     #if (UART_READER_RX_INTERRUPT_ENABLED)
 538:Generated_Source\PSoC5/UART_READER.c ****         uint8 locRxBufferRead;
 539:Generated_Source\PSoC5/UART_READER.c ****         uint8 locRxBufferWrite;
 540:Generated_Source\PSoC5/UART_READER.c **** 
 541:Generated_Source\PSoC5/UART_READER.c ****         /* Protect variables that could change on interrupt */
 542:Generated_Source\PSoC5/UART_READER.c ****         UART_READER_DisableRxInt();
 543:Generated_Source\PSoC5/UART_READER.c **** 
 544:Generated_Source\PSoC5/UART_READER.c ****         locRxBufferRead  = UART_READER_rxBufferRead;
 545:Generated_Source\PSoC5/UART_READER.c ****         locRxBufferWrite = UART_READER_rxBufferWrite;
 546:Generated_Source\PSoC5/UART_READER.c **** 
 547:Generated_Source\PSoC5/UART_READER.c ****         if( (UART_READER_rxBufferLoopDetect != 0u) || (locRxBufferRead != locRxBufferWrite) )
 548:Generated_Source\PSoC5/UART_READER.c ****         {
 549:Generated_Source\PSoC5/UART_READER.c ****             rxData = UART_READER_rxBuffer[locRxBufferRead];
 550:Generated_Source\PSoC5/UART_READER.c ****             locRxBufferRead++;
 551:Generated_Source\PSoC5/UART_READER.c ****             if(locRxBufferRead >= UART_READER_RX_BUFFER_SIZE)
 552:Generated_Source\PSoC5/UART_READER.c ****             {
 553:Generated_Source\PSoC5/UART_READER.c ****                 locRxBufferRead = 0u;
 554:Generated_Source\PSoC5/UART_READER.c ****             }
 555:Generated_Source\PSoC5/UART_READER.c ****             /* Update the real pointer */
 556:Generated_Source\PSoC5/UART_READER.c ****             UART_READER_rxBufferRead = locRxBufferRead;
 557:Generated_Source\PSoC5/UART_READER.c **** 
 558:Generated_Source\PSoC5/UART_READER.c ****             if(UART_READER_rxBufferLoopDetect != 0u)
 559:Generated_Source\PSoC5/UART_READER.c ****             {
 560:Generated_Source\PSoC5/UART_READER.c ****                 UART_READER_rxBufferLoopDetect = 0u;
 561:Generated_Source\PSoC5/UART_READER.c ****                 #if( (UART_READER_RX_INTERRUPT_ENABLED) && (UART_READER_FLOW_CONTROL != 0u) )
 562:Generated_Source\PSoC5/UART_READER.c ****                     /* When Hardware Flow Control selected - return RX mask */
 563:Generated_Source\PSoC5/UART_READER.c ****                     #if( UART_READER_HD_ENABLED )
 564:Generated_Source\PSoC5/UART_READER.c ****                         if((UART_READER_CONTROL_REG & UART_READER_CTRL_HD_SEND) == 0u)
 565:Generated_Source\PSoC5/UART_READER.c ****                         {   /* In Half duplex mode return RX mask only if
 566:Generated_Source\PSoC5/UART_READER.c ****                             *  RX configuration set, otherwise
 567:Generated_Source\PSoC5/UART_READER.c ****                             *  mask will be returned in LoadRxConfig() API.
 568:Generated_Source\PSoC5/UART_READER.c ****                             */
 569:Generated_Source\PSoC5/UART_READER.c ****                             UART_READER_RXSTATUS_MASK_REG |= UART_READER_RX_STS_FIFO_NOTEMPTY;
 570:Generated_Source\PSoC5/UART_READER.c ****                         }
 571:Generated_Source\PSoC5/UART_READER.c ****                     #else
 572:Generated_Source\PSoC5/UART_READER.c ****                         UART_READER_RXSTATUS_MASK_REG |= UART_READER_RX_STS_FIFO_NOTEMPTY;
 573:Generated_Source\PSoC5/UART_READER.c ****                     #endif /* end UART_READER_HD_ENABLED */
 574:Generated_Source\PSoC5/UART_READER.c ****                 #endif /* UART_READER_RX_INTERRUPT_ENABLED and Hardware flow control*/
 575:Generated_Source\PSoC5/UART_READER.c ****             }
 576:Generated_Source\PSoC5/UART_READER.c **** 
 577:Generated_Source\PSoC5/UART_READER.c ****         }
 578:Generated_Source\PSoC5/UART_READER.c ****         else
 579:Generated_Source\PSoC5/UART_READER.c ****         {   rxStatus = UART_READER_RXSTATUS_REG;
 580:Generated_Source\PSoC5/UART_READER.c ****             if((rxStatus & UART_READER_RX_STS_FIFO_NOTEMPTY) != 0u)
 581:Generated_Source\PSoC5/UART_READER.c ****             {   /* Read received data from FIFO */
 582:Generated_Source\PSoC5/UART_READER.c ****                 rxData = UART_READER_RXDATA_REG;
 583:Generated_Source\PSoC5/UART_READER.c ****                 /*Check status on error*/
 584:Generated_Source\PSoC5/UART_READER.c ****                 if((rxStatus & (UART_READER_RX_STS_BREAK | UART_READER_RX_STS_PAR_ERROR |
 585:Generated_Source\PSoC5/UART_READER.c ****                                 UART_READER_RX_STS_STOP_ERROR | UART_READER_RX_STS_OVERRUN)) != 0u)
 586:Generated_Source\PSoC5/UART_READER.c ****                 {
 587:Generated_Source\PSoC5/UART_READER.c ****                     rxData = 0u;
ARM GAS  C:\Users\yqh\AppData\Local\Temp\cc55pVRK.s 			page 17


 588:Generated_Source\PSoC5/UART_READER.c ****                 }
 589:Generated_Source\PSoC5/UART_READER.c ****             }
 590:Generated_Source\PSoC5/UART_READER.c ****         }
 591:Generated_Source\PSoC5/UART_READER.c **** 
 592:Generated_Source\PSoC5/UART_READER.c ****         UART_READER_EnableRxInt();
 593:Generated_Source\PSoC5/UART_READER.c **** 
 594:Generated_Source\PSoC5/UART_READER.c ****     #else
 595:Generated_Source\PSoC5/UART_READER.c **** 
 596:Generated_Source\PSoC5/UART_READER.c ****         rxStatus =UART_READER_RXSTATUS_REG;
 318              		.loc 1 596 0
 319 0000 074B     		ldr	r3, .L35
 320 0002 1B78     		ldrb	r3, [r3]	@ zero_extendqisi2
 321 0004 DBB2     		uxtb	r3, r3
 322              	.LVL12:
 597:Generated_Source\PSoC5/UART_READER.c ****         if((rxStatus & UART_READER_RX_STS_FIFO_NOTEMPTY) != 0u)
 323              		.loc 1 597 0
 324 0006 03F02002 		and	r2, r3, #32
 325 000a 02F0FF00 		and	r0, r2, #255
 326 000e 2AB1     		cbz	r2, .L31
 598:Generated_Source\PSoC5/UART_READER.c ****         {
 599:Generated_Source\PSoC5/UART_READER.c ****             /* Read received data from FIFO */
 600:Generated_Source\PSoC5/UART_READER.c ****             rxData = UART_READER_RXDATA_REG;
 327              		.loc 1 600 0
 328 0010 044A     		ldr	r2, .L35+4
 601:Generated_Source\PSoC5/UART_READER.c **** 
 602:Generated_Source\PSoC5/UART_READER.c ****             /*Check status on error*/
 603:Generated_Source\PSoC5/UART_READER.c ****             if((rxStatus & (UART_READER_RX_STS_BREAK | UART_READER_RX_STS_PAR_ERROR |
 329              		.loc 1 603 0
 330 0012 13F01E0F 		tst	r3, #30
 600:Generated_Source\PSoC5/UART_READER.c **** 
 331              		.loc 1 600 0
 332 0016 1078     		ldrb	r0, [r2]	@ zero_extendqisi2
 333              	.LVL13:
 604:Generated_Source\PSoC5/UART_READER.c ****                             UART_READER_RX_STS_STOP_ERROR | UART_READER_RX_STS_OVERRUN)) != 0u)
 605:Generated_Source\PSoC5/UART_READER.c ****             {
 606:Generated_Source\PSoC5/UART_READER.c ****                 rxData = 0u;
 334              		.loc 1 606 0
 335 0018 18BF     		it	ne
 336 001a 0020     		movne	r0, #0
 337              	.LVL14:
 338              	.L31:
 607:Generated_Source\PSoC5/UART_READER.c ****             }
 608:Generated_Source\PSoC5/UART_READER.c ****         }
 609:Generated_Source\PSoC5/UART_READER.c ****     #endif /* (UART_READER_RX_INTERRUPT_ENABLED) */
 610:Generated_Source\PSoC5/UART_READER.c **** 
 611:Generated_Source\PSoC5/UART_READER.c ****         return(rxData);
 612:Generated_Source\PSoC5/UART_READER.c ****     }
 339              		.loc 1 612 0
 340 001c 7047     		bx	lr
 341              	.L36:
 342 001e 00BF     		.align	2
 343              	.L35:
 344 0020 67650040 		.word	1073767783
 345 0024 47650040 		.word	1073767751
 346              		.cfi_endproc
 347              	.LFE9:
 348              		.size	UART_READER_GetChar, .-UART_READER_GetChar
ARM GAS  C:\Users\yqh\AppData\Local\Temp\cc55pVRK.s 			page 18


 349              		.section	.text.UART_READER_GetByte,"ax",%progbits
 350              		.align	1
 351              		.global	UART_READER_GetByte
 352              		.thumb
 353              		.thumb_func
 354              		.type	UART_READER_GetByte, %function
 355              	UART_READER_GetByte:
 356              	.LFB10:
 613:Generated_Source\PSoC5/UART_READER.c **** 
 614:Generated_Source\PSoC5/UART_READER.c **** 
 615:Generated_Source\PSoC5/UART_READER.c ****     /*******************************************************************************
 616:Generated_Source\PSoC5/UART_READER.c ****     * Function Name: UART_READER_GetByte
 617:Generated_Source\PSoC5/UART_READER.c ****     ********************************************************************************
 618:Generated_Source\PSoC5/UART_READER.c ****     *
 619:Generated_Source\PSoC5/UART_READER.c ****     * Summary:
 620:Generated_Source\PSoC5/UART_READER.c ****     *  Reads UART RX buffer immediately, returns received character and error
 621:Generated_Source\PSoC5/UART_READER.c ****     *  condition.
 622:Generated_Source\PSoC5/UART_READER.c ****     *
 623:Generated_Source\PSoC5/UART_READER.c ****     * Parameters:
 624:Generated_Source\PSoC5/UART_READER.c ****     *  None.
 625:Generated_Source\PSoC5/UART_READER.c ****     *
 626:Generated_Source\PSoC5/UART_READER.c ****     * Return:
 627:Generated_Source\PSoC5/UART_READER.c ****     *  MSB contains status and LSB contains UART RX data. If the MSB is nonzero,
 628:Generated_Source\PSoC5/UART_READER.c ****     *  an error has occurred.
 629:Generated_Source\PSoC5/UART_READER.c ****     *
 630:Generated_Source\PSoC5/UART_READER.c ****     * Reentrant:
 631:Generated_Source\PSoC5/UART_READER.c ****     *  No.
 632:Generated_Source\PSoC5/UART_READER.c ****     *
 633:Generated_Source\PSoC5/UART_READER.c ****     *******************************************************************************/
 634:Generated_Source\PSoC5/UART_READER.c ****     uint16 UART_READER_GetByte(void) 
 635:Generated_Source\PSoC5/UART_READER.c ****     {
 357              		.loc 1 635 0
 358              		.cfi_startproc
 359              		@ args = 0, pretend = 0, frame = 0
 360              		@ frame_needed = 0, uses_anonymous_args = 0
 361              		@ link register save eliminated.
 362              	.LBB31:
 363              	.LBB32:
 489:Generated_Source\PSoC5/UART_READER.c **** 
 364              		.loc 1 489 0
 365 0000 044B     		ldr	r3, .L38
 366              	.LBE32:
 367              	.LBE31:
 368              	.LBB34:
 369              	.LBB35:
 448:Generated_Source\PSoC5/UART_READER.c **** 
 370              		.loc 1 448 0
 371 0002 054A     		ldr	r2, .L38+4
 372              	.LBE35:
 373              	.LBE34:
 374              	.LBB37:
 375              	.LBB33:
 489:Generated_Source\PSoC5/UART_READER.c **** 
 376              		.loc 1 489 0
 377 0004 1B78     		ldrb	r3, [r3]	@ zero_extendqisi2
 378              	.LVL15:
 379              	.LBE33:
ARM GAS  C:\Users\yqh\AppData\Local\Temp\cc55pVRK.s 			page 19


 380              	.LBE37:
 381              	.LBB38:
 382              	.LBB36:
 448:Generated_Source\PSoC5/UART_READER.c **** 
 383              		.loc 1 448 0
 384 0006 1078     		ldrb	r0, [r2]	@ zero_extendqisi2
 385              	.LVL16:
 386              	.LBE36:
 387              	.LBE38:
 636:Generated_Source\PSoC5/UART_READER.c ****         
 637:Generated_Source\PSoC5/UART_READER.c ****     #if (UART_READER_RX_INTERRUPT_ENABLED)
 638:Generated_Source\PSoC5/UART_READER.c ****         uint16 locErrorStatus;
 639:Generated_Source\PSoC5/UART_READER.c ****         /* Protect variables that could change on interrupt */
 640:Generated_Source\PSoC5/UART_READER.c ****         UART_READER_DisableRxInt();
 641:Generated_Source\PSoC5/UART_READER.c ****         locErrorStatus = (uint16)UART_READER_errorStatus;
 642:Generated_Source\PSoC5/UART_READER.c ****         UART_READER_errorStatus = 0u;
 643:Generated_Source\PSoC5/UART_READER.c ****         UART_READER_EnableRxInt();
 644:Generated_Source\PSoC5/UART_READER.c ****         return ( (uint16)(locErrorStatus << 8u) | UART_READER_ReadRxData() );
 645:Generated_Source\PSoC5/UART_READER.c ****     #else
 646:Generated_Source\PSoC5/UART_READER.c ****         return ( ((uint16)UART_READER_ReadRxStatus() << 8u) | UART_READER_ReadRxData() );
 388              		.loc 1 646 0
 389 0008 03F07F03 		and	r3, r3, #127
 390              	.LVL17:
 647:Generated_Source\PSoC5/UART_READER.c ****     #endif /* UART_READER_RX_INTERRUPT_ENABLED */
 648:Generated_Source\PSoC5/UART_READER.c ****         
 649:Generated_Source\PSoC5/UART_READER.c ****     }
 391              		.loc 1 649 0
 392 000c 40EA0320 		orr	r0, r0, r3, lsl #8
 393              	.LVL18:
 394 0010 7047     		bx	lr
 395              	.L39:
 396 0012 00BF     		.align	2
 397              	.L38:
 398 0014 67650040 		.word	1073767783
 399 0018 47650040 		.word	1073767751
 400              		.cfi_endproc
 401              	.LFE10:
 402              		.size	UART_READER_GetByte, .-UART_READER_GetByte
 403              		.section	.text.UART_READER_GetRxBufferSize,"ax",%progbits
 404              		.align	1
 405              		.global	UART_READER_GetRxBufferSize
 406              		.thumb
 407              		.thumb_func
 408              		.type	UART_READER_GetRxBufferSize, %function
 409              	UART_READER_GetRxBufferSize:
 410              	.LFB11:
 650:Generated_Source\PSoC5/UART_READER.c **** 
 651:Generated_Source\PSoC5/UART_READER.c **** 
 652:Generated_Source\PSoC5/UART_READER.c ****     /*******************************************************************************
 653:Generated_Source\PSoC5/UART_READER.c ****     * Function Name: UART_READER_GetRxBufferSize
 654:Generated_Source\PSoC5/UART_READER.c ****     ********************************************************************************
 655:Generated_Source\PSoC5/UART_READER.c ****     *
 656:Generated_Source\PSoC5/UART_READER.c ****     * Summary:
 657:Generated_Source\PSoC5/UART_READER.c ****     *  Returns the number of received bytes available in the RX buffer.
 658:Generated_Source\PSoC5/UART_READER.c ****     *  * RX software buffer is disabled (RX Buffer Size parameter is equal to 4): 
 659:Generated_Source\PSoC5/UART_READER.c ****     *    returns 0 for empty RX FIFO or 1 for not empty RX FIFO.
 660:Generated_Source\PSoC5/UART_READER.c ****     *  * RX software buffer is enabled: returns the number of bytes available in 
ARM GAS  C:\Users\yqh\AppData\Local\Temp\cc55pVRK.s 			page 20


 661:Generated_Source\PSoC5/UART_READER.c ****     *    the RX software buffer. Bytes available in the RX FIFO do not take to 
 662:Generated_Source\PSoC5/UART_READER.c ****     *    account.
 663:Generated_Source\PSoC5/UART_READER.c ****     *
 664:Generated_Source\PSoC5/UART_READER.c ****     * Parameters:
 665:Generated_Source\PSoC5/UART_READER.c ****     *  None.
 666:Generated_Source\PSoC5/UART_READER.c ****     *
 667:Generated_Source\PSoC5/UART_READER.c ****     * Return:
 668:Generated_Source\PSoC5/UART_READER.c ****     *  uint8: Number of bytes in the RX buffer. 
 669:Generated_Source\PSoC5/UART_READER.c ****     *    Return value type depends on RX Buffer Size parameter.
 670:Generated_Source\PSoC5/UART_READER.c ****     *
 671:Generated_Source\PSoC5/UART_READER.c ****     * Global Variables:
 672:Generated_Source\PSoC5/UART_READER.c ****     *  UART_READER_rxBufferWrite - used to calculate left bytes.
 673:Generated_Source\PSoC5/UART_READER.c ****     *  UART_READER_rxBufferRead - used to calculate left bytes.
 674:Generated_Source\PSoC5/UART_READER.c ****     *  UART_READER_rxBufferLoopDetect - checked to decide left bytes amount.
 675:Generated_Source\PSoC5/UART_READER.c ****     *
 676:Generated_Source\PSoC5/UART_READER.c ****     * Reentrant:
 677:Generated_Source\PSoC5/UART_READER.c ****     *  No.
 678:Generated_Source\PSoC5/UART_READER.c ****     *
 679:Generated_Source\PSoC5/UART_READER.c ****     * Theory:
 680:Generated_Source\PSoC5/UART_READER.c ****     *  Allows the user to find out how full the RX Buffer is.
 681:Generated_Source\PSoC5/UART_READER.c ****     *
 682:Generated_Source\PSoC5/UART_READER.c ****     *******************************************************************************/
 683:Generated_Source\PSoC5/UART_READER.c ****     uint8 UART_READER_GetRxBufferSize(void)
 684:Generated_Source\PSoC5/UART_READER.c ****                                                             
 685:Generated_Source\PSoC5/UART_READER.c ****     {
 411              		.loc 1 685 0
 412              		.cfi_startproc
 413              		@ args = 0, pretend = 0, frame = 0
 414              		@ frame_needed = 0, uses_anonymous_args = 0
 415              		@ link register save eliminated.
 686:Generated_Source\PSoC5/UART_READER.c ****         uint8 size;
 687:Generated_Source\PSoC5/UART_READER.c **** 
 688:Generated_Source\PSoC5/UART_READER.c ****     #if (UART_READER_RX_INTERRUPT_ENABLED)
 689:Generated_Source\PSoC5/UART_READER.c **** 
 690:Generated_Source\PSoC5/UART_READER.c ****         /* Protect variables that could change on interrupt */
 691:Generated_Source\PSoC5/UART_READER.c ****         UART_READER_DisableRxInt();
 692:Generated_Source\PSoC5/UART_READER.c **** 
 693:Generated_Source\PSoC5/UART_READER.c ****         if(UART_READER_rxBufferRead == UART_READER_rxBufferWrite)
 694:Generated_Source\PSoC5/UART_READER.c ****         {
 695:Generated_Source\PSoC5/UART_READER.c ****             if(UART_READER_rxBufferLoopDetect != 0u)
 696:Generated_Source\PSoC5/UART_READER.c ****             {
 697:Generated_Source\PSoC5/UART_READER.c ****                 size = UART_READER_RX_BUFFER_SIZE;
 698:Generated_Source\PSoC5/UART_READER.c ****             }
 699:Generated_Source\PSoC5/UART_READER.c ****             else
 700:Generated_Source\PSoC5/UART_READER.c ****             {
 701:Generated_Source\PSoC5/UART_READER.c ****                 size = 0u;
 702:Generated_Source\PSoC5/UART_READER.c ****             }
 703:Generated_Source\PSoC5/UART_READER.c ****         }
 704:Generated_Source\PSoC5/UART_READER.c ****         else if(UART_READER_rxBufferRead < UART_READER_rxBufferWrite)
 705:Generated_Source\PSoC5/UART_READER.c ****         {
 706:Generated_Source\PSoC5/UART_READER.c ****             size = (UART_READER_rxBufferWrite - UART_READER_rxBufferRead);
 707:Generated_Source\PSoC5/UART_READER.c ****         }
 708:Generated_Source\PSoC5/UART_READER.c ****         else
 709:Generated_Source\PSoC5/UART_READER.c ****         {
 710:Generated_Source\PSoC5/UART_READER.c ****             size = (UART_READER_RX_BUFFER_SIZE - UART_READER_rxBufferRead) + UART_READER_rxBufferWr
 711:Generated_Source\PSoC5/UART_READER.c ****         }
 712:Generated_Source\PSoC5/UART_READER.c **** 
ARM GAS  C:\Users\yqh\AppData\Local\Temp\cc55pVRK.s 			page 21


 713:Generated_Source\PSoC5/UART_READER.c ****         UART_READER_EnableRxInt();
 714:Generated_Source\PSoC5/UART_READER.c **** 
 715:Generated_Source\PSoC5/UART_READER.c ****     #else
 716:Generated_Source\PSoC5/UART_READER.c **** 
 717:Generated_Source\PSoC5/UART_READER.c ****         /* We can only know if there is data in the fifo. */
 718:Generated_Source\PSoC5/UART_READER.c ****         size = ((UART_READER_RXSTATUS_REG & UART_READER_RX_STS_FIFO_NOTEMPTY) != 0u) ? 1u : 0u;
 416              		.loc 1 718 0
 417 0000 024B     		ldr	r3, .L41
 418 0002 1878     		ldrb	r0, [r3]	@ zero_extendqisi2
 419              	.LVL19:
 719:Generated_Source\PSoC5/UART_READER.c **** 
 720:Generated_Source\PSoC5/UART_READER.c ****     #endif /* (UART_READER_RX_INTERRUPT_ENABLED) */
 721:Generated_Source\PSoC5/UART_READER.c **** 
 722:Generated_Source\PSoC5/UART_READER.c ****         return(size);
 723:Generated_Source\PSoC5/UART_READER.c ****     }
 420              		.loc 1 723 0
 421 0004 C0F34010 		ubfx	r0, r0, #5, #1
 422              	.LVL20:
 423 0008 7047     		bx	lr
 424              	.L42:
 425 000a 00BF     		.align	2
 426              	.L41:
 427 000c 67650040 		.word	1073767783
 428              		.cfi_endproc
 429              	.LFE11:
 430              		.size	UART_READER_GetRxBufferSize, .-UART_READER_GetRxBufferSize
 431              		.section	.text.UART_READER_ClearRxBuffer,"ax",%progbits
 432              		.align	1
 433              		.global	UART_READER_ClearRxBuffer
 434              		.thumb
 435              		.thumb_func
 436              		.type	UART_READER_ClearRxBuffer, %function
 437              	UART_READER_ClearRxBuffer:
 438              	.LFB12:
 724:Generated_Source\PSoC5/UART_READER.c **** 
 725:Generated_Source\PSoC5/UART_READER.c **** 
 726:Generated_Source\PSoC5/UART_READER.c ****     /*******************************************************************************
 727:Generated_Source\PSoC5/UART_READER.c ****     * Function Name: UART_READER_ClearRxBuffer
 728:Generated_Source\PSoC5/UART_READER.c ****     ********************************************************************************
 729:Generated_Source\PSoC5/UART_READER.c ****     *
 730:Generated_Source\PSoC5/UART_READER.c ****     * Summary:
 731:Generated_Source\PSoC5/UART_READER.c ****     *  Clears the receiver memory buffer and hardware RX FIFO of all received data.
 732:Generated_Source\PSoC5/UART_READER.c ****     *
 733:Generated_Source\PSoC5/UART_READER.c ****     * Parameters:
 734:Generated_Source\PSoC5/UART_READER.c ****     *  None.
 735:Generated_Source\PSoC5/UART_READER.c ****     *
 736:Generated_Source\PSoC5/UART_READER.c ****     * Return:
 737:Generated_Source\PSoC5/UART_READER.c ****     *  None.
 738:Generated_Source\PSoC5/UART_READER.c ****     *
 739:Generated_Source\PSoC5/UART_READER.c ****     * Global Variables:
 740:Generated_Source\PSoC5/UART_READER.c ****     *  UART_READER_rxBufferWrite - cleared to zero.
 741:Generated_Source\PSoC5/UART_READER.c ****     *  UART_READER_rxBufferRead - cleared to zero.
 742:Generated_Source\PSoC5/UART_READER.c ****     *  UART_READER_rxBufferLoopDetect - cleared to zero.
 743:Generated_Source\PSoC5/UART_READER.c ****     *  UART_READER_rxBufferOverflow - cleared to zero.
 744:Generated_Source\PSoC5/UART_READER.c ****     *
 745:Generated_Source\PSoC5/UART_READER.c ****     * Reentrant:
 746:Generated_Source\PSoC5/UART_READER.c ****     *  No.
ARM GAS  C:\Users\yqh\AppData\Local\Temp\cc55pVRK.s 			page 22


 747:Generated_Source\PSoC5/UART_READER.c ****     *
 748:Generated_Source\PSoC5/UART_READER.c ****     * Theory:
 749:Generated_Source\PSoC5/UART_READER.c ****     *  Setting the pointers to zero makes the system believe there is no data to
 750:Generated_Source\PSoC5/UART_READER.c ****     *  read and writing will resume at address 0 overwriting any data that may
 751:Generated_Source\PSoC5/UART_READER.c ****     *  have remained in the RAM.
 752:Generated_Source\PSoC5/UART_READER.c ****     *
 753:Generated_Source\PSoC5/UART_READER.c ****     * Side Effects:
 754:Generated_Source\PSoC5/UART_READER.c ****     *  Any received data not read from the RAM or FIFO buffer will be lost.
 755:Generated_Source\PSoC5/UART_READER.c ****     *
 756:Generated_Source\PSoC5/UART_READER.c ****     *******************************************************************************/
 757:Generated_Source\PSoC5/UART_READER.c ****     void UART_READER_ClearRxBuffer(void) 
 758:Generated_Source\PSoC5/UART_READER.c ****     {
 439              		.loc 1 758 0
 440              		.cfi_startproc
 441              		@ args = 0, pretend = 0, frame = 0
 442              		@ frame_needed = 0, uses_anonymous_args = 0
 443 0000 08B5     		push	{r3, lr}
 444              		.cfi_def_cfa_offset 8
 445              		.cfi_offset 3, -8
 446              		.cfi_offset 14, -4
 759:Generated_Source\PSoC5/UART_READER.c ****         uint8 enableInterrupts;
 760:Generated_Source\PSoC5/UART_READER.c **** 
 761:Generated_Source\PSoC5/UART_READER.c ****         /* Clear the HW FIFO */
 762:Generated_Source\PSoC5/UART_READER.c ****         enableInterrupts = CyEnterCriticalSection();
 447              		.loc 1 762 0
 448 0002 FFF7FEFF 		bl	CyEnterCriticalSection
 449              	.LVL21:
 763:Generated_Source\PSoC5/UART_READER.c ****         UART_READER_RXDATA_AUX_CTL_REG |= (uint8)  UART_READER_RX_FIFO_CLR;
 450              		.loc 1 763 0
 451 0006 064B     		ldr	r3, .L44
 452 0008 1A78     		ldrb	r2, [r3]	@ zero_extendqisi2
 453 000a 42F00102 		orr	r2, r2, #1
 454 000e 1A70     		strb	r2, [r3]
 764:Generated_Source\PSoC5/UART_READER.c ****         UART_READER_RXDATA_AUX_CTL_REG &= (uint8) ~UART_READER_RX_FIFO_CLR;
 455              		.loc 1 764 0
 456 0010 1A78     		ldrb	r2, [r3]	@ zero_extendqisi2
 457 0012 02F0FE02 		and	r2, r2, #254
 458 0016 1A70     		strb	r2, [r3]
 765:Generated_Source\PSoC5/UART_READER.c ****         CyExitCriticalSection(enableInterrupts);
 766:Generated_Source\PSoC5/UART_READER.c **** 
 767:Generated_Source\PSoC5/UART_READER.c ****     #if (UART_READER_RX_INTERRUPT_ENABLED)
 768:Generated_Source\PSoC5/UART_READER.c **** 
 769:Generated_Source\PSoC5/UART_READER.c ****         /* Protect variables that could change on interrupt. */
 770:Generated_Source\PSoC5/UART_READER.c ****         UART_READER_DisableRxInt();
 771:Generated_Source\PSoC5/UART_READER.c **** 
 772:Generated_Source\PSoC5/UART_READER.c ****         UART_READER_rxBufferRead = 0u;
 773:Generated_Source\PSoC5/UART_READER.c ****         UART_READER_rxBufferWrite = 0u;
 774:Generated_Source\PSoC5/UART_READER.c ****         UART_READER_rxBufferLoopDetect = 0u;
 775:Generated_Source\PSoC5/UART_READER.c ****         UART_READER_rxBufferOverflow = 0u;
 776:Generated_Source\PSoC5/UART_READER.c **** 
 777:Generated_Source\PSoC5/UART_READER.c ****         UART_READER_EnableRxInt();
 778:Generated_Source\PSoC5/UART_READER.c **** 
 779:Generated_Source\PSoC5/UART_READER.c ****     #endif /* (UART_READER_RX_INTERRUPT_ENABLED) */
 780:Generated_Source\PSoC5/UART_READER.c **** 
 781:Generated_Source\PSoC5/UART_READER.c ****     }
 459              		.loc 1 781 0
 460 0018 BDE80840 		pop	{r3, lr}
ARM GAS  C:\Users\yqh\AppData\Local\Temp\cc55pVRK.s 			page 23


 461              		.cfi_restore 14
 462              		.cfi_restore 3
 463              		.cfi_def_cfa_offset 0
 765:Generated_Source\PSoC5/UART_READER.c ****         CyExitCriticalSection(enableInterrupts);
 464              		.loc 1 765 0
 465 001c FFF7FEBF 		b	CyExitCriticalSection
 466              	.LVL22:
 467              	.L45:
 468              		.align	2
 469              	.L44:
 470 0020 97650040 		.word	1073767831
 471              		.cfi_endproc
 472              	.LFE12:
 473              		.size	UART_READER_ClearRxBuffer, .-UART_READER_ClearRxBuffer
 474              		.section	.text.UART_READER_SetRxAddressMode,"ax",%progbits
 475              		.align	1
 476              		.global	UART_READER_SetRxAddressMode
 477              		.thumb
 478              		.thumb_func
 479              		.type	UART_READER_SetRxAddressMode, %function
 480              	UART_READER_SetRxAddressMode:
 481              	.LFB13:
 782:Generated_Source\PSoC5/UART_READER.c **** 
 783:Generated_Source\PSoC5/UART_READER.c **** 
 784:Generated_Source\PSoC5/UART_READER.c ****     /*******************************************************************************
 785:Generated_Source\PSoC5/UART_READER.c ****     * Function Name: UART_READER_SetRxAddressMode
 786:Generated_Source\PSoC5/UART_READER.c ****     ********************************************************************************
 787:Generated_Source\PSoC5/UART_READER.c ****     *
 788:Generated_Source\PSoC5/UART_READER.c ****     * Summary:
 789:Generated_Source\PSoC5/UART_READER.c ****     *  Sets the software controlled Addressing mode used by the RX portion of the
 790:Generated_Source\PSoC5/UART_READER.c ****     *  UART.
 791:Generated_Source\PSoC5/UART_READER.c ****     *
 792:Generated_Source\PSoC5/UART_READER.c ****     * Parameters:
 793:Generated_Source\PSoC5/UART_READER.c ****     *  addressMode: Enumerated value indicating the mode of RX addressing
 794:Generated_Source\PSoC5/UART_READER.c ****     *  UART_READER__B_UART__AM_SW_BYTE_BYTE -  Software Byte-by-Byte address
 795:Generated_Source\PSoC5/UART_READER.c ****     *                                               detection
 796:Generated_Source\PSoC5/UART_READER.c ****     *  UART_READER__B_UART__AM_SW_DETECT_TO_BUFFER - Software Detect to Buffer
 797:Generated_Source\PSoC5/UART_READER.c ****     *                                               address detection
 798:Generated_Source\PSoC5/UART_READER.c ****     *  UART_READER__B_UART__AM_HW_BYTE_BY_BYTE - Hardware Byte-by-Byte address
 799:Generated_Source\PSoC5/UART_READER.c ****     *                                               detection
 800:Generated_Source\PSoC5/UART_READER.c ****     *  UART_READER__B_UART__AM_HW_DETECT_TO_BUFFER - Hardware Detect to Buffer
 801:Generated_Source\PSoC5/UART_READER.c ****     *                                               address detection
 802:Generated_Source\PSoC5/UART_READER.c ****     *  UART_READER__B_UART__AM_NONE - No address detection
 803:Generated_Source\PSoC5/UART_READER.c ****     *
 804:Generated_Source\PSoC5/UART_READER.c ****     * Return:
 805:Generated_Source\PSoC5/UART_READER.c ****     *  None.
 806:Generated_Source\PSoC5/UART_READER.c ****     *
 807:Generated_Source\PSoC5/UART_READER.c ****     * Global Variables:
 808:Generated_Source\PSoC5/UART_READER.c ****     *  UART_READER_rxAddressMode - the parameter stored in this variable for
 809:Generated_Source\PSoC5/UART_READER.c ****     *   the farther usage in RX ISR.
 810:Generated_Source\PSoC5/UART_READER.c ****     *  UART_READER_rxAddressDetected - set to initial state (0).
 811:Generated_Source\PSoC5/UART_READER.c ****     *
 812:Generated_Source\PSoC5/UART_READER.c ****     *******************************************************************************/
 813:Generated_Source\PSoC5/UART_READER.c ****     void UART_READER_SetRxAddressMode(uint8 addressMode)
 814:Generated_Source\PSoC5/UART_READER.c ****                                                         
 815:Generated_Source\PSoC5/UART_READER.c ****     {
 482              		.loc 1 815 0
ARM GAS  C:\Users\yqh\AppData\Local\Temp\cc55pVRK.s 			page 24


 483              		.cfi_startproc
 484              		@ args = 0, pretend = 0, frame = 0
 485              		@ frame_needed = 0, uses_anonymous_args = 0
 486              		@ link register save eliminated.
 487              	.LVL23:
 488 0000 7047     		bx	lr
 489              		.cfi_endproc
 490              	.LFE13:
 491              		.size	UART_READER_SetRxAddressMode, .-UART_READER_SetRxAddressMode
 492              		.section	.text.UART_READER_SetRxAddress1,"ax",%progbits
 493              		.align	1
 494              		.global	UART_READER_SetRxAddress1
 495              		.thumb
 496              		.thumb_func
 497              		.type	UART_READER_SetRxAddress1, %function
 498              	UART_READER_SetRxAddress1:
 499              	.LFB14:
 816:Generated_Source\PSoC5/UART_READER.c ****         #if(UART_READER_RXHW_ADDRESS_ENABLED)
 817:Generated_Source\PSoC5/UART_READER.c ****             #if(UART_READER_CONTROL_REG_REMOVED)
 818:Generated_Source\PSoC5/UART_READER.c ****                 if(0u != addressMode)
 819:Generated_Source\PSoC5/UART_READER.c ****                 {
 820:Generated_Source\PSoC5/UART_READER.c ****                     /* Suppress compiler warning */
 821:Generated_Source\PSoC5/UART_READER.c ****                 }
 822:Generated_Source\PSoC5/UART_READER.c ****             #else /* UART_READER_CONTROL_REG_REMOVED */
 823:Generated_Source\PSoC5/UART_READER.c ****                 uint8 tmpCtrl;
 824:Generated_Source\PSoC5/UART_READER.c ****                 tmpCtrl = UART_READER_CONTROL_REG & (uint8)~UART_READER_CTRL_RXADDR_MODE_MASK;
 825:Generated_Source\PSoC5/UART_READER.c ****                 tmpCtrl |= (uint8)(addressMode << UART_READER_CTRL_RXADDR_MODE0_SHIFT);
 826:Generated_Source\PSoC5/UART_READER.c ****                 UART_READER_CONTROL_REG = tmpCtrl;
 827:Generated_Source\PSoC5/UART_READER.c **** 
 828:Generated_Source\PSoC5/UART_READER.c ****                 #if(UART_READER_RX_INTERRUPT_ENABLED && \
 829:Generated_Source\PSoC5/UART_READER.c ****                    (UART_READER_RXBUFFERSIZE > UART_READER_FIFO_LENGTH) )
 830:Generated_Source\PSoC5/UART_READER.c ****                     UART_READER_rxAddressMode = addressMode;
 831:Generated_Source\PSoC5/UART_READER.c ****                     UART_READER_rxAddressDetected = 0u;
 832:Generated_Source\PSoC5/UART_READER.c ****                 #endif /* End UART_READER_RXBUFFERSIZE > UART_READER_FIFO_LENGTH*/
 833:Generated_Source\PSoC5/UART_READER.c ****             #endif /* End UART_READER_CONTROL_REG_REMOVED */
 834:Generated_Source\PSoC5/UART_READER.c ****         #else /* UART_READER_RXHW_ADDRESS_ENABLED */
 835:Generated_Source\PSoC5/UART_READER.c ****             if(0u != addressMode)
 836:Generated_Source\PSoC5/UART_READER.c ****             {
 837:Generated_Source\PSoC5/UART_READER.c ****                 /* Suppress compiler warning */
 838:Generated_Source\PSoC5/UART_READER.c ****             }
 839:Generated_Source\PSoC5/UART_READER.c ****         #endif /* End UART_READER_RXHW_ADDRESS_ENABLED */
 840:Generated_Source\PSoC5/UART_READER.c ****     }
 841:Generated_Source\PSoC5/UART_READER.c **** 
 842:Generated_Source\PSoC5/UART_READER.c **** 
 843:Generated_Source\PSoC5/UART_READER.c ****     /*******************************************************************************
 844:Generated_Source\PSoC5/UART_READER.c ****     * Function Name: UART_READER_SetRxAddress1
 845:Generated_Source\PSoC5/UART_READER.c ****     ********************************************************************************
 846:Generated_Source\PSoC5/UART_READER.c ****     *
 847:Generated_Source\PSoC5/UART_READER.c ****     * Summary:
 848:Generated_Source\PSoC5/UART_READER.c ****     *  Sets the first of two hardware-detectable receiver addresses.
 849:Generated_Source\PSoC5/UART_READER.c ****     *
 850:Generated_Source\PSoC5/UART_READER.c ****     * Parameters:
 851:Generated_Source\PSoC5/UART_READER.c ****     *  address: Address #1 for hardware address detection.
 852:Generated_Source\PSoC5/UART_READER.c ****     *
 853:Generated_Source\PSoC5/UART_READER.c ****     * Return:
 854:Generated_Source\PSoC5/UART_READER.c ****     *  None.
 855:Generated_Source\PSoC5/UART_READER.c ****     *
ARM GAS  C:\Users\yqh\AppData\Local\Temp\cc55pVRK.s 			page 25


 856:Generated_Source\PSoC5/UART_READER.c ****     *******************************************************************************/
 857:Generated_Source\PSoC5/UART_READER.c ****     void UART_READER_SetRxAddress1(uint8 address) 
 858:Generated_Source\PSoC5/UART_READER.c ****     {
 500              		.loc 1 858 0
 501              		.cfi_startproc
 502              		@ args = 0, pretend = 0, frame = 0
 503              		@ frame_needed = 0, uses_anonymous_args = 0
 504              		@ link register save eliminated.
 505              	.LVL24:
 859:Generated_Source\PSoC5/UART_READER.c ****         UART_READER_RXADDRESS1_REG = address;
 506              		.loc 1 859 0
 507 0000 014B     		ldr	r3, .L48
 508 0002 1870     		strb	r0, [r3]
 509 0004 7047     		bx	lr
 510              	.L49:
 511 0006 00BF     		.align	2
 512              	.L48:
 513 0008 27650040 		.word	1073767719
 514              		.cfi_endproc
 515              	.LFE14:
 516              		.size	UART_READER_SetRxAddress1, .-UART_READER_SetRxAddress1
 517              		.section	.text.UART_READER_SetRxAddress2,"ax",%progbits
 518              		.align	1
 519              		.global	UART_READER_SetRxAddress2
 520              		.thumb
 521              		.thumb_func
 522              		.type	UART_READER_SetRxAddress2, %function
 523              	UART_READER_SetRxAddress2:
 524              	.LFB15:
 860:Generated_Source\PSoC5/UART_READER.c ****     }
 861:Generated_Source\PSoC5/UART_READER.c **** 
 862:Generated_Source\PSoC5/UART_READER.c **** 
 863:Generated_Source\PSoC5/UART_READER.c ****     /*******************************************************************************
 864:Generated_Source\PSoC5/UART_READER.c ****     * Function Name: UART_READER_SetRxAddress2
 865:Generated_Source\PSoC5/UART_READER.c ****     ********************************************************************************
 866:Generated_Source\PSoC5/UART_READER.c ****     *
 867:Generated_Source\PSoC5/UART_READER.c ****     * Summary:
 868:Generated_Source\PSoC5/UART_READER.c ****     *  Sets the second of two hardware-detectable receiver addresses.
 869:Generated_Source\PSoC5/UART_READER.c ****     *
 870:Generated_Source\PSoC5/UART_READER.c ****     * Parameters:
 871:Generated_Source\PSoC5/UART_READER.c ****     *  address: Address #2 for hardware address detection.
 872:Generated_Source\PSoC5/UART_READER.c ****     *
 873:Generated_Source\PSoC5/UART_READER.c ****     * Return:
 874:Generated_Source\PSoC5/UART_READER.c ****     *  None.
 875:Generated_Source\PSoC5/UART_READER.c ****     *
 876:Generated_Source\PSoC5/UART_READER.c ****     *******************************************************************************/
 877:Generated_Source\PSoC5/UART_READER.c ****     void UART_READER_SetRxAddress2(uint8 address) 
 878:Generated_Source\PSoC5/UART_READER.c ****     {
 525              		.loc 1 878 0
 526              		.cfi_startproc
 527              		@ args = 0, pretend = 0, frame = 0
 528              		@ frame_needed = 0, uses_anonymous_args = 0
 529              		@ link register save eliminated.
 530              	.LVL25:
 879:Generated_Source\PSoC5/UART_READER.c ****         UART_READER_RXADDRESS2_REG = address;
 531              		.loc 1 879 0
 532 0000 014B     		ldr	r3, .L51
ARM GAS  C:\Users\yqh\AppData\Local\Temp\cc55pVRK.s 			page 26


 533 0002 1870     		strb	r0, [r3]
 534 0004 7047     		bx	lr
 535              	.L52:
 536 0006 00BF     		.align	2
 537              	.L51:
 538 0008 37650040 		.word	1073767735
 539              		.cfi_endproc
 540              	.LFE15:
 541              		.size	UART_READER_SetRxAddress2, .-UART_READER_SetRxAddress2
 542              		.section	.text.UART_READER_SetTxInterruptMode,"ax",%progbits
 543              		.align	1
 544              		.global	UART_READER_SetTxInterruptMode
 545              		.thumb
 546              		.thumb_func
 547              		.type	UART_READER_SetTxInterruptMode, %function
 548              	UART_READER_SetTxInterruptMode:
 549              	.LFB16:
 880:Generated_Source\PSoC5/UART_READER.c ****     }
 881:Generated_Source\PSoC5/UART_READER.c **** 
 882:Generated_Source\PSoC5/UART_READER.c **** #endif  /* UART_READER_RX_ENABLED || UART_READER_HD_ENABLED*/
 883:Generated_Source\PSoC5/UART_READER.c **** 
 884:Generated_Source\PSoC5/UART_READER.c **** 
 885:Generated_Source\PSoC5/UART_READER.c **** #if( (UART_READER_TX_ENABLED) || (UART_READER_HD_ENABLED) )
 886:Generated_Source\PSoC5/UART_READER.c ****     /*******************************************************************************
 887:Generated_Source\PSoC5/UART_READER.c ****     * Function Name: UART_READER_SetTxInterruptMode
 888:Generated_Source\PSoC5/UART_READER.c ****     ********************************************************************************
 889:Generated_Source\PSoC5/UART_READER.c ****     *
 890:Generated_Source\PSoC5/UART_READER.c ****     * Summary:
 891:Generated_Source\PSoC5/UART_READER.c ****     *  Configures the TX interrupt sources to be enabled, but does not enable the
 892:Generated_Source\PSoC5/UART_READER.c ****     *  interrupt.
 893:Generated_Source\PSoC5/UART_READER.c ****     *
 894:Generated_Source\PSoC5/UART_READER.c ****     * Parameters:
 895:Generated_Source\PSoC5/UART_READER.c ****     *  intSrc: Bit field containing the TX interrupt sources to enable
 896:Generated_Source\PSoC5/UART_READER.c ****     *   UART_READER_TX_STS_COMPLETE        Interrupt on TX byte complete
 897:Generated_Source\PSoC5/UART_READER.c ****     *   UART_READER_TX_STS_FIFO_EMPTY      Interrupt when TX FIFO is empty
 898:Generated_Source\PSoC5/UART_READER.c ****     *   UART_READER_TX_STS_FIFO_FULL       Interrupt when TX FIFO is full
 899:Generated_Source\PSoC5/UART_READER.c ****     *   UART_READER_TX_STS_FIFO_NOT_FULL   Interrupt when TX FIFO is not full
 900:Generated_Source\PSoC5/UART_READER.c ****     *
 901:Generated_Source\PSoC5/UART_READER.c ****     * Return:
 902:Generated_Source\PSoC5/UART_READER.c ****     *  None.
 903:Generated_Source\PSoC5/UART_READER.c ****     *
 904:Generated_Source\PSoC5/UART_READER.c ****     * Theory:
 905:Generated_Source\PSoC5/UART_READER.c ****     *  Enables the output of specific status bits to the interrupt controller
 906:Generated_Source\PSoC5/UART_READER.c ****     *
 907:Generated_Source\PSoC5/UART_READER.c ****     *******************************************************************************/
 908:Generated_Source\PSoC5/UART_READER.c ****     void UART_READER_SetTxInterruptMode(uint8 intSrc) 
 909:Generated_Source\PSoC5/UART_READER.c ****     {
 550              		.loc 1 909 0
 551              		.cfi_startproc
 552              		@ args = 0, pretend = 0, frame = 0
 553              		@ frame_needed = 0, uses_anonymous_args = 0
 554              		@ link register save eliminated.
 555              	.LVL26:
 910:Generated_Source\PSoC5/UART_READER.c ****         UART_READER_TXSTATUS_MASK_REG = intSrc;
 556              		.loc 1 910 0
 557 0000 014B     		ldr	r3, .L54
 558 0002 1870     		strb	r0, [r3]
ARM GAS  C:\Users\yqh\AppData\Local\Temp\cc55pVRK.s 			page 27


 559 0004 7047     		bx	lr
 560              	.L55:
 561 0006 00BF     		.align	2
 562              	.L54:
 563 0008 87650040 		.word	1073767815
 564              		.cfi_endproc
 565              	.LFE16:
 566              		.size	UART_READER_SetTxInterruptMode, .-UART_READER_SetTxInterruptMode
 567              		.section	.text.UART_READER_WriteTxData,"ax",%progbits
 568              		.align	1
 569              		.global	UART_READER_WriteTxData
 570              		.thumb
 571              		.thumb_func
 572              		.type	UART_READER_WriteTxData, %function
 573              	UART_READER_WriteTxData:
 574              	.LFB17:
 911:Generated_Source\PSoC5/UART_READER.c ****     }
 912:Generated_Source\PSoC5/UART_READER.c **** 
 913:Generated_Source\PSoC5/UART_READER.c **** 
 914:Generated_Source\PSoC5/UART_READER.c ****     /*******************************************************************************
 915:Generated_Source\PSoC5/UART_READER.c ****     * Function Name: UART_READER_WriteTxData
 916:Generated_Source\PSoC5/UART_READER.c ****     ********************************************************************************
 917:Generated_Source\PSoC5/UART_READER.c ****     *
 918:Generated_Source\PSoC5/UART_READER.c ****     * Summary:
 919:Generated_Source\PSoC5/UART_READER.c ****     *  Places a byte of data into the transmit buffer to be sent when the bus is
 920:Generated_Source\PSoC5/UART_READER.c ****     *  available without checking the TX status register. You must check status
 921:Generated_Source\PSoC5/UART_READER.c ****     *  separately.
 922:Generated_Source\PSoC5/UART_READER.c ****     *
 923:Generated_Source\PSoC5/UART_READER.c ****     * Parameters:
 924:Generated_Source\PSoC5/UART_READER.c ****     *  txDataByte: data byte
 925:Generated_Source\PSoC5/UART_READER.c ****     *
 926:Generated_Source\PSoC5/UART_READER.c ****     * Return:
 927:Generated_Source\PSoC5/UART_READER.c ****     * None.
 928:Generated_Source\PSoC5/UART_READER.c ****     *
 929:Generated_Source\PSoC5/UART_READER.c ****     * Global Variables:
 930:Generated_Source\PSoC5/UART_READER.c ****     *  UART_READER_txBuffer - RAM buffer pointer for save data for transmission
 931:Generated_Source\PSoC5/UART_READER.c ****     *  UART_READER_txBufferWrite - cyclic index for write to txBuffer,
 932:Generated_Source\PSoC5/UART_READER.c ****     *    incremented after each byte saved to buffer.
 933:Generated_Source\PSoC5/UART_READER.c ****     *  UART_READER_txBufferRead - cyclic index for read from txBuffer,
 934:Generated_Source\PSoC5/UART_READER.c ****     *    checked to identify the condition to write to FIFO directly or to TX buffer
 935:Generated_Source\PSoC5/UART_READER.c ****     *  UART_READER_initVar - checked to identify that the component has been
 936:Generated_Source\PSoC5/UART_READER.c ****     *    initialized.
 937:Generated_Source\PSoC5/UART_READER.c ****     *
 938:Generated_Source\PSoC5/UART_READER.c ****     * Reentrant:
 939:Generated_Source\PSoC5/UART_READER.c ****     *  No.
 940:Generated_Source\PSoC5/UART_READER.c ****     *
 941:Generated_Source\PSoC5/UART_READER.c ****     *******************************************************************************/
 942:Generated_Source\PSoC5/UART_READER.c ****     void UART_READER_WriteTxData(uint8 txDataByte) 
 943:Generated_Source\PSoC5/UART_READER.c ****     {
 575              		.loc 1 943 0
 576              		.cfi_startproc
 577              		@ args = 0, pretend = 0, frame = 0
 578              		@ frame_needed = 0, uses_anonymous_args = 0
 579              		@ link register save eliminated.
 580              	.LVL27:
 944:Generated_Source\PSoC5/UART_READER.c ****         /* If not Initialized then skip this function*/
 945:Generated_Source\PSoC5/UART_READER.c ****         if(UART_READER_initVar != 0u)
ARM GAS  C:\Users\yqh\AppData\Local\Temp\cc55pVRK.s 			page 28


 581              		.loc 1 945 0
 582 0000 024B     		ldr	r3, .L61
 583 0002 1B78     		ldrb	r3, [r3]	@ zero_extendqisi2
 584 0004 0BB1     		cbz	r3, .L56
 946:Generated_Source\PSoC5/UART_READER.c ****         {
 947:Generated_Source\PSoC5/UART_READER.c ****         #if (UART_READER_TX_INTERRUPT_ENABLED)
 948:Generated_Source\PSoC5/UART_READER.c **** 
 949:Generated_Source\PSoC5/UART_READER.c ****             /* Protect variables that could change on interrupt. */
 950:Generated_Source\PSoC5/UART_READER.c ****             UART_READER_DisableTxInt();
 951:Generated_Source\PSoC5/UART_READER.c **** 
 952:Generated_Source\PSoC5/UART_READER.c ****             if( (UART_READER_txBufferRead == UART_READER_txBufferWrite) &&
 953:Generated_Source\PSoC5/UART_READER.c ****                 ((UART_READER_TXSTATUS_REG & UART_READER_TX_STS_FIFO_FULL) == 0u) )
 954:Generated_Source\PSoC5/UART_READER.c ****             {
 955:Generated_Source\PSoC5/UART_READER.c ****                 /* Add directly to the FIFO. */
 956:Generated_Source\PSoC5/UART_READER.c ****                 UART_READER_TXDATA_REG = txDataByte;
 957:Generated_Source\PSoC5/UART_READER.c ****             }
 958:Generated_Source\PSoC5/UART_READER.c ****             else
 959:Generated_Source\PSoC5/UART_READER.c ****             {
 960:Generated_Source\PSoC5/UART_READER.c ****                 if(UART_READER_txBufferWrite >= UART_READER_TX_BUFFER_SIZE)
 961:Generated_Source\PSoC5/UART_READER.c ****                 {
 962:Generated_Source\PSoC5/UART_READER.c ****                     UART_READER_txBufferWrite = 0u;
 963:Generated_Source\PSoC5/UART_READER.c ****                 }
 964:Generated_Source\PSoC5/UART_READER.c **** 
 965:Generated_Source\PSoC5/UART_READER.c ****                 UART_READER_txBuffer[UART_READER_txBufferWrite] = txDataByte;
 966:Generated_Source\PSoC5/UART_READER.c **** 
 967:Generated_Source\PSoC5/UART_READER.c ****                 /* Add to the software buffer. */
 968:Generated_Source\PSoC5/UART_READER.c ****                 UART_READER_txBufferWrite++;
 969:Generated_Source\PSoC5/UART_READER.c ****             }
 970:Generated_Source\PSoC5/UART_READER.c **** 
 971:Generated_Source\PSoC5/UART_READER.c ****             UART_READER_EnableTxInt();
 972:Generated_Source\PSoC5/UART_READER.c **** 
 973:Generated_Source\PSoC5/UART_READER.c ****         #else
 974:Generated_Source\PSoC5/UART_READER.c **** 
 975:Generated_Source\PSoC5/UART_READER.c ****             /* Add directly to the FIFO. */
 976:Generated_Source\PSoC5/UART_READER.c ****             UART_READER_TXDATA_REG = txDataByte;
 585              		.loc 1 976 0
 586 0006 024B     		ldr	r3, .L61+4
 587 0008 1870     		strb	r0, [r3]
 588              	.L56:
 589 000a 7047     		bx	lr
 590              	.L62:
 591              		.align	2
 592              	.L61:
 593 000c 00000000 		.word	.LANCHOR0
 594 0010 57650040 		.word	1073767767
 595              		.cfi_endproc
 596              	.LFE17:
 597              		.size	UART_READER_WriteTxData, .-UART_READER_WriteTxData
 598              		.section	.text.UART_READER_ReadTxStatus,"ax",%progbits
 599              		.align	1
 600              		.global	UART_READER_ReadTxStatus
 601              		.thumb
 602              		.thumb_func
 603              		.type	UART_READER_ReadTxStatus, %function
 604              	UART_READER_ReadTxStatus:
 605              	.LFB18:
 977:Generated_Source\PSoC5/UART_READER.c **** 
ARM GAS  C:\Users\yqh\AppData\Local\Temp\cc55pVRK.s 			page 29


 978:Generated_Source\PSoC5/UART_READER.c ****         #endif /*(UART_READER_TX_INTERRUPT_ENABLED) */
 979:Generated_Source\PSoC5/UART_READER.c ****         }
 980:Generated_Source\PSoC5/UART_READER.c ****     }
 981:Generated_Source\PSoC5/UART_READER.c **** 
 982:Generated_Source\PSoC5/UART_READER.c **** 
 983:Generated_Source\PSoC5/UART_READER.c ****     /*******************************************************************************
 984:Generated_Source\PSoC5/UART_READER.c ****     * Function Name: UART_READER_ReadTxStatus
 985:Generated_Source\PSoC5/UART_READER.c ****     ********************************************************************************
 986:Generated_Source\PSoC5/UART_READER.c ****     *
 987:Generated_Source\PSoC5/UART_READER.c ****     * Summary:
 988:Generated_Source\PSoC5/UART_READER.c ****     *  Reads the status register for the TX portion of the UART.
 989:Generated_Source\PSoC5/UART_READER.c ****     *
 990:Generated_Source\PSoC5/UART_READER.c ****     * Parameters:
 991:Generated_Source\PSoC5/UART_READER.c ****     *  None.
 992:Generated_Source\PSoC5/UART_READER.c ****     *
 993:Generated_Source\PSoC5/UART_READER.c ****     * Return:
 994:Generated_Source\PSoC5/UART_READER.c ****     *  Contents of the status register
 995:Generated_Source\PSoC5/UART_READER.c ****     *
 996:Generated_Source\PSoC5/UART_READER.c ****     * Theory:
 997:Generated_Source\PSoC5/UART_READER.c ****     *  This function reads the TX status register, which is cleared on read.
 998:Generated_Source\PSoC5/UART_READER.c ****     *  It is up to the user to handle all bits in this return value accordingly,
 999:Generated_Source\PSoC5/UART_READER.c ****     *  even if the bit was not enabled as an interrupt source the event happened
1000:Generated_Source\PSoC5/UART_READER.c ****     *  and must be handled accordingly.
1001:Generated_Source\PSoC5/UART_READER.c ****     *
1002:Generated_Source\PSoC5/UART_READER.c ****     *******************************************************************************/
1003:Generated_Source\PSoC5/UART_READER.c ****     uint8 UART_READER_ReadTxStatus(void) 
1004:Generated_Source\PSoC5/UART_READER.c ****     {
 606              		.loc 1 1004 0
 607              		.cfi_startproc
 608              		@ args = 0, pretend = 0, frame = 0
 609              		@ frame_needed = 0, uses_anonymous_args = 0
 610              		@ link register save eliminated.
1005:Generated_Source\PSoC5/UART_READER.c ****         return(UART_READER_TXSTATUS_REG);
 611              		.loc 1 1005 0
 612 0000 014B     		ldr	r3, .L64
 613 0002 1878     		ldrb	r0, [r3]	@ zero_extendqisi2
1006:Generated_Source\PSoC5/UART_READER.c ****     }
 614              		.loc 1 1006 0
 615 0004 7047     		bx	lr
 616              	.L65:
 617 0006 00BF     		.align	2
 618              	.L64:
 619 0008 67650040 		.word	1073767783
 620              		.cfi_endproc
 621              	.LFE18:
 622              		.size	UART_READER_ReadTxStatus, .-UART_READER_ReadTxStatus
 623              		.section	.text.UART_READER_PutChar,"ax",%progbits
 624              		.align	1
 625              		.global	UART_READER_PutChar
 626              		.thumb
 627              		.thumb_func
 628              		.type	UART_READER_PutChar, %function
 629              	UART_READER_PutChar:
 630              	.LFB19:
1007:Generated_Source\PSoC5/UART_READER.c **** 
1008:Generated_Source\PSoC5/UART_READER.c **** 
1009:Generated_Source\PSoC5/UART_READER.c ****     /*******************************************************************************
ARM GAS  C:\Users\yqh\AppData\Local\Temp\cc55pVRK.s 			page 30


1010:Generated_Source\PSoC5/UART_READER.c ****     * Function Name: UART_READER_PutChar
1011:Generated_Source\PSoC5/UART_READER.c ****     ********************************************************************************
1012:Generated_Source\PSoC5/UART_READER.c ****     *
1013:Generated_Source\PSoC5/UART_READER.c ****     * Summary:
1014:Generated_Source\PSoC5/UART_READER.c ****     *  Puts a byte of data into the transmit buffer to be sent when the bus is
1015:Generated_Source\PSoC5/UART_READER.c ****     *  available. This is a blocking API that waits until the TX buffer has room to
1016:Generated_Source\PSoC5/UART_READER.c ****     *  hold the data.
1017:Generated_Source\PSoC5/UART_READER.c ****     *
1018:Generated_Source\PSoC5/UART_READER.c ****     * Parameters:
1019:Generated_Source\PSoC5/UART_READER.c ****     *  txDataByte: Byte containing the data to transmit
1020:Generated_Source\PSoC5/UART_READER.c ****     *
1021:Generated_Source\PSoC5/UART_READER.c ****     * Return:
1022:Generated_Source\PSoC5/UART_READER.c ****     *  None.
1023:Generated_Source\PSoC5/UART_READER.c ****     *
1024:Generated_Source\PSoC5/UART_READER.c ****     * Global Variables:
1025:Generated_Source\PSoC5/UART_READER.c ****     *  UART_READER_txBuffer - RAM buffer pointer for save data for transmission
1026:Generated_Source\PSoC5/UART_READER.c ****     *  UART_READER_txBufferWrite - cyclic index for write to txBuffer,
1027:Generated_Source\PSoC5/UART_READER.c ****     *     checked to identify free space in txBuffer and incremented after each byte
1028:Generated_Source\PSoC5/UART_READER.c ****     *     saved to buffer.
1029:Generated_Source\PSoC5/UART_READER.c ****     *  UART_READER_txBufferRead - cyclic index for read from txBuffer,
1030:Generated_Source\PSoC5/UART_READER.c ****     *     checked to identify free space in txBuffer.
1031:Generated_Source\PSoC5/UART_READER.c ****     *  UART_READER_initVar - checked to identify that the component has been
1032:Generated_Source\PSoC5/UART_READER.c ****     *     initialized.
1033:Generated_Source\PSoC5/UART_READER.c ****     *
1034:Generated_Source\PSoC5/UART_READER.c ****     * Reentrant:
1035:Generated_Source\PSoC5/UART_READER.c ****     *  No.
1036:Generated_Source\PSoC5/UART_READER.c ****     *
1037:Generated_Source\PSoC5/UART_READER.c ****     * Theory:
1038:Generated_Source\PSoC5/UART_READER.c ****     *  Allows the user to transmit any byte of data in a single transfer
1039:Generated_Source\PSoC5/UART_READER.c ****     *
1040:Generated_Source\PSoC5/UART_READER.c ****     *******************************************************************************/
1041:Generated_Source\PSoC5/UART_READER.c ****     void UART_READER_PutChar(uint8 txDataByte) 
1042:Generated_Source\PSoC5/UART_READER.c ****     {
 631              		.loc 1 1042 0
 632              		.cfi_startproc
 633              		@ args = 0, pretend = 0, frame = 0
 634              		@ frame_needed = 0, uses_anonymous_args = 0
 635              		@ link register save eliminated.
 636              	.LVL28:
 637              	.L67:
1043:Generated_Source\PSoC5/UART_READER.c ****     #if (UART_READER_TX_INTERRUPT_ENABLED)
1044:Generated_Source\PSoC5/UART_READER.c ****         /* The temporary output pointer is used since it takes two instructions
1045:Generated_Source\PSoC5/UART_READER.c ****         *  to increment with a wrap, and we can't risk doing that with the real
1046:Generated_Source\PSoC5/UART_READER.c ****         *  pointer and getting an interrupt in between instructions.
1047:Generated_Source\PSoC5/UART_READER.c ****         */
1048:Generated_Source\PSoC5/UART_READER.c ****         uint8 locTxBufferWrite;
1049:Generated_Source\PSoC5/UART_READER.c ****         uint8 locTxBufferRead;
1050:Generated_Source\PSoC5/UART_READER.c **** 
1051:Generated_Source\PSoC5/UART_READER.c ****         do
1052:Generated_Source\PSoC5/UART_READER.c ****         { /* Block if software buffer is full, so we don't overwrite. */
1053:Generated_Source\PSoC5/UART_READER.c **** 
1054:Generated_Source\PSoC5/UART_READER.c ****         #if ((UART_READER_TX_BUFFER_SIZE > UART_READER_MAX_BYTE_VALUE) && (CY_PSOC3))
1055:Generated_Source\PSoC5/UART_READER.c ****             /* Disable TX interrupt to protect variables from modification */
1056:Generated_Source\PSoC5/UART_READER.c ****             UART_READER_DisableTxInt();
1057:Generated_Source\PSoC5/UART_READER.c ****         #endif /* (UART_READER_TX_BUFFER_SIZE > UART_READER_MAX_BYTE_VALUE) && (CY_PSOC3) */
1058:Generated_Source\PSoC5/UART_READER.c **** 
1059:Generated_Source\PSoC5/UART_READER.c ****             locTxBufferWrite = UART_READER_txBufferWrite;
ARM GAS  C:\Users\yqh\AppData\Local\Temp\cc55pVRK.s 			page 31


1060:Generated_Source\PSoC5/UART_READER.c ****             locTxBufferRead  = UART_READER_txBufferRead;
1061:Generated_Source\PSoC5/UART_READER.c **** 
1062:Generated_Source\PSoC5/UART_READER.c ****         #if ((UART_READER_TX_BUFFER_SIZE > UART_READER_MAX_BYTE_VALUE) && (CY_PSOC3))
1063:Generated_Source\PSoC5/UART_READER.c ****             /* Enable interrupt to continue transmission */
1064:Generated_Source\PSoC5/UART_READER.c ****             UART_READER_EnableTxInt();
1065:Generated_Source\PSoC5/UART_READER.c ****         #endif /* (UART_READER_TX_BUFFER_SIZE > UART_READER_MAX_BYTE_VALUE) && (CY_PSOC3) */
1066:Generated_Source\PSoC5/UART_READER.c ****         }
1067:Generated_Source\PSoC5/UART_READER.c ****         while( (locTxBufferWrite < locTxBufferRead) ? (locTxBufferWrite == (locTxBufferRead - 1u)) 
1068:Generated_Source\PSoC5/UART_READER.c ****                                 ((locTxBufferWrite - locTxBufferRead) ==
1069:Generated_Source\PSoC5/UART_READER.c ****                                 (uint8)(UART_READER_TX_BUFFER_SIZE - 1u)) );
1070:Generated_Source\PSoC5/UART_READER.c **** 
1071:Generated_Source\PSoC5/UART_READER.c ****         if( (locTxBufferRead == locTxBufferWrite) &&
1072:Generated_Source\PSoC5/UART_READER.c ****             ((UART_READER_TXSTATUS_REG & UART_READER_TX_STS_FIFO_FULL) == 0u) )
1073:Generated_Source\PSoC5/UART_READER.c ****         {
1074:Generated_Source\PSoC5/UART_READER.c ****             /* Add directly to the FIFO */
1075:Generated_Source\PSoC5/UART_READER.c ****             UART_READER_TXDATA_REG = txDataByte;
1076:Generated_Source\PSoC5/UART_READER.c ****         }
1077:Generated_Source\PSoC5/UART_READER.c ****         else
1078:Generated_Source\PSoC5/UART_READER.c ****         {
1079:Generated_Source\PSoC5/UART_READER.c ****             if(locTxBufferWrite >= UART_READER_TX_BUFFER_SIZE)
1080:Generated_Source\PSoC5/UART_READER.c ****             {
1081:Generated_Source\PSoC5/UART_READER.c ****                 locTxBufferWrite = 0u;
1082:Generated_Source\PSoC5/UART_READER.c ****             }
1083:Generated_Source\PSoC5/UART_READER.c ****             /* Add to the software buffer. */
1084:Generated_Source\PSoC5/UART_READER.c ****             UART_READER_txBuffer[locTxBufferWrite] = txDataByte;
1085:Generated_Source\PSoC5/UART_READER.c ****             locTxBufferWrite++;
1086:Generated_Source\PSoC5/UART_READER.c **** 
1087:Generated_Source\PSoC5/UART_READER.c ****             /* Finally, update the real output pointer */
1088:Generated_Source\PSoC5/UART_READER.c ****         #if ((UART_READER_TX_BUFFER_SIZE > UART_READER_MAX_BYTE_VALUE) && (CY_PSOC3))
1089:Generated_Source\PSoC5/UART_READER.c ****             UART_READER_DisableTxInt();
1090:Generated_Source\PSoC5/UART_READER.c ****         #endif /* (UART_READER_TX_BUFFER_SIZE > UART_READER_MAX_BYTE_VALUE) && (CY_PSOC3) */
1091:Generated_Source\PSoC5/UART_READER.c **** 
1092:Generated_Source\PSoC5/UART_READER.c ****             UART_READER_txBufferWrite = locTxBufferWrite;
1093:Generated_Source\PSoC5/UART_READER.c **** 
1094:Generated_Source\PSoC5/UART_READER.c ****         #if ((UART_READER_TX_BUFFER_SIZE > UART_READER_MAX_BYTE_VALUE) && (CY_PSOC3))
1095:Generated_Source\PSoC5/UART_READER.c ****             UART_READER_EnableTxInt();
1096:Generated_Source\PSoC5/UART_READER.c ****         #endif /* (UART_READER_TX_BUFFER_SIZE > UART_READER_MAX_BYTE_VALUE) && (CY_PSOC3) */
1097:Generated_Source\PSoC5/UART_READER.c **** 
1098:Generated_Source\PSoC5/UART_READER.c ****             if(0u != (UART_READER_TXSTATUS_REG & UART_READER_TX_STS_FIFO_EMPTY))
1099:Generated_Source\PSoC5/UART_READER.c ****             {
1100:Generated_Source\PSoC5/UART_READER.c ****                 /* Trigger TX interrupt to send software buffer */
1101:Generated_Source\PSoC5/UART_READER.c ****                 UART_READER_SetPendingTxInt();
1102:Generated_Source\PSoC5/UART_READER.c ****             }
1103:Generated_Source\PSoC5/UART_READER.c ****         }
1104:Generated_Source\PSoC5/UART_READER.c **** 
1105:Generated_Source\PSoC5/UART_READER.c ****     #else
1106:Generated_Source\PSoC5/UART_READER.c **** 
1107:Generated_Source\PSoC5/UART_READER.c ****         while((UART_READER_TXSTATUS_REG & UART_READER_TX_STS_FIFO_FULL) != 0u)
 638              		.loc 1 1107 0 discriminator 1
 639 0000 034B     		ldr	r3, .L69
 640 0002 1B78     		ldrb	r3, [r3]	@ zero_extendqisi2
 641 0004 9B06     		lsls	r3, r3, #26
 642 0006 FBD4     		bmi	.L67
1108:Generated_Source\PSoC5/UART_READER.c ****         {
1109:Generated_Source\PSoC5/UART_READER.c ****             /* Wait for room in the FIFO */
1110:Generated_Source\PSoC5/UART_READER.c ****         }
1111:Generated_Source\PSoC5/UART_READER.c **** 
ARM GAS  C:\Users\yqh\AppData\Local\Temp\cc55pVRK.s 			page 32


1112:Generated_Source\PSoC5/UART_READER.c ****         /* Add directly to the FIFO */
1113:Generated_Source\PSoC5/UART_READER.c ****         UART_READER_TXDATA_REG = txDataByte;
 643              		.loc 1 1113 0
 644 0008 024B     		ldr	r3, .L69+4
 645 000a 1870     		strb	r0, [r3]
 646 000c 7047     		bx	lr
 647              	.L70:
 648 000e 00BF     		.align	2
 649              	.L69:
 650 0010 67650040 		.word	1073767783
 651 0014 57650040 		.word	1073767767
 652              		.cfi_endproc
 653              	.LFE19:
 654              		.size	UART_READER_PutChar, .-UART_READER_PutChar
 655              		.section	.text.UART_READER_PutString,"ax",%progbits
 656              		.align	1
 657              		.global	UART_READER_PutString
 658              		.thumb
 659              		.thumb_func
 660              		.type	UART_READER_PutString, %function
 661              	UART_READER_PutString:
 662              	.LFB20:
1114:Generated_Source\PSoC5/UART_READER.c **** 
1115:Generated_Source\PSoC5/UART_READER.c ****     #endif /* UART_READER_TX_INTERRUPT_ENABLED */
1116:Generated_Source\PSoC5/UART_READER.c ****     }
1117:Generated_Source\PSoC5/UART_READER.c **** 
1118:Generated_Source\PSoC5/UART_READER.c **** 
1119:Generated_Source\PSoC5/UART_READER.c ****     /*******************************************************************************
1120:Generated_Source\PSoC5/UART_READER.c ****     * Function Name: UART_READER_PutString
1121:Generated_Source\PSoC5/UART_READER.c ****     ********************************************************************************
1122:Generated_Source\PSoC5/UART_READER.c ****     *
1123:Generated_Source\PSoC5/UART_READER.c ****     * Summary:
1124:Generated_Source\PSoC5/UART_READER.c ****     *  Sends a NULL terminated string to the TX buffer for transmission.
1125:Generated_Source\PSoC5/UART_READER.c ****     *
1126:Generated_Source\PSoC5/UART_READER.c ****     * Parameters:
1127:Generated_Source\PSoC5/UART_READER.c ****     *  string[]: Pointer to the null terminated string array residing in RAM or ROM
1128:Generated_Source\PSoC5/UART_READER.c ****     *
1129:Generated_Source\PSoC5/UART_READER.c ****     * Return:
1130:Generated_Source\PSoC5/UART_READER.c ****     *  None.
1131:Generated_Source\PSoC5/UART_READER.c ****     *
1132:Generated_Source\PSoC5/UART_READER.c ****     * Global Variables:
1133:Generated_Source\PSoC5/UART_READER.c ****     *  UART_READER_initVar - checked to identify that the component has been
1134:Generated_Source\PSoC5/UART_READER.c ****     *     initialized.
1135:Generated_Source\PSoC5/UART_READER.c ****     *
1136:Generated_Source\PSoC5/UART_READER.c ****     * Reentrant:
1137:Generated_Source\PSoC5/UART_READER.c ****     *  No.
1138:Generated_Source\PSoC5/UART_READER.c ****     *
1139:Generated_Source\PSoC5/UART_READER.c ****     * Theory:
1140:Generated_Source\PSoC5/UART_READER.c ****     *  If there is not enough memory in the TX buffer for the entire string, this
1141:Generated_Source\PSoC5/UART_READER.c ****     *  function blocks until the last character of the string is loaded into the
1142:Generated_Source\PSoC5/UART_READER.c ****     *  TX buffer.
1143:Generated_Source\PSoC5/UART_READER.c ****     *
1144:Generated_Source\PSoC5/UART_READER.c ****     *******************************************************************************/
1145:Generated_Source\PSoC5/UART_READER.c ****     void UART_READER_PutString(const char8 string[]) 
1146:Generated_Source\PSoC5/UART_READER.c ****     {
 663              		.loc 1 1146 0
 664              		.cfi_startproc
ARM GAS  C:\Users\yqh\AppData\Local\Temp\cc55pVRK.s 			page 33


 665              		@ args = 0, pretend = 0, frame = 0
 666              		@ frame_needed = 0, uses_anonymous_args = 0
 667              	.LVL29:
 668 0000 38B5     		push	{r3, r4, r5, lr}
 669              		.cfi_def_cfa_offset 16
 670              		.cfi_offset 3, -16
 671              		.cfi_offset 4, -12
 672              		.cfi_offset 5, -8
 673              		.cfi_offset 14, -4
1147:Generated_Source\PSoC5/UART_READER.c ****         uint16 bufIndex = 0u;
1148:Generated_Source\PSoC5/UART_READER.c **** 
1149:Generated_Source\PSoC5/UART_READER.c ****         /* If not Initialized then skip this function */
1150:Generated_Source\PSoC5/UART_READER.c ****         if(UART_READER_initVar != 0u)
 674              		.loc 1 1150 0
 675 0002 074B     		ldr	r3, .L77
1146:Generated_Source\PSoC5/UART_READER.c ****         uint16 bufIndex = 0u;
 676              		.loc 1 1146 0
 677 0004 0546     		mov	r5, r0
 678              		.loc 1 1150 0
 679 0006 1B78     		ldrb	r3, [r3]	@ zero_extendqisi2
 680 0008 03B9     		cbnz	r3, .L75
 681 000a 38BD     		pop	{r3, r4, r5, pc}
 682              	.L75:
 683 000c 0024     		movs	r4, #0
 684              	.LVL30:
 685              	.L72:
1151:Generated_Source\PSoC5/UART_READER.c ****         {
1152:Generated_Source\PSoC5/UART_READER.c ****             /* This is a blocking function, it will not exit until all data is sent */
1153:Generated_Source\PSoC5/UART_READER.c ****             while(string[bufIndex] != (char8) 0)
 686              		.loc 1 1153 0
 687 000e A3B2     		uxth	r3, r4
 688              	.LVL31:
 689 0010 E85C     		ldrb	r0, [r5, r3]	@ zero_extendqisi2
 690 0012 0134     		adds	r4, r4, #1
 691 0014 10B1     		cbz	r0, .L76
1154:Generated_Source\PSoC5/UART_READER.c ****             {
1155:Generated_Source\PSoC5/UART_READER.c ****                 UART_READER_PutChar((uint8)string[bufIndex]);
 692              		.loc 1 1155 0
 693 0016 FFF7FEFF 		bl	UART_READER_PutChar
 694              	.LVL32:
 695 001a F8E7     		b	.L72
 696              	.LVL33:
 697              	.L76:
 698 001c 38BD     		pop	{r3, r4, r5, pc}
 699              	.LVL34:
 700              	.L78:
 701 001e 00BF     		.align	2
 702              	.L77:
 703 0020 00000000 		.word	.LANCHOR0
 704              		.cfi_endproc
 705              	.LFE20:
 706              		.size	UART_READER_PutString, .-UART_READER_PutString
 707              		.section	.text.UART_READER_PutArray,"ax",%progbits
 708              		.align	1
 709              		.global	UART_READER_PutArray
 710              		.thumb
 711              		.thumb_func
ARM GAS  C:\Users\yqh\AppData\Local\Temp\cc55pVRK.s 			page 34


 712              		.type	UART_READER_PutArray, %function
 713              	UART_READER_PutArray:
 714              	.LFB21:
1156:Generated_Source\PSoC5/UART_READER.c ****                 bufIndex++;
1157:Generated_Source\PSoC5/UART_READER.c ****             }
1158:Generated_Source\PSoC5/UART_READER.c ****         }
1159:Generated_Source\PSoC5/UART_READER.c ****     }
1160:Generated_Source\PSoC5/UART_READER.c **** 
1161:Generated_Source\PSoC5/UART_READER.c **** 
1162:Generated_Source\PSoC5/UART_READER.c ****     /*******************************************************************************
1163:Generated_Source\PSoC5/UART_READER.c ****     * Function Name: UART_READER_PutArray
1164:Generated_Source\PSoC5/UART_READER.c ****     ********************************************************************************
1165:Generated_Source\PSoC5/UART_READER.c ****     *
1166:Generated_Source\PSoC5/UART_READER.c ****     * Summary:
1167:Generated_Source\PSoC5/UART_READER.c ****     *  Places N bytes of data from a memory array into the TX buffer for
1168:Generated_Source\PSoC5/UART_READER.c ****     *  transmission.
1169:Generated_Source\PSoC5/UART_READER.c ****     *
1170:Generated_Source\PSoC5/UART_READER.c ****     * Parameters:
1171:Generated_Source\PSoC5/UART_READER.c ****     *  string[]: Address of the memory array residing in RAM or ROM.
1172:Generated_Source\PSoC5/UART_READER.c ****     *  byteCount: Number of bytes to be transmitted. The type depends on TX Buffer
1173:Generated_Source\PSoC5/UART_READER.c ****     *             Size parameter.
1174:Generated_Source\PSoC5/UART_READER.c ****     *
1175:Generated_Source\PSoC5/UART_READER.c ****     * Return:
1176:Generated_Source\PSoC5/UART_READER.c ****     *  None.
1177:Generated_Source\PSoC5/UART_READER.c ****     *
1178:Generated_Source\PSoC5/UART_READER.c ****     * Global Variables:
1179:Generated_Source\PSoC5/UART_READER.c ****     *  UART_READER_initVar - checked to identify that the component has been
1180:Generated_Source\PSoC5/UART_READER.c ****     *     initialized.
1181:Generated_Source\PSoC5/UART_READER.c ****     *
1182:Generated_Source\PSoC5/UART_READER.c ****     * Reentrant:
1183:Generated_Source\PSoC5/UART_READER.c ****     *  No.
1184:Generated_Source\PSoC5/UART_READER.c ****     *
1185:Generated_Source\PSoC5/UART_READER.c ****     * Theory:
1186:Generated_Source\PSoC5/UART_READER.c ****     *  If there is not enough memory in the TX buffer for the entire string, this
1187:Generated_Source\PSoC5/UART_READER.c ****     *  function blocks until the last character of the string is loaded into the
1188:Generated_Source\PSoC5/UART_READER.c ****     *  TX buffer.
1189:Generated_Source\PSoC5/UART_READER.c ****     *
1190:Generated_Source\PSoC5/UART_READER.c ****     *******************************************************************************/
1191:Generated_Source\PSoC5/UART_READER.c ****     void UART_READER_PutArray(const uint8 string[], uint8 byteCount)
1192:Generated_Source\PSoC5/UART_READER.c ****                                                                     
1193:Generated_Source\PSoC5/UART_READER.c ****     {
 715              		.loc 1 1193 0
 716              		.cfi_startproc
 717              		@ args = 0, pretend = 0, frame = 0
 718              		@ frame_needed = 0, uses_anonymous_args = 0
 719              	.LVL35:
 720 0000 38B5     		push	{r3, r4, r5, lr}
 721              		.cfi_def_cfa_offset 16
 722              		.cfi_offset 3, -16
 723              		.cfi_offset 4, -12
 724              		.cfi_offset 5, -8
 725              		.cfi_offset 14, -4
1194:Generated_Source\PSoC5/UART_READER.c ****         uint8 bufIndex = 0u;
1195:Generated_Source\PSoC5/UART_READER.c **** 
1196:Generated_Source\PSoC5/UART_READER.c ****         /* If not Initialized then skip this function */
1197:Generated_Source\PSoC5/UART_READER.c ****         if(UART_READER_initVar != 0u)
 726              		.loc 1 1197 0
ARM GAS  C:\Users\yqh\AppData\Local\Temp\cc55pVRK.s 			page 35


 727 0002 074B     		ldr	r3, .L84
 728 0004 1B78     		ldrb	r3, [r3]	@ zero_extendqisi2
 729 0006 4BB1     		cbz	r3, .L79
 730 0008 0139     		subs	r1, r1, #1
 731              	.LVL36:
 732 000a 451E     		subs	r5, r0, #1
 733 000c 4418     		adds	r4, r0, r1
 734              	.LVL37:
 735              	.L81:
1198:Generated_Source\PSoC5/UART_READER.c ****         {
1199:Generated_Source\PSoC5/UART_READER.c ****             while(bufIndex < byteCount)
 736              		.loc 1 1199 0
 737 000e A542     		cmp	r5, r4
 738 0010 04D0     		beq	.L79
1200:Generated_Source\PSoC5/UART_READER.c ****             {
1201:Generated_Source\PSoC5/UART_READER.c ****                 UART_READER_PutChar(string[bufIndex]);
 739              		.loc 1 1201 0
 740 0012 15F8010F 		ldrb	r0, [r5, #1]!	@ zero_extendqisi2
 741              	.LVL38:
 742 0016 FFF7FEFF 		bl	UART_READER_PutChar
 743              	.LVL39:
 744 001a F8E7     		b	.L81
 745              	.LVL40:
 746              	.L79:
 747 001c 38BD     		pop	{r3, r4, r5, pc}
 748              	.L85:
 749 001e 00BF     		.align	2
 750              	.L84:
 751 0020 00000000 		.word	.LANCHOR0
 752              		.cfi_endproc
 753              	.LFE21:
 754              		.size	UART_READER_PutArray, .-UART_READER_PutArray
 755              		.section	.text.UART_READER_PutCRLF,"ax",%progbits
 756              		.align	1
 757              		.global	UART_READER_PutCRLF
 758              		.thumb
 759              		.thumb_func
 760              		.type	UART_READER_PutCRLF, %function
 761              	UART_READER_PutCRLF:
 762              	.LFB22:
1202:Generated_Source\PSoC5/UART_READER.c ****                 bufIndex++;
1203:Generated_Source\PSoC5/UART_READER.c ****             }
1204:Generated_Source\PSoC5/UART_READER.c ****         }
1205:Generated_Source\PSoC5/UART_READER.c ****     }
1206:Generated_Source\PSoC5/UART_READER.c **** 
1207:Generated_Source\PSoC5/UART_READER.c **** 
1208:Generated_Source\PSoC5/UART_READER.c ****     /*******************************************************************************
1209:Generated_Source\PSoC5/UART_READER.c ****     * Function Name: UART_READER_PutCRLF
1210:Generated_Source\PSoC5/UART_READER.c ****     ********************************************************************************
1211:Generated_Source\PSoC5/UART_READER.c ****     *
1212:Generated_Source\PSoC5/UART_READER.c ****     * Summary:
1213:Generated_Source\PSoC5/UART_READER.c ****     *  Writes a byte of data followed by a carriage return (0x0D) and line feed
1214:Generated_Source\PSoC5/UART_READER.c ****     *  (0x0A) to the transmit buffer.
1215:Generated_Source\PSoC5/UART_READER.c ****     *
1216:Generated_Source\PSoC5/UART_READER.c ****     * Parameters:
1217:Generated_Source\PSoC5/UART_READER.c ****     *  txDataByte: Data byte to transmit before the carriage return and line feed.
1218:Generated_Source\PSoC5/UART_READER.c ****     *
ARM GAS  C:\Users\yqh\AppData\Local\Temp\cc55pVRK.s 			page 36


1219:Generated_Source\PSoC5/UART_READER.c ****     * Return:
1220:Generated_Source\PSoC5/UART_READER.c ****     *  None.
1221:Generated_Source\PSoC5/UART_READER.c ****     *
1222:Generated_Source\PSoC5/UART_READER.c ****     * Global Variables:
1223:Generated_Source\PSoC5/UART_READER.c ****     *  UART_READER_initVar - checked to identify that the component has been
1224:Generated_Source\PSoC5/UART_READER.c ****     *     initialized.
1225:Generated_Source\PSoC5/UART_READER.c ****     *
1226:Generated_Source\PSoC5/UART_READER.c ****     * Reentrant:
1227:Generated_Source\PSoC5/UART_READER.c ****     *  No.
1228:Generated_Source\PSoC5/UART_READER.c ****     *
1229:Generated_Source\PSoC5/UART_READER.c ****     *******************************************************************************/
1230:Generated_Source\PSoC5/UART_READER.c ****     void UART_READER_PutCRLF(uint8 txDataByte) 
1231:Generated_Source\PSoC5/UART_READER.c ****     {
 763              		.loc 1 1231 0
 764              		.cfi_startproc
 765              		@ args = 0, pretend = 0, frame = 0
 766              		@ frame_needed = 0, uses_anonymous_args = 0
 767              	.LVL41:
 768 0000 08B5     		push	{r3, lr}
 769              		.cfi_def_cfa_offset 8
 770              		.cfi_offset 3, -8
 771              		.cfi_offset 14, -4
1232:Generated_Source\PSoC5/UART_READER.c ****         /* If not Initialized then skip this function */
1233:Generated_Source\PSoC5/UART_READER.c ****         if(UART_READER_initVar != 0u)
 772              		.loc 1 1233 0
 773 0002 074B     		ldr	r3, .L88
 774 0004 1B78     		ldrb	r3, [r3]	@ zero_extendqisi2
 775 0006 4BB1     		cbz	r3, .L86
1234:Generated_Source\PSoC5/UART_READER.c ****         {
1235:Generated_Source\PSoC5/UART_READER.c ****             UART_READER_PutChar(txDataByte);
 776              		.loc 1 1235 0
 777 0008 FFF7FEFF 		bl	UART_READER_PutChar
 778              	.LVL42:
1236:Generated_Source\PSoC5/UART_READER.c ****             UART_READER_PutChar(0x0Du);
 779              		.loc 1 1236 0
 780 000c 0D20     		movs	r0, #13
 781 000e FFF7FEFF 		bl	UART_READER_PutChar
 782              	.LVL43:
1237:Generated_Source\PSoC5/UART_READER.c ****             UART_READER_PutChar(0x0Au);
1238:Generated_Source\PSoC5/UART_READER.c ****         }
1239:Generated_Source\PSoC5/UART_READER.c ****     }
 783              		.loc 1 1239 0
 784 0012 BDE80840 		pop	{r3, lr}
 785              		.cfi_remember_state
 786              		.cfi_restore 14
 787              		.cfi_restore 3
 788              		.cfi_def_cfa_offset 0
1237:Generated_Source\PSoC5/UART_READER.c ****             UART_READER_PutChar(0x0Au);
 789              		.loc 1 1237 0
 790 0016 0A20     		movs	r0, #10
 791 0018 FFF7FEBF 		b	UART_READER_PutChar
 792              	.LVL44:
 793              	.L86:
 794              		.cfi_restore_state
 795 001c 08BD     		pop	{r3, pc}
 796              	.L89:
 797 001e 00BF     		.align	2
ARM GAS  C:\Users\yqh\AppData\Local\Temp\cc55pVRK.s 			page 37


 798              	.L88:
 799 0020 00000000 		.word	.LANCHOR0
 800              		.cfi_endproc
 801              	.LFE22:
 802              		.size	UART_READER_PutCRLF, .-UART_READER_PutCRLF
 803              		.section	.text.UART_READER_GetTxBufferSize,"ax",%progbits
 804              		.align	1
 805              		.global	UART_READER_GetTxBufferSize
 806              		.thumb
 807              		.thumb_func
 808              		.type	UART_READER_GetTxBufferSize, %function
 809              	UART_READER_GetTxBufferSize:
 810              	.LFB23:
1240:Generated_Source\PSoC5/UART_READER.c **** 
1241:Generated_Source\PSoC5/UART_READER.c **** 
1242:Generated_Source\PSoC5/UART_READER.c ****     /*******************************************************************************
1243:Generated_Source\PSoC5/UART_READER.c ****     * Function Name: UART_READER_GetTxBufferSize
1244:Generated_Source\PSoC5/UART_READER.c ****     ********************************************************************************
1245:Generated_Source\PSoC5/UART_READER.c ****     *
1246:Generated_Source\PSoC5/UART_READER.c ****     * Summary:
1247:Generated_Source\PSoC5/UART_READER.c ****     *  Returns the number of bytes in the TX buffer which are waiting to be 
1248:Generated_Source\PSoC5/UART_READER.c ****     *  transmitted.
1249:Generated_Source\PSoC5/UART_READER.c ****     *  * TX software buffer is disabled (TX Buffer Size parameter is equal to 4): 
1250:Generated_Source\PSoC5/UART_READER.c ****     *    returns 0 for empty TX FIFO, 1 for not full TX FIFO or 4 for full TX FIFO.
1251:Generated_Source\PSoC5/UART_READER.c ****     *  * TX software buffer is enabled: returns the number of bytes in the TX 
1252:Generated_Source\PSoC5/UART_READER.c ****     *    software buffer which are waiting to be transmitted. Bytes available in the
1253:Generated_Source\PSoC5/UART_READER.c ****     *    TX FIFO do not count.
1254:Generated_Source\PSoC5/UART_READER.c ****     *
1255:Generated_Source\PSoC5/UART_READER.c ****     * Parameters:
1256:Generated_Source\PSoC5/UART_READER.c ****     *  None.
1257:Generated_Source\PSoC5/UART_READER.c ****     *
1258:Generated_Source\PSoC5/UART_READER.c ****     * Return:
1259:Generated_Source\PSoC5/UART_READER.c ****     *  Number of bytes used in the TX buffer. Return value type depends on the TX 
1260:Generated_Source\PSoC5/UART_READER.c ****     *  Buffer Size parameter.
1261:Generated_Source\PSoC5/UART_READER.c ****     *
1262:Generated_Source\PSoC5/UART_READER.c ****     * Global Variables:
1263:Generated_Source\PSoC5/UART_READER.c ****     *  UART_READER_txBufferWrite - used to calculate left space.
1264:Generated_Source\PSoC5/UART_READER.c ****     *  UART_READER_txBufferRead - used to calculate left space.
1265:Generated_Source\PSoC5/UART_READER.c ****     *
1266:Generated_Source\PSoC5/UART_READER.c ****     * Reentrant:
1267:Generated_Source\PSoC5/UART_READER.c ****     *  No.
1268:Generated_Source\PSoC5/UART_READER.c ****     *
1269:Generated_Source\PSoC5/UART_READER.c ****     * Theory:
1270:Generated_Source\PSoC5/UART_READER.c ****     *  Allows the user to find out how full the TX Buffer is.
1271:Generated_Source\PSoC5/UART_READER.c ****     *
1272:Generated_Source\PSoC5/UART_READER.c ****     *******************************************************************************/
1273:Generated_Source\PSoC5/UART_READER.c ****     uint8 UART_READER_GetTxBufferSize(void)
1274:Generated_Source\PSoC5/UART_READER.c ****                                                             
1275:Generated_Source\PSoC5/UART_READER.c ****     {
 811              		.loc 1 1275 0
 812              		.cfi_startproc
 813              		@ args = 0, pretend = 0, frame = 0
 814              		@ frame_needed = 0, uses_anonymous_args = 0
 815              		@ link register save eliminated.
1276:Generated_Source\PSoC5/UART_READER.c ****         uint8 size;
1277:Generated_Source\PSoC5/UART_READER.c **** 
1278:Generated_Source\PSoC5/UART_READER.c ****     #if (UART_READER_TX_INTERRUPT_ENABLED)
ARM GAS  C:\Users\yqh\AppData\Local\Temp\cc55pVRK.s 			page 38


1279:Generated_Source\PSoC5/UART_READER.c **** 
1280:Generated_Source\PSoC5/UART_READER.c ****         /* Protect variables that could change on interrupt. */
1281:Generated_Source\PSoC5/UART_READER.c ****         UART_READER_DisableTxInt();
1282:Generated_Source\PSoC5/UART_READER.c **** 
1283:Generated_Source\PSoC5/UART_READER.c ****         if(UART_READER_txBufferRead == UART_READER_txBufferWrite)
1284:Generated_Source\PSoC5/UART_READER.c ****         {
1285:Generated_Source\PSoC5/UART_READER.c ****             size = 0u;
1286:Generated_Source\PSoC5/UART_READER.c ****         }
1287:Generated_Source\PSoC5/UART_READER.c ****         else if(UART_READER_txBufferRead < UART_READER_txBufferWrite)
1288:Generated_Source\PSoC5/UART_READER.c ****         {
1289:Generated_Source\PSoC5/UART_READER.c ****             size = (UART_READER_txBufferWrite - UART_READER_txBufferRead);
1290:Generated_Source\PSoC5/UART_READER.c ****         }
1291:Generated_Source\PSoC5/UART_READER.c ****         else
1292:Generated_Source\PSoC5/UART_READER.c ****         {
1293:Generated_Source\PSoC5/UART_READER.c ****             size = (UART_READER_TX_BUFFER_SIZE - UART_READER_txBufferRead) +
1294:Generated_Source\PSoC5/UART_READER.c ****                     UART_READER_txBufferWrite;
1295:Generated_Source\PSoC5/UART_READER.c ****         }
1296:Generated_Source\PSoC5/UART_READER.c **** 
1297:Generated_Source\PSoC5/UART_READER.c ****         UART_READER_EnableTxInt();
1298:Generated_Source\PSoC5/UART_READER.c **** 
1299:Generated_Source\PSoC5/UART_READER.c ****     #else
1300:Generated_Source\PSoC5/UART_READER.c **** 
1301:Generated_Source\PSoC5/UART_READER.c ****         size = UART_READER_TXSTATUS_REG;
 816              		.loc 1 1301 0
 817 0000 054B     		ldr	r3, .L93
 818 0002 1878     		ldrb	r0, [r3]	@ zero_extendqisi2
 819 0004 C0B2     		uxtb	r0, r0
 820              	.LVL45:
1302:Generated_Source\PSoC5/UART_READER.c **** 
1303:Generated_Source\PSoC5/UART_READER.c ****         /* Is the fifo is full. */
1304:Generated_Source\PSoC5/UART_READER.c ****         if((size & UART_READER_TX_STS_FIFO_FULL) != 0u)
 821              		.loc 1 1304 0
 822 0006 8306     		lsls	r3, r0, #26
1305:Generated_Source\PSoC5/UART_READER.c ****         {
1306:Generated_Source\PSoC5/UART_READER.c ****             size = UART_READER_FIFO_LENGTH;
1307:Generated_Source\PSoC5/UART_READER.c ****         }
1308:Generated_Source\PSoC5/UART_READER.c ****         else if((size & UART_READER_TX_STS_FIFO_EMPTY) != 0u)
 823              		.loc 1 1308 0
 824 0008 5ABF     		itte	pl
 825 000a 80F00200 		eorpl	r0, r0, #2
 826              	.LVL46:
 827 000e C0F34000 		ubfxpl	r0, r0, #1, #1
1306:Generated_Source\PSoC5/UART_READER.c ****         }
 828              		.loc 1 1306 0
 829 0012 0420     		movmi	r0, #4
 830              	.LVL47:
1309:Generated_Source\PSoC5/UART_READER.c ****         {
1310:Generated_Source\PSoC5/UART_READER.c ****             size = 0u;
1311:Generated_Source\PSoC5/UART_READER.c ****         }
1312:Generated_Source\PSoC5/UART_READER.c ****         else
1313:Generated_Source\PSoC5/UART_READER.c ****         {
1314:Generated_Source\PSoC5/UART_READER.c ****             /* We only know there is data in the fifo. */
1315:Generated_Source\PSoC5/UART_READER.c ****             size = 1u;
1316:Generated_Source\PSoC5/UART_READER.c ****         }
1317:Generated_Source\PSoC5/UART_READER.c **** 
1318:Generated_Source\PSoC5/UART_READER.c ****     #endif /* (UART_READER_TX_INTERRUPT_ENABLED) */
1319:Generated_Source\PSoC5/UART_READER.c **** 
ARM GAS  C:\Users\yqh\AppData\Local\Temp\cc55pVRK.s 			page 39


1320:Generated_Source\PSoC5/UART_READER.c ****     return(size);
1321:Generated_Source\PSoC5/UART_READER.c ****     }
 831              		.loc 1 1321 0
 832 0014 7047     		bx	lr
 833              	.L94:
 834 0016 00BF     		.align	2
 835              	.L93:
 836 0018 67650040 		.word	1073767783
 837              		.cfi_endproc
 838              	.LFE23:
 839              		.size	UART_READER_GetTxBufferSize, .-UART_READER_GetTxBufferSize
 840              		.section	.text.UART_READER_ClearTxBuffer,"ax",%progbits
 841              		.align	1
 842              		.global	UART_READER_ClearTxBuffer
 843              		.thumb
 844              		.thumb_func
 845              		.type	UART_READER_ClearTxBuffer, %function
 846              	UART_READER_ClearTxBuffer:
 847              	.LFB24:
1322:Generated_Source\PSoC5/UART_READER.c **** 
1323:Generated_Source\PSoC5/UART_READER.c **** 
1324:Generated_Source\PSoC5/UART_READER.c ****     /*******************************************************************************
1325:Generated_Source\PSoC5/UART_READER.c ****     * Function Name: UART_READER_ClearTxBuffer
1326:Generated_Source\PSoC5/UART_READER.c ****     ********************************************************************************
1327:Generated_Source\PSoC5/UART_READER.c ****     *
1328:Generated_Source\PSoC5/UART_READER.c ****     * Summary:
1329:Generated_Source\PSoC5/UART_READER.c ****     *  Clears all data from the TX buffer and hardware TX FIFO.
1330:Generated_Source\PSoC5/UART_READER.c ****     *
1331:Generated_Source\PSoC5/UART_READER.c ****     * Parameters:
1332:Generated_Source\PSoC5/UART_READER.c ****     *  None.
1333:Generated_Source\PSoC5/UART_READER.c ****     *
1334:Generated_Source\PSoC5/UART_READER.c ****     * Return:
1335:Generated_Source\PSoC5/UART_READER.c ****     *  None.
1336:Generated_Source\PSoC5/UART_READER.c ****     *
1337:Generated_Source\PSoC5/UART_READER.c ****     * Global Variables:
1338:Generated_Source\PSoC5/UART_READER.c ****     *  UART_READER_txBufferWrite - cleared to zero.
1339:Generated_Source\PSoC5/UART_READER.c ****     *  UART_READER_txBufferRead - cleared to zero.
1340:Generated_Source\PSoC5/UART_READER.c ****     *
1341:Generated_Source\PSoC5/UART_READER.c ****     * Reentrant:
1342:Generated_Source\PSoC5/UART_READER.c ****     *  No.
1343:Generated_Source\PSoC5/UART_READER.c ****     *
1344:Generated_Source\PSoC5/UART_READER.c ****     * Theory:
1345:Generated_Source\PSoC5/UART_READER.c ****     *  Setting the pointers to zero makes the system believe there is no data to
1346:Generated_Source\PSoC5/UART_READER.c ****     *  read and writing will resume at address 0 overwriting any data that may have
1347:Generated_Source\PSoC5/UART_READER.c ****     *  remained in the RAM.
1348:Generated_Source\PSoC5/UART_READER.c ****     *
1349:Generated_Source\PSoC5/UART_READER.c ****     * Side Effects:
1350:Generated_Source\PSoC5/UART_READER.c ****     *  Data waiting in the transmit buffer is not sent; a byte that is currently
1351:Generated_Source\PSoC5/UART_READER.c ****     *  transmitting finishes transmitting.
1352:Generated_Source\PSoC5/UART_READER.c ****     *
1353:Generated_Source\PSoC5/UART_READER.c ****     *******************************************************************************/
1354:Generated_Source\PSoC5/UART_READER.c ****     void UART_READER_ClearTxBuffer(void) 
1355:Generated_Source\PSoC5/UART_READER.c ****     {
 848              		.loc 1 1355 0
 849              		.cfi_startproc
 850              		@ args = 0, pretend = 0, frame = 0
 851              		@ frame_needed = 0, uses_anonymous_args = 0
ARM GAS  C:\Users\yqh\AppData\Local\Temp\cc55pVRK.s 			page 40


 852 0000 08B5     		push	{r3, lr}
 853              		.cfi_def_cfa_offset 8
 854              		.cfi_offset 3, -8
 855              		.cfi_offset 14, -4
1356:Generated_Source\PSoC5/UART_READER.c ****         uint8 enableInterrupts;
1357:Generated_Source\PSoC5/UART_READER.c **** 
1358:Generated_Source\PSoC5/UART_READER.c ****         enableInterrupts = CyEnterCriticalSection();
 856              		.loc 1 1358 0
 857 0002 FFF7FEFF 		bl	CyEnterCriticalSection
 858              	.LVL48:
1359:Generated_Source\PSoC5/UART_READER.c ****         /* Clear the HW FIFO */
1360:Generated_Source\PSoC5/UART_READER.c ****         UART_READER_TXDATA_AUX_CTL_REG |= (uint8)  UART_READER_TX_FIFO_CLR;
 859              		.loc 1 1360 0
 860 0006 064B     		ldr	r3, .L96
 861 0008 1A78     		ldrb	r2, [r3]	@ zero_extendqisi2
 862 000a 42F00202 		orr	r2, r2, #2
 863 000e 1A70     		strb	r2, [r3]
1361:Generated_Source\PSoC5/UART_READER.c ****         UART_READER_TXDATA_AUX_CTL_REG &= (uint8) ~UART_READER_TX_FIFO_CLR;
 864              		.loc 1 1361 0
 865 0010 1A78     		ldrb	r2, [r3]	@ zero_extendqisi2
 866 0012 02F0FD02 		and	r2, r2, #253
 867 0016 1A70     		strb	r2, [r3]
1362:Generated_Source\PSoC5/UART_READER.c ****         CyExitCriticalSection(enableInterrupts);
1363:Generated_Source\PSoC5/UART_READER.c **** 
1364:Generated_Source\PSoC5/UART_READER.c ****     #if (UART_READER_TX_INTERRUPT_ENABLED)
1365:Generated_Source\PSoC5/UART_READER.c **** 
1366:Generated_Source\PSoC5/UART_READER.c ****         /* Protect variables that could change on interrupt. */
1367:Generated_Source\PSoC5/UART_READER.c ****         UART_READER_DisableTxInt();
1368:Generated_Source\PSoC5/UART_READER.c **** 
1369:Generated_Source\PSoC5/UART_READER.c ****         UART_READER_txBufferRead = 0u;
1370:Generated_Source\PSoC5/UART_READER.c ****         UART_READER_txBufferWrite = 0u;
1371:Generated_Source\PSoC5/UART_READER.c **** 
1372:Generated_Source\PSoC5/UART_READER.c ****         /* Enable Tx interrupt. */
1373:Generated_Source\PSoC5/UART_READER.c ****         UART_READER_EnableTxInt();
1374:Generated_Source\PSoC5/UART_READER.c **** 
1375:Generated_Source\PSoC5/UART_READER.c ****     #endif /* (UART_READER_TX_INTERRUPT_ENABLED) */
1376:Generated_Source\PSoC5/UART_READER.c ****     }
 868              		.loc 1 1376 0
 869 0018 BDE80840 		pop	{r3, lr}
 870              		.cfi_restore 14
 871              		.cfi_restore 3
 872              		.cfi_def_cfa_offset 0
1362:Generated_Source\PSoC5/UART_READER.c ****         CyExitCriticalSection(enableInterrupts);
 873              		.loc 1 1362 0
 874 001c FFF7FEBF 		b	CyExitCriticalSection
 875              	.LVL49:
 876              	.L97:
 877              		.align	2
 878              	.L96:
 879 0020 97650040 		.word	1073767831
 880              		.cfi_endproc
 881              	.LFE24:
 882              		.size	UART_READER_ClearTxBuffer, .-UART_READER_ClearTxBuffer
 883              		.section	.text.UART_READER_SendBreak,"ax",%progbits
 884              		.align	1
 885              		.global	UART_READER_SendBreak
 886              		.thumb
ARM GAS  C:\Users\yqh\AppData\Local\Temp\cc55pVRK.s 			page 41


 887              		.thumb_func
 888              		.type	UART_READER_SendBreak, %function
 889              	UART_READER_SendBreak:
 890              	.LFB25:
1377:Generated_Source\PSoC5/UART_READER.c **** 
1378:Generated_Source\PSoC5/UART_READER.c **** 
1379:Generated_Source\PSoC5/UART_READER.c ****     /*******************************************************************************
1380:Generated_Source\PSoC5/UART_READER.c ****     * Function Name: UART_READER_SendBreak
1381:Generated_Source\PSoC5/UART_READER.c ****     ********************************************************************************
1382:Generated_Source\PSoC5/UART_READER.c ****     *
1383:Generated_Source\PSoC5/UART_READER.c ****     * Summary:
1384:Generated_Source\PSoC5/UART_READER.c ****     *  Transmits a break signal on the bus.
1385:Generated_Source\PSoC5/UART_READER.c ****     *
1386:Generated_Source\PSoC5/UART_READER.c ****     * Parameters:
1387:Generated_Source\PSoC5/UART_READER.c ****     *  uint8 retMode:  Send Break return mode. See the following table for options.
1388:Generated_Source\PSoC5/UART_READER.c ****     *   UART_READER_SEND_BREAK - Initialize registers for break, send the Break
1389:Generated_Source\PSoC5/UART_READER.c ****     *       signal and return immediately.
1390:Generated_Source\PSoC5/UART_READER.c ****     *   UART_READER_WAIT_FOR_COMPLETE_REINIT - Wait until break transmission is
1391:Generated_Source\PSoC5/UART_READER.c ****     *       complete, reinitialize registers to normal transmission mode then return
1392:Generated_Source\PSoC5/UART_READER.c ****     *   UART_READER_REINIT - Reinitialize registers to normal transmission mode
1393:Generated_Source\PSoC5/UART_READER.c ****     *       then return.
1394:Generated_Source\PSoC5/UART_READER.c ****     *   UART_READER_SEND_WAIT_REINIT - Performs both options: 
1395:Generated_Source\PSoC5/UART_READER.c ****     *      UART_READER_SEND_BREAK and UART_READER_WAIT_FOR_COMPLETE_REINIT.
1396:Generated_Source\PSoC5/UART_READER.c ****     *      This option is recommended for most cases.
1397:Generated_Source\PSoC5/UART_READER.c ****     *
1398:Generated_Source\PSoC5/UART_READER.c ****     * Return:
1399:Generated_Source\PSoC5/UART_READER.c ****     *  None.
1400:Generated_Source\PSoC5/UART_READER.c ****     *
1401:Generated_Source\PSoC5/UART_READER.c ****     * Global Variables:
1402:Generated_Source\PSoC5/UART_READER.c ****     *  UART_READER_initVar - checked to identify that the component has been
1403:Generated_Source\PSoC5/UART_READER.c ****     *     initialized.
1404:Generated_Source\PSoC5/UART_READER.c ****     *  txPeriod - static variable, used for keeping TX period configuration.
1405:Generated_Source\PSoC5/UART_READER.c ****     *
1406:Generated_Source\PSoC5/UART_READER.c ****     * Reentrant:
1407:Generated_Source\PSoC5/UART_READER.c ****     *  No.
1408:Generated_Source\PSoC5/UART_READER.c ****     *
1409:Generated_Source\PSoC5/UART_READER.c ****     * Theory:
1410:Generated_Source\PSoC5/UART_READER.c ****     *  SendBreak function initializes registers to send 13-bit break signal. It is
1411:Generated_Source\PSoC5/UART_READER.c ****     *  important to return the registers configuration to normal for continue 8-bit
1412:Generated_Source\PSoC5/UART_READER.c ****     *  operation.
1413:Generated_Source\PSoC5/UART_READER.c ****     *  There are 3 variants for this API usage:
1414:Generated_Source\PSoC5/UART_READER.c ****     *  1) SendBreak(3) - function will send the Break signal and take care on the
1415:Generated_Source\PSoC5/UART_READER.c ****     *     configuration returning. Function will block CPU until transmission
1416:Generated_Source\PSoC5/UART_READER.c ****     *     complete.
1417:Generated_Source\PSoC5/UART_READER.c ****     *  2) User may want to use blocking time if UART configured to the low speed
1418:Generated_Source\PSoC5/UART_READER.c ****     *     operation
1419:Generated_Source\PSoC5/UART_READER.c ****     *     Example for this case:
1420:Generated_Source\PSoC5/UART_READER.c ****     *     SendBreak(0);     - initialize Break signal transmission
1421:Generated_Source\PSoC5/UART_READER.c ****     *         Add your code here to use CPU time
1422:Generated_Source\PSoC5/UART_READER.c ****     *     SendBreak(1);     - complete Break operation
1423:Generated_Source\PSoC5/UART_READER.c ****     *  3) Same to 2) but user may want to initialize and use the interrupt to
1424:Generated_Source\PSoC5/UART_READER.c ****     *     complete break operation.
1425:Generated_Source\PSoC5/UART_READER.c ****     *     Example for this case:
1426:Generated_Source\PSoC5/UART_READER.c ****     *     Initialize TX interrupt with "TX - On TX Complete" parameter
1427:Generated_Source\PSoC5/UART_READER.c ****     *     SendBreak(0);     - initialize Break signal transmission
1428:Generated_Source\PSoC5/UART_READER.c ****     *         Add your code here to use CPU time
1429:Generated_Source\PSoC5/UART_READER.c ****     *     When interrupt appear with UART_READER_TX_STS_COMPLETE status:
ARM GAS  C:\Users\yqh\AppData\Local\Temp\cc55pVRK.s 			page 42


1430:Generated_Source\PSoC5/UART_READER.c ****     *     SendBreak(2);     - complete Break operation
1431:Generated_Source\PSoC5/UART_READER.c ****     *
1432:Generated_Source\PSoC5/UART_READER.c ****     * Side Effects:
1433:Generated_Source\PSoC5/UART_READER.c ****     *  The UART_READER_SendBreak() function initializes registers to send a
1434:Generated_Source\PSoC5/UART_READER.c ****     *  break signal.
1435:Generated_Source\PSoC5/UART_READER.c ****     *  Break signal length depends on the break signal bits configuration.
1436:Generated_Source\PSoC5/UART_READER.c ****     *  The register configuration should be reinitialized before normal 8-bit
1437:Generated_Source\PSoC5/UART_READER.c ****     *  communication can continue.
1438:Generated_Source\PSoC5/UART_READER.c ****     *
1439:Generated_Source\PSoC5/UART_READER.c ****     *******************************************************************************/
1440:Generated_Source\PSoC5/UART_READER.c ****     void UART_READER_SendBreak(uint8 retMode) 
1441:Generated_Source\PSoC5/UART_READER.c ****     {
 891              		.loc 1 1441 0
 892              		.cfi_startproc
 893              		@ args = 0, pretend = 0, frame = 0
 894              		@ frame_needed = 0, uses_anonymous_args = 0
 895              		@ link register save eliminated.
 896              	.LVL50:
1442:Generated_Source\PSoC5/UART_READER.c **** 
1443:Generated_Source\PSoC5/UART_READER.c ****         /* If not Initialized then skip this function*/
1444:Generated_Source\PSoC5/UART_READER.c ****         if(UART_READER_initVar != 0u)
 897              		.loc 1 1444 0
 898 0000 134B     		ldr	r3, .L121
 899 0002 1B78     		ldrb	r3, [r3]	@ zero_extendqisi2
 900 0004 1BB3     		cbz	r3, .L98
 901              	.LBB39:
1445:Generated_Source\PSoC5/UART_READER.c ****         {
1446:Generated_Source\PSoC5/UART_READER.c ****             /* Set the Counter to 13-bits and transmit a 00 byte */
1447:Generated_Source\PSoC5/UART_READER.c ****             /* When that is done then reset the counter value back */
1448:Generated_Source\PSoC5/UART_READER.c ****             uint8 tmpStat;
1449:Generated_Source\PSoC5/UART_READER.c **** 
1450:Generated_Source\PSoC5/UART_READER.c ****         #if(UART_READER_HD_ENABLED) /* Half Duplex mode*/
1451:Generated_Source\PSoC5/UART_READER.c **** 
1452:Generated_Source\PSoC5/UART_READER.c ****             if( (retMode == UART_READER_SEND_BREAK) ||
 902              		.loc 1 1452 0
 903 0006 08B1     		cbz	r0, .L101
 904              		.loc 1 1452 0 is_stmt 0 discriminator 1
 905 0008 0328     		cmp	r0, #3
 906 000a 1ED1     		bne	.L102
 907              	.L101:
 908              	.LBB40:
 909              	.LBB41:
 300:Generated_Source\PSoC5/UART_READER.c ****     #endif /* (UART_READER_CONTROL_REG_REMOVED) */
 910              		.loc 1 300 0 is_stmt 1
 911 000c 114A     		ldr	r2, .L121+4
 912 000e 1378     		ldrb	r3, [r2]	@ zero_extendqisi2
 913              	.LBE41:
 914              	.LBE40:
1453:Generated_Source\PSoC5/UART_READER.c ****                 (retMode == UART_READER_SEND_WAIT_REINIT ) )
1454:Generated_Source\PSoC5/UART_READER.c ****             {
1455:Generated_Source\PSoC5/UART_READER.c ****                 /* CTRL_HD_SEND_BREAK - sends break bits in HD mode */
1456:Generated_Source\PSoC5/UART_READER.c ****                 UART_READER_WriteControlRegister(UART_READER_ReadControlRegister() |
 915              		.loc 1 1456 0
 916 0010 43F00203 		orr	r3, r3, #2
 917              	.LVL51:
 918              	.LBB42:
 919              	.LBB43:
ARM GAS  C:\Users\yqh\AppData\Local\Temp\cc55pVRK.s 			page 43


 327:Generated_Source\PSoC5/UART_READER.c ****     #endif /* (UART_READER_CONTROL_REG_REMOVED) */
 920              		.loc 1 327 0
 921 0014 1370     		strb	r3, [r2]
 922              	.LBE43:
 923              	.LBE42:
1457:Generated_Source\PSoC5/UART_READER.c ****                                                       UART_READER_CTRL_HD_SEND_BREAK);
1458:Generated_Source\PSoC5/UART_READER.c ****                 /* Send zeros */
1459:Generated_Source\PSoC5/UART_READER.c ****                 UART_READER_TXDATA_REG = 0u;
 924              		.loc 1 1459 0
 925 0016 104B     		ldr	r3, .L121+8
 926              	.LVL52:
 927 0018 0022     		movs	r2, #0
 928              	.LVL53:
 929 001a 1A70     		strb	r2, [r3]
 930              	.LVL54:
 931              	.L103:
1460:Generated_Source\PSoC5/UART_READER.c **** 
1461:Generated_Source\PSoC5/UART_READER.c ****                 do /* Wait until transmit starts */
1462:Generated_Source\PSoC5/UART_READER.c ****                 {
1463:Generated_Source\PSoC5/UART_READER.c ****                     tmpStat = UART_READER_TXSTATUS_REG;
 932              		.loc 1 1463 0 discriminator 1
 933 001c 0F4B     		ldr	r3, .L121+12
 934 001e 1B78     		ldrb	r3, [r3]	@ zero_extendqisi2
 935              	.LVL55:
1464:Generated_Source\PSoC5/UART_READER.c ****                 }
1465:Generated_Source\PSoC5/UART_READER.c ****                 while((tmpStat & UART_READER_TX_STS_FIFO_EMPTY) != 0u);
 936              		.loc 1 1465 0 discriminator 1
 937 0020 9A07     		lsls	r2, r3, #30
 938 0022 FBD4     		bmi	.L103
1466:Generated_Source\PSoC5/UART_READER.c ****             }
1467:Generated_Source\PSoC5/UART_READER.c **** 
1468:Generated_Source\PSoC5/UART_READER.c ****             if( (retMode == UART_READER_WAIT_FOR_COMPLETE_REINIT) ||
 939              		.loc 1 1468 0
 940 0024 00F0FD03 		and	r3, r0, #253
 941              	.LVL56:
 942 0028 012B     		cmp	r3, #1
 943              	.L120:
 944 002a 03D0     		beq	.L107
 945              	.L108:
1469:Generated_Source\PSoC5/UART_READER.c ****                 (retMode == UART_READER_SEND_WAIT_REINIT) )
1470:Generated_Source\PSoC5/UART_READER.c ****             {
1471:Generated_Source\PSoC5/UART_READER.c ****                 do /* Wait until transmit complete */
1472:Generated_Source\PSoC5/UART_READER.c ****                 {
1473:Generated_Source\PSoC5/UART_READER.c ****                     tmpStat = UART_READER_TXSTATUS_REG;
1474:Generated_Source\PSoC5/UART_READER.c ****                 }
1475:Generated_Source\PSoC5/UART_READER.c ****                 while(((uint8)~tmpStat & UART_READER_TX_STS_COMPLETE) != 0u);
1476:Generated_Source\PSoC5/UART_READER.c ****             }
1477:Generated_Source\PSoC5/UART_READER.c **** 
1478:Generated_Source\PSoC5/UART_READER.c ****             if( (retMode == UART_READER_WAIT_FOR_COMPLETE_REINIT) ||
 946              		.loc 1 1478 0
 947 002c 0138     		subs	r0, r0, #1
 948              	.LVL57:
 949 002e 0228     		cmp	r0, #2
 950 0030 05D9     		bls	.L105
 951 0032 7047     		bx	lr
 952              	.LVL58:
 953              	.L107:
ARM GAS  C:\Users\yqh\AppData\Local\Temp\cc55pVRK.s 			page 44


1473:Generated_Source\PSoC5/UART_READER.c ****                 }
 954              		.loc 1 1473 0 discriminator 1
 955 0034 094B     		ldr	r3, .L121+12
 956 0036 1B78     		ldrb	r3, [r3]	@ zero_extendqisi2
 957              	.LVL59:
1475:Generated_Source\PSoC5/UART_READER.c ****             }
 958              		.loc 1 1475 0 discriminator 1
 959 0038 DB07     		lsls	r3, r3, #31
 960              	.LVL60:
 961 003a FBD5     		bpl	.L107
 962 003c F6E7     		b	.L108
 963              	.LVL61:
 964              	.L105:
 965              	.LBB44:
 966              	.LBB45:
 300:Generated_Source\PSoC5/UART_READER.c ****     #endif /* (UART_READER_CONTROL_REG_REMOVED) */
 967              		.loc 1 300 0
 968 003e 054A     		ldr	r2, .L121+4
 969 0040 1378     		ldrb	r3, [r2]	@ zero_extendqisi2
 970              	.LBE45:
 971              	.LBE44:
1479:Generated_Source\PSoC5/UART_READER.c ****                 (retMode == UART_READER_REINIT) ||
1480:Generated_Source\PSoC5/UART_READER.c ****                 (retMode == UART_READER_SEND_WAIT_REINIT) )
1481:Generated_Source\PSoC5/UART_READER.c ****             {
1482:Generated_Source\PSoC5/UART_READER.c ****                 UART_READER_WriteControlRegister(UART_READER_ReadControlRegister() &
 972              		.loc 1 1482 0
 973 0042 03F0FD03 		and	r3, r3, #253
 974              	.LVL62:
 975              	.LBB46:
 976              	.LBB47:
 327:Generated_Source\PSoC5/UART_READER.c ****     #endif /* (UART_READER_CONTROL_REG_REMOVED) */
 977              		.loc 1 327 0
 978 0046 1370     		strb	r3, [r2]
 979 0048 7047     		bx	lr
 980              	.LVL63:
 981              	.L102:
 982              	.LBE47:
 983              	.LBE46:
1468:Generated_Source\PSoC5/UART_READER.c ****                 (retMode == UART_READER_SEND_WAIT_REINIT) )
 984              		.loc 1 1468 0
 985 004a 0128     		cmp	r0, #1
 986 004c EDE7     		b	.L120
 987              	.L98:
 988 004e 7047     		bx	lr
 989              	.L122:
 990              		.align	2
 991              	.L121:
 992 0050 00000000 		.word	.LANCHOR0
 993 0054 76650040 		.word	1073767798
 994 0058 57650040 		.word	1073767767
 995 005c 67650040 		.word	1073767783
 996              	.LBE39:
 997              		.cfi_endproc
 998              	.LFE25:
 999              		.size	UART_READER_SendBreak, .-UART_READER_SendBreak
 1000              		.section	.text.UART_READER_SetTxAddressMode,"ax",%progbits
 1001              		.align	1
ARM GAS  C:\Users\yqh\AppData\Local\Temp\cc55pVRK.s 			page 45


 1002              		.global	UART_READER_SetTxAddressMode
 1003              		.thumb
 1004              		.thumb_func
 1005              		.type	UART_READER_SetTxAddressMode, %function
 1006              	UART_READER_SetTxAddressMode:
 1007              	.LFB26:
1483:Generated_Source\PSoC5/UART_READER.c ****                                               (uint8)~UART_READER_CTRL_HD_SEND_BREAK);
1484:Generated_Source\PSoC5/UART_READER.c ****             }
1485:Generated_Source\PSoC5/UART_READER.c **** 
1486:Generated_Source\PSoC5/UART_READER.c ****         #else /* UART_READER_HD_ENABLED Full Duplex mode */
1487:Generated_Source\PSoC5/UART_READER.c **** 
1488:Generated_Source\PSoC5/UART_READER.c ****             static uint8 txPeriod;
1489:Generated_Source\PSoC5/UART_READER.c **** 
1490:Generated_Source\PSoC5/UART_READER.c ****             if( (retMode == UART_READER_SEND_BREAK) ||
1491:Generated_Source\PSoC5/UART_READER.c ****                 (retMode == UART_READER_SEND_WAIT_REINIT) )
1492:Generated_Source\PSoC5/UART_READER.c ****             {
1493:Generated_Source\PSoC5/UART_READER.c ****                 /* CTRL_HD_SEND_BREAK - skip to send parity bit at Break signal in Full Duplex mode
1494:Generated_Source\PSoC5/UART_READER.c ****                 #if( (UART_READER_PARITY_TYPE != UART_READER__B_UART__NONE_REVB) || \
1495:Generated_Source\PSoC5/UART_READER.c ****                                     (UART_READER_PARITY_TYPE_SW != 0u) )
1496:Generated_Source\PSoC5/UART_READER.c ****                     UART_READER_WriteControlRegister(UART_READER_ReadControlRegister() |
1497:Generated_Source\PSoC5/UART_READER.c ****                                                           UART_READER_CTRL_HD_SEND_BREAK);
1498:Generated_Source\PSoC5/UART_READER.c ****                 #endif /* End UART_READER_PARITY_TYPE != UART_READER__B_UART__NONE_REVB  */
1499:Generated_Source\PSoC5/UART_READER.c **** 
1500:Generated_Source\PSoC5/UART_READER.c ****                 #if(UART_READER_TXCLKGEN_DP)
1501:Generated_Source\PSoC5/UART_READER.c ****                     txPeriod = UART_READER_TXBITCLKTX_COMPLETE_REG;
1502:Generated_Source\PSoC5/UART_READER.c ****                     UART_READER_TXBITCLKTX_COMPLETE_REG = UART_READER_TXBITCTR_BREAKBITS;
1503:Generated_Source\PSoC5/UART_READER.c ****                 #else
1504:Generated_Source\PSoC5/UART_READER.c ****                     txPeriod = UART_READER_TXBITCTR_PERIOD_REG;
1505:Generated_Source\PSoC5/UART_READER.c ****                     UART_READER_TXBITCTR_PERIOD_REG = UART_READER_TXBITCTR_BREAKBITS8X;
1506:Generated_Source\PSoC5/UART_READER.c ****                 #endif /* End UART_READER_TXCLKGEN_DP */
1507:Generated_Source\PSoC5/UART_READER.c **** 
1508:Generated_Source\PSoC5/UART_READER.c ****                 /* Send zeros */
1509:Generated_Source\PSoC5/UART_READER.c ****                 UART_READER_TXDATA_REG = 0u;
1510:Generated_Source\PSoC5/UART_READER.c **** 
1511:Generated_Source\PSoC5/UART_READER.c ****                 do /* Wait until transmit starts */
1512:Generated_Source\PSoC5/UART_READER.c ****                 {
1513:Generated_Source\PSoC5/UART_READER.c ****                     tmpStat = UART_READER_TXSTATUS_REG;
1514:Generated_Source\PSoC5/UART_READER.c ****                 }
1515:Generated_Source\PSoC5/UART_READER.c ****                 while((tmpStat & UART_READER_TX_STS_FIFO_EMPTY) != 0u);
1516:Generated_Source\PSoC5/UART_READER.c ****             }
1517:Generated_Source\PSoC5/UART_READER.c **** 
1518:Generated_Source\PSoC5/UART_READER.c ****             if( (retMode == UART_READER_WAIT_FOR_COMPLETE_REINIT) ||
1519:Generated_Source\PSoC5/UART_READER.c ****                 (retMode == UART_READER_SEND_WAIT_REINIT) )
1520:Generated_Source\PSoC5/UART_READER.c ****             {
1521:Generated_Source\PSoC5/UART_READER.c ****                 do /* Wait until transmit complete */
1522:Generated_Source\PSoC5/UART_READER.c ****                 {
1523:Generated_Source\PSoC5/UART_READER.c ****                     tmpStat = UART_READER_TXSTATUS_REG;
1524:Generated_Source\PSoC5/UART_READER.c ****                 }
1525:Generated_Source\PSoC5/UART_READER.c ****                 while(((uint8)~tmpStat & UART_READER_TX_STS_COMPLETE) != 0u);
1526:Generated_Source\PSoC5/UART_READER.c ****             }
1527:Generated_Source\PSoC5/UART_READER.c **** 
1528:Generated_Source\PSoC5/UART_READER.c ****             if( (retMode == UART_READER_WAIT_FOR_COMPLETE_REINIT) ||
1529:Generated_Source\PSoC5/UART_READER.c ****                 (retMode == UART_READER_REINIT) ||
1530:Generated_Source\PSoC5/UART_READER.c ****                 (retMode == UART_READER_SEND_WAIT_REINIT) )
1531:Generated_Source\PSoC5/UART_READER.c ****             {
1532:Generated_Source\PSoC5/UART_READER.c **** 
1533:Generated_Source\PSoC5/UART_READER.c ****             #if(UART_READER_TXCLKGEN_DP)
ARM GAS  C:\Users\yqh\AppData\Local\Temp\cc55pVRK.s 			page 46


1534:Generated_Source\PSoC5/UART_READER.c ****                 UART_READER_TXBITCLKTX_COMPLETE_REG = txPeriod;
1535:Generated_Source\PSoC5/UART_READER.c ****             #else
1536:Generated_Source\PSoC5/UART_READER.c ****                 UART_READER_TXBITCTR_PERIOD_REG = txPeriod;
1537:Generated_Source\PSoC5/UART_READER.c ****             #endif /* End UART_READER_TXCLKGEN_DP */
1538:Generated_Source\PSoC5/UART_READER.c **** 
1539:Generated_Source\PSoC5/UART_READER.c ****             #if( (UART_READER_PARITY_TYPE != UART_READER__B_UART__NONE_REVB) || \
1540:Generated_Source\PSoC5/UART_READER.c ****                  (UART_READER_PARITY_TYPE_SW != 0u) )
1541:Generated_Source\PSoC5/UART_READER.c ****                 UART_READER_WriteControlRegister(UART_READER_ReadControlRegister() &
1542:Generated_Source\PSoC5/UART_READER.c ****                                                       (uint8) ~UART_READER_CTRL_HD_SEND_BREAK);
1543:Generated_Source\PSoC5/UART_READER.c ****             #endif /* End UART_READER_PARITY_TYPE != NONE */
1544:Generated_Source\PSoC5/UART_READER.c ****             }
1545:Generated_Source\PSoC5/UART_READER.c ****         #endif    /* End UART_READER_HD_ENABLED */
1546:Generated_Source\PSoC5/UART_READER.c ****         }
1547:Generated_Source\PSoC5/UART_READER.c ****     }
1548:Generated_Source\PSoC5/UART_READER.c **** 
1549:Generated_Source\PSoC5/UART_READER.c **** 
1550:Generated_Source\PSoC5/UART_READER.c ****     /*******************************************************************************
1551:Generated_Source\PSoC5/UART_READER.c ****     * Function Name: UART_READER_SetTxAddressMode
1552:Generated_Source\PSoC5/UART_READER.c ****     ********************************************************************************
1553:Generated_Source\PSoC5/UART_READER.c ****     *
1554:Generated_Source\PSoC5/UART_READER.c ****     * Summary:
1555:Generated_Source\PSoC5/UART_READER.c ****     *  Configures the transmitter to signal the next bytes is address or data.
1556:Generated_Source\PSoC5/UART_READER.c ****     *
1557:Generated_Source\PSoC5/UART_READER.c ****     * Parameters:
1558:Generated_Source\PSoC5/UART_READER.c ****     *  addressMode: 
1559:Generated_Source\PSoC5/UART_READER.c ****     *       UART_READER_SET_SPACE - Configure the transmitter to send the next
1560:Generated_Source\PSoC5/UART_READER.c ****     *                                    byte as a data.
1561:Generated_Source\PSoC5/UART_READER.c ****     *       UART_READER_SET_MARK  - Configure the transmitter to send the next
1562:Generated_Source\PSoC5/UART_READER.c ****     *                                    byte as an address.
1563:Generated_Source\PSoC5/UART_READER.c ****     *
1564:Generated_Source\PSoC5/UART_READER.c ****     * Return:
1565:Generated_Source\PSoC5/UART_READER.c ****     *  None.
1566:Generated_Source\PSoC5/UART_READER.c ****     *
1567:Generated_Source\PSoC5/UART_READER.c ****     * Side Effects:
1568:Generated_Source\PSoC5/UART_READER.c ****     *  This function sets and clears UART_READER_CTRL_MARK bit in the Control
1569:Generated_Source\PSoC5/UART_READER.c ****     *  register.
1570:Generated_Source\PSoC5/UART_READER.c ****     *
1571:Generated_Source\PSoC5/UART_READER.c ****     *******************************************************************************/
1572:Generated_Source\PSoC5/UART_READER.c ****     void UART_READER_SetTxAddressMode(uint8 addressMode) 
1573:Generated_Source\PSoC5/UART_READER.c ****     {
 1008              		.loc 1 1573 0
 1009              		.cfi_startproc
 1010              		@ args = 0, pretend = 0, frame = 0
 1011              		@ frame_needed = 0, uses_anonymous_args = 0
 1012              		@ link register save eliminated.
 1013              	.LVL64:
 1014 0000 044B     		ldr	r3, .L127
 1015              	.LBB48:
 1016              	.LBB49:
 300:Generated_Source\PSoC5/UART_READER.c ****     #endif /* (UART_READER_CONTROL_REG_REMOVED) */
 1017              		.loc 1 300 0
 1018 0002 1A78     		ldrb	r2, [r3]	@ zero_extendqisi2
 1019              	.LBE49:
 1020              	.LBE48:
1574:Generated_Source\PSoC5/UART_READER.c ****         /* Mark/Space sending enable */
1575:Generated_Source\PSoC5/UART_READER.c ****         if(addressMode != 0u)
 1021              		.loc 1 1575 0
ARM GAS  C:\Users\yqh\AppData\Local\Temp\cc55pVRK.s 			page 47


 1022 0004 10B1     		cbz	r0, .L124
1576:Generated_Source\PSoC5/UART_READER.c ****         {
1577:Generated_Source\PSoC5/UART_READER.c ****         #if( UART_READER_CONTROL_REG_REMOVED == 0u )
1578:Generated_Source\PSoC5/UART_READER.c ****             UART_READER_WriteControlRegister(UART_READER_ReadControlRegister() |
 1023              		.loc 1 1578 0
 1024 0006 42F00402 		orr	r2, r2, #4
 1025              	.LVL65:
 1026 000a 01E0     		b	.L126
 1027              	.LVL66:
 1028              	.L124:
1579:Generated_Source\PSoC5/UART_READER.c ****                                                   UART_READER_CTRL_MARK);
1580:Generated_Source\PSoC5/UART_READER.c ****         #endif /* End UART_READER_CONTROL_REG_REMOVED == 0u */
1581:Generated_Source\PSoC5/UART_READER.c ****         }
1582:Generated_Source\PSoC5/UART_READER.c ****         else
1583:Generated_Source\PSoC5/UART_READER.c ****         {
1584:Generated_Source\PSoC5/UART_READER.c ****         #if( UART_READER_CONTROL_REG_REMOVED == 0u )
1585:Generated_Source\PSoC5/UART_READER.c ****             UART_READER_WriteControlRegister(UART_READER_ReadControlRegister() &
 1029              		.loc 1 1585 0
 1030 000c 02F0FB02 		and	r2, r2, #251
 1031              	.L126:
 1032              	.LVL67:
 1033              	.LBB50:
 1034              	.LBB51:
 327:Generated_Source\PSoC5/UART_READER.c ****     #endif /* (UART_READER_CONTROL_REG_REMOVED) */
 1035              		.loc 1 327 0
 1036 0010 1A70     		strb	r2, [r3]
 1037 0012 7047     		bx	lr
 1038              	.L128:
 1039              		.align	2
 1040              	.L127:
 1041 0014 76650040 		.word	1073767798
 1042              	.LBE51:
 1043              	.LBE50:
 1044              		.cfi_endproc
 1045              	.LFE26:
 1046              		.size	UART_READER_SetTxAddressMode, .-UART_READER_SetTxAddressMode
 1047              		.section	.text.UART_READER_LoadRxConfig,"ax",%progbits
 1048              		.align	1
 1049              		.global	UART_READER_LoadRxConfig
 1050              		.thumb
 1051              		.thumb_func
 1052              		.type	UART_READER_LoadRxConfig, %function
 1053              	UART_READER_LoadRxConfig:
 1054              	.LFB27:
1586:Generated_Source\PSoC5/UART_READER.c ****                                                   (uint8) ~UART_READER_CTRL_MARK);
1587:Generated_Source\PSoC5/UART_READER.c ****         #endif /* End UART_READER_CONTROL_REG_REMOVED == 0u */
1588:Generated_Source\PSoC5/UART_READER.c ****         }
1589:Generated_Source\PSoC5/UART_READER.c ****     }
1590:Generated_Source\PSoC5/UART_READER.c **** 
1591:Generated_Source\PSoC5/UART_READER.c **** #endif  /* EndUART_READER_TX_ENABLED */
1592:Generated_Source\PSoC5/UART_READER.c **** 
1593:Generated_Source\PSoC5/UART_READER.c **** #if(UART_READER_HD_ENABLED)
1594:Generated_Source\PSoC5/UART_READER.c **** 
1595:Generated_Source\PSoC5/UART_READER.c **** 
1596:Generated_Source\PSoC5/UART_READER.c ****     /*******************************************************************************
1597:Generated_Source\PSoC5/UART_READER.c ****     * Function Name: UART_READER_LoadRxConfig
1598:Generated_Source\PSoC5/UART_READER.c ****     ********************************************************************************
ARM GAS  C:\Users\yqh\AppData\Local\Temp\cc55pVRK.s 			page 48


1599:Generated_Source\PSoC5/UART_READER.c ****     *
1600:Generated_Source\PSoC5/UART_READER.c ****     * Summary:
1601:Generated_Source\PSoC5/UART_READER.c ****     *  Loads the receiver configuration in half duplex mode. After calling this
1602:Generated_Source\PSoC5/UART_READER.c ****     *  function, the UART is ready to receive data.
1603:Generated_Source\PSoC5/UART_READER.c ****     *
1604:Generated_Source\PSoC5/UART_READER.c ****     * Parameters:
1605:Generated_Source\PSoC5/UART_READER.c ****     *  None.
1606:Generated_Source\PSoC5/UART_READER.c ****     *
1607:Generated_Source\PSoC5/UART_READER.c ****     * Return:
1608:Generated_Source\PSoC5/UART_READER.c ****     *  None.
1609:Generated_Source\PSoC5/UART_READER.c ****     *
1610:Generated_Source\PSoC5/UART_READER.c ****     * Side Effects:
1611:Generated_Source\PSoC5/UART_READER.c ****     *  Valid only in half duplex mode. You must make sure that the previous
1612:Generated_Source\PSoC5/UART_READER.c ****     *  transaction is complete and it is safe to unload the transmitter
1613:Generated_Source\PSoC5/UART_READER.c ****     *  configuration.
1614:Generated_Source\PSoC5/UART_READER.c ****     *
1615:Generated_Source\PSoC5/UART_READER.c ****     *******************************************************************************/
1616:Generated_Source\PSoC5/UART_READER.c ****     void UART_READER_LoadRxConfig(void) 
1617:Generated_Source\PSoC5/UART_READER.c ****     {
 1055              		.loc 1 1617 0
 1056              		.cfi_startproc
 1057              		@ args = 0, pretend = 0, frame = 0
 1058              		@ frame_needed = 0, uses_anonymous_args = 0
 1059              		@ link register save eliminated.
 1060              	.LBB52:
 1061              	.LBB53:
 300:Generated_Source\PSoC5/UART_READER.c ****     #endif /* (UART_READER_CONTROL_REG_REMOVED) */
 1062              		.loc 1 300 0
 1063 0000 044A     		ldr	r2, .L130
 1064 0002 1378     		ldrb	r3, [r2]	@ zero_extendqisi2
 1065              	.LBE53:
 1066              	.LBE52:
1618:Generated_Source\PSoC5/UART_READER.c ****         UART_READER_WriteControlRegister(UART_READER_ReadControlRegister() &
 1067              		.loc 1 1618 0
 1068 0004 03F0FE03 		and	r3, r3, #254
 1069              	.LVL68:
 1070              	.LBB54:
 1071              	.LBB55:
 327:Generated_Source\PSoC5/UART_READER.c ****     #endif /* (UART_READER_CONTROL_REG_REMOVED) */
 1072              		.loc 1 327 0
 1073 0008 1370     		strb	r3, [r2]
 1074              	.LBE55:
 1075              	.LBE54:
1619:Generated_Source\PSoC5/UART_READER.c ****                                                 (uint8)~UART_READER_CTRL_HD_SEND);
1620:Generated_Source\PSoC5/UART_READER.c ****         UART_READER_RXBITCTR_PERIOD_REG = UART_READER_HD_RXBITCTR_INIT;
 1076              		.loc 1 1620 0
 1077 000a 034B     		ldr	r3, .L130+4
 1078              	.LVL69:
 1079 000c 7222     		movs	r2, #114
 1080              	.LVL70:
 1081 000e 1A70     		strb	r2, [r3]
 1082              	.LVL71:
 1083 0010 7047     		bx	lr
 1084              	.L131:
 1085 0012 00BF     		.align	2
 1086              	.L130:
 1087 0014 76650040 		.word	1073767798
ARM GAS  C:\Users\yqh\AppData\Local\Temp\cc55pVRK.s 			page 49


 1088 0018 85650040 		.word	1073767813
 1089              		.cfi_endproc
 1090              	.LFE27:
 1091              		.size	UART_READER_LoadRxConfig, .-UART_READER_LoadRxConfig
 1092              		.section	.text.UART_READER_LoadTxConfig,"ax",%progbits
 1093              		.align	1
 1094              		.global	UART_READER_LoadTxConfig
 1095              		.thumb
 1096              		.thumb_func
 1097              		.type	UART_READER_LoadTxConfig, %function
 1098              	UART_READER_LoadTxConfig:
 1099              	.LFB28:
1621:Generated_Source\PSoC5/UART_READER.c **** 
1622:Generated_Source\PSoC5/UART_READER.c ****     #if (UART_READER_RX_INTERRUPT_ENABLED)
1623:Generated_Source\PSoC5/UART_READER.c ****         /* Enable RX interrupt after set RX configuration */
1624:Generated_Source\PSoC5/UART_READER.c ****         UART_READER_SetRxInterruptMode(UART_READER_INIT_RX_INTERRUPTS_MASK);
1625:Generated_Source\PSoC5/UART_READER.c ****     #endif /* (UART_READER_RX_INTERRUPT_ENABLED) */
1626:Generated_Source\PSoC5/UART_READER.c ****     }
1627:Generated_Source\PSoC5/UART_READER.c **** 
1628:Generated_Source\PSoC5/UART_READER.c **** 
1629:Generated_Source\PSoC5/UART_READER.c ****     /*******************************************************************************
1630:Generated_Source\PSoC5/UART_READER.c ****     * Function Name: UART_READER_LoadTxConfig
1631:Generated_Source\PSoC5/UART_READER.c ****     ********************************************************************************
1632:Generated_Source\PSoC5/UART_READER.c ****     *
1633:Generated_Source\PSoC5/UART_READER.c ****     * Summary:
1634:Generated_Source\PSoC5/UART_READER.c ****     *  Loads the transmitter configuration in half duplex mode. After calling this
1635:Generated_Source\PSoC5/UART_READER.c ****     *  function, the UART is ready to transmit data.
1636:Generated_Source\PSoC5/UART_READER.c ****     *
1637:Generated_Source\PSoC5/UART_READER.c ****     * Parameters:
1638:Generated_Source\PSoC5/UART_READER.c ****     *  None.
1639:Generated_Source\PSoC5/UART_READER.c ****     *
1640:Generated_Source\PSoC5/UART_READER.c ****     * Return:
1641:Generated_Source\PSoC5/UART_READER.c ****     *  None.
1642:Generated_Source\PSoC5/UART_READER.c ****     *
1643:Generated_Source\PSoC5/UART_READER.c ****     * Side Effects:
1644:Generated_Source\PSoC5/UART_READER.c ****     *  Valid only in half duplex mode. You must make sure that the previous
1645:Generated_Source\PSoC5/UART_READER.c ****     *  transaction is complete and it is safe to unload the receiver configuration.
1646:Generated_Source\PSoC5/UART_READER.c ****     *
1647:Generated_Source\PSoC5/UART_READER.c ****     *******************************************************************************/
1648:Generated_Source\PSoC5/UART_READER.c ****     void UART_READER_LoadTxConfig(void) 
1649:Generated_Source\PSoC5/UART_READER.c ****     {
 1100              		.loc 1 1649 0
 1101              		.cfi_startproc
 1102              		@ args = 0, pretend = 0, frame = 0
 1103              		@ frame_needed = 0, uses_anonymous_args = 0
 1104              		@ link register save eliminated.
 1105              	.LBB56:
 1106              	.LBB57:
 300:Generated_Source\PSoC5/UART_READER.c ****     #endif /* (UART_READER_CONTROL_REG_REMOVED) */
 1107              		.loc 1 300 0
 1108 0000 044A     		ldr	r2, .L133
 1109 0002 1378     		ldrb	r3, [r2]	@ zero_extendqisi2
 1110              	.LBE57:
 1111              	.LBE56:
1650:Generated_Source\PSoC5/UART_READER.c ****     #if (UART_READER_RX_INTERRUPT_ENABLED)
1651:Generated_Source\PSoC5/UART_READER.c ****         /* Disable RX interrupts before set TX configuration */
1652:Generated_Source\PSoC5/UART_READER.c ****         UART_READER_SetRxInterruptMode(0u);
ARM GAS  C:\Users\yqh\AppData\Local\Temp\cc55pVRK.s 			page 50


1653:Generated_Source\PSoC5/UART_READER.c ****     #endif /* (UART_READER_RX_INTERRUPT_ENABLED) */
1654:Generated_Source\PSoC5/UART_READER.c **** 
1655:Generated_Source\PSoC5/UART_READER.c ****         UART_READER_WriteControlRegister(UART_READER_ReadControlRegister() | UART_READER_CTRL_HD_SE
 1112              		.loc 1 1655 0
 1113 0004 43F00103 		orr	r3, r3, #1
 1114              	.LVL72:
 1115              	.LBB58:
 1116              	.LBB59:
 327:Generated_Source\PSoC5/UART_READER.c ****     #endif /* (UART_READER_CONTROL_REG_REMOVED) */
 1117              		.loc 1 327 0
 1118 0008 1370     		strb	r3, [r2]
 1119              	.LBE59:
 1120              	.LBE58:
1656:Generated_Source\PSoC5/UART_READER.c ****         UART_READER_RXBITCTR_PERIOD_REG = UART_READER_HD_TXBITCTR_INIT;
 1121              		.loc 1 1656 0
 1122 000a 034B     		ldr	r3, .L133+4
 1123              	.LVL73:
 1124 000c 6F22     		movs	r2, #111
 1125              	.LVL74:
 1126 000e 1A70     		strb	r2, [r3]
 1127              	.LVL75:
 1128 0010 7047     		bx	lr
 1129              	.L134:
 1130 0012 00BF     		.align	2
 1131              	.L133:
 1132 0014 76650040 		.word	1073767798
 1133 0018 85650040 		.word	1073767813
 1134              		.cfi_endproc
 1135              	.LFE28:
 1136              		.size	UART_READER_LoadTxConfig, .-UART_READER_LoadTxConfig
 1137              		.global	UART_READER_initVar
 1138              		.bss
 1139              		.set	.LANCHOR0,. + 0
 1140              		.type	UART_READER_initVar, %object
 1141              		.size	UART_READER_initVar, 1
 1142              	UART_READER_initVar:
 1143 0000 00       		.space	1
 1144              		.text
 1145              	.Letext0:
 1146              		.file 2 "Generated_Source\\PSoC5\\cytypes.h"
 1147              		.file 3 "Generated_Source\\PSoC5\\CyLib.h"
 1148              		.section	.debug_info,"",%progbits
 1149              	.Ldebug_info0:
 1150 0000 27070000 		.4byte	0x727
 1151 0004 0400     		.2byte	0x4
 1152 0006 00000000 		.4byte	.Ldebug_abbrev0
 1153 000a 04       		.byte	0x4
 1154 000b 01       		.uleb128 0x1
 1155 000c DB010000 		.4byte	.LASF58
 1156 0010 01       		.byte	0x1
 1157 0011 0D030000 		.4byte	.LASF59
 1158 0015 E2000000 		.4byte	.LASF60
 1159 0019 30000000 		.4byte	.Ldebug_ranges0+0x30
 1160 001d 00000000 		.4byte	0
 1161 0021 00000000 		.4byte	.Ldebug_line0
 1162 0025 02       		.uleb128 0x2
 1163 0026 01       		.byte	0x1
ARM GAS  C:\Users\yqh\AppData\Local\Temp\cc55pVRK.s 			page 51


 1164 0027 06       		.byte	0x6
 1165 0028 D6000000 		.4byte	.LASF0
 1166 002c 02       		.uleb128 0x2
 1167 002d 01       		.byte	0x1
 1168 002e 08       		.byte	0x8
 1169 002f 92030000 		.4byte	.LASF1
 1170 0033 02       		.uleb128 0x2
 1171 0034 02       		.byte	0x2
 1172 0035 05       		.byte	0x5
 1173 0036 D9030000 		.4byte	.LASF2
 1174 003a 02       		.uleb128 0x2
 1175 003b 02       		.byte	0x2
 1176 003c 07       		.byte	0x7
 1177 003d AB020000 		.4byte	.LASF3
 1178 0041 02       		.uleb128 0x2
 1179 0042 04       		.byte	0x4
 1180 0043 05       		.byte	0x5
 1181 0044 3F010000 		.4byte	.LASF4
 1182 0048 02       		.uleb128 0x2
 1183 0049 04       		.byte	0x4
 1184 004a 07       		.byte	0x7
 1185 004b 69020000 		.4byte	.LASF5
 1186 004f 02       		.uleb128 0x2
 1187 0050 08       		.byte	0x8
 1188 0051 05       		.byte	0x5
 1189 0052 C8000000 		.4byte	.LASF6
 1190 0056 02       		.uleb128 0x2
 1191 0057 08       		.byte	0x8
 1192 0058 07       		.byte	0x7
 1193 0059 7B000000 		.4byte	.LASF7
 1194 005d 03       		.uleb128 0x3
 1195 005e 04       		.byte	0x4
 1196 005f 05       		.byte	0x5
 1197 0060 696E7400 		.ascii	"int\000"
 1198 0064 02       		.uleb128 0x2
 1199 0065 04       		.byte	0x4
 1200 0066 07       		.byte	0x7
 1201 0067 CE010000 		.4byte	.LASF8
 1202 006b 04       		.uleb128 0x4
 1203 006c 7A010000 		.4byte	.LASF9
 1204 0070 02       		.byte	0x2
 1205 0071 9201     		.2byte	0x192
 1206 0073 2C000000 		.4byte	0x2c
 1207 0077 04       		.uleb128 0x4
 1208 0078 00000000 		.4byte	.LASF10
 1209 007c 02       		.byte	0x2
 1210 007d 9301     		.2byte	0x193
 1211 007f 3A000000 		.4byte	0x3a
 1212 0083 02       		.uleb128 0x2
 1213 0084 04       		.byte	0x4
 1214 0085 04       		.byte	0x4
 1215 0086 3B030000 		.4byte	.LASF11
 1216 008a 02       		.uleb128 0x2
 1217 008b 08       		.byte	0x8
 1218 008c 04       		.byte	0x4
 1219 008d 91010000 		.4byte	.LASF12
 1220 0091 04       		.uleb128 0x4
ARM GAS  C:\Users\yqh\AppData\Local\Temp\cc55pVRK.s 			page 52


 1221 0092 66040000 		.4byte	.LASF13
 1222 0096 02       		.byte	0x2
 1223 0097 A301     		.2byte	0x1a3
 1224 0099 9D000000 		.4byte	0x9d
 1225 009d 02       		.uleb128 0x2
 1226 009e 01       		.byte	0x1
 1227 009f 08       		.byte	0x8
 1228 00a0 2D040000 		.4byte	.LASF14
 1229 00a4 04       		.uleb128 0x4
 1230 00a5 8D030000 		.4byte	.LASF15
 1231 00a9 02       		.byte	0x2
 1232 00aa 3C02     		.2byte	0x23c
 1233 00ac B0000000 		.4byte	0xb0
 1234 00b0 05       		.uleb128 0x5
 1235 00b1 6B000000 		.4byte	0x6b
 1236 00b5 02       		.uleb128 0x2
 1237 00b6 04       		.byte	0x4
 1238 00b7 07       		.byte	0x7
 1239 00b8 FC020000 		.4byte	.LASF16
 1240 00bc 06       		.uleb128 0x6
 1241 00bd 6C040000 		.4byte	.LASF17
 1242 00c1 01       		.byte	0x1
 1243 00c2 E501     		.2byte	0x1e5
 1244 00c4 6B000000 		.4byte	0x6b
 1245 00c8 01       		.byte	0x1
 1246 00c9 DA000000 		.4byte	0xda
 1247 00cd 07       		.uleb128 0x7
 1248 00ce A7040000 		.4byte	.LASF19
 1249 00d2 01       		.byte	0x1
 1250 00d3 E701     		.2byte	0x1e7
 1251 00d5 6B000000 		.4byte	0x6b
 1252 00d9 00       		.byte	0
 1253 00da 06       		.uleb128 0x6
 1254 00db 5D030000 		.4byte	.LASF18
 1255 00df 01       		.byte	0x1
 1256 00e0 8801     		.2byte	0x188
 1257 00e2 6B000000 		.4byte	0x6b
 1258 00e6 01       		.byte	0x1
 1259 00e7 F8000000 		.4byte	0xf8
 1260 00eb 07       		.uleb128 0x7
 1261 00ec 1F040000 		.4byte	.LASF20
 1262 00f0 01       		.byte	0x1
 1263 00f1 8A01     		.2byte	0x18a
 1264 00f3 6B000000 		.4byte	0x6b
 1265 00f7 00       		.byte	0
 1266 00f8 08       		.uleb128 0x8
 1267 00f9 46040000 		.4byte	.LASF56
 1268 00fd 01       		.byte	0x1
 1269 00fe 2701     		.2byte	0x127
 1270 0100 6B000000 		.4byte	0x6b
 1271 0104 01       		.byte	0x1
 1272 0105 09       		.uleb128 0x9
 1273 0106 A7000000 		.4byte	.LASF61
 1274 010a 01       		.byte	0x1
 1275 010b 3F01     		.2byte	0x13f
 1276 010d 01       		.byte	0x1
 1277 010e 1F010000 		.4byte	0x11f
ARM GAS  C:\Users\yqh\AppData\Local\Temp\cc55pVRK.s 			page 53


 1278 0112 0A       		.uleb128 0xa
 1279 0113 BE010000 		.4byte	.LASF62
 1280 0117 01       		.byte	0x1
 1281 0118 3F01     		.2byte	0x13f
 1282 011a 6B000000 		.4byte	0x6b
 1283 011e 00       		.byte	0
 1284 011f 0B       		.uleb128 0xb
 1285 0120 80010000 		.4byte	.LASF63
 1286 0124 01       		.byte	0x1
 1287 0125 6A       		.byte	0x6a
 1288 0126 00000000 		.4byte	.LFB1
 1289 012a 10000000 		.4byte	.LFE1-.LFB1
 1290 012e 01       		.uleb128 0x1
 1291 012f 9C       		.byte	0x9c
 1292 0130 0C       		.uleb128 0xc
 1293 0131 F3040000 		.4byte	.LASF21
 1294 0135 01       		.byte	0x1
 1295 0136 B7       		.byte	0xb7
 1296 0137 00000000 		.4byte	.LFB2
 1297 013b 24000000 		.4byte	.LFE2-.LFB2
 1298 013f 01       		.uleb128 0x1
 1299 0140 9C       		.byte	0x9c
 1300 0141 67010000 		.4byte	0x167
 1301 0145 0D       		.uleb128 0xd
 1302 0146 96040000 		.4byte	.LASF24
 1303 014a 01       		.byte	0x1
 1304 014b B9       		.byte	0xb9
 1305 014c 6B000000 		.4byte	0x6b
 1306 0150 00000000 		.4byte	.LLST0
 1307 0154 0E       		.uleb128 0xe
 1308 0155 06000000 		.4byte	.LVL0
 1309 0159 12070000 		.4byte	0x712
 1310 015d 0F       		.uleb128 0xf
 1311 015e 20000000 		.4byte	.LVL1
 1312 0162 1D070000 		.4byte	0x71d
 1313 0166 00       		.byte	0
 1314 0167 0C       		.uleb128 0xc
 1315 0168 C7020000 		.4byte	.LASF22
 1316 016c 01       		.byte	0x1
 1317 016d 4C       		.byte	0x4c
 1318 016e 00000000 		.4byte	.LFB0
 1319 0172 1C000000 		.4byte	.LFE0-.LFB0
 1320 0176 01       		.uleb128 0x1
 1321 0177 9C       		.byte	0x9c
 1322 0178 8F010000 		.4byte	0x18f
 1323 017c 0E       		.uleb128 0xe
 1324 017d 0C000000 		.4byte	.LVL2
 1325 0181 1F010000 		.4byte	0x11f
 1326 0185 0F       		.uleb128 0xf
 1327 0186 18000000 		.4byte	.LVL3
 1328 018a 30010000 		.4byte	0x130
 1329 018e 00       		.byte	0
 1330 018f 0C       		.uleb128 0xc
 1331 0190 85040000 		.4byte	.LASF23
 1332 0194 01       		.byte	0x1
 1333 0195 F0       		.byte	0xf0
 1334 0196 00000000 		.4byte	.LFB3
ARM GAS  C:\Users\yqh\AppData\Local\Temp\cc55pVRK.s 			page 54


 1335 019a 24000000 		.4byte	.LFE3-.LFB3
 1336 019e 01       		.uleb128 0x1
 1337 019f 9C       		.byte	0x9c
 1338 01a0 C6010000 		.4byte	0x1c6
 1339 01a4 0D       		.uleb128 0xd
 1340 01a5 96040000 		.4byte	.LASF24
 1341 01a9 01       		.byte	0x1
 1342 01aa F2       		.byte	0xf2
 1343 01ab 6B000000 		.4byte	0x6b
 1344 01af 13000000 		.4byte	.LLST1
 1345 01b3 0E       		.uleb128 0xe
 1346 01b4 06000000 		.4byte	.LVL4
 1347 01b8 12070000 		.4byte	0x712
 1348 01bc 0F       		.uleb128 0xf
 1349 01bd 20000000 		.4byte	.LVL5
 1350 01c1 1D070000 		.4byte	0x71d
 1351 01c5 00       		.byte	0
 1352 01c6 10       		.uleb128 0x10
 1353 01c7 F8000000 		.4byte	0xf8
 1354 01cb 00000000 		.4byte	.LFB4
 1355 01cf 0C000000 		.4byte	.LFE4-.LFB4
 1356 01d3 01       		.uleb128 0x1
 1357 01d4 9C       		.byte	0x9c
 1358 01d5 11       		.uleb128 0x11
 1359 01d6 05010000 		.4byte	0x105
 1360 01da 00000000 		.4byte	.LFB5
 1361 01de 0C000000 		.4byte	.LFE5-.LFB5
 1362 01e2 01       		.uleb128 0x1
 1363 01e3 9C       		.byte	0x9c
 1364 01e4 F0010000 		.4byte	0x1f0
 1365 01e8 12       		.uleb128 0x12
 1366 01e9 12010000 		.4byte	0x112
 1367 01ed 01       		.uleb128 0x1
 1368 01ee 50       		.byte	0x50
 1369 01ef 00       		.byte	0
 1370 01f0 13       		.uleb128 0x13
 1371 01f1 BA030000 		.4byte	.LASF25
 1372 01f5 01       		.byte	0x1
 1373 01f6 6701     		.2byte	0x167
 1374 01f8 00000000 		.4byte	.LFB6
 1375 01fc 0C000000 		.4byte	.LFE6-.LFB6
 1376 0200 01       		.uleb128 0x1
 1377 0201 9C       		.byte	0x9c
 1378 0202 15020000 		.4byte	0x215
 1379 0206 14       		.uleb128 0x14
 1380 0207 D9020000 		.4byte	.LASF33
 1381 020b 01       		.byte	0x1
 1382 020c 6701     		.2byte	0x167
 1383 020e 6B000000 		.4byte	0x6b
 1384 0212 01       		.uleb128 0x1
 1385 0213 50       		.byte	0x50
 1386 0214 00       		.byte	0
 1387 0215 11       		.uleb128 0x11
 1388 0216 DA000000 		.4byte	0xda
 1389 021a 00000000 		.4byte	.LFB7
 1390 021e 0C000000 		.4byte	.LFE7-.LFB7
 1391 0222 01       		.uleb128 0x1
ARM GAS  C:\Users\yqh\AppData\Local\Temp\cc55pVRK.s 			page 55


 1392 0223 9C       		.byte	0x9c
 1393 0224 30020000 		.4byte	0x230
 1394 0228 15       		.uleb128 0x15
 1395 0229 EB000000 		.4byte	0xeb
 1396 022d 01       		.uleb128 0x1
 1397 022e 50       		.byte	0x50
 1398 022f 00       		.byte	0
 1399 0230 11       		.uleb128 0x11
 1400 0231 BC000000 		.4byte	0xbc
 1401 0235 00000000 		.4byte	.LFB8
 1402 0239 10000000 		.4byte	.LFE8-.LFB8
 1403 023d 01       		.uleb128 0x1
 1404 023e 9C       		.byte	0x9c
 1405 023f 4D020000 		.4byte	0x24d
 1406 0243 16       		.uleb128 0x16
 1407 0244 CD000000 		.4byte	0xcd
 1408 0248 26000000 		.4byte	.LLST2
 1409 024c 00       		.byte	0
 1410 024d 17       		.uleb128 0x17
 1411 024e 92020000 		.4byte	.LASF27
 1412 0252 01       		.byte	0x1
 1413 0253 1402     		.2byte	0x214
 1414 0255 6B000000 		.4byte	0x6b
 1415 0259 00000000 		.4byte	.LFB9
 1416 025d 28000000 		.4byte	.LFE9-.LFB9
 1417 0261 01       		.uleb128 0x1
 1418 0262 9C       		.byte	0x9c
 1419 0263 86020000 		.4byte	0x286
 1420 0267 18       		.uleb128 0x18
 1421 0268 1F040000 		.4byte	.LASF20
 1422 026c 01       		.byte	0x1
 1423 026d 1602     		.2byte	0x216
 1424 026f 6B000000 		.4byte	0x6b
 1425 0273 3E000000 		.4byte	.LLST3
 1426 0277 19       		.uleb128 0x19
 1427 0278 32030000 		.4byte	.LASF26
 1428 027c 01       		.byte	0x1
 1429 027d 1702     		.2byte	0x217
 1430 027f 6B000000 		.4byte	0x6b
 1431 0283 01       		.uleb128 0x1
 1432 0284 53       		.byte	0x53
 1433 0285 00       		.byte	0
 1434 0286 17       		.uleb128 0x17
 1435 0287 CB040000 		.4byte	.LASF28
 1436 028b 01       		.byte	0x1
 1437 028c 7A02     		.2byte	0x27a
 1438 028e 77000000 		.4byte	0x77
 1439 0292 00000000 		.4byte	.LFB10
 1440 0296 1C000000 		.4byte	.LFE10-.LFB10
 1441 029a 01       		.uleb128 0x1
 1442 029b 9C       		.byte	0x9c
 1443 029c E5020000 		.4byte	0x2e5
 1444 02a0 1A       		.uleb128 0x1a
 1445 02a1 BC000000 		.4byte	0xbc
 1446 02a5 00000000 		.4byte	.LBB31
 1447 02a9 00000000 		.4byte	.Ldebug_ranges0+0
 1448 02ad 01       		.byte	0x1
ARM GAS  C:\Users\yqh\AppData\Local\Temp\cc55pVRK.s 			page 56


 1449 02ae 8602     		.2byte	0x286
 1450 02b0 C4020000 		.4byte	0x2c4
 1451 02b4 1B       		.uleb128 0x1b
 1452 02b5 00000000 		.4byte	.Ldebug_ranges0+0
 1453 02b9 16       		.uleb128 0x16
 1454 02ba CD000000 		.4byte	0xcd
 1455 02be 5D000000 		.4byte	.LLST4
 1456 02c2 00       		.byte	0
 1457 02c3 00       		.byte	0
 1458 02c4 1C       		.uleb128 0x1c
 1459 02c5 DA000000 		.4byte	0xda
 1460 02c9 02000000 		.4byte	.LBB34
 1461 02cd 18000000 		.4byte	.Ldebug_ranges0+0x18
 1462 02d1 01       		.byte	0x1
 1463 02d2 8602     		.2byte	0x286
 1464 02d4 1B       		.uleb128 0x1b
 1465 02d5 18000000 		.4byte	.Ldebug_ranges0+0x18
 1466 02d9 16       		.uleb128 0x16
 1467 02da EB000000 		.4byte	0xeb
 1468 02de 75000000 		.4byte	.LLST5
 1469 02e2 00       		.byte	0
 1470 02e3 00       		.byte	0
 1471 02e4 00       		.byte	0
 1472 02e5 17       		.uleb128 0x17
 1473 02e6 42000000 		.4byte	.LASF29
 1474 02ea 01       		.byte	0x1
 1475 02eb AB02     		.2byte	0x2ab
 1476 02ed 6B000000 		.4byte	0x6b
 1477 02f1 00000000 		.4byte	.LFB11
 1478 02f5 10000000 		.4byte	.LFE11-.LFB11
 1479 02f9 01       		.uleb128 0x1
 1480 02fa 9C       		.byte	0x9c
 1481 02fb 10030000 		.4byte	0x310
 1482 02ff 18       		.uleb128 0x18
 1483 0300 A6020000 		.4byte	.LASF30
 1484 0304 01       		.byte	0x1
 1485 0305 AE02     		.2byte	0x2ae
 1486 0307 6B000000 		.4byte	0x6b
 1487 030b 88000000 		.4byte	.LLST6
 1488 030f 00       		.byte	0
 1489 0310 13       		.uleb128 0x13
 1490 0311 A0030000 		.4byte	.LASF31
 1491 0315 01       		.byte	0x1
 1492 0316 F502     		.2byte	0x2f5
 1493 0318 00000000 		.4byte	.LFB12
 1494 031c 24000000 		.4byte	.LFE12-.LFB12
 1495 0320 01       		.uleb128 0x1
 1496 0321 9C       		.byte	0x9c
 1497 0322 49030000 		.4byte	0x349
 1498 0326 18       		.uleb128 0x18
 1499 0327 96040000 		.4byte	.LASF24
 1500 032b 01       		.byte	0x1
 1501 032c F702     		.2byte	0x2f7
 1502 032e 6B000000 		.4byte	0x6b
 1503 0332 A4000000 		.4byte	.LLST7
 1504 0336 0E       		.uleb128 0xe
 1505 0337 06000000 		.4byte	.LVL21
ARM GAS  C:\Users\yqh\AppData\Local\Temp\cc55pVRK.s 			page 57


 1506 033b 12070000 		.4byte	0x712
 1507 033f 0F       		.uleb128 0xf
 1508 0340 20000000 		.4byte	.LVL22
 1509 0344 1D070000 		.4byte	0x71d
 1510 0348 00       		.byte	0
 1511 0349 13       		.uleb128 0x13
 1512 034a 5E000000 		.4byte	.LASF32
 1513 034e 01       		.byte	0x1
 1514 034f 2D03     		.2byte	0x32d
 1515 0351 00000000 		.4byte	.LFB13
 1516 0355 02000000 		.4byte	.LFE13-.LFB13
 1517 0359 01       		.uleb128 0x1
 1518 035a 9C       		.byte	0x9c
 1519 035b 6E030000 		.4byte	0x36e
 1520 035f 14       		.uleb128 0x14
 1521 0360 98010000 		.4byte	.LASF34
 1522 0364 01       		.byte	0x1
 1523 0365 2D03     		.2byte	0x32d
 1524 0367 6B000000 		.4byte	0x6b
 1525 036b 01       		.uleb128 0x1
 1526 036c 50       		.byte	0x50
 1527 036d 00       		.byte	0
 1528 036e 13       		.uleb128 0x13
 1529 036f E3030000 		.4byte	.LASF35
 1530 0373 01       		.byte	0x1
 1531 0374 5903     		.2byte	0x359
 1532 0376 00000000 		.4byte	.LFB14
 1533 037a 0C000000 		.4byte	.LFE14-.LFB14
 1534 037e 01       		.uleb128 0x1
 1535 037f 9C       		.byte	0x9c
 1536 0380 93030000 		.4byte	0x393
 1537 0384 14       		.uleb128 0x14
 1538 0385 05030000 		.4byte	.LASF36
 1539 0389 01       		.byte	0x1
 1540 038a 5903     		.2byte	0x359
 1541 038c 6B000000 		.4byte	0x6b
 1542 0390 01       		.uleb128 0x1
 1543 0391 50       		.byte	0x50
 1544 0392 00       		.byte	0
 1545 0393 13       		.uleb128 0x13
 1546 0394 A4010000 		.4byte	.LASF37
 1547 0398 01       		.byte	0x1
 1548 0399 6D03     		.2byte	0x36d
 1549 039b 00000000 		.4byte	.LFB15
 1550 039f 0C000000 		.4byte	.LFE15-.LFB15
 1551 03a3 01       		.uleb128 0x1
 1552 03a4 9C       		.byte	0x9c
 1553 03a5 B8030000 		.4byte	0x3b8
 1554 03a9 14       		.uleb128 0x14
 1555 03aa 05030000 		.4byte	.LASF36
 1556 03ae 01       		.byte	0x1
 1557 03af 6D03     		.2byte	0x36d
 1558 03b1 6B000000 		.4byte	0x6b
 1559 03b5 01       		.uleb128 0x1
 1560 03b6 50       		.byte	0x50
 1561 03b7 00       		.byte	0
 1562 03b8 13       		.uleb128 0x13
ARM GAS  C:\Users\yqh\AppData\Local\Temp\cc55pVRK.s 			page 58


 1563 03b9 1C050000 		.4byte	.LASF38
 1564 03bd 01       		.byte	0x1
 1565 03be 8C03     		.2byte	0x38c
 1566 03c0 00000000 		.4byte	.LFB16
 1567 03c4 0C000000 		.4byte	.LFE16-.LFB16
 1568 03c8 01       		.uleb128 0x1
 1569 03c9 9C       		.byte	0x9c
 1570 03ca DD030000 		.4byte	0x3dd
 1571 03ce 14       		.uleb128 0x14
 1572 03cf D9020000 		.4byte	.LASF33
 1573 03d3 01       		.byte	0x1
 1574 03d4 8C03     		.2byte	0x38c
 1575 03d6 6B000000 		.4byte	0x6b
 1576 03da 01       		.uleb128 0x1
 1577 03db 50       		.byte	0x50
 1578 03dc 00       		.byte	0
 1579 03dd 13       		.uleb128 0x13
 1580 03de FD030000 		.4byte	.LASF39
 1581 03e2 01       		.byte	0x1
 1582 03e3 AE03     		.2byte	0x3ae
 1583 03e5 00000000 		.4byte	.LFB17
 1584 03e9 14000000 		.4byte	.LFE17-.LFB17
 1585 03ed 01       		.uleb128 0x1
 1586 03ee 9C       		.byte	0x9c
 1587 03ef 02040000 		.4byte	0x402
 1588 03f3 14       		.uleb128 0x14
 1589 03f4 1D000000 		.4byte	.LASF40
 1590 03f8 01       		.byte	0x1
 1591 03f9 AE03     		.2byte	0x3ae
 1592 03fb 6B000000 		.4byte	0x6b
 1593 03ff 01       		.uleb128 0x1
 1594 0400 50       		.byte	0x50
 1595 0401 00       		.byte	0
 1596 0402 1D       		.uleb128 0x1d
 1597 0403 61010000 		.4byte	.LASF64
 1598 0407 01       		.byte	0x1
 1599 0408 EB03     		.2byte	0x3eb
 1600 040a 6B000000 		.4byte	0x6b
 1601 040e 00000000 		.4byte	.LFB18
 1602 0412 0C000000 		.4byte	.LFE18-.LFB18
 1603 0416 01       		.uleb128 0x1
 1604 0417 9C       		.byte	0x9c
 1605 0418 13       		.uleb128 0x13
 1606 0419 32040000 		.4byte	.LASF41
 1607 041d 01       		.byte	0x1
 1608 041e 1104     		.2byte	0x411
 1609 0420 00000000 		.4byte	.LFB19
 1610 0424 18000000 		.4byte	.LFE19-.LFB19
 1611 0428 01       		.uleb128 0x1
 1612 0429 9C       		.byte	0x9c
 1613 042a 3D040000 		.4byte	0x43d
 1614 042e 14       		.uleb128 0x14
 1615 042f 1D000000 		.4byte	.LASF40
 1616 0433 01       		.byte	0x1
 1617 0434 1104     		.2byte	0x411
 1618 0436 6B000000 		.4byte	0x6b
 1619 043a 01       		.uleb128 0x1
ARM GAS  C:\Users\yqh\AppData\Local\Temp\cc55pVRK.s 			page 59


 1620 043b 50       		.byte	0x50
 1621 043c 00       		.byte	0
 1622 043d 13       		.uleb128 0x13
 1623 043e 29010000 		.4byte	.LASF42
 1624 0442 01       		.byte	0x1
 1625 0443 7904     		.2byte	0x479
 1626 0445 00000000 		.4byte	.LFB20
 1627 0449 24000000 		.4byte	.LFE20-.LFB20
 1628 044d 01       		.uleb128 0x1
 1629 044e 9C       		.byte	0x9c
 1630 044f 7D040000 		.4byte	0x47d
 1631 0453 1E       		.uleb128 0x1e
 1632 0454 26040000 		.4byte	.LASF43
 1633 0458 01       		.byte	0x1
 1634 0459 7904     		.2byte	0x479
 1635 045b 7D040000 		.4byte	0x47d
 1636 045f B7000000 		.4byte	.LLST8
 1637 0463 18       		.uleb128 0x18
 1638 0464 BE020000 		.4byte	.LASF44
 1639 0468 01       		.byte	0x1
 1640 0469 7B04     		.2byte	0x47b
 1641 046b 77000000 		.4byte	0x77
 1642 046f E3000000 		.4byte	.LLST9
 1643 0473 0E       		.uleb128 0xe
 1644 0474 1A000000 		.4byte	.LVL32
 1645 0478 18040000 		.4byte	0x418
 1646 047c 00       		.byte	0
 1647 047d 1F       		.uleb128 0x1f
 1648 047e 04       		.byte	0x4
 1649 047f 83040000 		.4byte	0x483
 1650 0483 20       		.uleb128 0x20
 1651 0484 91000000 		.4byte	0x91
 1652 0488 13       		.uleb128 0x13
 1653 0489 92000000 		.4byte	.LASF45
 1654 048d 01       		.byte	0x1
 1655 048e A704     		.2byte	0x4a7
 1656 0490 00000000 		.4byte	.LFB21
 1657 0494 24000000 		.4byte	.LFE21-.LFB21
 1658 0498 01       		.uleb128 0x1
 1659 0499 9C       		.byte	0x9c
 1660 049a D8040000 		.4byte	0x4d8
 1661 049e 1E       		.uleb128 0x1e
 1662 049f 26040000 		.4byte	.LASF43
 1663 04a3 01       		.byte	0x1
 1664 04a4 A704     		.2byte	0x4a7
 1665 04a6 D8040000 		.4byte	0x4d8
 1666 04aa 23010000 		.4byte	.LLST10
 1667 04ae 1E       		.uleb128 0x1e
 1668 04af 15040000 		.4byte	.LASF46
 1669 04b3 01       		.byte	0x1
 1670 04b4 A704     		.2byte	0x4a7
 1671 04b6 6B000000 		.4byte	0x6b
 1672 04ba 44010000 		.4byte	.LLST11
 1673 04be 18       		.uleb128 0x18
 1674 04bf BE020000 		.4byte	.LASF44
 1675 04c3 01       		.byte	0x1
 1676 04c4 AA04     		.2byte	0x4aa
ARM GAS  C:\Users\yqh\AppData\Local\Temp\cc55pVRK.s 			page 60


 1677 04c6 6B000000 		.4byte	0x6b
 1678 04ca 65010000 		.4byte	.LLST12
 1679 04ce 0E       		.uleb128 0xe
 1680 04cf 1A000000 		.4byte	.LVL39
 1681 04d3 18040000 		.4byte	0x418
 1682 04d7 00       		.byte	0
 1683 04d8 1F       		.uleb128 0x1f
 1684 04d9 04       		.byte	0x4
 1685 04da DE040000 		.4byte	0x4de
 1686 04de 20       		.uleb128 0x20
 1687 04df 6B000000 		.4byte	0x6b
 1688 04e3 13       		.uleb128 0x13
 1689 04e4 DF040000 		.4byte	.LASF47
 1690 04e8 01       		.byte	0x1
 1691 04e9 CE04     		.2byte	0x4ce
 1692 04eb 00000000 		.4byte	.LFB22
 1693 04ef 24000000 		.4byte	.LFE22-.LFB22
 1694 04f3 01       		.uleb128 0x1
 1695 04f4 9C       		.byte	0x9c
 1696 04f5 35050000 		.4byte	0x535
 1697 04f9 1E       		.uleb128 0x1e
 1698 04fa 1D000000 		.4byte	.LASF40
 1699 04fe 01       		.byte	0x1
 1700 04ff CE04     		.2byte	0x4ce
 1701 0501 6B000000 		.4byte	0x6b
 1702 0505 9F010000 		.4byte	.LLST13
 1703 0509 0E       		.uleb128 0xe
 1704 050a 0C000000 		.4byte	.LVL42
 1705 050e 18040000 		.4byte	0x418
 1706 0512 21       		.uleb128 0x21
 1707 0513 12000000 		.4byte	.LVL43
 1708 0517 18040000 		.4byte	0x418
 1709 051b 25050000 		.4byte	0x525
 1710 051f 22       		.uleb128 0x22
 1711 0520 01       		.uleb128 0x1
 1712 0521 50       		.byte	0x50
 1713 0522 01       		.uleb128 0x1
 1714 0523 3D       		.byte	0x3d
 1715 0524 00       		.byte	0
 1716 0525 23       		.uleb128 0x23
 1717 0526 1C000000 		.4byte	.LVL44
 1718 052a 18040000 		.4byte	0x418
 1719 052e 22       		.uleb128 0x22
 1720 052f 01       		.uleb128 0x1
 1721 0530 50       		.byte	0x50
 1722 0531 01       		.uleb128 0x1
 1723 0532 3A       		.byte	0x3a
 1724 0533 00       		.byte	0
 1725 0534 00       		.byte	0
 1726 0535 17       		.uleb128 0x17
 1727 0536 41030000 		.4byte	.LASF48
 1728 053a 01       		.byte	0x1
 1729 053b F904     		.2byte	0x4f9
 1730 053d 6B000000 		.4byte	0x6b
 1731 0541 00000000 		.4byte	.LFB23
 1732 0545 1C000000 		.4byte	.LFE23-.LFB23
 1733 0549 01       		.uleb128 0x1
ARM GAS  C:\Users\yqh\AppData\Local\Temp\cc55pVRK.s 			page 61


 1734 054a 9C       		.byte	0x9c
 1735 054b 60050000 		.4byte	0x560
 1736 054f 18       		.uleb128 0x18
 1737 0550 A6020000 		.4byte	.LASF30
 1738 0554 01       		.byte	0x1
 1739 0555 FC04     		.2byte	0x4fc
 1740 0557 6B000000 		.4byte	0x6b
 1741 055b CB010000 		.4byte	.LLST14
 1742 055f 00       		.byte	0
 1743 0560 13       		.uleb128 0x13
 1744 0561 28000000 		.4byte	.LASF49
 1745 0565 01       		.byte	0x1
 1746 0566 4A05     		.2byte	0x54a
 1747 0568 00000000 		.4byte	.LFB24
 1748 056c 24000000 		.4byte	.LFE24-.LFB24
 1749 0570 01       		.uleb128 0x1
 1750 0571 9C       		.byte	0x9c
 1751 0572 99050000 		.4byte	0x599
 1752 0576 18       		.uleb128 0x18
 1753 0577 96040000 		.4byte	.LASF24
 1754 057b 01       		.byte	0x1
 1755 057c 4C05     		.2byte	0x54c
 1756 057e 6B000000 		.4byte	0x6b
 1757 0582 E9010000 		.4byte	.LLST15
 1758 0586 0E       		.uleb128 0xe
 1759 0587 06000000 		.4byte	.LVL48
 1760 058b 12070000 		.4byte	0x712
 1761 058f 0F       		.uleb128 0xf
 1762 0590 20000000 		.4byte	.LVL49
 1763 0594 1D070000 		.4byte	0x71d
 1764 0598 00       		.byte	0
 1765 0599 13       		.uleb128 0x13
 1766 059a 06050000 		.4byte	.LASF50
 1767 059e 01       		.byte	0x1
 1768 059f A005     		.2byte	0x5a0
 1769 05a1 00000000 		.4byte	.LFB25
 1770 05a5 60000000 		.4byte	.LFE25-.LFB25
 1771 05a9 01       		.uleb128 0x1
 1772 05aa 9C       		.byte	0x9c
 1773 05ab 32060000 		.4byte	0x632
 1774 05af 1E       		.uleb128 0x1e
 1775 05b0 C6010000 		.4byte	.LASF51
 1776 05b4 01       		.byte	0x1
 1777 05b5 A005     		.2byte	0x5a0
 1778 05b7 6B000000 		.4byte	0x6b
 1779 05bb FC010000 		.4byte	.LLST16
 1780 05bf 24       		.uleb128 0x24
 1781 05c0 06000000 		.4byte	.LBB39
 1782 05c4 5A000000 		.4byte	.LBE39-.LBB39
 1783 05c8 18       		.uleb128 0x18
 1784 05c9 F4020000 		.4byte	.LASF52
 1785 05cd 01       		.byte	0x1
 1786 05ce A805     		.2byte	0x5a8
 1787 05d0 6B000000 		.4byte	0x6b
 1788 05d4 41020000 		.4byte	.LLST17
 1789 05d8 25       		.uleb128 0x25
 1790 05d9 F8000000 		.4byte	0xf8
ARM GAS  C:\Users\yqh\AppData\Local\Temp\cc55pVRK.s 			page 62


 1791 05dd 0C000000 		.4byte	.LBB40
 1792 05e1 04000000 		.4byte	.LBE40-.LBB40
 1793 05e5 01       		.byte	0x1
 1794 05e6 B005     		.2byte	0x5b0
 1795 05e8 26       		.uleb128 0x26
 1796 05e9 05010000 		.4byte	0x105
 1797 05ed 14000000 		.4byte	.LBB42
 1798 05f1 02000000 		.4byte	.LBE42-.LBB42
 1799 05f5 01       		.byte	0x1
 1800 05f6 B005     		.2byte	0x5b0
 1801 05f8 06060000 		.4byte	0x606
 1802 05fc 27       		.uleb128 0x27
 1803 05fd 12010000 		.4byte	0x112
 1804 0601 5F020000 		.4byte	.LLST18
 1805 0605 00       		.byte	0
 1806 0606 25       		.uleb128 0x25
 1807 0607 F8000000 		.4byte	0xf8
 1808 060b 3E000000 		.4byte	.LBB44
 1809 060f 04000000 		.4byte	.LBE44-.LBB44
 1810 0613 01       		.byte	0x1
 1811 0614 CA05     		.2byte	0x5ca
 1812 0616 28       		.uleb128 0x28
 1813 0617 05010000 		.4byte	0x105
 1814 061b 46000000 		.4byte	.LBB46
 1815 061f 04000000 		.4byte	.LBE46-.LBB46
 1816 0623 01       		.byte	0x1
 1817 0624 CA05     		.2byte	0x5ca
 1818 0626 27       		.uleb128 0x27
 1819 0627 12010000 		.4byte	0x112
 1820 062b 8D020000 		.4byte	.LLST19
 1821 062f 00       		.byte	0
 1822 0630 00       		.byte	0
 1823 0631 00       		.byte	0
 1824 0632 13       		.uleb128 0x13
 1825 0633 AE040000 		.4byte	.LASF53
 1826 0637 01       		.byte	0x1
 1827 0638 2406     		.2byte	0x624
 1828 063a 00000000 		.4byte	.LFB26
 1829 063e 18000000 		.4byte	.LFE26-.LFB26
 1830 0642 01       		.uleb128 0x1
 1831 0643 9C       		.byte	0x9c
 1832 0644 7F060000 		.4byte	0x67f
 1833 0648 14       		.uleb128 0x14
 1834 0649 98010000 		.4byte	.LASF34
 1835 064d 01       		.byte	0x1
 1836 064e 2406     		.2byte	0x624
 1837 0650 6B000000 		.4byte	0x6b
 1838 0654 01       		.uleb128 0x1
 1839 0655 50       		.byte	0x50
 1840 0656 25       		.uleb128 0x25
 1841 0657 F8000000 		.4byte	0xf8
 1842 065b 02000000 		.4byte	.LBB48
 1843 065f 02000000 		.4byte	.LBE48-.LBB48
 1844 0663 01       		.byte	0x1
 1845 0664 2A06     		.2byte	0x62a
 1846 0666 28       		.uleb128 0x28
 1847 0667 05010000 		.4byte	0x105
ARM GAS  C:\Users\yqh\AppData\Local\Temp\cc55pVRK.s 			page 63


 1848 066b 10000000 		.4byte	.LBB50
 1849 066f 08000000 		.4byte	.LBE50-.LBB50
 1850 0673 01       		.byte	0x1
 1851 0674 3106     		.2byte	0x631
 1852 0676 12       		.uleb128 0x12
 1853 0677 12010000 		.4byte	0x112
 1854 067b 01       		.uleb128 0x1
 1855 067c 52       		.byte	0x52
 1856 067d 00       		.byte	0
 1857 067e 00       		.byte	0
 1858 067f 13       		.uleb128 0x13
 1859 0680 48010000 		.4byte	.LASF54
 1860 0684 01       		.byte	0x1
 1861 0685 5006     		.2byte	0x650
 1862 0687 00000000 		.4byte	.LFB27
 1863 068b 1C000000 		.4byte	.LFE27-.LFB27
 1864 068f 01       		.uleb128 0x1
 1865 0690 9C       		.byte	0x9c
 1866 0691 C0060000 		.4byte	0x6c0
 1867 0695 25       		.uleb128 0x25
 1868 0696 F8000000 		.4byte	0xf8
 1869 069a 00000000 		.4byte	.LBB52
 1870 069e 04000000 		.4byte	.LBE52-.LBB52
 1871 06a2 01       		.byte	0x1
 1872 06a3 5206     		.2byte	0x652
 1873 06a5 28       		.uleb128 0x28
 1874 06a6 05010000 		.4byte	0x105
 1875 06aa 08000000 		.4byte	.LBB54
 1876 06ae 02000000 		.4byte	.LBE54-.LBB54
 1877 06b2 01       		.byte	0x1
 1878 06b3 5206     		.2byte	0x652
 1879 06b5 27       		.uleb128 0x27
 1880 06b6 12010000 		.4byte	0x112
 1881 06ba A0020000 		.4byte	.LLST20
 1882 06be 00       		.byte	0
 1883 06bf 00       		.byte	0
 1884 06c0 13       		.uleb128 0x13
 1885 06c1 74030000 		.4byte	.LASF55
 1886 06c5 01       		.byte	0x1
 1887 06c6 7006     		.2byte	0x670
 1888 06c8 00000000 		.4byte	.LFB28
 1889 06cc 1C000000 		.4byte	.LFE28-.LFB28
 1890 06d0 01       		.uleb128 0x1
 1891 06d1 9C       		.byte	0x9c
 1892 06d2 01070000 		.4byte	0x701
 1893 06d6 25       		.uleb128 0x25
 1894 06d7 F8000000 		.4byte	0xf8
 1895 06db 00000000 		.4byte	.LBB56
 1896 06df 04000000 		.4byte	.LBE56-.LBB56
 1897 06e3 01       		.byte	0x1
 1898 06e4 7706     		.2byte	0x677
 1899 06e6 28       		.uleb128 0x28
 1900 06e7 05010000 		.4byte	0x105
 1901 06eb 08000000 		.4byte	.LBB58
 1902 06ef 02000000 		.4byte	.LBE58-.LBB58
 1903 06f3 01       		.byte	0x1
 1904 06f4 7706     		.2byte	0x677
ARM GAS  C:\Users\yqh\AppData\Local\Temp\cc55pVRK.s 			page 64


 1905 06f6 27       		.uleb128 0x27
 1906 06f7 12010000 		.4byte	0x112
 1907 06fb CE020000 		.4byte	.LLST21
 1908 06ff 00       		.byte	0
 1909 0700 00       		.byte	0
 1910 0701 29       		.uleb128 0x29
 1911 0702 E0020000 		.4byte	.LASF65
 1912 0706 01       		.byte	0x1
 1913 0707 1B       		.byte	0x1b
 1914 0708 6B000000 		.4byte	0x6b
 1915 070c 05       		.uleb128 0x5
 1916 070d 03       		.byte	0x3
 1917 070e 00000000 		.4byte	UART_READER_initVar
 1918 0712 2A       		.uleb128 0x2a
 1919 0713 7B020000 		.4byte	.LASF57
 1920 0717 03       		.byte	0x3
 1921 0718 7D       		.byte	0x7d
 1922 0719 6B000000 		.4byte	0x6b
 1923 071d 2B       		.uleb128 0x2b
 1924 071e 07000000 		.4byte	.LASF66
 1925 0722 03       		.byte	0x3
 1926 0723 7E       		.byte	0x7e
 1927 0724 2C       		.uleb128 0x2c
 1928 0725 6B000000 		.4byte	0x6b
 1929 0729 00       		.byte	0
 1930 072a 00       		.byte	0
 1931              		.section	.debug_abbrev,"",%progbits
 1932              	.Ldebug_abbrev0:
 1933 0000 01       		.uleb128 0x1
 1934 0001 11       		.uleb128 0x11
 1935 0002 01       		.byte	0x1
 1936 0003 25       		.uleb128 0x25
 1937 0004 0E       		.uleb128 0xe
 1938 0005 13       		.uleb128 0x13
 1939 0006 0B       		.uleb128 0xb
 1940 0007 03       		.uleb128 0x3
 1941 0008 0E       		.uleb128 0xe
 1942 0009 1B       		.uleb128 0x1b
 1943 000a 0E       		.uleb128 0xe
 1944 000b 55       		.uleb128 0x55
 1945 000c 17       		.uleb128 0x17
 1946 000d 11       		.uleb128 0x11
 1947 000e 01       		.uleb128 0x1
 1948 000f 10       		.uleb128 0x10
 1949 0010 17       		.uleb128 0x17
 1950 0011 00       		.byte	0
 1951 0012 00       		.byte	0
 1952 0013 02       		.uleb128 0x2
 1953 0014 24       		.uleb128 0x24
 1954 0015 00       		.byte	0
 1955 0016 0B       		.uleb128 0xb
 1956 0017 0B       		.uleb128 0xb
 1957 0018 3E       		.uleb128 0x3e
 1958 0019 0B       		.uleb128 0xb
 1959 001a 03       		.uleb128 0x3
 1960 001b 0E       		.uleb128 0xe
 1961 001c 00       		.byte	0
ARM GAS  C:\Users\yqh\AppData\Local\Temp\cc55pVRK.s 			page 65


 1962 001d 00       		.byte	0
 1963 001e 03       		.uleb128 0x3
 1964 001f 24       		.uleb128 0x24
 1965 0020 00       		.byte	0
 1966 0021 0B       		.uleb128 0xb
 1967 0022 0B       		.uleb128 0xb
 1968 0023 3E       		.uleb128 0x3e
 1969 0024 0B       		.uleb128 0xb
 1970 0025 03       		.uleb128 0x3
 1971 0026 08       		.uleb128 0x8
 1972 0027 00       		.byte	0
 1973 0028 00       		.byte	0
 1974 0029 04       		.uleb128 0x4
 1975 002a 16       		.uleb128 0x16
 1976 002b 00       		.byte	0
 1977 002c 03       		.uleb128 0x3
 1978 002d 0E       		.uleb128 0xe
 1979 002e 3A       		.uleb128 0x3a
 1980 002f 0B       		.uleb128 0xb
 1981 0030 3B       		.uleb128 0x3b
 1982 0031 05       		.uleb128 0x5
 1983 0032 49       		.uleb128 0x49
 1984 0033 13       		.uleb128 0x13
 1985 0034 00       		.byte	0
 1986 0035 00       		.byte	0
 1987 0036 05       		.uleb128 0x5
 1988 0037 35       		.uleb128 0x35
 1989 0038 00       		.byte	0
 1990 0039 49       		.uleb128 0x49
 1991 003a 13       		.uleb128 0x13
 1992 003b 00       		.byte	0
 1993 003c 00       		.byte	0
 1994 003d 06       		.uleb128 0x6
 1995 003e 2E       		.uleb128 0x2e
 1996 003f 01       		.byte	0x1
 1997 0040 3F       		.uleb128 0x3f
 1998 0041 19       		.uleb128 0x19
 1999 0042 03       		.uleb128 0x3
 2000 0043 0E       		.uleb128 0xe
 2001 0044 3A       		.uleb128 0x3a
 2002 0045 0B       		.uleb128 0xb
 2003 0046 3B       		.uleb128 0x3b
 2004 0047 05       		.uleb128 0x5
 2005 0048 27       		.uleb128 0x27
 2006 0049 19       		.uleb128 0x19
 2007 004a 49       		.uleb128 0x49
 2008 004b 13       		.uleb128 0x13
 2009 004c 20       		.uleb128 0x20
 2010 004d 0B       		.uleb128 0xb
 2011 004e 01       		.uleb128 0x1
 2012 004f 13       		.uleb128 0x13
 2013 0050 00       		.byte	0
 2014 0051 00       		.byte	0
 2015 0052 07       		.uleb128 0x7
 2016 0053 34       		.uleb128 0x34
 2017 0054 00       		.byte	0
 2018 0055 03       		.uleb128 0x3
ARM GAS  C:\Users\yqh\AppData\Local\Temp\cc55pVRK.s 			page 66


 2019 0056 0E       		.uleb128 0xe
 2020 0057 3A       		.uleb128 0x3a
 2021 0058 0B       		.uleb128 0xb
 2022 0059 3B       		.uleb128 0x3b
 2023 005a 05       		.uleb128 0x5
 2024 005b 49       		.uleb128 0x49
 2025 005c 13       		.uleb128 0x13
 2026 005d 00       		.byte	0
 2027 005e 00       		.byte	0
 2028 005f 08       		.uleb128 0x8
 2029 0060 2E       		.uleb128 0x2e
 2030 0061 00       		.byte	0
 2031 0062 3F       		.uleb128 0x3f
 2032 0063 19       		.uleb128 0x19
 2033 0064 03       		.uleb128 0x3
 2034 0065 0E       		.uleb128 0xe
 2035 0066 3A       		.uleb128 0x3a
 2036 0067 0B       		.uleb128 0xb
 2037 0068 3B       		.uleb128 0x3b
 2038 0069 05       		.uleb128 0x5
 2039 006a 27       		.uleb128 0x27
 2040 006b 19       		.uleb128 0x19
 2041 006c 49       		.uleb128 0x49
 2042 006d 13       		.uleb128 0x13
 2043 006e 20       		.uleb128 0x20
 2044 006f 0B       		.uleb128 0xb
 2045 0070 00       		.byte	0
 2046 0071 00       		.byte	0
 2047 0072 09       		.uleb128 0x9
 2048 0073 2E       		.uleb128 0x2e
 2049 0074 01       		.byte	0x1
 2050 0075 3F       		.uleb128 0x3f
 2051 0076 19       		.uleb128 0x19
 2052 0077 03       		.uleb128 0x3
 2053 0078 0E       		.uleb128 0xe
 2054 0079 3A       		.uleb128 0x3a
 2055 007a 0B       		.uleb128 0xb
 2056 007b 3B       		.uleb128 0x3b
 2057 007c 05       		.uleb128 0x5
 2058 007d 27       		.uleb128 0x27
 2059 007e 19       		.uleb128 0x19
 2060 007f 20       		.uleb128 0x20
 2061 0080 0B       		.uleb128 0xb
 2062 0081 01       		.uleb128 0x1
 2063 0082 13       		.uleb128 0x13
 2064 0083 00       		.byte	0
 2065 0084 00       		.byte	0
 2066 0085 0A       		.uleb128 0xa
 2067 0086 05       		.uleb128 0x5
 2068 0087 00       		.byte	0
 2069 0088 03       		.uleb128 0x3
 2070 0089 0E       		.uleb128 0xe
 2071 008a 3A       		.uleb128 0x3a
 2072 008b 0B       		.uleb128 0xb
 2073 008c 3B       		.uleb128 0x3b
 2074 008d 05       		.uleb128 0x5
 2075 008e 49       		.uleb128 0x49
ARM GAS  C:\Users\yqh\AppData\Local\Temp\cc55pVRK.s 			page 67


 2076 008f 13       		.uleb128 0x13
 2077 0090 00       		.byte	0
 2078 0091 00       		.byte	0
 2079 0092 0B       		.uleb128 0xb
 2080 0093 2E       		.uleb128 0x2e
 2081 0094 00       		.byte	0
 2082 0095 3F       		.uleb128 0x3f
 2083 0096 19       		.uleb128 0x19
 2084 0097 03       		.uleb128 0x3
 2085 0098 0E       		.uleb128 0xe
 2086 0099 3A       		.uleb128 0x3a
 2087 009a 0B       		.uleb128 0xb
 2088 009b 3B       		.uleb128 0x3b
 2089 009c 0B       		.uleb128 0xb
 2090 009d 27       		.uleb128 0x27
 2091 009e 19       		.uleb128 0x19
 2092 009f 11       		.uleb128 0x11
 2093 00a0 01       		.uleb128 0x1
 2094 00a1 12       		.uleb128 0x12
 2095 00a2 06       		.uleb128 0x6
 2096 00a3 40       		.uleb128 0x40
 2097 00a4 18       		.uleb128 0x18
 2098 00a5 9742     		.uleb128 0x2117
 2099 00a7 19       		.uleb128 0x19
 2100 00a8 00       		.byte	0
 2101 00a9 00       		.byte	0
 2102 00aa 0C       		.uleb128 0xc
 2103 00ab 2E       		.uleb128 0x2e
 2104 00ac 01       		.byte	0x1
 2105 00ad 3F       		.uleb128 0x3f
 2106 00ae 19       		.uleb128 0x19
 2107 00af 03       		.uleb128 0x3
 2108 00b0 0E       		.uleb128 0xe
 2109 00b1 3A       		.uleb128 0x3a
 2110 00b2 0B       		.uleb128 0xb
 2111 00b3 3B       		.uleb128 0x3b
 2112 00b4 0B       		.uleb128 0xb
 2113 00b5 27       		.uleb128 0x27
 2114 00b6 19       		.uleb128 0x19
 2115 00b7 11       		.uleb128 0x11
 2116 00b8 01       		.uleb128 0x1
 2117 00b9 12       		.uleb128 0x12
 2118 00ba 06       		.uleb128 0x6
 2119 00bb 40       		.uleb128 0x40
 2120 00bc 18       		.uleb128 0x18
 2121 00bd 9742     		.uleb128 0x2117
 2122 00bf 19       		.uleb128 0x19
 2123 00c0 01       		.uleb128 0x1
 2124 00c1 13       		.uleb128 0x13
 2125 00c2 00       		.byte	0
 2126 00c3 00       		.byte	0
 2127 00c4 0D       		.uleb128 0xd
 2128 00c5 34       		.uleb128 0x34
 2129 00c6 00       		.byte	0
 2130 00c7 03       		.uleb128 0x3
 2131 00c8 0E       		.uleb128 0xe
 2132 00c9 3A       		.uleb128 0x3a
ARM GAS  C:\Users\yqh\AppData\Local\Temp\cc55pVRK.s 			page 68


 2133 00ca 0B       		.uleb128 0xb
 2134 00cb 3B       		.uleb128 0x3b
 2135 00cc 0B       		.uleb128 0xb
 2136 00cd 49       		.uleb128 0x49
 2137 00ce 13       		.uleb128 0x13
 2138 00cf 02       		.uleb128 0x2
 2139 00d0 17       		.uleb128 0x17
 2140 00d1 00       		.byte	0
 2141 00d2 00       		.byte	0
 2142 00d3 0E       		.uleb128 0xe
 2143 00d4 898201   		.uleb128 0x4109
 2144 00d7 00       		.byte	0
 2145 00d8 11       		.uleb128 0x11
 2146 00d9 01       		.uleb128 0x1
 2147 00da 31       		.uleb128 0x31
 2148 00db 13       		.uleb128 0x13
 2149 00dc 00       		.byte	0
 2150 00dd 00       		.byte	0
 2151 00de 0F       		.uleb128 0xf
 2152 00df 898201   		.uleb128 0x4109
 2153 00e2 00       		.byte	0
 2154 00e3 11       		.uleb128 0x11
 2155 00e4 01       		.uleb128 0x1
 2156 00e5 9542     		.uleb128 0x2115
 2157 00e7 19       		.uleb128 0x19
 2158 00e8 31       		.uleb128 0x31
 2159 00e9 13       		.uleb128 0x13
 2160 00ea 00       		.byte	0
 2161 00eb 00       		.byte	0
 2162 00ec 10       		.uleb128 0x10
 2163 00ed 2E       		.uleb128 0x2e
 2164 00ee 00       		.byte	0
 2165 00ef 31       		.uleb128 0x31
 2166 00f0 13       		.uleb128 0x13
 2167 00f1 11       		.uleb128 0x11
 2168 00f2 01       		.uleb128 0x1
 2169 00f3 12       		.uleb128 0x12
 2170 00f4 06       		.uleb128 0x6
 2171 00f5 40       		.uleb128 0x40
 2172 00f6 18       		.uleb128 0x18
 2173 00f7 9742     		.uleb128 0x2117
 2174 00f9 19       		.uleb128 0x19
 2175 00fa 00       		.byte	0
 2176 00fb 00       		.byte	0
 2177 00fc 11       		.uleb128 0x11
 2178 00fd 2E       		.uleb128 0x2e
 2179 00fe 01       		.byte	0x1
 2180 00ff 31       		.uleb128 0x31
 2181 0100 13       		.uleb128 0x13
 2182 0101 11       		.uleb128 0x11
 2183 0102 01       		.uleb128 0x1
 2184 0103 12       		.uleb128 0x12
 2185 0104 06       		.uleb128 0x6
 2186 0105 40       		.uleb128 0x40
 2187 0106 18       		.uleb128 0x18
 2188 0107 9742     		.uleb128 0x2117
 2189 0109 19       		.uleb128 0x19
ARM GAS  C:\Users\yqh\AppData\Local\Temp\cc55pVRK.s 			page 69


 2190 010a 01       		.uleb128 0x1
 2191 010b 13       		.uleb128 0x13
 2192 010c 00       		.byte	0
 2193 010d 00       		.byte	0
 2194 010e 12       		.uleb128 0x12
 2195 010f 05       		.uleb128 0x5
 2196 0110 00       		.byte	0
 2197 0111 31       		.uleb128 0x31
 2198 0112 13       		.uleb128 0x13
 2199 0113 02       		.uleb128 0x2
 2200 0114 18       		.uleb128 0x18
 2201 0115 00       		.byte	0
 2202 0116 00       		.byte	0
 2203 0117 13       		.uleb128 0x13
 2204 0118 2E       		.uleb128 0x2e
 2205 0119 01       		.byte	0x1
 2206 011a 3F       		.uleb128 0x3f
 2207 011b 19       		.uleb128 0x19
 2208 011c 03       		.uleb128 0x3
 2209 011d 0E       		.uleb128 0xe
 2210 011e 3A       		.uleb128 0x3a
 2211 011f 0B       		.uleb128 0xb
 2212 0120 3B       		.uleb128 0x3b
 2213 0121 05       		.uleb128 0x5
 2214 0122 27       		.uleb128 0x27
 2215 0123 19       		.uleb128 0x19
 2216 0124 11       		.uleb128 0x11
 2217 0125 01       		.uleb128 0x1
 2218 0126 12       		.uleb128 0x12
 2219 0127 06       		.uleb128 0x6
 2220 0128 40       		.uleb128 0x40
 2221 0129 18       		.uleb128 0x18
 2222 012a 9742     		.uleb128 0x2117
 2223 012c 19       		.uleb128 0x19
 2224 012d 01       		.uleb128 0x1
 2225 012e 13       		.uleb128 0x13
 2226 012f 00       		.byte	0
 2227 0130 00       		.byte	0
 2228 0131 14       		.uleb128 0x14
 2229 0132 05       		.uleb128 0x5
 2230 0133 00       		.byte	0
 2231 0134 03       		.uleb128 0x3
 2232 0135 0E       		.uleb128 0xe
 2233 0136 3A       		.uleb128 0x3a
 2234 0137 0B       		.uleb128 0xb
 2235 0138 3B       		.uleb128 0x3b
 2236 0139 05       		.uleb128 0x5
 2237 013a 49       		.uleb128 0x49
 2238 013b 13       		.uleb128 0x13
 2239 013c 02       		.uleb128 0x2
 2240 013d 18       		.uleb128 0x18
 2241 013e 00       		.byte	0
 2242 013f 00       		.byte	0
 2243 0140 15       		.uleb128 0x15
 2244 0141 34       		.uleb128 0x34
 2245 0142 00       		.byte	0
 2246 0143 31       		.uleb128 0x31
ARM GAS  C:\Users\yqh\AppData\Local\Temp\cc55pVRK.s 			page 70


 2247 0144 13       		.uleb128 0x13
 2248 0145 02       		.uleb128 0x2
 2249 0146 18       		.uleb128 0x18
 2250 0147 00       		.byte	0
 2251 0148 00       		.byte	0
 2252 0149 16       		.uleb128 0x16
 2253 014a 34       		.uleb128 0x34
 2254 014b 00       		.byte	0
 2255 014c 31       		.uleb128 0x31
 2256 014d 13       		.uleb128 0x13
 2257 014e 02       		.uleb128 0x2
 2258 014f 17       		.uleb128 0x17
 2259 0150 00       		.byte	0
 2260 0151 00       		.byte	0
 2261 0152 17       		.uleb128 0x17
 2262 0153 2E       		.uleb128 0x2e
 2263 0154 01       		.byte	0x1
 2264 0155 3F       		.uleb128 0x3f
 2265 0156 19       		.uleb128 0x19
 2266 0157 03       		.uleb128 0x3
 2267 0158 0E       		.uleb128 0xe
 2268 0159 3A       		.uleb128 0x3a
 2269 015a 0B       		.uleb128 0xb
 2270 015b 3B       		.uleb128 0x3b
 2271 015c 05       		.uleb128 0x5
 2272 015d 27       		.uleb128 0x27
 2273 015e 19       		.uleb128 0x19
 2274 015f 49       		.uleb128 0x49
 2275 0160 13       		.uleb128 0x13
 2276 0161 11       		.uleb128 0x11
 2277 0162 01       		.uleb128 0x1
 2278 0163 12       		.uleb128 0x12
 2279 0164 06       		.uleb128 0x6
 2280 0165 40       		.uleb128 0x40
 2281 0166 18       		.uleb128 0x18
 2282 0167 9742     		.uleb128 0x2117
 2283 0169 19       		.uleb128 0x19
 2284 016a 01       		.uleb128 0x1
 2285 016b 13       		.uleb128 0x13
 2286 016c 00       		.byte	0
 2287 016d 00       		.byte	0
 2288 016e 18       		.uleb128 0x18
 2289 016f 34       		.uleb128 0x34
 2290 0170 00       		.byte	0
 2291 0171 03       		.uleb128 0x3
 2292 0172 0E       		.uleb128 0xe
 2293 0173 3A       		.uleb128 0x3a
 2294 0174 0B       		.uleb128 0xb
 2295 0175 3B       		.uleb128 0x3b
 2296 0176 05       		.uleb128 0x5
 2297 0177 49       		.uleb128 0x49
 2298 0178 13       		.uleb128 0x13
 2299 0179 02       		.uleb128 0x2
 2300 017a 17       		.uleb128 0x17
 2301 017b 00       		.byte	0
 2302 017c 00       		.byte	0
 2303 017d 19       		.uleb128 0x19
ARM GAS  C:\Users\yqh\AppData\Local\Temp\cc55pVRK.s 			page 71


 2304 017e 34       		.uleb128 0x34
 2305 017f 00       		.byte	0
 2306 0180 03       		.uleb128 0x3
 2307 0181 0E       		.uleb128 0xe
 2308 0182 3A       		.uleb128 0x3a
 2309 0183 0B       		.uleb128 0xb
 2310 0184 3B       		.uleb128 0x3b
 2311 0185 05       		.uleb128 0x5
 2312 0186 49       		.uleb128 0x49
 2313 0187 13       		.uleb128 0x13
 2314 0188 02       		.uleb128 0x2
 2315 0189 18       		.uleb128 0x18
 2316 018a 00       		.byte	0
 2317 018b 00       		.byte	0
 2318 018c 1A       		.uleb128 0x1a
 2319 018d 1D       		.uleb128 0x1d
 2320 018e 01       		.byte	0x1
 2321 018f 31       		.uleb128 0x31
 2322 0190 13       		.uleb128 0x13
 2323 0191 52       		.uleb128 0x52
 2324 0192 01       		.uleb128 0x1
 2325 0193 55       		.uleb128 0x55
 2326 0194 17       		.uleb128 0x17
 2327 0195 58       		.uleb128 0x58
 2328 0196 0B       		.uleb128 0xb
 2329 0197 59       		.uleb128 0x59
 2330 0198 05       		.uleb128 0x5
 2331 0199 01       		.uleb128 0x1
 2332 019a 13       		.uleb128 0x13
 2333 019b 00       		.byte	0
 2334 019c 00       		.byte	0
 2335 019d 1B       		.uleb128 0x1b
 2336 019e 0B       		.uleb128 0xb
 2337 019f 01       		.byte	0x1
 2338 01a0 55       		.uleb128 0x55
 2339 01a1 17       		.uleb128 0x17
 2340 01a2 00       		.byte	0
 2341 01a3 00       		.byte	0
 2342 01a4 1C       		.uleb128 0x1c
 2343 01a5 1D       		.uleb128 0x1d
 2344 01a6 01       		.byte	0x1
 2345 01a7 31       		.uleb128 0x31
 2346 01a8 13       		.uleb128 0x13
 2347 01a9 52       		.uleb128 0x52
 2348 01aa 01       		.uleb128 0x1
 2349 01ab 55       		.uleb128 0x55
 2350 01ac 17       		.uleb128 0x17
 2351 01ad 58       		.uleb128 0x58
 2352 01ae 0B       		.uleb128 0xb
 2353 01af 59       		.uleb128 0x59
 2354 01b0 05       		.uleb128 0x5
 2355 01b1 00       		.byte	0
 2356 01b2 00       		.byte	0
 2357 01b3 1D       		.uleb128 0x1d
 2358 01b4 2E       		.uleb128 0x2e
 2359 01b5 00       		.byte	0
 2360 01b6 3F       		.uleb128 0x3f
ARM GAS  C:\Users\yqh\AppData\Local\Temp\cc55pVRK.s 			page 72


 2361 01b7 19       		.uleb128 0x19
 2362 01b8 03       		.uleb128 0x3
 2363 01b9 0E       		.uleb128 0xe
 2364 01ba 3A       		.uleb128 0x3a
 2365 01bb 0B       		.uleb128 0xb
 2366 01bc 3B       		.uleb128 0x3b
 2367 01bd 05       		.uleb128 0x5
 2368 01be 27       		.uleb128 0x27
 2369 01bf 19       		.uleb128 0x19
 2370 01c0 49       		.uleb128 0x49
 2371 01c1 13       		.uleb128 0x13
 2372 01c2 11       		.uleb128 0x11
 2373 01c3 01       		.uleb128 0x1
 2374 01c4 12       		.uleb128 0x12
 2375 01c5 06       		.uleb128 0x6
 2376 01c6 40       		.uleb128 0x40
 2377 01c7 18       		.uleb128 0x18
 2378 01c8 9742     		.uleb128 0x2117
 2379 01ca 19       		.uleb128 0x19
 2380 01cb 00       		.byte	0
 2381 01cc 00       		.byte	0
 2382 01cd 1E       		.uleb128 0x1e
 2383 01ce 05       		.uleb128 0x5
 2384 01cf 00       		.byte	0
 2385 01d0 03       		.uleb128 0x3
 2386 01d1 0E       		.uleb128 0xe
 2387 01d2 3A       		.uleb128 0x3a
 2388 01d3 0B       		.uleb128 0xb
 2389 01d4 3B       		.uleb128 0x3b
 2390 01d5 05       		.uleb128 0x5
 2391 01d6 49       		.uleb128 0x49
 2392 01d7 13       		.uleb128 0x13
 2393 01d8 02       		.uleb128 0x2
 2394 01d9 17       		.uleb128 0x17
 2395 01da 00       		.byte	0
 2396 01db 00       		.byte	0
 2397 01dc 1F       		.uleb128 0x1f
 2398 01dd 0F       		.uleb128 0xf
 2399 01de 00       		.byte	0
 2400 01df 0B       		.uleb128 0xb
 2401 01e0 0B       		.uleb128 0xb
 2402 01e1 49       		.uleb128 0x49
 2403 01e2 13       		.uleb128 0x13
 2404 01e3 00       		.byte	0
 2405 01e4 00       		.byte	0
 2406 01e5 20       		.uleb128 0x20
 2407 01e6 26       		.uleb128 0x26
 2408 01e7 00       		.byte	0
 2409 01e8 49       		.uleb128 0x49
 2410 01e9 13       		.uleb128 0x13
 2411 01ea 00       		.byte	0
 2412 01eb 00       		.byte	0
 2413 01ec 21       		.uleb128 0x21
 2414 01ed 898201   		.uleb128 0x4109
 2415 01f0 01       		.byte	0x1
 2416 01f1 11       		.uleb128 0x11
 2417 01f2 01       		.uleb128 0x1
ARM GAS  C:\Users\yqh\AppData\Local\Temp\cc55pVRK.s 			page 73


 2418 01f3 31       		.uleb128 0x31
 2419 01f4 13       		.uleb128 0x13
 2420 01f5 01       		.uleb128 0x1
 2421 01f6 13       		.uleb128 0x13
 2422 01f7 00       		.byte	0
 2423 01f8 00       		.byte	0
 2424 01f9 22       		.uleb128 0x22
 2425 01fa 8A8201   		.uleb128 0x410a
 2426 01fd 00       		.byte	0
 2427 01fe 02       		.uleb128 0x2
 2428 01ff 18       		.uleb128 0x18
 2429 0200 9142     		.uleb128 0x2111
 2430 0202 18       		.uleb128 0x18
 2431 0203 00       		.byte	0
 2432 0204 00       		.byte	0
 2433 0205 23       		.uleb128 0x23
 2434 0206 898201   		.uleb128 0x4109
 2435 0209 01       		.byte	0x1
 2436 020a 11       		.uleb128 0x11
 2437 020b 01       		.uleb128 0x1
 2438 020c 9542     		.uleb128 0x2115
 2439 020e 19       		.uleb128 0x19
 2440 020f 31       		.uleb128 0x31
 2441 0210 13       		.uleb128 0x13
 2442 0211 00       		.byte	0
 2443 0212 00       		.byte	0
 2444 0213 24       		.uleb128 0x24
 2445 0214 0B       		.uleb128 0xb
 2446 0215 01       		.byte	0x1
 2447 0216 11       		.uleb128 0x11
 2448 0217 01       		.uleb128 0x1
 2449 0218 12       		.uleb128 0x12
 2450 0219 06       		.uleb128 0x6
 2451 021a 00       		.byte	0
 2452 021b 00       		.byte	0
 2453 021c 25       		.uleb128 0x25
 2454 021d 1D       		.uleb128 0x1d
 2455 021e 00       		.byte	0
 2456 021f 31       		.uleb128 0x31
 2457 0220 13       		.uleb128 0x13
 2458 0221 11       		.uleb128 0x11
 2459 0222 01       		.uleb128 0x1
 2460 0223 12       		.uleb128 0x12
 2461 0224 06       		.uleb128 0x6
 2462 0225 58       		.uleb128 0x58
 2463 0226 0B       		.uleb128 0xb
 2464 0227 59       		.uleb128 0x59
 2465 0228 05       		.uleb128 0x5
 2466 0229 00       		.byte	0
 2467 022a 00       		.byte	0
 2468 022b 26       		.uleb128 0x26
 2469 022c 1D       		.uleb128 0x1d
 2470 022d 01       		.byte	0x1
 2471 022e 31       		.uleb128 0x31
 2472 022f 13       		.uleb128 0x13
 2473 0230 11       		.uleb128 0x11
 2474 0231 01       		.uleb128 0x1
ARM GAS  C:\Users\yqh\AppData\Local\Temp\cc55pVRK.s 			page 74


 2475 0232 12       		.uleb128 0x12
 2476 0233 06       		.uleb128 0x6
 2477 0234 58       		.uleb128 0x58
 2478 0235 0B       		.uleb128 0xb
 2479 0236 59       		.uleb128 0x59
 2480 0237 05       		.uleb128 0x5
 2481 0238 01       		.uleb128 0x1
 2482 0239 13       		.uleb128 0x13
 2483 023a 00       		.byte	0
 2484 023b 00       		.byte	0
 2485 023c 27       		.uleb128 0x27
 2486 023d 05       		.uleb128 0x5
 2487 023e 00       		.byte	0
 2488 023f 31       		.uleb128 0x31
 2489 0240 13       		.uleb128 0x13
 2490 0241 02       		.uleb128 0x2
 2491 0242 17       		.uleb128 0x17
 2492 0243 00       		.byte	0
 2493 0244 00       		.byte	0
 2494 0245 28       		.uleb128 0x28
 2495 0246 1D       		.uleb128 0x1d
 2496 0247 01       		.byte	0x1
 2497 0248 31       		.uleb128 0x31
 2498 0249 13       		.uleb128 0x13
 2499 024a 11       		.uleb128 0x11
 2500 024b 01       		.uleb128 0x1
 2501 024c 12       		.uleb128 0x12
 2502 024d 06       		.uleb128 0x6
 2503 024e 58       		.uleb128 0x58
 2504 024f 0B       		.uleb128 0xb
 2505 0250 59       		.uleb128 0x59
 2506 0251 05       		.uleb128 0x5
 2507 0252 00       		.byte	0
 2508 0253 00       		.byte	0
 2509 0254 29       		.uleb128 0x29
 2510 0255 34       		.uleb128 0x34
 2511 0256 00       		.byte	0
 2512 0257 03       		.uleb128 0x3
 2513 0258 0E       		.uleb128 0xe
 2514 0259 3A       		.uleb128 0x3a
 2515 025a 0B       		.uleb128 0xb
 2516 025b 3B       		.uleb128 0x3b
 2517 025c 0B       		.uleb128 0xb
 2518 025d 49       		.uleb128 0x49
 2519 025e 13       		.uleb128 0x13
 2520 025f 3F       		.uleb128 0x3f
 2521 0260 19       		.uleb128 0x19
 2522 0261 02       		.uleb128 0x2
 2523 0262 18       		.uleb128 0x18
 2524 0263 00       		.byte	0
 2525 0264 00       		.byte	0
 2526 0265 2A       		.uleb128 0x2a
 2527 0266 2E       		.uleb128 0x2e
 2528 0267 00       		.byte	0
 2529 0268 3F       		.uleb128 0x3f
 2530 0269 19       		.uleb128 0x19
 2531 026a 03       		.uleb128 0x3
ARM GAS  C:\Users\yqh\AppData\Local\Temp\cc55pVRK.s 			page 75


 2532 026b 0E       		.uleb128 0xe
 2533 026c 3A       		.uleb128 0x3a
 2534 026d 0B       		.uleb128 0xb
 2535 026e 3B       		.uleb128 0x3b
 2536 026f 0B       		.uleb128 0xb
 2537 0270 27       		.uleb128 0x27
 2538 0271 19       		.uleb128 0x19
 2539 0272 49       		.uleb128 0x49
 2540 0273 13       		.uleb128 0x13
 2541 0274 3C       		.uleb128 0x3c
 2542 0275 19       		.uleb128 0x19
 2543 0276 00       		.byte	0
 2544 0277 00       		.byte	0
 2545 0278 2B       		.uleb128 0x2b
 2546 0279 2E       		.uleb128 0x2e
 2547 027a 01       		.byte	0x1
 2548 027b 3F       		.uleb128 0x3f
 2549 027c 19       		.uleb128 0x19
 2550 027d 03       		.uleb128 0x3
 2551 027e 0E       		.uleb128 0xe
 2552 027f 3A       		.uleb128 0x3a
 2553 0280 0B       		.uleb128 0xb
 2554 0281 3B       		.uleb128 0x3b
 2555 0282 0B       		.uleb128 0xb
 2556 0283 27       		.uleb128 0x27
 2557 0284 19       		.uleb128 0x19
 2558 0285 3C       		.uleb128 0x3c
 2559 0286 19       		.uleb128 0x19
 2560 0287 00       		.byte	0
 2561 0288 00       		.byte	0
 2562 0289 2C       		.uleb128 0x2c
 2563 028a 05       		.uleb128 0x5
 2564 028b 00       		.byte	0
 2565 028c 49       		.uleb128 0x49
 2566 028d 13       		.uleb128 0x13
 2567 028e 00       		.byte	0
 2568 028f 00       		.byte	0
 2569 0290 00       		.byte	0
 2570              		.section	.debug_loc,"",%progbits
 2571              	.Ldebug_loc0:
 2572              	.LLST0:
 2573 0000 06000000 		.4byte	.LVL0
 2574 0004 1F000000 		.4byte	.LVL1-1
 2575 0008 0100     		.2byte	0x1
 2576 000a 50       		.byte	0x50
 2577 000b 00000000 		.4byte	0
 2578 000f 00000000 		.4byte	0
 2579              	.LLST1:
 2580 0013 06000000 		.4byte	.LVL4
 2581 0017 1F000000 		.4byte	.LVL5-1
 2582 001b 0100     		.2byte	0x1
 2583 001d 50       		.byte	0x50
 2584 001e 00000000 		.4byte	0
 2585 0022 00000000 		.4byte	0
 2586              	.LLST2:
 2587 0026 04000000 		.4byte	.LVL9
 2588 002a 08000000 		.4byte	.LVL10
ARM GAS  C:\Users\yqh\AppData\Local\Temp\cc55pVRK.s 			page 76


 2589 002e 0600     		.2byte	0x6
 2590 0030 70       		.byte	0x70
 2591 0031 00       		.sleb128 0
 2592 0032 08       		.byte	0x8
 2593 0033 7F       		.byte	0x7f
 2594 0034 1A       		.byte	0x1a
 2595 0035 9F       		.byte	0x9f
 2596 0036 00000000 		.4byte	0
 2597 003a 00000000 		.4byte	0
 2598              	.LLST3:
 2599 003e 00000000 		.4byte	.LVL11
 2600 0042 18000000 		.4byte	.LVL13
 2601 0046 0200     		.2byte	0x2
 2602 0048 30       		.byte	0x30
 2603 0049 9F       		.byte	0x9f
 2604 004a 18000000 		.4byte	.LVL13
 2605 004e 28000000 		.4byte	.LFE9
 2606 0052 0100     		.2byte	0x1
 2607 0054 50       		.byte	0x50
 2608 0055 00000000 		.4byte	0
 2609 0059 00000000 		.4byte	0
 2610              	.LLST4:
 2611 005d 06000000 		.4byte	.LVL15
 2612 0061 0C000000 		.4byte	.LVL17
 2613 0065 0600     		.2byte	0x6
 2614 0067 73       		.byte	0x73
 2615 0068 00       		.sleb128 0
 2616 0069 08       		.byte	0x8
 2617 006a 7F       		.byte	0x7f
 2618 006b 1A       		.byte	0x1a
 2619 006c 9F       		.byte	0x9f
 2620 006d 00000000 		.4byte	0
 2621 0071 00000000 		.4byte	0
 2622              	.LLST5:
 2623 0075 08000000 		.4byte	.LVL16
 2624 0079 10000000 		.4byte	.LVL18
 2625 007d 0100     		.2byte	0x1
 2626 007f 50       		.byte	0x50
 2627 0080 00000000 		.4byte	0
 2628 0084 00000000 		.4byte	0
 2629              	.LLST6:
 2630 0088 04000000 		.4byte	.LVL19
 2631 008c 08000000 		.4byte	.LVL20
 2632 0090 0A00     		.2byte	0xa
 2633 0092 70       		.byte	0x70
 2634 0093 00       		.sleb128 0
 2635 0094 08       		.byte	0x8
 2636 0095 20       		.byte	0x20
 2637 0096 1A       		.byte	0x1a
 2638 0097 48       		.byte	0x48
 2639 0098 24       		.byte	0x24
 2640 0099 30       		.byte	0x30
 2641 009a 2E       		.byte	0x2e
 2642 009b 9F       		.byte	0x9f
 2643 009c 00000000 		.4byte	0
 2644 00a0 00000000 		.4byte	0
 2645              	.LLST7:
ARM GAS  C:\Users\yqh\AppData\Local\Temp\cc55pVRK.s 			page 77


 2646 00a4 06000000 		.4byte	.LVL21
 2647 00a8 1F000000 		.4byte	.LVL22-1
 2648 00ac 0100     		.2byte	0x1
 2649 00ae 50       		.byte	0x50
 2650 00af 00000000 		.4byte	0
 2651 00b3 00000000 		.4byte	0
 2652              	.LLST8:
 2653 00b7 00000000 		.4byte	.LVL29
 2654 00bb 0E000000 		.4byte	.LVL30
 2655 00bf 0100     		.2byte	0x1
 2656 00c1 50       		.byte	0x50
 2657 00c2 0E000000 		.4byte	.LVL30
 2658 00c6 1E000000 		.4byte	.LVL34
 2659 00ca 0100     		.2byte	0x1
 2660 00cc 55       		.byte	0x55
 2661 00cd 1E000000 		.4byte	.LVL34
 2662 00d1 24000000 		.4byte	.LFE20
 2663 00d5 0400     		.2byte	0x4
 2664 00d7 F3       		.byte	0xf3
 2665 00d8 01       		.uleb128 0x1
 2666 00d9 50       		.byte	0x50
 2667 00da 9F       		.byte	0x9f
 2668 00db 00000000 		.4byte	0
 2669 00df 00000000 		.4byte	0
 2670              	.LLST9:
 2671 00e3 00000000 		.4byte	.LVL29
 2672 00e7 0E000000 		.4byte	.LVL30
 2673 00eb 0200     		.2byte	0x2
 2674 00ed 30       		.byte	0x30
 2675 00ee 9F       		.byte	0x9f
 2676 00ef 0E000000 		.4byte	.LVL30
 2677 00f3 10000000 		.4byte	.LVL31
 2678 00f7 0100     		.2byte	0x1
 2679 00f9 54       		.byte	0x54
 2680 00fa 10000000 		.4byte	.LVL31
 2681 00fe 19000000 		.4byte	.LVL32-1
 2682 0102 0100     		.2byte	0x1
 2683 0104 53       		.byte	0x53
 2684 0105 1A000000 		.4byte	.LVL32
 2685 0109 1C000000 		.4byte	.LVL33
 2686 010d 0100     		.2byte	0x1
 2687 010f 54       		.byte	0x54
 2688 0110 1C000000 		.4byte	.LVL33
 2689 0114 1E000000 		.4byte	.LVL34
 2690 0118 0100     		.2byte	0x1
 2691 011a 53       		.byte	0x53
 2692 011b 00000000 		.4byte	0
 2693 011f 00000000 		.4byte	0
 2694              	.LLST10:
 2695 0123 00000000 		.4byte	.LVL35
 2696 0127 0E000000 		.4byte	.LVL37
 2697 012b 0100     		.2byte	0x1
 2698 012d 50       		.byte	0x50
 2699 012e 0E000000 		.4byte	.LVL37
 2700 0132 24000000 		.4byte	.LFE21
 2701 0136 0400     		.2byte	0x4
 2702 0138 F3       		.byte	0xf3
ARM GAS  C:\Users\yqh\AppData\Local\Temp\cc55pVRK.s 			page 78


 2703 0139 01       		.uleb128 0x1
 2704 013a 50       		.byte	0x50
 2705 013b 9F       		.byte	0x9f
 2706 013c 00000000 		.4byte	0
 2707 0140 00000000 		.4byte	0
 2708              	.LLST11:
 2709 0144 00000000 		.4byte	.LVL35
 2710 0148 0A000000 		.4byte	.LVL36
 2711 014c 0100     		.2byte	0x1
 2712 014e 51       		.byte	0x51
 2713 014f 0A000000 		.4byte	.LVL36
 2714 0153 24000000 		.4byte	.LFE21
 2715 0157 0400     		.2byte	0x4
 2716 0159 F3       		.byte	0xf3
 2717 015a 01       		.uleb128 0x1
 2718 015b 51       		.byte	0x51
 2719 015c 9F       		.byte	0x9f
 2720 015d 00000000 		.4byte	0
 2721 0161 00000000 		.4byte	0
 2722              	.LLST12:
 2723 0165 00000000 		.4byte	.LVL35
 2724 0169 0E000000 		.4byte	.LVL37
 2725 016d 0200     		.2byte	0x2
 2726 016f 30       		.byte	0x30
 2727 0170 9F       		.byte	0x9f
 2728 0171 0E000000 		.4byte	.LVL37
 2729 0175 16000000 		.4byte	.LVL38
 2730 0179 0900     		.2byte	0x9
 2731 017b 75       		.byte	0x75
 2732 017c 00       		.sleb128 0
 2733 017d F3       		.byte	0xf3
 2734 017e 01       		.uleb128 0x1
 2735 017f 50       		.byte	0x50
 2736 0180 31       		.byte	0x31
 2737 0181 1C       		.byte	0x1c
 2738 0182 1C       		.byte	0x1c
 2739 0183 9F       		.byte	0x9f
 2740 0184 1A000000 		.4byte	.LVL39
 2741 0188 1C000000 		.4byte	.LVL40
 2742 018c 0900     		.2byte	0x9
 2743 018e 75       		.byte	0x75
 2744 018f 00       		.sleb128 0
 2745 0190 F3       		.byte	0xf3
 2746 0191 01       		.uleb128 0x1
 2747 0192 50       		.byte	0x50
 2748 0193 31       		.byte	0x31
 2749 0194 1C       		.byte	0x1c
 2750 0195 1C       		.byte	0x1c
 2751 0196 9F       		.byte	0x9f
 2752 0197 00000000 		.4byte	0
 2753 019b 00000000 		.4byte	0
 2754              	.LLST13:
 2755 019f 00000000 		.4byte	.LVL41
 2756 01a3 0B000000 		.4byte	.LVL42-1
 2757 01a7 0100     		.2byte	0x1
 2758 01a9 50       		.byte	0x50
 2759 01aa 0B000000 		.4byte	.LVL42-1
ARM GAS  C:\Users\yqh\AppData\Local\Temp\cc55pVRK.s 			page 79


 2760 01ae 1C000000 		.4byte	.LVL44
 2761 01b2 0400     		.2byte	0x4
 2762 01b4 F3       		.byte	0xf3
 2763 01b5 01       		.uleb128 0x1
 2764 01b6 50       		.byte	0x50
 2765 01b7 9F       		.byte	0x9f
 2766 01b8 1C000000 		.4byte	.LVL44
 2767 01bc 24000000 		.4byte	.LFE22
 2768 01c0 0100     		.2byte	0x1
 2769 01c2 50       		.byte	0x50
 2770 01c3 00000000 		.4byte	0
 2771 01c7 00000000 		.4byte	0
 2772              	.LLST14:
 2773 01cb 06000000 		.4byte	.LVL45
 2774 01cf 0E000000 		.4byte	.LVL46
 2775 01d3 0100     		.2byte	0x1
 2776 01d5 50       		.byte	0x50
 2777 01d6 14000000 		.4byte	.LVL47
 2778 01da 1C000000 		.4byte	.LFE23
 2779 01de 0100     		.2byte	0x1
 2780 01e0 50       		.byte	0x50
 2781 01e1 00000000 		.4byte	0
 2782 01e5 00000000 		.4byte	0
 2783              	.LLST15:
 2784 01e9 06000000 		.4byte	.LVL48
 2785 01ed 1F000000 		.4byte	.LVL49-1
 2786 01f1 0100     		.2byte	0x1
 2787 01f3 50       		.byte	0x50
 2788 01f4 00000000 		.4byte	0
 2789 01f8 00000000 		.4byte	0
 2790              	.LLST16:
 2791 01fc 00000000 		.4byte	.LVL50
 2792 0200 2E000000 		.4byte	.LVL57
 2793 0204 0100     		.2byte	0x1
 2794 0206 50       		.byte	0x50
 2795 0207 2E000000 		.4byte	.LVL57
 2796 020b 34000000 		.4byte	.LVL58
 2797 020f 0400     		.2byte	0x4
 2798 0211 F3       		.byte	0xf3
 2799 0212 01       		.uleb128 0x1
 2800 0213 50       		.byte	0x50
 2801 0214 9F       		.byte	0x9f
 2802 0215 34000000 		.4byte	.LVL58
 2803 0219 3E000000 		.4byte	.LVL61
 2804 021d 0100     		.2byte	0x1
 2805 021f 50       		.byte	0x50
 2806 0220 3E000000 		.4byte	.LVL61
 2807 0224 4A000000 		.4byte	.LVL63
 2808 0228 0400     		.2byte	0x4
 2809 022a F3       		.byte	0xf3
 2810 022b 01       		.uleb128 0x1
 2811 022c 50       		.byte	0x50
 2812 022d 9F       		.byte	0x9f
 2813 022e 4A000000 		.4byte	.LVL63
 2814 0232 60000000 		.4byte	.LFE25
 2815 0236 0100     		.2byte	0x1
 2816 0238 50       		.byte	0x50
ARM GAS  C:\Users\yqh\AppData\Local\Temp\cc55pVRK.s 			page 80


 2817 0239 00000000 		.4byte	0
 2818 023d 00000000 		.4byte	0
 2819              	.LLST17:
 2820 0241 20000000 		.4byte	.LVL55
 2821 0245 28000000 		.4byte	.LVL56
 2822 0249 0100     		.2byte	0x1
 2823 024b 53       		.byte	0x53
 2824 024c 38000000 		.4byte	.LVL59
 2825 0250 3A000000 		.4byte	.LVL60
 2826 0254 0100     		.2byte	0x1
 2827 0256 53       		.byte	0x53
 2828 0257 00000000 		.4byte	0
 2829 025b 00000000 		.4byte	0
 2830              	.LLST18:
 2831 025f 14000000 		.4byte	.LVL51
 2832 0263 18000000 		.4byte	.LVL52
 2833 0267 0100     		.2byte	0x1
 2834 0269 53       		.byte	0x53
 2835 026a 18000000 		.4byte	.LVL52
 2836 026e 1A000000 		.4byte	.LVL53
 2837 0272 0200     		.2byte	0x2
 2838 0274 72       		.byte	0x72
 2839 0275 00       		.sleb128 0
 2840 0276 1A000000 		.4byte	.LVL53
 2841 027a 1C000000 		.4byte	.LVL54
 2842 027e 0500     		.2byte	0x5
 2843 0280 0C       		.byte	0xc
 2844 0281 76650040 		.4byte	0x40006576
 2845 0285 00000000 		.4byte	0
 2846 0289 00000000 		.4byte	0
 2847              	.LLST19:
 2848 028d 46000000 		.4byte	.LVL62
 2849 0291 4A000000 		.4byte	.LVL63
 2850 0295 0100     		.2byte	0x1
 2851 0297 53       		.byte	0x53
 2852 0298 00000000 		.4byte	0
 2853 029c 00000000 		.4byte	0
 2854              	.LLST20:
 2855 02a0 08000000 		.4byte	.LVL68
 2856 02a4 0C000000 		.4byte	.LVL69
 2857 02a8 0100     		.2byte	0x1
 2858 02aa 53       		.byte	0x53
 2859 02ab 0C000000 		.4byte	.LVL69
 2860 02af 0E000000 		.4byte	.LVL70
 2861 02b3 0200     		.2byte	0x2
 2862 02b5 72       		.byte	0x72
 2863 02b6 00       		.sleb128 0
 2864 02b7 0E000000 		.4byte	.LVL70
 2865 02bb 10000000 		.4byte	.LVL71
 2866 02bf 0500     		.2byte	0x5
 2867 02c1 0C       		.byte	0xc
 2868 02c2 76650040 		.4byte	0x40006576
 2869 02c6 00000000 		.4byte	0
 2870 02ca 00000000 		.4byte	0
 2871              	.LLST21:
 2872 02ce 08000000 		.4byte	.LVL72
 2873 02d2 0C000000 		.4byte	.LVL73
ARM GAS  C:\Users\yqh\AppData\Local\Temp\cc55pVRK.s 			page 81


 2874 02d6 0100     		.2byte	0x1
 2875 02d8 53       		.byte	0x53
 2876 02d9 0C000000 		.4byte	.LVL73
 2877 02dd 0E000000 		.4byte	.LVL74
 2878 02e1 0200     		.2byte	0x2
 2879 02e3 72       		.byte	0x72
 2880 02e4 00       		.sleb128 0
 2881 02e5 0E000000 		.4byte	.LVL74
 2882 02e9 10000000 		.4byte	.LVL75
 2883 02ed 0500     		.2byte	0x5
 2884 02ef 0C       		.byte	0xc
 2885 02f0 76650040 		.4byte	0x40006576
 2886 02f4 00000000 		.4byte	0
 2887 02f8 00000000 		.4byte	0
 2888              		.section	.debug_aranges,"",%progbits
 2889 0000 FC000000 		.4byte	0xfc
 2890 0004 0200     		.2byte	0x2
 2891 0006 00000000 		.4byte	.Ldebug_info0
 2892 000a 04       		.byte	0x4
 2893 000b 00       		.byte	0
 2894 000c 0000     		.2byte	0
 2895 000e 0000     		.2byte	0
 2896 0010 00000000 		.4byte	.LFB1
 2897 0014 10000000 		.4byte	.LFE1-.LFB1
 2898 0018 00000000 		.4byte	.LFB2
 2899 001c 24000000 		.4byte	.LFE2-.LFB2
 2900 0020 00000000 		.4byte	.LFB0
 2901 0024 1C000000 		.4byte	.LFE0-.LFB0
 2902 0028 00000000 		.4byte	.LFB3
 2903 002c 24000000 		.4byte	.LFE3-.LFB3
 2904 0030 00000000 		.4byte	.LFB4
 2905 0034 0C000000 		.4byte	.LFE4-.LFB4
 2906 0038 00000000 		.4byte	.LFB5
 2907 003c 0C000000 		.4byte	.LFE5-.LFB5
 2908 0040 00000000 		.4byte	.LFB6
 2909 0044 0C000000 		.4byte	.LFE6-.LFB6
 2910 0048 00000000 		.4byte	.LFB7
 2911 004c 0C000000 		.4byte	.LFE7-.LFB7
 2912 0050 00000000 		.4byte	.LFB8
 2913 0054 10000000 		.4byte	.LFE8-.LFB8
 2914 0058 00000000 		.4byte	.LFB9
 2915 005c 28000000 		.4byte	.LFE9-.LFB9
 2916 0060 00000000 		.4byte	.LFB10
 2917 0064 1C000000 		.4byte	.LFE10-.LFB10
 2918 0068 00000000 		.4byte	.LFB11
 2919 006c 10000000 		.4byte	.LFE11-.LFB11
 2920 0070 00000000 		.4byte	.LFB12
 2921 0074 24000000 		.4byte	.LFE12-.LFB12
 2922 0078 00000000 		.4byte	.LFB13
 2923 007c 02000000 		.4byte	.LFE13-.LFB13
 2924 0080 00000000 		.4byte	.LFB14
 2925 0084 0C000000 		.4byte	.LFE14-.LFB14
 2926 0088 00000000 		.4byte	.LFB15
 2927 008c 0C000000 		.4byte	.LFE15-.LFB15
 2928 0090 00000000 		.4byte	.LFB16
 2929 0094 0C000000 		.4byte	.LFE16-.LFB16
 2930 0098 00000000 		.4byte	.LFB17
ARM GAS  C:\Users\yqh\AppData\Local\Temp\cc55pVRK.s 			page 82


 2931 009c 14000000 		.4byte	.LFE17-.LFB17
 2932 00a0 00000000 		.4byte	.LFB18
 2933 00a4 0C000000 		.4byte	.LFE18-.LFB18
 2934 00a8 00000000 		.4byte	.LFB19
 2935 00ac 18000000 		.4byte	.LFE19-.LFB19
 2936 00b0 00000000 		.4byte	.LFB20
 2937 00b4 24000000 		.4byte	.LFE20-.LFB20
 2938 00b8 00000000 		.4byte	.LFB21
 2939 00bc 24000000 		.4byte	.LFE21-.LFB21
 2940 00c0 00000000 		.4byte	.LFB22
 2941 00c4 24000000 		.4byte	.LFE22-.LFB22
 2942 00c8 00000000 		.4byte	.LFB23
 2943 00cc 1C000000 		.4byte	.LFE23-.LFB23
 2944 00d0 00000000 		.4byte	.LFB24
 2945 00d4 24000000 		.4byte	.LFE24-.LFB24
 2946 00d8 00000000 		.4byte	.LFB25
 2947 00dc 60000000 		.4byte	.LFE25-.LFB25
 2948 00e0 00000000 		.4byte	.LFB26
 2949 00e4 18000000 		.4byte	.LFE26-.LFB26
 2950 00e8 00000000 		.4byte	.LFB27
 2951 00ec 1C000000 		.4byte	.LFE27-.LFB27
 2952 00f0 00000000 		.4byte	.LFB28
 2953 00f4 1C000000 		.4byte	.LFE28-.LFB28
 2954 00f8 00000000 		.4byte	0
 2955 00fc 00000000 		.4byte	0
 2956              		.section	.debug_ranges,"",%progbits
 2957              	.Ldebug_ranges0:
 2958 0000 00000000 		.4byte	.LBB31
 2959 0004 02000000 		.4byte	.LBE31
 2960 0008 04000000 		.4byte	.LBB37
 2961 000c 06000000 		.4byte	.LBE37
 2962 0010 00000000 		.4byte	0
 2963 0014 00000000 		.4byte	0
 2964 0018 02000000 		.4byte	.LBB34
 2965 001c 04000000 		.4byte	.LBE34
 2966 0020 06000000 		.4byte	.LBB38
 2967 0024 08000000 		.4byte	.LBE38
 2968 0028 00000000 		.4byte	0
 2969 002c 00000000 		.4byte	0
 2970 0030 00000000 		.4byte	.LFB1
 2971 0034 10000000 		.4byte	.LFE1
 2972 0038 00000000 		.4byte	.LFB2
 2973 003c 24000000 		.4byte	.LFE2
 2974 0040 00000000 		.4byte	.LFB0
 2975 0044 1C000000 		.4byte	.LFE0
 2976 0048 00000000 		.4byte	.LFB3
 2977 004c 24000000 		.4byte	.LFE3
 2978 0050 00000000 		.4byte	.LFB4
 2979 0054 0C000000 		.4byte	.LFE4
 2980 0058 00000000 		.4byte	.LFB5
 2981 005c 0C000000 		.4byte	.LFE5
 2982 0060 00000000 		.4byte	.LFB6
 2983 0064 0C000000 		.4byte	.LFE6
 2984 0068 00000000 		.4byte	.LFB7
 2985 006c 0C000000 		.4byte	.LFE7
 2986 0070 00000000 		.4byte	.LFB8
 2987 0074 10000000 		.4byte	.LFE8
ARM GAS  C:\Users\yqh\AppData\Local\Temp\cc55pVRK.s 			page 83


 2988 0078 00000000 		.4byte	.LFB9
 2989 007c 28000000 		.4byte	.LFE9
 2990 0080 00000000 		.4byte	.LFB10
 2991 0084 1C000000 		.4byte	.LFE10
 2992 0088 00000000 		.4byte	.LFB11
 2993 008c 10000000 		.4byte	.LFE11
 2994 0090 00000000 		.4byte	.LFB12
 2995 0094 24000000 		.4byte	.LFE12
 2996 0098 00000000 		.4byte	.LFB13
 2997 009c 02000000 		.4byte	.LFE13
 2998 00a0 00000000 		.4byte	.LFB14
 2999 00a4 0C000000 		.4byte	.LFE14
 3000 00a8 00000000 		.4byte	.LFB15
 3001 00ac 0C000000 		.4byte	.LFE15
 3002 00b0 00000000 		.4byte	.LFB16
 3003 00b4 0C000000 		.4byte	.LFE16
 3004 00b8 00000000 		.4byte	.LFB17
 3005 00bc 14000000 		.4byte	.LFE17
 3006 00c0 00000000 		.4byte	.LFB18
 3007 00c4 0C000000 		.4byte	.LFE18
 3008 00c8 00000000 		.4byte	.LFB19
 3009 00cc 18000000 		.4byte	.LFE19
 3010 00d0 00000000 		.4byte	.LFB20
 3011 00d4 24000000 		.4byte	.LFE20
 3012 00d8 00000000 		.4byte	.LFB21
 3013 00dc 24000000 		.4byte	.LFE21
 3014 00e0 00000000 		.4byte	.LFB22
 3015 00e4 24000000 		.4byte	.LFE22
 3016 00e8 00000000 		.4byte	.LFB23
 3017 00ec 1C000000 		.4byte	.LFE23
 3018 00f0 00000000 		.4byte	.LFB24
 3019 00f4 24000000 		.4byte	.LFE24
 3020 00f8 00000000 		.4byte	.LFB25
 3021 00fc 60000000 		.4byte	.LFE25
 3022 0100 00000000 		.4byte	.LFB26
 3023 0104 18000000 		.4byte	.LFE26
 3024 0108 00000000 		.4byte	.LFB27
 3025 010c 1C000000 		.4byte	.LFE27
 3026 0110 00000000 		.4byte	.LFB28
 3027 0114 1C000000 		.4byte	.LFE28
 3028 0118 00000000 		.4byte	0
 3029 011c 00000000 		.4byte	0
 3030              		.section	.debug_line,"",%progbits
 3031              	.Ldebug_line0:
 3032 0000 16030000 		.section	.debug_str,"MS",%progbits,1
 3032      02005300 
 3032      00000201 
 3032      FB0E0D00 
 3032      01010101 
 3033              	.LASF10:
 3034 0000 75696E74 		.ascii	"uint16\000"
 3034      313600
 3035              	.LASF66:
 3036 0007 43794578 		.ascii	"CyExitCriticalSection\000"
 3036      69744372 
 3036      69746963 
 3036      616C5365 
ARM GAS  C:\Users\yqh\AppData\Local\Temp\cc55pVRK.s 			page 84


 3036      6374696F 
 3037              	.LASF40:
 3038 001d 74784461 		.ascii	"txDataByte\000"
 3038      74614279 
 3038      746500
 3039              	.LASF49:
 3040 0028 55415254 		.ascii	"UART_READER_ClearTxBuffer\000"
 3040      5F524541 
 3040      4445525F 
 3040      436C6561 
 3040      72547842 
 3041              	.LASF29:
 3042 0042 55415254 		.ascii	"UART_READER_GetRxBufferSize\000"
 3042      5F524541 
 3042      4445525F 
 3042      47657452 
 3042      78427566 
 3043              	.LASF32:
 3044 005e 55415254 		.ascii	"UART_READER_SetRxAddressMode\000"
 3044      5F524541 
 3044      4445525F 
 3044      53657452 
 3044      78416464 
 3045              	.LASF7:
 3046 007b 6C6F6E67 		.ascii	"long long unsigned int\000"
 3046      206C6F6E 
 3046      6720756E 
 3046      7369676E 
 3046      65642069 
 3047              	.LASF45:
 3048 0092 55415254 		.ascii	"UART_READER_PutArray\000"
 3048      5F524541 
 3048      4445525F 
 3048      50757441 
 3048      72726179 
 3049              	.LASF61:
 3050 00a7 55415254 		.ascii	"UART_READER_WriteControlRegister\000"
 3050      5F524541 
 3050      4445525F 
 3050      57726974 
 3050      65436F6E 
 3051              	.LASF6:
 3052 00c8 6C6F6E67 		.ascii	"long long int\000"
 3052      206C6F6E 
 3052      6720696E 
 3052      7400
 3053              	.LASF0:
 3054 00d6 7369676E 		.ascii	"signed char\000"
 3054      65642063 
 3054      68617200 
 3055              	.LASF60:
 3056 00e2 433A5C55 		.ascii	"C:\\Users\\yqh\\Documents\\works\\NanoNXT\\Pass_TOC"
 3056      73657273 
 3056      5C797168 
 3056      5C446F63 
 3056      756D656E 
 3057 010f 5C352E30 		.ascii	"\\5.0.3\\nanoNxt_ICM3.cydsn\000"
ARM GAS  C:\Users\yqh\AppData\Local\Temp\cc55pVRK.s 			page 85


 3057      2E335C6E 
 3057      616E6F4E 
 3057      78745F49 
 3057      434D332E 
 3058              	.LASF42:
 3059 0129 55415254 		.ascii	"UART_READER_PutString\000"
 3059      5F524541 
 3059      4445525F 
 3059      50757453 
 3059      7472696E 
 3060              	.LASF4:
 3061 013f 6C6F6E67 		.ascii	"long int\000"
 3061      20696E74 
 3061      00
 3062              	.LASF54:
 3063 0148 55415254 		.ascii	"UART_READER_LoadRxConfig\000"
 3063      5F524541 
 3063      4445525F 
 3063      4C6F6164 
 3063      5278436F 
 3064              	.LASF64:
 3065 0161 55415254 		.ascii	"UART_READER_ReadTxStatus\000"
 3065      5F524541 
 3065      4445525F 
 3065      52656164 
 3065      54785374 
 3066              	.LASF9:
 3067 017a 75696E74 		.ascii	"uint8\000"
 3067      3800
 3068              	.LASF63:
 3069 0180 55415254 		.ascii	"UART_READER_Init\000"
 3069      5F524541 
 3069      4445525F 
 3069      496E6974 
 3069      00
 3070              	.LASF12:
 3071 0191 646F7562 		.ascii	"double\000"
 3071      6C6500
 3072              	.LASF34:
 3073 0198 61646472 		.ascii	"addressMode\000"
 3073      6573734D 
 3073      6F646500 
 3074              	.LASF37:
 3075 01a4 55415254 		.ascii	"UART_READER_SetRxAddress2\000"
 3075      5F524541 
 3075      4445525F 
 3075      53657452 
 3075      78416464 
 3076              	.LASF62:
 3077 01be 636F6E74 		.ascii	"control\000"
 3077      726F6C00 
 3078              	.LASF51:
 3079 01c6 7265744D 		.ascii	"retMode\000"
 3079      6F646500 
 3080              	.LASF8:
 3081 01ce 756E7369 		.ascii	"unsigned int\000"
 3081      676E6564 
ARM GAS  C:\Users\yqh\AppData\Local\Temp\cc55pVRK.s 			page 86


 3081      20696E74 
 3081      00
 3082              	.LASF58:
 3083 01db 474E5520 		.ascii	"GNU C 4.9.3 20150303 (release) [ARM/embedded-4_9-br"
 3083      4320342E 
 3083      392E3320 
 3083      32303135 
 3083      30333033 
 3084 020e 616E6368 		.ascii	"anch revision 221220] -mcpu=cortex-m3 -mthumb -g -O"
 3084      20726576 
 3084      6973696F 
 3084      6E203232 
 3084      31323230 
 3085 0241 73202D66 		.ascii	"s -ffunction-sections -ffat-lto-objects\000"
 3085      66756E63 
 3085      74696F6E 
 3085      2D736563 
 3085      74696F6E 
 3086              	.LASF5:
 3087 0269 6C6F6E67 		.ascii	"long unsigned int\000"
 3087      20756E73 
 3087      69676E65 
 3087      6420696E 
 3087      7400
 3088              	.LASF57:
 3089 027b 4379456E 		.ascii	"CyEnterCriticalSection\000"
 3089      74657243 
 3089      72697469 
 3089      63616C53 
 3089      65637469 
 3090              	.LASF27:
 3091 0292 55415254 		.ascii	"UART_READER_GetChar\000"
 3091      5F524541 
 3091      4445525F 
 3091      47657443 
 3091      68617200 
 3092              	.LASF30:
 3093 02a6 73697A65 		.ascii	"size\000"
 3093      00
 3094              	.LASF3:
 3095 02ab 73686F72 		.ascii	"short unsigned int\000"
 3095      7420756E 
 3095      7369676E 
 3095      65642069 
 3095      6E7400
 3096              	.LASF44:
 3097 02be 62756649 		.ascii	"bufIndex\000"
 3097      6E646578 
 3097      00
 3098              	.LASF22:
 3099 02c7 55415254 		.ascii	"UART_READER_Start\000"
 3099      5F524541 
 3099      4445525F 
 3099      53746172 
 3099      7400
 3100              	.LASF33:
 3101 02d9 696E7453 		.ascii	"intSrc\000"
ARM GAS  C:\Users\yqh\AppData\Local\Temp\cc55pVRK.s 			page 87


 3101      726300
 3102              	.LASF65:
 3103 02e0 55415254 		.ascii	"UART_READER_initVar\000"
 3103      5F524541 
 3103      4445525F 
 3103      696E6974 
 3103      56617200 
 3104              	.LASF52:
 3105 02f4 746D7053 		.ascii	"tmpStat\000"
 3105      74617400 
 3106              	.LASF16:
 3107 02fc 73697A65 		.ascii	"sizetype\000"
 3107      74797065 
 3107      00
 3108              	.LASF36:
 3109 0305 61646472 		.ascii	"address\000"
 3109      65737300 
 3110              	.LASF59:
 3111 030d 47656E65 		.ascii	"Generated_Source\\PSoC5\\UART_READER.c\000"
 3111      72617465 
 3111      645F536F 
 3111      75726365 
 3111      5C50536F 
 3112              	.LASF26:
 3113 0332 72785374 		.ascii	"rxStatus\000"
 3113      61747573 
 3113      00
 3114              	.LASF11:
 3115 033b 666C6F61 		.ascii	"float\000"
 3115      7400
 3116              	.LASF48:
 3117 0341 55415254 		.ascii	"UART_READER_GetTxBufferSize\000"
 3117      5F524541 
 3117      4445525F 
 3117      47657454 
 3117      78427566 
 3118              	.LASF18:
 3119 035d 55415254 		.ascii	"UART_READER_ReadRxData\000"
 3119      5F524541 
 3119      4445525F 
 3119      52656164 
 3119      52784461 
 3120              	.LASF55:
 3121 0374 55415254 		.ascii	"UART_READER_LoadTxConfig\000"
 3121      5F524541 
 3121      4445525F 
 3121      4C6F6164 
 3121      5478436F 
 3122              	.LASF15:
 3123 038d 72656738 		.ascii	"reg8\000"
 3123      00
 3124              	.LASF1:
 3125 0392 756E7369 		.ascii	"unsigned char\000"
 3125      676E6564 
 3125      20636861 
 3125      7200
 3126              	.LASF31:
ARM GAS  C:\Users\yqh\AppData\Local\Temp\cc55pVRK.s 			page 88


 3127 03a0 55415254 		.ascii	"UART_READER_ClearRxBuffer\000"
 3127      5F524541 
 3127      4445525F 
 3127      436C6561 
 3127      72527842 
 3128              	.LASF25:
 3129 03ba 55415254 		.ascii	"UART_READER_SetRxInterruptMode\000"
 3129      5F524541 
 3129      4445525F 
 3129      53657452 
 3129      78496E74 
 3130              	.LASF2:
 3131 03d9 73686F72 		.ascii	"short int\000"
 3131      7420696E 
 3131      7400
 3132              	.LASF35:
 3133 03e3 55415254 		.ascii	"UART_READER_SetRxAddress1\000"
 3133      5F524541 
 3133      4445525F 
 3133      53657452 
 3133      78416464 
 3134              	.LASF39:
 3135 03fd 55415254 		.ascii	"UART_READER_WriteTxData\000"
 3135      5F524541 
 3135      4445525F 
 3135      57726974 
 3135      65547844 
 3136              	.LASF46:
 3137 0415 62797465 		.ascii	"byteCount\000"
 3137      436F756E 
 3137      7400
 3138              	.LASF20:
 3139 041f 72784461 		.ascii	"rxData\000"
 3139      746100
 3140              	.LASF43:
 3141 0426 73747269 		.ascii	"string\000"
 3141      6E6700
 3142              	.LASF14:
 3143 042d 63686172 		.ascii	"char\000"
 3143      00
 3144              	.LASF41:
 3145 0432 55415254 		.ascii	"UART_READER_PutChar\000"
 3145      5F524541 
 3145      4445525F 
 3145      50757443 
 3145      68617200 
 3146              	.LASF56:
 3147 0446 55415254 		.ascii	"UART_READER_ReadControlRegister\000"
 3147      5F524541 
 3147      4445525F 
 3147      52656164 
 3147      436F6E74 
 3148              	.LASF13:
 3149 0466 63686172 		.ascii	"char8\000"
 3149      3800
 3150              	.LASF17:
 3151 046c 55415254 		.ascii	"UART_READER_ReadRxStatus\000"
ARM GAS  C:\Users\yqh\AppData\Local\Temp\cc55pVRK.s 			page 89


 3151      5F524541 
 3151      4445525F 
 3151      52656164 
 3151      52785374 
 3152              	.LASF23:
 3153 0485 55415254 		.ascii	"UART_READER_Stop\000"
 3153      5F524541 
 3153      4445525F 
 3153      53746F70 
 3153      00
 3154              	.LASF24:
 3155 0496 656E6162 		.ascii	"enableInterrupts\000"
 3155      6C65496E 
 3155      74657272 
 3155      75707473 
 3155      00
 3156              	.LASF19:
 3157 04a7 73746174 		.ascii	"status\000"
 3157      757300
 3158              	.LASF53:
 3159 04ae 55415254 		.ascii	"UART_READER_SetTxAddressMode\000"
 3159      5F524541 
 3159      4445525F 
 3159      53657454 
 3159      78416464 
 3160              	.LASF28:
 3161 04cb 55415254 		.ascii	"UART_READER_GetByte\000"
 3161      5F524541 
 3161      4445525F 
 3161      47657442 
 3161      79746500 
 3162              	.LASF47:
 3163 04df 55415254 		.ascii	"UART_READER_PutCRLF\000"
 3163      5F524541 
 3163      4445525F 
 3163      50757443 
 3163      524C4600 
 3164              	.LASF21:
 3165 04f3 55415254 		.ascii	"UART_READER_Enable\000"
 3165      5F524541 
 3165      4445525F 
 3165      456E6162 
 3165      6C6500
 3166              	.LASF50:
 3167 0506 55415254 		.ascii	"UART_READER_SendBreak\000"
 3167      5F524541 
 3167      4445525F 
 3167      53656E64 
 3167      42726561 
 3168              	.LASF38:
 3169 051c 55415254 		.ascii	"UART_READER_SetTxInterruptMode\000"
 3169      5F524541 
 3169      4445525F 
 3169      53657454 
 3169      78496E74 
 3170              		.ident	"GCC: (GNU Tools for ARM Embedded Processors) 4.9.3 20150303 (release) [ARM/embedded-4_9-br
