ARM GAS  C:\Users\yqh\AppData\Local\Temp\ccmADfZh.s 			page 1


   1              		.syntax unified
   2              		.cpu cortex-m3
   3              		.fpu softvfp
   4              		.eabi_attribute 20, 1
   5              		.eabi_attribute 21, 1
   6              		.eabi_attribute 23, 3
   7              		.eabi_attribute 24, 1
   8              		.eabi_attribute 25, 1
   9              		.eabi_attribute 26, 1
  10              		.eabi_attribute 30, 4
  11              		.eabi_attribute 34, 1
  12              		.eabi_attribute 18, 4
  13              		.thumb
  14              		.file	"wiegand.c"
  15              		.text
  16              	.Ltext0:
  17              		.cfi_sections	.debug_frame
  18              		.section	.text.Pin_50us_Reset,"ax",%progbits
  19              		.align	1
  20              		.global	Pin_50us_Reset
  21              		.thumb
  22              		.thumb_func
  23              		.type	Pin_50us_Reset, %function
  24              	Pin_50us_Reset:
  25              	.LFB63:
  26              		.file 1 "wiegand.c"
   1:wiegand.c     **** /* ========================================
   2:wiegand.c     ****  *
   3:wiegand.c     ****  * Copyright YOUR COMPANY, THE YEAR
   4:wiegand.c     ****  * All Rights Reserved
   5:wiegand.c     ****  * UNPUBLISHED, LICENSED SOFTWARE.
   6:wiegand.c     ****  *
   7:wiegand.c     ****  * CONFIDENTIAL AND PROPRIETARY INFORMATION
   8:wiegand.c     ****  * WHICH IS THE PROPERTY OF your company.
   9:wiegand.c     ****  *
  10:wiegand.c     ****  * ========================================
  11:wiegand.c     **** */
  12:wiegand.c     **** 
  13:wiegand.c     **** // GRI 2-2-15: Modified ReadWiegand.
  14:wiegand.c     **** 
  15:wiegand.c     **** #include <project.h>
  16:wiegand.c     **** #include "system.h"
  17:wiegand.c     **** #include "wiegand.h"
  18:wiegand.c     **** #include "Pulse_50us.h"
  19:wiegand.c     **** 
  20:wiegand.c     **** CY_ISR(Pin_50us_Reset)
  21:wiegand.c     **** {
  27              		.loc 1 21 0
  28              		.cfi_startproc
  29              		@ args = 0, pretend = 0, frame = 0
  30              		@ frame_needed = 0, uses_anonymous_args = 0
  31 0000 08B5     		push	{r3, lr}
  32              		.cfi_def_cfa_offset 8
  33              		.cfi_offset 3, -8
  34              		.cfi_offset 14, -4
  22:wiegand.c     ****     OptSelect_Write(2);
  35              		.loc 1 22 0
ARM GAS  C:\Users\yqh\AppData\Local\Temp\ccmADfZh.s 			page 2


  36 0002 0220     		movs	r0, #2
  37 0004 FFF7FEFF 		bl	OptSelect_Write
  38              	.LVL0:
  23:wiegand.c     **** 	PS_D1_Write(0);
  39              		.loc 1 23 0
  40 0008 0020     		movs	r0, #0
  41 000a FFF7FEFF 		bl	PS_D1_Write
  42              	.LVL1:
  24:wiegand.c     ****     isr_50us_GetState();
  43              		.loc 1 24 0
  44 000e FFF7FEFF 		bl	isr_50us_GetState
  45              	.LVL2:
  25:wiegand.c     ****     Pulse_50us_ReadStatusRegister();
  46              		.loc 1 25 0
  47 0012 FFF7FEFF 		bl	Pulse_50us_ReadStatusRegister
  48              	.LVL3:
  26:wiegand.c     ****     Pulse_50us_RestoreConfig();
  49              		.loc 1 26 0
  50 0016 FFF7FEFF 		bl	Pulse_50us_RestoreConfig
  51              	.LVL4:
  27:wiegand.c     ****     Pulse_50us_Init();
  28:wiegand.c     **** }
  52              		.loc 1 28 0
  53 001a BDE80840 		pop	{r3, lr}
  54              		.cfi_restore 14
  55              		.cfi_restore 3
  56              		.cfi_def_cfa_offset 0
  27:wiegand.c     ****     Pulse_50us_Init();
  57              		.loc 1 27 0
  58 001e FFF7FEBF 		b	Pulse_50us_Init
  59              	.LVL5:
  60              		.cfi_endproc
  61              	.LFE63:
  62              		.size	Pin_50us_Reset, .-Pin_50us_Reset
  63              		.section	.text.send_D0_50us_pulse,"ax",%progbits
  64              		.align	1
  65              		.global	send_D0_50us_pulse
  66              		.thumb
  67              		.thumb_func
  68              		.type	send_D0_50us_pulse, %function
  69              	send_D0_50us_pulse:
  70              	.LFB64:
  29:wiegand.c     **** void send_D0_50us_pulse()
  30:wiegand.c     **** {
  71              		.loc 1 30 0
  72              		.cfi_startproc
  73              		@ args = 0, pretend = 0, frame = 0
  74              		@ frame_needed = 0, uses_anonymous_args = 0
  75 0000 08B5     		push	{r3, lr}
  76              		.cfi_def_cfa_offset 8
  77              		.cfi_offset 3, -8
  78              		.cfi_offset 14, -4
  31:wiegand.c     ****     OptSelect_Write(3); 
  79              		.loc 1 31 0
  80 0002 0320     		movs	r0, #3
  81 0004 FFF7FEFF 		bl	OptSelect_Write
  82              	.LVL6:
ARM GAS  C:\Users\yqh\AppData\Local\Temp\ccmADfZh.s 			page 3


  32:wiegand.c     ****     Pulse_50us_Enable();
  33:wiegand.c     **** }
  83              		.loc 1 33 0
  84 0008 BDE80840 		pop	{r3, lr}
  85              		.cfi_restore 14
  86              		.cfi_restore 3
  87              		.cfi_def_cfa_offset 0
  32:wiegand.c     ****     Pulse_50us_Enable();
  88              		.loc 1 32 0
  89 000c FFF7FEBF 		b	Pulse_50us_Enable
  90              	.LVL7:
  91              		.cfi_endproc
  92              	.LFE64:
  93              		.size	send_D0_50us_pulse, .-send_D0_50us_pulse
  94              		.section	.text.send_D1_50us_pulse,"ax",%progbits
  95              		.align	1
  96              		.global	send_D1_50us_pulse
  97              		.thumb
  98              		.thumb_func
  99              		.type	send_D1_50us_pulse, %function
 100              	send_D1_50us_pulse:
 101              	.LFB65:
  34:wiegand.c     **** void send_D1_50us_pulse()
  35:wiegand.c     **** {
 102              		.loc 1 35 0
 103              		.cfi_startproc
 104              		@ args = 0, pretend = 0, frame = 0
 105              		@ frame_needed = 0, uses_anonymous_args = 0
 106 0000 08B5     		push	{r3, lr}
 107              		.cfi_def_cfa_offset 8
 108              		.cfi_offset 3, -8
 109              		.cfi_offset 14, -4
  36:wiegand.c     ****     PS_D1_Write(1);
 110              		.loc 1 36 0
 111 0002 0120     		movs	r0, #1
 112 0004 FFF7FEFF 		bl	PS_D1_Write
 113              	.LVL8:
  37:wiegand.c     ****     Pulse_50us_Enable();
  38:wiegand.c     **** }
 114              		.loc 1 38 0
 115 0008 BDE80840 		pop	{r3, lr}
 116              		.cfi_restore 14
 117              		.cfi_restore 3
 118              		.cfi_def_cfa_offset 0
  37:wiegand.c     ****     Pulse_50us_Enable();
 119              		.loc 1 37 0
 120 000c FFF7FEBF 		b	Pulse_50us_Enable
 121              	.LVL9:
 122              		.cfi_endproc
 123              	.LFE65:
 124              		.size	send_D1_50us_pulse, .-send_D1_50us_pulse
 125              		.section	.text.SendWeigand,"ax",%progbits
 126              		.align	1
 127              		.global	SendWeigand
 128              		.thumb
 129              		.thumb_func
 130              		.type	SendWeigand, %function
ARM GAS  C:\Users\yqh\AppData\Local\Temp\ccmADfZh.s 			page 4


 131              	SendWeigand:
 132              	.LFB66:
  39:wiegand.c     **** 
  40:wiegand.c     **** void SendWeigand(unsigned char *bufp, int nBits)  //Function to send Wiegand Data
  41:wiegand.c     **** {
 133              		.loc 1 41 0
 134              		.cfi_startproc
 135              		@ args = 0, pretend = 0, frame = 0
 136              		@ frame_needed = 0, uses_anonymous_args = 0
 137              	.LVL10:
  42:wiegand.c     **** 	int x,y;
  43:wiegand.c     **** 	char  d1;
  44:wiegand.c     ****     char count = 0;
  45:wiegand.c     ****     
  46:wiegand.c     **** 	/*                        Wiegand protocol
  47:wiegand.c     **** 	    A pulse width of 50us to define data
  48:wiegand.c     **** 	    A wait period of 2ms after transmitting the above defined pulse
  49:wiegand.c     ****     */
  50:wiegand.c     ****     if (nBits > (WIEGAND_BUFFER_LENGTH << 3)) return; //garbage in
 138              		.loc 1 50 0
 139 0000 F029     		cmp	r1, #240
  41:wiegand.c     **** 	int x,y;
 140              		.loc 1 41 0
 141 0002 2DE9F047 		push	{r4, r5, r6, r7, r8, r9, r10, lr}
 142              		.cfi_def_cfa_offset 32
 143              		.cfi_offset 4, -32
 144              		.cfi_offset 5, -28
 145              		.cfi_offset 6, -24
 146              		.cfi_offset 7, -20
 147              		.cfi_offset 8, -16
 148              		.cfi_offset 9, -12
 149              		.cfi_offset 10, -8
 150              		.cfi_offset 14, -4
  41:wiegand.c     **** 	int x,y;
 151              		.loc 1 41 0
 152 0006 0546     		mov	r5, r0
 153              	.LVL11:
 154 0008 8A46     		mov	r10, r1
 155              		.loc 1 50 0
 156 000a 30DC     		bgt	.L4
  51:wiegand.c     ****     OptSelect_Write(2); //0, both output high
 157              		.loc 1 51 0
 158 000c 0220     		movs	r0, #2
 159              	.LVL12:
 160 000e FFF7FEFF 		bl	OptSelect_Write
 161              	.LVL13:
  52:wiegand.c     ****     PS_D1_Write(0);
 162              		.loc 1 52 0
 163 0012 0020     		movs	r0, #0
 164 0014 FFF7FEFF 		bl	PS_D1_Write
 165              	.LVL14:
  53:wiegand.c     ****     CyDelay(5);
 166              		.loc 1 53 0
 167 0018 0520     		movs	r0, #5
 168 001a FFF7FEFF 		bl	CyDelay
 169              	.LVL15:
 170 001e 05F1FF38 		add	r8, r5, #-1
ARM GAS  C:\Users\yqh\AppData\Local\Temp\ccmADfZh.s 			page 5


  44:wiegand.c     ****     
 171              		.loc 1 44 0
 172 0022 4FF00009 		mov	r9, #0
 173 0026 1D35     		adds	r5, r5, #29
 174              	.LVL16:
 175              	.L11:
  54:wiegand.c     **** 	for (x=0; x< WIEGAND_BUFFER_LENGTH; x++) // Loop over data written from the OMAP
  55:wiegand.c     **** 	{
  56:wiegand.c     ****         d1 = bufp[x];
 176              		.loc 1 56 0
 177 0028 18F8014F 		ldrb	r4, [r8, #1]!	@ zero_extendqisi2
 178              	.LVL17:
 179 002c 0127     		movs	r7, #1
 180              	.LVL18:
 181              	.L10:
 182 002e 09EB0706 		add	r6, r9, r7
 183 0032 F6B2     		uxtb	r6, r6
 184              	.LVL19:
  57:wiegand.c     **** 		for (y=0; y <8; y++)  //Transmit each bit at a time
  58:wiegand.c     **** 		{	
  59:wiegand.c     **** 			count++;
  60:wiegand.c     ****             if (count > nBits)
 185              		.loc 1 60 0
 186 0034 5645     		cmp	r6, r10
 187 0036 07DD     		ble	.L7
 188              	.LVL20:
 189              	.LBB4:
 190              	.LBB5:
  61:wiegand.c     **** 			{
  62:wiegand.c     ****                 OptSelect_Write(2); //0, both output high
 191              		.loc 1 62 0
 192 0038 0220     		movs	r0, #2
 193 003a FFF7FEFF 		bl	OptSelect_Write
 194              	.LVL21:
 195              	.LBE5:
 196              	.LBE4:
  63:wiegand.c     ****                 PS_D1_Write(0);
  64:wiegand.c     ****                 return;
  65:wiegand.c     **** 			}
  66:wiegand.c     **** 
  67:wiegand.c     **** 		    if (d1&0x80) // Check if it a 1 or a 0
  68:wiegand.c     **** 			{
  69:wiegand.c     ****                 send_D1_50us_pulse();
  70:wiegand.c     **** 			}
  71:wiegand.c     **** 			else
  72:wiegand.c     **** 			{
  73:wiegand.c     ****                 send_D0_50us_pulse();
  74:wiegand.c     **** 			}			    
  75:wiegand.c     **** 			d1=d1<<1;
  76:wiegand.c     ****             CyDelayUs(1030); //1030 = 2ms
  77:wiegand.c     **** 		}
  78:wiegand.c     **** 	}
  79:wiegand.c     **** }
 197              		.loc 1 79 0
 198 003e BDE8F047 		pop	{r4, r5, r6, r7, r8, r9, r10, lr}
 199              		.cfi_remember_state
 200              		.cfi_restore 14
ARM GAS  C:\Users\yqh\AppData\Local\Temp\ccmADfZh.s 			page 6


 201              		.cfi_restore 10
 202              		.cfi_restore 9
 203              		.cfi_restore 8
 204              		.cfi_restore 7
 205              		.cfi_restore 6
 206              		.cfi_restore 5
 207              		.cfi_restore 4
 208              		.cfi_def_cfa_offset 0
 209              	.LVL22:
 210              	.LBB7:
 211              	.LBB6:
  63:wiegand.c     ****                 PS_D1_Write(0);
 212              		.loc 1 63 0
 213 0042 0020     		movs	r0, #0
 214 0044 FFF7FEBF 		b	PS_D1_Write
 215              	.LVL23:
 216              	.L7:
 217              		.cfi_restore_state
 218              	.LBE6:
 219              	.LBE7:
  67:wiegand.c     **** 			{
 220              		.loc 1 67 0
 221 0048 2306     		lsls	r3, r4, #24
 222 004a 02D5     		bpl	.L8
  69:wiegand.c     **** 			}
 223              		.loc 1 69 0
 224 004c FFF7FEFF 		bl	send_D1_50us_pulse
 225              	.LVL24:
 226 0050 01E0     		b	.L9
 227              	.L8:
  73:wiegand.c     **** 			}			    
 228              		.loc 1 73 0
 229 0052 FFF7FEFF 		bl	send_D0_50us_pulse
 230              	.LVL25:
 231              	.L9:
  76:wiegand.c     **** 		}
 232              		.loc 1 76 0 discriminator 2
 233 0056 40F20640 		movw	r0, #1030
 234 005a 0137     		adds	r7, r7, #1
 235              	.LVL26:
  75:wiegand.c     ****             CyDelayUs(1030); //1030 = 2ms
 236              		.loc 1 75 0 discriminator 2
 237 005c 6400     		lsls	r4, r4, #1
 238              	.LVL27:
  76:wiegand.c     **** 		}
 239              		.loc 1 76 0 discriminator 2
 240 005e FFF7FEFF 		bl	CyDelayUs
 241              	.LVL28:
  57:wiegand.c     **** 		{	
 242              		.loc 1 57 0 discriminator 2
 243 0062 092F     		cmp	r7, #9
  75:wiegand.c     ****             CyDelayUs(1030); //1030 = 2ms
 244              		.loc 1 75 0 discriminator 2
 245 0064 E4B2     		uxtb	r4, r4
 246              	.LVL29:
  57:wiegand.c     **** 		{	
 247              		.loc 1 57 0 discriminator 2
ARM GAS  C:\Users\yqh\AppData\Local\Temp\ccmADfZh.s 			page 7


 248 0066 E2D1     		bne	.L10
  54:wiegand.c     **** 	{
 249              		.loc 1 54 0 discriminator 2
 250 0068 A845     		cmp	r8, r5
 251 006a B146     		mov	r9, r6
 252              	.LVL30:
 253 006c DCD1     		bne	.L11
 254              	.LVL31:
 255              	.L4:
 256 006e BDE8F087 		pop	{r4, r5, r6, r7, r8, r9, r10, pc}
 257              		.cfi_endproc
 258              	.LFE66:
 259              		.size	SendWeigand, .-SendWeigand
 260              		.section	.text.ReadWeigand,"ax",%progbits
 261              		.align	1
 262              		.global	ReadWeigand
 263              		.thumb
 264              		.thumb_func
 265              		.type	ReadWeigand, %function
 266              	ReadWeigand:
 267              	.LFB67:
  80:wiegand.c     **** 
  81:wiegand.c     **** int ReadWeigand(int nBits, int passmode)
  82:wiegand.c     **** {
 268              		.loc 1 82 0
 269              		.cfi_startproc
 270              		@ args = 0, pretend = 0, frame = 32
 271              		@ frame_needed = 0, uses_anonymous_args = 0
 272              	.LVL32:
 273 0000 2DE9F047 		push	{r4, r5, r6, r7, r8, r9, r10, lr}
 274              		.cfi_def_cfa_offset 32
 275              		.cfi_offset 4, -32
 276              		.cfi_offset 5, -28
 277              		.cfi_offset 6, -24
 278              		.cfi_offset 7, -20
 279              		.cfi_offset 8, -16
 280              		.cfi_offset 9, -12
 281              		.cfi_offset 10, -8
 282              		.cfi_offset 14, -4
 283 0004 88B0     		sub	sp, sp, #32
 284              		.cfi_def_cfa_offset 64
 285              		.loc 1 82 0
 286 0006 8146     		mov	r9, r0
 287 0008 0E46     		mov	r6, r1
  83:wiegand.c     ****     int bitCount;
  84:wiegand.c     ****     int byteCount;
  85:wiegand.c     ****     unsigned char buffer[WIEGAND_BUFFER_LENGTH];  
  86:wiegand.c     ****     int i;
  87:wiegand.c     ****    
  88:wiegand.c     ****     char WD0 = Pin_WD0_Read();
 288              		.loc 1 88 0
 289 000a FFF7FEFF 		bl	Pin_WD0_Read
 290              	.LVL33:
 291 000e 0746     		mov	r7, r0
 292              	.LVL34:
  89:wiegand.c     ****     char WD1 = Pin_WD1_Read();
 293              		.loc 1 89 0
ARM GAS  C:\Users\yqh\AppData\Local\Temp\ccmADfZh.s 			page 8


 294 0010 FFF7FEFF 		bl	Pin_WD1_Read
 295              	.LVL35:
  90:wiegand.c     ****     card_in_buf = 0;
 296              		.loc 1 90 0
 297 0014 3C4B     		ldr	r3, .L39
 298 0016 0022     		movs	r2, #0
  91:wiegand.c     ****     if (nBits > (WIEGAND_BUFFER_LENGTH << 3)) return 0; //garbage in
 299              		.loc 1 91 0
 300 0018 B9F1F00F 		cmp	r9, #240
  89:wiegand.c     ****     char WD1 = Pin_WD1_Read();
 301              		.loc 1 89 0
 302 001c 8246     		mov	r10, r0
 303              	.LVL36:
  90:wiegand.c     ****     card_in_buf = 0;
 304              		.loc 1 90 0
 305 001e 1A60     		str	r2, [r3]
 306 0020 9846     		mov	r8, r3
 307              		.loc 1 91 0
 308 0022 54DC     		bgt	.L37
  92:wiegand.c     ****     if( WD0 == 0 || WD1 == 0)
 309              		.loc 1 92 0
 310 0024 0FB1     		cbz	r7, .L19
 311              		.loc 1 92 0 is_stmt 0 discriminator 1
 312 0026 0028     		cmp	r0, #0
 313 0028 51D1     		bne	.L37
 314              	.L19:
 315              	.LVL37:
  93:wiegand.c     ****     {
  94:wiegand.c     ****         bitCount=0;
  95:wiegand.c     ****         byteCount=0;
  96:wiegand.c     ****         buffer[byteCount]=0;
 316              		.loc 1 96 0 is_stmt 1
 317 002a 0025     		movs	r5, #0
  94:wiegand.c     ****         byteCount=0;
 318              		.loc 1 94 0
 319 002c 2C46     		mov	r4, r5
 320              		.loc 1 96 0
 321 002e 8DF80050 		strb	r5, [sp]
 322              	.LVL38:
 323              	.L21:
  97:wiegand.c     ****         while(byteCount*8+bitCount < nBits)
 324              		.loc 1 97 0
 325 0032 04EBC503 		add	r3, r4, r5, lsl #3
 326 0036 4B45     		cmp	r3, r9
 327 0038 3DDA     		bge	.L38
  98:wiegand.c     ****         {
  99:wiegand.c     ****             if(WD0 == 0)
 328              		.loc 1 99 0
 329 003a 87B9     		cbnz	r7, .L22
 100:wiegand.c     ****             {
 101:wiegand.c     ****                 Timeout_Timer_Isr_Disable();
 102:wiegand.c     ****                 passmode_timeout = 0;
 330              		.loc 1 102 0
 331 003c DFF8CCA0 		ldr	r10, .L39+4
 332              	.LVL39:
 101:wiegand.c     ****                 passmode_timeout = 0;
 333              		.loc 1 101 0
ARM GAS  C:\Users\yqh\AppData\Local\Temp\ccmADfZh.s 			page 9


 334 0040 FFF7FEFF 		bl	Timeout_Timer_Isr_Disable
 335              	.LVL40:
 336              		.loc 1 102 0
 337 0044 CAF80070 		str	r7, [r10]
 103:wiegand.c     ****                 Timeout_Timer_Isr_Enable();
 338              		.loc 1 103 0
 339 0048 FFF7FEFF 		bl	Timeout_Timer_Isr_Enable
 340              	.LVL41:
 341              	.L23:
 104:wiegand.c     ****                 while(WD0 != 1)
 105:wiegand.c     ****                 {
 106:wiegand.c     ****                     if (passmode_timeout > 80) return(0);  //100
 342              		.loc 1 106 0
 343 004c DAF80030 		ldr	r3, [r10]
 344 0050 502B     		cmp	r3, #80
 345 0052 3CDC     		bgt	.L37
 107:wiegand.c     ****                     WD0 = Pin_WD0_Read();
 346              		.loc 1 107 0
 347 0054 FFF7FEFF 		bl	Pin_WD0_Read
 348              	.LVL42:
 104:wiegand.c     ****                 while(WD0 != 1)
 349              		.loc 1 104 0
 350 0058 0128     		cmp	r0, #1
 351 005a F7D1     		bne	.L23
 352 005c 1AE0     		b	.L36
 353              	.LVL43:
 354              	.L22:
 108:wiegand.c     ****                 }
 109:wiegand.c     ****                 bitCount++;
 110:wiegand.c     ****             }
 111:wiegand.c     ****         
 112:wiegand.c     ****             //Read D1 line for input, if yes wait for 50 usec for data to end
 113:wiegand.c     ****             //and write 1 to the bit in the buffer at the right position.            
 114:wiegand.c     ****             else if(WD1 == 0)
 355              		.loc 1 114 0
 356 005e BAF1000F 		cmp	r10, #0
 357 0062 18D1     		bne	.L24
 115:wiegand.c     ****             {
 116:wiegand.c     ****                 Timeout_Timer_Isr_Disable();
 117:wiegand.c     ****                 passmode_timeout = 0;
 358              		.loc 1 117 0
 359 0064 294F     		ldr	r7, .L39+4
 360              	.LVL44:
 116:wiegand.c     ****                 passmode_timeout = 0;
 361              		.loc 1 116 0
 362 0066 FFF7FEFF 		bl	Timeout_Timer_Isr_Disable
 363              	.LVL45:
 364              		.loc 1 117 0
 365 006a C7F800A0 		str	r10, [r7]
 118:wiegand.c     ****                 Timeout_Timer_Isr_Enable();
 366              		.loc 1 118 0
 367 006e FFF7FEFF 		bl	Timeout_Timer_Isr_Enable
 368              	.LVL46:
 369              	.L25:
 119:wiegand.c     ****                 while(WD1 != 1)
 120:wiegand.c     ****                 {
 121:wiegand.c     ****                     if (passmode_timeout > 80) return(0);
ARM GAS  C:\Users\yqh\AppData\Local\Temp\ccmADfZh.s 			page 10


 370              		.loc 1 121 0
 371 0072 3B68     		ldr	r3, [r7]
 372 0074 502B     		cmp	r3, #80
 373 0076 2ADC     		bgt	.L37
 122:wiegand.c     ****                     WD1 = Pin_WD1_Read();
 374              		.loc 1 122 0
 375 0078 FFF7FEFF 		bl	Pin_WD1_Read
 376              	.LVL47:
 119:wiegand.c     ****                 while(WD1 != 1)
 377              		.loc 1 119 0
 378 007c 0128     		cmp	r0, #1
 379 007e F8D1     		bne	.L25
 123:wiegand.c     ****                 }
 124:wiegand.c     ****                 buffer[byteCount] |= (0x01 << (7-bitCount));  //write a 1 to current buffer word 
 380              		.loc 1 124 0
 381 0080 C4F10703 		rsb	r3, r4, #7
 382 0084 9840     		lsls	r0, r0, r3
 383              	.LVL48:
 384 0086 08AB     		add	r3, sp, #32
 385 0088 2B44     		add	r3, r3, r5
 386 008a 13F8202C 		ldrb	r2, [r3, #-32]	@ zero_extendqisi2
 387 008e 1043     		orrs	r0, r0, r2
 388 0090 03F8200C 		strb	r0, [r3, #-32]
 389              	.L36:
 125:wiegand.c     ****                 bitCount++;
 390              		.loc 1 125 0
 391 0094 0134     		adds	r4, r4, #1
 392              	.LVL49:
 393              	.L24:
 126:wiegand.c     ****             }
 127:wiegand.c     ****         
 128:wiegand.c     ****             //Reset bitCount
 129:wiegand.c     ****             if (bitCount > 7)
 394              		.loc 1 129 0
 395 0096 072C     		cmp	r4, #7
 396              	.LVL50:
 130:wiegand.c     **** 			{
 131:wiegand.c     **** 				bitCount = 0;
 132:wiegand.c     **** 				byteCount++;
 133:wiegand.c     ****                 buffer[byteCount] = 0;
 397              		.loc 1 133 0
 398 0098 C1BF     		itttt	gt
 399 009a 08AB     		addgt	r3, sp, #32
 132:wiegand.c     ****                 buffer[byteCount] = 0;
 400              		.loc 1 132 0
 401 009c 0135     		addgt	r5, r5, #1
 402              	.LVL51:
 403              		.loc 1 133 0
 404 009e 5B19     		addgt	r3, r3, r5
 405 00a0 0024     		movgt	r4, #0
 406 00a2 C8BF     		it	gt
 407 00a4 03F8204C 		strbgt	r4, [r3, #-32]
 408              	.LVL52:
 134:wiegand.c     **** 			}
 135:wiegand.c     ****             
 136:wiegand.c     ****             //Read D0 line for input, if yes wait for 50 usec for data to end
 137:wiegand.c     ****             WD0 = Pin_WD0_Read();
ARM GAS  C:\Users\yqh\AppData\Local\Temp\ccmADfZh.s 			page 11


 409              		.loc 1 137 0
 410 00a8 FFF7FEFF 		bl	Pin_WD0_Read
 411              	.LVL53:
 412 00ac 0746     		mov	r7, r0
 413              	.LVL54:
 138:wiegand.c     ****             WD1 = Pin_WD1_Read();            
 414              		.loc 1 138 0
 415 00ae FFF7FEFF 		bl	Pin_WD1_Read
 416              	.LVL55:
 417 00b2 8246     		mov	r10, r0
 418              	.LVL56:
 419 00b4 BDE7     		b	.L21
 420              	.L38:
 139:wiegand.c     ****         } //while
 140:wiegand.c     ****         
 141:wiegand.c     ****         MyI2C_Regs.data_length[0] = (nBits>>8) & 0xFF;
 421              		.loc 1 141 0
 422 00b6 164B     		ldr	r3, .L39+8
 423 00b8 4FEA2922 		asr	r2, r9, #8
 424 00bc DA71     		strb	r2, [r3, #7]
 142:wiegand.c     ****         MyI2C_Regs.data_length[1] = nBits & 0xFF;
 425              		.loc 1 142 0
 426 00be 83F80890 		strb	r9, [r3, #8]
 427 00c2 1F46     		mov	r7, r3
 428              	.LVL57:
 143:wiegand.c     ****         
 144:wiegand.c     ****         if ( passmode)
 429              		.loc 1 144 0
 430 00c4 2EB1     		cbz	r6, .L29
 145:wiegand.c     ****         {
 146:wiegand.c     ****             SendWeigand(buffer, nBits);
 431              		.loc 1 146 0
 432 00c6 6846     		mov	r0, sp
 433 00c8 4946     		mov	r1, r9
 434 00ca FFF7FEFF 		bl	SendWeigand
 435              	.LVL58:
 436              	.L37:
 147:wiegand.c     ****         }
 148:wiegand.c     ****         else
 149:wiegand.c     ****         {
 150:wiegand.c     ****             for (i=0; i<=byteCount; i++)
 151:wiegand.c     ****             {
 152:wiegand.c     ****                 MyI2C_Regs.buffer[i] = buffer[i];
 153:wiegand.c     ****                 CyDelayUs(1u);  //add some delay for I2C
 154:wiegand.c     ****             }
 155:wiegand.c     ****             card_ack = 0;
 156:wiegand.c     ****             card_in_buf = 1;
 157:wiegand.c     ****             MyI2C_Regs.status_out |= STAT_CHANGE | STAT_CARD_IN ;
 158:wiegand.c     ****             MyI2C_Regs.cmd = CMD_NONE;
 159:wiegand.c     ****             return 1;
 160:wiegand.c     ****         }
 161:wiegand.c     ****     }
 162:wiegand.c     ****     return 0;
 437              		.loc 1 162 0
 438 00ce 0020     		movs	r0, #0
 439 00d0 17E0     		b	.L18
 440              	.LVL59:
ARM GAS  C:\Users\yqh\AppData\Local\Temp\ccmADfZh.s 			page 12


 441              	.L29:
 442 00d2 3446     		mov	r4, r6
 443              	.LVL60:
 444              	.L28:
 152:wiegand.c     ****                 CyDelayUs(1u);  //add some delay for I2C
 445              		.loc 1 152 0 discriminator 3
 446 00d4 1DF80420 		ldrb	r2, [sp, r4]	@ zero_extendqisi2
 447 00d8 3B19     		adds	r3, r7, r4
 448 00da 83F84920 		strb	r2, [r3, #73]
 153:wiegand.c     ****             }
 449              		.loc 1 153 0 discriminator 3
 450 00de 0120     		movs	r0, #1
 150:wiegand.c     ****             {
 451              		.loc 1 150 0 discriminator 3
 452 00e0 0134     		adds	r4, r4, #1
 453              	.LVL61:
 153:wiegand.c     ****             }
 454              		.loc 1 153 0 discriminator 3
 455 00e2 FFF7FEFF 		bl	CyDelayUs
 456              	.LVL62:
 150:wiegand.c     ****             {
 457              		.loc 1 150 0 discriminator 3
 458 00e6 AC42     		cmp	r4, r5
 459 00e8 094E     		ldr	r6, .L39+8
 460 00ea F3DD     		ble	.L28
 155:wiegand.c     ****             card_in_buf = 1;
 461              		.loc 1 155 0
 462 00ec 094B     		ldr	r3, .L39+12
 463 00ee 0022     		movs	r2, #0
 464 00f0 1A60     		str	r2, [r3]
 157:wiegand.c     ****             MyI2C_Regs.cmd = CMD_NONE;
 465              		.loc 1 157 0
 466 00f2 3378     		ldrb	r3, [r6]	@ zero_extendqisi2
 156:wiegand.c     ****             MyI2C_Regs.status_out |= STAT_CHANGE | STAT_CARD_IN ;
 467              		.loc 1 156 0
 468 00f4 0120     		movs	r0, #1
 157:wiegand.c     ****             MyI2C_Regs.cmd = CMD_NONE;
 469              		.loc 1 157 0
 470 00f6 43F00303 		orr	r3, r3, #3
 156:wiegand.c     ****             MyI2C_Regs.status_out |= STAT_CHANGE | STAT_CARD_IN ;
 471              		.loc 1 156 0
 472 00fa C8F80000 		str	r0, [r8]
 157:wiegand.c     ****             MyI2C_Regs.cmd = CMD_NONE;
 473              		.loc 1 157 0
 474 00fe 3370     		strb	r3, [r6]
 158:wiegand.c     ****             return 1;
 475              		.loc 1 158 0
 476 0100 B270     		strb	r2, [r6, #2]
 477              	.LVL63:
 478              	.L18:
 163:wiegand.c     **** }
 479              		.loc 1 163 0
 480 0102 08B0     		add	sp, sp, #32
 481              		.cfi_def_cfa_offset 32
 482              		@ sp needed
 483 0104 BDE8F087 		pop	{r4, r5, r6, r7, r8, r9, r10, pc}
 484              	.LVL64:
ARM GAS  C:\Users\yqh\AppData\Local\Temp\ccmADfZh.s 			page 13


 485              	.L40:
 486              		.align	2
 487              	.L39:
 488 0108 00000000 		.word	card_in_buf
 489 010c 00000000 		.word	passmode_timeout
 490 0110 00000000 		.word	MyI2C_Regs
 491 0114 00000000 		.word	card_ack
 492              		.cfi_endproc
 493              	.LFE67:
 494              		.size	ReadWeigand, .-ReadWeigand
 495              		.comm	card_in_buf,4,4
 496              		.comm	card_ack,4,4
 497              		.comm	tamper_out_polarity,4,4
 498              		.comm	tamperCR_polarity,4,4
 499              		.comm	tp_old,1,1
 500              		.comm	hw_old,1,1
 501              		.comm	currentAccessType,1,1
 502              		.comm	s,40,4
 503              		.text
 504              	.Letext0:
 505              		.file 2 "c:\\program files (x86)\\cypress\\psoc creator\\4.0\\psoc creator\\import\\gnu\\arm\\4.9.
 506              		.file 3 "c:\\program files (x86)\\cypress\\psoc creator\\4.0\\psoc creator\\import\\gnu\\arm\\4.9.
 507              		.file 4 "Generated_Source\\PSoC5/cytypes.h"
 508              		.file 5 "softuart.h"
 509              		.file 6 "system.h"
 510              		.file 7 "Generated_Source\\PSoC5/core_cm3.h"
 511              		.file 8 "Generated_Source\\PSoC5/OptSelect.h"
 512              		.file 9 "Generated_Source\\PSoC5/PS_D1.h"
 513              		.file 10 "Generated_Source\\PSoC5/isr_50us.h"
 514              		.file 11 "Generated_Source\\PSoC5/Pulse_50us.h"
 515              		.file 12 "Generated_Source\\PSoC5/CyLib.h"
 516              		.file 13 "Generated_Source\\PSoC5/Pin_WD0.h"
 517              		.file 14 "Generated_Source\\PSoC5/Pin_WD1.h"
 518              		.file 15 "Generated_Source\\PSoC5/Timeout_Timer_Isr.h"