ARM GAS  C:\Users\Yiquing\AppData\Local\Temp\ccE8adEp.s 			page 1


   1              		.syntax unified
   2              		.cpu cortex-m3
   3              		.fpu softvfp
   4              		.eabi_attribute 20, 1
   5              		.eabi_attribute 21, 1
   6              		.eabi_attribute 23, 3
   7              		.eabi_attribute 24, 1
   8              		.eabi_attribute 25, 1
   9              		.eabi_attribute 26, 1
  10              		.eabi_attribute 30, 4
  11              		.eabi_attribute 34, 1
  12              		.eabi_attribute 18, 4
  13              		.thumb
  14              		.file	"CyDmac.c"
  15              		.text
  16              	.Ltext0:
  17              		.cfi_sections	.debug_frame
  18              		.section	.text.CyDmacConfigure,"ax",%progbits
  19              		.align	1
  20              		.global	CyDmacConfigure
  21              		.thumb
  22              		.thumb_func
  23              		.type	CyDmacConfigure, %function
  24              	CyDmacConfigure:
  25              	.LFB0:
  26              		.file 1 ".\\Generated_Source\\PSoC5\\CyDmac.c"
   1:.\Generated_Source\PSoC5/CyDmac.c **** /*******************************************************************************
   2:.\Generated_Source\PSoC5/CyDmac.c **** * File Name: CyDmac.c
   3:.\Generated_Source\PSoC5/CyDmac.c **** * Version 5.0
   4:.\Generated_Source\PSoC5/CyDmac.c **** *
   5:.\Generated_Source\PSoC5/CyDmac.c **** * Description:
   6:.\Generated_Source\PSoC5/CyDmac.c **** *  Provides an API for the DMAC component. The API includes functions for the
   7:.\Generated_Source\PSoC5/CyDmac.c **** *  DMA controller, DMA channels and Transfer Descriptors.
   8:.\Generated_Source\PSoC5/CyDmac.c **** *
   9:.\Generated_Source\PSoC5/CyDmac.c **** *  This API is the library version not the auto generated code that gets
  10:.\Generated_Source\PSoC5/CyDmac.c **** *  generated when the user places a DMA component on the schematic.
  11:.\Generated_Source\PSoC5/CyDmac.c **** *
  12:.\Generated_Source\PSoC5/CyDmac.c **** *  The auto generated code would use the APi's in this module.
  13:.\Generated_Source\PSoC5/CyDmac.c **** *
  14:.\Generated_Source\PSoC5/CyDmac.c **** * Note:
  15:.\Generated_Source\PSoC5/CyDmac.c **** *  This code is endian agnostic.
  16:.\Generated_Source\PSoC5/CyDmac.c **** *
  17:.\Generated_Source\PSoC5/CyDmac.c **** *  The Transfer Descriptor memory can be used as regular memory if the TD's are
  18:.\Generated_Source\PSoC5/CyDmac.c **** *  not being used.
  19:.\Generated_Source\PSoC5/CyDmac.c **** *
  20:.\Generated_Source\PSoC5/CyDmac.c **** *  This code uses the first byte of each TD to manage the free list of TD's.
  21:.\Generated_Source\PSoC5/CyDmac.c **** *  The user can overwrite this once the TD is allocated.
  22:.\Generated_Source\PSoC5/CyDmac.c **** *
  23:.\Generated_Source\PSoC5/CyDmac.c **** ********************************************************************************
  24:.\Generated_Source\PSoC5/CyDmac.c **** * Copyright 2008-2015, Cypress Semiconductor Corporation.  All rights reserved.
  25:.\Generated_Source\PSoC5/CyDmac.c **** * You may use this file only in accordance with the license, terms, conditions,
  26:.\Generated_Source\PSoC5/CyDmac.c **** * disclaimers, and limitations in the end user license agreement accompanying
  27:.\Generated_Source\PSoC5/CyDmac.c **** * the software package with which this file was provided.
  28:.\Generated_Source\PSoC5/CyDmac.c **** *******************************************************************************/
  29:.\Generated_Source\PSoC5/CyDmac.c **** 
  30:.\Generated_Source\PSoC5/CyDmac.c **** #include "CyDmac.h"
  31:.\Generated_Source\PSoC5/CyDmac.c **** 
ARM GAS  C:\Users\Yiquing\AppData\Local\Temp\ccE8adEp.s 			page 2


  32:.\Generated_Source\PSoC5/CyDmac.c **** 
  33:.\Generated_Source\PSoC5/CyDmac.c **** /*******************************************************************************
  34:.\Generated_Source\PSoC5/CyDmac.c **** * The following variables are initialized from CyDmacConfigure() function that
  35:.\Generated_Source\PSoC5/CyDmac.c **** * is executed from initialize_psoc() at the early initialization stage.
  36:.\Generated_Source\PSoC5/CyDmac.c **** * In case of IAR EW IDE, initialize_psoc() is executed before the data sections
  37:.\Generated_Source\PSoC5/CyDmac.c **** * are initialized. To avoid zeroing, these variables should be initialized
  38:.\Generated_Source\PSoC5/CyDmac.c **** * properly during segments initialization as well.
  39:.\Generated_Source\PSoC5/CyDmac.c **** *******************************************************************************/
  40:.\Generated_Source\PSoC5/CyDmac.c **** static uint8  CyDmaTdCurrentNumber = CY_DMA_NUMBEROF_TDS;           /* Current Number of free eleme
  41:.\Generated_Source\PSoC5/CyDmac.c **** static uint8  CyDmaTdFreeIndex = (uint8)(CY_DMA_NUMBEROF_TDS - 1u); /* Index of first available TD 
  42:.\Generated_Source\PSoC5/CyDmac.c **** static uint32 CyDmaChannels = DMA_CHANNELS_USED__MASK0;              /* Bit map of DMA channel owne
  43:.\Generated_Source\PSoC5/CyDmac.c **** 
  44:.\Generated_Source\PSoC5/CyDmac.c **** 
  45:.\Generated_Source\PSoC5/CyDmac.c **** /*******************************************************************************
  46:.\Generated_Source\PSoC5/CyDmac.c **** * Function Name: CyDmacConfigure
  47:.\Generated_Source\PSoC5/CyDmac.c **** ********************************************************************************
  48:.\Generated_Source\PSoC5/CyDmac.c **** *
  49:.\Generated_Source\PSoC5/CyDmac.c **** * Summary:
  50:.\Generated_Source\PSoC5/CyDmac.c **** *  Creates a linked list of all the TDs to be allocated. This function is called
  51:.\Generated_Source\PSoC5/CyDmac.c **** *  by the startup code; you do not normally need to call it. You can call this
  52:.\Generated_Source\PSoC5/CyDmac.c **** *  function if all of the DMA channels are inactive.
  53:.\Generated_Source\PSoC5/CyDmac.c **** *
  54:.\Generated_Source\PSoC5/CyDmac.c **** * Parameters:
  55:.\Generated_Source\PSoC5/CyDmac.c **** *  None
  56:.\Generated_Source\PSoC5/CyDmac.c **** *
  57:.\Generated_Source\PSoC5/CyDmac.c **** * Return:
  58:.\Generated_Source\PSoC5/CyDmac.c **** *  None
  59:.\Generated_Source\PSoC5/CyDmac.c **** *
  60:.\Generated_Source\PSoC5/CyDmac.c **** *******************************************************************************/
  61:.\Generated_Source\PSoC5/CyDmac.c **** void CyDmacConfigure(void) 
  62:.\Generated_Source\PSoC5/CyDmac.c **** {
  27              		.loc 1 62 0
  28              		.cfi_startproc
  29              		@ args = 0, pretend = 0, frame = 0
  30              		@ frame_needed = 0, uses_anonymous_args = 0
  31              		@ link register save eliminated.
  63:.\Generated_Source\PSoC5/CyDmac.c ****     uint8 dmaIndex;
  64:.\Generated_Source\PSoC5/CyDmac.c **** 
  65:.\Generated_Source\PSoC5/CyDmac.c ****     /* Set TD list variables. */
  66:.\Generated_Source\PSoC5/CyDmac.c ****     CyDmaTdFreeIndex     = (uint8)(CY_DMA_NUMBEROF_TDS - 1u);
  32              		.loc 1 66 0
  33 0000 074A     		ldr	r2, .L6
  34 0002 7F23     		movs	r3, #127
  67:.\Generated_Source\PSoC5/CyDmac.c ****     CyDmaTdCurrentNumber = CY_DMA_NUMBEROF_TDS;
  35              		.loc 1 67 0
  36 0004 8021     		movs	r1, #128
  66:.\Generated_Source\PSoC5/CyDmac.c ****     CyDmaTdFreeIndex     = (uint8)(CY_DMA_NUMBEROF_TDS - 1u);
  37              		.loc 1 66 0
  38 0006 1370     		strb	r3, [r2]
  39              		.loc 1 67 0
  40 0008 5170     		strb	r1, [r2, #1]
  41              	.LVL0:
  42 000a 064A     		ldr	r2, .L6+4
  43              	.LVL1:
  44              	.L3:
  68:.\Generated_Source\PSoC5/CyDmac.c **** 
  69:.\Generated_Source\PSoC5/CyDmac.c ****     /* Make TD free list. */
ARM GAS  C:\Users\Yiquing\AppData\Local\Temp\ccE8adEp.s 			page 3


  70:.\Generated_Source\PSoC5/CyDmac.c ****     for(dmaIndex = (uint8)(CY_DMA_NUMBEROF_TDS - 1u); dmaIndex != 0u; dmaIndex--)
  71:.\Generated_Source\PSoC5/CyDmac.c ****     {
  72:.\Generated_Source\PSoC5/CyDmac.c ****         CY_DMA_TDMEM_STRUCT_PTR[dmaIndex].TD0[0u] = (uint8)(dmaIndex - 1u);
  45              		.loc 1 72 0 discriminator 2
  46 000c 013B     		subs	r3, r3, #1
  47              	.LVL2:
  48 000e DBB2     		uxtb	r3, r3
  49              	.LVL3:
  50 0010 02F80839 		strb	r3, [r2], #-8
  51              	.LVL4:
  70:.\Generated_Source\PSoC5/CyDmac.c ****     for(dmaIndex = (uint8)(CY_DMA_NUMBEROF_TDS - 1u); dmaIndex != 0u; dmaIndex--)
  52              		.loc 1 70 0 discriminator 2
  53 0014 002B     		cmp	r3, #0
  54 0016 F9D1     		bne	.L3
  73:.\Generated_Source\PSoC5/CyDmac.c ****     }
  74:.\Generated_Source\PSoC5/CyDmac.c **** 
  75:.\Generated_Source\PSoC5/CyDmac.c ****     /* Make last one point to zero. */
  76:.\Generated_Source\PSoC5/CyDmac.c ****     CY_DMA_TDMEM_STRUCT_PTR[dmaIndex].TD0[0u] = 0u;
  55              		.loc 1 76 0
  56 0018 034A     		ldr	r2, .L6+8
  57 001a 1370     		strb	r3, [r2]
  58 001c 7047     		bx	lr
  59              	.L7:
  60 001e 00BF     		.align	2
  61              	.L6:
  62 0020 00000000 		.word	.LANCHOR0
  63 0024 F87B0040 		.word	1073773560
  64 0028 00780040 		.word	1073772544
  65              		.cfi_endproc
  66              	.LFE0:
  67              		.size	CyDmacConfigure, .-CyDmacConfigure
  68              		.section	.text.CyDmacError,"ax",%progbits
  69              		.align	1
  70              		.global	CyDmacError
  71              		.thumb
  72              		.thumb_func
  73              		.type	CyDmacError, %function
  74              	CyDmacError:
  75              	.LFB1:
  77:.\Generated_Source\PSoC5/CyDmac.c **** }
  78:.\Generated_Source\PSoC5/CyDmac.c **** 
  79:.\Generated_Source\PSoC5/CyDmac.c **** 
  80:.\Generated_Source\PSoC5/CyDmac.c **** /*******************************************************************************
  81:.\Generated_Source\PSoC5/CyDmac.c **** * Function Name: CyDmacError
  82:.\Generated_Source\PSoC5/CyDmac.c **** ********************************************************************************
  83:.\Generated_Source\PSoC5/CyDmac.c **** *
  84:.\Generated_Source\PSoC5/CyDmac.c **** * Summary:
  85:.\Generated_Source\PSoC5/CyDmac.c **** *  Returns errors of the last failed DMA transaction.
  86:.\Generated_Source\PSoC5/CyDmac.c **** *
  87:.\Generated_Source\PSoC5/CyDmac.c **** * Parameters:
  88:.\Generated_Source\PSoC5/CyDmac.c **** *  None
  89:.\Generated_Source\PSoC5/CyDmac.c **** *
  90:.\Generated_Source\PSoC5/CyDmac.c **** * Return:
  91:.\Generated_Source\PSoC5/CyDmac.c **** *  Errors of the last failed DMA transaction.
  92:.\Generated_Source\PSoC5/CyDmac.c **** *
  93:.\Generated_Source\PSoC5/CyDmac.c **** *  DMAC_PERIPH_ERR:
  94:.\Generated_Source\PSoC5/CyDmac.c **** *   Set to 1 when a peripheral responds to a bus transaction with an error
ARM GAS  C:\Users\Yiquing\AppData\Local\Temp\ccE8adEp.s 			page 4


  95:.\Generated_Source\PSoC5/CyDmac.c **** *   response.
  96:.\Generated_Source\PSoC5/CyDmac.c **** *
  97:.\Generated_Source\PSoC5/CyDmac.c **** *  DMAC_UNPOP_ACC:
  98:.\Generated_Source\PSoC5/CyDmac.c **** *   Set to 1 when an access is attempted to an invalid address.
  99:.\Generated_Source\PSoC5/CyDmac.c **** *
 100:.\Generated_Source\PSoC5/CyDmac.c **** *  DMAC_BUS_TIMEOUT:
 101:.\Generated_Source\PSoC5/CyDmac.c **** *   Set to 1 when a bus timeout occurs. Cleared by writing a 1. Timeout values
 102:.\Generated_Source\PSoC5/CyDmac.c **** *   are determined by the BUS_TIMEOUT field in the PHUBCFG register.
 103:.\Generated_Source\PSoC5/CyDmac.c **** *
 104:.\Generated_Source\PSoC5/CyDmac.c **** * Theory:
 105:.\Generated_Source\PSoC5/CyDmac.c **** *  Once an error occurs the error bits are sticky and are only cleared by
 106:.\Generated_Source\PSoC5/CyDmac.c **** *  writing 1 to the error register.
 107:.\Generated_Source\PSoC5/CyDmac.c **** *
 108:.\Generated_Source\PSoC5/CyDmac.c **** *******************************************************************************/
 109:.\Generated_Source\PSoC5/CyDmac.c **** uint8 CyDmacError(void) 
 110:.\Generated_Source\PSoC5/CyDmac.c **** {
  76              		.loc 1 110 0
  77              		.cfi_startproc
  78              		@ args = 0, pretend = 0, frame = 0
  79              		@ frame_needed = 0, uses_anonymous_args = 0
  80              		@ link register save eliminated.
 111:.\Generated_Source\PSoC5/CyDmac.c ****     return((uint8)(((uint32) 0x0Eu) & *CY_DMA_ERR_PTR));
  81              		.loc 1 111 0
  82 0000 024B     		ldr	r3, .L9
  83 0002 1868     		ldr	r0, [r3]
 112:.\Generated_Source\PSoC5/CyDmac.c **** }
  84              		.loc 1 112 0
  85 0004 00F00E00 		and	r0, r0, #14
  86 0008 7047     		bx	lr
  87              	.L10:
  88 000a 00BF     		.align	2
  89              	.L9:
  90 000c 04700040 		.word	1073770500
  91              		.cfi_endproc
  92              	.LFE1:
  93              		.size	CyDmacError, .-CyDmacError
  94              		.section	.text.CyDmacClearError,"ax",%progbits
  95              		.align	1
  96              		.global	CyDmacClearError
  97              		.thumb
  98              		.thumb_func
  99              		.type	CyDmacClearError, %function
 100              	CyDmacClearError:
 101              	.LFB2:
 113:.\Generated_Source\PSoC5/CyDmac.c **** 
 114:.\Generated_Source\PSoC5/CyDmac.c **** 
 115:.\Generated_Source\PSoC5/CyDmac.c **** /*******************************************************************************
 116:.\Generated_Source\PSoC5/CyDmac.c **** * Function Name: CyDmacClearError
 117:.\Generated_Source\PSoC5/CyDmac.c **** ********************************************************************************
 118:.\Generated_Source\PSoC5/CyDmac.c **** *
 119:.\Generated_Source\PSoC5/CyDmac.c **** * Summary:
 120:.\Generated_Source\PSoC5/CyDmac.c **** *  Clears the error bits in the error register of the DMAC.
 121:.\Generated_Source\PSoC5/CyDmac.c **** *
 122:.\Generated_Source\PSoC5/CyDmac.c **** * Parameters:
 123:.\Generated_Source\PSoC5/CyDmac.c **** * error:
 124:.\Generated_Source\PSoC5/CyDmac.c **** *   Clears the error bits in the DMAC error register.
 125:.\Generated_Source\PSoC5/CyDmac.c **** *
ARM GAS  C:\Users\Yiquing\AppData\Local\Temp\ccE8adEp.s 			page 5


 126:.\Generated_Source\PSoC5/CyDmac.c **** *  DMAC_PERIPH_ERR:
 127:.\Generated_Source\PSoC5/CyDmac.c **** *   Set to 1 when a peripheral responds to a bus transaction with an error
 128:.\Generated_Source\PSoC5/CyDmac.c **** *   response.
 129:.\Generated_Source\PSoC5/CyDmac.c **** *
 130:.\Generated_Source\PSoC5/CyDmac.c **** *  DMAC_UNPOP_ACC:
 131:.\Generated_Source\PSoC5/CyDmac.c **** *   Set to 1 when an access is attempted to an invalid address.
 132:.\Generated_Source\PSoC5/CyDmac.c **** *
 133:.\Generated_Source\PSoC5/CyDmac.c **** *  DMAC_BUS_TIMEOUT:
 134:.\Generated_Source\PSoC5/CyDmac.c **** *   Set to 1 when a bus timeout occurs. Cleared by writing 1. Timeout values
 135:.\Generated_Source\PSoC5/CyDmac.c **** *   are determined by the BUS_TIMEOUT field in the PHUBCFG register.
 136:.\Generated_Source\PSoC5/CyDmac.c **** *
 137:.\Generated_Source\PSoC5/CyDmac.c **** * Return:
 138:.\Generated_Source\PSoC5/CyDmac.c **** *  None
 139:.\Generated_Source\PSoC5/CyDmac.c **** *
 140:.\Generated_Source\PSoC5/CyDmac.c **** * Theory:
 141:.\Generated_Source\PSoC5/CyDmac.c **** *  Once an error occurs the error bits are sticky and are only cleared by
 142:.\Generated_Source\PSoC5/CyDmac.c **** *  writing 1 to the error register.
 143:.\Generated_Source\PSoC5/CyDmac.c **** *
 144:.\Generated_Source\PSoC5/CyDmac.c **** *******************************************************************************/
 145:.\Generated_Source\PSoC5/CyDmac.c **** void CyDmacClearError(uint8 error) 
 146:.\Generated_Source\PSoC5/CyDmac.c **** {
 102              		.loc 1 146 0
 103              		.cfi_startproc
 104              		@ args = 0, pretend = 0, frame = 0
 105              		@ frame_needed = 0, uses_anonymous_args = 0
 106              		@ link register save eliminated.
 107              	.LVL5:
 147:.\Generated_Source\PSoC5/CyDmac.c ****     *CY_DMA_ERR_PTR = (((uint32)0x0Fu) & ((uint32)error));
 108              		.loc 1 147 0
 109 0000 024B     		ldr	r3, .L12
 110 0002 00F00F00 		and	r0, r0, #15
 111              	.LVL6:
 112 0006 1860     		str	r0, [r3]
 113 0008 7047     		bx	lr
 114              	.L13:
 115 000a 00BF     		.align	2
 116              	.L12:
 117 000c 04700040 		.word	1073770500
 118              		.cfi_endproc
 119              	.LFE2:
 120              		.size	CyDmacClearError, .-CyDmacClearError
 121              		.section	.text.CyDmacErrorAddress,"ax",%progbits
 122              		.align	1
 123              		.global	CyDmacErrorAddress
 124              		.thumb
 125              		.thumb_func
 126              		.type	CyDmacErrorAddress, %function
 127              	CyDmacErrorAddress:
 128              	.LFB3:
 148:.\Generated_Source\PSoC5/CyDmac.c **** }
 149:.\Generated_Source\PSoC5/CyDmac.c **** 
 150:.\Generated_Source\PSoC5/CyDmac.c **** 
 151:.\Generated_Source\PSoC5/CyDmac.c **** /*******************************************************************************
 152:.\Generated_Source\PSoC5/CyDmac.c **** * Function Name: CyDmacErrorAddress
 153:.\Generated_Source\PSoC5/CyDmac.c **** ********************************************************************************
 154:.\Generated_Source\PSoC5/CyDmac.c **** *
 155:.\Generated_Source\PSoC5/CyDmac.c **** * Summary:
ARM GAS  C:\Users\Yiquing\AppData\Local\Temp\ccE8adEp.s 			page 6


 156:.\Generated_Source\PSoC5/CyDmac.c **** *  When DMAC_BUS_TIMEOUT, DMAC_UNPOP_ACC, and DMAC_PERIPH_ERR occur the
 157:.\Generated_Source\PSoC5/CyDmac.c **** *  address of the error is written to the error address register and can be read
 158:.\Generated_Source\PSoC5/CyDmac.c **** *  with this function.
 159:.\Generated_Source\PSoC5/CyDmac.c **** *
 160:.\Generated_Source\PSoC5/CyDmac.c **** *  If there are multiple errors, only the address of the first is saved.
 161:.\Generated_Source\PSoC5/CyDmac.c **** *
 162:.\Generated_Source\PSoC5/CyDmac.c **** * Parameters:
 163:.\Generated_Source\PSoC5/CyDmac.c **** *  None
 164:.\Generated_Source\PSoC5/CyDmac.c **** *
 165:.\Generated_Source\PSoC5/CyDmac.c **** * Return:
 166:.\Generated_Source\PSoC5/CyDmac.c **** *  The address that caused the error.
 167:.\Generated_Source\PSoC5/CyDmac.c **** *
 168:.\Generated_Source\PSoC5/CyDmac.c **** *******************************************************************************/
 169:.\Generated_Source\PSoC5/CyDmac.c **** uint32 CyDmacErrorAddress(void) 
 170:.\Generated_Source\PSoC5/CyDmac.c **** {
 129              		.loc 1 170 0
 130              		.cfi_startproc
 131              		@ args = 0, pretend = 0, frame = 0
 132              		@ frame_needed = 0, uses_anonymous_args = 0
 133              		@ link register save eliminated.
 171:.\Generated_Source\PSoC5/CyDmac.c ****     return(CY_GET_REG32(CY_DMA_ERR_ADR_PTR));
 134              		.loc 1 171 0
 135 0000 014B     		ldr	r3, .L15
 136 0002 1868     		ldr	r0, [r3]
 172:.\Generated_Source\PSoC5/CyDmac.c **** }
 137              		.loc 1 172 0
 138 0004 7047     		bx	lr
 139              	.L16:
 140 0006 00BF     		.align	2
 141              	.L15:
 142 0008 08700040 		.word	1073770504
 143              		.cfi_endproc
 144              	.LFE3:
 145              		.size	CyDmacErrorAddress, .-CyDmacErrorAddress
 146              		.section	.text.CyDmaChAlloc,"ax",%progbits
 147              		.align	1
 148              		.global	CyDmaChAlloc
 149              		.thumb
 150              		.thumb_func
 151              		.type	CyDmaChAlloc, %function
 152              	CyDmaChAlloc:
 153              	.LFB4:
 173:.\Generated_Source\PSoC5/CyDmac.c **** 
 174:.\Generated_Source\PSoC5/CyDmac.c **** 
 175:.\Generated_Source\PSoC5/CyDmac.c **** /*******************************************************************************
 176:.\Generated_Source\PSoC5/CyDmac.c **** * Function Name: CyDmaChAlloc
 177:.\Generated_Source\PSoC5/CyDmac.c **** ********************************************************************************
 178:.\Generated_Source\PSoC5/CyDmac.c **** *
 179:.\Generated_Source\PSoC5/CyDmac.c **** * Summary:
 180:.\Generated_Source\PSoC5/CyDmac.c **** *  Allocates a channel from the DMAC to be used in all functions that require a
 181:.\Generated_Source\PSoC5/CyDmac.c **** *  channel handle.
 182:.\Generated_Source\PSoC5/CyDmac.c **** *
 183:.\Generated_Source\PSoC5/CyDmac.c **** * Parameters:
 184:.\Generated_Source\PSoC5/CyDmac.c **** *  None
 185:.\Generated_Source\PSoC5/CyDmac.c **** *
 186:.\Generated_Source\PSoC5/CyDmac.c **** * Return:
 187:.\Generated_Source\PSoC5/CyDmac.c **** *  The allocated channel number. Zero is a valid channel number.
ARM GAS  C:\Users\Yiquing\AppData\Local\Temp\ccE8adEp.s 			page 7


 188:.\Generated_Source\PSoC5/CyDmac.c **** *  DMA_INVALID_CHANNEL is returned if there are no channels available.
 189:.\Generated_Source\PSoC5/CyDmac.c **** *
 190:.\Generated_Source\PSoC5/CyDmac.c **** *******************************************************************************/
 191:.\Generated_Source\PSoC5/CyDmac.c **** uint8 CyDmaChAlloc(void) 
 192:.\Generated_Source\PSoC5/CyDmac.c **** {
 154              		.loc 1 192 0
 155              		.cfi_startproc
 156              		@ args = 0, pretend = 0, frame = 0
 157              		@ frame_needed = 0, uses_anonymous_args = 0
 158              	.LVL7:
 159 0000 38B5     		push	{r3, r4, r5, lr}
 160              		.cfi_def_cfa_offset 16
 161              		.cfi_offset 3, -16
 162              		.cfi_offset 4, -12
 163              		.cfi_offset 5, -8
 164              		.cfi_offset 14, -4
 193:.\Generated_Source\PSoC5/CyDmac.c ****     uint8 interruptState;
 194:.\Generated_Source\PSoC5/CyDmac.c ****     uint8 dmaIndex;
 195:.\Generated_Source\PSoC5/CyDmac.c ****     uint32 channel = 1u;
 196:.\Generated_Source\PSoC5/CyDmac.c **** 
 197:.\Generated_Source\PSoC5/CyDmac.c **** 
 198:.\Generated_Source\PSoC5/CyDmac.c ****     /* Enter critical section! */
 199:.\Generated_Source\PSoC5/CyDmac.c ****     interruptState = CyEnterCriticalSection();
 200:.\Generated_Source\PSoC5/CyDmac.c **** 
 201:.\Generated_Source\PSoC5/CyDmac.c ****     /* Look for free channel. */
 202:.\Generated_Source\PSoC5/CyDmac.c ****     for(dmaIndex = 0u; dmaIndex < CY_DMA_NUMBEROF_CHANNELS; dmaIndex++)
 203:.\Generated_Source\PSoC5/CyDmac.c ****     {
 204:.\Generated_Source\PSoC5/CyDmac.c ****         if(0uL == (CyDmaChannels & channel))
 165              		.loc 1 204 0
 166 0002 0B4C     		ldr	r4, .L23
 199:.\Generated_Source\PSoC5/CyDmac.c ****     interruptState = CyEnterCriticalSection();
 167              		.loc 1 199 0
 168 0004 FFF7FEFF 		bl	CyEnterCriticalSection
 169              	.LVL8:
 170              		.loc 1 204 0
 171 0008 2168     		ldr	r1, [r4]
 172 000a 0023     		movs	r3, #0
 195:.\Generated_Source\PSoC5/CyDmac.c ****     uint32 channel = 1u;
 173              		.loc 1 195 0
 174 000c 0122     		movs	r2, #1
 175 000e 2546     		mov	r5, r4
 176              	.LVL9:
 177              	.L20:
 178              		.loc 1 204 0
 179 0010 0A42     		tst	r2, r1
 180 0012 DCB2     		uxtb	r4, r3
 181              	.LVL10:
 182 0014 02D1     		bne	.L18
 205:.\Generated_Source\PSoC5/CyDmac.c ****         {
 206:.\Generated_Source\PSoC5/CyDmac.c ****             /* Mark channel as used. */
 207:.\Generated_Source\PSoC5/CyDmac.c ****             CyDmaChannels |= channel;
 183              		.loc 1 207 0
 184 0016 0A43     		orrs	r2, r2, r1
 185              	.LVL11:
 186 0018 2A60     		str	r2, [r5]
 187 001a 05E0     		b	.L19
 188              	.LVL12:
ARM GAS  C:\Users\Yiquing\AppData\Local\Temp\ccE8adEp.s 			page 8


 189              	.L18:
 190 001c 0133     		adds	r3, r3, #1
 202:.\Generated_Source\PSoC5/CyDmac.c ****     for(dmaIndex = 0u; dmaIndex < CY_DMA_NUMBEROF_CHANNELS; dmaIndex++)
 191              		.loc 1 202 0
 192 001e 182B     		cmp	r3, #24
 208:.\Generated_Source\PSoC5/CyDmac.c ****             break;
 209:.\Generated_Source\PSoC5/CyDmac.c ****         }
 210:.\Generated_Source\PSoC5/CyDmac.c **** 
 211:.\Generated_Source\PSoC5/CyDmac.c ****         channel <<= 1u;
 193              		.loc 1 211 0
 194 0020 4FEA4202 		lsl	r2, r2, #1
 195              	.LVL13:
 202:.\Generated_Source\PSoC5/CyDmac.c ****     for(dmaIndex = 0u; dmaIndex < CY_DMA_NUMBEROF_CHANNELS; dmaIndex++)
 196              		.loc 1 202 0
 197 0024 F4D1     		bne	.L20
 212:.\Generated_Source\PSoC5/CyDmac.c ****     }
 213:.\Generated_Source\PSoC5/CyDmac.c **** 
 214:.\Generated_Source\PSoC5/CyDmac.c ****     if(dmaIndex >= CY_DMA_NUMBEROF_CHANNELS)
 215:.\Generated_Source\PSoC5/CyDmac.c ****     {
 216:.\Generated_Source\PSoC5/CyDmac.c ****         dmaIndex = CY_DMA_INVALID_CHANNEL;
 198              		.loc 1 216 0
 199 0026 FF24     		movs	r4, #255
 200              	.LVL14:
 201              	.L19:
 217:.\Generated_Source\PSoC5/CyDmac.c ****     }
 218:.\Generated_Source\PSoC5/CyDmac.c **** 
 219:.\Generated_Source\PSoC5/CyDmac.c ****     /* Exit critical section! */
 220:.\Generated_Source\PSoC5/CyDmac.c ****     CyExitCriticalSection(interruptState);
 202              		.loc 1 220 0
 203 0028 FFF7FEFF 		bl	CyExitCriticalSection
 204              	.LVL15:
 221:.\Generated_Source\PSoC5/CyDmac.c **** 
 222:.\Generated_Source\PSoC5/CyDmac.c ****     return(dmaIndex);
 223:.\Generated_Source\PSoC5/CyDmac.c **** }
 205              		.loc 1 223 0
 206 002c 2046     		mov	r0, r4
 207 002e 38BD     		pop	{r3, r4, r5, pc}
 208              	.LVL16:
 209              	.L24:
 210              		.align	2
 211              	.L23:
 212 0030 00000000 		.word	.LANCHOR1
 213              		.cfi_endproc
 214              	.LFE4:
 215              		.size	CyDmaChAlloc, .-CyDmaChAlloc
 216              		.section	.text.CyDmaChFree,"ax",%progbits
 217              		.align	1
 218              		.global	CyDmaChFree
 219              		.thumb
 220              		.thumb_func
 221              		.type	CyDmaChFree, %function
 222              	CyDmaChFree:
 223              	.LFB5:
 224:.\Generated_Source\PSoC5/CyDmac.c **** 
 225:.\Generated_Source\PSoC5/CyDmac.c **** 
 226:.\Generated_Source\PSoC5/CyDmac.c **** /*******************************************************************************
 227:.\Generated_Source\PSoC5/CyDmac.c **** * Function Name: CyDmaChFree
ARM GAS  C:\Users\Yiquing\AppData\Local\Temp\ccE8adEp.s 			page 9


 228:.\Generated_Source\PSoC5/CyDmac.c **** ********************************************************************************
 229:.\Generated_Source\PSoC5/CyDmac.c **** *
 230:.\Generated_Source\PSoC5/CyDmac.c **** * Summary:
 231:.\Generated_Source\PSoC5/CyDmac.c **** *  Frees a channel allocated by DmaChAlloc().
 232:.\Generated_Source\PSoC5/CyDmac.c **** *
 233:.\Generated_Source\PSoC5/CyDmac.c **** * Parameters:
 234:.\Generated_Source\PSoC5/CyDmac.c **** *  uint8 chHandle:
 235:.\Generated_Source\PSoC5/CyDmac.c **** *   The handle previously returned by CyDmaChAlloc() or DMA_DmaInitalize().
 236:.\Generated_Source\PSoC5/CyDmac.c **** *
 237:.\Generated_Source\PSoC5/CyDmac.c **** * Return:
 238:.\Generated_Source\PSoC5/CyDmac.c **** *  CYRET_SUCCESS if successful.
 239:.\Generated_Source\PSoC5/CyDmac.c **** *  CYRET_BAD_PARAM if chHandle is invalid.
 240:.\Generated_Source\PSoC5/CyDmac.c **** *
 241:.\Generated_Source\PSoC5/CyDmac.c **** *******************************************************************************/
 242:.\Generated_Source\PSoC5/CyDmac.c **** cystatus CyDmaChFree(uint8 chHandle) 
 243:.\Generated_Source\PSoC5/CyDmac.c **** {
 224              		.loc 1 243 0
 225              		.cfi_startproc
 226              		@ args = 0, pretend = 0, frame = 0
 227              		@ frame_needed = 0, uses_anonymous_args = 0
 228              	.LVL17:
 244:.\Generated_Source\PSoC5/CyDmac.c ****     cystatus status = CYRET_BAD_PARAM;
 245:.\Generated_Source\PSoC5/CyDmac.c ****     uint8 interruptState;
 246:.\Generated_Source\PSoC5/CyDmac.c **** 
 247:.\Generated_Source\PSoC5/CyDmac.c ****     if(chHandle < CY_DMA_NUMBEROF_CHANNELS)
 229              		.loc 1 247 0
 230 0000 1728     		cmp	r0, #23
 243:.\Generated_Source\PSoC5/CyDmac.c **** {
 231              		.loc 1 243 0
 232 0002 38B5     		push	{r3, r4, r5, lr}
 233              		.cfi_def_cfa_offset 16
 234              		.cfi_offset 3, -16
 235              		.cfi_offset 4, -12
 236              		.cfi_offset 5, -8
 237              		.cfi_offset 14, -4
 243:.\Generated_Source\PSoC5/CyDmac.c **** {
 238              		.loc 1 243 0
 239 0004 0546     		mov	r5, r0
 240 0006 4FF00104 		mov	r4, #1
 241              		.loc 1 247 0
 242 000a 0BD8     		bhi	.L27
 248:.\Generated_Source\PSoC5/CyDmac.c ****     {
 249:.\Generated_Source\PSoC5/CyDmac.c ****         /* Enter critical section */
 250:.\Generated_Source\PSoC5/CyDmac.c ****         interruptState = CyEnterCriticalSection();
 251:.\Generated_Source\PSoC5/CyDmac.c **** 
 252:.\Generated_Source\PSoC5/CyDmac.c ****         /* Clear bit mask that keeps track of ownership. */
 253:.\Generated_Source\PSoC5/CyDmac.c ****         CyDmaChannels &= ~(((uint32) 1u) << chHandle);
 243              		.loc 1 253 0
 244 000c AC40     		lsls	r4, r4, r5
 250:.\Generated_Source\PSoC5/CyDmac.c ****         interruptState = CyEnterCriticalSection();
 245              		.loc 1 250 0
 246 000e FFF7FEFF 		bl	CyEnterCriticalSection
 247              	.LVL18:
 248              		.loc 1 253 0
 249 0012 054B     		ldr	r3, .L28
 250 0014 1A68     		ldr	r2, [r3]
 251 0016 22EA0402 		bic	r2, r2, r4
ARM GAS  C:\Users\Yiquing\AppData\Local\Temp\ccE8adEp.s 			page 10


 252 001a 1A60     		str	r2, [r3]
 254:.\Generated_Source\PSoC5/CyDmac.c **** 
 255:.\Generated_Source\PSoC5/CyDmac.c ****         /* Exit critical section */
 256:.\Generated_Source\PSoC5/CyDmac.c ****         CyExitCriticalSection(interruptState);
 253              		.loc 1 256 0
 254 001c FFF7FEFF 		bl	CyExitCriticalSection
 255              	.LVL19:
 257:.\Generated_Source\PSoC5/CyDmac.c ****         status = CYRET_SUCCESS;
 256              		.loc 1 257 0
 257 0020 0020     		movs	r0, #0
 258 0022 38BD     		pop	{r3, r4, r5, pc}
 259              	.LVL20:
 260              	.L27:
 244:.\Generated_Source\PSoC5/CyDmac.c ****     cystatus status = CYRET_BAD_PARAM;
 261              		.loc 1 244 0
 262 0024 2046     		mov	r0, r4
 263              	.LVL21:
 258:.\Generated_Source\PSoC5/CyDmac.c ****     }
 259:.\Generated_Source\PSoC5/CyDmac.c **** 
 260:.\Generated_Source\PSoC5/CyDmac.c ****     return(status);
 261:.\Generated_Source\PSoC5/CyDmac.c **** }
 264              		.loc 1 261 0
 265 0026 38BD     		pop	{r3, r4, r5, pc}
 266              	.L29:
 267              		.align	2
 268              	.L28:
 269 0028 00000000 		.word	.LANCHOR1
 270              		.cfi_endproc
 271              	.LFE5:
 272              		.size	CyDmaChFree, .-CyDmaChFree
 273              		.section	.text.CyDmaChEnable,"ax",%progbits
 274              		.align	1
 275              		.global	CyDmaChEnable
 276              		.thumb
 277              		.thumb_func
 278              		.type	CyDmaChEnable, %function
 279              	CyDmaChEnable:
 280              	.LFB6:
 262:.\Generated_Source\PSoC5/CyDmac.c **** 
 263:.\Generated_Source\PSoC5/CyDmac.c **** 
 264:.\Generated_Source\PSoC5/CyDmac.c **** /*******************************************************************************
 265:.\Generated_Source\PSoC5/CyDmac.c **** * Function Name: CyDmaChEnable
 266:.\Generated_Source\PSoC5/CyDmac.c **** ********************************************************************************
 267:.\Generated_Source\PSoC5/CyDmac.c **** *
 268:.\Generated_Source\PSoC5/CyDmac.c **** * Summary:
 269:.\Generated_Source\PSoC5/CyDmac.c **** *  Enables the DMA channel. A software or hardware request still must happen
 270:.\Generated_Source\PSoC5/CyDmac.c **** *  before the channel is executed.
 271:.\Generated_Source\PSoC5/CyDmac.c **** *
 272:.\Generated_Source\PSoC5/CyDmac.c **** * Parameters:
 273:.\Generated_Source\PSoC5/CyDmac.c **** *  uint8 chHandle:
 274:.\Generated_Source\PSoC5/CyDmac.c **** *   A handle previously returned by CyDmaChAlloc() or DMA_DmaInitalize().
 275:.\Generated_Source\PSoC5/CyDmac.c **** *
 276:.\Generated_Source\PSoC5/CyDmac.c **** *  uint8 preserveTds:
 277:.\Generated_Source\PSoC5/CyDmac.c **** *   Preserves the original TD state when the TD has completed. This parameter
 278:.\Generated_Source\PSoC5/CyDmac.c **** *   applies to all TDs in the channel.
 279:.\Generated_Source\PSoC5/CyDmac.c **** *
 280:.\Generated_Source\PSoC5/CyDmac.c **** *   0 - When TD is completed, the DMAC leaves the TD configuration values in
ARM GAS  C:\Users\Yiquing\AppData\Local\Temp\ccE8adEp.s 			page 11


 281:.\Generated_Source\PSoC5/CyDmac.c **** *   their current state, and does not restore them to their original state.
 282:.\Generated_Source\PSoC5/CyDmac.c **** *
 283:.\Generated_Source\PSoC5/CyDmac.c **** *   1 - When TD is completed, the DMAC restores the original configuration
 284:.\Generated_Source\PSoC5/CyDmac.c **** *   values of the TD.
 285:.\Generated_Source\PSoC5/CyDmac.c **** *
 286:.\Generated_Source\PSoC5/CyDmac.c **** *  When preserveTds is set, the TD slot that equals the channel number becomes
 287:.\Generated_Source\PSoC5/CyDmac.c **** *  RESERVED and that becomes where the working registers exist. So, for example,
 288:.\Generated_Source\PSoC5/CyDmac.c **** *  if you are using CH06 and preserveTds is set, you are not allowed to use TD
 289:.\Generated_Source\PSoC5/CyDmac.c **** *  slot 6. That is reclaimed by the DMA engine for its private use.
 290:.\Generated_Source\PSoC5/CyDmac.c **** *
 291:.\Generated_Source\PSoC5/CyDmac.c **** *  Note Do not chain back to a completed TD if the preserveTds for the channel
 292:.\Generated_Source\PSoC5/CyDmac.c **** *  is set to 0. When a TD has completed preserveTds for the channel set to 0,
 293:.\Generated_Source\PSoC5/CyDmac.c **** *  the transfer count will be at 0. If a TD with a transfer count of 0 is
 294:.\Generated_Source\PSoC5/CyDmac.c **** *  started, the TD will transfer an indefinite amount of data.
 295:.\Generated_Source\PSoC5/CyDmac.c **** *
 296:.\Generated_Source\PSoC5/CyDmac.c **** *  Take extra precautions when using the hardware request (DRQ) option when the
 297:.\Generated_Source\PSoC5/CyDmac.c **** *  preserveTds is set to 0, as you might be requesting the wrong data.
 298:.\Generated_Source\PSoC5/CyDmac.c **** *
 299:.\Generated_Source\PSoC5/CyDmac.c **** * Return:
 300:.\Generated_Source\PSoC5/CyDmac.c **** *  CYRET_SUCCESS if successful.
 301:.\Generated_Source\PSoC5/CyDmac.c **** *  CYRET_BAD_PARAM if chHandle is invalid.
 302:.\Generated_Source\PSoC5/CyDmac.c **** *
 303:.\Generated_Source\PSoC5/CyDmac.c **** *******************************************************************************/
 304:.\Generated_Source\PSoC5/CyDmac.c **** cystatus CyDmaChEnable(uint8 chHandle, uint8 preserveTds) 
 305:.\Generated_Source\PSoC5/CyDmac.c **** {
 281              		.loc 1 305 0
 282              		.cfi_startproc
 283              		@ args = 0, pretend = 0, frame = 0
 284              		@ frame_needed = 0, uses_anonymous_args = 0
 285              		@ link register save eliminated.
 286              	.LVL22:
 306:.\Generated_Source\PSoC5/CyDmac.c ****     cystatus status = CYRET_BAD_PARAM;
 307:.\Generated_Source\PSoC5/CyDmac.c **** 
 308:.\Generated_Source\PSoC5/CyDmac.c ****     if(chHandle < CY_DMA_NUMBEROF_CHANNELS)
 287              		.loc 1 308 0
 288 0000 1728     		cmp	r0, #23
 289 0002 0FD8     		bhi	.L34
 290 0004 084B     		ldr	r3, .L36
 291 0006 0001     		lsls	r0, r0, #4
 292              	.LVL23:
 309:.\Generated_Source\PSoC5/CyDmac.c ****     {
 310:.\Generated_Source\PSoC5/CyDmac.c ****         if (0u != preserveTds)
 311:.\Generated_Source\PSoC5/CyDmac.c ****         {
 312:.\Generated_Source\PSoC5/CyDmac.c ****             /* Store intermediate TD states separately in CHn_SEP_TD0/1 to
 313:.\Generated_Source\PSoC5/CyDmac.c ****             *  preserve original TD chain
 314:.\Generated_Source\PSoC5/CyDmac.c ****             */
 315:.\Generated_Source\PSoC5/CyDmac.c ****             CY_DMA_CH_STRUCT_PTR[chHandle].basic_cfg[0u] |= CY_DMA_CH_BASIC_CFG_WORK_SEP;
 293              		.loc 1 315 0
 294 0008 C25C     		ldrb	r2, [r0, r3]	@ zero_extendqisi2
 310:.\Generated_Source\PSoC5/CyDmac.c ****         if (0u != preserveTds)
 295              		.loc 1 310 0
 296 000a 11B1     		cbz	r1, .L32
 297              		.loc 1 315 0
 298 000c 42F02002 		orr	r2, r2, #32
 299 0010 01E0     		b	.L35
 300              	.L32:
 316:.\Generated_Source\PSoC5/CyDmac.c ****         }
ARM GAS  C:\Users\Yiquing\AppData\Local\Temp\ccE8adEp.s 			page 12


 317:.\Generated_Source\PSoC5/CyDmac.c ****         else
 318:.\Generated_Source\PSoC5/CyDmac.c ****         {
 319:.\Generated_Source\PSoC5/CyDmac.c ****             /* Store intermediate and final TD states on top of original TD chain */
 320:.\Generated_Source\PSoC5/CyDmac.c ****             CY_DMA_CH_STRUCT_PTR[chHandle].basic_cfg[0u] &= (uint8)(~CY_DMA_CH_BASIC_CFG_WORK_SEP);
 301              		.loc 1 320 0
 302 0012 02F0DF02 		and	r2, r2, #223
 303              	.L35:
 304 0016 C254     		strb	r2, [r0, r3]
 321:.\Generated_Source\PSoC5/CyDmac.c ****         }
 322:.\Generated_Source\PSoC5/CyDmac.c **** 
 323:.\Generated_Source\PSoC5/CyDmac.c ****         /* Enable channel */
 324:.\Generated_Source\PSoC5/CyDmac.c ****         CY_DMA_CH_STRUCT_PTR[chHandle].basic_cfg[0u] |= CY_DMA_CH_BASIC_CFG_EN;
 305              		.loc 1 324 0
 306 0018 C25C     		ldrb	r2, [r0, r3]	@ zero_extendqisi2
 307 001a 42F00102 		orr	r2, r2, #1
 308 001e C254     		strb	r2, [r0, r3]
 309              	.LVL24:
 325:.\Generated_Source\PSoC5/CyDmac.c **** 
 326:.\Generated_Source\PSoC5/CyDmac.c ****         status = CYRET_SUCCESS;
 310              		.loc 1 326 0
 311 0020 0020     		movs	r0, #0
 312 0022 7047     		bx	lr
 313              	.LVL25:
 314              	.L34:
 306:.\Generated_Source\PSoC5/CyDmac.c ****     cystatus status = CYRET_BAD_PARAM;
 315              		.loc 1 306 0
 316 0024 0120     		movs	r0, #1
 317              	.LVL26:
 327:.\Generated_Source\PSoC5/CyDmac.c ****     }
 328:.\Generated_Source\PSoC5/CyDmac.c **** 
 329:.\Generated_Source\PSoC5/CyDmac.c ****     return(status);
 330:.\Generated_Source\PSoC5/CyDmac.c **** }
 318              		.loc 1 330 0
 319 0026 7047     		bx	lr
 320              	.L37:
 321              		.align	2
 322              	.L36:
 323 0028 10700040 		.word	1073770512
 324              		.cfi_endproc
 325              	.LFE6:
 326              		.size	CyDmaChEnable, .-CyDmaChEnable
 327              		.section	.text.CyDmaChDisable,"ax",%progbits
 328              		.align	1
 329              		.global	CyDmaChDisable
 330              		.thumb
 331              		.thumb_func
 332              		.type	CyDmaChDisable, %function
 333              	CyDmaChDisable:
 334              	.LFB7:
 331:.\Generated_Source\PSoC5/CyDmac.c **** 
 332:.\Generated_Source\PSoC5/CyDmac.c **** 
 333:.\Generated_Source\PSoC5/CyDmac.c **** /*******************************************************************************
 334:.\Generated_Source\PSoC5/CyDmac.c **** * Function Name: CyDmaChDisable
 335:.\Generated_Source\PSoC5/CyDmac.c **** ********************************************************************************
 336:.\Generated_Source\PSoC5/CyDmac.c **** *
 337:.\Generated_Source\PSoC5/CyDmac.c **** * Summary:
 338:.\Generated_Source\PSoC5/CyDmac.c **** *  Disables the DMA channel. Once this function is called, CyDmaChStatus() may
ARM GAS  C:\Users\Yiquing\AppData\Local\Temp\ccE8adEp.s 			page 13


 339:.\Generated_Source\PSoC5/CyDmac.c **** *  be called to determine when the channel is disabled and which TDs were being
 340:.\Generated_Source\PSoC5/CyDmac.c **** *  executed.
 341:.\Generated_Source\PSoC5/CyDmac.c **** *
 342:.\Generated_Source\PSoC5/CyDmac.c **** *  If it is currently executing it will allow the current burst to finish
 343:.\Generated_Source\PSoC5/CyDmac.c **** *  naturally.
 344:.\Generated_Source\PSoC5/CyDmac.c **** *
 345:.\Generated_Source\PSoC5/CyDmac.c **** * Parameters:
 346:.\Generated_Source\PSoC5/CyDmac.c **** *  uint8 chHandle:
 347:.\Generated_Source\PSoC5/CyDmac.c **** *   A handle previously returned by CyDmaChAlloc() or DMA_DmaInitalize().
 348:.\Generated_Source\PSoC5/CyDmac.c **** *
 349:.\Generated_Source\PSoC5/CyDmac.c **** * Return:
 350:.\Generated_Source\PSoC5/CyDmac.c **** *  CYRET_SUCCESS if successful.
 351:.\Generated_Source\PSoC5/CyDmac.c **** *  CYRET_BAD_PARAM if chHandle is invalid.
 352:.\Generated_Source\PSoC5/CyDmac.c **** *
 353:.\Generated_Source\PSoC5/CyDmac.c **** *******************************************************************************/
 354:.\Generated_Source\PSoC5/CyDmac.c **** cystatus CyDmaChDisable(uint8 chHandle) 
 355:.\Generated_Source\PSoC5/CyDmac.c **** {
 335              		.loc 1 355 0
 336              		.cfi_startproc
 337              		@ args = 0, pretend = 0, frame = 0
 338              		@ frame_needed = 0, uses_anonymous_args = 0
 339              		@ link register save eliminated.
 340              	.LVL27:
 356:.\Generated_Source\PSoC5/CyDmac.c ****     cystatus status = CYRET_BAD_PARAM;
 357:.\Generated_Source\PSoC5/CyDmac.c **** 
 358:.\Generated_Source\PSoC5/CyDmac.c ****     if(chHandle < CY_DMA_NUMBEROF_CHANNELS)
 341              		.loc 1 358 0
 342 0000 1728     		cmp	r0, #23
 343 0002 0BD8     		bhi	.L40
 359:.\Generated_Source\PSoC5/CyDmac.c ****     {
 360:.\Generated_Source\PSoC5/CyDmac.c ****         /***********************************************************************
 361:.\Generated_Source\PSoC5/CyDmac.c ****         * Should not change configuration information of a DMA channel when it
 362:.\Generated_Source\PSoC5/CyDmac.c ****         * is active (or vulnerable to becoming active).
 363:.\Generated_Source\PSoC5/CyDmac.c ****         ***********************************************************************/
 364:.\Generated_Source\PSoC5/CyDmac.c **** 
 365:.\Generated_Source\PSoC5/CyDmac.c ****         /* Disable channel */
 366:.\Generated_Source\PSoC5/CyDmac.c ****         CY_DMA_CH_STRUCT_PTR[chHandle].basic_cfg[0] &= ((uint8) (~CY_DMA_CH_BASIC_CFG_EN));
 344              		.loc 1 366 0
 345 0004 064B     		ldr	r3, .L41
 346 0006 0001     		lsls	r0, r0, #4
 347              	.LVL28:
 348 0008 C25C     		ldrb	r2, [r0, r3]	@ zero_extendqisi2
 349 000a 02F0FE02 		and	r2, r2, #254
 350 000e C254     		strb	r2, [r0, r3]
 367:.\Generated_Source\PSoC5/CyDmac.c **** 
 368:.\Generated_Source\PSoC5/CyDmac.c ****         /* Store intermediate and final TD states on top of original TD chain */
 369:.\Generated_Source\PSoC5/CyDmac.c ****         CY_DMA_CH_STRUCT_PTR[chHandle].basic_cfg[0] &= ((uint8) (~CY_DMA_CH_BASIC_CFG_WORK_SEP));
 351              		.loc 1 369 0
 352 0010 C25C     		ldrb	r2, [r0, r3]	@ zero_extendqisi2
 353 0012 02F0DF02 		and	r2, r2, #223
 354 0016 C254     		strb	r2, [r0, r3]
 355              	.LVL29:
 370:.\Generated_Source\PSoC5/CyDmac.c ****         status = CYRET_SUCCESS;
 356              		.loc 1 370 0
 357 0018 0020     		movs	r0, #0
 358 001a 7047     		bx	lr
 359              	.LVL30:
ARM GAS  C:\Users\Yiquing\AppData\Local\Temp\ccE8adEp.s 			page 14


 360              	.L40:
 356:.\Generated_Source\PSoC5/CyDmac.c ****     cystatus status = CYRET_BAD_PARAM;
 361              		.loc 1 356 0
 362 001c 0120     		movs	r0, #1
 363              	.LVL31:
 371:.\Generated_Source\PSoC5/CyDmac.c ****     }
 372:.\Generated_Source\PSoC5/CyDmac.c **** 
 373:.\Generated_Source\PSoC5/CyDmac.c ****     return(status);
 374:.\Generated_Source\PSoC5/CyDmac.c **** }
 364              		.loc 1 374 0
 365 001e 7047     		bx	lr
 366              	.L42:
 367              		.align	2
 368              	.L41:
 369 0020 10700040 		.word	1073770512
 370              		.cfi_endproc
 371              	.LFE7:
 372              		.size	CyDmaChDisable, .-CyDmaChDisable
 373              		.section	.text.CyDmaClearPendingDrq,"ax",%progbits
 374              		.align	1
 375              		.global	CyDmaClearPendingDrq
 376              		.thumb
 377              		.thumb_func
 378              		.type	CyDmaClearPendingDrq, %function
 379              	CyDmaClearPendingDrq:
 380              	.LFB8:
 375:.\Generated_Source\PSoC5/CyDmac.c **** 
 376:.\Generated_Source\PSoC5/CyDmac.c **** 
 377:.\Generated_Source\PSoC5/CyDmac.c **** /*******************************************************************************
 378:.\Generated_Source\PSoC5/CyDmac.c **** * Function Name: CyDmaClearPendingDrq
 379:.\Generated_Source\PSoC5/CyDmac.c **** ********************************************************************************
 380:.\Generated_Source\PSoC5/CyDmac.c **** *
 381:.\Generated_Source\PSoC5/CyDmac.c **** * Summary:
 382:.\Generated_Source\PSoC5/CyDmac.c **** *  Clears pending the DMA data request.
 383:.\Generated_Source\PSoC5/CyDmac.c **** *
 384:.\Generated_Source\PSoC5/CyDmac.c **** * Parameters:
 385:.\Generated_Source\PSoC5/CyDmac.c **** *  uint8 chHandle:
 386:.\Generated_Source\PSoC5/CyDmac.c **** *   Handle to the dma channel.
 387:.\Generated_Source\PSoC5/CyDmac.c **** *
 388:.\Generated_Source\PSoC5/CyDmac.c **** * Return:
 389:.\Generated_Source\PSoC5/CyDmac.c **** *  CYRET_SUCCESS if successful.
 390:.\Generated_Source\PSoC5/CyDmac.c **** *  CYRET_BAD_PARAM if chHandle is invalid.
 391:.\Generated_Source\PSoC5/CyDmac.c **** *
 392:.\Generated_Source\PSoC5/CyDmac.c **** *******************************************************************************/
 393:.\Generated_Source\PSoC5/CyDmac.c **** cystatus CyDmaClearPendingDrq(uint8 chHandle) 
 394:.\Generated_Source\PSoC5/CyDmac.c **** {
 381              		.loc 1 394 0
 382              		.cfi_startproc
 383              		@ args = 0, pretend = 0, frame = 0
 384              		@ frame_needed = 0, uses_anonymous_args = 0
 385              		@ link register save eliminated.
 386              	.LVL32:
 395:.\Generated_Source\PSoC5/CyDmac.c ****     cystatus status = CYRET_BAD_PARAM;
 396:.\Generated_Source\PSoC5/CyDmac.c **** 
 397:.\Generated_Source\PSoC5/CyDmac.c ****     if(chHandle < CY_DMA_NUMBEROF_CHANNELS)
 387              		.loc 1 397 0
 388 0000 1728     		cmp	r0, #23
ARM GAS  C:\Users\Yiquing\AppData\Local\Temp\ccE8adEp.s 			page 15


 389 0002 0DD8     		bhi	.L45
 398:.\Generated_Source\PSoC5/CyDmac.c ****     {
 399:.\Generated_Source\PSoC5/CyDmac.c ****         CY_DMA_CH_STRUCT_PTR[chHandle].action[0] |= CY_DMA_CPU_TERM_CHAIN;
 390              		.loc 1 399 0
 391 0004 074A     		ldr	r2, .L46
 392 0006 0001     		lsls	r0, r0, #4
 393              	.LVL33:
 394 0008 1346     		mov	r3, r2
 395 000a 0344     		add	r3, r3, r0
 396 000c 1979     		ldrb	r1, [r3, #4]	@ zero_extendqisi2
 397 000e 41F00401 		orr	r1, r1, #4
 398 0012 1971     		strb	r1, [r3, #4]
 400:.\Generated_Source\PSoC5/CyDmac.c ****         CY_DMA_CH_STRUCT_PTR[chHandle].basic_cfg[0] |= 0x01u;
 399              		.loc 1 400 0
 400 0014 835C     		ldrb	r3, [r0, r2]	@ zero_extendqisi2
 401 0016 43F00103 		orr	r3, r3, #1
 402 001a 8354     		strb	r3, [r0, r2]
 403              	.LVL34:
 401:.\Generated_Source\PSoC5/CyDmac.c ****         status = CYRET_SUCCESS;
 404              		.loc 1 401 0
 405 001c 0020     		movs	r0, #0
 406 001e 7047     		bx	lr
 407              	.LVL35:
 408              	.L45:
 395:.\Generated_Source\PSoC5/CyDmac.c ****     cystatus status = CYRET_BAD_PARAM;
 409              		.loc 1 395 0
 410 0020 0120     		movs	r0, #1
 411              	.LVL36:
 402:.\Generated_Source\PSoC5/CyDmac.c ****     }
 403:.\Generated_Source\PSoC5/CyDmac.c **** 
 404:.\Generated_Source\PSoC5/CyDmac.c ****     return(status);
 405:.\Generated_Source\PSoC5/CyDmac.c **** }
 412              		.loc 1 405 0
 413 0022 7047     		bx	lr
 414              	.L47:
 415              		.align	2
 416              	.L46:
 417 0024 10700040 		.word	1073770512
 418              		.cfi_endproc
 419              	.LFE8:
 420              		.size	CyDmaClearPendingDrq, .-CyDmaClearPendingDrq
 421              		.section	.text.CyDmaChPriority,"ax",%progbits
 422              		.align	1
 423              		.global	CyDmaChPriority
 424              		.thumb
 425              		.thumb_func
 426              		.type	CyDmaChPriority, %function
 427              	CyDmaChPriority:
 428              	.LFB9:
 406:.\Generated_Source\PSoC5/CyDmac.c **** 
 407:.\Generated_Source\PSoC5/CyDmac.c **** 
 408:.\Generated_Source\PSoC5/CyDmac.c **** /*******************************************************************************
 409:.\Generated_Source\PSoC5/CyDmac.c **** * Function Name: CyDmaChPriority
 410:.\Generated_Source\PSoC5/CyDmac.c **** ********************************************************************************
 411:.\Generated_Source\PSoC5/CyDmac.c **** *
 412:.\Generated_Source\PSoC5/CyDmac.c **** * Summary:
 413:.\Generated_Source\PSoC5/CyDmac.c **** *  Sets the priority of a DMA channel. You can use this function when you want
ARM GAS  C:\Users\Yiquing\AppData\Local\Temp\ccE8adEp.s 			page 16


 414:.\Generated_Source\PSoC5/CyDmac.c **** *  to change the priority at run time. If the priority remains the same for a
 415:.\Generated_Source\PSoC5/CyDmac.c **** *  DMA channel, then you can configure the priority in the .cydwr file.
 416:.\Generated_Source\PSoC5/CyDmac.c **** *
 417:.\Generated_Source\PSoC5/CyDmac.c **** * Parameters:
 418:.\Generated_Source\PSoC5/CyDmac.c **** *  uint8 chHandle:
 419:.\Generated_Source\PSoC5/CyDmac.c **** *   A handle previously returned by CyDmaChAlloc() or DMA_DmaInitalize().
 420:.\Generated_Source\PSoC5/CyDmac.c **** *
 421:.\Generated_Source\PSoC5/CyDmac.c **** *  uint8 priority:
 422:.\Generated_Source\PSoC5/CyDmac.c **** *   Priority to set the channel to, 0 - 7.
 423:.\Generated_Source\PSoC5/CyDmac.c **** *
 424:.\Generated_Source\PSoC5/CyDmac.c **** * Return:
 425:.\Generated_Source\PSoC5/CyDmac.c **** *  CYRET_SUCCESS if successful.
 426:.\Generated_Source\PSoC5/CyDmac.c **** *  CYRET_BAD_PARAM if chHandle is invalid.
 427:.\Generated_Source\PSoC5/CyDmac.c **** *
 428:.\Generated_Source\PSoC5/CyDmac.c **** *******************************************************************************/
 429:.\Generated_Source\PSoC5/CyDmac.c **** cystatus CyDmaChPriority(uint8 chHandle, uint8 priority) 
 430:.\Generated_Source\PSoC5/CyDmac.c **** {
 429              		.loc 1 430 0
 430              		.cfi_startproc
 431              		@ args = 0, pretend = 0, frame = 0
 432              		@ frame_needed = 0, uses_anonymous_args = 0
 433              		@ link register save eliminated.
 434              	.LVL37:
 431:.\Generated_Source\PSoC5/CyDmac.c ****     uint8 value;
 432:.\Generated_Source\PSoC5/CyDmac.c ****     cystatus status = CYRET_BAD_PARAM;
 433:.\Generated_Source\PSoC5/CyDmac.c **** 
 434:.\Generated_Source\PSoC5/CyDmac.c ****     if(chHandle < CY_DMA_NUMBEROF_CHANNELS)
 435              		.loc 1 434 0
 436 0000 1728     		cmp	r0, #23
 437 0002 0BD8     		bhi	.L50
 435:.\Generated_Source\PSoC5/CyDmac.c ****     {
 436:.\Generated_Source\PSoC5/CyDmac.c ****         value = CY_DMA_CH_STRUCT_PTR[chHandle].basic_cfg[0u] & ((uint8)(~(0x0Eu)));
 438              		.loc 1 436 0
 439 0004 064B     		ldr	r3, .L51
 440 0006 0001     		lsls	r0, r0, #4
 441              	.LVL38:
 442 0008 C25C     		ldrb	r2, [r0, r3]	@ zero_extendqisi2
 443              	.LVL39:
 437:.\Generated_Source\PSoC5/CyDmac.c **** 
 438:.\Generated_Source\PSoC5/CyDmac.c ****         CY_DMA_CH_STRUCT_PTR[chHandle].basic_cfg[0u] = value | ((uint8) ((priority & 0x7u) << 0x01u
 444              		.loc 1 438 0
 445 000a 01F00701 		and	r1, r1, #7
 446              	.LVL40:
 436:.\Generated_Source\PSoC5/CyDmac.c ****         value = CY_DMA_CH_STRUCT_PTR[chHandle].basic_cfg[0u] & ((uint8)(~(0x0Eu)));
 447              		.loc 1 436 0
 448 000e 02F0F102 		and	r2, r2, #241
 449              	.LVL41:
 450              		.loc 1 438 0
 451 0012 42EA4101 		orr	r1, r2, r1, lsl #1
 452 0016 C154     		strb	r1, [r0, r3]
 453              	.LVL42:
 439:.\Generated_Source\PSoC5/CyDmac.c **** 
 440:.\Generated_Source\PSoC5/CyDmac.c ****         status = CYRET_SUCCESS;
 454              		.loc 1 440 0
 455 0018 0020     		movs	r0, #0
 456 001a 7047     		bx	lr
 457              	.LVL43:
ARM GAS  C:\Users\Yiquing\AppData\Local\Temp\ccE8adEp.s 			page 17


 458              	.L50:
 432:.\Generated_Source\PSoC5/CyDmac.c ****     cystatus status = CYRET_BAD_PARAM;
 459              		.loc 1 432 0
 460 001c 0120     		movs	r0, #1
 461              	.LVL44:
 441:.\Generated_Source\PSoC5/CyDmac.c ****     }
 442:.\Generated_Source\PSoC5/CyDmac.c **** 
 443:.\Generated_Source\PSoC5/CyDmac.c ****     return(status);
 444:.\Generated_Source\PSoC5/CyDmac.c **** }
 462              		.loc 1 444 0
 463 001e 7047     		bx	lr
 464              	.L52:
 465              		.align	2
 466              	.L51:
 467 0020 10700040 		.word	1073770512
 468              		.cfi_endproc
 469              	.LFE9:
 470              		.size	CyDmaChPriority, .-CyDmaChPriority
 471              		.section	.text.CyDmaChSetExtendedAddress,"ax",%progbits
 472              		.align	1
 473              		.global	CyDmaChSetExtendedAddress
 474              		.thumb
 475              		.thumb_func
 476              		.type	CyDmaChSetExtendedAddress, %function
 477              	CyDmaChSetExtendedAddress:
 478              	.LFB10:
 445:.\Generated_Source\PSoC5/CyDmac.c **** 
 446:.\Generated_Source\PSoC5/CyDmac.c **** 
 447:.\Generated_Source\PSoC5/CyDmac.c **** /*******************************************************************************
 448:.\Generated_Source\PSoC5/CyDmac.c **** * Function Name: CyDmaChSetExtendedAddress
 449:.\Generated_Source\PSoC5/CyDmac.c **** ********************************************************************************
 450:.\Generated_Source\PSoC5/CyDmac.c **** *
 451:.\Generated_Source\PSoC5/CyDmac.c **** * Summary:
 452:.\Generated_Source\PSoC5/CyDmac.c **** *  Sets the high 16 bits of the source and destination addresses for the DMA
 453:.\Generated_Source\PSoC5/CyDmac.c **** *  channel (valid for all TDs in the chain).
 454:.\Generated_Source\PSoC5/CyDmac.c **** *
 455:.\Generated_Source\PSoC5/CyDmac.c **** * Parameters:
 456:.\Generated_Source\PSoC5/CyDmac.c **** *  uint8 chHandle:
 457:.\Generated_Source\PSoC5/CyDmac.c **** *   A handle previously returned by CyDmaChAlloc() or DMA_DmaInitalize().
 458:.\Generated_Source\PSoC5/CyDmac.c **** *
 459:.\Generated_Source\PSoC5/CyDmac.c **** *  uint16 source:
 460:.\Generated_Source\PSoC5/CyDmac.c **** *   Upper 16 bit address of the DMA transfer source.
 461:.\Generated_Source\PSoC5/CyDmac.c **** *
 462:.\Generated_Source\PSoC5/CyDmac.c **** *  uint16 destination:
 463:.\Generated_Source\PSoC5/CyDmac.c **** *   Upper 16 bit address of the DMA transfer destination.
 464:.\Generated_Source\PSoC5/CyDmac.c **** *
 465:.\Generated_Source\PSoC5/CyDmac.c **** * Return:
 466:.\Generated_Source\PSoC5/CyDmac.c **** *  CYRET_SUCCESS if successful.
 467:.\Generated_Source\PSoC5/CyDmac.c **** *  CYRET_BAD_PARAM if chHandle is invalid.
 468:.\Generated_Source\PSoC5/CyDmac.c **** *
 469:.\Generated_Source\PSoC5/CyDmac.c **** *******************************************************************************/
 470:.\Generated_Source\PSoC5/CyDmac.c **** cystatus CyDmaChSetExtendedAddress(uint8 chHandle, uint16 source, uint16 destination) \
 471:.\Generated_Source\PSoC5/CyDmac.c ****     
 472:.\Generated_Source\PSoC5/CyDmac.c **** {
 479              		.loc 1 472 0
 480              		.cfi_startproc
 481              		@ args = 0, pretend = 0, frame = 0
ARM GAS  C:\Users\Yiquing\AppData\Local\Temp\ccE8adEp.s 			page 18


 482              		@ frame_needed = 0, uses_anonymous_args = 0
 483              		@ link register save eliminated.
 484              	.LVL45:
 473:.\Generated_Source\PSoC5/CyDmac.c ****     cystatus status = CYRET_BAD_PARAM;
 474:.\Generated_Source\PSoC5/CyDmac.c ****     reg16 *convert;
 475:.\Generated_Source\PSoC5/CyDmac.c **** 
 476:.\Generated_Source\PSoC5/CyDmac.c ****     #if(CY_PSOC5)
 477:.\Generated_Source\PSoC5/CyDmac.c **** 
 478:.\Generated_Source\PSoC5/CyDmac.c ****         /* 0x1FFF8000-0x1FFFFFFF needs to use alias at 0x20008000-0x2000FFFF */
 479:.\Generated_Source\PSoC5/CyDmac.c ****         if(source == 0x1FFFu)
 485              		.loc 1 479 0
 486 0000 41F6FF73 		movw	r3, #8191
 480:.\Generated_Source\PSoC5/CyDmac.c ****         {
 481:.\Generated_Source\PSoC5/CyDmac.c ****             source = 0x2000u;
 487              		.loc 1 481 0
 488 0004 9942     		cmp	r1, r3
 489 0006 08BF     		it	eq
 490 0008 4FF40051 		moveq	r1, #8192
 491              	.LVL46:
 482:.\Generated_Source\PSoC5/CyDmac.c ****         }
 483:.\Generated_Source\PSoC5/CyDmac.c **** 
 484:.\Generated_Source\PSoC5/CyDmac.c ****         if(destination == 0x1FFFu)
 485:.\Generated_Source\PSoC5/CyDmac.c ****         {
 486:.\Generated_Source\PSoC5/CyDmac.c ****             destination = 0x2000u;
 492              		.loc 1 486 0
 493 000c 9A42     		cmp	r2, r3
 494 000e 08BF     		it	eq
 495 0010 4FF40052 		moveq	r2, #8192
 496              	.LVL47:
 487:.\Generated_Source\PSoC5/CyDmac.c ****         }
 488:.\Generated_Source\PSoC5/CyDmac.c **** 
 489:.\Generated_Source\PSoC5/CyDmac.c ****     #endif  /* (CY_PSOC5) */
 490:.\Generated_Source\PSoC5/CyDmac.c **** 
 491:.\Generated_Source\PSoC5/CyDmac.c **** 
 492:.\Generated_Source\PSoC5/CyDmac.c ****     if(chHandle < CY_DMA_NUMBEROF_CHANNELS)
 497              		.loc 1 492 0
 498 0014 1728     		cmp	r0, #23
 499 0016 08D8     		bhi	.L59
 493:.\Generated_Source\PSoC5/CyDmac.c ****     {
 494:.\Generated_Source\PSoC5/CyDmac.c ****         /* Set source address */
 495:.\Generated_Source\PSoC5/CyDmac.c ****         convert = (reg16 *) &CY_DMA_CFGMEM_STRUCT_PTR[chHandle].CFG1[0];
 500              		.loc 1 495 0
 501 0018 C000     		lsls	r0, r0, #3
 502              	.LVL48:
 503 001a 00F18040 		add	r0, r0, #1073741824
 504 001e 00F5EC40 		add	r0, r0, #30208
 505              	.LVL49:
 496:.\Generated_Source\PSoC5/CyDmac.c ****         CY_SET_REG16(convert, source);
 506              		.loc 1 496 0
 507 0022 8180     		strh	r1, [r0, #4]	@ movhi
 508              	.LVL50:
 497:.\Generated_Source\PSoC5/CyDmac.c **** 
 498:.\Generated_Source\PSoC5/CyDmac.c ****         /* Set destination address */
 499:.\Generated_Source\PSoC5/CyDmac.c ****         convert = (reg16 *) &CY_DMA_CFGMEM_STRUCT_PTR[chHandle].CFG1[2u];
 500:.\Generated_Source\PSoC5/CyDmac.c ****         CY_SET_REG16(convert, destination);
 509              		.loc 1 500 0
 510 0024 C280     		strh	r2, [r0, #6]	@ movhi
ARM GAS  C:\Users\Yiquing\AppData\Local\Temp\ccE8adEp.s 			page 19


 511              	.LVL51:
 501:.\Generated_Source\PSoC5/CyDmac.c ****         status = CYRET_SUCCESS;
 512              		.loc 1 501 0
 513 0026 0020     		movs	r0, #0
 514              	.LVL52:
 515 0028 7047     		bx	lr
 516              	.LVL53:
 517              	.L59:
 473:.\Generated_Source\PSoC5/CyDmac.c ****     cystatus status = CYRET_BAD_PARAM;
 518              		.loc 1 473 0
 519 002a 0120     		movs	r0, #1
 520              	.LVL54:
 502:.\Generated_Source\PSoC5/CyDmac.c ****     }
 503:.\Generated_Source\PSoC5/CyDmac.c **** 
 504:.\Generated_Source\PSoC5/CyDmac.c ****     return(status);
 505:.\Generated_Source\PSoC5/CyDmac.c **** }
 521              		.loc 1 505 0
 522 002c 7047     		bx	lr
 523              		.cfi_endproc
 524              	.LFE10:
 525              		.size	CyDmaChSetExtendedAddress, .-CyDmaChSetExtendedAddress
 526              		.section	.text.CyDmaChSetInitialTd,"ax",%progbits
 527              		.align	1
 528              		.global	CyDmaChSetInitialTd
 529              		.thumb
 530              		.thumb_func
 531              		.type	CyDmaChSetInitialTd, %function
 532              	CyDmaChSetInitialTd:
 533              	.LFB11:
 506:.\Generated_Source\PSoC5/CyDmac.c **** 
 507:.\Generated_Source\PSoC5/CyDmac.c **** 
 508:.\Generated_Source\PSoC5/CyDmac.c **** /*******************************************************************************
 509:.\Generated_Source\PSoC5/CyDmac.c **** * Function Name: CyDmaChSetInitialTd
 510:.\Generated_Source\PSoC5/CyDmac.c **** ********************************************************************************
 511:.\Generated_Source\PSoC5/CyDmac.c **** *
 512:.\Generated_Source\PSoC5/CyDmac.c **** * Summary:
 513:.\Generated_Source\PSoC5/CyDmac.c **** *  Sets the initial TD to be executed for the channel when the CyDmaChEnable()
 514:.\Generated_Source\PSoC5/CyDmac.c **** *  function is called.
 515:.\Generated_Source\PSoC5/CyDmac.c **** *
 516:.\Generated_Source\PSoC5/CyDmac.c **** * Parameters:
 517:.\Generated_Source\PSoC5/CyDmac.c **** *  uint8 chHandle:
 518:.\Generated_Source\PSoC5/CyDmac.c **** *   A handle previously returned by CyDmaChAlloc() or DMA_DmaInitialize().
 519:.\Generated_Source\PSoC5/CyDmac.c **** *
 520:.\Generated_Source\PSoC5/CyDmac.c **** *  uint8 startTd:
 521:.\Generated_Source\PSoC5/CyDmac.c **** *   Set the TD index as the first TD associated with the channel. Zero is
 522:.\Generated_Source\PSoC5/CyDmac.c **** *   a valid TD index.
 523:.\Generated_Source\PSoC5/CyDmac.c **** *
 524:.\Generated_Source\PSoC5/CyDmac.c **** * Return:
 525:.\Generated_Source\PSoC5/CyDmac.c **** *  CYRET_SUCCESS if successful.
 526:.\Generated_Source\PSoC5/CyDmac.c **** *  CYRET_BAD_PARAM if chHandle is invalid.
 527:.\Generated_Source\PSoC5/CyDmac.c **** *
 528:.\Generated_Source\PSoC5/CyDmac.c **** *******************************************************************************/
 529:.\Generated_Source\PSoC5/CyDmac.c **** cystatus CyDmaChSetInitialTd(uint8 chHandle, uint8 startTd) 
 530:.\Generated_Source\PSoC5/CyDmac.c **** {
 534              		.loc 1 530 0
 535              		.cfi_startproc
 536              		@ args = 0, pretend = 0, frame = 0
ARM GAS  C:\Users\Yiquing\AppData\Local\Temp\ccE8adEp.s 			page 20


 537              		@ frame_needed = 0, uses_anonymous_args = 0
 538              		@ link register save eliminated.
 539              	.LVL55:
 531:.\Generated_Source\PSoC5/CyDmac.c ****     cystatus status = CYRET_BAD_PARAM;
 532:.\Generated_Source\PSoC5/CyDmac.c **** 
 533:.\Generated_Source\PSoC5/CyDmac.c ****     if(chHandle < CY_DMA_NUMBEROF_CHANNELS)
 540              		.loc 1 533 0
 541 0000 1728     		cmp	r0, #23
 542 0002 04D8     		bhi	.L62
 534:.\Generated_Source\PSoC5/CyDmac.c ****     {
 535:.\Generated_Source\PSoC5/CyDmac.c ****         CY_DMA_CH_STRUCT_PTR[chHandle].basic_status[1u] = startTd;
 543              		.loc 1 535 0
 544 0004 034B     		ldr	r3, .L63
 545 0006 0001     		lsls	r0, r0, #4
 546              	.LVL56:
 547 0008 1954     		strb	r1, [r3, r0]
 548              	.LVL57:
 536:.\Generated_Source\PSoC5/CyDmac.c ****         status = CYRET_SUCCESS;
 549              		.loc 1 536 0
 550 000a 0020     		movs	r0, #0
 551 000c 7047     		bx	lr
 552              	.LVL58:
 553              	.L62:
 531:.\Generated_Source\PSoC5/CyDmac.c ****     cystatus status = CYRET_BAD_PARAM;
 554              		.loc 1 531 0
 555 000e 0120     		movs	r0, #1
 556              	.LVL59:
 537:.\Generated_Source\PSoC5/CyDmac.c ****     }
 538:.\Generated_Source\PSoC5/CyDmac.c **** 
 539:.\Generated_Source\PSoC5/CyDmac.c ****     return(status);
 540:.\Generated_Source\PSoC5/CyDmac.c **** }
 557              		.loc 1 540 0
 558 0010 7047     		bx	lr
 559              	.L64:
 560 0012 00BF     		.align	2
 561              	.L63:
 562 0014 19700040 		.word	1073770521
 563              		.cfi_endproc
 564              	.LFE11:
 565              		.size	CyDmaChSetInitialTd, .-CyDmaChSetInitialTd
 566              		.section	.text.CyDmaChSetRequest,"ax",%progbits
 567              		.align	1
 568              		.global	CyDmaChSetRequest
 569              		.thumb
 570              		.thumb_func
 571              		.type	CyDmaChSetRequest, %function
 572              	CyDmaChSetRequest:
 573              	.LFB12:
 541:.\Generated_Source\PSoC5/CyDmac.c **** 
 542:.\Generated_Source\PSoC5/CyDmac.c **** 
 543:.\Generated_Source\PSoC5/CyDmac.c **** /*******************************************************************************
 544:.\Generated_Source\PSoC5/CyDmac.c **** * Function Name: CyDmaChSetRequest
 545:.\Generated_Source\PSoC5/CyDmac.c **** ********************************************************************************
 546:.\Generated_Source\PSoC5/CyDmac.c **** *
 547:.\Generated_Source\PSoC5/CyDmac.c **** * Summary:
 548:.\Generated_Source\PSoC5/CyDmac.c **** *  Allows the caller to terminate a chain of TDs, terminate one TD, or create a
 549:.\Generated_Source\PSoC5/CyDmac.c **** *  direct request to start the DMA channel.
ARM GAS  C:\Users\Yiquing\AppData\Local\Temp\ccE8adEp.s 			page 21


 550:.\Generated_Source\PSoC5/CyDmac.c **** *
 551:.\Generated_Source\PSoC5/CyDmac.c **** * Parameters:
 552:.\Generated_Source\PSoC5/CyDmac.c **** *  uint8 chHandle:
 553:.\Generated_Source\PSoC5/CyDmac.c **** *   A handle previously returned by CyDmaChAlloc() or DMA_DmaInitalize().
 554:.\Generated_Source\PSoC5/CyDmac.c **** *
 555:.\Generated_Source\PSoC5/CyDmac.c **** *  uint8 request:
 556:.\Generated_Source\PSoC5/CyDmac.c **** *   One of the following constants. Each of the constants is a three-bit value.
 557:.\Generated_Source\PSoC5/CyDmac.c **** *
 558:.\Generated_Source\PSoC5/CyDmac.c **** *   CPU_REQ         - Create a direct request to start the DMA channel
 559:.\Generated_Source\PSoC5/CyDmac.c **** *   CPU_TERM_TD     - Terminate one TD
 560:.\Generated_Source\PSoC5/CyDmac.c **** *   CPU_TERM_CHAIN  - Terminate a chain of TDs
 561:.\Generated_Source\PSoC5/CyDmac.c **** *
 562:.\Generated_Source\PSoC5/CyDmac.c **** * Return:
 563:.\Generated_Source\PSoC5/CyDmac.c **** *  CYRET_SUCCESS if successful.
 564:.\Generated_Source\PSoC5/CyDmac.c **** *  CYRET_BAD_PARAM if chHandle is invalid.
 565:.\Generated_Source\PSoC5/CyDmac.c **** *
 566:.\Generated_Source\PSoC5/CyDmac.c **** *******************************************************************************/
 567:.\Generated_Source\PSoC5/CyDmac.c **** cystatus CyDmaChSetRequest(uint8 chHandle, uint8 request) 
 568:.\Generated_Source\PSoC5/CyDmac.c **** {
 574              		.loc 1 568 0
 575              		.cfi_startproc
 576              		@ args = 0, pretend = 0, frame = 0
 577              		@ frame_needed = 0, uses_anonymous_args = 0
 578              		@ link register save eliminated.
 579              	.LVL60:
 569:.\Generated_Source\PSoC5/CyDmac.c ****     cystatus status = CYRET_BAD_PARAM;
 570:.\Generated_Source\PSoC5/CyDmac.c **** 
 571:.\Generated_Source\PSoC5/CyDmac.c ****     if(chHandle < CY_DMA_NUMBEROF_CHANNELS)
 580              		.loc 1 571 0
 581 0000 1728     		cmp	r0, #23
 582 0002 08D8     		bhi	.L67
 572:.\Generated_Source\PSoC5/CyDmac.c ****     {
 573:.\Generated_Source\PSoC5/CyDmac.c ****         CY_DMA_CH_STRUCT_PTR[chHandle].action[0u] |= (request & (CPU_REQ | CPU_TERM_TD | CPU_TERM_C
 583              		.loc 1 573 0
 584 0004 054B     		ldr	r3, .L68
 585 0006 0001     		lsls	r0, r0, #4
 586              	.LVL61:
 587 0008 1A5C     		ldrb	r2, [r3, r0]	@ zero_extendqisi2
 588 000a 01F00701 		and	r1, r1, #7
 589              	.LVL62:
 590 000e 1143     		orrs	r1, r1, r2
 591 0010 1954     		strb	r1, [r3, r0]
 592              	.LVL63:
 574:.\Generated_Source\PSoC5/CyDmac.c ****         status = CYRET_SUCCESS;
 593              		.loc 1 574 0
 594 0012 0020     		movs	r0, #0
 595 0014 7047     		bx	lr
 596              	.LVL64:
 597              	.L67:
 569:.\Generated_Source\PSoC5/CyDmac.c ****     cystatus status = CYRET_BAD_PARAM;
 598              		.loc 1 569 0
 599 0016 0120     		movs	r0, #1
 600              	.LVL65:
 575:.\Generated_Source\PSoC5/CyDmac.c ****     }
 576:.\Generated_Source\PSoC5/CyDmac.c **** 
 577:.\Generated_Source\PSoC5/CyDmac.c ****     return(status);
 578:.\Generated_Source\PSoC5/CyDmac.c **** }
ARM GAS  C:\Users\Yiquing\AppData\Local\Temp\ccE8adEp.s 			page 22


 601              		.loc 1 578 0
 602 0018 7047     		bx	lr
 603              	.L69:
 604 001a 00BF     		.align	2
 605              	.L68:
 606 001c 14700040 		.word	1073770516
 607              		.cfi_endproc
 608              	.LFE12:
 609              		.size	CyDmaChSetRequest, .-CyDmaChSetRequest
 610              		.section	.text.CyDmaChGetRequest,"ax",%progbits
 611              		.align	1
 612              		.global	CyDmaChGetRequest
 613              		.thumb
 614              		.thumb_func
 615              		.type	CyDmaChGetRequest, %function
 616              	CyDmaChGetRequest:
 617              	.LFB13:
 579:.\Generated_Source\PSoC5/CyDmac.c **** 
 580:.\Generated_Source\PSoC5/CyDmac.c **** 
 581:.\Generated_Source\PSoC5/CyDmac.c **** /*******************************************************************************
 582:.\Generated_Source\PSoC5/CyDmac.c **** * Function Name: CyDmaChGetRequest
 583:.\Generated_Source\PSoC5/CyDmac.c **** ********************************************************************************
 584:.\Generated_Source\PSoC5/CyDmac.c **** *
 585:.\Generated_Source\PSoC5/CyDmac.c **** * Summary:
 586:.\Generated_Source\PSoC5/CyDmac.c **** *  This function allows the caller of CyDmaChSetRequest() to determine if the
 587:.\Generated_Source\PSoC5/CyDmac.c **** *  request was completed.
 588:.\Generated_Source\PSoC5/CyDmac.c **** *
 589:.\Generated_Source\PSoC5/CyDmac.c **** * Parameters:
 590:.\Generated_Source\PSoC5/CyDmac.c **** *  uint8 chHandle:
 591:.\Generated_Source\PSoC5/CyDmac.c **** *   A handle previously returned by CyDmaChAlloc() or DMA_DmaInitalize().
 592:.\Generated_Source\PSoC5/CyDmac.c **** *
 593:.\Generated_Source\PSoC5/CyDmac.c **** * Return:
 594:.\Generated_Source\PSoC5/CyDmac.c **** *  Returns a three-bit field, corresponding to the three bits of the request,
 595:.\Generated_Source\PSoC5/CyDmac.c **** *  which describes the state of the previously posted request. If the value is
 596:.\Generated_Source\PSoC5/CyDmac.c **** *  zero, the request was completed. CY_DMA_INVALID_CHANNEL if the handle is
 597:.\Generated_Source\PSoC5/CyDmac.c **** *  invalid.
 598:.\Generated_Source\PSoC5/CyDmac.c **** *
 599:.\Generated_Source\PSoC5/CyDmac.c **** *******************************************************************************/
 600:.\Generated_Source\PSoC5/CyDmac.c **** cystatus CyDmaChGetRequest(uint8 chHandle) 
 601:.\Generated_Source\PSoC5/CyDmac.c **** {
 618              		.loc 1 601 0
 619              		.cfi_startproc
 620              		@ args = 0, pretend = 0, frame = 0
 621              		@ frame_needed = 0, uses_anonymous_args = 0
 622              		@ link register save eliminated.
 623              	.LVL66:
 602:.\Generated_Source\PSoC5/CyDmac.c ****     cystatus status = CY_DMA_INVALID_CHANNEL;
 603:.\Generated_Source\PSoC5/CyDmac.c **** 
 604:.\Generated_Source\PSoC5/CyDmac.c ****     if(chHandle < CY_DMA_NUMBEROF_CHANNELS)
 624              		.loc 1 604 0
 625 0000 1728     		cmp	r0, #23
 626 0002 05D8     		bhi	.L72
 605:.\Generated_Source\PSoC5/CyDmac.c ****     {
 606:.\Generated_Source\PSoC5/CyDmac.c ****         status = (cystatus) ((uint32)CY_DMA_CH_STRUCT_PTR[chHandle].action[0u] &
 627              		.loc 1 606 0
 628 0004 034B     		ldr	r3, .L73
 629 0006 0001     		lsls	r0, r0, #4
ARM GAS  C:\Users\Yiquing\AppData\Local\Temp\ccE8adEp.s 			page 23


 630              	.LVL67:
 631 0008 185C     		ldrb	r0, [r3, r0]	@ zero_extendqisi2
 632 000a 00F00700 		and	r0, r0, #7
 633              	.LVL68:
 634 000e 7047     		bx	lr
 635              	.LVL69:
 636              	.L72:
 602:.\Generated_Source\PSoC5/CyDmac.c ****     cystatus status = CY_DMA_INVALID_CHANNEL;
 637              		.loc 1 602 0
 638 0010 FF20     		movs	r0, #255
 639              	.LVL70:
 607:.\Generated_Source\PSoC5/CyDmac.c ****                             (uint32)(CY_DMA_CPU_REQ | CY_DMA_CPU_TERM_TD | CY_DMA_CPU_TERM_CHAIN));
 608:.\Generated_Source\PSoC5/CyDmac.c ****     }
 609:.\Generated_Source\PSoC5/CyDmac.c **** 
 610:.\Generated_Source\PSoC5/CyDmac.c ****     return(status);
 611:.\Generated_Source\PSoC5/CyDmac.c **** }
 640              		.loc 1 611 0
 641 0012 7047     		bx	lr
 642              	.L74:
 643              		.align	2
 644              	.L73:
 645 0014 14700040 		.word	1073770516
 646              		.cfi_endproc
 647              	.LFE13:
 648              		.size	CyDmaChGetRequest, .-CyDmaChGetRequest
 649              		.section	.text.CyDmaChStatus,"ax",%progbits
 650              		.align	1
 651              		.global	CyDmaChStatus
 652              		.thumb
 653              		.thumb_func
 654              		.type	CyDmaChStatus, %function
 655              	CyDmaChStatus:
 656              	.LFB14:
 612:.\Generated_Source\PSoC5/CyDmac.c **** 
 613:.\Generated_Source\PSoC5/CyDmac.c **** 
 614:.\Generated_Source\PSoC5/CyDmac.c **** /*******************************************************************************
 615:.\Generated_Source\PSoC5/CyDmac.c **** * Function Name: CyDmaChStatus
 616:.\Generated_Source\PSoC5/CyDmac.c **** ********************************************************************************
 617:.\Generated_Source\PSoC5/CyDmac.c **** *
 618:.\Generated_Source\PSoC5/CyDmac.c **** * Summary:
 619:.\Generated_Source\PSoC5/CyDmac.c **** *  Determines the status of the DMA channel.
 620:.\Generated_Source\PSoC5/CyDmac.c **** *
 621:.\Generated_Source\PSoC5/CyDmac.c **** * Parameters:
 622:.\Generated_Source\PSoC5/CyDmac.c **** *  uint8 chHandle:
 623:.\Generated_Source\PSoC5/CyDmac.c **** *   A handle previously returned by CyDmaChAlloc() or DMA_DmaInitalize().
 624:.\Generated_Source\PSoC5/CyDmac.c **** *
 625:.\Generated_Source\PSoC5/CyDmac.c **** *  uint8 * currentTd:
 626:.\Generated_Source\PSoC5/CyDmac.c **** *   The address to store the index of the current TD. Can be NULL if the value
 627:.\Generated_Source\PSoC5/CyDmac.c **** *   is not needed.
 628:.\Generated_Source\PSoC5/CyDmac.c **** *
 629:.\Generated_Source\PSoC5/CyDmac.c **** *  uint8 * state:
 630:.\Generated_Source\PSoC5/CyDmac.c **** *   The address to store the state of the channel. Can be NULL if the value is
 631:.\Generated_Source\PSoC5/CyDmac.c **** *   not needed.
 632:.\Generated_Source\PSoC5/CyDmac.c **** *
 633:.\Generated_Source\PSoC5/CyDmac.c **** *   STATUS_TD_ACTIVE
 634:.\Generated_Source\PSoC5/CyDmac.c **** *    0: Channel is not currently being serviced by DMAC
 635:.\Generated_Source\PSoC5/CyDmac.c **** *    1: Channel is currently being serviced by DMAC
ARM GAS  C:\Users\Yiquing\AppData\Local\Temp\ccE8adEp.s 			page 24


 636:.\Generated_Source\PSoC5/CyDmac.c **** *
 637:.\Generated_Source\PSoC5/CyDmac.c **** *   STATUS_CHAIN_ACTIVE
 638:.\Generated_Source\PSoC5/CyDmac.c **** *    0: TD chain is inactive; either no DMA requests have triggered a new chain
 639:.\Generated_Source\PSoC5/CyDmac.c **** *       or the previous chain has completed.
 640:.\Generated_Source\PSoC5/CyDmac.c **** *    1: TD chain has been triggered by a DMA request
 641:.\Generated_Source\PSoC5/CyDmac.c **** *
 642:.\Generated_Source\PSoC5/CyDmac.c **** * Return:
 643:.\Generated_Source\PSoC5/CyDmac.c **** *  CYRET_SUCCESS if successful.
 644:.\Generated_Source\PSoC5/CyDmac.c **** *  CYRET_BAD_PARAM if chHandle is invalid.
 645:.\Generated_Source\PSoC5/CyDmac.c **** *
 646:.\Generated_Source\PSoC5/CyDmac.c **** * Theory:
 647:.\Generated_Source\PSoC5/CyDmac.c **** *   The caller can check on the activity of the Current TD and the Chain.
 648:.\Generated_Source\PSoC5/CyDmac.c **** *
 649:.\Generated_Source\PSoC5/CyDmac.c **** *******************************************************************************/
 650:.\Generated_Source\PSoC5/CyDmac.c **** cystatus CyDmaChStatus(uint8 chHandle, uint8 * currentTd, uint8 * state) 
 651:.\Generated_Source\PSoC5/CyDmac.c **** {
 657              		.loc 1 651 0
 658              		.cfi_startproc
 659              		@ args = 0, pretend = 0, frame = 0
 660              		@ frame_needed = 0, uses_anonymous_args = 0
 661              	.LVL71:
 652:.\Generated_Source\PSoC5/CyDmac.c ****     cystatus status = CYRET_BAD_PARAM;
 653:.\Generated_Source\PSoC5/CyDmac.c **** 
 654:.\Generated_Source\PSoC5/CyDmac.c ****     if(chHandle < CY_DMA_NUMBEROF_CHANNELS)
 662              		.loc 1 654 0
 663 0000 1728     		cmp	r0, #23
 651:.\Generated_Source\PSoC5/CyDmac.c **** {
 664              		.loc 1 651 0
 665 0002 10B5     		push	{r4, lr}
 666              		.cfi_def_cfa_offset 8
 667              		.cfi_offset 4, -8
 668              		.cfi_offset 14, -4
 669              		.loc 1 654 0
 670 0004 0DD8     		bhi	.L78
 655:.\Generated_Source\PSoC5/CyDmac.c ****     {
 656:.\Generated_Source\PSoC5/CyDmac.c ****         if(NULL != currentTd)
 671              		.loc 1 656 0
 672 0006 29B1     		cbz	r1, .L77
 657:.\Generated_Source\PSoC5/CyDmac.c ****         {
 658:.\Generated_Source\PSoC5/CyDmac.c ****             *currentTd = CY_DMA_CH_STRUCT_PTR[chHandle].basic_status[1] & 0x7Fu;
 673              		.loc 1 658 0
 674 0008 074B     		ldr	r3, .L84
 675 000a 0401     		lsls	r4, r0, #4
 676 000c 1B5D     		ldrb	r3, [r3, r4]	@ zero_extendqisi2
 677 000e 03F07F03 		and	r3, r3, #127
 678 0012 0B70     		strb	r3, [r1]
 679              	.L77:
 659:.\Generated_Source\PSoC5/CyDmac.c ****         }
 660:.\Generated_Source\PSoC5/CyDmac.c **** 
 661:.\Generated_Source\PSoC5/CyDmac.c ****         if(NULL != state)
 680              		.loc 1 661 0
 681 0014 1AB1     		cbz	r2, .L83
 662:.\Generated_Source\PSoC5/CyDmac.c ****         {
 663:.\Generated_Source\PSoC5/CyDmac.c ****             *state= CY_DMA_CH_STRUCT_PTR[chHandle].basic_status[0];
 682              		.loc 1 663 0
 683 0016 054B     		ldr	r3, .L84+4
 684 0018 0001     		lsls	r0, r0, #4
ARM GAS  C:\Users\Yiquing\AppData\Local\Temp\ccE8adEp.s 			page 25


 685              	.LVL72:
 686 001a 1B5C     		ldrb	r3, [r3, r0]	@ zero_extendqisi2
 687 001c 1370     		strb	r3, [r2]
 688              	.L83:
 664:.\Generated_Source\PSoC5/CyDmac.c ****         }
 665:.\Generated_Source\PSoC5/CyDmac.c **** 
 666:.\Generated_Source\PSoC5/CyDmac.c ****         status = CYRET_SUCCESS;
 689              		.loc 1 666 0
 690 001e 0020     		movs	r0, #0
 691 0020 10BD     		pop	{r4, pc}
 692              	.LVL73:
 693              	.L78:
 652:.\Generated_Source\PSoC5/CyDmac.c ****     cystatus status = CYRET_BAD_PARAM;
 694              		.loc 1 652 0
 695 0022 0120     		movs	r0, #1
 696              	.LVL74:
 697 0024 10BD     		pop	{r4, pc}
 698              	.L85:
 699 0026 00BF     		.align	2
 700              	.L84:
 701 0028 19700040 		.word	1073770521
 702 002c 18700040 		.word	1073770520
 703              		.cfi_endproc
 704              	.LFE14:
 705              		.size	CyDmaChStatus, .-CyDmaChStatus
 706              		.section	.text.CyDmaChSetConfiguration,"ax",%progbits
 707              		.align	1
 708              		.global	CyDmaChSetConfiguration
 709              		.thumb
 710              		.thumb_func
 711              		.type	CyDmaChSetConfiguration, %function
 712              	CyDmaChSetConfiguration:
 713              	.LFB15:
 667:.\Generated_Source\PSoC5/CyDmac.c ****     }
 668:.\Generated_Source\PSoC5/CyDmac.c **** 
 669:.\Generated_Source\PSoC5/CyDmac.c ****     return (status);
 670:.\Generated_Source\PSoC5/CyDmac.c **** }
 671:.\Generated_Source\PSoC5/CyDmac.c **** 
 672:.\Generated_Source\PSoC5/CyDmac.c **** 
 673:.\Generated_Source\PSoC5/CyDmac.c **** /*******************************************************************************
 674:.\Generated_Source\PSoC5/CyDmac.c **** * Function Name: CyDmaChSetConfiguration
 675:.\Generated_Source\PSoC5/CyDmac.c **** ********************************************************************************
 676:.\Generated_Source\PSoC5/CyDmac.c **** *
 677:.\Generated_Source\PSoC5/CyDmac.c **** * Summary:
 678:.\Generated_Source\PSoC5/CyDmac.c **** * Sets configuration information of the channel.
 679:.\Generated_Source\PSoC5/CyDmac.c **** *
 680:.\Generated_Source\PSoC5/CyDmac.c **** * Parameters:
 681:.\Generated_Source\PSoC5/CyDmac.c **** *  uint8 chHandle:
 682:.\Generated_Source\PSoC5/CyDmac.c **** *   A handle previously returned by CyDmaChAlloc() or DMA_DmaInitialize().
 683:.\Generated_Source\PSoC5/CyDmac.c **** *
 684:.\Generated_Source\PSoC5/CyDmac.c **** *  uint8 burstCount:
 685:.\Generated_Source\PSoC5/CyDmac.c **** *   Specifies the size of bursts (1 to 127) the data transfer should be divided
 686:.\Generated_Source\PSoC5/CyDmac.c **** *   into. If this value is zero then the whole transfer is done in one burst.
 687:.\Generated_Source\PSoC5/CyDmac.c **** *
 688:.\Generated_Source\PSoC5/CyDmac.c **** *  uint8 requestPerBurst:
 689:.\Generated_Source\PSoC5/CyDmac.c **** *   The whole of the data can be split into multiple bursts, if this is
 690:.\Generated_Source\PSoC5/CyDmac.c **** *   required to complete the transaction:
ARM GAS  C:\Users\Yiquing\AppData\Local\Temp\ccE8adEp.s 			page 26


 691:.\Generated_Source\PSoC5/CyDmac.c **** *    0: All subsequent bursts after the first burst will be automatically
 692:.\Generated_Source\PSoC5/CyDmac.c **** *       requested and carried out
 693:.\Generated_Source\PSoC5/CyDmac.c **** *    1: All subsequent bursts after the first burst must also be individually
 694:.\Generated_Source\PSoC5/CyDmac.c **** *       requested.
 695:.\Generated_Source\PSoC5/CyDmac.c **** *
 696:.\Generated_Source\PSoC5/CyDmac.c **** *  uint8 tdDone0:
 697:.\Generated_Source\PSoC5/CyDmac.c **** *   Selects one of the TERMOUT0 interrupt lines to signal completion. The line
 698:.\Generated_Source\PSoC5/CyDmac.c **** *   connected to the nrq terminal will determine the TERMOUT0_SEL definition and
 699:.\Generated_Source\PSoC5/CyDmac.c **** *   should be used as supplied by cyfitter.h
 700:.\Generated_Source\PSoC5/CyDmac.c **** *
 701:.\Generated_Source\PSoC5/CyDmac.c **** *  uint8 tdDone1:
 702:.\Generated_Source\PSoC5/CyDmac.c **** *   Selects one of the TERMOUT1 interrupt lines to signal completion. The line
 703:.\Generated_Source\PSoC5/CyDmac.c **** *   connected to the nrq terminal will determine the TERMOUT1_SEL definition and
 704:.\Generated_Source\PSoC5/CyDmac.c **** *   should be used as supplied by cyfitter.h
 705:.\Generated_Source\PSoC5/CyDmac.c **** *
 706:.\Generated_Source\PSoC5/CyDmac.c **** *  uint8 tdStop:
 707:.\Generated_Source\PSoC5/CyDmac.c **** *   Selects one of the TERMIN interrupt lines to signal to the DMAC that the TD
 708:.\Generated_Source\PSoC5/CyDmac.c **** *   should terminate. The signal connected to the trq terminal will determine
 709:.\Generated_Source\PSoC5/CyDmac.c **** *   which TERMIN (termination request) is used.
 710:.\Generated_Source\PSoC5/CyDmac.c **** *
 711:.\Generated_Source\PSoC5/CyDmac.c **** * Return:
 712:.\Generated_Source\PSoC5/CyDmac.c **** *  CYRET_SUCCESS if successful.
 713:.\Generated_Source\PSoC5/CyDmac.c **** *  CYRET_BAD_PARAM if chHandle is invalid.
 714:.\Generated_Source\PSoC5/CyDmac.c **** *
 715:.\Generated_Source\PSoC5/CyDmac.c **** *******************************************************************************/
 716:.\Generated_Source\PSoC5/CyDmac.c **** cystatus CyDmaChSetConfiguration(uint8 chHandle, uint8 burstCount, uint8 requestPerBurst,
 717:.\Generated_Source\PSoC5/CyDmac.c ****                                  uint8 tdDone0, uint8 tdDone1, uint8 tdStop) 
 718:.\Generated_Source\PSoC5/CyDmac.c **** {
 714              		.loc 1 718 0
 715              		.cfi_startproc
 716              		@ args = 8, pretend = 0, frame = 0
 717              		@ frame_needed = 0, uses_anonymous_args = 0
 718              	.LVL75:
 719:.\Generated_Source\PSoC5/CyDmac.c ****     cystatus status = CYRET_BAD_PARAM;
 720:.\Generated_Source\PSoC5/CyDmac.c **** 
 721:.\Generated_Source\PSoC5/CyDmac.c ****     if(chHandle < CY_DMA_NUMBEROF_CHANNELS)
 719              		.loc 1 721 0
 720 0000 1728     		cmp	r0, #23
 718:.\Generated_Source\PSoC5/CyDmac.c **** {
 721              		.loc 1 718 0
 722 0002 10B5     		push	{r4, lr}
 723              		.cfi_def_cfa_offset 8
 724              		.cfi_offset 4, -8
 725              		.cfi_offset 14, -4
 726              		.loc 1 721 0
 727 0004 1AD8     		bhi	.L88
 722:.\Generated_Source\PSoC5/CyDmac.c ****     {
 723:.\Generated_Source\PSoC5/CyDmac.c ****         CY_DMA_CFGMEM_STRUCT_PTR[chHandle].CFG0[0] = (burstCount & 0x7Fu) | ((uint8)((requestPerBur
 728              		.loc 1 723 0
 729 0006 C400     		lsls	r4, r0, #3
 730 0008 01F07F01 		and	r1, r1, #127
 731              	.LVL76:
 732 000c 41EAC212 		orr	r2, r1, r2, lsl #7
 733              	.LVL77:
 734 0010 04F18044 		add	r4, r4, #1073741824
 735 0014 04F5EC44 		add	r4, r4, #30208
 736 0018 D2B2     		uxtb	r2, r2
ARM GAS  C:\Users\Yiquing\AppData\Local\Temp\ccE8adEp.s 			page 27


 737 001a 2270     		strb	r2, [r4]
 724:.\Generated_Source\PSoC5/CyDmac.c ****         CY_DMA_CFGMEM_STRUCT_PTR[chHandle].CFG0[1] = ((uint8)((tdDone1 & 0xFu) << 4u)) | (tdDone0 &
 738              		.loc 1 724 0
 739 001c 9DF80820 		ldrb	r2, [sp, #8]	@ zero_extendqisi2
 740 0020 03F00F03 		and	r3, r3, #15
 741              	.LVL78:
 742 0024 43EA0213 		orr	r3, r3, r2, lsl #4
 743 0028 DBB2     		uxtb	r3, r3
 744 002a 6370     		strb	r3, [r4, #1]
 725:.\Generated_Source\PSoC5/CyDmac.c ****         CY_DMA_CFGMEM_STRUCT_PTR[chHandle].CFG0[2] = 0x0Fu & tdStop;
 745              		.loc 1 725 0
 746 002c 9DF80C30 		ldrb	r3, [sp, #12]	@ zero_extendqisi2
 726:.\Generated_Source\PSoC5/CyDmac.c ****         CY_DMA_CFGMEM_STRUCT_PTR[chHandle].CFG0[3] = 0u; /* burstcount_remain. */
 747              		.loc 1 726 0
 748 0030 0020     		movs	r0, #0
 749              	.LVL79:
 725:.\Generated_Source\PSoC5/CyDmac.c ****         CY_DMA_CFGMEM_STRUCT_PTR[chHandle].CFG0[2] = 0x0Fu & tdStop;
 750              		.loc 1 725 0
 751 0032 03F00F03 		and	r3, r3, #15
 752 0036 A370     		strb	r3, [r4, #2]
 753              		.loc 1 726 0
 754 0038 E070     		strb	r0, [r4, #3]
 755              	.LVL80:
 756 003a 10BD     		pop	{r4, pc}
 757              	.LVL81:
 758              	.L88:
 719:.\Generated_Source\PSoC5/CyDmac.c ****     cystatus status = CYRET_BAD_PARAM;
 759              		.loc 1 719 0
 760 003c 0120     		movs	r0, #1
 761              	.LVL82:
 727:.\Generated_Source\PSoC5/CyDmac.c **** 
 728:.\Generated_Source\PSoC5/CyDmac.c ****         status = CYRET_SUCCESS;
 729:.\Generated_Source\PSoC5/CyDmac.c ****     }
 730:.\Generated_Source\PSoC5/CyDmac.c **** 
 731:.\Generated_Source\PSoC5/CyDmac.c ****     return (status);
 732:.\Generated_Source\PSoC5/CyDmac.c **** }
 762              		.loc 1 732 0
 763 003e 10BD     		pop	{r4, pc}
 764              		.cfi_endproc
 765              	.LFE15:
 766              		.size	CyDmaChSetConfiguration, .-CyDmaChSetConfiguration
 767              		.section	.text.CyDmaTdAllocate,"ax",%progbits
 768              		.align	1
 769              		.global	CyDmaTdAllocate
 770              		.thumb
 771              		.thumb_func
 772              		.type	CyDmaTdAllocate, %function
 773              	CyDmaTdAllocate:
 774              	.LFB16:
 733:.\Generated_Source\PSoC5/CyDmac.c **** 
 734:.\Generated_Source\PSoC5/CyDmac.c **** 
 735:.\Generated_Source\PSoC5/CyDmac.c **** /*******************************************************************************
 736:.\Generated_Source\PSoC5/CyDmac.c **** * Function Name: CyDmaTdAllocate
 737:.\Generated_Source\PSoC5/CyDmac.c **** ********************************************************************************
 738:.\Generated_Source\PSoC5/CyDmac.c **** *
 739:.\Generated_Source\PSoC5/CyDmac.c **** * Summary:
 740:.\Generated_Source\PSoC5/CyDmac.c **** *  Allocates a TD for use with an allocated DMA channel.
ARM GAS  C:\Users\Yiquing\AppData\Local\Temp\ccE8adEp.s 			page 28


 741:.\Generated_Source\PSoC5/CyDmac.c **** *
 742:.\Generated_Source\PSoC5/CyDmac.c **** * Parameters:
 743:.\Generated_Source\PSoC5/CyDmac.c **** *  None
 744:.\Generated_Source\PSoC5/CyDmac.c **** *
 745:.\Generated_Source\PSoC5/CyDmac.c **** * Return:
 746:.\Generated_Source\PSoC5/CyDmac.c **** *  Zero-based index of the TD to be used by the caller. Since there are 128 TDs
 747:.\Generated_Source\PSoC5/CyDmac.c **** *  minus the reserved TDs (0 to 23), the value returned would range from 24 to
 748:.\Generated_Source\PSoC5/CyDmac.c **** *  127 not 24 to 128. DMA_INVALID_TD is returned if there are no free TDs
 749:.\Generated_Source\PSoC5/CyDmac.c **** *  available.
 750:.\Generated_Source\PSoC5/CyDmac.c **** *
 751:.\Generated_Source\PSoC5/CyDmac.c **** *******************************************************************************/
 752:.\Generated_Source\PSoC5/CyDmac.c **** uint8 CyDmaTdAllocate(void) 
 753:.\Generated_Source\PSoC5/CyDmac.c **** {
 775              		.loc 1 753 0
 776              		.cfi_startproc
 777              		@ args = 0, pretend = 0, frame = 0
 778              		@ frame_needed = 0, uses_anonymous_args = 0
 779              	.LVL83:
 780 0000 10B5     		push	{r4, lr}
 781              		.cfi_def_cfa_offset 8
 782              		.cfi_offset 4, -8
 783              		.cfi_offset 14, -4
 754:.\Generated_Source\PSoC5/CyDmac.c ****     uint8 interruptState;
 755:.\Generated_Source\PSoC5/CyDmac.c ****     uint8 element = CY_DMA_INVALID_TD;
 756:.\Generated_Source\PSoC5/CyDmac.c **** 
 757:.\Generated_Source\PSoC5/CyDmac.c ****     /* Enter critical section! */
 758:.\Generated_Source\PSoC5/CyDmac.c ****     interruptState = CyEnterCriticalSection();
 784              		.loc 1 758 0
 785 0002 FFF7FEFF 		bl	CyEnterCriticalSection
 786              	.LVL84:
 759:.\Generated_Source\PSoC5/CyDmac.c **** 
 760:.\Generated_Source\PSoC5/CyDmac.c ****     if(CyDmaTdCurrentNumber > NUMBEROF_CHANNELS)
 787              		.loc 1 760 0
 788 0006 0A4B     		ldr	r3, .L92
 789 0008 5A78     		ldrb	r2, [r3, #1]	@ zero_extendqisi2
 790 000a 182A     		cmp	r2, #24
 791 000c 0AD9     		bls	.L91
 761:.\Generated_Source\PSoC5/CyDmac.c ****     {
 762:.\Generated_Source\PSoC5/CyDmac.c ****         /* Get pointer to Next available. */
 763:.\Generated_Source\PSoC5/CyDmac.c ****         element = CyDmaTdFreeIndex;
 792              		.loc 1 763 0
 793 000e 1C78     		ldrb	r4, [r3]	@ zero_extendqisi2
 794              	.LVL85:
 764:.\Generated_Source\PSoC5/CyDmac.c **** 
 765:.\Generated_Source\PSoC5/CyDmac.c ****         /* Decrement the count. */
 766:.\Generated_Source\PSoC5/CyDmac.c ****         CyDmaTdCurrentNumber--;
 795              		.loc 1 766 0
 796 0010 013A     		subs	r2, r2, #1
 797 0012 5A70     		strb	r2, [r3, #1]
 767:.\Generated_Source\PSoC5/CyDmac.c **** 
 768:.\Generated_Source\PSoC5/CyDmac.c ****         /* Update next available pointer. */
 769:.\Generated_Source\PSoC5/CyDmac.c ****         CyDmaTdFreeIndex = CY_DMA_TDMEM_STRUCT_PTR[element].TD0[0];
 798              		.loc 1 769 0
 799 0014 E200     		lsls	r2, r4, #3
 800 0016 02F18042 		add	r2, r2, #1073741824
 801 001a 02F5F042 		add	r2, r2, #30720
 802 001e 1278     		ldrb	r2, [r2]	@ zero_extendqisi2
ARM GAS  C:\Users\Yiquing\AppData\Local\Temp\ccE8adEp.s 			page 29


 803 0020 1A70     		strb	r2, [r3]
 804 0022 00E0     		b	.L90
 805              	.LVL86:
 806              	.L91:
 755:.\Generated_Source\PSoC5/CyDmac.c ****     uint8 element = CY_DMA_INVALID_TD;
 807              		.loc 1 755 0
 808 0024 FF24     		movs	r4, #255
 809              	.LVL87:
 810              	.L90:
 770:.\Generated_Source\PSoC5/CyDmac.c ****     }
 771:.\Generated_Source\PSoC5/CyDmac.c **** 
 772:.\Generated_Source\PSoC5/CyDmac.c ****     /* Exit critical section! */
 773:.\Generated_Source\PSoC5/CyDmac.c ****     CyExitCriticalSection(interruptState);
 811              		.loc 1 773 0
 812 0026 FFF7FEFF 		bl	CyExitCriticalSection
 813              	.LVL88:
 774:.\Generated_Source\PSoC5/CyDmac.c **** 
 775:.\Generated_Source\PSoC5/CyDmac.c ****     return(element);
 776:.\Generated_Source\PSoC5/CyDmac.c **** }
 814              		.loc 1 776 0
 815 002a 2046     		mov	r0, r4
 816 002c 10BD     		pop	{r4, pc}
 817              	.LVL89:
 818              	.L93:
 819 002e 00BF     		.align	2
 820              	.L92:
 821 0030 00000000 		.word	.LANCHOR0
 822              		.cfi_endproc
 823              	.LFE16:
 824              		.size	CyDmaTdAllocate, .-CyDmaTdAllocate
 825              		.section	.text.CyDmaTdFree,"ax",%progbits
 826              		.align	1
 827              		.global	CyDmaTdFree
 828              		.thumb
 829              		.thumb_func
 830              		.type	CyDmaTdFree, %function
 831              	CyDmaTdFree:
 832              	.LFB17:
 777:.\Generated_Source\PSoC5/CyDmac.c **** 
 778:.\Generated_Source\PSoC5/CyDmac.c **** 
 779:.\Generated_Source\PSoC5/CyDmac.c **** /*******************************************************************************
 780:.\Generated_Source\PSoC5/CyDmac.c **** * Function Name: CyDmaTdFree
 781:.\Generated_Source\PSoC5/CyDmac.c **** ********************************************************************************
 782:.\Generated_Source\PSoC5/CyDmac.c **** *
 783:.\Generated_Source\PSoC5/CyDmac.c **** * Summary:
 784:.\Generated_Source\PSoC5/CyDmac.c **** *  Returns a TD to the free list.
 785:.\Generated_Source\PSoC5/CyDmac.c **** *
 786:.\Generated_Source\PSoC5/CyDmac.c **** * Parameters:
 787:.\Generated_Source\PSoC5/CyDmac.c **** *  uint8 tdHandle:
 788:.\Generated_Source\PSoC5/CyDmac.c **** *   The TD handle returned by the CyDmaTdAllocate().
 789:.\Generated_Source\PSoC5/CyDmac.c **** *
 790:.\Generated_Source\PSoC5/CyDmac.c **** * Return:
 791:.\Generated_Source\PSoC5/CyDmac.c **** *  None
 792:.\Generated_Source\PSoC5/CyDmac.c **** *
 793:.\Generated_Source\PSoC5/CyDmac.c **** *******************************************************************************/
 794:.\Generated_Source\PSoC5/CyDmac.c **** void CyDmaTdFree(uint8 tdHandle) 
 795:.\Generated_Source\PSoC5/CyDmac.c **** {
ARM GAS  C:\Users\Yiquing\AppData\Local\Temp\ccE8adEp.s 			page 30


 833              		.loc 1 795 0
 834              		.cfi_startproc
 835              		@ args = 0, pretend = 0, frame = 0
 836              		@ frame_needed = 0, uses_anonymous_args = 0
 837              	.LVL90:
 796:.\Generated_Source\PSoC5/CyDmac.c ****     if(tdHandle < CY_DMA_NUMBEROF_TDS)
 838              		.loc 1 796 0
 839 0000 0306     		lsls	r3, r0, #24
 795:.\Generated_Source\PSoC5/CyDmac.c **** {
 840              		.loc 1 795 0
 841 0002 10B5     		push	{r4, lr}
 842              		.cfi_def_cfa_offset 8
 843              		.cfi_offset 4, -8
 844              		.cfi_offset 14, -4
 795:.\Generated_Source\PSoC5/CyDmac.c **** {
 845              		.loc 1 795 0
 846 0004 0446     		mov	r4, r0
 847              		.loc 1 796 0
 848 0006 11D4     		bmi	.L94
 849              	.LBB2:
 797:.\Generated_Source\PSoC5/CyDmac.c ****     {
 798:.\Generated_Source\PSoC5/CyDmac.c ****         /* Enter critical section! */
 799:.\Generated_Source\PSoC5/CyDmac.c ****         uint8 interruptState = CyEnterCriticalSection();
 850              		.loc 1 799 0
 851 0008 FFF7FEFF 		bl	CyEnterCriticalSection
 852              	.LVL91:
 800:.\Generated_Source\PSoC5/CyDmac.c **** 
 801:.\Generated_Source\PSoC5/CyDmac.c ****         /* Get pointer to Next available. */
 802:.\Generated_Source\PSoC5/CyDmac.c ****         CY_DMA_TDMEM_STRUCT_PTR[tdHandle].TD0[0u] = CyDmaTdFreeIndex;
 853              		.loc 1 802 0
 854 000c 084B     		ldr	r3, .L96
 855 000e E200     		lsls	r2, r4, #3
 856 0010 1978     		ldrb	r1, [r3]	@ zero_extendqisi2
 857 0012 02F18042 		add	r2, r2, #1073741824
 858 0016 02F5F042 		add	r2, r2, #30720
 859 001a 1170     		strb	r1, [r2]
 803:.\Generated_Source\PSoC5/CyDmac.c **** 
 804:.\Generated_Source\PSoC5/CyDmac.c ****         /* Set new Next Available. */
 805:.\Generated_Source\PSoC5/CyDmac.c ****         CyDmaTdFreeIndex = tdHandle;
 806:.\Generated_Source\PSoC5/CyDmac.c **** 
 807:.\Generated_Source\PSoC5/CyDmac.c ****         /* Keep track of how many left. */
 808:.\Generated_Source\PSoC5/CyDmac.c ****         CyDmaTdCurrentNumber++;
 860              		.loc 1 808 0
 861 001c 5A78     		ldrb	r2, [r3, #1]	@ zero_extendqisi2
 805:.\Generated_Source\PSoC5/CyDmac.c ****         CyDmaTdFreeIndex = tdHandle;
 862              		.loc 1 805 0
 863 001e 1C70     		strb	r4, [r3]
 864              		.loc 1 808 0
 865 0020 0132     		adds	r2, r2, #1
 866 0022 5A70     		strb	r2, [r3, #1]
 867              	.LBE2:
 809:.\Generated_Source\PSoC5/CyDmac.c **** 
 810:.\Generated_Source\PSoC5/CyDmac.c ****         /* Exit critical section! */
 811:.\Generated_Source\PSoC5/CyDmac.c ****         CyExitCriticalSection(interruptState);
 812:.\Generated_Source\PSoC5/CyDmac.c ****     }
 813:.\Generated_Source\PSoC5/CyDmac.c **** }
 868              		.loc 1 813 0
ARM GAS  C:\Users\Yiquing\AppData\Local\Temp\ccE8adEp.s 			page 31


 869 0024 BDE81040 		pop	{r4, lr}
 870              	.LBB3:
 811:.\Generated_Source\PSoC5/CyDmac.c ****         CyExitCriticalSection(interruptState);
 871              		.loc 1 811 0
 872 0028 FFF7FEBF 		b	CyExitCriticalSection
 873              	.LVL92:
 874              	.L94:
 875 002c 10BD     		pop	{r4, pc}
 876              	.L97:
 877 002e 00BF     		.align	2
 878              	.L96:
 879 0030 00000000 		.word	.LANCHOR0
 880              	.LBE3:
 881              		.cfi_endproc
 882              	.LFE17:
 883              		.size	CyDmaTdFree, .-CyDmaTdFree
 884              		.section	.text.CyDmaTdFreeCount,"ax",%progbits
 885              		.align	1
 886              		.global	CyDmaTdFreeCount
 887              		.thumb
 888              		.thumb_func
 889              		.type	CyDmaTdFreeCount, %function
 890              	CyDmaTdFreeCount:
 891              	.LFB18:
 814:.\Generated_Source\PSoC5/CyDmac.c **** 
 815:.\Generated_Source\PSoC5/CyDmac.c **** 
 816:.\Generated_Source\PSoC5/CyDmac.c **** /*******************************************************************************
 817:.\Generated_Source\PSoC5/CyDmac.c **** * Function Name: CyDmaTdFreeCount
 818:.\Generated_Source\PSoC5/CyDmac.c **** ********************************************************************************
 819:.\Generated_Source\PSoC5/CyDmac.c **** *
 820:.\Generated_Source\PSoC5/CyDmac.c **** * Summary:
 821:.\Generated_Source\PSoC5/CyDmac.c **** *  Returns the number of free TDs available to be allocated.
 822:.\Generated_Source\PSoC5/CyDmac.c **** *
 823:.\Generated_Source\PSoC5/CyDmac.c **** * Parameters:
 824:.\Generated_Source\PSoC5/CyDmac.c **** *  None
 825:.\Generated_Source\PSoC5/CyDmac.c **** *
 826:.\Generated_Source\PSoC5/CyDmac.c **** * Return:
 827:.\Generated_Source\PSoC5/CyDmac.c **** *  The number of free TDs.
 828:.\Generated_Source\PSoC5/CyDmac.c **** *
 829:.\Generated_Source\PSoC5/CyDmac.c **** *******************************************************************************/
 830:.\Generated_Source\PSoC5/CyDmac.c **** uint8 CyDmaTdFreeCount(void) 
 831:.\Generated_Source\PSoC5/CyDmac.c **** {
 892              		.loc 1 831 0
 893              		.cfi_startproc
 894              		@ args = 0, pretend = 0, frame = 0
 895              		@ frame_needed = 0, uses_anonymous_args = 0
 896              		@ link register save eliminated.
 832:.\Generated_Source\PSoC5/CyDmac.c ****     return(CyDmaTdCurrentNumber - CY_DMA_NUMBEROF_CHANNELS);
 897              		.loc 1 832 0
 898 0000 024B     		ldr	r3, .L99
 899 0002 5878     		ldrb	r0, [r3, #1]	@ zero_extendqisi2
 900 0004 1838     		subs	r0, r0, #24
 833:.\Generated_Source\PSoC5/CyDmac.c **** }
 901              		.loc 1 833 0
 902 0006 C0B2     		uxtb	r0, r0
 903 0008 7047     		bx	lr
 904              	.L100:
ARM GAS  C:\Users\Yiquing\AppData\Local\Temp\ccE8adEp.s 			page 32


 905 000a 00BF     		.align	2
 906              	.L99:
 907 000c 00000000 		.word	.LANCHOR0
 908              		.cfi_endproc
 909              	.LFE18:
 910              		.size	CyDmaTdFreeCount, .-CyDmaTdFreeCount
 911              		.section	.text.CyDmaTdSetConfiguration,"ax",%progbits
 912              		.align	1
 913              		.global	CyDmaTdSetConfiguration
 914              		.thumb
 915              		.thumb_func
 916              		.type	CyDmaTdSetConfiguration, %function
 917              	CyDmaTdSetConfiguration:
 918              	.LFB19:
 834:.\Generated_Source\PSoC5/CyDmac.c **** 
 835:.\Generated_Source\PSoC5/CyDmac.c **** 
 836:.\Generated_Source\PSoC5/CyDmac.c **** /*******************************************************************************
 837:.\Generated_Source\PSoC5/CyDmac.c **** * Function Name: CyDmaTdSetConfiguration
 838:.\Generated_Source\PSoC5/CyDmac.c **** ********************************************************************************
 839:.\Generated_Source\PSoC5/CyDmac.c **** *
 840:.\Generated_Source\PSoC5/CyDmac.c **** * Summary:
 841:.\Generated_Source\PSoC5/CyDmac.c **** *  Configures the TD.
 842:.\Generated_Source\PSoC5/CyDmac.c **** *
 843:.\Generated_Source\PSoC5/CyDmac.c **** * Parameters:
 844:.\Generated_Source\PSoC5/CyDmac.c **** *  uint8 tdHandle:
 845:.\Generated_Source\PSoC5/CyDmac.c **** *   A handle previously returned by CyDmaTdAlloc().
 846:.\Generated_Source\PSoC5/CyDmac.c **** *
 847:.\Generated_Source\PSoC5/CyDmac.c **** *  uint16 transferCount:
 848:.\Generated_Source\PSoC5/CyDmac.c **** *   The size of the data transfer (in bytes) for this TD. A size of zero will
 849:.\Generated_Source\PSoC5/CyDmac.c **** *   cause the transfer to continue indefinitely. This parameter is limited to
 850:.\Generated_Source\PSoC5/CyDmac.c **** *   4095 bytes; the TD is not initialized at all when a higher value is passed.
 851:.\Generated_Source\PSoC5/CyDmac.c **** *
 852:.\Generated_Source\PSoC5/CyDmac.c **** *  uint8 nextTd:
 853:.\Generated_Source\PSoC5/CyDmac.c **** *   Zero based index of the next Transfer Descriptor in the TD chain. Zero is a
 854:.\Generated_Source\PSoC5/CyDmac.c **** *   valid pointer to the next TD; DMA_END_CHAIN_TD is the end of the chain.
 855:.\Generated_Source\PSoC5/CyDmac.c **** *   DMA_DISABLE_TD indicates an end to the chain and the DMA is disabled. No
 856:.\Generated_Source\PSoC5/CyDmac.c **** *   further TDs are fetched. DMA_DISABLE_TD is only supported on PSoC3 and
 857:.\Generated_Source\PSoC5/CyDmac.c **** *   PSoC 5LP silicons.
 858:.\Generated_Source\PSoC5/CyDmac.c **** *
 859:.\Generated_Source\PSoC5/CyDmac.c **** *  uint8 configuration:
 860:.\Generated_Source\PSoC5/CyDmac.c **** *   Stores the Bit field of configuration bits.
 861:.\Generated_Source\PSoC5/CyDmac.c **** *
 862:.\Generated_Source\PSoC5/CyDmac.c **** *   CY_DMA_TD_SWAP_EN        - Perform endian swap
 863:.\Generated_Source\PSoC5/CyDmac.c **** *
 864:.\Generated_Source\PSoC5/CyDmac.c **** *   CY_DMA_TD_SWAP_SIZE4     - Swap size = 4 bytes
 865:.\Generated_Source\PSoC5/CyDmac.c **** *
 866:.\Generated_Source\PSoC5/CyDmac.c **** *   CY_DMA_TD_AUTO_EXEC_NEXT - The next TD in the chain will trigger
 867:.\Generated_Source\PSoC5/CyDmac.c **** *                              automatically when the current TD completes.
 868:.\Generated_Source\PSoC5/CyDmac.c **** *
 869:.\Generated_Source\PSoC5/CyDmac.c **** *   CY_DMA_TD_TERMIN_EN      - Terminate this TD if a positive edge on the trq
 870:.\Generated_Source\PSoC5/CyDmac.c **** *                              input line occurs. The positive edge must occur
 871:.\Generated_Source\PSoC5/CyDmac.c **** *                              during a burst. That is the only time the DMAC
 872:.\Generated_Source\PSoC5/CyDmac.c **** *                              will listen for it.
 873:.\Generated_Source\PSoC5/CyDmac.c **** *
 874:.\Generated_Source\PSoC5/CyDmac.c **** *   DMA__TD_TERMOUT_EN       - When this TD completes, the TERMOUT signal will
 875:.\Generated_Source\PSoC5/CyDmac.c **** *                              generate a pulse. Note that this option is
 876:.\Generated_Source\PSoC5/CyDmac.c **** *                              instance specific with the instance name followed
ARM GAS  C:\Users\Yiquing\AppData\Local\Temp\ccE8adEp.s 			page 33


 877:.\Generated_Source\PSoC5/CyDmac.c **** *                              by two underscores. In this example, the instance
 878:.\Generated_Source\PSoC5/CyDmac.c **** *                              name is DMA.
 879:.\Generated_Source\PSoC5/CyDmac.c **** *
 880:.\Generated_Source\PSoC5/CyDmac.c **** *   CY_DMA_TD_INC_DST_ADR    - Increment DST_ADR according to the size of each
 881:.\Generated_Source\PSoC5/CyDmac.c **** *                              data transaction in the burst.
 882:.\Generated_Source\PSoC5/CyDmac.c **** *
 883:.\Generated_Source\PSoC5/CyDmac.c **** *   CY_DMA_TD_INC_SRC_ADR    - Increment SRC_ADR according to the size of each
 884:.\Generated_Source\PSoC5/CyDmac.c **** *                              data transaction in the burst.
 885:.\Generated_Source\PSoC5/CyDmac.c **** *
 886:.\Generated_Source\PSoC5/CyDmac.c **** * Return:
 887:.\Generated_Source\PSoC5/CyDmac.c **** *  CYRET_SUCCESS if successful.
 888:.\Generated_Source\PSoC5/CyDmac.c **** *  CYRET_BAD_PARAM if tdHandle or transferCount is invalid.
 889:.\Generated_Source\PSoC5/CyDmac.c **** *
 890:.\Generated_Source\PSoC5/CyDmac.c **** *******************************************************************************/
 891:.\Generated_Source\PSoC5/CyDmac.c **** cystatus CyDmaTdSetConfiguration(uint8 tdHandle, uint16 transferCount, uint8 nextTd, uint8 configur
 892:.\Generated_Source\PSoC5/CyDmac.c ****     
 893:.\Generated_Source\PSoC5/CyDmac.c **** {
 919              		.loc 1 893 0
 920              		.cfi_startproc
 921              		@ args = 0, pretend = 0, frame = 0
 922              		@ frame_needed = 0, uses_anonymous_args = 0
 923              	.LVL93:
 924 0000 30B5     		push	{r4, r5, lr}
 925              		.cfi_def_cfa_offset 12
 926              		.cfi_offset 4, -12
 927              		.cfi_offset 5, -8
 928              		.cfi_offset 14, -4
 894:.\Generated_Source\PSoC5/CyDmac.c ****     cystatus status = CYRET_BAD_PARAM;
 895:.\Generated_Source\PSoC5/CyDmac.c **** 
 896:.\Generated_Source\PSoC5/CyDmac.c ****     if((tdHandle < CY_DMA_NUMBEROF_TDS) && (0u == (0xF000u & transferCount)))
 929              		.loc 1 896 0
 930 0002 0406     		lsls	r4, r0, #24
 931 0004 0CD4     		bmi	.L104
 932              		.loc 1 896 0 is_stmt 0 discriminator 1
 933 0006 11F47045 		ands	r5, r1, #61440
 934 000a 09D1     		bne	.L104
 935              	.LBB4:
 897:.\Generated_Source\PSoC5/CyDmac.c ****     {
 898:.\Generated_Source\PSoC5/CyDmac.c ****         /* Set 12 bits transfer count. */
 899:.\Generated_Source\PSoC5/CyDmac.c ****         reg16 *convert = (reg16 *) &CY_DMA_TDMEM_STRUCT_PTR[tdHandle].TD0[0u];
 936              		.loc 1 899 0 is_stmt 1
 937 000c C400     		lsls	r4, r0, #3
 938 000e 04F18044 		add	r4, r4, #1073741824
 939 0012 04F5F044 		add	r4, r4, #30720
 940              	.LVL94:
 900:.\Generated_Source\PSoC5/CyDmac.c ****         CY_SET_REG16(convert, transferCount);
 941              		.loc 1 900 0
 942 0016 2180     		strh	r1, [r4]	@ movhi
 901:.\Generated_Source\PSoC5/CyDmac.c **** 
 902:.\Generated_Source\PSoC5/CyDmac.c ****         /* Set Next TD pointer. */
 903:.\Generated_Source\PSoC5/CyDmac.c ****         CY_DMA_TDMEM_STRUCT_PTR[tdHandle].TD0[2u] = nextTd;
 943              		.loc 1 903 0
 944 0018 A270     		strb	r2, [r4, #2]
 904:.\Generated_Source\PSoC5/CyDmac.c **** 
 905:.\Generated_Source\PSoC5/CyDmac.c ****         /* Configure the TD */
 906:.\Generated_Source\PSoC5/CyDmac.c ****         CY_DMA_TDMEM_STRUCT_PTR[tdHandle].TD0[3u] = configuration;
 945              		.loc 1 906 0
ARM GAS  C:\Users\Yiquing\AppData\Local\Temp\ccE8adEp.s 			page 34


 946 001a E370     		strb	r3, [r4, #3]
 947              	.LVL95:
 907:.\Generated_Source\PSoC5/CyDmac.c **** 
 908:.\Generated_Source\PSoC5/CyDmac.c ****         status = CYRET_SUCCESS;
 948              		.loc 1 908 0
 949 001c 2846     		mov	r0, r5
 950              	.LVL96:
 951 001e 30BD     		pop	{r4, r5, pc}
 952              	.LVL97:
 953              	.L104:
 954              	.LBE4:
 894:.\Generated_Source\PSoC5/CyDmac.c ****     cystatus status = CYRET_BAD_PARAM;
 955              		.loc 1 894 0
 956 0020 0120     		movs	r0, #1
 957              	.LVL98:
 909:.\Generated_Source\PSoC5/CyDmac.c ****     }
 910:.\Generated_Source\PSoC5/CyDmac.c **** 
 911:.\Generated_Source\PSoC5/CyDmac.c ****     return(status);
 912:.\Generated_Source\PSoC5/CyDmac.c **** }
 958              		.loc 1 912 0
 959 0022 30BD     		pop	{r4, r5, pc}
 960              		.cfi_endproc
 961              	.LFE19:
 962              		.size	CyDmaTdSetConfiguration, .-CyDmaTdSetConfiguration
 963              		.section	.text.CyDmaTdGetConfiguration,"ax",%progbits
 964              		.align	1
 965              		.global	CyDmaTdGetConfiguration
 966              		.thumb
 967              		.thumb_func
 968              		.type	CyDmaTdGetConfiguration, %function
 969              	CyDmaTdGetConfiguration:
 970              	.LFB20:
 913:.\Generated_Source\PSoC5/CyDmac.c **** 
 914:.\Generated_Source\PSoC5/CyDmac.c **** 
 915:.\Generated_Source\PSoC5/CyDmac.c **** /*******************************************************************************
 916:.\Generated_Source\PSoC5/CyDmac.c **** * Function Name: CyDmaTdGetConfiguration
 917:.\Generated_Source\PSoC5/CyDmac.c **** ********************************************************************************
 918:.\Generated_Source\PSoC5/CyDmac.c **** *
 919:.\Generated_Source\PSoC5/CyDmac.c **** * Summary:
 920:.\Generated_Source\PSoC5/CyDmac.c **** *  Retrieves the configuration of the TD. If a NULL pointer is passed as a
 921:.\Generated_Source\PSoC5/CyDmac.c **** *  parameter, that parameter is skipped. You may request only the values you are
 922:.\Generated_Source\PSoC5/CyDmac.c **** *  interested in.
 923:.\Generated_Source\PSoC5/CyDmac.c **** *
 924:.\Generated_Source\PSoC5/CyDmac.c **** * Parameters:
 925:.\Generated_Source\PSoC5/CyDmac.c **** *  uint8 tdHandle:
 926:.\Generated_Source\PSoC5/CyDmac.c **** *   A handle previously returned by CyDmaTdAlloc().
 927:.\Generated_Source\PSoC5/CyDmac.c **** *
 928:.\Generated_Source\PSoC5/CyDmac.c **** *  uint16 * transferCount:
 929:.\Generated_Source\PSoC5/CyDmac.c **** *   The address to store the size of the data transfer (in bytes) for this TD.
 930:.\Generated_Source\PSoC5/CyDmac.c **** *   A size of zero could indicate that the TD has completed its transfer, or
 931:.\Generated_Source\PSoC5/CyDmac.c **** *   that the TD is doing an indefinite transfer.
 932:.\Generated_Source\PSoC5/CyDmac.c **** *
 933:.\Generated_Source\PSoC5/CyDmac.c **** *  uint8 * nextTd:
 934:.\Generated_Source\PSoC5/CyDmac.c **** *   The address to store the index of the next TD in the TD chain.
 935:.\Generated_Source\PSoC5/CyDmac.c **** *
 936:.\Generated_Source\PSoC5/CyDmac.c **** *  uint8 * configuration:
 937:.\Generated_Source\PSoC5/CyDmac.c **** *   The address to store the Bit field of configuration bits.
ARM GAS  C:\Users\Yiquing\AppData\Local\Temp\ccE8adEp.s 			page 35


 938:.\Generated_Source\PSoC5/CyDmac.c **** *   See CyDmaTdSetConfiguration() function description.
 939:.\Generated_Source\PSoC5/CyDmac.c **** *
 940:.\Generated_Source\PSoC5/CyDmac.c **** * Return:
 941:.\Generated_Source\PSoC5/CyDmac.c **** *  CYRET_SUCCESS if successful.
 942:.\Generated_Source\PSoC5/CyDmac.c **** *  CYRET_BAD_PARAM if tdHandle is invalid.
 943:.\Generated_Source\PSoC5/CyDmac.c **** *
 944:.\Generated_Source\PSoC5/CyDmac.c **** * Side Effects:
 945:.\Generated_Source\PSoC5/CyDmac.c **** *  If TD has a transfer count of N and is executed, the transfer count becomes
 946:.\Generated_Source\PSoC5/CyDmac.c **** *  0. If it is reexecuted, the Transfer count of zero will be interpreted as a
 947:.\Generated_Source\PSoC5/CyDmac.c **** *  request for indefinite transfer. Be careful when requesting TD with a
 948:.\Generated_Source\PSoC5/CyDmac.c **** *  transfer count of zero.
 949:.\Generated_Source\PSoC5/CyDmac.c **** *
 950:.\Generated_Source\PSoC5/CyDmac.c **** *******************************************************************************/
 951:.\Generated_Source\PSoC5/CyDmac.c **** cystatus CyDmaTdGetConfiguration(uint8 tdHandle, uint16 * transferCount, uint8 * nextTd, uint8 * co
 952:.\Generated_Source\PSoC5/CyDmac.c ****     
 953:.\Generated_Source\PSoC5/CyDmac.c **** {
 971              		.loc 1 953 0
 972              		.cfi_startproc
 973              		@ args = 0, pretend = 0, frame = 0
 974              		@ frame_needed = 0, uses_anonymous_args = 0
 975              	.LVL99:
 976 0000 10B5     		push	{r4, lr}
 977              		.cfi_def_cfa_offset 8
 978              		.cfi_offset 4, -8
 979              		.cfi_offset 14, -4
 954:.\Generated_Source\PSoC5/CyDmac.c ****     cystatus status = CYRET_BAD_PARAM;
 955:.\Generated_Source\PSoC5/CyDmac.c **** 
 956:.\Generated_Source\PSoC5/CyDmac.c ****     if(tdHandle < CY_DMA_NUMBEROF_TDS)
 980              		.loc 1 956 0
 981 0002 0406     		lsls	r4, r0, #24
 982 0004 1BD4     		bmi	.L109
 957:.\Generated_Source\PSoC5/CyDmac.c ****     {
 958:.\Generated_Source\PSoC5/CyDmac.c ****         /* If we have pointer */
 959:.\Generated_Source\PSoC5/CyDmac.c ****         if(NULL != transferCount)
 983              		.loc 1 959 0
 984 0006 41B1     		cbz	r1, .L107
 985              	.LBB5:
 960:.\Generated_Source\PSoC5/CyDmac.c ****         {
 961:.\Generated_Source\PSoC5/CyDmac.c ****             /* Get 12 bits of transfer count */
 962:.\Generated_Source\PSoC5/CyDmac.c ****             reg16 *convert = (reg16 *) &CY_DMA_TDMEM_STRUCT_PTR[tdHandle].TD0[0];
 986              		.loc 1 962 0
 987 0008 C400     		lsls	r4, r0, #3
 988 000a 04F18044 		add	r4, r4, #1073741824
 989 000e 04F5F044 		add	r4, r4, #30720
 990              	.LVL100:
 963:.\Generated_Source\PSoC5/CyDmac.c ****             *transferCount = 0x0FFFu & CY_GET_REG16(convert);
 991              		.loc 1 963 0
 992 0012 2488     		ldrh	r4, [r4]
 993              	.LVL101:
 994 0014 C4F30B04 		ubfx	r4, r4, #0, #12
 995 0018 0C80     		strh	r4, [r1]	@ movhi
 996              	.LVL102:
 997              	.L107:
 998              	.LBE5:
 964:.\Generated_Source\PSoC5/CyDmac.c ****         }
 965:.\Generated_Source\PSoC5/CyDmac.c **** 
 966:.\Generated_Source\PSoC5/CyDmac.c ****         /* If we have pointer */
ARM GAS  C:\Users\Yiquing\AppData\Local\Temp\ccE8adEp.s 			page 36


 967:.\Generated_Source\PSoC5/CyDmac.c ****         if(NULL != nextTd)
 999              		.loc 1 967 0
 1000 001a 32B1     		cbz	r2, .L108
 968:.\Generated_Source\PSoC5/CyDmac.c ****         {
 969:.\Generated_Source\PSoC5/CyDmac.c ****             /* Get Next TD pointer */
 970:.\Generated_Source\PSoC5/CyDmac.c ****             *nextTd = CY_DMA_TDMEM_STRUCT_PTR[tdHandle].TD0[2u];
 1001              		.loc 1 970 0
 1002 001c C100     		lsls	r1, r0, #3
 1003              	.LVL103:
 1004 001e 01F18041 		add	r1, r1, #1073741824
 1005 0022 01F5F041 		add	r1, r1, #30720
 1006 0026 8978     		ldrb	r1, [r1, #2]	@ zero_extendqisi2
 1007 0028 1170     		strb	r1, [r2]
 1008              	.L108:
 971:.\Generated_Source\PSoC5/CyDmac.c ****         }
 972:.\Generated_Source\PSoC5/CyDmac.c **** 
 973:.\Generated_Source\PSoC5/CyDmac.c ****         /* If we have pointer */
 974:.\Generated_Source\PSoC5/CyDmac.c ****         if(NULL != configuration)
 1009              		.loc 1 974 0
 1010 002a 33B1     		cbz	r3, .L117
 975:.\Generated_Source\PSoC5/CyDmac.c ****         {
 976:.\Generated_Source\PSoC5/CyDmac.c ****             /* Get configuration TD */
 977:.\Generated_Source\PSoC5/CyDmac.c ****             *configuration = CY_DMA_TDMEM_STRUCT_PTR[tdHandle].TD0[3u];
 1011              		.loc 1 977 0
 1012 002c C000     		lsls	r0, r0, #3
 1013              	.LVL104:
 1014 002e 00F18040 		add	r0, r0, #1073741824
 1015 0032 00F5F040 		add	r0, r0, #30720
 1016 0036 C278     		ldrb	r2, [r0, #3]	@ zero_extendqisi2
 1017              	.LVL105:
 1018 0038 1A70     		strb	r2, [r3]
 1019              	.L117:
 978:.\Generated_Source\PSoC5/CyDmac.c ****         }
 979:.\Generated_Source\PSoC5/CyDmac.c **** 
 980:.\Generated_Source\PSoC5/CyDmac.c ****         status = CYRET_SUCCESS;
 1020              		.loc 1 980 0
 1021 003a 0020     		movs	r0, #0
 1022 003c 10BD     		pop	{r4, pc}
 1023              	.LVL106:
 1024              	.L109:
 954:.\Generated_Source\PSoC5/CyDmac.c ****     cystatus status = CYRET_BAD_PARAM;
 1025              		.loc 1 954 0
 1026 003e 0120     		movs	r0, #1
 1027              	.LVL107:
 1028 0040 10BD     		pop	{r4, pc}
 1029              		.cfi_endproc
 1030              	.LFE20:
 1031              		.size	CyDmaTdGetConfiguration, .-CyDmaTdGetConfiguration
 1032              		.section	.text.CyDmaTdSetAddress,"ax",%progbits
 1033              		.align	1
 1034              		.global	CyDmaTdSetAddress
 1035              		.thumb
 1036              		.thumb_func
 1037              		.type	CyDmaTdSetAddress, %function
 1038              	CyDmaTdSetAddress:
 1039              	.LFB21:
 981:.\Generated_Source\PSoC5/CyDmac.c ****     }
ARM GAS  C:\Users\Yiquing\AppData\Local\Temp\ccE8adEp.s 			page 37


 982:.\Generated_Source\PSoC5/CyDmac.c **** 
 983:.\Generated_Source\PSoC5/CyDmac.c ****     return(status);
 984:.\Generated_Source\PSoC5/CyDmac.c **** }
 985:.\Generated_Source\PSoC5/CyDmac.c **** 
 986:.\Generated_Source\PSoC5/CyDmac.c **** 
 987:.\Generated_Source\PSoC5/CyDmac.c **** /*******************************************************************************
 988:.\Generated_Source\PSoC5/CyDmac.c **** * Function Name: CyDmaTdSetAddress
 989:.\Generated_Source\PSoC5/CyDmac.c **** ********************************************************************************
 990:.\Generated_Source\PSoC5/CyDmac.c **** *
 991:.\Generated_Source\PSoC5/CyDmac.c **** * Summary:
 992:.\Generated_Source\PSoC5/CyDmac.c **** *  Sets the lower 16 bits of the source and destination addresses for this TD
 993:.\Generated_Source\PSoC5/CyDmac.c **** *  only.
 994:.\Generated_Source\PSoC5/CyDmac.c **** *
 995:.\Generated_Source\PSoC5/CyDmac.c **** * Parameters:
 996:.\Generated_Source\PSoC5/CyDmac.c **** *  uint8 tdHandle:
 997:.\Generated_Source\PSoC5/CyDmac.c **** *   A handle previously returned by CyDmaTdAlloc().
 998:.\Generated_Source\PSoC5/CyDmac.c **** *
 999:.\Generated_Source\PSoC5/CyDmac.c **** *  uint16 source:
1000:.\Generated_Source\PSoC5/CyDmac.c **** *   The lower 16 address bits of the source of the data transfer.
1001:.\Generated_Source\PSoC5/CyDmac.c **** *
1002:.\Generated_Source\PSoC5/CyDmac.c **** *  uint16 destination:
1003:.\Generated_Source\PSoC5/CyDmac.c **** *   The lower 16 address bits of the destination of the data transfer.
1004:.\Generated_Source\PSoC5/CyDmac.c **** *
1005:.\Generated_Source\PSoC5/CyDmac.c **** * Return:
1006:.\Generated_Source\PSoC5/CyDmac.c **** *  CYRET_SUCCESS if successful.
1007:.\Generated_Source\PSoC5/CyDmac.c **** *  CYRET_BAD_PARAM if tdHandle is invalid.
1008:.\Generated_Source\PSoC5/CyDmac.c **** *
1009:.\Generated_Source\PSoC5/CyDmac.c **** *******************************************************************************/
1010:.\Generated_Source\PSoC5/CyDmac.c **** cystatus CyDmaTdSetAddress(uint8 tdHandle, uint16 source, uint16 destination) 
1011:.\Generated_Source\PSoC5/CyDmac.c **** {
 1040              		.loc 1 1011 0
 1041              		.cfi_startproc
 1042              		@ args = 0, pretend = 0, frame = 0
 1043              		@ frame_needed = 0, uses_anonymous_args = 0
 1044              		@ link register save eliminated.
 1045              	.LVL108:
1012:.\Generated_Source\PSoC5/CyDmac.c ****     cystatus status = CYRET_BAD_PARAM;
1013:.\Generated_Source\PSoC5/CyDmac.c ****     reg16 *convert;
1014:.\Generated_Source\PSoC5/CyDmac.c **** 
1015:.\Generated_Source\PSoC5/CyDmac.c ****     if(tdHandle < CY_DMA_NUMBEROF_TDS)
 1046              		.loc 1 1015 0
 1047 0000 0306     		lsls	r3, r0, #24
 1048 0002 08D4     		bmi	.L120
1016:.\Generated_Source\PSoC5/CyDmac.c ****     {
1017:.\Generated_Source\PSoC5/CyDmac.c ****         /* Set source address */
1018:.\Generated_Source\PSoC5/CyDmac.c ****         convert = (reg16 *) &CY_DMA_TDMEM_STRUCT_PTR[tdHandle].TD1[0u];
 1049              		.loc 1 1018 0
 1050 0004 C000     		lsls	r0, r0, #3
 1051              	.LVL109:
 1052 0006 00F18040 		add	r0, r0, #1073741824
 1053 000a 00F5F040 		add	r0, r0, #30720
 1054              	.LVL110:
1019:.\Generated_Source\PSoC5/CyDmac.c ****         CY_SET_REG16(convert, source);
 1055              		.loc 1 1019 0
 1056 000e 8180     		strh	r1, [r0, #4]	@ movhi
 1057              	.LVL111:
1020:.\Generated_Source\PSoC5/CyDmac.c **** 
ARM GAS  C:\Users\Yiquing\AppData\Local\Temp\ccE8adEp.s 			page 38


1021:.\Generated_Source\PSoC5/CyDmac.c ****         /* Set destination address */
1022:.\Generated_Source\PSoC5/CyDmac.c ****         convert = (reg16 *) &CY_DMA_TDMEM_STRUCT_PTR[tdHandle].TD1[2u];
1023:.\Generated_Source\PSoC5/CyDmac.c ****         CY_SET_REG16(convert, destination);
 1058              		.loc 1 1023 0
 1059 0010 C280     		strh	r2, [r0, #6]	@ movhi
 1060              	.LVL112:
1024:.\Generated_Source\PSoC5/CyDmac.c **** 
1025:.\Generated_Source\PSoC5/CyDmac.c ****         status = CYRET_SUCCESS;
 1061              		.loc 1 1025 0
 1062 0012 0020     		movs	r0, #0
 1063              	.LVL113:
 1064 0014 7047     		bx	lr
 1065              	.LVL114:
 1066              	.L120:
1012:.\Generated_Source\PSoC5/CyDmac.c ****     cystatus status = CYRET_BAD_PARAM;
 1067              		.loc 1 1012 0
 1068 0016 0120     		movs	r0, #1
 1069              	.LVL115:
1026:.\Generated_Source\PSoC5/CyDmac.c ****     }
1027:.\Generated_Source\PSoC5/CyDmac.c **** 
1028:.\Generated_Source\PSoC5/CyDmac.c ****     return(status);
1029:.\Generated_Source\PSoC5/CyDmac.c **** }
 1070              		.loc 1 1029 0
 1071 0018 7047     		bx	lr
 1072              		.cfi_endproc
 1073              	.LFE21:
 1074              		.size	CyDmaTdSetAddress, .-CyDmaTdSetAddress
 1075              		.section	.text.CyDmaTdGetAddress,"ax",%progbits
 1076              		.align	1
 1077              		.global	CyDmaTdGetAddress
 1078              		.thumb
 1079              		.thumb_func
 1080              		.type	CyDmaTdGetAddress, %function
 1081              	CyDmaTdGetAddress:
 1082              	.LFB22:
1030:.\Generated_Source\PSoC5/CyDmac.c **** 
1031:.\Generated_Source\PSoC5/CyDmac.c **** 
1032:.\Generated_Source\PSoC5/CyDmac.c **** /*******************************************************************************
1033:.\Generated_Source\PSoC5/CyDmac.c **** * Function Name: CyDmaTdGetAddress
1034:.\Generated_Source\PSoC5/CyDmac.c **** ********************************************************************************
1035:.\Generated_Source\PSoC5/CyDmac.c **** *
1036:.\Generated_Source\PSoC5/CyDmac.c **** * Summary:
1037:.\Generated_Source\PSoC5/CyDmac.c **** *  Retrieves the lower 16 bits of the source and/or destination addresses for
1038:.\Generated_Source\PSoC5/CyDmac.c **** *  this TD only. If NULL is passed for a pointer parameter, that value is
1039:.\Generated_Source\PSoC5/CyDmac.c **** *  skipped. You may request only the values of interest.
1040:.\Generated_Source\PSoC5/CyDmac.c **** *
1041:.\Generated_Source\PSoC5/CyDmac.c **** * Parameters:
1042:.\Generated_Source\PSoC5/CyDmac.c **** *  uint8 tdHandle:
1043:.\Generated_Source\PSoC5/CyDmac.c **** *   A handle previously returned by CyDmaTdAlloc().
1044:.\Generated_Source\PSoC5/CyDmac.c **** *
1045:.\Generated_Source\PSoC5/CyDmac.c **** *  uint16 * source:
1046:.\Generated_Source\PSoC5/CyDmac.c **** *   The address to store the lower 16 address bits of the source of the data
1047:.\Generated_Source\PSoC5/CyDmac.c **** *   transfer.
1048:.\Generated_Source\PSoC5/CyDmac.c **** *
1049:.\Generated_Source\PSoC5/CyDmac.c **** *  uint16 * destination:
1050:.\Generated_Source\PSoC5/CyDmac.c **** *   The address to store the lower 16 address bits of the destination of the
1051:.\Generated_Source\PSoC5/CyDmac.c **** *   data transfer.
ARM GAS  C:\Users\Yiquing\AppData\Local\Temp\ccE8adEp.s 			page 39


1052:.\Generated_Source\PSoC5/CyDmac.c **** *
1053:.\Generated_Source\PSoC5/CyDmac.c **** * Return:
1054:.\Generated_Source\PSoC5/CyDmac.c **** *  CYRET_SUCCESS if successful.
1055:.\Generated_Source\PSoC5/CyDmac.c **** *  CYRET_BAD_PARAM if tdHandle is invalid.
1056:.\Generated_Source\PSoC5/CyDmac.c **** *
1057:.\Generated_Source\PSoC5/CyDmac.c **** *******************************************************************************/
1058:.\Generated_Source\PSoC5/CyDmac.c **** cystatus CyDmaTdGetAddress(uint8 tdHandle, uint16 * source, uint16 * destination) 
1059:.\Generated_Source\PSoC5/CyDmac.c **** {
 1083              		.loc 1 1059 0
 1084              		.cfi_startproc
 1085              		@ args = 0, pretend = 0, frame = 0
 1086              		@ frame_needed = 0, uses_anonymous_args = 0
 1087              		@ link register save eliminated.
 1088              	.LVL116:
1060:.\Generated_Source\PSoC5/CyDmac.c ****     cystatus status = CYRET_BAD_PARAM;
1061:.\Generated_Source\PSoC5/CyDmac.c ****     reg16 *convert;
1062:.\Generated_Source\PSoC5/CyDmac.c **** 
1063:.\Generated_Source\PSoC5/CyDmac.c ****     if(tdHandle < CY_DMA_NUMBEROF_TDS)
 1089              		.loc 1 1063 0
 1090 0000 0306     		lsls	r3, r0, #24
 1091 0002 11D4     		bmi	.L124
1064:.\Generated_Source\PSoC5/CyDmac.c ****     {
1065:.\Generated_Source\PSoC5/CyDmac.c ****         /* If we have a pointer. */
1066:.\Generated_Source\PSoC5/CyDmac.c ****         if(NULL != source)
 1092              		.loc 1 1066 0
 1093 0004 31B1     		cbz	r1, .L123
1067:.\Generated_Source\PSoC5/CyDmac.c ****         {
1068:.\Generated_Source\PSoC5/CyDmac.c ****             /* Get source address */
1069:.\Generated_Source\PSoC5/CyDmac.c ****             convert = (reg16 *) &CY_DMA_TDMEM_STRUCT_PTR[tdHandle].TD1[0u];
 1094              		.loc 1 1069 0
 1095 0006 C300     		lsls	r3, r0, #3
 1096 0008 03F18043 		add	r3, r3, #1073741824
 1097 000c 03F5F043 		add	r3, r3, #30720
 1098              	.LVL117:
1070:.\Generated_Source\PSoC5/CyDmac.c ****             *source = CY_GET_REG16(convert);
 1099              		.loc 1 1070 0
 1100 0010 9B88     		ldrh	r3, [r3, #4]
 1101              	.LVL118:
 1102 0012 0B80     		strh	r3, [r1]	@ movhi
 1103              	.LVL119:
 1104              	.L123:
1071:.\Generated_Source\PSoC5/CyDmac.c ****         }
1072:.\Generated_Source\PSoC5/CyDmac.c **** 
1073:.\Generated_Source\PSoC5/CyDmac.c ****         /* If we have a pointer. */
1074:.\Generated_Source\PSoC5/CyDmac.c ****         if(NULL != destination)
 1105              		.loc 1 1074 0
 1106 0014 32B1     		cbz	r2, .L129
1075:.\Generated_Source\PSoC5/CyDmac.c ****         {
1076:.\Generated_Source\PSoC5/CyDmac.c ****             /* Get Destination address. */
1077:.\Generated_Source\PSoC5/CyDmac.c ****             convert = (reg16 *) &CY_DMA_TDMEM_STRUCT_PTR[tdHandle].TD1[2u];
 1107              		.loc 1 1077 0
 1108 0016 C000     		lsls	r0, r0, #3
 1109              	.LVL120:
 1110 0018 00F18040 		add	r0, r0, #1073741824
 1111 001c 00F5F040 		add	r0, r0, #30720
 1112              	.LVL121:
1078:.\Generated_Source\PSoC5/CyDmac.c ****             *destination = CY_GET_REG16(convert);
ARM GAS  C:\Users\Yiquing\AppData\Local\Temp\ccE8adEp.s 			page 40


 1113              		.loc 1 1078 0
 1114 0020 C388     		ldrh	r3, [r0, #6]
 1115 0022 1380     		strh	r3, [r2]	@ movhi
 1116              	.LVL122:
 1117              	.L129:
1079:.\Generated_Source\PSoC5/CyDmac.c ****         }
1080:.\Generated_Source\PSoC5/CyDmac.c **** 
1081:.\Generated_Source\PSoC5/CyDmac.c ****         status = CYRET_SUCCESS;
 1118              		.loc 1 1081 0
 1119 0024 0020     		movs	r0, #0
 1120 0026 7047     		bx	lr
 1121              	.LVL123:
 1122              	.L124:
1060:.\Generated_Source\PSoC5/CyDmac.c ****     cystatus status = CYRET_BAD_PARAM;
 1123              		.loc 1 1060 0
 1124 0028 0120     		movs	r0, #1
 1125              	.LVL124:
 1126 002a 7047     		bx	lr
 1127              		.cfi_endproc
 1128              	.LFE22:
 1129              		.size	CyDmaTdGetAddress, .-CyDmaTdGetAddress
 1130              		.section	.text.CyDmaChRoundRobin,"ax",%progbits
 1131              		.align	1
 1132              		.global	CyDmaChRoundRobin
 1133              		.thumb
 1134              		.thumb_func
 1135              		.type	CyDmaChRoundRobin, %function
 1136              	CyDmaChRoundRobin:
 1137              	.LFB23:
1082:.\Generated_Source\PSoC5/CyDmac.c ****     }
1083:.\Generated_Source\PSoC5/CyDmac.c **** 
1084:.\Generated_Source\PSoC5/CyDmac.c ****     return(status);
1085:.\Generated_Source\PSoC5/CyDmac.c **** }
1086:.\Generated_Source\PSoC5/CyDmac.c **** 
1087:.\Generated_Source\PSoC5/CyDmac.c **** 
1088:.\Generated_Source\PSoC5/CyDmac.c **** /*******************************************************************************
1089:.\Generated_Source\PSoC5/CyDmac.c **** * Function Name: CyDmaChRoundRobin
1090:.\Generated_Source\PSoC5/CyDmac.c **** ********************************************************************************
1091:.\Generated_Source\PSoC5/CyDmac.c **** *
1092:.\Generated_Source\PSoC5/CyDmac.c **** * Summary:
1093:.\Generated_Source\PSoC5/CyDmac.c **** *  Either enables or disables the Round-Robin scheduling enforcement algorithm.
1094:.\Generated_Source\PSoC5/CyDmac.c **** *  Within a priority level a Round-Robin fairness algorithm is enforced.
1095:.\Generated_Source\PSoC5/CyDmac.c **** *
1096:.\Generated_Source\PSoC5/CyDmac.c **** * Parameters:
1097:.\Generated_Source\PSoC5/CyDmac.c **** *  uint8 chHandle:
1098:.\Generated_Source\PSoC5/CyDmac.c **** *   A handle previously returned by CyDmaChAlloc() or Dma_DmaInitialize().
1099:.\Generated_Source\PSoC5/CyDmac.c **** *
1100:.\Generated_Source\PSoC5/CyDmac.c **** *  uint8 enableRR:
1101:.\Generated_Source\PSoC5/CyDmac.c **** *   0: Disable Round-Robin fairness algorithm
1102:.\Generated_Source\PSoC5/CyDmac.c **** *   1: Enable Round-Robin fairness algorithm
1103:.\Generated_Source\PSoC5/CyDmac.c **** *
1104:.\Generated_Source\PSoC5/CyDmac.c **** * Return:
1105:.\Generated_Source\PSoC5/CyDmac.c **** *  CYRET_SUCCESS if successful.
1106:.\Generated_Source\PSoC5/CyDmac.c **** *  CYRET_BAD_PARAM if chHandle is invalid.
1107:.\Generated_Source\PSoC5/CyDmac.c **** *
1108:.\Generated_Source\PSoC5/CyDmac.c **** *******************************************************************************/
1109:.\Generated_Source\PSoC5/CyDmac.c **** cystatus CyDmaChRoundRobin(uint8 chHandle, uint8 enableRR) 
ARM GAS  C:\Users\Yiquing\AppData\Local\Temp\ccE8adEp.s 			page 41


1110:.\Generated_Source\PSoC5/CyDmac.c **** {
 1138              		.loc 1 1110 0
 1139              		.cfi_startproc
 1140              		@ args = 0, pretend = 0, frame = 0
 1141              		@ frame_needed = 0, uses_anonymous_args = 0
 1142              		@ link register save eliminated.
 1143              	.LVL125:
1111:.\Generated_Source\PSoC5/CyDmac.c ****     cystatus status = CYRET_BAD_PARAM;
1112:.\Generated_Source\PSoC5/CyDmac.c **** 
1113:.\Generated_Source\PSoC5/CyDmac.c ****     if(chHandle < CY_DMA_NUMBEROF_CHANNELS)
 1144              		.loc 1 1113 0
 1145 0000 1728     		cmp	r0, #23
 1146 0002 0DD8     		bhi	.L133
 1147 0004 0201     		lsls	r2, r0, #4
 1148 0006 074B     		ldr	r3, .L135
1114:.\Generated_Source\PSoC5/CyDmac.c ****     {
1115:.\Generated_Source\PSoC5/CyDmac.c ****         if (0u != enableRR)
 1149              		.loc 1 1115 0
 1150 0008 29B1     		cbz	r1, .L132
1116:.\Generated_Source\PSoC5/CyDmac.c ****         {
1117:.\Generated_Source\PSoC5/CyDmac.c ****             CY_DMA_CH_STRUCT_PTR[chHandle].basic_cfg[0u] |= (uint8)CY_DMA_ROUND_ROBIN_ENABLE;
 1151              		.loc 1 1117 0
 1152 000a D15C     		ldrb	r1, [r2, r3]	@ zero_extendqisi2
 1153              	.LVL126:
 1154 000c 41F01001 		orr	r1, r1, #16
 1155 0010 D154     		strb	r1, [r2, r3]
 1156              	.LVL127:
 1157              	.L134:
1118:.\Generated_Source\PSoC5/CyDmac.c ****         }
1119:.\Generated_Source\PSoC5/CyDmac.c ****         else
1120:.\Generated_Source\PSoC5/CyDmac.c ****         {
1121:.\Generated_Source\PSoC5/CyDmac.c ****             CY_DMA_CH_STRUCT_PTR[chHandle].basic_cfg[0u] &= (uint8)(~CY_DMA_ROUND_ROBIN_ENABLE);
1122:.\Generated_Source\PSoC5/CyDmac.c ****         }
1123:.\Generated_Source\PSoC5/CyDmac.c **** 
1124:.\Generated_Source\PSoC5/CyDmac.c ****         status = CYRET_SUCCESS;
 1158              		.loc 1 1124 0
 1159 0012 0020     		movs	r0, #0
 1160 0014 7047     		bx	lr
 1161              	.LVL128:
 1162              	.L132:
1121:.\Generated_Source\PSoC5/CyDmac.c ****             CY_DMA_CH_STRUCT_PTR[chHandle].basic_cfg[0u] &= (uint8)(~CY_DMA_ROUND_ROBIN_ENABLE);
 1163              		.loc 1 1121 0
 1164 0016 D05C     		ldrb	r0, [r2, r3]	@ zero_extendqisi2
 1165              	.LVL129:
 1166 0018 00F0EF00 		and	r0, r0, #239
 1167 001c D054     		strb	r0, [r2, r3]
 1168 001e F8E7     		b	.L134
 1169              	.LVL130:
 1170              	.L133:
1111:.\Generated_Source\PSoC5/CyDmac.c ****     cystatus status = CYRET_BAD_PARAM;
 1171              		.loc 1 1111 0
 1172 0020 0120     		movs	r0, #1
 1173              	.LVL131:
1125:.\Generated_Source\PSoC5/CyDmac.c ****     }
1126:.\Generated_Source\PSoC5/CyDmac.c **** 
1127:.\Generated_Source\PSoC5/CyDmac.c ****     return(status);
1128:.\Generated_Source\PSoC5/CyDmac.c **** }
ARM GAS  C:\Users\Yiquing\AppData\Local\Temp\ccE8adEp.s 			page 42


 1174              		.loc 1 1128 0
 1175 0022 7047     		bx	lr
 1176              	.L136:
 1177              		.align	2
 1178              	.L135:
 1179 0024 10700040 		.word	1073770512
 1180              		.cfi_endproc
 1181              	.LFE23:
 1182              		.size	CyDmaChRoundRobin, .-CyDmaChRoundRobin
 1183              		.data
 1184              		.set	.LANCHOR0,. + 0
 1185              		.type	CyDmaTdFreeIndex, %object
 1186              		.size	CyDmaTdFreeIndex, 1
 1187              	CyDmaTdFreeIndex:
 1188 0000 7F       		.byte	127
 1189              		.type	CyDmaTdCurrentNumber, %object
 1190              		.size	CyDmaTdCurrentNumber, 1
 1191              	CyDmaTdCurrentNumber:
 1192 0001 80       		.byte	-128
 1193              		.bss
 1194              		.align	2
 1195              		.set	.LANCHOR1,. + 0
 1196              		.type	CyDmaChannels, %object
 1197              		.size	CyDmaChannels, 4
 1198              	CyDmaChannels:
 1199 0000 00000000 		.space	4
 1200              		.text
 1201              	.Letext0:
 1202              		.file 2 ".\\Generated_Source\\PSoC5\\cytypes.h"
 1203              		.file 3 ".\\Generated_Source\\PSoC5\\CyDmac.h"
 1204              		.file 4 ".\\Generated_Source\\PSoC5\\CyLib.h"