ARM GAS  C:\Users\yqh\AppData\Local\Temp\cc7msS7n.s 			page 1


   1              		.syntax unified
   2              		.cpu cortex-m3
   3              		.fpu softvfp
   4              		.eabi_attribute 20, 1
   5              		.eabi_attribute 21, 1
   6              		.eabi_attribute 23, 3
   7              		.eabi_attribute 24, 1
   8              		.eabi_attribute 25, 1
   9              		.eabi_attribute 26, 1
  10              		.eabi_attribute 30, 6
  11              		.eabi_attribute 34, 1
  12              		.eabi_attribute 18, 4
  13              		.thumb
  14              		.file	"inout.c"
  15              		.text
  16              	.Ltext0:
  17              		.cfi_sections	.debug_frame
  18              		.comm	s,40,4
  19              		.comm	currentAccessType,1,1
  20              		.comm	hw_old,1,1
  21              		.comm	tp_old,1,1
  22              		.comm	tamperCR_polarity,4,4
  23              		.comm	tamper_out_polarity,4,4
  24              		.comm	card_ack,4,4
  25              		.comm	card_in_buf,4,4
  26              		.section	.text.SetHardwareVals,"ax",%progbits
  27              		.align	2
  28              		.global	SetHardwareVals
  29              		.thumb
  30              		.thumb_func
  31              		.type	SetHardwareVals, %function
  32              	SetHardwareVals:
  33              	.LFB63:
  34              		.file 1 ".\\inout.c"
   1:.\inout.c     **** /* ========================================
   2:.\inout.c     ****  *
   3:.\inout.c     ****  * Copyright YOUR COMPANY, THE YEAR
   4:.\inout.c     ****  * All Rights Reserved
   5:.\inout.c     ****  * UNPUBLISHED, LICENSED SOFTWARE.
   6:.\inout.c     ****  *
   7:.\inout.c     ****  * CONFIDENTIAL AND PROPRIETARY INFORMATION
   8:.\inout.c     ****  * WHICH IS THE PROPERTY OF your company.
   9:.\inout.c     ****  *
  10:.\inout.c     ****  * ========================================
  11:.\inout.c     **** */
  12:.\inout.c     **** 
  13:.\inout.c     **** // GRI 1-13-2015 - Revised for 3.1.1;  TAMPER_OUT must not be set in SetHardwareVals - has been mov
  14:.\inout.c     **** // GRI 2-04-2015 - Revised for 3.1.5;  Extensive revision to input signal checker to add debounce/n
  15:.\inout.c     **** 
  16:.\inout.c     **** #include <project.h>
  17:.\inout.c     **** #include "system.h"
  18:.\inout.c     **** #include "i2cuart.h"
  19:.\inout.c     **** #include "toc.h"
  20:.\inout.c     **** 
  21:.\inout.c     **** //int pwr_cnt;
  22:.\inout.c     **** 
  23:.\inout.c     **** // this function reads the current settings from the file register 
ARM GAS  C:\Users\yqh\AppData\Local\Temp\cc7msS7n.s 			page 2


  24:.\inout.c     **** // and configures the outputs accordingly
  25:.\inout.c     **** void  SetHardwareVals(char val)
  26:.\inout.c     **** {
  35              		.loc 1 26 0
  36              		.cfi_startproc
  37              		@ args = 0, pretend = 0, frame = 8
  38              		@ frame_needed = 1, uses_anonymous_args = 0
  39 0000 80B5     		push	{r7, lr}
  40              		.cfi_def_cfa_offset 8
  41              		.cfi_offset 7, -8
  42              		.cfi_offset 14, -4
  43 0002 82B0     		sub	sp, sp, #8
  44              		.cfi_def_cfa_offset 16
  45 0004 00AF     		add	r7, sp, #0
  46              		.cfi_def_cfa_register 7
  47 0006 0346     		mov	r3, r0
  48 0008 FB71     		strb	r3, [r7, #7]
  27:.\inout.c     ****     // 1 - low ; 0 - high
  28:.\inout.c     **** 
  29:.\inout.c     ****     if((val&LED_OUT_RED) == LED_OUT_RED) 
  49              		.loc 1 29 0
  50 000a FB79     		ldrb	r3, [r7, #7]	@ zero_extendqisi2
  51 000c 03F00103 		and	r3, r3, #1
  52 0010 002B     		cmp	r3, #0
  53 0012 03D0     		beq	.L2
  30:.\inout.c     **** 	    LEDR_OUT_Write(1);
  54              		.loc 1 30 0
  55 0014 0120     		movs	r0, #1
  56 0016 FFF7FEFF 		bl	LEDR_OUT_Write
  57 001a 02E0     		b	.L3
  58              	.L2:
  31:.\inout.c     ****     else
  32:.\inout.c     ****         LEDR_OUT_Write(0);
  59              		.loc 1 32 0
  60 001c 0020     		movs	r0, #0
  61 001e FFF7FEFF 		bl	LEDR_OUT_Write
  62              	.L3:
  33:.\inout.c     ****         
  34:.\inout.c     ****     if((val&LED_OUT_GRN) == LED_OUT_GRN) 
  63              		.loc 1 34 0
  64 0022 FB79     		ldrb	r3, [r7, #7]	@ zero_extendqisi2
  65 0024 03F00203 		and	r3, r3, #2
  66 0028 002B     		cmp	r3, #0
  67 002a 03D0     		beq	.L4
  35:.\inout.c     **** 	    LEDG_OUT_Write(1);
  68              		.loc 1 35 0
  69 002c 0120     		movs	r0, #1
  70 002e FFF7FEFF 		bl	LEDG_OUT_Write
  71 0032 02E0     		b	.L5
  72              	.L4:
  36:.\inout.c     ****     else
  37:.\inout.c     ****         LEDG_OUT_Write(0);
  73              		.loc 1 37 0
  74 0034 0020     		movs	r0, #0
  75 0036 FFF7FEFF 		bl	LEDG_OUT_Write
  76              	.L5:
  38:.\inout.c     ****         
ARM GAS  C:\Users\yqh\AppData\Local\Temp\cc7msS7n.s 			page 3


  39:.\inout.c     **** 	if((val&SOUNDER_OUT) == SOUNDER_OUT) 
  77              		.loc 1 39 0
  78 003a FB79     		ldrb	r3, [r7, #7]	@ zero_extendqisi2
  79 003c 03F00403 		and	r3, r3, #4
  80 0040 002B     		cmp	r3, #0
  81 0042 03D0     		beq	.L6
  40:.\inout.c     **** 	    SOUND_OUT_Write(1);
  82              		.loc 1 40 0
  83 0044 0120     		movs	r0, #1
  84 0046 FFF7FEFF 		bl	SOUND_OUT_Write
  85 004a 02E0     		b	.L7
  86              	.L6:
  41:.\inout.c     ****     else
  42:.\inout.c     ****         SOUND_OUT_Write(0);
  87              		.loc 1 42 0
  88 004c 0020     		movs	r0, #0
  89 004e FFF7FEFF 		bl	SOUND_OUT_Write
  90              	.L7:
  43:.\inout.c     **** 
  44:.\inout.c     ****     // TAMPER_OUT logic is now moved to HandleInputs.  (GRI 1-13-15, 2-3-15)
  45:.\inout.c     ****     // TAMPER_POL is incoming webconfig polarity bit for CR tamper.
  46:.\inout.c     ****     if((val&TAMPERCR_POL) == TAMPERCR_POL)  
  91              		.loc 1 46 0
  92 0052 FB79     		ldrb	r3, [r7, #7]	@ zero_extendqisi2
  93 0054 03F00803 		and	r3, r3, #8
  94 0058 002B     		cmp	r3, #0
  95 005a 03D0     		beq	.L8
  47:.\inout.c     ****         tamperCR_polarity = 1;
  96              		.loc 1 47 0
  97 005c 164B     		ldr	r3, .L16
  98 005e 0122     		movs	r2, #1
  99 0060 1A60     		str	r2, [r3]
 100 0062 02E0     		b	.L9
 101              	.L8:
  48:.\inout.c     ****     else
  49:.\inout.c     ****         tamperCR_polarity = 0;
 102              		.loc 1 49 0
 103 0064 144B     		ldr	r3, .L16
 104 0066 0022     		movs	r2, #0
 105 0068 1A60     		str	r2, [r3]
 106              	.L9:
  50:.\inout.c     ****                 
  51:.\inout.c     ****     if((val&RELAY_1_OUT) == RELAY_1_OUT) 
 107              		.loc 1 51 0
 108 006a FB79     		ldrb	r3, [r7, #7]	@ zero_extendqisi2
 109 006c 03F01003 		and	r3, r3, #16
 110 0070 002B     		cmp	r3, #0
 111 0072 03D0     		beq	.L10
  52:.\inout.c     ****         RELAY_A_Write(1);
 112              		.loc 1 52 0
 113 0074 0120     		movs	r0, #1
 114 0076 FFF7FEFF 		bl	RELAY_A_Write
 115 007a 02E0     		b	.L11
 116              	.L10:
  53:.\inout.c     ****     else
  54:.\inout.c     ****         RELAY_A_Write(0);
 117              		.loc 1 54 0
ARM GAS  C:\Users\yqh\AppData\Local\Temp\cc7msS7n.s 			page 4


 118 007c 0020     		movs	r0, #0
 119 007e FFF7FEFF 		bl	RELAY_A_Write
 120              	.L11:
  55:.\inout.c     ****         
  56:.\inout.c     ****     if((val&RELAY_2_OUT) == RELAY_2_OUT) 
 121              		.loc 1 56 0
 122 0082 FB79     		ldrb	r3, [r7, #7]	@ zero_extendqisi2
 123 0084 03F02003 		and	r3, r3, #32
 124 0088 002B     		cmp	r3, #0
 125 008a 03D0     		beq	.L12
  57:.\inout.c     ****         RELAY_B_Write(1);
 126              		.loc 1 57 0
 127 008c 0120     		movs	r0, #1
 128 008e FFF7FEFF 		bl	RELAY_B_Write
 129 0092 02E0     		b	.L13
 130              	.L12:
  58:.\inout.c     ****     else
  59:.\inout.c     ****         RELAY_B_Write(0);
 131              		.loc 1 59 0
 132 0094 0020     		movs	r0, #0
 133 0096 FFF7FEFF 		bl	RELAY_B_Write
 134              	.L13:
  60:.\inout.c     **** 	
  61:.\inout.c     ****     if((val&TAMPER_OUT) == TAMPER_OUT)  
 135              		.loc 1 61 0
 136 009a FB79     		ldrb	r3, [r7, #7]	@ zero_extendqisi2
 137 009c 03F04003 		and	r3, r3, #64
 138 00a0 002B     		cmp	r3, #0
 139 00a2 03D0     		beq	.L14
  62:.\inout.c     ****         tamper_out_polarity = 0;  //0 is high, same as input.
 140              		.loc 1 62 0
 141 00a4 054B     		ldr	r3, .L16+4
 142 00a6 0022     		movs	r2, #0
 143 00a8 1A60     		str	r2, [r3]
 144 00aa 02E0     		b	.L1
 145              	.L14:
  63:.\inout.c     ****     else
  64:.\inout.c     ****         tamper_out_polarity = 1;
 146              		.loc 1 64 0
 147 00ac 034B     		ldr	r3, .L16+4
 148 00ae 0122     		movs	r2, #1
 149 00b0 1A60     		str	r2, [r3]
 150              	.L1:
  65:.\inout.c     **** 
  66:.\inout.c     **** } 
 151              		.loc 1 66 0
 152 00b2 0837     		adds	r7, r7, #8
 153              		.cfi_def_cfa_offset 8
 154 00b4 BD46     		mov	sp, r7
 155              		.cfi_def_cfa_register 13
 156              		@ sp needed
 157 00b6 80BD     		pop	{r7, pc}
 158              	.L17:
 159              		.align	2
 160              	.L16:
 161 00b8 00000000 		.word	tamperCR_polarity
 162 00bc 00000000 		.word	tamper_out_polarity
ARM GAS  C:\Users\yqh\AppData\Local\Temp\cc7msS7n.s 			page 5


 163              		.cfi_endproc
 164              	.LFE63:
 165              		.size	SetHardwareVals, .-SetHardwareVals
 166              		.section	.text.GetHardwareVals,"ax",%progbits
 167              		.align	2
 168              		.global	GetHardwareVals
 169              		.thumb
 170              		.thumb_func
 171              		.type	GetHardwareVals, %function
 172              	GetHardwareVals:
 173              	.LFB64:
  67:.\inout.c     **** 
  68:.\inout.c     **** 
  69:.\inout.c     **** 
  70:.\inout.c     **** uint8 GetHardwareVals()
  71:.\inout.c     **** {
 174              		.loc 1 71 0
 175              		.cfi_startproc
 176              		@ args = 0, pretend = 0, frame = 8
 177              		@ frame_needed = 1, uses_anonymous_args = 0
 178 0000 80B5     		push	{r7, lr}
 179              		.cfi_def_cfa_offset 8
 180              		.cfi_offset 7, -8
 181              		.cfi_offset 14, -4
 182 0002 82B0     		sub	sp, sp, #8
 183              		.cfi_def_cfa_offset 16
 184 0004 00AF     		add	r7, sp, #0
 185              		.cfi_def_cfa_register 7
  72:.\inout.c     **** 	uint8 val = 0xFF;
 186              		.loc 1 72 0
 187 0006 FF23     		movs	r3, #255
 188 0008 FB71     		strb	r3, [r7, #7]
  73:.\inout.c     **** 	
  74:.\inout.c     **** 	if (LEDR_IN_Read() == 1)
 189              		.loc 1 74 0
 190 000a FFF7FEFF 		bl	LEDR_IN_Read
 191 000e 0346     		mov	r3, r0
 192 0010 012B     		cmp	r3, #1
 193 0012 04D1     		bne	.L19
  75:.\inout.c     **** 	    val |= LED_IN_RED;
 194              		.loc 1 75 0
 195 0014 FB79     		ldrb	r3, [r7, #7]
 196 0016 43F00103 		orr	r3, r3, #1
 197 001a FB71     		strb	r3, [r7, #7]
 198 001c 03E0     		b	.L20
 199              	.L19:
  76:.\inout.c     ****     else
  77:.\inout.c     ****         val &= ~LED_IN_RED;
 200              		.loc 1 77 0
 201 001e FB79     		ldrb	r3, [r7, #7]
 202 0020 23F00103 		bic	r3, r3, #1
 203 0024 FB71     		strb	r3, [r7, #7]
 204              	.L20:
  78:.\inout.c     ****     
  79:.\inout.c     **** 	if (LEDG_IN_Read() == 1)
 205              		.loc 1 79 0
 206 0026 FFF7FEFF 		bl	LEDG_IN_Read
ARM GAS  C:\Users\yqh\AppData\Local\Temp\cc7msS7n.s 			page 6


 207 002a 0346     		mov	r3, r0
 208 002c 012B     		cmp	r3, #1
 209 002e 04D1     		bne	.L21
  80:.\inout.c     **** 	    val |= LED_IN_GRN;
 210              		.loc 1 80 0
 211 0030 FB79     		ldrb	r3, [r7, #7]
 212 0032 43F00203 		orr	r3, r3, #2
 213 0036 FB71     		strb	r3, [r7, #7]
 214 0038 03E0     		b	.L22
 215              	.L21:
  81:.\inout.c     ****     else
  82:.\inout.c     ****        val &= ~LED_IN_GRN; 
 216              		.loc 1 82 0
 217 003a FB79     		ldrb	r3, [r7, #7]
 218 003c 23F00203 		bic	r3, r3, #2
 219 0040 FB71     		strb	r3, [r7, #7]
 220              	.L22:
  83:.\inout.c     **** 
  84:.\inout.c     **** 	if (SOUND_IN_Read() == 1)
 221              		.loc 1 84 0
 222 0042 FFF7FEFF 		bl	SOUND_IN_Read
 223 0046 0346     		mov	r3, r0
 224 0048 012B     		cmp	r3, #1
 225 004a 04D1     		bne	.L23
  85:.\inout.c     **** 	   val |= SOUNDER_IN;
 226              		.loc 1 85 0
 227 004c FB79     		ldrb	r3, [r7, #7]
 228 004e 43F00403 		orr	r3, r3, #4
 229 0052 FB71     		strb	r3, [r7, #7]
 230 0054 03E0     		b	.L24
 231              	.L23:
  86:.\inout.c     ****     else
  87:.\inout.c     ****        val &= ~SOUNDER_IN;
 232              		.loc 1 87 0
 233 0056 FB79     		ldrb	r3, [r7, #7]
 234 0058 23F00403 		bic	r3, r3, #4
 235 005c FB71     		strb	r3, [r7, #7]
 236              	.L24:
  88:.\inout.c     ****     
  89:.\inout.c     ****     return val;
 237              		.loc 1 89 0
 238 005e FB79     		ldrb	r3, [r7, #7]	@ zero_extendqisi2
  90:.\inout.c     **** }
 239              		.loc 1 90 0
 240 0060 1846     		mov	r0, r3
 241 0062 0837     		adds	r7, r7, #8
 242              		.cfi_def_cfa_offset 8
 243 0064 BD46     		mov	sp, r7
 244              		.cfi_def_cfa_register 13
 245              		@ sp needed
 246 0066 80BD     		pop	{r7, pc}
 247              		.cfi_endproc
 248              	.LFE64:
 249              		.size	GetHardwareVals, .-GetHardwareVals
 250              		.section	.text.GetResetButton,"ax",%progbits
 251              		.align	2
 252              		.global	GetResetButton
ARM GAS  C:\Users\yqh\AppData\Local\Temp\cc7msS7n.s 			page 7


 253              		.thumb
 254              		.thumb_func
 255              		.type	GetResetButton, %function
 256              	GetResetButton:
 257              	.LFB65:
  91:.\inout.c     **** 
  92:.\inout.c     **** 
  93:.\inout.c     **** uint8 GetResetButton()
  94:.\inout.c     **** {
 258              		.loc 1 94 0
 259              		.cfi_startproc
 260              		@ args = 0, pretend = 0, frame = 8
 261              		@ frame_needed = 1, uses_anonymous_args = 0
 262 0000 80B5     		push	{r7, lr}
 263              		.cfi_def_cfa_offset 8
 264              		.cfi_offset 7, -8
 265              		.cfi_offset 14, -4
 266 0002 82B0     		sub	sp, sp, #8
 267              		.cfi_def_cfa_offset 16
 268 0004 00AF     		add	r7, sp, #0
 269              		.cfi_def_cfa_register 7
  95:.\inout.c     **** 	uint8 val = 0;
 270              		.loc 1 95 0
 271 0006 0023     		movs	r3, #0
 272 0008 FB71     		strb	r3, [r7, #7]
  96:.\inout.c     ****     
  97:.\inout.c     ****     if (buttonReleased){
 273              		.loc 1 97 0
 274 000a 234B     		ldr	r3, .L31
 275 000c 1B78     		ldrb	r3, [r3]	@ zero_extendqisi2
 276 000e 002B     		cmp	r3, #0
 277 0010 3DD0     		beq	.L27
  98:.\inout.c     ****         buttonReleased = 0;
 278              		.loc 1 98 0
 279 0012 214B     		ldr	r3, .L31
 280 0014 0022     		movs	r2, #0
 281 0016 1A70     		strb	r2, [r3]
  99:.\inout.c     ****         if(buttonDuration < FCTRYRST_TIME_MS){ //less than 5 seconds, ignore
 282              		.loc 1 99 0
 283 0018 204B     		ldr	r3, .L31+4
 284 001a 1B68     		ldr	r3, [r3]
 285 001c 41F28732 		movw	r2, #4999
 286 0020 9342     		cmp	r3, r2
 287 0022 05DC     		bgt	.L28
 100:.\inout.c     ****             val = 0; 
 288              		.loc 1 100 0
 289 0024 0023     		movs	r3, #0
 290 0026 FB71     		strb	r3, [r7, #7]
 101:.\inout.c     ****             MyI2C_Regs.factory_reset = 0;
 291              		.loc 1 101 0
 292 0028 1D4B     		ldr	r3, .L31+8
 293 002a 0022     		movs	r2, #0
 294 002c 9A71     		strb	r2, [r3, #6]
 295 002e 2EE0     		b	.L27
 296              	.L28:
 102:.\inout.c     ****         }else if(buttonDuration >=FCTRYRST_TIME_MS && buttonDuration < RSTR_TIME_MS){ //5~45 second
 297              		.loc 1 102 0
ARM GAS  C:\Users\yqh\AppData\Local\Temp\cc7msS7n.s 			page 8


 298 0030 1A4B     		ldr	r3, .L31+4
 299 0032 1B68     		ldr	r3, [r3]
 300 0034 41F28732 		movw	r2, #4999
 301 0038 9342     		cmp	r3, r2
 302 003a 14DD     		ble	.L29
 303              		.loc 1 102 0 is_stmt 0 discriminator 1
 304 003c 174B     		ldr	r3, .L31+4
 305 003e 1B68     		ldr	r3, [r3]
 306 0040 4AF6C772 		movw	r2, #44999
 307 0044 9342     		cmp	r3, r2
 308 0046 0EDC     		bgt	.L29
 103:.\inout.c     ****             LED_RED_Write(ON);
 309              		.loc 1 103 0 is_stmt 1
 310 0048 0020     		movs	r0, #0
 311 004a FFF7FEFF 		bl	LED_RED_Write
 104:.\inout.c     ****             LED_GRN_Write(ON);
 312              		.loc 1 104 0
 313 004e 0020     		movs	r0, #0
 314 0050 FFF7FEFF 		bl	LED_GRN_Write
 105:.\inout.c     ****             LED_YEL_Write(ON);
 315              		.loc 1 105 0
 316 0054 0020     		movs	r0, #0
 317 0056 FFF7FEFF 		bl	LED_YEL_Write
 106:.\inout.c     ****             val = BTN_STATUS_CHG | FCTRY_RST;  // active reset initiated
 318              		.loc 1 106 0
 319 005a 0323     		movs	r3, #3
 320 005c FB71     		strb	r3, [r7, #7]
 107:.\inout.c     ****             MyI2C_Regs.factory_reset = FACRST_CODE;
 321              		.loc 1 107 0
 322 005e 104B     		ldr	r3, .L31+8
 323 0060 C622     		movs	r2, #198
 324 0062 9A71     		strb	r2, [r3, #6]
 325 0064 13E0     		b	.L27
 326              	.L29:
 108:.\inout.c     ****         }else if(buttonDuration>=RSTR_TIME_MS){ //45 or more seconds, factory restore
 327              		.loc 1 108 0
 328 0066 0D4B     		ldr	r3, .L31+4
 329 0068 1B68     		ldr	r3, [r3]
 330 006a 4AF6C772 		movw	r2, #44999
 331 006e 9342     		cmp	r3, r2
 332 0070 0DDD     		ble	.L27
 109:.\inout.c     ****             LED_RED_Write(ON);
 333              		.loc 1 109 0
 334 0072 0020     		movs	r0, #0
 335 0074 FFF7FEFF 		bl	LED_RED_Write
 110:.\inout.c     ****             LED_GRN_Write(ON);
 336              		.loc 1 110 0
 337 0078 0020     		movs	r0, #0
 338 007a FFF7FEFF 		bl	LED_GRN_Write
 111:.\inout.c     ****             LED_YEL_Write(ON);
 339              		.loc 1 111 0
 340 007e 0020     		movs	r0, #0
 341 0080 FFF7FEFF 		bl	LED_YEL_Write
 112:.\inout.c     ****             val = BTN_STATUS_CHG | FCTRY_RSTR; 
 342              		.loc 1 112 0
 343 0084 0523     		movs	r3, #5
 344 0086 FB71     		strb	r3, [r7, #7]
ARM GAS  C:\Users\yqh\AppData\Local\Temp\cc7msS7n.s 			page 9


 113:.\inout.c     ****             MyI2C_Regs.factory_reset = RESTRE_CODE;
 345              		.loc 1 113 0
 346 0088 054B     		ldr	r3, .L31+8
 347 008a 9922     		movs	r2, #153
 348 008c 9A71     		strb	r2, [r3, #6]
 349              	.L27:
 114:.\inout.c     ****         }
 115:.\inout.c     ****     }
 116:.\inout.c     ****     return val;
 350              		.loc 1 116 0
 351 008e FB79     		ldrb	r3, [r7, #7]	@ zero_extendqisi2
 117:.\inout.c     **** }
 352              		.loc 1 117 0
 353 0090 1846     		mov	r0, r3
 354 0092 0837     		adds	r7, r7, #8
 355              		.cfi_def_cfa_offset 8
 356 0094 BD46     		mov	sp, r7
 357              		.cfi_def_cfa_register 13
 358              		@ sp needed
 359 0096 80BD     		pop	{r7, pc}
 360              	.L32:
 361              		.align	2
 362              	.L31:
 363 0098 00000000 		.word	buttonReleased
 364 009c 00000000 		.word	buttonDuration
 365 00a0 00000000 		.word	MyI2C_Regs
 366              		.cfi_endproc
 367              	.LFE65:
 368              		.size	GetResetButton, .-GetResetButton
 369              		.section	.text.GetTamperVals,"ax",%progbits
 370              		.align	2
 371              		.global	GetTamperVals
 372              		.thumb
 373              		.thumb_func
 374              		.type	GetTamperVals, %function
 375              	GetTamperVals:
 376              	.LFB66:
 118:.\inout.c     **** 
 119:.\inout.c     **** uint8 GetTamperVals()
 120:.\inout.c     **** {
 377              		.loc 1 120 0
 378              		.cfi_startproc
 379              		@ args = 0, pretend = 0, frame = 8
 380              		@ frame_needed = 1, uses_anonymous_args = 0
 381 0000 80B5     		push	{r7, lr}
 382              		.cfi_def_cfa_offset 8
 383              		.cfi_offset 7, -8
 384              		.cfi_offset 14, -4
 385 0002 82B0     		sub	sp, sp, #8
 386              		.cfi_def_cfa_offset 16
 387 0004 00AF     		add	r7, sp, #0
 388              		.cfi_def_cfa_register 7
 121:.\inout.c     **** 	uint8 val = 0;
 389              		.loc 1 121 0
 390 0006 0023     		movs	r3, #0
 391 0008 FB71     		strb	r3, [r7, #7]
 122:.\inout.c     **** 	
ARM GAS  C:\Users\yqh\AppData\Local\Temp\cc7msS7n.s 			page 10


 123:.\inout.c     ****     if (TAMPER_IN_Read() == 1)   // Tamper coming from Card Reader
 392              		.loc 1 123 0
 393 000a FFF7FEFF 		bl	TAMPER_IN_Read
 394 000e 0346     		mov	r3, r0
 395 0010 012B     		cmp	r3, #1
 396 0012 04D1     		bne	.L34
 124:.\inout.c     ****         val &= ~TAMPERCR_IN;  //set register bit to 0
 397              		.loc 1 124 0
 398 0014 FB79     		ldrb	r3, [r7, #7]
 399 0016 23F00103 		bic	r3, r3, #1
 400 001a FB71     		strb	r3, [r7, #7]
 401 001c 03E0     		b	.L35
 402              	.L34:
 125:.\inout.c     ****     else
 126:.\inout.c     **** 	    val |= TAMPERCR_IN;   //set register bit to 1
 403              		.loc 1 126 0
 404 001e FB79     		ldrb	r3, [r7, #7]
 405 0020 43F00103 		orr	r3, r3, #1
 406 0024 FB71     		strb	r3, [r7, #7]
 407              	.L35:
 127:.\inout.c     ****    
 128:.\inout.c     ****     if(REED_1_Read() == 1)  // Reed Switch 1 - local ICM tamper
 408              		.loc 1 128 0
 409 0026 FFF7FEFF 		bl	REED_1_Read
 410 002a 0346     		mov	r3, r0
 411 002c 012B     		cmp	r3, #1
 412 002e 04D1     		bne	.L36
 129:.\inout.c     ****       val &= ~REED_1_IN;
 413              		.loc 1 129 0
 414 0030 FB79     		ldrb	r3, [r7, #7]
 415 0032 23F00203 		bic	r3, r3, #2
 416 0036 FB71     		strb	r3, [r7, #7]
 417 0038 03E0     		b	.L37
 418              	.L36:
 130:.\inout.c     ****     else
 131:.\inout.c     ****       val |= REED_1_IN;
 419              		.loc 1 131 0
 420 003a FB79     		ldrb	r3, [r7, #7]
 421 003c 43F00203 		orr	r3, r3, #2
 422 0040 FB71     		strb	r3, [r7, #7]
 423              	.L37:
 132:.\inout.c     **** 
 133:.\inout.c     ****     val &= ~REED_2_IN; // REED_2 is always set to 0 while defeated - remove this when re-enabled
 424              		.loc 1 133 0
 425 0042 FB79     		ldrb	r3, [r7, #7]
 426 0044 23F00403 		bic	r3, r3, #4
 427 0048 FB71     		strb	r3, [r7, #7]
 134:.\inout.c     ****    
 135:.\inout.c     ****     return val;
 428              		.loc 1 135 0
 429 004a FB79     		ldrb	r3, [r7, #7]	@ zero_extendqisi2
 136:.\inout.c     **** }
 430              		.loc 1 136 0
 431 004c 1846     		mov	r0, r3
 432 004e 0837     		adds	r7, r7, #8
 433              		.cfi_def_cfa_offset 8
 434 0050 BD46     		mov	sp, r7
ARM GAS  C:\Users\yqh\AppData\Local\Temp\cc7msS7n.s 			page 11


 435              		.cfi_def_cfa_register 13
 436              		@ sp needed
 437 0052 80BD     		pop	{r7, pc}
 438              		.cfi_endproc
 439              	.LFE66:
 440              		.size	GetTamperVals, .-GetTamperVals
 441              		.section	.text.HandleOutputs,"ax",%progbits
 442              		.align	2
 443              		.global	HandleOutputs
 444              		.thumb
 445              		.thumb_func
 446              		.type	HandleOutputs, %function
 447              	HandleOutputs:
 448              	.LFB67:
 137:.\inout.c     **** 
 138:.\inout.c     **** void  HandleOutputs()   // this executes every 1 ms on Tamper_Timer_ISR_Interrupt
 139:.\inout.c     **** {
 449              		.loc 1 139 0
 450              		.cfi_startproc
 451              		@ args = 0, pretend = 0, frame = 8
 452              		@ frame_needed = 1, uses_anonymous_args = 0
 453 0000 80B5     		push	{r7, lr}
 454              		.cfi_def_cfa_offset 8
 455              		.cfi_offset 7, -8
 456              		.cfi_offset 14, -4
 457 0002 82B0     		sub	sp, sp, #8
 458              		.cfi_def_cfa_offset 16
 459 0004 00AF     		add	r7, sp, #0
 460              		.cfi_def_cfa_register 7
 140:.\inout.c     **** 	char stat = MyI2C_Regs.status_in;
 461              		.loc 1 140 0
 462 0006 124B     		ldr	r3, .L43
 463 0008 5B78     		ldrb	r3, [r3, #1]
 464 000a FB71     		strb	r3, [r7, #7]
 141:.\inout.c     ****     if( stat & STAT_CHANGE)
 465              		.loc 1 141 0
 466 000c FB79     		ldrb	r3, [r7, #7]	@ zero_extendqisi2
 467 000e 03F00103 		and	r3, r3, #1
 468 0012 002B     		cmp	r3, #0
 469 0014 19D0     		beq	.L39
 142:.\inout.c     ****     {
 143:.\inout.c     ****         if(stat & STAT_ACS_OUT)
 470              		.loc 1 143 0
 471 0016 FB79     		ldrb	r3, [r7, #7]	@ zero_extendqisi2
 472 0018 03F00203 		and	r3, r3, #2
 473 001c 002B     		cmp	r3, #0
 474 001e 04D0     		beq	.L41
 144:.\inout.c     ****            SetHardwareVals(MyI2C_Regs.acs_inputs);
 475              		.loc 1 144 0
 476 0020 0B4B     		ldr	r3, .L43
 477 0022 5B79     		ldrb	r3, [r3, #5]	@ zero_extendqisi2
 478 0024 1846     		mov	r0, r3
 479 0026 FFF7FEFF 		bl	SetHardwareVals
 480              	.L41:
 145:.\inout.c     ****         
 146:.\inout.c     ****         if(stat & STAT_CARD_ACK){
 481              		.loc 1 146 0
ARM GAS  C:\Users\yqh\AppData\Local\Temp\cc7msS7n.s 			page 12


 482 002a FB79     		ldrb	r3, [r7, #7]	@ zero_extendqisi2
 483 002c 03F00803 		and	r3, r3, #8
 484 0030 002B     		cmp	r3, #0
 485 0032 07D0     		beq	.L42
 147:.\inout.c     ****             MyI2C_Regs.status_in = 0;
 486              		.loc 1 147 0
 487 0034 064B     		ldr	r3, .L43
 488 0036 0022     		movs	r2, #0
 489 0038 5A70     		strb	r2, [r3, #1]
 148:.\inout.c     ****             card_ack = 1; //acked
 490              		.loc 1 148 0
 491 003a 064B     		ldr	r3, .L43+4
 492 003c 0122     		movs	r2, #1
 493 003e 1A60     		str	r2, [r3]
 149:.\inout.c     ****             resetImgBuf();
 494              		.loc 1 149 0
 495 0040 FFF7FEFF 		bl	resetImgBuf
 496              	.L42:
 150:.\inout.c     ****         }
 151:.\inout.c     ****         MyI2C_Regs.status_in = 0; 
 497              		.loc 1 151 0
 498 0044 024B     		ldr	r3, .L43
 499 0046 0022     		movs	r2, #0
 500 0048 5A70     		strb	r2, [r3, #1]
 501              	.L39:
 152:.\inout.c     ****     }
 153:.\inout.c     ****     
 154:.\inout.c     **** }
 502              		.loc 1 154 0
 503 004a 0837     		adds	r7, r7, #8
 504              		.cfi_def_cfa_offset 8
 505 004c BD46     		mov	sp, r7
 506              		.cfi_def_cfa_register 13
 507              		@ sp needed
 508 004e 80BD     		pop	{r7, pc}
 509              	.L44:
 510              		.align	2
 511              	.L43:
 512 0050 00000000 		.word	MyI2C_Regs
 513 0054 00000000 		.word	card_ack
 514              		.cfi_endproc
 515              	.LFE67:
 516              		.size	HandleOutputs, .-HandleOutputs
 517              		.section	.text.HandleInputs,"ax",%progbits
 518              		.align	2
 519              		.global	HandleInputs
 520              		.thumb
 521              		.thumb_func
 522              		.type	HandleInputs, %function
 523              	HandleInputs:
 524              	.LFB68:
 155:.\inout.c     **** 
 156:.\inout.c     **** 
 157:.\inout.c     **** void HandleInputs()   // this executes every 1 ms on Tamper_Timer_ISR_Interrupt
 158:.\inout.c     **** {
 525              		.loc 1 158 0
 526              		.cfi_startproc
ARM GAS  C:\Users\yqh\AppData\Local\Temp\cc7msS7n.s 			page 13


 527              		@ args = 0, pretend = 0, frame = 8
 528              		@ frame_needed = 1, uses_anonymous_args = 0
 529 0000 80B5     		push	{r7, lr}
 530              		.cfi_def_cfa_offset 8
 531              		.cfi_offset 7, -8
 532              		.cfi_offset 14, -4
 533 0002 82B0     		sub	sp, sp, #8
 534              		.cfi_def_cfa_offset 16
 535 0004 00AF     		add	r7, sp, #0
 536              		.cfi_def_cfa_register 7
 159:.\inout.c     ****     char first_read;
 160:.\inout.c     ****     char second_read;
 161:.\inout.c     ****     /* TAMPER OUT signal to ACS Panel  GRI 1-13-15
 162:.\inout.c     ****        this accounts for configuration of tamper input from card reader  GRI 1-13-15 */
 163:.\inout.c     ****     if( (REED_1_Read() == 0)  
 537              		.loc 1 163 0
 538 0006 FFF7FEFF 		bl	REED_1_Read
 539 000a 0346     		mov	r3, r0
 540 000c 002B     		cmp	r3, #0
 541 000e 11D0     		beq	.L46
 164:.\inout.c     ****         /*   || (REED_2_Read() == 0)  // disabled GRI 2-4-15 */
 165:.\inout.c     ****         || ((TAMPER_IN_Read() == 0) && (tamperCR_polarity == 1)) 
 542              		.loc 1 165 0
 543 0010 FFF7FEFF 		bl	TAMPER_IN_Read
 544 0014 0346     		mov	r3, r0
 545 0016 002B     		cmp	r3, #0
 546 0018 03D1     		bne	.L47
 547              		.loc 1 165 0 is_stmt 0 discriminator 1
 548 001a 3C4B     		ldr	r3, .L57
 549 001c 1B68     		ldr	r3, [r3]
 550 001e 012B     		cmp	r3, #1
 551 0020 08D0     		beq	.L46
 552              	.L47:
 166:.\inout.c     ****         || ((TAMPER_IN_Read() == 1) && (tamperCR_polarity == 0)) )  
 553              		.loc 1 166 0 is_stmt 1
 554 0022 FFF7FEFF 		bl	TAMPER_IN_Read
 555 0026 0346     		mov	r3, r0
 556 0028 012B     		cmp	r3, #1
 557 002a 12D1     		bne	.L48
 558              		.loc 1 166 0 is_stmt 0 discriminator 1
 559 002c 374B     		ldr	r3, .L57
 560 002e 1B68     		ldr	r3, [r3]
 561 0030 002B     		cmp	r3, #0
 562 0032 0ED1     		bne	.L48
 563              	.L46:
 167:.\inout.c     ****         
 168:.\inout.c     ****     {
 169:.\inout.c     ****         if (tamper_out_polarity)
 564              		.loc 1 169 0 is_stmt 1
 565 0034 364B     		ldr	r3, .L57+4
 566 0036 1B68     		ldr	r3, [r3]
 567 0038 002B     		cmp	r3, #0
 568 003a 03D0     		beq	.L49
 170:.\inout.c     ****             TAMPER_OUT_Write(TAMPERHIGH); 
 569              		.loc 1 170 0
 570 003c 0020     		movs	r0, #0
 571 003e FFF7FEFF 		bl	TAMPER_OUT_Write
ARM GAS  C:\Users\yqh\AppData\Local\Temp\cc7msS7n.s 			page 14


 572 0042 02E0     		b	.L50
 573              	.L49:
 171:.\inout.c     ****         else
 172:.\inout.c     ****             TAMPER_OUT_Write(TAMPERLOW);
 574              		.loc 1 172 0
 575 0044 0120     		movs	r0, #1
 576 0046 FFF7FEFF 		bl	TAMPER_OUT_Write
 577              	.L50:
 173:.\inout.c     ****         LED_RED_Write(ON); //LED on
 578              		.loc 1 173 0
 579 004a 0020     		movs	r0, #0
 580 004c FFF7FEFF 		bl	LED_RED_Write
 581 0050 0DE0     		b	.L51
 582              	.L48:
 174:.\inout.c     ****     }
 175:.\inout.c     ****     else
 176:.\inout.c     ****     {
 177:.\inout.c     ****         if(tamper_out_polarity)
 583              		.loc 1 177 0
 584 0052 2F4B     		ldr	r3, .L57+4
 585 0054 1B68     		ldr	r3, [r3]
 586 0056 002B     		cmp	r3, #0
 587 0058 03D0     		beq	.L52
 178:.\inout.c     ****             TAMPER_OUT_Write(TAMPERLOW); 
 588              		.loc 1 178 0
 589 005a 0120     		movs	r0, #1
 590 005c FFF7FEFF 		bl	TAMPER_OUT_Write
 591 0060 02E0     		b	.L53
 592              	.L52:
 179:.\inout.c     ****         else
 180:.\inout.c     ****             TAMPER_OUT_Write(TAMPERHIGH);
 593              		.loc 1 180 0
 594 0062 0020     		movs	r0, #0
 595 0064 FFF7FEFF 		bl	TAMPER_OUT_Write
 596              	.L53:
 181:.\inout.c     ****         LED_RED_Write(OFF); //LED off
 597              		.loc 1 181 0
 598 0068 0120     		movs	r0, #1
 599 006a FFF7FEFF 		bl	LED_RED_Write
 600              	.L51:
 182:.\inout.c     ****     }
 183:.\inout.c     **** 
 184:.\inout.c     ****     //This section checks for input signal changes
 185:.\inout.c     ****     first_read = GetHardwareVals();  // read inputs first time
 601              		.loc 1 185 0
 602 006e FFF7FEFF 		bl	GetHardwareVals
 603 0072 0346     		mov	r3, r0
 604 0074 FB71     		strb	r3, [r7, #7]
 186:.\inout.c     **** 	if (first_read != hw_old)  //change occurred?
 605              		.loc 1 186 0
 606 0076 274B     		ldr	r3, .L57+8
 607 0078 1B78     		ldrb	r3, [r3]	@ zero_extendqisi2
 608 007a FA79     		ldrb	r2, [r7, #7]	@ zero_extendqisi2
 609 007c 9A42     		cmp	r2, r3
 610 007e 17D0     		beq	.L54
 187:.\inout.c     **** 	{
 188:.\inout.c     ****         CyDelayUs(100); //delay 100us for debounce
ARM GAS  C:\Users\yqh\AppData\Local\Temp\cc7msS7n.s 			page 15


 611              		.loc 1 188 0
 612 0080 6420     		movs	r0, #100
 613 0082 FFF7FEFF 		bl	CyDelayUs
 189:.\inout.c     ****         second_read = GetHardwareVals();  // read inputs second time
 614              		.loc 1 189 0
 615 0086 FFF7FEFF 		bl	GetHardwareVals
 616 008a 0346     		mov	r3, r0
 617 008c BB71     		strb	r3, [r7, #6]
 190:.\inout.c     ****         
 191:.\inout.c     ****         if (first_read == second_read)    // data is stable?
 618              		.loc 1 191 0
 619 008e FA79     		ldrb	r2, [r7, #7]	@ zero_extendqisi2
 620 0090 BB79     		ldrb	r3, [r7, #6]	@ zero_extendqisi2
 621 0092 9A42     		cmp	r2, r3
 622 0094 0CD1     		bne	.L54
 192:.\inout.c     ****         {   
 193:.\inout.c     ****             // If Data is stable, change the status reg
 194:.\inout.c     ****             
 195:.\inout.c     **** 	        MyI2C_Regs.acs_outputs = second_read;                //set output reg to MB
 623              		.loc 1 195 0
 624 0096 204A     		ldr	r2, .L57+12
 625 0098 BB79     		ldrb	r3, [r7, #6]
 626 009a 1371     		strb	r3, [r2, #4]
 196:.\inout.c     ****             hw_old = second_read;                                   //store latest value
 627              		.loc 1 196 0
 628 009c 1D4A     		ldr	r2, .L57+8
 629 009e BB79     		ldrb	r3, [r7, #6]
 630 00a0 1370     		strb	r3, [r2]
 197:.\inout.c     **** 	        MyI2C_Regs.status |= (STAT_ACS_IN | STAT_CHANGE);   //indicate change in ACS_IN
 631              		.loc 1 197 0
 632 00a2 1D4B     		ldr	r3, .L57+12
 633 00a4 1B78     		ldrb	r3, [r3]	@ zero_extendqisi2
 634 00a6 43F00503 		orr	r3, r3, #5
 635 00aa DAB2     		uxtb	r2, r3
 636 00ac 1A4B     		ldr	r3, .L57+12
 637 00ae 1A70     		strb	r2, [r3]
 638              	.L54:
 198:.\inout.c     ****         }
 199:.\inout.c     **** 	}
 200:.\inout.c     ****     
 201:.\inout.c     ****     first_read = GetTamperVals();  // read inputs first time
 639              		.loc 1 201 0
 640 00b0 FFF7FEFF 		bl	GetTamperVals
 641 00b4 0346     		mov	r3, r0
 642 00b6 FB71     		strb	r3, [r7, #7]
 202:.\inout.c     **** 	if (first_read != tp_old)  //change occurred?
 643              		.loc 1 202 0
 644 00b8 184B     		ldr	r3, .L57+16
 645 00ba 1B78     		ldrb	r3, [r3]	@ zero_extendqisi2
 646 00bc FA79     		ldrb	r2, [r7, #7]	@ zero_extendqisi2
 647 00be 9A42     		cmp	r2, r3
 648 00c0 17D0     		beq	.L55
 203:.\inout.c     **** 	{
 204:.\inout.c     ****         CyDelayUs(100); //delay 100us for debounce
 649              		.loc 1 204 0
 650 00c2 6420     		movs	r0, #100
 651 00c4 FFF7FEFF 		bl	CyDelayUs
ARM GAS  C:\Users\yqh\AppData\Local\Temp\cc7msS7n.s 			page 16


 205:.\inout.c     ****         second_read = GetTamperVals();  // read inputs second time
 652              		.loc 1 205 0
 653 00c8 FFF7FEFF 		bl	GetTamperVals
 654 00cc 0346     		mov	r3, r0
 655 00ce BB71     		strb	r3, [r7, #6]
 206:.\inout.c     ****         
 207:.\inout.c     ****         if (first_read == second_read)    // data is stable?
 656              		.loc 1 207 0
 657 00d0 FA79     		ldrb	r2, [r7, #7]	@ zero_extendqisi2
 658 00d2 BB79     		ldrb	r3, [r7, #6]	@ zero_extendqisi2
 659 00d4 9A42     		cmp	r2, r3
 660 00d6 0CD1     		bne	.L55
 208:.\inout.c     ****         {   
 209:.\inout.c     ****             // If Data is stable, change the status reg
 210:.\inout.c     **** 	        MyI2C_Regs.tamper_in = second_read;                //set output reg to MB
 661              		.loc 1 210 0
 662 00d8 0F4A     		ldr	r2, .L57+12
 663 00da BB79     		ldrb	r3, [r7, #6]
 664 00dc 9372     		strb	r3, [r2, #10]
 211:.\inout.c     ****             tp_old = second_read;                                   //store latest value
 665              		.loc 1 211 0
 666 00de 0F4A     		ldr	r2, .L57+16
 667 00e0 BB79     		ldrb	r3, [r7, #6]
 668 00e2 1370     		strb	r3, [r2]
 212:.\inout.c     **** 	        MyI2C_Regs.status |= (STAT_TAMPER_IN | STAT_CHANGE);   //indicate change in ACS_IN
 669              		.loc 1 212 0
 670 00e4 0C4B     		ldr	r3, .L57+12
 671 00e6 1B78     		ldrb	r3, [r3]	@ zero_extendqisi2
 672 00e8 43F00903 		orr	r3, r3, #9
 673 00ec DAB2     		uxtb	r2, r3
 674 00ee 0A4B     		ldr	r3, .L57+12
 675 00f0 1A70     		strb	r2, [r3]
 676              	.L55:
 213:.\inout.c     ****         }
 214:.\inout.c     **** 	}
 215:.\inout.c     ****     
 216:.\inout.c     ****     first_read = GetResetButton();
 677              		.loc 1 216 0
 678 00f2 FFF7FEFF 		bl	GetResetButton
 679 00f6 0346     		mov	r3, r0
 680 00f8 FB71     		strb	r3, [r7, #7]
 217:.\inout.c     ****     if (first_read)
 681              		.loc 1 217 0
 682 00fa FB79     		ldrb	r3, [r7, #7]	@ zero_extendqisi2
 683 00fc 002B     		cmp	r3, #0
 684 00fe 02D0     		beq	.L45
 218:.\inout.c     ****     {
 219:.\inout.c     ****         MyI2C_Regs.pushbtn_in = first_read; //set the push button status
 685              		.loc 1 219 0
 686 0100 054A     		ldr	r2, .L57+12
 687 0102 FB79     		ldrb	r3, [r7, #7]
 688 0104 D372     		strb	r3, [r2, #11]
 689              	.L45:
 220:.\inout.c     ****     }
 221:.\inout.c     **** }
 690              		.loc 1 221 0
 691 0106 0837     		adds	r7, r7, #8
ARM GAS  C:\Users\yqh\AppData\Local\Temp\cc7msS7n.s 			page 17


 692              		.cfi_def_cfa_offset 8
 693 0108 BD46     		mov	sp, r7
 694              		.cfi_def_cfa_register 13
 695              		@ sp needed
 696 010a 80BD     		pop	{r7, pc}
 697              	.L58:
 698              		.align	2
 699              	.L57:
 700 010c 00000000 		.word	tamperCR_polarity
 701 0110 00000000 		.word	tamper_out_polarity
 702 0114 00000000 		.word	hw_old
 703 0118 00000000 		.word	MyI2C_Regs
 704 011c 00000000 		.word	tp_old
 705              		.cfi_endproc
 706              	.LFE68:
 707              		.size	HandleInputs, .-HandleInputs
 708              		.text
 709              	.Letext0:
 710              		.file 2 "c:\\program files (x86)\\cypress\\psoc creator\\3.3\\psoc creator\\import\\gnu\\arm\\4.9.
 711              		.file 3 "c:\\program files (x86)\\cypress\\psoc creator\\3.3\\psoc creator\\import\\gnu\\arm\\4.9.
 712              		.file 4 "Generated_Source\\PSoC5/cytypes.h"
 713              		.file 5 ".\\softuart.h"
 714              		.file 6 ".\\system.h"
 715              		.file 7 "Generated_Source\\PSoC5/core_cm3.h"