ARM GAS  C:\Users\yqh\AppData\Local\Temp\cchCxWst.s 			page 1


   1              		.syntax unified
   2              		.cpu cortex-m3
   3              		.fpu softvfp
   4              		.eabi_attribute 20, 1
   5              		.eabi_attribute 21, 1
   6              		.eabi_attribute 23, 3
   7              		.eabi_attribute 24, 1
   8              		.eabi_attribute 25, 1
   9              		.eabi_attribute 26, 1
  10              		.eabi_attribute 30, 6
  11              		.eabi_attribute 34, 1
  12              		.eabi_attribute 18, 4
  13              		.thumb
  14              		.file	"isr_F2F_edge.c"
  15              		.text
  16              	.Ltext0:
  17              		.cfi_sections	.debug_frame
  18              		.comm	s,40,4
  19              		.comm	currentAccessType,1,1
  20              		.comm	hw_old,1,1
  21              		.comm	tp_old,1,1
  22              		.comm	tamperCR_polarity,4,4
  23              		.comm	tamper_out_polarity,4,4
  24              		.comm	card_ack,4,4
  25              		.comm	card_in_buf,4,4
  26              		.comm	f2f_pulsewidth,4,4
  27              		.comm	f2f_timeout,4,4
  28              		.comm	f2f_acknowledge_active,1,1
  29              		.comm	f2f_ack_delay_cnt,1,1
  30              		.section	.text.isr_F2F_edge_Start,"ax",%progbits
  31              		.align	2
  32              		.global	isr_F2F_edge_Start
  33              		.thumb
  34              		.thumb_func
  35              		.type	isr_F2F_edge_Start, %function
  36              	isr_F2F_edge_Start:
  37              	.LFB63:
  38              		.file 1 ".\\Generated_Source\\PSoC5\\isr_F2F_edge.c"
   1:.\Generated_Source\PSoC5/isr_F2F_edge.c **** /*******************************************************************************
   2:.\Generated_Source\PSoC5/isr_F2F_edge.c **** * File Name: isr_F2F_edge.c  
   3:.\Generated_Source\PSoC5/isr_F2F_edge.c **** * Version 1.70
   4:.\Generated_Source\PSoC5/isr_F2F_edge.c **** *
   5:.\Generated_Source\PSoC5/isr_F2F_edge.c **** *  Description:
   6:.\Generated_Source\PSoC5/isr_F2F_edge.c **** *   API for controlling the state of an interrupt.
   7:.\Generated_Source\PSoC5/isr_F2F_edge.c **** *
   8:.\Generated_Source\PSoC5/isr_F2F_edge.c **** *
   9:.\Generated_Source\PSoC5/isr_F2F_edge.c **** *  Note:
  10:.\Generated_Source\PSoC5/isr_F2F_edge.c **** *
  11:.\Generated_Source\PSoC5/isr_F2F_edge.c **** ********************************************************************************
  12:.\Generated_Source\PSoC5/isr_F2F_edge.c **** * Copyright 2008-2015, Cypress Semiconductor Corporation.  All rights reserved.
  13:.\Generated_Source\PSoC5/isr_F2F_edge.c **** * You may use this file only in accordance with the license, terms, conditions, 
  14:.\Generated_Source\PSoC5/isr_F2F_edge.c **** * disclaimers, and limitations in the end user license agreement accompanying 
  15:.\Generated_Source\PSoC5/isr_F2F_edge.c **** * the software package with which this file was provided.
  16:.\Generated_Source\PSoC5/isr_F2F_edge.c **** *******************************************************************************/
  17:.\Generated_Source\PSoC5/isr_F2F_edge.c **** 
  18:.\Generated_Source\PSoC5/isr_F2F_edge.c **** 
  19:.\Generated_Source\PSoC5/isr_F2F_edge.c **** #include <cydevice_trm.h>
ARM GAS  C:\Users\yqh\AppData\Local\Temp\cchCxWst.s 			page 2


  20:.\Generated_Source\PSoC5/isr_F2F_edge.c **** #include <CyLib.h>
  21:.\Generated_Source\PSoC5/isr_F2F_edge.c **** #include <isr_F2F_edge.h>
  22:.\Generated_Source\PSoC5/isr_F2F_edge.c **** 
  23:.\Generated_Source\PSoC5/isr_F2F_edge.c **** 
  24:.\Generated_Source\PSoC5/isr_F2F_edge.c **** #if !defined(isr_F2F_edge__REMOVED) /* Check for removal by optimization */
  25:.\Generated_Source\PSoC5/isr_F2F_edge.c **** 
  26:.\Generated_Source\PSoC5/isr_F2F_edge.c **** /*******************************************************************************
  27:.\Generated_Source\PSoC5/isr_F2F_edge.c **** *  Place your includes, defines and code here 
  28:.\Generated_Source\PSoC5/isr_F2F_edge.c **** ********************************************************************************/
  29:.\Generated_Source\PSoC5/isr_F2F_edge.c **** /* `#START isr_F2F_edge_intc` */
  30:.\Generated_Source\PSoC5/isr_F2F_edge.c **** #include "FilterReg.h"
  31:.\Generated_Source\PSoC5/isr_F2F_edge.c **** #include "Timeout_Timer_ISR.h"
  32:.\Generated_Source\PSoC5/isr_F2F_edge.c **** #include "system.h"
  33:.\Generated_Source\PSoC5/isr_F2F_edge.c **** //#include "LED_YEL.h" //debug
  34:.\Generated_Source\PSoC5/isr_F2F_edge.c **** //uint8 ledyelon; //debug   
  35:.\Generated_Source\PSoC5/isr_F2F_edge.c ****     
  36:.\Generated_Source\PSoC5/isr_F2F_edge.c **** int f2f_pulsewidth;
  37:.\Generated_Source\PSoC5/isr_F2F_edge.c **** int f2f_timeout;
  38:.\Generated_Source\PSoC5/isr_F2F_edge.c ****     
  39:.\Generated_Source\PSoC5/isr_F2F_edge.c **** /* F2F reader acknowledgement */
  40:.\Generated_Source\PSoC5/isr_F2F_edge.c **** char f2f_acknowledge_active;
  41:.\Generated_Source\PSoC5/isr_F2F_edge.c **** char f2f_ack_delay_cnt;
  42:.\Generated_Source\PSoC5/isr_F2F_edge.c **** 
  43:.\Generated_Source\PSoC5/isr_F2F_edge.c ****    
  44:.\Generated_Source\PSoC5/isr_F2F_edge.c **** /* `#END` */
  45:.\Generated_Source\PSoC5/isr_F2F_edge.c **** 
  46:.\Generated_Source\PSoC5/isr_F2F_edge.c **** #ifndef CYINT_IRQ_BASE
  47:.\Generated_Source\PSoC5/isr_F2F_edge.c **** #define CYINT_IRQ_BASE      16
  48:.\Generated_Source\PSoC5/isr_F2F_edge.c **** #endif /* CYINT_IRQ_BASE */
  49:.\Generated_Source\PSoC5/isr_F2F_edge.c **** #ifndef CYINT_VECT_TABLE
  50:.\Generated_Source\PSoC5/isr_F2F_edge.c **** #define CYINT_VECT_TABLE    ((cyisraddress **) CYREG_NVIC_VECT_OFFSET)
  51:.\Generated_Source\PSoC5/isr_F2F_edge.c **** #endif /* CYINT_VECT_TABLE */
  52:.\Generated_Source\PSoC5/isr_F2F_edge.c **** 
  53:.\Generated_Source\PSoC5/isr_F2F_edge.c **** /* Declared in startup, used to set unused interrupts to. */
  54:.\Generated_Source\PSoC5/isr_F2F_edge.c **** CY_ISR_PROTO(IntDefaultHandler);
  55:.\Generated_Source\PSoC5/isr_F2F_edge.c **** 
  56:.\Generated_Source\PSoC5/isr_F2F_edge.c **** 
  57:.\Generated_Source\PSoC5/isr_F2F_edge.c **** /*******************************************************************************
  58:.\Generated_Source\PSoC5/isr_F2F_edge.c **** * Function Name: isr_F2F_edge_Start
  59:.\Generated_Source\PSoC5/isr_F2F_edge.c **** ********************************************************************************
  60:.\Generated_Source\PSoC5/isr_F2F_edge.c **** *
  61:.\Generated_Source\PSoC5/isr_F2F_edge.c **** * Summary:
  62:.\Generated_Source\PSoC5/isr_F2F_edge.c **** *  Set up the interrupt and enable it. This function disables the interrupt, 
  63:.\Generated_Source\PSoC5/isr_F2F_edge.c **** *  sets the default interrupt vector, sets the priority from the value in the
  64:.\Generated_Source\PSoC5/isr_F2F_edge.c **** *  Design Wide Resources Interrupt Editor, then enables the interrupt to the 
  65:.\Generated_Source\PSoC5/isr_F2F_edge.c **** *  interrupt controller.
  66:.\Generated_Source\PSoC5/isr_F2F_edge.c **** *
  67:.\Generated_Source\PSoC5/isr_F2F_edge.c **** * Parameters:  
  68:.\Generated_Source\PSoC5/isr_F2F_edge.c **** *   None
  69:.\Generated_Source\PSoC5/isr_F2F_edge.c **** *
  70:.\Generated_Source\PSoC5/isr_F2F_edge.c **** * Return:
  71:.\Generated_Source\PSoC5/isr_F2F_edge.c **** *   None
  72:.\Generated_Source\PSoC5/isr_F2F_edge.c **** *
  73:.\Generated_Source\PSoC5/isr_F2F_edge.c **** *******************************************************************************/
  74:.\Generated_Source\PSoC5/isr_F2F_edge.c **** void isr_F2F_edge_Start(void)
  75:.\Generated_Source\PSoC5/isr_F2F_edge.c **** {
  39              		.loc 1 75 0
ARM GAS  C:\Users\yqh\AppData\Local\Temp\cchCxWst.s 			page 3


  40              		.cfi_startproc
  41              		@ args = 0, pretend = 0, frame = 0
  42              		@ frame_needed = 1, uses_anonymous_args = 0
  43 0000 80B5     		push	{r7, lr}
  44              		.cfi_def_cfa_offset 8
  45              		.cfi_offset 7, -8
  46              		.cfi_offset 14, -4
  47 0002 00AF     		add	r7, sp, #0
  48              		.cfi_def_cfa_register 7
  76:.\Generated_Source\PSoC5/isr_F2F_edge.c ****     /* For all we know the interrupt is active. */
  77:.\Generated_Source\PSoC5/isr_F2F_edge.c ****     isr_F2F_edge_Disable();
  49              		.loc 1 77 0
  50 0004 FFF7FEFF 		bl	isr_F2F_edge_Disable
  78:.\Generated_Source\PSoC5/isr_F2F_edge.c **** 
  79:.\Generated_Source\PSoC5/isr_F2F_edge.c ****     /* Set the ISR to point to the isr_F2F_edge Interrupt. */
  80:.\Generated_Source\PSoC5/isr_F2F_edge.c ****     isr_F2F_edge_SetVector(&isr_F2F_edge_Interrupt);
  51              		.loc 1 80 0
  52 0008 0448     		ldr	r0, .L2
  53 000a FFF7FEFF 		bl	isr_F2F_edge_SetVector
  81:.\Generated_Source\PSoC5/isr_F2F_edge.c **** 
  82:.\Generated_Source\PSoC5/isr_F2F_edge.c ****     /* Set the priority. */
  83:.\Generated_Source\PSoC5/isr_F2F_edge.c ****     isr_F2F_edge_SetPriority((uint8)isr_F2F_edge_INTC_PRIOR_NUMBER);
  54              		.loc 1 83 0
  55 000e 0720     		movs	r0, #7
  56 0010 FFF7FEFF 		bl	isr_F2F_edge_SetPriority
  84:.\Generated_Source\PSoC5/isr_F2F_edge.c **** 
  85:.\Generated_Source\PSoC5/isr_F2F_edge.c ****     /* Enable it. */
  86:.\Generated_Source\PSoC5/isr_F2F_edge.c ****     isr_F2F_edge_Enable();
  57              		.loc 1 86 0
  58 0014 FFF7FEFF 		bl	isr_F2F_edge_Enable
  87:.\Generated_Source\PSoC5/isr_F2F_edge.c **** }
  59              		.loc 1 87 0
  60 0018 80BD     		pop	{r7, pc}
  61              	.L3:
  62 001a 00BF     		.align	2
  63              	.L2:
  64 001c 00000000 		.word	isr_F2F_edge_Interrupt
  65              		.cfi_endproc
  66              	.LFE63:
  67              		.size	isr_F2F_edge_Start, .-isr_F2F_edge_Start
  68              		.section	.text.isr_F2F_edge_StartEx,"ax",%progbits
  69              		.align	2
  70              		.global	isr_F2F_edge_StartEx
  71              		.thumb
  72              		.thumb_func
  73              		.type	isr_F2F_edge_StartEx, %function
  74              	isr_F2F_edge_StartEx:
  75              	.LFB64:
  88:.\Generated_Source\PSoC5/isr_F2F_edge.c **** 
  89:.\Generated_Source\PSoC5/isr_F2F_edge.c **** 
  90:.\Generated_Source\PSoC5/isr_F2F_edge.c **** /*******************************************************************************
  91:.\Generated_Source\PSoC5/isr_F2F_edge.c **** * Function Name: isr_F2F_edge_StartEx
  92:.\Generated_Source\PSoC5/isr_F2F_edge.c **** ********************************************************************************
  93:.\Generated_Source\PSoC5/isr_F2F_edge.c **** *
  94:.\Generated_Source\PSoC5/isr_F2F_edge.c **** * Summary:
  95:.\Generated_Source\PSoC5/isr_F2F_edge.c **** *  Sets up the interrupt and enables it. This function disables the interrupt,
  96:.\Generated_Source\PSoC5/isr_F2F_edge.c **** *  sets the interrupt vector based on the address passed in, sets the priority 
ARM GAS  C:\Users\yqh\AppData\Local\Temp\cchCxWst.s 			page 4


  97:.\Generated_Source\PSoC5/isr_F2F_edge.c **** *  from the value in the Design Wide Resources Interrupt Editor, then enables 
  98:.\Generated_Source\PSoC5/isr_F2F_edge.c **** *  the interrupt to the interrupt controller.
  99:.\Generated_Source\PSoC5/isr_F2F_edge.c **** *  
 100:.\Generated_Source\PSoC5/isr_F2F_edge.c **** *  When defining ISR functions, the CY_ISR and CY_ISR_PROTO macros should be 
 101:.\Generated_Source\PSoC5/isr_F2F_edge.c **** *  used to provide consistent definition across compilers:
 102:.\Generated_Source\PSoC5/isr_F2F_edge.c **** *  
 103:.\Generated_Source\PSoC5/isr_F2F_edge.c **** *  Function definition example:
 104:.\Generated_Source\PSoC5/isr_F2F_edge.c **** *   CY_ISR(MyISR)
 105:.\Generated_Source\PSoC5/isr_F2F_edge.c **** *   {
 106:.\Generated_Source\PSoC5/isr_F2F_edge.c **** *   }
 107:.\Generated_Source\PSoC5/isr_F2F_edge.c **** *   Function prototype example:
 108:.\Generated_Source\PSoC5/isr_F2F_edge.c **** *   CY_ISR_PROTO(MyISR);
 109:.\Generated_Source\PSoC5/isr_F2F_edge.c **** *
 110:.\Generated_Source\PSoC5/isr_F2F_edge.c **** * Parameters:  
 111:.\Generated_Source\PSoC5/isr_F2F_edge.c **** *   address: Address of the ISR to set in the interrupt vector table.
 112:.\Generated_Source\PSoC5/isr_F2F_edge.c **** *
 113:.\Generated_Source\PSoC5/isr_F2F_edge.c **** * Return:
 114:.\Generated_Source\PSoC5/isr_F2F_edge.c **** *   None
 115:.\Generated_Source\PSoC5/isr_F2F_edge.c **** *
 116:.\Generated_Source\PSoC5/isr_F2F_edge.c **** *******************************************************************************/
 117:.\Generated_Source\PSoC5/isr_F2F_edge.c **** void isr_F2F_edge_StartEx(cyisraddress address)
 118:.\Generated_Source\PSoC5/isr_F2F_edge.c **** {
  76              		.loc 1 118 0
  77              		.cfi_startproc
  78              		@ args = 0, pretend = 0, frame = 8
  79              		@ frame_needed = 1, uses_anonymous_args = 0
  80 0000 80B5     		push	{r7, lr}
  81              		.cfi_def_cfa_offset 8
  82              		.cfi_offset 7, -8
  83              		.cfi_offset 14, -4
  84 0002 82B0     		sub	sp, sp, #8
  85              		.cfi_def_cfa_offset 16
  86 0004 00AF     		add	r7, sp, #0
  87              		.cfi_def_cfa_register 7
  88 0006 7860     		str	r0, [r7, #4]
 119:.\Generated_Source\PSoC5/isr_F2F_edge.c ****     /* For all we know the interrupt is active. */
 120:.\Generated_Source\PSoC5/isr_F2F_edge.c ****     isr_F2F_edge_Disable();
  89              		.loc 1 120 0
  90 0008 FFF7FEFF 		bl	isr_F2F_edge_Disable
 121:.\Generated_Source\PSoC5/isr_F2F_edge.c **** 
 122:.\Generated_Source\PSoC5/isr_F2F_edge.c ****     /* Set the ISR to point to the isr_F2F_edge Interrupt. */
 123:.\Generated_Source\PSoC5/isr_F2F_edge.c ****     isr_F2F_edge_SetVector(address);
  91              		.loc 1 123 0
  92 000c 7868     		ldr	r0, [r7, #4]
  93 000e FFF7FEFF 		bl	isr_F2F_edge_SetVector
 124:.\Generated_Source\PSoC5/isr_F2F_edge.c **** 
 125:.\Generated_Source\PSoC5/isr_F2F_edge.c ****     /* Set the priority. */
 126:.\Generated_Source\PSoC5/isr_F2F_edge.c ****     isr_F2F_edge_SetPriority((uint8)isr_F2F_edge_INTC_PRIOR_NUMBER);
  94              		.loc 1 126 0
  95 0012 0720     		movs	r0, #7
  96 0014 FFF7FEFF 		bl	isr_F2F_edge_SetPriority
 127:.\Generated_Source\PSoC5/isr_F2F_edge.c **** 
 128:.\Generated_Source\PSoC5/isr_F2F_edge.c ****     /* Enable it. */
 129:.\Generated_Source\PSoC5/isr_F2F_edge.c ****     isr_F2F_edge_Enable();
  97              		.loc 1 129 0
  98 0018 FFF7FEFF 		bl	isr_F2F_edge_Enable
 130:.\Generated_Source\PSoC5/isr_F2F_edge.c **** }
ARM GAS  C:\Users\yqh\AppData\Local\Temp\cchCxWst.s 			page 5


  99              		.loc 1 130 0
 100 001c 0837     		adds	r7, r7, #8
 101              		.cfi_def_cfa_offset 8
 102 001e BD46     		mov	sp, r7
 103              		.cfi_def_cfa_register 13
 104              		@ sp needed
 105 0020 80BD     		pop	{r7, pc}
 106              		.cfi_endproc
 107              	.LFE64:
 108              		.size	isr_F2F_edge_StartEx, .-isr_F2F_edge_StartEx
 109 0022 00BF     		.section	.text.isr_F2F_edge_Stop,"ax",%progbits
 110              		.align	2
 111              		.global	isr_F2F_edge_Stop
 112              		.thumb
 113              		.thumb_func
 114              		.type	isr_F2F_edge_Stop, %function
 115              	isr_F2F_edge_Stop:
 116              	.LFB65:
 131:.\Generated_Source\PSoC5/isr_F2F_edge.c **** 
 132:.\Generated_Source\PSoC5/isr_F2F_edge.c **** 
 133:.\Generated_Source\PSoC5/isr_F2F_edge.c **** /*******************************************************************************
 134:.\Generated_Source\PSoC5/isr_F2F_edge.c **** * Function Name: isr_F2F_edge_Stop
 135:.\Generated_Source\PSoC5/isr_F2F_edge.c **** ********************************************************************************
 136:.\Generated_Source\PSoC5/isr_F2F_edge.c **** *
 137:.\Generated_Source\PSoC5/isr_F2F_edge.c **** * Summary:
 138:.\Generated_Source\PSoC5/isr_F2F_edge.c **** *   Disables and removes the interrupt.
 139:.\Generated_Source\PSoC5/isr_F2F_edge.c **** *
 140:.\Generated_Source\PSoC5/isr_F2F_edge.c **** * Parameters:  
 141:.\Generated_Source\PSoC5/isr_F2F_edge.c **** *   None
 142:.\Generated_Source\PSoC5/isr_F2F_edge.c **** *
 143:.\Generated_Source\PSoC5/isr_F2F_edge.c **** * Return:
 144:.\Generated_Source\PSoC5/isr_F2F_edge.c **** *   None
 145:.\Generated_Source\PSoC5/isr_F2F_edge.c **** *
 146:.\Generated_Source\PSoC5/isr_F2F_edge.c **** *******************************************************************************/
 147:.\Generated_Source\PSoC5/isr_F2F_edge.c **** void isr_F2F_edge_Stop(void)
 148:.\Generated_Source\PSoC5/isr_F2F_edge.c **** {
 117              		.loc 1 148 0
 118              		.cfi_startproc
 119              		@ args = 0, pretend = 0, frame = 0
 120              		@ frame_needed = 1, uses_anonymous_args = 0
 121 0000 80B5     		push	{r7, lr}
 122              		.cfi_def_cfa_offset 8
 123              		.cfi_offset 7, -8
 124              		.cfi_offset 14, -4
 125 0002 00AF     		add	r7, sp, #0
 126              		.cfi_def_cfa_register 7
 149:.\Generated_Source\PSoC5/isr_F2F_edge.c ****     /* Disable this interrupt. */
 150:.\Generated_Source\PSoC5/isr_F2F_edge.c ****     isr_F2F_edge_Disable();
 127              		.loc 1 150 0
 128 0004 FFF7FEFF 		bl	isr_F2F_edge_Disable
 151:.\Generated_Source\PSoC5/isr_F2F_edge.c **** 
 152:.\Generated_Source\PSoC5/isr_F2F_edge.c ****     /* Set the ISR to point to the passive one. */
 153:.\Generated_Source\PSoC5/isr_F2F_edge.c ****     isr_F2F_edge_SetVector(&IntDefaultHandler);
 129              		.loc 1 153 0
 130 0008 0148     		ldr	r0, .L6
 131 000a FFF7FEFF 		bl	isr_F2F_edge_SetVector
 154:.\Generated_Source\PSoC5/isr_F2F_edge.c **** }
ARM GAS  C:\Users\yqh\AppData\Local\Temp\cchCxWst.s 			page 6


 132              		.loc 1 154 0
 133 000e 80BD     		pop	{r7, pc}
 134              	.L7:
 135              		.align	2
 136              	.L6:
 137 0010 00000000 		.word	IntDefaultHandler
 138              		.cfi_endproc
 139              	.LFE65:
 140              		.size	isr_F2F_edge_Stop, .-isr_F2F_edge_Stop
 141              		.section	.text.isr_F2F_edge_Interrupt,"ax",%progbits
 142              		.align	2
 143              		.global	isr_F2F_edge_Interrupt
 144              		.thumb
 145              		.thumb_func
 146              		.type	isr_F2F_edge_Interrupt, %function
 147              	isr_F2F_edge_Interrupt:
 148              	.LFB66:
 155:.\Generated_Source\PSoC5/isr_F2F_edge.c **** 
 156:.\Generated_Source\PSoC5/isr_F2F_edge.c **** 
 157:.\Generated_Source\PSoC5/isr_F2F_edge.c **** /*******************************************************************************
 158:.\Generated_Source\PSoC5/isr_F2F_edge.c **** * Function Name: isr_F2F_edge_Interrupt
 159:.\Generated_Source\PSoC5/isr_F2F_edge.c **** ********************************************************************************
 160:.\Generated_Source\PSoC5/isr_F2F_edge.c **** *
 161:.\Generated_Source\PSoC5/isr_F2F_edge.c **** * Summary:
 162:.\Generated_Source\PSoC5/isr_F2F_edge.c **** *   The default Interrupt Service Routine for isr_F2F_edge.
 163:.\Generated_Source\PSoC5/isr_F2F_edge.c **** *
 164:.\Generated_Source\PSoC5/isr_F2F_edge.c **** *   Add custom code between the coments to keep the next version of this file
 165:.\Generated_Source\PSoC5/isr_F2F_edge.c **** *   from over writting your code.
 166:.\Generated_Source\PSoC5/isr_F2F_edge.c **** *
 167:.\Generated_Source\PSoC5/isr_F2F_edge.c **** * Parameters:  
 168:.\Generated_Source\PSoC5/isr_F2F_edge.c **** *
 169:.\Generated_Source\PSoC5/isr_F2F_edge.c **** * Return:
 170:.\Generated_Source\PSoC5/isr_F2F_edge.c **** *   None
 171:.\Generated_Source\PSoC5/isr_F2F_edge.c **** *
 172:.\Generated_Source\PSoC5/isr_F2F_edge.c **** *******************************************************************************/
 173:.\Generated_Source\PSoC5/isr_F2F_edge.c **** CY_ISR(isr_F2F_edge_Interrupt)
 174:.\Generated_Source\PSoC5/isr_F2F_edge.c **** {
 149              		.loc 1 174 0
 150              		.cfi_startproc
 151              		@ args = 0, pretend = 0, frame = 0
 152              		@ frame_needed = 1, uses_anonymous_args = 0
 153 0000 80B5     		push	{r7, lr}
 154              		.cfi_def_cfa_offset 8
 155              		.cfi_offset 7, -8
 156              		.cfi_offset 14, -4
 157 0002 00AF     		add	r7, sp, #0
 158              		.cfi_def_cfa_register 7
 175:.\Generated_Source\PSoC5/isr_F2F_edge.c ****     #ifdef isr_F2F_edge_INTERRUPT_INTERRUPT_CALLBACK
 176:.\Generated_Source\PSoC5/isr_F2F_edge.c ****         isr_F2F_edge_Interrupt_InterruptCallback();
 177:.\Generated_Source\PSoC5/isr_F2F_edge.c ****     #endif /* isr_F2F_edge_INTERRUPT_INTERRUPT_CALLBACK */ 
 178:.\Generated_Source\PSoC5/isr_F2F_edge.c **** 
 179:.\Generated_Source\PSoC5/isr_F2F_edge.c ****     /*  Place your Interrupt code here. */
 180:.\Generated_Source\PSoC5/isr_F2F_edge.c ****     /* `#START isr_F2F_edge_Interrupt` */
 181:.\Generated_Source\PSoC5/isr_F2F_edge.c **** 
 182:.\Generated_Source\PSoC5/isr_F2F_edge.c ****     FilterReg_Read();  //reset debouncer
 159              		.loc 1 182 0
 160 0004 FFF7FEFF 		bl	FilterReg_Read
ARM GAS  C:\Users\yqh\AppData\Local\Temp\cchCxWst.s 			page 7


 183:.\Generated_Source\PSoC5/isr_F2F_edge.c ****     if(run_mode == MODE_F2F || run_mode == MODE_F2F + BASE_PASS || run_mode == MODE_F2F + BASE_TOC)
 161              		.loc 1 183 0
 162 0008 124B     		ldr	r3, .L12
 163 000a 1B78     		ldrb	r3, [r3]	@ zero_extendqisi2
 164 000c 052B     		cmp	r3, #5
 165 000e 07D0     		beq	.L9
 166              		.loc 1 183 0 is_stmt 0 discriminator 1
 167 0010 104B     		ldr	r3, .L12
 168 0012 1B78     		ldrb	r3, [r3]	@ zero_extendqisi2
 169 0014 692B     		cmp	r3, #105
 170 0016 03D0     		beq	.L9
 171              		.loc 1 183 0 discriminator 2
 172 0018 0E4B     		ldr	r3, .L12
 173 001a 1B78     		ldrb	r3, [r3]	@ zero_extendqisi2
 174 001c 372B     		cmp	r3, #55
 175 001e 18D1     		bne	.L8
 176              	.L9:
 184:.\Generated_Source\PSoC5/isr_F2F_edge.c ****     {
 185:.\Generated_Source\PSoC5/isr_F2F_edge.c ****         Timeout_Timer_Isr_Disable();
 177              		.loc 1 185 0 is_stmt 1
 178 0020 FFF7FEFF 		bl	Timeout_Timer_Isr_Disable
 186:.\Generated_Source\PSoC5/isr_F2F_edge.c ****         f2f_pulsewidth = f2f_timeout;
 179              		.loc 1 186 0
 180 0024 0C4B     		ldr	r3, .L12+4
 181 0026 1B68     		ldr	r3, [r3]
 182 0028 0C4A     		ldr	r2, .L12+8
 183 002a 1360     		str	r3, [r2]
 187:.\Generated_Source\PSoC5/isr_F2F_edge.c ****         Timeout_Timer_Isr_Enable();
 184              		.loc 1 187 0
 185 002c FFF7FEFF 		bl	Timeout_Timer_Isr_Enable
 188:.\Generated_Source\PSoC5/isr_F2F_edge.c ****         
 189:.\Generated_Source\PSoC5/isr_F2F_edge.c ****         if (f2f_pulsewidth < 0x40){
 186              		.loc 1 189 0
 187 0030 0A4B     		ldr	r3, .L12+8
 188 0032 1B68     		ldr	r3, [r3]
 189 0034 3F2B     		cmp	r3, #63
 190 0036 05DC     		bgt	.L11
 190:.\Generated_Source\PSoC5/isr_F2F_edge.c ****             //start an acknowledgement to the F2F reader for the Supervision mode
 191:.\Generated_Source\PSoC5/isr_F2F_edge.c ****             f2f_ack_delay_cnt = 0;
 191              		.loc 1 191 0
 192 0038 094B     		ldr	r3, .L12+12
 193 003a 0022     		movs	r2, #0
 194 003c 1A70     		strb	r2, [r3]
 192:.\Generated_Source\PSoC5/isr_F2F_edge.c ****             f2f_acknowledge_active = 1;
 195              		.loc 1 192 0
 196 003e 094B     		ldr	r3, .L12+16
 197 0040 0122     		movs	r2, #1
 198 0042 1A70     		strb	r2, [r3]
 199              	.L11:
 193:.\Generated_Source\PSoC5/isr_F2F_edge.c ****         }
 194:.\Generated_Source\PSoC5/isr_F2F_edge.c ****         
 195:.\Generated_Source\PSoC5/isr_F2F_edge.c ****         Timeout_Timer_Isr_Disable();
 200              		.loc 1 195 0
 201 0044 FFF7FEFF 		bl	Timeout_Timer_Isr_Disable
 196:.\Generated_Source\PSoC5/isr_F2F_edge.c ****         f2f_timeout = 0;
 202              		.loc 1 196 0
 203 0048 034B     		ldr	r3, .L12+4
ARM GAS  C:\Users\yqh\AppData\Local\Temp\cchCxWst.s 			page 8


 204 004a 0022     		movs	r2, #0
 205 004c 1A60     		str	r2, [r3]
 197:.\Generated_Source\PSoC5/isr_F2F_edge.c ****         Timeout_Timer_Isr_Enable();
 206              		.loc 1 197 0
 207 004e FFF7FEFF 		bl	Timeout_Timer_Isr_Enable
 208              	.L8:
 198:.\Generated_Source\PSoC5/isr_F2F_edge.c ****     }
 199:.\Generated_Source\PSoC5/isr_F2F_edge.c **** 
 200:.\Generated_Source\PSoC5/isr_F2F_edge.c ****     /* `#END` */
 201:.\Generated_Source\PSoC5/isr_F2F_edge.c **** }
 209              		.loc 1 201 0
 210 0052 80BD     		pop	{r7, pc}
 211              	.L13:
 212              		.align	2
 213              	.L12:
 214 0054 00000000 		.word	run_mode
 215 0058 00000000 		.word	f2f_timeout
 216 005c 00000000 		.word	f2f_pulsewidth
 217 0060 00000000 		.word	f2f_ack_delay_cnt
 218 0064 00000000 		.word	f2f_acknowledge_active
 219              		.cfi_endproc
 220              	.LFE66:
 221              		.size	isr_F2F_edge_Interrupt, .-isr_F2F_edge_Interrupt
 222              		.section	.text.isr_F2F_edge_SetVector,"ax",%progbits
 223              		.align	2
 224              		.global	isr_F2F_edge_SetVector
 225              		.thumb
 226              		.thumb_func
 227              		.type	isr_F2F_edge_SetVector, %function
 228              	isr_F2F_edge_SetVector:
 229              	.LFB67:
 202:.\Generated_Source\PSoC5/isr_F2F_edge.c **** 
 203:.\Generated_Source\PSoC5/isr_F2F_edge.c **** 
 204:.\Generated_Source\PSoC5/isr_F2F_edge.c **** /*******************************************************************************
 205:.\Generated_Source\PSoC5/isr_F2F_edge.c **** * Function Name: isr_F2F_edge_SetVector
 206:.\Generated_Source\PSoC5/isr_F2F_edge.c **** ********************************************************************************
 207:.\Generated_Source\PSoC5/isr_F2F_edge.c **** *
 208:.\Generated_Source\PSoC5/isr_F2F_edge.c **** * Summary:
 209:.\Generated_Source\PSoC5/isr_F2F_edge.c **** *   Change the ISR vector for the Interrupt. Note calling isr_F2F_edge_Start
 210:.\Generated_Source\PSoC5/isr_F2F_edge.c **** *   will override any effect this method would have had. To set the vector 
 211:.\Generated_Source\PSoC5/isr_F2F_edge.c **** *   before the component has been started use isr_F2F_edge_StartEx instead.
 212:.\Generated_Source\PSoC5/isr_F2F_edge.c **** * 
 213:.\Generated_Source\PSoC5/isr_F2F_edge.c **** *   When defining ISR functions, the CY_ISR and CY_ISR_PROTO macros should be 
 214:.\Generated_Source\PSoC5/isr_F2F_edge.c **** *   used to provide consistent definition across compilers:
 215:.\Generated_Source\PSoC5/isr_F2F_edge.c **** *
 216:.\Generated_Source\PSoC5/isr_F2F_edge.c **** *   Function definition example:
 217:.\Generated_Source\PSoC5/isr_F2F_edge.c **** *   CY_ISR(MyISR)
 218:.\Generated_Source\PSoC5/isr_F2F_edge.c **** *   {
 219:.\Generated_Source\PSoC5/isr_F2F_edge.c **** *   }
 220:.\Generated_Source\PSoC5/isr_F2F_edge.c **** *
 221:.\Generated_Source\PSoC5/isr_F2F_edge.c **** *   Function prototype example:
 222:.\Generated_Source\PSoC5/isr_F2F_edge.c **** *     CY_ISR_PROTO(MyISR);
 223:.\Generated_Source\PSoC5/isr_F2F_edge.c **** *
 224:.\Generated_Source\PSoC5/isr_F2F_edge.c **** * Parameters:
 225:.\Generated_Source\PSoC5/isr_F2F_edge.c **** *   address: Address of the ISR to set in the interrupt vector table.
 226:.\Generated_Source\PSoC5/isr_F2F_edge.c **** *
 227:.\Generated_Source\PSoC5/isr_F2F_edge.c **** * Return:
ARM GAS  C:\Users\yqh\AppData\Local\Temp\cchCxWst.s 			page 9


 228:.\Generated_Source\PSoC5/isr_F2F_edge.c **** *   None
 229:.\Generated_Source\PSoC5/isr_F2F_edge.c **** *
 230:.\Generated_Source\PSoC5/isr_F2F_edge.c **** *******************************************************************************/
 231:.\Generated_Source\PSoC5/isr_F2F_edge.c **** void isr_F2F_edge_SetVector(cyisraddress address)
 232:.\Generated_Source\PSoC5/isr_F2F_edge.c **** {
 230              		.loc 1 232 0
 231              		.cfi_startproc
 232              		@ args = 0, pretend = 0, frame = 16
 233              		@ frame_needed = 1, uses_anonymous_args = 0
 234              		@ link register save eliminated.
 235 0000 80B4     		push	{r7}
 236              		.cfi_def_cfa_offset 4
 237              		.cfi_offset 7, -4
 238 0002 85B0     		sub	sp, sp, #20
 239              		.cfi_def_cfa_offset 24
 240 0004 00AF     		add	r7, sp, #0
 241              		.cfi_def_cfa_register 7
 242 0006 7860     		str	r0, [r7, #4]
 233:.\Generated_Source\PSoC5/isr_F2F_edge.c ****     cyisraddress * ramVectorTable;
 234:.\Generated_Source\PSoC5/isr_F2F_edge.c **** 
 235:.\Generated_Source\PSoC5/isr_F2F_edge.c ****     ramVectorTable = (cyisraddress *) *CYINT_VECT_TABLE;
 243              		.loc 1 235 0
 244 0008 054B     		ldr	r3, .L15
 245 000a 1B68     		ldr	r3, [r3]
 246 000c FB60     		str	r3, [r7, #12]
 236:.\Generated_Source\PSoC5/isr_F2F_edge.c **** 
 237:.\Generated_Source\PSoC5/isr_F2F_edge.c ****     ramVectorTable[CYINT_IRQ_BASE + (uint32)isr_F2F_edge__INTC_NUMBER] = address;
 247              		.loc 1 237 0
 248 000e FB68     		ldr	r3, [r7, #12]
 249 0010 4833     		adds	r3, r3, #72
 250 0012 7A68     		ldr	r2, [r7, #4]
 251 0014 1A60     		str	r2, [r3]
 238:.\Generated_Source\PSoC5/isr_F2F_edge.c **** }
 252              		.loc 1 238 0
 253 0016 1437     		adds	r7, r7, #20
 254              		.cfi_def_cfa_offset 4
 255 0018 BD46     		mov	sp, r7
 256              		.cfi_def_cfa_register 13
 257              		@ sp needed
 258 001a 5DF8047B 		ldr	r7, [sp], #4
 259              		.cfi_restore 7
 260              		.cfi_def_cfa_offset 0
 261 001e 7047     		bx	lr
 262              	.L16:
 263              		.align	2
 264              	.L15:
 265 0020 08ED00E0 		.word	-536810232
 266              		.cfi_endproc
 267              	.LFE67:
 268              		.size	isr_F2F_edge_SetVector, .-isr_F2F_edge_SetVector
 269              		.section	.text.isr_F2F_edge_GetVector,"ax",%progbits
 270              		.align	2
 271              		.global	isr_F2F_edge_GetVector
 272              		.thumb
 273              		.thumb_func
 274              		.type	isr_F2F_edge_GetVector, %function
 275              	isr_F2F_edge_GetVector:
ARM GAS  C:\Users\yqh\AppData\Local\Temp\cchCxWst.s 			page 10


 276              	.LFB68:
 239:.\Generated_Source\PSoC5/isr_F2F_edge.c **** 
 240:.\Generated_Source\PSoC5/isr_F2F_edge.c **** 
 241:.\Generated_Source\PSoC5/isr_F2F_edge.c **** /*******************************************************************************
 242:.\Generated_Source\PSoC5/isr_F2F_edge.c **** * Function Name: isr_F2F_edge_GetVector
 243:.\Generated_Source\PSoC5/isr_F2F_edge.c **** ********************************************************************************
 244:.\Generated_Source\PSoC5/isr_F2F_edge.c **** *
 245:.\Generated_Source\PSoC5/isr_F2F_edge.c **** * Summary:
 246:.\Generated_Source\PSoC5/isr_F2F_edge.c **** *   Gets the "address" of the current ISR vector for the Interrupt.
 247:.\Generated_Source\PSoC5/isr_F2F_edge.c **** *
 248:.\Generated_Source\PSoC5/isr_F2F_edge.c **** * Parameters:
 249:.\Generated_Source\PSoC5/isr_F2F_edge.c **** *   None
 250:.\Generated_Source\PSoC5/isr_F2F_edge.c **** *
 251:.\Generated_Source\PSoC5/isr_F2F_edge.c **** * Return:
 252:.\Generated_Source\PSoC5/isr_F2F_edge.c **** *   Address of the ISR in the interrupt vector table.
 253:.\Generated_Source\PSoC5/isr_F2F_edge.c **** *
 254:.\Generated_Source\PSoC5/isr_F2F_edge.c **** *******************************************************************************/
 255:.\Generated_Source\PSoC5/isr_F2F_edge.c **** cyisraddress isr_F2F_edge_GetVector(void)
 256:.\Generated_Source\PSoC5/isr_F2F_edge.c **** {
 277              		.loc 1 256 0
 278              		.cfi_startproc
 279              		@ args = 0, pretend = 0, frame = 8
 280              		@ frame_needed = 1, uses_anonymous_args = 0
 281              		@ link register save eliminated.
 282 0000 80B4     		push	{r7}
 283              		.cfi_def_cfa_offset 4
 284              		.cfi_offset 7, -4
 285 0002 83B0     		sub	sp, sp, #12
 286              		.cfi_def_cfa_offset 16
 287 0004 00AF     		add	r7, sp, #0
 288              		.cfi_def_cfa_register 7
 257:.\Generated_Source\PSoC5/isr_F2F_edge.c ****     cyisraddress * ramVectorTable;
 258:.\Generated_Source\PSoC5/isr_F2F_edge.c **** 
 259:.\Generated_Source\PSoC5/isr_F2F_edge.c ****     ramVectorTable = (cyisraddress *) *CYINT_VECT_TABLE;
 289              		.loc 1 259 0
 290 0006 054B     		ldr	r3, .L19
 291 0008 1B68     		ldr	r3, [r3]
 292 000a 7B60     		str	r3, [r7, #4]
 260:.\Generated_Source\PSoC5/isr_F2F_edge.c **** 
 261:.\Generated_Source\PSoC5/isr_F2F_edge.c ****     return ramVectorTable[CYINT_IRQ_BASE + (uint32)isr_F2F_edge__INTC_NUMBER];
 293              		.loc 1 261 0
 294 000c 7B68     		ldr	r3, [r7, #4]
 295 000e 9B6C     		ldr	r3, [r3, #72]
 262:.\Generated_Source\PSoC5/isr_F2F_edge.c **** }
 296              		.loc 1 262 0
 297 0010 1846     		mov	r0, r3
 298 0012 0C37     		adds	r7, r7, #12
 299              		.cfi_def_cfa_offset 4
 300 0014 BD46     		mov	sp, r7
 301              		.cfi_def_cfa_register 13
 302              		@ sp needed
 303 0016 5DF8047B 		ldr	r7, [sp], #4
 304              		.cfi_restore 7
 305              		.cfi_def_cfa_offset 0
 306 001a 7047     		bx	lr
 307              	.L20:
 308              		.align	2
ARM GAS  C:\Users\yqh\AppData\Local\Temp\cchCxWst.s 			page 11


 309              	.L19:
 310 001c 08ED00E0 		.word	-536810232
 311              		.cfi_endproc
 312              	.LFE68:
 313              		.size	isr_F2F_edge_GetVector, .-isr_F2F_edge_GetVector
 314              		.section	.text.isr_F2F_edge_SetPriority,"ax",%progbits
 315              		.align	2
 316              		.global	isr_F2F_edge_SetPriority
 317              		.thumb
 318              		.thumb_func
 319              		.type	isr_F2F_edge_SetPriority, %function
 320              	isr_F2F_edge_SetPriority:
 321              	.LFB69:
 263:.\Generated_Source\PSoC5/isr_F2F_edge.c **** 
 264:.\Generated_Source\PSoC5/isr_F2F_edge.c **** 
 265:.\Generated_Source\PSoC5/isr_F2F_edge.c **** /*******************************************************************************
 266:.\Generated_Source\PSoC5/isr_F2F_edge.c **** * Function Name: isr_F2F_edge_SetPriority
 267:.\Generated_Source\PSoC5/isr_F2F_edge.c **** ********************************************************************************
 268:.\Generated_Source\PSoC5/isr_F2F_edge.c **** *
 269:.\Generated_Source\PSoC5/isr_F2F_edge.c **** * Summary:
 270:.\Generated_Source\PSoC5/isr_F2F_edge.c **** *   Sets the Priority of the Interrupt. 
 271:.\Generated_Source\PSoC5/isr_F2F_edge.c **** *
 272:.\Generated_Source\PSoC5/isr_F2F_edge.c **** *   Note calling isr_F2F_edge_Start or isr_F2F_edge_StartEx will 
 273:.\Generated_Source\PSoC5/isr_F2F_edge.c **** *   override any effect this API would have had. This API should only be called
 274:.\Generated_Source\PSoC5/isr_F2F_edge.c **** *   after isr_F2F_edge_Start or isr_F2F_edge_StartEx has been called. 
 275:.\Generated_Source\PSoC5/isr_F2F_edge.c **** *   To set the initial priority for the component, use the Design-Wide Resources
 276:.\Generated_Source\PSoC5/isr_F2F_edge.c **** *   Interrupt Editor.
 277:.\Generated_Source\PSoC5/isr_F2F_edge.c **** *
 278:.\Generated_Source\PSoC5/isr_F2F_edge.c **** *   Note This API has no effect on Non-maskable interrupt NMI).
 279:.\Generated_Source\PSoC5/isr_F2F_edge.c **** *
 280:.\Generated_Source\PSoC5/isr_F2F_edge.c **** * Parameters:
 281:.\Generated_Source\PSoC5/isr_F2F_edge.c **** *   priority: Priority of the interrupt, 0 being the highest priority
 282:.\Generated_Source\PSoC5/isr_F2F_edge.c **** *             PSoC 3 and PSoC 5LP: Priority is from 0 to 7.
 283:.\Generated_Source\PSoC5/isr_F2F_edge.c **** *             PSoC 4: Priority is from 0 to 3.
 284:.\Generated_Source\PSoC5/isr_F2F_edge.c **** *
 285:.\Generated_Source\PSoC5/isr_F2F_edge.c **** * Return:
 286:.\Generated_Source\PSoC5/isr_F2F_edge.c **** *   None
 287:.\Generated_Source\PSoC5/isr_F2F_edge.c **** *
 288:.\Generated_Source\PSoC5/isr_F2F_edge.c **** *******************************************************************************/
 289:.\Generated_Source\PSoC5/isr_F2F_edge.c **** void isr_F2F_edge_SetPriority(uint8 priority)
 290:.\Generated_Source\PSoC5/isr_F2F_edge.c **** {
 322              		.loc 1 290 0
 323              		.cfi_startproc
 324              		@ args = 0, pretend = 0, frame = 8
 325              		@ frame_needed = 1, uses_anonymous_args = 0
 326              		@ link register save eliminated.
 327 0000 80B4     		push	{r7}
 328              		.cfi_def_cfa_offset 4
 329              		.cfi_offset 7, -4
 330 0002 83B0     		sub	sp, sp, #12
 331              		.cfi_def_cfa_offset 16
 332 0004 00AF     		add	r7, sp, #0
 333              		.cfi_def_cfa_register 7
 334 0006 0346     		mov	r3, r0
 335 0008 FB71     		strb	r3, [r7, #7]
 291:.\Generated_Source\PSoC5/isr_F2F_edge.c ****     *isr_F2F_edge_INTC_PRIOR = priority << 5;
 336              		.loc 1 291 0
ARM GAS  C:\Users\yqh\AppData\Local\Temp\cchCxWst.s 			page 12


 337 000a 054A     		ldr	r2, .L22
 338 000c FB79     		ldrb	r3, [r7, #7]
 339 000e 5B01     		lsls	r3, r3, #5
 340 0010 DBB2     		uxtb	r3, r3
 341 0012 1370     		strb	r3, [r2]
 292:.\Generated_Source\PSoC5/isr_F2F_edge.c **** }
 342              		.loc 1 292 0
 343 0014 0C37     		adds	r7, r7, #12
 344              		.cfi_def_cfa_offset 4
 345 0016 BD46     		mov	sp, r7
 346              		.cfi_def_cfa_register 13
 347              		@ sp needed
 348 0018 5DF8047B 		ldr	r7, [sp], #4
 349              		.cfi_restore 7
 350              		.cfi_def_cfa_offset 0
 351 001c 7047     		bx	lr
 352              	.L23:
 353 001e 00BF     		.align	2
 354              	.L22:
 355 0020 02E400E0 		.word	-536812542
 356              		.cfi_endproc
 357              	.LFE69:
 358              		.size	isr_F2F_edge_SetPriority, .-isr_F2F_edge_SetPriority
 359              		.section	.text.isr_F2F_edge_GetPriority,"ax",%progbits
 360              		.align	2
 361              		.global	isr_F2F_edge_GetPriority
 362              		.thumb
 363              		.thumb_func
 364              		.type	isr_F2F_edge_GetPriority, %function
 365              	isr_F2F_edge_GetPriority:
 366              	.LFB70:
 293:.\Generated_Source\PSoC5/isr_F2F_edge.c **** 
 294:.\Generated_Source\PSoC5/isr_F2F_edge.c **** 
 295:.\Generated_Source\PSoC5/isr_F2F_edge.c **** /*******************************************************************************
 296:.\Generated_Source\PSoC5/isr_F2F_edge.c **** * Function Name: isr_F2F_edge_GetPriority
 297:.\Generated_Source\PSoC5/isr_F2F_edge.c **** ********************************************************************************
 298:.\Generated_Source\PSoC5/isr_F2F_edge.c **** *
 299:.\Generated_Source\PSoC5/isr_F2F_edge.c **** * Summary:
 300:.\Generated_Source\PSoC5/isr_F2F_edge.c **** *   Gets the Priority of the Interrupt.
 301:.\Generated_Source\PSoC5/isr_F2F_edge.c **** *
 302:.\Generated_Source\PSoC5/isr_F2F_edge.c **** * Parameters:
 303:.\Generated_Source\PSoC5/isr_F2F_edge.c **** *   None
 304:.\Generated_Source\PSoC5/isr_F2F_edge.c **** *
 305:.\Generated_Source\PSoC5/isr_F2F_edge.c **** * Return:
 306:.\Generated_Source\PSoC5/isr_F2F_edge.c **** *   Priority of the interrupt, 0 being the highest priority
 307:.\Generated_Source\PSoC5/isr_F2F_edge.c **** *    PSoC 3 and PSoC 5LP: Priority is from 0 to 7.
 308:.\Generated_Source\PSoC5/isr_F2F_edge.c **** *    PSoC 4: Priority is from 0 to 3.
 309:.\Generated_Source\PSoC5/isr_F2F_edge.c **** *
 310:.\Generated_Source\PSoC5/isr_F2F_edge.c **** *******************************************************************************/
 311:.\Generated_Source\PSoC5/isr_F2F_edge.c **** uint8 isr_F2F_edge_GetPriority(void)
 312:.\Generated_Source\PSoC5/isr_F2F_edge.c **** {
 367              		.loc 1 312 0
 368              		.cfi_startproc
 369              		@ args = 0, pretend = 0, frame = 8
 370              		@ frame_needed = 1, uses_anonymous_args = 0
 371              		@ link register save eliminated.
 372 0000 80B4     		push	{r7}
ARM GAS  C:\Users\yqh\AppData\Local\Temp\cchCxWst.s 			page 13


 373              		.cfi_def_cfa_offset 4
 374              		.cfi_offset 7, -4
 375 0002 83B0     		sub	sp, sp, #12
 376              		.cfi_def_cfa_offset 16
 377 0004 00AF     		add	r7, sp, #0
 378              		.cfi_def_cfa_register 7
 313:.\Generated_Source\PSoC5/isr_F2F_edge.c ****     uint8 priority;
 314:.\Generated_Source\PSoC5/isr_F2F_edge.c **** 
 315:.\Generated_Source\PSoC5/isr_F2F_edge.c **** 
 316:.\Generated_Source\PSoC5/isr_F2F_edge.c ****     priority = *isr_F2F_edge_INTC_PRIOR >> 5;
 379              		.loc 1 316 0
 380 0006 064B     		ldr	r3, .L26
 381 0008 1B78     		ldrb	r3, [r3]
 382 000a DBB2     		uxtb	r3, r3
 383 000c 5B09     		lsrs	r3, r3, #5
 384 000e FB71     		strb	r3, [r7, #7]
 317:.\Generated_Source\PSoC5/isr_F2F_edge.c **** 
 318:.\Generated_Source\PSoC5/isr_F2F_edge.c ****     return priority;
 385              		.loc 1 318 0
 386 0010 FB79     		ldrb	r3, [r7, #7]	@ zero_extendqisi2
 319:.\Generated_Source\PSoC5/isr_F2F_edge.c **** }
 387              		.loc 1 319 0
 388 0012 1846     		mov	r0, r3
 389 0014 0C37     		adds	r7, r7, #12
 390              		.cfi_def_cfa_offset 4
 391 0016 BD46     		mov	sp, r7
 392              		.cfi_def_cfa_register 13
 393              		@ sp needed
 394 0018 5DF8047B 		ldr	r7, [sp], #4
 395              		.cfi_restore 7
 396              		.cfi_def_cfa_offset 0
 397 001c 7047     		bx	lr
 398              	.L27:
 399 001e 00BF     		.align	2
 400              	.L26:
 401 0020 02E400E0 		.word	-536812542
 402              		.cfi_endproc
 403              	.LFE70:
 404              		.size	isr_F2F_edge_GetPriority, .-isr_F2F_edge_GetPriority
 405              		.section	.text.isr_F2F_edge_Enable,"ax",%progbits
 406              		.align	2
 407              		.global	isr_F2F_edge_Enable
 408              		.thumb
 409              		.thumb_func
 410              		.type	isr_F2F_edge_Enable, %function
 411              	isr_F2F_edge_Enable:
 412              	.LFB71:
 320:.\Generated_Source\PSoC5/isr_F2F_edge.c **** 
 321:.\Generated_Source\PSoC5/isr_F2F_edge.c **** 
 322:.\Generated_Source\PSoC5/isr_F2F_edge.c **** /*******************************************************************************
 323:.\Generated_Source\PSoC5/isr_F2F_edge.c **** * Function Name: isr_F2F_edge_Enable
 324:.\Generated_Source\PSoC5/isr_F2F_edge.c **** ********************************************************************************
 325:.\Generated_Source\PSoC5/isr_F2F_edge.c **** *
 326:.\Generated_Source\PSoC5/isr_F2F_edge.c **** * Summary:
 327:.\Generated_Source\PSoC5/isr_F2F_edge.c **** *   Enables the interrupt to the interrupt controller. Do not call this function
 328:.\Generated_Source\PSoC5/isr_F2F_edge.c **** *   unless ISR_Start() has been called or the functionality of the ISR_Start() 
 329:.\Generated_Source\PSoC5/isr_F2F_edge.c **** *   function, which sets the vector and the priority, has been called.
ARM GAS  C:\Users\yqh\AppData\Local\Temp\cchCxWst.s 			page 14


 330:.\Generated_Source\PSoC5/isr_F2F_edge.c **** *
 331:.\Generated_Source\PSoC5/isr_F2F_edge.c **** * Parameters:
 332:.\Generated_Source\PSoC5/isr_F2F_edge.c **** *   None
 333:.\Generated_Source\PSoC5/isr_F2F_edge.c **** *
 334:.\Generated_Source\PSoC5/isr_F2F_edge.c **** * Return:
 335:.\Generated_Source\PSoC5/isr_F2F_edge.c **** *   None
 336:.\Generated_Source\PSoC5/isr_F2F_edge.c **** *
 337:.\Generated_Source\PSoC5/isr_F2F_edge.c **** *******************************************************************************/
 338:.\Generated_Source\PSoC5/isr_F2F_edge.c **** void isr_F2F_edge_Enable(void)
 339:.\Generated_Source\PSoC5/isr_F2F_edge.c **** {
 413              		.loc 1 339 0
 414              		.cfi_startproc
 415              		@ args = 0, pretend = 0, frame = 0
 416              		@ frame_needed = 1, uses_anonymous_args = 0
 417              		@ link register save eliminated.
 418 0000 80B4     		push	{r7}
 419              		.cfi_def_cfa_offset 4
 420              		.cfi_offset 7, -4
 421 0002 00AF     		add	r7, sp, #0
 422              		.cfi_def_cfa_register 7
 340:.\Generated_Source\PSoC5/isr_F2F_edge.c ****     /* Enable the general interrupt. */
 341:.\Generated_Source\PSoC5/isr_F2F_edge.c ****     *isr_F2F_edge_INTC_SET_EN = isr_F2F_edge__INTC_MASK;
 423              		.loc 1 341 0
 424 0004 034B     		ldr	r3, .L29
 425 0006 0422     		movs	r2, #4
 426 0008 1A60     		str	r2, [r3]
 342:.\Generated_Source\PSoC5/isr_F2F_edge.c **** }
 427              		.loc 1 342 0
 428 000a BD46     		mov	sp, r7
 429              		.cfi_def_cfa_register 13
 430              		@ sp needed
 431 000c 5DF8047B 		ldr	r7, [sp], #4
 432              		.cfi_restore 7
 433              		.cfi_def_cfa_offset 0
 434 0010 7047     		bx	lr
 435              	.L30:
 436 0012 00BF     		.align	2
 437              	.L29:
 438 0014 00E100E0 		.word	-536813312
 439              		.cfi_endproc
 440              	.LFE71:
 441              		.size	isr_F2F_edge_Enable, .-isr_F2F_edge_Enable
 442              		.section	.text.isr_F2F_edge_GetState,"ax",%progbits
 443              		.align	2
 444              		.global	isr_F2F_edge_GetState
 445              		.thumb
 446              		.thumb_func
 447              		.type	isr_F2F_edge_GetState, %function
 448              	isr_F2F_edge_GetState:
 449              	.LFB72:
 343:.\Generated_Source\PSoC5/isr_F2F_edge.c **** 
 344:.\Generated_Source\PSoC5/isr_F2F_edge.c **** 
 345:.\Generated_Source\PSoC5/isr_F2F_edge.c **** /*******************************************************************************
 346:.\Generated_Source\PSoC5/isr_F2F_edge.c **** * Function Name: isr_F2F_edge_GetState
 347:.\Generated_Source\PSoC5/isr_F2F_edge.c **** ********************************************************************************
 348:.\Generated_Source\PSoC5/isr_F2F_edge.c **** *
 349:.\Generated_Source\PSoC5/isr_F2F_edge.c **** * Summary:
ARM GAS  C:\Users\yqh\AppData\Local\Temp\cchCxWst.s 			page 15


 350:.\Generated_Source\PSoC5/isr_F2F_edge.c **** *   Gets the state (enabled, disabled) of the Interrupt.
 351:.\Generated_Source\PSoC5/isr_F2F_edge.c **** *
 352:.\Generated_Source\PSoC5/isr_F2F_edge.c **** * Parameters:
 353:.\Generated_Source\PSoC5/isr_F2F_edge.c **** *   None
 354:.\Generated_Source\PSoC5/isr_F2F_edge.c **** *
 355:.\Generated_Source\PSoC5/isr_F2F_edge.c **** * Return:
 356:.\Generated_Source\PSoC5/isr_F2F_edge.c **** *   1 if enabled, 0 if disabled.
 357:.\Generated_Source\PSoC5/isr_F2F_edge.c **** *
 358:.\Generated_Source\PSoC5/isr_F2F_edge.c **** *******************************************************************************/
 359:.\Generated_Source\PSoC5/isr_F2F_edge.c **** uint8 isr_F2F_edge_GetState(void)
 360:.\Generated_Source\PSoC5/isr_F2F_edge.c **** {
 450              		.loc 1 360 0
 451              		.cfi_startproc
 452              		@ args = 0, pretend = 0, frame = 0
 453              		@ frame_needed = 1, uses_anonymous_args = 0
 454              		@ link register save eliminated.
 455 0000 80B4     		push	{r7}
 456              		.cfi_def_cfa_offset 4
 457              		.cfi_offset 7, -4
 458 0002 00AF     		add	r7, sp, #0
 459              		.cfi_def_cfa_register 7
 361:.\Generated_Source\PSoC5/isr_F2F_edge.c ****     /* Get the state of the general interrupt. */
 362:.\Generated_Source\PSoC5/isr_F2F_edge.c ****     return ((*isr_F2F_edge_INTC_SET_EN & (uint32)isr_F2F_edge__INTC_MASK) != 0u) ? 1u:0u;
 460              		.loc 1 362 0
 461 0004 064B     		ldr	r3, .L35
 462 0006 1B68     		ldr	r3, [r3]
 463 0008 03F00403 		and	r3, r3, #4
 464 000c 002B     		cmp	r3, #0
 465 000e 01D0     		beq	.L32
 466              		.loc 1 362 0 is_stmt 0 discriminator 1
 467 0010 0123     		movs	r3, #1
 468 0012 00E0     		b	.L33
 469              	.L32:
 470              		.loc 1 362 0 discriminator 2
 471 0014 0023     		movs	r3, #0
 472              	.L33:
 363:.\Generated_Source\PSoC5/isr_F2F_edge.c **** }
 473              		.loc 1 363 0 is_stmt 1 discriminator 4
 474 0016 1846     		mov	r0, r3
 475 0018 BD46     		mov	sp, r7
 476              		.cfi_def_cfa_register 13
 477              		@ sp needed
 478 001a 5DF8047B 		ldr	r7, [sp], #4
 479              		.cfi_restore 7
 480              		.cfi_def_cfa_offset 0
 481 001e 7047     		bx	lr
 482              	.L36:
 483              		.align	2
 484              	.L35:
 485 0020 00E100E0 		.word	-536813312
 486              		.cfi_endproc
 487              	.LFE72:
 488              		.size	isr_F2F_edge_GetState, .-isr_F2F_edge_GetState
 489              		.section	.text.isr_F2F_edge_Disable,"ax",%progbits
 490              		.align	2
 491              		.global	isr_F2F_edge_Disable
 492              		.thumb
ARM GAS  C:\Users\yqh\AppData\Local\Temp\cchCxWst.s 			page 16


 493              		.thumb_func
 494              		.type	isr_F2F_edge_Disable, %function
 495              	isr_F2F_edge_Disable:
 496              	.LFB73:
 364:.\Generated_Source\PSoC5/isr_F2F_edge.c **** 
 365:.\Generated_Source\PSoC5/isr_F2F_edge.c **** 
 366:.\Generated_Source\PSoC5/isr_F2F_edge.c **** /*******************************************************************************
 367:.\Generated_Source\PSoC5/isr_F2F_edge.c **** * Function Name: isr_F2F_edge_Disable
 368:.\Generated_Source\PSoC5/isr_F2F_edge.c **** ********************************************************************************
 369:.\Generated_Source\PSoC5/isr_F2F_edge.c **** *
 370:.\Generated_Source\PSoC5/isr_F2F_edge.c **** * Summary:
 371:.\Generated_Source\PSoC5/isr_F2F_edge.c **** *   Disables the Interrupt in the interrupt controller.
 372:.\Generated_Source\PSoC5/isr_F2F_edge.c **** *
 373:.\Generated_Source\PSoC5/isr_F2F_edge.c **** * Parameters:
 374:.\Generated_Source\PSoC5/isr_F2F_edge.c **** *   None
 375:.\Generated_Source\PSoC5/isr_F2F_edge.c **** *
 376:.\Generated_Source\PSoC5/isr_F2F_edge.c **** * Return:
 377:.\Generated_Source\PSoC5/isr_F2F_edge.c **** *   None
 378:.\Generated_Source\PSoC5/isr_F2F_edge.c **** *
 379:.\Generated_Source\PSoC5/isr_F2F_edge.c **** *******************************************************************************/
 380:.\Generated_Source\PSoC5/isr_F2F_edge.c **** void isr_F2F_edge_Disable(void)
 381:.\Generated_Source\PSoC5/isr_F2F_edge.c **** {
 497              		.loc 1 381 0
 498              		.cfi_startproc
 499              		@ args = 0, pretend = 0, frame = 0
 500              		@ frame_needed = 1, uses_anonymous_args = 0
 501              		@ link register save eliminated.
 502 0000 80B4     		push	{r7}
 503              		.cfi_def_cfa_offset 4
 504              		.cfi_offset 7, -4
 505 0002 00AF     		add	r7, sp, #0
 506              		.cfi_def_cfa_register 7
 382:.\Generated_Source\PSoC5/isr_F2F_edge.c ****     /* Disable the general interrupt. */
 383:.\Generated_Source\PSoC5/isr_F2F_edge.c ****     *isr_F2F_edge_INTC_CLR_EN = isr_F2F_edge__INTC_MASK;
 507              		.loc 1 383 0
 508 0004 034B     		ldr	r3, .L38
 509 0006 0422     		movs	r2, #4
 510 0008 1A60     		str	r2, [r3]
 384:.\Generated_Source\PSoC5/isr_F2F_edge.c **** }
 511              		.loc 1 384 0
 512 000a BD46     		mov	sp, r7
 513              		.cfi_def_cfa_register 13
 514              		@ sp needed
 515 000c 5DF8047B 		ldr	r7, [sp], #4
 516              		.cfi_restore 7
 517              		.cfi_def_cfa_offset 0
 518 0010 7047     		bx	lr
 519              	.L39:
 520 0012 00BF     		.align	2
 521              	.L38:
 522 0014 80E100E0 		.word	-536813184
 523              		.cfi_endproc
 524              	.LFE73:
 525              		.size	isr_F2F_edge_Disable, .-isr_F2F_edge_Disable
 526              		.section	.text.isr_F2F_edge_SetPending,"ax",%progbits
 527              		.align	2
 528              		.global	isr_F2F_edge_SetPending
ARM GAS  C:\Users\yqh\AppData\Local\Temp\cchCxWst.s 			page 17


 529              		.thumb
 530              		.thumb_func
 531              		.type	isr_F2F_edge_SetPending, %function
 532              	isr_F2F_edge_SetPending:
 533              	.LFB74:
 385:.\Generated_Source\PSoC5/isr_F2F_edge.c **** 
 386:.\Generated_Source\PSoC5/isr_F2F_edge.c **** 
 387:.\Generated_Source\PSoC5/isr_F2F_edge.c **** /*******************************************************************************
 388:.\Generated_Source\PSoC5/isr_F2F_edge.c **** * Function Name: isr_F2F_edge_SetPending
 389:.\Generated_Source\PSoC5/isr_F2F_edge.c **** ********************************************************************************
 390:.\Generated_Source\PSoC5/isr_F2F_edge.c **** *
 391:.\Generated_Source\PSoC5/isr_F2F_edge.c **** * Summary:
 392:.\Generated_Source\PSoC5/isr_F2F_edge.c **** *   Causes the Interrupt to enter the pending state, a software method of
 393:.\Generated_Source\PSoC5/isr_F2F_edge.c **** *   generating the interrupt.
 394:.\Generated_Source\PSoC5/isr_F2F_edge.c **** *
 395:.\Generated_Source\PSoC5/isr_F2F_edge.c **** * Parameters:
 396:.\Generated_Source\PSoC5/isr_F2F_edge.c **** *   None
 397:.\Generated_Source\PSoC5/isr_F2F_edge.c **** *
 398:.\Generated_Source\PSoC5/isr_F2F_edge.c **** * Return:
 399:.\Generated_Source\PSoC5/isr_F2F_edge.c **** *   None
 400:.\Generated_Source\PSoC5/isr_F2F_edge.c **** *
 401:.\Generated_Source\PSoC5/isr_F2F_edge.c **** * Side Effects:
 402:.\Generated_Source\PSoC5/isr_F2F_edge.c **** *   If interrupts are enabled and the interrupt is set up properly, the ISR is
 403:.\Generated_Source\PSoC5/isr_F2F_edge.c **** *   entered (depending on the priority of this interrupt and other pending 
 404:.\Generated_Source\PSoC5/isr_F2F_edge.c **** *   interrupts).
 405:.\Generated_Source\PSoC5/isr_F2F_edge.c **** *
 406:.\Generated_Source\PSoC5/isr_F2F_edge.c **** *******************************************************************************/
 407:.\Generated_Source\PSoC5/isr_F2F_edge.c **** void isr_F2F_edge_SetPending(void)
 408:.\Generated_Source\PSoC5/isr_F2F_edge.c **** {
 534              		.loc 1 408 0
 535              		.cfi_startproc
 536              		@ args = 0, pretend = 0, frame = 0
 537              		@ frame_needed = 1, uses_anonymous_args = 0
 538              		@ link register save eliminated.
 539 0000 80B4     		push	{r7}
 540              		.cfi_def_cfa_offset 4
 541              		.cfi_offset 7, -4
 542 0002 00AF     		add	r7, sp, #0
 543              		.cfi_def_cfa_register 7
 409:.\Generated_Source\PSoC5/isr_F2F_edge.c ****     *isr_F2F_edge_INTC_SET_PD = isr_F2F_edge__INTC_MASK;
 544              		.loc 1 409 0
 545 0004 034B     		ldr	r3, .L41
 546 0006 0422     		movs	r2, #4
 547 0008 1A60     		str	r2, [r3]
 410:.\Generated_Source\PSoC5/isr_F2F_edge.c **** }
 548              		.loc 1 410 0
 549 000a BD46     		mov	sp, r7
 550              		.cfi_def_cfa_register 13
 551              		@ sp needed
 552 000c 5DF8047B 		ldr	r7, [sp], #4
 553              		.cfi_restore 7
 554              		.cfi_def_cfa_offset 0
 555 0010 7047     		bx	lr
 556              	.L42:
 557 0012 00BF     		.align	2
 558              	.L41:
 559 0014 00E200E0 		.word	-536813056
ARM GAS  C:\Users\yqh\AppData\Local\Temp\cchCxWst.s 			page 18


 560              		.cfi_endproc
 561              	.LFE74:
 562              		.size	isr_F2F_edge_SetPending, .-isr_F2F_edge_SetPending
 563              		.section	.text.isr_F2F_edge_ClearPending,"ax",%progbits
 564              		.align	2
 565              		.global	isr_F2F_edge_ClearPending
 566              		.thumb
 567              		.thumb_func
 568              		.type	isr_F2F_edge_ClearPending, %function
 569              	isr_F2F_edge_ClearPending:
 570              	.LFB75:
 411:.\Generated_Source\PSoC5/isr_F2F_edge.c **** 
 412:.\Generated_Source\PSoC5/isr_F2F_edge.c **** 
 413:.\Generated_Source\PSoC5/isr_F2F_edge.c **** /*******************************************************************************
 414:.\Generated_Source\PSoC5/isr_F2F_edge.c **** * Function Name: isr_F2F_edge_ClearPending
 415:.\Generated_Source\PSoC5/isr_F2F_edge.c **** ********************************************************************************
 416:.\Generated_Source\PSoC5/isr_F2F_edge.c **** *
 417:.\Generated_Source\PSoC5/isr_F2F_edge.c **** * Summary:
 418:.\Generated_Source\PSoC5/isr_F2F_edge.c **** *   Clears a pending interrupt in the interrupt controller.
 419:.\Generated_Source\PSoC5/isr_F2F_edge.c **** *
 420:.\Generated_Source\PSoC5/isr_F2F_edge.c **** *   Note Some interrupt sources are clear-on-read and require the block 
 421:.\Generated_Source\PSoC5/isr_F2F_edge.c **** *   interrupt/status register to be read/cleared with the appropriate block API 
 422:.\Generated_Source\PSoC5/isr_F2F_edge.c **** *   (GPIO, UART, and so on). Otherwise the ISR will continue to remain in 
 423:.\Generated_Source\PSoC5/isr_F2F_edge.c **** *   pending state even though the interrupt itself is cleared using this API.
 424:.\Generated_Source\PSoC5/isr_F2F_edge.c **** *
 425:.\Generated_Source\PSoC5/isr_F2F_edge.c **** * Parameters:
 426:.\Generated_Source\PSoC5/isr_F2F_edge.c **** *   None
 427:.\Generated_Source\PSoC5/isr_F2F_edge.c **** *
 428:.\Generated_Source\PSoC5/isr_F2F_edge.c **** * Return:
 429:.\Generated_Source\PSoC5/isr_F2F_edge.c **** *   None
 430:.\Generated_Source\PSoC5/isr_F2F_edge.c **** *
 431:.\Generated_Source\PSoC5/isr_F2F_edge.c **** *******************************************************************************/
 432:.\Generated_Source\PSoC5/isr_F2F_edge.c **** void isr_F2F_edge_ClearPending(void)
 433:.\Generated_Source\PSoC5/isr_F2F_edge.c **** {
 571              		.loc 1 433 0
 572              		.cfi_startproc
 573              		@ args = 0, pretend = 0, frame = 0
 574              		@ frame_needed = 1, uses_anonymous_args = 0
 575              		@ link register save eliminated.
 576 0000 80B4     		push	{r7}
 577              		.cfi_def_cfa_offset 4
 578              		.cfi_offset 7, -4
 579 0002 00AF     		add	r7, sp, #0
 580              		.cfi_def_cfa_register 7
 434:.\Generated_Source\PSoC5/isr_F2F_edge.c ****     *isr_F2F_edge_INTC_CLR_PD = isr_F2F_edge__INTC_MASK;
 581              		.loc 1 434 0
 582 0004 034B     		ldr	r3, .L44
 583 0006 0422     		movs	r2, #4
 584 0008 1A60     		str	r2, [r3]
 435:.\Generated_Source\PSoC5/isr_F2F_edge.c **** }
 585              		.loc 1 435 0
 586 000a BD46     		mov	sp, r7
 587              		.cfi_def_cfa_register 13
 588              		@ sp needed
 589 000c 5DF8047B 		ldr	r7, [sp], #4
 590              		.cfi_restore 7
 591              		.cfi_def_cfa_offset 0
ARM GAS  C:\Users\yqh\AppData\Local\Temp\cchCxWst.s 			page 19


 592 0010 7047     		bx	lr
 593              	.L45:
 594 0012 00BF     		.align	2
 595              	.L44:
 596 0014 80E200E0 		.word	-536812928
 597              		.cfi_endproc
 598              	.LFE75:
 599              		.size	isr_F2F_edge_ClearPending, .-isr_F2F_edge_ClearPending
 600              		.text
 601              	.Letext0:
 602              		.file 2 "c:\\program files (x86)\\cypress\\psoc creator\\3.3\\psoc creator\\import\\gnu\\arm\\4.9.
 603              		.file 3 "c:\\program files (x86)\\cypress\\psoc creator\\3.3\\psoc creator\\import\\gnu\\arm\\4.9.
 604              		.file 4 "Generated_Source\\PSoC5/cytypes.h"
 605              		.file 5 "./softuart.h"
 606              		.file 6 "Generated_Source\\PSoC5/core_cm3.h"
 607              		.file 7 "./system.h"