ARM GAS  C:\Users\ilya\AppData\Local\Temp\ccwRlClv.s 			page 1


   1              		.syntax unified
   2              		.cpu cortex-m0
   3              		.fpu softvfp
   4              		.eabi_attribute 20, 1
   5              		.eabi_attribute 21, 1
   6              		.eabi_attribute 23, 3
   7              		.eabi_attribute 24, 1
   8              		.eabi_attribute 25, 1
   9              		.eabi_attribute 26, 1
  10              		.eabi_attribute 30, 6
  11              		.eabi_attribute 34, 0
  12              		.eabi_attribute 18, 4
  13              		.thumb
  14              		.syntax unified
  15              		.file	"Comp_ISENSE_PM.c"
  16              		.text
  17              	.Ltext0:
  18              		.cfi_sections	.debug_frame
  19              		.bss
  20              		.align	2
  21              	Comp_ISENSE_backup:
  22 0000 00       		.space	1
  23              		.section	.text.Comp_ISENSE_SaveConfig,"ax",%progbits
  24              		.align	2
  25              		.global	Comp_ISENSE_SaveConfig
  26              		.code	16
  27              		.thumb_func
  28              		.type	Comp_ISENSE_SaveConfig, %function
  29              	Comp_ISENSE_SaveConfig:
  30              	.LFB0:
  31              		.file 1 "Generated_Source\\PSoC4\\Comp_ISENSE_PM.c"
   1:Generated_Source\PSoC4/Comp_ISENSE_PM.c **** /*******************************************************************************
   2:Generated_Source\PSoC4/Comp_ISENSE_PM.c **** * File Name: Comp_ISENSE_PM.c
   3:Generated_Source\PSoC4/Comp_ISENSE_PM.c **** * Version 1.20
   4:Generated_Source\PSoC4/Comp_ISENSE_PM.c **** *
   5:Generated_Source\PSoC4/Comp_ISENSE_PM.c **** * Description:
   6:Generated_Source\PSoC4/Comp_ISENSE_PM.c **** *  This file provides the power management source code APIs for the
   7:Generated_Source\PSoC4/Comp_ISENSE_PM.c **** *  Comparator.
   8:Generated_Source\PSoC4/Comp_ISENSE_PM.c **** *
   9:Generated_Source\PSoC4/Comp_ISENSE_PM.c **** * Note:
  10:Generated_Source\PSoC4/Comp_ISENSE_PM.c **** *  None
  11:Generated_Source\PSoC4/Comp_ISENSE_PM.c **** *
  12:Generated_Source\PSoC4/Comp_ISENSE_PM.c **** ********************************************************************************
  13:Generated_Source\PSoC4/Comp_ISENSE_PM.c **** * Copyright 2013-2015, Cypress Semiconductor Corporation.  All rights reserved.
  14:Generated_Source\PSoC4/Comp_ISENSE_PM.c **** * You may use this file only in accordance with the license, terms, conditions,
  15:Generated_Source\PSoC4/Comp_ISENSE_PM.c **** * disclaimers, and limitations in the end user license agreement accompanying
  16:Generated_Source\PSoC4/Comp_ISENSE_PM.c **** * the software package with which this file was provided.
  17:Generated_Source\PSoC4/Comp_ISENSE_PM.c **** *******************************************************************************/
  18:Generated_Source\PSoC4/Comp_ISENSE_PM.c **** 
  19:Generated_Source\PSoC4/Comp_ISENSE_PM.c **** #include "Comp_ISENSE.h"
  20:Generated_Source\PSoC4/Comp_ISENSE_PM.c **** 
  21:Generated_Source\PSoC4/Comp_ISENSE_PM.c **** #if(!Comp_ISENSE_CHECK_DEEPSLEEP_SUPPORT)
  22:Generated_Source\PSoC4/Comp_ISENSE_PM.c ****     static Comp_ISENSE_BACKUP_STRUCT Comp_ISENSE_backup =
  23:Generated_Source\PSoC4/Comp_ISENSE_PM.c ****     {
  24:Generated_Source\PSoC4/Comp_ISENSE_PM.c ****         0u, /* enableState */
  25:Generated_Source\PSoC4/Comp_ISENSE_PM.c ****     };
  26:Generated_Source\PSoC4/Comp_ISENSE_PM.c **** #endif /* (Comp_ISENSE_CHECK_DEEPSLEEP_SUPPORT) */
ARM GAS  C:\Users\ilya\AppData\Local\Temp\ccwRlClv.s 			page 2


  27:Generated_Source\PSoC4/Comp_ISENSE_PM.c **** 
  28:Generated_Source\PSoC4/Comp_ISENSE_PM.c **** 
  29:Generated_Source\PSoC4/Comp_ISENSE_PM.c **** /*******************************************************************************
  30:Generated_Source\PSoC4/Comp_ISENSE_PM.c **** * Function Name: Comp_ISENSE_SaveConfig
  31:Generated_Source\PSoC4/Comp_ISENSE_PM.c **** ********************************************************************************
  32:Generated_Source\PSoC4/Comp_ISENSE_PM.c **** *
  33:Generated_Source\PSoC4/Comp_ISENSE_PM.c **** * Summary:
  34:Generated_Source\PSoC4/Comp_ISENSE_PM.c **** *  Empty function. Included for consistency with other components.
  35:Generated_Source\PSoC4/Comp_ISENSE_PM.c **** *
  36:Generated_Source\PSoC4/Comp_ISENSE_PM.c **** * Parameters:
  37:Generated_Source\PSoC4/Comp_ISENSE_PM.c **** *  None
  38:Generated_Source\PSoC4/Comp_ISENSE_PM.c **** *
  39:Generated_Source\PSoC4/Comp_ISENSE_PM.c **** * Return:
  40:Generated_Source\PSoC4/Comp_ISENSE_PM.c **** *  None
  41:Generated_Source\PSoC4/Comp_ISENSE_PM.c **** *
  42:Generated_Source\PSoC4/Comp_ISENSE_PM.c **** *******************************************************************************/
  43:Generated_Source\PSoC4/Comp_ISENSE_PM.c **** void Comp_ISENSE_SaveConfig(void)
  44:Generated_Source\PSoC4/Comp_ISENSE_PM.c **** {
  32              		.loc 1 44 0
  33              		.cfi_startproc
  34              		@ args = 0, pretend = 0, frame = 0
  35              		@ frame_needed = 1, uses_anonymous_args = 0
  36 0000 80B5     		push	{r7, lr}
  37              		.cfi_def_cfa_offset 8
  38              		.cfi_offset 7, -8
  39              		.cfi_offset 14, -4
  40 0002 00AF     		add	r7, sp, #0
  41              		.cfi_def_cfa_register 7
  45:Generated_Source\PSoC4/Comp_ISENSE_PM.c **** 
  46:Generated_Source\PSoC4/Comp_ISENSE_PM.c **** }
  42              		.loc 1 46 0
  43 0004 C046     		nop
  44 0006 BD46     		mov	sp, r7
  45              		@ sp needed
  46 0008 80BD     		pop	{r7, pc}
  47              		.cfi_endproc
  48              	.LFE0:
  49              		.size	Comp_ISENSE_SaveConfig, .-Comp_ISENSE_SaveConfig
  50 000a C046     		.section	.text.Comp_ISENSE_RestoreConfig,"ax",%progbits
  51              		.align	2
  52              		.global	Comp_ISENSE_RestoreConfig
  53              		.code	16
  54              		.thumb_func
  55              		.type	Comp_ISENSE_RestoreConfig, %function
  56              	Comp_ISENSE_RestoreConfig:
  57              	.LFB1:
  47:Generated_Source\PSoC4/Comp_ISENSE_PM.c **** 
  48:Generated_Source\PSoC4/Comp_ISENSE_PM.c **** 
  49:Generated_Source\PSoC4/Comp_ISENSE_PM.c **** /*******************************************************************************
  50:Generated_Source\PSoC4/Comp_ISENSE_PM.c **** * Function Name: Comp_ISENSE_RestoreConfig
  51:Generated_Source\PSoC4/Comp_ISENSE_PM.c **** ********************************************************************************
  52:Generated_Source\PSoC4/Comp_ISENSE_PM.c **** *
  53:Generated_Source\PSoC4/Comp_ISENSE_PM.c **** * Summary:
  54:Generated_Source\PSoC4/Comp_ISENSE_PM.c **** *  Empty function. Included for consistency with other components.
  55:Generated_Source\PSoC4/Comp_ISENSE_PM.c **** *
  56:Generated_Source\PSoC4/Comp_ISENSE_PM.c **** * Parameters:
  57:Generated_Source\PSoC4/Comp_ISENSE_PM.c **** *  None
ARM GAS  C:\Users\ilya\AppData\Local\Temp\ccwRlClv.s 			page 3


  58:Generated_Source\PSoC4/Comp_ISENSE_PM.c **** *
  59:Generated_Source\PSoC4/Comp_ISENSE_PM.c **** * Return:
  60:Generated_Source\PSoC4/Comp_ISENSE_PM.c **** *  None
  61:Generated_Source\PSoC4/Comp_ISENSE_PM.c **** *
  62:Generated_Source\PSoC4/Comp_ISENSE_PM.c **** ********************************************************************************/
  63:Generated_Source\PSoC4/Comp_ISENSE_PM.c **** void Comp_ISENSE_RestoreConfig(void)
  64:Generated_Source\PSoC4/Comp_ISENSE_PM.c **** {
  58              		.loc 1 64 0
  59              		.cfi_startproc
  60              		@ args = 0, pretend = 0, frame = 0
  61              		@ frame_needed = 1, uses_anonymous_args = 0
  62 0000 80B5     		push	{r7, lr}
  63              		.cfi_def_cfa_offset 8
  64              		.cfi_offset 7, -8
  65              		.cfi_offset 14, -4
  66 0002 00AF     		add	r7, sp, #0
  67              		.cfi_def_cfa_register 7
  65:Generated_Source\PSoC4/Comp_ISENSE_PM.c **** 
  66:Generated_Source\PSoC4/Comp_ISENSE_PM.c **** }
  68              		.loc 1 66 0
  69 0004 C046     		nop
  70 0006 BD46     		mov	sp, r7
  71              		@ sp needed
  72 0008 80BD     		pop	{r7, pc}
  73              		.cfi_endproc
  74              	.LFE1:
  75              		.size	Comp_ISENSE_RestoreConfig, .-Comp_ISENSE_RestoreConfig
  76              		.section	.text.Comp_ISENSE_Sleep,"ax",%progbits
  77              		.align	2
  78              		.global	Comp_ISENSE_Sleep
  79              		.code	16
  80              		.thumb_func
  81              		.type	Comp_ISENSE_Sleep, %function
  82              	Comp_ISENSE_Sleep:
  83              	.LFB2:
  67:Generated_Source\PSoC4/Comp_ISENSE_PM.c **** 
  68:Generated_Source\PSoC4/Comp_ISENSE_PM.c **** 
  69:Generated_Source\PSoC4/Comp_ISENSE_PM.c **** /*******************************************************************************
  70:Generated_Source\PSoC4/Comp_ISENSE_PM.c **** * Function Name: Comp_ISENSE_Sleep
  71:Generated_Source\PSoC4/Comp_ISENSE_PM.c **** ********************************************************************************
  72:Generated_Source\PSoC4/Comp_ISENSE_PM.c **** *
  73:Generated_Source\PSoC4/Comp_ISENSE_PM.c **** * Summary:
  74:Generated_Source\PSoC4/Comp_ISENSE_PM.c **** *  This is the preferred API to prepare the component for sleep. The Sleep() API 
  75:Generated_Source\PSoC4/Comp_ISENSE_PM.c **** *  saves the current component state. Call the Comp_Sleep() function before 
  76:Generated_Source\PSoC4/Comp_ISENSE_PM.c **** *  calling the CySysPmDeepSleep() or the CySysPmHibernate() functions.
  77:Generated_Source\PSoC4/Comp_ISENSE_PM.c **** *  The "Deep sleep operation" option has an influence on this function
  78:Generated_Source\PSoC4/Comp_ISENSE_PM.c **** *  implementation.
  79:Generated_Source\PSoC4/Comp_ISENSE_PM.c **** *
  80:Generated_Source\PSoC4/Comp_ISENSE_PM.c **** * Parameters:
  81:Generated_Source\PSoC4/Comp_ISENSE_PM.c **** *  None
  82:Generated_Source\PSoC4/Comp_ISENSE_PM.c **** *
  83:Generated_Source\PSoC4/Comp_ISENSE_PM.c **** * Return:
  84:Generated_Source\PSoC4/Comp_ISENSE_PM.c **** *  None
  85:Generated_Source\PSoC4/Comp_ISENSE_PM.c **** *
  86:Generated_Source\PSoC4/Comp_ISENSE_PM.c **** *******************************************************************************/
  87:Generated_Source\PSoC4/Comp_ISENSE_PM.c **** void Comp_ISENSE_Sleep(void)
  88:Generated_Source\PSoC4/Comp_ISENSE_PM.c **** {
ARM GAS  C:\Users\ilya\AppData\Local\Temp\ccwRlClv.s 			page 4


  84              		.loc 1 88 0
  85              		.cfi_startproc
  86              		@ args = 0, pretend = 0, frame = 0
  87              		@ frame_needed = 1, uses_anonymous_args = 0
  88 0000 80B5     		push	{r7, lr}
  89              		.cfi_def_cfa_offset 8
  90              		.cfi_offset 7, -8
  91              		.cfi_offset 14, -4
  92 0002 00AF     		add	r7, sp, #0
  93              		.cfi_def_cfa_register 7
  89:Generated_Source\PSoC4/Comp_ISENSE_PM.c **** #if(!Comp_ISENSE_CHECK_DEEPSLEEP_SUPPORT)
  90:Generated_Source\PSoC4/Comp_ISENSE_PM.c ****     if(Comp_ISENSE_CHECK_PWR_MODE_OFF)
  94              		.loc 1 90 0
  95 0004 084B     		ldr	r3, .L7
  96 0006 1B68     		ldr	r3, [r3]
  97 0008 0322     		movs	r2, #3
  98 000a 1340     		ands	r3, r2
  99 000c 05D0     		beq	.L4
  91:Generated_Source\PSoC4/Comp_ISENSE_PM.c ****     {
  92:Generated_Source\PSoC4/Comp_ISENSE_PM.c ****         Comp_ISENSE_backup.enableState = 1u;
 100              		.loc 1 92 0
 101 000e 074B     		ldr	r3, .L7+4
 102 0010 0122     		movs	r2, #1
 103 0012 1A70     		strb	r2, [r3]
  93:Generated_Source\PSoC4/Comp_ISENSE_PM.c ****         Comp_ISENSE_Stop();
 104              		.loc 1 93 0
 105 0014 FFF7FEFF 		bl	Comp_ISENSE_Stop
  94:Generated_Source\PSoC4/Comp_ISENSE_PM.c ****     }
  95:Generated_Source\PSoC4/Comp_ISENSE_PM.c ****     else /* Component is disabled */
  96:Generated_Source\PSoC4/Comp_ISENSE_PM.c ****     {
  97:Generated_Source\PSoC4/Comp_ISENSE_PM.c ****         Comp_ISENSE_backup.enableState = 0u;
  98:Generated_Source\PSoC4/Comp_ISENSE_PM.c ****     }
  99:Generated_Source\PSoC4/Comp_ISENSE_PM.c **** #endif /* (Comp_ISENSE_CHECK_DEEPSLEEP_SUPPORT) */
 100:Generated_Source\PSoC4/Comp_ISENSE_PM.c **** }
 106              		.loc 1 100 0
 107 0018 02E0     		b	.L6
 108              	.L4:
  97:Generated_Source\PSoC4/Comp_ISENSE_PM.c ****     }
 109              		.loc 1 97 0
 110 001a 044B     		ldr	r3, .L7+4
 111 001c 0022     		movs	r2, #0
 112 001e 1A70     		strb	r2, [r3]
 113              	.L6:
 114              		.loc 1 100 0
 115 0020 C046     		nop
 116 0022 BD46     		mov	sp, r7
 117              		@ sp needed
 118 0024 80BD     		pop	{r7, pc}
 119              	.L8:
 120 0026 C046     		.align	2
 121              	.L7:
 122 0028 04001040 		.word	1074790404
 123 002c 00000000 		.word	Comp_ISENSE_backup
 124              		.cfi_endproc
 125              	.LFE2:
 126              		.size	Comp_ISENSE_Sleep, .-Comp_ISENSE_Sleep
 127              		.section	.text.Comp_ISENSE_Wakeup,"ax",%progbits
ARM GAS  C:\Users\ilya\AppData\Local\Temp\ccwRlClv.s 			page 5


 128              		.align	2
 129              		.global	Comp_ISENSE_Wakeup
 130              		.code	16
 131              		.thumb_func
 132              		.type	Comp_ISENSE_Wakeup, %function
 133              	Comp_ISENSE_Wakeup:
 134              	.LFB3:
 101:Generated_Source\PSoC4/Comp_ISENSE_PM.c **** 
 102:Generated_Source\PSoC4/Comp_ISENSE_PM.c **** 
 103:Generated_Source\PSoC4/Comp_ISENSE_PM.c **** /*******************************************************************************
 104:Generated_Source\PSoC4/Comp_ISENSE_PM.c **** * Function Name: Comp_ISENSE_Wakeup
 105:Generated_Source\PSoC4/Comp_ISENSE_PM.c **** ********************************************************************************
 106:Generated_Source\PSoC4/Comp_ISENSE_PM.c **** *
 107:Generated_Source\PSoC4/Comp_ISENSE_PM.c **** * Summary:
 108:Generated_Source\PSoC4/Comp_ISENSE_PM.c **** *  This is the preferred API to restore the component to the state when Sleep() 
 109:Generated_Source\PSoC4/Comp_ISENSE_PM.c **** *  was called. The Wakeup() function will also re-enable the component. 
 110:Generated_Source\PSoC4/Comp_ISENSE_PM.c **** *  The "Deep sleep operation" option has an influence on this function
 111:Generated_Source\PSoC4/Comp_ISENSE_PM.c **** *  implementation.
 112:Generated_Source\PSoC4/Comp_ISENSE_PM.c **** *
 113:Generated_Source\PSoC4/Comp_ISENSE_PM.c **** * Parameters:
 114:Generated_Source\PSoC4/Comp_ISENSE_PM.c **** *  None
 115:Generated_Source\PSoC4/Comp_ISENSE_PM.c **** *
 116:Generated_Source\PSoC4/Comp_ISENSE_PM.c **** * Return:
 117:Generated_Source\PSoC4/Comp_ISENSE_PM.c **** *  None
 118:Generated_Source\PSoC4/Comp_ISENSE_PM.c **** *
 119:Generated_Source\PSoC4/Comp_ISENSE_PM.c **** *******************************************************************************/
 120:Generated_Source\PSoC4/Comp_ISENSE_PM.c **** void Comp_ISENSE_Wakeup(void)
 121:Generated_Source\PSoC4/Comp_ISENSE_PM.c **** {
 135              		.loc 1 121 0
 136              		.cfi_startproc
 137              		@ args = 0, pretend = 0, frame = 0
 138              		@ frame_needed = 1, uses_anonymous_args = 0
 139 0000 80B5     		push	{r7, lr}
 140              		.cfi_def_cfa_offset 8
 141              		.cfi_offset 7, -8
 142              		.cfi_offset 14, -4
 143 0002 00AF     		add	r7, sp, #0
 144              		.cfi_def_cfa_register 7
 122:Generated_Source\PSoC4/Comp_ISENSE_PM.c **** #if(!Comp_ISENSE_CHECK_DEEPSLEEP_SUPPORT)
 123:Generated_Source\PSoC4/Comp_ISENSE_PM.c ****     if(0u != Comp_ISENSE_backup.enableState)
 145              		.loc 1 123 0
 146 0004 044B     		ldr	r3, .L12
 147 0006 1B78     		ldrb	r3, [r3]
 148 0008 002B     		cmp	r3, #0
 149 000a 01D0     		beq	.L11
 124:Generated_Source\PSoC4/Comp_ISENSE_PM.c ****     {
 125:Generated_Source\PSoC4/Comp_ISENSE_PM.c ****         /* Enable Comp's operation */
 126:Generated_Source\PSoC4/Comp_ISENSE_PM.c ****         Comp_ISENSE_Enable();
 150              		.loc 1 126 0
 151 000c FFF7FEFF 		bl	Comp_ISENSE_Enable
 152              	.L11:
 127:Generated_Source\PSoC4/Comp_ISENSE_PM.c ****     } /* Do nothing if Comp was disabled before */
 128:Generated_Source\PSoC4/Comp_ISENSE_PM.c **** #endif /* (Comp_ISENSE_CHECK_DEEPSLEEP_SUPPORT) */
 129:Generated_Source\PSoC4/Comp_ISENSE_PM.c **** }
 153              		.loc 1 129 0
 154 0010 C046     		nop
 155 0012 BD46     		mov	sp, r7
ARM GAS  C:\Users\ilya\AppData\Local\Temp\ccwRlClv.s 			page 6


 156              		@ sp needed
 157 0014 80BD     		pop	{r7, pc}
 158              	.L13:
 159 0016 C046     		.align	2
 160              	.L12:
 161 0018 00000000 		.word	Comp_ISENSE_backup
 162              		.cfi_endproc
 163              	.LFE3:
 164              		.size	Comp_ISENSE_Wakeup, .-Comp_ISENSE_Wakeup
 165              		.text
 166              	.Letext0:
 167              		.file 2 "Generated_Source\\PSoC4\\cytypes.h"
 168              		.file 3 "Generated_Source\\PSoC4\\Comp_ISENSE.h"