ARM GAS  C:\Users\ilya\AppData\Local\Temp\ccyexrGp.s 			page 1


   1              		.syntax unified
   2              		.cpu cortex-m0
   3              		.fpu softvfp
   4              		.eabi_attribute 20, 1
   5              		.eabi_attribute 21, 1
   6              		.eabi_attribute 23, 3
   7              		.eabi_attribute 24, 1
   8              		.eabi_attribute 25, 1
   9              		.eabi_attribute 26, 1
  10              		.eabi_attribute 30, 6
  11              		.eabi_attribute 34, 0
  12              		.eabi_attribute 18, 4
  13              		.thumb
  14              		.syntax unified
  15              		.file	"EZI2C_CAM_EZI2C.c"
  16              		.text
  17              	.Ltext0:
  18              		.cfi_sections	.debug_frame
  19              		.comm	EZI2C_CAM_curStatus,1,1
  20              		.comm	EZI2C_CAM_fsmState,1,1
  21              		.comm	EZI2C_CAM_dataBuffer1,4,4
  22              		.comm	EZI2C_CAM_bufSizeBuf1,2,2
  23              		.comm	EZI2C_CAM_protectBuf1,2,2
  24              		.comm	EZI2C_CAM_offsetBuf1,1,1
  25              		.comm	EZI2C_CAM_indexBuf1,2,2
  26              		.section	.text.EZI2C_CAM_EzI2CInit,"ax",%progbits
  27              		.align	2
  28              		.global	EZI2C_CAM_EzI2CInit
  29              		.code	16
  30              		.thumb_func
  31              		.type	EZI2C_CAM_EzI2CInit, %function
  32              	EZI2C_CAM_EzI2CInit:
  33              	.LFB0:
  34              		.file 1 "Generated_Source\\PSoC4\\EZI2C_CAM_EZI2C.c"
   1:Generated_Source\PSoC4/EZI2C_CAM_EZI2C.c **** /***************************************************************************//**
   2:Generated_Source\PSoC4/EZI2C_CAM_EZI2C.c **** * \file EZI2C_CAM_EZI2C.c
   3:Generated_Source\PSoC4/EZI2C_CAM_EZI2C.c **** * \version 3.20
   4:Generated_Source\PSoC4/EZI2C_CAM_EZI2C.c **** *
   5:Generated_Source\PSoC4/EZI2C_CAM_EZI2C.c **** * \brief
   6:Generated_Source\PSoC4/EZI2C_CAM_EZI2C.c **** *  This file provides the source code to the API for the SCB Component in
   7:Generated_Source\PSoC4/EZI2C_CAM_EZI2C.c **** *  EZI2C mode.
   8:Generated_Source\PSoC4/EZI2C_CAM_EZI2C.c **** *
   9:Generated_Source\PSoC4/EZI2C_CAM_EZI2C.c **** * Note:
  10:Generated_Source\PSoC4/EZI2C_CAM_EZI2C.c **** *
  11:Generated_Source\PSoC4/EZI2C_CAM_EZI2C.c **** *******************************************************************************
  12:Generated_Source\PSoC4/EZI2C_CAM_EZI2C.c **** * \copyright
  13:Generated_Source\PSoC4/EZI2C_CAM_EZI2C.c **** * Copyright 2013-2016, Cypress Semiconductor Corporation.  All rights reserved.
  14:Generated_Source\PSoC4/EZI2C_CAM_EZI2C.c **** * You may use this file only in accordance with the license, terms, conditions,
  15:Generated_Source\PSoC4/EZI2C_CAM_EZI2C.c **** * disclaimers, and limitations in the end user license agreement accompanying
  16:Generated_Source\PSoC4/EZI2C_CAM_EZI2C.c **** * the software package with which this file was provided.
  17:Generated_Source\PSoC4/EZI2C_CAM_EZI2C.c **** *******************************************************************************/
  18:Generated_Source\PSoC4/EZI2C_CAM_EZI2C.c **** 
  19:Generated_Source\PSoC4/EZI2C_CAM_EZI2C.c **** #include "EZI2C_CAM_PVT.h"
  20:Generated_Source\PSoC4/EZI2C_CAM_EZI2C.c **** #include "EZI2C_CAM_EZI2C_PVT.h"
  21:Generated_Source\PSoC4/EZI2C_CAM_EZI2C.c **** 
  22:Generated_Source\PSoC4/EZI2C_CAM_EZI2C.c **** 
  23:Generated_Source\PSoC4/EZI2C_CAM_EZI2C.c **** /***************************************
ARM GAS  C:\Users\ilya\AppData\Local\Temp\ccyexrGp.s 			page 2


  24:Generated_Source\PSoC4/EZI2C_CAM_EZI2C.c **** *      EZI2C Private Vars
  25:Generated_Source\PSoC4/EZI2C_CAM_EZI2C.c **** ***************************************/
  26:Generated_Source\PSoC4/EZI2C_CAM_EZI2C.c **** 
  27:Generated_Source\PSoC4/EZI2C_CAM_EZI2C.c **** volatile uint8 EZI2C_CAM_curStatus; /* Status byte */
  28:Generated_Source\PSoC4/EZI2C_CAM_EZI2C.c **** uint8 EZI2C_CAM_fsmState;           /* FSM state   */
  29:Generated_Source\PSoC4/EZI2C_CAM_EZI2C.c **** 
  30:Generated_Source\PSoC4/EZI2C_CAM_EZI2C.c **** /* Variables intended to be used with Buffer 1: Primary slave address */
  31:Generated_Source\PSoC4/EZI2C_CAM_EZI2C.c **** volatile uint8 * EZI2C_CAM_dataBuffer1; /* Pointer to data buffer 1 */
  32:Generated_Source\PSoC4/EZI2C_CAM_EZI2C.c **** uint16 EZI2C_CAM_bufSizeBuf1;           /* Size of buffer 1 in bytes      */
  33:Generated_Source\PSoC4/EZI2C_CAM_EZI2C.c **** uint16 EZI2C_CAM_protectBuf1;           /* Start index of write protected area buffer 1 */
  34:Generated_Source\PSoC4/EZI2C_CAM_EZI2C.c **** uint8 EZI2C_CAM_offsetBuf1; /* Current offset within buffer 1 */
  35:Generated_Source\PSoC4/EZI2C_CAM_EZI2C.c **** uint16 EZI2C_CAM_indexBuf1;             /* Current index within buffer 1  */
  36:Generated_Source\PSoC4/EZI2C_CAM_EZI2C.c **** 
  37:Generated_Source\PSoC4/EZI2C_CAM_EZI2C.c **** #if(EZI2C_CAM_SECONDARY_ADDRESS_ENABLE_CONST)
  38:Generated_Source\PSoC4/EZI2C_CAM_EZI2C.c ****     uint8 EZI2C_CAM_addrBuf1; /* Primary slave address. Used for software comparison   */
  39:Generated_Source\PSoC4/EZI2C_CAM_EZI2C.c ****     uint8 EZI2C_CAM_addrBuf2; /* Secondary slave address. Used for software comparison */
  40:Generated_Source\PSoC4/EZI2C_CAM_EZI2C.c **** 
  41:Generated_Source\PSoC4/EZI2C_CAM_EZI2C.c ****     /* Variables intended to be used with Buffer 2: Primary slave address */
  42:Generated_Source\PSoC4/EZI2C_CAM_EZI2C.c ****     volatile uint8 * EZI2C_CAM_dataBuffer2; /* Pointer to data buffer 2 */
  43:Generated_Source\PSoC4/EZI2C_CAM_EZI2C.c ****     uint16 EZI2C_CAM_bufSizeBuf2;           /* Size of buffer 2 in bytes */
  44:Generated_Source\PSoC4/EZI2C_CAM_EZI2C.c ****     uint16 EZI2C_CAM_protectBuf2;           /* Start index of write protected area buffer 2 */
  45:Generated_Source\PSoC4/EZI2C_CAM_EZI2C.c ****     uint8 EZI2C_CAM_offsetBuf2; /* Current offset within buffer 2 */
  46:Generated_Source\PSoC4/EZI2C_CAM_EZI2C.c ****     uint16 EZI2C_CAM_indexBuf2;             /* Current index within buffer 2 */
  47:Generated_Source\PSoC4/EZI2C_CAM_EZI2C.c **** #endif /* (EZI2C_CAM_SECONDARY_ADDRESS_ENABLE_CONST) */
  48:Generated_Source\PSoC4/EZI2C_CAM_EZI2C.c **** 
  49:Generated_Source\PSoC4/EZI2C_CAM_EZI2C.c **** 
  50:Generated_Source\PSoC4/EZI2C_CAM_EZI2C.c **** /***************************************
  51:Generated_Source\PSoC4/EZI2C_CAM_EZI2C.c **** *      EZI2C Private Functions
  52:Generated_Source\PSoC4/EZI2C_CAM_EZI2C.c **** ***************************************/
  53:Generated_Source\PSoC4/EZI2C_CAM_EZI2C.c **** 
  54:Generated_Source\PSoC4/EZI2C_CAM_EZI2C.c **** #if(EZI2C_CAM_SECONDARY_ADDRESS_ENABLE_CONST)
  55:Generated_Source\PSoC4/EZI2C_CAM_EZI2C.c ****     static uint32 EZI2C_CAM_EzI2CUpdateRxMatchReg(uint32 addr1, uint32 addr2);
  56:Generated_Source\PSoC4/EZI2C_CAM_EZI2C.c **** #endif /* (EZI2C_CAM_SECONDARY_ADDRESS_ENABLE_CONST) */
  57:Generated_Source\PSoC4/EZI2C_CAM_EZI2C.c **** 
  58:Generated_Source\PSoC4/EZI2C_CAM_EZI2C.c **** #if(EZI2C_CAM_SCB_MODE_UNCONFIG_CONST_CFG)
  59:Generated_Source\PSoC4/EZI2C_CAM_EZI2C.c **** 
  60:Generated_Source\PSoC4/EZI2C_CAM_EZI2C.c ****     /***************************************
  61:Generated_Source\PSoC4/EZI2C_CAM_EZI2C.c ****     *  Configuration Structure Initialization
  62:Generated_Source\PSoC4/EZI2C_CAM_EZI2C.c ****     ***************************************/
  63:Generated_Source\PSoC4/EZI2C_CAM_EZI2C.c **** 
  64:Generated_Source\PSoC4/EZI2C_CAM_EZI2C.c ****     /* Constant configuration of EZI2C */
  65:Generated_Source\PSoC4/EZI2C_CAM_EZI2C.c ****     const EZI2C_CAM_EZI2C_INIT_STRUCT EZI2C_CAM_configEzI2C =
  66:Generated_Source\PSoC4/EZI2C_CAM_EZI2C.c ****     {
  67:Generated_Source\PSoC4/EZI2C_CAM_EZI2C.c ****         EZI2C_CAM_EZI2C_CLOCK_STRETCHING,
  68:Generated_Source\PSoC4/EZI2C_CAM_EZI2C.c ****         EZI2C_CAM_EZI2C_MEDIAN_FILTER_ENABLE,
  69:Generated_Source\PSoC4/EZI2C_CAM_EZI2C.c ****         EZI2C_CAM_EZI2C_NUMBER_OF_ADDRESSES,
  70:Generated_Source\PSoC4/EZI2C_CAM_EZI2C.c ****         EZI2C_CAM_EZI2C_PRIMARY_SLAVE_ADDRESS,
  71:Generated_Source\PSoC4/EZI2C_CAM_EZI2C.c ****         EZI2C_CAM_EZI2C_SECONDARY_SLAVE_ADDRESS,
  72:Generated_Source\PSoC4/EZI2C_CAM_EZI2C.c ****         EZI2C_CAM_EZI2C_SUB_ADDRESS_SIZE,
  73:Generated_Source\PSoC4/EZI2C_CAM_EZI2C.c ****         EZI2C_CAM_EZI2C_WAKE_ENABLE,
  74:Generated_Source\PSoC4/EZI2C_CAM_EZI2C.c ****         EZI2C_CAM_EZI2C_BYTE_MODE_ENABLE
  75:Generated_Source\PSoC4/EZI2C_CAM_EZI2C.c ****     };
  76:Generated_Source\PSoC4/EZI2C_CAM_EZI2C.c **** 
  77:Generated_Source\PSoC4/EZI2C_CAM_EZI2C.c ****     /*******************************************************************************
  78:Generated_Source\PSoC4/EZI2C_CAM_EZI2C.c ****     * Function Name: EZI2C_CAM_EzI2CInit
  79:Generated_Source\PSoC4/EZI2C_CAM_EZI2C.c ****     ****************************************************************************//**
  80:Generated_Source\PSoC4/EZI2C_CAM_EZI2C.c ****     *
ARM GAS  C:\Users\ilya\AppData\Local\Temp\ccyexrGp.s 			page 3


  81:Generated_Source\PSoC4/EZI2C_CAM_EZI2C.c ****     *  Configures the EZI2C_CAM for EZI2C operation.
  82:Generated_Source\PSoC4/EZI2C_CAM_EZI2C.c ****     *
  83:Generated_Source\PSoC4/EZI2C_CAM_EZI2C.c ****     *  This function is intended specifically to be used when the EZI2C_CAM 
  84:Generated_Source\PSoC4/EZI2C_CAM_EZI2C.c ****     *  configuration is set to “Unconfigured EZI2C_CAM” in the customizer. 
  85:Generated_Source\PSoC4/EZI2C_CAM_EZI2C.c ****     *  After initializing the EZI2C_CAM in EZI2C mode using this function, 
  86:Generated_Source\PSoC4/EZI2C_CAM_EZI2C.c ****     *  the component can be enabled using the EZI2C_CAM_Start() or 
  87:Generated_Source\PSoC4/EZI2C_CAM_EZI2C.c ****     * EZI2C_CAM_Enable() function.
  88:Generated_Source\PSoC4/EZI2C_CAM_EZI2C.c ****     *  This function uses a pointer to a structure that provides the configuration 
  89:Generated_Source\PSoC4/EZI2C_CAM_EZI2C.c ****     *  settings. This structure contains the same information that would otherwise 
  90:Generated_Source\PSoC4/EZI2C_CAM_EZI2C.c ****     *  be provided by the customizer settings.
  91:Generated_Source\PSoC4/EZI2C_CAM_EZI2C.c ****     *
  92:Generated_Source\PSoC4/EZI2C_CAM_EZI2C.c ****     * \param config: pointer to a structure that contains the following list of 
  93:Generated_Source\PSoC4/EZI2C_CAM_EZI2C.c ****     *  fields. These fields match the selections available in the customizer. 
  94:Generated_Source\PSoC4/EZI2C_CAM_EZI2C.c ****     *  Refer to the customizer for further description of the settings.
  95:Generated_Source\PSoC4/EZI2C_CAM_EZI2C.c ****     *
  96:Generated_Source\PSoC4/EZI2C_CAM_EZI2C.c ****     *******************************************************************************/
  97:Generated_Source\PSoC4/EZI2C_CAM_EZI2C.c ****     void EZI2C_CAM_EzI2CInit(const EZI2C_CAM_EZI2C_INIT_STRUCT *config)
  98:Generated_Source\PSoC4/EZI2C_CAM_EZI2C.c ****     {
  99:Generated_Source\PSoC4/EZI2C_CAM_EZI2C.c ****         if(NULL == config)
 100:Generated_Source\PSoC4/EZI2C_CAM_EZI2C.c ****         {
 101:Generated_Source\PSoC4/EZI2C_CAM_EZI2C.c ****             CYASSERT(0u != 0u); /* Halt execution due to bad function parameter */
 102:Generated_Source\PSoC4/EZI2C_CAM_EZI2C.c ****         }
 103:Generated_Source\PSoC4/EZI2C_CAM_EZI2C.c ****         else
 104:Generated_Source\PSoC4/EZI2C_CAM_EZI2C.c ****         {
 105:Generated_Source\PSoC4/EZI2C_CAM_EZI2C.c ****             /* Configure pins */
 106:Generated_Source\PSoC4/EZI2C_CAM_EZI2C.c ****             EZI2C_CAM_SetPins(EZI2C_CAM_SCB_MODE_EZI2C, EZI2C_CAM_DUMMY_PARAM,
 107:Generated_Source\PSoC4/EZI2C_CAM_EZI2C.c ****                                                                       EZI2C_CAM_DUMMY_PARAM);
 108:Generated_Source\PSoC4/EZI2C_CAM_EZI2C.c **** 
 109:Generated_Source\PSoC4/EZI2C_CAM_EZI2C.c ****             /* Store internal configuration */
 110:Generated_Source\PSoC4/EZI2C_CAM_EZI2C.c ****             EZI2C_CAM_scbMode       = (uint8) EZI2C_CAM_SCB_MODE_EZI2C;
 111:Generated_Source\PSoC4/EZI2C_CAM_EZI2C.c ****             EZI2C_CAM_scbEnableWake = (uint8) config->enableWake;
 112:Generated_Source\PSoC4/EZI2C_CAM_EZI2C.c ****             EZI2C_CAM_scbEnableIntr = (uint8) EZI2C_CAM_SCB_IRQ_INTERNAL;
 113:Generated_Source\PSoC4/EZI2C_CAM_EZI2C.c **** 
 114:Generated_Source\PSoC4/EZI2C_CAM_EZI2C.c ****             EZI2C_CAM_numberOfAddr  = (uint8) config->numberOfAddresses;
 115:Generated_Source\PSoC4/EZI2C_CAM_EZI2C.c ****             EZI2C_CAM_subAddrSize   = (uint8) config->subAddrSize;
 116:Generated_Source\PSoC4/EZI2C_CAM_EZI2C.c **** 
 117:Generated_Source\PSoC4/EZI2C_CAM_EZI2C.c ****         #if (EZI2C_CAM_CY_SCBIP_V0)
 118:Generated_Source\PSoC4/EZI2C_CAM_EZI2C.c ****             /* Adjust SDA filter settings. Ticket ID#150521 */
 119:Generated_Source\PSoC4/EZI2C_CAM_EZI2C.c ****             EZI2C_CAM_SET_I2C_CFG_SDA_FILT_TRIM(EZI2C_CAM_EC_AM_I2C_CFG_SDA_FILT_TRIM);
 120:Generated_Source\PSoC4/EZI2C_CAM_EZI2C.c ****         #endif /* (EZI2C_CAM_CY_SCBIP_V0) */
 121:Generated_Source\PSoC4/EZI2C_CAM_EZI2C.c **** 
 122:Generated_Source\PSoC4/EZI2C_CAM_EZI2C.c ****             /* Adjust AF and DF filter settings, AF = 1, DF = 0. Ticket ID#176179 */
 123:Generated_Source\PSoC4/EZI2C_CAM_EZI2C.c ****             EZI2C_CAM_I2C_CFG_ANALOG_FITER_ENABLE;
 124:Generated_Source\PSoC4/EZI2C_CAM_EZI2C.c **** 
 125:Generated_Source\PSoC4/EZI2C_CAM_EZI2C.c ****             /* Configure I2C interface */
 126:Generated_Source\PSoC4/EZI2C_CAM_EZI2C.c ****             EZI2C_CAM_CTRL_REG     = EZI2C_CAM_GET_CTRL_BYTE_MODE  (config->enableByteMode)    |
 127:Generated_Source\PSoC4/EZI2C_CAM_EZI2C.c ****                                             EZI2C_CAM_GET_CTRL_ADDR_ACCEPT(config->numberOfAddresse
 128:Generated_Source\PSoC4/EZI2C_CAM_EZI2C.c ****                                             EZI2C_CAM_GET_CTRL_EC_AM_MODE (config->enableWake);
 129:Generated_Source\PSoC4/EZI2C_CAM_EZI2C.c **** 
 130:Generated_Source\PSoC4/EZI2C_CAM_EZI2C.c ****             EZI2C_CAM_I2C_CTRL_REG = EZI2C_CAM_EZI2C_CTRL;
 131:Generated_Source\PSoC4/EZI2C_CAM_EZI2C.c **** 
 132:Generated_Source\PSoC4/EZI2C_CAM_EZI2C.c ****             /* Configure RX direction */
 133:Generated_Source\PSoC4/EZI2C_CAM_EZI2C.c ****             EZI2C_CAM_RX_CTRL_REG = EZI2C_CAM_EZI2C_RX_CTRL |
 134:Generated_Source\PSoC4/EZI2C_CAM_EZI2C.c ****                                         EZI2C_CAM_GET_RX_CTRL_MEDIAN(EZI2C_CAM_DIGITAL_FILTER_DISAB
 135:Generated_Source\PSoC4/EZI2C_CAM_EZI2C.c ****                                                 ;
 136:Generated_Source\PSoC4/EZI2C_CAM_EZI2C.c ****             EZI2C_CAM_RX_FIFO_CTRL_REG = EZI2C_CAM_CLEAR_REG;
 137:Generated_Source\PSoC4/EZI2C_CAM_EZI2C.c **** 
ARM GAS  C:\Users\ilya\AppData\Local\Temp\ccyexrGp.s 			page 4


 138:Generated_Source\PSoC4/EZI2C_CAM_EZI2C.c ****             /* Set default address and mask */
 139:Generated_Source\PSoC4/EZI2C_CAM_EZI2C.c ****             if(EZI2C_CAM_EZI2C_PRIMARY_ADDRESS == config->numberOfAddresses)
 140:Generated_Source\PSoC4/EZI2C_CAM_EZI2C.c ****             {
 141:Generated_Source\PSoC4/EZI2C_CAM_EZI2C.c ****                 EZI2C_CAM_RX_MATCH_REG = EZI2C_CAM_EzI2CUpdateRxMatchReg(config->primarySlaveAddr,
 142:Generated_Source\PSoC4/EZI2C_CAM_EZI2C.c ****                                                                                        config->prim
 143:Generated_Source\PSoC4/EZI2C_CAM_EZI2C.c ****             }
 144:Generated_Source\PSoC4/EZI2C_CAM_EZI2C.c ****             else
 145:Generated_Source\PSoC4/EZI2C_CAM_EZI2C.c ****             {
 146:Generated_Source\PSoC4/EZI2C_CAM_EZI2C.c ****                 EZI2C_CAM_RX_MATCH_REG = EZI2C_CAM_EzI2CUpdateRxMatchReg(config->primarySlaveAddr,
 147:Generated_Source\PSoC4/EZI2C_CAM_EZI2C.c ****                                                                                        config->seco
 148:Generated_Source\PSoC4/EZI2C_CAM_EZI2C.c ****             }
 149:Generated_Source\PSoC4/EZI2C_CAM_EZI2C.c **** 
 150:Generated_Source\PSoC4/EZI2C_CAM_EZI2C.c ****             /* Configure TX direction */
 151:Generated_Source\PSoC4/EZI2C_CAM_EZI2C.c ****             EZI2C_CAM_TX_CTRL_REG      = EZI2C_CAM_EZI2C_TX_CTRL;
 152:Generated_Source\PSoC4/EZI2C_CAM_EZI2C.c ****             EZI2C_CAM_TX_FIFO_CTRL_REG = ((0u != (config->enableClockStretch)) ?
 153:Generated_Source\PSoC4/EZI2C_CAM_EZI2C.c ****                                                  EZI2C_CAM_CLEAR_REG : EZI2C_CAM_EZI2C_TX_FIFO_CTRL
 154:Generated_Source\PSoC4/EZI2C_CAM_EZI2C.c **** 
 155:Generated_Source\PSoC4/EZI2C_CAM_EZI2C.c ****             /* Configure interrupt sources */
 156:Generated_Source\PSoC4/EZI2C_CAM_EZI2C.c ****         #if (!EZI2C_CAM_CY_SCBIP_V1)
 157:Generated_Source\PSoC4/EZI2C_CAM_EZI2C.c ****            EZI2C_CAM_INTR_SPI_EC_MASK_REG = EZI2C_CAM_NO_INTR_SOURCES;
 158:Generated_Source\PSoC4/EZI2C_CAM_EZI2C.c ****         #endif /* (!EZI2C_CAM_CY_SCBIP_V1) */
 159:Generated_Source\PSoC4/EZI2C_CAM_EZI2C.c **** 
 160:Generated_Source\PSoC4/EZI2C_CAM_EZI2C.c ****             EZI2C_CAM_INTR_I2C_EC_MASK_REG = EZI2C_CAM_NO_INTR_SOURCES;
 161:Generated_Source\PSoC4/EZI2C_CAM_EZI2C.c ****             EZI2C_CAM_INTR_MASTER_MASK_REG = EZI2C_CAM_NO_INTR_SOURCES;
 162:Generated_Source\PSoC4/EZI2C_CAM_EZI2C.c ****             EZI2C_CAM_INTR_SLAVE_MASK_REG  = EZI2C_CAM_EZI2C_INTR_SLAVE_MASK;
 163:Generated_Source\PSoC4/EZI2C_CAM_EZI2C.c ****             EZI2C_CAM_INTR_TX_MASK_REG     = EZI2C_CAM_NO_INTR_SOURCES;
 164:Generated_Source\PSoC4/EZI2C_CAM_EZI2C.c **** 
 165:Generated_Source\PSoC4/EZI2C_CAM_EZI2C.c ****             /* Configure interrupt with EZI2C handler but do not enable it */
 166:Generated_Source\PSoC4/EZI2C_CAM_EZI2C.c ****             CyIntDisable    (EZI2C_CAM_ISR_NUMBER);
 167:Generated_Source\PSoC4/EZI2C_CAM_EZI2C.c ****             CyIntSetPriority(EZI2C_CAM_ISR_NUMBER, EZI2C_CAM_ISR_PRIORITY);
 168:Generated_Source\PSoC4/EZI2C_CAM_EZI2C.c ****             (void) CyIntSetVector(EZI2C_CAM_ISR_NUMBER, (0u != (config->enableClockStretch)) ?
 169:Generated_Source\PSoC4/EZI2C_CAM_EZI2C.c ****                                                                       (&EZI2C_CAM_EZI2C_STRETCH_ISR
 170:Generated_Source\PSoC4/EZI2C_CAM_EZI2C.c ****                                                                       (&EZI2C_CAM_EZI2C_NO_STRETCH_
 171:Generated_Source\PSoC4/EZI2C_CAM_EZI2C.c **** 
 172:Generated_Source\PSoC4/EZI2C_CAM_EZI2C.c ****             if(0u != (config->enableClockStretch))
 173:Generated_Source\PSoC4/EZI2C_CAM_EZI2C.c ****             {
 174:Generated_Source\PSoC4/EZI2C_CAM_EZI2C.c ****                 /* Configure interrupt sources */
 175:Generated_Source\PSoC4/EZI2C_CAM_EZI2C.c ****                 EZI2C_CAM_INTR_SLAVE_MASK_REG |= EZI2C_CAM_INTR_SLAVE_I2C_ADDR_MATCH;
 176:Generated_Source\PSoC4/EZI2C_CAM_EZI2C.c ****                 EZI2C_CAM_INTR_RX_MASK_REG     = EZI2C_CAM_NO_INTR_SOURCES;
 177:Generated_Source\PSoC4/EZI2C_CAM_EZI2C.c ****             }
 178:Generated_Source\PSoC4/EZI2C_CAM_EZI2C.c ****             else
 179:Generated_Source\PSoC4/EZI2C_CAM_EZI2C.c ****             {
 180:Generated_Source\PSoC4/EZI2C_CAM_EZI2C.c ****                 /* Enable Auto ACK/NACK features */
 181:Generated_Source\PSoC4/EZI2C_CAM_EZI2C.c ****                 EZI2C_CAM_I2C_CTRL_REG |= EZI2C_CAM_EZI2C_CTRL_AUTO;
 182:Generated_Source\PSoC4/EZI2C_CAM_EZI2C.c **** 
 183:Generated_Source\PSoC4/EZI2C_CAM_EZI2C.c ****                 /* Configure RX interrupt source */
 184:Generated_Source\PSoC4/EZI2C_CAM_EZI2C.c ****                 EZI2C_CAM_INTR_SLAVE_MASK_REG |= EZI2C_CAM_INTR_SLAVE_I2C_START;
 185:Generated_Source\PSoC4/EZI2C_CAM_EZI2C.c ****                 EZI2C_CAM_INTR_RX_MASK_REG     = EZI2C_CAM_INTR_RX_NOT_EMPTY;
 186:Generated_Source\PSoC4/EZI2C_CAM_EZI2C.c ****             }
 187:Generated_Source\PSoC4/EZI2C_CAM_EZI2C.c **** 
 188:Generated_Source\PSoC4/EZI2C_CAM_EZI2C.c ****             /* Configure global variables */
 189:Generated_Source\PSoC4/EZI2C_CAM_EZI2C.c ****             EZI2C_CAM_fsmState = EZI2C_CAM_EZI2C_FSM_IDLE;
 190:Generated_Source\PSoC4/EZI2C_CAM_EZI2C.c **** 
 191:Generated_Source\PSoC4/EZI2C_CAM_EZI2C.c ****             EZI2C_CAM_curStatus  = 0u;
 192:Generated_Source\PSoC4/EZI2C_CAM_EZI2C.c ****             EZI2C_CAM_indexBuf1  = 0u;
 193:Generated_Source\PSoC4/EZI2C_CAM_EZI2C.c ****             EZI2C_CAM_offsetBuf1 = 0u;
 194:Generated_Source\PSoC4/EZI2C_CAM_EZI2C.c ****             EZI2C_CAM_indexBuf2  = 0u;
ARM GAS  C:\Users\ilya\AppData\Local\Temp\ccyexrGp.s 			page 5


 195:Generated_Source\PSoC4/EZI2C_CAM_EZI2C.c ****             EZI2C_CAM_offsetBuf2 = 0u;
 196:Generated_Source\PSoC4/EZI2C_CAM_EZI2C.c **** 
 197:Generated_Source\PSoC4/EZI2C_CAM_EZI2C.c ****             EZI2C_CAM_addrBuf1 = (uint8) config->primarySlaveAddr;
 198:Generated_Source\PSoC4/EZI2C_CAM_EZI2C.c ****             EZI2C_CAM_addrBuf2 = (uint8) config->secondarySlaveAddr;
 199:Generated_Source\PSoC4/EZI2C_CAM_EZI2C.c ****         }
 200:Generated_Source\PSoC4/EZI2C_CAM_EZI2C.c ****     }
 201:Generated_Source\PSoC4/EZI2C_CAM_EZI2C.c **** 
 202:Generated_Source\PSoC4/EZI2C_CAM_EZI2C.c **** #else
 203:Generated_Source\PSoC4/EZI2C_CAM_EZI2C.c **** 
 204:Generated_Source\PSoC4/EZI2C_CAM_EZI2C.c ****     /*******************************************************************************
 205:Generated_Source\PSoC4/EZI2C_CAM_EZI2C.c ****     * Function Name: EZI2C_CAM_EzI2CInit
 206:Generated_Source\PSoC4/EZI2C_CAM_EZI2C.c ****     ****************************************************************************//**
 207:Generated_Source\PSoC4/EZI2C_CAM_EZI2C.c ****     *
 208:Generated_Source\PSoC4/EZI2C_CAM_EZI2C.c ****     *  Configures the SCB for the EZI2C operation.
 209:Generated_Source\PSoC4/EZI2C_CAM_EZI2C.c ****     *
 210:Generated_Source\PSoC4/EZI2C_CAM_EZI2C.c ****     *******************************************************************************/
 211:Generated_Source\PSoC4/EZI2C_CAM_EZI2C.c ****     void EZI2C_CAM_EzI2CInit(void)
 212:Generated_Source\PSoC4/EZI2C_CAM_EZI2C.c ****     {
  35              		.loc 1 212 0
  36              		.cfi_startproc
  37              		@ args = 0, pretend = 0, frame = 0
  38              		@ frame_needed = 1, uses_anonymous_args = 0
  39 0000 80B5     		push	{r7, lr}
  40              		.cfi_def_cfa_offset 8
  41              		.cfi_offset 7, -8
  42              		.cfi_offset 14, -4
  43 0002 00AF     		add	r7, sp, #0
  44              		.cfi_def_cfa_register 7
 213:Generated_Source\PSoC4/EZI2C_CAM_EZI2C.c ****         /* Configure I2C interface */
 214:Generated_Source\PSoC4/EZI2C_CAM_EZI2C.c ****         EZI2C_CAM_CTRL_REG     = EZI2C_CAM_EZI2C_DEFAULT_CTRL;
  45              		.loc 1 214 0
  46 0004 244B     		ldr	r3, .L2
  47 0006 0022     		movs	r2, #0
  48 0008 1A60     		str	r2, [r3]
 215:Generated_Source\PSoC4/EZI2C_CAM_EZI2C.c ****         EZI2C_CAM_I2C_CTRL_REG = EZI2C_CAM_EZI2C_DEFAULT_I2C_CTRL;
  49              		.loc 1 215 0
  50 000a 244B     		ldr	r3, .L2+4
  51 000c 244A     		ldr	r2, .L2+8
  52 000e 1A60     		str	r2, [r3]
 216:Generated_Source\PSoC4/EZI2C_CAM_EZI2C.c **** 
 217:Generated_Source\PSoC4/EZI2C_CAM_EZI2C.c ****     #if (EZI2C_CAM_CY_SCBIP_V0)
 218:Generated_Source\PSoC4/EZI2C_CAM_EZI2C.c ****         /* Adjust SDA filter settings. Ticket ID#150521 */
 219:Generated_Source\PSoC4/EZI2C_CAM_EZI2C.c ****         EZI2C_CAM_SET_I2C_CFG_SDA_FILT_TRIM(EZI2C_CAM_EC_AM_I2C_CFG_SDA_FILT_TRIM);
  53              		.loc 1 219 0
  54 0010 244B     		ldr	r3, .L2+12
  55 0012 244A     		ldr	r2, .L2+12
  56 0014 1268     		ldr	r2, [r2]
  57 0016 0C21     		movs	r1, #12
  58 0018 0A43     		orrs	r2, r1
  59 001a 1A60     		str	r2, [r3]
 220:Generated_Source\PSoC4/EZI2C_CAM_EZI2C.c ****     #endif /* (EZI2C_CAM_CY_SCBIP_V0) */
 221:Generated_Source\PSoC4/EZI2C_CAM_EZI2C.c **** 
 222:Generated_Source\PSoC4/EZI2C_CAM_EZI2C.c ****         /* Configure RX direction */
 223:Generated_Source\PSoC4/EZI2C_CAM_EZI2C.c ****         EZI2C_CAM_RX_CTRL_REG      = EZI2C_CAM_EZI2C_DEFAULT_RX_CTRL;
  60              		.loc 1 223 0
  61 001c 224B     		ldr	r3, .L2+16
  62 001e 234A     		ldr	r2, .L2+20
ARM GAS  C:\Users\ilya\AppData\Local\Temp\ccyexrGp.s 			page 6


  63 0020 1A60     		str	r2, [r3]
 224:Generated_Source\PSoC4/EZI2C_CAM_EZI2C.c ****         EZI2C_CAM_RX_FIFO_CTRL_REG = EZI2C_CAM_EZI2C_DEFAULT_RX_FIFO_CTRL;
  64              		.loc 1 224 0
  65 0022 234B     		ldr	r3, .L2+24
  66 0024 0022     		movs	r2, #0
  67 0026 1A60     		str	r2, [r3]
 225:Generated_Source\PSoC4/EZI2C_CAM_EZI2C.c **** 
 226:Generated_Source\PSoC4/EZI2C_CAM_EZI2C.c ****         /* Set default address and mask */
 227:Generated_Source\PSoC4/EZI2C_CAM_EZI2C.c ****         EZI2C_CAM_RX_MATCH_REG     = EZI2C_CAM_EZI2C_DEFAULT_RX_MATCH;
  68              		.loc 1 227 0
  69 0028 224B     		ldr	r3, .L2+28
  70 002a 234A     		ldr	r2, .L2+32
  71 002c 1A60     		str	r2, [r3]
 228:Generated_Source\PSoC4/EZI2C_CAM_EZI2C.c **** 
 229:Generated_Source\PSoC4/EZI2C_CAM_EZI2C.c ****         /* Configure TX direction */
 230:Generated_Source\PSoC4/EZI2C_CAM_EZI2C.c ****         EZI2C_CAM_TX_CTRL_REG      = EZI2C_CAM_EZI2C_DEFAULT_TX_CTRL;
  72              		.loc 1 230 0
  73 002e 234B     		ldr	r3, .L2+36
  74 0030 1E4A     		ldr	r2, .L2+20
  75 0032 1A60     		str	r2, [r3]
 231:Generated_Source\PSoC4/EZI2C_CAM_EZI2C.c ****         EZI2C_CAM_TX_FIFO_CTRL_REG = EZI2C_CAM_EZI2C_DEFAULT_TX_FIFO_CTRL;
  76              		.loc 1 231 0
  77 0034 224B     		ldr	r3, .L2+40
  78 0036 0022     		movs	r2, #0
  79 0038 1A60     		str	r2, [r3]
 232:Generated_Source\PSoC4/EZI2C_CAM_EZI2C.c **** 
 233:Generated_Source\PSoC4/EZI2C_CAM_EZI2C.c ****         /* Configure interrupt with EZI2C handler but do not enable it */
 234:Generated_Source\PSoC4/EZI2C_CAM_EZI2C.c ****     #if !defined (CY_EXTERNAL_INTERRUPT_CONFIG)
 235:Generated_Source\PSoC4/EZI2C_CAM_EZI2C.c ****         CyIntDisable    (EZI2C_CAM_ISR_NUMBER);
  80              		.loc 1 235 0
  81 003a 0B20     		movs	r0, #11
  82 003c FFF7FEFF 		bl	CyIntDisable
 236:Generated_Source\PSoC4/EZI2C_CAM_EZI2C.c ****         CyIntSetPriority(EZI2C_CAM_ISR_NUMBER, EZI2C_CAM_ISR_PRIORITY);
  83              		.loc 1 236 0
  84 0040 0321     		movs	r1, #3
  85 0042 0B20     		movs	r0, #11
  86 0044 FFF7FEFF 		bl	CyIntSetPriority
 237:Generated_Source\PSoC4/EZI2C_CAM_EZI2C.c **** 
 238:Generated_Source\PSoC4/EZI2C_CAM_EZI2C.c ****     #if (EZI2C_CAM_EZI2C_SCL_STRETCH_ENABLE_CONST)
 239:Generated_Source\PSoC4/EZI2C_CAM_EZI2C.c ****         (void) CyIntSetVector(EZI2C_CAM_ISR_NUMBER, &EZI2C_CAM_EZI2C_STRETCH_ISR);
  87              		.loc 1 239 0
  88 0048 1E4B     		ldr	r3, .L2+44
  89 004a 1900     		movs	r1, r3
  90 004c 0B20     		movs	r0, #11
  91 004e FFF7FEFF 		bl	CyIntSetVector
 240:Generated_Source\PSoC4/EZI2C_CAM_EZI2C.c ****     #else
 241:Generated_Source\PSoC4/EZI2C_CAM_EZI2C.c ****         (void) CyIntSetVector(EZI2C_CAM_ISR_NUMBER, &EZI2C_CAM_EZI2C_NO_STRETCH_ISR);
 242:Generated_Source\PSoC4/EZI2C_CAM_EZI2C.c ****     #endif /* (EZI2C_CAM_EZI2C_SCL_STRETCH_ENABLE_CONST) */
 243:Generated_Source\PSoC4/EZI2C_CAM_EZI2C.c **** 
 244:Generated_Source\PSoC4/EZI2C_CAM_EZI2C.c ****     #endif /* !defined (CY_EXTERNAL_INTERRUPT_CONFIG) */
 245:Generated_Source\PSoC4/EZI2C_CAM_EZI2C.c **** 
 246:Generated_Source\PSoC4/EZI2C_CAM_EZI2C.c ****         /* Configure interrupt sources */
 247:Generated_Source\PSoC4/EZI2C_CAM_EZI2C.c ****     #if (!EZI2C_CAM_CY_SCBIP_V1)
 248:Generated_Source\PSoC4/EZI2C_CAM_EZI2C.c ****         EZI2C_CAM_INTR_SPI_EC_MASK_REG = EZI2C_CAM_EZI2C_DEFAULT_INTR_SPI_EC_MASK;
  92              		.loc 1 248 0
  93 0052 1D4B     		ldr	r3, .L2+48
  94 0054 0022     		movs	r2, #0
ARM GAS  C:\Users\ilya\AppData\Local\Temp\ccyexrGp.s 			page 7


  95 0056 1A60     		str	r2, [r3]
 249:Generated_Source\PSoC4/EZI2C_CAM_EZI2C.c ****     #endif /* (!EZI2C_CAM_CY_SCBIP_V1) */
 250:Generated_Source\PSoC4/EZI2C_CAM_EZI2C.c **** 
 251:Generated_Source\PSoC4/EZI2C_CAM_EZI2C.c ****         EZI2C_CAM_INTR_I2C_EC_MASK_REG = EZI2C_CAM_EZI2C_DEFAULT_INTR_I2C_EC_MASK;
  96              		.loc 1 251 0
  97 0058 1C4B     		ldr	r3, .L2+52
  98 005a 0022     		movs	r2, #0
  99 005c 1A60     		str	r2, [r3]
 252:Generated_Source\PSoC4/EZI2C_CAM_EZI2C.c ****         EZI2C_CAM_INTR_SLAVE_MASK_REG  = EZI2C_CAM_EZI2C_DEFAULT_INTR_SLAVE_MASK;
 100              		.loc 1 252 0
 101 005e 1C4B     		ldr	r3, .L2+56
 102 0060 5222     		movs	r2, #82
 103 0062 FF32     		adds	r2, r2, #255
 104 0064 1A60     		str	r2, [r3]
 253:Generated_Source\PSoC4/EZI2C_CAM_EZI2C.c ****         EZI2C_CAM_INTR_MASTER_MASK_REG = EZI2C_CAM_EZI2C_DEFAULT_INTR_MASTER_MASK;
 105              		.loc 1 253 0
 106 0066 1B4B     		ldr	r3, .L2+60
 107 0068 0022     		movs	r2, #0
 108 006a 1A60     		str	r2, [r3]
 254:Generated_Source\PSoC4/EZI2C_CAM_EZI2C.c ****         EZI2C_CAM_INTR_RX_MASK_REG     = EZI2C_CAM_EZI2C_DEFAULT_INTR_RX_MASK;
 109              		.loc 1 254 0
 110 006c 1A4B     		ldr	r3, .L2+64
 111 006e 0022     		movs	r2, #0
 112 0070 1A60     		str	r2, [r3]
 255:Generated_Source\PSoC4/EZI2C_CAM_EZI2C.c ****         EZI2C_CAM_INTR_TX_MASK_REG     = EZI2C_CAM_EZI2C_DEFAULT_INTR_TX_MASK;
 113              		.loc 1 255 0
 114 0072 1A4B     		ldr	r3, .L2+68
 115 0074 0022     		movs	r2, #0
 116 0076 1A60     		str	r2, [r3]
 256:Generated_Source\PSoC4/EZI2C_CAM_EZI2C.c **** 
 257:Generated_Source\PSoC4/EZI2C_CAM_EZI2C.c ****         /* Configure global variables */
 258:Generated_Source\PSoC4/EZI2C_CAM_EZI2C.c ****         EZI2C_CAM_fsmState = EZI2C_CAM_EZI2C_FSM_IDLE;
 117              		.loc 1 258 0
 118 0078 194B     		ldr	r3, .L2+72
 119 007a 0022     		movs	r2, #0
 120 007c 1A70     		strb	r2, [r3]
 259:Generated_Source\PSoC4/EZI2C_CAM_EZI2C.c **** 
 260:Generated_Source\PSoC4/EZI2C_CAM_EZI2C.c ****         EZI2C_CAM_curStatus  = 0u;
 121              		.loc 1 260 0
 122 007e 194B     		ldr	r3, .L2+76
 123 0080 0022     		movs	r2, #0
 124 0082 1A70     		strb	r2, [r3]
 261:Generated_Source\PSoC4/EZI2C_CAM_EZI2C.c ****         EZI2C_CAM_indexBuf1  = 0u;
 125              		.loc 1 261 0
 126 0084 184B     		ldr	r3, .L2+80
 127 0086 0022     		movs	r2, #0
 128 0088 1A80     		strh	r2, [r3]
 262:Generated_Source\PSoC4/EZI2C_CAM_EZI2C.c ****         EZI2C_CAM_offsetBuf1 = 0u;
 129              		.loc 1 262 0
 130 008a 184B     		ldr	r3, .L2+84
 131 008c 0022     		movs	r2, #0
 132 008e 1A70     		strb	r2, [r3]
 263:Generated_Source\PSoC4/EZI2C_CAM_EZI2C.c **** 
 264:Generated_Source\PSoC4/EZI2C_CAM_EZI2C.c ****     #if(EZI2C_CAM_SECONDARY_ADDRESS_ENABLE_CONST)
 265:Generated_Source\PSoC4/EZI2C_CAM_EZI2C.c ****         EZI2C_CAM_indexBuf2  = 0u;
 266:Generated_Source\PSoC4/EZI2C_CAM_EZI2C.c ****         EZI2C_CAM_offsetBuf2 = 0u;
 267:Generated_Source\PSoC4/EZI2C_CAM_EZI2C.c **** 
ARM GAS  C:\Users\ilya\AppData\Local\Temp\ccyexrGp.s 			page 8


 268:Generated_Source\PSoC4/EZI2C_CAM_EZI2C.c ****         EZI2C_CAM_addrBuf1 = EZI2C_CAM_EZI2C_PRIMARY_SLAVE_ADDRESS;
 269:Generated_Source\PSoC4/EZI2C_CAM_EZI2C.c ****         EZI2C_CAM_addrBuf2 = EZI2C_CAM_EZI2C_SECONDARY_SLAVE_ADDRESS;
 270:Generated_Source\PSoC4/EZI2C_CAM_EZI2C.c ****     #endif /* (EZI2C_CAM_SECONDARY_ADDRESS_ENABLE_CONST) */
 271:Generated_Source\PSoC4/EZI2C_CAM_EZI2C.c ****     }
 133              		.loc 1 271 0
 134 0090 C046     		nop
 135 0092 BD46     		mov	sp, r7
 136              		@ sp needed
 137 0094 80BD     		pop	{r7, pc}
 138              	.L3:
 139 0096 C046     		.align	2
 140              	.L2:
 141 0098 00000740 		.word	1074200576
 142 009c 60000740 		.word	1074200672
 143 00a0 00080040 		.word	1073743872
 144 00a4 70000740 		.word	1074200688
 145 00a8 00030740 		.word	1074201344
 146 00ac 07010080 		.word	-2147483385
 147 00b0 04030740 		.word	1074201348
 148 00b4 10030740 		.word	1074201360
 149 00b8 4400FE00 		.word	16646212
 150 00bc 00020740 		.word	1074201088
 151 00c0 04020740 		.word	1074201092
 152 00c4 00000000 		.word	EZI2C_CAM_EZI2C_STRETCH_ISR
 153 00c8 C80E0740 		.word	1074204360
 154 00cc 880E0740 		.word	1074204296
 155 00d0 480F0740 		.word	1074204488
 156 00d4 080F0740 		.word	1074204424
 157 00d8 C80F0740 		.word	1074204616
 158 00dc 880F0740 		.word	1074204552
 159 00e0 00000000 		.word	EZI2C_CAM_fsmState
 160 00e4 00000000 		.word	EZI2C_CAM_curStatus
 161 00e8 00000000 		.word	EZI2C_CAM_indexBuf1
 162 00ec 00000000 		.word	EZI2C_CAM_offsetBuf1
 163              		.cfi_endproc
 164              	.LFE0:
 165              		.size	EZI2C_CAM_EzI2CInit, .-EZI2C_CAM_EzI2CInit
 166              		.section	.text.EZI2C_CAM_EzI2CStop,"ax",%progbits
 167              		.align	2
 168              		.global	EZI2C_CAM_EzI2CStop
 169              		.code	16
 170              		.thumb_func
 171              		.type	EZI2C_CAM_EzI2CStop, %function
 172              	EZI2C_CAM_EzI2CStop:
 173              	.LFB1:
 272:Generated_Source\PSoC4/EZI2C_CAM_EZI2C.c **** #endif /* (EZI2C_CAM_SCB_MODE_UNCONFIG_CONST_CFG) */
 273:Generated_Source\PSoC4/EZI2C_CAM_EZI2C.c **** 
 274:Generated_Source\PSoC4/EZI2C_CAM_EZI2C.c **** 
 275:Generated_Source\PSoC4/EZI2C_CAM_EZI2C.c **** /*******************************************************************************
 276:Generated_Source\PSoC4/EZI2C_CAM_EZI2C.c **** * Function Name: EZI2C_CAM_EzI2CStop
 277:Generated_Source\PSoC4/EZI2C_CAM_EZI2C.c **** ****************************************************************************//**
 278:Generated_Source\PSoC4/EZI2C_CAM_EZI2C.c **** *
 279:Generated_Source\PSoC4/EZI2C_CAM_EZI2C.c **** *  Resets the EZI2C FSM into the default state.
 280:Generated_Source\PSoC4/EZI2C_CAM_EZI2C.c **** *
 281:Generated_Source\PSoC4/EZI2C_CAM_EZI2C.c **** *******************************************************************************/
 282:Generated_Source\PSoC4/EZI2C_CAM_EZI2C.c **** void EZI2C_CAM_EzI2CStop(void)
 283:Generated_Source\PSoC4/EZI2C_CAM_EZI2C.c **** {
ARM GAS  C:\Users\ilya\AppData\Local\Temp\ccyexrGp.s 			page 9


 174              		.loc 1 283 0
 175              		.cfi_startproc
 176              		@ args = 0, pretend = 0, frame = 0
 177              		@ frame_needed = 1, uses_anonymous_args = 0
 178 0000 80B5     		push	{r7, lr}
 179              		.cfi_def_cfa_offset 8
 180              		.cfi_offset 7, -8
 181              		.cfi_offset 14, -4
 182 0002 00AF     		add	r7, sp, #0
 183              		.cfi_def_cfa_register 7
 284:Generated_Source\PSoC4/EZI2C_CAM_EZI2C.c ****     EZI2C_CAM_fsmState = EZI2C_CAM_EZI2C_FSM_IDLE;
 184              		.loc 1 284 0
 185 0004 024B     		ldr	r3, .L5
 186 0006 0022     		movs	r2, #0
 187 0008 1A70     		strb	r2, [r3]
 285:Generated_Source\PSoC4/EZI2C_CAM_EZI2C.c **** }
 188              		.loc 1 285 0
 189 000a C046     		nop
 190 000c BD46     		mov	sp, r7
 191              		@ sp needed
 192 000e 80BD     		pop	{r7, pc}
 193              	.L6:
 194              		.align	2
 195              	.L5:
 196 0010 00000000 		.word	EZI2C_CAM_fsmState
 197              		.cfi_endproc
 198              	.LFE1:
 199              		.size	EZI2C_CAM_EzI2CStop, .-EZI2C_CAM_EzI2CStop
 200              		.section	.text.EZI2C_CAM_EzI2CGetActivity,"ax",%progbits
 201              		.align	2
 202              		.global	EZI2C_CAM_EzI2CGetActivity
 203              		.code	16
 204              		.thumb_func
 205              		.type	EZI2C_CAM_EzI2CGetActivity, %function
 206              	EZI2C_CAM_EzI2CGetActivity:
 207              	.LFB2:
 286:Generated_Source\PSoC4/EZI2C_CAM_EZI2C.c **** 
 287:Generated_Source\PSoC4/EZI2C_CAM_EZI2C.c **** 
 288:Generated_Source\PSoC4/EZI2C_CAM_EZI2C.c **** /*******************************************************************************
 289:Generated_Source\PSoC4/EZI2C_CAM_EZI2C.c **** * Function Name: EZI2C_CAM_EzI2CGetActivity
 290:Generated_Source\PSoC4/EZI2C_CAM_EZI2C.c **** ****************************************************************************//**
 291:Generated_Source\PSoC4/EZI2C_CAM_EZI2C.c **** *
 292:Generated_Source\PSoC4/EZI2C_CAM_EZI2C.c **** *  Returns the EZI2C slave status.
 293:Generated_Source\PSoC4/EZI2C_CAM_EZI2C.c **** *  The read, write and error status flags reset to zero after this function
 294:Generated_Source\PSoC4/EZI2C_CAM_EZI2C.c **** *  call. The busy status flag is cleared when the transaction intended for
 295:Generated_Source\PSoC4/EZI2C_CAM_EZI2C.c **** *  the EZI2C slave completes.
 296:Generated_Source\PSoC4/EZI2C_CAM_EZI2C.c **** *
 297:Generated_Source\PSoC4/EZI2C_CAM_EZI2C.c **** * \return
 298:Generated_Source\PSoC4/EZI2C_CAM_EZI2C.c **** *  Returns the status of the EZI2C Slave activity.
 299:Generated_Source\PSoC4/EZI2C_CAM_EZI2C.c **** *  - EZI2C_CAM_EZI2C_STATUS_READ1 - Read transfer complete. The transfer 
 300:Generated_Source\PSoC4/EZI2C_CAM_EZI2C.c **** *    used the primary slave address. The error condition status bit must be 
 301:Generated_Source\PSoC4/EZI2C_CAM_EZI2C.c **** *    checked to ensure that read transfer was completed successfully.
 302:Generated_Source\PSoC4/EZI2C_CAM_EZI2C.c **** *  - EZI2C_CAM_EZI2C_STATUS_WRITE1 - Write transfer complete. The buffer 
 303:Generated_Source\PSoC4/EZI2C_CAM_EZI2C.c **** *    content was modified. The transfer used the primary slave address. 
 304:Generated_Source\PSoC4/EZI2C_CAM_EZI2C.c **** *    The error condition status bit must be checked to ensure that write 
 305:Generated_Source\PSoC4/EZI2C_CAM_EZI2C.c **** *    transfer was completed successfully.
 306:Generated_Source\PSoC4/EZI2C_CAM_EZI2C.c **** *  - EZI2C_CAM_EZI2C_STATUS_READ2 - Read transfer complete. The transfer
ARM GAS  C:\Users\ilya\AppData\Local\Temp\ccyexrGp.s 			page 10


 307:Generated_Source\PSoC4/EZI2C_CAM_EZI2C.c **** *    used the secondary slave address. The error condition status bit must be 
 308:Generated_Source\PSoC4/EZI2C_CAM_EZI2C.c **** *    checked to ensure that read transfer was completed successfully.
 309:Generated_Source\PSoC4/EZI2C_CAM_EZI2C.c **** *  - EZI2C_CAM_EZI2C_STATUS_WRITE2 - Write transfer complete. The buffer
 310:Generated_Source\PSoC4/EZI2C_CAM_EZI2C.c **** *    content was modified. The transfer used the secondary slave address. 
 311:Generated_Source\PSoC4/EZI2C_CAM_EZI2C.c **** *    The error condition status bit must be checked to ensure that write 
 312:Generated_Source\PSoC4/EZI2C_CAM_EZI2C.c **** *    transfer was completed successfully.
 313:Generated_Source\PSoC4/EZI2C_CAM_EZI2C.c **** *  - EZI2C_CAM_EZI2C_STATUS_BUSY - A transfer intended for the primary 
 314:Generated_Source\PSoC4/EZI2C_CAM_EZI2C.c **** *    or secondary address is in progress. The status bit is set after an 
 315:Generated_Source\PSoC4/EZI2C_CAM_EZI2C.c **** *    address match and cleared on a Stop or ReStart condition.
 316:Generated_Source\PSoC4/EZI2C_CAM_EZI2C.c **** *  - EZI2C_CAM_EZI2C_STATUS_ERR - An error occurred during a transfer 
 317:Generated_Source\PSoC4/EZI2C_CAM_EZI2C.c **** *    intended for the primary or secondary slave address. The sources of error
 318:Generated_Source\PSoC4/EZI2C_CAM_EZI2C.c **** *    are: misplaced Start or Stop condition or lost arbitration while slave 
 319:Generated_Source\PSoC4/EZI2C_CAM_EZI2C.c **** *    drives SDA.
 320:Generated_Source\PSoC4/EZI2C_CAM_EZI2C.c **** *    The write buffer may contain invalid byte or part of the transaction when 
 321:Generated_Source\PSoC4/EZI2C_CAM_EZI2C.c **** *    EZI2C_CAM_EZI2C_STATUS_ERR and EZI2C_CAM_EZI2C_STATUS_WRITE1/2 
 322:Generated_Source\PSoC4/EZI2C_CAM_EZI2C.c **** *    is set. It is recommended to discard buffer content in this case.
 323:Generated_Source\PSoC4/EZI2C_CAM_EZI2C.c **** *
 324:Generated_Source\PSoC4/EZI2C_CAM_EZI2C.c **** * \globalvars
 325:Generated_Source\PSoC4/EZI2C_CAM_EZI2C.c **** *  EZI2C_CAM_curStatus - used to store the current status of the EZI2C 
 326:Generated_Source\PSoC4/EZI2C_CAM_EZI2C.c **** *  slave.
 327:Generated_Source\PSoC4/EZI2C_CAM_EZI2C.c **** *
 328:Generated_Source\PSoC4/EZI2C_CAM_EZI2C.c **** *******************************************************************************/
 329:Generated_Source\PSoC4/EZI2C_CAM_EZI2C.c **** uint32 EZI2C_CAM_EzI2CGetActivity(void)
 330:Generated_Source\PSoC4/EZI2C_CAM_EZI2C.c **** {
 208              		.loc 1 330 0
 209              		.cfi_startproc
 210              		@ args = 0, pretend = 0, frame = 8
 211              		@ frame_needed = 1, uses_anonymous_args = 0
 212 0000 80B5     		push	{r7, lr}
 213              		.cfi_def_cfa_offset 8
 214              		.cfi_offset 7, -8
 215              		.cfi_offset 14, -4
 216 0002 82B0     		sub	sp, sp, #8
 217              		.cfi_def_cfa_offset 16
 218 0004 00AF     		add	r7, sp, #0
 219              		.cfi_def_cfa_register 7
 331:Generated_Source\PSoC4/EZI2C_CAM_EZI2C.c ****     uint32 status;
 332:Generated_Source\PSoC4/EZI2C_CAM_EZI2C.c **** 
 333:Generated_Source\PSoC4/EZI2C_CAM_EZI2C.c ****     EZI2C_CAM_DisableInt();  /* Lock from interruption */
 220              		.loc 1 333 0
 221 0006 0B20     		movs	r0, #11
 222 0008 FFF7FEFF 		bl	CyIntDisable
 334:Generated_Source\PSoC4/EZI2C_CAM_EZI2C.c **** 
 335:Generated_Source\PSoC4/EZI2C_CAM_EZI2C.c ****     status = EZI2C_CAM_curStatus;
 223              		.loc 1 335 0
 224 000c 094B     		ldr	r3, .L9
 225 000e 1B78     		ldrb	r3, [r3]
 226 0010 DBB2     		uxtb	r3, r3
 227 0012 7B60     		str	r3, [r7, #4]
 336:Generated_Source\PSoC4/EZI2C_CAM_EZI2C.c **** 
 337:Generated_Source\PSoC4/EZI2C_CAM_EZI2C.c ****     /* Relay on address match event from HW as bus busy status */
 338:Generated_Source\PSoC4/EZI2C_CAM_EZI2C.c ****     #if(EZI2C_CAM_EZI2C_SCL_STRETCH_DISABLE)
 339:Generated_Source\PSoC4/EZI2C_CAM_EZI2C.c ****     {
 340:Generated_Source\PSoC4/EZI2C_CAM_EZI2C.c ****         /* For EZI2C_CAM_CY_SCBIP_V0 the wake is prohibited by customizer */
 341:Generated_Source\PSoC4/EZI2C_CAM_EZI2C.c ****         #if(EZI2C_CAM_EZI2C_EC_AM_ENABLE)
 342:Generated_Source\PSoC4/EZI2C_CAM_EZI2C.c ****         {
 343:Generated_Source\PSoC4/EZI2C_CAM_EZI2C.c ****             status |= EZI2C_CAM_CHECK_INTR_I2C_EC(EZI2C_CAM_INTR_I2C_EC_WAKE_UP) ?
ARM GAS  C:\Users\ilya\AppData\Local\Temp\ccyexrGp.s 			page 11


 344:Generated_Source\PSoC4/EZI2C_CAM_EZI2C.c ****                         EZI2C_CAM_EZI2C_STATUS_BUSY : 0u;
 345:Generated_Source\PSoC4/EZI2C_CAM_EZI2C.c ****         }
 346:Generated_Source\PSoC4/EZI2C_CAM_EZI2C.c ****         #else
 347:Generated_Source\PSoC4/EZI2C_CAM_EZI2C.c ****         {
 348:Generated_Source\PSoC4/EZI2C_CAM_EZI2C.c ****             status |= EZI2C_CAM_CHECK_INTR_SLAVE(EZI2C_CAM_INTR_SLAVE_I2C_ADDR_MATCH) ?
 349:Generated_Source\PSoC4/EZI2C_CAM_EZI2C.c ****                         EZI2C_CAM_EZI2C_STATUS_BUSY : 0u;
 350:Generated_Source\PSoC4/EZI2C_CAM_EZI2C.c ****         }
 351:Generated_Source\PSoC4/EZI2C_CAM_EZI2C.c ****         #endif
 352:Generated_Source\PSoC4/EZI2C_CAM_EZI2C.c ****     }
 353:Generated_Source\PSoC4/EZI2C_CAM_EZI2C.c ****     #endif
 354:Generated_Source\PSoC4/EZI2C_CAM_EZI2C.c **** 
 355:Generated_Source\PSoC4/EZI2C_CAM_EZI2C.c ****     EZI2C_CAM_curStatus &= ((uint8) ~EZI2C_CAM_EZI2C_CLEAR_STATUS);
 228              		.loc 1 355 0
 229 0014 074B     		ldr	r3, .L9
 230 0016 1B78     		ldrb	r3, [r3]
 231 0018 DBB2     		uxtb	r3, r3
 232 001a 1F22     		movs	r2, #31
 233 001c 9343     		bics	r3, r2
 234 001e DAB2     		uxtb	r2, r3
 235 0020 044B     		ldr	r3, .L9
 236 0022 1A70     		strb	r2, [r3]
 356:Generated_Source\PSoC4/EZI2C_CAM_EZI2C.c **** 
 357:Generated_Source\PSoC4/EZI2C_CAM_EZI2C.c ****     EZI2C_CAM_EnableInt();   /* Release lock */
 237              		.loc 1 357 0
 238 0024 0B20     		movs	r0, #11
 239 0026 FFF7FEFF 		bl	CyIntEnable
 358:Generated_Source\PSoC4/EZI2C_CAM_EZI2C.c **** 
 359:Generated_Source\PSoC4/EZI2C_CAM_EZI2C.c ****     return(status);
 240              		.loc 1 359 0
 241 002a 7B68     		ldr	r3, [r7, #4]
 360:Generated_Source\PSoC4/EZI2C_CAM_EZI2C.c **** }
 242              		.loc 1 360 0
 243 002c 1800     		movs	r0, r3
 244 002e BD46     		mov	sp, r7
 245 0030 02B0     		add	sp, sp, #8
 246              		@ sp needed
 247 0032 80BD     		pop	{r7, pc}
 248              	.L10:
 249              		.align	2
 250              	.L9:
 251 0034 00000000 		.word	EZI2C_CAM_curStatus
 252              		.cfi_endproc
 253              	.LFE2:
 254              		.size	EZI2C_CAM_EzI2CGetActivity, .-EZI2C_CAM_EzI2CGetActivity
 255              		.section	.text.EZI2C_CAM_EzI2CSetAddress1,"ax",%progbits
 256              		.align	2
 257              		.global	EZI2C_CAM_EzI2CSetAddress1
 258              		.code	16
 259              		.thumb_func
 260              		.type	EZI2C_CAM_EzI2CSetAddress1, %function
 261              	EZI2C_CAM_EzI2CSetAddress1:
 262              	.LFB3:
 361:Generated_Source\PSoC4/EZI2C_CAM_EZI2C.c **** 
 362:Generated_Source\PSoC4/EZI2C_CAM_EZI2C.c **** 
 363:Generated_Source\PSoC4/EZI2C_CAM_EZI2C.c **** /*******************************************************************************
 364:Generated_Source\PSoC4/EZI2C_CAM_EZI2C.c **** * Function Name: EZI2C_CAM_EzI2CSetAddress1
 365:Generated_Source\PSoC4/EZI2C_CAM_EZI2C.c **** ****************************************************************************//**
ARM GAS  C:\Users\ilya\AppData\Local\Temp\ccyexrGp.s 			page 12


 366:Generated_Source\PSoC4/EZI2C_CAM_EZI2C.c **** *
 367:Generated_Source\PSoC4/EZI2C_CAM_EZI2C.c **** *  Sets the primary EZI2C slave address.
 368:Generated_Source\PSoC4/EZI2C_CAM_EZI2C.c **** *
 369:Generated_Source\PSoC4/EZI2C_CAM_EZI2C.c **** * \param address: I2C slave address for the secondary device.
 370:Generated_Source\PSoC4/EZI2C_CAM_EZI2C.c **** *  This address is the 7-bit right-justified slave address and does not 
 371:Generated_Source\PSoC4/EZI2C_CAM_EZI2C.c **** *   include the R/W bit.
 372:Generated_Source\PSoC4/EZI2C_CAM_EZI2C.c **** *
 373:Generated_Source\PSoC4/EZI2C_CAM_EZI2C.c **** *  The address value is not checked to see if it violates the I2C spec. 
 374:Generated_Source\PSoC4/EZI2C_CAM_EZI2C.c **** *  The preferred addresses are in the range between 8 and 120 (0x08 to 0x78).
 375:Generated_Source\PSoC4/EZI2C_CAM_EZI2C.c **** *
 376:Generated_Source\PSoC4/EZI2C_CAM_EZI2C.c **** * \globalvars
 377:Generated_Source\PSoC4/EZI2C_CAM_EZI2C.c **** *  EZI2C_CAM_addrBuf1 - used to store the primary 7-bit slave address 
 378:Generated_Source\PSoC4/EZI2C_CAM_EZI2C.c **** *  value.
 379:Generated_Source\PSoC4/EZI2C_CAM_EZI2C.c **** *
 380:Generated_Source\PSoC4/EZI2C_CAM_EZI2C.c **** *******************************************************************************/
 381:Generated_Source\PSoC4/EZI2C_CAM_EZI2C.c **** void EZI2C_CAM_EzI2CSetAddress1(uint32 address)
 382:Generated_Source\PSoC4/EZI2C_CAM_EZI2C.c **** {
 263              		.loc 1 382 0
 264              		.cfi_startproc
 265              		@ args = 0, pretend = 0, frame = 16
 266              		@ frame_needed = 1, uses_anonymous_args = 0
 267 0000 80B5     		push	{r7, lr}
 268              		.cfi_def_cfa_offset 8
 269              		.cfi_offset 7, -8
 270              		.cfi_offset 14, -4
 271 0002 84B0     		sub	sp, sp, #16
 272              		.cfi_def_cfa_offset 24
 273 0004 00AF     		add	r7, sp, #0
 274              		.cfi_def_cfa_register 7
 275 0006 7860     		str	r0, [r7, #4]
 276              	.LBB2:
 383:Generated_Source\PSoC4/EZI2C_CAM_EZI2C.c ****     #if(EZI2C_CAM_SECONDARY_ADDRESS_ENABLE)
 384:Generated_Source\PSoC4/EZI2C_CAM_EZI2C.c ****     {
 385:Generated_Source\PSoC4/EZI2C_CAM_EZI2C.c ****         EZI2C_CAM_addrBuf1 = (uint8) address;
 386:Generated_Source\PSoC4/EZI2C_CAM_EZI2C.c **** 
 387:Generated_Source\PSoC4/EZI2C_CAM_EZI2C.c ****         EZI2C_CAM_RX_MATCH_REG = 
 388:Generated_Source\PSoC4/EZI2C_CAM_EZI2C.c ****                         EZI2C_CAM_EzI2CUpdateRxMatchReg(address, (uint32) EZI2C_CAM_addrBuf2);
 389:Generated_Source\PSoC4/EZI2C_CAM_EZI2C.c ****     }
 390:Generated_Source\PSoC4/EZI2C_CAM_EZI2C.c ****     #else
 391:Generated_Source\PSoC4/EZI2C_CAM_EZI2C.c ****     {
 392:Generated_Source\PSoC4/EZI2C_CAM_EZI2C.c ****         uint32 matchReg;
 393:Generated_Source\PSoC4/EZI2C_CAM_EZI2C.c **** 
 394:Generated_Source\PSoC4/EZI2C_CAM_EZI2C.c ****         matchReg = EZI2C_CAM_RX_MATCH_REG;
 277              		.loc 1 394 0
 278 0008 0A4B     		ldr	r3, .L12
 279 000a 1B68     		ldr	r3, [r3]
 280 000c FB60     		str	r3, [r7, #12]
 395:Generated_Source\PSoC4/EZI2C_CAM_EZI2C.c **** 
 396:Generated_Source\PSoC4/EZI2C_CAM_EZI2C.c ****         /* Set address. */
 397:Generated_Source\PSoC4/EZI2C_CAM_EZI2C.c ****         matchReg &= (uint32) ~EZI2C_CAM_RX_MATCH_ADDR_MASK;
 281              		.loc 1 397 0
 282 000e FB68     		ldr	r3, [r7, #12]
 283 0010 FF22     		movs	r2, #255
 284 0012 9343     		bics	r3, r2
 285 0014 FB60     		str	r3, [r7, #12]
 398:Generated_Source\PSoC4/EZI2C_CAM_EZI2C.c ****         matchReg |= (uint32)  EZI2C_CAM_GET_I2C_8BIT_ADDRESS(address);
 286              		.loc 1 398 0
ARM GAS  C:\Users\ilya\AppData\Local\Temp\ccyexrGp.s 			page 13


 287 0016 7B68     		ldr	r3, [r7, #4]
 288 0018 5B00     		lsls	r3, r3, #1
 289 001a FF22     		movs	r2, #255
 290 001c 1340     		ands	r3, r2
 291 001e FA68     		ldr	r2, [r7, #12]
 292 0020 1343     		orrs	r3, r2
 293 0022 FB60     		str	r3, [r7, #12]
 399:Generated_Source\PSoC4/EZI2C_CAM_EZI2C.c **** 
 400:Generated_Source\PSoC4/EZI2C_CAM_EZI2C.c ****         EZI2C_CAM_RX_MATCH_REG = matchReg;
 294              		.loc 1 400 0
 295 0024 034B     		ldr	r3, .L12
 296 0026 FA68     		ldr	r2, [r7, #12]
 297 0028 1A60     		str	r2, [r3]
 298              	.LBE2:
 401:Generated_Source\PSoC4/EZI2C_CAM_EZI2C.c ****     }
 402:Generated_Source\PSoC4/EZI2C_CAM_EZI2C.c ****     #endif
 403:Generated_Source\PSoC4/EZI2C_CAM_EZI2C.c **** }
 299              		.loc 1 403 0
 300 002a C046     		nop
 301 002c BD46     		mov	sp, r7
 302 002e 04B0     		add	sp, sp, #16
 303              		@ sp needed
 304 0030 80BD     		pop	{r7, pc}
 305              	.L13:
 306 0032 C046     		.align	2
 307              	.L12:
 308 0034 10030740 		.word	1074201360
 309              		.cfi_endproc
 310              	.LFE3:
 311              		.size	EZI2C_CAM_EzI2CSetAddress1, .-EZI2C_CAM_EzI2CSetAddress1
 312              		.section	.text.EZI2C_CAM_EzI2CGetAddress1,"ax",%progbits
 313              		.align	2
 314              		.global	EZI2C_CAM_EzI2CGetAddress1
 315              		.code	16
 316              		.thumb_func
 317              		.type	EZI2C_CAM_EzI2CGetAddress1, %function
 318              	EZI2C_CAM_EzI2CGetAddress1:
 319              	.LFB4:
 404:Generated_Source\PSoC4/EZI2C_CAM_EZI2C.c **** 
 405:Generated_Source\PSoC4/EZI2C_CAM_EZI2C.c **** 
 406:Generated_Source\PSoC4/EZI2C_CAM_EZI2C.c **** /*******************************************************************************
 407:Generated_Source\PSoC4/EZI2C_CAM_EZI2C.c **** * Function Name: EZI2C_CAM_EzI2CGetAddress1
 408:Generated_Source\PSoC4/EZI2C_CAM_EZI2C.c **** ****************************************************************************//**
 409:Generated_Source\PSoC4/EZI2C_CAM_EZI2C.c **** *
 410:Generated_Source\PSoC4/EZI2C_CAM_EZI2C.c **** *  Returns primary the EZ I2C slave address.
 411:Generated_Source\PSoC4/EZI2C_CAM_EZI2C.c **** *  This address is the 7-bit right-justified slave address and does not include 
 412:Generated_Source\PSoC4/EZI2C_CAM_EZI2C.c **** *  the R/W bit.
 413:Generated_Source\PSoC4/EZI2C_CAM_EZI2C.c **** *
 414:Generated_Source\PSoC4/EZI2C_CAM_EZI2C.c **** * \return
 415:Generated_Source\PSoC4/EZI2C_CAM_EZI2C.c **** *  Primary EZI2C slave address.
 416:Generated_Source\PSoC4/EZI2C_CAM_EZI2C.c **** *
 417:Generated_Source\PSoC4/EZI2C_CAM_EZI2C.c **** * \globalvars
 418:Generated_Source\PSoC4/EZI2C_CAM_EZI2C.c **** *  EZI2C_CAM_addrBuf1 - used to store the primary 7-bit slave address 
 419:Generated_Source\PSoC4/EZI2C_CAM_EZI2C.c **** *  value.
 420:Generated_Source\PSoC4/EZI2C_CAM_EZI2C.c **** *
 421:Generated_Source\PSoC4/EZI2C_CAM_EZI2C.c **** *******************************************************************************/
 422:Generated_Source\PSoC4/EZI2C_CAM_EZI2C.c **** uint32 EZI2C_CAM_EzI2CGetAddress1(void)
ARM GAS  C:\Users\ilya\AppData\Local\Temp\ccyexrGp.s 			page 14


 423:Generated_Source\PSoC4/EZI2C_CAM_EZI2C.c **** {
 320              		.loc 1 423 0
 321              		.cfi_startproc
 322              		@ args = 0, pretend = 0, frame = 8
 323              		@ frame_needed = 1, uses_anonymous_args = 0
 324 0000 80B5     		push	{r7, lr}
 325              		.cfi_def_cfa_offset 8
 326              		.cfi_offset 7, -8
 327              		.cfi_offset 14, -4
 328 0002 82B0     		sub	sp, sp, #8
 329              		.cfi_def_cfa_offset 16
 330 0004 00AF     		add	r7, sp, #0
 331              		.cfi_def_cfa_register 7
 424:Generated_Source\PSoC4/EZI2C_CAM_EZI2C.c ****     uint32 address;
 425:Generated_Source\PSoC4/EZI2C_CAM_EZI2C.c **** 
 426:Generated_Source\PSoC4/EZI2C_CAM_EZI2C.c ****     #if(EZI2C_CAM_SECONDARY_ADDRESS_ENABLE)
 427:Generated_Source\PSoC4/EZI2C_CAM_EZI2C.c ****     {
 428:Generated_Source\PSoC4/EZI2C_CAM_EZI2C.c ****         address = (uint32) EZI2C_CAM_addrBuf1;
 429:Generated_Source\PSoC4/EZI2C_CAM_EZI2C.c ****     }
 430:Generated_Source\PSoC4/EZI2C_CAM_EZI2C.c ****     #else
 431:Generated_Source\PSoC4/EZI2C_CAM_EZI2C.c ****     {
 432:Generated_Source\PSoC4/EZI2C_CAM_EZI2C.c ****         address = (EZI2C_CAM_GET_RX_MATCH_ADDR(EZI2C_CAM_RX_MATCH_REG) >>
 332              		.loc 1 432 0
 333 0006 054B     		ldr	r3, .L16
 334 0008 1B68     		ldr	r3, [r3]
 335 000a FF22     		movs	r2, #255
 336 000c 1340     		ands	r3, r2
 337 000e 5B08     		lsrs	r3, r3, #1
 338 0010 7B60     		str	r3, [r7, #4]
 433:Generated_Source\PSoC4/EZI2C_CAM_EZI2C.c ****                    EZI2C_CAM_I2C_SLAVE_ADDR_POS);
 434:Generated_Source\PSoC4/EZI2C_CAM_EZI2C.c ****     }
 435:Generated_Source\PSoC4/EZI2C_CAM_EZI2C.c ****     #endif
 436:Generated_Source\PSoC4/EZI2C_CAM_EZI2C.c **** 
 437:Generated_Source\PSoC4/EZI2C_CAM_EZI2C.c ****     return(address);
 339              		.loc 1 437 0
 340 0012 7B68     		ldr	r3, [r7, #4]
 438:Generated_Source\PSoC4/EZI2C_CAM_EZI2C.c **** }
 341              		.loc 1 438 0
 342 0014 1800     		movs	r0, r3
 343 0016 BD46     		mov	sp, r7
 344 0018 02B0     		add	sp, sp, #8
 345              		@ sp needed
 346 001a 80BD     		pop	{r7, pc}
 347              	.L17:
 348              		.align	2
 349              	.L16:
 350 001c 10030740 		.word	1074201360
 351              		.cfi_endproc
 352              	.LFE4:
 353              		.size	EZI2C_CAM_EzI2CGetAddress1, .-EZI2C_CAM_EzI2CGetAddress1
 354              		.section	.text.EZI2C_CAM_EzI2CSetBuffer1,"ax",%progbits
 355              		.align	2
 356              		.global	EZI2C_CAM_EzI2CSetBuffer1
 357              		.code	16
 358              		.thumb_func
 359              		.type	EZI2C_CAM_EzI2CSetBuffer1, %function
 360              	EZI2C_CAM_EzI2CSetBuffer1:
ARM GAS  C:\Users\ilya\AppData\Local\Temp\ccyexrGp.s 			page 15


 361              	.LFB5:
 439:Generated_Source\PSoC4/EZI2C_CAM_EZI2C.c **** 
 440:Generated_Source\PSoC4/EZI2C_CAM_EZI2C.c **** 
 441:Generated_Source\PSoC4/EZI2C_CAM_EZI2C.c **** /*******************************************************************************
 442:Generated_Source\PSoC4/EZI2C_CAM_EZI2C.c **** * Function Name: EZI2C_CAM_EzI2CSetBuffer1
 443:Generated_Source\PSoC4/EZI2C_CAM_EZI2C.c **** ****************************************************************************//**
 444:Generated_Source\PSoC4/EZI2C_CAM_EZI2C.c **** *
 445:Generated_Source\PSoC4/EZI2C_CAM_EZI2C.c **** *  Sets up the data buffer to be exposed to the I2C master on a primary slave
 446:Generated_Source\PSoC4/EZI2C_CAM_EZI2C.c **** *  address request.
 447:Generated_Source\PSoC4/EZI2C_CAM_EZI2C.c **** *
 448:Generated_Source\PSoC4/EZI2C_CAM_EZI2C.c **** * \param bufSize: Size of the buffer in bytes.
 449:Generated_Source\PSoC4/EZI2C_CAM_EZI2C.c **** * \param rwBoundary: Number of data bytes starting from the beginning of the 
 450:Generated_Source\PSoC4/EZI2C_CAM_EZI2C.c **** *  buffer with read and write access. Data bytes located at offset rwBoundary 
 451:Generated_Source\PSoC4/EZI2C_CAM_EZI2C.c **** *  or greater are read only.
 452:Generated_Source\PSoC4/EZI2C_CAM_EZI2C.c **** *  This value must be less than or equal to the buffer size.
 453:Generated_Source\PSoC4/EZI2C_CAM_EZI2C.c **** * \param buffer: Pointer to the data buffer.
 454:Generated_Source\PSoC4/EZI2C_CAM_EZI2C.c **** *
 455:Generated_Source\PSoC4/EZI2C_CAM_EZI2C.c **** * \sideeffect
 456:Generated_Source\PSoC4/EZI2C_CAM_EZI2C.c **** *  Calling this function in the middle of a transaction intended for the 
 457:Generated_Source\PSoC4/EZI2C_CAM_EZI2C.c **** *  primary slave address leads to unexpected behavior.
 458:Generated_Source\PSoC4/EZI2C_CAM_EZI2C.c **** *
 459:Generated_Source\PSoC4/EZI2C_CAM_EZI2C.c **** * \globalvars
 460:Generated_Source\PSoC4/EZI2C_CAM_EZI2C.c **** *  EZI2C_CAM_dataBuffer1 – the pointer to the buffer to be exposed to the
 461:Generated_Source\PSoC4/EZI2C_CAM_EZI2C.c **** *  master on a primary address.
 462:Generated_Source\PSoC4/EZI2C_CAM_EZI2C.c **** *  EZI2C_CAM_bufSizeBuf1 - the size of the buffer to be exposed to the 
 463:Generated_Source\PSoC4/EZI2C_CAM_EZI2C.c **** *  master on a primary address.
 464:Generated_Source\PSoC4/EZI2C_CAM_EZI2C.c **** *  EZI2C_CAM_protectBuf1 - the start index of the read-only region in the
 465:Generated_Source\PSoC4/EZI2C_CAM_EZI2C.c **** *  buffer to be exposed to the master on a primary address. The read-only region
 466:Generated_Source\PSoC4/EZI2C_CAM_EZI2C.c **** *  continues up to the end the buffer.
 467:Generated_Source\PSoC4/EZI2C_CAM_EZI2C.c **** *
 468:Generated_Source\PSoC4/EZI2C_CAM_EZI2C.c **** *******************************************************************************/
 469:Generated_Source\PSoC4/EZI2C_CAM_EZI2C.c **** void EZI2C_CAM_EzI2CSetBuffer1(uint32 bufSize, uint32 rwBoundary, volatile uint8 * buffer)
 470:Generated_Source\PSoC4/EZI2C_CAM_EZI2C.c **** {
 362              		.loc 1 470 0
 363              		.cfi_startproc
 364              		@ args = 0, pretend = 0, frame = 16
 365              		@ frame_needed = 1, uses_anonymous_args = 0
 366 0000 80B5     		push	{r7, lr}
 367              		.cfi_def_cfa_offset 8
 368              		.cfi_offset 7, -8
 369              		.cfi_offset 14, -4
 370 0002 84B0     		sub	sp, sp, #16
 371              		.cfi_def_cfa_offset 24
 372 0004 00AF     		add	r7, sp, #0
 373              		.cfi_def_cfa_register 7
 374 0006 F860     		str	r0, [r7, #12]
 375 0008 B960     		str	r1, [r7, #8]
 376 000a 7A60     		str	r2, [r7, #4]
 471:Generated_Source\PSoC4/EZI2C_CAM_EZI2C.c ****     if (NULL != buffer)
 377              		.loc 1 471 0
 378 000c 7B68     		ldr	r3, [r7, #4]
 379 000e 002B     		cmp	r3, #0
 380 0010 10D0     		beq	.L20
 472:Generated_Source\PSoC4/EZI2C_CAM_EZI2C.c ****     {
 473:Generated_Source\PSoC4/EZI2C_CAM_EZI2C.c ****         EZI2C_CAM_DisableInt();  /* Lock from interruption */
 381              		.loc 1 473 0
 382 0012 0B20     		movs	r0, #11
ARM GAS  C:\Users\ilya\AppData\Local\Temp\ccyexrGp.s 			page 16


 383 0014 FFF7FEFF 		bl	CyIntDisable
 474:Generated_Source\PSoC4/EZI2C_CAM_EZI2C.c **** 
 475:Generated_Source\PSoC4/EZI2C_CAM_EZI2C.c ****         EZI2C_CAM_dataBuffer1 =  buffer;
 384              		.loc 1 475 0
 385 0018 084B     		ldr	r3, .L21
 386 001a 7A68     		ldr	r2, [r7, #4]
 387 001c 1A60     		str	r2, [r3]
 476:Generated_Source\PSoC4/EZI2C_CAM_EZI2C.c ****         EZI2C_CAM_bufSizeBuf1 = (uint16) bufSize;
 388              		.loc 1 476 0
 389 001e FB68     		ldr	r3, [r7, #12]
 390 0020 9AB2     		uxth	r2, r3
 391 0022 074B     		ldr	r3, .L21+4
 392 0024 1A80     		strh	r2, [r3]
 477:Generated_Source\PSoC4/EZI2C_CAM_EZI2C.c ****         EZI2C_CAM_protectBuf1 = (uint16) rwBoundary;
 393              		.loc 1 477 0
 394 0026 BB68     		ldr	r3, [r7, #8]
 395 0028 9AB2     		uxth	r2, r3
 396 002a 064B     		ldr	r3, .L21+8
 397 002c 1A80     		strh	r2, [r3]
 478:Generated_Source\PSoC4/EZI2C_CAM_EZI2C.c **** 
 479:Generated_Source\PSoC4/EZI2C_CAM_EZI2C.c ****         EZI2C_CAM_EnableInt();   /* Release lock */
 398              		.loc 1 479 0
 399 002e 0B20     		movs	r0, #11
 400 0030 FFF7FEFF 		bl	CyIntEnable
 401              	.L20:
 480:Generated_Source\PSoC4/EZI2C_CAM_EZI2C.c ****     }
 481:Generated_Source\PSoC4/EZI2C_CAM_EZI2C.c **** }
 402              		.loc 1 481 0
 403 0034 C046     		nop
 404 0036 BD46     		mov	sp, r7
 405 0038 04B0     		add	sp, sp, #16
 406              		@ sp needed
 407 003a 80BD     		pop	{r7, pc}
 408              	.L22:
 409              		.align	2
 410              	.L21:
 411 003c 00000000 		.word	EZI2C_CAM_dataBuffer1
 412 0040 00000000 		.word	EZI2C_CAM_bufSizeBuf1
 413 0044 00000000 		.word	EZI2C_CAM_protectBuf1
 414              		.cfi_endproc
 415              	.LFE5:
 416              		.size	EZI2C_CAM_EzI2CSetBuffer1, .-EZI2C_CAM_EzI2CSetBuffer1
 417              		.section	.text.EZI2C_CAM_EzI2CSetReadBoundaryBuffer1,"ax",%progbits
 418              		.align	2
 419              		.global	EZI2C_CAM_EzI2CSetReadBoundaryBuffer1
 420              		.code	16
 421              		.thumb_func
 422              		.type	EZI2C_CAM_EzI2CSetReadBoundaryBuffer1, %function
 423              	EZI2C_CAM_EzI2CSetReadBoundaryBuffer1:
 424              	.LFB6:
 482:Generated_Source\PSoC4/EZI2C_CAM_EZI2C.c **** 
 483:Generated_Source\PSoC4/EZI2C_CAM_EZI2C.c **** 
 484:Generated_Source\PSoC4/EZI2C_CAM_EZI2C.c **** /*******************************************************************************
 485:Generated_Source\PSoC4/EZI2C_CAM_EZI2C.c **** * Function Name: EZI2C_CAM_EzI2CSetReadBoundaryBuffer1
 486:Generated_Source\PSoC4/EZI2C_CAM_EZI2C.c **** ****************************************************************************//**
 487:Generated_Source\PSoC4/EZI2C_CAM_EZI2C.c **** *
 488:Generated_Source\PSoC4/EZI2C_CAM_EZI2C.c **** *  Sets the read only boundary in the data buffer to be exposed to the I2C
ARM GAS  C:\Users\ilya\AppData\Local\Temp\ccyexrGp.s 			page 17


 489:Generated_Source\PSoC4/EZI2C_CAM_EZI2C.c **** *  master on a primary slave address request.
 490:Generated_Source\PSoC4/EZI2C_CAM_EZI2C.c **** *
 491:Generated_Source\PSoC4/EZI2C_CAM_EZI2C.c **** * \param rwBoundry: Number of data bytes starting from the beginning of the 
 492:Generated_Source\PSoC4/EZI2C_CAM_EZI2C.c **** *  buffer with read and write access. Data bytes located at offset rwBoundary 
 493:Generated_Source\PSoC4/EZI2C_CAM_EZI2C.c **** *  or greater are read only.
 494:Generated_Source\PSoC4/EZI2C_CAM_EZI2C.c **** *  This value must be less than or equal to the buffer size.
 495:Generated_Source\PSoC4/EZI2C_CAM_EZI2C.c **** *
 496:Generated_Source\PSoC4/EZI2C_CAM_EZI2C.c **** * \sideeffect
 497:Generated_Source\PSoC4/EZI2C_CAM_EZI2C.c **** *  Calling this function in the middle of a transaction intended for the 
 498:Generated_Source\PSoC4/EZI2C_CAM_EZI2C.c **** *  primary slave address leads to unexpected behavior.
 499:Generated_Source\PSoC4/EZI2C_CAM_EZI2C.c **** *
 500:Generated_Source\PSoC4/EZI2C_CAM_EZI2C.c **** * \globalvars
 501:Generated_Source\PSoC4/EZI2C_CAM_EZI2C.c **** *  EZI2C_CAM_protectBuf1 - the start index of the read-only region in the
 502:Generated_Source\PSoC4/EZI2C_CAM_EZI2C.c **** *  buffer to be exposed to the master on a primary address. The read-only region
 503:Generated_Source\PSoC4/EZI2C_CAM_EZI2C.c **** *  continues up to the end the buffer.
 504:Generated_Source\PSoC4/EZI2C_CAM_EZI2C.c **** *
 505:Generated_Source\PSoC4/EZI2C_CAM_EZI2C.c **** *******************************************************************************/
 506:Generated_Source\PSoC4/EZI2C_CAM_EZI2C.c **** void EZI2C_CAM_EzI2CSetReadBoundaryBuffer1(uint32 rwBoundary)
 507:Generated_Source\PSoC4/EZI2C_CAM_EZI2C.c **** {
 425              		.loc 1 507 0
 426              		.cfi_startproc
 427              		@ args = 0, pretend = 0, frame = 8
 428              		@ frame_needed = 1, uses_anonymous_args = 0
 429 0000 80B5     		push	{r7, lr}
 430              		.cfi_def_cfa_offset 8
 431              		.cfi_offset 7, -8
 432              		.cfi_offset 14, -4
 433 0002 82B0     		sub	sp, sp, #8
 434              		.cfi_def_cfa_offset 16
 435 0004 00AF     		add	r7, sp, #0
 436              		.cfi_def_cfa_register 7
 437 0006 7860     		str	r0, [r7, #4]
 508:Generated_Source\PSoC4/EZI2C_CAM_EZI2C.c ****     EZI2C_CAM_protectBuf1 = (uint16) rwBoundary;
 438              		.loc 1 508 0
 439 0008 7B68     		ldr	r3, [r7, #4]
 440 000a 9AB2     		uxth	r2, r3
 441 000c 024B     		ldr	r3, .L24
 442 000e 1A80     		strh	r2, [r3]
 509:Generated_Source\PSoC4/EZI2C_CAM_EZI2C.c **** }
 443              		.loc 1 509 0
 444 0010 C046     		nop
 445 0012 BD46     		mov	sp, r7
 446 0014 02B0     		add	sp, sp, #8
 447              		@ sp needed
 448 0016 80BD     		pop	{r7, pc}
 449              	.L25:
 450              		.align	2
 451              	.L24:
 452 0018 00000000 		.word	EZI2C_CAM_protectBuf1
 453              		.cfi_endproc
 454              	.LFE6:
 455              		.size	EZI2C_CAM_EzI2CSetReadBoundaryBuffer1, .-EZI2C_CAM_EzI2CSetReadBoundaryBuffer1
 456              		.text
 457              	.Letext0:
 458              		.file 2 "Generated_Source\\PSoC4/cytypes.h"