ARM GAS  C:\Users\ilya\AppData\Local\Temp\ccUzBtzJ.s 			page 1


   1              		.syntax unified
   2              		.cpu cortex-m0
   3              		.fpu softvfp
   4              		.eabi_attribute 20, 1
   5              		.eabi_attribute 21, 1
   6              		.eabi_attribute 23, 3
   7              		.eabi_attribute 24, 1
   8              		.eabi_attribute 25, 1
   9              		.eabi_attribute 26, 1
  10              		.eabi_attribute 30, 6
  11              		.eabi_attribute 34, 0
  12              		.eabi_attribute 18, 4
  13              		.thumb
  14              		.syntax unified
  15              		.file	"IDAC_1_PM.c"
  16              		.text
  17              	.Ltext0:
  18              		.cfi_sections	.debug_frame
  19              		.bss
  20              		.align	2
  21              	IDAC_1_backup:
  22 0000 00       		.space	1
  23              		.section	.text.IDAC_1_SaveConfig,"ax",%progbits
  24              		.align	2
  25              		.global	IDAC_1_SaveConfig
  26              		.code	16
  27              		.thumb_func
  28              		.type	IDAC_1_SaveConfig, %function
  29              	IDAC_1_SaveConfig:
  30              	.LFB0:
  31              		.file 1 "Generated_Source\\PSoC4\\IDAC_1_PM.c"
   1:Generated_Source\PSoC4/IDAC_1_PM.c **** /*******************************************************************************
   2:Generated_Source\PSoC4/IDAC_1_PM.c **** * File Name: IDAC_1_PM.c
   3:Generated_Source\PSoC4/IDAC_1_PM.c **** * Version 1.10
   4:Generated_Source\PSoC4/IDAC_1_PM.c **** *
   5:Generated_Source\PSoC4/IDAC_1_PM.c **** * Description:
   6:Generated_Source\PSoC4/IDAC_1_PM.c **** *  This file provides Low power mode APIs for IDAC_P4 component.
   7:Generated_Source\PSoC4/IDAC_1_PM.c **** *
   8:Generated_Source\PSoC4/IDAC_1_PM.c **** ********************************************************************************
   9:Generated_Source\PSoC4/IDAC_1_PM.c **** * Copyright 2013-2015, Cypress Semiconductor Corporation.  All rights reserved.
  10:Generated_Source\PSoC4/IDAC_1_PM.c **** * You may use this file only in accordance with the license, terms, conditions,
  11:Generated_Source\PSoC4/IDAC_1_PM.c **** * disclaimers, and limitations in the end user license agreement accompanying
  12:Generated_Source\PSoC4/IDAC_1_PM.c **** * the software package with which this file was provided.
  13:Generated_Source\PSoC4/IDAC_1_PM.c **** *******************************************************************************/
  14:Generated_Source\PSoC4/IDAC_1_PM.c **** 
  15:Generated_Source\PSoC4/IDAC_1_PM.c **** #include "IDAC_1.h"
  16:Generated_Source\PSoC4/IDAC_1_PM.c **** 
  17:Generated_Source\PSoC4/IDAC_1_PM.c **** 
  18:Generated_Source\PSoC4/IDAC_1_PM.c **** static IDAC_1_BACKUP_STRUCT IDAC_1_backup;
  19:Generated_Source\PSoC4/IDAC_1_PM.c **** 
  20:Generated_Source\PSoC4/IDAC_1_PM.c **** 
  21:Generated_Source\PSoC4/IDAC_1_PM.c **** /*******************************************************************************
  22:Generated_Source\PSoC4/IDAC_1_PM.c **** * Function Name: IDAC_1_SaveConfig
  23:Generated_Source\PSoC4/IDAC_1_PM.c **** ********************************************************************************
  24:Generated_Source\PSoC4/IDAC_1_PM.c **** *
  25:Generated_Source\PSoC4/IDAC_1_PM.c **** * Summary:
  26:Generated_Source\PSoC4/IDAC_1_PM.c **** *  Saves component state before sleep
ARM GAS  C:\Users\ilya\AppData\Local\Temp\ccUzBtzJ.s 			page 2


  27:Generated_Source\PSoC4/IDAC_1_PM.c **** * Parameters:
  28:Generated_Source\PSoC4/IDAC_1_PM.c **** *  None
  29:Generated_Source\PSoC4/IDAC_1_PM.c **** *
  30:Generated_Source\PSoC4/IDAC_1_PM.c **** * Return:
  31:Generated_Source\PSoC4/IDAC_1_PM.c **** *  None
  32:Generated_Source\PSoC4/IDAC_1_PM.c **** *
  33:Generated_Source\PSoC4/IDAC_1_PM.c **** * Global Variables:
  34:Generated_Source\PSoC4/IDAC_1_PM.c **** *  None
  35:Generated_Source\PSoC4/IDAC_1_PM.c **** *
  36:Generated_Source\PSoC4/IDAC_1_PM.c **** *******************************************************************************/
  37:Generated_Source\PSoC4/IDAC_1_PM.c **** void IDAC_1_SaveConfig(void)
  38:Generated_Source\PSoC4/IDAC_1_PM.c **** {
  32              		.loc 1 38 0
  33              		.cfi_startproc
  34              		@ args = 0, pretend = 0, frame = 0
  35              		@ frame_needed = 1, uses_anonymous_args = 0
  36 0000 80B5     		push	{r7, lr}
  37              		.cfi_def_cfa_offset 8
  38              		.cfi_offset 7, -8
  39              		.cfi_offset 14, -4
  40 0002 00AF     		add	r7, sp, #0
  41              		.cfi_def_cfa_register 7
  39:Generated_Source\PSoC4/IDAC_1_PM.c ****     /* All registers are retention - nothing to save */
  40:Generated_Source\PSoC4/IDAC_1_PM.c **** }
  42              		.loc 1 40 0
  43 0004 C046     		nop
  44 0006 BD46     		mov	sp, r7
  45              		@ sp needed
  46 0008 80BD     		pop	{r7, pc}
  47              		.cfi_endproc
  48              	.LFE0:
  49              		.size	IDAC_1_SaveConfig, .-IDAC_1_SaveConfig
  50 000a C046     		.section	.text.IDAC_1_Sleep,"ax",%progbits
  51              		.align	2
  52              		.global	IDAC_1_Sleep
  53              		.code	16
  54              		.thumb_func
  55              		.type	IDAC_1_Sleep, %function
  56              	IDAC_1_Sleep:
  57              	.LFB1:
  41:Generated_Source\PSoC4/IDAC_1_PM.c **** 
  42:Generated_Source\PSoC4/IDAC_1_PM.c **** 
  43:Generated_Source\PSoC4/IDAC_1_PM.c **** /*******************************************************************************
  44:Generated_Source\PSoC4/IDAC_1_PM.c **** * Function Name: IDAC_1_Sleep
  45:Generated_Source\PSoC4/IDAC_1_PM.c **** ********************************************************************************
  46:Generated_Source\PSoC4/IDAC_1_PM.c **** *
  47:Generated_Source\PSoC4/IDAC_1_PM.c **** * Summary:
  48:Generated_Source\PSoC4/IDAC_1_PM.c **** *  Calls _SaveConfig() function
  49:Generated_Source\PSoC4/IDAC_1_PM.c **** * Parameters:
  50:Generated_Source\PSoC4/IDAC_1_PM.c **** *  None
  51:Generated_Source\PSoC4/IDAC_1_PM.c **** *
  52:Generated_Source\PSoC4/IDAC_1_PM.c **** * Return:
  53:Generated_Source\PSoC4/IDAC_1_PM.c **** *  None
  54:Generated_Source\PSoC4/IDAC_1_PM.c **** *
  55:Generated_Source\PSoC4/IDAC_1_PM.c **** *******************************************************************************/
  56:Generated_Source\PSoC4/IDAC_1_PM.c **** void IDAC_1_Sleep(void)
  57:Generated_Source\PSoC4/IDAC_1_PM.c **** {
ARM GAS  C:\Users\ilya\AppData\Local\Temp\ccUzBtzJ.s 			page 3


  58              		.loc 1 57 0
  59              		.cfi_startproc
  60              		@ args = 0, pretend = 0, frame = 0
  61              		@ frame_needed = 1, uses_anonymous_args = 0
  62 0000 80B5     		push	{r7, lr}
  63              		.cfi_def_cfa_offset 8
  64              		.cfi_offset 7, -8
  65              		.cfi_offset 14, -4
  66 0002 00AF     		add	r7, sp, #0
  67              		.cfi_def_cfa_register 7
  58:Generated_Source\PSoC4/IDAC_1_PM.c ****         if(0u != (IDAC_1_IDAC_CONTROL_REG & ((uint32)IDAC_1_IDAC_MODE_MASK <<
  68              		.loc 1 58 0
  69 0004 094B     		ldr	r3, .L5
  70 0006 1A68     		ldr	r2, [r3]
  71 0008 C023     		movs	r3, #192
  72 000a 9B04     		lsls	r3, r3, #18
  73 000c 1340     		ands	r3, r2
  74 000e 03D0     		beq	.L3
  59:Generated_Source\PSoC4/IDAC_1_PM.c ****         IDAC_1_IDAC_MODE_POSITION)))
  60:Generated_Source\PSoC4/IDAC_1_PM.c ****         {
  61:Generated_Source\PSoC4/IDAC_1_PM.c ****             IDAC_1_backup.enableState = 1u;
  75              		.loc 1 61 0
  76 0010 074B     		ldr	r3, .L5+4
  77 0012 0122     		movs	r2, #1
  78 0014 1A70     		strb	r2, [r3]
  79 0016 02E0     		b	.L4
  80              	.L3:
  62:Generated_Source\PSoC4/IDAC_1_PM.c ****         }
  63:Generated_Source\PSoC4/IDAC_1_PM.c ****         else
  64:Generated_Source\PSoC4/IDAC_1_PM.c ****         {
  65:Generated_Source\PSoC4/IDAC_1_PM.c ****             IDAC_1_backup.enableState = 0u;
  81              		.loc 1 65 0
  82 0018 054B     		ldr	r3, .L5+4
  83 001a 0022     		movs	r2, #0
  84 001c 1A70     		strb	r2, [r3]
  85              	.L4:
  66:Generated_Source\PSoC4/IDAC_1_PM.c ****         }
  67:Generated_Source\PSoC4/IDAC_1_PM.c **** 
  68:Generated_Source\PSoC4/IDAC_1_PM.c ****     IDAC_1_Stop();
  86              		.loc 1 68 0
  87 001e FFF7FEFF 		bl	IDAC_1_Stop
  69:Generated_Source\PSoC4/IDAC_1_PM.c ****     IDAC_1_SaveConfig();
  88              		.loc 1 69 0
  89 0022 FFF7FEFF 		bl	IDAC_1_SaveConfig
  70:Generated_Source\PSoC4/IDAC_1_PM.c **** }
  90              		.loc 1 70 0
  91 0026 C046     		nop
  92 0028 BD46     		mov	sp, r7
  93              		@ sp needed
  94 002a 80BD     		pop	{r7, pc}
  95              	.L6:
  96              		.align	2
  97              	.L5:
  98 002c 08000840 		.word	1074266120
  99 0030 00000000 		.word	IDAC_1_backup
 100              		.cfi_endproc
 101              	.LFE1:
ARM GAS  C:\Users\ilya\AppData\Local\Temp\ccUzBtzJ.s 			page 4


 102              		.size	IDAC_1_Sleep, .-IDAC_1_Sleep
 103              		.section	.text.IDAC_1_RestoreConfig,"ax",%progbits
 104              		.align	2
 105              		.global	IDAC_1_RestoreConfig
 106              		.code	16
 107              		.thumb_func
 108              		.type	IDAC_1_RestoreConfig, %function
 109              	IDAC_1_RestoreConfig:
 110              	.LFB2:
  71:Generated_Source\PSoC4/IDAC_1_PM.c **** 
  72:Generated_Source\PSoC4/IDAC_1_PM.c **** 
  73:Generated_Source\PSoC4/IDAC_1_PM.c **** /*******************************************************************************
  74:Generated_Source\PSoC4/IDAC_1_PM.c **** * Function Name: IDAC_1_RestoreConfig
  75:Generated_Source\PSoC4/IDAC_1_PM.c **** ********************************************************************************
  76:Generated_Source\PSoC4/IDAC_1_PM.c **** *
  77:Generated_Source\PSoC4/IDAC_1_PM.c **** * Summary:
  78:Generated_Source\PSoC4/IDAC_1_PM.c **** *  Restores component state after wakeup
  79:Generated_Source\PSoC4/IDAC_1_PM.c **** * Parameters:
  80:Generated_Source\PSoC4/IDAC_1_PM.c **** *  None
  81:Generated_Source\PSoC4/IDAC_1_PM.c **** *
  82:Generated_Source\PSoC4/IDAC_1_PM.c **** * Return:
  83:Generated_Source\PSoC4/IDAC_1_PM.c **** *  None
  84:Generated_Source\PSoC4/IDAC_1_PM.c **** *
  85:Generated_Source\PSoC4/IDAC_1_PM.c **** * Global Variables:
  86:Generated_Source\PSoC4/IDAC_1_PM.c **** *  None
  87:Generated_Source\PSoC4/IDAC_1_PM.c **** *
  88:Generated_Source\PSoC4/IDAC_1_PM.c **** *******************************************************************************/
  89:Generated_Source\PSoC4/IDAC_1_PM.c **** void IDAC_1_RestoreConfig(void)
  90:Generated_Source\PSoC4/IDAC_1_PM.c **** {
 111              		.loc 1 90 0
 112              		.cfi_startproc
 113              		@ args = 0, pretend = 0, frame = 0
 114              		@ frame_needed = 1, uses_anonymous_args = 0
 115 0000 80B5     		push	{r7, lr}
 116              		.cfi_def_cfa_offset 8
 117              		.cfi_offset 7, -8
 118              		.cfi_offset 14, -4
 119 0002 00AF     		add	r7, sp, #0
 120              		.cfi_def_cfa_register 7
  91:Generated_Source\PSoC4/IDAC_1_PM.c ****     /* All registers are retention - nothing to save */
  92:Generated_Source\PSoC4/IDAC_1_PM.c **** }
 121              		.loc 1 92 0
 122 0004 C046     		nop
 123 0006 BD46     		mov	sp, r7
 124              		@ sp needed
 125 0008 80BD     		pop	{r7, pc}
 126              		.cfi_endproc
 127              	.LFE2:
 128              		.size	IDAC_1_RestoreConfig, .-IDAC_1_RestoreConfig
 129              		.section	.text.IDAC_1_Wakeup,"ax",%progbits
 130              		.align	2
 131              		.global	IDAC_1_Wakeup
 132              		.code	16
 133              		.thumb_func
 134              		.type	IDAC_1_Wakeup, %function
 135              	IDAC_1_Wakeup:
 136              	.LFB3:
ARM GAS  C:\Users\ilya\AppData\Local\Temp\ccUzBtzJ.s 			page 5


  93:Generated_Source\PSoC4/IDAC_1_PM.c **** 
  94:Generated_Source\PSoC4/IDAC_1_PM.c **** 
  95:Generated_Source\PSoC4/IDAC_1_PM.c **** /*******************************************************************************
  96:Generated_Source\PSoC4/IDAC_1_PM.c **** * Function Name: IDAC_1_Wakeup
  97:Generated_Source\PSoC4/IDAC_1_PM.c **** ********************************************************************************
  98:Generated_Source\PSoC4/IDAC_1_PM.c **** *
  99:Generated_Source\PSoC4/IDAC_1_PM.c **** * Summary:
 100:Generated_Source\PSoC4/IDAC_1_PM.c **** *  Calls _RestoreConfig() function
 101:Generated_Source\PSoC4/IDAC_1_PM.c **** * Parameters:
 102:Generated_Source\PSoC4/IDAC_1_PM.c **** *  None
 103:Generated_Source\PSoC4/IDAC_1_PM.c **** *
 104:Generated_Source\PSoC4/IDAC_1_PM.c **** * Return:
 105:Generated_Source\PSoC4/IDAC_1_PM.c **** *  None
 106:Generated_Source\PSoC4/IDAC_1_PM.c **** *
 107:Generated_Source\PSoC4/IDAC_1_PM.c **** *******************************************************************************/
 108:Generated_Source\PSoC4/IDAC_1_PM.c **** void IDAC_1_Wakeup(void)
 109:Generated_Source\PSoC4/IDAC_1_PM.c **** {
 137              		.loc 1 109 0
 138              		.cfi_startproc
 139              		@ args = 0, pretend = 0, frame = 0
 140              		@ frame_needed = 1, uses_anonymous_args = 0
 141 0000 80B5     		push	{r7, lr}
 142              		.cfi_def_cfa_offset 8
 143              		.cfi_offset 7, -8
 144              		.cfi_offset 14, -4
 145 0002 00AF     		add	r7, sp, #0
 146              		.cfi_def_cfa_register 7
 110:Generated_Source\PSoC4/IDAC_1_PM.c ****     /* Restore IDAC register settings */
 111:Generated_Source\PSoC4/IDAC_1_PM.c ****     IDAC_1_RestoreConfig();
 147              		.loc 1 111 0
 148 0004 FFF7FEFF 		bl	IDAC_1_RestoreConfig
 112:Generated_Source\PSoC4/IDAC_1_PM.c ****     if(IDAC_1_backup.enableState == 1u)
 149              		.loc 1 112 0
 150 0008 044B     		ldr	r3, .L11
 151 000a 1B78     		ldrb	r3, [r3]
 152 000c 012B     		cmp	r3, #1
 153 000e 01D1     		bne	.L10
 113:Generated_Source\PSoC4/IDAC_1_PM.c ****     {
 114:Generated_Source\PSoC4/IDAC_1_PM.c ****         /* Enable operation */
 115:Generated_Source\PSoC4/IDAC_1_PM.c ****         IDAC_1_Enable();
 154              		.loc 1 115 0
 155 0010 FFF7FEFF 		bl	IDAC_1_Enable
 156              	.L10:
 116:Generated_Source\PSoC4/IDAC_1_PM.c ****     } /* Do nothing if the component was disabled before */
 117:Generated_Source\PSoC4/IDAC_1_PM.c **** 
 118:Generated_Source\PSoC4/IDAC_1_PM.c **** }
 157              		.loc 1 118 0
 158 0014 C046     		nop
 159 0016 BD46     		mov	sp, r7
 160              		@ sp needed
 161 0018 80BD     		pop	{r7, pc}
 162              	.L12:
 163 001a C046     		.align	2
 164              	.L11:
 165 001c 00000000 		.word	IDAC_1_backup
 166              		.cfi_endproc
 167              	.LFE3:
ARM GAS  C:\Users\ilya\AppData\Local\Temp\ccUzBtzJ.s 			page 6


 168              		.size	IDAC_1_Wakeup, .-IDAC_1_Wakeup
 169              		.text
 170              	.Letext0:
 171              		.file 2 "Generated_Source\\PSoC4\\cytypes.h"
 172              		.file 3 "Generated_Source\\PSoC4\\IDAC_1.h"