ARM GAS  C:\Users\bramamu\AppData\Local\Temp\ccSambr2.s 			page 1


   1              		.syntax unified
   2              		.cpu cortex-m3
   3              		.fpu softvfp
   4              		.eabi_attribute 20, 1
   5              		.eabi_attribute 21, 1
   6              		.eabi_attribute 23, 3
   7              		.eabi_attribute 24, 1
   8              		.eabi_attribute 25, 1
   9              		.eabi_attribute 26, 1
  10              		.eabi_attribute 30, 6
  11              		.eabi_attribute 34, 1
  12              		.eabi_attribute 18, 4
  13              		.thumb
  14              		.file	"cyfitter_cfg.c"
  15              		.text
  16              	.Ltext0:
  17              		.cfi_sections	.debug_frame
  18              		.section	.text.CYMEMZERO,"ax",%progbits
  19              		.align	2
  20              		.thumb
  21              		.thumb_func
  22              		.type	CYMEMZERO, %function
  23              	CYMEMZERO:
  24              	.LFB0:
  25              		.file 1 ".\\Generated_Source\\PSoC5\\cyfitter_cfg.c"
   1:.\Generated_Source\PSoC5/cyfitter_cfg.c **** /*******************************************************************************
   2:.\Generated_Source\PSoC5/cyfitter_cfg.c **** * FILENAME: cyfitter_cfg.c
   3:.\Generated_Source\PSoC5/cyfitter_cfg.c **** * PSoC Creator 3.0 SP2
   4:.\Generated_Source\PSoC5/cyfitter_cfg.c **** *
   5:.\Generated_Source\PSoC5/cyfitter_cfg.c **** * Description:
   6:.\Generated_Source\PSoC5/cyfitter_cfg.c **** * This file is automatically generated by PSoC Creator with device 
   7:.\Generated_Source\PSoC5/cyfitter_cfg.c **** * initialization code.  Except for the user defined sections in
   8:.\Generated_Source\PSoC5/cyfitter_cfg.c **** * CyClockStartupError(), this file should not be modified.
   9:.\Generated_Source\PSoC5/cyfitter_cfg.c **** *
  10:.\Generated_Source\PSoC5/cyfitter_cfg.c **** ********************************************************************************
  11:.\Generated_Source\PSoC5/cyfitter_cfg.c **** * Copyright 2013, Cypress Semiconductor Corporation.  All rights reserved.
  12:.\Generated_Source\PSoC5/cyfitter_cfg.c **** * You may use this file only in accordance with the license, terms, conditions, 
  13:.\Generated_Source\PSoC5/cyfitter_cfg.c **** * disclaimers, and limitations in the end user license agreement accompanying 
  14:.\Generated_Source\PSoC5/cyfitter_cfg.c **** * the software package with which this file was provided.
  15:.\Generated_Source\PSoC5/cyfitter_cfg.c **** ********************************************************************************/
  16:.\Generated_Source\PSoC5/cyfitter_cfg.c **** 
  17:.\Generated_Source\PSoC5/cyfitter_cfg.c **** #include <string.h>
  18:.\Generated_Source\PSoC5/cyfitter_cfg.c **** #include <cytypes.h>
  19:.\Generated_Source\PSoC5/cyfitter_cfg.c **** #include <cydevice_trm.h>
  20:.\Generated_Source\PSoC5/cyfitter_cfg.c **** #include <cyfitter.h>
  21:.\Generated_Source\PSoC5/cyfitter_cfg.c **** #include <CyLib.h>
  22:.\Generated_Source\PSoC5/cyfitter_cfg.c **** #include <cyfitter_cfg.h>
  23:.\Generated_Source\PSoC5/cyfitter_cfg.c **** 
  24:.\Generated_Source\PSoC5/cyfitter_cfg.c **** #define CY_NEED_CYCLOCKSTARTUPERROR 1
  25:.\Generated_Source\PSoC5/cyfitter_cfg.c **** 
  26:.\Generated_Source\PSoC5/cyfitter_cfg.c **** 
  27:.\Generated_Source\PSoC5/cyfitter_cfg.c **** #if defined(__GNUC__) || defined(__ARMCC_VERSION)
  28:.\Generated_Source\PSoC5/cyfitter_cfg.c ****     #define CYPACKED 
  29:.\Generated_Source\PSoC5/cyfitter_cfg.c ****     #define CYPACKED_ATTR __attribute__ ((packed))
  30:.\Generated_Source\PSoC5/cyfitter_cfg.c ****     #define CYALIGNED __attribute__ ((aligned))
  31:.\Generated_Source\PSoC5/cyfitter_cfg.c ****     #define CY_CFG_UNUSED __attribute__ ((unused))
  32:.\Generated_Source\PSoC5/cyfitter_cfg.c ****     #define CY_CFG_SECTION __attribute__ ((section(".psocinit")))
ARM GAS  C:\Users\bramamu\AppData\Local\Temp\ccSambr2.s 			page 2


  33:.\Generated_Source\PSoC5/cyfitter_cfg.c ****     
  34:.\Generated_Source\PSoC5/cyfitter_cfg.c ****     #if defined(__ARMCC_VERSION)
  35:.\Generated_Source\PSoC5/cyfitter_cfg.c ****         #define CY_CFG_MEMORY_BARRIER() __memory_changed()
  36:.\Generated_Source\PSoC5/cyfitter_cfg.c ****     #else
  37:.\Generated_Source\PSoC5/cyfitter_cfg.c ****         #define CY_CFG_MEMORY_BARRIER() __sync_synchronize()
  38:.\Generated_Source\PSoC5/cyfitter_cfg.c ****     #endif
  39:.\Generated_Source\PSoC5/cyfitter_cfg.c ****     
  40:.\Generated_Source\PSoC5/cyfitter_cfg.c **** #elif defined(__ICCARM__)
  41:.\Generated_Source\PSoC5/cyfitter_cfg.c ****     #include <intrinsics.h>
  42:.\Generated_Source\PSoC5/cyfitter_cfg.c **** 
  43:.\Generated_Source\PSoC5/cyfitter_cfg.c ****     #define CYPACKED __packed
  44:.\Generated_Source\PSoC5/cyfitter_cfg.c ****     #define CYPACKED_ATTR 
  45:.\Generated_Source\PSoC5/cyfitter_cfg.c ****     #define CYALIGNED _Pragma("data_alignment=4")
  46:.\Generated_Source\PSoC5/cyfitter_cfg.c ****     #define CY_CFG_UNUSED _Pragma("diag_suppress=Pe177")
  47:.\Generated_Source\PSoC5/cyfitter_cfg.c ****     #define CY_CFG_SECTION _Pragma("location=\".psocinit\"")
  48:.\Generated_Source\PSoC5/cyfitter_cfg.c ****     
  49:.\Generated_Source\PSoC5/cyfitter_cfg.c ****     #define CY_CFG_MEMORY_BARRIER() __DMB()
  50:.\Generated_Source\PSoC5/cyfitter_cfg.c ****     
  51:.\Generated_Source\PSoC5/cyfitter_cfg.c **** #else
  52:.\Generated_Source\PSoC5/cyfitter_cfg.c ****     #error Unsupported toolchain
  53:.\Generated_Source\PSoC5/cyfitter_cfg.c **** #endif
  54:.\Generated_Source\PSoC5/cyfitter_cfg.c **** 
  55:.\Generated_Source\PSoC5/cyfitter_cfg.c **** 
  56:.\Generated_Source\PSoC5/cyfitter_cfg.c **** CY_CFG_UNUSED
  57:.\Generated_Source\PSoC5/cyfitter_cfg.c **** static void CYMEMZERO(void *s, size_t n);
  58:.\Generated_Source\PSoC5/cyfitter_cfg.c **** CY_CFG_UNUSED
  59:.\Generated_Source\PSoC5/cyfitter_cfg.c **** static void CYMEMZERO(void *s, size_t n)
  60:.\Generated_Source\PSoC5/cyfitter_cfg.c **** {
  26              		.loc 1 60 0
  27              		.cfi_startproc
  28              		@ args = 0, pretend = 0, frame = 8
  29              		@ frame_needed = 1, uses_anonymous_args = 0
  30 0000 80B5     		push	{r7, lr}
  31              	.LCFI0:
  32              		.cfi_def_cfa_offset 8
  33              		.cfi_offset 7, -8
  34              		.cfi_offset 14, -4
  35 0002 82B0     		sub	sp, sp, #8
  36              	.LCFI1:
  37              		.cfi_def_cfa_offset 16
  38 0004 00AF     		add	r7, sp, #0
  39              	.LCFI2:
  40              		.cfi_def_cfa_register 7
  41 0006 7860     		str	r0, [r7, #4]
  42 0008 3960     		str	r1, [r7, #0]
  61:.\Generated_Source\PSoC5/cyfitter_cfg.c **** 	(void)memset(s, 0, n);
  43              		.loc 1 61 0
  44 000a 7868     		ldr	r0, [r7, #4]
  45 000c 4FF00001 		mov	r1, #0
  46 0010 3A68     		ldr	r2, [r7, #0]
  47 0012 FFF7FEFF 		bl	memset
  62:.\Generated_Source\PSoC5/cyfitter_cfg.c **** }
  48              		.loc 1 62 0
  49 0016 07F10807 		add	r7, r7, #8
  50 001a BD46     		mov	sp, r7
  51 001c 80BD     		pop	{r7, pc}
  52              		.cfi_endproc
ARM GAS  C:\Users\bramamu\AppData\Local\Temp\ccSambr2.s 			page 3


  53              	.LFE0:
  54              		.size	CYMEMZERO, .-CYMEMZERO
  55 001e 00BF     		.section	.text.CYCONFIGCPY,"ax",%progbits
  56              		.align	2
  57              		.thumb
  58              		.thumb_func
  59              		.type	CYCONFIGCPY, %function
  60              	CYCONFIGCPY:
  61              	.LFB1:
  63:.\Generated_Source\PSoC5/cyfitter_cfg.c **** CY_CFG_UNUSED
  64:.\Generated_Source\PSoC5/cyfitter_cfg.c **** static void CYCONFIGCPY(void *dest, const void *src, size_t n);
  65:.\Generated_Source\PSoC5/cyfitter_cfg.c **** CY_CFG_UNUSED
  66:.\Generated_Source\PSoC5/cyfitter_cfg.c **** static void CYCONFIGCPY(void *dest, const void *src, size_t n)
  67:.\Generated_Source\PSoC5/cyfitter_cfg.c **** {
  62              		.loc 1 67 0
  63              		.cfi_startproc
  64              		@ args = 0, pretend = 0, frame = 16
  65              		@ frame_needed = 1, uses_anonymous_args = 0
  66 0000 80B5     		push	{r7, lr}
  67              	.LCFI3:
  68              		.cfi_def_cfa_offset 8
  69              		.cfi_offset 7, -8
  70              		.cfi_offset 14, -4
  71 0002 84B0     		sub	sp, sp, #16
  72              	.LCFI4:
  73              		.cfi_def_cfa_offset 24
  74 0004 00AF     		add	r7, sp, #0
  75              	.LCFI5:
  76              		.cfi_def_cfa_register 7
  77 0006 F860     		str	r0, [r7, #12]
  78 0008 B960     		str	r1, [r7, #8]
  79 000a 7A60     		str	r2, [r7, #4]
  68:.\Generated_Source\PSoC5/cyfitter_cfg.c **** 	(void)memcpy(dest, src, n);
  80              		.loc 1 68 0
  81 000c F868     		ldr	r0, [r7, #12]
  82 000e B968     		ldr	r1, [r7, #8]
  83 0010 7A68     		ldr	r2, [r7, #4]
  84 0012 FFF7FEFF 		bl	memcpy
  69:.\Generated_Source\PSoC5/cyfitter_cfg.c **** }
  85              		.loc 1 69 0
  86 0016 07F11007 		add	r7, r7, #16
  87 001a BD46     		mov	sp, r7
  88 001c 80BD     		pop	{r7, pc}
  89              		.cfi_endproc
  90              	.LFE1:
  91              		.size	CYCONFIGCPY, .-CYCONFIGCPY
  92 001e 00BF     		.section	.text.CYCONFIGCPYCODE,"ax",%progbits
  93              		.align	2
  94              		.thumb
  95              		.thumb_func
  96              		.type	CYCONFIGCPYCODE, %function
  97              	CYCONFIGCPYCODE:
  98              	.LFB2:
  70:.\Generated_Source\PSoC5/cyfitter_cfg.c **** CY_CFG_UNUSED
  71:.\Generated_Source\PSoC5/cyfitter_cfg.c **** static void CYCONFIGCPYCODE(void *dest, const void *src, size_t n);
  72:.\Generated_Source\PSoC5/cyfitter_cfg.c **** CY_CFG_UNUSED
  73:.\Generated_Source\PSoC5/cyfitter_cfg.c **** static void CYCONFIGCPYCODE(void *dest, const void *src, size_t n)
ARM GAS  C:\Users\bramamu\AppData\Local\Temp\ccSambr2.s 			page 4


  74:.\Generated_Source\PSoC5/cyfitter_cfg.c **** {
  99              		.loc 1 74 0
 100              		.cfi_startproc
 101              		@ args = 0, pretend = 0, frame = 16
 102              		@ frame_needed = 1, uses_anonymous_args = 0
 103 0000 80B5     		push	{r7, lr}
 104              	.LCFI6:
 105              		.cfi_def_cfa_offset 8
 106              		.cfi_offset 7, -8
 107              		.cfi_offset 14, -4
 108 0002 84B0     		sub	sp, sp, #16
 109              	.LCFI7:
 110              		.cfi_def_cfa_offset 24
 111 0004 00AF     		add	r7, sp, #0
 112              	.LCFI8:
 113              		.cfi_def_cfa_register 7
 114 0006 F860     		str	r0, [r7, #12]
 115 0008 B960     		str	r1, [r7, #8]
 116 000a 7A60     		str	r2, [r7, #4]
  75:.\Generated_Source\PSoC5/cyfitter_cfg.c **** 	(void)memcpy(dest, src, n);
 117              		.loc 1 75 0
 118 000c F868     		ldr	r0, [r7, #12]
 119 000e B968     		ldr	r1, [r7, #8]
 120 0010 7A68     		ldr	r2, [r7, #4]
 121 0012 FFF7FEFF 		bl	memcpy
  76:.\Generated_Source\PSoC5/cyfitter_cfg.c **** }
 122              		.loc 1 76 0
 123 0016 07F11007 		add	r7, r7, #16
 124 001a BD46     		mov	sp, r7
 125 001c 80BD     		pop	{r7, pc}
 126              		.cfi_endproc
 127              	.LFE2:
 128              		.size	CYCONFIGCPYCODE, .-CYCONFIGCPYCODE
 129 001e 00BF     		.section	.text.CyClockStartupError,"ax",%progbits
 130              		.align	2
 131              		.thumb
 132              		.thumb_func
 133              		.type	CyClockStartupError, %function
 134              	CyClockStartupError:
 135              	.LFB3:
  77:.\Generated_Source\PSoC5/cyfitter_cfg.c **** 
  78:.\Generated_Source\PSoC5/cyfitter_cfg.c **** 
  79:.\Generated_Source\PSoC5/cyfitter_cfg.c **** 
  80:.\Generated_Source\PSoC5/cyfitter_cfg.c **** /* Clock startup error codes                                                   */
  81:.\Generated_Source\PSoC5/cyfitter_cfg.c **** #define CYCLOCKSTART_NO_ERROR    0u
  82:.\Generated_Source\PSoC5/cyfitter_cfg.c **** #define CYCLOCKSTART_XTAL_ERROR  1u
  83:.\Generated_Source\PSoC5/cyfitter_cfg.c **** #define CYCLOCKSTART_32KHZ_ERROR 2u
  84:.\Generated_Source\PSoC5/cyfitter_cfg.c **** #define CYCLOCKSTART_PLL_ERROR   3u
  85:.\Generated_Source\PSoC5/cyfitter_cfg.c **** 
  86:.\Generated_Source\PSoC5/cyfitter_cfg.c **** #ifdef CY_NEED_CYCLOCKSTARTUPERROR
  87:.\Generated_Source\PSoC5/cyfitter_cfg.c **** /*******************************************************************************
  88:.\Generated_Source\PSoC5/cyfitter_cfg.c **** * Function Name: CyClockStartupError
  89:.\Generated_Source\PSoC5/cyfitter_cfg.c **** ********************************************************************************
  90:.\Generated_Source\PSoC5/cyfitter_cfg.c **** * Summary:
  91:.\Generated_Source\PSoC5/cyfitter_cfg.c **** *  If an error is encountered during clock configuration (crystal startup error,
  92:.\Generated_Source\PSoC5/cyfitter_cfg.c **** *  PLL lock error, etc.), the system will end up here.  Unless reimplemented by
  93:.\Generated_Source\PSoC5/cyfitter_cfg.c **** *  the customer, this function will stop in an infinite loop.
ARM GAS  C:\Users\bramamu\AppData\Local\Temp\ccSambr2.s 			page 5


  94:.\Generated_Source\PSoC5/cyfitter_cfg.c **** *
  95:.\Generated_Source\PSoC5/cyfitter_cfg.c **** * Parameters:
  96:.\Generated_Source\PSoC5/cyfitter_cfg.c **** *   void
  97:.\Generated_Source\PSoC5/cyfitter_cfg.c **** *
  98:.\Generated_Source\PSoC5/cyfitter_cfg.c **** * Return:
  99:.\Generated_Source\PSoC5/cyfitter_cfg.c **** *   void
 100:.\Generated_Source\PSoC5/cyfitter_cfg.c **** *
 101:.\Generated_Source\PSoC5/cyfitter_cfg.c **** *******************************************************************************/
 102:.\Generated_Source\PSoC5/cyfitter_cfg.c **** CY_CFG_UNUSED
 103:.\Generated_Source\PSoC5/cyfitter_cfg.c **** static void CyClockStartupError(uint8 errorCode);
 104:.\Generated_Source\PSoC5/cyfitter_cfg.c **** CY_CFG_UNUSED
 105:.\Generated_Source\PSoC5/cyfitter_cfg.c **** static void CyClockStartupError(uint8 errorCode)
 106:.\Generated_Source\PSoC5/cyfitter_cfg.c **** {
 136              		.loc 1 106 0
 137              		.cfi_startproc
 138              		@ args = 0, pretend = 0, frame = 8
 139              		@ frame_needed = 1, uses_anonymous_args = 0
 140              		@ link register save eliminated.
 141 0000 80B4     		push	{r7}
 142              	.LCFI9:
 143              		.cfi_def_cfa_offset 4
 144              		.cfi_offset 7, -4
 145 0002 83B0     		sub	sp, sp, #12
 146              	.LCFI10:
 147              		.cfi_def_cfa_offset 16
 148 0004 00AF     		add	r7, sp, #0
 149              	.LCFI11:
 150              		.cfi_def_cfa_register 7
 151 0006 0346     		mov	r3, r0
 152 0008 FB71     		strb	r3, [r7, #7]
 153              	.L5:
 107:.\Generated_Source\PSoC5/cyfitter_cfg.c ****     /* To remove the compiler warning if errorCode not used.                */
 108:.\Generated_Source\PSoC5/cyfitter_cfg.c ****     errorCode = errorCode;
 109:.\Generated_Source\PSoC5/cyfitter_cfg.c **** 
 110:.\Generated_Source\PSoC5/cyfitter_cfg.c ****     /* `#START CyClockStartupError` */
 111:.\Generated_Source\PSoC5/cyfitter_cfg.c **** 
 112:.\Generated_Source\PSoC5/cyfitter_cfg.c ****     /* If we have a clock startup error (bad MHz crystal, PLL lock, etc.),  */
 113:.\Generated_Source\PSoC5/cyfitter_cfg.c ****     /* we will end up here to allow the customer to implement something to  */
 114:.\Generated_Source\PSoC5/cyfitter_cfg.c ****     /* deal with the clock condition.                                       */
 115:.\Generated_Source\PSoC5/cyfitter_cfg.c **** 
 116:.\Generated_Source\PSoC5/cyfitter_cfg.c ****     /* `#END` */
 117:.\Generated_Source\PSoC5/cyfitter_cfg.c **** 
 118:.\Generated_Source\PSoC5/cyfitter_cfg.c ****     /* If nothing else, stop here since the clocks have not started         */
 119:.\Generated_Source\PSoC5/cyfitter_cfg.c ****     /* correctly.                                                           */
 120:.\Generated_Source\PSoC5/cyfitter_cfg.c ****     while(1) {}
 154              		.loc 1 120 0 discriminator 1
 155 000a FEE7     		b	.L5
 156              		.cfi_endproc
 157              	.LFE3:
 158              		.size	CyClockStartupError, .-CyClockStartupError
 159              		.section	.text.cfg_write_bytes32,"ax",%progbits
 160              		.align	2
 161              		.thumb
 162              		.thumb_func
 163              		.type	cfg_write_bytes32, %function
 164              	cfg_write_bytes32:
 165              	.LFB4:
ARM GAS  C:\Users\bramamu\AppData\Local\Temp\ccSambr2.s 			page 6


 121:.\Generated_Source\PSoC5/cyfitter_cfg.c **** }
 122:.\Generated_Source\PSoC5/cyfitter_cfg.c **** #endif
 123:.\Generated_Source\PSoC5/cyfitter_cfg.c **** 
 124:.\Generated_Source\PSoC5/cyfitter_cfg.c **** #define CY_CFG_BASE_ADDR_COUNT 13u
 125:.\Generated_Source\PSoC5/cyfitter_cfg.c **** CYPACKED typedef struct
 126:.\Generated_Source\PSoC5/cyfitter_cfg.c **** {
 127:.\Generated_Source\PSoC5/cyfitter_cfg.c **** 	uint8 offset;
 128:.\Generated_Source\PSoC5/cyfitter_cfg.c **** 	uint8 value;
 129:.\Generated_Source\PSoC5/cyfitter_cfg.c **** } CYPACKED_ATTR cy_cfg_addrvalue_t;
 130:.\Generated_Source\PSoC5/cyfitter_cfg.c **** 
 131:.\Generated_Source\PSoC5/cyfitter_cfg.c **** 
 132:.\Generated_Source\PSoC5/cyfitter_cfg.c **** 
 133:.\Generated_Source\PSoC5/cyfitter_cfg.c **** /*******************************************************************************
 134:.\Generated_Source\PSoC5/cyfitter_cfg.c **** * Function Name: cfg_write_bytes32
 135:.\Generated_Source\PSoC5/cyfitter_cfg.c **** ********************************************************************************
 136:.\Generated_Source\PSoC5/cyfitter_cfg.c **** * Summary:
 137:.\Generated_Source\PSoC5/cyfitter_cfg.c **** *  This function is used for setting up the chip configuration areas that
 138:.\Generated_Source\PSoC5/cyfitter_cfg.c **** *  contain relatively sparse data.
 139:.\Generated_Source\PSoC5/cyfitter_cfg.c **** *
 140:.\Generated_Source\PSoC5/cyfitter_cfg.c **** * Parameters:
 141:.\Generated_Source\PSoC5/cyfitter_cfg.c **** *   void
 142:.\Generated_Source\PSoC5/cyfitter_cfg.c **** *
 143:.\Generated_Source\PSoC5/cyfitter_cfg.c **** * Return:
 144:.\Generated_Source\PSoC5/cyfitter_cfg.c **** *   void
 145:.\Generated_Source\PSoC5/cyfitter_cfg.c **** *
 146:.\Generated_Source\PSoC5/cyfitter_cfg.c **** *******************************************************************************/
 147:.\Generated_Source\PSoC5/cyfitter_cfg.c **** static void cfg_write_bytes32(const uint32 addr_table[], const cy_cfg_addrvalue_t data_table[]);
 148:.\Generated_Source\PSoC5/cyfitter_cfg.c **** static void cfg_write_bytes32(const uint32 addr_table[], const cy_cfg_addrvalue_t data_table[])
 149:.\Generated_Source\PSoC5/cyfitter_cfg.c **** {
 166              		.loc 1 149 0
 167              		.cfi_startproc
 168              		@ args = 0, pretend = 0, frame = 24
 169              		@ frame_needed = 1, uses_anonymous_args = 0
 170              		@ link register save eliminated.
 171 0000 80B4     		push	{r7}
 172              	.LCFI12:
 173              		.cfi_def_cfa_offset 4
 174              		.cfi_offset 7, -4
 175 0002 87B0     		sub	sp, sp, #28
 176              	.LCFI13:
 177              		.cfi_def_cfa_offset 32
 178 0004 00AF     		add	r7, sp, #0
 179              	.LCFI14:
 180              		.cfi_def_cfa_register 7
 181 0006 7860     		str	r0, [r7, #4]
 182 0008 3960     		str	r1, [r7, #0]
 150:.\Generated_Source\PSoC5/cyfitter_cfg.c **** 	/* For 32-bit little-endian architectures */
 151:.\Generated_Source\PSoC5/cyfitter_cfg.c **** 	uint32 i, j = 0u;
 183              		.loc 1 151 0
 184 000a 4FF00003 		mov	r3, #0
 185 000e 3B61     		str	r3, [r7, #16]
 152:.\Generated_Source\PSoC5/cyfitter_cfg.c **** 	for (i = 0u; i < CY_CFG_BASE_ADDR_COUNT; i++)
 186              		.loc 1 152 0
 187 0010 4FF00003 		mov	r3, #0
 188 0014 7B61     		str	r3, [r7, #20]
 189 0016 2CE0     		b	.L7
 190              	.L10:
ARM GAS  C:\Users\bramamu\AppData\Local\Temp\ccSambr2.s 			page 7


 191              	.LBB2:
 153:.\Generated_Source\PSoC5/cyfitter_cfg.c **** 	{
 154:.\Generated_Source\PSoC5/cyfitter_cfg.c **** 		uint32 baseAddr = addr_table[i];
 192              		.loc 1 154 0
 193 0018 7B69     		ldr	r3, [r7, #20]
 194 001a 4FEA8303 		lsl	r3, r3, #2
 195 001e 7A68     		ldr	r2, [r7, #4]
 196 0020 D318     		adds	r3, r2, r3
 197 0022 1B68     		ldr	r3, [r3, #0]
 198 0024 BB60     		str	r3, [r7, #8]
 155:.\Generated_Source\PSoC5/cyfitter_cfg.c **** 		uint8 count = (uint8)baseAddr;
 199              		.loc 1 155 0
 200 0026 BB68     		ldr	r3, [r7, #8]
 201 0028 FB73     		strb	r3, [r7, #15]
 156:.\Generated_Source\PSoC5/cyfitter_cfg.c **** 		baseAddr &= 0xFFFFFF00u;
 202              		.loc 1 156 0
 203 002a BB68     		ldr	r3, [r7, #8]
 204 002c 23F0FF03 		bic	r3, r3, #255
 205 0030 BB60     		str	r3, [r7, #8]
 157:.\Generated_Source\PSoC5/cyfitter_cfg.c **** 		while (count != 0u)
 206              		.loc 1 157 0
 207 0032 17E0     		b	.L8
 208              	.L9:
 158:.\Generated_Source\PSoC5/cyfitter_cfg.c **** 		{
 159:.\Generated_Source\PSoC5/cyfitter_cfg.c **** 			CY_SET_XTND_REG8((void CYFAR *)(baseAddr + data_table[j].offset), data_table[j].value);
 209              		.loc 1 159 0
 210 0034 3B69     		ldr	r3, [r7, #16]
 211 0036 4FEA4303 		lsl	r3, r3, #1
 212 003a 3A68     		ldr	r2, [r7, #0]
 213 003c D318     		adds	r3, r2, r3
 214 003e 1B78     		ldrb	r3, [r3, #0]	@ zero_extendqisi2
 215 0040 1A46     		mov	r2, r3
 216 0042 BB68     		ldr	r3, [r7, #8]
 217 0044 D318     		adds	r3, r2, r3
 218 0046 3A69     		ldr	r2, [r7, #16]
 219 0048 4FEA4202 		lsl	r2, r2, #1
 220 004c 3968     		ldr	r1, [r7, #0]
 221 004e 8A18     		adds	r2, r1, r2
 222 0050 5278     		ldrb	r2, [r2, #1]	@ zero_extendqisi2
 223 0052 1A70     		strb	r2, [r3, #0]
 160:.\Generated_Source\PSoC5/cyfitter_cfg.c **** 			j++;
 224              		.loc 1 160 0
 225 0054 3B69     		ldr	r3, [r7, #16]
 226 0056 03F10103 		add	r3, r3, #1
 227 005a 3B61     		str	r3, [r7, #16]
 161:.\Generated_Source\PSoC5/cyfitter_cfg.c **** 			count--;
 228              		.loc 1 161 0
 229 005c FB7B     		ldrb	r3, [r7, #15]
 230 005e 03F1FF33 		add	r3, r3, #-1
 231 0062 FB73     		strb	r3, [r7, #15]
 232              	.L8:
 157:.\Generated_Source\PSoC5/cyfitter_cfg.c **** 		while (count != 0u)
 233              		.loc 1 157 0 discriminator 1
 234 0064 FB7B     		ldrb	r3, [r7, #15]	@ zero_extendqisi2
 235 0066 002B     		cmp	r3, #0
 236 0068 E4D1     		bne	.L9
 237              	.LBE2:
ARM GAS  C:\Users\bramamu\AppData\Local\Temp\ccSambr2.s 			page 8


 152:.\Generated_Source\PSoC5/cyfitter_cfg.c **** 	for (i = 0u; i < CY_CFG_BASE_ADDR_COUNT; i++)
 238              		.loc 1 152 0
 239 006a 7B69     		ldr	r3, [r7, #20]
 240 006c 03F10103 		add	r3, r3, #1
 241 0070 7B61     		str	r3, [r7, #20]
 242              	.L7:
 152:.\Generated_Source\PSoC5/cyfitter_cfg.c **** 	for (i = 0u; i < CY_CFG_BASE_ADDR_COUNT; i++)
 243              		.loc 1 152 0 is_stmt 0 discriminator 1
 244 0072 7B69     		ldr	r3, [r7, #20]
 245 0074 0C2B     		cmp	r3, #12
 246 0076 CFD9     		bls	.L10
 162:.\Generated_Source\PSoC5/cyfitter_cfg.c **** 		}
 163:.\Generated_Source\PSoC5/cyfitter_cfg.c **** 	}
 164:.\Generated_Source\PSoC5/cyfitter_cfg.c **** }
 247              		.loc 1 164 0 is_stmt 1
 248 0078 07F11C07 		add	r7, r7, #28
 249 007c BD46     		mov	sp, r7
 250 007e 80BC     		pop	{r7}
 251 0080 7047     		bx	lr
 252              		.cfi_endproc
 253              	.LFE4:
 254              		.size	cfg_write_bytes32, .-cfg_write_bytes32
 255 0082 00BF     		.section	.text.ClockSetup,"ax",%progbits
 256              		.align	2
 257              		.thumb
 258              		.thumb_func
 259              		.type	ClockSetup, %function
 260              	ClockSetup:
 261              	.LFB5:
 165:.\Generated_Source\PSoC5/cyfitter_cfg.c **** 
 166:.\Generated_Source\PSoC5/cyfitter_cfg.c **** /*******************************************************************************
 167:.\Generated_Source\PSoC5/cyfitter_cfg.c **** * Function Name: ClockSetup
 168:.\Generated_Source\PSoC5/cyfitter_cfg.c **** ********************************************************************************
 169:.\Generated_Source\PSoC5/cyfitter_cfg.c **** *
 170:.\Generated_Source\PSoC5/cyfitter_cfg.c **** * Summary:
 171:.\Generated_Source\PSoC5/cyfitter_cfg.c **** *  Performs the initialization of all of the clocks in the device based on the
 172:.\Generated_Source\PSoC5/cyfitter_cfg.c **** *  settings in the Clock tab of the DWR.  This includes enabling the requested
 173:.\Generated_Source\PSoC5/cyfitter_cfg.c **** *  clocks and setting the necessary dividers to produce the desired frequency. 
 174:.\Generated_Source\PSoC5/cyfitter_cfg.c **** *
 175:.\Generated_Source\PSoC5/cyfitter_cfg.c **** * Parameters:
 176:.\Generated_Source\PSoC5/cyfitter_cfg.c **** *  void
 177:.\Generated_Source\PSoC5/cyfitter_cfg.c **** *
 178:.\Generated_Source\PSoC5/cyfitter_cfg.c **** * Return:
 179:.\Generated_Source\PSoC5/cyfitter_cfg.c **** *  void
 180:.\Generated_Source\PSoC5/cyfitter_cfg.c **** *
 181:.\Generated_Source\PSoC5/cyfitter_cfg.c **** *******************************************************************************/
 182:.\Generated_Source\PSoC5/cyfitter_cfg.c **** static void ClockSetup(void);
 183:.\Generated_Source\PSoC5/cyfitter_cfg.c **** static void ClockSetup(void)
 184:.\Generated_Source\PSoC5/cyfitter_cfg.c **** {
 262              		.loc 1 184 0
 263              		.cfi_startproc
 264              		@ args = 0, pretend = 0, frame = 8
 265              		@ frame_needed = 1, uses_anonymous_args = 0
 266 0000 80B5     		push	{r7, lr}
 267              	.LCFI15:
 268              		.cfi_def_cfa_offset 8
 269              		.cfi_offset 7, -8
ARM GAS  C:\Users\bramamu\AppData\Local\Temp\ccSambr2.s 			page 9


 270              		.cfi_offset 14, -4
 271 0002 82B0     		sub	sp, sp, #8
 272              	.LCFI16:
 273              		.cfi_def_cfa_offset 16
 274 0004 00AF     		add	r7, sp, #0
 275              	.LCFI17:
 276              		.cfi_def_cfa_register 7
 185:.\Generated_Source\PSoC5/cyfitter_cfg.c **** 	uint32 timeout;
 186:.\Generated_Source\PSoC5/cyfitter_cfg.c **** 	uint8 pllLock;
 187:.\Generated_Source\PSoC5/cyfitter_cfg.c **** 
 188:.\Generated_Source\PSoC5/cyfitter_cfg.c **** 
 189:.\Generated_Source\PSoC5/cyfitter_cfg.c **** 	/* Configure ILO based on settings from Clock DWR */
 190:.\Generated_Source\PSoC5/cyfitter_cfg.c **** 	CY_SET_XTND_REG8((void CYFAR *)(CYREG_SLOWCLK_ILO_CR0), 0x02u);
 277              		.loc 1 190 0
 278 0006 4FF48643 		mov	r3, #17152
 279 000a C4F20003 		movt	r3, 16384
 280 000e 4FF00202 		mov	r2, #2
 281 0012 1A70     		strb	r2, [r3, #0]
 191:.\Generated_Source\PSoC5/cyfitter_cfg.c **** 	CY_SET_XTND_REG8((void CYFAR *)(CYREG_CLKDIST_CR), 0x08u);
 282              		.loc 1 191 0
 283 0014 4FF04023 		mov	r3, #1073758208
 284 0018 4FF00802 		mov	r2, #8
 285 001c 1A70     		strb	r2, [r3, #0]
 192:.\Generated_Source\PSoC5/cyfitter_cfg.c **** 
 193:.\Generated_Source\PSoC5/cyfitter_cfg.c **** 	/* Configure IMO based on settings from Clock DWR */
 194:.\Generated_Source\PSoC5/cyfitter_cfg.c **** 	CY_SET_XTND_REG8((void CYFAR *)(CYREG_FASTCLK_IMO_CR), 0x03u);
 286              		.loc 1 194 0
 287 001e 4FF48443 		mov	r3, #16896
 288 0022 C4F20003 		movt	r3, 16384
 289 0026 4FF00302 		mov	r2, #3
 290 002a 1A70     		strb	r2, [r3, #0]
 195:.\Generated_Source\PSoC5/cyfitter_cfg.c **** 	CY_SET_XTND_REG8((void CYFAR *)(CYREG_IMO_TR1), (CY_GET_XTND_REG8((void CYFAR *)CYREG_FLSHID_CUST_
 291              		.loc 1 195 0
 292 002c 44F2A163 		movw	r3, #18081
 293 0030 C4F20003 		movt	r3, 16384
 294 0034 4FF48472 		mov	r2, #264
 295 0038 C4F60012 		movt	r2, 18688
 296 003c 1278     		ldrb	r2, [r2, #0]
 297 003e D2B2     		uxtb	r2, r2
 298 0040 1A70     		strb	r2, [r3, #0]
 196:.\Generated_Source\PSoC5/cyfitter_cfg.c **** 
 197:.\Generated_Source\PSoC5/cyfitter_cfg.c **** 	/* Configure PLL based on settings from Clock DWR */
 198:.\Generated_Source\PSoC5/cyfitter_cfg.c **** 	CY_SET_XTND_REG16((void CYFAR *)(CYREG_FASTCLK_PLL_P), 0x0008u);
 299              		.loc 1 198 0
 300 0042 44F22223 		movw	r3, #16930
 301 0046 C4F20003 		movt	r3, 16384
 302 004a 4FF00802 		mov	r2, #8
 303 004e 1A80     		strh	r2, [r3, #0]	@ movhi
 199:.\Generated_Source\PSoC5/cyfitter_cfg.c **** 	CY_SET_XTND_REG16((void CYFAR *)(CYREG_FASTCLK_PLL_CFG0), 0x1251u);
 304              		.loc 1 199 0
 305 0050 44F22023 		movw	r3, #16928
 306 0054 C4F20003 		movt	r3, 16384
 307 0058 41F25122 		movw	r2, #4689
 308 005c 1A80     		strh	r2, [r3, #0]	@ movhi
 200:.\Generated_Source\PSoC5/cyfitter_cfg.c **** 	/* Wait up to 250us for the PLL to lock */
 201:.\Generated_Source\PSoC5/cyfitter_cfg.c **** 	pllLock = 0u;
 309              		.loc 1 201 0
ARM GAS  C:\Users\bramamu\AppData\Local\Temp\ccSambr2.s 			page 10


 310 005e 4FF00003 		mov	r3, #0
 311 0062 FB70     		strb	r3, [r7, #3]
 202:.\Generated_Source\PSoC5/cyfitter_cfg.c **** 	for (timeout = 250u / 10u; (timeout > 0u) && (pllLock != 0x03u); timeout--)
 312              		.loc 1 202 0
 313 0064 4FF01903 		mov	r3, #25
 314 0068 7B60     		str	r3, [r7, #4]
 315 006a 19E0     		b	.L12
 316              	.L14:
 203:.\Generated_Source\PSoC5/cyfitter_cfg.c **** 	{ 
 204:.\Generated_Source\PSoC5/cyfitter_cfg.c **** 		pllLock = 0x03u & ((uint8)((uint8)pllLock << 1) | ((CY_GET_XTND_REG8((void CYFAR *)CYREG_FASTCLK_
 317              		.loc 1 204 0 discriminator 1
 318 006c FB78     		ldrb	r3, [r7, #3]
 319 006e 4FEA4303 		lsl	r3, r3, #1
 320 0072 DAB2     		uxtb	r2, r3
 321 0074 44F22523 		movw	r3, #16933
 322 0078 C4F20003 		movt	r3, 16384
 323 007c 1B78     		ldrb	r3, [r3, #0]
 324 007e DBB2     		uxtb	r3, r3
 325 0080 03F00103 		and	r3, r3, #1
 326 0084 DBB2     		uxtb	r3, r3
 327 0086 1343     		orrs	r3, r3, r2
 328 0088 DBB2     		uxtb	r3, r3
 329 008a 03F00303 		and	r3, r3, #3
 330 008e FB70     		strb	r3, [r7, #3]
 205:.\Generated_Source\PSoC5/cyfitter_cfg.c **** 		CyDelayCycles(10u * 48u); /* Delay 10us based on 48MHz clock */
 331              		.loc 1 205 0 discriminator 1
 332 0090 4FF4F070 		mov	r0, #480
 333 0094 FFF7FEFF 		bl	CyDelayCycles
 202:.\Generated_Source\PSoC5/cyfitter_cfg.c **** 	for (timeout = 250u / 10u; (timeout > 0u) && (pllLock != 0x03u); timeout--)
 334              		.loc 1 202 0 discriminator 1
 335 0098 7B68     		ldr	r3, [r7, #4]
 336 009a 03F1FF33 		add	r3, r3, #-1
 337 009e 7B60     		str	r3, [r7, #4]
 338              	.L12:
 339 00a0 7B68     		ldr	r3, [r7, #4]
 340 00a2 002B     		cmp	r3, #0
 341 00a4 02D0     		beq	.L13
 202:.\Generated_Source\PSoC5/cyfitter_cfg.c **** 	for (timeout = 250u / 10u; (timeout > 0u) && (pllLock != 0x03u); timeout--)
 342              		.loc 1 202 0 is_stmt 0 discriminator 2
 343 00a6 FB78     		ldrb	r3, [r7, #3]	@ zero_extendqisi2
 344 00a8 032B     		cmp	r3, #3
 345 00aa DFD1     		bne	.L14
 346              	.L13:
 206:.\Generated_Source\PSoC5/cyfitter_cfg.c **** 	}
 207:.\Generated_Source\PSoC5/cyfitter_cfg.c **** 	/* If we ran out of time the PLL didn't lock so go to the error function */
 208:.\Generated_Source\PSoC5/cyfitter_cfg.c **** 	if (timeout == 0u)
 347              		.loc 1 208 0 is_stmt 1
 348 00ac 7B68     		ldr	r3, [r7, #4]
 349 00ae 002B     		cmp	r3, #0
 350 00b0 03D1     		bne	.L15
 209:.\Generated_Source\PSoC5/cyfitter_cfg.c **** 	{
 210:.\Generated_Source\PSoC5/cyfitter_cfg.c **** 		CyClockStartupError(CYCLOCKSTART_PLL_ERROR);
 351              		.loc 1 210 0
 352 00b2 4FF00300 		mov	r0, #3
 353 00b6 FFF7FEFF 		bl	CyClockStartupError
 354              	.L15:
 211:.\Generated_Source\PSoC5/cyfitter_cfg.c **** 	}
ARM GAS  C:\Users\bramamu\AppData\Local\Temp\ccSambr2.s 			page 11


 212:.\Generated_Source\PSoC5/cyfitter_cfg.c **** 
 213:.\Generated_Source\PSoC5/cyfitter_cfg.c **** 	/* Configure Bus/Master Clock based on settings from Clock DWR */
 214:.\Generated_Source\PSoC5/cyfitter_cfg.c **** 	CY_SET_XTND_REG16((void CYFAR *)(CYREG_CLKDIST_MSTR0), 0x0100u);
 355              		.loc 1 214 0
 356 00ba 44F20403 		movw	r3, #16388
 357 00be C4F20003 		movt	r3, 16384
 358 00c2 4FF48072 		mov	r2, #256
 359 00c6 1A80     		strh	r2, [r3, #0]	@ movhi
 215:.\Generated_Source\PSoC5/cyfitter_cfg.c **** 	CY_SET_XTND_REG8((void CYFAR *)(CYREG_CLKDIST_MSTR0), 0x07u);
 360              		.loc 1 215 0
 361 00c8 44F20403 		movw	r3, #16388
 362 00cc C4F20003 		movt	r3, 16384
 363 00d0 4FF00702 		mov	r2, #7
 364 00d4 1A70     		strb	r2, [r3, #0]
 216:.\Generated_Source\PSoC5/cyfitter_cfg.c **** 	CY_SET_XTND_REG8((void CYFAR *)(CYREG_CLKDIST_BCFG0), 0x00u);
 365              		.loc 1 216 0
 366 00d6 44F20603 		movw	r3, #16390
 367 00da C4F20003 		movt	r3, 16384
 368 00de 4FF00002 		mov	r2, #0
 369 00e2 1A70     		strb	r2, [r3, #0]
 217:.\Generated_Source\PSoC5/cyfitter_cfg.c **** 	CY_SET_XTND_REG8((void CYFAR *)(CYREG_CLKDIST_BCFG2), 0x48u);
 370              		.loc 1 217 0
 371 00e4 44F20803 		movw	r3, #16392
 372 00e8 C4F20003 		movt	r3, 16384
 373 00ec 4FF04802 		mov	r2, #72
 374 00f0 1A70     		strb	r2, [r3, #0]
 218:.\Generated_Source\PSoC5/cyfitter_cfg.c **** 	CY_SET_XTND_REG8((void CYFAR *)(CYREG_CLKDIST_MSTR0), 0x00u);
 375              		.loc 1 218 0
 376 00f2 44F20403 		movw	r3, #16388
 377 00f6 C4F20003 		movt	r3, 16384
 378 00fa 4FF00002 		mov	r2, #0
 379 00fe 1A70     		strb	r2, [r3, #0]
 219:.\Generated_Source\PSoC5/cyfitter_cfg.c **** 	CY_SET_XTND_REG8((void CYFAR *)(CYREG_CLKDIST_LD), 0x02u);
 380              		.loc 1 219 0
 381 0100 44F20103 		movw	r3, #16385
 382 0104 C4F20003 		movt	r3, 16384
 383 0108 4FF00202 		mov	r2, #2
 384 010c 1A70     		strb	r2, [r3, #0]
 220:.\Generated_Source\PSoC5/cyfitter_cfg.c **** }
 385              		.loc 1 220 0
 386 010e 07F10807 		add	r7, r7, #8
 387 0112 BD46     		mov	sp, r7
 388 0114 80BD     		pop	{r7, pc}
 389              		.cfi_endproc
 390              	.LFE5:
 391              		.size	ClockSetup, .-ClockSetup
 392 0116 00BF     		.section	.text.AnalogSetDefault,"ax",%progbits
 393              		.align	2
 394              		.thumb
 395              		.thumb_func
 396              		.type	AnalogSetDefault, %function
 397              	AnalogSetDefault:
 398              	.LFB6:
 221:.\Generated_Source\PSoC5/cyfitter_cfg.c **** 
 222:.\Generated_Source\PSoC5/cyfitter_cfg.c **** 
 223:.\Generated_Source\PSoC5/cyfitter_cfg.c **** /* Analog API Functions */
 224:.\Generated_Source\PSoC5/cyfitter_cfg.c **** 
ARM GAS  C:\Users\bramamu\AppData\Local\Temp\ccSambr2.s 			page 12


 225:.\Generated_Source\PSoC5/cyfitter_cfg.c **** 
 226:.\Generated_Source\PSoC5/cyfitter_cfg.c **** /*******************************************************************************
 227:.\Generated_Source\PSoC5/cyfitter_cfg.c **** * Function Name: AnalogSetDefault
 228:.\Generated_Source\PSoC5/cyfitter_cfg.c **** ********************************************************************************
 229:.\Generated_Source\PSoC5/cyfitter_cfg.c **** *
 230:.\Generated_Source\PSoC5/cyfitter_cfg.c **** * Summary:
 231:.\Generated_Source\PSoC5/cyfitter_cfg.c **** *  Sets up the analog portions of the chip to default values based on chip
 232:.\Generated_Source\PSoC5/cyfitter_cfg.c **** *  configuration options from the project.
 233:.\Generated_Source\PSoC5/cyfitter_cfg.c **** *
 234:.\Generated_Source\PSoC5/cyfitter_cfg.c **** * Parameters:
 235:.\Generated_Source\PSoC5/cyfitter_cfg.c **** *  void
 236:.\Generated_Source\PSoC5/cyfitter_cfg.c **** *
 237:.\Generated_Source\PSoC5/cyfitter_cfg.c **** * Return:
 238:.\Generated_Source\PSoC5/cyfitter_cfg.c **** *  void
 239:.\Generated_Source\PSoC5/cyfitter_cfg.c **** *
 240:.\Generated_Source\PSoC5/cyfitter_cfg.c **** *******************************************************************************/
 241:.\Generated_Source\PSoC5/cyfitter_cfg.c **** static void AnalogSetDefault(void);
 242:.\Generated_Source\PSoC5/cyfitter_cfg.c **** static void AnalogSetDefault(void)
 243:.\Generated_Source\PSoC5/cyfitter_cfg.c **** {
 399              		.loc 1 243 0
 400              		.cfi_startproc
 401              		@ args = 0, pretend = 0, frame = 8
 402              		@ frame_needed = 1, uses_anonymous_args = 0
 403              		@ link register save eliminated.
 404 0000 80B4     		push	{r7}
 405              	.LCFI18:
 406              		.cfi_def_cfa_offset 4
 407              		.cfi_offset 7, -4
 408 0002 83B0     		sub	sp, sp, #12
 409              	.LCFI19:
 410              		.cfi_def_cfa_offset 16
 411 0004 00AF     		add	r7, sp, #0
 412              	.LCFI20:
 413              		.cfi_def_cfa_register 7
 244:.\Generated_Source\PSoC5/cyfitter_cfg.c **** 	uint8 bg_xover_inl_trim = CY_GET_XTND_REG8((void CYFAR *)(CYREG_FLSHID_MFG_CFG_BG_XOVER_INL_TRIM +
 414              		.loc 1 244 0
 415 0006 40F2CF13 		movw	r3, #463
 416 000a C4F60013 		movt	r3, 18688
 417 000e 1B78     		ldrb	r3, [r3, #0]
 418 0010 FB71     		strb	r3, [r7, #7]
 245:.\Generated_Source\PSoC5/cyfitter_cfg.c **** 	CY_SET_XTND_REG8((void CYFAR *)(CYREG_BG_DFT0), (bg_xover_inl_trim & 0x07u));
 419              		.loc 1 245 0
 420 0012 45F66E03 		movw	r3, #22638
 421 0016 C4F20003 		movt	r3, 16384
 422 001a FA79     		ldrb	r2, [r7, #7]
 423 001c 02F00702 		and	r2, r2, #7
 424 0020 D2B2     		uxtb	r2, r2
 425 0022 1A70     		strb	r2, [r3, #0]
 246:.\Generated_Source\PSoC5/cyfitter_cfg.c **** 	CY_SET_XTND_REG8((void CYFAR *)(CYREG_BG_DFT1), ((bg_xover_inl_trim >> 4) & 0x0Fu));
 426              		.loc 1 246 0
 427 0024 45F66F03 		movw	r3, #22639
 428 0028 C4F20003 		movt	r3, 16384
 429 002c FA79     		ldrb	r2, [r7, #7]	@ zero_extendqisi2
 430 002e 4FEA1212 		lsr	r2, r2, #4
 431 0032 D2B2     		uxtb	r2, r2
 432 0034 1A70     		strb	r2, [r3, #0]
 247:.\Generated_Source\PSoC5/cyfitter_cfg.c **** 	CY_SET_XTND_REG8((void CYFAR *)CYREG_PUMP_CR0, 0x44u);
ARM GAS  C:\Users\bramamu\AppData\Local\Temp\ccSambr2.s 			page 13


 433              		.loc 1 247 0
 434 0036 45F67603 		movw	r3, #22646
 435 003a C4F20003 		movt	r3, 16384
 436 003e 4FF04402 		mov	r2, #68
 437 0042 1A70     		strb	r2, [r3, #0]
 248:.\Generated_Source\PSoC5/cyfitter_cfg.c **** }
 438              		.loc 1 248 0
 439 0044 07F10C07 		add	r7, r7, #12
 440 0048 BD46     		mov	sp, r7
 441 004a 80BC     		pop	{r7}
 442 004c 7047     		bx	lr
 443              		.cfi_endproc
 444              	.LFE6:
 445              		.size	AnalogSetDefault, .-AnalogSetDefault
 446 004e 00BF     		.section	.text.SetAnalogRoutingPumps,"ax",%progbits
 447              		.align	2
 448              		.global	SetAnalogRoutingPumps
 449              		.thumb
 450              		.thumb_func
 451              		.type	SetAnalogRoutingPumps, %function
 452              	SetAnalogRoutingPumps:
 453              	.LFB7:
 249:.\Generated_Source\PSoC5/cyfitter_cfg.c **** 
 250:.\Generated_Source\PSoC5/cyfitter_cfg.c **** 
 251:.\Generated_Source\PSoC5/cyfitter_cfg.c **** /*******************************************************************************
 252:.\Generated_Source\PSoC5/cyfitter_cfg.c **** * Function Name: SetAnalogRoutingPumps
 253:.\Generated_Source\PSoC5/cyfitter_cfg.c **** ********************************************************************************
 254:.\Generated_Source\PSoC5/cyfitter_cfg.c **** *
 255:.\Generated_Source\PSoC5/cyfitter_cfg.c **** * Summary:
 256:.\Generated_Source\PSoC5/cyfitter_cfg.c **** * Enables or disables the analog pumps feeding analog routing switches.
 257:.\Generated_Source\PSoC5/cyfitter_cfg.c **** * Intended to be called at startup, based on the Vdda system configuration;
 258:.\Generated_Source\PSoC5/cyfitter_cfg.c **** * may be called during operation when the user informs us that the Vdda voltage
 259:.\Generated_Source\PSoC5/cyfitter_cfg.c **** * crossed the pump threshold.
 260:.\Generated_Source\PSoC5/cyfitter_cfg.c **** *
 261:.\Generated_Source\PSoC5/cyfitter_cfg.c **** * Parameters:
 262:.\Generated_Source\PSoC5/cyfitter_cfg.c **** *  enabled - 1 to enable the pumps, 0 to disable the pumps
 263:.\Generated_Source\PSoC5/cyfitter_cfg.c **** *
 264:.\Generated_Source\PSoC5/cyfitter_cfg.c **** * Return:
 265:.\Generated_Source\PSoC5/cyfitter_cfg.c **** *  void
 266:.\Generated_Source\PSoC5/cyfitter_cfg.c **** *
 267:.\Generated_Source\PSoC5/cyfitter_cfg.c **** *******************************************************************************/
 268:.\Generated_Source\PSoC5/cyfitter_cfg.c **** void SetAnalogRoutingPumps(uint8 enabled)
 269:.\Generated_Source\PSoC5/cyfitter_cfg.c **** {
 454              		.loc 1 269 0
 455              		.cfi_startproc
 456              		@ args = 0, pretend = 0, frame = 16
 457              		@ frame_needed = 1, uses_anonymous_args = 0
 458              		@ link register save eliminated.
 459 0000 80B4     		push	{r7}
 460              	.LCFI21:
 461              		.cfi_def_cfa_offset 4
 462              		.cfi_offset 7, -4
 463 0002 85B0     		sub	sp, sp, #20
 464              	.LCFI22:
 465              		.cfi_def_cfa_offset 24
 466 0004 00AF     		add	r7, sp, #0
 467              	.LCFI23:
ARM GAS  C:\Users\bramamu\AppData\Local\Temp\ccSambr2.s 			page 14


 468              		.cfi_def_cfa_register 7
 469 0006 0346     		mov	r3, r0
 470 0008 FB71     		strb	r3, [r7, #7]
 270:.\Generated_Source\PSoC5/cyfitter_cfg.c **** 	uint8 regValue = CY_GET_XTND_REG8((void CYFAR *)CYREG_PUMP_CR0);
 471              		.loc 1 270 0
 472 000a 45F67603 		movw	r3, #22646
 473 000e C4F20003 		movt	r3, 16384
 474 0012 1B78     		ldrb	r3, [r3, #0]
 475 0014 FB73     		strb	r3, [r7, #15]
 271:.\Generated_Source\PSoC5/cyfitter_cfg.c **** 	if (enabled != 0u)
 476              		.loc 1 271 0
 477 0016 FB79     		ldrb	r3, [r7, #7]	@ zero_extendqisi2
 478 0018 002B     		cmp	r3, #0
 272:.\Generated_Source\PSoC5/cyfitter_cfg.c **** 	{
 273:.\Generated_Source\PSoC5/cyfitter_cfg.c **** 		regValue |= 0x00u;
 479              		.loc 1 273 0
 480 001a 00BF     		nop
 274:.\Generated_Source\PSoC5/cyfitter_cfg.c **** 	}
 275:.\Generated_Source\PSoC5/cyfitter_cfg.c **** 	else
 276:.\Generated_Source\PSoC5/cyfitter_cfg.c **** 	{
 277:.\Generated_Source\PSoC5/cyfitter_cfg.c **** 		regValue &= (uint8)~0x00u;
 278:.\Generated_Source\PSoC5/cyfitter_cfg.c **** 	}
 279:.\Generated_Source\PSoC5/cyfitter_cfg.c **** 	CY_SET_XTND_REG8((void CYFAR *)CYREG_PUMP_CR0, regValue);
 481              		.loc 1 279 0
 482 001c 45F67603 		movw	r3, #22646
 483 0020 C4F20003 		movt	r3, 16384
 484 0024 FA7B     		ldrb	r2, [r7, #15]
 485 0026 1A70     		strb	r2, [r3, #0]
 280:.\Generated_Source\PSoC5/cyfitter_cfg.c **** }
 486              		.loc 1 280 0
 487 0028 07F11407 		add	r7, r7, #20
 488 002c BD46     		mov	sp, r7
 489 002e 80BC     		pop	{r7}
 490 0030 7047     		bx	lr
 491              		.cfi_endproc
 492              	.LFE7:
 493              		.size	SetAnalogRoutingPumps, .-SetAnalogRoutingPumps
 494 0032 00BF     		.section	.text.cyfitter_cfg,"ax",%progbits
 495              		.align	2
 496              		.global	cyfitter_cfg
 497              		.thumb
 498              		.thumb_func
 499              		.type	cyfitter_cfg, %function
 500              	cyfitter_cfg:
 501              	.LFB8:
 281:.\Generated_Source\PSoC5/cyfitter_cfg.c **** 
 282:.\Generated_Source\PSoC5/cyfitter_cfg.c **** #define CY_AMUX_UNUSED CYREG_BOOST_SR
 283:.\Generated_Source\PSoC5/cyfitter_cfg.c **** 
 284:.\Generated_Source\PSoC5/cyfitter_cfg.c **** 
 285:.\Generated_Source\PSoC5/cyfitter_cfg.c **** /*******************************************************************************
 286:.\Generated_Source\PSoC5/cyfitter_cfg.c **** * Function Name: cyfitter_cfg
 287:.\Generated_Source\PSoC5/cyfitter_cfg.c **** ********************************************************************************
 288:.\Generated_Source\PSoC5/cyfitter_cfg.c **** * Summary:
 289:.\Generated_Source\PSoC5/cyfitter_cfg.c **** *  This function is called by the start-up code for the selected device. It
 290:.\Generated_Source\PSoC5/cyfitter_cfg.c **** *  performs all of the necessary device configuration based on the design
 291:.\Generated_Source\PSoC5/cyfitter_cfg.c **** *  settings.  This includes settings from the Design Wide Resources (DWR) such
 292:.\Generated_Source\PSoC5/cyfitter_cfg.c **** *  as Clocks and Pins as well as any component configuration that is necessary.
ARM GAS  C:\Users\bramamu\AppData\Local\Temp\ccSambr2.s 			page 15


 293:.\Generated_Source\PSoC5/cyfitter_cfg.c **** *
 294:.\Generated_Source\PSoC5/cyfitter_cfg.c **** * Parameters:  
 295:.\Generated_Source\PSoC5/cyfitter_cfg.c **** *   void
 296:.\Generated_Source\PSoC5/cyfitter_cfg.c **** *
 297:.\Generated_Source\PSoC5/cyfitter_cfg.c **** * Return:
 298:.\Generated_Source\PSoC5/cyfitter_cfg.c **** *   void
 299:.\Generated_Source\PSoC5/cyfitter_cfg.c **** *
 300:.\Generated_Source\PSoC5/cyfitter_cfg.c **** *******************************************************************************/
 301:.\Generated_Source\PSoC5/cyfitter_cfg.c **** 
 302:.\Generated_Source\PSoC5/cyfitter_cfg.c **** void cyfitter_cfg(void)
 303:.\Generated_Source\PSoC5/cyfitter_cfg.c **** {
 502              		.loc 1 303 0
 503              		.cfi_startproc
 504              		@ args = 0, pretend = 0, frame = 24
 505              		@ frame_needed = 1, uses_anonymous_args = 0
 506 0000 80B5     		push	{r7, lr}
 507              	.LCFI24:
 508              		.cfi_def_cfa_offset 8
 509              		.cfi_offset 7, -8
 510              		.cfi_offset 14, -4
 511 0002 86B0     		sub	sp, sp, #24
 512              	.LCFI25:
 513              		.cfi_def_cfa_offset 32
 514 0004 00AF     		add	r7, sp, #0
 515              	.LCFI26:
 516              		.cfi_def_cfa_register 7
 304:.\Generated_Source\PSoC5/cyfitter_cfg.c **** 	/* IOPINS0_7 Address: CYREG_PRT12_DR Size (bytes): 10 */
 305:.\Generated_Source\PSoC5/cyfitter_cfg.c **** 	static const uint8 CYCODE BS_IOPINS0_7_VAL[] = {
 306:.\Generated_Source\PSoC5/cyfitter_cfg.c **** 		0x30u, 0x00u, 0x00u, 0x00u, 0x30u, 0x00u, 0x30u, 0x00u, 0x00u, 0x00u};
 307:.\Generated_Source\PSoC5/cyfitter_cfg.c **** 
 308:.\Generated_Source\PSoC5/cyfitter_cfg.c **** 	/* IOPINS0_1 Address: CYREG_PRT1_DM0 Size (bytes): 8 */
 309:.\Generated_Source\PSoC5/cyfitter_cfg.c **** 	static const uint8 CYCODE BS_IOPINS0_1_VAL[] = {
 310:.\Generated_Source\PSoC5/cyfitter_cfg.c **** 		0x00u, 0xC0u, 0xC0u, 0x00u, 0x00u, 0x00u, 0x00u, 0x00u};
 311:.\Generated_Source\PSoC5/cyfitter_cfg.c **** 
 312:.\Generated_Source\PSoC5/cyfitter_cfg.c **** 	/* IOPINS0_2 Address: CYREG_PRT2_DM0 Size (bytes): 8 */
 313:.\Generated_Source\PSoC5/cyfitter_cfg.c **** 	static const uint8 CYCODE BS_IOPINS0_2_VAL[] = {
 314:.\Generated_Source\PSoC5/cyfitter_cfg.c **** 		0x00u, 0x10u, 0x10u, 0x00u, 0x00u, 0x00u, 0x00u, 0x00u};
 315:.\Generated_Source\PSoC5/cyfitter_cfg.c **** 
 316:.\Generated_Source\PSoC5/cyfitter_cfg.c **** #ifdef CYGlobalIntDisable
 317:.\Generated_Source\PSoC5/cyfitter_cfg.c **** 	/* Disable interrupts by default. Let user enable if/when they want. */
 318:.\Generated_Source\PSoC5/cyfitter_cfg.c **** 	CYGlobalIntDisable
 517              		.loc 1 318 0
 518              	@ 318 ".\Generated_Source\PSoC5\cyfitter_cfg.c" 1
 519 0006 72B6     		CPSID   i
 520              	@ 0 "" 2
 319:.\Generated_Source\PSoC5/cyfitter_cfg.c **** #endif
 320:.\Generated_Source\PSoC5/cyfitter_cfg.c **** 
 321:.\Generated_Source\PSoC5/cyfitter_cfg.c **** 	/* Enable/Disable Debug functionality based on settings from System DWR */
 322:.\Generated_Source\PSoC5/cyfitter_cfg.c **** 	CY_SET_XTND_REG8((void CYFAR *)CYREG_MLOGIC_DEBUG, (CY_GET_XTND_REG8((void CYFAR *)CYREG_MLOGIC_DE
 521              		.loc 1 322 0
 522              		.thumb
 523 0008 44F2E863 		movw	r3, #18152
 524 000c C4F20003 		movt	r3, 16384
 525 0010 44F2E862 		movw	r2, #18152
 526 0014 C4F20002 		movt	r2, 16384
 527 0018 1278     		ldrb	r2, [r2, #0]
 528 001a D2B2     		uxtb	r2, r2
ARM GAS  C:\Users\bramamu\AppData\Local\Temp\ccSambr2.s 			page 16


 529 001c 42F00402 		orr	r2, r2, #4
 530 0020 D2B2     		uxtb	r2, r2
 531 0022 1A70     		strb	r2, [r3, #0]
 532              	.LBB3:
 323:.\Generated_Source\PSoC5/cyfitter_cfg.c **** 
 324:.\Generated_Source\PSoC5/cyfitter_cfg.c **** 	{
 325:.\Generated_Source\PSoC5/cyfitter_cfg.c **** 		static const uint32 CYCODE cy_cfg_addr_table[] = {
 326:.\Generated_Source\PSoC5/cyfitter_cfg.c **** 			0x40011501u, /* Base address: 0x40011500 Count: 1 */
 327:.\Generated_Source\PSoC5/cyfitter_cfg.c **** 			0x40011B01u, /* Base address: 0x40011B00 Count: 1 */
 328:.\Generated_Source\PSoC5/cyfitter_cfg.c **** 			0x40014202u, /* Base address: 0x40014200 Count: 2 */
 329:.\Generated_Source\PSoC5/cyfitter_cfg.c **** 			0x40014301u, /* Base address: 0x40014300 Count: 1 */
 330:.\Generated_Source\PSoC5/cyfitter_cfg.c **** 			0x40014403u, /* Base address: 0x40014400 Count: 3 */
 331:.\Generated_Source\PSoC5/cyfitter_cfg.c **** 			0x40014501u, /* Base address: 0x40014500 Count: 1 */
 332:.\Generated_Source\PSoC5/cyfitter_cfg.c **** 			0x40014601u, /* Base address: 0x40014600 Count: 1 */
 333:.\Generated_Source\PSoC5/cyfitter_cfg.c **** 			0x40014701u, /* Base address: 0x40014700 Count: 1 */
 334:.\Generated_Source\PSoC5/cyfitter_cfg.c **** 			0x40014801u, /* Base address: 0x40014800 Count: 1 */
 335:.\Generated_Source\PSoC5/cyfitter_cfg.c **** 			0x40014902u, /* Base address: 0x40014900 Count: 2 */
 336:.\Generated_Source\PSoC5/cyfitter_cfg.c **** 			0x40014C08u, /* Base address: 0x40014C00 Count: 8 */
 337:.\Generated_Source\PSoC5/cyfitter_cfg.c **** 			0x40014D06u, /* Base address: 0x40014D00 Count: 6 */
 338:.\Generated_Source\PSoC5/cyfitter_cfg.c **** 			0x40015101u, /* Base address: 0x40015100 Count: 1 */
 339:.\Generated_Source\PSoC5/cyfitter_cfg.c **** 		};
 340:.\Generated_Source\PSoC5/cyfitter_cfg.c **** 
 341:.\Generated_Source\PSoC5/cyfitter_cfg.c **** 		static const cy_cfg_addrvalue_t CYCODE cy_cfg_data_table[] = {
 342:.\Generated_Source\PSoC5/cyfitter_cfg.c **** 			{0xEAu, 0x01u},
 343:.\Generated_Source\PSoC5/cyfitter_cfg.c **** 			{0xEAu, 0x01u},
 344:.\Generated_Source\PSoC5/cyfitter_cfg.c **** 			{0x3Eu, 0x10u},
 345:.\Generated_Source\PSoC5/cyfitter_cfg.c **** 			{0xCEu, 0x20u},
 346:.\Generated_Source\PSoC5/cyfitter_cfg.c **** 			{0x96u, 0x10u},
 347:.\Generated_Source\PSoC5/cyfitter_cfg.c **** 			{0x10u, 0x10u},
 348:.\Generated_Source\PSoC5/cyfitter_cfg.c **** 			{0x14u, 0x20u},
 349:.\Generated_Source\PSoC5/cyfitter_cfg.c **** 			{0xC4u, 0x0Cu},
 350:.\Generated_Source\PSoC5/cyfitter_cfg.c **** 			{0x98u, 0x30u},
 351:.\Generated_Source\PSoC5/cyfitter_cfg.c **** 			{0x98u, 0x30u},
 352:.\Generated_Source\PSoC5/cyfitter_cfg.c **** 			{0x98u, 0x30u},
 353:.\Generated_Source\PSoC5/cyfitter_cfg.c **** 			{0x96u, 0x10u},
 354:.\Generated_Source\PSoC5/cyfitter_cfg.c **** 			{0xAAu, 0x10u},
 355:.\Generated_Source\PSoC5/cyfitter_cfg.c **** 			{0xEAu, 0x80u},
 356:.\Generated_Source\PSoC5/cyfitter_cfg.c **** 			{0x10u, 0x40u},
 357:.\Generated_Source\PSoC5/cyfitter_cfg.c **** 			{0x13u, 0x20u},
 358:.\Generated_Source\PSoC5/cyfitter_cfg.c **** 			{0x14u, 0x80u},
 359:.\Generated_Source\PSoC5/cyfitter_cfg.c **** 			{0x78u, 0x10u},
 360:.\Generated_Source\PSoC5/cyfitter_cfg.c **** 			{0x7Cu, 0x20u},
 361:.\Generated_Source\PSoC5/cyfitter_cfg.c **** 			{0x98u, 0x30u},
 362:.\Generated_Source\PSoC5/cyfitter_cfg.c **** 			{0xC4u, 0x0Eu},
 363:.\Generated_Source\PSoC5/cyfitter_cfg.c **** 			{0xDEu, 0x03u},
 364:.\Generated_Source\PSoC5/cyfitter_cfg.c **** 			{0x78u, 0x40u},
 365:.\Generated_Source\PSoC5/cyfitter_cfg.c **** 			{0x7Cu, 0x80u},
 366:.\Generated_Source\PSoC5/cyfitter_cfg.c **** 			{0x98u, 0xC0u},
 367:.\Generated_Source\PSoC5/cyfitter_cfg.c **** 			{0xABu, 0x20u},
 368:.\Generated_Source\PSoC5/cyfitter_cfg.c **** 			{0xDCu, 0x01u},
 369:.\Generated_Source\PSoC5/cyfitter_cfg.c **** 			{0xDEu, 0x04u},
 370:.\Generated_Source\PSoC5/cyfitter_cfg.c **** 			{0x03u, 0xC0u},
 371:.\Generated_Source\PSoC5/cyfitter_cfg.c **** 		};
 372:.\Generated_Source\PSoC5/cyfitter_cfg.c **** 
 373:.\Generated_Source\PSoC5/cyfitter_cfg.c **** 
 374:.\Generated_Source\PSoC5/cyfitter_cfg.c **** 
 375:.\Generated_Source\PSoC5/cyfitter_cfg.c **** 		CYPACKED typedef struct {
ARM GAS  C:\Users\bramamu\AppData\Local\Temp\ccSambr2.s 			page 17


 376:.\Generated_Source\PSoC5/cyfitter_cfg.c **** 			void CYFAR *address;
 377:.\Generated_Source\PSoC5/cyfitter_cfg.c **** 			uint16 size;
 378:.\Generated_Source\PSoC5/cyfitter_cfg.c **** 		} CYPACKED_ATTR cfg_memset_t;
 379:.\Generated_Source\PSoC5/cyfitter_cfg.c **** 
 380:.\Generated_Source\PSoC5/cyfitter_cfg.c **** 
 381:.\Generated_Source\PSoC5/cyfitter_cfg.c **** 		CYPACKED typedef struct {
 382:.\Generated_Source\PSoC5/cyfitter_cfg.c **** 			void CYFAR *dest;
 383:.\Generated_Source\PSoC5/cyfitter_cfg.c **** 			const void CYCODE *src;
 384:.\Generated_Source\PSoC5/cyfitter_cfg.c **** 			uint16 size;
 385:.\Generated_Source\PSoC5/cyfitter_cfg.c **** 		} CYPACKED_ATTR cfg_memcpy_t;
 386:.\Generated_Source\PSoC5/cyfitter_cfg.c **** 
 387:.\Generated_Source\PSoC5/cyfitter_cfg.c **** 		static const cfg_memset_t CYCODE cfg_memset_list [] = {
 388:.\Generated_Source\PSoC5/cyfitter_cfg.c **** 			/* address, size */
 389:.\Generated_Source\PSoC5/cyfitter_cfg.c **** 			{(void CYFAR *)(CYREG_I2C_XCFG), 25u},
 390:.\Generated_Source\PSoC5/cyfitter_cfg.c **** 			{(void CYFAR *)(CYREG_PRT0_DR), 16u},
 391:.\Generated_Source\PSoC5/cyfitter_cfg.c **** 			{(void CYFAR *)(CYREG_PRT3_DR), 64u},
 392:.\Generated_Source\PSoC5/cyfitter_cfg.c **** 			{(void CYFAR *)(CYREG_PRT15_DR), 16u},
 393:.\Generated_Source\PSoC5/cyfitter_cfg.c **** 			{(void CYFAR *)(CYDEV_UCFG_B0_P0_U0_BASE), 4096u},
 394:.\Generated_Source\PSoC5/cyfitter_cfg.c **** 			{(void CYFAR *)(CYDEV_UCFG_B1_P2_U0_BASE), 2048u},
 395:.\Generated_Source\PSoC5/cyfitter_cfg.c **** 			{(void CYFAR *)(CYDEV_UCFG_DSI0_BASE), 2560u},
 396:.\Generated_Source\PSoC5/cyfitter_cfg.c **** 			{(void CYFAR *)(CYDEV_UCFG_DSI12_BASE), 512u},
 397:.\Generated_Source\PSoC5/cyfitter_cfg.c **** 			{(void CYFAR *)(CYREG_BCTL0_MDCLK_EN), 32u},
 398:.\Generated_Source\PSoC5/cyfitter_cfg.c **** 		};
 399:.\Generated_Source\PSoC5/cyfitter_cfg.c **** 
 400:.\Generated_Source\PSoC5/cyfitter_cfg.c **** 		/* IOPORT_7 Address: CYDEV_PRTDSI_PRT12_BASE Size (bytes): 6 */
 401:.\Generated_Source\PSoC5/cyfitter_cfg.c **** 		static const uint8 CYCODE BS_IOPORT_7_VAL[] = {
 402:.\Generated_Source\PSoC5/cyfitter_cfg.c **** 			0x20u, 0x30u, 0x00u, 0x00u, 0x30u, 0x00u};
 403:.\Generated_Source\PSoC5/cyfitter_cfg.c **** 
 404:.\Generated_Source\PSoC5/cyfitter_cfg.c **** 		static const cfg_memcpy_t CYCODE cfg_memcpy_list [] = {
 405:.\Generated_Source\PSoC5/cyfitter_cfg.c **** 			/* dest, src, size */
 406:.\Generated_Source\PSoC5/cyfitter_cfg.c **** 			{(void CYFAR *)(CYDEV_PRTDSI_PRT12_BASE), BS_IOPORT_7_VAL, 6u},
 407:.\Generated_Source\PSoC5/cyfitter_cfg.c **** 		};
 408:.\Generated_Source\PSoC5/cyfitter_cfg.c **** 
 409:.\Generated_Source\PSoC5/cyfitter_cfg.c **** 		uint8 CYDATA i;
 410:.\Generated_Source\PSoC5/cyfitter_cfg.c **** 
 411:.\Generated_Source\PSoC5/cyfitter_cfg.c **** 		/* Zero out critical memory blocks before beginning configuration */
 412:.\Generated_Source\PSoC5/cyfitter_cfg.c **** 		for (i = 0u; i < (sizeof(cfg_memset_list)/sizeof(cfg_memset_list[0])); i++)
 533              		.loc 1 412 0
 534 0024 4FF00003 		mov	r3, #0
 535 0028 FB75     		strb	r3, [r7, #23]
 536 002a 19E0     		b	.L21
 537              	.L22:
 538              	.LBB4:
 413:.\Generated_Source\PSoC5/cyfitter_cfg.c **** 		{
 414:.\Generated_Source\PSoC5/cyfitter_cfg.c **** 			const cfg_memset_t CYCODE * CYDATA ms = &cfg_memset_list[i];
 539              		.loc 1 414 0 discriminator 2
 540 002c FA7D     		ldrb	r2, [r7, #23]	@ zero_extendqisi2
 541 002e 1346     		mov	r3, r2
 542 0030 4FEA4303 		lsl	r3, r3, #1
 543 0034 9B18     		adds	r3, r3, r2
 544 0036 4FEA4303 		lsl	r3, r3, #1
 545 003a 40F20002 		movw	r2, #:lower16:cfg_memset_list.4818
 546 003e C0F20002 		movt	r2, #:upper16:cfg_memset_list.4818
 547 0042 9B18     		adds	r3, r3, r2
 548 0044 3B61     		str	r3, [r7, #16]
 415:.\Generated_Source\PSoC5/cyfitter_cfg.c **** 			CYMEMZERO(ms->address, (uint32)(ms->size));
 549              		.loc 1 415 0 discriminator 2
ARM GAS  C:\Users\bramamu\AppData\Local\Temp\ccSambr2.s 			page 18


 550 0046 3B69     		ldr	r3, [r7, #16]
 551 0048 1A68     		ldr	r2, [r3, #0]	@ unaligned
 552 004a 3B69     		ldr	r3, [r7, #16]
 553 004c 9B88     		ldrh	r3, [r3, #4]	@ unaligned
 554 004e 9BB2     		uxth	r3, r3
 555 0050 1046     		mov	r0, r2
 556 0052 1946     		mov	r1, r3
 557 0054 FFF7FEFF 		bl	CYMEMZERO
 558              	.LBE4:
 412:.\Generated_Source\PSoC5/cyfitter_cfg.c **** 		for (i = 0u; i < (sizeof(cfg_memset_list)/sizeof(cfg_memset_list[0])); i++)
 559              		.loc 1 412 0 discriminator 2
 560 0058 FB7D     		ldrb	r3, [r7, #23]
 561 005a 03F10103 		add	r3, r3, #1
 562 005e FB75     		strb	r3, [r7, #23]
 563              	.L21:
 412:.\Generated_Source\PSoC5/cyfitter_cfg.c **** 		for (i = 0u; i < (sizeof(cfg_memset_list)/sizeof(cfg_memset_list[0])); i++)
 564              		.loc 1 412 0 is_stmt 0 discriminator 1
 565 0060 FB7D     		ldrb	r3, [r7, #23]	@ zero_extendqisi2
 566 0062 082B     		cmp	r3, #8
 567 0064 E2D9     		bls	.L22
 416:.\Generated_Source\PSoC5/cyfitter_cfg.c **** 		}
 417:.\Generated_Source\PSoC5/cyfitter_cfg.c **** 
 418:.\Generated_Source\PSoC5/cyfitter_cfg.c **** 		/* Copy device configuration data into registers */
 419:.\Generated_Source\PSoC5/cyfitter_cfg.c **** 		for (i = 0u; i < (sizeof(cfg_memcpy_list)/sizeof(cfg_memcpy_list[0])); i++)
 568              		.loc 1 419 0 is_stmt 1
 569 0066 4FF00003 		mov	r3, #0
 570 006a FB75     		strb	r3, [r7, #23]
 571 006c 23E0     		b	.L23
 572              	.L24:
 573              	.LBB5:
 420:.\Generated_Source\PSoC5/cyfitter_cfg.c **** 		{
 421:.\Generated_Source\PSoC5/cyfitter_cfg.c **** 			const cfg_memcpy_t CYCODE * CYDATA mc = &cfg_memcpy_list[i];
 574              		.loc 1 421 0 discriminator 2
 575 006e FA7D     		ldrb	r2, [r7, #23]	@ zero_extendqisi2
 576 0070 1346     		mov	r3, r2
 577 0072 4FEA8303 		lsl	r3, r3, #2
 578 0076 9B18     		adds	r3, r3, r2
 579 0078 4FEA4303 		lsl	r3, r3, #1
 580 007c 40F20002 		movw	r2, #:lower16:cfg_memcpy_list.4820
 581 0080 C0F20002 		movt	r2, #:upper16:cfg_memcpy_list.4820
 582 0084 9B18     		adds	r3, r3, r2
 583 0086 FB60     		str	r3, [r7, #12]
 422:.\Generated_Source\PSoC5/cyfitter_cfg.c **** 			void * CYDATA destPtr = mc->dest;
 584              		.loc 1 422 0 discriminator 2
 585 0088 FB68     		ldr	r3, [r7, #12]
 586 008a 1B68     		ldr	r3, [r3, #0]	@ unaligned
 587 008c BB60     		str	r3, [r7, #8]
 423:.\Generated_Source\PSoC5/cyfitter_cfg.c **** 			const void CYCODE * CYDATA srcPtr = mc->src;
 588              		.loc 1 423 0 discriminator 2
 589 008e FB68     		ldr	r3, [r7, #12]
 590 0090 5B68     		ldr	r3, [r3, #4]	@ unaligned
 591 0092 7B60     		str	r3, [r7, #4]
 424:.\Generated_Source\PSoC5/cyfitter_cfg.c **** 			uint16 CYDATA numBytes = mc->size;
 592              		.loc 1 424 0 discriminator 2
 593 0094 FB68     		ldr	r3, [r7, #12]
 594 0096 1A7A     		ldrb	r2, [r3, #8]	@ zero_extendqisi2
 595 0098 5B7A     		ldrb	r3, [r3, #9]	@ zero_extendqisi2
ARM GAS  C:\Users\bramamu\AppData\Local\Temp\ccSambr2.s 			page 19


 596 009a 4FEA0323 		lsl	r3, r3, #8
 597 009e 1343     		orrs	r3, r3, r2
 598 00a0 7B80     		strh	r3, [r7, #2]	@ movhi
 425:.\Generated_Source\PSoC5/cyfitter_cfg.c **** 			CYCONFIGCPYCODE(destPtr, srcPtr, numBytes);
 599              		.loc 1 425 0 discriminator 2
 600 00a2 7B88     		ldrh	r3, [r7, #2]
 601 00a4 B868     		ldr	r0, [r7, #8]
 602 00a6 7968     		ldr	r1, [r7, #4]
 603 00a8 1A46     		mov	r2, r3
 604 00aa FFF7FEFF 		bl	CYCONFIGCPYCODE
 605              	.LBE5:
 419:.\Generated_Source\PSoC5/cyfitter_cfg.c **** 		for (i = 0u; i < (sizeof(cfg_memcpy_list)/sizeof(cfg_memcpy_list[0])); i++)
 606              		.loc 1 419 0 discriminator 2
 607 00ae FB7D     		ldrb	r3, [r7, #23]
 608 00b0 03F10103 		add	r3, r3, #1
 609 00b4 FB75     		strb	r3, [r7, #23]
 610              	.L23:
 419:.\Generated_Source\PSoC5/cyfitter_cfg.c **** 		for (i = 0u; i < (sizeof(cfg_memcpy_list)/sizeof(cfg_memcpy_list[0])); i++)
 611              		.loc 1 419 0 is_stmt 0 discriminator 1
 612 00b6 FB7D     		ldrb	r3, [r7, #23]	@ zero_extendqisi2
 613 00b8 002B     		cmp	r3, #0
 614 00ba D8D0     		beq	.L24
 426:.\Generated_Source\PSoC5/cyfitter_cfg.c **** 		}
 427:.\Generated_Source\PSoC5/cyfitter_cfg.c **** 
 428:.\Generated_Source\PSoC5/cyfitter_cfg.c **** 		cfg_write_bytes32(cy_cfg_addr_table, cy_cfg_data_table);
 615              		.loc 1 428 0 is_stmt 1
 616 00bc 40F20000 		movw	r0, #:lower16:cy_cfg_addr_table.4807
 617 00c0 C0F20000 		movt	r0, #:upper16:cy_cfg_addr_table.4807
 618 00c4 40F20001 		movw	r1, #:lower16:cy_cfg_data_table.4808
 619 00c8 C0F20001 		movt	r1, #:upper16:cy_cfg_data_table.4808
 620 00cc FFF7FEFF 		bl	cfg_write_bytes32
 429:.\Generated_Source\PSoC5/cyfitter_cfg.c **** 
 430:.\Generated_Source\PSoC5/cyfitter_cfg.c **** 		/* Enable digital routing */
 431:.\Generated_Source\PSoC5/cyfitter_cfg.c **** 		CY_SET_XTND_REG8((void CYFAR *)CYREG_BCTL0_BANK_CTL, CY_GET_XTND_REG8((void CYFAR *)CYREG_BCTL0_B
 621              		.loc 1 431 0
 622 00d0 45F20303 		movw	r3, #20483
 623 00d4 C4F20103 		movt	r3, 16385
 624 00d8 45F20302 		movw	r2, #20483
 625 00dc C4F20102 		movt	r2, 16385
 626 00e0 1278     		ldrb	r2, [r2, #0]
 627 00e2 D2B2     		uxtb	r2, r2
 628 00e4 42F00202 		orr	r2, r2, #2
 629 00e8 D2B2     		uxtb	r2, r2
 630 00ea 1A70     		strb	r2, [r3, #0]
 432:.\Generated_Source\PSoC5/cyfitter_cfg.c **** 		CY_SET_XTND_REG8((void CYFAR *)CYREG_BCTL1_BANK_CTL, CY_GET_XTND_REG8((void CYFAR *)CYREG_BCTL1_B
 631              		.loc 1 432 0
 632 00ec 45F21303 		movw	r3, #20499
 633 00f0 C4F20103 		movt	r3, 16385
 634 00f4 45F21302 		movw	r2, #20499
 635 00f8 C4F20102 		movt	r2, 16385
 636 00fc 1278     		ldrb	r2, [r2, #0]
 637 00fe D2B2     		uxtb	r2, r2
 638 0100 42F00202 		orr	r2, r2, #2
 639 0104 D2B2     		uxtb	r2, r2
 640 0106 1A70     		strb	r2, [r3, #0]
 433:.\Generated_Source\PSoC5/cyfitter_cfg.c **** 
 434:.\Generated_Source\PSoC5/cyfitter_cfg.c **** 		/* Enable UDB array */
ARM GAS  C:\Users\bramamu\AppData\Local\Temp\ccSambr2.s 			page 20


 435:.\Generated_Source\PSoC5/cyfitter_cfg.c **** 		CY_SET_XTND_REG8((void CYFAR *)CYREG_PM_ACT_CFG0, CY_GET_XTND_REG8((void CYFAR *)CYREG_PM_ACT_CFG
 641              		.loc 1 435 0
 642 0108 44F2A033 		movw	r3, #17312
 643 010c C4F20003 		movt	r3, 16384
 644 0110 44F2A032 		movw	r2, #17312
 645 0114 C4F20002 		movt	r2, 16384
 646 0118 1278     		ldrb	r2, [r2, #0]
 647 011a D2B2     		uxtb	r2, r2
 648 011c 42F04002 		orr	r2, r2, #64
 649 0120 D2B2     		uxtb	r2, r2
 650 0122 1A70     		strb	r2, [r3, #0]
 436:.\Generated_Source\PSoC5/cyfitter_cfg.c **** 		CY_SET_XTND_REG8((void CYFAR *)CYREG_PM_AVAIL_CR2, CY_GET_XTND_REG8((void CYFAR *)CYREG_PM_AVAIL_
 651              		.loc 1 436 0
 652 0124 44F2C233 		movw	r3, #17346
 653 0128 C4F20003 		movt	r3, 16384
 654 012c 44F2C232 		movw	r2, #17346
 655 0130 C4F20002 		movt	r2, 16384
 656 0134 1278     		ldrb	r2, [r2, #0]
 657 0136 D2B2     		uxtb	r2, r2
 658 0138 42F01002 		orr	r2, r2, #16
 659 013c D2B2     		uxtb	r2, r2
 660 013e 1A70     		strb	r2, [r3, #0]
 661              	.LBE3:
 437:.\Generated_Source\PSoC5/cyfitter_cfg.c **** 	}
 438:.\Generated_Source\PSoC5/cyfitter_cfg.c **** 
 439:.\Generated_Source\PSoC5/cyfitter_cfg.c **** 	/* Perform second pass device configuration. These items must be configured in specific order afte
 440:.\Generated_Source\PSoC5/cyfitter_cfg.c **** 	CYCONFIGCPYCODE((void CYFAR *)(CYREG_PRT12_DR), (const void CYCODE *)(BS_IOPINS0_7_VAL), 10u);
 662              		.loc 1 440 0
 663 0140 45F2C010 		movw	r0, #20928
 664 0144 C4F20000 		movt	r0, 16384
 665 0148 40F20001 		movw	r1, #:lower16:BS_IOPINS0_7_VAL.4804
 666 014c C0F20001 		movt	r1, #:upper16:BS_IOPINS0_7_VAL.4804
 667 0150 4FF00A02 		mov	r2, #10
 668 0154 FFF7FEFF 		bl	CYCONFIGCPYCODE
 441:.\Generated_Source\PSoC5/cyfitter_cfg.c **** 	CYCONFIGCPYCODE((void CYFAR *)(CYREG_PRT1_DM0), (const void CYCODE *)(BS_IOPINS0_1_VAL), 8u);
 669              		.loc 1 441 0
 670 0158 45F21210 		movw	r0, #20754
 671 015c C4F20000 		movt	r0, 16384
 672 0160 40F20001 		movw	r1, #:lower16:BS_IOPINS0_1_VAL.4805
 673 0164 C0F20001 		movt	r1, #:upper16:BS_IOPINS0_1_VAL.4805
 674 0168 4FF00802 		mov	r2, #8
 675 016c FFF7FEFF 		bl	CYCONFIGCPYCODE
 442:.\Generated_Source\PSoC5/cyfitter_cfg.c **** 	CYCONFIGCPYCODE((void CYFAR *)(CYREG_PRT2_DM0), (const void CYCODE *)(BS_IOPINS0_2_VAL), 8u);
 676              		.loc 1 442 0
 677 0170 45F22210 		movw	r0, #20770
 678 0174 C4F20000 		movt	r0, 16384
 679 0178 40F20001 		movw	r1, #:lower16:BS_IOPINS0_2_VAL.4806
 680 017c C0F20001 		movt	r1, #:upper16:BS_IOPINS0_2_VAL.4806
 681 0180 4FF00802 		mov	r2, #8
 682 0184 FFF7FEFF 		bl	CYCONFIGCPYCODE
 443:.\Generated_Source\PSoC5/cyfitter_cfg.c **** 
 444:.\Generated_Source\PSoC5/cyfitter_cfg.c **** 	/* Switch Boost to the precision bandgap reference from its internal reference */
 445:.\Generated_Source\PSoC5/cyfitter_cfg.c **** 	CY_SET_REG8((void CYXDATA *)CYREG_BOOST_CR2, (CY_GET_REG8((void CYXDATA *)CYREG_BOOST_CR2) | 0x08u
 683              		.loc 1 445 0
 684 0188 44F22233 		movw	r3, #17186
 685 018c C4F20003 		movt	r3, 16384
 686 0190 44F22232 		movw	r2, #17186
ARM GAS  C:\Users\bramamu\AppData\Local\Temp\ccSambr2.s 			page 21


 687 0194 C4F20002 		movt	r2, 16384
 688 0198 1278     		ldrb	r2, [r2, #0]
 689 019a D2B2     		uxtb	r2, r2
 690 019c 42F00802 		orr	r2, r2, #8
 691 01a0 D2B2     		uxtb	r2, r2
 692 01a2 1A70     		strb	r2, [r3, #0]
 446:.\Generated_Source\PSoC5/cyfitter_cfg.c **** 
 447:.\Generated_Source\PSoC5/cyfitter_cfg.c **** 	/* Set Flash Cycles based on max possible frequency in case a glitch occurs during ClockSetup(). *
 448:.\Generated_Source\PSoC5/cyfitter_cfg.c **** 	CY_SET_XTND_REG8((void CYFAR *)(CYREG_CACHE_CC_CTL), (((CYDEV_INSTRUCT_CACHE_ENABLED) != 0) ? 0x01
 693              		.loc 1 448 0
 694 01a4 4FF49043 		mov	r3, #18432
 695 01a8 C4F20003 		movt	r3, 16384
 696 01ac 4FF00102 		mov	r2, #1
 697 01b0 1A70     		strb	r2, [r3, #0]
 449:.\Generated_Source\PSoC5/cyfitter_cfg.c **** 	/* Setup clocks based on selections from Clock DWR */
 450:.\Generated_Source\PSoC5/cyfitter_cfg.c **** 	ClockSetup();
 698              		.loc 1 450 0
 699 01b2 FFF7FEFF 		bl	ClockSetup
 451:.\Generated_Source\PSoC5/cyfitter_cfg.c **** 	/* Set Flash Cycles based on newly configured 24.00MHz Bus Clock. */
 452:.\Generated_Source\PSoC5/cyfitter_cfg.c **** 	CY_SET_XTND_REG8((void CYFAR *)(CYREG_CACHE_CC_CTL), (((CYDEV_INSTRUCT_CACHE_ENABLED) != 0) ? 0x81
 700              		.loc 1 452 0
 701 01b6 4FF49043 		mov	r3, #18432
 702 01ba C4F20003 		movt	r3, 16384
 703 01be 4FF08102 		mov	r2, #129
 704 01c2 1A70     		strb	r2, [r3, #0]
 453:.\Generated_Source\PSoC5/cyfitter_cfg.c **** 	CY_SET_XTND_REG8((void CYFAR *)(CYREG_PANTHER_WAITPIPE), 0x01u);
 705              		.loc 1 453 0
 706 01c4 4FF00403 		mov	r3, #4
 707 01c8 C4F20803 		movt	r3, 16392
 708 01cc 4FF00102 		mov	r2, #1
 709 01d0 1A70     		strb	r2, [r3, #0]
 454:.\Generated_Source\PSoC5/cyfitter_cfg.c **** 
 455:.\Generated_Source\PSoC5/cyfitter_cfg.c **** 	/* Perform basic analog initialization to defaults */
 456:.\Generated_Source\PSoC5/cyfitter_cfg.c **** 	AnalogSetDefault();
 710              		.loc 1 456 0
 711 01d2 FFF7FEFF 		bl	AnalogSetDefault
 457:.\Generated_Source\PSoC5/cyfitter_cfg.c **** 
 458:.\Generated_Source\PSoC5/cyfitter_cfg.c **** 	/* Configure alternate active mode */
 459:.\Generated_Source\PSoC5/cyfitter_cfg.c **** 	CYCONFIGCPY((void CYFAR *)CYDEV_PM_STBY_BASE, (const void CYFAR *)CYDEV_PM_ACT_BASE, 14u);
 712              		.loc 1 459 0
 713 01d6 44F2B030 		movw	r0, #17328
 714 01da C4F20000 		movt	r0, 16384
 715 01de 44F2A031 		movw	r1, #17312
 716 01e2 C4F20001 		movt	r1, 16384
 717 01e6 4FF00E02 		mov	r2, #14
 718 01ea FFF7FEFF 		bl	CYCONFIGCPY
 460:.\Generated_Source\PSoC5/cyfitter_cfg.c **** }
 719              		.loc 1 460 0
 720 01ee 07F11807 		add	r7, r7, #24
 721 01f2 BD46     		mov	sp, r7
 722 01f4 80BD     		pop	{r7, pc}
 723              		.cfi_endproc
 724              	.LFE8:
 725              		.size	cyfitter_cfg, .-cyfitter_cfg
 726 01f6 00BF     		.section	.rodata
 727              		.align	2
 728              		.type	cfg_memset_list.4818, %object
ARM GAS  C:\Users\bramamu\AppData\Local\Temp\ccSambr2.s 			page 22


 729              		.size	cfg_memset_list.4818, 54
 730              	cfg_memset_list.4818:
 731 0000 C8490040 		.word	1073760712
 732 0004 1900     		.short	25
 733 0006 00510040 		.4byte	1073762560
 734 000a 1000     		.short	16
 735 000c 30510040 		.word	1073762608
 736 0010 4000     		.short	64
 737 0012 F0510040 		.4byte	1073762800
 738 0016 1000     		.short	16
 739 0018 00000140 		.word	1073807360
 740 001c 0010     		.short	4096
 741 001e 00140140 		.4byte	1073812480
 742 0022 0008     		.short	2048
 743 0024 00400140 		.word	1073823744
 744 0028 000A     		.short	2560
 745 002a 004C0140 		.4byte	1073826816
 746 002e 0002     		.short	512
 747 0030 00500140 		.word	1073827840
 748 0034 2000     		.short	32
 749 0036 0000     		.align	2
 750              		.type	cfg_memcpy_list.4820, %object
 751              		.size	cfg_memcpy_list.4820, 10
 752              	cfg_memcpy_list.4820:
 753 0038 60520040 		.word	1073762912
 754 003c D0000000 		.word	BS_IOPORT_7_VAL.4819
 755 0040 0600     		.short	6
 756 0042 0000     		.align	2
 757              		.type	cy_cfg_addr_table.4807, %object
 758              		.size	cy_cfg_addr_table.4807, 52
 759              	cy_cfg_addr_table.4807:
 760 0044 01150140 		.word	1073812737
 761 0048 011B0140 		.word	1073814273
 762 004c 02420140 		.word	1073824258
 763 0050 01430140 		.word	1073824513
 764 0054 03440140 		.word	1073824771
 765 0058 01450140 		.word	1073825025
 766 005c 01460140 		.word	1073825281
 767 0060 01470140 		.word	1073825537
 768 0064 01480140 		.word	1073825793
 769 0068 02490140 		.word	1073826050
 770 006c 084C0140 		.word	1073826824
 771 0070 064D0140 		.word	1073827078
 772 0074 01510140 		.word	1073828097
 773              		.align	2
 774              		.type	cy_cfg_data_table.4808, %object
 775              		.size	cy_cfg_data_table.4808, 58
 776              	cy_cfg_data_table.4808:
 777 0078 EA       		.byte	-22
 778 0079 01       		.byte	1
 779 007a EA       		.byte	-22
 780 007b 01       		.byte	1
 781 007c 3E       		.byte	62
 782 007d 10       		.byte	16
 783 007e CE       		.byte	-50
 784 007f 20       		.byte	32
 785 0080 96       		.byte	-106
ARM GAS  C:\Users\bramamu\AppData\Local\Temp\ccSambr2.s 			page 23


 786 0081 10       		.byte	16
 787 0082 10       		.byte	16
 788 0083 10       		.byte	16
 789 0084 14       		.byte	20
 790 0085 20       		.byte	32
 791 0086 C4       		.byte	-60
 792 0087 0C       		.byte	12
 793 0088 98       		.byte	-104
 794 0089 30       		.byte	48
 795 008a 98       		.byte	-104
 796 008b 30       		.byte	48
 797 008c 98       		.byte	-104
 798 008d 30       		.byte	48
 799 008e 96       		.byte	-106
 800 008f 10       		.byte	16
 801 0090 AA       		.byte	-86
 802 0091 10       		.byte	16
 803 0092 EA       		.byte	-22
 804 0093 80       		.byte	-128
 805 0094 10       		.byte	16
 806 0095 40       		.byte	64
 807 0096 13       		.byte	19
 808 0097 20       		.byte	32
 809 0098 14       		.byte	20
 810 0099 80       		.byte	-128
 811 009a 78       		.byte	120
 812 009b 10       		.byte	16
 813 009c 7C       		.byte	124
 814 009d 20       		.byte	32
 815 009e 98       		.byte	-104
 816 009f 30       		.byte	48
 817 00a0 C4       		.byte	-60
 818 00a1 0E       		.byte	14
 819 00a2 DE       		.byte	-34
 820 00a3 03       		.byte	3
 821 00a4 78       		.byte	120
 822 00a5 40       		.byte	64
 823 00a6 7C       		.byte	124
 824 00a7 80       		.byte	-128
 825 00a8 98       		.byte	-104
 826 00a9 C0       		.byte	-64
 827 00aa AB       		.byte	-85
 828 00ab 20       		.byte	32
 829 00ac DC       		.byte	-36
 830 00ad 01       		.byte	1
 831 00ae DE       		.byte	-34
 832 00af 04       		.byte	4
 833 00b0 03       		.byte	3
 834 00b1 C0       		.byte	-64
 835 00b2 0000     		.align	2
 836              		.type	BS_IOPINS0_7_VAL.4804, %object
 837              		.size	BS_IOPINS0_7_VAL.4804, 10
 838              	BS_IOPINS0_7_VAL.4804:
 839 00b4 30       		.byte	48
 840 00b5 00       		.byte	0
 841 00b6 00       		.byte	0
 842 00b7 00       		.byte	0
ARM GAS  C:\Users\bramamu\AppData\Local\Temp\ccSambr2.s 			page 24


 843 00b8 30       		.byte	48
 844 00b9 00       		.byte	0
 845 00ba 30       		.byte	48
 846 00bb 00       		.byte	0
 847 00bc 00       		.byte	0
 848 00bd 00       		.byte	0
 849 00be 0000     		.align	2
 850              		.type	BS_IOPINS0_1_VAL.4805, %object
 851              		.size	BS_IOPINS0_1_VAL.4805, 8
 852              	BS_IOPINS0_1_VAL.4805:
 853 00c0 00       		.byte	0
 854 00c1 C0       		.byte	-64
 855 00c2 C0       		.byte	-64
 856 00c3 00       		.byte	0
 857 00c4 00       		.byte	0
 858 00c5 00       		.byte	0
 859 00c6 00       		.byte	0
 860 00c7 00       		.byte	0
 861              		.align	2
 862              		.type	BS_IOPINS0_2_VAL.4806, %object
 863              		.size	BS_IOPINS0_2_VAL.4806, 8
 864              	BS_IOPINS0_2_VAL.4806:
 865 00c8 00       		.byte	0
 866 00c9 10       		.byte	16
 867 00ca 10       		.byte	16
 868 00cb 00       		.byte	0
 869 00cc 00       		.byte	0
 870 00cd 00       		.byte	0
 871 00ce 00       		.byte	0
 872 00cf 00       		.byte	0
 873              		.align	2
 874              		.type	BS_IOPORT_7_VAL.4819, %object
 875              		.size	BS_IOPORT_7_VAL.4819, 6
 876              	BS_IOPORT_7_VAL.4819:
 877 00d0 20       		.byte	32
 878 00d1 30       		.byte	48
 879 00d2 00       		.byte	0
 880 00d3 00       		.byte	0
 881 00d4 30       		.byte	48
 882 00d5 00       		.byte	0
 883 00d6 0000     		.text
 884              	.Letext0:
 885              		.file 2 "c:\\program files (x86)\\cypress\\psoc creator\\3.0\\psoc creator\\import\\gnu_cs\\arm\\4
 886              		.file 3 "./Generated_Source/PSoC5/cytypes.h"