
C:\Users\Caleb\Documents\Ride\projects\CHR6dmRelease\stm32f10x_exti.o:     file format elf32-littlearm
C:\Users\Caleb\Documents\Ride\projects\CHR6dmRelease\stm32f10x_exti.o

Disassembly of section .text.EXTI_DeInit:

00000000 <EXTI_DeInit>:
EXTI_DeInit():
C:\Program Files (x86)\Raisonance\Ride\lib\ARM\STM32F10x_LIB_V3.0.1\Libraries\STM32F10x_StdPeriph_Driver\src/stm32f10x_exti.c:86
  * @param  None
  * @retval None
  */
void EXTI_DeInit(void)
{
  EXTI->IMR = 0x00000000;
   0:	f240 4300 	movw	r3, #1024	; 0x400
C:\Program Files (x86)\Raisonance\Ride\lib\ARM\STM32F10x_LIB_V3.0.1\Libraries\STM32F10x_StdPeriph_Driver\src/stm32f10x_exti.c:90
  EXTI->EMR = 0x00000000;
  EXTI->RTSR = 0x00000000; 
  EXTI->FTSR = 0x00000000; 
  EXTI->PR = 0x000FFFFF;
   4:	f64f 72ff 	movw	r2, #65535	; 0xffff
C:\Program Files (x86)\Raisonance\Ride\lib\ARM\STM32F10x_LIB_V3.0.1\Libraries\STM32F10x_StdPeriph_Driver\src/stm32f10x_exti.c:86
  * @param  None
  * @retval None
  */
void EXTI_DeInit(void)
{
  EXTI->IMR = 0x00000000;
   8:	f2c4 0301 	movt	r3, #16385	; 0x4001
   c:	2100      	movs	r1, #0
C:\Program Files (x86)\Raisonance\Ride\lib\ARM\STM32F10x_LIB_V3.0.1\Libraries\STM32F10x_StdPeriph_Driver\src/stm32f10x_exti.c:90
  EXTI->EMR = 0x00000000;
  EXTI->RTSR = 0x00000000; 
  EXTI->FTSR = 0x00000000; 
  EXTI->PR = 0x000FFFFF;
   e:	f2c0 020f 	movt	r2, #15	; 0xf
C:\Program Files (x86)\Raisonance\Ride\lib\ARM\STM32F10x_LIB_V3.0.1\Libraries\STM32F10x_StdPeriph_Driver\src/stm32f10x_exti.c:86
  * @param  None
  * @retval None
  */
void EXTI_DeInit(void)
{
  EXTI->IMR = 0x00000000;
  12:	6019      	str	r1, [r3, #0]
C:\Program Files (x86)\Raisonance\Ride\lib\ARM\STM32F10x_LIB_V3.0.1\Libraries\STM32F10x_StdPeriph_Driver\src/stm32f10x_exti.c:87
  EXTI->EMR = 0x00000000;
  14:	6059      	str	r1, [r3, #4]
C:\Program Files (x86)\Raisonance\Ride\lib\ARM\STM32F10x_LIB_V3.0.1\Libraries\STM32F10x_StdPeriph_Driver\src/stm32f10x_exti.c:88
  EXTI->RTSR = 0x00000000; 
  16:	6099      	str	r1, [r3, #8]
C:\Program Files (x86)\Raisonance\Ride\lib\ARM\STM32F10x_LIB_V3.0.1\Libraries\STM32F10x_StdPeriph_Driver\src/stm32f10x_exti.c:89
  EXTI->FTSR = 0x00000000; 
  18:	60d9      	str	r1, [r3, #12]
C:\Program Files (x86)\Raisonance\Ride\lib\ARM\STM32F10x_LIB_V3.0.1\Libraries\STM32F10x_StdPeriph_Driver\src/stm32f10x_exti.c:90
  EXTI->PR = 0x000FFFFF;
  1a:	615a      	str	r2, [r3, #20]
C:\Program Files (x86)\Raisonance\Ride\lib\ARM\STM32F10x_LIB_V3.0.1\Libraries\STM32F10x_StdPeriph_Driver\src/stm32f10x_exti.c:91
}
  1c:	4770      	bx	lr
  1e:	46c0      	nop			(mov r8, r8)
Disassembly of section .text.EXTI_Init:

00000000 <EXTI_Init>:
EXTI_Init():
C:\Program Files (x86)\Raisonance\Ride\lib\ARM\STM32F10x_LIB_V3.0.1\Libraries\STM32F10x_StdPeriph_Driver\src/stm32f10x_exti.c:112
  assert_param(IS_EXTI_LINE(EXTI_InitStruct->EXTI_Line));  
  assert_param(IS_FUNCTIONAL_STATE(EXTI_InitStruct->EXTI_LineCmd));

  tmp = (uint32_t)EXTI_BASE;
     
  if (EXTI_InitStruct->EXTI_LineCmd != DISABLE)
   0:	7983      	ldrb	r3, [r0, #6]
C:\Program Files (x86)\Raisonance\Ride\lib\ARM\STM32F10x_LIB_V3.0.1\Libraries\STM32F10x_StdPeriph_Driver\src/stm32f10x_exti.c:101
  * @param  EXTI_InitStruct: pointer to a EXTI_InitTypeDef structure
  *   that contains the configuration information for the EXTI peripheral.
  * @retval None
  */
void EXTI_Init(EXTI_InitTypeDef* EXTI_InitStruct)
{
   2:	b470      	push	{r4, r5, r6}
   4:	4605      	mov	r5, r0
C:\Program Files (x86)\Raisonance\Ride\lib\ARM\STM32F10x_LIB_V3.0.1\Libraries\STM32F10x_StdPeriph_Driver\src/stm32f10x_exti.c:112
  assert_param(IS_EXTI_LINE(EXTI_InitStruct->EXTI_Line));  
  assert_param(IS_FUNCTIONAL_STATE(EXTI_InitStruct->EXTI_LineCmd));

  tmp = (uint32_t)EXTI_BASE;
     
  if (EXTI_InitStruct->EXTI_LineCmd != DISABLE)
   6:	b343      	cbz	r3, 5a <EXTI_Init+0x5a>
C:\Program Files (x86)\Raisonance\Ride\lib\ARM\STM32F10x_LIB_V3.0.1\Libraries\STM32F10x_StdPeriph_Driver\src/stm32f10x_exti.c:115
  {
    /* Clear EXTI line configuration */
    EXTI->IMR &= ~EXTI_InitStruct->EXTI_Line;
   8:	f240 4400 	movw	r4, #1024	; 0x400
   c:	f2c4 0401 	movt	r4, #16385	; 0x4001
  10:	6800      	ldr	r0, [r0, #0]
  12:	6823      	ldr	r3, [r4, #0]
  14:	43c1      	mvns	r1, r0
  16:	ea01 0303 	and.w	r3, r1, r3
  1a:	6023      	str	r3, [r4, #0]
C:\Program Files (x86)\Raisonance\Ride\lib\ARM\STM32F10x_LIB_V3.0.1\Libraries\STM32F10x_StdPeriph_Driver\src/stm32f10x_exti.c:116
    EXTI->EMR &= ~EXTI_InitStruct->EXTI_Line;
  1c:	6862      	ldr	r2, [r4, #4]
  1e:	4011      	ands	r1, r2
C:\Program Files (x86)\Raisonance\Ride\lib\ARM\STM32F10x_LIB_V3.0.1\Libraries\STM32F10x_StdPeriph_Driver\src/stm32f10x_exti.c:120
    
    tmp += EXTI_InitStruct->EXTI_Mode;

    *(__IO uint32_t *) tmp |= EXTI_InitStruct->EXTI_Line;
  20:	792a      	ldrb	r2, [r5, #4]
C:\Program Files (x86)\Raisonance\Ride\lib\ARM\STM32F10x_LIB_V3.0.1\Libraries\STM32F10x_StdPeriph_Driver\src/stm32f10x_exti.c:116
     
  if (EXTI_InitStruct->EXTI_LineCmd != DISABLE)
  {
    /* Clear EXTI line configuration */
    EXTI->IMR &= ~EXTI_InitStruct->EXTI_Line;
    EXTI->EMR &= ~EXTI_InitStruct->EXTI_Line;
  22:	6061      	str	r1, [r4, #4]
C:\Program Files (x86)\Raisonance\Ride\lib\ARM\STM32F10x_LIB_V3.0.1\Libraries\STM32F10x_StdPeriph_Driver\src/stm32f10x_exti.c:120
    
    tmp += EXTI_InitStruct->EXTI_Mode;

    *(__IO uint32_t *) tmp |= EXTI_InitStruct->EXTI_Line;
  24:	f102 4280 	add.w	r2, r2, #1073741824	; 0x40000000
  28:	f502 3282 	add.w	r2, r2, #66560	; 0x10400
  2c:	6813      	ldr	r3, [r2, #0]
  2e:	4303      	orrs	r3, r0
  30:	6013      	str	r3, [r2, #0]
C:\Program Files (x86)\Raisonance\Ride\lib\ARM\STM32F10x_LIB_V3.0.1\Libraries\STM32F10x_StdPeriph_Driver\src/stm32f10x_exti.c:123

    /* Clear Rising Falling edge configuration */
    EXTI->RTSR &= ~EXTI_InitStruct->EXTI_Line;
  32:	682e      	ldr	r6, [r5, #0]
  34:	68a1      	ldr	r1, [r4, #8]
  36:	43f3      	mvns	r3, r6
  38:	ea03 0101 	and.w	r1, r3, r1
  3c:	60a1      	str	r1, [r4, #8]
C:\Program Files (x86)\Raisonance\Ride\lib\ARM\STM32F10x_LIB_V3.0.1\Libraries\STM32F10x_StdPeriph_Driver\src/stm32f10x_exti.c:124
    EXTI->FTSR &= ~EXTI_InitStruct->EXTI_Line;
  3e:	68e2      	ldr	r2, [r4, #12]
C:\Program Files (x86)\Raisonance\Ride\lib\ARM\STM32F10x_LIB_V3.0.1\Libraries\STM32F10x_StdPeriph_Driver\src/stm32f10x_exti.c:127
    
    /* Select the trigger for the selected external interrupts */
    if (EXTI_InitStruct->EXTI_Trigger == EXTI_Trigger_Rising_Falling)
  40:	7968      	ldrb	r0, [r5, #5]
C:\Program Files (x86)\Raisonance\Ride\lib\ARM\STM32F10x_LIB_V3.0.1\Libraries\STM32F10x_StdPeriph_Driver\src/stm32f10x_exti.c:124

    *(__IO uint32_t *) tmp |= EXTI_InitStruct->EXTI_Line;

    /* Clear Rising Falling edge configuration */
    EXTI->RTSR &= ~EXTI_InitStruct->EXTI_Line;
    EXTI->FTSR &= ~EXTI_InitStruct->EXTI_Line;
  42:	4013      	ands	r3, r2
C:\Program Files (x86)\Raisonance\Ride\lib\ARM\STM32F10x_LIB_V3.0.1\Libraries\STM32F10x_StdPeriph_Driver\src/stm32f10x_exti.c:127
    
    /* Select the trigger for the selected external interrupts */
    if (EXTI_InitStruct->EXTI_Trigger == EXTI_Trigger_Rising_Falling)
  44:	2810      	cmp	r0, #16
C:\Program Files (x86)\Raisonance\Ride\lib\ARM\STM32F10x_LIB_V3.0.1\Libraries\STM32F10x_StdPeriph_Driver\src/stm32f10x_exti.c:124

    *(__IO uint32_t *) tmp |= EXTI_InitStruct->EXTI_Line;

    /* Clear Rising Falling edge configuration */
    EXTI->RTSR &= ~EXTI_InitStruct->EXTI_Line;
    EXTI->FTSR &= ~EXTI_InitStruct->EXTI_Line;
  46:	60e3      	str	r3, [r4, #12]
C:\Program Files (x86)\Raisonance\Ride\lib\ARM\STM32F10x_LIB_V3.0.1\Libraries\STM32F10x_StdPeriph_Driver\src/stm32f10x_exti.c:127
    
    /* Select the trigger for the selected external interrupts */
    if (EXTI_InitStruct->EXTI_Trigger == EXTI_Trigger_Rising_Falling)
  48:	d013      	beq.n	72 <EXTI_Init+0x72>
C:\Program Files (x86)\Raisonance\Ride\lib\ARM\STM32F10x_LIB_V3.0.1\Libraries\STM32F10x_StdPeriph_Driver\src/stm32f10x_exti.c:138
    else
    {
      tmp = (uint32_t)EXTI_BASE;
      tmp += EXTI_InitStruct->EXTI_Trigger;

      *(__IO uint32_t *) tmp |= EXTI_InitStruct->EXTI_Line;
  4a:	f100 4280 	add.w	r2, r0, #1073741824	; 0x40000000
  4e:	f502 3282 	add.w	r2, r2, #66560	; 0x10400
  52:	6813      	ldr	r3, [r2, #0]
  54:	4333      	orrs	r3, r6
  56:	6013      	str	r3, [r2, #0]
  58:	e009      	b.n	6e <EXTI_Init+0x6e>
C:\Program Files (x86)\Raisonance\Ride\lib\ARM\STM32F10x_LIB_V3.0.1\Libraries\STM32F10x_StdPeriph_Driver\src/stm32f10x_exti.c:146
  else
  {
    tmp += EXTI_InitStruct->EXTI_Mode;

    /* Disable the selected external lines */
    *(__IO uint32_t *) tmp &= ~EXTI_InitStruct->EXTI_Line;
  5a:	7903      	ldrb	r3, [r0, #4]
  5c:	6802      	ldr	r2, [r0, #0]
  5e:	f103 4380 	add.w	r3, r3, #1073741824	; 0x40000000
  62:	f503 3382 	add.w	r3, r3, #66560	; 0x10400
  66:	6819      	ldr	r1, [r3, #0]
  68:	43d2      	mvns	r2, r2
  6a:	4011      	ands	r1, r2
  6c:	6019      	str	r1, [r3, #0]
C:\Program Files (x86)\Raisonance\Ride\lib\ARM\STM32F10x_LIB_V3.0.1\Libraries\STM32F10x_StdPeriph_Driver\src/stm32f10x_exti.c:148
  }
}
  6e:	bc70      	pop	{r4, r5, r6}
  70:	4770      	bx	lr
C:\Program Files (x86)\Raisonance\Ride\lib\ARM\STM32F10x_LIB_V3.0.1\Libraries\STM32F10x_StdPeriph_Driver\src/stm32f10x_exti.c:130
    
    /* Select the trigger for the selected external interrupts */
    if (EXTI_InitStruct->EXTI_Trigger == EXTI_Trigger_Rising_Falling)
    {
      /* Rising Falling edge */
      EXTI->RTSR |= EXTI_InitStruct->EXTI_Line;
  72:	68a3      	ldr	r3, [r4, #8]
  74:	4333      	orrs	r3, r6
  76:	60a3      	str	r3, [r4, #8]
C:\Program Files (x86)\Raisonance\Ride\lib\ARM\STM32F10x_LIB_V3.0.1\Libraries\STM32F10x_StdPeriph_Driver\src/stm32f10x_exti.c:131
      EXTI->FTSR |= EXTI_InitStruct->EXTI_Line;
  78:	68e2      	ldr	r2, [r4, #12]
  7a:	4332      	orrs	r2, r6
  7c:	60e2      	str	r2, [r4, #12]
  7e:	e7f6      	b.n	6e <EXTI_Init+0x6e>
Disassembly of section .text.EXTI_StructInit:

00000000 <EXTI_StructInit>:
EXTI_StructInit():
C:\Program Files (x86)\Raisonance\Ride\lib\ARM\STM32F10x_LIB_V3.0.1\Libraries\STM32F10x_StdPeriph_Driver\src/stm32f10x_exti.c:158
  *   be initialized.
  * @retval None
  */
void EXTI_StructInit(EXTI_InitTypeDef* EXTI_InitStruct)
{
  EXTI_InitStruct->EXTI_Line = EXTI_LineNone;
   0:	2200      	movs	r2, #0
C:\Program Files (x86)\Raisonance\Ride\lib\ARM\STM32F10x_LIB_V3.0.1\Libraries\STM32F10x_StdPeriph_Driver\src/stm32f10x_exti.c:160
  EXTI_InitStruct->EXTI_Mode = EXTI_Mode_Interrupt;
  EXTI_InitStruct->EXTI_Trigger = EXTI_Trigger_Falling;
   2:	230c      	movs	r3, #12
C:\Program Files (x86)\Raisonance\Ride\lib\ARM\STM32F10x_LIB_V3.0.1\Libraries\STM32F10x_StdPeriph_Driver\src/stm32f10x_exti.c:158
  *   be initialized.
  * @retval None
  */
void EXTI_StructInit(EXTI_InitTypeDef* EXTI_InitStruct)
{
  EXTI_InitStruct->EXTI_Line = EXTI_LineNone;
   4:	6002      	str	r2, [r0, #0]
C:\Program Files (x86)\Raisonance\Ride\lib\ARM\STM32F10x_LIB_V3.0.1\Libraries\STM32F10x_StdPeriph_Driver\src/stm32f10x_exti.c:159
  EXTI_InitStruct->EXTI_Mode = EXTI_Mode_Interrupt;
   6:	7102      	strb	r2, [r0, #4]
C:\Program Files (x86)\Raisonance\Ride\lib\ARM\STM32F10x_LIB_V3.0.1\Libraries\STM32F10x_StdPeriph_Driver\src/stm32f10x_exti.c:160
  EXTI_InitStruct->EXTI_Trigger = EXTI_Trigger_Falling;
   8:	7143      	strb	r3, [r0, #5]
C:\Program Files (x86)\Raisonance\Ride\lib\ARM\STM32F10x_LIB_V3.0.1\Libraries\STM32F10x_StdPeriph_Driver\src/stm32f10x_exti.c:161
  EXTI_InitStruct->EXTI_LineCmd = DISABLE;
   a:	7182      	strb	r2, [r0, #6]
C:\Program Files (x86)\Raisonance\Ride\lib\ARM\STM32F10x_LIB_V3.0.1\Libraries\STM32F10x_StdPeriph_Driver\src/stm32f10x_exti.c:162
}
   c:	4770      	bx	lr
   e:	46c0      	nop			(mov r8, r8)
Disassembly of section .text.EXTI_GenerateSWInterrupt:

00000000 <EXTI_GenerateSWInterrupt>:
EXTI_GenerateSWInterrupt():
C:\Program Files (x86)\Raisonance\Ride\lib\ARM\STM32F10x_LIB_V3.0.1\Libraries\STM32F10x_StdPeriph_Driver\src/stm32f10x_exti.c:175
void EXTI_GenerateSWInterrupt(uint32_t EXTI_Line)
{
  /* Check the parameters */
  assert_param(IS_EXTI_LINE(EXTI_Line));
  
  EXTI->SWIER |= EXTI_Line;
   0:	f240 4300 	movw	r3, #1024	; 0x400
   4:	f2c4 0301 	movt	r3, #16385	; 0x4001
   8:	691a      	ldr	r2, [r3, #16]
   a:	4310      	orrs	r0, r2
   c:	6118      	str	r0, [r3, #16]
C:\Program Files (x86)\Raisonance\Ride\lib\ARM\STM32F10x_LIB_V3.0.1\Libraries\STM32F10x_StdPeriph_Driver\src/stm32f10x_exti.c:176
}
   e:	4770      	bx	lr
Disassembly of section .text.EXTI_GetFlagStatus:

00000000 <EXTI_GetFlagStatus>:
EXTI_GetFlagStatus():
C:\Program Files (x86)\Raisonance\Ride\lib\ARM\STM32F10x_LIB_V3.0.1\Libraries\STM32F10x_StdPeriph_Driver\src/stm32f10x_exti.c:191
{
  FlagStatus bitstatus = RESET;
  /* Check the parameters */
  assert_param(IS_GET_EXTI_LINE(EXTI_Line));
  
  if ((EXTI->PR & EXTI_Line) != (uint32_t)RESET)
   0:	f240 4300 	movw	r3, #1024	; 0x400
   4:	f2c4 0301 	movt	r3, #16385	; 0x4001
   8:	695a      	ldr	r2, [r3, #20]
   a:	4210      	tst	r0, r2
C:\Program Files (x86)\Raisonance\Ride\lib\ARM\STM32F10x_LIB_V3.0.1\Libraries\STM32F10x_StdPeriph_Driver\src/stm32f10x_exti.c:200
  else
  {
    bitstatus = RESET;
  }
  return bitstatus;
}
   c:	bf0c      	ite	eq
   e:	2000      	moveq	r0, #0
  10:	2001      	movne	r0, #1
  12:	4770      	bx	lr
Disassembly of section .text.EXTI_ClearFlag:

00000000 <EXTI_ClearFlag>:
EXTI_ClearFlag():
C:\Program Files (x86)\Raisonance\Ride\lib\ARM\STM32F10x_LIB_V3.0.1\Libraries\STM32F10x_StdPeriph_Driver\src/stm32f10x_exti.c:213
void EXTI_ClearFlag(uint32_t EXTI_Line)
{
  /* Check the parameters */
  assert_param(IS_EXTI_LINE(EXTI_Line));
  
  EXTI->PR = EXTI_Line;
   0:	f240 4300 	movw	r3, #1024	; 0x400
   4:	f2c4 0301 	movt	r3, #16385	; 0x4001
   8:	6158      	str	r0, [r3, #20]
C:\Program Files (x86)\Raisonance\Ride\lib\ARM\STM32F10x_LIB_V3.0.1\Libraries\STM32F10x_StdPeriph_Driver\src/stm32f10x_exti.c:214
}
   a:	4770      	bx	lr
Disassembly of section .text.EXTI_GetITStatus:

00000000 <EXTI_GetITStatus>:
EXTI_GetITStatus():
C:\Program Files (x86)\Raisonance\Ride\lib\ARM\STM32F10x_LIB_V3.0.1\Libraries\STM32F10x_StdPeriph_Driver\src/stm32f10x_exti.c:230
  ITStatus bitstatus = RESET;
  uint32_t enablestatus = 0;
  /* Check the parameters */
  assert_param(IS_GET_EXTI_LINE(EXTI_Line));
  
  enablestatus =  EXTI->IMR & EXTI_Line;
   0:	f240 4300 	movw	r3, #1024	; 0x400
   4:	f2c4 0301 	movt	r3, #16385	; 0x4001
   8:	6819      	ldr	r1, [r3, #0]
C:\Program Files (x86)\Raisonance\Ride\lib\ARM\STM32F10x_LIB_V3.0.1\Libraries\STM32F10x_StdPeriph_Driver\src/stm32f10x_exti.c:231
  if (((EXTI->PR & EXTI_Line) != (uint32_t)RESET) && (enablestatus != (uint32_t)RESET))
   a:	695a      	ldr	r2, [r3, #20]
   c:	ea10 0302 	ands.w	r3, r0, r2
  10:	bf08      	it	eq
  12:	4618      	moveq	r0, r3
  14:	d003      	beq.n	1e <EXTI_GetITStatus+0x1e>
  16:	4208      	tst	r0, r1
  18:	bf0c      	ite	eq
  1a:	2000      	moveq	r0, #0
  1c:	2001      	movne	r0, #1
C:\Program Files (x86)\Raisonance\Ride\lib\ARM\STM32F10x_LIB_V3.0.1\Libraries\STM32F10x_StdPeriph_Driver\src/stm32f10x_exti.c:240
  else
  {
    bitstatus = RESET;
  }
  return bitstatus;
}
  1e:	4770      	bx	lr
Disassembly of section .text.EXTI_ClearITPendingBit:

00000000 <EXTI_ClearITPendingBit>:
EXTI_ClearITPendingBit():
C:\Program Files (x86)\Raisonance\Ride\lib\ARM\STM32F10x_LIB_V3.0.1\Libraries\STM32F10x_StdPeriph_Driver\src/stm32f10x_exti.c:253
void EXTI_ClearITPendingBit(uint32_t EXTI_Line)
{
  /* Check the parameters */
  assert_param(IS_EXTI_LINE(EXTI_Line));
  
  EXTI->PR = EXTI_Line;
   0:	f240 4300 	movw	r3, #1024	; 0x400
   4:	f2c4 0301 	movt	r3, #16385	; 0x4001
   8:	6158      	str	r0, [r3, #20]
C:\Program Files (x86)\Raisonance\Ride\lib\ARM\STM32F10x_LIB_V3.0.1\Libraries\STM32F10x_StdPeriph_Driver\src/stm32f10x_exti.c:254
}
   a:	4770      	bx	lr
