ARM GAS  C:\Users\Yiquing\AppData\Local\Temp\ccCToUoG.s 			page 1


   1              		.syntax unified
   2              		.cpu cortex-m3
   3              		.fpu softvfp
   4              		.eabi_attribute 20, 1
   5              		.eabi_attribute 21, 1
   6              		.eabi_attribute 23, 3
   7              		.eabi_attribute 24, 1
   8              		.eabi_attribute 25, 1
   9              		.eabi_attribute 26, 1
  10              		.eabi_attribute 30, 4
  11              		.eabi_attribute 34, 1
  12              		.eabi_attribute 18, 4
  13              		.thumb
  14              		.file	"BootloadableI2C.c"
  15              		.text
  16              	.Ltext0:
  17              		.cfi_sections	.debug_frame
  18              		.section	.text.BootloadableI2C_Load,"ax",%progbits
  19              		.align	1
  20              		.global	BootloadableI2C_Load
  21              		.thumb
  22              		.thumb_func
  23              		.type	BootloadableI2C_Load, %function
  24              	BootloadableI2C_Load:
  25              	.LFB0:
  26              		.file 1 ".\\Generated_Source\\PSoC5\\BootloadableI2C.c"
   1:.\Generated_Source\PSoC5/BootloadableI2C.c **** /*******************************************************************************
   2:.\Generated_Source\PSoC5/BootloadableI2C.c **** * File Name: BootloadableI2C.c
   3:.\Generated_Source\PSoC5/BootloadableI2C.c **** * Version 1.30
   4:.\Generated_Source\PSoC5/BootloadableI2C.c **** *
   5:.\Generated_Source\PSoC5/BootloadableI2C.c **** *  Description:
   6:.\Generated_Source\PSoC5/BootloadableI2C.c **** *   Provides an API for the Bootloadable application. The API includes a
   7:.\Generated_Source\PSoC5/BootloadableI2C.c **** *   single function for starting the bootloader.
   8:.\Generated_Source\PSoC5/BootloadableI2C.c **** *
   9:.\Generated_Source\PSoC5/BootloadableI2C.c **** ********************************************************************************
  10:.\Generated_Source\PSoC5/BootloadableI2C.c **** * Copyright 2008-2014, Cypress Semiconductor Corporation.  All rights reserved.
  11:.\Generated_Source\PSoC5/BootloadableI2C.c **** * You may use this file only in accordance with the license, terms, conditions,
  12:.\Generated_Source\PSoC5/BootloadableI2C.c **** * disclaimers, and limitations in the end user license agreement accompanying
  13:.\Generated_Source\PSoC5/BootloadableI2C.c **** * the software package with which this file was provided.
  14:.\Generated_Source\PSoC5/BootloadableI2C.c **** *******************************************************************************/
  15:.\Generated_Source\PSoC5/BootloadableI2C.c **** 
  16:.\Generated_Source\PSoC5/BootloadableI2C.c **** #include "BootloadableI2C.h"
  17:.\Generated_Source\PSoC5/BootloadableI2C.c **** 
  18:.\Generated_Source\PSoC5/BootloadableI2C.c **** 
  19:.\Generated_Source\PSoC5/BootloadableI2C.c **** /*******************************************************************************
  20:.\Generated_Source\PSoC5/BootloadableI2C.c **** * Function Name: BootloadableI2C_Load
  21:.\Generated_Source\PSoC5/BootloadableI2C.c **** ********************************************************************************
  22:.\Generated_Source\PSoC5/BootloadableI2C.c **** * Summary:
  23:.\Generated_Source\PSoC5/BootloadableI2C.c **** *  Begins the bootloading algorithm downloading a new ACD image from the host.
  24:.\Generated_Source\PSoC5/BootloadableI2C.c **** *
  25:.\Generated_Source\PSoC5/BootloadableI2C.c **** * Parameters:
  26:.\Generated_Source\PSoC5/BootloadableI2C.c **** *  None
  27:.\Generated_Source\PSoC5/BootloadableI2C.c **** *
  28:.\Generated_Source\PSoC5/BootloadableI2C.c **** * Returns:
  29:.\Generated_Source\PSoC5/BootloadableI2C.c **** *  This method will never return. It will load a new application and reset
  30:.\Generated_Source\PSoC5/BootloadableI2C.c **** *  the device.
  31:.\Generated_Source\PSoC5/BootloadableI2C.c **** *
ARM GAS  C:\Users\Yiquing\AppData\Local\Temp\ccCToUoG.s 			page 2


  32:.\Generated_Source\PSoC5/BootloadableI2C.c **** *******************************************************************************/
  33:.\Generated_Source\PSoC5/BootloadableI2C.c **** void BootloadableI2C_Load(void) 
  34:.\Generated_Source\PSoC5/BootloadableI2C.c **** {
  27              		.loc 1 34 0
  28              		.cfi_startproc
  29              		@ args = 0, pretend = 0, frame = 0
  30              		@ frame_needed = 0, uses_anonymous_args = 0
  31              		@ link register save eliminated.
  35:.\Generated_Source\PSoC5/BootloadableI2C.c ****     /* Schedule Bootloader to start after reset */
  36:.\Generated_Source\PSoC5/BootloadableI2C.c ****     BootloadableI2C_SET_RUN_TYPE(BootloadableI2C_START_BTLDR);
  32              		.loc 1 36 0
  33 0000 024B     		ldr	r3, .L2
  34 0002 4022     		movs	r2, #64
  35 0004 1A70     		strb	r2, [r3]
  37:.\Generated_Source\PSoC5/BootloadableI2C.c **** 
  38:.\Generated_Source\PSoC5/BootloadableI2C.c ****     CySoftwareReset();
  36              		.loc 1 38 0
  37 0006 FFF7FEBF 		b	CySoftwareReset
  38              	.LVL0:
  39              	.L3:
  40 000a 00BF     		.align	2
  41              	.L2:
  42 000c FA460040 		.word	1073759994
  43              		.cfi_endproc
  44              	.LFE0:
  45              		.size	BootloadableI2C_Load, .-BootloadableI2C_Load
  46              		.section	.text.BootloadableI2C_SetFlashByte,"ax",%progbits
  47              		.align	1
  48              		.global	BootloadableI2C_SetFlashByte
  49              		.thumb
  50              		.thumb_func
  51              		.type	BootloadableI2C_SetFlashByte, %function
  52              	BootloadableI2C_SetFlashByte:
  53              	.LFB1:
  39:.\Generated_Source\PSoC5/BootloadableI2C.c **** }
  40:.\Generated_Source\PSoC5/BootloadableI2C.c **** 
  41:.\Generated_Source\PSoC5/BootloadableI2C.c **** 
  42:.\Generated_Source\PSoC5/BootloadableI2C.c **** /*******************************************************************************
  43:.\Generated_Source\PSoC5/BootloadableI2C.c **** * The following code is OBSOLETE and must not be used.
  44:.\Generated_Source\PSoC5/BootloadableI2C.c **** *******************************************************************************/
  45:.\Generated_Source\PSoC5/BootloadableI2C.c **** void BootloadableI2C_SetFlashByte(uint32 address, uint8 runType) 
  46:.\Generated_Source\PSoC5/BootloadableI2C.c **** {
  54              		.loc 1 46 0
  55              		.cfi_startproc
  56              		@ args = 0, pretend = 0, frame = 256
  57              		@ frame_needed = 0, uses_anonymous_args = 0
  58              	.LVL1:
  59 0000 70B5     		push	{r4, r5, r6, lr}
  60              		.cfi_def_cfa_offset 16
  61              		.cfi_offset 4, -16
  62              		.cfi_offset 5, -12
  63              		.cfi_offset 6, -8
  64              		.cfi_offset 14, -4
  47:.\Generated_Source\PSoC5/BootloadableI2C.c ****     uint32 flsAddr = address - CYDEV_FLASH_BASE;
  48:.\Generated_Source\PSoC5/BootloadableI2C.c ****     uint8  rowData[CYDEV_FLS_ROW_SIZE];
  49:.\Generated_Source\PSoC5/BootloadableI2C.c **** 
  50:.\Generated_Source\PSoC5/BootloadableI2C.c ****     #if !(CY_PSOC4)
ARM GAS  C:\Users\Yiquing\AppData\Local\Temp\ccCToUoG.s 			page 3


  51:.\Generated_Source\PSoC5/BootloadableI2C.c ****         uint8 arrayId = ( uint8 )(flsAddr / CYDEV_FLS_SECTOR_SIZE);
  52:.\Generated_Source\PSoC5/BootloadableI2C.c ****     #endif  /* !(CY_PSOC4) */
  53:.\Generated_Source\PSoC5/BootloadableI2C.c **** 
  54:.\Generated_Source\PSoC5/BootloadableI2C.c ****     #if (CY_PSOC4)
  55:.\Generated_Source\PSoC5/BootloadableI2C.c ****         uint16 rowNum = ( uint16 )(flsAddr / CYDEV_FLS_ROW_SIZE);
  56:.\Generated_Source\PSoC5/BootloadableI2C.c ****     #else
  57:.\Generated_Source\PSoC5/BootloadableI2C.c ****         uint16 rowNum = ( uint16 )((flsAddr % CYDEV_FLS_SECTOR_SIZE) / CYDEV_FLS_ROW_SIZE);
  65              		.loc 1 57 0
  66 0002 C0F30722 		ubfx	r2, r0, #8, #8
  46:.\Generated_Source\PSoC5/BootloadableI2C.c **** {
  67              		.loc 1 46 0
  68 0006 C0B0     		sub	sp, sp, #256
  69              		.cfi_def_cfa_offset 272
  51:.\Generated_Source\PSoC5/BootloadableI2C.c ****         uint8 arrayId = ( uint8 )(flsAddr / CYDEV_FLS_SECTOR_SIZE);
  70              		.loc 1 51 0
  71 0008 C0F30744 		ubfx	r4, r0, #16, #8
  72              	.LVL2:
  58:.\Generated_Source\PSoC5/BootloadableI2C.c ****     #endif  /* (CY_PSOC4) */
  59:.\Generated_Source\PSoC5/BootloadableI2C.c **** 
  60:.\Generated_Source\PSoC5/BootloadableI2C.c ****     uint32 baseAddr = address - (address % CYDEV_FLS_ROW_SIZE);
  73              		.loc 1 60 0
  74 000c 20F0FF06 		bic	r6, r0, #255
  75              	.LVL3:
  76 0010 0023     		movs	r3, #0
  77              	.LVL4:
  78              	.L6:
  61:.\Generated_Source\PSoC5/BootloadableI2C.c ****     uint16 idx;
  62:.\Generated_Source\PSoC5/BootloadableI2C.c **** 
  63:.\Generated_Source\PSoC5/BootloadableI2C.c **** 
  64:.\Generated_Source\PSoC5/BootloadableI2C.c ****     for (idx = 0u; idx < CYDEV_FLS_ROW_SIZE; idx++)
  65:.\Generated_Source\PSoC5/BootloadableI2C.c ****     {
  66:.\Generated_Source\PSoC5/BootloadableI2C.c ****         rowData[idx] = BootloadableI2C_GET_CODE_DATA(baseAddr + idx);
  79              		.loc 1 66 0 discriminator 2
  80 0012 9D5D     		ldrb	r5, [r3, r6]	@ zero_extendqisi2
  81 0014 0DF80350 		strb	r5, [sp, r3]
  82              	.LVL5:
  83 0018 0133     		adds	r3, r3, #1
  84              	.LVL6:
  64:.\Generated_Source\PSoC5/BootloadableI2C.c ****     for (idx = 0u; idx < CYDEV_FLS_ROW_SIZE; idx++)
  85              		.loc 1 64 0 discriminator 2
  86 001a B3F5807F 		cmp	r3, #256
  87 001e F8D1     		bne	.L6
  67:.\Generated_Source\PSoC5/BootloadableI2C.c ****     }
  68:.\Generated_Source\PSoC5/BootloadableI2C.c ****     rowData[address % CYDEV_FLS_ROW_SIZE] = runType;
  88              		.loc 1 68 0
  89 0020 C0B2     		uxtb	r0, r0
  90              	.LVL7:
  91 0022 0DF80010 		strb	r1, [sp, r0]
  69:.\Generated_Source\PSoC5/BootloadableI2C.c **** 
  70:.\Generated_Source\PSoC5/BootloadableI2C.c ****     #if(CY_PSOC4)
  71:.\Generated_Source\PSoC5/BootloadableI2C.c ****         (void) CySysFlashWriteRow((uint32) rowNum, rowData);
  72:.\Generated_Source\PSoC5/BootloadableI2C.c ****     #else
  73:.\Generated_Source\PSoC5/BootloadableI2C.c ****         (void) CyWriteRowData(arrayId, rowNum, rowData);
  92              		.loc 1 73 0
  93 0026 1146     		mov	r1, r2
  94              	.LVL8:
  95 0028 2046     		mov	r0, r4
ARM GAS  C:\Users\Yiquing\AppData\Local\Temp\ccCToUoG.s 			page 4


  96              	.LVL9:
  97 002a 6A46     		mov	r2, sp
  98              	.LVL10:
  99 002c FFF7FEFF 		bl	CyWriteRowData
 100              	.LVL11:
  74:.\Generated_Source\PSoC5/BootloadableI2C.c ****     #endif  /* (CY_PSOC4) */
  75:.\Generated_Source\PSoC5/BootloadableI2C.c **** 
  76:.\Generated_Source\PSoC5/BootloadableI2C.c ****     #if(CY_PSOC5)
  77:.\Generated_Source\PSoC5/BootloadableI2C.c ****         /***************************************************************************
  78:.\Generated_Source\PSoC5/BootloadableI2C.c ****         * When writing Flash, data in the instruction cache can become stale.
  79:.\Generated_Source\PSoC5/BootloadableI2C.c ****         * Therefore, the cache data does not correlate to the data just written to
  80:.\Generated_Source\PSoC5/BootloadableI2C.c ****         * Flash. A call to CyFlushCache() is required to invalidate the data in the
  81:.\Generated_Source\PSoC5/BootloadableI2C.c ****         * cache and force fresh information to be loaded from Flash.
  82:.\Generated_Source\PSoC5/BootloadableI2C.c ****         ***************************************************************************/
  83:.\Generated_Source\PSoC5/BootloadableI2C.c ****         CyFlushCache();
 101              		.loc 1 83 0
 102 0030 FFF7FEFF 		bl	CyFlushCache
 103              	.LVL12:
  84:.\Generated_Source\PSoC5/BootloadableI2C.c ****     #endif /* (CY_PSOC5) */
  85:.\Generated_Source\PSoC5/BootloadableI2C.c **** }
 104              		.loc 1 85 0
 105 0034 40B0     		add	sp, sp, #256
 106              		@ sp needed
 107 0036 70BD     		pop	{r4, r5, r6, pc}
 108              		.cfi_endproc
 109              	.LFE1:
 110              		.size	BootloadableI2C_SetFlashByte, .-BootloadableI2C_SetFlashByte
 111              		.text
 112              	.Letext0:
 113              		.file 2 ".\\Generated_Source\\PSoC5\\cytypes.h"
 114              		.file 3 ".\\Generated_Source\\PSoC5\\CyLib.h"
 115              		.file 4 ".\\Generated_Source\\PSoC5\\CyFlash.h"