ARM GAS  C:\Users\Yiquing\AppData\Local\Temp\ccMLjzxz.s 			page 1


   1              		.syntax unified
   2              		.cpu cortex-m3
   3              		.fpu softvfp
   4              		.eabi_attribute 20, 1
   5              		.eabi_attribute 21, 1
   6              		.eabi_attribute 23, 3
   7              		.eabi_attribute 24, 1
   8              		.eabi_attribute 25, 1
   9              		.eabi_attribute 26, 1
  10              		.eabi_attribute 30, 4
  11              		.eabi_attribute 34, 1
  12              		.eabi_attribute 18, 4
  13              		.thumb
  14              		.file	"FilterReg.c"
  15              		.text
  16              	.Ltext0:
  17              		.cfi_sections	.debug_frame
  18              		.section	.text.FilterReg_Read,"ax",%progbits
  19              		.align	1
  20              		.global	FilterReg_Read
  21              		.thumb
  22              		.thumb_func
  23              		.type	FilterReg_Read, %function
  24              	FilterReg_Read:
  25              	.LFB0:
  26              		.file 1 ".\\Generated_Source\\PSoC5\\FilterReg.c"
   1:.\Generated_Source\PSoC5/FilterReg.c **** /*******************************************************************************
   2:.\Generated_Source\PSoC5/FilterReg.c **** * File Name: FilterReg.c  
   3:.\Generated_Source\PSoC5/FilterReg.c **** * Version 1.90
   4:.\Generated_Source\PSoC5/FilterReg.c **** *
   5:.\Generated_Source\PSoC5/FilterReg.c **** * Description:
   6:.\Generated_Source\PSoC5/FilterReg.c **** *  This file contains API to enable firmware to read the value of a Status 
   7:.\Generated_Source\PSoC5/FilterReg.c **** *  Register.
   8:.\Generated_Source\PSoC5/FilterReg.c **** *
   9:.\Generated_Source\PSoC5/FilterReg.c **** * Note:
  10:.\Generated_Source\PSoC5/FilterReg.c **** *
  11:.\Generated_Source\PSoC5/FilterReg.c **** ********************************************************************************
  12:.\Generated_Source\PSoC5/FilterReg.c **** * Copyright 2008-2015, Cypress Semiconductor Corporation.  All rights reserved.
  13:.\Generated_Source\PSoC5/FilterReg.c **** * You may use this file only in accordance with the license, terms, conditions, 
  14:.\Generated_Source\PSoC5/FilterReg.c **** * disclaimers, and limitations in the end user license agreement accompanying 
  15:.\Generated_Source\PSoC5/FilterReg.c **** * the software package with which this file was provided.
  16:.\Generated_Source\PSoC5/FilterReg.c **** *******************************************************************************/
  17:.\Generated_Source\PSoC5/FilterReg.c **** 
  18:.\Generated_Source\PSoC5/FilterReg.c **** #include "FilterReg.h"
  19:.\Generated_Source\PSoC5/FilterReg.c **** 
  20:.\Generated_Source\PSoC5/FilterReg.c **** #if !defined(FilterReg_sts_sts_reg__REMOVED) /* Check for removal by optimization */
  21:.\Generated_Source\PSoC5/FilterReg.c **** 
  22:.\Generated_Source\PSoC5/FilterReg.c **** 
  23:.\Generated_Source\PSoC5/FilterReg.c **** /*******************************************************************************
  24:.\Generated_Source\PSoC5/FilterReg.c **** * Function Name: FilterReg_Read
  25:.\Generated_Source\PSoC5/FilterReg.c **** ********************************************************************************
  26:.\Generated_Source\PSoC5/FilterReg.c **** *
  27:.\Generated_Source\PSoC5/FilterReg.c **** * Summary:
  28:.\Generated_Source\PSoC5/FilterReg.c **** *  Reads the current value assigned to the Status Register.
  29:.\Generated_Source\PSoC5/FilterReg.c **** *
  30:.\Generated_Source\PSoC5/FilterReg.c **** * Parameters:
  31:.\Generated_Source\PSoC5/FilterReg.c **** *  None.
ARM GAS  C:\Users\Yiquing\AppData\Local\Temp\ccMLjzxz.s 			page 2


  32:.\Generated_Source\PSoC5/FilterReg.c **** *
  33:.\Generated_Source\PSoC5/FilterReg.c **** * Return:
  34:.\Generated_Source\PSoC5/FilterReg.c **** *  The current value in the Status Register.
  35:.\Generated_Source\PSoC5/FilterReg.c **** *
  36:.\Generated_Source\PSoC5/FilterReg.c **** *******************************************************************************/
  37:.\Generated_Source\PSoC5/FilterReg.c **** uint8 FilterReg_Read(void) 
  38:.\Generated_Source\PSoC5/FilterReg.c **** { 
  27              		.loc 1 38 0
  28              		.cfi_startproc
  29              		@ args = 0, pretend = 0, frame = 0
  30              		@ frame_needed = 0, uses_anonymous_args = 0
  31              		@ link register save eliminated.
  39:.\Generated_Source\PSoC5/FilterReg.c ****     return FilterReg_Status;
  32              		.loc 1 39 0
  33 0000 014B     		ldr	r3, .L2
  34 0002 1878     		ldrb	r0, [r3]	@ zero_extendqisi2
  40:.\Generated_Source\PSoC5/FilterReg.c **** }
  35              		.loc 1 40 0
  36 0004 7047     		bx	lr
  37              	.L3:
  38 0006 00BF     		.align	2
  39              	.L2:
  40 0008 67650040 		.word	1073767783
  41              		.cfi_endproc
  42              	.LFE0:
  43              		.size	FilterReg_Read, .-FilterReg_Read
  44              		.section	.text.FilterReg_InterruptEnable,"ax",%progbits
  45              		.align	1
  46              		.global	FilterReg_InterruptEnable
  47              		.thumb
  48              		.thumb_func
  49              		.type	FilterReg_InterruptEnable, %function
  50              	FilterReg_InterruptEnable:
  51              	.LFB1:
  41:.\Generated_Source\PSoC5/FilterReg.c **** 
  42:.\Generated_Source\PSoC5/FilterReg.c **** 
  43:.\Generated_Source\PSoC5/FilterReg.c **** /*******************************************************************************
  44:.\Generated_Source\PSoC5/FilterReg.c **** * Function Name: FilterReg_InterruptEnable
  45:.\Generated_Source\PSoC5/FilterReg.c **** ********************************************************************************
  46:.\Generated_Source\PSoC5/FilterReg.c **** *
  47:.\Generated_Source\PSoC5/FilterReg.c **** * Summary:
  48:.\Generated_Source\PSoC5/FilterReg.c **** *  Enables the Status Register interrupt.
  49:.\Generated_Source\PSoC5/FilterReg.c **** *
  50:.\Generated_Source\PSoC5/FilterReg.c **** * Parameters:
  51:.\Generated_Source\PSoC5/FilterReg.c **** *  None.
  52:.\Generated_Source\PSoC5/FilterReg.c **** *
  53:.\Generated_Source\PSoC5/FilterReg.c **** * Return:
  54:.\Generated_Source\PSoC5/FilterReg.c **** *  None.
  55:.\Generated_Source\PSoC5/FilterReg.c **** *
  56:.\Generated_Source\PSoC5/FilterReg.c **** *******************************************************************************/
  57:.\Generated_Source\PSoC5/FilterReg.c **** void FilterReg_InterruptEnable(void) 
  58:.\Generated_Source\PSoC5/FilterReg.c **** {
  52              		.loc 1 58 0
  53              		.cfi_startproc
  54              		@ args = 0, pretend = 0, frame = 0
  55              		@ frame_needed = 0, uses_anonymous_args = 0
  56 0000 08B5     		push	{r3, lr}
ARM GAS  C:\Users\Yiquing\AppData\Local\Temp\ccMLjzxz.s 			page 3


  57              		.cfi_def_cfa_offset 8
  58              		.cfi_offset 3, -8
  59              		.cfi_offset 14, -4
  59:.\Generated_Source\PSoC5/FilterReg.c ****     uint8 interruptState;
  60:.\Generated_Source\PSoC5/FilterReg.c ****     interruptState = CyEnterCriticalSection();
  60              		.loc 1 60 0
  61 0002 FFF7FEFF 		bl	CyEnterCriticalSection
  62              	.LVL0:
  61:.\Generated_Source\PSoC5/FilterReg.c ****     FilterReg_Status_Aux_Ctrl |= FilterReg_STATUS_INTR_ENBL;
  63              		.loc 1 61 0
  64 0006 044B     		ldr	r3, .L5
  65 0008 1A78     		ldrb	r2, [r3]	@ zero_extendqisi2
  66 000a 42F01002 		orr	r2, r2, #16
  67 000e 1A70     		strb	r2, [r3]
  62:.\Generated_Source\PSoC5/FilterReg.c ****     CyExitCriticalSection(interruptState);
  63:.\Generated_Source\PSoC5/FilterReg.c **** }
  68              		.loc 1 63 0
  69 0010 BDE80840 		pop	{r3, lr}
  62:.\Generated_Source\PSoC5/FilterReg.c ****     CyExitCriticalSection(interruptState);
  70              		.loc 1 62 0
  71 0014 FFF7FEBF 		b	CyExitCriticalSection
  72              	.LVL1:
  73              	.L6:
  74              		.align	2
  75              	.L5:
  76 0018 97650040 		.word	1073767831
  77              		.cfi_endproc
  78              	.LFE1:
  79              		.size	FilterReg_InterruptEnable, .-FilterReg_InterruptEnable
  80              		.section	.text.FilterReg_InterruptDisable,"ax",%progbits
  81              		.align	1
  82              		.global	FilterReg_InterruptDisable
  83              		.thumb
  84              		.thumb_func
  85              		.type	FilterReg_InterruptDisable, %function
  86              	FilterReg_InterruptDisable:
  87              	.LFB2:
  64:.\Generated_Source\PSoC5/FilterReg.c **** 
  65:.\Generated_Source\PSoC5/FilterReg.c **** 
  66:.\Generated_Source\PSoC5/FilterReg.c **** /*******************************************************************************
  67:.\Generated_Source\PSoC5/FilterReg.c **** * Function Name: FilterReg_InterruptDisable
  68:.\Generated_Source\PSoC5/FilterReg.c **** ********************************************************************************
  69:.\Generated_Source\PSoC5/FilterReg.c **** *
  70:.\Generated_Source\PSoC5/FilterReg.c **** * Summary:
  71:.\Generated_Source\PSoC5/FilterReg.c **** *  Disables the Status Register interrupt.
  72:.\Generated_Source\PSoC5/FilterReg.c **** *
  73:.\Generated_Source\PSoC5/FilterReg.c **** * Parameters:
  74:.\Generated_Source\PSoC5/FilterReg.c **** *  None.
  75:.\Generated_Source\PSoC5/FilterReg.c **** *
  76:.\Generated_Source\PSoC5/FilterReg.c **** * Return:
  77:.\Generated_Source\PSoC5/FilterReg.c **** *  None.
  78:.\Generated_Source\PSoC5/FilterReg.c **** *
  79:.\Generated_Source\PSoC5/FilterReg.c **** *******************************************************************************/
  80:.\Generated_Source\PSoC5/FilterReg.c **** void FilterReg_InterruptDisable(void) 
  81:.\Generated_Source\PSoC5/FilterReg.c **** {
  88              		.loc 1 81 0
  89              		.cfi_startproc
ARM GAS  C:\Users\Yiquing\AppData\Local\Temp\ccMLjzxz.s 			page 4


  90              		@ args = 0, pretend = 0, frame = 0
  91              		@ frame_needed = 0, uses_anonymous_args = 0
  92 0000 08B5     		push	{r3, lr}
  93              		.cfi_def_cfa_offset 8
  94              		.cfi_offset 3, -8
  95              		.cfi_offset 14, -4
  82:.\Generated_Source\PSoC5/FilterReg.c ****     uint8 interruptState;
  83:.\Generated_Source\PSoC5/FilterReg.c ****     interruptState = CyEnterCriticalSection();
  96              		.loc 1 83 0
  97 0002 FFF7FEFF 		bl	CyEnterCriticalSection
  98              	.LVL2:
  84:.\Generated_Source\PSoC5/FilterReg.c ****     FilterReg_Status_Aux_Ctrl &= (uint8)(~FilterReg_STATUS_INTR_ENBL);
  99              		.loc 1 84 0
 100 0006 044B     		ldr	r3, .L8
 101 0008 1A78     		ldrb	r2, [r3]	@ zero_extendqisi2
 102 000a 02F0EF02 		and	r2, r2, #239
 103 000e 1A70     		strb	r2, [r3]
  85:.\Generated_Source\PSoC5/FilterReg.c ****     CyExitCriticalSection(interruptState);
  86:.\Generated_Source\PSoC5/FilterReg.c **** }
 104              		.loc 1 86 0
 105 0010 BDE80840 		pop	{r3, lr}
  85:.\Generated_Source\PSoC5/FilterReg.c ****     CyExitCriticalSection(interruptState);
 106              		.loc 1 85 0
 107 0014 FFF7FEBF 		b	CyExitCriticalSection
 108              	.LVL3:
 109              	.L9:
 110              		.align	2
 111              	.L8:
 112 0018 97650040 		.word	1073767831
 113              		.cfi_endproc
 114              	.LFE2:
 115              		.size	FilterReg_InterruptDisable, .-FilterReg_InterruptDisable
 116              		.section	.text.FilterReg_WriteMask,"ax",%progbits
 117              		.align	1
 118              		.global	FilterReg_WriteMask
 119              		.thumb
 120              		.thumb_func
 121              		.type	FilterReg_WriteMask, %function
 122              	FilterReg_WriteMask:
 123              	.LFB3:
  87:.\Generated_Source\PSoC5/FilterReg.c **** 
  88:.\Generated_Source\PSoC5/FilterReg.c **** 
  89:.\Generated_Source\PSoC5/FilterReg.c **** /*******************************************************************************
  90:.\Generated_Source\PSoC5/FilterReg.c **** * Function Name: FilterReg_WriteMask
  91:.\Generated_Source\PSoC5/FilterReg.c **** ********************************************************************************
  92:.\Generated_Source\PSoC5/FilterReg.c **** *
  93:.\Generated_Source\PSoC5/FilterReg.c **** * Summary:
  94:.\Generated_Source\PSoC5/FilterReg.c **** *  Writes the current mask value assigned to the Status Register.
  95:.\Generated_Source\PSoC5/FilterReg.c **** *
  96:.\Generated_Source\PSoC5/FilterReg.c **** * Parameters:
  97:.\Generated_Source\PSoC5/FilterReg.c **** *  mask:  Value to write into the mask register.
  98:.\Generated_Source\PSoC5/FilterReg.c **** *
  99:.\Generated_Source\PSoC5/FilterReg.c **** * Return:
 100:.\Generated_Source\PSoC5/FilterReg.c **** *  None.
 101:.\Generated_Source\PSoC5/FilterReg.c **** *
 102:.\Generated_Source\PSoC5/FilterReg.c **** *******************************************************************************/
 103:.\Generated_Source\PSoC5/FilterReg.c **** void FilterReg_WriteMask(uint8 mask) 
ARM GAS  C:\Users\Yiquing\AppData\Local\Temp\ccMLjzxz.s 			page 5


 104:.\Generated_Source\PSoC5/FilterReg.c **** {
 124              		.loc 1 104 0
 125              		.cfi_startproc
 126              		@ args = 0, pretend = 0, frame = 0
 127              		@ frame_needed = 0, uses_anonymous_args = 0
 128              		@ link register save eliminated.
 129              	.LVL4:
 105:.\Generated_Source\PSoC5/FilterReg.c ****     #if(FilterReg_INPUTS < 8u)
 106:.\Generated_Source\PSoC5/FilterReg.c ****     	mask &= ((uint8)(1u << FilterReg_INPUTS) - 1u);
 107:.\Generated_Source\PSoC5/FilterReg.c **** 	#endif /* End FilterReg_INPUTS < 8u */
 108:.\Generated_Source\PSoC5/FilterReg.c ****     FilterReg_Status_Mask = mask;
 130              		.loc 1 108 0
 131 0000 024B     		ldr	r3, .L11
 106:.\Generated_Source\PSoC5/FilterReg.c ****     	mask &= ((uint8)(1u << FilterReg_INPUTS) - 1u);
 132              		.loc 1 106 0
 133 0002 00F00300 		and	r0, r0, #3
 134              	.LVL5:
 135              		.loc 1 108 0
 136 0006 1870     		strb	r0, [r3]
 137 0008 7047     		bx	lr
 138              	.L12:
 139 000a 00BF     		.align	2
 140              	.L11:
 141 000c 87650040 		.word	1073767815
 142              		.cfi_endproc
 143              	.LFE3:
 144              		.size	FilterReg_WriteMask, .-FilterReg_WriteMask
 145              		.section	.text.FilterReg_ReadMask,"ax",%progbits
 146              		.align	1
 147              		.global	FilterReg_ReadMask
 148              		.thumb
 149              		.thumb_func
 150              		.type	FilterReg_ReadMask, %function
 151              	FilterReg_ReadMask:
 152              	.LFB4:
 109:.\Generated_Source\PSoC5/FilterReg.c **** }
 110:.\Generated_Source\PSoC5/FilterReg.c **** 
 111:.\Generated_Source\PSoC5/FilterReg.c **** 
 112:.\Generated_Source\PSoC5/FilterReg.c **** /*******************************************************************************
 113:.\Generated_Source\PSoC5/FilterReg.c **** * Function Name: FilterReg_ReadMask
 114:.\Generated_Source\PSoC5/FilterReg.c **** ********************************************************************************
 115:.\Generated_Source\PSoC5/FilterReg.c **** *
 116:.\Generated_Source\PSoC5/FilterReg.c **** * Summary:
 117:.\Generated_Source\PSoC5/FilterReg.c **** *  Reads the current interrupt mask assigned to the Status Register.
 118:.\Generated_Source\PSoC5/FilterReg.c **** *
 119:.\Generated_Source\PSoC5/FilterReg.c **** * Parameters:
 120:.\Generated_Source\PSoC5/FilterReg.c **** *  None.
 121:.\Generated_Source\PSoC5/FilterReg.c **** *
 122:.\Generated_Source\PSoC5/FilterReg.c **** * Return:
 123:.\Generated_Source\PSoC5/FilterReg.c **** *  The value of the interrupt mask of the Status Register.
 124:.\Generated_Source\PSoC5/FilterReg.c **** *
 125:.\Generated_Source\PSoC5/FilterReg.c **** *******************************************************************************/
 126:.\Generated_Source\PSoC5/FilterReg.c **** uint8 FilterReg_ReadMask(void) 
 127:.\Generated_Source\PSoC5/FilterReg.c **** {
 153              		.loc 1 127 0
 154              		.cfi_startproc
 155              		@ args = 0, pretend = 0, frame = 0
ARM GAS  C:\Users\Yiquing\AppData\Local\Temp\ccMLjzxz.s 			page 6


 156              		@ frame_needed = 0, uses_anonymous_args = 0
 157              		@ link register save eliminated.
 128:.\Generated_Source\PSoC5/FilterReg.c ****     return FilterReg_Status_Mask;
 158              		.loc 1 128 0
 159 0000 014B     		ldr	r3, .L14
 160 0002 1878     		ldrb	r0, [r3]	@ zero_extendqisi2
 129:.\Generated_Source\PSoC5/FilterReg.c **** }
 161              		.loc 1 129 0
 162 0004 7047     		bx	lr
 163              	.L15:
 164 0006 00BF     		.align	2
 165              	.L14:
 166 0008 87650040 		.word	1073767815
 167              		.cfi_endproc
 168              	.LFE4:
 169              		.size	FilterReg_ReadMask, .-FilterReg_ReadMask
 170              		.text
 171              	.Letext0:
 172              		.file 2 ".\\Generated_Source\\PSoC5\\cytypes.h"
 173              		.file 3 ".\\Generated_Source\\PSoC5\\CyLib.h"