ARM GAS  C:\Users\Yiquing\AppData\Local\Temp\ccTBYSUe.s 			page 1


   1              		.syntax unified
   2              		.cpu cortex-m3
   3              		.fpu softvfp
   4              		.eabi_attribute 20, 1
   5              		.eabi_attribute 21, 1
   6              		.eabi_attribute 23, 3
   7              		.eabi_attribute 24, 1
   8              		.eabi_attribute 25, 1
   9              		.eabi_attribute 26, 1
  10              		.eabi_attribute 30, 4
  11              		.eabi_attribute 34, 1
  12              		.eabi_attribute 18, 4
  13              		.thumb
  14              		.file	"soft_uart.c"
  15              		.text
  16              	.Ltext0:
  17              		.cfi_sections	.debug_frame
  18              		.section	.text.SU_Start,"ax",%progbits
  19              		.align	1
  20              		.global	SU_Start
  21              		.thumb
  22              		.thumb_func
  23              		.type	SU_Start, %function
  24              	SU_Start:
  25              	.LFB63:
  26              		.file 1 ".\\soft_uart.c"
   1:.\soft_uart.c **** /* ========================================
   2:.\soft_uart.c ****  *
   3:.\soft_uart.c ****  * Copyright YOUR COMPANY, THE YEAR
   4:.\soft_uart.c ****  * All Rights Reserved
   5:.\soft_uart.c ****  * UNPUBLISHED, LICENSED SOFTWARE.
   6:.\soft_uart.c ****  *
   7:.\soft_uart.c ****  * CONFIDENTIAL AND PROPRIETARY INFORMATION
   8:.\soft_uart.c ****  * WHICH IS THE PROPERTY OF your company.
   9:.\soft_uart.c ****  *
  10:.\soft_uart.c ****  * ========================================
  11:.\soft_uart.c **** */
  12:.\soft_uart.c **** #include <project.h>
  13:.\soft_uart.c **** #include "softuart.h"
  14:.\soft_uart.c **** 
  15:.\soft_uart.c **** 
  16:.\soft_uart.c **** 
  17:.\soft_uart.c **** 
  18:.\soft_uart.c **** void SU_Start(SOFT_UART_STRUCT *s, int baud, int  parity, int stop)
  19:.\soft_uart.c **** {
  27              		.loc 1 19 0
  28              		.cfi_startproc
  29              		@ args = 0, pretend = 0, frame = 0
  30              		@ frame_needed = 0, uses_anonymous_args = 0
  31              		@ link register save eliminated.
  32              	.LVL0:
  20:.\soft_uart.c **** 	s->baud = baud;
  21:.\soft_uart.c **** 	s->parity = parity;
  33              		.loc 1 21 0
  34 0000 80E80600 		stmia	r0, {r1, r2}
  22:.\soft_uart.c **** 	s->rx_bits = 0;
  23:.\soft_uart.c **** 	s->tx_bits = 0;
ARM GAS  C:\Users\Yiquing\AppData\Local\Temp\ccTBYSUe.s 			page 2


  24:.\soft_uart.c **** 	s->flags = TX_READY;
  25:.\soft_uart.c **** 	s->timer_tx_ctr=0;
  26:.\soft_uart.c **** 	s->timer_rx_ctr=0;
  27:.\soft_uart.c **** 	s->stop_bits =stop;
  35              		.loc 1 27 0
  36 0004 8360     		str	r3, [r0, #8]
  22:.\soft_uart.c **** 	s->rx_bits = 0;
  37              		.loc 1 22 0
  38 0006 0022     		movs	r2, #0
  39              	.LVL1:
  24:.\soft_uart.c **** 	s->flags = TX_READY;
  40              		.loc 1 24 0
  41 0008 0221     		movs	r1, #2
  42              	.LVL2:
  28:.\soft_uart.c **** 	s->bits=8;
  43              		.loc 1 28 0
  44 000a 0823     		movs	r3, #8
  45              	.LVL3:
  23:.\soft_uart.c **** 	s->tx_bits = 0;
  46              		.loc 1 23 0
  47 000c 8282     		strh	r2, [r0, #20]	@ movhi
  22:.\soft_uart.c **** 	s->rx_bits = 0;
  48              		.loc 1 22 0
  49 000e C282     		strh	r2, [r0, #22]	@ movhi
  24:.\soft_uart.c **** 	s->flags = TX_READY;
  50              		.loc 1 24 0
  51 0010 8161     		str	r1, [r0, #24]
  52              		.loc 1 28 0
  53 0012 C360     		str	r3, [r0, #12]
  25:.\soft_uart.c **** 	s->timer_tx_ctr=0;
  54              		.loc 1 25 0
  55 0014 C261     		str	r2, [r0, #28]
  26:.\soft_uart.c **** 	s->timer_rx_ctr=0;
  56              		.loc 1 26 0
  57 0016 0262     		str	r2, [r0, #32]
  58              		.loc 1 28 0
  59 0018 7047     		bx	lr
  60              		.cfi_endproc
  61              	.LFE63:
  62              		.size	SU_Start, .-SU_Start
  63              		.section	.text.SU_Isr,"ax",%progbits
  64              		.align	1
  65              		.global	SU_Isr
  66              		.thumb
  67              		.thumb_func
  68              		.type	SU_Isr, %function
  69              	SU_Isr:
  70              	.LFB64:
  29:.\soft_uart.c **** 
  30:.\soft_uart.c **** }
  31:.\soft_uart.c **** 
  32:.\soft_uart.c **** 
  33:.\soft_uart.c **** 
  34:.\soft_uart.c **** void SU_Isr(SOFT_UART_STRUCT *s)
  35:.\soft_uart.c **** {
  71              		.loc 1 35 0
  72              		.cfi_startproc
ARM GAS  C:\Users\Yiquing\AppData\Local\Temp\ccTBYSUe.s 			page 3


  73              		@ args = 0, pretend = 0, frame = 0
  74              		@ frame_needed = 0, uses_anonymous_args = 0
  75              	.LVL4:
  36:.\soft_uart.c **** 	uint8 rb;
  37:.\soft_uart.c **** 	
  38:.\soft_uart.c **** 	// this is where we tx
  39:.\soft_uart.c **** 	if ( s->tx_bits)
  76              		.loc 1 39 0
  77 0000 838A     		ldrh	r3, [r0, #20]
  35:.\soft_uart.c **** {
  78              		.loc 1 35 0
  79 0002 10B5     		push	{r4, lr}
  80              		.cfi_def_cfa_offset 8
  81              		.cfi_offset 4, -8
  82              		.cfi_offset 14, -4
  83              		.loc 1 39 0
  84 0004 9BB2     		uxth	r3, r3
  35:.\soft_uart.c **** {
  85              		.loc 1 35 0
  86 0006 0446     		mov	r4, r0
  87              		.loc 1 39 0
  88 0008 0BB3     		cbz	r3, .L4
  40:.\soft_uart.c **** 	{
  41:.\soft_uart.c **** 		if ( --s->timer_tx_ctr<=0 )
  89              		.loc 1 41 0
  90 000a C369     		ldr	r3, [r0, #28]
  91 000c 013B     		subs	r3, r3, #1
  92 000e 002B     		cmp	r3, #0
  93 0010 C361     		str	r3, [r0, #28]
  94 0012 1CDC     		bgt	.L4
  42:.\soft_uart.c **** 		{
  43:.\soft_uart.c **** 			if ((s->tx_byte & 0x01) == 0x01)
  95              		.loc 1 43 0
  96 0014 438A     		ldrh	r3, [r0, #18]
  97 0016 DB07     		lsls	r3, r3, #31
  44:.\soft_uart.c **** 			{
  45:.\soft_uart.c ****                 OptSelect_Write(2);
  98              		.loc 1 45 0
  99 0018 4CBF     		ite	mi
 100 001a 0220     		movmi	r0, #2
 101              	.LVL5:
  46:.\soft_uart.c **** 			}
  47:.\soft_uart.c **** 			else
  48:.\soft_uart.c **** 			{
  49:.\soft_uart.c ****                 OptSelect_Write(3);
 102              		.loc 1 49 0
 103 001c 0320     		movpl	r0, #3
 104 001e FFF7FEFF 		bl	OptSelect_Write
 105              	.LVL6:
  50:.\soft_uart.c **** 			}
  51:.\soft_uart.c **** 			s->tx_byte = s->tx_byte >>1;
 106              		.loc 1 51 0
 107 0022 638A     		ldrh	r3, [r4, #18]
 108 0024 C3F34E03 		ubfx	r3, r3, #1, #15
 109 0028 6382     		strh	r3, [r4, #18]	@ movhi
  52:.\soft_uart.c **** 			s->tx_bits--;
 110              		.loc 1 52 0
ARM GAS  C:\Users\Yiquing\AppData\Local\Temp\ccTBYSUe.s 			page 4


 111 002a A38A     		ldrh	r3, [r4, #20]
 112 002c 013B     		subs	r3, r3, #1
 113 002e 9BB2     		uxth	r3, r3
 114 0030 A382     		strh	r3, [r4, #20]	@ movhi
  53:.\soft_uart.c **** 			if (s->tx_bits)
 115              		.loc 1 53 0
 116 0032 A38A     		ldrh	r3, [r4, #20]
 117 0034 9BB2     		uxth	r3, r3
 118 0036 33B1     		cbz	r3, .L8
  54:.\soft_uart.c **** 			{
  55:.\soft_uart.c **** 				s->flags &=~TX_READY;
 119              		.loc 1 55 0
 120 0038 A369     		ldr	r3, [r4, #24]
 121 003a 23F00203 		bic	r3, r3, #2
 122 003e A361     		str	r3, [r4, #24]
  56:.\soft_uart.c **** 				s->timer_tx_ctr = 3;
 123              		.loc 1 56 0
 124 0040 0323     		movs	r3, #3
 125 0042 E361     		str	r3, [r4, #28]
 126 0044 03E0     		b	.L4
 127              	.L8:
  57:.\soft_uart.c **** 		    }
  58:.\soft_uart.c **** 			else
  59:.\soft_uart.c **** 			   s->flags |=TX_READY;
 128              		.loc 1 59 0
 129 0046 A369     		ldr	r3, [r4, #24]
 130 0048 43F00203 		orr	r3, r3, #2
 131 004c A361     		str	r3, [r4, #24]
 132              	.L4:
  60:.\soft_uart.c **** 		}	
  61:.\soft_uart.c **** 	}
  62:.\soft_uart.c **** 
  63:.\soft_uart.c ****     rb = Pin_WD0_Read();
 133              		.loc 1 63 0
 134 004e FFF7FEFF 		bl	Pin_WD0_Read
 135              	.LVL7:
  64:.\soft_uart.c **** 	if ( s->rx_bits==0)
 136              		.loc 1 64 0
 137 0052 E28A     		ldrh	r2, [r4, #22]
 138 0054 52B9     		cbnz	r2, .L9
  65:.\soft_uart.c **** 	{
  66:.\soft_uart.c **** 		if ( rb==0) // we got a start bit
 139              		.loc 1 66 0
 140 0056 0028     		cmp	r0, #0
 141 0058 33D1     		bne	.L2
  67:.\soft_uart.c **** 		{
  68:.\soft_uart.c **** 			s->timer_rx_ctr = 4;
 142              		.loc 1 68 0
 143 005a 0423     		movs	r3, #4
 144 005c 2362     		str	r3, [r4, #32]
  69:.\soft_uart.c **** 			s->rx_bits = s->bits+s->stop_bits+s->parity;
 145              		.loc 1 69 0
 146 005e A268     		ldr	r2, [r4, #8]
 147 0060 E368     		ldr	r3, [r4, #12]
 148 0062 1A44     		add	r2, r2, r3
 149 0064 6368     		ldr	r3, [r4, #4]
 150 0066 1344     		add	r3, r3, r2
ARM GAS  C:\Users\Yiquing\AppData\Local\Temp\ccTBYSUe.s 			page 5


 151 0068 E382     		strh	r3, [r4, #22]	@ movhi
 152 006a 10BD     		pop	{r4, pc}
 153              	.LVL8:
 154              	.L9:
  70:.\soft_uart.c **** 		}
  71:.\soft_uart.c **** 	}
  72:.\soft_uart.c **** 	else
  73:.\soft_uart.c **** 	{
  74:.\soft_uart.c **** 		if ( --s->timer_rx_ctr<=0 )
 155              		.loc 1 74 0
 156 006c 236A     		ldr	r3, [r4, #32]
 157 006e 013B     		subs	r3, r3, #1
 158 0070 002B     		cmp	r3, #0
 159 0072 2362     		str	r3, [r4, #32]
 160 0074 25DC     		bgt	.L2
  75:.\soft_uart.c **** 		{				// rcv
  76:.\soft_uart.c **** 			if ( rb )
 161              		.loc 1 76 0
 162 0076 28B1     		cbz	r0, .L13
  77:.\soft_uart.c **** 			{	s->rx_byte |= 0x8000;	}
 163              		.loc 1 77 0
 164 0078 238A     		ldrh	r3, [r4, #16]
 165 007a 6FEA4343 		mvn	r3, r3, lsl #17
 166 007e 6FEA5343 		mvn	r3, r3, lsr #17
 167 0082 2382     		strh	r3, [r4, #16]	@ movhi
 168              	.L13:
  78:.\soft_uart.c ****             
  79:.\soft_uart.c **** 			s->rx_byte >>= 1;
 169              		.loc 1 79 0
 170 0084 238A     		ldrh	r3, [r4, #16]
  80:.\soft_uart.c **** 			s->rx_bits--;
 171              		.loc 1 80 0
 172 0086 013A     		subs	r2, r2, #1
  79:.\soft_uart.c **** 			s->rx_byte >>= 1;
 173              		.loc 1 79 0
 174 0088 5B08     		lsrs	r3, r3, #1
 175              		.loc 1 80 0
 176 008a 92B2     		uxth	r2, r2
  79:.\soft_uart.c **** 			s->rx_byte >>= 1;
 177              		.loc 1 79 0
 178 008c 2382     		strh	r3, [r4, #16]	@ movhi
 179              		.loc 1 80 0
 180 008e E282     		strh	r2, [r4, #22]	@ movhi
  81:.\soft_uart.c **** 					
  82:.\soft_uart.c **** 			if ( s->rx_bits==0)
 181              		.loc 1 82 0
 182 0090 AAB9     		cbnz	r2, .L14
  83:.\soft_uart.c **** 			{
  84:.\soft_uart.c **** 				s->rx_recv =  (s->rx_byte>>(8-1-s->stop_bits-(s->parity?1:0)))&0xff;
 183              		.loc 1 84 0
 184 0092 A268     		ldr	r2, [r4, #8]
 185 0094 C2F10701 		rsb	r1, r2, #7
 186 0098 6268     		ldr	r2, [r4, #4]
 187 009a 002A     		cmp	r2, #0
 188 009c 0CBF     		ite	eq
 189 009e 0A46     		moveq	r2, r1
 190 00a0 4A1E     		subne	r2, r1, #1
ARM GAS  C:\Users\Yiquing\AppData\Local\Temp\ccTBYSUe.s 			page 6


 191 00a2 1341     		asrs	r3, r3, r2
 192 00a4 DBB2     		uxtb	r3, r3
 193 00a6 6362     		str	r3, [r4, #36]
  85:.\soft_uart.c **** 				if (s->flags & RX_BYTE_READY)
 194              		.loc 1 85 0
 195 00a8 A369     		ldr	r3, [r4, #24]
 196 00aa 13F0010F 		tst	r3, #1
  86:.\soft_uart.c **** 					 s->flags |=RX_OVERFLOW;
 197              		.loc 1 86 0
 198 00ae A369     		ldr	r3, [r4, #24]
 199 00b0 14BF     		ite	ne
 200 00b2 43F00403 		orrne	r3, r3, #4
  87:.\soft_uart.c **** 				else
  88:.\soft_uart.c **** 					 s->flags |=RX_BYTE_READY;
 201              		.loc 1 88 0
 202 00b6 43F00103 		orreq	r3, r3, #1
 203 00ba A361     		str	r3, [r4, #24]
 204 00bc 10BD     		pop	{r4, pc}
 205              	.LVL9:
 206              	.L14:
  89:.\soft_uart.c **** 			}
  90:.\soft_uart.c **** 			else
  91:.\soft_uart.c **** 				s->timer_rx_ctr = 3;
 207              		.loc 1 91 0
 208 00be 0323     		movs	r3, #3
 209 00c0 2362     		str	r3, [r4, #32]
 210              	.L2:
 211 00c2 10BD     		pop	{r4, pc}
 212              		.cfi_endproc
 213              	.LFE64:
 214              		.size	SU_Isr, .-SU_Isr
 215              		.section	.text.getOddParity,"ax",%progbits
 216              		.align	1
 217              		.global	getOddParity
 218              		.thumb
 219              		.thumb_func
 220              		.type	getOddParity, %function
 221              	getOddParity:
 222              	.LFB65:
  92:.\soft_uart.c **** 		}
  93:.\soft_uart.c **** 	}
  94:.\soft_uart.c **** }
  95:.\soft_uart.c **** 
  96:.\soft_uart.c **** #define START_BIT 0
  97:.\soft_uart.c **** 
  98:.\soft_uart.c **** unsigned char getOddParity(unsigned char p)
  99:.\soft_uart.c ****   {
 223              		.loc 1 99 0
 224              		.cfi_startproc
 225              		@ args = 0, pretend = 0, frame = 0
 226              		@ frame_needed = 0, uses_anonymous_args = 0
 227              		@ link register save eliminated.
 228              	.LVL10:
 100:.\soft_uart.c ****       p = p ^ (p >> 4 | p << 4);
 229              		.loc 1 100 0
 230 0000 0309     		lsrs	r3, r0, #4
 231 0002 43EA0013 		orr	r3, r3, r0, lsl #4
ARM GAS  C:\Users\Yiquing\AppData\Local\Temp\ccTBYSUe.s 			page 7


 232 0006 5840     		eors	r0, r0, r3
 233              	.LVL11:
 234 0008 C0B2     		uxtb	r0, r0
 235              	.LVL12:
 101:.\soft_uart.c ****       p = p ^ (p >> 2);
 236              		.loc 1 101 0
 237 000a 80EA9000 		eor	r0, r0, r0, lsr #2
 238              	.LVL13:
 102:.\soft_uart.c ****       p = p ^ (p >> 1);
 239              		.loc 1 102 0
 240 000e 80EA5000 		eor	r0, r0, r0, lsr #1
 241              	.LVL14:
 103:.\soft_uart.c ****       return p & 1;
 104:.\soft_uart.c ****   }
 242              		.loc 1 104 0
 243 0012 00F00100 		and	r0, r0, #1
 244 0016 7047     		bx	lr
 245              		.cfi_endproc
 246              	.LFE65:
 247              		.size	getOddParity, .-getOddParity
 248              		.section	.text.SU_GetStat,"ax",%progbits
 249              		.align	1
 250              		.global	SU_GetStat
 251              		.thumb
 252              		.thumb_func
 253              		.type	SU_GetStat, %function
 254              	SU_GetStat:
 255              	.LFB66:
 105:.\soft_uart.c **** 
 106:.\soft_uart.c **** int SU_GetStat( SOFT_UART_STRUCT *s)
 107:.\soft_uart.c **** {
 256              		.loc 1 107 0
 257              		.cfi_startproc
 258              		@ args = 0, pretend = 0, frame = 0
 259              		@ frame_needed = 0, uses_anonymous_args = 0
 260              		@ link register save eliminated.
 261              	.LVL15:
 108:.\soft_uart.c **** 	return s->flags;
 262              		.loc 1 108 0
 263 0000 8069     		ldr	r0, [r0, #24]
 264              	.LVL16:
 109:.\soft_uart.c **** }
 265              		.loc 1 109 0
 266 0002 7047     		bx	lr
 267              		.cfi_endproc
 268              	.LFE66:
 269              		.size	SU_GetStat, .-SU_GetStat
 270              		.section	.text.SU_GetChar,"ax",%progbits
 271              		.align	1
 272              		.global	SU_GetChar
 273              		.thumb
 274              		.thumb_func
 275              		.type	SU_GetChar, %function
 276              	SU_GetChar:
 277              	.LFB67:
 110:.\soft_uart.c **** 
 111:.\soft_uart.c **** int SU_GetChar( SOFT_UART_STRUCT *s)
ARM GAS  C:\Users\Yiquing\AppData\Local\Temp\ccTBYSUe.s 			page 8


 112:.\soft_uart.c **** {
 278              		.loc 1 112 0
 279              		.cfi_startproc
 280              		@ args = 0, pretend = 0, frame = 0
 281              		@ frame_needed = 0, uses_anonymous_args = 0
 282              		@ link register save eliminated.
 283              	.LVL17:
 113:.\soft_uart.c **** 	uint8 b;
 114:.\soft_uart.c **** 	b = s->rx_recv;
 284              		.loc 1 114 0
 285 0000 436A     		ldr	r3, [r0, #36]
 286              	.LVL18:
 115:.\soft_uart.c **** 	CyGlobalIntDisable;
 287              		.loc 1 115 0
 288              	@ 115 ".\soft_uart.c" 1
 289 0002 72B6     		CPSID   i
 290              	@ 0 "" 2
 116:.\soft_uart.c **** 	s->flags &=~RX_BYTE_READY;
 291              		.loc 1 116 0
 292              		.thumb
 293 0004 8269     		ldr	r2, [r0, #24]
 294 0006 22F00102 		bic	r2, r2, #1
 295 000a 8261     		str	r2, [r0, #24]
 117:.\soft_uart.c **** 	CyGlobalIntEnable;
 296              		.loc 1 117 0
 297              	@ 117 ".\soft_uart.c" 1
 298 000c 62B6     		CPSIE   i
 299              	@ 0 "" 2
 118:.\soft_uart.c **** 	return b;
 119:.\soft_uart.c **** }
 300              		.loc 1 119 0
 301              		.thumb
 302 000e D8B2     		uxtb	r0, r3
 303              	.LVL19:
 304 0010 7047     		bx	lr
 305              		.cfi_endproc
 306              	.LFE67:
 307              		.size	SU_GetChar, .-SU_GetChar
 308              		.section	.text.SU_PutChar,"ax",%progbits
 309              		.align	1
 310              		.global	SU_PutChar
 311              		.thumb
 312              		.thumb_func
 313              		.type	SU_PutChar, %function
 314              	SU_PutChar:
 315              	.LFB68:
 120:.\soft_uart.c **** 
 121:.\soft_uart.c **** void SU_PutChar( SOFT_UART_STRUCT *s, int c)
 122:.\soft_uart.c **** {
 316              		.loc 1 122 0
 317              		.cfi_startproc
 318              		@ args = 0, pretend = 0, frame = 0
 319              		@ frame_needed = 0, uses_anonymous_args = 0
 320              	.LVL20:
 321 0000 F8B5     		push	{r3, r4, r5, r6, r7, lr}
 322              		.cfi_def_cfa_offset 24
 323              		.cfi_offset 3, -24
ARM GAS  C:\Users\Yiquing\AppData\Local\Temp\ccTBYSUe.s 			page 9


 324              		.cfi_offset 4, -20
 325              		.cfi_offset 5, -16
 326              		.cfi_offset 6, -12
 327              		.cfi_offset 7, -8
 328              		.cfi_offset 14, -4
 123:.\soft_uart.c **** 	uint16 data_tosend;
 124:.\soft_uart.c **** 	int parity = 0;
 125:.\soft_uart.c **** 	data_tosend = (c<<1) | START_BIT;
 126:.\soft_uart.c **** 	if (s->parity==PARITY_ODD)
 329              		.loc 1 126 0
 330 0002 4668     		ldr	r6, [r0, #4]
 125:.\soft_uart.c **** 	data_tosend = (c<<1) | START_BIT;
 331              		.loc 1 125 0
 332 0004 4F00     		lsls	r7, r1, #1
 333              		.loc 1 126 0
 334 0006 012E     		cmp	r6, #1
 122:.\soft_uart.c **** {
 335              		.loc 1 122 0
 336 0008 0446     		mov	r4, r0
 125:.\soft_uart.c **** 	data_tosend = (c<<1) | START_BIT;
 337              		.loc 1 125 0
 338 000a BFB2     		uxth	r7, r7
 339              	.LVL21:
 340 000c 8568     		ldr	r5, [r0, #8]
 341              		.loc 1 126 0
 342 000e 05D1     		bne	.L26
 127:.\soft_uart.c **** 	  {
 128:.\soft_uart.c ****         parity = getOddParity(c);
 343              		.loc 1 128 0
 344 0010 C8B2     		uxtb	r0, r1
 345              	.LVL22:
 346 0012 FFF7FEFF 		bl	getOddParity
 347              	.LVL23:
 129:.\soft_uart.c **** 		data_tosend |= parity ? (0x300 << s->stop_bits) : (0x200 << s->stop_bits);
 348              		.loc 1 129 0
 349 0016 BFB2     		uxth	r7, r7
 350              	.LVL24:
 351 0018 38B1     		cbz	r0, .L41
 352 001a 09E0     		b	.L31
 353              	.LVL25:
 354              	.L26:
 130:.\soft_uart.c **** 	  }
 131:.\soft_uart.c **** 	else if (s->parity==PARITY_EVEN)
 355              		.loc 1 131 0
 356 001c 022E     		cmp	r6, #2
 357 001e 0DD1     		bne	.L30
 132:.\soft_uart.c **** 	  {
 133:.\soft_uart.c ****          parity = getOddParity(c);
 358              		.loc 1 133 0
 359 0020 C8B2     		uxtb	r0, r1
 360              	.LVL26:
 361 0022 FFF7FEFF 		bl	getOddParity
 362              	.LVL27:
 134:.\soft_uart.c **** 		data_tosend |= parity ?  (0x200 << s->stop_bits) : (0x300 << s->stop_bits);
 363              		.loc 1 134 0
 364 0026 BFB2     		uxth	r7, r7
 365              	.LVL28:
ARM GAS  C:\Users\Yiquing\AppData\Local\Temp\ccTBYSUe.s 			page 10


 366 0028 10B1     		cbz	r0, .L31
 367              	.LVL29:
 368              	.L41:
 369              		.loc 1 134 0 is_stmt 0 discriminator 1
 370 002a 4FF40073 		mov	r3, #512
 371 002e 01E0     		b	.L38
 372              	.L31:
 373              		.loc 1 134 0 discriminator 2
 374 0030 4FF44073 		mov	r3, #768
 375              	.L38:
 376 0034 AB40     		lsls	r3, r3, r5
 377 0036 9BB2     		uxth	r3, r3
 378 0038 1F43     		orrs	r7, r7, r3
 379              	.LVL30:
 380 003a 06E0     		b	.L34
 381              	.LVL31:
 382              	.L30:
 135:.\soft_uart.c **** 	  }
 136:.\soft_uart.c **** 	else
 137:.\soft_uart.c **** 		data_tosend |=  1<<(s->bits + s->stop_bits);
 383              		.loc 1 137 0 is_stmt 1
 384 003c C368     		ldr	r3, [r0, #12]
 385 003e 0122     		movs	r2, #1
 386 0040 2B44     		add	r3, r3, r5
 387 0042 02FA03F3 		lsl	r3, r2, r3
 388 0046 1F43     		orrs	r7, r7, r3
 389              	.LVL32:
 390 0048 BFB2     		uxth	r7, r7
 391              	.LVL33:
 392              	.L34:
 138:.\soft_uart.c **** 	// wait for it to be ready
 139:.\soft_uart.c **** 	while ((s->flags&TX_READY)==0);
 393              		.loc 1 139 0 discriminator 1
 394 004a A369     		ldr	r3, [r4, #24]
 395 004c 9B07     		lsls	r3, r3, #30
 396 004e FCD5     		bpl	.L34
 140:.\soft_uart.c **** 
 141:.\soft_uart.c **** 	CyGlobalIntDisable;
 397              		.loc 1 141 0
 398              	@ 141 ".\soft_uart.c" 1
 399 0050 72B6     		CPSID   i
 400              	@ 0 "" 2
 142:.\soft_uart.c **** 	s->flags &=~TX_READY;
 401              		.loc 1 142 0
 402              		.thumb
 403 0052 A369     		ldr	r3, [r4, #24]
 404 0054 23F00203 		bic	r3, r3, #2
 405 0058 A361     		str	r3, [r4, #24]
 143:.\soft_uart.c **** 	CyGlobalIntEnable;
 406              		.loc 1 143 0
 407              	@ 143 ".\soft_uart.c" 1
 408 005a 62B6     		CPSIE   i
 409              	@ 0 "" 2
 144:.\soft_uart.c **** 	s->tx_byte = data_tosend;
 145:.\soft_uart.c **** 	s->timer_tx_ctr = 3;
 410              		.loc 1 145 0
 411              		.thumb
ARM GAS  C:\Users\Yiquing\AppData\Local\Temp\ccTBYSUe.s 			page 11


 412 005c 0323     		movs	r3, #3
 144:.\soft_uart.c **** 	s->tx_byte = data_tosend;
 413              		.loc 1 144 0
 414 005e 6782     		strh	r7, [r4, #18]	@ movhi
 415              		.loc 1 145 0
 416 0060 E361     		str	r3, [r4, #28]
 417 0062 E368     		ldr	r3, [r4, #12]
 146:.\soft_uart.c ****     if(s->parity != PARITY_NONE)
 147:.\soft_uart.c ****     	s->tx_bits = s->bits+s->stop_bits+ 2;
 418              		.loc 1 147 0
 419 0064 2B44     		add	r3, r3, r5
 146:.\soft_uart.c ****     if(s->parity != PARITY_NONE)
 420              		.loc 1 146 0
 421 0066 0EB1     		cbz	r6, .L35
 422              		.loc 1 147 0
 423 0068 0233     		adds	r3, r3, #2
 424 006a 00E0     		b	.L40
 425              	.L35:
 148:.\soft_uart.c ****     else
 149:.\soft_uart.c ****     	s->tx_bits = s->bits+s->stop_bits+ 1;
 426              		.loc 1 149 0
 427 006c 0133     		adds	r3, r3, #1
 428              	.L40:
 429 006e 9BB2     		uxth	r3, r3
 430 0070 A382     		strh	r3, [r4, #20]	@ movhi
 431 0072 F8BD     		pop	{r3, r4, r5, r6, r7, pc}
 432              		.cfi_endproc
 433              	.LFE68:
 434              		.size	SU_PutChar, .-SU_PutChar
 435              		.text
 436              	.Letext0:
 437              		.file 2 "c:\\program files (x86)\\cypress\\psoc creator\\3.2\\psoc creator\\import\\gnu\\arm\\4.8.
 438              		.file 3 "c:\\program files (x86)\\cypress\\psoc creator\\3.2\\psoc creator\\import\\gnu\\arm\\4.8.
 439              		.file 4 "Generated_Source\\PSoC5/cytypes.h"
 440              		.file 5 ".\\softuart.h"
 441              		.file 6 "Generated_Source\\PSoC5/core_cm3.h"
 442              		.file 7 "Generated_Source\\PSoC5/OptSelect.h"
 443              		.file 8 "Generated_Source\\PSoC5/Pin_WD0.h"