ARM GAS  C:\Users\Yiquing\AppData\Local\Temp\ccFWVw2J.s 			page 1


   1              		.syntax unified
   2              		.cpu cortex-m3
   3              		.fpu softvfp
   4              		.eabi_attribute 20, 1
   5              		.eabi_attribute 21, 1
   6              		.eabi_attribute 23, 3
   7              		.eabi_attribute 24, 1
   8              		.eabi_attribute 25, 1
   9              		.eabi_attribute 26, 1
  10              		.eabi_attribute 30, 4
  11              		.eabi_attribute 34, 1
  12              		.eabi_attribute 18, 4
  13              		.thumb
  14              		.file	"Tamper_Timer_ISR.c"
  15              		.text
  16              	.Ltext0:
  17              		.cfi_sections	.debug_frame
  18              		.section	.text.Tamper_Timer_ISR_Interrupt,"ax",%progbits
  19              		.align	1
  20              		.global	Tamper_Timer_ISR_Interrupt
  21              		.thumb
  22              		.thumb_func
  23              		.type	Tamper_Timer_ISR_Interrupt, %function
  24              	Tamper_Timer_ISR_Interrupt:
  25              	.LFB3:
  26              		.file 1 ".\\Generated_Source\\PSoC5\\Tamper_Timer_ISR.c"
   1:.\Generated_Source\PSoC5/Tamper_Timer_ISR.c **** /*******************************************************************************
   2:.\Generated_Source\PSoC5/Tamper_Timer_ISR.c **** * File Name: Tamper_Timer_ISR.c  
   3:.\Generated_Source\PSoC5/Tamper_Timer_ISR.c **** * Version 1.70
   4:.\Generated_Source\PSoC5/Tamper_Timer_ISR.c **** *
   5:.\Generated_Source\PSoC5/Tamper_Timer_ISR.c **** *  Description:
   6:.\Generated_Source\PSoC5/Tamper_Timer_ISR.c **** *   API for controlling the state of an interrupt.
   7:.\Generated_Source\PSoC5/Tamper_Timer_ISR.c **** *
   8:.\Generated_Source\PSoC5/Tamper_Timer_ISR.c **** *
   9:.\Generated_Source\PSoC5/Tamper_Timer_ISR.c **** *  Note:
  10:.\Generated_Source\PSoC5/Tamper_Timer_ISR.c **** *
  11:.\Generated_Source\PSoC5/Tamper_Timer_ISR.c **** ********************************************************************************
  12:.\Generated_Source\PSoC5/Tamper_Timer_ISR.c **** * Copyright 2008-2015, Cypress Semiconductor Corporation.  All rights reserved.
  13:.\Generated_Source\PSoC5/Tamper_Timer_ISR.c **** * You may use this file only in accordance with the license, terms, conditions, 
  14:.\Generated_Source\PSoC5/Tamper_Timer_ISR.c **** * disclaimers, and limitations in the end user license agreement accompanying 
  15:.\Generated_Source\PSoC5/Tamper_Timer_ISR.c **** * the software package with which this file was provided.
  16:.\Generated_Source\PSoC5/Tamper_Timer_ISR.c **** *******************************************************************************/
  17:.\Generated_Source\PSoC5/Tamper_Timer_ISR.c **** 
  18:.\Generated_Source\PSoC5/Tamper_Timer_ISR.c **** 
  19:.\Generated_Source\PSoC5/Tamper_Timer_ISR.c **** #include <cydevice_trm.h>
  20:.\Generated_Source\PSoC5/Tamper_Timer_ISR.c **** #include <CyLib.h>
  21:.\Generated_Source\PSoC5/Tamper_Timer_ISR.c **** #include <Tamper_Timer_ISR.h>
  22:.\Generated_Source\PSoC5/Tamper_Timer_ISR.c **** 
  23:.\Generated_Source\PSoC5/Tamper_Timer_ISR.c **** #if !defined(Tamper_Timer_ISR__REMOVED) /* Check for removal by optimization */
  24:.\Generated_Source\PSoC5/Tamper_Timer_ISR.c **** 
  25:.\Generated_Source\PSoC5/Tamper_Timer_ISR.c **** /*******************************************************************************
  26:.\Generated_Source\PSoC5/Tamper_Timer_ISR.c **** *  Place your includes, defines and code here 
  27:.\Generated_Source\PSoC5/Tamper_Timer_ISR.c **** ********************************************************************************/
  28:.\Generated_Source\PSoC5/Tamper_Timer_ISR.c **** /* `#START Tamper_Timer_ISR_intc` */
  29:.\Generated_Source\PSoC5/Tamper_Timer_ISR.c **** #include <PS_D1.h>
  30:.\Generated_Source\PSoC5/Tamper_Timer_ISR.c **** #include "Tamper_Timer.h"
  31:.\Generated_Source\PSoC5/Tamper_Timer_ISR.c **** #include "inout.h"
ARM GAS  C:\Users\Yiquing\AppData\Local\Temp\ccFWVw2J.s 			page 2


  32:.\Generated_Source\PSoC5/Tamper_Timer_ISR.c **** #include "system.h"
  33:.\Generated_Source\PSoC5/Tamper_Timer_ISR.c **** /* `#END` */
  34:.\Generated_Source\PSoC5/Tamper_Timer_ISR.c **** 
  35:.\Generated_Source\PSoC5/Tamper_Timer_ISR.c **** #ifndef CYINT_IRQ_BASE
  36:.\Generated_Source\PSoC5/Tamper_Timer_ISR.c **** #define CYINT_IRQ_BASE      16
  37:.\Generated_Source\PSoC5/Tamper_Timer_ISR.c **** #endif /* CYINT_IRQ_BASE */
  38:.\Generated_Source\PSoC5/Tamper_Timer_ISR.c **** #ifndef CYINT_VECT_TABLE
  39:.\Generated_Source\PSoC5/Tamper_Timer_ISR.c **** #define CYINT_VECT_TABLE    ((cyisraddress **) CYREG_NVIC_VECT_OFFSET)
  40:.\Generated_Source\PSoC5/Tamper_Timer_ISR.c **** #endif /* CYINT_VECT_TABLE */
  41:.\Generated_Source\PSoC5/Tamper_Timer_ISR.c **** 
  42:.\Generated_Source\PSoC5/Tamper_Timer_ISR.c **** /* Declared in startup, used to set unused interrupts to. */
  43:.\Generated_Source\PSoC5/Tamper_Timer_ISR.c **** CY_ISR_PROTO(IntDefaultHandler);
  44:.\Generated_Source\PSoC5/Tamper_Timer_ISR.c **** 
  45:.\Generated_Source\PSoC5/Tamper_Timer_ISR.c **** 
  46:.\Generated_Source\PSoC5/Tamper_Timer_ISR.c **** /*******************************************************************************
  47:.\Generated_Source\PSoC5/Tamper_Timer_ISR.c **** * Function Name: Tamper_Timer_ISR_Start
  48:.\Generated_Source\PSoC5/Tamper_Timer_ISR.c **** ********************************************************************************
  49:.\Generated_Source\PSoC5/Tamper_Timer_ISR.c **** *
  50:.\Generated_Source\PSoC5/Tamper_Timer_ISR.c **** * Summary:
  51:.\Generated_Source\PSoC5/Tamper_Timer_ISR.c **** *  Set up the interrupt and enable it. This function disables the interrupt, 
  52:.\Generated_Source\PSoC5/Tamper_Timer_ISR.c **** *  sets the default interrupt vector, sets the priority from the value in the
  53:.\Generated_Source\PSoC5/Tamper_Timer_ISR.c **** *  Design Wide Resources Interrupt Editor, then enables the interrupt to the 
  54:.\Generated_Source\PSoC5/Tamper_Timer_ISR.c **** *  interrupt controller.
  55:.\Generated_Source\PSoC5/Tamper_Timer_ISR.c **** *
  56:.\Generated_Source\PSoC5/Tamper_Timer_ISR.c **** * Parameters:  
  57:.\Generated_Source\PSoC5/Tamper_Timer_ISR.c **** *   None
  58:.\Generated_Source\PSoC5/Tamper_Timer_ISR.c **** *
  59:.\Generated_Source\PSoC5/Tamper_Timer_ISR.c **** * Return:
  60:.\Generated_Source\PSoC5/Tamper_Timer_ISR.c **** *   None
  61:.\Generated_Source\PSoC5/Tamper_Timer_ISR.c **** *
  62:.\Generated_Source\PSoC5/Tamper_Timer_ISR.c **** *******************************************************************************/
  63:.\Generated_Source\PSoC5/Tamper_Timer_ISR.c **** void Tamper_Timer_ISR_Start(void)
  64:.\Generated_Source\PSoC5/Tamper_Timer_ISR.c **** {
  65:.\Generated_Source\PSoC5/Tamper_Timer_ISR.c ****     /* For all we know the interrupt is active. */
  66:.\Generated_Source\PSoC5/Tamper_Timer_ISR.c ****     Tamper_Timer_ISR_Disable();
  67:.\Generated_Source\PSoC5/Tamper_Timer_ISR.c **** 
  68:.\Generated_Source\PSoC5/Tamper_Timer_ISR.c ****     /* Set the ISR to point to the Tamper_Timer_ISR Interrupt. */
  69:.\Generated_Source\PSoC5/Tamper_Timer_ISR.c ****     Tamper_Timer_ISR_SetVector(&Tamper_Timer_ISR_Interrupt);
  70:.\Generated_Source\PSoC5/Tamper_Timer_ISR.c **** 
  71:.\Generated_Source\PSoC5/Tamper_Timer_ISR.c ****     /* Set the priority. */
  72:.\Generated_Source\PSoC5/Tamper_Timer_ISR.c ****     Tamper_Timer_ISR_SetPriority((uint8)Tamper_Timer_ISR_INTC_PRIOR_NUMBER);
  73:.\Generated_Source\PSoC5/Tamper_Timer_ISR.c **** 
  74:.\Generated_Source\PSoC5/Tamper_Timer_ISR.c ****     /* Enable it. */
  75:.\Generated_Source\PSoC5/Tamper_Timer_ISR.c ****     Tamper_Timer_ISR_Enable();
  76:.\Generated_Source\PSoC5/Tamper_Timer_ISR.c **** }
  77:.\Generated_Source\PSoC5/Tamper_Timer_ISR.c **** 
  78:.\Generated_Source\PSoC5/Tamper_Timer_ISR.c **** 
  79:.\Generated_Source\PSoC5/Tamper_Timer_ISR.c **** /*******************************************************************************
  80:.\Generated_Source\PSoC5/Tamper_Timer_ISR.c **** * Function Name: Tamper_Timer_ISR_StartEx
  81:.\Generated_Source\PSoC5/Tamper_Timer_ISR.c **** ********************************************************************************
  82:.\Generated_Source\PSoC5/Tamper_Timer_ISR.c **** *
  83:.\Generated_Source\PSoC5/Tamper_Timer_ISR.c **** * Summary:
  84:.\Generated_Source\PSoC5/Tamper_Timer_ISR.c **** *  Sets up the interrupt and enables it. This function disables the interrupt,
  85:.\Generated_Source\PSoC5/Tamper_Timer_ISR.c **** *  sets the interrupt vector based on the address passed in, sets the priority 
  86:.\Generated_Source\PSoC5/Tamper_Timer_ISR.c **** *  from the value in the Design Wide Resources Interrupt Editor, then enables 
  87:.\Generated_Source\PSoC5/Tamper_Timer_ISR.c **** *  the interrupt to the interrupt controller.
  88:.\Generated_Source\PSoC5/Tamper_Timer_ISR.c **** *  
ARM GAS  C:\Users\Yiquing\AppData\Local\Temp\ccFWVw2J.s 			page 3


  89:.\Generated_Source\PSoC5/Tamper_Timer_ISR.c **** *  When defining ISR functions, the CY_ISR and CY_ISR_PROTO macros should be 
  90:.\Generated_Source\PSoC5/Tamper_Timer_ISR.c **** *  used to provide consistent definition across compilers:
  91:.\Generated_Source\PSoC5/Tamper_Timer_ISR.c **** *  
  92:.\Generated_Source\PSoC5/Tamper_Timer_ISR.c **** *  Function definition example:
  93:.\Generated_Source\PSoC5/Tamper_Timer_ISR.c **** *   CY_ISR(MyISR)
  94:.\Generated_Source\PSoC5/Tamper_Timer_ISR.c **** *   {
  95:.\Generated_Source\PSoC5/Tamper_Timer_ISR.c **** *   }
  96:.\Generated_Source\PSoC5/Tamper_Timer_ISR.c **** *   Function prototype example:
  97:.\Generated_Source\PSoC5/Tamper_Timer_ISR.c **** *   CY_ISR_PROTO(MyISR);
  98:.\Generated_Source\PSoC5/Tamper_Timer_ISR.c **** *
  99:.\Generated_Source\PSoC5/Tamper_Timer_ISR.c **** * Parameters:  
 100:.\Generated_Source\PSoC5/Tamper_Timer_ISR.c **** *   address: Address of the ISR to set in the interrupt vector table.
 101:.\Generated_Source\PSoC5/Tamper_Timer_ISR.c **** *
 102:.\Generated_Source\PSoC5/Tamper_Timer_ISR.c **** * Return:
 103:.\Generated_Source\PSoC5/Tamper_Timer_ISR.c **** *   None
 104:.\Generated_Source\PSoC5/Tamper_Timer_ISR.c **** *
 105:.\Generated_Source\PSoC5/Tamper_Timer_ISR.c **** *******************************************************************************/
 106:.\Generated_Source\PSoC5/Tamper_Timer_ISR.c **** void Tamper_Timer_ISR_StartEx(cyisraddress address)
 107:.\Generated_Source\PSoC5/Tamper_Timer_ISR.c **** {
 108:.\Generated_Source\PSoC5/Tamper_Timer_ISR.c ****     /* For all we know the interrupt is active. */
 109:.\Generated_Source\PSoC5/Tamper_Timer_ISR.c ****     Tamper_Timer_ISR_Disable();
 110:.\Generated_Source\PSoC5/Tamper_Timer_ISR.c **** 
 111:.\Generated_Source\PSoC5/Tamper_Timer_ISR.c ****     /* Set the ISR to point to the Tamper_Timer_ISR Interrupt. */
 112:.\Generated_Source\PSoC5/Tamper_Timer_ISR.c ****     Tamper_Timer_ISR_SetVector(address);
 113:.\Generated_Source\PSoC5/Tamper_Timer_ISR.c **** 
 114:.\Generated_Source\PSoC5/Tamper_Timer_ISR.c ****     /* Set the priority. */
 115:.\Generated_Source\PSoC5/Tamper_Timer_ISR.c ****     Tamper_Timer_ISR_SetPriority((uint8)Tamper_Timer_ISR_INTC_PRIOR_NUMBER);
 116:.\Generated_Source\PSoC5/Tamper_Timer_ISR.c **** 
 117:.\Generated_Source\PSoC5/Tamper_Timer_ISR.c ****     /* Enable it. */
 118:.\Generated_Source\PSoC5/Tamper_Timer_ISR.c ****     Tamper_Timer_ISR_Enable();
 119:.\Generated_Source\PSoC5/Tamper_Timer_ISR.c **** }
 120:.\Generated_Source\PSoC5/Tamper_Timer_ISR.c **** 
 121:.\Generated_Source\PSoC5/Tamper_Timer_ISR.c **** 
 122:.\Generated_Source\PSoC5/Tamper_Timer_ISR.c **** /*******************************************************************************
 123:.\Generated_Source\PSoC5/Tamper_Timer_ISR.c **** * Function Name: Tamper_Timer_ISR_Stop
 124:.\Generated_Source\PSoC5/Tamper_Timer_ISR.c **** ********************************************************************************
 125:.\Generated_Source\PSoC5/Tamper_Timer_ISR.c **** *
 126:.\Generated_Source\PSoC5/Tamper_Timer_ISR.c **** * Summary:
 127:.\Generated_Source\PSoC5/Tamper_Timer_ISR.c **** *   Disables and removes the interrupt.
 128:.\Generated_Source\PSoC5/Tamper_Timer_ISR.c **** *
 129:.\Generated_Source\PSoC5/Tamper_Timer_ISR.c **** * Parameters:  
 130:.\Generated_Source\PSoC5/Tamper_Timer_ISR.c **** *   None
 131:.\Generated_Source\PSoC5/Tamper_Timer_ISR.c **** *
 132:.\Generated_Source\PSoC5/Tamper_Timer_ISR.c **** * Return:
 133:.\Generated_Source\PSoC5/Tamper_Timer_ISR.c **** *   None
 134:.\Generated_Source\PSoC5/Tamper_Timer_ISR.c **** *
 135:.\Generated_Source\PSoC5/Tamper_Timer_ISR.c **** *******************************************************************************/
 136:.\Generated_Source\PSoC5/Tamper_Timer_ISR.c **** void Tamper_Timer_ISR_Stop(void)
 137:.\Generated_Source\PSoC5/Tamper_Timer_ISR.c **** {
 138:.\Generated_Source\PSoC5/Tamper_Timer_ISR.c ****     /* Disable this interrupt. */
 139:.\Generated_Source\PSoC5/Tamper_Timer_ISR.c ****     Tamper_Timer_ISR_Disable();
 140:.\Generated_Source\PSoC5/Tamper_Timer_ISR.c **** 
 141:.\Generated_Source\PSoC5/Tamper_Timer_ISR.c ****     /* Set the ISR to point to the passive one. */
 142:.\Generated_Source\PSoC5/Tamper_Timer_ISR.c ****     Tamper_Timer_ISR_SetVector(&IntDefaultHandler);
 143:.\Generated_Source\PSoC5/Tamper_Timer_ISR.c **** }
 144:.\Generated_Source\PSoC5/Tamper_Timer_ISR.c **** 
 145:.\Generated_Source\PSoC5/Tamper_Timer_ISR.c **** 
ARM GAS  C:\Users\Yiquing\AppData\Local\Temp\ccFWVw2J.s 			page 4


 146:.\Generated_Source\PSoC5/Tamper_Timer_ISR.c **** /*******************************************************************************
 147:.\Generated_Source\PSoC5/Tamper_Timer_ISR.c **** * Function Name: Tamper_Timer_ISR_Interrupt
 148:.\Generated_Source\PSoC5/Tamper_Timer_ISR.c **** ********************************************************************************
 149:.\Generated_Source\PSoC5/Tamper_Timer_ISR.c **** *
 150:.\Generated_Source\PSoC5/Tamper_Timer_ISR.c **** * Summary:
 151:.\Generated_Source\PSoC5/Tamper_Timer_ISR.c **** *   The default Interrupt Service Routine for Tamper_Timer_ISR.
 152:.\Generated_Source\PSoC5/Tamper_Timer_ISR.c **** *
 153:.\Generated_Source\PSoC5/Tamper_Timer_ISR.c **** *   Add custom code between the coments to keep the next version of this file
 154:.\Generated_Source\PSoC5/Tamper_Timer_ISR.c **** *   from over writting your code.
 155:.\Generated_Source\PSoC5/Tamper_Timer_ISR.c **** *
 156:.\Generated_Source\PSoC5/Tamper_Timer_ISR.c **** * Parameters:  
 157:.\Generated_Source\PSoC5/Tamper_Timer_ISR.c **** *
 158:.\Generated_Source\PSoC5/Tamper_Timer_ISR.c **** * Return:
 159:.\Generated_Source\PSoC5/Tamper_Timer_ISR.c **** *   None
 160:.\Generated_Source\PSoC5/Tamper_Timer_ISR.c **** *
 161:.\Generated_Source\PSoC5/Tamper_Timer_ISR.c **** *******************************************************************************/
 162:.\Generated_Source\PSoC5/Tamper_Timer_ISR.c **** CY_ISR(Tamper_Timer_ISR_Interrupt)
 163:.\Generated_Source\PSoC5/Tamper_Timer_ISR.c **** {
  27              		.loc 1 163 0
  28              		.cfi_startproc
  29              		@ args = 0, pretend = 0, frame = 0
  30              		@ frame_needed = 0, uses_anonymous_args = 0
  31 0000 38B5     		push	{r3, r4, r5, lr}
  32              		.cfi_def_cfa_offset 16
  33              		.cfi_offset 3, -16
  34              		.cfi_offset 4, -12
  35              		.cfi_offset 5, -8
  36              		.cfi_offset 14, -4
 164:.\Generated_Source\PSoC5/Tamper_Timer_ISR.c ****     /*  Place your Interrupt code here. */
 165:.\Generated_Source\PSoC5/Tamper_Timer_ISR.c ****     /* `#START Tamper_Timer_ISR_Interrupt` */
 166:.\Generated_Source\PSoC5/Tamper_Timer_ISR.c ****     //This is a 1 ms timer interrupt
 167:.\Generated_Source\PSoC5/Tamper_Timer_ISR.c ****     
 168:.\Generated_Source\PSoC5/Tamper_Timer_ISR.c ****     if ( f2f_acknowledge_active ){
  37              		.loc 1 168 0
  38 0002 144B     		ldr	r3, .L10
  39 0004 1878     		ldrb	r0, [r3]	@ zero_extendqisi2
  40 0006 1C46     		mov	r4, r3
  41 0008 98B1     		cbz	r0, .L2
 169:.\Generated_Source\PSoC5/Tamper_Timer_ISR.c ****         f2f_ack_delay_cnt++;
  42              		.loc 1 169 0
  43 000a 134B     		ldr	r3, .L10+4
  44 000c 1A78     		ldrb	r2, [r3]	@ zero_extendqisi2
  45 000e 1D46     		mov	r5, r3
  46 0010 0132     		adds	r2, r2, #1
  47 0012 D2B2     		uxtb	r2, r2
 170:.\Generated_Source\PSoC5/Tamper_Timer_ISR.c ****         if (f2f_ack_delay_cnt == 30){
  48              		.loc 1 170 0
  49 0014 1E2A     		cmp	r2, #30
 169:.\Generated_Source\PSoC5/Tamper_Timer_ISR.c ****         f2f_ack_delay_cnt++;
  50              		.loc 1 169 0
  51 0016 1A70     		strb	r2, [r3]
  52              		.loc 1 170 0
  53 0018 02D1     		bne	.L3
 171:.\Generated_Source\PSoC5/Tamper_Timer_ISR.c ****             PS_D1_Write(1);
  54              		.loc 1 171 0
  55 001a 0120     		movs	r0, #1
  56 001c FFF7FEFF 		bl	PS_D1_Write
ARM GAS  C:\Users\Yiquing\AppData\Local\Temp\ccFWVw2J.s 			page 5


  57              	.LVL0:
  58              	.L3:
 172:.\Generated_Source\PSoC5/Tamper_Timer_ISR.c ****         }
 173:.\Generated_Source\PSoC5/Tamper_Timer_ISR.c ****         if (f2f_ack_delay_cnt > 35){
  59              		.loc 1 173 0
  60 0020 2B78     		ldrb	r3, [r5]	@ zero_extendqisi2
  61 0022 232B     		cmp	r3, #35
  62 0024 07D9     		bls	.L4
 174:.\Generated_Source\PSoC5/Tamper_Timer_ISR.c ****             PS_D1_Write(0);
  63              		.loc 1 174 0
  64 0026 0020     		movs	r0, #0
  65 0028 FFF7FEFF 		bl	PS_D1_Write
  66              	.LVL1:
 175:.\Generated_Source\PSoC5/Tamper_Timer_ISR.c ****             f2f_acknowledge_active = 0;
  67              		.loc 1 175 0
  68 002c 0023     		movs	r3, #0
  69 002e 2370     		strb	r3, [r4]
  70 0030 01E0     		b	.L4
  71              	.L2:
 176:.\Generated_Source\PSoC5/Tamper_Timer_ISR.c ****         }
 177:.\Generated_Source\PSoC5/Tamper_Timer_ISR.c ****     }else{
 178:.\Generated_Source\PSoC5/Tamper_Timer_ISR.c ****         PS_D1_Write(0);
  72              		.loc 1 178 0
  73 0032 FFF7FEFF 		bl	PS_D1_Write
  74              	.LVL2:
  75              	.L4:
 179:.\Generated_Source\PSoC5/Tamper_Timer_ISR.c ****     }
 180:.\Generated_Source\PSoC5/Tamper_Timer_ISR.c ****     
 181:.\Generated_Source\PSoC5/Tamper_Timer_ISR.c ****     if (buttonPressed){
  76              		.loc 1 181 0
  77 0036 094B     		ldr	r3, .L10+8
  78 0038 1B78     		ldrb	r3, [r3]	@ zero_extendqisi2
  79 003a 1BB1     		cbz	r3, .L5
 182:.\Generated_Source\PSoC5/Tamper_Timer_ISR.c ****         buttonDuration++;
  80              		.loc 1 182 0
  81 003c 084B     		ldr	r3, .L10+12
  82 003e 1A68     		ldr	r2, [r3]
  83 0040 0132     		adds	r2, r2, #1
  84 0042 1A60     		str	r2, [r3]
  85              	.L5:
 183:.\Generated_Source\PSoC5/Tamper_Timer_ISR.c ****     }    
 184:.\Generated_Source\PSoC5/Tamper_Timer_ISR.c ****     Tamper_Timer_ReadStatusRegister();
  86              		.loc 1 184 0
  87 0044 FFF7FEFF 		bl	Tamper_Timer_ReadStatusRegister
  88              	.LVL3:
 185:.\Generated_Source\PSoC5/Tamper_Timer_ISR.c ****     HandleOutputs();
  89              		.loc 1 185 0
  90 0048 FFF7FEFF 		bl	HandleOutputs
  91              	.LVL4:
 186:.\Generated_Source\PSoC5/Tamper_Timer_ISR.c ****     HandleInputs();
 187:.\Generated_Source\PSoC5/Tamper_Timer_ISR.c ****    
 188:.\Generated_Source\PSoC5/Tamper_Timer_ISR.c ****     /* `#END` */
 189:.\Generated_Source\PSoC5/Tamper_Timer_ISR.c **** }
  92              		.loc 1 189 0
  93 004c BDE83840 		pop	{r3, r4, r5, lr}
 186:.\Generated_Source\PSoC5/Tamper_Timer_ISR.c ****     HandleInputs();
  94              		.loc 1 186 0
ARM GAS  C:\Users\Yiquing\AppData\Local\Temp\ccFWVw2J.s 			page 6


  95 0050 FFF7FEBF 		b	HandleInputs
  96              	.LVL5:
  97              	.L11:
  98              		.align	2
  99              	.L10:
 100 0054 00000000 		.word	f2f_acknowledge_active
 101 0058 00000000 		.word	f2f_ack_delay_cnt
 102 005c 00000000 		.word	buttonPressed
 103 0060 00000000 		.word	buttonDuration
 104              		.cfi_endproc
 105              	.LFE3:
 106              		.size	Tamper_Timer_ISR_Interrupt, .-Tamper_Timer_ISR_Interrupt
 107              		.section	.text.Tamper_Timer_ISR_Start,"ax",%progbits
 108              		.align	1
 109              		.global	Tamper_Timer_ISR_Start
 110              		.thumb
 111              		.thumb_func
 112              		.type	Tamper_Timer_ISR_Start, %function
 113              	Tamper_Timer_ISR_Start:
 114              	.LFB0:
  64:.\Generated_Source\PSoC5/Tamper_Timer_ISR.c **** {
 115              		.loc 1 64 0
 116              		.cfi_startproc
 117              		@ args = 0, pretend = 0, frame = 0
 118              		@ frame_needed = 0, uses_anonymous_args = 0
 119              		@ link register save eliminated.
 120              	.LBB22:
 121              	.LBB23:
 190:.\Generated_Source\PSoC5/Tamper_Timer_ISR.c **** 
 191:.\Generated_Source\PSoC5/Tamper_Timer_ISR.c **** 
 192:.\Generated_Source\PSoC5/Tamper_Timer_ISR.c **** /*******************************************************************************
 193:.\Generated_Source\PSoC5/Tamper_Timer_ISR.c **** * Function Name: Tamper_Timer_ISR_SetVector
 194:.\Generated_Source\PSoC5/Tamper_Timer_ISR.c **** ********************************************************************************
 195:.\Generated_Source\PSoC5/Tamper_Timer_ISR.c **** *
 196:.\Generated_Source\PSoC5/Tamper_Timer_ISR.c **** * Summary:
 197:.\Generated_Source\PSoC5/Tamper_Timer_ISR.c **** *   Change the ISR vector for the Interrupt. Note calling Tamper_Timer_ISR_Start
 198:.\Generated_Source\PSoC5/Tamper_Timer_ISR.c **** *   will override any effect this method would have had. To set the vector 
 199:.\Generated_Source\PSoC5/Tamper_Timer_ISR.c **** *   before the component has been started use Tamper_Timer_ISR_StartEx instead.
 200:.\Generated_Source\PSoC5/Tamper_Timer_ISR.c **** * 
 201:.\Generated_Source\PSoC5/Tamper_Timer_ISR.c **** *   When defining ISR functions, the CY_ISR and CY_ISR_PROTO macros should be 
 202:.\Generated_Source\PSoC5/Tamper_Timer_ISR.c **** *   used to provide consistent definition across compilers:
 203:.\Generated_Source\PSoC5/Tamper_Timer_ISR.c **** *
 204:.\Generated_Source\PSoC5/Tamper_Timer_ISR.c **** *   Function definition example:
 205:.\Generated_Source\PSoC5/Tamper_Timer_ISR.c **** *   CY_ISR(MyISR)
 206:.\Generated_Source\PSoC5/Tamper_Timer_ISR.c **** *   {
 207:.\Generated_Source\PSoC5/Tamper_Timer_ISR.c **** *   }
 208:.\Generated_Source\PSoC5/Tamper_Timer_ISR.c **** *
 209:.\Generated_Source\PSoC5/Tamper_Timer_ISR.c **** *   Function prototype example:
 210:.\Generated_Source\PSoC5/Tamper_Timer_ISR.c **** *     CY_ISR_PROTO(MyISR);
 211:.\Generated_Source\PSoC5/Tamper_Timer_ISR.c **** *
 212:.\Generated_Source\PSoC5/Tamper_Timer_ISR.c **** * Parameters:
 213:.\Generated_Source\PSoC5/Tamper_Timer_ISR.c **** *   address: Address of the ISR to set in the interrupt vector table.
 214:.\Generated_Source\PSoC5/Tamper_Timer_ISR.c **** *
 215:.\Generated_Source\PSoC5/Tamper_Timer_ISR.c **** * Return:
 216:.\Generated_Source\PSoC5/Tamper_Timer_ISR.c **** *   None
 217:.\Generated_Source\PSoC5/Tamper_Timer_ISR.c **** *
 218:.\Generated_Source\PSoC5/Tamper_Timer_ISR.c **** *******************************************************************************/
ARM GAS  C:\Users\Yiquing\AppData\Local\Temp\ccFWVw2J.s 			page 7


 219:.\Generated_Source\PSoC5/Tamper_Timer_ISR.c **** void Tamper_Timer_ISR_SetVector(cyisraddress address)
 220:.\Generated_Source\PSoC5/Tamper_Timer_ISR.c **** {
 221:.\Generated_Source\PSoC5/Tamper_Timer_ISR.c ****     cyisraddress * ramVectorTable;
 222:.\Generated_Source\PSoC5/Tamper_Timer_ISR.c **** 
 223:.\Generated_Source\PSoC5/Tamper_Timer_ISR.c ****     ramVectorTable = (cyisraddress *) *CYINT_VECT_TABLE;
 224:.\Generated_Source\PSoC5/Tamper_Timer_ISR.c **** 
 225:.\Generated_Source\PSoC5/Tamper_Timer_ISR.c ****     ramVectorTable[CYINT_IRQ_BASE + (uint32)Tamper_Timer_ISR__INTC_NUMBER] = address;
 226:.\Generated_Source\PSoC5/Tamper_Timer_ISR.c **** }
 227:.\Generated_Source\PSoC5/Tamper_Timer_ISR.c **** 
 228:.\Generated_Source\PSoC5/Tamper_Timer_ISR.c **** 
 229:.\Generated_Source\PSoC5/Tamper_Timer_ISR.c **** /*******************************************************************************
 230:.\Generated_Source\PSoC5/Tamper_Timer_ISR.c **** * Function Name: Tamper_Timer_ISR_GetVector
 231:.\Generated_Source\PSoC5/Tamper_Timer_ISR.c **** ********************************************************************************
 232:.\Generated_Source\PSoC5/Tamper_Timer_ISR.c **** *
 233:.\Generated_Source\PSoC5/Tamper_Timer_ISR.c **** * Summary:
 234:.\Generated_Source\PSoC5/Tamper_Timer_ISR.c **** *   Gets the "address" of the current ISR vector for the Interrupt.
 235:.\Generated_Source\PSoC5/Tamper_Timer_ISR.c **** *
 236:.\Generated_Source\PSoC5/Tamper_Timer_ISR.c **** * Parameters:
 237:.\Generated_Source\PSoC5/Tamper_Timer_ISR.c **** *   None
 238:.\Generated_Source\PSoC5/Tamper_Timer_ISR.c **** *
 239:.\Generated_Source\PSoC5/Tamper_Timer_ISR.c **** * Return:
 240:.\Generated_Source\PSoC5/Tamper_Timer_ISR.c **** *   Address of the ISR in the interrupt vector table.
 241:.\Generated_Source\PSoC5/Tamper_Timer_ISR.c **** *
 242:.\Generated_Source\PSoC5/Tamper_Timer_ISR.c **** *******************************************************************************/
 243:.\Generated_Source\PSoC5/Tamper_Timer_ISR.c **** cyisraddress Tamper_Timer_ISR_GetVector(void)
 244:.\Generated_Source\PSoC5/Tamper_Timer_ISR.c **** {
 245:.\Generated_Source\PSoC5/Tamper_Timer_ISR.c ****     cyisraddress * ramVectorTable;
 246:.\Generated_Source\PSoC5/Tamper_Timer_ISR.c **** 
 247:.\Generated_Source\PSoC5/Tamper_Timer_ISR.c ****     ramVectorTable = (cyisraddress *) *CYINT_VECT_TABLE;
 248:.\Generated_Source\PSoC5/Tamper_Timer_ISR.c **** 
 249:.\Generated_Source\PSoC5/Tamper_Timer_ISR.c ****     return ramVectorTable[CYINT_IRQ_BASE + (uint32)Tamper_Timer_ISR__INTC_NUMBER];
 250:.\Generated_Source\PSoC5/Tamper_Timer_ISR.c **** }
 251:.\Generated_Source\PSoC5/Tamper_Timer_ISR.c **** 
 252:.\Generated_Source\PSoC5/Tamper_Timer_ISR.c **** 
 253:.\Generated_Source\PSoC5/Tamper_Timer_ISR.c **** /*******************************************************************************
 254:.\Generated_Source\PSoC5/Tamper_Timer_ISR.c **** * Function Name: Tamper_Timer_ISR_SetPriority
 255:.\Generated_Source\PSoC5/Tamper_Timer_ISR.c **** ********************************************************************************
 256:.\Generated_Source\PSoC5/Tamper_Timer_ISR.c **** *
 257:.\Generated_Source\PSoC5/Tamper_Timer_ISR.c **** * Summary:
 258:.\Generated_Source\PSoC5/Tamper_Timer_ISR.c **** *   Sets the Priority of the Interrupt. 
 259:.\Generated_Source\PSoC5/Tamper_Timer_ISR.c **** *
 260:.\Generated_Source\PSoC5/Tamper_Timer_ISR.c **** *   Note calling Tamper_Timer_ISR_Start or Tamper_Timer_ISR_StartEx will 
 261:.\Generated_Source\PSoC5/Tamper_Timer_ISR.c **** *   override any effect this API would have had. This API should only be called
 262:.\Generated_Source\PSoC5/Tamper_Timer_ISR.c **** *   after Tamper_Timer_ISR_Start or Tamper_Timer_ISR_StartEx has been called. 
 263:.\Generated_Source\PSoC5/Tamper_Timer_ISR.c **** *   To set the initial priority for the component, use the Design-Wide Resources
 264:.\Generated_Source\PSoC5/Tamper_Timer_ISR.c **** *   Interrupt Editor.
 265:.\Generated_Source\PSoC5/Tamper_Timer_ISR.c **** *
 266:.\Generated_Source\PSoC5/Tamper_Timer_ISR.c **** *   Note This API has no effect on Non-maskable interrupt NMI).
 267:.\Generated_Source\PSoC5/Tamper_Timer_ISR.c **** *
 268:.\Generated_Source\PSoC5/Tamper_Timer_ISR.c **** * Parameters:
 269:.\Generated_Source\PSoC5/Tamper_Timer_ISR.c **** *   priority: Priority of the interrupt, 0 being the highest priority
 270:.\Generated_Source\PSoC5/Tamper_Timer_ISR.c **** *             PSoC 3 and PSoC 5LP: Priority is from 0 to 7.
 271:.\Generated_Source\PSoC5/Tamper_Timer_ISR.c **** *             PSoC 4: Priority is from 0 to 3.
 272:.\Generated_Source\PSoC5/Tamper_Timer_ISR.c **** *
 273:.\Generated_Source\PSoC5/Tamper_Timer_ISR.c **** * Return:
 274:.\Generated_Source\PSoC5/Tamper_Timer_ISR.c **** *   None
 275:.\Generated_Source\PSoC5/Tamper_Timer_ISR.c **** *
ARM GAS  C:\Users\Yiquing\AppData\Local\Temp\ccFWVw2J.s 			page 8


 276:.\Generated_Source\PSoC5/Tamper_Timer_ISR.c **** *******************************************************************************/
 277:.\Generated_Source\PSoC5/Tamper_Timer_ISR.c **** void Tamper_Timer_ISR_SetPriority(uint8 priority)
 278:.\Generated_Source\PSoC5/Tamper_Timer_ISR.c **** {
 279:.\Generated_Source\PSoC5/Tamper_Timer_ISR.c ****     *Tamper_Timer_ISR_INTC_PRIOR = priority << 5;
 280:.\Generated_Source\PSoC5/Tamper_Timer_ISR.c **** }
 281:.\Generated_Source\PSoC5/Tamper_Timer_ISR.c **** 
 282:.\Generated_Source\PSoC5/Tamper_Timer_ISR.c **** 
 283:.\Generated_Source\PSoC5/Tamper_Timer_ISR.c **** /*******************************************************************************
 284:.\Generated_Source\PSoC5/Tamper_Timer_ISR.c **** * Function Name: Tamper_Timer_ISR_GetPriority
 285:.\Generated_Source\PSoC5/Tamper_Timer_ISR.c **** ********************************************************************************
 286:.\Generated_Source\PSoC5/Tamper_Timer_ISR.c **** *
 287:.\Generated_Source\PSoC5/Tamper_Timer_ISR.c **** * Summary:
 288:.\Generated_Source\PSoC5/Tamper_Timer_ISR.c **** *   Gets the Priority of the Interrupt.
 289:.\Generated_Source\PSoC5/Tamper_Timer_ISR.c **** *
 290:.\Generated_Source\PSoC5/Tamper_Timer_ISR.c **** * Parameters:
 291:.\Generated_Source\PSoC5/Tamper_Timer_ISR.c **** *   None
 292:.\Generated_Source\PSoC5/Tamper_Timer_ISR.c **** *
 293:.\Generated_Source\PSoC5/Tamper_Timer_ISR.c **** * Return:
 294:.\Generated_Source\PSoC5/Tamper_Timer_ISR.c **** *   Priority of the interrupt, 0 being the highest priority
 295:.\Generated_Source\PSoC5/Tamper_Timer_ISR.c **** *    PSoC 3 and PSoC 5LP: Priority is from 0 to 7.
 296:.\Generated_Source\PSoC5/Tamper_Timer_ISR.c **** *    PSoC 4: Priority is from 0 to 3.
 297:.\Generated_Source\PSoC5/Tamper_Timer_ISR.c **** *
 298:.\Generated_Source\PSoC5/Tamper_Timer_ISR.c **** *******************************************************************************/
 299:.\Generated_Source\PSoC5/Tamper_Timer_ISR.c **** uint8 Tamper_Timer_ISR_GetPriority(void)
 300:.\Generated_Source\PSoC5/Tamper_Timer_ISR.c **** {
 301:.\Generated_Source\PSoC5/Tamper_Timer_ISR.c ****     uint8 priority;
 302:.\Generated_Source\PSoC5/Tamper_Timer_ISR.c **** 
 303:.\Generated_Source\PSoC5/Tamper_Timer_ISR.c **** 
 304:.\Generated_Source\PSoC5/Tamper_Timer_ISR.c ****     priority = *Tamper_Timer_ISR_INTC_PRIOR >> 5;
 305:.\Generated_Source\PSoC5/Tamper_Timer_ISR.c **** 
 306:.\Generated_Source\PSoC5/Tamper_Timer_ISR.c ****     return priority;
 307:.\Generated_Source\PSoC5/Tamper_Timer_ISR.c **** }
 308:.\Generated_Source\PSoC5/Tamper_Timer_ISR.c **** 
 309:.\Generated_Source\PSoC5/Tamper_Timer_ISR.c **** 
 310:.\Generated_Source\PSoC5/Tamper_Timer_ISR.c **** /*******************************************************************************
 311:.\Generated_Source\PSoC5/Tamper_Timer_ISR.c **** * Function Name: Tamper_Timer_ISR_Enable
 312:.\Generated_Source\PSoC5/Tamper_Timer_ISR.c **** ********************************************************************************
 313:.\Generated_Source\PSoC5/Tamper_Timer_ISR.c **** *
 314:.\Generated_Source\PSoC5/Tamper_Timer_ISR.c **** * Summary:
 315:.\Generated_Source\PSoC5/Tamper_Timer_ISR.c **** *   Enables the interrupt to the interrupt controller. Do not call this function
 316:.\Generated_Source\PSoC5/Tamper_Timer_ISR.c **** *   unless ISR_Start() has been called or the functionality of the ISR_Start() 
 317:.\Generated_Source\PSoC5/Tamper_Timer_ISR.c **** *   function, which sets the vector and the priority, has been called.
 318:.\Generated_Source\PSoC5/Tamper_Timer_ISR.c **** *
 319:.\Generated_Source\PSoC5/Tamper_Timer_ISR.c **** * Parameters:
 320:.\Generated_Source\PSoC5/Tamper_Timer_ISR.c **** *   None
 321:.\Generated_Source\PSoC5/Tamper_Timer_ISR.c **** *
 322:.\Generated_Source\PSoC5/Tamper_Timer_ISR.c **** * Return:
 323:.\Generated_Source\PSoC5/Tamper_Timer_ISR.c **** *   None
 324:.\Generated_Source\PSoC5/Tamper_Timer_ISR.c **** *
 325:.\Generated_Source\PSoC5/Tamper_Timer_ISR.c **** *******************************************************************************/
 326:.\Generated_Source\PSoC5/Tamper_Timer_ISR.c **** void Tamper_Timer_ISR_Enable(void)
 327:.\Generated_Source\PSoC5/Tamper_Timer_ISR.c **** {
 328:.\Generated_Source\PSoC5/Tamper_Timer_ISR.c ****     /* Enable the general interrupt. */
 329:.\Generated_Source\PSoC5/Tamper_Timer_ISR.c ****     *Tamper_Timer_ISR_INTC_SET_EN = Tamper_Timer_ISR__INTC_MASK;
 330:.\Generated_Source\PSoC5/Tamper_Timer_ISR.c **** }
 331:.\Generated_Source\PSoC5/Tamper_Timer_ISR.c **** 
 332:.\Generated_Source\PSoC5/Tamper_Timer_ISR.c **** 
ARM GAS  C:\Users\Yiquing\AppData\Local\Temp\ccFWVw2J.s 			page 9


 333:.\Generated_Source\PSoC5/Tamper_Timer_ISR.c **** /*******************************************************************************
 334:.\Generated_Source\PSoC5/Tamper_Timer_ISR.c **** * Function Name: Tamper_Timer_ISR_GetState
 335:.\Generated_Source\PSoC5/Tamper_Timer_ISR.c **** ********************************************************************************
 336:.\Generated_Source\PSoC5/Tamper_Timer_ISR.c **** *
 337:.\Generated_Source\PSoC5/Tamper_Timer_ISR.c **** * Summary:
 338:.\Generated_Source\PSoC5/Tamper_Timer_ISR.c **** *   Gets the state (enabled, disabled) of the Interrupt.
 339:.\Generated_Source\PSoC5/Tamper_Timer_ISR.c **** *
 340:.\Generated_Source\PSoC5/Tamper_Timer_ISR.c **** * Parameters:
 341:.\Generated_Source\PSoC5/Tamper_Timer_ISR.c **** *   None
 342:.\Generated_Source\PSoC5/Tamper_Timer_ISR.c **** *
 343:.\Generated_Source\PSoC5/Tamper_Timer_ISR.c **** * Return:
 344:.\Generated_Source\PSoC5/Tamper_Timer_ISR.c **** *   1 if enabled, 0 if disabled.
 345:.\Generated_Source\PSoC5/Tamper_Timer_ISR.c **** *
 346:.\Generated_Source\PSoC5/Tamper_Timer_ISR.c **** *******************************************************************************/
 347:.\Generated_Source\PSoC5/Tamper_Timer_ISR.c **** uint8 Tamper_Timer_ISR_GetState(void)
 348:.\Generated_Source\PSoC5/Tamper_Timer_ISR.c **** {
 349:.\Generated_Source\PSoC5/Tamper_Timer_ISR.c ****     /* Get the state of the general interrupt. */
 350:.\Generated_Source\PSoC5/Tamper_Timer_ISR.c ****     return ((*Tamper_Timer_ISR_INTC_SET_EN & (uint32)Tamper_Timer_ISR__INTC_MASK) != 0u) ? 1u:0u;
 351:.\Generated_Source\PSoC5/Tamper_Timer_ISR.c **** }
 352:.\Generated_Source\PSoC5/Tamper_Timer_ISR.c **** 
 353:.\Generated_Source\PSoC5/Tamper_Timer_ISR.c **** 
 354:.\Generated_Source\PSoC5/Tamper_Timer_ISR.c **** /*******************************************************************************
 355:.\Generated_Source\PSoC5/Tamper_Timer_ISR.c **** * Function Name: Tamper_Timer_ISR_Disable
 356:.\Generated_Source\PSoC5/Tamper_Timer_ISR.c **** ********************************************************************************
 357:.\Generated_Source\PSoC5/Tamper_Timer_ISR.c **** *
 358:.\Generated_Source\PSoC5/Tamper_Timer_ISR.c **** * Summary:
 359:.\Generated_Source\PSoC5/Tamper_Timer_ISR.c **** *   Disables the Interrupt in the interrupt controller.
 360:.\Generated_Source\PSoC5/Tamper_Timer_ISR.c **** *
 361:.\Generated_Source\PSoC5/Tamper_Timer_ISR.c **** * Parameters:
 362:.\Generated_Source\PSoC5/Tamper_Timer_ISR.c **** *   None
 363:.\Generated_Source\PSoC5/Tamper_Timer_ISR.c **** *
 364:.\Generated_Source\PSoC5/Tamper_Timer_ISR.c **** * Return:
 365:.\Generated_Source\PSoC5/Tamper_Timer_ISR.c **** *   None
 366:.\Generated_Source\PSoC5/Tamper_Timer_ISR.c **** *
 367:.\Generated_Source\PSoC5/Tamper_Timer_ISR.c **** *******************************************************************************/
 368:.\Generated_Source\PSoC5/Tamper_Timer_ISR.c **** void Tamper_Timer_ISR_Disable(void)
 369:.\Generated_Source\PSoC5/Tamper_Timer_ISR.c **** {
 370:.\Generated_Source\PSoC5/Tamper_Timer_ISR.c ****     /* Disable the general interrupt. */
 371:.\Generated_Source\PSoC5/Tamper_Timer_ISR.c ****     *Tamper_Timer_ISR_INTC_CLR_EN = Tamper_Timer_ISR__INTC_MASK;
 122              		.loc 1 371 0
 123 0000 084A     		ldr	r2, .L13
 124 0002 4FF40033 		mov	r3, #131072
 125 0006 1360     		str	r3, [r2]
 126              	.LVL6:
 127              	.LBE23:
 128              	.LBE22:
 129              	.LBB24:
 130              	.LBB25:
 223:.\Generated_Source\PSoC5/Tamper_Timer_ISR.c ****     ramVectorTable = (cyisraddress *) *CYINT_VECT_TABLE;
 131              		.loc 1 223 0
 132 0008 02F68832 		addw	r2, r2, #2952
 133 000c 1268     		ldr	r2, [r2]
 134              	.LVL7:
 225:.\Generated_Source\PSoC5/Tamper_Timer_ISR.c ****     ramVectorTable[CYINT_IRQ_BASE + (uint32)Tamper_Timer_ISR__INTC_NUMBER] = address;
 135              		.loc 1 225 0
 136 000e 0649     		ldr	r1, .L13+4
 137 0010 C2F88410 		str	r1, [r2, #132]
ARM GAS  C:\Users\Yiquing\AppData\Local\Temp\ccFWVw2J.s 			page 10


 138              	.LVL8:
 139              	.LBE25:
 140              	.LBE24:
 141              	.LBB26:
 142              	.LBB27:
 279:.\Generated_Source\PSoC5/Tamper_Timer_ISR.c ****     *Tamper_Timer_ISR_INTC_PRIOR = priority << 5;
 143              		.loc 1 279 0
 144 0014 054A     		ldr	r2, .L13+8
 145              	.LVL9:
 146 0016 E021     		movs	r1, #224
 147 0018 1170     		strb	r1, [r2]
 148              	.LBE27:
 149              	.LBE26:
 150              	.LBB28:
 151              	.LBB29:
 329:.\Generated_Source\PSoC5/Tamper_Timer_ISR.c ****     *Tamper_Timer_ISR_INTC_SET_EN = Tamper_Timer_ISR__INTC_MASK;
 152              		.loc 1 329 0
 153 001a 6FF44471 		mvn	r1, #784
 154 001e 0A44     		add	r2, r2, r1
 155 0020 1360     		str	r3, [r2]
 156 0022 7047     		bx	lr
 157              	.L14:
 158              		.align	2
 159              	.L13:
 160 0024 80E100E0 		.word	-536813184
 161 0028 00000000 		.word	Tamper_Timer_ISR_Interrupt
 162 002c 11E400E0 		.word	-536812527
 163              	.LBE29:
 164              	.LBE28:
 165              		.cfi_endproc
 166              	.LFE0:
 167              		.size	Tamper_Timer_ISR_Start, .-Tamper_Timer_ISR_Start
 168              		.section	.text.Tamper_Timer_ISR_StartEx,"ax",%progbits
 169              		.align	1
 170              		.global	Tamper_Timer_ISR_StartEx
 171              		.thumb
 172              		.thumb_func
 173              		.type	Tamper_Timer_ISR_StartEx, %function
 174              	Tamper_Timer_ISR_StartEx:
 175              	.LFB1:
 107:.\Generated_Source\PSoC5/Tamper_Timer_ISR.c **** {
 176              		.loc 1 107 0
 177              		.cfi_startproc
 178              		@ args = 0, pretend = 0, frame = 0
 179              		@ frame_needed = 0, uses_anonymous_args = 0
 180              		@ link register save eliminated.
 181              	.LVL10:
 182              	.LBB30:
 183              	.LBB31:
 184              		.loc 1 371 0
 185 0000 084A     		ldr	r2, .L16
 186 0002 4FF40033 		mov	r3, #131072
 187 0006 1360     		str	r3, [r2]
 188              	.LVL11:
 189              	.LBE31:
 190              	.LBE30:
 191              	.LBB32:
ARM GAS  C:\Users\Yiquing\AppData\Local\Temp\ccFWVw2J.s 			page 11


 192              	.LBB33:
 223:.\Generated_Source\PSoC5/Tamper_Timer_ISR.c ****     ramVectorTable = (cyisraddress *) *CYINT_VECT_TABLE;
 193              		.loc 1 223 0
 194 0008 02F68832 		addw	r2, r2, #2952
 195 000c 1268     		ldr	r2, [r2]
 196              	.LVL12:
 197              	.LBE33:
 198              	.LBE32:
 199              	.LBB35:
 200              	.LBB36:
 279:.\Generated_Source\PSoC5/Tamper_Timer_ISR.c ****     *Tamper_Timer_ISR_INTC_PRIOR = priority << 5;
 201              		.loc 1 279 0
 202 000e E021     		movs	r1, #224
 203              	.LBE36:
 204              	.LBE35:
 205              	.LBB38:
 206              	.LBB34:
 225:.\Generated_Source\PSoC5/Tamper_Timer_ISR.c ****     ramVectorTable[CYINT_IRQ_BASE + (uint32)Tamper_Timer_ISR__INTC_NUMBER] = address;
 207              		.loc 1 225 0
 208 0010 C2F88400 		str	r0, [r2, #132]
 209              	.LVL13:
 210              	.LBE34:
 211              	.LBE38:
 212              	.LBB39:
 213              	.LBB37:
 279:.\Generated_Source\PSoC5/Tamper_Timer_ISR.c ****     *Tamper_Timer_ISR_INTC_PRIOR = priority << 5;
 214              		.loc 1 279 0
 215 0014 044A     		ldr	r2, .L16+4
 216              	.LVL14:
 217 0016 1170     		strb	r1, [r2]
 218              	.LBE37:
 219              	.LBE39:
 220              	.LBB40:
 221              	.LBB41:
 329:.\Generated_Source\PSoC5/Tamper_Timer_ISR.c ****     *Tamper_Timer_ISR_INTC_SET_EN = Tamper_Timer_ISR__INTC_MASK;
 222              		.loc 1 329 0
 223 0018 6FF44471 		mvn	r1, #784
 224 001c 0A44     		add	r2, r2, r1
 225 001e 1360     		str	r3, [r2]
 226 0020 7047     		bx	lr
 227              	.L17:
 228 0022 00BF     		.align	2
 229              	.L16:
 230 0024 80E100E0 		.word	-536813184
 231 0028 11E400E0 		.word	-536812527
 232              	.LBE41:
 233              	.LBE40:
 234              		.cfi_endproc
 235              	.LFE1:
 236              		.size	Tamper_Timer_ISR_StartEx, .-Tamper_Timer_ISR_StartEx
 237              		.section	.text.Tamper_Timer_ISR_Stop,"ax",%progbits
 238              		.align	1
 239              		.global	Tamper_Timer_ISR_Stop
 240              		.thumb
 241              		.thumb_func
 242              		.type	Tamper_Timer_ISR_Stop, %function
 243              	Tamper_Timer_ISR_Stop:
ARM GAS  C:\Users\Yiquing\AppData\Local\Temp\ccFWVw2J.s 			page 12


 244              	.LFB2:
 137:.\Generated_Source\PSoC5/Tamper_Timer_ISR.c **** {
 245              		.loc 1 137 0
 246              		.cfi_startproc
 247              		@ args = 0, pretend = 0, frame = 0
 248              		@ frame_needed = 0, uses_anonymous_args = 0
 249              		@ link register save eliminated.
 250              	.LBB42:
 251              	.LBB43:
 252              		.loc 1 371 0
 253 0000 054B     		ldr	r3, .L19
 254 0002 4FF40032 		mov	r2, #131072
 255 0006 1A60     		str	r2, [r3]
 256              	.LVL15:
 257              	.LBE43:
 258              	.LBE42:
 259              	.LBB44:
 260              	.LBB45:
 223:.\Generated_Source\PSoC5/Tamper_Timer_ISR.c ****     ramVectorTable = (cyisraddress *) *CYINT_VECT_TABLE;
 261              		.loc 1 223 0
 262 0008 03F68833 		addw	r3, r3, #2952
 263 000c 1B68     		ldr	r3, [r3]
 264              	.LVL16:
 225:.\Generated_Source\PSoC5/Tamper_Timer_ISR.c ****     ramVectorTable[CYINT_IRQ_BASE + (uint32)Tamper_Timer_ISR__INTC_NUMBER] = address;
 265              		.loc 1 225 0
 266 000e 034A     		ldr	r2, .L19+4
 267 0010 C3F88420 		str	r2, [r3, #132]
 268 0014 7047     		bx	lr
 269              	.L20:
 270 0016 00BF     		.align	2
 271              	.L19:
 272 0018 80E100E0 		.word	-536813184
 273 001c 00000000 		.word	IntDefaultHandler
 274              	.LBE45:
 275              	.LBE44:
 276              		.cfi_endproc
 277              	.LFE2:
 278              		.size	Tamper_Timer_ISR_Stop, .-Tamper_Timer_ISR_Stop
 279              		.section	.text.Tamper_Timer_ISR_SetVector,"ax",%progbits
 280              		.align	1
 281              		.global	Tamper_Timer_ISR_SetVector
 282              		.thumb
 283              		.thumb_func
 284              		.type	Tamper_Timer_ISR_SetVector, %function
 285              	Tamper_Timer_ISR_SetVector:
 286              	.LFB4:
 220:.\Generated_Source\PSoC5/Tamper_Timer_ISR.c **** {
 287              		.loc 1 220 0
 288              		.cfi_startproc
 289              		@ args = 0, pretend = 0, frame = 0
 290              		@ frame_needed = 0, uses_anonymous_args = 0
 291              		@ link register save eliminated.
 292              	.LVL17:
 223:.\Generated_Source\PSoC5/Tamper_Timer_ISR.c ****     ramVectorTable = (cyisraddress *) *CYINT_VECT_TABLE;
 293              		.loc 1 223 0
 294 0000 024B     		ldr	r3, .L22
 295 0002 1B68     		ldr	r3, [r3]
ARM GAS  C:\Users\Yiquing\AppData\Local\Temp\ccFWVw2J.s 			page 13


 296              	.LVL18:
 225:.\Generated_Source\PSoC5/Tamper_Timer_ISR.c ****     ramVectorTable[CYINT_IRQ_BASE + (uint32)Tamper_Timer_ISR__INTC_NUMBER] = address;
 297              		.loc 1 225 0
 298 0004 C3F88400 		str	r0, [r3, #132]
 299 0008 7047     		bx	lr
 300              	.L23:
 301 000a 00BF     		.align	2
 302              	.L22:
 303 000c 08ED00E0 		.word	-536810232
 304              		.cfi_endproc
 305              	.LFE4:
 306              		.size	Tamper_Timer_ISR_SetVector, .-Tamper_Timer_ISR_SetVector
 307              		.section	.text.Tamper_Timer_ISR_GetVector,"ax",%progbits
 308              		.align	1
 309              		.global	Tamper_Timer_ISR_GetVector
 310              		.thumb
 311              		.thumb_func
 312              		.type	Tamper_Timer_ISR_GetVector, %function
 313              	Tamper_Timer_ISR_GetVector:
 314              	.LFB5:
 244:.\Generated_Source\PSoC5/Tamper_Timer_ISR.c **** {
 315              		.loc 1 244 0
 316              		.cfi_startproc
 317              		@ args = 0, pretend = 0, frame = 0
 318              		@ frame_needed = 0, uses_anonymous_args = 0
 319              		@ link register save eliminated.
 320              	.LVL19:
 247:.\Generated_Source\PSoC5/Tamper_Timer_ISR.c ****     ramVectorTable = (cyisraddress *) *CYINT_VECT_TABLE;
 321              		.loc 1 247 0
 322 0000 024B     		ldr	r3, .L25
 323              	.LVL20:
 249:.\Generated_Source\PSoC5/Tamper_Timer_ISR.c ****     return ramVectorTable[CYINT_IRQ_BASE + (uint32)Tamper_Timer_ISR__INTC_NUMBER];
 324              		.loc 1 249 0
 325 0002 1B68     		ldr	r3, [r3]
 326              	.LVL21:
 250:.\Generated_Source\PSoC5/Tamper_Timer_ISR.c **** }
 327              		.loc 1 250 0
 328 0004 D3F88400 		ldr	r0, [r3, #132]
 329 0008 7047     		bx	lr
 330              	.L26:
 331 000a 00BF     		.align	2
 332              	.L25:
 333 000c 08ED00E0 		.word	-536810232
 334              		.cfi_endproc
 335              	.LFE5:
 336              		.size	Tamper_Timer_ISR_GetVector, .-Tamper_Timer_ISR_GetVector
 337              		.section	.text.Tamper_Timer_ISR_SetPriority,"ax",%progbits
 338              		.align	1
 339              		.global	Tamper_Timer_ISR_SetPriority
 340              		.thumb
 341              		.thumb_func
 342              		.type	Tamper_Timer_ISR_SetPriority, %function
 343              	Tamper_Timer_ISR_SetPriority:
 344              	.LFB6:
 278:.\Generated_Source\PSoC5/Tamper_Timer_ISR.c **** {
 345              		.loc 1 278 0
 346              		.cfi_startproc
ARM GAS  C:\Users\Yiquing\AppData\Local\Temp\ccFWVw2J.s 			page 14


 347              		@ args = 0, pretend = 0, frame = 0
 348              		@ frame_needed = 0, uses_anonymous_args = 0
 349              		@ link register save eliminated.
 350              	.LVL22:
 279:.\Generated_Source\PSoC5/Tamper_Timer_ISR.c ****     *Tamper_Timer_ISR_INTC_PRIOR = priority << 5;
 351              		.loc 1 279 0
 352 0000 4001     		lsls	r0, r0, #5
 353              	.LVL23:
 354 0002 024B     		ldr	r3, .L28
 355 0004 C0B2     		uxtb	r0, r0
 356 0006 1870     		strb	r0, [r3]
 357 0008 7047     		bx	lr
 358              	.L29:
 359 000a 00BF     		.align	2
 360              	.L28:
 361 000c 11E400E0 		.word	-536812527
 362              		.cfi_endproc
 363              	.LFE6:
 364              		.size	Tamper_Timer_ISR_SetPriority, .-Tamper_Timer_ISR_SetPriority
 365              		.section	.text.Tamper_Timer_ISR_GetPriority,"ax",%progbits
 366              		.align	1
 367              		.global	Tamper_Timer_ISR_GetPriority
 368              		.thumb
 369              		.thumb_func
 370              		.type	Tamper_Timer_ISR_GetPriority, %function
 371              	Tamper_Timer_ISR_GetPriority:
 372              	.LFB7:
 300:.\Generated_Source\PSoC5/Tamper_Timer_ISR.c **** {
 373              		.loc 1 300 0
 374              		.cfi_startproc
 375              		@ args = 0, pretend = 0, frame = 0
 376              		@ frame_needed = 0, uses_anonymous_args = 0
 377              		@ link register save eliminated.
 304:.\Generated_Source\PSoC5/Tamper_Timer_ISR.c ****     priority = *Tamper_Timer_ISR_INTC_PRIOR >> 5;
 378              		.loc 1 304 0
 379 0000 014B     		ldr	r3, .L31
 380 0002 1878     		ldrb	r0, [r3]	@ zero_extendqisi2
 381              	.LVL24:
 307:.\Generated_Source\PSoC5/Tamper_Timer_ISR.c **** }
 382              		.loc 1 307 0
 383 0004 4009     		lsrs	r0, r0, #5
 384              	.LVL25:
 385 0006 7047     		bx	lr
 386              	.L32:
 387              		.align	2
 388              	.L31:
 389 0008 11E400E0 		.word	-536812527
 390              		.cfi_endproc
 391              	.LFE7:
 392              		.size	Tamper_Timer_ISR_GetPriority, .-Tamper_Timer_ISR_GetPriority
 393              		.section	.text.Tamper_Timer_ISR_Enable,"ax",%progbits
 394              		.align	1
 395              		.global	Tamper_Timer_ISR_Enable
 396              		.thumb
 397              		.thumb_func
 398              		.type	Tamper_Timer_ISR_Enable, %function
 399              	Tamper_Timer_ISR_Enable:
ARM GAS  C:\Users\Yiquing\AppData\Local\Temp\ccFWVw2J.s 			page 15


 400              	.LFB8:
 327:.\Generated_Source\PSoC5/Tamper_Timer_ISR.c **** {
 401              		.loc 1 327 0
 402              		.cfi_startproc
 403              		@ args = 0, pretend = 0, frame = 0
 404              		@ frame_needed = 0, uses_anonymous_args = 0
 405              		@ link register save eliminated.
 329:.\Generated_Source\PSoC5/Tamper_Timer_ISR.c ****     *Tamper_Timer_ISR_INTC_SET_EN = Tamper_Timer_ISR__INTC_MASK;
 406              		.loc 1 329 0
 407 0000 024B     		ldr	r3, .L34
 408 0002 4FF40032 		mov	r2, #131072
 409 0006 1A60     		str	r2, [r3]
 410 0008 7047     		bx	lr
 411              	.L35:
 412 000a 00BF     		.align	2
 413              	.L34:
 414 000c 00E100E0 		.word	-536813312
 415              		.cfi_endproc
 416              	.LFE8:
 417              		.size	Tamper_Timer_ISR_Enable, .-Tamper_Timer_ISR_Enable
 418              		.section	.text.Tamper_Timer_ISR_GetState,"ax",%progbits
 419              		.align	1
 420              		.global	Tamper_Timer_ISR_GetState
 421              		.thumb
 422              		.thumb_func
 423              		.type	Tamper_Timer_ISR_GetState, %function
 424              	Tamper_Timer_ISR_GetState:
 425              	.LFB9:
 348:.\Generated_Source\PSoC5/Tamper_Timer_ISR.c **** {
 426              		.loc 1 348 0
 427              		.cfi_startproc
 428              		@ args = 0, pretend = 0, frame = 0
 429              		@ frame_needed = 0, uses_anonymous_args = 0
 430              		@ link register save eliminated.
 350:.\Generated_Source\PSoC5/Tamper_Timer_ISR.c ****     return ((*Tamper_Timer_ISR_INTC_SET_EN & (uint32)Tamper_Timer_ISR__INTC_MASK) != 0u) ? 1u:0u;
 431              		.loc 1 350 0
 432 0000 024B     		ldr	r3, .L37
 433 0002 1868     		ldr	r0, [r3]
 351:.\Generated_Source\PSoC5/Tamper_Timer_ISR.c **** }
 434              		.loc 1 351 0
 435 0004 C0F34040 		ubfx	r0, r0, #17, #1
 436 0008 7047     		bx	lr
 437              	.L38:
 438 000a 00BF     		.align	2
 439              	.L37:
 440 000c 00E100E0 		.word	-536813312
 441              		.cfi_endproc
 442              	.LFE9:
 443              		.size	Tamper_Timer_ISR_GetState, .-Tamper_Timer_ISR_GetState
 444              		.section	.text.Tamper_Timer_ISR_Disable,"ax",%progbits
 445              		.align	1
 446              		.global	Tamper_Timer_ISR_Disable
 447              		.thumb
 448              		.thumb_func
 449              		.type	Tamper_Timer_ISR_Disable, %function
 450              	Tamper_Timer_ISR_Disable:
 451              	.LFB10:
ARM GAS  C:\Users\Yiquing\AppData\Local\Temp\ccFWVw2J.s 			page 16


 369:.\Generated_Source\PSoC5/Tamper_Timer_ISR.c **** {
 452              		.loc 1 369 0
 453              		.cfi_startproc
 454              		@ args = 0, pretend = 0, frame = 0
 455              		@ frame_needed = 0, uses_anonymous_args = 0
 456              		@ link register save eliminated.
 457              		.loc 1 371 0
 458 0000 024B     		ldr	r3, .L40
 459 0002 4FF40032 		mov	r2, #131072
 460 0006 1A60     		str	r2, [r3]
 461 0008 7047     		bx	lr
 462              	.L41:
 463 000a 00BF     		.align	2
 464              	.L40:
 465 000c 80E100E0 		.word	-536813184
 466              		.cfi_endproc
 467              	.LFE10:
 468              		.size	Tamper_Timer_ISR_Disable, .-Tamper_Timer_ISR_Disable
 469              		.section	.text.Tamper_Timer_ISR_SetPending,"ax",%progbits
 470              		.align	1
 471              		.global	Tamper_Timer_ISR_SetPending
 472              		.thumb
 473              		.thumb_func
 474              		.type	Tamper_Timer_ISR_SetPending, %function
 475              	Tamper_Timer_ISR_SetPending:
 476              	.LFB11:
 372:.\Generated_Source\PSoC5/Tamper_Timer_ISR.c **** }
 373:.\Generated_Source\PSoC5/Tamper_Timer_ISR.c **** 
 374:.\Generated_Source\PSoC5/Tamper_Timer_ISR.c **** 
 375:.\Generated_Source\PSoC5/Tamper_Timer_ISR.c **** /*******************************************************************************
 376:.\Generated_Source\PSoC5/Tamper_Timer_ISR.c **** * Function Name: Tamper_Timer_ISR_SetPending
 377:.\Generated_Source\PSoC5/Tamper_Timer_ISR.c **** ********************************************************************************
 378:.\Generated_Source\PSoC5/Tamper_Timer_ISR.c **** *
 379:.\Generated_Source\PSoC5/Tamper_Timer_ISR.c **** * Summary:
 380:.\Generated_Source\PSoC5/Tamper_Timer_ISR.c **** *   Causes the Interrupt to enter the pending state, a software method of
 381:.\Generated_Source\PSoC5/Tamper_Timer_ISR.c **** *   generating the interrupt.
 382:.\Generated_Source\PSoC5/Tamper_Timer_ISR.c **** *
 383:.\Generated_Source\PSoC5/Tamper_Timer_ISR.c **** * Parameters:
 384:.\Generated_Source\PSoC5/Tamper_Timer_ISR.c **** *   None
 385:.\Generated_Source\PSoC5/Tamper_Timer_ISR.c **** *
 386:.\Generated_Source\PSoC5/Tamper_Timer_ISR.c **** * Return:
 387:.\Generated_Source\PSoC5/Tamper_Timer_ISR.c **** *   None
 388:.\Generated_Source\PSoC5/Tamper_Timer_ISR.c **** *
 389:.\Generated_Source\PSoC5/Tamper_Timer_ISR.c **** * Side Effects:
 390:.\Generated_Source\PSoC5/Tamper_Timer_ISR.c **** *   If interrupts are enabled and the interrupt is set up properly, the ISR is
 391:.\Generated_Source\PSoC5/Tamper_Timer_ISR.c **** *   entered (depending on the priority of this interrupt and other pending 
 392:.\Generated_Source\PSoC5/Tamper_Timer_ISR.c **** *   interrupts).
 393:.\Generated_Source\PSoC5/Tamper_Timer_ISR.c **** *
 394:.\Generated_Source\PSoC5/Tamper_Timer_ISR.c **** *******************************************************************************/
 395:.\Generated_Source\PSoC5/Tamper_Timer_ISR.c **** void Tamper_Timer_ISR_SetPending(void)
 396:.\Generated_Source\PSoC5/Tamper_Timer_ISR.c **** {
 477              		.loc 1 396 0
 478              		.cfi_startproc
 479              		@ args = 0, pretend = 0, frame = 0
 480              		@ frame_needed = 0, uses_anonymous_args = 0
 481              		@ link register save eliminated.
 397:.\Generated_Source\PSoC5/Tamper_Timer_ISR.c ****     *Tamper_Timer_ISR_INTC_SET_PD = Tamper_Timer_ISR__INTC_MASK;
ARM GAS  C:\Users\Yiquing\AppData\Local\Temp\ccFWVw2J.s 			page 17


 482              		.loc 1 397 0
 483 0000 024B     		ldr	r3, .L43
 484 0002 4FF40032 		mov	r2, #131072
 485 0006 1A60     		str	r2, [r3]
 486 0008 7047     		bx	lr
 487              	.L44:
 488 000a 00BF     		.align	2
 489              	.L43:
 490 000c 00E200E0 		.word	-536813056
 491              		.cfi_endproc
 492              	.LFE11:
 493              		.size	Tamper_Timer_ISR_SetPending, .-Tamper_Timer_ISR_SetPending
 494              		.section	.text.Tamper_Timer_ISR_ClearPending,"ax",%progbits
 495              		.align	1
 496              		.global	Tamper_Timer_ISR_ClearPending
 497              		.thumb
 498              		.thumb_func
 499              		.type	Tamper_Timer_ISR_ClearPending, %function
 500              	Tamper_Timer_ISR_ClearPending:
 501              	.LFB12:
 398:.\Generated_Source\PSoC5/Tamper_Timer_ISR.c **** }
 399:.\Generated_Source\PSoC5/Tamper_Timer_ISR.c **** 
 400:.\Generated_Source\PSoC5/Tamper_Timer_ISR.c **** 
 401:.\Generated_Source\PSoC5/Tamper_Timer_ISR.c **** /*******************************************************************************
 402:.\Generated_Source\PSoC5/Tamper_Timer_ISR.c **** * Function Name: Tamper_Timer_ISR_ClearPending
 403:.\Generated_Source\PSoC5/Tamper_Timer_ISR.c **** ********************************************************************************
 404:.\Generated_Source\PSoC5/Tamper_Timer_ISR.c **** *
 405:.\Generated_Source\PSoC5/Tamper_Timer_ISR.c **** * Summary:
 406:.\Generated_Source\PSoC5/Tamper_Timer_ISR.c **** *   Clears a pending interrupt in the interrupt controller.
 407:.\Generated_Source\PSoC5/Tamper_Timer_ISR.c **** *
 408:.\Generated_Source\PSoC5/Tamper_Timer_ISR.c **** *   Note Some interrupt sources are clear-on-read and require the block 
 409:.\Generated_Source\PSoC5/Tamper_Timer_ISR.c **** *   interrupt/status register to be read/cleared with the appropriate block API 
 410:.\Generated_Source\PSoC5/Tamper_Timer_ISR.c **** *   (GPIO, UART, and so on). Otherwise the ISR will continue to remain in 
 411:.\Generated_Source\PSoC5/Tamper_Timer_ISR.c **** *   pending state even though the interrupt itself is cleared using this API.
 412:.\Generated_Source\PSoC5/Tamper_Timer_ISR.c **** *
 413:.\Generated_Source\PSoC5/Tamper_Timer_ISR.c **** * Parameters:
 414:.\Generated_Source\PSoC5/Tamper_Timer_ISR.c **** *   None
 415:.\Generated_Source\PSoC5/Tamper_Timer_ISR.c **** *
 416:.\Generated_Source\PSoC5/Tamper_Timer_ISR.c **** * Return:
 417:.\Generated_Source\PSoC5/Tamper_Timer_ISR.c **** *   None
 418:.\Generated_Source\PSoC5/Tamper_Timer_ISR.c **** *
 419:.\Generated_Source\PSoC5/Tamper_Timer_ISR.c **** *******************************************************************************/
 420:.\Generated_Source\PSoC5/Tamper_Timer_ISR.c **** void Tamper_Timer_ISR_ClearPending(void)
 421:.\Generated_Source\PSoC5/Tamper_Timer_ISR.c **** {
 502              		.loc 1 421 0
 503              		.cfi_startproc
 504              		@ args = 0, pretend = 0, frame = 0
 505              		@ frame_needed = 0, uses_anonymous_args = 0
 506              		@ link register save eliminated.
 422:.\Generated_Source\PSoC5/Tamper_Timer_ISR.c ****     *Tamper_Timer_ISR_INTC_CLR_PD = Tamper_Timer_ISR__INTC_MASK;
 507              		.loc 1 422 0
 508 0000 024B     		ldr	r3, .L46
 509 0002 4FF40032 		mov	r2, #131072
 510 0006 1A60     		str	r2, [r3]
 511 0008 7047     		bx	lr
 512              	.L47:
 513 000a 00BF     		.align	2
ARM GAS  C:\Users\Yiquing\AppData\Local\Temp\ccFWVw2J.s 			page 18


 514              	.L46:
 515 000c 80E200E0 		.word	-536812928
 516              		.cfi_endproc
 517              	.LFE12:
 518              		.size	Tamper_Timer_ISR_ClearPending, .-Tamper_Timer_ISR_ClearPending
 519              		.comm	card_in_buf,4,4
 520              		.comm	card_ack,4,4
 521              		.comm	TAMPERCR_POLARITY,4,4
 522              		.comm	old,1,1
 523              		.comm	currentAccessType,1,1
 524              		.comm	s,40,4
 525              		.text
 526              	.Letext0:
 527              		.file 2 "Generated_Source\\PSoC5/cytypes.h"
 528              		.file 3 "./softuart.h"
 529              		.file 4 "./system.h"
 530              		.file 5 "Generated_Source\\PSoC5/PS_D1.h"
 531              		.file 6 ".\\Generated_Source\\PSoC5\\Tamper_Timer.h"
 532              		.file 7 "./inout.h"