ARM GAS  C:\Users\Yiquing\AppData\Local\Temp\ccGpbWUH.s 			page 1


   1              		.syntax unified
   2              		.cpu cortex-m3
   3              		.fpu softvfp
   4              		.eabi_attribute 20, 1
   5              		.eabi_attribute 21, 1
   6              		.eabi_attribute 23, 3
   7              		.eabi_attribute 24, 1
   8              		.eabi_attribute 25, 1
   9              		.eabi_attribute 26, 1
  10              		.eabi_attribute 30, 4
  11              		.eabi_attribute 34, 1
  12              		.eabi_attribute 18, 4
  13              		.thumb
  14              		.file	"Timeout_Timer.c"
  15              		.text
  16              	.Ltext0:
  17              		.cfi_sections	.debug_frame
  18              		.section	.text.Timeout_Timer_Init,"ax",%progbits
  19              		.align	1
  20              		.global	Timeout_Timer_Init
  21              		.thumb
  22              		.thumb_func
  23              		.type	Timeout_Timer_Init, %function
  24              	Timeout_Timer_Init:
  25              	.LFB0:
  26              		.file 1 ".\\Generated_Source\\PSoC5\\Timeout_Timer.c"
   1:.\Generated_Source\PSoC5/Timeout_Timer.c **** /*******************************************************************************
   2:.\Generated_Source\PSoC5/Timeout_Timer.c **** * File Name: Timeout_Timer.c
   3:.\Generated_Source\PSoC5/Timeout_Timer.c **** * Version 2.70
   4:.\Generated_Source\PSoC5/Timeout_Timer.c **** *
   5:.\Generated_Source\PSoC5/Timeout_Timer.c **** * Description:
   6:.\Generated_Source\PSoC5/Timeout_Timer.c **** *  The Timer component consists of a 8, 16, 24 or 32-bit timer with
   7:.\Generated_Source\PSoC5/Timeout_Timer.c **** *  a selectable period between 2 and 2^Width - 1.  The timer may free run
   8:.\Generated_Source\PSoC5/Timeout_Timer.c **** *  or be used as a capture timer as well.  The capture can be initiated
   9:.\Generated_Source\PSoC5/Timeout_Timer.c **** *  by a positive or negative edge signal as well as via software.
  10:.\Generated_Source\PSoC5/Timeout_Timer.c **** *  A trigger input can be programmed to enable the timer on rising edge
  11:.\Generated_Source\PSoC5/Timeout_Timer.c **** *  falling edge, either edge or continous run.
  12:.\Generated_Source\PSoC5/Timeout_Timer.c **** *  Interrupts may be generated due to a terminal count condition
  13:.\Generated_Source\PSoC5/Timeout_Timer.c **** *  or a capture event.
  14:.\Generated_Source\PSoC5/Timeout_Timer.c **** *
  15:.\Generated_Source\PSoC5/Timeout_Timer.c **** * Note:
  16:.\Generated_Source\PSoC5/Timeout_Timer.c **** *
  17:.\Generated_Source\PSoC5/Timeout_Timer.c **** ********************************************************************************
  18:.\Generated_Source\PSoC5/Timeout_Timer.c **** * Copyright 2008-2014, Cypress Semiconductor Corporation.  All rights reserved.
  19:.\Generated_Source\PSoC5/Timeout_Timer.c **** * You may use this file only in accordance with the license, terms, conditions,
  20:.\Generated_Source\PSoC5/Timeout_Timer.c **** * disclaimers, and limitations in the end user license agreement accompanying
  21:.\Generated_Source\PSoC5/Timeout_Timer.c **** * the software package with which this file was provided.
  22:.\Generated_Source\PSoC5/Timeout_Timer.c **** ********************************************************************************/
  23:.\Generated_Source\PSoC5/Timeout_Timer.c **** 
  24:.\Generated_Source\PSoC5/Timeout_Timer.c **** #include "Timeout_Timer.h"
  25:.\Generated_Source\PSoC5/Timeout_Timer.c **** 
  26:.\Generated_Source\PSoC5/Timeout_Timer.c **** uint8 Timeout_Timer_initVar = 0u;
  27:.\Generated_Source\PSoC5/Timeout_Timer.c **** 
  28:.\Generated_Source\PSoC5/Timeout_Timer.c **** 
  29:.\Generated_Source\PSoC5/Timeout_Timer.c **** /*******************************************************************************
  30:.\Generated_Source\PSoC5/Timeout_Timer.c **** * Function Name: Timeout_Timer_Init
  31:.\Generated_Source\PSoC5/Timeout_Timer.c **** ********************************************************************************
ARM GAS  C:\Users\Yiquing\AppData\Local\Temp\ccGpbWUH.s 			page 2


  32:.\Generated_Source\PSoC5/Timeout_Timer.c **** *
  33:.\Generated_Source\PSoC5/Timeout_Timer.c **** * Summary:
  34:.\Generated_Source\PSoC5/Timeout_Timer.c **** *  Initialize to the schematic state
  35:.\Generated_Source\PSoC5/Timeout_Timer.c **** *
  36:.\Generated_Source\PSoC5/Timeout_Timer.c **** * Parameters:
  37:.\Generated_Source\PSoC5/Timeout_Timer.c **** *  void
  38:.\Generated_Source\PSoC5/Timeout_Timer.c **** *
  39:.\Generated_Source\PSoC5/Timeout_Timer.c **** * Return:
  40:.\Generated_Source\PSoC5/Timeout_Timer.c **** *  void
  41:.\Generated_Source\PSoC5/Timeout_Timer.c **** *
  42:.\Generated_Source\PSoC5/Timeout_Timer.c **** *******************************************************************************/
  43:.\Generated_Source\PSoC5/Timeout_Timer.c **** void Timeout_Timer_Init(void) 
  44:.\Generated_Source\PSoC5/Timeout_Timer.c **** {
  27              		.loc 1 44 0
  28              		.cfi_startproc
  29              		@ args = 0, pretend = 0, frame = 0
  30              		@ frame_needed = 0, uses_anonymous_args = 0
  31              		@ link register save eliminated.
  45:.\Generated_Source\PSoC5/Timeout_Timer.c ****     #if(!Timeout_Timer_UsingFixedFunction)
  46:.\Generated_Source\PSoC5/Timeout_Timer.c ****             /* Interrupt State Backup for Critical Region*/
  47:.\Generated_Source\PSoC5/Timeout_Timer.c ****             uint8 Timeout_Timer_interruptState;
  48:.\Generated_Source\PSoC5/Timeout_Timer.c ****     #endif /* Interrupt state back up for Fixed Function only */
  49:.\Generated_Source\PSoC5/Timeout_Timer.c **** 
  50:.\Generated_Source\PSoC5/Timeout_Timer.c ****     #if (Timeout_Timer_UsingFixedFunction)
  51:.\Generated_Source\PSoC5/Timeout_Timer.c ****         /* Clear all bits but the enable bit (if it's already set) for Timer operation */
  52:.\Generated_Source\PSoC5/Timeout_Timer.c ****         Timeout_Timer_CONTROL &= Timeout_Timer_CTRL_ENABLE;
  32              		.loc 1 52 0
  33 0000 124B     		ldr	r3, .L2
  34 0002 1A78     		ldrb	r2, [r3]	@ zero_extendqisi2
  35 0004 02F00102 		and	r2, r2, #1
  36 0008 1A70     		strb	r2, [r3]
  53:.\Generated_Source\PSoC5/Timeout_Timer.c **** 
  54:.\Generated_Source\PSoC5/Timeout_Timer.c ****         /* Clear the mode bits for continuous run mode */
  55:.\Generated_Source\PSoC5/Timeout_Timer.c ****         #if (CY_PSOC5A)
  56:.\Generated_Source\PSoC5/Timeout_Timer.c ****             Timeout_Timer_CONTROL2 &= ((uint8)(~Timeout_Timer_CTRL_MODE_MASK));
  57:.\Generated_Source\PSoC5/Timeout_Timer.c ****         #endif /* Clear bits in CONTROL2 only in PSOC5A */
  58:.\Generated_Source\PSoC5/Timeout_Timer.c **** 
  59:.\Generated_Source\PSoC5/Timeout_Timer.c ****         #if (CY_PSOC3 || CY_PSOC5LP)
  60:.\Generated_Source\PSoC5/Timeout_Timer.c ****             Timeout_Timer_CONTROL3 &= ((uint8)(~Timeout_Timer_CTRL_MODE_MASK));
  37              		.loc 1 60 0
  38 000a 9A78     		ldrb	r2, [r3, #2]	@ zero_extendqisi2
  39 000c 02F0FC02 		and	r2, r2, #252
  40 0010 9A70     		strb	r2, [r3, #2]
  61:.\Generated_Source\PSoC5/Timeout_Timer.c ****         #endif /* CONTROL3 register exists only in PSoC3 OR PSoC5LP */
  62:.\Generated_Source\PSoC5/Timeout_Timer.c **** 
  63:.\Generated_Source\PSoC5/Timeout_Timer.c ****         /* Check if One Shot mode is enabled i.e. RunMode !=0*/
  64:.\Generated_Source\PSoC5/Timeout_Timer.c ****         #if (Timeout_Timer_RunModeUsed != 0x0u)
  65:.\Generated_Source\PSoC5/Timeout_Timer.c ****             /* Set 3rd bit of Control register to enable one shot mode */
  66:.\Generated_Source\PSoC5/Timeout_Timer.c ****             Timeout_Timer_CONTROL |= 0x04u;
  67:.\Generated_Source\PSoC5/Timeout_Timer.c ****         #endif /* One Shot enabled only when RunModeUsed is not Continuous*/
  68:.\Generated_Source\PSoC5/Timeout_Timer.c **** 
  69:.\Generated_Source\PSoC5/Timeout_Timer.c ****         #if (Timeout_Timer_RunModeUsed == 2)
  70:.\Generated_Source\PSoC5/Timeout_Timer.c ****             #if (CY_PSOC5A)
  71:.\Generated_Source\PSoC5/Timeout_Timer.c ****                 /* Set last 2 bits of control2 register if one shot(halt on
  72:.\Generated_Source\PSoC5/Timeout_Timer.c ****                 interrupt) is enabled*/
  73:.\Generated_Source\PSoC5/Timeout_Timer.c ****                 Timeout_Timer_CONTROL2 |= 0x03u;
  74:.\Generated_Source\PSoC5/Timeout_Timer.c ****             #endif /* Set One-Shot Halt on Interrupt bit in CONTROL2 for PSoC5A */
ARM GAS  C:\Users\Yiquing\AppData\Local\Temp\ccGpbWUH.s 			page 3


  75:.\Generated_Source\PSoC5/Timeout_Timer.c **** 
  76:.\Generated_Source\PSoC5/Timeout_Timer.c ****             #if (CY_PSOC3 || CY_PSOC5LP)
  77:.\Generated_Source\PSoC5/Timeout_Timer.c ****                 /* Set last 2 bits of control3 register if one shot(halt on
  78:.\Generated_Source\PSoC5/Timeout_Timer.c ****                 interrupt) is enabled*/
  79:.\Generated_Source\PSoC5/Timeout_Timer.c ****                 Timeout_Timer_CONTROL3 |= 0x03u;
  80:.\Generated_Source\PSoC5/Timeout_Timer.c ****             #endif /* Set One-Shot Halt on Interrupt bit in CONTROL3 for PSoC3 or PSoC5LP */
  81:.\Generated_Source\PSoC5/Timeout_Timer.c **** 
  82:.\Generated_Source\PSoC5/Timeout_Timer.c ****         #endif /* Remove section if One Shot Halt on Interrupt is not enabled */
  83:.\Generated_Source\PSoC5/Timeout_Timer.c **** 
  84:.\Generated_Source\PSoC5/Timeout_Timer.c ****         #if (Timeout_Timer_UsingHWEnable != 0)
  85:.\Generated_Source\PSoC5/Timeout_Timer.c ****             #if (CY_PSOC5A)
  86:.\Generated_Source\PSoC5/Timeout_Timer.c ****                 /* Set the default Run Mode of the Timer to Continuous */
  87:.\Generated_Source\PSoC5/Timeout_Timer.c ****                 Timeout_Timer_CONTROL2 |= Timeout_Timer_CTRL_MODE_PULSEWIDTH;
  88:.\Generated_Source\PSoC5/Timeout_Timer.c ****             #endif /* Set Continuous Run Mode in CONTROL2 for PSoC5A */
  89:.\Generated_Source\PSoC5/Timeout_Timer.c **** 
  90:.\Generated_Source\PSoC5/Timeout_Timer.c ****             #if (CY_PSOC3 || CY_PSOC5LP)
  91:.\Generated_Source\PSoC5/Timeout_Timer.c ****                 /* Clear and Set ROD and COD bits of CFG2 register */
  92:.\Generated_Source\PSoC5/Timeout_Timer.c ****                 Timeout_Timer_CONTROL3 &= ((uint8)(~Timeout_Timer_CTRL_RCOD_MASK));
  93:.\Generated_Source\PSoC5/Timeout_Timer.c ****                 Timeout_Timer_CONTROL3 |= Timeout_Timer_CTRL_RCOD;
  94:.\Generated_Source\PSoC5/Timeout_Timer.c **** 
  95:.\Generated_Source\PSoC5/Timeout_Timer.c ****                 /* Clear and Enable the HW enable bit in CFG2 register */
  96:.\Generated_Source\PSoC5/Timeout_Timer.c ****                 Timeout_Timer_CONTROL3 &= ((uint8)(~Timeout_Timer_CTRL_ENBL_MASK));
  97:.\Generated_Source\PSoC5/Timeout_Timer.c ****                 Timeout_Timer_CONTROL3 |= Timeout_Timer_CTRL_ENBL;
  98:.\Generated_Source\PSoC5/Timeout_Timer.c **** 
  99:.\Generated_Source\PSoC5/Timeout_Timer.c ****                 /* Set the default Run Mode of the Timer to Continuous */
 100:.\Generated_Source\PSoC5/Timeout_Timer.c ****                 Timeout_Timer_CONTROL3 |= Timeout_Timer_CTRL_MODE_CONTINUOUS;
 101:.\Generated_Source\PSoC5/Timeout_Timer.c ****             #endif /* Set Continuous Run Mode in CONTROL3 for PSoC3ES3 or PSoC5A */
 102:.\Generated_Source\PSoC5/Timeout_Timer.c **** 
 103:.\Generated_Source\PSoC5/Timeout_Timer.c ****         #endif /* Configure Run Mode with hardware enable */
 104:.\Generated_Source\PSoC5/Timeout_Timer.c **** 
 105:.\Generated_Source\PSoC5/Timeout_Timer.c ****         /* Clear and Set SYNCTC and SYNCCMP bits of RT1 register */
 106:.\Generated_Source\PSoC5/Timeout_Timer.c ****         Timeout_Timer_RT1 &= ((uint8)(~Timeout_Timer_RT1_MASK));
  41              		.loc 1 106 0
  42 0012 DA7A     		ldrb	r2, [r3, #11]	@ zero_extendqisi2
  43 0014 02F0CF02 		and	r2, r2, #207
  44 0018 DA72     		strb	r2, [r3, #11]
 107:.\Generated_Source\PSoC5/Timeout_Timer.c ****         Timeout_Timer_RT1 |= Timeout_Timer_SYNC;
  45              		.loc 1 107 0
  46 001a DA7A     		ldrb	r2, [r3, #11]	@ zero_extendqisi2
  47 001c 42F03002 		orr	r2, r2, #48
  48 0020 DA72     		strb	r2, [r3, #11]
 108:.\Generated_Source\PSoC5/Timeout_Timer.c **** 
 109:.\Generated_Source\PSoC5/Timeout_Timer.c ****         /*Enable DSI Sync all all inputs of the Timer*/
 110:.\Generated_Source\PSoC5/Timeout_Timer.c ****         Timeout_Timer_RT1 &= ((uint8)(~Timeout_Timer_SYNCDSI_MASK));
  49              		.loc 1 110 0
  50 0022 DA7A     		ldrb	r2, [r3, #11]	@ zero_extendqisi2
  51 0024 02F0F002 		and	r2, r2, #240
  52 0028 DA72     		strb	r2, [r3, #11]
 111:.\Generated_Source\PSoC5/Timeout_Timer.c ****         Timeout_Timer_RT1 |= Timeout_Timer_SYNCDSI_EN;
  53              		.loc 1 111 0
  54 002a DA7A     		ldrb	r2, [r3, #11]	@ zero_extendqisi2
  55 002c 42F00F02 		orr	r2, r2, #15
  56 0030 DA72     		strb	r2, [r3, #11]
 112:.\Generated_Source\PSoC5/Timeout_Timer.c **** 
 113:.\Generated_Source\PSoC5/Timeout_Timer.c ****         /* Set the IRQ to use the status register interrupts */
 114:.\Generated_Source\PSoC5/Timeout_Timer.c ****         Timeout_Timer_CONTROL2 |= Timeout_Timer_CTRL2_IRQ_SEL;
  57              		.loc 1 114 0
ARM GAS  C:\Users\Yiquing\AppData\Local\Temp\ccGpbWUH.s 			page 4


  58 0032 5A78     		ldrb	r2, [r3, #1]	@ zero_extendqisi2
  59 0034 42F00102 		orr	r2, r2, #1
  60 0038 5A70     		strb	r2, [r3, #1]
  61              	.LVL0:
  62              	.LBB8:
  63              	.LBB9:
 115:.\Generated_Source\PSoC5/Timeout_Timer.c ****     #endif /* Configuring registers of fixed function implementation */
 116:.\Generated_Source\PSoC5/Timeout_Timer.c **** 
 117:.\Generated_Source\PSoC5/Timeout_Timer.c ****     /* Set Initial values from Configuration */
 118:.\Generated_Source\PSoC5/Timeout_Timer.c ****     Timeout_Timer_WritePeriod(Timeout_Timer_INIT_PERIOD);
 119:.\Generated_Source\PSoC5/Timeout_Timer.c ****     Timeout_Timer_WriteCounter(Timeout_Timer_INIT_PERIOD);
 120:.\Generated_Source\PSoC5/Timeout_Timer.c **** 
 121:.\Generated_Source\PSoC5/Timeout_Timer.c ****     #if (Timeout_Timer_UsingHWCaptureCounter)/* Capture counter is enabled */
 122:.\Generated_Source\PSoC5/Timeout_Timer.c ****         Timeout_Timer_CAPTURE_COUNT_CTRL |= Timeout_Timer_CNTR_ENABLE;
 123:.\Generated_Source\PSoC5/Timeout_Timer.c ****         Timeout_Timer_SetCaptureCount(Timeout_Timer_INIT_CAPTURE_COUNT);
 124:.\Generated_Source\PSoC5/Timeout_Timer.c ****     #endif /* Configure capture counter value */
 125:.\Generated_Source\PSoC5/Timeout_Timer.c **** 
 126:.\Generated_Source\PSoC5/Timeout_Timer.c ****     #if (!Timeout_Timer_UsingFixedFunction)
 127:.\Generated_Source\PSoC5/Timeout_Timer.c ****         #if (Timeout_Timer_SoftwareCaptureMode)
 128:.\Generated_Source\PSoC5/Timeout_Timer.c ****             Timeout_Timer_SetCaptureMode(Timeout_Timer_INIT_CAPTURE_MODE);
 129:.\Generated_Source\PSoC5/Timeout_Timer.c ****         #endif /* Set Capture Mode for UDB implementation if capture mode is software controlled */
 130:.\Generated_Source\PSoC5/Timeout_Timer.c **** 
 131:.\Generated_Source\PSoC5/Timeout_Timer.c ****         #if (Timeout_Timer_SoftwareTriggerMode)
 132:.\Generated_Source\PSoC5/Timeout_Timer.c ****             #if (!Timeout_Timer_UDB_CONTROL_REG_REMOVED)
 133:.\Generated_Source\PSoC5/Timeout_Timer.c ****                 if (0u == (Timeout_Timer_CONTROL & Timeout_Timer__B_TIMER__TM_SOFTWARE))
 134:.\Generated_Source\PSoC5/Timeout_Timer.c ****                 {
 135:.\Generated_Source\PSoC5/Timeout_Timer.c ****                     Timeout_Timer_SetTriggerMode(Timeout_Timer_INIT_TRIGGER_MODE);
 136:.\Generated_Source\PSoC5/Timeout_Timer.c ****                 }
 137:.\Generated_Source\PSoC5/Timeout_Timer.c ****             #endif /* (!Timeout_Timer_UDB_CONTROL_REG_REMOVED) */
 138:.\Generated_Source\PSoC5/Timeout_Timer.c ****         #endif /* Set trigger mode for UDB Implementation if trigger mode is software controlled */
 139:.\Generated_Source\PSoC5/Timeout_Timer.c **** 
 140:.\Generated_Source\PSoC5/Timeout_Timer.c ****         /* CyEnterCriticalRegion and CyExitCriticalRegion are used to mark following region critica
 141:.\Generated_Source\PSoC5/Timeout_Timer.c ****         /* Enter Critical Region*/
 142:.\Generated_Source\PSoC5/Timeout_Timer.c ****         Timeout_Timer_interruptState = CyEnterCriticalSection();
 143:.\Generated_Source\PSoC5/Timeout_Timer.c **** 
 144:.\Generated_Source\PSoC5/Timeout_Timer.c ****         /* Use the interrupt output of the status register for IRQ output */
 145:.\Generated_Source\PSoC5/Timeout_Timer.c ****         Timeout_Timer_STATUS_AUX_CTRL |= Timeout_Timer_STATUS_ACTL_INT_EN_MASK;
 146:.\Generated_Source\PSoC5/Timeout_Timer.c **** 
 147:.\Generated_Source\PSoC5/Timeout_Timer.c ****         /* Exit Critical Region*/
 148:.\Generated_Source\PSoC5/Timeout_Timer.c ****         CyExitCriticalSection(Timeout_Timer_interruptState);
 149:.\Generated_Source\PSoC5/Timeout_Timer.c **** 
 150:.\Generated_Source\PSoC5/Timeout_Timer.c ****         #if (Timeout_Timer_EnableTriggerMode)
 151:.\Generated_Source\PSoC5/Timeout_Timer.c ****             Timeout_Timer_EnableTrigger();
 152:.\Generated_Source\PSoC5/Timeout_Timer.c ****         #endif /* Set Trigger enable bit for UDB implementation in the control register*/
 153:.\Generated_Source\PSoC5/Timeout_Timer.c **** 		
 154:.\Generated_Source\PSoC5/Timeout_Timer.c **** 		
 155:.\Generated_Source\PSoC5/Timeout_Timer.c ****         #if (Timeout_Timer_InterruptOnCaptureCount && !Timeout_Timer_UDB_CONTROL_REG_REMOVED)
 156:.\Generated_Source\PSoC5/Timeout_Timer.c ****             Timeout_Timer_SetInterruptCount(Timeout_Timer_INIT_INT_CAPTURE_COUNT);
 157:.\Generated_Source\PSoC5/Timeout_Timer.c ****         #endif /* Set interrupt count in UDB implementation if interrupt count feature is checked.*
 158:.\Generated_Source\PSoC5/Timeout_Timer.c **** 
 159:.\Generated_Source\PSoC5/Timeout_Timer.c ****         Timeout_Timer_ClearFIFO();
 160:.\Generated_Source\PSoC5/Timeout_Timer.c ****     #endif /* Configure additional features of UDB implementation */
 161:.\Generated_Source\PSoC5/Timeout_Timer.c **** 
 162:.\Generated_Source\PSoC5/Timeout_Timer.c ****     Timeout_Timer_SetInterruptMode(Timeout_Timer_INIT_INTERRUPT_MODE);
 163:.\Generated_Source\PSoC5/Timeout_Timer.c **** }
 164:.\Generated_Source\PSoC5/Timeout_Timer.c **** 
 165:.\Generated_Source\PSoC5/Timeout_Timer.c **** 
ARM GAS  C:\Users\Yiquing\AppData\Local\Temp\ccGpbWUH.s 			page 5


 166:.\Generated_Source\PSoC5/Timeout_Timer.c **** /*******************************************************************************
 167:.\Generated_Source\PSoC5/Timeout_Timer.c **** * Function Name: Timeout_Timer_Enable
 168:.\Generated_Source\PSoC5/Timeout_Timer.c **** ********************************************************************************
 169:.\Generated_Source\PSoC5/Timeout_Timer.c **** *
 170:.\Generated_Source\PSoC5/Timeout_Timer.c **** * Summary:
 171:.\Generated_Source\PSoC5/Timeout_Timer.c **** *  Enable the Timer
 172:.\Generated_Source\PSoC5/Timeout_Timer.c **** *
 173:.\Generated_Source\PSoC5/Timeout_Timer.c **** * Parameters:
 174:.\Generated_Source\PSoC5/Timeout_Timer.c **** *  void
 175:.\Generated_Source\PSoC5/Timeout_Timer.c **** *
 176:.\Generated_Source\PSoC5/Timeout_Timer.c **** * Return:
 177:.\Generated_Source\PSoC5/Timeout_Timer.c **** *  void
 178:.\Generated_Source\PSoC5/Timeout_Timer.c **** *
 179:.\Generated_Source\PSoC5/Timeout_Timer.c **** *******************************************************************************/
 180:.\Generated_Source\PSoC5/Timeout_Timer.c **** void Timeout_Timer_Enable(void) 
 181:.\Generated_Source\PSoC5/Timeout_Timer.c **** {
 182:.\Generated_Source\PSoC5/Timeout_Timer.c ****     /* Globally Enable the Fixed Function Block chosen */
 183:.\Generated_Source\PSoC5/Timeout_Timer.c ****     #if (Timeout_Timer_UsingFixedFunction)
 184:.\Generated_Source\PSoC5/Timeout_Timer.c ****         Timeout_Timer_GLOBAL_ENABLE |= Timeout_Timer_BLOCK_EN_MASK;
 185:.\Generated_Source\PSoC5/Timeout_Timer.c ****         Timeout_Timer_GLOBAL_STBY_ENABLE |= Timeout_Timer_BLOCK_STBY_EN_MASK;
 186:.\Generated_Source\PSoC5/Timeout_Timer.c ****     #endif /* Set Enable bit for enabling Fixed function timer*/
 187:.\Generated_Source\PSoC5/Timeout_Timer.c **** 
 188:.\Generated_Source\PSoC5/Timeout_Timer.c ****     /* Remove assignment if control register is removed */
 189:.\Generated_Source\PSoC5/Timeout_Timer.c ****     #if (!Timeout_Timer_UDB_CONTROL_REG_REMOVED || Timeout_Timer_UsingFixedFunction)
 190:.\Generated_Source\PSoC5/Timeout_Timer.c ****         Timeout_Timer_CONTROL |= Timeout_Timer_CTRL_ENABLE;
 191:.\Generated_Source\PSoC5/Timeout_Timer.c ****     #endif /* Remove assignment if control register is removed */
 192:.\Generated_Source\PSoC5/Timeout_Timer.c **** }
 193:.\Generated_Source\PSoC5/Timeout_Timer.c **** 
 194:.\Generated_Source\PSoC5/Timeout_Timer.c **** 
 195:.\Generated_Source\PSoC5/Timeout_Timer.c **** /*******************************************************************************
 196:.\Generated_Source\PSoC5/Timeout_Timer.c **** * Function Name: Timeout_Timer_Start
 197:.\Generated_Source\PSoC5/Timeout_Timer.c **** ********************************************************************************
 198:.\Generated_Source\PSoC5/Timeout_Timer.c **** *
 199:.\Generated_Source\PSoC5/Timeout_Timer.c **** * Summary:
 200:.\Generated_Source\PSoC5/Timeout_Timer.c **** *  The start function initializes the timer with the default values, the
 201:.\Generated_Source\PSoC5/Timeout_Timer.c **** *  enables the timerto begin counting.  It does not enable interrupts,
 202:.\Generated_Source\PSoC5/Timeout_Timer.c **** *  the EnableInt command should be called if interrupt generation is required.
 203:.\Generated_Source\PSoC5/Timeout_Timer.c **** *
 204:.\Generated_Source\PSoC5/Timeout_Timer.c **** * Parameters:
 205:.\Generated_Source\PSoC5/Timeout_Timer.c **** *  void
 206:.\Generated_Source\PSoC5/Timeout_Timer.c **** *
 207:.\Generated_Source\PSoC5/Timeout_Timer.c **** * Return:
 208:.\Generated_Source\PSoC5/Timeout_Timer.c **** *  void
 209:.\Generated_Source\PSoC5/Timeout_Timer.c **** *
 210:.\Generated_Source\PSoC5/Timeout_Timer.c **** * Global variables:
 211:.\Generated_Source\PSoC5/Timeout_Timer.c **** *  Timeout_Timer_initVar: Is modified when this function is called for the
 212:.\Generated_Source\PSoC5/Timeout_Timer.c **** *   first time. Is used to ensure that initialization happens only once.
 213:.\Generated_Source\PSoC5/Timeout_Timer.c **** *
 214:.\Generated_Source\PSoC5/Timeout_Timer.c **** *******************************************************************************/
 215:.\Generated_Source\PSoC5/Timeout_Timer.c **** void Timeout_Timer_Start(void) 
 216:.\Generated_Source\PSoC5/Timeout_Timer.c **** {
 217:.\Generated_Source\PSoC5/Timeout_Timer.c ****     if(Timeout_Timer_initVar == 0u)
 218:.\Generated_Source\PSoC5/Timeout_Timer.c ****     {
 219:.\Generated_Source\PSoC5/Timeout_Timer.c ****         Timeout_Timer_Init();
 220:.\Generated_Source\PSoC5/Timeout_Timer.c **** 
 221:.\Generated_Source\PSoC5/Timeout_Timer.c ****         Timeout_Timer_initVar = 1u;   /* Clear this bit for Initialization */
 222:.\Generated_Source\PSoC5/Timeout_Timer.c ****     }
ARM GAS  C:\Users\Yiquing\AppData\Local\Temp\ccGpbWUH.s 			page 6


 223:.\Generated_Source\PSoC5/Timeout_Timer.c **** 
 224:.\Generated_Source\PSoC5/Timeout_Timer.c ****     /* Enable the Timer */
 225:.\Generated_Source\PSoC5/Timeout_Timer.c ****     Timeout_Timer_Enable();
 226:.\Generated_Source\PSoC5/Timeout_Timer.c **** }
 227:.\Generated_Source\PSoC5/Timeout_Timer.c **** 
 228:.\Generated_Source\PSoC5/Timeout_Timer.c **** 
 229:.\Generated_Source\PSoC5/Timeout_Timer.c **** /*******************************************************************************
 230:.\Generated_Source\PSoC5/Timeout_Timer.c **** * Function Name: Timeout_Timer_Stop
 231:.\Generated_Source\PSoC5/Timeout_Timer.c **** ********************************************************************************
 232:.\Generated_Source\PSoC5/Timeout_Timer.c **** *
 233:.\Generated_Source\PSoC5/Timeout_Timer.c **** * Summary:
 234:.\Generated_Source\PSoC5/Timeout_Timer.c **** *  The stop function halts the timer, but does not change any modes or disable
 235:.\Generated_Source\PSoC5/Timeout_Timer.c **** *  interrupts.
 236:.\Generated_Source\PSoC5/Timeout_Timer.c **** *
 237:.\Generated_Source\PSoC5/Timeout_Timer.c **** * Parameters:
 238:.\Generated_Source\PSoC5/Timeout_Timer.c **** *  void
 239:.\Generated_Source\PSoC5/Timeout_Timer.c **** *
 240:.\Generated_Source\PSoC5/Timeout_Timer.c **** * Return:
 241:.\Generated_Source\PSoC5/Timeout_Timer.c **** *  void
 242:.\Generated_Source\PSoC5/Timeout_Timer.c **** *
 243:.\Generated_Source\PSoC5/Timeout_Timer.c **** * Side Effects: If the Enable mode is set to Hardware only then this function
 244:.\Generated_Source\PSoC5/Timeout_Timer.c **** *               has no effect on the operation of the timer.
 245:.\Generated_Source\PSoC5/Timeout_Timer.c **** *
 246:.\Generated_Source\PSoC5/Timeout_Timer.c **** *******************************************************************************/
 247:.\Generated_Source\PSoC5/Timeout_Timer.c **** void Timeout_Timer_Stop(void) 
 248:.\Generated_Source\PSoC5/Timeout_Timer.c **** {
 249:.\Generated_Source\PSoC5/Timeout_Timer.c ****     /* Disable Timer */
 250:.\Generated_Source\PSoC5/Timeout_Timer.c ****     #if(!Timeout_Timer_UDB_CONTROL_REG_REMOVED || Timeout_Timer_UsingFixedFunction)
 251:.\Generated_Source\PSoC5/Timeout_Timer.c ****         Timeout_Timer_CONTROL &= ((uint8)(~Timeout_Timer_CTRL_ENABLE));
 252:.\Generated_Source\PSoC5/Timeout_Timer.c ****     #endif /* Remove assignment if control register is removed */
 253:.\Generated_Source\PSoC5/Timeout_Timer.c **** 
 254:.\Generated_Source\PSoC5/Timeout_Timer.c ****     /* Globally disable the Fixed Function Block chosen */
 255:.\Generated_Source\PSoC5/Timeout_Timer.c ****     #if (Timeout_Timer_UsingFixedFunction)
 256:.\Generated_Source\PSoC5/Timeout_Timer.c ****         Timeout_Timer_GLOBAL_ENABLE &= ((uint8)(~Timeout_Timer_BLOCK_EN_MASK));
 257:.\Generated_Source\PSoC5/Timeout_Timer.c ****         Timeout_Timer_GLOBAL_STBY_ENABLE &= ((uint8)(~Timeout_Timer_BLOCK_STBY_EN_MASK));
 258:.\Generated_Source\PSoC5/Timeout_Timer.c ****     #endif /* Disable global enable for the Timer Fixed function block to stop the Timer*/
 259:.\Generated_Source\PSoC5/Timeout_Timer.c **** }
 260:.\Generated_Source\PSoC5/Timeout_Timer.c **** 
 261:.\Generated_Source\PSoC5/Timeout_Timer.c **** 
 262:.\Generated_Source\PSoC5/Timeout_Timer.c **** /*******************************************************************************
 263:.\Generated_Source\PSoC5/Timeout_Timer.c **** * Function Name: Timeout_Timer_SetInterruptMode
 264:.\Generated_Source\PSoC5/Timeout_Timer.c **** ********************************************************************************
 265:.\Generated_Source\PSoC5/Timeout_Timer.c **** *
 266:.\Generated_Source\PSoC5/Timeout_Timer.c **** * Summary:
 267:.\Generated_Source\PSoC5/Timeout_Timer.c **** *  This function selects which of the interrupt inputs may cause an interrupt.
 268:.\Generated_Source\PSoC5/Timeout_Timer.c **** *  The twosources are caputure and terminal.  One, both or neither may
 269:.\Generated_Source\PSoC5/Timeout_Timer.c **** *  be selected.
 270:.\Generated_Source\PSoC5/Timeout_Timer.c **** *
 271:.\Generated_Source\PSoC5/Timeout_Timer.c **** * Parameters:
 272:.\Generated_Source\PSoC5/Timeout_Timer.c **** *  interruptMode:   This parameter is used to enable interrups on either/or
 273:.\Generated_Source\PSoC5/Timeout_Timer.c **** *                   terminal count or capture.
 274:.\Generated_Source\PSoC5/Timeout_Timer.c **** *
 275:.\Generated_Source\PSoC5/Timeout_Timer.c **** * Return:
 276:.\Generated_Source\PSoC5/Timeout_Timer.c **** *  void
 277:.\Generated_Source\PSoC5/Timeout_Timer.c **** *
 278:.\Generated_Source\PSoC5/Timeout_Timer.c **** *******************************************************************************/
 279:.\Generated_Source\PSoC5/Timeout_Timer.c **** void Timeout_Timer_SetInterruptMode(uint8 interruptMode) 
ARM GAS  C:\Users\Yiquing\AppData\Local\Temp\ccGpbWUH.s 			page 7


 280:.\Generated_Source\PSoC5/Timeout_Timer.c **** {
 281:.\Generated_Source\PSoC5/Timeout_Timer.c ****     Timeout_Timer_STATUS_MASK = interruptMode;
 282:.\Generated_Source\PSoC5/Timeout_Timer.c **** }
 283:.\Generated_Source\PSoC5/Timeout_Timer.c **** 
 284:.\Generated_Source\PSoC5/Timeout_Timer.c **** 
 285:.\Generated_Source\PSoC5/Timeout_Timer.c **** /*******************************************************************************
 286:.\Generated_Source\PSoC5/Timeout_Timer.c **** * Function Name: Timeout_Timer_SoftwareCapture
 287:.\Generated_Source\PSoC5/Timeout_Timer.c **** ********************************************************************************
 288:.\Generated_Source\PSoC5/Timeout_Timer.c **** *
 289:.\Generated_Source\PSoC5/Timeout_Timer.c **** * Summary:
 290:.\Generated_Source\PSoC5/Timeout_Timer.c **** *  This function forces a capture independent of the capture signal.
 291:.\Generated_Source\PSoC5/Timeout_Timer.c **** *
 292:.\Generated_Source\PSoC5/Timeout_Timer.c **** * Parameters:
 293:.\Generated_Source\PSoC5/Timeout_Timer.c **** *  void
 294:.\Generated_Source\PSoC5/Timeout_Timer.c **** *
 295:.\Generated_Source\PSoC5/Timeout_Timer.c **** * Return:
 296:.\Generated_Source\PSoC5/Timeout_Timer.c **** *  void
 297:.\Generated_Source\PSoC5/Timeout_Timer.c **** *
 298:.\Generated_Source\PSoC5/Timeout_Timer.c **** * Side Effects:
 299:.\Generated_Source\PSoC5/Timeout_Timer.c **** *  An existing hardware capture could be overwritten.
 300:.\Generated_Source\PSoC5/Timeout_Timer.c **** *
 301:.\Generated_Source\PSoC5/Timeout_Timer.c **** *******************************************************************************/
 302:.\Generated_Source\PSoC5/Timeout_Timer.c **** void Timeout_Timer_SoftwareCapture(void) 
 303:.\Generated_Source\PSoC5/Timeout_Timer.c **** {
 304:.\Generated_Source\PSoC5/Timeout_Timer.c ****     /* Generate a software capture by reading the counter register */
 305:.\Generated_Source\PSoC5/Timeout_Timer.c ****     #if(Timeout_Timer_UsingFixedFunction)
 306:.\Generated_Source\PSoC5/Timeout_Timer.c ****         (void)CY_GET_REG16(Timeout_Timer_COUNTER_LSB_PTR);
 307:.\Generated_Source\PSoC5/Timeout_Timer.c ****     #else
 308:.\Generated_Source\PSoC5/Timeout_Timer.c ****         (void)CY_GET_REG8(Timeout_Timer_COUNTER_LSB_PTR_8BIT);
 309:.\Generated_Source\PSoC5/Timeout_Timer.c ****     #endif/* (Timeout_Timer_UsingFixedFunction) */
 310:.\Generated_Source\PSoC5/Timeout_Timer.c ****     /* Capture Data is now in the FIFO */
 311:.\Generated_Source\PSoC5/Timeout_Timer.c **** }
 312:.\Generated_Source\PSoC5/Timeout_Timer.c **** 
 313:.\Generated_Source\PSoC5/Timeout_Timer.c **** 
 314:.\Generated_Source\PSoC5/Timeout_Timer.c **** /*******************************************************************************
 315:.\Generated_Source\PSoC5/Timeout_Timer.c **** * Function Name: Timeout_Timer_ReadStatusRegister
 316:.\Generated_Source\PSoC5/Timeout_Timer.c **** ********************************************************************************
 317:.\Generated_Source\PSoC5/Timeout_Timer.c **** *
 318:.\Generated_Source\PSoC5/Timeout_Timer.c **** * Summary:
 319:.\Generated_Source\PSoC5/Timeout_Timer.c **** *  Reads the status register and returns it's state. This function should use
 320:.\Generated_Source\PSoC5/Timeout_Timer.c **** *  defined types for the bit-field information as the bits in this register may
 321:.\Generated_Source\PSoC5/Timeout_Timer.c **** *  be permuteable.
 322:.\Generated_Source\PSoC5/Timeout_Timer.c **** *
 323:.\Generated_Source\PSoC5/Timeout_Timer.c **** * Parameters:
 324:.\Generated_Source\PSoC5/Timeout_Timer.c **** *  void
 325:.\Generated_Source\PSoC5/Timeout_Timer.c **** *
 326:.\Generated_Source\PSoC5/Timeout_Timer.c **** * Return:
 327:.\Generated_Source\PSoC5/Timeout_Timer.c **** *  The contents of the status register
 328:.\Generated_Source\PSoC5/Timeout_Timer.c **** *
 329:.\Generated_Source\PSoC5/Timeout_Timer.c **** * Side Effects:
 330:.\Generated_Source\PSoC5/Timeout_Timer.c **** *  Status register bits may be clear on read.
 331:.\Generated_Source\PSoC5/Timeout_Timer.c **** *
 332:.\Generated_Source\PSoC5/Timeout_Timer.c **** *******************************************************************************/
 333:.\Generated_Source\PSoC5/Timeout_Timer.c **** uint8   Timeout_Timer_ReadStatusRegister(void) 
 334:.\Generated_Source\PSoC5/Timeout_Timer.c **** {
 335:.\Generated_Source\PSoC5/Timeout_Timer.c ****     return (Timeout_Timer_STATUS);
 336:.\Generated_Source\PSoC5/Timeout_Timer.c **** }
ARM GAS  C:\Users\Yiquing\AppData\Local\Temp\ccGpbWUH.s 			page 8


 337:.\Generated_Source\PSoC5/Timeout_Timer.c **** 
 338:.\Generated_Source\PSoC5/Timeout_Timer.c **** 
 339:.\Generated_Source\PSoC5/Timeout_Timer.c **** #if (!Timeout_Timer_UDB_CONTROL_REG_REMOVED) /* Remove API if control register is unused */
 340:.\Generated_Source\PSoC5/Timeout_Timer.c **** 
 341:.\Generated_Source\PSoC5/Timeout_Timer.c **** 
 342:.\Generated_Source\PSoC5/Timeout_Timer.c **** /*******************************************************************************
 343:.\Generated_Source\PSoC5/Timeout_Timer.c **** * Function Name: Timeout_Timer_ReadControlRegister
 344:.\Generated_Source\PSoC5/Timeout_Timer.c **** ********************************************************************************
 345:.\Generated_Source\PSoC5/Timeout_Timer.c **** *
 346:.\Generated_Source\PSoC5/Timeout_Timer.c **** * Summary:
 347:.\Generated_Source\PSoC5/Timeout_Timer.c **** *  Reads the control register and returns it's value.
 348:.\Generated_Source\PSoC5/Timeout_Timer.c **** *
 349:.\Generated_Source\PSoC5/Timeout_Timer.c **** * Parameters:
 350:.\Generated_Source\PSoC5/Timeout_Timer.c **** *  void
 351:.\Generated_Source\PSoC5/Timeout_Timer.c **** *
 352:.\Generated_Source\PSoC5/Timeout_Timer.c **** * Return:
 353:.\Generated_Source\PSoC5/Timeout_Timer.c **** *  The contents of the control register
 354:.\Generated_Source\PSoC5/Timeout_Timer.c **** *
 355:.\Generated_Source\PSoC5/Timeout_Timer.c **** *******************************************************************************/
 356:.\Generated_Source\PSoC5/Timeout_Timer.c **** uint8 Timeout_Timer_ReadControlRegister(void) 
 357:.\Generated_Source\PSoC5/Timeout_Timer.c **** {
 358:.\Generated_Source\PSoC5/Timeout_Timer.c ****     #if (!Timeout_Timer_UDB_CONTROL_REG_REMOVED) 
 359:.\Generated_Source\PSoC5/Timeout_Timer.c ****         return ((uint8)Timeout_Timer_CONTROL);
 360:.\Generated_Source\PSoC5/Timeout_Timer.c ****     #else
 361:.\Generated_Source\PSoC5/Timeout_Timer.c ****         return (0);
 362:.\Generated_Source\PSoC5/Timeout_Timer.c ****     #endif /* (!Timeout_Timer_UDB_CONTROL_REG_REMOVED) */
 363:.\Generated_Source\PSoC5/Timeout_Timer.c **** }
 364:.\Generated_Source\PSoC5/Timeout_Timer.c **** 
 365:.\Generated_Source\PSoC5/Timeout_Timer.c **** 
 366:.\Generated_Source\PSoC5/Timeout_Timer.c **** /*******************************************************************************
 367:.\Generated_Source\PSoC5/Timeout_Timer.c **** * Function Name: Timeout_Timer_WriteControlRegister
 368:.\Generated_Source\PSoC5/Timeout_Timer.c **** ********************************************************************************
 369:.\Generated_Source\PSoC5/Timeout_Timer.c **** *
 370:.\Generated_Source\PSoC5/Timeout_Timer.c **** * Summary:
 371:.\Generated_Source\PSoC5/Timeout_Timer.c **** *  Sets the bit-field of the control register.
 372:.\Generated_Source\PSoC5/Timeout_Timer.c **** *
 373:.\Generated_Source\PSoC5/Timeout_Timer.c **** * Parameters:
 374:.\Generated_Source\PSoC5/Timeout_Timer.c **** *  control: The contents of the control register
 375:.\Generated_Source\PSoC5/Timeout_Timer.c **** *
 376:.\Generated_Source\PSoC5/Timeout_Timer.c **** * Return:
 377:.\Generated_Source\PSoC5/Timeout_Timer.c **** *
 378:.\Generated_Source\PSoC5/Timeout_Timer.c **** *******************************************************************************/
 379:.\Generated_Source\PSoC5/Timeout_Timer.c **** void Timeout_Timer_WriteControlRegister(uint8 control) 
 380:.\Generated_Source\PSoC5/Timeout_Timer.c **** {
 381:.\Generated_Source\PSoC5/Timeout_Timer.c ****     #if (!Timeout_Timer_UDB_CONTROL_REG_REMOVED) 
 382:.\Generated_Source\PSoC5/Timeout_Timer.c ****         Timeout_Timer_CONTROL = control;
 383:.\Generated_Source\PSoC5/Timeout_Timer.c ****     #else
 384:.\Generated_Source\PSoC5/Timeout_Timer.c ****         control = 0u;
 385:.\Generated_Source\PSoC5/Timeout_Timer.c ****     #endif /* (!Timeout_Timer_UDB_CONTROL_REG_REMOVED) */
 386:.\Generated_Source\PSoC5/Timeout_Timer.c **** }
 387:.\Generated_Source\PSoC5/Timeout_Timer.c **** 
 388:.\Generated_Source\PSoC5/Timeout_Timer.c **** #endif /* Remove API if control register is unused */
 389:.\Generated_Source\PSoC5/Timeout_Timer.c **** 
 390:.\Generated_Source\PSoC5/Timeout_Timer.c **** 
 391:.\Generated_Source\PSoC5/Timeout_Timer.c **** /*******************************************************************************
 392:.\Generated_Source\PSoC5/Timeout_Timer.c **** * Function Name: Timeout_Timer_ReadPeriod
 393:.\Generated_Source\PSoC5/Timeout_Timer.c **** ********************************************************************************
ARM GAS  C:\Users\Yiquing\AppData\Local\Temp\ccGpbWUH.s 			page 9


 394:.\Generated_Source\PSoC5/Timeout_Timer.c **** *
 395:.\Generated_Source\PSoC5/Timeout_Timer.c **** * Summary:
 396:.\Generated_Source\PSoC5/Timeout_Timer.c **** *  This function returns the current value of the Period.
 397:.\Generated_Source\PSoC5/Timeout_Timer.c **** *
 398:.\Generated_Source\PSoC5/Timeout_Timer.c **** * Parameters:
 399:.\Generated_Source\PSoC5/Timeout_Timer.c **** *  void
 400:.\Generated_Source\PSoC5/Timeout_Timer.c **** *
 401:.\Generated_Source\PSoC5/Timeout_Timer.c **** * Return:
 402:.\Generated_Source\PSoC5/Timeout_Timer.c **** *  The present value of the counter.
 403:.\Generated_Source\PSoC5/Timeout_Timer.c **** *
 404:.\Generated_Source\PSoC5/Timeout_Timer.c **** *******************************************************************************/
 405:.\Generated_Source\PSoC5/Timeout_Timer.c **** uint8 Timeout_Timer_ReadPeriod(void) 
 406:.\Generated_Source\PSoC5/Timeout_Timer.c **** {
 407:.\Generated_Source\PSoC5/Timeout_Timer.c ****    #if(Timeout_Timer_UsingFixedFunction)
 408:.\Generated_Source\PSoC5/Timeout_Timer.c ****        return ((uint8)CY_GET_REG16(Timeout_Timer_PERIOD_LSB_PTR));
 409:.\Generated_Source\PSoC5/Timeout_Timer.c ****    #else
 410:.\Generated_Source\PSoC5/Timeout_Timer.c ****        return (CY_GET_REG8(Timeout_Timer_PERIOD_LSB_PTR));
 411:.\Generated_Source\PSoC5/Timeout_Timer.c ****    #endif /* (Timeout_Timer_UsingFixedFunction) */
 412:.\Generated_Source\PSoC5/Timeout_Timer.c **** }
 413:.\Generated_Source\PSoC5/Timeout_Timer.c **** 
 414:.\Generated_Source\PSoC5/Timeout_Timer.c **** 
 415:.\Generated_Source\PSoC5/Timeout_Timer.c **** /*******************************************************************************
 416:.\Generated_Source\PSoC5/Timeout_Timer.c **** * Function Name: Timeout_Timer_WritePeriod
 417:.\Generated_Source\PSoC5/Timeout_Timer.c **** ********************************************************************************
 418:.\Generated_Source\PSoC5/Timeout_Timer.c **** *
 419:.\Generated_Source\PSoC5/Timeout_Timer.c **** * Summary:
 420:.\Generated_Source\PSoC5/Timeout_Timer.c **** *  This function is used to change the period of the counter.  The new period
 421:.\Generated_Source\PSoC5/Timeout_Timer.c **** *  will be loaded the next time terminal count is detected.
 422:.\Generated_Source\PSoC5/Timeout_Timer.c **** *
 423:.\Generated_Source\PSoC5/Timeout_Timer.c **** * Parameters:
 424:.\Generated_Source\PSoC5/Timeout_Timer.c **** *  period: This value may be between 1 and (2^Resolution)-1.  A value of 0 will
 425:.\Generated_Source\PSoC5/Timeout_Timer.c **** *          result in the counter remaining at zero.
 426:.\Generated_Source\PSoC5/Timeout_Timer.c **** *
 427:.\Generated_Source\PSoC5/Timeout_Timer.c **** * Return:
 428:.\Generated_Source\PSoC5/Timeout_Timer.c **** *  void
 429:.\Generated_Source\PSoC5/Timeout_Timer.c **** *
 430:.\Generated_Source\PSoC5/Timeout_Timer.c **** *******************************************************************************/
 431:.\Generated_Source\PSoC5/Timeout_Timer.c **** void Timeout_Timer_WritePeriod(uint8 period) 
 432:.\Generated_Source\PSoC5/Timeout_Timer.c **** {
 433:.\Generated_Source\PSoC5/Timeout_Timer.c ****     #if(Timeout_Timer_UsingFixedFunction)
 434:.\Generated_Source\PSoC5/Timeout_Timer.c ****         uint16 period_temp = (uint16)period;
 435:.\Generated_Source\PSoC5/Timeout_Timer.c ****         CY_SET_REG16(Timeout_Timer_PERIOD_LSB_PTR, period_temp);
  64              		.loc 1 435 0
  65 003a 054A     		ldr	r2, .L2+4
  66 003c 1823     		movs	r3, #24
  67 003e 1380     		strh	r3, [r2]	@ movhi
  68              	.LVL1:
  69              	.LBE9:
  70              	.LBE8:
  71              	.LBB10:
  72              	.LBB11:
 436:.\Generated_Source\PSoC5/Timeout_Timer.c ****     #else
 437:.\Generated_Source\PSoC5/Timeout_Timer.c ****         CY_SET_REG8(Timeout_Timer_PERIOD_LSB_PTR, period);
 438:.\Generated_Source\PSoC5/Timeout_Timer.c ****     #endif /*Write Period value with appropriate resolution suffix depending on UDB or fixed functi
 439:.\Generated_Source\PSoC5/Timeout_Timer.c **** }
 440:.\Generated_Source\PSoC5/Timeout_Timer.c **** 
 441:.\Generated_Source\PSoC5/Timeout_Timer.c **** 
ARM GAS  C:\Users\Yiquing\AppData\Local\Temp\ccGpbWUH.s 			page 10


 442:.\Generated_Source\PSoC5/Timeout_Timer.c **** /*******************************************************************************
 443:.\Generated_Source\PSoC5/Timeout_Timer.c **** * Function Name: Timeout_Timer_ReadCapture
 444:.\Generated_Source\PSoC5/Timeout_Timer.c **** ********************************************************************************
 445:.\Generated_Source\PSoC5/Timeout_Timer.c **** *
 446:.\Generated_Source\PSoC5/Timeout_Timer.c **** * Summary:
 447:.\Generated_Source\PSoC5/Timeout_Timer.c **** *  This function returns the last value captured.
 448:.\Generated_Source\PSoC5/Timeout_Timer.c **** *
 449:.\Generated_Source\PSoC5/Timeout_Timer.c **** * Parameters:
 450:.\Generated_Source\PSoC5/Timeout_Timer.c **** *  void
 451:.\Generated_Source\PSoC5/Timeout_Timer.c **** *
 452:.\Generated_Source\PSoC5/Timeout_Timer.c **** * Return:
 453:.\Generated_Source\PSoC5/Timeout_Timer.c **** *  Present Capture value.
 454:.\Generated_Source\PSoC5/Timeout_Timer.c **** *
 455:.\Generated_Source\PSoC5/Timeout_Timer.c **** *******************************************************************************/
 456:.\Generated_Source\PSoC5/Timeout_Timer.c **** uint8 Timeout_Timer_ReadCapture(void) 
 457:.\Generated_Source\PSoC5/Timeout_Timer.c **** {
 458:.\Generated_Source\PSoC5/Timeout_Timer.c ****    #if(Timeout_Timer_UsingFixedFunction)
 459:.\Generated_Source\PSoC5/Timeout_Timer.c ****        return ((uint8)CY_GET_REG16(Timeout_Timer_CAPTURE_LSB_PTR));
 460:.\Generated_Source\PSoC5/Timeout_Timer.c ****    #else
 461:.\Generated_Source\PSoC5/Timeout_Timer.c ****        return (CY_GET_REG8(Timeout_Timer_CAPTURE_LSB_PTR));
 462:.\Generated_Source\PSoC5/Timeout_Timer.c ****    #endif /* (Timeout_Timer_UsingFixedFunction) */
 463:.\Generated_Source\PSoC5/Timeout_Timer.c **** }
 464:.\Generated_Source\PSoC5/Timeout_Timer.c **** 
 465:.\Generated_Source\PSoC5/Timeout_Timer.c **** 
 466:.\Generated_Source\PSoC5/Timeout_Timer.c **** /*******************************************************************************
 467:.\Generated_Source\PSoC5/Timeout_Timer.c **** * Function Name: Timeout_Timer_WriteCounter
 468:.\Generated_Source\PSoC5/Timeout_Timer.c **** ********************************************************************************
 469:.\Generated_Source\PSoC5/Timeout_Timer.c **** *
 470:.\Generated_Source\PSoC5/Timeout_Timer.c **** * Summary:
 471:.\Generated_Source\PSoC5/Timeout_Timer.c **** *  This funtion is used to set the counter to a specific value
 472:.\Generated_Source\PSoC5/Timeout_Timer.c **** *
 473:.\Generated_Source\PSoC5/Timeout_Timer.c **** * Parameters:
 474:.\Generated_Source\PSoC5/Timeout_Timer.c **** *  counter:  New counter value.
 475:.\Generated_Source\PSoC5/Timeout_Timer.c **** *
 476:.\Generated_Source\PSoC5/Timeout_Timer.c **** * Return:
 477:.\Generated_Source\PSoC5/Timeout_Timer.c **** *  void
 478:.\Generated_Source\PSoC5/Timeout_Timer.c **** *
 479:.\Generated_Source\PSoC5/Timeout_Timer.c **** *******************************************************************************/
 480:.\Generated_Source\PSoC5/Timeout_Timer.c **** void Timeout_Timer_WriteCounter(uint8 counter) 
 481:.\Generated_Source\PSoC5/Timeout_Timer.c **** {
 482:.\Generated_Source\PSoC5/Timeout_Timer.c ****    #if(Timeout_Timer_UsingFixedFunction)
 483:.\Generated_Source\PSoC5/Timeout_Timer.c ****         /* This functionality is removed until a FixedFunction HW update to
 484:.\Generated_Source\PSoC5/Timeout_Timer.c ****          * allow this register to be written
 485:.\Generated_Source\PSoC5/Timeout_Timer.c ****          */
 486:.\Generated_Source\PSoC5/Timeout_Timer.c ****         CY_SET_REG16(Timeout_Timer_COUNTER_LSB_PTR, (uint16)counter);
  73              		.loc 1 486 0
  74 0040 5380     		strh	r3, [r2, #2]	@ movhi
  75              	.LVL2:
  76              	.LBE11:
  77              	.LBE10:
  78              	.LBB12:
  79              	.LBB13:
 281:.\Generated_Source\PSoC5/Timeout_Timer.c ****     Timeout_Timer_STATUS_MASK = interruptMode;
  80              		.loc 1 281 0
  81 0042 044B     		ldr	r3, .L2+8
  82 0044 0822     		movs	r2, #8
  83 0046 1A70     		strb	r2, [r3]
ARM GAS  C:\Users\Yiquing\AppData\Local\Temp\ccGpbWUH.s 			page 11


  84 0048 7047     		bx	lr
  85              	.L3:
  86 004a 00BF     		.align	2
  87              	.L2:
  88 004c 0C4F0040 		.word	1073762060
  89 0050 104F0040 		.word	1073762064
  90 0054 0F4F0040 		.word	1073762063
  91              	.LBE13:
  92              	.LBE12:
  93              		.cfi_endproc
  94              	.LFE0:
  95              		.size	Timeout_Timer_Init, .-Timeout_Timer_Init
  96              		.section	.text.Timeout_Timer_Enable,"ax",%progbits
  97              		.align	1
  98              		.global	Timeout_Timer_Enable
  99              		.thumb
 100              		.thumb_func
 101              		.type	Timeout_Timer_Enable, %function
 102              	Timeout_Timer_Enable:
 103              	.LFB1:
 181:.\Generated_Source\PSoC5/Timeout_Timer.c **** {
 104              		.loc 1 181 0
 105              		.cfi_startproc
 106              		@ args = 0, pretend = 0, frame = 0
 107              		@ frame_needed = 0, uses_anonymous_args = 0
 108              		@ link register save eliminated.
 184:.\Generated_Source\PSoC5/Timeout_Timer.c ****         Timeout_Timer_GLOBAL_ENABLE |= Timeout_Timer_BLOCK_EN_MASK;
 109              		.loc 1 184 0
 110 0000 074B     		ldr	r3, .L5
 111 0002 1A78     		ldrb	r2, [r3]	@ zero_extendqisi2
 112 0004 42F00202 		orr	r2, r2, #2
 113 0008 1A70     		strb	r2, [r3]
 185:.\Generated_Source\PSoC5/Timeout_Timer.c ****         Timeout_Timer_GLOBAL_STBY_ENABLE |= Timeout_Timer_BLOCK_STBY_EN_MASK;
 114              		.loc 1 185 0
 115 000a 1A7C     		ldrb	r2, [r3, #16]	@ zero_extendqisi2
 116 000c 42F00202 		orr	r2, r2, #2
 117 0010 1A74     		strb	r2, [r3, #16]
 190:.\Generated_Source\PSoC5/Timeout_Timer.c ****         Timeout_Timer_CONTROL |= Timeout_Timer_CTRL_ENABLE;
 118              		.loc 1 190 0
 119 0012 93F8692B 		ldrb	r2, [r3, #2921]	@ zero_extendqisi2
 120 0016 42F00102 		orr	r2, r2, #1
 121 001a 83F8692B 		strb	r2, [r3, #2921]
 122 001e 7047     		bx	lr
 123              	.L6:
 124              		.align	2
 125              	.L5:
 126 0020 A3430040 		.word	1073759139
 127              		.cfi_endproc
 128              	.LFE1:
 129              		.size	Timeout_Timer_Enable, .-Timeout_Timer_Enable
 130              		.section	.text.Timeout_Timer_Start,"ax",%progbits
 131              		.align	1
 132              		.global	Timeout_Timer_Start
 133              		.thumb
 134              		.thumb_func
 135              		.type	Timeout_Timer_Start, %function
 136              	Timeout_Timer_Start:
ARM GAS  C:\Users\Yiquing\AppData\Local\Temp\ccGpbWUH.s 			page 12


 137              	.LFB2:
 216:.\Generated_Source\PSoC5/Timeout_Timer.c **** {
 138              		.loc 1 216 0
 139              		.cfi_startproc
 140              		@ args = 0, pretend = 0, frame = 0
 141              		@ frame_needed = 0, uses_anonymous_args = 0
 142 0000 10B5     		push	{r4, lr}
 143              		.cfi_def_cfa_offset 8
 144              		.cfi_offset 4, -8
 145              		.cfi_offset 14, -4
 217:.\Generated_Source\PSoC5/Timeout_Timer.c ****     if(Timeout_Timer_initVar == 0u)
 146              		.loc 1 217 0
 147 0002 054C     		ldr	r4, .L10
 148 0004 2378     		ldrb	r3, [r4]	@ zero_extendqisi2
 149 0006 1BB9     		cbnz	r3, .L8
 219:.\Generated_Source\PSoC5/Timeout_Timer.c ****         Timeout_Timer_Init();
 150              		.loc 1 219 0
 151 0008 FFF7FEFF 		bl	Timeout_Timer_Init
 152              	.LVL3:
 221:.\Generated_Source\PSoC5/Timeout_Timer.c ****         Timeout_Timer_initVar = 1u;   /* Clear this bit for Initialization */
 153              		.loc 1 221 0
 154 000c 0123     		movs	r3, #1
 155 000e 2370     		strb	r3, [r4]
 156              	.L8:
 226:.\Generated_Source\PSoC5/Timeout_Timer.c **** }
 157              		.loc 1 226 0
 158 0010 BDE81040 		pop	{r4, lr}
 225:.\Generated_Source\PSoC5/Timeout_Timer.c ****     Timeout_Timer_Enable();
 159              		.loc 1 225 0
 160 0014 FFF7FEBF 		b	Timeout_Timer_Enable
 161              	.LVL4:
 162              	.L11:
 163              		.align	2
 164              	.L10:
 165 0018 00000000 		.word	.LANCHOR0
 166              		.cfi_endproc
 167              	.LFE2:
 168              		.size	Timeout_Timer_Start, .-Timeout_Timer_Start
 169              		.section	.text.Timeout_Timer_Stop,"ax",%progbits
 170              		.align	1
 171              		.global	Timeout_Timer_Stop
 172              		.thumb
 173              		.thumb_func
 174              		.type	Timeout_Timer_Stop, %function
 175              	Timeout_Timer_Stop:
 176              	.LFB3:
 248:.\Generated_Source\PSoC5/Timeout_Timer.c **** {
 177              		.loc 1 248 0
 178              		.cfi_startproc
 179              		@ args = 0, pretend = 0, frame = 0
 180              		@ frame_needed = 0, uses_anonymous_args = 0
 181              		@ link register save eliminated.
 251:.\Generated_Source\PSoC5/Timeout_Timer.c ****         Timeout_Timer_CONTROL &= ((uint8)(~Timeout_Timer_CTRL_ENABLE));
 182              		.loc 1 251 0
 183 0000 084B     		ldr	r3, .L13
 184 0002 1A78     		ldrb	r2, [r3]	@ zero_extendqisi2
 256:.\Generated_Source\PSoC5/Timeout_Timer.c ****         Timeout_Timer_GLOBAL_ENABLE &= ((uint8)(~Timeout_Timer_BLOCK_EN_MASK));
ARM GAS  C:\Users\Yiquing\AppData\Local\Temp\ccGpbWUH.s 			page 13


 185              		.loc 1 256 0
 186 0004 A3F66933 		subw	r3, r3, #2921
 251:.\Generated_Source\PSoC5/Timeout_Timer.c ****         Timeout_Timer_CONTROL &= ((uint8)(~Timeout_Timer_CTRL_ENABLE));
 187              		.loc 1 251 0
 188 0008 02F0FE02 		and	r2, r2, #254
 189 000c 83F8692B 		strb	r2, [r3, #2921]
 256:.\Generated_Source\PSoC5/Timeout_Timer.c ****         Timeout_Timer_GLOBAL_ENABLE &= ((uint8)(~Timeout_Timer_BLOCK_EN_MASK));
 190              		.loc 1 256 0
 191 0010 1A78     		ldrb	r2, [r3]	@ zero_extendqisi2
 192 0012 02F0FD02 		and	r2, r2, #253
 193 0016 1A70     		strb	r2, [r3]
 257:.\Generated_Source\PSoC5/Timeout_Timer.c ****         Timeout_Timer_GLOBAL_STBY_ENABLE &= ((uint8)(~Timeout_Timer_BLOCK_STBY_EN_MASK));
 194              		.loc 1 257 0
 195 0018 1A7C     		ldrb	r2, [r3, #16]	@ zero_extendqisi2
 196 001a 02F0FD02 		and	r2, r2, #253
 197 001e 1A74     		strb	r2, [r3, #16]
 198 0020 7047     		bx	lr
 199              	.L14:
 200 0022 00BF     		.align	2
 201              	.L13:
 202 0024 0C4F0040 		.word	1073762060
 203              		.cfi_endproc
 204              	.LFE3:
 205              		.size	Timeout_Timer_Stop, .-Timeout_Timer_Stop
 206              		.section	.text.Timeout_Timer_SetInterruptMode,"ax",%progbits
 207              		.align	1
 208              		.global	Timeout_Timer_SetInterruptMode
 209              		.thumb
 210              		.thumb_func
 211              		.type	Timeout_Timer_SetInterruptMode, %function
 212              	Timeout_Timer_SetInterruptMode:
 213              	.LFB4:
 280:.\Generated_Source\PSoC5/Timeout_Timer.c **** {
 214              		.loc 1 280 0
 215              		.cfi_startproc
 216              		@ args = 0, pretend = 0, frame = 0
 217              		@ frame_needed = 0, uses_anonymous_args = 0
 218              		@ link register save eliminated.
 219              	.LVL5:
 281:.\Generated_Source\PSoC5/Timeout_Timer.c ****     Timeout_Timer_STATUS_MASK = interruptMode;
 220              		.loc 1 281 0
 221 0000 014B     		ldr	r3, .L16
 222 0002 1870     		strb	r0, [r3]
 223 0004 7047     		bx	lr
 224              	.L17:
 225 0006 00BF     		.align	2
 226              	.L16:
 227 0008 0F4F0040 		.word	1073762063
 228              		.cfi_endproc
 229              	.LFE4:
 230              		.size	Timeout_Timer_SetInterruptMode, .-Timeout_Timer_SetInterruptMode
 231              		.section	.text.Timeout_Timer_SoftwareCapture,"ax",%progbits
 232              		.align	1
 233              		.global	Timeout_Timer_SoftwareCapture
 234              		.thumb
 235              		.thumb_func
 236              		.type	Timeout_Timer_SoftwareCapture, %function
ARM GAS  C:\Users\Yiquing\AppData\Local\Temp\ccGpbWUH.s 			page 14


 237              	Timeout_Timer_SoftwareCapture:
 238              	.LFB5:
 303:.\Generated_Source\PSoC5/Timeout_Timer.c **** {
 239              		.loc 1 303 0
 240              		.cfi_startproc
 241              		@ args = 0, pretend = 0, frame = 0
 242              		@ frame_needed = 0, uses_anonymous_args = 0
 243              		@ link register save eliminated.
 306:.\Generated_Source\PSoC5/Timeout_Timer.c ****         (void)CY_GET_REG16(Timeout_Timer_COUNTER_LSB_PTR);
 244              		.loc 1 306 0
 245 0000 014B     		ldr	r3, .L19
 246 0002 1B88     		ldrh	r3, [r3]
 247 0004 7047     		bx	lr
 248              	.L20:
 249 0006 00BF     		.align	2
 250              	.L19:
 251 0008 124F0040 		.word	1073762066
 252              		.cfi_endproc
 253              	.LFE5:
 254              		.size	Timeout_Timer_SoftwareCapture, .-Timeout_Timer_SoftwareCapture
 255              		.section	.text.Timeout_Timer_ReadStatusRegister,"ax",%progbits
 256              		.align	1
 257              		.global	Timeout_Timer_ReadStatusRegister
 258              		.thumb
 259              		.thumb_func
 260              		.type	Timeout_Timer_ReadStatusRegister, %function
 261              	Timeout_Timer_ReadStatusRegister:
 262              	.LFB6:
 334:.\Generated_Source\PSoC5/Timeout_Timer.c **** {
 263              		.loc 1 334 0
 264              		.cfi_startproc
 265              		@ args = 0, pretend = 0, frame = 0
 266              		@ frame_needed = 0, uses_anonymous_args = 0
 267              		@ link register save eliminated.
 335:.\Generated_Source\PSoC5/Timeout_Timer.c ****     return (Timeout_Timer_STATUS);
 268              		.loc 1 335 0
 269 0000 014B     		ldr	r3, .L22
 270 0002 1878     		ldrb	r0, [r3]	@ zero_extendqisi2
 336:.\Generated_Source\PSoC5/Timeout_Timer.c **** }
 271              		.loc 1 336 0
 272 0004 7047     		bx	lr
 273              	.L23:
 274 0006 00BF     		.align	2
 275              	.L22:
 276 0008 0F4F0040 		.word	1073762063
 277              		.cfi_endproc
 278              	.LFE6:
 279              		.size	Timeout_Timer_ReadStatusRegister, .-Timeout_Timer_ReadStatusRegister
 280              		.section	.text.Timeout_Timer_ReadControlRegister,"ax",%progbits
 281              		.align	1
 282              		.global	Timeout_Timer_ReadControlRegister
 283              		.thumb
 284              		.thumb_func
 285              		.type	Timeout_Timer_ReadControlRegister, %function
 286              	Timeout_Timer_ReadControlRegister:
 287              	.LFB7:
 357:.\Generated_Source\PSoC5/Timeout_Timer.c **** {
ARM GAS  C:\Users\Yiquing\AppData\Local\Temp\ccGpbWUH.s 			page 15


 288              		.loc 1 357 0
 289              		.cfi_startproc
 290              		@ args = 0, pretend = 0, frame = 0
 291              		@ frame_needed = 0, uses_anonymous_args = 0
 292              		@ link register save eliminated.
 359:.\Generated_Source\PSoC5/Timeout_Timer.c ****         return ((uint8)Timeout_Timer_CONTROL);
 293              		.loc 1 359 0
 294 0000 014B     		ldr	r3, .L25
 295 0002 1878     		ldrb	r0, [r3]	@ zero_extendqisi2
 363:.\Generated_Source\PSoC5/Timeout_Timer.c **** }
 296              		.loc 1 363 0
 297 0004 7047     		bx	lr
 298              	.L26:
 299 0006 00BF     		.align	2
 300              	.L25:
 301 0008 0C4F0040 		.word	1073762060
 302              		.cfi_endproc
 303              	.LFE7:
 304              		.size	Timeout_Timer_ReadControlRegister, .-Timeout_Timer_ReadControlRegister
 305              		.section	.text.Timeout_Timer_WriteControlRegister,"ax",%progbits
 306              		.align	1
 307              		.global	Timeout_Timer_WriteControlRegister
 308              		.thumb
 309              		.thumb_func
 310              		.type	Timeout_Timer_WriteControlRegister, %function
 311              	Timeout_Timer_WriteControlRegister:
 312              	.LFB8:
 380:.\Generated_Source\PSoC5/Timeout_Timer.c **** {
 313              		.loc 1 380 0
 314              		.cfi_startproc
 315              		@ args = 0, pretend = 0, frame = 0
 316              		@ frame_needed = 0, uses_anonymous_args = 0
 317              		@ link register save eliminated.
 318              	.LVL6:
 382:.\Generated_Source\PSoC5/Timeout_Timer.c ****         Timeout_Timer_CONTROL = control;
 319              		.loc 1 382 0
 320 0000 014B     		ldr	r3, .L28
 321 0002 1870     		strb	r0, [r3]
 322 0004 7047     		bx	lr
 323              	.L29:
 324 0006 00BF     		.align	2
 325              	.L28:
 326 0008 0C4F0040 		.word	1073762060
 327              		.cfi_endproc
 328              	.LFE8:
 329              		.size	Timeout_Timer_WriteControlRegister, .-Timeout_Timer_WriteControlRegister
 330              		.section	.text.Timeout_Timer_ReadPeriod,"ax",%progbits
 331              		.align	1
 332              		.global	Timeout_Timer_ReadPeriod
 333              		.thumb
 334              		.thumb_func
 335              		.type	Timeout_Timer_ReadPeriod, %function
 336              	Timeout_Timer_ReadPeriod:
 337              	.LFB9:
 406:.\Generated_Source\PSoC5/Timeout_Timer.c **** {
 338              		.loc 1 406 0
 339              		.cfi_startproc
ARM GAS  C:\Users\Yiquing\AppData\Local\Temp\ccGpbWUH.s 			page 16


 340              		@ args = 0, pretend = 0, frame = 0
 341              		@ frame_needed = 0, uses_anonymous_args = 0
 342              		@ link register save eliminated.
 408:.\Generated_Source\PSoC5/Timeout_Timer.c ****        return ((uint8)CY_GET_REG16(Timeout_Timer_PERIOD_LSB_PTR));
 343              		.loc 1 408 0
 344 0000 014B     		ldr	r3, .L31
 345 0002 1888     		ldrh	r0, [r3]
 412:.\Generated_Source\PSoC5/Timeout_Timer.c **** }
 346              		.loc 1 412 0
 347 0004 C0B2     		uxtb	r0, r0
 348 0006 7047     		bx	lr
 349              	.L32:
 350              		.align	2
 351              	.L31:
 352 0008 104F0040 		.word	1073762064
 353              		.cfi_endproc
 354              	.LFE9:
 355              		.size	Timeout_Timer_ReadPeriod, .-Timeout_Timer_ReadPeriod
 356              		.section	.text.Timeout_Timer_WritePeriod,"ax",%progbits
 357              		.align	1
 358              		.global	Timeout_Timer_WritePeriod
 359              		.thumb
 360              		.thumb_func
 361              		.type	Timeout_Timer_WritePeriod, %function
 362              	Timeout_Timer_WritePeriod:
 363              	.LFB10:
 432:.\Generated_Source\PSoC5/Timeout_Timer.c **** {
 364              		.loc 1 432 0
 365              		.cfi_startproc
 366              		@ args = 0, pretend = 0, frame = 0
 367              		@ frame_needed = 0, uses_anonymous_args = 0
 368              		@ link register save eliminated.
 369              	.LVL7:
 435:.\Generated_Source\PSoC5/Timeout_Timer.c ****         CY_SET_REG16(Timeout_Timer_PERIOD_LSB_PTR, period_temp);
 370              		.loc 1 435 0
 371 0000 014B     		ldr	r3, .L34
 372 0002 1880     		strh	r0, [r3]	@ movhi
 373 0004 7047     		bx	lr
 374              	.L35:
 375 0006 00BF     		.align	2
 376              	.L34:
 377 0008 104F0040 		.word	1073762064
 378              		.cfi_endproc
 379              	.LFE10:
 380              		.size	Timeout_Timer_WritePeriod, .-Timeout_Timer_WritePeriod
 381              		.section	.text.Timeout_Timer_ReadCapture,"ax",%progbits
 382              		.align	1
 383              		.global	Timeout_Timer_ReadCapture
 384              		.thumb
 385              		.thumb_func
 386              		.type	Timeout_Timer_ReadCapture, %function
 387              	Timeout_Timer_ReadCapture:
 388              	.LFB11:
 457:.\Generated_Source\PSoC5/Timeout_Timer.c **** {
 389              		.loc 1 457 0
 390              		.cfi_startproc
 391              		@ args = 0, pretend = 0, frame = 0
ARM GAS  C:\Users\Yiquing\AppData\Local\Temp\ccGpbWUH.s 			page 17


 392              		@ frame_needed = 0, uses_anonymous_args = 0
 393              		@ link register save eliminated.
 459:.\Generated_Source\PSoC5/Timeout_Timer.c ****        return ((uint8)CY_GET_REG16(Timeout_Timer_CAPTURE_LSB_PTR));
 394              		.loc 1 459 0
 395 0000 014B     		ldr	r3, .L37
 396 0002 1888     		ldrh	r0, [r3]
 463:.\Generated_Source\PSoC5/Timeout_Timer.c **** }
 397              		.loc 1 463 0
 398 0004 C0B2     		uxtb	r0, r0
 399 0006 7047     		bx	lr
 400              	.L38:
 401              		.align	2
 402              	.L37:
 403 0008 144F0040 		.word	1073762068
 404              		.cfi_endproc
 405              	.LFE11:
 406              		.size	Timeout_Timer_ReadCapture, .-Timeout_Timer_ReadCapture
 407              		.section	.text.Timeout_Timer_WriteCounter,"ax",%progbits
 408              		.align	1
 409              		.global	Timeout_Timer_WriteCounter
 410              		.thumb
 411              		.thumb_func
 412              		.type	Timeout_Timer_WriteCounter, %function
 413              	Timeout_Timer_WriteCounter:
 414              	.LFB12:
 481:.\Generated_Source\PSoC5/Timeout_Timer.c **** {
 415              		.loc 1 481 0
 416              		.cfi_startproc
 417              		@ args = 0, pretend = 0, frame = 0
 418              		@ frame_needed = 0, uses_anonymous_args = 0
 419              		@ link register save eliminated.
 420              	.LVL8:
 421              		.loc 1 486 0
 422 0000 014B     		ldr	r3, .L40
 423 0002 1880     		strh	r0, [r3]	@ movhi
 424 0004 7047     		bx	lr
 425              	.L41:
 426 0006 00BF     		.align	2
 427              	.L40:
 428 0008 124F0040 		.word	1073762066
 429              		.cfi_endproc
 430              	.LFE12:
 431              		.size	Timeout_Timer_WriteCounter, .-Timeout_Timer_WriteCounter
 432              		.section	.text.Timeout_Timer_ReadCounter,"ax",%progbits
 433              		.align	1
 434              		.global	Timeout_Timer_ReadCounter
 435              		.thumb
 436              		.thumb_func
 437              		.type	Timeout_Timer_ReadCounter, %function
 438              	Timeout_Timer_ReadCounter:
 439              	.LFB13:
 487:.\Generated_Source\PSoC5/Timeout_Timer.c ****         
 488:.\Generated_Source\PSoC5/Timeout_Timer.c ****     #else
 489:.\Generated_Source\PSoC5/Timeout_Timer.c ****         CY_SET_REG8(Timeout_Timer_COUNTER_LSB_PTR, counter);
 490:.\Generated_Source\PSoC5/Timeout_Timer.c ****     #endif /* Set Write Counter only for the UDB implementation (Write Counter not available in fix
 491:.\Generated_Source\PSoC5/Timeout_Timer.c **** }
 492:.\Generated_Source\PSoC5/Timeout_Timer.c **** 
ARM GAS  C:\Users\Yiquing\AppData\Local\Temp\ccGpbWUH.s 			page 18


 493:.\Generated_Source\PSoC5/Timeout_Timer.c **** 
 494:.\Generated_Source\PSoC5/Timeout_Timer.c **** /*******************************************************************************
 495:.\Generated_Source\PSoC5/Timeout_Timer.c **** * Function Name: Timeout_Timer_ReadCounter
 496:.\Generated_Source\PSoC5/Timeout_Timer.c **** ********************************************************************************
 497:.\Generated_Source\PSoC5/Timeout_Timer.c **** *
 498:.\Generated_Source\PSoC5/Timeout_Timer.c **** * Summary:
 499:.\Generated_Source\PSoC5/Timeout_Timer.c **** *  This function returns the current counter value.
 500:.\Generated_Source\PSoC5/Timeout_Timer.c **** *
 501:.\Generated_Source\PSoC5/Timeout_Timer.c **** * Parameters:
 502:.\Generated_Source\PSoC5/Timeout_Timer.c **** *  void
 503:.\Generated_Source\PSoC5/Timeout_Timer.c **** *
 504:.\Generated_Source\PSoC5/Timeout_Timer.c **** * Return:
 505:.\Generated_Source\PSoC5/Timeout_Timer.c **** *  Present compare value.
 506:.\Generated_Source\PSoC5/Timeout_Timer.c **** *
 507:.\Generated_Source\PSoC5/Timeout_Timer.c **** *******************************************************************************/
 508:.\Generated_Source\PSoC5/Timeout_Timer.c **** uint8 Timeout_Timer_ReadCounter(void) 
 509:.\Generated_Source\PSoC5/Timeout_Timer.c **** {
 440              		.loc 1 509 0
 441              		.cfi_startproc
 442              		@ args = 0, pretend = 0, frame = 0
 443              		@ frame_needed = 0, uses_anonymous_args = 0
 444              		@ link register save eliminated.
 510:.\Generated_Source\PSoC5/Timeout_Timer.c ****     /* Force capture by reading Accumulator */
 511:.\Generated_Source\PSoC5/Timeout_Timer.c ****     /* Must first do a software capture to be able to read the counter */
 512:.\Generated_Source\PSoC5/Timeout_Timer.c ****     /* It is up to the user code to make sure there isn't already captured data in the FIFO */
 513:.\Generated_Source\PSoC5/Timeout_Timer.c ****     #if(Timeout_Timer_UsingFixedFunction)
 514:.\Generated_Source\PSoC5/Timeout_Timer.c ****         (void)CY_GET_REG16(Timeout_Timer_COUNTER_LSB_PTR);
 445              		.loc 1 514 0
 446 0000 024B     		ldr	r3, .L43
 447 0002 1B88     		ldrh	r3, [r3]
 515:.\Generated_Source\PSoC5/Timeout_Timer.c ****     #else
 516:.\Generated_Source\PSoC5/Timeout_Timer.c ****         (void)CY_GET_REG8(Timeout_Timer_COUNTER_LSB_PTR_8BIT);
 517:.\Generated_Source\PSoC5/Timeout_Timer.c ****     #endif/* (Timeout_Timer_UsingFixedFunction) */
 518:.\Generated_Source\PSoC5/Timeout_Timer.c **** 
 519:.\Generated_Source\PSoC5/Timeout_Timer.c ****     /* Read the data from the FIFO (or capture register for Fixed Function)*/
 520:.\Generated_Source\PSoC5/Timeout_Timer.c ****     #if(Timeout_Timer_UsingFixedFunction)
 521:.\Generated_Source\PSoC5/Timeout_Timer.c ****         return ((uint8)CY_GET_REG16(Timeout_Timer_CAPTURE_LSB_PTR));
 448              		.loc 1 521 0
 449 0004 024B     		ldr	r3, .L43+4
 450 0006 1888     		ldrh	r0, [r3]
 522:.\Generated_Source\PSoC5/Timeout_Timer.c ****     #else
 523:.\Generated_Source\PSoC5/Timeout_Timer.c ****         return (CY_GET_REG8(Timeout_Timer_CAPTURE_LSB_PTR));
 524:.\Generated_Source\PSoC5/Timeout_Timer.c ****     #endif /* (Timeout_Timer_UsingFixedFunction) */
 525:.\Generated_Source\PSoC5/Timeout_Timer.c **** }
 451              		.loc 1 525 0
 452 0008 C0B2     		uxtb	r0, r0
 453 000a 7047     		bx	lr
 454              	.L44:
 455              		.align	2
 456              	.L43:
 457 000c 124F0040 		.word	1073762066
 458 0010 144F0040 		.word	1073762068
 459              		.cfi_endproc
 460              	.LFE13:
 461              		.size	Timeout_Timer_ReadCounter, .-Timeout_Timer_ReadCounter
 462              		.global	Timeout_Timer_initVar
 463              		.bss
ARM GAS  C:\Users\Yiquing\AppData\Local\Temp\ccGpbWUH.s 			page 19


 464              		.set	.LANCHOR0,. + 0
 465              		.type	Timeout_Timer_initVar, %object
 466              		.size	Timeout_Timer_initVar, 1
 467              	Timeout_Timer_initVar:
 468 0000 00       		.space	1
 469              		.text
 470              	.Letext0:
 471              		.file 2 ".\\Generated_Source\\PSoC5\\cytypes.h"