ARM GAS  C:\Users\Yiquing\AppData\Local\Temp\ccNO1uSW.s 			page 1


   1              		.syntax unified
   2              		.cpu cortex-m3
   3              		.fpu softvfp
   4              		.eabi_attribute 20, 1
   5              		.eabi_attribute 21, 1
   6              		.eabi_attribute 23, 3
   7              		.eabi_attribute 24, 1
   8              		.eabi_attribute 25, 1
   9              		.eabi_attribute 26, 1
  10              		.eabi_attribute 30, 4
  11              		.eabi_attribute 34, 1
  12              		.eabi_attribute 18, 4
  13              		.thumb
  14              		.file	"UART_READER_PM.c"
  15              		.text
  16              	.Ltext0:
  17              		.cfi_sections	.debug_frame
  18              		.section	.text.UART_READER_SaveConfig,"ax",%progbits
  19              		.align	1
  20              		.global	UART_READER_SaveConfig
  21              		.thumb
  22              		.thumb_func
  23              		.type	UART_READER_SaveConfig, %function
  24              	UART_READER_SaveConfig:
  25              	.LFB0:
  26              		.file 1 ".\\Generated_Source\\PSoC5\\UART_READER_PM.c"
   1:.\Generated_Source\PSoC5/UART_READER_PM.c **** /*******************************************************************************
   2:.\Generated_Source\PSoC5/UART_READER_PM.c **** * File Name: UART_READER_PM.c
   3:.\Generated_Source\PSoC5/UART_READER_PM.c **** * Version 2.50
   4:.\Generated_Source\PSoC5/UART_READER_PM.c **** *
   5:.\Generated_Source\PSoC5/UART_READER_PM.c **** * Description:
   6:.\Generated_Source\PSoC5/UART_READER_PM.c **** *  This file provides Sleep/WakeUp APIs functionality.
   7:.\Generated_Source\PSoC5/UART_READER_PM.c **** *
   8:.\Generated_Source\PSoC5/UART_READER_PM.c **** * Note:
   9:.\Generated_Source\PSoC5/UART_READER_PM.c **** *
  10:.\Generated_Source\PSoC5/UART_READER_PM.c **** ********************************************************************************
  11:.\Generated_Source\PSoC5/UART_READER_PM.c **** * Copyright 2008-2015, Cypress Semiconductor Corporation.  All rights reserved.
  12:.\Generated_Source\PSoC5/UART_READER_PM.c **** * You may use this file only in accordance with the license, terms, conditions,
  13:.\Generated_Source\PSoC5/UART_READER_PM.c **** * disclaimers, and limitations in the end user license agreement accompanying
  14:.\Generated_Source\PSoC5/UART_READER_PM.c **** * the software package with which this file was provided.
  15:.\Generated_Source\PSoC5/UART_READER_PM.c **** *******************************************************************************/
  16:.\Generated_Source\PSoC5/UART_READER_PM.c **** 
  17:.\Generated_Source\PSoC5/UART_READER_PM.c **** #include "UART_READER.h"
  18:.\Generated_Source\PSoC5/UART_READER_PM.c **** 
  19:.\Generated_Source\PSoC5/UART_READER_PM.c **** 
  20:.\Generated_Source\PSoC5/UART_READER_PM.c **** /***************************************
  21:.\Generated_Source\PSoC5/UART_READER_PM.c **** * Local data allocation
  22:.\Generated_Source\PSoC5/UART_READER_PM.c **** ***************************************/
  23:.\Generated_Source\PSoC5/UART_READER_PM.c **** 
  24:.\Generated_Source\PSoC5/UART_READER_PM.c **** static UART_READER_BACKUP_STRUCT  UART_READER_backup =
  25:.\Generated_Source\PSoC5/UART_READER_PM.c **** {
  26:.\Generated_Source\PSoC5/UART_READER_PM.c ****     /* enableState - disabled */
  27:.\Generated_Source\PSoC5/UART_READER_PM.c ****     0u,
  28:.\Generated_Source\PSoC5/UART_READER_PM.c **** };
  29:.\Generated_Source\PSoC5/UART_READER_PM.c **** 
  30:.\Generated_Source\PSoC5/UART_READER_PM.c **** 
  31:.\Generated_Source\PSoC5/UART_READER_PM.c **** 
ARM GAS  C:\Users\Yiquing\AppData\Local\Temp\ccNO1uSW.s 			page 2


  32:.\Generated_Source\PSoC5/UART_READER_PM.c **** /*******************************************************************************
  33:.\Generated_Source\PSoC5/UART_READER_PM.c **** * Function Name: UART_READER_SaveConfig
  34:.\Generated_Source\PSoC5/UART_READER_PM.c **** ********************************************************************************
  35:.\Generated_Source\PSoC5/UART_READER_PM.c **** *
  36:.\Generated_Source\PSoC5/UART_READER_PM.c **** * Summary:
  37:.\Generated_Source\PSoC5/UART_READER_PM.c **** *  This function saves the component nonretention control register.
  38:.\Generated_Source\PSoC5/UART_READER_PM.c **** *  Does not save the FIFO which is a set of nonretention registers.
  39:.\Generated_Source\PSoC5/UART_READER_PM.c **** *  This function is called by the UART_READER_Sleep() function.
  40:.\Generated_Source\PSoC5/UART_READER_PM.c **** *
  41:.\Generated_Source\PSoC5/UART_READER_PM.c **** * Parameters:
  42:.\Generated_Source\PSoC5/UART_READER_PM.c **** *  None.
  43:.\Generated_Source\PSoC5/UART_READER_PM.c **** *
  44:.\Generated_Source\PSoC5/UART_READER_PM.c **** * Return:
  45:.\Generated_Source\PSoC5/UART_READER_PM.c **** *  None.
  46:.\Generated_Source\PSoC5/UART_READER_PM.c **** *
  47:.\Generated_Source\PSoC5/UART_READER_PM.c **** * Global Variables:
  48:.\Generated_Source\PSoC5/UART_READER_PM.c **** *  UART_READER_backup - modified when non-retention registers are saved.
  49:.\Generated_Source\PSoC5/UART_READER_PM.c **** *
  50:.\Generated_Source\PSoC5/UART_READER_PM.c **** * Reentrant:
  51:.\Generated_Source\PSoC5/UART_READER_PM.c **** *  No.
  52:.\Generated_Source\PSoC5/UART_READER_PM.c **** *
  53:.\Generated_Source\PSoC5/UART_READER_PM.c **** *******************************************************************************/
  54:.\Generated_Source\PSoC5/UART_READER_PM.c **** void UART_READER_SaveConfig(void)
  55:.\Generated_Source\PSoC5/UART_READER_PM.c **** {
  27              		.loc 1 55 0
  28              		.cfi_startproc
  29              		@ args = 0, pretend = 0, frame = 0
  30              		@ frame_needed = 0, uses_anonymous_args = 0
  31              		@ link register save eliminated.
  56:.\Generated_Source\PSoC5/UART_READER_PM.c ****     #if(UART_READER_CONTROL_REG_REMOVED == 0u)
  57:.\Generated_Source\PSoC5/UART_READER_PM.c ****         UART_READER_backup.cr = UART_READER_CONTROL_REG;
  32              		.loc 1 57 0
  33 0000 024B     		ldr	r3, .L2
  34 0002 1A78     		ldrb	r2, [r3]	@ zero_extendqisi2
  35 0004 024B     		ldr	r3, .L2+4
  36 0006 5A70     		strb	r2, [r3, #1]
  37 0008 7047     		bx	lr
  38              	.L3:
  39 000a 00BF     		.align	2
  40              	.L2:
  41 000c 78650040 		.word	1073767800
  42 0010 00000000 		.word	.LANCHOR0
  43              		.cfi_endproc
  44              	.LFE0:
  45              		.size	UART_READER_SaveConfig, .-UART_READER_SaveConfig
  46              		.section	.text.UART_READER_RestoreConfig,"ax",%progbits
  47              		.align	1
  48              		.global	UART_READER_RestoreConfig
  49              		.thumb
  50              		.thumb_func
  51              		.type	UART_READER_RestoreConfig, %function
  52              	UART_READER_RestoreConfig:
  53              	.LFB1:
  58:.\Generated_Source\PSoC5/UART_READER_PM.c ****     #endif /* End UART_READER_CONTROL_REG_REMOVED */
  59:.\Generated_Source\PSoC5/UART_READER_PM.c **** }
  60:.\Generated_Source\PSoC5/UART_READER_PM.c **** 
  61:.\Generated_Source\PSoC5/UART_READER_PM.c **** 
ARM GAS  C:\Users\Yiquing\AppData\Local\Temp\ccNO1uSW.s 			page 3


  62:.\Generated_Source\PSoC5/UART_READER_PM.c **** /*******************************************************************************
  63:.\Generated_Source\PSoC5/UART_READER_PM.c **** * Function Name: UART_READER_RestoreConfig
  64:.\Generated_Source\PSoC5/UART_READER_PM.c **** ********************************************************************************
  65:.\Generated_Source\PSoC5/UART_READER_PM.c **** *
  66:.\Generated_Source\PSoC5/UART_READER_PM.c **** * Summary:
  67:.\Generated_Source\PSoC5/UART_READER_PM.c **** *  Restores the nonretention control register except FIFO.
  68:.\Generated_Source\PSoC5/UART_READER_PM.c **** *  Does not restore the FIFO which is a set of nonretention registers.
  69:.\Generated_Source\PSoC5/UART_READER_PM.c **** *
  70:.\Generated_Source\PSoC5/UART_READER_PM.c **** * Parameters:
  71:.\Generated_Source\PSoC5/UART_READER_PM.c **** *  None.
  72:.\Generated_Source\PSoC5/UART_READER_PM.c **** *
  73:.\Generated_Source\PSoC5/UART_READER_PM.c **** * Return:
  74:.\Generated_Source\PSoC5/UART_READER_PM.c **** *  None.
  75:.\Generated_Source\PSoC5/UART_READER_PM.c **** *
  76:.\Generated_Source\PSoC5/UART_READER_PM.c **** * Global Variables:
  77:.\Generated_Source\PSoC5/UART_READER_PM.c **** *  UART_READER_backup - used when non-retention registers are restored.
  78:.\Generated_Source\PSoC5/UART_READER_PM.c **** *
  79:.\Generated_Source\PSoC5/UART_READER_PM.c **** * Reentrant:
  80:.\Generated_Source\PSoC5/UART_READER_PM.c **** *  No.
  81:.\Generated_Source\PSoC5/UART_READER_PM.c **** *
  82:.\Generated_Source\PSoC5/UART_READER_PM.c **** * Notes:
  83:.\Generated_Source\PSoC5/UART_READER_PM.c **** *  If this function is called without calling UART_READER_SaveConfig() 
  84:.\Generated_Source\PSoC5/UART_READER_PM.c **** *  first, the data loaded may be incorrect.
  85:.\Generated_Source\PSoC5/UART_READER_PM.c **** *
  86:.\Generated_Source\PSoC5/UART_READER_PM.c **** *******************************************************************************/
  87:.\Generated_Source\PSoC5/UART_READER_PM.c **** void UART_READER_RestoreConfig(void)
  88:.\Generated_Source\PSoC5/UART_READER_PM.c **** {
  54              		.loc 1 88 0
  55              		.cfi_startproc
  56              		@ args = 0, pretend = 0, frame = 0
  57              		@ frame_needed = 0, uses_anonymous_args = 0
  58              		@ link register save eliminated.
  89:.\Generated_Source\PSoC5/UART_READER_PM.c ****     #if(UART_READER_CONTROL_REG_REMOVED == 0u)
  90:.\Generated_Source\PSoC5/UART_READER_PM.c ****         UART_READER_CONTROL_REG = UART_READER_backup.cr;
  59              		.loc 1 90 0
  60 0000 024B     		ldr	r3, .L5
  61 0002 5A78     		ldrb	r2, [r3, #1]	@ zero_extendqisi2
  62 0004 024B     		ldr	r3, .L5+4
  63 0006 1A70     		strb	r2, [r3]
  64 0008 7047     		bx	lr
  65              	.L6:
  66 000a 00BF     		.align	2
  67              	.L5:
  68 000c 00000000 		.word	.LANCHOR0
  69 0010 78650040 		.word	1073767800
  70              		.cfi_endproc
  71              	.LFE1:
  72              		.size	UART_READER_RestoreConfig, .-UART_READER_RestoreConfig
  73              		.section	.text.UART_READER_Sleep,"ax",%progbits
  74              		.align	1
  75              		.global	UART_READER_Sleep
  76              		.thumb
  77              		.thumb_func
  78              		.type	UART_READER_Sleep, %function
  79              	UART_READER_Sleep:
  80              	.LFB2:
  91:.\Generated_Source\PSoC5/UART_READER_PM.c ****     #endif /* End UART_READER_CONTROL_REG_REMOVED */
ARM GAS  C:\Users\Yiquing\AppData\Local\Temp\ccNO1uSW.s 			page 4


  92:.\Generated_Source\PSoC5/UART_READER_PM.c **** }
  93:.\Generated_Source\PSoC5/UART_READER_PM.c **** 
  94:.\Generated_Source\PSoC5/UART_READER_PM.c **** 
  95:.\Generated_Source\PSoC5/UART_READER_PM.c **** /*******************************************************************************
  96:.\Generated_Source\PSoC5/UART_READER_PM.c **** * Function Name: UART_READER_Sleep
  97:.\Generated_Source\PSoC5/UART_READER_PM.c **** ********************************************************************************
  98:.\Generated_Source\PSoC5/UART_READER_PM.c **** *
  99:.\Generated_Source\PSoC5/UART_READER_PM.c **** * Summary:
 100:.\Generated_Source\PSoC5/UART_READER_PM.c **** *  This is the preferred API to prepare the component for sleep. 
 101:.\Generated_Source\PSoC5/UART_READER_PM.c **** *  The UART_READER_Sleep() API saves the current component state. Then it
 102:.\Generated_Source\PSoC5/UART_READER_PM.c **** *  calls the UART_READER_Stop() function and calls 
 103:.\Generated_Source\PSoC5/UART_READER_PM.c **** *  UART_READER_SaveConfig() to save the hardware configuration.
 104:.\Generated_Source\PSoC5/UART_READER_PM.c **** *  Call the UART_READER_Sleep() function before calling the CyPmSleep() 
 105:.\Generated_Source\PSoC5/UART_READER_PM.c **** *  or the CyPmHibernate() function. 
 106:.\Generated_Source\PSoC5/UART_READER_PM.c **** *
 107:.\Generated_Source\PSoC5/UART_READER_PM.c **** * Parameters:
 108:.\Generated_Source\PSoC5/UART_READER_PM.c **** *  None.
 109:.\Generated_Source\PSoC5/UART_READER_PM.c **** *
 110:.\Generated_Source\PSoC5/UART_READER_PM.c **** * Return:
 111:.\Generated_Source\PSoC5/UART_READER_PM.c **** *  None.
 112:.\Generated_Source\PSoC5/UART_READER_PM.c **** *
 113:.\Generated_Source\PSoC5/UART_READER_PM.c **** * Global Variables:
 114:.\Generated_Source\PSoC5/UART_READER_PM.c **** *  UART_READER_backup - modified when non-retention registers are saved.
 115:.\Generated_Source\PSoC5/UART_READER_PM.c **** *
 116:.\Generated_Source\PSoC5/UART_READER_PM.c **** * Reentrant:
 117:.\Generated_Source\PSoC5/UART_READER_PM.c **** *  No.
 118:.\Generated_Source\PSoC5/UART_READER_PM.c **** *
 119:.\Generated_Source\PSoC5/UART_READER_PM.c **** *******************************************************************************/
 120:.\Generated_Source\PSoC5/UART_READER_PM.c **** void UART_READER_Sleep(void)
 121:.\Generated_Source\PSoC5/UART_READER_PM.c **** {
  81              		.loc 1 121 0
  82              		.cfi_startproc
  83              		@ args = 0, pretend = 0, frame = 0
  84              		@ frame_needed = 0, uses_anonymous_args = 0
  85 0000 08B5     		push	{r3, lr}
  86              		.cfi_def_cfa_offset 8
  87              		.cfi_offset 3, -8
  88              		.cfi_offset 14, -4
 122:.\Generated_Source\PSoC5/UART_READER_PM.c ****     #if(UART_READER_RX_ENABLED || UART_READER_HD_ENABLED)
 123:.\Generated_Source\PSoC5/UART_READER_PM.c ****         if((UART_READER_RXSTATUS_ACTL_REG  & UART_READER_INT_ENABLE) != 0u)
  89              		.loc 1 123 0
  90 0002 094B     		ldr	r3, .L11
  91 0004 1A78     		ldrb	r2, [r3]	@ zero_extendqisi2
  92 0006 094B     		ldr	r3, .L11+4
  93 0008 02F01002 		and	r2, r2, #16
  94 000c 02F0FF01 		and	r1, r2, #255
  95 0010 12B1     		cbz	r2, .L8
 124:.\Generated_Source\PSoC5/UART_READER_PM.c ****         {
 125:.\Generated_Source\PSoC5/UART_READER_PM.c ****             UART_READER_backup.enableState = 1u;
  96              		.loc 1 125 0
  97 0012 0122     		movs	r2, #1
  98 0014 1A70     		strb	r2, [r3]
  99 0016 00E0     		b	.L9
 100              	.L8:
 126:.\Generated_Source\PSoC5/UART_READER_PM.c ****         }
 127:.\Generated_Source\PSoC5/UART_READER_PM.c ****         else
 128:.\Generated_Source\PSoC5/UART_READER_PM.c ****         {
ARM GAS  C:\Users\Yiquing\AppData\Local\Temp\ccNO1uSW.s 			page 5


 129:.\Generated_Source\PSoC5/UART_READER_PM.c ****             UART_READER_backup.enableState = 0u;
 101              		.loc 1 129 0
 102 0018 1970     		strb	r1, [r3]
 103              	.L9:
 130:.\Generated_Source\PSoC5/UART_READER_PM.c ****         }
 131:.\Generated_Source\PSoC5/UART_READER_PM.c ****     #else
 132:.\Generated_Source\PSoC5/UART_READER_PM.c ****         if((UART_READER_TXSTATUS_ACTL_REG  & UART_READER_INT_ENABLE) !=0u)
 133:.\Generated_Source\PSoC5/UART_READER_PM.c ****         {
 134:.\Generated_Source\PSoC5/UART_READER_PM.c ****             UART_READER_backup.enableState = 1u;
 135:.\Generated_Source\PSoC5/UART_READER_PM.c ****         }
 136:.\Generated_Source\PSoC5/UART_READER_PM.c ****         else
 137:.\Generated_Source\PSoC5/UART_READER_PM.c ****         {
 138:.\Generated_Source\PSoC5/UART_READER_PM.c ****             UART_READER_backup.enableState = 0u;
 139:.\Generated_Source\PSoC5/UART_READER_PM.c ****         }
 140:.\Generated_Source\PSoC5/UART_READER_PM.c ****     #endif /* End UART_READER_RX_ENABLED || UART_READER_HD_ENABLED*/
 141:.\Generated_Source\PSoC5/UART_READER_PM.c **** 
 142:.\Generated_Source\PSoC5/UART_READER_PM.c ****     UART_READER_Stop();
 104              		.loc 1 142 0
 105 001a FFF7FEFF 		bl	UART_READER_Stop
 106              	.LVL0:
 143:.\Generated_Source\PSoC5/UART_READER_PM.c ****     UART_READER_SaveConfig();
 144:.\Generated_Source\PSoC5/UART_READER_PM.c **** }
 107              		.loc 1 144 0
 108 001e BDE80840 		pop	{r3, lr}
 143:.\Generated_Source\PSoC5/UART_READER_PM.c ****     UART_READER_SaveConfig();
 109              		.loc 1 143 0
 110 0022 FFF7FEBF 		b	UART_READER_SaveConfig
 111              	.LVL1:
 112              	.L12:
 113 0026 00BF     		.align	2
 114              	.L11:
 115 0028 97640040 		.word	1073767575
 116 002c 00000000 		.word	.LANCHOR0
 117              		.cfi_endproc
 118              	.LFE2:
 119              		.size	UART_READER_Sleep, .-UART_READER_Sleep
 120              		.section	.text.UART_READER_Wakeup,"ax",%progbits
 121              		.align	1
 122              		.global	UART_READER_Wakeup
 123              		.thumb
 124              		.thumb_func
 125              		.type	UART_READER_Wakeup, %function
 126              	UART_READER_Wakeup:
 127              	.LFB3:
 145:.\Generated_Source\PSoC5/UART_READER_PM.c **** 
 146:.\Generated_Source\PSoC5/UART_READER_PM.c **** 
 147:.\Generated_Source\PSoC5/UART_READER_PM.c **** /*******************************************************************************
 148:.\Generated_Source\PSoC5/UART_READER_PM.c **** * Function Name: UART_READER_Wakeup
 149:.\Generated_Source\PSoC5/UART_READER_PM.c **** ********************************************************************************
 150:.\Generated_Source\PSoC5/UART_READER_PM.c **** *
 151:.\Generated_Source\PSoC5/UART_READER_PM.c **** * Summary:
 152:.\Generated_Source\PSoC5/UART_READER_PM.c **** *  This is the preferred API to restore the component to the state when 
 153:.\Generated_Source\PSoC5/UART_READER_PM.c **** *  UART_READER_Sleep() was called. The UART_READER_Wakeup() function
 154:.\Generated_Source\PSoC5/UART_READER_PM.c **** *  calls the UART_READER_RestoreConfig() function to restore the 
 155:.\Generated_Source\PSoC5/UART_READER_PM.c **** *  configuration. If the component was enabled before the 
 156:.\Generated_Source\PSoC5/UART_READER_PM.c **** *  UART_READER_Sleep() function was called, the UART_READER_Wakeup()
 157:.\Generated_Source\PSoC5/UART_READER_PM.c **** *  function will also re-enable the component.
ARM GAS  C:\Users\Yiquing\AppData\Local\Temp\ccNO1uSW.s 			page 6


 158:.\Generated_Source\PSoC5/UART_READER_PM.c **** *
 159:.\Generated_Source\PSoC5/UART_READER_PM.c **** * Parameters:
 160:.\Generated_Source\PSoC5/UART_READER_PM.c **** *  None.
 161:.\Generated_Source\PSoC5/UART_READER_PM.c **** *
 162:.\Generated_Source\PSoC5/UART_READER_PM.c **** * Return:
 163:.\Generated_Source\PSoC5/UART_READER_PM.c **** *  None.
 164:.\Generated_Source\PSoC5/UART_READER_PM.c **** *
 165:.\Generated_Source\PSoC5/UART_READER_PM.c **** * Global Variables:
 166:.\Generated_Source\PSoC5/UART_READER_PM.c **** *  UART_READER_backup - used when non-retention registers are restored.
 167:.\Generated_Source\PSoC5/UART_READER_PM.c **** *
 168:.\Generated_Source\PSoC5/UART_READER_PM.c **** * Reentrant:
 169:.\Generated_Source\PSoC5/UART_READER_PM.c **** *  No.
 170:.\Generated_Source\PSoC5/UART_READER_PM.c **** *
 171:.\Generated_Source\PSoC5/UART_READER_PM.c **** *******************************************************************************/
 172:.\Generated_Source\PSoC5/UART_READER_PM.c **** void UART_READER_Wakeup(void)
 173:.\Generated_Source\PSoC5/UART_READER_PM.c **** {
 128              		.loc 1 173 0
 129              		.cfi_startproc
 130              		@ args = 0, pretend = 0, frame = 0
 131              		@ frame_needed = 0, uses_anonymous_args = 0
 132 0000 08B5     		push	{r3, lr}
 133              		.cfi_def_cfa_offset 8
 134              		.cfi_offset 3, -8
 135              		.cfi_offset 14, -4
 174:.\Generated_Source\PSoC5/UART_READER_PM.c ****     UART_READER_RestoreConfig();
 136              		.loc 1 174 0
 137 0002 FFF7FEFF 		bl	UART_READER_RestoreConfig
 138              	.LVL2:
 175:.\Generated_Source\PSoC5/UART_READER_PM.c ****     #if( (UART_READER_RX_ENABLED) || (UART_READER_HD_ENABLED) )
 176:.\Generated_Source\PSoC5/UART_READER_PM.c ****         UART_READER_ClearRxBuffer();
 139              		.loc 1 176 0
 140 0006 FFF7FEFF 		bl	UART_READER_ClearRxBuffer
 141              	.LVL3:
 177:.\Generated_Source\PSoC5/UART_READER_PM.c ****     #endif /* End (UART_READER_RX_ENABLED) || (UART_READER_HD_ENABLED) */
 178:.\Generated_Source\PSoC5/UART_READER_PM.c ****     #if(UART_READER_TX_ENABLED || UART_READER_HD_ENABLED)
 179:.\Generated_Source\PSoC5/UART_READER_PM.c ****         UART_READER_ClearTxBuffer();
 142              		.loc 1 179 0
 143 000a FFF7FEFF 		bl	UART_READER_ClearTxBuffer
 144              	.LVL4:
 180:.\Generated_Source\PSoC5/UART_READER_PM.c ****     #endif /* End UART_READER_TX_ENABLED || UART_READER_HD_ENABLED */
 181:.\Generated_Source\PSoC5/UART_READER_PM.c **** 
 182:.\Generated_Source\PSoC5/UART_READER_PM.c ****     if(UART_READER_backup.enableState != 0u)
 145              		.loc 1 182 0
 146 000e 044B     		ldr	r3, .L15
 147 0010 1B78     		ldrb	r3, [r3]	@ zero_extendqisi2
 148 0012 1BB1     		cbz	r3, .L13
 183:.\Generated_Source\PSoC5/UART_READER_PM.c ****     {
 184:.\Generated_Source\PSoC5/UART_READER_PM.c ****         UART_READER_Enable();
 185:.\Generated_Source\PSoC5/UART_READER_PM.c ****     }
 186:.\Generated_Source\PSoC5/UART_READER_PM.c **** }
 149              		.loc 1 186 0
 150 0014 BDE80840 		pop	{r3, lr}
 184:.\Generated_Source\PSoC5/UART_READER_PM.c ****         UART_READER_Enable();
 151              		.loc 1 184 0
 152 0018 FFF7FEBF 		b	UART_READER_Enable
 153              	.LVL5:
 154              	.L13:
ARM GAS  C:\Users\Yiquing\AppData\Local\Temp\ccNO1uSW.s 			page 7


 155 001c 08BD     		pop	{r3, pc}
 156              	.L16:
 157 001e 00BF     		.align	2
 158              	.L15:
 159 0020 00000000 		.word	.LANCHOR0
 160              		.cfi_endproc
 161              	.LFE3:
 162              		.size	UART_READER_Wakeup, .-UART_READER_Wakeup
 163              		.bss
 164              		.set	.LANCHOR0,. + 0
 165              		.type	UART_READER_backup, %object
 166              		.size	UART_READER_backup, 2
 167              	UART_READER_backup:
 168 0000 0000     		.space	2
 169              		.text
 170              	.Letext0:
 171              		.file 2 ".\\Generated_Source\\PSoC5\\cytypes.h"
 172              		.file 3 ".\\Generated_Source\\PSoC5\\UART_READER.h"