ARM GAS  C:\Users\ilya\AppData\Local\Temp\cck042IZ.s 			page 1


   1              		.cpu cortex-m0
   2              		.fpu softvfp
   3              		.eabi_attribute 20, 1
   4              		.eabi_attribute 21, 1
   5              		.eabi_attribute 23, 3
   6              		.eabi_attribute 24, 1
   7              		.eabi_attribute 25, 1
   8              		.eabi_attribute 26, 1
   9              		.eabi_attribute 30, 6
  10              		.eabi_attribute 34, 0
  11              		.eabi_attribute 18, 4
  12              		.code	16
  13              		.file	"IDAC_1_PM.c"
  14              		.text
  15              	.Ltext0:
  16              		.cfi_sections	.debug_frame
  17              		.bss
  18              		.align	2
  19              	IDAC_1_backup:
  20 0000 00       		.space	1
  21 0001 000000   		.section	.text.IDAC_1_SaveConfig,"ax",%progbits
  22              		.align	2
  23              		.global	IDAC_1_SaveConfig
  24              		.code	16
  25              		.thumb_func
  26              		.type	IDAC_1_SaveConfig, %function
  27              	IDAC_1_SaveConfig:
  28              	.LFB1:
  29              		.file 1 "Generated_Source\\PSoC4\\IDAC_1_PM.c"
   1:Generated_Source\PSoC4/IDAC_1_PM.c **** /*******************************************************************************
   2:Generated_Source\PSoC4/IDAC_1_PM.c **** * File Name: IDAC_1_PM.c
   3:Generated_Source\PSoC4/IDAC_1_PM.c **** * Version 1.10
   4:Generated_Source\PSoC4/IDAC_1_PM.c **** *
   5:Generated_Source\PSoC4/IDAC_1_PM.c **** * Description:
   6:Generated_Source\PSoC4/IDAC_1_PM.c **** *  This file provides Low power mode APIs for IDAC_P4 component.
   7:Generated_Source\PSoC4/IDAC_1_PM.c **** *
   8:Generated_Source\PSoC4/IDAC_1_PM.c **** ********************************************************************************
   9:Generated_Source\PSoC4/IDAC_1_PM.c **** * Copyright 2013-2015, Cypress Semiconductor Corporation.  All rights reserved.
  10:Generated_Source\PSoC4/IDAC_1_PM.c **** * You may use this file only in accordance with the license, terms, conditions,
  11:Generated_Source\PSoC4/IDAC_1_PM.c **** * disclaimers, and limitations in the end user license agreement accompanying
  12:Generated_Source\PSoC4/IDAC_1_PM.c **** * the software package with which this file was provided.
  13:Generated_Source\PSoC4/IDAC_1_PM.c **** *******************************************************************************/
  14:Generated_Source\PSoC4/IDAC_1_PM.c **** 
  15:Generated_Source\PSoC4/IDAC_1_PM.c **** #include "IDAC_1.h"
  16:Generated_Source\PSoC4/IDAC_1_PM.c **** 
  17:Generated_Source\PSoC4/IDAC_1_PM.c **** 
  18:Generated_Source\PSoC4/IDAC_1_PM.c **** static IDAC_1_BACKUP_STRUCT IDAC_1_backup;
  19:Generated_Source\PSoC4/IDAC_1_PM.c **** 
  20:Generated_Source\PSoC4/IDAC_1_PM.c **** 
  21:Generated_Source\PSoC4/IDAC_1_PM.c **** /*******************************************************************************
  22:Generated_Source\PSoC4/IDAC_1_PM.c **** * Function Name: IDAC_1_SaveConfig
  23:Generated_Source\PSoC4/IDAC_1_PM.c **** ********************************************************************************
  24:Generated_Source\PSoC4/IDAC_1_PM.c **** *
  25:Generated_Source\PSoC4/IDAC_1_PM.c **** * Summary:
  26:Generated_Source\PSoC4/IDAC_1_PM.c **** *  Saves component state before sleep
  27:Generated_Source\PSoC4/IDAC_1_PM.c **** * Parameters:
  28:Generated_Source\PSoC4/IDAC_1_PM.c **** *  None
ARM GAS  C:\Users\ilya\AppData\Local\Temp\cck042IZ.s 			page 2


  29:Generated_Source\PSoC4/IDAC_1_PM.c **** *
  30:Generated_Source\PSoC4/IDAC_1_PM.c **** * Return:
  31:Generated_Source\PSoC4/IDAC_1_PM.c **** *  None
  32:Generated_Source\PSoC4/IDAC_1_PM.c **** *
  33:Generated_Source\PSoC4/IDAC_1_PM.c **** * Global Variables:
  34:Generated_Source\PSoC4/IDAC_1_PM.c **** *  None
  35:Generated_Source\PSoC4/IDAC_1_PM.c **** *
  36:Generated_Source\PSoC4/IDAC_1_PM.c **** *******************************************************************************/
  37:Generated_Source\PSoC4/IDAC_1_PM.c **** void IDAC_1_SaveConfig(void)
  38:Generated_Source\PSoC4/IDAC_1_PM.c **** {
  30              		.loc 1 38 0
  31              		.cfi_startproc
  32 0000 80B5     		push	{r7, lr}
  33              		.cfi_def_cfa_offset 8
  34              		.cfi_offset 7, -8
  35              		.cfi_offset 14, -4
  36 0002 00AF     		add	r7, sp, #0
  37              		.cfi_def_cfa_register 7
  39:Generated_Source\PSoC4/IDAC_1_PM.c ****     /* All registers are retention - nothing to save */
  40:Generated_Source\PSoC4/IDAC_1_PM.c **** }
  38              		.loc 1 40 0
  39 0004 BD46     		mov	sp, r7
  40              		@ sp needed
  41 0006 80BD     		pop	{r7, pc}
  42              		.cfi_endproc
  43              	.LFE1:
  44              		.size	IDAC_1_SaveConfig, .-IDAC_1_SaveConfig
  45              		.section	.text.IDAC_1_Sleep,"ax",%progbits
  46              		.align	2
  47              		.global	IDAC_1_Sleep
  48              		.code	16
  49              		.thumb_func
  50              		.type	IDAC_1_Sleep, %function
  51              	IDAC_1_Sleep:
  52              	.LFB2:
  41:Generated_Source\PSoC4/IDAC_1_PM.c **** 
  42:Generated_Source\PSoC4/IDAC_1_PM.c **** 
  43:Generated_Source\PSoC4/IDAC_1_PM.c **** /*******************************************************************************
  44:Generated_Source\PSoC4/IDAC_1_PM.c **** * Function Name: IDAC_1_Sleep
  45:Generated_Source\PSoC4/IDAC_1_PM.c **** ********************************************************************************
  46:Generated_Source\PSoC4/IDAC_1_PM.c **** *
  47:Generated_Source\PSoC4/IDAC_1_PM.c **** * Summary:
  48:Generated_Source\PSoC4/IDAC_1_PM.c **** *  Calls _SaveConfig() function
  49:Generated_Source\PSoC4/IDAC_1_PM.c **** * Parameters:
  50:Generated_Source\PSoC4/IDAC_1_PM.c **** *  None
  51:Generated_Source\PSoC4/IDAC_1_PM.c **** *
  52:Generated_Source\PSoC4/IDAC_1_PM.c **** * Return:
  53:Generated_Source\PSoC4/IDAC_1_PM.c **** *  None
  54:Generated_Source\PSoC4/IDAC_1_PM.c **** *
  55:Generated_Source\PSoC4/IDAC_1_PM.c **** *******************************************************************************/
  56:Generated_Source\PSoC4/IDAC_1_PM.c **** void IDAC_1_Sleep(void)
  57:Generated_Source\PSoC4/IDAC_1_PM.c **** {
  53              		.loc 1 57 0
  54              		.cfi_startproc
  55 0000 80B5     		push	{r7, lr}
  56              		.cfi_def_cfa_offset 8
  57              		.cfi_offset 7, -8
ARM GAS  C:\Users\ilya\AppData\Local\Temp\cck042IZ.s 			page 3


  58              		.cfi_offset 14, -4
  59 0002 00AF     		add	r7, sp, #0
  60              		.cfi_def_cfa_register 7
  58:Generated_Source\PSoC4/IDAC_1_PM.c ****         if(0u != (IDAC_1_IDAC_CONTROL_REG & ((uint32)IDAC_1_IDAC_MODE_MASK <<
  61              		.loc 1 58 0
  62 0004 094B     		ldr	r3, .L5
  63 0006 1A68     		ldr	r2, [r3]
  64 0008 C023     		mov	r3, #192
  65 000a 9B00     		lsl	r3, r3, #2
  66 000c 1340     		and	r3, r2
  67 000e 03D0     		beq	.L3
  59:Generated_Source\PSoC4/IDAC_1_PM.c ****         IDAC_1_IDAC_MODE_POSITION)))
  60:Generated_Source\PSoC4/IDAC_1_PM.c ****         {
  61:Generated_Source\PSoC4/IDAC_1_PM.c ****             IDAC_1_backup.enableState = 1u;
  68              		.loc 1 61 0
  69 0010 074B     		ldr	r3, .L5+4
  70 0012 0122     		mov	r2, #1
  71 0014 1A70     		strb	r2, [r3]
  72 0016 02E0     		b	.L4
  73              	.L3:
  62:Generated_Source\PSoC4/IDAC_1_PM.c ****         }
  63:Generated_Source\PSoC4/IDAC_1_PM.c ****         else
  64:Generated_Source\PSoC4/IDAC_1_PM.c ****         {
  65:Generated_Source\PSoC4/IDAC_1_PM.c ****             IDAC_1_backup.enableState = 0u;
  74              		.loc 1 65 0
  75 0018 054B     		ldr	r3, .L5+4
  76 001a 0022     		mov	r2, #0
  77 001c 1A70     		strb	r2, [r3]
  78              	.L4:
  66:Generated_Source\PSoC4/IDAC_1_PM.c ****         }
  67:Generated_Source\PSoC4/IDAC_1_PM.c **** 
  68:Generated_Source\PSoC4/IDAC_1_PM.c ****     IDAC_1_Stop();
  79              		.loc 1 68 0
  80 001e FFF7FEFF 		bl	IDAC_1_Stop
  69:Generated_Source\PSoC4/IDAC_1_PM.c ****     IDAC_1_SaveConfig();
  81              		.loc 1 69 0
  82 0022 FFF7FEFF 		bl	IDAC_1_SaveConfig
  70:Generated_Source\PSoC4/IDAC_1_PM.c **** }
  83              		.loc 1 70 0
  84 0026 BD46     		mov	sp, r7
  85              		@ sp needed
  86 0028 80BD     		pop	{r7, pc}
  87              	.L6:
  88 002a C046     		.align	2
  89              	.L5:
  90 002c 08002940 		.word	1076428808
  91 0030 00000000 		.word	IDAC_1_backup
  92              		.cfi_endproc
  93              	.LFE2:
  94              		.size	IDAC_1_Sleep, .-IDAC_1_Sleep
  95              		.section	.text.IDAC_1_RestoreConfig,"ax",%progbits
  96              		.align	2
  97              		.global	IDAC_1_RestoreConfig
  98              		.code	16
  99              		.thumb_func
 100              		.type	IDAC_1_RestoreConfig, %function
 101              	IDAC_1_RestoreConfig:
ARM GAS  C:\Users\ilya\AppData\Local\Temp\cck042IZ.s 			page 4


 102              	.LFB3:
  71:Generated_Source\PSoC4/IDAC_1_PM.c **** 
  72:Generated_Source\PSoC4/IDAC_1_PM.c **** 
  73:Generated_Source\PSoC4/IDAC_1_PM.c **** /*******************************************************************************
  74:Generated_Source\PSoC4/IDAC_1_PM.c **** * Function Name: IDAC_1_RestoreConfig
  75:Generated_Source\PSoC4/IDAC_1_PM.c **** ********************************************************************************
  76:Generated_Source\PSoC4/IDAC_1_PM.c **** *
  77:Generated_Source\PSoC4/IDAC_1_PM.c **** * Summary:
  78:Generated_Source\PSoC4/IDAC_1_PM.c **** *  Restores component state after wakeup
  79:Generated_Source\PSoC4/IDAC_1_PM.c **** * Parameters:
  80:Generated_Source\PSoC4/IDAC_1_PM.c **** *  None
  81:Generated_Source\PSoC4/IDAC_1_PM.c **** *
  82:Generated_Source\PSoC4/IDAC_1_PM.c **** * Return:
  83:Generated_Source\PSoC4/IDAC_1_PM.c **** *  None
  84:Generated_Source\PSoC4/IDAC_1_PM.c **** *
  85:Generated_Source\PSoC4/IDAC_1_PM.c **** * Global Variables:
  86:Generated_Source\PSoC4/IDAC_1_PM.c **** *  None
  87:Generated_Source\PSoC4/IDAC_1_PM.c **** *
  88:Generated_Source\PSoC4/IDAC_1_PM.c **** *******************************************************************************/
  89:Generated_Source\PSoC4/IDAC_1_PM.c **** void IDAC_1_RestoreConfig(void)
  90:Generated_Source\PSoC4/IDAC_1_PM.c **** {
 103              		.loc 1 90 0
 104              		.cfi_startproc
 105 0000 80B5     		push	{r7, lr}
 106              		.cfi_def_cfa_offset 8
 107              		.cfi_offset 7, -8
 108              		.cfi_offset 14, -4
 109 0002 00AF     		add	r7, sp, #0
 110              		.cfi_def_cfa_register 7
  91:Generated_Source\PSoC4/IDAC_1_PM.c ****     /* All registers are retention - nothing to save */
  92:Generated_Source\PSoC4/IDAC_1_PM.c **** }
 111              		.loc 1 92 0
 112 0004 BD46     		mov	sp, r7
 113              		@ sp needed
 114 0006 80BD     		pop	{r7, pc}
 115              		.cfi_endproc
 116              	.LFE3:
 117              		.size	IDAC_1_RestoreConfig, .-IDAC_1_RestoreConfig
 118              		.section	.text.IDAC_1_Wakeup,"ax",%progbits
 119              		.align	2
 120              		.global	IDAC_1_Wakeup
 121              		.code	16
 122              		.thumb_func
 123              		.type	IDAC_1_Wakeup, %function
 124              	IDAC_1_Wakeup:
 125              	.LFB4:
  93:Generated_Source\PSoC4/IDAC_1_PM.c **** 
  94:Generated_Source\PSoC4/IDAC_1_PM.c **** 
  95:Generated_Source\PSoC4/IDAC_1_PM.c **** /*******************************************************************************
  96:Generated_Source\PSoC4/IDAC_1_PM.c **** * Function Name: IDAC_1_Wakeup
  97:Generated_Source\PSoC4/IDAC_1_PM.c **** ********************************************************************************
  98:Generated_Source\PSoC4/IDAC_1_PM.c **** *
  99:Generated_Source\PSoC4/IDAC_1_PM.c **** * Summary:
 100:Generated_Source\PSoC4/IDAC_1_PM.c **** *  Calls _RestoreConfig() function
 101:Generated_Source\PSoC4/IDAC_1_PM.c **** * Parameters:
 102:Generated_Source\PSoC4/IDAC_1_PM.c **** *  None
 103:Generated_Source\PSoC4/IDAC_1_PM.c **** *
ARM GAS  C:\Users\ilya\AppData\Local\Temp\cck042IZ.s 			page 5


 104:Generated_Source\PSoC4/IDAC_1_PM.c **** * Return:
 105:Generated_Source\PSoC4/IDAC_1_PM.c **** *  None
 106:Generated_Source\PSoC4/IDAC_1_PM.c **** *
 107:Generated_Source\PSoC4/IDAC_1_PM.c **** *******************************************************************************/
 108:Generated_Source\PSoC4/IDAC_1_PM.c **** void IDAC_1_Wakeup(void)
 109:Generated_Source\PSoC4/IDAC_1_PM.c **** {
 126              		.loc 1 109 0
 127              		.cfi_startproc
 128 0000 80B5     		push	{r7, lr}
 129              		.cfi_def_cfa_offset 8
 130              		.cfi_offset 7, -8
 131              		.cfi_offset 14, -4
 132 0002 00AF     		add	r7, sp, #0
 133              		.cfi_def_cfa_register 7
 110:Generated_Source\PSoC4/IDAC_1_PM.c ****     /* Restore IDAC register settings */
 111:Generated_Source\PSoC4/IDAC_1_PM.c ****     IDAC_1_RestoreConfig();
 134              		.loc 1 111 0
 135 0004 FFF7FEFF 		bl	IDAC_1_RestoreConfig
 112:Generated_Source\PSoC4/IDAC_1_PM.c ****     if(IDAC_1_backup.enableState == 1u)
 136              		.loc 1 112 0
 137 0008 034B     		ldr	r3, .L10
 138 000a 1B78     		ldrb	r3, [r3]
 139 000c 012B     		cmp	r3, #1
 140 000e 01D1     		bne	.L8
 113:Generated_Source\PSoC4/IDAC_1_PM.c ****     {
 114:Generated_Source\PSoC4/IDAC_1_PM.c ****         /* Enable operation */
 115:Generated_Source\PSoC4/IDAC_1_PM.c ****         IDAC_1_Enable();
 141              		.loc 1 115 0
 142 0010 FFF7FEFF 		bl	IDAC_1_Enable
 143              	.L8:
 116:Generated_Source\PSoC4/IDAC_1_PM.c ****     } /* Do nothing if the component was disabled before */
 117:Generated_Source\PSoC4/IDAC_1_PM.c **** 
 118:Generated_Source\PSoC4/IDAC_1_PM.c **** }
 144              		.loc 1 118 0
 145 0014 BD46     		mov	sp, r7
 146              		@ sp needed
 147 0016 80BD     		pop	{r7, pc}
 148              	.L11:
 149              		.align	2
 150              	.L10:
 151 0018 00000000 		.word	IDAC_1_backup
 152              		.cfi_endproc
 153              	.LFE4:
 154              		.size	IDAC_1_Wakeup, .-IDAC_1_Wakeup
 155              		.text
 156              	.Letext0:
 157              		.file 2 "Generated_Source\\PSoC4\\cytypes.h"
 158              		.file 3 "Generated_Source\\PSoC4\\IDAC_1.h"