ARM GAS  C:\Users\ilya\AppData\Local\Temp\ccsBQ27g.s 			page 1


   1              		.syntax unified
   2              		.cpu cortex-m0
   3              		.fpu softvfp
   4              		.eabi_attribute 20, 1
   5              		.eabi_attribute 21, 1
   6              		.eabi_attribute 23, 3
   7              		.eabi_attribute 24, 1
   8              		.eabi_attribute 25, 1
   9              		.eabi_attribute 26, 1
  10              		.eabi_attribute 30, 6
  11              		.eabi_attribute 34, 0
  12              		.eabi_attribute 18, 4
  13              		.thumb
  14              		.syntax unified
  15              		.file	"AMux_1.c"
  16              		.text
  17              	.Ltext0:
  18              		.cfi_sections	.debug_frame
  19              		.data
  20              		.type	AMux_1_lastChannel, %object
  21              		.size	AMux_1_lastChannel, 1
  22              	AMux_1_lastChannel:
  23 0000 FF       		.byte	-1
  24              		.section	.text.AMux_1_Start,"ax",%progbits
  25              		.align	2
  26              		.global	AMux_1_Start
  27              		.code	16
  28              		.thumb_func
  29              		.type	AMux_1_Start, %function
  30              	AMux_1_Start:
  31              	.LFB0:
  32              		.file 1 "Generated_Source\\PSoC4\\AMux_1.c"
   1:Generated_Source\PSoC4/AMux_1.c **** /*******************************************************************************
   2:Generated_Source\PSoC4/AMux_1.c **** * File Name: AMux_1.c
   3:Generated_Source\PSoC4/AMux_1.c **** * Version 1.80
   4:Generated_Source\PSoC4/AMux_1.c **** *
   5:Generated_Source\PSoC4/AMux_1.c **** *  Description:
   6:Generated_Source\PSoC4/AMux_1.c **** *    This file contains all functions required for the analog multiplexer
   7:Generated_Source\PSoC4/AMux_1.c **** *    AMux User Module.
   8:Generated_Source\PSoC4/AMux_1.c **** *
   9:Generated_Source\PSoC4/AMux_1.c **** *   Note:
  10:Generated_Source\PSoC4/AMux_1.c **** *
  11:Generated_Source\PSoC4/AMux_1.c **** *******************************************************************************
  12:Generated_Source\PSoC4/AMux_1.c **** * Copyright 2008-2010, Cypress Semiconductor Corporation.  All rights reserved.
  13:Generated_Source\PSoC4/AMux_1.c **** * You may use this file only in accordance with the license, terms, conditions, 
  14:Generated_Source\PSoC4/AMux_1.c **** * disclaimers, and limitations in the end user license agreement accompanying 
  15:Generated_Source\PSoC4/AMux_1.c **** * the software package with which this file was provided.
  16:Generated_Source\PSoC4/AMux_1.c **** ********************************************************************************/
  17:Generated_Source\PSoC4/AMux_1.c **** 
  18:Generated_Source\PSoC4/AMux_1.c **** #include "AMux_1.h"
  19:Generated_Source\PSoC4/AMux_1.c **** 
  20:Generated_Source\PSoC4/AMux_1.c **** static uint8 AMux_1_lastChannel = AMux_1_NULL_CHANNEL;
  21:Generated_Source\PSoC4/AMux_1.c **** 
  22:Generated_Source\PSoC4/AMux_1.c **** 
  23:Generated_Source\PSoC4/AMux_1.c **** /*******************************************************************************
  24:Generated_Source\PSoC4/AMux_1.c **** * Function Name: AMux_1_Start
  25:Generated_Source\PSoC4/AMux_1.c **** ********************************************************************************
ARM GAS  C:\Users\ilya\AppData\Local\Temp\ccsBQ27g.s 			page 2


  26:Generated_Source\PSoC4/AMux_1.c **** * Summary:
  27:Generated_Source\PSoC4/AMux_1.c **** *  Disconnect all channels.
  28:Generated_Source\PSoC4/AMux_1.c **** *
  29:Generated_Source\PSoC4/AMux_1.c **** * Parameters:
  30:Generated_Source\PSoC4/AMux_1.c **** *  void
  31:Generated_Source\PSoC4/AMux_1.c **** *
  32:Generated_Source\PSoC4/AMux_1.c **** * Return:
  33:Generated_Source\PSoC4/AMux_1.c **** *  void
  34:Generated_Source\PSoC4/AMux_1.c **** *
  35:Generated_Source\PSoC4/AMux_1.c **** *******************************************************************************/
  36:Generated_Source\PSoC4/AMux_1.c **** void AMux_1_Start(void) 
  37:Generated_Source\PSoC4/AMux_1.c **** {
  33              		.loc 1 37 0
  34              		.cfi_startproc
  35              		@ args = 0, pretend = 0, frame = 8
  36              		@ frame_needed = 1, uses_anonymous_args = 0
  37 0000 80B5     		push	{r7, lr}
  38              		.cfi_def_cfa_offset 8
  39              		.cfi_offset 7, -8
  40              		.cfi_offset 14, -4
  41 0002 82B0     		sub	sp, sp, #8
  42              		.cfi_def_cfa_offset 16
  43 0004 00AF     		add	r7, sp, #0
  44              		.cfi_def_cfa_register 7
  38:Generated_Source\PSoC4/AMux_1.c ****     uint8 chan;
  39:Generated_Source\PSoC4/AMux_1.c **** 
  40:Generated_Source\PSoC4/AMux_1.c ****     for(chan = 0u; chan < AMux_1_CHANNELS ; chan++)
  45              		.loc 1 40 0
  46 0006 FB1D     		adds	r3, r7, #7
  47 0008 0022     		movs	r2, #0
  48 000a 1A70     		strb	r2, [r3]
  49 000c 09E0     		b	.L2
  50              	.L3:
  41:Generated_Source\PSoC4/AMux_1.c ****     {
  42:Generated_Source\PSoC4/AMux_1.c **** #if (AMux_1_MUXTYPE == AMux_1_MUX_SINGLE)
  43:Generated_Source\PSoC4/AMux_1.c ****         AMux_1_Unset(chan);
  51              		.loc 1 43 0 discriminator 3
  52 000e FB1D     		adds	r3, r7, #7
  53 0010 1B78     		ldrb	r3, [r3]
  54 0012 1800     		movs	r0, r3
  55 0014 FFF7FEFF 		bl	AMux_1_Unset
  40:Generated_Source\PSoC4/AMux_1.c ****     {
  56              		.loc 1 40 0 discriminator 3
  57 0018 FB1D     		adds	r3, r7, #7
  58 001a 1A78     		ldrb	r2, [r3]
  59 001c FB1D     		adds	r3, r7, #7
  60 001e 0132     		adds	r2, r2, #1
  61 0020 1A70     		strb	r2, [r3]
  62              	.L2:
  40:Generated_Source\PSoC4/AMux_1.c ****     {
  63              		.loc 1 40 0 is_stmt 0 discriminator 1
  64 0022 FB1D     		adds	r3, r7, #7
  65 0024 1B78     		ldrb	r3, [r3]
  66 0026 012B     		cmp	r3, #1
  67 0028 F1D9     		bls	.L3
  44:Generated_Source\PSoC4/AMux_1.c **** #else
  45:Generated_Source\PSoC4/AMux_1.c ****         AMux_1_CYAMUXSIDE_A_Unset(chan);
ARM GAS  C:\Users\ilya\AppData\Local\Temp\ccsBQ27g.s 			page 3


  46:Generated_Source\PSoC4/AMux_1.c ****         AMux_1_CYAMUXSIDE_B_Unset(chan);
  47:Generated_Source\PSoC4/AMux_1.c **** #endif
  48:Generated_Source\PSoC4/AMux_1.c ****     }
  49:Generated_Source\PSoC4/AMux_1.c **** 
  50:Generated_Source\PSoC4/AMux_1.c ****     AMux_1_lastChannel = AMux_1_NULL_CHANNEL;
  68              		.loc 1 50 0 is_stmt 1
  69 002a 034B     		ldr	r3, .L4
  70 002c FF22     		movs	r2, #255
  71 002e 1A70     		strb	r2, [r3]
  51:Generated_Source\PSoC4/AMux_1.c **** }
  72              		.loc 1 51 0
  73 0030 C046     		nop
  74 0032 BD46     		mov	sp, r7
  75 0034 02B0     		add	sp, sp, #8
  76              		@ sp needed
  77 0036 80BD     		pop	{r7, pc}
  78              	.L5:
  79              		.align	2
  80              	.L4:
  81 0038 00000000 		.word	AMux_1_lastChannel
  82              		.cfi_endproc
  83              	.LFE0:
  84              		.size	AMux_1_Start, .-AMux_1_Start
  85              		.section	.text.AMux_1_FastSelect,"ax",%progbits
  86              		.align	2
  87              		.global	AMux_1_FastSelect
  88              		.code	16
  89              		.thumb_func
  90              		.type	AMux_1_FastSelect, %function
  91              	AMux_1_FastSelect:
  92              	.LFB1:
  52:Generated_Source\PSoC4/AMux_1.c **** 
  53:Generated_Source\PSoC4/AMux_1.c **** 
  54:Generated_Source\PSoC4/AMux_1.c **** #if (!AMux_1_ATMOSTONE)
  55:Generated_Source\PSoC4/AMux_1.c **** /*******************************************************************************
  56:Generated_Source\PSoC4/AMux_1.c **** * Function Name: AMux_1_Select
  57:Generated_Source\PSoC4/AMux_1.c **** ********************************************************************************
  58:Generated_Source\PSoC4/AMux_1.c **** * Summary:
  59:Generated_Source\PSoC4/AMux_1.c **** *  This functions first disconnects all channels then connects the given
  60:Generated_Source\PSoC4/AMux_1.c **** *  channel.
  61:Generated_Source\PSoC4/AMux_1.c **** *
  62:Generated_Source\PSoC4/AMux_1.c **** * Parameters:
  63:Generated_Source\PSoC4/AMux_1.c **** *  channel:  The channel to connect to the common terminal.
  64:Generated_Source\PSoC4/AMux_1.c **** *
  65:Generated_Source\PSoC4/AMux_1.c **** * Return:
  66:Generated_Source\PSoC4/AMux_1.c **** *  void
  67:Generated_Source\PSoC4/AMux_1.c **** *
  68:Generated_Source\PSoC4/AMux_1.c **** *******************************************************************************/
  69:Generated_Source\PSoC4/AMux_1.c **** void AMux_1_Select(uint8 channel) 
  70:Generated_Source\PSoC4/AMux_1.c **** {
  71:Generated_Source\PSoC4/AMux_1.c ****     AMux_1_DisconnectAll();        /* Disconnect all previous connections */
  72:Generated_Source\PSoC4/AMux_1.c ****     AMux_1_Connect(channel);       /* Make the given selection */
  73:Generated_Source\PSoC4/AMux_1.c ****     AMux_1_lastChannel = channel;  /* Update last channel */
  74:Generated_Source\PSoC4/AMux_1.c **** }
  75:Generated_Source\PSoC4/AMux_1.c **** #endif
  76:Generated_Source\PSoC4/AMux_1.c **** 
  77:Generated_Source\PSoC4/AMux_1.c **** 
ARM GAS  C:\Users\ilya\AppData\Local\Temp\ccsBQ27g.s 			page 4


  78:Generated_Source\PSoC4/AMux_1.c **** /*******************************************************************************
  79:Generated_Source\PSoC4/AMux_1.c **** * Function Name: AMux_1_FastSelect
  80:Generated_Source\PSoC4/AMux_1.c **** ********************************************************************************
  81:Generated_Source\PSoC4/AMux_1.c **** * Summary:
  82:Generated_Source\PSoC4/AMux_1.c **** *  This function first disconnects the last connection made with FastSelect or
  83:Generated_Source\PSoC4/AMux_1.c **** *  Select, then connects the given channel. The FastSelect function is similar
  84:Generated_Source\PSoC4/AMux_1.c **** *  to the Select function, except it is faster since it only disconnects the
  85:Generated_Source\PSoC4/AMux_1.c **** *  last channel selected rather than all channels.
  86:Generated_Source\PSoC4/AMux_1.c **** *
  87:Generated_Source\PSoC4/AMux_1.c **** * Parameters:
  88:Generated_Source\PSoC4/AMux_1.c **** *  channel:  The channel to connect to the common terminal.
  89:Generated_Source\PSoC4/AMux_1.c **** *
  90:Generated_Source\PSoC4/AMux_1.c **** * Return:
  91:Generated_Source\PSoC4/AMux_1.c **** *  void
  92:Generated_Source\PSoC4/AMux_1.c **** *
  93:Generated_Source\PSoC4/AMux_1.c **** *******************************************************************************/
  94:Generated_Source\PSoC4/AMux_1.c **** void AMux_1_FastSelect(uint8 channel) 
  95:Generated_Source\PSoC4/AMux_1.c **** {
  93              		.loc 1 95 0
  94              		.cfi_startproc
  95              		@ args = 0, pretend = 0, frame = 8
  96              		@ frame_needed = 1, uses_anonymous_args = 0
  97 0000 80B5     		push	{r7, lr}
  98              		.cfi_def_cfa_offset 8
  99              		.cfi_offset 7, -8
 100              		.cfi_offset 14, -4
 101 0002 82B0     		sub	sp, sp, #8
 102              		.cfi_def_cfa_offset 16
 103 0004 00AF     		add	r7, sp, #0
 104              		.cfi_def_cfa_register 7
 105 0006 0200     		movs	r2, r0
 106 0008 FB1D     		adds	r3, r7, #7
 107 000a 1A70     		strb	r2, [r3]
  96:Generated_Source\PSoC4/AMux_1.c ****     /* Disconnect the last valid channel */
  97:Generated_Source\PSoC4/AMux_1.c ****     if( AMux_1_lastChannel != AMux_1_NULL_CHANNEL)
 108              		.loc 1 97 0
 109 000c 0A4B     		ldr	r3, .L8
 110 000e 1B78     		ldrb	r3, [r3]
 111 0010 FF2B     		cmp	r3, #255
 112 0012 04D0     		beq	.L7
  98:Generated_Source\PSoC4/AMux_1.c ****     {
  99:Generated_Source\PSoC4/AMux_1.c ****         AMux_1_Disconnect(AMux_1_lastChannel);
 113              		.loc 1 99 0
 114 0014 084B     		ldr	r3, .L8
 115 0016 1B78     		ldrb	r3, [r3]
 116 0018 1800     		movs	r0, r3
 117 001a FFF7FEFF 		bl	AMux_1_Unset
 118              	.L7:
 100:Generated_Source\PSoC4/AMux_1.c ****     }
 101:Generated_Source\PSoC4/AMux_1.c **** 
 102:Generated_Source\PSoC4/AMux_1.c ****     /* Make the new channel connection */
 103:Generated_Source\PSoC4/AMux_1.c **** #if (AMux_1_MUXTYPE == AMux_1_MUX_SINGLE)
 104:Generated_Source\PSoC4/AMux_1.c ****     AMux_1_Set(channel);
 119              		.loc 1 104 0
 120 001e FB1D     		adds	r3, r7, #7
 121 0020 1B78     		ldrb	r3, [r3]
 122 0022 1800     		movs	r0, r3
ARM GAS  C:\Users\ilya\AppData\Local\Temp\ccsBQ27g.s 			page 5


 123 0024 FFF7FEFF 		bl	AMux_1_Set
 105:Generated_Source\PSoC4/AMux_1.c **** #else
 106:Generated_Source\PSoC4/AMux_1.c ****     AMux_1_CYAMUXSIDE_A_Set(channel);
 107:Generated_Source\PSoC4/AMux_1.c ****     AMux_1_CYAMUXSIDE_B_Set(channel);
 108:Generated_Source\PSoC4/AMux_1.c **** #endif
 109:Generated_Source\PSoC4/AMux_1.c **** 
 110:Generated_Source\PSoC4/AMux_1.c **** 
 111:Generated_Source\PSoC4/AMux_1.c ****     AMux_1_lastChannel = channel;   /* Update last channel */
 124              		.loc 1 111 0
 125 0028 034B     		ldr	r3, .L8
 126 002a FA1D     		adds	r2, r7, #7
 127 002c 1278     		ldrb	r2, [r2]
 128 002e 1A70     		strb	r2, [r3]
 112:Generated_Source\PSoC4/AMux_1.c **** }
 129              		.loc 1 112 0
 130 0030 C046     		nop
 131 0032 BD46     		mov	sp, r7
 132 0034 02B0     		add	sp, sp, #8
 133              		@ sp needed
 134 0036 80BD     		pop	{r7, pc}
 135              	.L9:
 136              		.align	2
 137              	.L8:
 138 0038 00000000 		.word	AMux_1_lastChannel
 139              		.cfi_endproc
 140              	.LFE1:
 141              		.size	AMux_1_FastSelect, .-AMux_1_FastSelect
 142              		.section	.text.AMux_1_DisconnectAll,"ax",%progbits
 143              		.align	2
 144              		.global	AMux_1_DisconnectAll
 145              		.code	16
 146              		.thumb_func
 147              		.type	AMux_1_DisconnectAll, %function
 148              	AMux_1_DisconnectAll:
 149              	.LFB2:
 113:Generated_Source\PSoC4/AMux_1.c **** 
 114:Generated_Source\PSoC4/AMux_1.c **** 
 115:Generated_Source\PSoC4/AMux_1.c **** #if (AMux_1_MUXTYPE == AMux_1_MUX_DIFF)
 116:Generated_Source\PSoC4/AMux_1.c **** #if (!AMux_1_ATMOSTONE)
 117:Generated_Source\PSoC4/AMux_1.c **** /*******************************************************************************
 118:Generated_Source\PSoC4/AMux_1.c **** * Function Name: AMux_1_Connect
 119:Generated_Source\PSoC4/AMux_1.c **** ********************************************************************************
 120:Generated_Source\PSoC4/AMux_1.c **** * Summary:
 121:Generated_Source\PSoC4/AMux_1.c **** *  This function connects the given channel without affecting other connections.
 122:Generated_Source\PSoC4/AMux_1.c **** *
 123:Generated_Source\PSoC4/AMux_1.c **** * Parameters:
 124:Generated_Source\PSoC4/AMux_1.c **** *  channel:  The channel to connect to the common terminal.
 125:Generated_Source\PSoC4/AMux_1.c **** *
 126:Generated_Source\PSoC4/AMux_1.c **** * Return:
 127:Generated_Source\PSoC4/AMux_1.c **** *  void
 128:Generated_Source\PSoC4/AMux_1.c **** *
 129:Generated_Source\PSoC4/AMux_1.c **** *******************************************************************************/
 130:Generated_Source\PSoC4/AMux_1.c **** void AMux_1_Connect(uint8 channel) 
 131:Generated_Source\PSoC4/AMux_1.c **** {
 132:Generated_Source\PSoC4/AMux_1.c ****     AMux_1_CYAMUXSIDE_A_Set(channel);
 133:Generated_Source\PSoC4/AMux_1.c ****     AMux_1_CYAMUXSIDE_B_Set(channel);
 134:Generated_Source\PSoC4/AMux_1.c **** }
ARM GAS  C:\Users\ilya\AppData\Local\Temp\ccsBQ27g.s 			page 6


 135:Generated_Source\PSoC4/AMux_1.c **** #endif
 136:Generated_Source\PSoC4/AMux_1.c **** 
 137:Generated_Source\PSoC4/AMux_1.c **** /*******************************************************************************
 138:Generated_Source\PSoC4/AMux_1.c **** * Function Name: AMux_1_Disconnect
 139:Generated_Source\PSoC4/AMux_1.c **** ********************************************************************************
 140:Generated_Source\PSoC4/AMux_1.c **** * Summary:
 141:Generated_Source\PSoC4/AMux_1.c **** *  This function disconnects the given channel from the common or output
 142:Generated_Source\PSoC4/AMux_1.c **** *  terminal without affecting other connections.
 143:Generated_Source\PSoC4/AMux_1.c **** *
 144:Generated_Source\PSoC4/AMux_1.c **** * Parameters:
 145:Generated_Source\PSoC4/AMux_1.c **** *  channel:  The channel to disconnect from the common terminal.
 146:Generated_Source\PSoC4/AMux_1.c **** *
 147:Generated_Source\PSoC4/AMux_1.c **** * Return:
 148:Generated_Source\PSoC4/AMux_1.c **** *  void
 149:Generated_Source\PSoC4/AMux_1.c **** *
 150:Generated_Source\PSoC4/AMux_1.c **** *******************************************************************************/
 151:Generated_Source\PSoC4/AMux_1.c **** void AMux_1_Disconnect(uint8 channel) 
 152:Generated_Source\PSoC4/AMux_1.c **** {
 153:Generated_Source\PSoC4/AMux_1.c ****     AMux_1_CYAMUXSIDE_A_Unset(channel);
 154:Generated_Source\PSoC4/AMux_1.c ****     AMux_1_CYAMUXSIDE_B_Unset(channel);
 155:Generated_Source\PSoC4/AMux_1.c **** }
 156:Generated_Source\PSoC4/AMux_1.c **** #endif
 157:Generated_Source\PSoC4/AMux_1.c **** 
 158:Generated_Source\PSoC4/AMux_1.c **** #if (AMux_1_ATMOSTONE)
 159:Generated_Source\PSoC4/AMux_1.c **** /*******************************************************************************
 160:Generated_Source\PSoC4/AMux_1.c **** * Function Name: AMux_1_DisconnectAll
 161:Generated_Source\PSoC4/AMux_1.c **** ********************************************************************************
 162:Generated_Source\PSoC4/AMux_1.c **** * Summary:
 163:Generated_Source\PSoC4/AMux_1.c **** *  This function disconnects all channels.
 164:Generated_Source\PSoC4/AMux_1.c **** *
 165:Generated_Source\PSoC4/AMux_1.c **** * Parameters:
 166:Generated_Source\PSoC4/AMux_1.c **** *  void
 167:Generated_Source\PSoC4/AMux_1.c **** *
 168:Generated_Source\PSoC4/AMux_1.c **** * Return:
 169:Generated_Source\PSoC4/AMux_1.c **** *  void
 170:Generated_Source\PSoC4/AMux_1.c **** *
 171:Generated_Source\PSoC4/AMux_1.c **** *******************************************************************************/
 172:Generated_Source\PSoC4/AMux_1.c **** void AMux_1_DisconnectAll(void) 
 173:Generated_Source\PSoC4/AMux_1.c **** {
 150              		.loc 1 173 0
 151              		.cfi_startproc
 152              		@ args = 0, pretend = 0, frame = 0
 153              		@ frame_needed = 1, uses_anonymous_args = 0
 154 0000 80B5     		push	{r7, lr}
 155              		.cfi_def_cfa_offset 8
 156              		.cfi_offset 7, -8
 157              		.cfi_offset 14, -4
 158 0002 00AF     		add	r7, sp, #0
 159              		.cfi_def_cfa_register 7
 174:Generated_Source\PSoC4/AMux_1.c ****     if(AMux_1_lastChannel != AMux_1_NULL_CHANNEL) 
 160              		.loc 1 174 0
 161 0004 074B     		ldr	r3, .L13
 162 0006 1B78     		ldrb	r3, [r3]
 163 0008 FF2B     		cmp	r3, #255
 164 000a 07D0     		beq	.L12
 175:Generated_Source\PSoC4/AMux_1.c ****     {
 176:Generated_Source\PSoC4/AMux_1.c ****         AMux_1_Disconnect(AMux_1_lastChannel);
ARM GAS  C:\Users\ilya\AppData\Local\Temp\ccsBQ27g.s 			page 7


 165              		.loc 1 176 0
 166 000c 054B     		ldr	r3, .L13
 167 000e 1B78     		ldrb	r3, [r3]
 168 0010 1800     		movs	r0, r3
 169 0012 FFF7FEFF 		bl	AMux_1_Unset
 177:Generated_Source\PSoC4/AMux_1.c ****         AMux_1_lastChannel = AMux_1_NULL_CHANNEL;
 170              		.loc 1 177 0
 171 0016 034B     		ldr	r3, .L13
 172 0018 FF22     		movs	r2, #255
 173 001a 1A70     		strb	r2, [r3]
 174              	.L12:
 178:Generated_Source\PSoC4/AMux_1.c ****     }
 179:Generated_Source\PSoC4/AMux_1.c **** }
 175              		.loc 1 179 0
 176 001c C046     		nop
 177 001e BD46     		mov	sp, r7
 178              		@ sp needed
 179 0020 80BD     		pop	{r7, pc}
 180              	.L14:
 181 0022 C046     		.align	2
 182              	.L13:
 183 0024 00000000 		.word	AMux_1_lastChannel
 184              		.cfi_endproc
 185              	.LFE2:
 186              		.size	AMux_1_DisconnectAll, .-AMux_1_DisconnectAll
 187              		.text
 188              	.Letext0:
 189              		.file 2 "Generated_Source\\PSoC4\\cytypes.h"