ARM GAS  C:\Users\ilya\AppData\Local\Temp\ccYKrJKc.s 			page 1


   1              		.syntax unified
   2              		.cpu cortex-m0
   3              		.fpu softvfp
   4              		.eabi_attribute 20, 1
   5              		.eabi_attribute 21, 1
   6              		.eabi_attribute 23, 3
   7              		.eabi_attribute 24, 1
   8              		.eabi_attribute 25, 1
   9              		.eabi_attribute 26, 1
  10              		.eabi_attribute 30, 6
  11              		.eabi_attribute 34, 0
  12              		.eabi_attribute 18, 4
  13              		.thumb
  14              		.syntax unified
  15              		.file	"isr_Capture.c"
  16              		.text
  17              	.Ltext0:
  18              		.cfi_sections	.debug_frame
  19              		.section	.text.isr_Capture_Start,"ax",%progbits
  20              		.align	2
  21              		.global	isr_Capture_Start
  22              		.code	16
  23              		.thumb_func
  24              		.type	isr_Capture_Start, %function
  25              	isr_Capture_Start:
  26              	.LFB0:
  27              		.file 1 "Generated_Source\\PSoC4\\isr_Capture.c"
   1:Generated_Source\PSoC4/isr_Capture.c **** /*******************************************************************************
   2:Generated_Source\PSoC4/isr_Capture.c **** * File Name: isr_Capture.c  
   3:Generated_Source\PSoC4/isr_Capture.c **** * Version 1.70
   4:Generated_Source\PSoC4/isr_Capture.c **** *
   5:Generated_Source\PSoC4/isr_Capture.c **** *  Description:
   6:Generated_Source\PSoC4/isr_Capture.c **** *   API for controlling the state of an interrupt.
   7:Generated_Source\PSoC4/isr_Capture.c **** *
   8:Generated_Source\PSoC4/isr_Capture.c **** *
   9:Generated_Source\PSoC4/isr_Capture.c **** *  Note:
  10:Generated_Source\PSoC4/isr_Capture.c **** *
  11:Generated_Source\PSoC4/isr_Capture.c **** ********************************************************************************
  12:Generated_Source\PSoC4/isr_Capture.c **** * Copyright 2008-2015, Cypress Semiconductor Corporation.  All rights reserved.
  13:Generated_Source\PSoC4/isr_Capture.c **** * You may use this file only in accordance with the license, terms, conditions, 
  14:Generated_Source\PSoC4/isr_Capture.c **** * disclaimers, and limitations in the end user license agreement accompanying 
  15:Generated_Source\PSoC4/isr_Capture.c **** * the software package with which this file was provided.
  16:Generated_Source\PSoC4/isr_Capture.c **** *******************************************************************************/
  17:Generated_Source\PSoC4/isr_Capture.c **** 
  18:Generated_Source\PSoC4/isr_Capture.c **** 
  19:Generated_Source\PSoC4/isr_Capture.c **** #include <cydevice_trm.h>
  20:Generated_Source\PSoC4/isr_Capture.c **** #include <CyLib.h>
  21:Generated_Source\PSoC4/isr_Capture.c **** #include <isr_Capture.h>
  22:Generated_Source\PSoC4/isr_Capture.c **** #include "cyapicallbacks.h"
  23:Generated_Source\PSoC4/isr_Capture.c **** 
  24:Generated_Source\PSoC4/isr_Capture.c **** #if !defined(isr_Capture__REMOVED) /* Check for removal by optimization */
  25:Generated_Source\PSoC4/isr_Capture.c **** 
  26:Generated_Source\PSoC4/isr_Capture.c **** /*******************************************************************************
  27:Generated_Source\PSoC4/isr_Capture.c **** *  Place your includes, defines and code here 
  28:Generated_Source\PSoC4/isr_Capture.c **** ********************************************************************************/
  29:Generated_Source\PSoC4/isr_Capture.c **** /* `#START isr_Capture_intc` */
  30:Generated_Source\PSoC4/isr_Capture.c **** 
ARM GAS  C:\Users\ilya\AppData\Local\Temp\ccYKrJKc.s 			page 2


  31:Generated_Source\PSoC4/isr_Capture.c **** /* `#END` */
  32:Generated_Source\PSoC4/isr_Capture.c **** 
  33:Generated_Source\PSoC4/isr_Capture.c **** extern cyisraddress CyRamVectors[CYINT_IRQ_BASE + CY_NUM_INTERRUPTS];
  34:Generated_Source\PSoC4/isr_Capture.c **** 
  35:Generated_Source\PSoC4/isr_Capture.c **** /* Declared in startup, used to set unused interrupts to. */
  36:Generated_Source\PSoC4/isr_Capture.c **** CY_ISR_PROTO(IntDefaultHandler);
  37:Generated_Source\PSoC4/isr_Capture.c **** 
  38:Generated_Source\PSoC4/isr_Capture.c **** 
  39:Generated_Source\PSoC4/isr_Capture.c **** /*******************************************************************************
  40:Generated_Source\PSoC4/isr_Capture.c **** * Function Name: isr_Capture_Start
  41:Generated_Source\PSoC4/isr_Capture.c **** ********************************************************************************
  42:Generated_Source\PSoC4/isr_Capture.c **** *
  43:Generated_Source\PSoC4/isr_Capture.c **** * Summary:
  44:Generated_Source\PSoC4/isr_Capture.c **** *  Set up the interrupt and enable it. This function disables the interrupt, 
  45:Generated_Source\PSoC4/isr_Capture.c **** *  sets the default interrupt vector, sets the priority from the value in the
  46:Generated_Source\PSoC4/isr_Capture.c **** *  Design Wide Resources Interrupt Editor, then enables the interrupt to the 
  47:Generated_Source\PSoC4/isr_Capture.c **** *  interrupt controller.
  48:Generated_Source\PSoC4/isr_Capture.c **** *
  49:Generated_Source\PSoC4/isr_Capture.c **** * Parameters:  
  50:Generated_Source\PSoC4/isr_Capture.c **** *   None
  51:Generated_Source\PSoC4/isr_Capture.c **** *
  52:Generated_Source\PSoC4/isr_Capture.c **** * Return:
  53:Generated_Source\PSoC4/isr_Capture.c **** *   None
  54:Generated_Source\PSoC4/isr_Capture.c **** *
  55:Generated_Source\PSoC4/isr_Capture.c **** *******************************************************************************/
  56:Generated_Source\PSoC4/isr_Capture.c **** void isr_Capture_Start(void)
  57:Generated_Source\PSoC4/isr_Capture.c **** {
  28              		.loc 1 57 0
  29              		.cfi_startproc
  30              		@ args = 0, pretend = 0, frame = 0
  31              		@ frame_needed = 1, uses_anonymous_args = 0
  32 0000 80B5     		push	{r7, lr}
  33              		.cfi_def_cfa_offset 8
  34              		.cfi_offset 7, -8
  35              		.cfi_offset 14, -4
  36 0002 00AF     		add	r7, sp, #0
  37              		.cfi_def_cfa_register 7
  58:Generated_Source\PSoC4/isr_Capture.c ****     /* For all we know the interrupt is active. */
  59:Generated_Source\PSoC4/isr_Capture.c ****     isr_Capture_Disable();
  38              		.loc 1 59 0
  39 0004 FFF7FEFF 		bl	isr_Capture_Disable
  60:Generated_Source\PSoC4/isr_Capture.c **** 
  61:Generated_Source\PSoC4/isr_Capture.c ****     /* Set the ISR to point to the isr_Capture Interrupt. */
  62:Generated_Source\PSoC4/isr_Capture.c ****     isr_Capture_SetVector(&isr_Capture_Interrupt);
  40              		.loc 1 62 0
  41 0008 054B     		ldr	r3, .L2
  42 000a 1800     		movs	r0, r3
  43 000c FFF7FEFF 		bl	isr_Capture_SetVector
  63:Generated_Source\PSoC4/isr_Capture.c **** 
  64:Generated_Source\PSoC4/isr_Capture.c ****     /* Set the priority. */
  65:Generated_Source\PSoC4/isr_Capture.c ****     isr_Capture_SetPriority((uint8)isr_Capture_INTC_PRIOR_NUMBER);
  44              		.loc 1 65 0
  45 0010 0320     		movs	r0, #3
  46 0012 FFF7FEFF 		bl	isr_Capture_SetPriority
  66:Generated_Source\PSoC4/isr_Capture.c **** 
  67:Generated_Source\PSoC4/isr_Capture.c ****     /* Enable it. */
  68:Generated_Source\PSoC4/isr_Capture.c ****     isr_Capture_Enable();
ARM GAS  C:\Users\ilya\AppData\Local\Temp\ccYKrJKc.s 			page 3


  47              		.loc 1 68 0
  48 0016 FFF7FEFF 		bl	isr_Capture_Enable
  69:Generated_Source\PSoC4/isr_Capture.c **** }
  49              		.loc 1 69 0
  50 001a C046     		nop
  51 001c BD46     		mov	sp, r7
  52              		@ sp needed
  53 001e 80BD     		pop	{r7, pc}
  54              	.L3:
  55              		.align	2
  56              	.L2:
  57 0020 00000000 		.word	isr_Capture_Interrupt
  58              		.cfi_endproc
  59              	.LFE0:
  60              		.size	isr_Capture_Start, .-isr_Capture_Start
  61              		.section	.text.isr_Capture_StartEx,"ax",%progbits
  62              		.align	2
  63              		.global	isr_Capture_StartEx
  64              		.code	16
  65              		.thumb_func
  66              		.type	isr_Capture_StartEx, %function
  67              	isr_Capture_StartEx:
  68              	.LFB1:
  70:Generated_Source\PSoC4/isr_Capture.c **** 
  71:Generated_Source\PSoC4/isr_Capture.c **** 
  72:Generated_Source\PSoC4/isr_Capture.c **** /*******************************************************************************
  73:Generated_Source\PSoC4/isr_Capture.c **** * Function Name: isr_Capture_StartEx
  74:Generated_Source\PSoC4/isr_Capture.c **** ********************************************************************************
  75:Generated_Source\PSoC4/isr_Capture.c **** *
  76:Generated_Source\PSoC4/isr_Capture.c **** * Summary:
  77:Generated_Source\PSoC4/isr_Capture.c **** *  Sets up the interrupt and enables it. This function disables the interrupt,
  78:Generated_Source\PSoC4/isr_Capture.c **** *  sets the interrupt vector based on the address passed in, sets the priority 
  79:Generated_Source\PSoC4/isr_Capture.c **** *  from the value in the Design Wide Resources Interrupt Editor, then enables 
  80:Generated_Source\PSoC4/isr_Capture.c **** *  the interrupt to the interrupt controller.
  81:Generated_Source\PSoC4/isr_Capture.c **** *  
  82:Generated_Source\PSoC4/isr_Capture.c **** *  When defining ISR functions, the CY_ISR and CY_ISR_PROTO macros should be 
  83:Generated_Source\PSoC4/isr_Capture.c **** *  used to provide consistent definition across compilers:
  84:Generated_Source\PSoC4/isr_Capture.c **** *  
  85:Generated_Source\PSoC4/isr_Capture.c **** *  Function definition example:
  86:Generated_Source\PSoC4/isr_Capture.c **** *   CY_ISR(MyISR)
  87:Generated_Source\PSoC4/isr_Capture.c **** *   {
  88:Generated_Source\PSoC4/isr_Capture.c **** *   }
  89:Generated_Source\PSoC4/isr_Capture.c **** *   Function prototype example:
  90:Generated_Source\PSoC4/isr_Capture.c **** *   CY_ISR_PROTO(MyISR);
  91:Generated_Source\PSoC4/isr_Capture.c **** *
  92:Generated_Source\PSoC4/isr_Capture.c **** * Parameters:  
  93:Generated_Source\PSoC4/isr_Capture.c **** *   address: Address of the ISR to set in the interrupt vector table.
  94:Generated_Source\PSoC4/isr_Capture.c **** *
  95:Generated_Source\PSoC4/isr_Capture.c **** * Return:
  96:Generated_Source\PSoC4/isr_Capture.c **** *   None
  97:Generated_Source\PSoC4/isr_Capture.c **** *
  98:Generated_Source\PSoC4/isr_Capture.c **** *******************************************************************************/
  99:Generated_Source\PSoC4/isr_Capture.c **** void isr_Capture_StartEx(cyisraddress address)
 100:Generated_Source\PSoC4/isr_Capture.c **** {
  69              		.loc 1 100 0
  70              		.cfi_startproc
  71              		@ args = 0, pretend = 0, frame = 8
ARM GAS  C:\Users\ilya\AppData\Local\Temp\ccYKrJKc.s 			page 4


  72              		@ frame_needed = 1, uses_anonymous_args = 0
  73 0000 80B5     		push	{r7, lr}
  74              		.cfi_def_cfa_offset 8
  75              		.cfi_offset 7, -8
  76              		.cfi_offset 14, -4
  77 0002 82B0     		sub	sp, sp, #8
  78              		.cfi_def_cfa_offset 16
  79 0004 00AF     		add	r7, sp, #0
  80              		.cfi_def_cfa_register 7
  81 0006 7860     		str	r0, [r7, #4]
 101:Generated_Source\PSoC4/isr_Capture.c ****     /* For all we know the interrupt is active. */
 102:Generated_Source\PSoC4/isr_Capture.c ****     isr_Capture_Disable();
  82              		.loc 1 102 0
  83 0008 FFF7FEFF 		bl	isr_Capture_Disable
 103:Generated_Source\PSoC4/isr_Capture.c **** 
 104:Generated_Source\PSoC4/isr_Capture.c ****     /* Set the ISR to point to the isr_Capture Interrupt. */
 105:Generated_Source\PSoC4/isr_Capture.c ****     isr_Capture_SetVector(address);
  84              		.loc 1 105 0
  85 000c 7B68     		ldr	r3, [r7, #4]
  86 000e 1800     		movs	r0, r3
  87 0010 FFF7FEFF 		bl	isr_Capture_SetVector
 106:Generated_Source\PSoC4/isr_Capture.c **** 
 107:Generated_Source\PSoC4/isr_Capture.c ****     /* Set the priority. */
 108:Generated_Source\PSoC4/isr_Capture.c ****     isr_Capture_SetPriority((uint8)isr_Capture_INTC_PRIOR_NUMBER);
  88              		.loc 1 108 0
  89 0014 0320     		movs	r0, #3
  90 0016 FFF7FEFF 		bl	isr_Capture_SetPriority
 109:Generated_Source\PSoC4/isr_Capture.c **** 
 110:Generated_Source\PSoC4/isr_Capture.c ****     /* Enable it. */
 111:Generated_Source\PSoC4/isr_Capture.c ****     isr_Capture_Enable();
  91              		.loc 1 111 0
  92 001a FFF7FEFF 		bl	isr_Capture_Enable
 112:Generated_Source\PSoC4/isr_Capture.c **** }
  93              		.loc 1 112 0
  94 001e C046     		nop
  95 0020 BD46     		mov	sp, r7
  96 0022 02B0     		add	sp, sp, #8
  97              		@ sp needed
  98 0024 80BD     		pop	{r7, pc}
  99              		.cfi_endproc
 100              	.LFE1:
 101              		.size	isr_Capture_StartEx, .-isr_Capture_StartEx
 102 0026 C046     		.section	.text.isr_Capture_Stop,"ax",%progbits
 103              		.align	2
 104              		.global	isr_Capture_Stop
 105              		.code	16
 106              		.thumb_func
 107              		.type	isr_Capture_Stop, %function
 108              	isr_Capture_Stop:
 109              	.LFB2:
 113:Generated_Source\PSoC4/isr_Capture.c **** 
 114:Generated_Source\PSoC4/isr_Capture.c **** 
 115:Generated_Source\PSoC4/isr_Capture.c **** /*******************************************************************************
 116:Generated_Source\PSoC4/isr_Capture.c **** * Function Name: isr_Capture_Stop
 117:Generated_Source\PSoC4/isr_Capture.c **** ********************************************************************************
 118:Generated_Source\PSoC4/isr_Capture.c **** *
 119:Generated_Source\PSoC4/isr_Capture.c **** * Summary:
ARM GAS  C:\Users\ilya\AppData\Local\Temp\ccYKrJKc.s 			page 5


 120:Generated_Source\PSoC4/isr_Capture.c **** *   Disables and removes the interrupt.
 121:Generated_Source\PSoC4/isr_Capture.c **** *
 122:Generated_Source\PSoC4/isr_Capture.c **** * Parameters:  
 123:Generated_Source\PSoC4/isr_Capture.c **** *   None
 124:Generated_Source\PSoC4/isr_Capture.c **** *
 125:Generated_Source\PSoC4/isr_Capture.c **** * Return:
 126:Generated_Source\PSoC4/isr_Capture.c **** *   None
 127:Generated_Source\PSoC4/isr_Capture.c **** *
 128:Generated_Source\PSoC4/isr_Capture.c **** *******************************************************************************/
 129:Generated_Source\PSoC4/isr_Capture.c **** void isr_Capture_Stop(void)
 130:Generated_Source\PSoC4/isr_Capture.c **** {
 110              		.loc 1 130 0
 111              		.cfi_startproc
 112              		@ args = 0, pretend = 0, frame = 0
 113              		@ frame_needed = 1, uses_anonymous_args = 0
 114 0000 80B5     		push	{r7, lr}
 115              		.cfi_def_cfa_offset 8
 116              		.cfi_offset 7, -8
 117              		.cfi_offset 14, -4
 118 0002 00AF     		add	r7, sp, #0
 119              		.cfi_def_cfa_register 7
 131:Generated_Source\PSoC4/isr_Capture.c ****     /* Disable this interrupt. */
 132:Generated_Source\PSoC4/isr_Capture.c ****     isr_Capture_Disable();
 120              		.loc 1 132 0
 121 0004 FFF7FEFF 		bl	isr_Capture_Disable
 133:Generated_Source\PSoC4/isr_Capture.c **** 
 134:Generated_Source\PSoC4/isr_Capture.c ****     /* Set the ISR to point to the passive one. */
 135:Generated_Source\PSoC4/isr_Capture.c ****     isr_Capture_SetVector(&IntDefaultHandler);
 122              		.loc 1 135 0
 123 0008 034B     		ldr	r3, .L6
 124 000a 1800     		movs	r0, r3
 125 000c FFF7FEFF 		bl	isr_Capture_SetVector
 136:Generated_Source\PSoC4/isr_Capture.c **** }
 126              		.loc 1 136 0
 127 0010 C046     		nop
 128 0012 BD46     		mov	sp, r7
 129              		@ sp needed
 130 0014 80BD     		pop	{r7, pc}
 131              	.L7:
 132 0016 C046     		.align	2
 133              	.L6:
 134 0018 00000000 		.word	IntDefaultHandler
 135              		.cfi_endproc
 136              	.LFE2:
 137              		.size	isr_Capture_Stop, .-isr_Capture_Stop
 138              		.section	.text.isr_Capture_Interrupt,"ax",%progbits
 139              		.align	2
 140              		.global	isr_Capture_Interrupt
 141              		.code	16
 142              		.thumb_func
 143              		.type	isr_Capture_Interrupt, %function
 144              	isr_Capture_Interrupt:
 145              	.LFB3:
 137:Generated_Source\PSoC4/isr_Capture.c **** 
 138:Generated_Source\PSoC4/isr_Capture.c **** 
 139:Generated_Source\PSoC4/isr_Capture.c **** /*******************************************************************************
 140:Generated_Source\PSoC4/isr_Capture.c **** * Function Name: isr_Capture_Interrupt
ARM GAS  C:\Users\ilya\AppData\Local\Temp\ccYKrJKc.s 			page 6


 141:Generated_Source\PSoC4/isr_Capture.c **** ********************************************************************************
 142:Generated_Source\PSoC4/isr_Capture.c **** *
 143:Generated_Source\PSoC4/isr_Capture.c **** * Summary:
 144:Generated_Source\PSoC4/isr_Capture.c **** *   The default Interrupt Service Routine for isr_Capture.
 145:Generated_Source\PSoC4/isr_Capture.c **** *
 146:Generated_Source\PSoC4/isr_Capture.c **** *   Add custom code between the START and END comments to keep the next version
 147:Generated_Source\PSoC4/isr_Capture.c **** *   of this file from over-writing your code.
 148:Generated_Source\PSoC4/isr_Capture.c **** *
 149:Generated_Source\PSoC4/isr_Capture.c **** *   Note You may use either the default ISR by using this API, or you may define
 150:Generated_Source\PSoC4/isr_Capture.c **** *   your own separate ISR through ISR_StartEx().
 151:Generated_Source\PSoC4/isr_Capture.c **** *
 152:Generated_Source\PSoC4/isr_Capture.c **** * Parameters:  
 153:Generated_Source\PSoC4/isr_Capture.c **** *   None
 154:Generated_Source\PSoC4/isr_Capture.c **** *
 155:Generated_Source\PSoC4/isr_Capture.c **** * Return:
 156:Generated_Source\PSoC4/isr_Capture.c **** *   None
 157:Generated_Source\PSoC4/isr_Capture.c **** *
 158:Generated_Source\PSoC4/isr_Capture.c **** *******************************************************************************/
 159:Generated_Source\PSoC4/isr_Capture.c **** CY_ISR(isr_Capture_Interrupt)
 160:Generated_Source\PSoC4/isr_Capture.c **** {
 146              		.loc 1 160 0
 147              		.cfi_startproc
 148              		@ args = 0, pretend = 0, frame = 0
 149              		@ frame_needed = 1, uses_anonymous_args = 0
 150 0000 80B5     		push	{r7, lr}
 151              		.cfi_def_cfa_offset 8
 152              		.cfi_offset 7, -8
 153              		.cfi_offset 14, -4
 154 0002 00AF     		add	r7, sp, #0
 155              		.cfi_def_cfa_register 7
 156              	.LBB2:
 161:Generated_Source\PSoC4/isr_Capture.c ****     #ifdef isr_Capture_INTERRUPT_INTERRUPT_CALLBACK
 162:Generated_Source\PSoC4/isr_Capture.c ****         isr_Capture_Interrupt_InterruptCallback();
 163:Generated_Source\PSoC4/isr_Capture.c ****     #endif /* isr_Capture_INTERRUPT_INTERRUPT_CALLBACK */ 
 164:Generated_Source\PSoC4/isr_Capture.c **** 
 165:Generated_Source\PSoC4/isr_Capture.c ****     /*  Place your Interrupt code here. */
 166:Generated_Source\PSoC4/isr_Capture.c ****     /* `#START isr_Capture_Interrupt` */
 167:Generated_Source\PSoC4/isr_Capture.c ****     {
 168:Generated_Source\PSoC4/isr_Capture.c ****         void HandleCapture();
 169:Generated_Source\PSoC4/isr_Capture.c ****         HandleCapture();
 157              		.loc 1 169 0
 158 0004 FFF7FEFF 		bl	HandleCapture
 159              	.LBE2:
 170:Generated_Source\PSoC4/isr_Capture.c ****     }
 171:Generated_Source\PSoC4/isr_Capture.c ****     /* `#END` */
 172:Generated_Source\PSoC4/isr_Capture.c **** }
 160              		.loc 1 172 0
 161 0008 C046     		nop
 162 000a BD46     		mov	sp, r7
 163              		@ sp needed
 164 000c 80BD     		pop	{r7, pc}
 165              		.cfi_endproc
 166              	.LFE3:
 167              		.size	isr_Capture_Interrupt, .-isr_Capture_Interrupt
 168 000e C046     		.section	.text.isr_Capture_SetVector,"ax",%progbits
 169              		.align	2
 170              		.global	isr_Capture_SetVector
ARM GAS  C:\Users\ilya\AppData\Local\Temp\ccYKrJKc.s 			page 7


 171              		.code	16
 172              		.thumb_func
 173              		.type	isr_Capture_SetVector, %function
 174              	isr_Capture_SetVector:
 175              	.LFB4:
 173:Generated_Source\PSoC4/isr_Capture.c **** 
 174:Generated_Source\PSoC4/isr_Capture.c **** 
 175:Generated_Source\PSoC4/isr_Capture.c **** /*******************************************************************************
 176:Generated_Source\PSoC4/isr_Capture.c **** * Function Name: isr_Capture_SetVector
 177:Generated_Source\PSoC4/isr_Capture.c **** ********************************************************************************
 178:Generated_Source\PSoC4/isr_Capture.c **** *
 179:Generated_Source\PSoC4/isr_Capture.c **** * Summary:
 180:Generated_Source\PSoC4/isr_Capture.c **** *   Change the ISR vector for the Interrupt. Note calling isr_Capture_Start
 181:Generated_Source\PSoC4/isr_Capture.c **** *   will override any effect this method would have had. To set the vector 
 182:Generated_Source\PSoC4/isr_Capture.c **** *   before the component has been started use isr_Capture_StartEx instead.
 183:Generated_Source\PSoC4/isr_Capture.c **** * 
 184:Generated_Source\PSoC4/isr_Capture.c **** *   When defining ISR functions, the CY_ISR and CY_ISR_PROTO macros should be 
 185:Generated_Source\PSoC4/isr_Capture.c **** *   used to provide consistent definition across compilers:
 186:Generated_Source\PSoC4/isr_Capture.c **** *
 187:Generated_Source\PSoC4/isr_Capture.c **** *   Function definition example:
 188:Generated_Source\PSoC4/isr_Capture.c **** *   CY_ISR(MyISR)
 189:Generated_Source\PSoC4/isr_Capture.c **** *   {
 190:Generated_Source\PSoC4/isr_Capture.c **** *   }
 191:Generated_Source\PSoC4/isr_Capture.c **** *
 192:Generated_Source\PSoC4/isr_Capture.c **** *   Function prototype example:
 193:Generated_Source\PSoC4/isr_Capture.c **** *     CY_ISR_PROTO(MyISR);
 194:Generated_Source\PSoC4/isr_Capture.c **** *
 195:Generated_Source\PSoC4/isr_Capture.c **** * Parameters:
 196:Generated_Source\PSoC4/isr_Capture.c **** *   address: Address of the ISR to set in the interrupt vector table.
 197:Generated_Source\PSoC4/isr_Capture.c **** *
 198:Generated_Source\PSoC4/isr_Capture.c **** * Return:
 199:Generated_Source\PSoC4/isr_Capture.c **** *   None
 200:Generated_Source\PSoC4/isr_Capture.c **** *
 201:Generated_Source\PSoC4/isr_Capture.c **** *******************************************************************************/
 202:Generated_Source\PSoC4/isr_Capture.c **** void isr_Capture_SetVector(cyisraddress address)
 203:Generated_Source\PSoC4/isr_Capture.c **** {
 176              		.loc 1 203 0
 177              		.cfi_startproc
 178              		@ args = 0, pretend = 0, frame = 8
 179              		@ frame_needed = 1, uses_anonymous_args = 0
 180 0000 80B5     		push	{r7, lr}
 181              		.cfi_def_cfa_offset 8
 182              		.cfi_offset 7, -8
 183              		.cfi_offset 14, -4
 184 0002 82B0     		sub	sp, sp, #8
 185              		.cfi_def_cfa_offset 16
 186 0004 00AF     		add	r7, sp, #0
 187              		.cfi_def_cfa_register 7
 188 0006 7860     		str	r0, [r7, #4]
 204:Generated_Source\PSoC4/isr_Capture.c ****     CyRamVectors[CYINT_IRQ_BASE + isr_Capture__INTC_NUMBER] = address;
 189              		.loc 1 204 0
 190 0008 034B     		ldr	r3, .L10
 191 000a 8C21     		movs	r1, #140
 192 000c 7A68     		ldr	r2, [r7, #4]
 193 000e 5A50     		str	r2, [r3, r1]
 205:Generated_Source\PSoC4/isr_Capture.c **** }
 194              		.loc 1 205 0
ARM GAS  C:\Users\ilya\AppData\Local\Temp\ccYKrJKc.s 			page 8


 195 0010 C046     		nop
 196 0012 BD46     		mov	sp, r7
 197 0014 02B0     		add	sp, sp, #8
 198              		@ sp needed
 199 0016 80BD     		pop	{r7, pc}
 200              	.L11:
 201              		.align	2
 202              	.L10:
 203 0018 00000000 		.word	CyRamVectors
 204              		.cfi_endproc
 205              	.LFE4:
 206              		.size	isr_Capture_SetVector, .-isr_Capture_SetVector
 207              		.section	.text.isr_Capture_GetVector,"ax",%progbits
 208              		.align	2
 209              		.global	isr_Capture_GetVector
 210              		.code	16
 211              		.thumb_func
 212              		.type	isr_Capture_GetVector, %function
 213              	isr_Capture_GetVector:
 214              	.LFB5:
 206:Generated_Source\PSoC4/isr_Capture.c **** 
 207:Generated_Source\PSoC4/isr_Capture.c **** 
 208:Generated_Source\PSoC4/isr_Capture.c **** /*******************************************************************************
 209:Generated_Source\PSoC4/isr_Capture.c **** * Function Name: isr_Capture_GetVector
 210:Generated_Source\PSoC4/isr_Capture.c **** ********************************************************************************
 211:Generated_Source\PSoC4/isr_Capture.c **** *
 212:Generated_Source\PSoC4/isr_Capture.c **** * Summary:
 213:Generated_Source\PSoC4/isr_Capture.c **** *   Gets the "address" of the current ISR vector for the Interrupt.
 214:Generated_Source\PSoC4/isr_Capture.c **** *
 215:Generated_Source\PSoC4/isr_Capture.c **** * Parameters:
 216:Generated_Source\PSoC4/isr_Capture.c **** *   None
 217:Generated_Source\PSoC4/isr_Capture.c **** *
 218:Generated_Source\PSoC4/isr_Capture.c **** * Return:
 219:Generated_Source\PSoC4/isr_Capture.c **** *   Address of the ISR in the interrupt vector table.
 220:Generated_Source\PSoC4/isr_Capture.c **** *
 221:Generated_Source\PSoC4/isr_Capture.c **** *******************************************************************************/
 222:Generated_Source\PSoC4/isr_Capture.c **** cyisraddress isr_Capture_GetVector(void)
 223:Generated_Source\PSoC4/isr_Capture.c **** {
 215              		.loc 1 223 0
 216              		.cfi_startproc
 217              		@ args = 0, pretend = 0, frame = 0
 218              		@ frame_needed = 1, uses_anonymous_args = 0
 219 0000 80B5     		push	{r7, lr}
 220              		.cfi_def_cfa_offset 8
 221              		.cfi_offset 7, -8
 222              		.cfi_offset 14, -4
 223 0002 00AF     		add	r7, sp, #0
 224              		.cfi_def_cfa_register 7
 224:Generated_Source\PSoC4/isr_Capture.c ****     return CyRamVectors[CYINT_IRQ_BASE + isr_Capture__INTC_NUMBER];
 225              		.loc 1 224 0
 226 0004 024B     		ldr	r3, .L14
 227 0006 8C22     		movs	r2, #140
 228 0008 9B58     		ldr	r3, [r3, r2]
 225:Generated_Source\PSoC4/isr_Capture.c **** }
 229              		.loc 1 225 0
 230 000a 1800     		movs	r0, r3
 231 000c BD46     		mov	sp, r7
ARM GAS  C:\Users\ilya\AppData\Local\Temp\ccYKrJKc.s 			page 9


 232              		@ sp needed
 233 000e 80BD     		pop	{r7, pc}
 234              	.L15:
 235              		.align	2
 236              	.L14:
 237 0010 00000000 		.word	CyRamVectors
 238              		.cfi_endproc
 239              	.LFE5:
 240              		.size	isr_Capture_GetVector, .-isr_Capture_GetVector
 241              		.section	.text.isr_Capture_SetPriority,"ax",%progbits
 242              		.align	2
 243              		.global	isr_Capture_SetPriority
 244              		.code	16
 245              		.thumb_func
 246              		.type	isr_Capture_SetPriority, %function
 247              	isr_Capture_SetPriority:
 248              	.LFB6:
 226:Generated_Source\PSoC4/isr_Capture.c **** 
 227:Generated_Source\PSoC4/isr_Capture.c **** 
 228:Generated_Source\PSoC4/isr_Capture.c **** /*******************************************************************************
 229:Generated_Source\PSoC4/isr_Capture.c **** * Function Name: isr_Capture_SetPriority
 230:Generated_Source\PSoC4/isr_Capture.c **** ********************************************************************************
 231:Generated_Source\PSoC4/isr_Capture.c **** *
 232:Generated_Source\PSoC4/isr_Capture.c **** * Summary:
 233:Generated_Source\PSoC4/isr_Capture.c **** *   Sets the Priority of the Interrupt. 
 234:Generated_Source\PSoC4/isr_Capture.c **** *
 235:Generated_Source\PSoC4/isr_Capture.c **** *   Note calling isr_Capture_Start or isr_Capture_StartEx will 
 236:Generated_Source\PSoC4/isr_Capture.c **** *   override any effect this API would have had. This API should only be called
 237:Generated_Source\PSoC4/isr_Capture.c **** *   after isr_Capture_Start or isr_Capture_StartEx has been called. 
 238:Generated_Source\PSoC4/isr_Capture.c **** *   To set the initial priority for the component, use the Design-Wide Resources
 239:Generated_Source\PSoC4/isr_Capture.c **** *   Interrupt Editor.
 240:Generated_Source\PSoC4/isr_Capture.c **** *
 241:Generated_Source\PSoC4/isr_Capture.c **** *   Note This API has no effect on Non-maskable interrupt NMI).
 242:Generated_Source\PSoC4/isr_Capture.c **** *
 243:Generated_Source\PSoC4/isr_Capture.c **** * Parameters:
 244:Generated_Source\PSoC4/isr_Capture.c **** *   priority: Priority of the interrupt, 0 being the highest priority
 245:Generated_Source\PSoC4/isr_Capture.c **** *             PSoC 3 and PSoC 5LP: Priority is from 0 to 7.
 246:Generated_Source\PSoC4/isr_Capture.c **** *             PSoC 4: Priority is from 0 to 3.
 247:Generated_Source\PSoC4/isr_Capture.c **** *
 248:Generated_Source\PSoC4/isr_Capture.c **** * Return:
 249:Generated_Source\PSoC4/isr_Capture.c **** *   None
 250:Generated_Source\PSoC4/isr_Capture.c **** *
 251:Generated_Source\PSoC4/isr_Capture.c **** *******************************************************************************/
 252:Generated_Source\PSoC4/isr_Capture.c **** void isr_Capture_SetPriority(uint8 priority)
 253:Generated_Source\PSoC4/isr_Capture.c **** {
 249              		.loc 1 253 0
 250              		.cfi_startproc
 251              		@ args = 0, pretend = 0, frame = 16
 252              		@ frame_needed = 1, uses_anonymous_args = 0
 253 0000 90B5     		push	{r4, r7, lr}
 254              		.cfi_def_cfa_offset 12
 255              		.cfi_offset 4, -12
 256              		.cfi_offset 7, -8
 257              		.cfi_offset 14, -4
 258 0002 85B0     		sub	sp, sp, #20
 259              		.cfi_def_cfa_offset 32
 260 0004 00AF     		add	r7, sp, #0
ARM GAS  C:\Users\ilya\AppData\Local\Temp\ccYKrJKc.s 			page 10


 261              		.cfi_def_cfa_register 7
 262 0006 0200     		movs	r2, r0
 263 0008 FB1D     		adds	r3, r7, #7
 264 000a 1A70     		strb	r2, [r3]
 254:Generated_Source\PSoC4/isr_Capture.c **** 	uint8 interruptState;
 255:Generated_Source\PSoC4/isr_Capture.c ****     uint32 priorityOffset = ((isr_Capture__INTC_NUMBER % 4u) * 8u) + 6u;
 265              		.loc 1 255 0
 266 000c 1E23     		movs	r3, #30
 267 000e FB60     		str	r3, [r7, #12]
 256:Generated_Source\PSoC4/isr_Capture.c ****     
 257:Generated_Source\PSoC4/isr_Capture.c **** 	interruptState = CyEnterCriticalSection();
 268              		.loc 1 257 0
 269 0010 0B23     		movs	r3, #11
 270 0012 FC18     		adds	r4, r7, r3
 271 0014 FFF7FEFF 		bl	CyEnterCriticalSection
 272 0018 0300     		movs	r3, r0
 273 001a 2370     		strb	r3, [r4]
 258:Generated_Source\PSoC4/isr_Capture.c ****     *isr_Capture_INTC_PRIOR = (*isr_Capture_INTC_PRIOR & (uint32)(~isr_Capture__INTC_PRIOR_MASK)) |
 274              		.loc 1 258 0
 275 001c 0A4B     		ldr	r3, .L17
 276 001e 0A4A     		ldr	r2, .L17
 277 0020 1268     		ldr	r2, [r2]
 278 0022 9200     		lsls	r2, r2, #2
 279 0024 9108     		lsrs	r1, r2, #2
 259:Generated_Source\PSoC4/isr_Capture.c ****                                     ((uint32)priority << priorityOffset);
 280              		.loc 1 259 0
 281 0026 FA1D     		adds	r2, r7, #7
 282 0028 1078     		ldrb	r0, [r2]
 283 002a FA68     		ldr	r2, [r7, #12]
 284 002c 9040     		lsls	r0, r0, r2
 285 002e 0200     		movs	r2, r0
 258:Generated_Source\PSoC4/isr_Capture.c ****     *isr_Capture_INTC_PRIOR = (*isr_Capture_INTC_PRIOR & (uint32)(~isr_Capture__INTC_PRIOR_MASK)) |
 286              		.loc 1 258 0
 287 0030 0A43     		orrs	r2, r1
 288 0032 1A60     		str	r2, [r3]
 260:Generated_Source\PSoC4/isr_Capture.c **** 	CyExitCriticalSection(interruptState);
 289              		.loc 1 260 0
 290 0034 0B23     		movs	r3, #11
 291 0036 FB18     		adds	r3, r7, r3
 292 0038 1B78     		ldrb	r3, [r3]
 293 003a 1800     		movs	r0, r3
 294 003c FFF7FEFF 		bl	CyExitCriticalSection
 261:Generated_Source\PSoC4/isr_Capture.c **** }
 295              		.loc 1 261 0
 296 0040 C046     		nop
 297 0042 BD46     		mov	sp, r7
 298 0044 05B0     		add	sp, sp, #20
 299              		@ sp needed
 300 0046 90BD     		pop	{r4, r7, pc}
 301              	.L18:
 302              		.align	2
 303              	.L17:
 304 0048 10E400E0 		.word	-536812528
 305              		.cfi_endproc
 306              	.LFE6:
 307              		.size	isr_Capture_SetPriority, .-isr_Capture_SetPriority
 308              		.section	.text.isr_Capture_GetPriority,"ax",%progbits
ARM GAS  C:\Users\ilya\AppData\Local\Temp\ccYKrJKc.s 			page 11


 309              		.align	2
 310              		.global	isr_Capture_GetPriority
 311              		.code	16
 312              		.thumb_func
 313              		.type	isr_Capture_GetPriority, %function
 314              	isr_Capture_GetPriority:
 315              	.LFB7:
 262:Generated_Source\PSoC4/isr_Capture.c **** 
 263:Generated_Source\PSoC4/isr_Capture.c **** 
 264:Generated_Source\PSoC4/isr_Capture.c **** /*******************************************************************************
 265:Generated_Source\PSoC4/isr_Capture.c **** * Function Name: isr_Capture_GetPriority
 266:Generated_Source\PSoC4/isr_Capture.c **** ********************************************************************************
 267:Generated_Source\PSoC4/isr_Capture.c **** *
 268:Generated_Source\PSoC4/isr_Capture.c **** * Summary:
 269:Generated_Source\PSoC4/isr_Capture.c **** *   Gets the Priority of the Interrupt.
 270:Generated_Source\PSoC4/isr_Capture.c **** *
 271:Generated_Source\PSoC4/isr_Capture.c **** * Parameters:
 272:Generated_Source\PSoC4/isr_Capture.c **** *   None
 273:Generated_Source\PSoC4/isr_Capture.c **** *
 274:Generated_Source\PSoC4/isr_Capture.c **** * Return:
 275:Generated_Source\PSoC4/isr_Capture.c **** *   Priority of the interrupt, 0 being the highest priority
 276:Generated_Source\PSoC4/isr_Capture.c **** *    PSoC 3 and PSoC 5LP: Priority is from 0 to 7.
 277:Generated_Source\PSoC4/isr_Capture.c **** *    PSoC 4: Priority is from 0 to 3.
 278:Generated_Source\PSoC4/isr_Capture.c **** *
 279:Generated_Source\PSoC4/isr_Capture.c **** *******************************************************************************/
 280:Generated_Source\PSoC4/isr_Capture.c **** uint8 isr_Capture_GetPriority(void)
 281:Generated_Source\PSoC4/isr_Capture.c **** {
 316              		.loc 1 281 0
 317              		.cfi_startproc
 318              		@ args = 0, pretend = 0, frame = 8
 319              		@ frame_needed = 1, uses_anonymous_args = 0
 320 0000 80B5     		push	{r7, lr}
 321              		.cfi_def_cfa_offset 8
 322              		.cfi_offset 7, -8
 323              		.cfi_offset 14, -4
 324 0002 82B0     		sub	sp, sp, #8
 325              		.cfi_def_cfa_offset 16
 326 0004 00AF     		add	r7, sp, #0
 327              		.cfi_def_cfa_register 7
 282:Generated_Source\PSoC4/isr_Capture.c ****     uint32 priority;
 283:Generated_Source\PSoC4/isr_Capture.c **** 	uint32 priorityOffset = ((isr_Capture__INTC_NUMBER % 4u) * 8u) + 6u;
 328              		.loc 1 283 0
 329 0006 1E23     		movs	r3, #30
 330 0008 7B60     		str	r3, [r7, #4]
 284:Generated_Source\PSoC4/isr_Capture.c **** 
 285:Generated_Source\PSoC4/isr_Capture.c ****     priority = (*isr_Capture_INTC_PRIOR & isr_Capture__INTC_PRIOR_MASK) >> priorityOffset;
 331              		.loc 1 285 0
 332 000a 074B     		ldr	r3, .L21
 333 000c 1B68     		ldr	r3, [r3]
 334 000e 9B0F     		lsrs	r3, r3, #30
 335 0010 9A07     		lsls	r2, r3, #30
 336 0012 7B68     		ldr	r3, [r7, #4]
 337 0014 DA40     		lsrs	r2, r2, r3
 338 0016 1300     		movs	r3, r2
 339 0018 3B60     		str	r3, [r7]
 286:Generated_Source\PSoC4/isr_Capture.c **** 
 287:Generated_Source\PSoC4/isr_Capture.c ****     return (uint8)priority;
ARM GAS  C:\Users\ilya\AppData\Local\Temp\ccYKrJKc.s 			page 12


 340              		.loc 1 287 0
 341 001a 3B68     		ldr	r3, [r7]
 342 001c DBB2     		uxtb	r3, r3
 288:Generated_Source\PSoC4/isr_Capture.c **** }
 343              		.loc 1 288 0
 344 001e 1800     		movs	r0, r3
 345 0020 BD46     		mov	sp, r7
 346 0022 02B0     		add	sp, sp, #8
 347              		@ sp needed
 348 0024 80BD     		pop	{r7, pc}
 349              	.L22:
 350 0026 C046     		.align	2
 351              	.L21:
 352 0028 10E400E0 		.word	-536812528
 353              		.cfi_endproc
 354              	.LFE7:
 355              		.size	isr_Capture_GetPriority, .-isr_Capture_GetPriority
 356              		.section	.text.isr_Capture_Enable,"ax",%progbits
 357              		.align	2
 358              		.global	isr_Capture_Enable
 359              		.code	16
 360              		.thumb_func
 361              		.type	isr_Capture_Enable, %function
 362              	isr_Capture_Enable:
 363              	.LFB8:
 289:Generated_Source\PSoC4/isr_Capture.c **** 
 290:Generated_Source\PSoC4/isr_Capture.c **** 
 291:Generated_Source\PSoC4/isr_Capture.c **** /*******************************************************************************
 292:Generated_Source\PSoC4/isr_Capture.c **** * Function Name: isr_Capture_Enable
 293:Generated_Source\PSoC4/isr_Capture.c **** ********************************************************************************
 294:Generated_Source\PSoC4/isr_Capture.c **** *
 295:Generated_Source\PSoC4/isr_Capture.c **** * Summary:
 296:Generated_Source\PSoC4/isr_Capture.c **** *   Enables the interrupt to the interrupt controller. Do not call this function
 297:Generated_Source\PSoC4/isr_Capture.c **** *   unless ISR_Start() has been called or the functionality of the ISR_Start() 
 298:Generated_Source\PSoC4/isr_Capture.c **** *   function, which sets the vector and the priority, has been called.
 299:Generated_Source\PSoC4/isr_Capture.c **** *
 300:Generated_Source\PSoC4/isr_Capture.c **** * Parameters:
 301:Generated_Source\PSoC4/isr_Capture.c **** *   None
 302:Generated_Source\PSoC4/isr_Capture.c **** *
 303:Generated_Source\PSoC4/isr_Capture.c **** * Return:
 304:Generated_Source\PSoC4/isr_Capture.c **** *   None
 305:Generated_Source\PSoC4/isr_Capture.c **** *
 306:Generated_Source\PSoC4/isr_Capture.c **** *******************************************************************************/
 307:Generated_Source\PSoC4/isr_Capture.c **** void isr_Capture_Enable(void)
 308:Generated_Source\PSoC4/isr_Capture.c **** {
 364              		.loc 1 308 0
 365              		.cfi_startproc
 366              		@ args = 0, pretend = 0, frame = 0
 367              		@ frame_needed = 1, uses_anonymous_args = 0
 368 0000 80B5     		push	{r7, lr}
 369              		.cfi_def_cfa_offset 8
 370              		.cfi_offset 7, -8
 371              		.cfi_offset 14, -4
 372 0002 00AF     		add	r7, sp, #0
 373              		.cfi_def_cfa_register 7
 309:Generated_Source\PSoC4/isr_Capture.c ****     /* Enable the general interrupt. */
 310:Generated_Source\PSoC4/isr_Capture.c ****     *isr_Capture_INTC_SET_EN = isr_Capture__INTC_MASK;
ARM GAS  C:\Users\ilya\AppData\Local\Temp\ccYKrJKc.s 			page 13


 374              		.loc 1 310 0
 375 0004 034B     		ldr	r3, .L24
 376 0006 8022     		movs	r2, #128
 377 0008 1203     		lsls	r2, r2, #12
 378 000a 1A60     		str	r2, [r3]
 311:Generated_Source\PSoC4/isr_Capture.c **** }
 379              		.loc 1 311 0
 380 000c C046     		nop
 381 000e BD46     		mov	sp, r7
 382              		@ sp needed
 383 0010 80BD     		pop	{r7, pc}
 384              	.L25:
 385 0012 C046     		.align	2
 386              	.L24:
 387 0014 00E100E0 		.word	-536813312
 388              		.cfi_endproc
 389              	.LFE8:
 390              		.size	isr_Capture_Enable, .-isr_Capture_Enable
 391              		.section	.text.isr_Capture_GetState,"ax",%progbits
 392              		.align	2
 393              		.global	isr_Capture_GetState
 394              		.code	16
 395              		.thumb_func
 396              		.type	isr_Capture_GetState, %function
 397              	isr_Capture_GetState:
 398              	.LFB9:
 312:Generated_Source\PSoC4/isr_Capture.c **** 
 313:Generated_Source\PSoC4/isr_Capture.c **** 
 314:Generated_Source\PSoC4/isr_Capture.c **** /*******************************************************************************
 315:Generated_Source\PSoC4/isr_Capture.c **** * Function Name: isr_Capture_GetState
 316:Generated_Source\PSoC4/isr_Capture.c **** ********************************************************************************
 317:Generated_Source\PSoC4/isr_Capture.c **** *
 318:Generated_Source\PSoC4/isr_Capture.c **** * Summary:
 319:Generated_Source\PSoC4/isr_Capture.c **** *   Gets the state (enabled, disabled) of the Interrupt.
 320:Generated_Source\PSoC4/isr_Capture.c **** *
 321:Generated_Source\PSoC4/isr_Capture.c **** * Parameters:
 322:Generated_Source\PSoC4/isr_Capture.c **** *   None
 323:Generated_Source\PSoC4/isr_Capture.c **** *
 324:Generated_Source\PSoC4/isr_Capture.c **** * Return:
 325:Generated_Source\PSoC4/isr_Capture.c **** *   1 if enabled, 0 if disabled.
 326:Generated_Source\PSoC4/isr_Capture.c **** *
 327:Generated_Source\PSoC4/isr_Capture.c **** *******************************************************************************/
 328:Generated_Source\PSoC4/isr_Capture.c **** uint8 isr_Capture_GetState(void)
 329:Generated_Source\PSoC4/isr_Capture.c **** {
 399              		.loc 1 329 0
 400              		.cfi_startproc
 401              		@ args = 0, pretend = 0, frame = 0
 402              		@ frame_needed = 1, uses_anonymous_args = 0
 403 0000 80B5     		push	{r7, lr}
 404              		.cfi_def_cfa_offset 8
 405              		.cfi_offset 7, -8
 406              		.cfi_offset 14, -4
 407 0002 00AF     		add	r7, sp, #0
 408              		.cfi_def_cfa_register 7
 330:Generated_Source\PSoC4/isr_Capture.c ****     /* Get the state of the general interrupt. */
 331:Generated_Source\PSoC4/isr_Capture.c ****     return ((*isr_Capture_INTC_SET_EN & (uint32)isr_Capture__INTC_MASK) != 0u) ? 1u:0u;
 409              		.loc 1 331 0
ARM GAS  C:\Users\ilya\AppData\Local\Temp\ccYKrJKc.s 			page 14


 410 0004 054B     		ldr	r3, .L30
 411 0006 1A68     		ldr	r2, [r3]
 412 0008 8023     		movs	r3, #128
 413 000a 1B03     		lsls	r3, r3, #12
 414 000c 1340     		ands	r3, r2
 415 000e 01D0     		beq	.L27
 416              		.loc 1 331 0 is_stmt 0 discriminator 1
 417 0010 0123     		movs	r3, #1
 418 0012 00E0     		b	.L28
 419              	.L27:
 420              		.loc 1 331 0 discriminator 2
 421 0014 0023     		movs	r3, #0
 422              	.L28:
 332:Generated_Source\PSoC4/isr_Capture.c **** }
 423              		.loc 1 332 0 is_stmt 1 discriminator 4
 424 0016 1800     		movs	r0, r3
 425 0018 BD46     		mov	sp, r7
 426              		@ sp needed
 427 001a 80BD     		pop	{r7, pc}
 428              	.L31:
 429              		.align	2
 430              	.L30:
 431 001c 00E100E0 		.word	-536813312
 432              		.cfi_endproc
 433              	.LFE9:
 434              		.size	isr_Capture_GetState, .-isr_Capture_GetState
 435              		.section	.text.isr_Capture_Disable,"ax",%progbits
 436              		.align	2
 437              		.global	isr_Capture_Disable
 438              		.code	16
 439              		.thumb_func
 440              		.type	isr_Capture_Disable, %function
 441              	isr_Capture_Disable:
 442              	.LFB10:
 333:Generated_Source\PSoC4/isr_Capture.c **** 
 334:Generated_Source\PSoC4/isr_Capture.c **** 
 335:Generated_Source\PSoC4/isr_Capture.c **** /*******************************************************************************
 336:Generated_Source\PSoC4/isr_Capture.c **** * Function Name: isr_Capture_Disable
 337:Generated_Source\PSoC4/isr_Capture.c **** ********************************************************************************
 338:Generated_Source\PSoC4/isr_Capture.c **** *
 339:Generated_Source\PSoC4/isr_Capture.c **** * Summary:
 340:Generated_Source\PSoC4/isr_Capture.c **** *   Disables the Interrupt in the interrupt controller.
 341:Generated_Source\PSoC4/isr_Capture.c **** *
 342:Generated_Source\PSoC4/isr_Capture.c **** * Parameters:
 343:Generated_Source\PSoC4/isr_Capture.c **** *   None
 344:Generated_Source\PSoC4/isr_Capture.c **** *
 345:Generated_Source\PSoC4/isr_Capture.c **** * Return:
 346:Generated_Source\PSoC4/isr_Capture.c **** *   None
 347:Generated_Source\PSoC4/isr_Capture.c **** *
 348:Generated_Source\PSoC4/isr_Capture.c **** *******************************************************************************/
 349:Generated_Source\PSoC4/isr_Capture.c **** void isr_Capture_Disable(void)
 350:Generated_Source\PSoC4/isr_Capture.c **** {
 443              		.loc 1 350 0
 444              		.cfi_startproc
 445              		@ args = 0, pretend = 0, frame = 0
 446              		@ frame_needed = 1, uses_anonymous_args = 0
 447 0000 80B5     		push	{r7, lr}
ARM GAS  C:\Users\ilya\AppData\Local\Temp\ccYKrJKc.s 			page 15


 448              		.cfi_def_cfa_offset 8
 449              		.cfi_offset 7, -8
 450              		.cfi_offset 14, -4
 451 0002 00AF     		add	r7, sp, #0
 452              		.cfi_def_cfa_register 7
 351:Generated_Source\PSoC4/isr_Capture.c ****     /* Disable the general interrupt. */
 352:Generated_Source\PSoC4/isr_Capture.c ****     *isr_Capture_INTC_CLR_EN = isr_Capture__INTC_MASK;
 453              		.loc 1 352 0
 454 0004 034B     		ldr	r3, .L33
 455 0006 8022     		movs	r2, #128
 456 0008 1203     		lsls	r2, r2, #12
 457 000a 1A60     		str	r2, [r3]
 353:Generated_Source\PSoC4/isr_Capture.c **** }
 458              		.loc 1 353 0
 459 000c C046     		nop
 460 000e BD46     		mov	sp, r7
 461              		@ sp needed
 462 0010 80BD     		pop	{r7, pc}
 463              	.L34:
 464 0012 C046     		.align	2
 465              	.L33:
 466 0014 80E100E0 		.word	-536813184
 467              		.cfi_endproc
 468              	.LFE10:
 469              		.size	isr_Capture_Disable, .-isr_Capture_Disable
 470              		.section	.text.isr_Capture_SetPending,"ax",%progbits
 471              		.align	2
 472              		.global	isr_Capture_SetPending
 473              		.code	16
 474              		.thumb_func
 475              		.type	isr_Capture_SetPending, %function
 476              	isr_Capture_SetPending:
 477              	.LFB11:
 354:Generated_Source\PSoC4/isr_Capture.c **** 
 355:Generated_Source\PSoC4/isr_Capture.c **** 
 356:Generated_Source\PSoC4/isr_Capture.c **** /*******************************************************************************
 357:Generated_Source\PSoC4/isr_Capture.c **** * Function Name: isr_Capture_SetPending
 358:Generated_Source\PSoC4/isr_Capture.c **** ********************************************************************************
 359:Generated_Source\PSoC4/isr_Capture.c **** *
 360:Generated_Source\PSoC4/isr_Capture.c **** * Summary:
 361:Generated_Source\PSoC4/isr_Capture.c **** *   Causes the Interrupt to enter the pending state, a software method of
 362:Generated_Source\PSoC4/isr_Capture.c **** *   generating the interrupt.
 363:Generated_Source\PSoC4/isr_Capture.c **** *
 364:Generated_Source\PSoC4/isr_Capture.c **** * Parameters:
 365:Generated_Source\PSoC4/isr_Capture.c **** *   None
 366:Generated_Source\PSoC4/isr_Capture.c **** *
 367:Generated_Source\PSoC4/isr_Capture.c **** * Return:
 368:Generated_Source\PSoC4/isr_Capture.c **** *   None
 369:Generated_Source\PSoC4/isr_Capture.c **** *
 370:Generated_Source\PSoC4/isr_Capture.c **** * Side Effects:
 371:Generated_Source\PSoC4/isr_Capture.c **** *   If interrupts are enabled and the interrupt is set up properly, the ISR is
 372:Generated_Source\PSoC4/isr_Capture.c **** *   entered (depending on the priority of this interrupt and other pending 
 373:Generated_Source\PSoC4/isr_Capture.c **** *   interrupts).
 374:Generated_Source\PSoC4/isr_Capture.c **** *
 375:Generated_Source\PSoC4/isr_Capture.c **** *******************************************************************************/
 376:Generated_Source\PSoC4/isr_Capture.c **** void isr_Capture_SetPending(void)
 377:Generated_Source\PSoC4/isr_Capture.c **** {
ARM GAS  C:\Users\ilya\AppData\Local\Temp\ccYKrJKc.s 			page 16


 478              		.loc 1 377 0
 479              		.cfi_startproc
 480              		@ args = 0, pretend = 0, frame = 0
 481              		@ frame_needed = 1, uses_anonymous_args = 0
 482 0000 80B5     		push	{r7, lr}
 483              		.cfi_def_cfa_offset 8
 484              		.cfi_offset 7, -8
 485              		.cfi_offset 14, -4
 486 0002 00AF     		add	r7, sp, #0
 487              		.cfi_def_cfa_register 7
 378:Generated_Source\PSoC4/isr_Capture.c ****     *isr_Capture_INTC_SET_PD = isr_Capture__INTC_MASK;
 488              		.loc 1 378 0
 489 0004 034B     		ldr	r3, .L36
 490 0006 8022     		movs	r2, #128
 491 0008 1203     		lsls	r2, r2, #12
 492 000a 1A60     		str	r2, [r3]
 379:Generated_Source\PSoC4/isr_Capture.c **** }
 493              		.loc 1 379 0
 494 000c C046     		nop
 495 000e BD46     		mov	sp, r7
 496              		@ sp needed
 497 0010 80BD     		pop	{r7, pc}
 498              	.L37:
 499 0012 C046     		.align	2
 500              	.L36:
 501 0014 00E200E0 		.word	-536813056
 502              		.cfi_endproc
 503              	.LFE11:
 504              		.size	isr_Capture_SetPending, .-isr_Capture_SetPending
 505              		.section	.text.isr_Capture_ClearPending,"ax",%progbits
 506              		.align	2
 507              		.global	isr_Capture_ClearPending
 508              		.code	16
 509              		.thumb_func
 510              		.type	isr_Capture_ClearPending, %function
 511              	isr_Capture_ClearPending:
 512              	.LFB12:
 380:Generated_Source\PSoC4/isr_Capture.c **** 
 381:Generated_Source\PSoC4/isr_Capture.c **** 
 382:Generated_Source\PSoC4/isr_Capture.c **** /*******************************************************************************
 383:Generated_Source\PSoC4/isr_Capture.c **** * Function Name: isr_Capture_ClearPending
 384:Generated_Source\PSoC4/isr_Capture.c **** ********************************************************************************
 385:Generated_Source\PSoC4/isr_Capture.c **** *
 386:Generated_Source\PSoC4/isr_Capture.c **** * Summary:
 387:Generated_Source\PSoC4/isr_Capture.c **** *   Clears a pending interrupt in the interrupt controller.
 388:Generated_Source\PSoC4/isr_Capture.c **** *
 389:Generated_Source\PSoC4/isr_Capture.c **** *   Note Some interrupt sources are clear-on-read and require the block 
 390:Generated_Source\PSoC4/isr_Capture.c **** *   interrupt/status register to be read/cleared with the appropriate block API 
 391:Generated_Source\PSoC4/isr_Capture.c **** *   (GPIO, UART, and so on). Otherwise the ISR will continue to remain in 
 392:Generated_Source\PSoC4/isr_Capture.c **** *   pending state even though the interrupt itself is cleared using this API.
 393:Generated_Source\PSoC4/isr_Capture.c **** *
 394:Generated_Source\PSoC4/isr_Capture.c **** * Parameters:
 395:Generated_Source\PSoC4/isr_Capture.c **** *   None
 396:Generated_Source\PSoC4/isr_Capture.c **** *
 397:Generated_Source\PSoC4/isr_Capture.c **** * Return:
 398:Generated_Source\PSoC4/isr_Capture.c **** *   None
 399:Generated_Source\PSoC4/isr_Capture.c **** *
ARM GAS  C:\Users\ilya\AppData\Local\Temp\ccYKrJKc.s 			page 17


 400:Generated_Source\PSoC4/isr_Capture.c **** *******************************************************************************/
 401:Generated_Source\PSoC4/isr_Capture.c **** void isr_Capture_ClearPending(void)
 402:Generated_Source\PSoC4/isr_Capture.c **** {
 513              		.loc 1 402 0
 514              		.cfi_startproc
 515              		@ args = 0, pretend = 0, frame = 0
 516              		@ frame_needed = 1, uses_anonymous_args = 0
 517 0000 80B5     		push	{r7, lr}
 518              		.cfi_def_cfa_offset 8
 519              		.cfi_offset 7, -8
 520              		.cfi_offset 14, -4
 521 0002 00AF     		add	r7, sp, #0
 522              		.cfi_def_cfa_register 7
 403:Generated_Source\PSoC4/isr_Capture.c ****     *isr_Capture_INTC_CLR_PD = isr_Capture__INTC_MASK;
 523              		.loc 1 403 0
 524 0004 034B     		ldr	r3, .L39
 525 0006 8022     		movs	r2, #128
 526 0008 1203     		lsls	r2, r2, #12
 527 000a 1A60     		str	r2, [r3]
 404:Generated_Source\PSoC4/isr_Capture.c **** }
 528              		.loc 1 404 0
 529 000c C046     		nop
 530 000e BD46     		mov	sp, r7
 531              		@ sp needed
 532 0010 80BD     		pop	{r7, pc}
 533              	.L40:
 534 0012 C046     		.align	2
 535              	.L39:
 536 0014 80E200E0 		.word	-536812928
 537              		.cfi_endproc
 538              	.LFE12:
 539              		.size	isr_Capture_ClearPending, .-isr_Capture_ClearPending
 540              		.text
 541              	.Letext0:
 542              		.file 2 "Generated_Source\\PSoC4/cytypes.h"