ARM GAS  C:\Users\ilya\AppData\Local\Temp\ccOqVFIC.s 			page 1


   1              		.syntax unified
   2              		.cpu cortex-m0
   3              		.fpu softvfp
   4              		.eabi_attribute 20, 1
   5              		.eabi_attribute 21, 1
   6              		.eabi_attribute 23, 3
   7              		.eabi_attribute 24, 1
   8              		.eabi_attribute 25, 1
   9              		.eabi_attribute 26, 1
  10              		.eabi_attribute 30, 1
  11              		.eabi_attribute 34, 0
  12              		.eabi_attribute 18, 4
  13              		.thumb
  14              		.syntax unified
  15              		.file	"SW_I2C_Master_1.c"
  16              		.text
  17              	.Ltext0:
  18              		.cfi_sections	.debug_frame
  19              		.section	.text.SW_I2C_Master_1_WriteBuf,"ax",%progbits
  20              		.align	2
  21              		.global	SW_I2C_Master_1_WriteBuf
  22              		.code	16
  23              		.thumb_func
  24              		.type	SW_I2C_Master_1_WriteBuf, %function
  25              	SW_I2C_Master_1_WriteBuf:
  26              	.LFB0:
  27              		.file 1 "Generated_Source\\PSoC4\\SW_I2C_Master_1.c"
   1:Generated_Source\PSoC4/SW_I2C_Master_1.c **** /* ========================================
   2:Generated_Source\PSoC4/SW_I2C_Master_1.c ****  *
   3:Generated_Source\PSoC4/SW_I2C_Master_1.c ****  * Copyright YOUR COMPANY, THE YEAR
   4:Generated_Source\PSoC4/SW_I2C_Master_1.c ****  * All Rights Reserved
   5:Generated_Source\PSoC4/SW_I2C_Master_1.c ****  * UNPUBLISHED, LICENSED SOFTWARE.
   6:Generated_Source\PSoC4/SW_I2C_Master_1.c ****  *
   7:Generated_Source\PSoC4/SW_I2C_Master_1.c ****  * CONFIDENTIAL AND PROPRIETARY INFORMATION
   8:Generated_Source\PSoC4/SW_I2C_Master_1.c ****  * WHICH IS THE PROPERTY OF your company.
   9:Generated_Source\PSoC4/SW_I2C_Master_1.c ****  *
  10:Generated_Source\PSoC4/SW_I2C_Master_1.c ****  * ========================================
  11:Generated_Source\PSoC4/SW_I2C_Master_1.c **** */
  12:Generated_Source\PSoC4/SW_I2C_Master_1.c **** 
  13:Generated_Source\PSoC4/SW_I2C_Master_1.c **** #include "SW_I2C_Master_1.h"
  14:Generated_Source\PSoC4/SW_I2C_Master_1.c **** #include "CyLib.h"
  15:Generated_Source\PSoC4/SW_I2C_Master_1.c ****   
  16:Generated_Source\PSoC4/SW_I2C_Master_1.c **** static uint32 bitCounter;
  17:Generated_Source\PSoC4/SW_I2C_Master_1.c **** static uint32 byteCounter;
  18:Generated_Source\PSoC4/SW_I2C_Master_1.c **** static uint32 packetSize;
  19:Generated_Source\PSoC4/SW_I2C_Master_1.c **** static uint32 masterStatus;
  20:Generated_Source\PSoC4/SW_I2C_Master_1.c **** static uint32 masterControl;
  21:Generated_Source\PSoC4/SW_I2C_Master_1.c **** static uint32 masterState = SW_I2C_Master_1_STATE_IDLE;
  22:Generated_Source\PSoC4/SW_I2C_Master_1.c **** 
  23:Generated_Source\PSoC4/SW_I2C_Master_1.c **** static uint8 *outBuffer;
  24:Generated_Source\PSoC4/SW_I2C_Master_1.c **** static uint8 *inBuffer;
  25:Generated_Source\PSoC4/SW_I2C_Master_1.c **** static uint8 theByte;
  26:Generated_Source\PSoC4/SW_I2C_Master_1.c **** 
  27:Generated_Source\PSoC4/SW_I2C_Master_1.c **** static uint32 internalAddress;
  28:Generated_Source\PSoC4/SW_I2C_Master_1.c **** 
  29:Generated_Source\PSoC4/SW_I2C_Master_1.c **** /*******************************************************************************
  30:Generated_Source\PSoC4/SW_I2C_Master_1.c **** * Function Name: SW_I2C_Master_1_WriteBuf
ARM GAS  C:\Users\ilya\AppData\Local\Temp\ccOqVFIC.s 			page 2


  31:Generated_Source\PSoC4/SW_I2C_Master_1.c **** ********************************************************************************
  32:Generated_Source\PSoC4/SW_I2C_Master_1.c **** *
  33:Generated_Source\PSoC4/SW_I2C_Master_1.c **** * Summary:
  34:Generated_Source\PSoC4/SW_I2C_Master_1.c **** *  Automatically writes an entire buffer of data to a slave device.
  35:Generated_Source\PSoC4/SW_I2C_Master_1.c **** *  This function is non-blocking. The Process() API should be called periodically
  36:Generated_Source\PSoC4/SW_I2C_Master_1.c **** *  to complete the transmission. If the frame cannot be started, this function
  37:Generated_Source\PSoC4/SW_I2C_Master_1.c **** *  returns an error.
  38:Generated_Source\PSoC4/SW_I2C_Master_1.c **** *
  39:Generated_Source\PSoC4/SW_I2C_Master_1.c **** * Parameters:
  40:Generated_Source\PSoC4/SW_I2C_Master_1.c **** *  slaveAddr: 7-bit slave address.
  41:Generated_Source\PSoC4/SW_I2C_Master_1.c **** *  wrData:    Pointer to buffer of data to be sent.
  42:Generated_Source\PSoC4/SW_I2C_Master_1.c **** *  cnt:       Size of buffer to send.
  43:Generated_Source\PSoC4/SW_I2C_Master_1.c **** *  mode:      Transfer mode defines: start or restart condition generation at
  44:Generated_Source\PSoC4/SW_I2C_Master_1.c **** *             begin of the transfer and complete the transfer or halt before
  45:Generated_Source\PSoC4/SW_I2C_Master_1.c **** *             generating a stop.
  46:Generated_Source\PSoC4/SW_I2C_Master_1.c **** *
  47:Generated_Source\PSoC4/SW_I2C_Master_1.c **** * Return:
  48:Generated_Source\PSoC4/SW_I2C_Master_1.c **** *  - SW_I2C_Master_1_I2C_MSTR_NO_ERROR - Function complete without error. 
  49:Generated_Source\PSoC4/SW_I2C_Master_1.c **** *    The master started the transfer.
  50:Generated_Source\PSoC4/SW_I2C_Master_1.c **** *  - SW_I2C_Master_1_I2C_MSTR_BUS_BUSY - Bus is busy. Nothing was sent on
  51:Generated_Source\PSoC4/SW_I2C_Master_1.c **** *    the bus. The attempt has to be retried.
  52:Generated_Source\PSoC4/SW_I2C_Master_1.c **** *  - SW_I2C_Master_1_I2C_MSTR_NOT_READY - Master is not ready for to start
  53:Generated_Source\PSoC4/SW_I2C_Master_1.c **** *    transfer. A master still has not completed previous transaction or a 
  54:Generated_Source\PSoC4/SW_I2C_Master_1.c **** *    slave operation is in progress (in multi-master-slave configuration).
  55:Generated_Source\PSoC4/SW_I2C_Master_1.c **** *    Nothing was sent on the bus. The attempt has to be retried.
  56:Generated_Source\PSoC4/SW_I2C_Master_1.c **** *******************************************************************************/
  57:Generated_Source\PSoC4/SW_I2C_Master_1.c **** uint32 SW_I2C_Master_1_WriteBuf(uint32 slaveAddress, uint8 * wrData, uint32 cnt, uint32 mode)
  58:Generated_Source\PSoC4/SW_I2C_Master_1.c **** {
  28              		.loc 1 58 0
  29              		.cfi_startproc
  30              		@ args = 0, pretend = 0, frame = 0
  31              		@ frame_needed = 0, uses_anonymous_args = 0
  32              	.LVL0:
  33 0000 10B5     		push	{r4, lr}
  34              		.cfi_def_cfa_offset 8
  35              		.cfi_offset 4, -8
  36              		.cfi_offset 14, -4
  37              	.LVL1:
  59:Generated_Source\PSoC4/SW_I2C_Master_1.c ****     uint32 ret = SW_I2C_Master_1_MSTR_NO_ERROR;
  60:Generated_Source\PSoC4/SW_I2C_Master_1.c ****     
  61:Generated_Source\PSoC4/SW_I2C_Master_1.c ****     /* Only process the command if the bus is not busy */
  62:Generated_Source\PSoC4/SW_I2C_Master_1.c ****     if ((masterStatus & SW_I2C_Master_1_MSTAT_XFER_INP) == 0)
  38              		.loc 1 62 0
  39 0002 104C     		ldr	r4, .L6
  40 0004 2468     		ldr	r4, [r4]
  41 0006 6407     		lsls	r4, r4, #29
  42 0008 15D4     		bmi	.L3
  63:Generated_Source\PSoC4/SW_I2C_Master_1.c ****     {
  64:Generated_Source\PSoC4/SW_I2C_Master_1.c ****         /* Check if SDA and SCL are HIGH */
  65:Generated_Source\PSoC4/SW_I2C_Master_1.c ****         if (GetSDA && GetSCL)
  43              		.loc 1 65 0
  44 000a 0F4C     		ldr	r4, .L6+4
  45 000c 2468     		ldr	r4, [r4]
  46 000e E406     		lsls	r4, r4, #27
  47 0010 13D5     		bpl	.L4
  48              		.loc 1 65 0 is_stmt 0 discriminator 1
  49 0012 0D4C     		ldr	r4, .L6+4
ARM GAS  C:\Users\ilya\AppData\Local\Temp\ccOqVFIC.s 			page 3


  50 0014 2468     		ldr	r4, [r4]
  51 0016 2407     		lsls	r4, r4, #28
  52 0018 11D5     		bpl	.L5
  66:Generated_Source\PSoC4/SW_I2C_Master_1.c ****         {
  67:Generated_Source\PSoC4/SW_I2C_Master_1.c ****             /* Set the control to start a frame based on the mode */
  68:Generated_Source\PSoC4/SW_I2C_Master_1.c ****             masterControl = mode | SW_I2C_Master_1_WRITE_FRAME;
  53              		.loc 1 68 0 is_stmt 1
  54 001a 0424     		movs	r4, #4
  55 001c 2343     		orrs	r3, r4
  56              	.LVL2:
  57 001e 094C     		ldr	r4, .L6
  58 0020 6360     		str	r3, [r4, #4]
  69:Generated_Source\PSoC4/SW_I2C_Master_1.c ****             
  70:Generated_Source\PSoC4/SW_I2C_Master_1.c ****             /* Set the number of bytes to be sent */
  71:Generated_Source\PSoC4/SW_I2C_Master_1.c ****             packetSize = cnt;
  59              		.loc 1 71 0
  60 0022 A260     		str	r2, [r4, #8]
  72:Generated_Source\PSoC4/SW_I2C_Master_1.c ****             
  73:Generated_Source\PSoC4/SW_I2C_Master_1.c ****             /* Reset the internal counters */
  74:Generated_Source\PSoC4/SW_I2C_Master_1.c ****             bitCounter = 0;
  61              		.loc 1 74 0
  62 0024 0023     		movs	r3, #0
  63 0026 E360     		str	r3, [r4, #12]
  75:Generated_Source\PSoC4/SW_I2C_Master_1.c ****             byteCounter = 0;
  64              		.loc 1 75 0
  65 0028 2361     		str	r3, [r4, #16]
  76:Generated_Source\PSoC4/SW_I2C_Master_1.c ****                         
  77:Generated_Source\PSoC4/SW_I2C_Master_1.c ****             /* Set the pointer to the correct buffer */
  78:Generated_Source\PSoC4/SW_I2C_Master_1.c ****             outBuffer = wrData;
  66              		.loc 1 78 0
  67 002a 6161     		str	r1, [r4, #20]
  79:Generated_Source\PSoC4/SW_I2C_Master_1.c ****             
  80:Generated_Source\PSoC4/SW_I2C_Master_1.c ****             /* Store the I2C slave address as 8-bit + read/write bit */
  81:Generated_Source\PSoC4/SW_I2C_Master_1.c ****             internalAddress = (slaveAddress << 1);      
  68              		.loc 1 81 0
  69 002c 4000     		lsls	r0, r0, #1
  70              	.LVL3:
  71 002e A061     		str	r0, [r4, #24]
  82:Generated_Source\PSoC4/SW_I2C_Master_1.c ****             
  83:Generated_Source\PSoC4/SW_I2C_Master_1.c ****             /* Clear Master status */
  84:Generated_Source\PSoC4/SW_I2C_Master_1.c ****             masterStatus = 0;
  72              		.loc 1 84 0
  73 0030 2360     		str	r3, [r4]
  59:Generated_Source\PSoC4/SW_I2C_Master_1.c ****     
  74              		.loc 1 59 0
  75 0032 0020     		movs	r0, #0
  76              		.loc 1 84 0
  77 0034 04E0     		b	.L2
  78              	.LVL4:
  79              	.L3:
  85:Generated_Source\PSoC4/SW_I2C_Master_1.c ****         }
  86:Generated_Source\PSoC4/SW_I2C_Master_1.c ****         else
  87:Generated_Source\PSoC4/SW_I2C_Master_1.c ****         {
  88:Generated_Source\PSoC4/SW_I2C_Master_1.c ****             /* Bus is busy, return error */
  89:Generated_Source\PSoC4/SW_I2C_Master_1.c ****             ret = SW_I2C_Master_1_MSTR_BUS_BUSY;
  90:Generated_Source\PSoC4/SW_I2C_Master_1.c ****         }
  91:Generated_Source\PSoC4/SW_I2C_Master_1.c ****     }
ARM GAS  C:\Users\ilya\AppData\Local\Temp\ccOqVFIC.s 			page 4


  92:Generated_Source\PSoC4/SW_I2C_Master_1.c ****     else
  93:Generated_Source\PSoC4/SW_I2C_Master_1.c ****     {
  94:Generated_Source\PSoC4/SW_I2C_Master_1.c ****         /* Transmission in progress, return error */
  95:Generated_Source\PSoC4/SW_I2C_Master_1.c ****         ret = SW_I2C_Master_1_MSTR_NOT_READY;
  80              		.loc 1 95 0
  81 0036 0420     		movs	r0, #4
  82              	.LVL5:
  83 0038 02E0     		b	.L2
  84              	.LVL6:
  85              	.L4:
  89:Generated_Source\PSoC4/SW_I2C_Master_1.c ****         }
  86              		.loc 1 89 0
  87 003a 0820     		movs	r0, #8
  88              	.LVL7:
  89 003c 00E0     		b	.L2
  90              	.LVL8:
  91              	.L5:
  92 003e 0820     		movs	r0, #8
  93              	.LVL9:
  94              	.L2:
  96:Generated_Source\PSoC4/SW_I2C_Master_1.c ****     }
  97:Generated_Source\PSoC4/SW_I2C_Master_1.c ****     
  98:Generated_Source\PSoC4/SW_I2C_Master_1.c ****     return ret;
  99:Generated_Source\PSoC4/SW_I2C_Master_1.c **** }
  95              		.loc 1 99 0
  96              		@ sp needed
  97 0040 10BD     		pop	{r4, pc}
  98              	.L7:
  99 0042 C046     		.align	2
 100              	.L6:
 101 0044 00000000 		.word	.LANCHOR0
 102 0048 04000440 		.word	1074003972
 103              		.cfi_endproc
 104              	.LFE0:
 105              		.size	SW_I2C_Master_1_WriteBuf, .-SW_I2C_Master_1_WriteBuf
 106              		.section	.text.SW_I2C_Master_1_ReadBuf,"ax",%progbits
 107              		.align	2
 108              		.global	SW_I2C_Master_1_ReadBuf
 109              		.code	16
 110              		.thumb_func
 111              		.type	SW_I2C_Master_1_ReadBuf, %function
 112              	SW_I2C_Master_1_ReadBuf:
 113              	.LFB1:
 100:Generated_Source\PSoC4/SW_I2C_Master_1.c **** 
 101:Generated_Source\PSoC4/SW_I2C_Master_1.c **** /*******************************************************************************
 102:Generated_Source\PSoC4/SW_I2C_Master_1.c **** * Function Name: SW_I2C_Master_1_ReadBuf
 103:Generated_Source\PSoC4/SW_I2C_Master_1.c **** ********************************************************************************
 104:Generated_Source\PSoC4/SW_I2C_Master_1.c **** *
 105:Generated_Source\PSoC4/SW_I2C_Master_1.c **** * Summary:
 106:Generated_Source\PSoC4/SW_I2C_Master_1.c **** *  Automatically reads an entire buffer of data from a slave device.
 107:Generated_Source\PSoC4/SW_I2C_Master_1.c **** *  This function is non-blocking. The Process() API should be called periodically
 108:Generated_Source\PSoC4/SW_I2C_Master_1.c **** *  to complete the transmission. If the frame cannot be started, this function
 109:Generated_Source\PSoC4/SW_I2C_Master_1.c **** *  returns an error.
 110:Generated_Source\PSoC4/SW_I2C_Master_1.c **** *
 111:Generated_Source\PSoC4/SW_I2C_Master_1.c **** * Parameters:
 112:Generated_Source\PSoC4/SW_I2C_Master_1.c **** *  slaveAddr: 7-bit slave address.
 113:Generated_Source\PSoC4/SW_I2C_Master_1.c **** *  rdData:    Pointer to buffer where to put data from slave.
ARM GAS  C:\Users\ilya\AppData\Local\Temp\ccOqVFIC.s 			page 5


 114:Generated_Source\PSoC4/SW_I2C_Master_1.c **** *  cnt:       Size of buffer to read.
 115:Generated_Source\PSoC4/SW_I2C_Master_1.c **** *  mode:      Transfer mode defines: start or restart condition generation at
 116:Generated_Source\PSoC4/SW_I2C_Master_1.c **** *             begin of the transfer and complete the transfer or halt before
 117:Generated_Source\PSoC4/SW_I2C_Master_1.c **** *             generating a stop.
 118:Generated_Source\PSoC4/SW_I2C_Master_1.c **** *
 119:Generated_Source\PSoC4/SW_I2C_Master_1.c **** * Return:
 120:Generated_Source\PSoC4/SW_I2C_Master_1.c **** *  - SW_I2C_Master_1_I2C_MSTR_NO_ERROR - Function complete without error. 
 121:Generated_Source\PSoC4/SW_I2C_Master_1.c **** *    The master started the transfer.
 122:Generated_Source\PSoC4/SW_I2C_Master_1.c **** *  - SW_I2C_Master_1_I2C_MSTR_BUS_BUSY - Bus is busy. Nothing was sent on
 123:Generated_Source\PSoC4/SW_I2C_Master_1.c **** *    the bus. The attempt has to be retried.
 124:Generated_Source\PSoC4/SW_I2C_Master_1.c **** *  - SW_I2C_Master_1_I2C_MSTR_NOT_READY - Master is not ready for to start
 125:Generated_Source\PSoC4/SW_I2C_Master_1.c **** *    transfer. A master still has not completed previous transaction or a 
 126:Generated_Source\PSoC4/SW_I2C_Master_1.c **** *    slave operation is in progress (in multi-master-slave configuration).
 127:Generated_Source\PSoC4/SW_I2C_Master_1.c **** *    Nothing was sent on the bus. The attempt has to be retried.
 128:Generated_Source\PSoC4/SW_I2C_Master_1.c **** *******************************************************************************/
 129:Generated_Source\PSoC4/SW_I2C_Master_1.c **** uint32 SW_I2C_Master_1_ReadBuf(uint32 slaveAddress, uint8 * rdData, uint32 cnt, uint32 mode)
 130:Generated_Source\PSoC4/SW_I2C_Master_1.c **** {
 114              		.loc 1 130 0
 115              		.cfi_startproc
 116              		@ args = 0, pretend = 0, frame = 0
 117              		@ frame_needed = 0, uses_anonymous_args = 0
 118              	.LVL10:
 119 0000 10B5     		push	{r4, lr}
 120              		.cfi_def_cfa_offset 8
 121              		.cfi_offset 4, -8
 122              		.cfi_offset 14, -4
 123              	.LVL11:
 131:Generated_Source\PSoC4/SW_I2C_Master_1.c ****     uint32 ret = SW_I2C_Master_1_MSTR_NO_ERROR;
 132:Generated_Source\PSoC4/SW_I2C_Master_1.c ****     
 133:Generated_Source\PSoC4/SW_I2C_Master_1.c ****     /* Only process the command if the bus is not busy */
 134:Generated_Source\PSoC4/SW_I2C_Master_1.c ****     if ((masterStatus & SW_I2C_Master_1_MSTAT_XFER_INP) == 0)
 124              		.loc 1 134 0
 125 0002 114C     		ldr	r4, .L13
 126 0004 2468     		ldr	r4, [r4]
 127 0006 6407     		lsls	r4, r4, #29
 128 0008 17D4     		bmi	.L10
 135:Generated_Source\PSoC4/SW_I2C_Master_1.c ****     {
 136:Generated_Source\PSoC4/SW_I2C_Master_1.c ****         /* Check if SDA and SCL are HIGH */
 137:Generated_Source\PSoC4/SW_I2C_Master_1.c ****         if (GetSDA && GetSCL)
 129              		.loc 1 137 0
 130 000a 104C     		ldr	r4, .L13+4
 131 000c 2468     		ldr	r4, [r4]
 132 000e E406     		lsls	r4, r4, #27
 133 0010 15D5     		bpl	.L11
 134              		.loc 1 137 0 is_stmt 0 discriminator 1
 135 0012 0E4C     		ldr	r4, .L13+4
 136 0014 2468     		ldr	r4, [r4]
 137 0016 2407     		lsls	r4, r4, #28
 138 0018 13D5     		bpl	.L12
 138:Generated_Source\PSoC4/SW_I2C_Master_1.c ****         {
 139:Generated_Source\PSoC4/SW_I2C_Master_1.c ****             /* Set the control to start a frame based on the mode */
 140:Generated_Source\PSoC4/SW_I2C_Master_1.c ****             masterControl = mode | SW_I2C_Master_1_READ_FRAME;
 139              		.loc 1 140 0 is_stmt 1
 140 001a 0824     		movs	r4, #8
 141 001c 2343     		orrs	r3, r4
 142              	.LVL12:
 143 001e 0A4C     		ldr	r4, .L13
ARM GAS  C:\Users\ilya\AppData\Local\Temp\ccOqVFIC.s 			page 6


 144 0020 6360     		str	r3, [r4, #4]
 141:Generated_Source\PSoC4/SW_I2C_Master_1.c ****             
 142:Generated_Source\PSoC4/SW_I2C_Master_1.c ****             /* Set the number of bytes to be sent */
 143:Generated_Source\PSoC4/SW_I2C_Master_1.c ****             packetSize = cnt;
 145              		.loc 1 143 0
 146 0022 A260     		str	r2, [r4, #8]
 144:Generated_Source\PSoC4/SW_I2C_Master_1.c ****             
 145:Generated_Source\PSoC4/SW_I2C_Master_1.c ****             /* Reset the internal counters */
 146:Generated_Source\PSoC4/SW_I2C_Master_1.c ****             bitCounter = 0;
 147              		.loc 1 146 0
 148 0024 0023     		movs	r3, #0
 149 0026 E360     		str	r3, [r4, #12]
 147:Generated_Source\PSoC4/SW_I2C_Master_1.c ****             byteCounter = 0;
 150              		.loc 1 147 0
 151 0028 2361     		str	r3, [r4, #16]
 148:Generated_Source\PSoC4/SW_I2C_Master_1.c ****                         
 149:Generated_Source\PSoC4/SW_I2C_Master_1.c ****             /* Set the pointer to the correct buffer */
 150:Generated_Source\PSoC4/SW_I2C_Master_1.c ****             inBuffer = rdData;
 152              		.loc 1 150 0
 153 002a E161     		str	r1, [r4, #28]
 151:Generated_Source\PSoC4/SW_I2C_Master_1.c ****             
 152:Generated_Source\PSoC4/SW_I2C_Master_1.c ****             /* Store the I2C slave address as 8-bit + read/write bit */
 153:Generated_Source\PSoC4/SW_I2C_Master_1.c ****             internalAddress = (slaveAddress << 1) | 0x01;        
 154              		.loc 1 153 0
 155 002c 4000     		lsls	r0, r0, #1
 156              	.LVL13:
 157 002e 0122     		movs	r2, #1
 158              	.LVL14:
 159 0030 1043     		orrs	r0, r2
 160 0032 A061     		str	r0, [r4, #24]
 154:Generated_Source\PSoC4/SW_I2C_Master_1.c ****             
 155:Generated_Source\PSoC4/SW_I2C_Master_1.c ****             /* Clear Master status */
 156:Generated_Source\PSoC4/SW_I2C_Master_1.c ****             masterStatus = 0;
 161              		.loc 1 156 0
 162 0034 2360     		str	r3, [r4]
 131:Generated_Source\PSoC4/SW_I2C_Master_1.c ****     
 163              		.loc 1 131 0
 164 0036 0020     		movs	r0, #0
 165              		.loc 1 156 0
 166 0038 04E0     		b	.L9
 167              	.LVL15:
 168              	.L10:
 157:Generated_Source\PSoC4/SW_I2C_Master_1.c ****         }
 158:Generated_Source\PSoC4/SW_I2C_Master_1.c ****         else
 159:Generated_Source\PSoC4/SW_I2C_Master_1.c ****         {
 160:Generated_Source\PSoC4/SW_I2C_Master_1.c ****             /* Bus is busy, return error */
 161:Generated_Source\PSoC4/SW_I2C_Master_1.c ****             ret = SW_I2C_Master_1_MSTR_BUS_BUSY;
 162:Generated_Source\PSoC4/SW_I2C_Master_1.c ****         }
 163:Generated_Source\PSoC4/SW_I2C_Master_1.c ****     }
 164:Generated_Source\PSoC4/SW_I2C_Master_1.c ****     else
 165:Generated_Source\PSoC4/SW_I2C_Master_1.c ****     {
 166:Generated_Source\PSoC4/SW_I2C_Master_1.c ****         /* Transmission in progress, return error */
 167:Generated_Source\PSoC4/SW_I2C_Master_1.c ****         ret = SW_I2C_Master_1_MSTR_NOT_READY;
 169              		.loc 1 167 0
 170 003a 0420     		movs	r0, #4
 171              	.LVL16:
 172 003c 02E0     		b	.L9
ARM GAS  C:\Users\ilya\AppData\Local\Temp\ccOqVFIC.s 			page 7


 173              	.LVL17:
 174              	.L11:
 161:Generated_Source\PSoC4/SW_I2C_Master_1.c ****         }
 175              		.loc 1 161 0
 176 003e 0820     		movs	r0, #8
 177              	.LVL18:
 178 0040 00E0     		b	.L9
 179              	.LVL19:
 180              	.L12:
 181 0042 0820     		movs	r0, #8
 182              	.LVL20:
 183              	.L9:
 168:Generated_Source\PSoC4/SW_I2C_Master_1.c ****     }
 169:Generated_Source\PSoC4/SW_I2C_Master_1.c ****     
 170:Generated_Source\PSoC4/SW_I2C_Master_1.c ****     return ret;
 171:Generated_Source\PSoC4/SW_I2C_Master_1.c **** }
 184              		.loc 1 171 0
 185              		@ sp needed
 186 0044 10BD     		pop	{r4, pc}
 187              	.L14:
 188 0046 C046     		.align	2
 189              	.L13:
 190 0048 00000000 		.word	.LANCHOR0
 191 004c 04000440 		.word	1074003972
 192              		.cfi_endproc
 193              	.LFE1:
 194              		.size	SW_I2C_Master_1_ReadBuf, .-SW_I2C_Master_1_ReadBuf
 195              		.section	.text.SW_I2C_Master_1_SendStart,"ax",%progbits
 196              		.align	2
 197              		.global	SW_I2C_Master_1_SendStart
 198              		.code	16
 199              		.thumb_func
 200              		.type	SW_I2C_Master_1_SendStart, %function
 201              	SW_I2C_Master_1_SendStart:
 202              	.LFB2:
 172:Generated_Source\PSoC4/SW_I2C_Master_1.c **** 
 173:Generated_Source\PSoC4/SW_I2C_Master_1.c **** /*******************************************************************************
 174:Generated_Source\PSoC4/SW_I2C_Master_1.c **** * Function Name: SW_I2C_Master_1_SendStart
 175:Generated_Source\PSoC4/SW_I2C_Master_1.c **** ********************************************************************************
 176:Generated_Source\PSoC4/SW_I2C_Master_1.c **** *
 177:Generated_Source\PSoC4/SW_I2C_Master_1.c **** * Summary:
 178:Generated_Source\PSoC4/SW_I2C_Master_1.c **** *  Generates Start condition and sends slave address with read/write bit.
 179:Generated_Source\PSoC4/SW_I2C_Master_1.c **** *  This function is blocking and does not return until start condition and
 180:Generated_Source\PSoC4/SW_I2C_Master_1.c **** *  address byte are sent and ACK/NACK response is received or errors occurred.
 181:Generated_Source\PSoC4/SW_I2C_Master_1.c **** *
 182:Generated_Source\PSoC4/SW_I2C_Master_1.c **** * Parameters:
 183:Generated_Source\PSoC4/SW_I2C_Master_1.c **** *  slaveAddress: Right justified 8-bit Slave address with R/W LSB bit
 184:Generated_Source\PSoC4/SW_I2C_Master_1.c **** *
 185:Generated_Source\PSoC4/SW_I2C_Master_1.c **** * Return:
 186:Generated_Source\PSoC4/SW_I2C_Master_1.c **** *  - SW_I2C_Master_1_I2C_MSTR_NO_ERROR - Function complete without error. 
 187:Generated_Source\PSoC4/SW_I2C_Master_1.c **** *    The master started the transfer.
 188:Generated_Source\PSoC4/SW_I2C_Master_1.c **** *  - SW_I2C_Master_1_I2C_MSTR_BUS_BUSY - Bus is busy. Nothing was sent on
 189:Generated_Source\PSoC4/SW_I2C_Master_1.c **** *    the bus. The attempt has to be retried.
 190:Generated_Source\PSoC4/SW_I2C_Master_1.c **** *  - SW_I2C_Master_1_I2C_MSTR_NOT_READY - Master is not ready for to start
 191:Generated_Source\PSoC4/SW_I2C_Master_1.c **** *    transfer. A master still has not completed previous transaction or a 
 192:Generated_Source\PSoC4/SW_I2C_Master_1.c **** *    slave operation is in progress (in multi-master-slave configuration).
 193:Generated_Source\PSoC4/SW_I2C_Master_1.c **** *    Nothing was sent on the bus. The attempt has to be retried.
ARM GAS  C:\Users\ilya\AppData\Local\Temp\ccOqVFIC.s 			page 8


 194:Generated_Source\PSoC4/SW_I2C_Master_1.c **** *******************************************************************************/
 195:Generated_Source\PSoC4/SW_I2C_Master_1.c **** uint32 SW_I2C_Master_1_SendStart(uint32 slaveAddress_RW)
 196:Generated_Source\PSoC4/SW_I2C_Master_1.c **** {
 203              		.loc 1 196 0
 204              		.cfi_startproc
 205              		@ args = 0, pretend = 0, frame = 0
 206              		@ frame_needed = 0, uses_anonymous_args = 0
 207              		@ link register save eliminated.
 208              	.LVL21:
 197:Generated_Source\PSoC4/SW_I2C_Master_1.c ****     uint32 ret;
 198:Generated_Source\PSoC4/SW_I2C_Master_1.c ****     
 199:Generated_Source\PSoC4/SW_I2C_Master_1.c ****     /* Only process the command if the bus is not busy */
 200:Generated_Source\PSoC4/SW_I2C_Master_1.c ****     if ((masterStatus & SW_I2C_Master_1_MSTAT_XFER_INP) == 0)
 209              		.loc 1 200 0
 210 0000 0E4B     		ldr	r3, .L20
 211 0002 1B68     		ldr	r3, [r3]
 212 0004 5B07     		lsls	r3, r3, #29
 213 0006 11D4     		bmi	.L17
 201:Generated_Source\PSoC4/SW_I2C_Master_1.c ****     {
 202:Generated_Source\PSoC4/SW_I2C_Master_1.c ****         /* Check if SDA and SCL are HIGH */
 203:Generated_Source\PSoC4/SW_I2C_Master_1.c ****         if (GetSDA && GetSCL)
 214              		.loc 1 203 0
 215 0008 0D4B     		ldr	r3, .L20+4
 216 000a 1B68     		ldr	r3, [r3]
 217 000c DB06     		lsls	r3, r3, #27
 218 000e 0FD5     		bpl	.L18
 219              		.loc 1 203 0 is_stmt 0 discriminator 1
 220 0010 0B4B     		ldr	r3, .L20+4
 221 0012 1B68     		ldr	r3, [r3]
 222 0014 1B07     		lsls	r3, r3, #28
 223 0016 0DD5     		bpl	.L19
 204:Generated_Source\PSoC4/SW_I2C_Master_1.c ****         {
 205:Generated_Source\PSoC4/SW_I2C_Master_1.c ****             /* Set the control to start a frame based on the mode */
 206:Generated_Source\PSoC4/SW_I2C_Master_1.c ****             masterControl = SW_I2C_Master_1_MODE_NO_STOP | SW_I2C_Master_1_WRITE_FRAME;
 224              		.loc 1 206 0 is_stmt 1
 225 0018 084B     		ldr	r3, .L20
 226 001a 0621     		movs	r1, #6
 227 001c 5960     		str	r1, [r3, #4]
 207:Generated_Source\PSoC4/SW_I2C_Master_1.c ****             
 208:Generated_Source\PSoC4/SW_I2C_Master_1.c ****             /* Set the number of bytes to be sent */
 209:Generated_Source\PSoC4/SW_I2C_Master_1.c ****             packetSize = 0;
 228              		.loc 1 209 0
 229 001e 0021     		movs	r1, #0
 230 0020 9960     		str	r1, [r3, #8]
 210:Generated_Source\PSoC4/SW_I2C_Master_1.c ****             
 211:Generated_Source\PSoC4/SW_I2C_Master_1.c ****             /* Reset the internal counters */
 212:Generated_Source\PSoC4/SW_I2C_Master_1.c ****             bitCounter = 0;
 231              		.loc 1 212 0
 232 0022 D960     		str	r1, [r3, #12]
 213:Generated_Source\PSoC4/SW_I2C_Master_1.c ****             byteCounter = 0;
 233              		.loc 1 213 0
 234 0024 1961     		str	r1, [r3, #16]
 214:Generated_Source\PSoC4/SW_I2C_Master_1.c ****             
 215:Generated_Source\PSoC4/SW_I2C_Master_1.c ****             /* Store the I2C slave address as 8-bit + read/write bit */
 216:Generated_Source\PSoC4/SW_I2C_Master_1.c ****             internalAddress = slaveAddress_RW;     
 235              		.loc 1 216 0
 236 0026 9861     		str	r0, [r3, #24]
ARM GAS  C:\Users\ilya\AppData\Local\Temp\ccOqVFIC.s 			page 9


 217:Generated_Source\PSoC4/SW_I2C_Master_1.c ****             
 218:Generated_Source\PSoC4/SW_I2C_Master_1.c ****             /* Clear Master status */
 219:Generated_Source\PSoC4/SW_I2C_Master_1.c ****             masterStatus = 0;
 237              		.loc 1 219 0
 238 0028 1960     		str	r1, [r3]
 239 002a 04E0     		b	.L16
 240              	.L17:
 220:Generated_Source\PSoC4/SW_I2C_Master_1.c ****         }
 221:Generated_Source\PSoC4/SW_I2C_Master_1.c ****         else
 222:Generated_Source\PSoC4/SW_I2C_Master_1.c ****         {
 223:Generated_Source\PSoC4/SW_I2C_Master_1.c ****             /* Bus is busy, return error */
 224:Generated_Source\PSoC4/SW_I2C_Master_1.c ****             ret = SW_I2C_Master_1_MSTR_BUS_BUSY;
 225:Generated_Source\PSoC4/SW_I2C_Master_1.c ****         }
 226:Generated_Source\PSoC4/SW_I2C_Master_1.c ****     }
 227:Generated_Source\PSoC4/SW_I2C_Master_1.c ****     else
 228:Generated_Source\PSoC4/SW_I2C_Master_1.c ****     {
 229:Generated_Source\PSoC4/SW_I2C_Master_1.c ****         /* Transmission in progress, return error */
 230:Generated_Source\PSoC4/SW_I2C_Master_1.c ****         ret = SW_I2C_Master_1_MSTR_NOT_READY;
 241              		.loc 1 230 0
 242 002c 0422     		movs	r2, #4
 243 002e 02E0     		b	.L16
 244              	.L18:
 224:Generated_Source\PSoC4/SW_I2C_Master_1.c ****         }
 245              		.loc 1 224 0
 246 0030 0822     		movs	r2, #8
 247 0032 00E0     		b	.L16
 248              	.L19:
 249 0034 0822     		movs	r2, #8
 250              	.L16:
 251              	.LVL22:
 231:Generated_Source\PSoC4/SW_I2C_Master_1.c ****     }
 232:Generated_Source\PSoC4/SW_I2C_Master_1.c ****     
 233:Generated_Source\PSoC4/SW_I2C_Master_1.c ****     return ret;
 234:Generated_Source\PSoC4/SW_I2C_Master_1.c **** }
 252              		.loc 1 234 0
 253 0036 1000     		movs	r0, r2
 254              	.LVL23:
 255              		@ sp needed
 256 0038 7047     		bx	lr
 257              	.L21:
 258 003a C046     		.align	2
 259              	.L20:
 260 003c 00000000 		.word	.LANCHOR0
 261 0040 04000440 		.word	1074003972
 262              		.cfi_endproc
 263              	.LFE2:
 264              		.size	SW_I2C_Master_1_SendStart, .-SW_I2C_Master_1_SendStart
 265              		.section	.text.SW_I2C_Master_1_SendStop,"ax",%progbits
 266              		.align	2
 267              		.global	SW_I2C_Master_1_SendStop
 268              		.code	16
 269              		.thumb_func
 270              		.type	SW_I2C_Master_1_SendStop, %function
 271              	SW_I2C_Master_1_SendStop:
 272              	.LFB3:
 235:Generated_Source\PSoC4/SW_I2C_Master_1.c **** 
 236:Generated_Source\PSoC4/SW_I2C_Master_1.c **** /*******************************************************************************
ARM GAS  C:\Users\ilya\AppData\Local\Temp\ccOqVFIC.s 			page 10


 237:Generated_Source\PSoC4/SW_I2C_Master_1.c **** * Function Name: SW_I2C_Master_1_SendStop
 238:Generated_Source\PSoC4/SW_I2C_Master_1.c **** ********************************************************************************
 239:Generated_Source\PSoC4/SW_I2C_Master_1.c **** *
 240:Generated_Source\PSoC4/SW_I2C_Master_1.c **** * Summary:
 241:Generated_Source\PSoC4/SW_I2C_Master_1.c **** *  Generates Stop condition on the bus.
 242:Generated_Source\PSoC4/SW_I2C_Master_1.c **** *  At least one byte has to be read if start or restart condition with read
 243:Generated_Source\PSoC4/SW_I2C_Master_1.c **** *  direction was generated before.
 244:Generated_Source\PSoC4/SW_I2C_Master_1.c **** *  This function is blocking and does not return until a stop condition
 245:Generated_Source\PSoC4/SW_I2C_Master_1.c **** *  is generated or error occurred.
 246:Generated_Source\PSoC4/SW_I2C_Master_1.c **** *
 247:Generated_Source\PSoC4/SW_I2C_Master_1.c **** * Parameters:
 248:Generated_Source\PSoC4/SW_I2C_Master_1.c **** *  None
 249:Generated_Source\PSoC4/SW_I2C_Master_1.c **** *
 250:Generated_Source\PSoC4/SW_I2C_Master_1.c **** * Return:
 251:Generated_Source\PSoC4/SW_I2C_Master_1.c **** *  Error status
 252:Generated_Source\PSoC4/SW_I2C_Master_1.c **** *
 253:Generated_Source\PSoC4/SW_I2C_Master_1.c **** * Side Effects:
 254:Generated_Source\PSoC4/SW_I2C_Master_1.c **** *  A valid Start or ReStart condition shall be generated before calling
 255:Generated_Source\PSoC4/SW_I2C_Master_1.c **** *  this function. 
 256:Generated_Source\PSoC4/SW_I2C_Master_1.c **** *
 257:Generated_Source\PSoC4/SW_I2C_Master_1.c **** *******************************************************************************/
 258:Generated_Source\PSoC4/SW_I2C_Master_1.c **** uint32 SW_I2C_Master_1_SendStop(void)
 259:Generated_Source\PSoC4/SW_I2C_Master_1.c **** {
 273              		.loc 1 259 0
 274              		.cfi_startproc
 275              		@ args = 0, pretend = 0, frame = 0
 276              		@ frame_needed = 0, uses_anonymous_args = 0
 277              		@ link register save eliminated.
 260:Generated_Source\PSoC4/SW_I2C_Master_1.c ****     ClrSCL;
 278              		.loc 1 260 0
 279 0000 064B     		ldr	r3, .L23
 280 0002 1A68     		ldr	r2, [r3]
 281 0004 0821     		movs	r1, #8
 282 0006 8A43     		bics	r2, r1
 283 0008 1A60     		str	r2, [r3]
 261:Generated_Source\PSoC4/SW_I2C_Master_1.c ****     ClrSDA;
 284              		.loc 1 261 0
 285 000a 1A68     		ldr	r2, [r3]
 286 000c 0831     		adds	r1, r1, #8
 287 000e 8A43     		bics	r2, r1
 288 0010 1A60     		str	r2, [r3]
 262:Generated_Source\PSoC4/SW_I2C_Master_1.c **** 
 263:Generated_Source\PSoC4/SW_I2C_Master_1.c ****     masterState = SW_I2C_Master_1_STATE_STOP;
 289              		.loc 1 263 0
 290 0012 0D22     		movs	r2, #13
 291 0014 024B     		ldr	r3, .L23+4
 292 0016 1A62     		str	r2, [r3, #32]
 264:Generated_Source\PSoC4/SW_I2C_Master_1.c ****     
 265:Generated_Source\PSoC4/SW_I2C_Master_1.c ****     return SW_I2C_Master_1_MSTR_NO_ERROR;
 266:Generated_Source\PSoC4/SW_I2C_Master_1.c **** }
 293              		.loc 1 266 0
 294 0018 0020     		movs	r0, #0
 295              		@ sp needed
 296 001a 7047     		bx	lr
 297              	.L24:
 298              		.align	2
 299              	.L23:
ARM GAS  C:\Users\ilya\AppData\Local\Temp\ccOqVFIC.s 			page 11


 300 001c 00000440 		.word	1074003968
 301 0020 00000000 		.word	.LANCHOR0
 302              		.cfi_endproc
 303              	.LFE3:
 304              		.size	SW_I2C_Master_1_SendStop, .-SW_I2C_Master_1_SendStop
 305              		.section	.text.SW_I2C_Master_1_Process,"ax",%progbits
 306              		.align	2
 307              		.global	SW_I2C_Master_1_Process
 308              		.code	16
 309              		.thumb_func
 310              		.type	SW_I2C_Master_1_Process, %function
 311              	SW_I2C_Master_1_Process:
 312              	.LFB4:
 267:Generated_Source\PSoC4/SW_I2C_Master_1.c **** 
 268:Generated_Source\PSoC4/SW_I2C_Master_1.c **** /*******************************************************************************
 269:Generated_Source\PSoC4/SW_I2C_Master_1.c **** * Function Name: SW_I2C_Master_1_Process
 270:Generated_Source\PSoC4/SW_I2C_Master_1.c **** ********************************************************************************
 271:Generated_Source\PSoC4/SW_I2C_Master_1.c **** *
 272:Generated_Source\PSoC4/SW_I2C_Master_1.c **** * Summary:
 273:Generated_Source\PSoC4/SW_I2C_Master_1.c **** *  Process one step of the I2C transmission. This API should be called 
 274:Generated_Source\PSoC4/SW_I2C_Master_1.c **** *  constantly, so the transmission can proceed. It returns the state of the 
 275:Generated_Source\PSoC4/SW_I2C_Master_1.c **** *  transmission.
 276:Generated_Source\PSoC4/SW_I2C_Master_1.c **** *
 277:Generated_Source\PSoC4/SW_I2C_Master_1.c **** * Return:
 278:Generated_Source\PSoC4/SW_I2C_Master_1.c **** *  State of the transmission.
 279:Generated_Source\PSoC4/SW_I2C_Master_1.c **** *  
 280:Generated_Source\PSoC4/SW_I2C_Master_1.c **** *******************************************************************************/
 281:Generated_Source\PSoC4/SW_I2C_Master_1.c **** uint32 SW_I2C_Master_1_Process(void)
 282:Generated_Source\PSoC4/SW_I2C_Master_1.c **** {    
 313              		.loc 1 282 0
 314              		.cfi_startproc
 315              		@ args = 0, pretend = 0, frame = 0
 316              		@ frame_needed = 0, uses_anonymous_args = 0
 317 0000 10B5     		push	{r4, lr}
 318              		.cfi_def_cfa_offset 8
 319              		.cfi_offset 4, -8
 320              		.cfi_offset 14, -4
 283:Generated_Source\PSoC4/SW_I2C_Master_1.c ****     /* Run the I2C state machine */
 284:Generated_Source\PSoC4/SW_I2C_Master_1.c ****     switch (masterState)
 321              		.loc 1 284 0
 322 0002 CB4B     		ldr	r3, .L61
 323 0004 1A6A     		ldr	r2, [r3, #32]
 324 0006 0F2A     		cmp	r2, #15
 325 0008 00D9     		bls	.LCB292
 326 000a A7E1     		b	.L26	@long jump
 327              	.LCB292:
 328 000c 9300     		lsls	r3, r2, #2
 329 000e C94A     		ldr	r2, .L61+4
 330 0010 D358     		ldr	r3, [r2, r3]
 331 0012 9F46     		mov	pc, r3
 332              		.section	.rodata
 333              		.align	2
 334              	.L28:
 335 0000 14000000 		.word	.L27
 336 0004 3C000000 		.word	.L29
 337 0008 8E000000 		.word	.L30
 338 000c A0000000 		.word	.L31
ARM GAS  C:\Users\ilya\AppData\Local\Temp\ccOqVFIC.s 			page 12


 339 0010 FC000000 		.word	.L32
 340 0014 5C030000 		.word	.L26
 341 0018 5C030000 		.word	.L26
 342 001c 0E010000 		.word	.L33
 343 0020 52010000 		.word	.L34
 344 0024 98010000 		.word	.L35
 345 0028 5C030000 		.word	.L26
 346 002c BA010000 		.word	.L36
 347 0030 D0020000 		.word	.L37
 348 0034 E2020000 		.word	.L38
 349 0038 F4020000 		.word	.L39
 350 003c 40030000 		.word	.L40
 351              		.section	.text.SW_I2C_Master_1_Process
 352              	.L27:
 285:Generated_Source\PSoC4/SW_I2C_Master_1.c ****     {
 286:Generated_Source\PSoC4/SW_I2C_Master_1.c ****         case SW_I2C_Master_1_STATE_IDLE:
 287:Generated_Source\PSoC4/SW_I2C_Master_1.c ****             /* Check if a request to send data was received */
 288:Generated_Source\PSoC4/SW_I2C_Master_1.c ****             if (masterControl)
 353              		.loc 1 288 0
 354 0014 C64B     		ldr	r3, .L61
 355 0016 5B68     		ldr	r3, [r3, #4]
 356 0018 002B     		cmp	r3, #0
 357 001a 00D1     		bne	.LCB307
 358 001c 9EE1     		b	.L26	@long jump
 359              	.LCB307:
 289:Generated_Source\PSoC4/SW_I2C_Master_1.c ****             {
 290:Generated_Source\PSoC4/SW_I2C_Master_1.c ****                 /* Drive I2C lines high */
 291:Generated_Source\PSoC4/SW_I2C_Master_1.c ****                 SetSDA;
 360              		.loc 1 291 0
 361 001e C64B     		ldr	r3, .L61+8
 362 0020 1968     		ldr	r1, [r3]
 363 0022 1022     		movs	r2, #16
 364 0024 0A43     		orrs	r2, r1
 365 0026 1A60     		str	r2, [r3]
 292:Generated_Source\PSoC4/SW_I2C_Master_1.c ****                 SetSCL;
 366              		.loc 1 292 0
 367 0028 1968     		ldr	r1, [r3]
 368 002a 0822     		movs	r2, #8
 369 002c 0A43     		orrs	r2, r1
 370 002e 1A60     		str	r2, [r3]
 293:Generated_Source\PSoC4/SW_I2C_Master_1.c ****                                                 
 294:Generated_Source\PSoC4/SW_I2C_Master_1.c ****                 /* Update the status */
 295:Generated_Source\PSoC4/SW_I2C_Master_1.c ****                 masterStatus = SW_I2C_Master_1_MSTAT_XFER_INP;
 371              		.loc 1 295 0
 372 0030 BF4B     		ldr	r3, .L61
 373 0032 0422     		movs	r2, #4
 374 0034 1A60     		str	r2, [r3]
 296:Generated_Source\PSoC4/SW_I2C_Master_1.c ****                 
 297:Generated_Source\PSoC4/SW_I2C_Master_1.c ****                 /* Move to the next state */
 298:Generated_Source\PSoC4/SW_I2C_Master_1.c ****                 masterState = SW_I2C_Master_1_STATE_START;
 375              		.loc 1 298 0
 376 0036 033A     		subs	r2, r2, #3
 377 0038 1A62     		str	r2, [r3, #32]
 378 003a 8FE1     		b	.L26
 379              	.L29:
 299:Generated_Source\PSoC4/SW_I2C_Master_1.c ****             }
 300:Generated_Source\PSoC4/SW_I2C_Master_1.c **** 
ARM GAS  C:\Users\ilya\AppData\Local\Temp\ccOqVFIC.s 			page 13


 301:Generated_Source\PSoC4/SW_I2C_Master_1.c ****             break;
 302:Generated_Source\PSoC4/SW_I2C_Master_1.c ****             
 303:Generated_Source\PSoC4/SW_I2C_Master_1.c ****         case SW_I2C_Master_1_STATE_START:
 304:Generated_Source\PSoC4/SW_I2C_Master_1.c ****             /* Check if the I2C bus is busy */
 305:Generated_Source\PSoC4/SW_I2C_Master_1.c ****             if ((GetSDA) && (GetSCL))
 380              		.loc 1 305 0
 381 003c BF4B     		ldr	r3, .L61+12
 382 003e 1B68     		ldr	r3, [r3]
 383 0040 DB06     		lsls	r3, r3, #27
 384 0042 0CD5     		bpl	.L41
 385              		.loc 1 305 0 is_stmt 0 discriminator 1
 386 0044 BD4B     		ldr	r3, .L61+12
 387 0046 1B68     		ldr	r3, [r3]
 388 0048 1B07     		lsls	r3, r3, #28
 389 004a 08D5     		bpl	.L41
 306:Generated_Source\PSoC4/SW_I2C_Master_1.c ****             {
 307:Generated_Source\PSoC4/SW_I2C_Master_1.c ****                 /* Start bit. Drive Data Line Low */
 308:Generated_Source\PSoC4/SW_I2C_Master_1.c ****                 ClrSDA;
 390              		.loc 1 308 0 is_stmt 1
 391 004c BA4A     		ldr	r2, .L61+8
 392 004e 1368     		ldr	r3, [r2]
 393 0050 1021     		movs	r1, #16
 394 0052 8B43     		bics	r3, r1
 395 0054 1360     		str	r3, [r2]
 309:Generated_Source\PSoC4/SW_I2C_Master_1.c ****                 
 310:Generated_Source\PSoC4/SW_I2C_Master_1.c ****                 /* Move to the next state */
 311:Generated_Source\PSoC4/SW_I2C_Master_1.c ****                 masterState = SW_I2C_Master_1_STATE_START_CLK;
 396              		.loc 1 311 0
 397 0056 0222     		movs	r2, #2
 398 0058 B54B     		ldr	r3, .L61
 399 005a 1A62     		str	r2, [r3, #32]
 400 005c 7EE1     		b	.L26
 401              	.L41:
 312:Generated_Source\PSoC4/SW_I2C_Master_1.c ****             }
 313:Generated_Source\PSoC4/SW_I2C_Master_1.c ****             else
 314:Generated_Source\PSoC4/SW_I2C_Master_1.c ****             {
 315:Generated_Source\PSoC4/SW_I2C_Master_1.c ****                 /* Bus is busy, finish the transmission */
 316:Generated_Source\PSoC4/SW_I2C_Master_1.c ****                 if (masterControl & SW_I2C_Master_1_WRITE_FRAME)
 402              		.loc 1 316 0
 403 005e B44B     		ldr	r3, .L61
 404 0060 5B68     		ldr	r3, [r3, #4]
 405 0062 5B07     		lsls	r3, r3, #29
 406 0064 03D5     		bpl	.L42
 317:Generated_Source\PSoC4/SW_I2C_Master_1.c ****                 {
 318:Generated_Source\PSoC4/SW_I2C_Master_1.c ****                     masterStatus = SW_I2C_Master_1_MSTAT_WR_CMPLT;
 407              		.loc 1 318 0
 408 0066 0222     		movs	r2, #2
 409 0068 B14B     		ldr	r3, .L61
 410 006a 1A60     		str	r2, [r3]
 411 006c 02E0     		b	.L43
 412              	.L42:
 319:Generated_Source\PSoC4/SW_I2C_Master_1.c ****                 }
 320:Generated_Source\PSoC4/SW_I2C_Master_1.c ****                 else
 321:Generated_Source\PSoC4/SW_I2C_Master_1.c ****                 {
 322:Generated_Source\PSoC4/SW_I2C_Master_1.c ****                     masterStatus = SW_I2C_Master_1_MSTAT_RD_CMPLT;
 413              		.loc 1 322 0
 414 006e 0122     		movs	r2, #1
ARM GAS  C:\Users\ilya\AppData\Local\Temp\ccOqVFIC.s 			page 14


 415 0070 AF4B     		ldr	r3, .L61
 416 0072 1A60     		str	r2, [r3]
 417              	.L43:
 323:Generated_Source\PSoC4/SW_I2C_Master_1.c ****                 }
 324:Generated_Source\PSoC4/SW_I2C_Master_1.c ****                 
 325:Generated_Source\PSoC4/SW_I2C_Master_1.c ****                 /* Clear busy bit */
 326:Generated_Source\PSoC4/SW_I2C_Master_1.c ****                 masterStatus &= ~(SW_I2C_Master_1_MSTAT_XFER_INP);
 418              		.loc 1 326 0
 419 0074 AE4A     		ldr	r2, .L61
 420 0076 0423     		movs	r3, #4
 421 0078 1168     		ldr	r1, [r2]
 422 007a 9943     		bics	r1, r3
 423 007c 0B00     		movs	r3, r1
 327:Generated_Source\PSoC4/SW_I2C_Master_1.c ****                 
 328:Generated_Source\PSoC4/SW_I2C_Master_1.c ****                 masterStatus |= SW_I2C_Master_1_MSTAT_ERR_BUS_ERROR;
 424              		.loc 1 328 0
 425 007e 8021     		movs	r1, #128
 426 0080 4900     		lsls	r1, r1, #1
 427 0082 0B43     		orrs	r3, r1
 428 0084 1360     		str	r3, [r2]
 329:Generated_Source\PSoC4/SW_I2C_Master_1.c ****                 
 330:Generated_Source\PSoC4/SW_I2C_Master_1.c ****                 /* Clear master control */
 331:Generated_Source\PSoC4/SW_I2C_Master_1.c ****                 masterControl = 0;
 429              		.loc 1 331 0
 430 0086 0023     		movs	r3, #0
 431 0088 5360     		str	r3, [r2, #4]
 332:Generated_Source\PSoC4/SW_I2C_Master_1.c ****                 
 333:Generated_Source\PSoC4/SW_I2C_Master_1.c ****                 /* Go to IDLE state */
 334:Generated_Source\PSoC4/SW_I2C_Master_1.c ****                 masterState = SW_I2C_Master_1_STATE_IDLE;
 432              		.loc 1 334 0
 433 008a 1362     		str	r3, [r2, #32]
 434 008c 66E1     		b	.L26
 435              	.L30:
 335:Generated_Source\PSoC4/SW_I2C_Master_1.c ****             }
 336:Generated_Source\PSoC4/SW_I2C_Master_1.c ****             break;
 337:Generated_Source\PSoC4/SW_I2C_Master_1.c ****             
 338:Generated_Source\PSoC4/SW_I2C_Master_1.c ****         case SW_I2C_Master_1_STATE_START_CLK:
 339:Generated_Source\PSoC4/SW_I2C_Master_1.c ****             /* Start bit. Drive Clock Line low */
 340:Generated_Source\PSoC4/SW_I2C_Master_1.c ****             ClrSCL;
 436              		.loc 1 340 0
 437 008e AA4A     		ldr	r2, .L61+8
 438 0090 1368     		ldr	r3, [r2]
 439 0092 0821     		movs	r1, #8
 440 0094 8B43     		bics	r3, r1
 441 0096 1360     		str	r3, [r2]
 341:Generated_Source\PSoC4/SW_I2C_Master_1.c ****             
 342:Generated_Source\PSoC4/SW_I2C_Master_1.c ****             /* Move to the next state */
 343:Generated_Source\PSoC4/SW_I2C_Master_1.c ****             masterState = SW_I2C_Master_1_STATE_ADDRESS;
 442              		.loc 1 343 0
 443 0098 0322     		movs	r2, #3
 444 009a A54B     		ldr	r3, .L61
 445 009c 1A62     		str	r2, [r3, #32]
 344:Generated_Source\PSoC4/SW_I2C_Master_1.c ****             break;
 446              		.loc 1 344 0
 447 009e 5DE1     		b	.L26
 448              	.L31:
 345:Generated_Source\PSoC4/SW_I2C_Master_1.c ****             
ARM GAS  C:\Users\ilya\AppData\Local\Temp\ccOqVFIC.s 			page 15


 346:Generated_Source\PSoC4/SW_I2C_Master_1.c ****         case SW_I2C_Master_1_STATE_ADDRESS:
 347:Generated_Source\PSoC4/SW_I2C_Master_1.c ****             if (bitCounter < 8)
 449              		.loc 1 347 0
 450 00a0 A34B     		ldr	r3, .L61
 451 00a2 DB68     		ldr	r3, [r3, #12]
 452 00a4 072B     		cmp	r3, #7
 453 00a6 1DD8     		bhi	.L44
 348:Generated_Source\PSoC4/SW_I2C_Master_1.c ****             {
 349:Generated_Source\PSoC4/SW_I2C_Master_1.c ****                 /* Process the slave addresses bits */
 350:Generated_Source\PSoC4/SW_I2C_Master_1.c ****                 if (internalAddress & 0x80)
 454              		.loc 1 350 0
 455 00a8 A14B     		ldr	r3, .L61
 456 00aa 9B69     		ldr	r3, [r3, #24]
 457 00ac 1B06     		lsls	r3, r3, #24
 458 00ae 05D5     		bpl	.L45
 351:Generated_Source\PSoC4/SW_I2C_Master_1.c ****                 {
 352:Generated_Source\PSoC4/SW_I2C_Master_1.c ****                     SetSDA;
 459              		.loc 1 352 0
 460 00b0 A14A     		ldr	r2, .L61+8
 461 00b2 1168     		ldr	r1, [r2]
 462 00b4 1023     		movs	r3, #16
 463 00b6 0B43     		orrs	r3, r1
 464 00b8 1360     		str	r3, [r2]
 465 00ba 04E0     		b	.L46
 466              	.L45:
 353:Generated_Source\PSoC4/SW_I2C_Master_1.c ****                 }
 354:Generated_Source\PSoC4/SW_I2C_Master_1.c ****                 else
 355:Generated_Source\PSoC4/SW_I2C_Master_1.c ****                 {
 356:Generated_Source\PSoC4/SW_I2C_Master_1.c ****                     ClrSDA;
 467              		.loc 1 356 0
 468 00bc 9E4A     		ldr	r2, .L61+8
 469 00be 1368     		ldr	r3, [r2]
 470 00c0 1021     		movs	r1, #16
 471 00c2 8B43     		bics	r3, r1
 472 00c4 1360     		str	r3, [r2]
 473              	.L46:
 357:Generated_Source\PSoC4/SW_I2C_Master_1.c ****                 }
 358:Generated_Source\PSoC4/SW_I2C_Master_1.c ****                 /* Shift the address to prepare next bit */
 359:Generated_Source\PSoC4/SW_I2C_Master_1.c ****                 internalAddress <<= 1;
 474              		.loc 1 359 0
 475 00c6 9A4B     		ldr	r3, .L61
 476 00c8 9A69     		ldr	r2, [r3, #24]
 477 00ca 5200     		lsls	r2, r2, #1
 478 00cc 9A61     		str	r2, [r3, #24]
 360:Generated_Source\PSoC4/SW_I2C_Master_1.c ****                 
 361:Generated_Source\PSoC4/SW_I2C_Master_1.c ****                 /* Clock SCL */
 362:Generated_Source\PSoC4/SW_I2C_Master_1.c ****                 SetSCL;
 479              		.loc 1 362 0
 480 00ce 9A49     		ldr	r1, .L61+8
 481 00d0 0868     		ldr	r0, [r1]
 482 00d2 0822     		movs	r2, #8
 483 00d4 0243     		orrs	r2, r0
 484 00d6 0A60     		str	r2, [r1]
 363:Generated_Source\PSoC4/SW_I2C_Master_1.c ****                 
 364:Generated_Source\PSoC4/SW_I2C_Master_1.c ****                 /* Increment bit counter */
 365:Generated_Source\PSoC4/SW_I2C_Master_1.c ****                 bitCounter++;
 485              		.loc 1 365 0
ARM GAS  C:\Users\ilya\AppData\Local\Temp\ccOqVFIC.s 			page 16


 486 00d8 DA68     		ldr	r2, [r3, #12]
 487 00da 0132     		adds	r2, r2, #1
 488 00dc DA60     		str	r2, [r3, #12]
 366:Generated_Source\PSoC4/SW_I2C_Master_1.c ****                 
 367:Generated_Source\PSoC4/SW_I2C_Master_1.c ****                 /* Move the next state */
 368:Generated_Source\PSoC4/SW_I2C_Master_1.c ****                 masterState = SW_I2C_Master_1_STATE_ADDRESS_CLK;
 489              		.loc 1 368 0
 490 00de 0422     		movs	r2, #4
 491 00e0 1A62     		str	r2, [r3, #32]
 492 00e2 3BE1     		b	.L26
 493              	.L44:
 369:Generated_Source\PSoC4/SW_I2C_Master_1.c ****             }
 370:Generated_Source\PSoC4/SW_I2C_Master_1.c ****             else
 371:Generated_Source\PSoC4/SW_I2C_Master_1.c ****             {
 372:Generated_Source\PSoC4/SW_I2C_Master_1.c ****                 /* Set SDA high to check if NAK */
 373:Generated_Source\PSoC4/SW_I2C_Master_1.c ****                 SetSDA;
 494              		.loc 1 373 0
 495 00e4 9449     		ldr	r1, .L61+8
 496 00e6 0A68     		ldr	r2, [r1]
 497 00e8 1023     		movs	r3, #16
 498 00ea 1A43     		orrs	r2, r3
 499 00ec 0A60     		str	r2, [r1]
 374:Generated_Source\PSoC4/SW_I2C_Master_1.c ****                 
 375:Generated_Source\PSoC4/SW_I2C_Master_1.c ****                 /* Set Initial address ack bit */
 376:Generated_Source\PSoC4/SW_I2C_Master_1.c ****                 masterControl |= SW_I2C_Master_1_INITIAL_ADDR_ACK;
 500              		.loc 1 376 0
 501 00ee 904A     		ldr	r2, .L61
 502 00f0 5168     		ldr	r1, [r2, #4]
 503 00f2 0B43     		orrs	r3, r1
 504 00f4 5360     		str	r3, [r2, #4]
 377:Generated_Source\PSoC4/SW_I2C_Master_1.c ****                 
 378:Generated_Source\PSoC4/SW_I2C_Master_1.c ****                 /* Move to the next state */
 379:Generated_Source\PSoC4/SW_I2C_Master_1.c ****                 masterState = SW_I2C_Master_1_STATE_ACK;
 505              		.loc 1 379 0
 506 00f6 0723     		movs	r3, #7
 507 00f8 1362     		str	r3, [r2, #32]
 508 00fa 2FE1     		b	.L26
 509              	.L32:
 380:Generated_Source\PSoC4/SW_I2C_Master_1.c ****             }
 381:Generated_Source\PSoC4/SW_I2C_Master_1.c ****             break;
 382:Generated_Source\PSoC4/SW_I2C_Master_1.c ****              
 383:Generated_Source\PSoC4/SW_I2C_Master_1.c ****         case SW_I2C_Master_1_STATE_ADDRESS_CLK:
 384:Generated_Source\PSoC4/SW_I2C_Master_1.c ****             /* Drives clock Low */
 385:Generated_Source\PSoC4/SW_I2C_Master_1.c ****             ClrSCL;
 510              		.loc 1 385 0
 511 00fc 8E4A     		ldr	r2, .L61+8
 512 00fe 1368     		ldr	r3, [r2]
 513 0100 0821     		movs	r1, #8
 514 0102 8B43     		bics	r3, r1
 515 0104 1360     		str	r3, [r2]
 386:Generated_Source\PSoC4/SW_I2C_Master_1.c ****             
 387:Generated_Source\PSoC4/SW_I2C_Master_1.c ****             /* Go back to the previous address */
 388:Generated_Source\PSoC4/SW_I2C_Master_1.c ****             masterState = SW_I2C_Master_1_STATE_ADDRESS;
 516              		.loc 1 388 0
 517 0106 0322     		movs	r2, #3
 518 0108 894B     		ldr	r3, .L61
 519 010a 1A62     		str	r2, [r3, #32]
ARM GAS  C:\Users\ilya\AppData\Local\Temp\ccOqVFIC.s 			page 17


 389:Generated_Source\PSoC4/SW_I2C_Master_1.c ****             break;
 520              		.loc 1 389 0
 521 010c 26E1     		b	.L26
 522              	.L33:
 390:Generated_Source\PSoC4/SW_I2C_Master_1.c ****             
 391:Generated_Source\PSoC4/SW_I2C_Master_1.c ****         case SW_I2C_Master_1_STATE_ACK:
 392:Generated_Source\PSoC4/SW_I2C_Master_1.c ****             /* Set CLK high */
 393:Generated_Source\PSoC4/SW_I2C_Master_1.c ****             SetSCL;
 523              		.loc 1 393 0
 524 010e 8A4A     		ldr	r2, .L61+8
 525 0110 1168     		ldr	r1, [r2]
 526 0112 0823     		movs	r3, #8
 527 0114 0B43     		orrs	r3, r1
 528 0116 1360     		str	r3, [r2]
 394:Generated_Source\PSoC4/SW_I2C_Master_1.c ****             
 395:Generated_Source\PSoC4/SW_I2C_Master_1.c ****             /* Check if it is a write command */
 396:Generated_Source\PSoC4/SW_I2C_Master_1.c ****             if ((masterControl & SW_I2C_Master_1_WRITE_FRAME) ||
 529              		.loc 1 396 0
 530 0118 854B     		ldr	r3, .L61
 531 011a 5B68     		ldr	r3, [r3, #4]
 532 011c 1422     		movs	r2, #20
 533 011e 1A42     		tst	r2, r3
 534 0120 13D0     		beq	.L47
 397:Generated_Source\PSoC4/SW_I2C_Master_1.c ****                  masterControl & SW_I2C_Master_1_INITIAL_ADDR_ACK)
 398:Generated_Source\PSoC4/SW_I2C_Master_1.c ****             {                           
 399:Generated_Source\PSoC4/SW_I2C_Master_1.c ****                 /* Check if slave is stretching the clock */
 400:Generated_Source\PSoC4/SW_I2C_Master_1.c ****                 if (GetSCL == 0)
 535              		.loc 1 400 0
 536 0122 864A     		ldr	r2, .L61+12
 537 0124 1268     		ldr	r2, [r2]
 538 0126 1207     		lsls	r2, r2, #28
 539 0128 00D4     		bmi	.LCB487
 540 012a 17E1     		b	.L26	@long jump
 541              	.LCB487:
 401:Generated_Source\PSoC4/SW_I2C_Master_1.c ****                 {
 402:Generated_Source\PSoC4/SW_I2C_Master_1.c ****                     /* Stay here, slave is stretching the clock */
 403:Generated_Source\PSoC4/SW_I2C_Master_1.c ****                 }
 404:Generated_Source\PSoC4/SW_I2C_Master_1.c ****                 else
 405:Generated_Source\PSoC4/SW_I2C_Master_1.c ****                 {
 406:Generated_Source\PSoC4/SW_I2C_Master_1.c ****                     /* Clear initial address ack bit */
 407:Generated_Source\PSoC4/SW_I2C_Master_1.c ****                     masterControl &= ~(SW_I2C_Master_1_INITIAL_ADDR_ACK);
 542              		.loc 1 407 0
 543 012c 1022     		movs	r2, #16
 544 012e 9343     		bics	r3, r2
 545 0130 7F49     		ldr	r1, .L61
 546 0132 4B60     		str	r3, [r1, #4]
 408:Generated_Source\PSoC4/SW_I2C_Master_1.c ****                     
 409:Generated_Source\PSoC4/SW_I2C_Master_1.c ****                     /* Check if slave acked */
 410:Generated_Source\PSoC4/SW_I2C_Master_1.c ****                     if (GetSDA)
 547              		.loc 1 410 0
 548 0134 814B     		ldr	r3, .L61+12
 549 0136 1B68     		ldr	r3, [r3]
 550 0138 1A42     		tst	r2, r3
 551 013a 02D0     		beq	.L48
 411:Generated_Source\PSoC4/SW_I2C_Master_1.c ****                     {
 412:Generated_Source\PSoC4/SW_I2C_Master_1.c ****                         /* Slave didn't ACK, go to the NACK state */
 413:Generated_Source\PSoC4/SW_I2C_Master_1.c ****                         masterState = SW_I2C_Master_1_STATE_NACK;
ARM GAS  C:\Users\ilya\AppData\Local\Temp\ccOqVFIC.s 			page 18


 552              		.loc 1 413 0
 553 013c 073A     		subs	r2, r2, #7
 554 013e 0A62     		str	r2, [r1, #32]
 555 0140 0CE1     		b	.L26
 556              	.L48:
 414:Generated_Source\PSoC4/SW_I2C_Master_1.c ****                     }
 415:Generated_Source\PSoC4/SW_I2C_Master_1.c ****                     else
 416:Generated_Source\PSoC4/SW_I2C_Master_1.c ****                     {
 417:Generated_Source\PSoC4/SW_I2C_Master_1.c ****                         /* Slave ACKed, go to the next state */
 418:Generated_Source\PSoC4/SW_I2C_Master_1.c ****                         masterState = SW_I2C_Master_1_STATE_ACK_CLK;
 557              		.loc 1 418 0
 558 0142 0822     		movs	r2, #8
 559 0144 7A4B     		ldr	r3, .L61
 560 0146 1A62     		str	r2, [r3, #32]
 561 0148 08E1     		b	.L26
 562              	.L47:
 419:Generated_Source\PSoC4/SW_I2C_Master_1.c ****                     }
 420:Generated_Source\PSoC4/SW_I2C_Master_1.c ****                 }
 421:Generated_Source\PSoC4/SW_I2C_Master_1.c ****             }
 422:Generated_Source\PSoC4/SW_I2C_Master_1.c ****             else /* Read command */
 423:Generated_Source\PSoC4/SW_I2C_Master_1.c ****             {
 424:Generated_Source\PSoC4/SW_I2C_Master_1.c ****                 /* Go to the next state */
 425:Generated_Source\PSoC4/SW_I2C_Master_1.c ****                 masterState = SW_I2C_Master_1_STATE_ACK_CLK;
 563              		.loc 1 425 0
 564 014a 0822     		movs	r2, #8
 565 014c 784B     		ldr	r3, .L61
 566 014e 1A62     		str	r2, [r3, #32]
 567 0150 04E1     		b	.L26
 568              	.L34:
 426:Generated_Source\PSoC4/SW_I2C_Master_1.c ****             }
 427:Generated_Source\PSoC4/SW_I2C_Master_1.c ****             break;
 428:Generated_Source\PSoC4/SW_I2C_Master_1.c ****             
 429:Generated_Source\PSoC4/SW_I2C_Master_1.c ****         case SW_I2C_Master_1_STATE_ACK_CLK:
 430:Generated_Source\PSoC4/SW_I2C_Master_1.c ****             /* Set Clock Low */
 431:Generated_Source\PSoC4/SW_I2C_Master_1.c ****             ClrSCL;
 569              		.loc 1 431 0
 570 0152 794A     		ldr	r2, .L61+8
 571 0154 1368     		ldr	r3, [r2]
 572 0156 0821     		movs	r1, #8
 573 0158 8B43     		bics	r3, r1
 574 015a 1360     		str	r3, [r2]
 432:Generated_Source\PSoC4/SW_I2C_Master_1.c ****             
 433:Generated_Source\PSoC4/SW_I2C_Master_1.c ****             /* Check if any data to be transmitted */
 434:Generated_Source\PSoC4/SW_I2C_Master_1.c ****             if (byteCounter == packetSize)
 575              		.loc 1 434 0
 576 015c 744B     		ldr	r3, .L61
 577 015e 1A69     		ldr	r2, [r3, #16]
 578 0160 9B68     		ldr	r3, [r3, #8]
 579 0162 9A42     		cmp	r2, r3
 580 0164 10D1     		bne	.L49
 435:Generated_Source\PSoC4/SW_I2C_Master_1.c ****             {   
 436:Generated_Source\PSoC4/SW_I2C_Master_1.c ****                 /* Check if should send a stop */
 437:Generated_Source\PSoC4/SW_I2C_Master_1.c ****                 if (masterControl & SW_I2C_Master_1_MODE_NO_STOP)
 581              		.loc 1 437 0
 582 0166 724B     		ldr	r3, .L61
 583 0168 5B68     		ldr	r3, [r3, #4]
 584 016a 9B07     		lsls	r3, r3, #30
ARM GAS  C:\Users\ilya\AppData\Local\Temp\ccOqVFIC.s 			page 19


 585 016c 03D5     		bpl	.L50
 438:Generated_Source\PSoC4/SW_I2C_Master_1.c ****                 {                    
 439:Generated_Source\PSoC4/SW_I2C_Master_1.c ****                     /* Go to NO STOP state */
 440:Generated_Source\PSoC4/SW_I2C_Master_1.c ****                     masterState = SW_I2C_Master_1_STATE_NO_STOP;
 586              		.loc 1 440 0
 587 016e 0F22     		movs	r2, #15
 588 0170 6F4B     		ldr	r3, .L61
 589 0172 1A62     		str	r2, [r3, #32]
 590 0174 F2E0     		b	.L26
 591              	.L50:
 441:Generated_Source\PSoC4/SW_I2C_Master_1.c ****                 }
 442:Generated_Source\PSoC4/SW_I2C_Master_1.c ****                 else
 443:Generated_Source\PSoC4/SW_I2C_Master_1.c ****                 {
 444:Generated_Source\PSoC4/SW_I2C_Master_1.c ****                     /* Set SDA Low */
 445:Generated_Source\PSoC4/SW_I2C_Master_1.c ****                     ClrSDA;
 592              		.loc 1 445 0
 593 0176 704A     		ldr	r2, .L61+8
 594 0178 1368     		ldr	r3, [r2]
 595 017a 1021     		movs	r1, #16
 596 017c 8B43     		bics	r3, r1
 597 017e 1360     		str	r3, [r2]
 446:Generated_Source\PSoC4/SW_I2C_Master_1.c ****                     
 447:Generated_Source\PSoC4/SW_I2C_Master_1.c ****                     /* Go to the stop state */
 448:Generated_Source\PSoC4/SW_I2C_Master_1.c ****                     masterState = SW_I2C_Master_1_STATE_STOP;
 598              		.loc 1 448 0
 599 0180 0D22     		movs	r2, #13
 600 0182 6B4B     		ldr	r3, .L61
 601 0184 1A62     		str	r2, [r3, #32]
 602 0186 E9E0     		b	.L26
 603              	.L49:
 449:Generated_Source\PSoC4/SW_I2C_Master_1.c ****                 }    
 450:Generated_Source\PSoC4/SW_I2C_Master_1.c ****             }
 451:Generated_Source\PSoC4/SW_I2C_Master_1.c ****             else
 452:Generated_Source\PSoC4/SW_I2C_Master_1.c ****             {              
 453:Generated_Source\PSoC4/SW_I2C_Master_1.c ****                 /* Reset the bit counter */
 454:Generated_Source\PSoC4/SW_I2C_Master_1.c ****                 bitCounter = 0;
 604              		.loc 1 454 0
 605 0188 694B     		ldr	r3, .L61
 606 018a 0022     		movs	r2, #0
 607 018c DA60     		str	r2, [r3, #12]
 455:Generated_Source\PSoC4/SW_I2C_Master_1.c ****                 
 456:Generated_Source\PSoC4/SW_I2C_Master_1.c ****                 /* Reset the read byte */
 457:Generated_Source\PSoC4/SW_I2C_Master_1.c ****                 theByte = 0;
 608              		.loc 1 457 0
 609 018e 2421     		movs	r1, #36
 610 0190 5A54     		strb	r2, [r3, r1]
 458:Generated_Source\PSoC4/SW_I2C_Master_1.c ****                 
 459:Generated_Source\PSoC4/SW_I2C_Master_1.c ****                 /* Go to the next state */
 460:Generated_Source\PSoC4/SW_I2C_Master_1.c ****                 masterState = SW_I2C_Master_1_STATE_DATA;
 611              		.loc 1 460 0
 612 0192 0B32     		adds	r2, r2, #11
 613 0194 1A62     		str	r2, [r3, #32]
 614 0196 E1E0     		b	.L26
 615              	.L35:
 461:Generated_Source\PSoC4/SW_I2C_Master_1.c ****             }
 462:Generated_Source\PSoC4/SW_I2C_Master_1.c ****             break;
 463:Generated_Source\PSoC4/SW_I2C_Master_1.c ****             
ARM GAS  C:\Users\ilya\AppData\Local\Temp\ccOqVFIC.s 			page 20


 464:Generated_Source\PSoC4/SW_I2C_Master_1.c ****         case SW_I2C_Master_1_STATE_NACK:
 465:Generated_Source\PSoC4/SW_I2C_Master_1.c ****             /* Set SCL and SDA to LOW */
 466:Generated_Source\PSoC4/SW_I2C_Master_1.c ****             ClrSCL;     
 616              		.loc 1 466 0
 617 0198 674B     		ldr	r3, .L61+8
 618 019a 1A68     		ldr	r2, [r3]
 619 019c 0821     		movs	r1, #8
 620 019e 8A43     		bics	r2, r1
 621 01a0 1A60     		str	r2, [r3]
 467:Generated_Source\PSoC4/SW_I2C_Master_1.c ****             ClrSDA;
 622              		.loc 1 467 0
 623 01a2 1A68     		ldr	r2, [r3]
 624 01a4 0831     		adds	r1, r1, #8
 625 01a6 8A43     		bics	r2, r1
 626 01a8 1A60     		str	r2, [r3]
 468:Generated_Source\PSoC4/SW_I2C_Master_1.c ****     
 469:Generated_Source\PSoC4/SW_I2C_Master_1.c ****             /* Return error */
 470:Generated_Source\PSoC4/SW_I2C_Master_1.c ****             masterStatus |= SW_I2C_Master_1_MSTAT_ERR_ADDR_NAK;
 627              		.loc 1 470 0
 628 01aa 614B     		ldr	r3, .L61
 629 01ac 2022     		movs	r2, #32
 630 01ae 1968     		ldr	r1, [r3]
 631 01b0 0A43     		orrs	r2, r1
 632 01b2 1A60     		str	r2, [r3]
 471:Generated_Source\PSoC4/SW_I2C_Master_1.c ****             
 472:Generated_Source\PSoC4/SW_I2C_Master_1.c ****             /* Go to the next state */
 473:Generated_Source\PSoC4/SW_I2C_Master_1.c ****             masterState = SW_I2C_Master_1_STATE_STOP;
 633              		.loc 1 473 0
 634 01b4 0D22     		movs	r2, #13
 635 01b6 1A62     		str	r2, [r3, #32]
 474:Generated_Source\PSoC4/SW_I2C_Master_1.c ****             break;
 636              		.loc 1 474 0
 637 01b8 D0E0     		b	.L26
 638              	.L36:
 475:Generated_Source\PSoC4/SW_I2C_Master_1.c ****             
 476:Generated_Source\PSoC4/SW_I2C_Master_1.c ****         case SW_I2C_Master_1_STATE_DATA:
 477:Generated_Source\PSoC4/SW_I2C_Master_1.c ****             /* Check if it is a write command */
 478:Generated_Source\PSoC4/SW_I2C_Master_1.c ****             if (masterControl & SW_I2C_Master_1_WRITE_FRAME)
 639              		.loc 1 478 0
 640 01ba 5D4B     		ldr	r3, .L61
 641 01bc 5B68     		ldr	r3, [r3, #4]
 642 01be 5B07     		lsls	r3, r3, #29
 643 01c0 41D5     		bpl	.L51
 479:Generated_Source\PSoC4/SW_I2C_Master_1.c ****             {           
 480:Generated_Source\PSoC4/SW_I2C_Master_1.c ****                 /* Check if all bytes were sent */
 481:Generated_Source\PSoC4/SW_I2C_Master_1.c ****                 if (byteCounter < packetSize)
 644              		.loc 1 481 0
 645 01c2 5B4B     		ldr	r3, .L61
 646 01c4 1A69     		ldr	r2, [r3, #16]
 647 01c6 9B68     		ldr	r3, [r3, #8]
 648 01c8 9A42     		cmp	r2, r3
 649 01ca 2FD2     		bcs	.L52
 482:Generated_Source\PSoC4/SW_I2C_Master_1.c ****                 {            
 483:Generated_Source\PSoC4/SW_I2C_Master_1.c ****                     if (bitCounter < 8)
 650              		.loc 1 483 0
 651 01cc 584B     		ldr	r3, .L61
 652 01ce DB68     		ldr	r3, [r3, #12]
ARM GAS  C:\Users\ilya\AppData\Local\Temp\ccOqVFIC.s 			page 21


 653 01d0 072B     		cmp	r3, #7
 654 01d2 1FD8     		bhi	.L53
 484:Generated_Source\PSoC4/SW_I2C_Master_1.c ****                     {
 485:Generated_Source\PSoC4/SW_I2C_Master_1.c ****                         /* Process the bit from outBuffer */
 486:Generated_Source\PSoC4/SW_I2C_Master_1.c ****                         if (outBuffer[byteCounter] & (0x80 >> (bitCounter % 8)))
 655              		.loc 1 486 0
 656 01d4 5649     		ldr	r1, .L61
 657 01d6 4969     		ldr	r1, [r1, #20]
 658 01d8 895C     		ldrb	r1, [r1, r2]
 659 01da 0722     		movs	r2, #7
 660 01dc 1340     		ands	r3, r2
 661 01de 7932     		adds	r2, r2, #121
 662 01e0 1A41     		asrs	r2, r2, r3
 663 01e2 0A42     		tst	r2, r1
 664 01e4 05D0     		beq	.L54
 487:Generated_Source\PSoC4/SW_I2C_Master_1.c ****                         {
 488:Generated_Source\PSoC4/SW_I2C_Master_1.c ****                             SetSDA;
 665              		.loc 1 488 0
 666 01e6 544A     		ldr	r2, .L61+8
 667 01e8 1168     		ldr	r1, [r2]
 668 01ea 1023     		movs	r3, #16
 669 01ec 0B43     		orrs	r3, r1
 670 01ee 1360     		str	r3, [r2]
 671 01f0 04E0     		b	.L55
 672              	.L54:
 489:Generated_Source\PSoC4/SW_I2C_Master_1.c ****                         }
 490:Generated_Source\PSoC4/SW_I2C_Master_1.c ****                         else
 491:Generated_Source\PSoC4/SW_I2C_Master_1.c ****                         {
 492:Generated_Source\PSoC4/SW_I2C_Master_1.c ****                             ClrSDA;
 673              		.loc 1 492 0
 674 01f2 514A     		ldr	r2, .L61+8
 675 01f4 1368     		ldr	r3, [r2]
 676 01f6 1021     		movs	r1, #16
 677 01f8 8B43     		bics	r3, r1
 678 01fa 1360     		str	r3, [r2]
 679              	.L55:
 493:Generated_Source\PSoC4/SW_I2C_Master_1.c ****                         }
 494:Generated_Source\PSoC4/SW_I2C_Master_1.c ****                         
 495:Generated_Source\PSoC4/SW_I2C_Master_1.c ****                         /* Increment bit counter */
 496:Generated_Source\PSoC4/SW_I2C_Master_1.c ****                         bitCounter++;
 680              		.loc 1 496 0
 681 01fc 4C4B     		ldr	r3, .L61
 682 01fe DA68     		ldr	r2, [r3, #12]
 683 0200 0132     		adds	r2, r2, #1
 684 0202 DA60     		str	r2, [r3, #12]
 497:Generated_Source\PSoC4/SW_I2C_Master_1.c ****                         
 498:Generated_Source\PSoC4/SW_I2C_Master_1.c ****                         /* Set SCL to HIGH*/
 499:Generated_Source\PSoC4/SW_I2C_Master_1.c ****                         SetSCL;
 685              		.loc 1 499 0
 686 0204 4C49     		ldr	r1, .L61+8
 687 0206 0868     		ldr	r0, [r1]
 688 0208 0822     		movs	r2, #8
 689 020a 0243     		orrs	r2, r0
 690 020c 0A60     		str	r2, [r1]
 500:Generated_Source\PSoC4/SW_I2C_Master_1.c ****                         
 501:Generated_Source\PSoC4/SW_I2C_Master_1.c ****                         /* Go to the next state */
 502:Generated_Source\PSoC4/SW_I2C_Master_1.c ****                         masterState = SW_I2C_Master_1_STATE_DATA_CLK;
ARM GAS  C:\Users\ilya\AppData\Local\Temp\ccOqVFIC.s 			page 22


 691              		.loc 1 502 0
 692 020e 0C22     		movs	r2, #12
 693 0210 1A62     		str	r2, [r3, #32]
 694 0212 A3E0     		b	.L26
 695              	.L53:
 503:Generated_Source\PSoC4/SW_I2C_Master_1.c ****                     }
 504:Generated_Source\PSoC4/SW_I2C_Master_1.c ****                     else
 505:Generated_Source\PSoC4/SW_I2C_Master_1.c ****                     {
 506:Generated_Source\PSoC4/SW_I2C_Master_1.c ****                         /* Set SDA high to check if NAK */
 507:Generated_Source\PSoC4/SW_I2C_Master_1.c ****                         SetSDA;
 696              		.loc 1 507 0
 697 0214 484A     		ldr	r2, .L61+8
 698 0216 1168     		ldr	r1, [r2]
 699 0218 1023     		movs	r3, #16
 700 021a 0B43     		orrs	r3, r1
 701 021c 1360     		str	r3, [r2]
 508:Generated_Source\PSoC4/SW_I2C_Master_1.c ****                         
 509:Generated_Source\PSoC4/SW_I2C_Master_1.c ****                         /* Decrement byte counter */
 510:Generated_Source\PSoC4/SW_I2C_Master_1.c ****                         byteCounter++;
 702              		.loc 1 510 0
 703 021e 444B     		ldr	r3, .L61
 704 0220 1A69     		ldr	r2, [r3, #16]
 705 0222 0132     		adds	r2, r2, #1
 706 0224 1A61     		str	r2, [r3, #16]
 511:Generated_Source\PSoC4/SW_I2C_Master_1.c ****                         
 512:Generated_Source\PSoC4/SW_I2C_Master_1.c ****                         /* Move to the next state */
 513:Generated_Source\PSoC4/SW_I2C_Master_1.c ****                         masterState = SW_I2C_Master_1_STATE_ACK;
 707              		.loc 1 513 0
 708 0226 0722     		movs	r2, #7
 709 0228 1A62     		str	r2, [r3, #32]
 710 022a 97E0     		b	.L26
 711              	.L52:
 514:Generated_Source\PSoC4/SW_I2C_Master_1.c ****                     }
 515:Generated_Source\PSoC4/SW_I2C_Master_1.c ****                 }
 516:Generated_Source\PSoC4/SW_I2C_Master_1.c ****                 else
 517:Generated_Source\PSoC4/SW_I2C_Master_1.c ****                 {
 518:Generated_Source\PSoC4/SW_I2C_Master_1.c ****                     /* Set SCL and SDA to LOW */
 519:Generated_Source\PSoC4/SW_I2C_Master_1.c ****                     ClrSCL;     
 712              		.loc 1 519 0
 713 022c 424B     		ldr	r3, .L61+8
 714 022e 1A68     		ldr	r2, [r3]
 715 0230 0821     		movs	r1, #8
 716 0232 8A43     		bics	r2, r1
 717 0234 1A60     		str	r2, [r3]
 520:Generated_Source\PSoC4/SW_I2C_Master_1.c ****                     ClrSDA;         
 718              		.loc 1 520 0
 719 0236 1A68     		ldr	r2, [r3]
 720 0238 0831     		adds	r1, r1, #8
 721 023a 8A43     		bics	r2, r1
 722 023c 1A60     		str	r2, [r3]
 521:Generated_Source\PSoC4/SW_I2C_Master_1.c ****                     
 522:Generated_Source\PSoC4/SW_I2C_Master_1.c ****                     /* Transmission completed */
 523:Generated_Source\PSoC4/SW_I2C_Master_1.c ****                     masterState = SW_I2C_Master_1_STATE_STOP;
 723              		.loc 1 523 0
 724 023e 0D22     		movs	r2, #13
 725 0240 3B4B     		ldr	r3, .L61
 726 0242 1A62     		str	r2, [r3, #32]
ARM GAS  C:\Users\ilya\AppData\Local\Temp\ccOqVFIC.s 			page 23


 727 0244 8AE0     		b	.L26
 728              	.L51:
 524:Generated_Source\PSoC4/SW_I2C_Master_1.c ****                 }
 525:Generated_Source\PSoC4/SW_I2C_Master_1.c ****             }
 526:Generated_Source\PSoC4/SW_I2C_Master_1.c ****             else /* Process a Read command */
 527:Generated_Source\PSoC4/SW_I2C_Master_1.c ****             {
 528:Generated_Source\PSoC4/SW_I2C_Master_1.c ****                 /* Release the SDA line */
 529:Generated_Source\PSoC4/SW_I2C_Master_1.c ****                 SetSDA;
 729              		.loc 1 529 0
 730 0246 3C4A     		ldr	r2, .L61+8
 731 0248 1168     		ldr	r1, [r2]
 732 024a 1023     		movs	r3, #16
 733 024c 0B43     		orrs	r3, r1
 734 024e 1360     		str	r3, [r2]
 530:Generated_Source\PSoC4/SW_I2C_Master_1.c ****                 
 531:Generated_Source\PSoC4/SW_I2C_Master_1.c ****                 /* Check if all bytes were read */
 532:Generated_Source\PSoC4/SW_I2C_Master_1.c ****                 if (byteCounter < packetSize)
 735              		.loc 1 532 0
 736 0250 374A     		ldr	r2, .L61
 737 0252 1369     		ldr	r3, [r2, #16]
 738 0254 9268     		ldr	r2, [r2, #8]
 739 0256 9342     		cmp	r3, r2
 740 0258 00D3     		bcc	.LCB682
 741 025a 7FE0     		b	.L26	@long jump
 742              	.LCB682:
 533:Generated_Source\PSoC4/SW_I2C_Master_1.c ****                 {            
 534:Generated_Source\PSoC4/SW_I2C_Master_1.c ****                     if (bitCounter < 8)
 743              		.loc 1 534 0
 744 025c 3449     		ldr	r1, .L61
 745 025e C968     		ldr	r1, [r1, #12]
 746 0260 0729     		cmp	r1, #7
 747 0262 1AD8     		bhi	.L56
 535:Generated_Source\PSoC4/SW_I2C_Master_1.c ****                     {
 536:Generated_Source\PSoC4/SW_I2C_Master_1.c ****                         /* Shift the byte to set the current bit */
 537:Generated_Source\PSoC4/SW_I2C_Master_1.c ****                         theByte <<= 1;
 748              		.loc 1 537 0
 749 0264 3249     		ldr	r1, .L61
 750 0266 2422     		movs	r2, #36
 751 0268 8B5C     		ldrb	r3, [r1, r2]
 752 026a 5B00     		lsls	r3, r3, #1
 753 026c 8B54     		strb	r3, [r1, r2]
 538:Generated_Source\PSoC4/SW_I2C_Master_1.c ****                         
 539:Generated_Source\PSoC4/SW_I2C_Master_1.c ****                         /* Set SCL to High */
 540:Generated_Source\PSoC4/SW_I2C_Master_1.c ****                         SetSCL;
 754              		.loc 1 540 0
 755 026e 324A     		ldr	r2, .L61+8
 756 0270 1168     		ldr	r1, [r2]
 757 0272 0823     		movs	r3, #8
 758 0274 0B43     		orrs	r3, r1
 759 0276 1360     		str	r3, [r2]
 541:Generated_Source\PSoC4/SW_I2C_Master_1.c ****                         
 542:Generated_Source\PSoC4/SW_I2C_Master_1.c ****                         /* Capture the bit */
 543:Generated_Source\PSoC4/SW_I2C_Master_1.c ****                         if (GetSDA)
 760              		.loc 1 543 0
 761 0278 304B     		ldr	r3, .L61+12
 762 027a 1B68     		ldr	r3, [r3]
 763 027c DB06     		lsls	r3, r3, #27
ARM GAS  C:\Users\ilya\AppData\Local\Temp\ccOqVFIC.s 			page 24


 764 027e 05D5     		bpl	.L57
 544:Generated_Source\PSoC4/SW_I2C_Master_1.c ****                         {
 545:Generated_Source\PSoC4/SW_I2C_Master_1.c ****                             theByte |= 1;
 765              		.loc 1 545 0
 766 0280 2B49     		ldr	r1, .L61
 767 0282 2422     		movs	r2, #36
 768 0284 885C     		ldrb	r0, [r1, r2]
 769 0286 0123     		movs	r3, #1
 770 0288 0343     		orrs	r3, r0
 771 028a 8B54     		strb	r3, [r1, r2]
 772              	.L57:
 546:Generated_Source\PSoC4/SW_I2C_Master_1.c ****                         }
 547:Generated_Source\PSoC4/SW_I2C_Master_1.c ****                         
 548:Generated_Source\PSoC4/SW_I2C_Master_1.c ****                         /* Increment the bit counter */
 549:Generated_Source\PSoC4/SW_I2C_Master_1.c ****                         bitCounter++;
 773              		.loc 1 549 0
 774 028c 284B     		ldr	r3, .L61
 775 028e DA68     		ldr	r2, [r3, #12]
 776 0290 0132     		adds	r2, r2, #1
 777 0292 DA60     		str	r2, [r3, #12]
 550:Generated_Source\PSoC4/SW_I2C_Master_1.c ****                         
 551:Generated_Source\PSoC4/SW_I2C_Master_1.c ****                         /* Go to the next state */
 552:Generated_Source\PSoC4/SW_I2C_Master_1.c ****                         masterState = SW_I2C_Master_1_STATE_DATA_CLK;
 778              		.loc 1 552 0
 779 0294 0C22     		movs	r2, #12
 780 0296 1A62     		str	r2, [r3, #32]
 781 0298 60E0     		b	.L26
 782              	.L56:
 553:Generated_Source\PSoC4/SW_I2C_Master_1.c ****                     }
 554:Generated_Source\PSoC4/SW_I2C_Master_1.c ****                     else
 555:Generated_Source\PSoC4/SW_I2C_Master_1.c ****                     {
 556:Generated_Source\PSoC4/SW_I2C_Master_1.c ****                         /* One byte complete, update buffer */
 557:Generated_Source\PSoC4/SW_I2C_Master_1.c ****                         inBuffer[byteCounter] = theByte;
 783              		.loc 1 557 0
 784 029a 2549     		ldr	r1, .L61
 785 029c 2420     		movs	r0, #36
 786 029e 085C     		ldrb	r0, [r1, r0]
 787 02a0 CC69     		ldr	r4, [r1, #28]
 788 02a2 E054     		strb	r0, [r4, r3]
 558:Generated_Source\PSoC4/SW_I2C_Master_1.c ****                         
 559:Generated_Source\PSoC4/SW_I2C_Master_1.c ****                         /* Increment the byte counter */
 560:Generated_Source\PSoC4/SW_I2C_Master_1.c ****                         byteCounter++;
 789              		.loc 1 560 0
 790 02a4 0133     		adds	r3, r3, #1
 791 02a6 0B61     		str	r3, [r1, #16]
 561:Generated_Source\PSoC4/SW_I2C_Master_1.c ****                         
 562:Generated_Source\PSoC4/SW_I2C_Master_1.c ****                         /* Check if it is the last byte */
 563:Generated_Source\PSoC4/SW_I2C_Master_1.c ****                         if (byteCounter == packetSize)
 792              		.loc 1 563 0
 793 02a8 9A42     		cmp	r2, r3
 794 02aa 08D1     		bne	.L58
 564:Generated_Source\PSoC4/SW_I2C_Master_1.c ****                         {
 565:Generated_Source\PSoC4/SW_I2C_Master_1.c ****                             /* Last byte, so NACK it */
 566:Generated_Source\PSoC4/SW_I2C_Master_1.c ****                             SetSDA;
 795              		.loc 1 566 0
 796 02ac 224A     		ldr	r2, .L61+8
 797 02ae 1168     		ldr	r1, [r2]
ARM GAS  C:\Users\ilya\AppData\Local\Temp\ccOqVFIC.s 			page 25


 798 02b0 1023     		movs	r3, #16
 799 02b2 0B43     		orrs	r3, r1
 800 02b4 1360     		str	r3, [r2]
 567:Generated_Source\PSoC4/SW_I2C_Master_1.c ****                             
 568:Generated_Source\PSoC4/SW_I2C_Master_1.c ****                             /* Move to the next state */
 569:Generated_Source\PSoC4/SW_I2C_Master_1.c ****                             masterState = SW_I2C_Master_1_STATE_ACK;
 801              		.loc 1 569 0
 802 02b6 0722     		movs	r2, #7
 803 02b8 1D4B     		ldr	r3, .L61
 804 02ba 1A62     		str	r2, [r3, #32]
 805 02bc 4EE0     		b	.L26
 806              	.L58:
 570:Generated_Source\PSoC4/SW_I2C_Master_1.c ****                         }
 571:Generated_Source\PSoC4/SW_I2C_Master_1.c ****                         else
 572:Generated_Source\PSoC4/SW_I2C_Master_1.c ****                         {
 573:Generated_Source\PSoC4/SW_I2C_Master_1.c ****                             /* Not yet, so ACK it */
 574:Generated_Source\PSoC4/SW_I2C_Master_1.c ****                             ClrSDA;
 807              		.loc 1 574 0
 808 02be 1E4A     		ldr	r2, .L61+8
 809 02c0 1368     		ldr	r3, [r2]
 810 02c2 1021     		movs	r1, #16
 811 02c4 8B43     		bics	r3, r1
 812 02c6 1360     		str	r3, [r2]
 575:Generated_Source\PSoC4/SW_I2C_Master_1.c ****                             
 576:Generated_Source\PSoC4/SW_I2C_Master_1.c ****                             /* Move to the next state */
 577:Generated_Source\PSoC4/SW_I2C_Master_1.c ****                             masterState = SW_I2C_Master_1_STATE_ACK;
 813              		.loc 1 577 0
 814 02c8 0722     		movs	r2, #7
 815 02ca 194B     		ldr	r3, .L61
 816 02cc 1A62     		str	r2, [r3, #32]
 817 02ce 45E0     		b	.L26
 818              	.L37:
 578:Generated_Source\PSoC4/SW_I2C_Master_1.c ****                         }
 579:Generated_Source\PSoC4/SW_I2C_Master_1.c ****                     }
 580:Generated_Source\PSoC4/SW_I2C_Master_1.c ****                 }
 581:Generated_Source\PSoC4/SW_I2C_Master_1.c ****                 else
 582:Generated_Source\PSoC4/SW_I2C_Master_1.c ****                 {
 583:Generated_Source\PSoC4/SW_I2C_Master_1.c ****                 }
 584:Generated_Source\PSoC4/SW_I2C_Master_1.c ****             }
 585:Generated_Source\PSoC4/SW_I2C_Master_1.c ****             break;
 586:Generated_Source\PSoC4/SW_I2C_Master_1.c ****             
 587:Generated_Source\PSoC4/SW_I2C_Master_1.c ****         case SW_I2C_Master_1_STATE_DATA_CLK:
 588:Generated_Source\PSoC4/SW_I2C_Master_1.c ****             /* Set SCL to LOW */
 589:Generated_Source\PSoC4/SW_I2C_Master_1.c ****             ClrSCL;
 819              		.loc 1 589 0
 820 02d0 194A     		ldr	r2, .L61+8
 821 02d2 1368     		ldr	r3, [r2]
 822 02d4 0821     		movs	r1, #8
 823 02d6 8B43     		bics	r3, r1
 824 02d8 1360     		str	r3, [r2]
 590:Generated_Source\PSoC4/SW_I2C_Master_1.c ****             
 591:Generated_Source\PSoC4/SW_I2C_Master_1.c ****             /* Go to the next state */
 592:Generated_Source\PSoC4/SW_I2C_Master_1.c ****             masterState = SW_I2C_Master_1_STATE_DATA;
 825              		.loc 1 592 0
 826 02da 0B22     		movs	r2, #11
 827 02dc 144B     		ldr	r3, .L61
 828 02de 1A62     		str	r2, [r3, #32]
ARM GAS  C:\Users\ilya\AppData\Local\Temp\ccOqVFIC.s 			page 26


 593:Generated_Source\PSoC4/SW_I2C_Master_1.c ****             break;
 829              		.loc 1 593 0
 830 02e0 3CE0     		b	.L26
 831              	.L38:
 594:Generated_Source\PSoC4/SW_I2C_Master_1.c ****             
 595:Generated_Source\PSoC4/SW_I2C_Master_1.c ****         case SW_I2C_Master_1_STATE_STOP:
 596:Generated_Source\PSoC4/SW_I2C_Master_1.c ****             /* Set Clock High */
 597:Generated_Source\PSoC4/SW_I2C_Master_1.c ****             SetSCL;
 832              		.loc 1 597 0
 833 02e2 154A     		ldr	r2, .L61+8
 834 02e4 1168     		ldr	r1, [r2]
 835 02e6 0823     		movs	r3, #8
 836 02e8 0B43     		orrs	r3, r1
 837 02ea 1360     		str	r3, [r2]
 598:Generated_Source\PSoC4/SW_I2C_Master_1.c ****                        
 599:Generated_Source\PSoC4/SW_I2C_Master_1.c ****             /* Go to IDLE state */
 600:Generated_Source\PSoC4/SW_I2C_Master_1.c ****             masterState = SW_I2C_Master_1_STATE_STOP_CLK;
 838              		.loc 1 600 0
 839 02ec 0E22     		movs	r2, #14
 840 02ee 104B     		ldr	r3, .L61
 841 02f0 1A62     		str	r2, [r3, #32]
 601:Generated_Source\PSoC4/SW_I2C_Master_1.c ****             break;    
 842              		.loc 1 601 0
 843 02f2 33E0     		b	.L26
 844              	.L39:
 602:Generated_Source\PSoC4/SW_I2C_Master_1.c ****             
 603:Generated_Source\PSoC4/SW_I2C_Master_1.c ****         case SW_I2C_Master_1_STATE_STOP_CLK:
 604:Generated_Source\PSoC4/SW_I2C_Master_1.c ****             /* Set SDA High */
 605:Generated_Source\PSoC4/SW_I2C_Master_1.c ****             SetSDA;
 845              		.loc 1 605 0
 846 02f4 104A     		ldr	r2, .L61+8
 847 02f6 1168     		ldr	r1, [r2]
 848 02f8 1023     		movs	r3, #16
 849 02fa 0B43     		orrs	r3, r1
 850 02fc 1360     		str	r3, [r2]
 606:Generated_Source\PSoC4/SW_I2C_Master_1.c ****             
 607:Generated_Source\PSoC4/SW_I2C_Master_1.c ****             /* Return completion */
 608:Generated_Source\PSoC4/SW_I2C_Master_1.c ****             if (masterControl & SW_I2C_Master_1_WRITE_FRAME)
 851              		.loc 1 608 0
 852 02fe 0C4B     		ldr	r3, .L61
 853 0300 5B68     		ldr	r3, [r3, #4]
 854 0302 5B07     		lsls	r3, r3, #29
 855 0304 05D5     		bpl	.L59
 609:Generated_Source\PSoC4/SW_I2C_Master_1.c ****             {
 610:Generated_Source\PSoC4/SW_I2C_Master_1.c ****                 masterStatus |= SW_I2C_Master_1_MSTAT_WR_CMPLT;
 856              		.loc 1 610 0
 857 0306 0A4A     		ldr	r2, .L61
 858 0308 0223     		movs	r3, #2
 859 030a 1168     		ldr	r1, [r2]
 860 030c 0B43     		orrs	r3, r1
 861 030e 1360     		str	r3, [r2]
 862 0310 04E0     		b	.L60
 863              	.L59:
 611:Generated_Source\PSoC4/SW_I2C_Master_1.c ****             }
 612:Generated_Source\PSoC4/SW_I2C_Master_1.c ****             else
 613:Generated_Source\PSoC4/SW_I2C_Master_1.c ****             {
 614:Generated_Source\PSoC4/SW_I2C_Master_1.c ****                 masterStatus |= SW_I2C_Master_1_MSTAT_RD_CMPLT;
ARM GAS  C:\Users\ilya\AppData\Local\Temp\ccOqVFIC.s 			page 27


 864              		.loc 1 614 0
 865 0312 074A     		ldr	r2, .L61
 866 0314 0123     		movs	r3, #1
 867 0316 1168     		ldr	r1, [r2]
 868 0318 0B43     		orrs	r3, r1
 869 031a 1360     		str	r3, [r2]
 870              	.L60:
 615:Generated_Source\PSoC4/SW_I2C_Master_1.c ****             }
 616:Generated_Source\PSoC4/SW_I2C_Master_1.c ****                 
 617:Generated_Source\PSoC4/SW_I2C_Master_1.c ****             /* Clear busy bit */
 618:Generated_Source\PSoC4/SW_I2C_Master_1.c ****             masterStatus &= ~(SW_I2C_Master_1_MSTAT_XFER_INP);
 871              		.loc 1 618 0
 872 031c 044B     		ldr	r3, .L61
 873 031e 0422     		movs	r2, #4
 874 0320 1968     		ldr	r1, [r3]
 875 0322 9143     		bics	r1, r2
 876 0324 1960     		str	r1, [r3]
 619:Generated_Source\PSoC4/SW_I2C_Master_1.c ****             
 620:Generated_Source\PSoC4/SW_I2C_Master_1.c ****             /* Clear the master control */
 621:Generated_Source\PSoC4/SW_I2C_Master_1.c ****             masterControl = 0;
 877              		.loc 1 621 0
 878 0326 0022     		movs	r2, #0
 879 0328 5A60     		str	r2, [r3, #4]
 622:Generated_Source\PSoC4/SW_I2C_Master_1.c ****             
 623:Generated_Source\PSoC4/SW_I2C_Master_1.c ****             /* Go to IDLE state */
 624:Generated_Source\PSoC4/SW_I2C_Master_1.c ****             masterState = SW_I2C_Master_1_STATE_IDLE;
 880              		.loc 1 624 0
 881 032a 1A62     		str	r2, [r3, #32]
 625:Generated_Source\PSoC4/SW_I2C_Master_1.c ****             break;
 882              		.loc 1 625 0
 883 032c 16E0     		b	.L26
 884              	.L62:
 885 032e C046     		.align	2
 886              	.L61:
 887 0330 00000000 		.word	.LANCHOR0
 888 0334 00000000 		.word	.L28
 889 0338 00000440 		.word	1074003968
 890 033c 04000440 		.word	1074003972
 891              	.L40:
 626:Generated_Source\PSoC4/SW_I2C_Master_1.c ****             
 627:Generated_Source\PSoC4/SW_I2C_Master_1.c ****         case SW_I2C_Master_1_STATE_NO_STOP:
 628:Generated_Source\PSoC4/SW_I2C_Master_1.c ****             /* Set SDA and SCL High */
 629:Generated_Source\PSoC4/SW_I2C_Master_1.c ****             SetSDA;
 892              		.loc 1 629 0
 893 0340 084B     		ldr	r3, .L63
 894 0342 1968     		ldr	r1, [r3]
 895 0344 1022     		movs	r2, #16
 896 0346 0A43     		orrs	r2, r1
 897 0348 1A60     		str	r2, [r3]
 630:Generated_Source\PSoC4/SW_I2C_Master_1.c ****             SetSCL;
 898              		.loc 1 630 0
 899 034a 1A68     		ldr	r2, [r3]
 900 034c 0821     		movs	r1, #8
 901 034e 0A43     		orrs	r2, r1
 902 0350 1A60     		str	r2, [r3]
 631:Generated_Source\PSoC4/SW_I2C_Master_1.c ****             
 632:Generated_Source\PSoC4/SW_I2C_Master_1.c ****             /* Set transmission completed */
ARM GAS  C:\Users\ilya\AppData\Local\Temp\ccOqVFIC.s 			page 28


 633:Generated_Source\PSoC4/SW_I2C_Master_1.c ****             masterStatus = SW_I2C_Master_1_MSTAT_XFER_HALT;
 903              		.loc 1 633 0
 904 0352 054B     		ldr	r3, .L63+4
 905 0354 1960     		str	r1, [r3]
 634:Generated_Source\PSoC4/SW_I2C_Master_1.c ****             
 635:Generated_Source\PSoC4/SW_I2C_Master_1.c ****             /* Clear master control */
 636:Generated_Source\PSoC4/SW_I2C_Master_1.c ****             masterControl = 0;
 906              		.loc 1 636 0
 907 0356 0022     		movs	r2, #0
 908 0358 5A60     		str	r2, [r3, #4]
 637:Generated_Source\PSoC4/SW_I2C_Master_1.c ****             
 638:Generated_Source\PSoC4/SW_I2C_Master_1.c ****             /* Go to IDLE state */
 639:Generated_Source\PSoC4/SW_I2C_Master_1.c ****             masterState = SW_I2C_Master_1_STATE_IDLE;            
 909              		.loc 1 639 0
 910 035a 1A62     		str	r2, [r3, #32]
 911              	.L26:
 640:Generated_Source\PSoC4/SW_I2C_Master_1.c ****             break;
 641:Generated_Source\PSoC4/SW_I2C_Master_1.c ****     }
 642:Generated_Source\PSoC4/SW_I2C_Master_1.c ****     
 643:Generated_Source\PSoC4/SW_I2C_Master_1.c ****     return masterStatus;
 912              		.loc 1 643 0
 913 035c 024B     		ldr	r3, .L63+4
 914 035e 1868     		ldr	r0, [r3]
 644:Generated_Source\PSoC4/SW_I2C_Master_1.c **** }
 915              		.loc 1 644 0
 916              		@ sp needed
 917 0360 10BD     		pop	{r4, pc}
 918              	.L64:
 919 0362 C046     		.align	2
 920              	.L63:
 921 0364 00000440 		.word	1074003968
 922 0368 00000000 		.word	.LANCHOR0
 923              		.cfi_endproc
 924              	.LFE4:
 925              		.size	SW_I2C_Master_1_Process, .-SW_I2C_Master_1_Process
 926              		.section	.text.SW_I2C_Master_1_ClearStatus,"ax",%progbits
 927              		.align	2
 928              		.global	SW_I2C_Master_1_ClearStatus
 929              		.code	16
 930              		.thumb_func
 931              		.type	SW_I2C_Master_1_ClearStatus, %function
 932              	SW_I2C_Master_1_ClearStatus:
 933              	.LFB5:
 645:Generated_Source\PSoC4/SW_I2C_Master_1.c **** 
 646:Generated_Source\PSoC4/SW_I2C_Master_1.c **** /*******************************************************************************
 647:Generated_Source\PSoC4/SW_I2C_Master_1.c **** * Function Name: SW_I2C_Master_1_ClearStatus
 648:Generated_Source\PSoC4/SW_I2C_Master_1.c **** ********************************************************************************
 649:Generated_Source\PSoC4/SW_I2C_Master_1.c **** *
 650:Generated_Source\PSoC4/SW_I2C_Master_1.c **** * Summary:
 651:Generated_Source\PSoC4/SW_I2C_Master_1.c **** *  Clear internal status
 652:Generated_Source\PSoC4/SW_I2C_Master_1.c **** *
 653:Generated_Source\PSoC4/SW_I2C_Master_1.c **** *******************************************************************************/
 654:Generated_Source\PSoC4/SW_I2C_Master_1.c **** void   SW_I2C_Master_1_ClearStatus(void)
 655:Generated_Source\PSoC4/SW_I2C_Master_1.c **** {
 934              		.loc 1 655 0
 935              		.cfi_startproc
 936              		@ args = 0, pretend = 0, frame = 0
ARM GAS  C:\Users\ilya\AppData\Local\Temp\ccOqVFIC.s 			page 29


 937              		@ frame_needed = 0, uses_anonymous_args = 0
 938              		@ link register save eliminated.
 656:Generated_Source\PSoC4/SW_I2C_Master_1.c ****     masterStatus = 0;
 939              		.loc 1 656 0
 940 0000 0022     		movs	r2, #0
 941 0002 014B     		ldr	r3, .L66
 942 0004 1A60     		str	r2, [r3]
 657:Generated_Source\PSoC4/SW_I2C_Master_1.c **** }
 943              		.loc 1 657 0
 944              		@ sp needed
 945 0006 7047     		bx	lr
 946              	.L67:
 947              		.align	2
 948              	.L66:
 949 0008 00000000 		.word	.LANCHOR0
 950              		.cfi_endproc
 951              	.LFE5:
 952              		.size	SW_I2C_Master_1_ClearStatus, .-SW_I2C_Master_1_ClearStatus
 953              		.bss
 954              		.align	2
 955              		.set	.LANCHOR0,. + 0
 956              		.type	masterStatus, %object
 957              		.size	masterStatus, 4
 958              	masterStatus:
 959 0000 00000000 		.space	4
 960              		.type	masterControl, %object
 961              		.size	masterControl, 4
 962              	masterControl:
 963 0004 00000000 		.space	4
 964              		.type	packetSize, %object
 965              		.size	packetSize, 4
 966              	packetSize:
 967 0008 00000000 		.space	4
 968              		.type	bitCounter, %object
 969              		.size	bitCounter, 4
 970              	bitCounter:
 971 000c 00000000 		.space	4
 972              		.type	byteCounter, %object
 973              		.size	byteCounter, 4
 974              	byteCounter:
 975 0010 00000000 		.space	4
 976              		.type	outBuffer, %object
 977              		.size	outBuffer, 4
 978              	outBuffer:
 979 0014 00000000 		.space	4
 980              		.type	internalAddress, %object
 981              		.size	internalAddress, 4
 982              	internalAddress:
 983 0018 00000000 		.space	4
 984              		.type	inBuffer, %object
 985              		.size	inBuffer, 4
 986              	inBuffer:
 987 001c 00000000 		.space	4
 988              		.type	masterState, %object
 989              		.size	masterState, 4
 990              	masterState:
 991 0020 00000000 		.space	4
ARM GAS  C:\Users\ilya\AppData\Local\Temp\ccOqVFIC.s 			page 30


 992              		.type	theByte, %object
 993              		.size	theByte, 1
 994              	theByte:
 995 0024 00       		.space	1
 996              		.text
 997              	.Letext0:
 998              		.file 2 "Generated_Source\\PSoC4\\cytypes.h"