ARM GAS  C:\Users\ilya\AppData\Local\Temp\ccAjPEqD.s 			page 1


   1              		.syntax unified
   2              		.cpu cortex-m0
   3              		.fpu softvfp
   4              		.eabi_attribute 20, 1
   5              		.eabi_attribute 21, 1
   6              		.eabi_attribute 23, 3
   7              		.eabi_attribute 24, 1
   8              		.eabi_attribute 25, 1
   9              		.eabi_attribute 26, 1
  10              		.eabi_attribute 30, 6
  11              		.eabi_attribute 34, 0
  12              		.eabi_attribute 18, 4
  13              		.thumb
  14              		.syntax unified
  15              		.file	"vl53l0x_api_core.c"
  16              		.text
  17              	.Ltext0:
  18              		.cfi_sections	.debug_frame
  19              		.section	.text.VL53L0X_reverse_bytes,"ax",%progbits
  20              		.align	2
  21              		.global	VL53L0X_reverse_bytes
  22              		.code	16
  23              		.thumb_func
  24              		.type	VL53L0X_reverse_bytes, %function
  25              	VL53L0X_reverse_bytes:
  26              	.LFB1:
  27              		.file 1 "Api\\core\\src\\vl53l0x_api_core.c"
   1:Api\core\src/vl53l0x_api_core.c **** /*******************************************************************************
   2:Api\core\src/vl53l0x_api_core.c ****  Copyright © 2016, STMicroelectronics International N.V.
   3:Api\core\src/vl53l0x_api_core.c ****  All rights reserved.
   4:Api\core\src/vl53l0x_api_core.c **** 
   5:Api\core\src/vl53l0x_api_core.c ****  Redistribution and use in source and binary forms, with or without
   6:Api\core\src/vl53l0x_api_core.c ****  modification, are permitted provided that the following conditions are met:
   7:Api\core\src/vl53l0x_api_core.c ****  * Redistributions of source code must retain the above copyright
   8:Api\core\src/vl53l0x_api_core.c ****  notice, this list of conditions and the following disclaimer.
   9:Api\core\src/vl53l0x_api_core.c ****  * Redistributions in binary form must reproduce the above copyright
  10:Api\core\src/vl53l0x_api_core.c ****  notice, this list of conditions and the following disclaimer in the
  11:Api\core\src/vl53l0x_api_core.c ****  documentation and/or other materials provided with the distribution.
  12:Api\core\src/vl53l0x_api_core.c ****  * Neither the name of STMicroelectronics nor the
  13:Api\core\src/vl53l0x_api_core.c ****  names of its contributors may be used to endorse or promote products
  14:Api\core\src/vl53l0x_api_core.c ****  derived from this software without specific prior written permission.
  15:Api\core\src/vl53l0x_api_core.c **** 
  16:Api\core\src/vl53l0x_api_core.c ****  THIS SOFTWARE IS PROVIDED BY THE COPYRIGHT HOLDERS AND CONTRIBUTORS "AS IS" AND
  17:Api\core\src/vl53l0x_api_core.c ****  ANY EXPRESS OR IMPLIED WARRANTIES, INCLUDING, BUT NOT LIMITED TO, THE IMPLIED
  18:Api\core\src/vl53l0x_api_core.c ****  WARRANTIES OF MERCHANTABILITY, FITNESS FOR A PARTICULAR PURPOSE, AND
  19:Api\core\src/vl53l0x_api_core.c ****  NON-INFRINGEMENT OF INTELLECTUAL PROPERTY RIGHTS ARE DISCLAIMED.
  20:Api\core\src/vl53l0x_api_core.c ****  IN NO EVENT SHALL STMICROELECTRONICS INTERNATIONAL N.V. BE LIABLE FOR ANY
  21:Api\core\src/vl53l0x_api_core.c ****  DIRECT, INDIRECT, INCIDENTAL, SPECIAL, EXEMPLARY, OR CONSEQUENTIAL DAMAGES
  22:Api\core\src/vl53l0x_api_core.c ****  (INCLUDING, BUT NOT LIMITED TO, PROCUREMENT OF SUBSTITUTE GOODS OR SERVICES;
  23:Api\core\src/vl53l0x_api_core.c ****  LOSS OF USE, DATA, OR PROFITS; OR BUSINESS INTERRUPTION) HOWEVER CAUSED AND
  24:Api\core\src/vl53l0x_api_core.c ****  ON ANY THEORY OF LIABILITY, WHETHER IN CONTRACT, STRICT LIABILITY, OR TORT
  25:Api\core\src/vl53l0x_api_core.c ****  (INCLUDING NEGLIGENCE OR OTHERWISE) ARISING IN ANY WAY OUT OF THE USE OF THIS
  26:Api\core\src/vl53l0x_api_core.c ****  SOFTWARE, EVEN IF ADVISED OF THE POSSIBILITY OF SUCH DAMAGE.
  27:Api\core\src/vl53l0x_api_core.c ****  ******************************************************************************/
  28:Api\core\src/vl53l0x_api_core.c **** 
  29:Api\core\src/vl53l0x_api_core.c **** #include "vl53l0x_api.h"
  30:Api\core\src/vl53l0x_api_core.c **** #include "vl53l0x_api_core.h"
ARM GAS  C:\Users\ilya\AppData\Local\Temp\ccAjPEqD.s 			page 2


  31:Api\core\src/vl53l0x_api_core.c **** #include "vl53l0x_api_calibration.h"
  32:Api\core\src/vl53l0x_api_core.c **** 
  33:Api\core\src/vl53l0x_api_core.c **** 
  34:Api\core\src/vl53l0x_api_core.c **** #ifndef __KERNEL__
  35:Api\core\src/vl53l0x_api_core.c **** #include <stdlib.h>
  36:Api\core\src/vl53l0x_api_core.c **** #endif
  37:Api\core\src/vl53l0x_api_core.c **** #define LOG_FUNCTION_START(fmt, ...) \
  38:Api\core\src/vl53l0x_api_core.c **** 	_LOG_FUNCTION_START(TRACE_MODULE_API, fmt, ##__VA_ARGS__)
  39:Api\core\src/vl53l0x_api_core.c **** #define LOG_FUNCTION_END(status, ...) \
  40:Api\core\src/vl53l0x_api_core.c **** 	_LOG_FUNCTION_END(TRACE_MODULE_API, status, ##__VA_ARGS__)
  41:Api\core\src/vl53l0x_api_core.c **** #define LOG_FUNCTION_END_FMT(status, fmt, ...) \
  42:Api\core\src/vl53l0x_api_core.c **** 	_LOG_FUNCTION_END_FMT(TRACE_MODULE_API, status, fmt, ##__VA_ARGS__)
  43:Api\core\src/vl53l0x_api_core.c **** 
  44:Api\core\src/vl53l0x_api_core.c **** VL53L0X_Error VL53L0X_reverse_bytes(uint8_t *data, uint32_t size)
  45:Api\core\src/vl53l0x_api_core.c **** {
  28              		.loc 1 45 0
  29              		.cfi_startproc
  30              		@ args = 0, pretend = 0, frame = 32
  31              		@ frame_needed = 1, uses_anonymous_args = 0
  32 0000 80B5     		push	{r7, lr}
  33              		.cfi_def_cfa_offset 8
  34              		.cfi_offset 7, -8
  35              		.cfi_offset 14, -4
  36 0002 88B0     		sub	sp, sp, #32
  37              		.cfi_def_cfa_offset 40
  38 0004 00AF     		add	r7, sp, #0
  39              		.cfi_def_cfa_register 7
  40 0006 7860     		str	r0, [r7, #4]
  41 0008 3960     		str	r1, [r7]
  46:Api\core\src/vl53l0x_api_core.c **** 	VL53L0X_Error Status = VL53L0X_ERROR_NONE;
  42              		.loc 1 46 0
  43 000a 1B23     		movs	r3, #27
  44 000c FB18     		adds	r3, r7, r3
  45 000e 0022     		movs	r2, #0
  46 0010 1A70     		strb	r2, [r3]
  47:Api\core\src/vl53l0x_api_core.c **** 	uint8_t tempData;
  48:Api\core\src/vl53l0x_api_core.c **** 	uint32_t mirrorIndex;
  49:Api\core\src/vl53l0x_api_core.c **** 	uint32_t middle = size/2;
  47              		.loc 1 49 0
  48 0012 3B68     		ldr	r3, [r7]
  49 0014 5B08     		lsrs	r3, r3, #1
  50 0016 7B61     		str	r3, [r7, #20]
  50:Api\core\src/vl53l0x_api_core.c **** 	uint32_t index;
  51:Api\core\src/vl53l0x_api_core.c **** 
  52:Api\core\src/vl53l0x_api_core.c **** 	for (index = 0; index < middle; index++) {
  51              		.loc 1 52 0
  52 0018 0023     		movs	r3, #0
  53 001a FB61     		str	r3, [r7, #28]
  54 001c 1DE0     		b	.L2
  55              	.L3:
  53:Api\core\src/vl53l0x_api_core.c **** 		mirrorIndex		 = size - index - 1;
  56              		.loc 1 53 0 discriminator 3
  57 001e 3A68     		ldr	r2, [r7]
  58 0020 FB69     		ldr	r3, [r7, #28]
  59 0022 D31A     		subs	r3, r2, r3
  60 0024 013B     		subs	r3, r3, #1
  61 0026 3B61     		str	r3, [r7, #16]
ARM GAS  C:\Users\ilya\AppData\Local\Temp\ccAjPEqD.s 			page 3


  54:Api\core\src/vl53l0x_api_core.c **** 		tempData		 = data[index];
  62              		.loc 1 54 0 discriminator 3
  63 0028 7A68     		ldr	r2, [r7, #4]
  64 002a FB69     		ldr	r3, [r7, #28]
  65 002c D218     		adds	r2, r2, r3
  66 002e 0F23     		movs	r3, #15
  67 0030 FB18     		adds	r3, r7, r3
  68 0032 1278     		ldrb	r2, [r2]
  69 0034 1A70     		strb	r2, [r3]
  55:Api\core\src/vl53l0x_api_core.c **** 		data[index]		 = data[mirrorIndex];
  70              		.loc 1 55 0 discriminator 3
  71 0036 7A68     		ldr	r2, [r7, #4]
  72 0038 FB69     		ldr	r3, [r7, #28]
  73 003a D318     		adds	r3, r2, r3
  74 003c 7968     		ldr	r1, [r7, #4]
  75 003e 3A69     		ldr	r2, [r7, #16]
  76 0040 8A18     		adds	r2, r1, r2
  77 0042 1278     		ldrb	r2, [r2]
  78 0044 1A70     		strb	r2, [r3]
  56:Api\core\src/vl53l0x_api_core.c **** 		data[mirrorIndex] = tempData;
  79              		.loc 1 56 0 discriminator 3
  80 0046 7A68     		ldr	r2, [r7, #4]
  81 0048 3B69     		ldr	r3, [r7, #16]
  82 004a D318     		adds	r3, r2, r3
  83 004c 0F22     		movs	r2, #15
  84 004e BA18     		adds	r2, r7, r2
  85 0050 1278     		ldrb	r2, [r2]
  86 0052 1A70     		strb	r2, [r3]
  52:Api\core\src/vl53l0x_api_core.c **** 		mirrorIndex		 = size - index - 1;
  87              		.loc 1 52 0 discriminator 3
  88 0054 FB69     		ldr	r3, [r7, #28]
  89 0056 0133     		adds	r3, r3, #1
  90 0058 FB61     		str	r3, [r7, #28]
  91              	.L2:
  52:Api\core\src/vl53l0x_api_core.c **** 		mirrorIndex		 = size - index - 1;
  92              		.loc 1 52 0 is_stmt 0 discriminator 1
  93 005a FA69     		ldr	r2, [r7, #28]
  94 005c 7B69     		ldr	r3, [r7, #20]
  95 005e 9A42     		cmp	r2, r3
  96 0060 DDD3     		bcc	.L3
  57:Api\core\src/vl53l0x_api_core.c **** 	}
  58:Api\core\src/vl53l0x_api_core.c **** 	return Status;
  97              		.loc 1 58 0 is_stmt 1
  98 0062 1B23     		movs	r3, #27
  99 0064 FB18     		adds	r3, r7, r3
 100 0066 1B78     		ldrb	r3, [r3]
 101 0068 5BB2     		sxtb	r3, r3
  59:Api\core\src/vl53l0x_api_core.c **** }
 102              		.loc 1 59 0
 103 006a 1800     		movs	r0, r3
 104 006c BD46     		mov	sp, r7
 105 006e 08B0     		add	sp, sp, #32
 106              		@ sp needed
 107 0070 80BD     		pop	{r7, pc}
 108              		.cfi_endproc
 109              	.LFE1:
 110              		.size	VL53L0X_reverse_bytes, .-VL53L0X_reverse_bytes
ARM GAS  C:\Users\ilya\AppData\Local\Temp\ccAjPEqD.s 			page 4


 111 0072 C046     		.section	.text.VL53L0X_measurement_poll_for_completion,"ax",%progbits
 112              		.align	2
 113              		.global	VL53L0X_measurement_poll_for_completion
 114              		.code	16
 115              		.thumb_func
 116              		.type	VL53L0X_measurement_poll_for_completion, %function
 117              	VL53L0X_measurement_poll_for_completion:
 118              	.LFB2:
  60:Api\core\src/vl53l0x_api_core.c **** 
  61:Api\core\src/vl53l0x_api_core.c **** VL53L0X_Error VL53L0X_measurement_poll_for_completion(VL53L0X_DEV Dev)
  62:Api\core\src/vl53l0x_api_core.c **** {
 119              		.loc 1 62 0
 120              		.cfi_startproc
 121              		@ args = 0, pretend = 0, frame = 24
 122              		@ frame_needed = 1, uses_anonymous_args = 0
 123 0000 90B5     		push	{r4, r7, lr}
 124              		.cfi_def_cfa_offset 12
 125              		.cfi_offset 4, -12
 126              		.cfi_offset 7, -8
 127              		.cfi_offset 14, -4
 128 0002 87B0     		sub	sp, sp, #28
 129              		.cfi_def_cfa_offset 40
 130 0004 00AF     		add	r7, sp, #0
 131              		.cfi_def_cfa_register 7
 132 0006 7860     		str	r0, [r7, #4]
  63:Api\core\src/vl53l0x_api_core.c **** 	VL53L0X_Error Status = VL53L0X_ERROR_NONE;
 133              		.loc 1 63 0
 134 0008 1723     		movs	r3, #23
 135 000a FB18     		adds	r3, r7, r3
 136 000c 0022     		movs	r2, #0
 137 000e 1A70     		strb	r2, [r3]
  64:Api\core\src/vl53l0x_api_core.c **** 	uint8_t NewDataReady = 0;
 138              		.loc 1 64 0
 139 0010 0F23     		movs	r3, #15
 140 0012 FB18     		adds	r3, r7, r3
 141 0014 0022     		movs	r2, #0
 142 0016 1A70     		strb	r2, [r3]
  65:Api\core\src/vl53l0x_api_core.c **** 	uint32_t LoopNb;
  66:Api\core\src/vl53l0x_api_core.c **** 
  67:Api\core\src/vl53l0x_api_core.c **** 	LOG_FUNCTION_START("");
  68:Api\core\src/vl53l0x_api_core.c **** 
  69:Api\core\src/vl53l0x_api_core.c **** 	LoopNb = 0;
 143              		.loc 1 69 0
 144 0018 0023     		movs	r3, #0
 145 001a 3B61     		str	r3, [r7, #16]
 146              	.L10:
  70:Api\core\src/vl53l0x_api_core.c **** 
  71:Api\core\src/vl53l0x_api_core.c **** 	do {
  72:Api\core\src/vl53l0x_api_core.c **** 		Status = VL53L0X_GetMeasurementDataReady(Dev, &NewDataReady);
 147              		.loc 1 72 0
 148 001c 1723     		movs	r3, #23
 149 001e FC18     		adds	r4, r7, r3
 150 0020 0F23     		movs	r3, #15
 151 0022 FA18     		adds	r2, r7, r3
 152 0024 7B68     		ldr	r3, [r7, #4]
 153 0026 1100     		movs	r1, r2
 154 0028 1800     		movs	r0, r3
ARM GAS  C:\Users\ilya\AppData\Local\Temp\ccAjPEqD.s 			page 5


 155 002a FFF7FEFF 		bl	VL53L0X_GetMeasurementDataReady
 156 002e 0300     		movs	r3, r0
 157 0030 2370     		strb	r3, [r4]
  73:Api\core\src/vl53l0x_api_core.c **** 		if (Status != 0)
 158              		.loc 1 73 0
 159 0032 1723     		movs	r3, #23
 160 0034 FB18     		adds	r3, r7, r3
 161 0036 1B78     		ldrb	r3, [r3]
 162 0038 5BB2     		sxtb	r3, r3
 163 003a 002B     		cmp	r3, #0
 164 003c 15D1     		bne	.L12
  74:Api\core\src/vl53l0x_api_core.c **** 			break; /* the error is set */
  75:Api\core\src/vl53l0x_api_core.c **** 
  76:Api\core\src/vl53l0x_api_core.c **** 		if (NewDataReady == 1)
 165              		.loc 1 76 0
 166 003e 0F23     		movs	r3, #15
 167 0040 FB18     		adds	r3, r7, r3
 168 0042 1B78     		ldrb	r3, [r3]
 169 0044 012B     		cmp	r3, #1
 170 0046 12D0     		beq	.L13
  77:Api\core\src/vl53l0x_api_core.c **** 			break; /* done note that status == 0 */
  78:Api\core\src/vl53l0x_api_core.c **** 
  79:Api\core\src/vl53l0x_api_core.c **** 		LoopNb++;
 171              		.loc 1 79 0
 172 0048 3B69     		ldr	r3, [r7, #16]
 173 004a 0133     		adds	r3, r3, #1
 174 004c 3B61     		str	r3, [r7, #16]
  80:Api\core\src/vl53l0x_api_core.c **** 		if (LoopNb >= VL53L0X_DEFAULT_MAX_LOOP) {
 175              		.loc 1 80 0
 176 004e 3B69     		ldr	r3, [r7, #16]
 177 0050 0B4A     		ldr	r2, .L14
 178 0052 9342     		cmp	r3, r2
 179 0054 04D9     		bls	.L9
  81:Api\core\src/vl53l0x_api_core.c **** 			Status = VL53L0X_ERROR_TIME_OUT;
 180              		.loc 1 81 0
 181 0056 1723     		movs	r3, #23
 182 0058 FB18     		adds	r3, r7, r3
 183 005a F922     		movs	r2, #249
 184 005c 1A70     		strb	r2, [r3]
  82:Api\core\src/vl53l0x_api_core.c **** 			break;
 185              		.loc 1 82 0
 186 005e 07E0     		b	.L7
 187              	.L9:
  83:Api\core\src/vl53l0x_api_core.c **** 		}
  84:Api\core\src/vl53l0x_api_core.c **** 
  85:Api\core\src/vl53l0x_api_core.c **** 		VL53L0X_PollingDelay(Dev);
 188              		.loc 1 85 0
 189 0060 7B68     		ldr	r3, [r7, #4]
 190 0062 1800     		movs	r0, r3
 191 0064 FFF7FEFF 		bl	VL53L0X_PollingDelay
  86:Api\core\src/vl53l0x_api_core.c **** 	} while (1);
 192              		.loc 1 86 0
 193 0068 D8E7     		b	.L10
 194              	.L12:
  74:Api\core\src/vl53l0x_api_core.c **** 
 195              		.loc 1 74 0
 196 006a C046     		nop
ARM GAS  C:\Users\ilya\AppData\Local\Temp\ccAjPEqD.s 			page 6


 197 006c 00E0     		b	.L7
 198              	.L13:
  77:Api\core\src/vl53l0x_api_core.c **** 
 199              		.loc 1 77 0
 200 006e C046     		nop
 201              	.L7:
  87:Api\core\src/vl53l0x_api_core.c **** 
  88:Api\core\src/vl53l0x_api_core.c **** 	LOG_FUNCTION_END(Status);
  89:Api\core\src/vl53l0x_api_core.c **** 
  90:Api\core\src/vl53l0x_api_core.c **** 	return Status;
 202              		.loc 1 90 0
 203 0070 1723     		movs	r3, #23
 204 0072 FB18     		adds	r3, r7, r3
 205 0074 1B78     		ldrb	r3, [r3]
 206 0076 5BB2     		sxtb	r3, r3
  91:Api\core\src/vl53l0x_api_core.c **** }
 207              		.loc 1 91 0
 208 0078 1800     		movs	r0, r3
 209 007a BD46     		mov	sp, r7
 210 007c 07B0     		add	sp, sp, #28
 211              		@ sp needed
 212 007e 90BD     		pop	{r4, r7, pc}
 213              	.L15:
 214              		.align	2
 215              	.L14:
 216 0080 CF070000 		.word	1999
 217              		.cfi_endproc
 218              	.LFE2:
 219              		.size	VL53L0X_measurement_poll_for_completion, .-VL53L0X_measurement_poll_for_completion
 220              		.section	.text.VL53L0X_decode_vcsel_period,"ax",%progbits
 221              		.align	2
 222              		.global	VL53L0X_decode_vcsel_period
 223              		.code	16
 224              		.thumb_func
 225              		.type	VL53L0X_decode_vcsel_period, %function
 226              	VL53L0X_decode_vcsel_period:
 227              	.LFB3:
  92:Api\core\src/vl53l0x_api_core.c **** 
  93:Api\core\src/vl53l0x_api_core.c **** 
  94:Api\core\src/vl53l0x_api_core.c **** uint8_t VL53L0X_decode_vcsel_period(uint8_t vcsel_period_reg)
  95:Api\core\src/vl53l0x_api_core.c **** {
 228              		.loc 1 95 0
 229              		.cfi_startproc
 230              		@ args = 0, pretend = 0, frame = 16
 231              		@ frame_needed = 1, uses_anonymous_args = 0
 232 0000 80B5     		push	{r7, lr}
 233              		.cfi_def_cfa_offset 8
 234              		.cfi_offset 7, -8
 235              		.cfi_offset 14, -4
 236 0002 84B0     		sub	sp, sp, #16
 237              		.cfi_def_cfa_offset 24
 238 0004 00AF     		add	r7, sp, #0
 239              		.cfi_def_cfa_register 7
 240 0006 0200     		movs	r2, r0
 241 0008 FB1D     		adds	r3, r7, #7
 242 000a 1A70     		strb	r2, [r3]
  96:Api\core\src/vl53l0x_api_core.c **** 	/*!
ARM GAS  C:\Users\ilya\AppData\Local\Temp\ccAjPEqD.s 			page 7


  97:Api\core\src/vl53l0x_api_core.c **** 	 * Converts the encoded VCSEL period register value into the real
  98:Api\core\src/vl53l0x_api_core.c **** 	 * period in PLL clocks
  99:Api\core\src/vl53l0x_api_core.c **** 	 */
 100:Api\core\src/vl53l0x_api_core.c **** 
 101:Api\core\src/vl53l0x_api_core.c **** 	uint8_t vcsel_period_pclks = 0;
 243              		.loc 1 101 0
 244 000c 0F23     		movs	r3, #15
 245 000e FB18     		adds	r3, r7, r3
 246 0010 0022     		movs	r2, #0
 247 0012 1A70     		strb	r2, [r3]
 102:Api\core\src/vl53l0x_api_core.c **** 
 103:Api\core\src/vl53l0x_api_core.c **** 	vcsel_period_pclks = (vcsel_period_reg + 1) << 1;
 248              		.loc 1 103 0
 249 0014 FB1D     		adds	r3, r7, #7
 250 0016 1B78     		ldrb	r3, [r3]
 251 0018 0133     		adds	r3, r3, #1
 252 001a DBB2     		uxtb	r3, r3
 253 001c 0F22     		movs	r2, #15
 254 001e BA18     		adds	r2, r7, r2
 255 0020 DB18     		adds	r3, r3, r3
 256 0022 1370     		strb	r3, [r2]
 104:Api\core\src/vl53l0x_api_core.c **** 
 105:Api\core\src/vl53l0x_api_core.c **** 	return vcsel_period_pclks;
 257              		.loc 1 105 0
 258 0024 0F23     		movs	r3, #15
 259 0026 FB18     		adds	r3, r7, r3
 260 0028 1B78     		ldrb	r3, [r3]
 106:Api\core\src/vl53l0x_api_core.c **** }
 261              		.loc 1 106 0
 262 002a 1800     		movs	r0, r3
 263 002c BD46     		mov	sp, r7
 264 002e 04B0     		add	sp, sp, #16
 265              		@ sp needed
 266 0030 80BD     		pop	{r7, pc}
 267              		.cfi_endproc
 268              	.LFE3:
 269              		.size	VL53L0X_decode_vcsel_period, .-VL53L0X_decode_vcsel_period
 270 0032 C046     		.section	.text.VL53L0X_encode_vcsel_period,"ax",%progbits
 271              		.align	2
 272              		.global	VL53L0X_encode_vcsel_period
 273              		.code	16
 274              		.thumb_func
 275              		.type	VL53L0X_encode_vcsel_period, %function
 276              	VL53L0X_encode_vcsel_period:
 277              	.LFB4:
 107:Api\core\src/vl53l0x_api_core.c **** 
 108:Api\core\src/vl53l0x_api_core.c **** uint8_t VL53L0X_encode_vcsel_period(uint8_t vcsel_period_pclks)
 109:Api\core\src/vl53l0x_api_core.c **** {
 278              		.loc 1 109 0
 279              		.cfi_startproc
 280              		@ args = 0, pretend = 0, frame = 16
 281              		@ frame_needed = 1, uses_anonymous_args = 0
 282 0000 80B5     		push	{r7, lr}
 283              		.cfi_def_cfa_offset 8
 284              		.cfi_offset 7, -8
 285              		.cfi_offset 14, -4
 286 0002 84B0     		sub	sp, sp, #16
ARM GAS  C:\Users\ilya\AppData\Local\Temp\ccAjPEqD.s 			page 8


 287              		.cfi_def_cfa_offset 24
 288 0004 00AF     		add	r7, sp, #0
 289              		.cfi_def_cfa_register 7
 290 0006 0200     		movs	r2, r0
 291 0008 FB1D     		adds	r3, r7, #7
 292 000a 1A70     		strb	r2, [r3]
 110:Api\core\src/vl53l0x_api_core.c **** 	/*!
 111:Api\core\src/vl53l0x_api_core.c **** 	 * Converts the encoded VCSEL period register value into the real period
 112:Api\core\src/vl53l0x_api_core.c **** 	 * in PLL clocks
 113:Api\core\src/vl53l0x_api_core.c **** 	 */
 114:Api\core\src/vl53l0x_api_core.c **** 
 115:Api\core\src/vl53l0x_api_core.c **** 	uint8_t vcsel_period_reg = 0;
 293              		.loc 1 115 0
 294 000c 0F23     		movs	r3, #15
 295 000e FB18     		adds	r3, r7, r3
 296 0010 0022     		movs	r2, #0
 297 0012 1A70     		strb	r2, [r3]
 116:Api\core\src/vl53l0x_api_core.c **** 
 117:Api\core\src/vl53l0x_api_core.c **** 	vcsel_period_reg = (vcsel_period_pclks >> 1) - 1;
 298              		.loc 1 117 0
 299 0014 FB1D     		adds	r3, r7, #7
 300 0016 1B78     		ldrb	r3, [r3]
 301 0018 5B08     		lsrs	r3, r3, #1
 302 001a DAB2     		uxtb	r2, r3
 303 001c 0F23     		movs	r3, #15
 304 001e FB18     		adds	r3, r7, r3
 305 0020 013A     		subs	r2, r2, #1
 306 0022 1A70     		strb	r2, [r3]
 118:Api\core\src/vl53l0x_api_core.c **** 
 119:Api\core\src/vl53l0x_api_core.c **** 	return vcsel_period_reg;
 307              		.loc 1 119 0
 308 0024 0F23     		movs	r3, #15
 309 0026 FB18     		adds	r3, r7, r3
 310 0028 1B78     		ldrb	r3, [r3]
 120:Api\core\src/vl53l0x_api_core.c **** }
 311              		.loc 1 120 0
 312 002a 1800     		movs	r0, r3
 313 002c BD46     		mov	sp, r7
 314 002e 04B0     		add	sp, sp, #16
 315              		@ sp needed
 316 0030 80BD     		pop	{r7, pc}
 317              		.cfi_endproc
 318              	.LFE4:
 319              		.size	VL53L0X_encode_vcsel_period, .-VL53L0X_encode_vcsel_period
 320 0032 C046     		.section	.text.VL53L0X_isqrt,"ax",%progbits
 321              		.align	2
 322              		.global	VL53L0X_isqrt
 323              		.code	16
 324              		.thumb_func
 325              		.type	VL53L0X_isqrt, %function
 326              	VL53L0X_isqrt:
 327              	.LFB5:
 121:Api\core\src/vl53l0x_api_core.c **** 
 122:Api\core\src/vl53l0x_api_core.c **** 
 123:Api\core\src/vl53l0x_api_core.c **** uint32_t VL53L0X_isqrt(uint32_t num)
 124:Api\core\src/vl53l0x_api_core.c **** {
 328              		.loc 1 124 0
ARM GAS  C:\Users\ilya\AppData\Local\Temp\ccAjPEqD.s 			page 9


 329              		.cfi_startproc
 330              		@ args = 0, pretend = 0, frame = 16
 331              		@ frame_needed = 1, uses_anonymous_args = 0
 332 0000 80B5     		push	{r7, lr}
 333              		.cfi_def_cfa_offset 8
 334              		.cfi_offset 7, -8
 335              		.cfi_offset 14, -4
 336 0002 84B0     		sub	sp, sp, #16
 337              		.cfi_def_cfa_offset 24
 338 0004 00AF     		add	r7, sp, #0
 339              		.cfi_def_cfa_register 7
 340 0006 7860     		str	r0, [r7, #4]
 125:Api\core\src/vl53l0x_api_core.c **** 	/*
 126:Api\core\src/vl53l0x_api_core.c **** 	 * Implements an integer square root
 127:Api\core\src/vl53l0x_api_core.c **** 	 *
 128:Api\core\src/vl53l0x_api_core.c **** 	 * From: http://en.wikipedia.org/wiki/Methods_of_computing_square_roots
 129:Api\core\src/vl53l0x_api_core.c **** 	 */
 130:Api\core\src/vl53l0x_api_core.c **** 
 131:Api\core\src/vl53l0x_api_core.c **** 	uint32_t  res = 0;
 341              		.loc 1 131 0
 342 0008 0023     		movs	r3, #0
 343 000a FB60     		str	r3, [r7, #12]
 132:Api\core\src/vl53l0x_api_core.c **** 	uint32_t  bit = 1 << 30;
 344              		.loc 1 132 0
 345 000c 8023     		movs	r3, #128
 346 000e DB05     		lsls	r3, r3, #23
 347 0010 BB60     		str	r3, [r7, #8]
 133:Api\core\src/vl53l0x_api_core.c **** 	/* The second-to-top bit is set:
 134:Api\core\src/vl53l0x_api_core.c **** 	 *	1 << 14 for 16-bits, 1 << 30 for 32 bits */
 135:Api\core\src/vl53l0x_api_core.c **** 
 136:Api\core\src/vl53l0x_api_core.c **** 	 /* "bit" starts at the highest power of four <= the argument. */
 137:Api\core\src/vl53l0x_api_core.c **** 	while (bit > num)
 348              		.loc 1 137 0
 349 0012 02E0     		b	.L21
 350              	.L22:
 138:Api\core\src/vl53l0x_api_core.c **** 		bit >>= 2;
 351              		.loc 1 138 0
 352 0014 BB68     		ldr	r3, [r7, #8]
 353 0016 9B08     		lsrs	r3, r3, #2
 354 0018 BB60     		str	r3, [r7, #8]
 355              	.L21:
 137:Api\core\src/vl53l0x_api_core.c **** 		bit >>= 2;
 356              		.loc 1 137 0
 357 001a BA68     		ldr	r2, [r7, #8]
 358 001c 7B68     		ldr	r3, [r7, #4]
 359 001e 9A42     		cmp	r2, r3
 360 0020 F8D8     		bhi	.L22
 139:Api\core\src/vl53l0x_api_core.c **** 
 140:Api\core\src/vl53l0x_api_core.c **** 
 141:Api\core\src/vl53l0x_api_core.c **** 	while (bit != 0) {
 361              		.loc 1 141 0
 362 0022 17E0     		b	.L23
 363              	.L26:
 142:Api\core\src/vl53l0x_api_core.c **** 		if (num >= res + bit) {
 364              		.loc 1 142 0
 365 0024 FA68     		ldr	r2, [r7, #12]
 366 0026 BB68     		ldr	r3, [r7, #8]
ARM GAS  C:\Users\ilya\AppData\Local\Temp\ccAjPEqD.s 			page 10


 367 0028 D218     		adds	r2, r2, r3
 368 002a 7B68     		ldr	r3, [r7, #4]
 369 002c 9A42     		cmp	r2, r3
 370 002e 0BD8     		bhi	.L24
 143:Api\core\src/vl53l0x_api_core.c **** 			num -= res + bit;
 371              		.loc 1 143 0
 372 0030 FA68     		ldr	r2, [r7, #12]
 373 0032 BB68     		ldr	r3, [r7, #8]
 374 0034 D318     		adds	r3, r2, r3
 375 0036 7A68     		ldr	r2, [r7, #4]
 376 0038 D31A     		subs	r3, r2, r3
 377 003a 7B60     		str	r3, [r7, #4]
 144:Api\core\src/vl53l0x_api_core.c **** 			res = (res >> 1) + bit;
 378              		.loc 1 144 0
 379 003c FB68     		ldr	r3, [r7, #12]
 380 003e 5A08     		lsrs	r2, r3, #1
 381 0040 BB68     		ldr	r3, [r7, #8]
 382 0042 D318     		adds	r3, r2, r3
 383 0044 FB60     		str	r3, [r7, #12]
 384 0046 02E0     		b	.L25
 385              	.L24:
 145:Api\core\src/vl53l0x_api_core.c **** 		} else
 146:Api\core\src/vl53l0x_api_core.c **** 			res >>= 1;
 386              		.loc 1 146 0
 387 0048 FB68     		ldr	r3, [r7, #12]
 388 004a 5B08     		lsrs	r3, r3, #1
 389 004c FB60     		str	r3, [r7, #12]
 390              	.L25:
 147:Api\core\src/vl53l0x_api_core.c **** 
 148:Api\core\src/vl53l0x_api_core.c **** 		bit >>= 2;
 391              		.loc 1 148 0
 392 004e BB68     		ldr	r3, [r7, #8]
 393 0050 9B08     		lsrs	r3, r3, #2
 394 0052 BB60     		str	r3, [r7, #8]
 395              	.L23:
 141:Api\core\src/vl53l0x_api_core.c **** 		if (num >= res + bit) {
 396              		.loc 1 141 0
 397 0054 BB68     		ldr	r3, [r7, #8]
 398 0056 002B     		cmp	r3, #0
 399 0058 E4D1     		bne	.L26
 149:Api\core\src/vl53l0x_api_core.c **** 	}
 150:Api\core\src/vl53l0x_api_core.c **** 
 151:Api\core\src/vl53l0x_api_core.c **** 	return res;
 400              		.loc 1 151 0
 401 005a FB68     		ldr	r3, [r7, #12]
 152:Api\core\src/vl53l0x_api_core.c **** }
 402              		.loc 1 152 0
 403 005c 1800     		movs	r0, r3
 404 005e BD46     		mov	sp, r7
 405 0060 04B0     		add	sp, sp, #16
 406              		@ sp needed
 407 0062 80BD     		pop	{r7, pc}
 408              		.cfi_endproc
 409              	.LFE5:
 410              		.size	VL53L0X_isqrt, .-VL53L0X_isqrt
 411              		.section	.text.VL53L0X_quadrature_sum,"ax",%progbits
 412              		.align	2
ARM GAS  C:\Users\ilya\AppData\Local\Temp\ccAjPEqD.s 			page 11


 413              		.global	VL53L0X_quadrature_sum
 414              		.code	16
 415              		.thumb_func
 416              		.type	VL53L0X_quadrature_sum, %function
 417              	VL53L0X_quadrature_sum:
 418              	.LFB6:
 153:Api\core\src/vl53l0x_api_core.c **** 
 154:Api\core\src/vl53l0x_api_core.c **** 
 155:Api\core\src/vl53l0x_api_core.c **** uint32_t VL53L0X_quadrature_sum(uint32_t a, uint32_t b)
 156:Api\core\src/vl53l0x_api_core.c **** {
 419              		.loc 1 156 0
 420              		.cfi_startproc
 421              		@ args = 0, pretend = 0, frame = 16
 422              		@ frame_needed = 1, uses_anonymous_args = 0
 423 0000 80B5     		push	{r7, lr}
 424              		.cfi_def_cfa_offset 8
 425              		.cfi_offset 7, -8
 426              		.cfi_offset 14, -4
 427 0002 84B0     		sub	sp, sp, #16
 428              		.cfi_def_cfa_offset 24
 429 0004 00AF     		add	r7, sp, #0
 430              		.cfi_def_cfa_register 7
 431 0006 7860     		str	r0, [r7, #4]
 432 0008 3960     		str	r1, [r7]
 157:Api\core\src/vl53l0x_api_core.c **** 	/*
 158:Api\core\src/vl53l0x_api_core.c **** 	 * Implements a quadrature sum
 159:Api\core\src/vl53l0x_api_core.c **** 	 *
 160:Api\core\src/vl53l0x_api_core.c **** 	 * rea = sqrt(a^2 + b^2)
 161:Api\core\src/vl53l0x_api_core.c **** 	 *
 162:Api\core\src/vl53l0x_api_core.c **** 	 * Trap overflow case max input value is 65535 (16-bit value)
 163:Api\core\src/vl53l0x_api_core.c **** 	 * as internal calc are 32-bit wide
 164:Api\core\src/vl53l0x_api_core.c **** 	 *
 165:Api\core\src/vl53l0x_api_core.c **** 	 * If overflow then seta output to maximum
 166:Api\core\src/vl53l0x_api_core.c **** 	 */
 167:Api\core\src/vl53l0x_api_core.c **** 	uint32_t  res = 0;
 433              		.loc 1 167 0
 434 000a 0023     		movs	r3, #0
 435 000c FB60     		str	r3, [r7, #12]
 168:Api\core\src/vl53l0x_api_core.c **** 
 169:Api\core\src/vl53l0x_api_core.c **** 	if (a > 65535 || b > 65535)
 436              		.loc 1 169 0
 437 000e 7B68     		ldr	r3, [r7, #4]
 438 0010 0D4A     		ldr	r2, .L33
 439 0012 9342     		cmp	r3, r2
 440 0014 03D8     		bhi	.L29
 441              		.loc 1 169 0 is_stmt 0 discriminator 1
 442 0016 3B68     		ldr	r3, [r7]
 443 0018 0B4A     		ldr	r2, .L33
 444 001a 9342     		cmp	r3, r2
 445 001c 02D9     		bls	.L30
 446              	.L29:
 170:Api\core\src/vl53l0x_api_core.c **** 		res = 65535;
 447              		.loc 1 170 0 is_stmt 1
 448 001e 0A4B     		ldr	r3, .L33
 449 0020 FB60     		str	r3, [r7, #12]
 450 0022 0BE0     		b	.L31
 451              	.L30:
ARM GAS  C:\Users\ilya\AppData\Local\Temp\ccAjPEqD.s 			page 12


 171:Api\core\src/vl53l0x_api_core.c **** 	else
 172:Api\core\src/vl53l0x_api_core.c **** 		res = VL53L0X_isqrt(a * a + b * b);
 452              		.loc 1 172 0
 453 0024 7B68     		ldr	r3, [r7, #4]
 454 0026 7A68     		ldr	r2, [r7, #4]
 455 0028 5A43     		muls	r2, r3
 456 002a 3B68     		ldr	r3, [r7]
 457 002c 3968     		ldr	r1, [r7]
 458 002e 4B43     		muls	r3, r1
 459 0030 D318     		adds	r3, r2, r3
 460 0032 1800     		movs	r0, r3
 461 0034 FFF7FEFF 		bl	VL53L0X_isqrt
 462 0038 0300     		movs	r3, r0
 463 003a FB60     		str	r3, [r7, #12]
 464              	.L31:
 173:Api\core\src/vl53l0x_api_core.c **** 
 174:Api\core\src/vl53l0x_api_core.c **** 	return res;
 465              		.loc 1 174 0
 466 003c FB68     		ldr	r3, [r7, #12]
 175:Api\core\src/vl53l0x_api_core.c **** }
 467              		.loc 1 175 0
 468 003e 1800     		movs	r0, r3
 469 0040 BD46     		mov	sp, r7
 470 0042 04B0     		add	sp, sp, #16
 471              		@ sp needed
 472 0044 80BD     		pop	{r7, pc}
 473              	.L34:
 474 0046 C046     		.align	2
 475              	.L33:
 476 0048 FFFF0000 		.word	65535
 477              		.cfi_endproc
 478              	.LFE6:
 479              		.size	VL53L0X_quadrature_sum, .-VL53L0X_quadrature_sum
 480              		.section	.text.VL53L0X_device_read_strobe,"ax",%progbits
 481              		.align	2
 482              		.global	VL53L0X_device_read_strobe
 483              		.code	16
 484              		.thumb_func
 485              		.type	VL53L0X_device_read_strobe, %function
 486              	VL53L0X_device_read_strobe:
 487              	.LFB7:
 176:Api\core\src/vl53l0x_api_core.c **** 
 177:Api\core\src/vl53l0x_api_core.c **** 
 178:Api\core\src/vl53l0x_api_core.c **** VL53L0X_Error VL53L0X_device_read_strobe(VL53L0X_DEV Dev)
 179:Api\core\src/vl53l0x_api_core.c **** {
 488              		.loc 1 179 0
 489              		.cfi_startproc
 490              		@ args = 0, pretend = 0, frame = 24
 491              		@ frame_needed = 1, uses_anonymous_args = 0
 492 0000 90B5     		push	{r4, r7, lr}
 493              		.cfi_def_cfa_offset 12
 494              		.cfi_offset 4, -12
 495              		.cfi_offset 7, -8
 496              		.cfi_offset 14, -4
 497 0002 87B0     		sub	sp, sp, #28
 498              		.cfi_def_cfa_offset 40
 499 0004 00AF     		add	r7, sp, #0
ARM GAS  C:\Users\ilya\AppData\Local\Temp\ccAjPEqD.s 			page 13


 500              		.cfi_def_cfa_register 7
 501 0006 7860     		str	r0, [r7, #4]
 180:Api\core\src/vl53l0x_api_core.c **** 	VL53L0X_Error Status = VL53L0X_ERROR_NONE;
 502              		.loc 1 180 0
 503 0008 1723     		movs	r3, #23
 504 000a FB18     		adds	r3, r7, r3
 505 000c 0022     		movs	r2, #0
 506 000e 1A70     		strb	r2, [r3]
 181:Api\core\src/vl53l0x_api_core.c **** 	uint8_t strobe;
 182:Api\core\src/vl53l0x_api_core.c **** 	uint32_t LoopNb;
 183:Api\core\src/vl53l0x_api_core.c **** 	LOG_FUNCTION_START("");
 184:Api\core\src/vl53l0x_api_core.c **** 
 185:Api\core\src/vl53l0x_api_core.c **** 	Status |= VL53L0X_WrByte(Dev, 0x83, 0x00);
 507              		.loc 1 185 0
 508 0010 7B68     		ldr	r3, [r7, #4]
 509 0012 0022     		movs	r2, #0
 510 0014 8321     		movs	r1, #131
 511 0016 1800     		movs	r0, r3
 512 0018 FFF7FEFF 		bl	VL53L0X_WrByte
 513 001c 0300     		movs	r3, r0
 514 001e 1900     		movs	r1, r3
 515 0020 1723     		movs	r3, #23
 516 0022 FB18     		adds	r3, r7, r3
 517 0024 1722     		movs	r2, #23
 518 0026 BA18     		adds	r2, r7, r2
 519 0028 1278     		ldrb	r2, [r2]
 520 002a 0A43     		orrs	r2, r1
 521 002c 1A70     		strb	r2, [r3]
 186:Api\core\src/vl53l0x_api_core.c **** 
 187:Api\core\src/vl53l0x_api_core.c **** 	/* polling
 188:Api\core\src/vl53l0x_api_core.c **** 	 * use timeout to avoid deadlock*/
 189:Api\core\src/vl53l0x_api_core.c **** 	if (Status == VL53L0X_ERROR_NONE) {
 522              		.loc 1 189 0
 523 002e 1723     		movs	r3, #23
 524 0030 FB18     		adds	r3, r7, r3
 525 0032 1B78     		ldrb	r3, [r3]
 526 0034 5BB2     		sxtb	r3, r3
 527 0036 002B     		cmp	r3, #0
 528 0038 26D1     		bne	.L36
 190:Api\core\src/vl53l0x_api_core.c **** 		LoopNb = 0;
 529              		.loc 1 190 0
 530 003a 0023     		movs	r3, #0
 531 003c 3B61     		str	r3, [r7, #16]
 532              	.L38:
 191:Api\core\src/vl53l0x_api_core.c **** 		do {
 192:Api\core\src/vl53l0x_api_core.c **** 			Status = VL53L0X_RdByte(Dev, 0x83, &strobe);
 533              		.loc 1 192 0
 534 003e 1723     		movs	r3, #23
 535 0040 FC18     		adds	r4, r7, r3
 536 0042 0F23     		movs	r3, #15
 537 0044 FA18     		adds	r2, r7, r3
 538 0046 7B68     		ldr	r3, [r7, #4]
 539 0048 8321     		movs	r1, #131
 540 004a 1800     		movs	r0, r3
 541 004c FFF7FEFF 		bl	VL53L0X_RdByte
 542 0050 0300     		movs	r3, r0
 543 0052 2370     		strb	r3, [r4]
ARM GAS  C:\Users\ilya\AppData\Local\Temp\ccAjPEqD.s 			page 14


 193:Api\core\src/vl53l0x_api_core.c **** 			if ((strobe != 0x00) || Status != VL53L0X_ERROR_NONE)
 544              		.loc 1 193 0
 545 0054 0F23     		movs	r3, #15
 546 0056 FB18     		adds	r3, r7, r3
 547 0058 1B78     		ldrb	r3, [r3]
 548 005a 002B     		cmp	r3, #0
 549 005c 0CD1     		bne	.L37
 550              		.loc 1 193 0 is_stmt 0 discriminator 1
 551 005e 1723     		movs	r3, #23
 552 0060 FB18     		adds	r3, r7, r3
 553 0062 1B78     		ldrb	r3, [r3]
 554 0064 5BB2     		sxtb	r3, r3
 555 0066 002B     		cmp	r3, #0
 556 0068 06D1     		bne	.L37
 194:Api\core\src/vl53l0x_api_core.c **** 					break;
 195:Api\core\src/vl53l0x_api_core.c **** 
 196:Api\core\src/vl53l0x_api_core.c **** 			LoopNb = LoopNb + 1;
 557              		.loc 1 196 0 is_stmt 1
 558 006a 3B69     		ldr	r3, [r7, #16]
 559 006c 0133     		adds	r3, r3, #1
 560 006e 3B61     		str	r3, [r7, #16]
 197:Api\core\src/vl53l0x_api_core.c **** 		} while (LoopNb < VL53L0X_DEFAULT_MAX_LOOP);
 561              		.loc 1 197 0
 562 0070 3B69     		ldr	r3, [r7, #16]
 563 0072 114A     		ldr	r2, .L40
 564 0074 9342     		cmp	r3, r2
 565 0076 E2D9     		bls	.L38
 566              	.L37:
 198:Api\core\src/vl53l0x_api_core.c **** 
 199:Api\core\src/vl53l0x_api_core.c **** 		if (LoopNb >= VL53L0X_DEFAULT_MAX_LOOP)
 567              		.loc 1 199 0
 568 0078 3B69     		ldr	r3, [r7, #16]
 569 007a 0F4A     		ldr	r2, .L40
 570 007c 9342     		cmp	r3, r2
 571 007e 03D9     		bls	.L36
 200:Api\core\src/vl53l0x_api_core.c **** 			Status = VL53L0X_ERROR_TIME_OUT;
 572              		.loc 1 200 0
 573 0080 1723     		movs	r3, #23
 574 0082 FB18     		adds	r3, r7, r3
 575 0084 F922     		movs	r2, #249
 576 0086 1A70     		strb	r2, [r3]
 577              	.L36:
 201:Api\core\src/vl53l0x_api_core.c **** 
 202:Api\core\src/vl53l0x_api_core.c **** 	}
 203:Api\core\src/vl53l0x_api_core.c **** 
 204:Api\core\src/vl53l0x_api_core.c **** 	Status |= VL53L0X_WrByte(Dev, 0x83, 0x01);
 578              		.loc 1 204 0
 579 0088 7B68     		ldr	r3, [r7, #4]
 580 008a 0122     		movs	r2, #1
 581 008c 8321     		movs	r1, #131
 582 008e 1800     		movs	r0, r3
 583 0090 FFF7FEFF 		bl	VL53L0X_WrByte
 584 0094 0300     		movs	r3, r0
 585 0096 1900     		movs	r1, r3
 586 0098 1723     		movs	r3, #23
 587 009a FB18     		adds	r3, r7, r3
 588 009c 1722     		movs	r2, #23
ARM GAS  C:\Users\ilya\AppData\Local\Temp\ccAjPEqD.s 			page 15


 589 009e BA18     		adds	r2, r7, r2
 590 00a0 1278     		ldrb	r2, [r2]
 591 00a2 0A43     		orrs	r2, r1
 592 00a4 1A70     		strb	r2, [r3]
 205:Api\core\src/vl53l0x_api_core.c **** 
 206:Api\core\src/vl53l0x_api_core.c **** 	LOG_FUNCTION_END(Status);
 207:Api\core\src/vl53l0x_api_core.c **** 	return Status;
 593              		.loc 1 207 0
 594 00a6 1723     		movs	r3, #23
 595 00a8 FB18     		adds	r3, r7, r3
 596 00aa 1B78     		ldrb	r3, [r3]
 597 00ac 5BB2     		sxtb	r3, r3
 208:Api\core\src/vl53l0x_api_core.c **** 
 209:Api\core\src/vl53l0x_api_core.c **** }
 598              		.loc 1 209 0
 599 00ae 1800     		movs	r0, r3
 600 00b0 BD46     		mov	sp, r7
 601 00b2 07B0     		add	sp, sp, #28
 602              		@ sp needed
 603 00b4 90BD     		pop	{r4, r7, pc}
 604              	.L41:
 605 00b6 C046     		.align	2
 606              	.L40:
 607 00b8 CF070000 		.word	1999
 608              		.cfi_endproc
 609              	.LFE7:
 610              		.size	VL53L0X_device_read_strobe, .-VL53L0X_device_read_strobe
 611              		.section	.text.VL53L0X_get_info_from_device,"ax",%progbits
 612              		.align	2
 613              		.global	VL53L0X_get_info_from_device
 614              		.code	16
 615              		.thumb_func
 616              		.type	VL53L0X_get_info_from_device, %function
 617              	VL53L0X_get_info_from_device:
 618              	.LFB8:
 210:Api\core\src/vl53l0x_api_core.c **** 
 211:Api\core\src/vl53l0x_api_core.c **** VL53L0X_Error VL53L0X_get_info_from_device(VL53L0X_DEV Dev, uint8_t option)
 212:Api\core\src/vl53l0x_api_core.c **** {
 619              		.loc 1 212 0
 620              		.cfi_startproc
 621              		@ args = 0, pretend = 0, frame = 96
 622              		@ frame_needed = 1, uses_anonymous_args = 0
 623 0000 80B5     		push	{r7, lr}
 624              		.cfi_def_cfa_offset 8
 625              		.cfi_offset 7, -8
 626              		.cfi_offset 14, -4
 627 0002 98B0     		sub	sp, sp, #96
 628              		.cfi_def_cfa_offset 104
 629 0004 00AF     		add	r7, sp, #0
 630              		.cfi_def_cfa_register 7
 631 0006 7860     		str	r0, [r7, #4]
 632 0008 0A00     		movs	r2, r1
 633 000a FB1C     		adds	r3, r7, #3
 634 000c 1A70     		strb	r2, [r3]
 213:Api\core\src/vl53l0x_api_core.c **** 
 214:Api\core\src/vl53l0x_api_core.c **** 	VL53L0X_Error Status = VL53L0X_ERROR_NONE;
 635              		.loc 1 214 0
ARM GAS  C:\Users\ilya\AppData\Local\Temp\ccAjPEqD.s 			page 16


 636 000e 5F23     		movs	r3, #95
 637 0010 FB18     		adds	r3, r7, r3
 638 0012 0022     		movs	r2, #0
 639 0014 1A70     		strb	r2, [r3]
 215:Api\core\src/vl53l0x_api_core.c **** 	uint8_t byte;
 216:Api\core\src/vl53l0x_api_core.c **** 	uint32_t TmpDWord;
 217:Api\core\src/vl53l0x_api_core.c **** 	uint8_t ModuleId;
 218:Api\core\src/vl53l0x_api_core.c **** 	uint8_t Revision;
 219:Api\core\src/vl53l0x_api_core.c **** 	uint8_t ReferenceSpadCount = 0;
 640              		.loc 1 219 0
 641 0016 5E23     		movs	r3, #94
 642 0018 FB18     		adds	r3, r7, r3
 643 001a 0022     		movs	r2, #0
 644 001c 1A70     		strb	r2, [r3]
 220:Api\core\src/vl53l0x_api_core.c **** 	uint8_t ReferenceSpadType = 0;
 645              		.loc 1 220 0
 646 001e 5D23     		movs	r3, #93
 647 0020 FB18     		adds	r3, r7, r3
 648 0022 0022     		movs	r2, #0
 649 0024 1A70     		strb	r2, [r3]
 221:Api\core\src/vl53l0x_api_core.c **** 	uint32_t PartUIDUpper = 0;
 650              		.loc 1 221 0
 651 0026 0023     		movs	r3, #0
 652 0028 BB62     		str	r3, [r7, #40]
 222:Api\core\src/vl53l0x_api_core.c **** 	uint32_t PartUIDLower = 0;
 653              		.loc 1 222 0
 654 002a 0023     		movs	r3, #0
 655 002c 7B62     		str	r3, [r7, #36]
 223:Api\core\src/vl53l0x_api_core.c **** 	uint32_t OffsetFixed1104_mm = 0;
 656              		.loc 1 223 0
 657 002e 0023     		movs	r3, #0
 658 0030 BB64     		str	r3, [r7, #72]
 224:Api\core\src/vl53l0x_api_core.c **** 	int16_t OffsetMicroMeters = 0;
 659              		.loc 1 224 0
 660 0032 5A23     		movs	r3, #90
 661 0034 FB18     		adds	r3, r7, r3
 662 0036 0022     		movs	r2, #0
 663 0038 1A80     		strh	r2, [r3]
 225:Api\core\src/vl53l0x_api_core.c **** 	uint32_t DistMeasTgtFixed1104_mm = 400 << 4;
 664              		.loc 1 225 0
 665 003a C823     		movs	r3, #200
 666 003c 5B01     		lsls	r3, r3, #5
 667 003e 7B64     		str	r3, [r7, #68]
 226:Api\core\src/vl53l0x_api_core.c **** 	uint32_t DistMeasFixed1104_400_mm = 0;
 668              		.loc 1 226 0
 669 0040 0023     		movs	r3, #0
 670 0042 7B65     		str	r3, [r7, #84]
 227:Api\core\src/vl53l0x_api_core.c **** 	uint32_t SignalRateMeasFixed1104_400_mm = 0;
 671              		.loc 1 227 0
 672 0044 0023     		movs	r3, #0
 673 0046 3B65     		str	r3, [r7, #80]
 228:Api\core\src/vl53l0x_api_core.c **** 	char ProductId[19];
 229:Api\core\src/vl53l0x_api_core.c **** 	char *ProductId_tmp;
 230:Api\core\src/vl53l0x_api_core.c **** 	uint8_t ReadDataFromDeviceDone;
 231:Api\core\src/vl53l0x_api_core.c **** 	FixPoint1616_t SignalRateMeasFixed400mmFix = 0;
 674              		.loc 1 231 0
 675 0048 0023     		movs	r3, #0
ARM GAS  C:\Users\ilya\AppData\Local\Temp\ccAjPEqD.s 			page 17


 676 004a 3B64     		str	r3, [r7, #64]
 232:Api\core\src/vl53l0x_api_core.c **** 	uint8_t NvmRefGoodSpadMap[VL53L0X_REF_SPAD_BUFFER_SIZE];
 233:Api\core\src/vl53l0x_api_core.c **** 	int i;
 234:Api\core\src/vl53l0x_api_core.c **** 
 235:Api\core\src/vl53l0x_api_core.c **** 
 236:Api\core\src/vl53l0x_api_core.c **** 	LOG_FUNCTION_START("");
 237:Api\core\src/vl53l0x_api_core.c **** 
 238:Api\core\src/vl53l0x_api_core.c **** 	ReadDataFromDeviceDone = VL53L0X_GETDEVICESPECIFICPARAMETER(Dev,
 677              		.loc 1 238 0
 678 004c 3F23     		movs	r3, #63
 679 004e FB18     		adds	r3, r7, r3
 680 0050 7A68     		ldr	r2, [r7, #4]
 681 0052 F021     		movs	r1, #240
 682 0054 525C     		ldrb	r2, [r2, r1]
 683 0056 1A70     		strb	r2, [r3]
 239:Api\core\src/vl53l0x_api_core.c **** 			ReadDataFromDeviceDone);
 240:Api\core\src/vl53l0x_api_core.c **** 
 241:Api\core\src/vl53l0x_api_core.c **** 	/* This access is done only once after that a GetDeviceInfo or
 242:Api\core\src/vl53l0x_api_core.c **** 	 * datainit is done*/
 243:Api\core\src/vl53l0x_api_core.c **** 	if (ReadDataFromDeviceDone != 7) {
 684              		.loc 1 243 0
 685 0058 3F23     		movs	r3, #63
 686 005a FB18     		adds	r3, r7, r3
 687 005c 1B78     		ldrb	r3, [r3]
 688 005e 072B     		cmp	r3, #7
 689 0060 01D1     		bne	.LCB580
 690 0062 00F0EDFC 		bl	.L43	@far jump
 691              	.LCB580:
 244:Api\core\src/vl53l0x_api_core.c **** 
 245:Api\core\src/vl53l0x_api_core.c **** 		Status |= VL53L0X_WrByte(Dev, 0x80, 0x01);
 692              		.loc 1 245 0
 693 0066 7B68     		ldr	r3, [r7, #4]
 694 0068 0122     		movs	r2, #1
 695 006a 8021     		movs	r1, #128
 696 006c 1800     		movs	r0, r3
 697 006e FFF7FEFF 		bl	VL53L0X_WrByte
 698 0072 0300     		movs	r3, r0
 699 0074 1900     		movs	r1, r3
 700 0076 5F23     		movs	r3, #95
 701 0078 FB18     		adds	r3, r7, r3
 702 007a 5F22     		movs	r2, #95
 703 007c BA18     		adds	r2, r7, r2
 704 007e 1278     		ldrb	r2, [r2]
 705 0080 0A43     		orrs	r2, r1
 706 0082 1A70     		strb	r2, [r3]
 246:Api\core\src/vl53l0x_api_core.c **** 		Status |= VL53L0X_WrByte(Dev, 0xFF, 0x01);
 707              		.loc 1 246 0
 708 0084 7B68     		ldr	r3, [r7, #4]
 709 0086 0122     		movs	r2, #1
 710 0088 FF21     		movs	r1, #255
 711 008a 1800     		movs	r0, r3
 712 008c FFF7FEFF 		bl	VL53L0X_WrByte
 713 0090 0300     		movs	r3, r0
 714 0092 1900     		movs	r1, r3
 715 0094 5F23     		movs	r3, #95
 716 0096 FB18     		adds	r3, r7, r3
 717 0098 5F22     		movs	r2, #95
ARM GAS  C:\Users\ilya\AppData\Local\Temp\ccAjPEqD.s 			page 18


 718 009a BA18     		adds	r2, r7, r2
 719 009c 1278     		ldrb	r2, [r2]
 720 009e 0A43     		orrs	r2, r1
 721 00a0 1A70     		strb	r2, [r3]
 247:Api\core\src/vl53l0x_api_core.c **** 		Status |= VL53L0X_WrByte(Dev, 0x00, 0x00);
 722              		.loc 1 247 0
 723 00a2 7B68     		ldr	r3, [r7, #4]
 724 00a4 0022     		movs	r2, #0
 725 00a6 0021     		movs	r1, #0
 726 00a8 1800     		movs	r0, r3
 727 00aa FFF7FEFF 		bl	VL53L0X_WrByte
 728 00ae 0300     		movs	r3, r0
 729 00b0 1900     		movs	r1, r3
 730 00b2 5F23     		movs	r3, #95
 731 00b4 FB18     		adds	r3, r7, r3
 732 00b6 5F22     		movs	r2, #95
 733 00b8 BA18     		adds	r2, r7, r2
 734 00ba 1278     		ldrb	r2, [r2]
 735 00bc 0A43     		orrs	r2, r1
 736 00be 1A70     		strb	r2, [r3]
 248:Api\core\src/vl53l0x_api_core.c **** 
 249:Api\core\src/vl53l0x_api_core.c **** 		Status |= VL53L0X_WrByte(Dev, 0xFF, 0x06);
 737              		.loc 1 249 0
 738 00c0 7B68     		ldr	r3, [r7, #4]
 739 00c2 0622     		movs	r2, #6
 740 00c4 FF21     		movs	r1, #255
 741 00c6 1800     		movs	r0, r3
 742 00c8 FFF7FEFF 		bl	VL53L0X_WrByte
 743 00cc 0300     		movs	r3, r0
 744 00ce 1900     		movs	r1, r3
 745 00d0 5F23     		movs	r3, #95
 746 00d2 FB18     		adds	r3, r7, r3
 747 00d4 5F22     		movs	r2, #95
 748 00d6 BA18     		adds	r2, r7, r2
 749 00d8 1278     		ldrb	r2, [r2]
 750 00da 0A43     		orrs	r2, r1
 751 00dc 1A70     		strb	r2, [r3]
 250:Api\core\src/vl53l0x_api_core.c **** 		Status |= VL53L0X_RdByte(Dev, 0x83, &byte);
 752              		.loc 1 250 0
 753 00de 3723     		movs	r3, #55
 754 00e0 FA18     		adds	r2, r7, r3
 755 00e2 7B68     		ldr	r3, [r7, #4]
 756 00e4 8321     		movs	r1, #131
 757 00e6 1800     		movs	r0, r3
 758 00e8 FFF7FEFF 		bl	VL53L0X_RdByte
 759 00ec 0300     		movs	r3, r0
 760 00ee 1900     		movs	r1, r3
 761 00f0 5F23     		movs	r3, #95
 762 00f2 FB18     		adds	r3, r7, r3
 763 00f4 5F22     		movs	r2, #95
 764 00f6 BA18     		adds	r2, r7, r2
 765 00f8 1278     		ldrb	r2, [r2]
 766 00fa 0A43     		orrs	r2, r1
 767 00fc 1A70     		strb	r2, [r3]
 251:Api\core\src/vl53l0x_api_core.c **** 		Status |= VL53L0X_WrByte(Dev, 0x83, byte|4);
 768              		.loc 1 251 0
 769 00fe 3723     		movs	r3, #55
ARM GAS  C:\Users\ilya\AppData\Local\Temp\ccAjPEqD.s 			page 19


 770 0100 FB18     		adds	r3, r7, r3
 771 0102 1B78     		ldrb	r3, [r3]
 772 0104 0422     		movs	r2, #4
 773 0106 1343     		orrs	r3, r2
 774 0108 DAB2     		uxtb	r2, r3
 775 010a 7B68     		ldr	r3, [r7, #4]
 776 010c 8321     		movs	r1, #131
 777 010e 1800     		movs	r0, r3
 778 0110 FFF7FEFF 		bl	VL53L0X_WrByte
 779 0114 0300     		movs	r3, r0
 780 0116 1900     		movs	r1, r3
 781 0118 5F23     		movs	r3, #95
 782 011a FB18     		adds	r3, r7, r3
 783 011c 5F22     		movs	r2, #95
 784 011e BA18     		adds	r2, r7, r2
 785 0120 1278     		ldrb	r2, [r2]
 786 0122 0A43     		orrs	r2, r1
 787 0124 1A70     		strb	r2, [r3]
 252:Api\core\src/vl53l0x_api_core.c **** 		Status |= VL53L0X_WrByte(Dev, 0xFF, 0x07);
 788              		.loc 1 252 0
 789 0126 7B68     		ldr	r3, [r7, #4]
 790 0128 0722     		movs	r2, #7
 791 012a FF21     		movs	r1, #255
 792 012c 1800     		movs	r0, r3
 793 012e FFF7FEFF 		bl	VL53L0X_WrByte
 794 0132 0300     		movs	r3, r0
 795 0134 1900     		movs	r1, r3
 796 0136 5F23     		movs	r3, #95
 797 0138 FB18     		adds	r3, r7, r3
 798 013a 5F22     		movs	r2, #95
 799 013c BA18     		adds	r2, r7, r2
 800 013e 1278     		ldrb	r2, [r2]
 801 0140 0A43     		orrs	r2, r1
 802 0142 1A70     		strb	r2, [r3]
 253:Api\core\src/vl53l0x_api_core.c **** 		Status |= VL53L0X_WrByte(Dev, 0x81, 0x01);
 803              		.loc 1 253 0
 804 0144 7B68     		ldr	r3, [r7, #4]
 805 0146 0122     		movs	r2, #1
 806 0148 8121     		movs	r1, #129
 807 014a 1800     		movs	r0, r3
 808 014c FFF7FEFF 		bl	VL53L0X_WrByte
 809 0150 0300     		movs	r3, r0
 810 0152 1900     		movs	r1, r3
 811 0154 5F23     		movs	r3, #95
 812 0156 FB18     		adds	r3, r7, r3
 813 0158 5F22     		movs	r2, #95
 814 015a BA18     		adds	r2, r7, r2
 815 015c 1278     		ldrb	r2, [r2]
 816 015e 0A43     		orrs	r2, r1
 817 0160 1A70     		strb	r2, [r3]
 254:Api\core\src/vl53l0x_api_core.c **** 
 255:Api\core\src/vl53l0x_api_core.c **** 		Status |= VL53L0X_PollingDelay(Dev);
 818              		.loc 1 255 0
 819 0162 7B68     		ldr	r3, [r7, #4]
 820 0164 1800     		movs	r0, r3
 821 0166 FFF7FEFF 		bl	VL53L0X_PollingDelay
 822 016a 0300     		movs	r3, r0
ARM GAS  C:\Users\ilya\AppData\Local\Temp\ccAjPEqD.s 			page 20


 823 016c 1900     		movs	r1, r3
 824 016e 5F23     		movs	r3, #95
 825 0170 FB18     		adds	r3, r7, r3
 826 0172 5F22     		movs	r2, #95
 827 0174 BA18     		adds	r2, r7, r2
 828 0176 1278     		ldrb	r2, [r2]
 829 0178 0A43     		orrs	r2, r1
 830 017a 1A70     		strb	r2, [r3]
 256:Api\core\src/vl53l0x_api_core.c **** 
 257:Api\core\src/vl53l0x_api_core.c **** 		Status |= VL53L0X_WrByte(Dev, 0x80, 0x01);
 831              		.loc 1 257 0
 832 017c 7B68     		ldr	r3, [r7, #4]
 833 017e 0122     		movs	r2, #1
 834 0180 8021     		movs	r1, #128
 835 0182 1800     		movs	r0, r3
 836 0184 FFF7FEFF 		bl	VL53L0X_WrByte
 837 0188 0300     		movs	r3, r0
 838 018a 1900     		movs	r1, r3
 839 018c 5F23     		movs	r3, #95
 840 018e FB18     		adds	r3, r7, r3
 841 0190 5F22     		movs	r2, #95
 842 0192 BA18     		adds	r2, r7, r2
 843 0194 1278     		ldrb	r2, [r2]
 844 0196 0A43     		orrs	r2, r1
 845 0198 1A70     		strb	r2, [r3]
 258:Api\core\src/vl53l0x_api_core.c **** 
 259:Api\core\src/vl53l0x_api_core.c **** 		if (((option & 1) == 1) &&
 846              		.loc 1 259 0
 847 019a FB1C     		adds	r3, r7, #3
 848 019c 1B78     		ldrb	r3, [r3]
 849 019e 0122     		movs	r2, #1
 850 01a0 1340     		ands	r3, r2
 851 01a2 00D1     		bne	.LCB730
 852 01a4 BDE0     		b	.L44	@long jump
 853              	.LCB730:
 260:Api\core\src/vl53l0x_api_core.c **** 			((ReadDataFromDeviceDone & 1) == 0)) {
 854              		.loc 1 260 0 discriminator 1
 855 01a6 3F23     		movs	r3, #63
 856 01a8 FB18     		adds	r3, r7, r3
 857 01aa 1B78     		ldrb	r3, [r3]
 858 01ac 0122     		movs	r2, #1
 859 01ae 1340     		ands	r3, r2
 259:Api\core\src/vl53l0x_api_core.c **** 			((ReadDataFromDeviceDone & 1) == 0)) {
 860              		.loc 1 259 0 discriminator 1
 861 01b0 00D0     		beq	.LCB737
 862 01b2 B6E0     		b	.L44	@long jump
 863              	.LCB737:
 261:Api\core\src/vl53l0x_api_core.c **** 			Status |= VL53L0X_WrByte(Dev, 0x94, 0x6b);
 864              		.loc 1 261 0
 865 01b4 7B68     		ldr	r3, [r7, #4]
 866 01b6 6B22     		movs	r2, #107
 867 01b8 9421     		movs	r1, #148
 868 01ba 1800     		movs	r0, r3
 869 01bc FFF7FEFF 		bl	VL53L0X_WrByte
 870 01c0 0300     		movs	r3, r0
 871 01c2 1900     		movs	r1, r3
 872 01c4 5F23     		movs	r3, #95
ARM GAS  C:\Users\ilya\AppData\Local\Temp\ccAjPEqD.s 			page 21


 873 01c6 FB18     		adds	r3, r7, r3
 874 01c8 5F22     		movs	r2, #95
 875 01ca BA18     		adds	r2, r7, r2
 876 01cc 1278     		ldrb	r2, [r2]
 877 01ce 0A43     		orrs	r2, r1
 878 01d0 1A70     		strb	r2, [r3]
 262:Api\core\src/vl53l0x_api_core.c **** 			Status |= VL53L0X_device_read_strobe(Dev);
 879              		.loc 1 262 0
 880 01d2 7B68     		ldr	r3, [r7, #4]
 881 01d4 1800     		movs	r0, r3
 882 01d6 FFF7FEFF 		bl	VL53L0X_device_read_strobe
 883 01da 0300     		movs	r3, r0
 884 01dc 1900     		movs	r1, r3
 885 01de 5F23     		movs	r3, #95
 886 01e0 FB18     		adds	r3, r7, r3
 887 01e2 5F22     		movs	r2, #95
 888 01e4 BA18     		adds	r2, r7, r2
 889 01e6 1278     		ldrb	r2, [r2]
 890 01e8 0A43     		orrs	r2, r1
 891 01ea 1A70     		strb	r2, [r3]
 263:Api\core\src/vl53l0x_api_core.c **** 			Status |= VL53L0X_RdDWord(Dev, 0x90, &TmpDWord);
 892              		.loc 1 263 0
 893 01ec 3023     		movs	r3, #48
 894 01ee FA18     		adds	r2, r7, r3
 895 01f0 7B68     		ldr	r3, [r7, #4]
 896 01f2 9021     		movs	r1, #144
 897 01f4 1800     		movs	r0, r3
 898 01f6 FFF7FEFF 		bl	VL53L0X_RdDWord
 899 01fa 0300     		movs	r3, r0
 900 01fc 1900     		movs	r1, r3
 901 01fe 5F23     		movs	r3, #95
 902 0200 FB18     		adds	r3, r7, r3
 903 0202 5F22     		movs	r2, #95
 904 0204 BA18     		adds	r2, r7, r2
 905 0206 1278     		ldrb	r2, [r2]
 906 0208 0A43     		orrs	r2, r1
 907 020a 1A70     		strb	r2, [r3]
 264:Api\core\src/vl53l0x_api_core.c **** 
 265:Api\core\src/vl53l0x_api_core.c **** 			ReferenceSpadCount = (uint8_t)((TmpDWord >> 8) & 0x07f);
 908              		.loc 1 265 0
 909 020c 3B6B     		ldr	r3, [r7, #48]
 910 020e 1B0A     		lsrs	r3, r3, #8
 911 0210 DAB2     		uxtb	r2, r3
 912 0212 5E23     		movs	r3, #94
 913 0214 FB18     		adds	r3, r7, r3
 914 0216 7F21     		movs	r1, #127
 915 0218 0A40     		ands	r2, r1
 916 021a 1A70     		strb	r2, [r3]
 266:Api\core\src/vl53l0x_api_core.c **** 			ReferenceSpadType  = (uint8_t)((TmpDWord >> 15) & 0x01);
 917              		.loc 1 266 0
 918 021c 3B6B     		ldr	r3, [r7, #48]
 919 021e DB0B     		lsrs	r3, r3, #15
 920 0220 DAB2     		uxtb	r2, r3
 921 0222 5D23     		movs	r3, #93
 922 0224 FB18     		adds	r3, r7, r3
 923 0226 0121     		movs	r1, #1
 924 0228 0A40     		ands	r2, r1
ARM GAS  C:\Users\ilya\AppData\Local\Temp\ccAjPEqD.s 			page 22


 925 022a 1A70     		strb	r2, [r3]
 267:Api\core\src/vl53l0x_api_core.c **** 
 268:Api\core\src/vl53l0x_api_core.c **** 			Status |= VL53L0X_WrByte(Dev, 0x94, 0x24);
 926              		.loc 1 268 0
 927 022c 7B68     		ldr	r3, [r7, #4]
 928 022e 2422     		movs	r2, #36
 929 0230 9421     		movs	r1, #148
 930 0232 1800     		movs	r0, r3
 931 0234 FFF7FEFF 		bl	VL53L0X_WrByte
 932 0238 0300     		movs	r3, r0
 933 023a 1900     		movs	r1, r3
 934 023c 5F23     		movs	r3, #95
 935 023e FB18     		adds	r3, r7, r3
 936 0240 5F22     		movs	r2, #95
 937 0242 BA18     		adds	r2, r7, r2
 938 0244 1278     		ldrb	r2, [r2]
 939 0246 0A43     		orrs	r2, r1
 940 0248 1A70     		strb	r2, [r3]
 269:Api\core\src/vl53l0x_api_core.c **** 			Status |= VL53L0X_device_read_strobe(Dev);
 941              		.loc 1 269 0
 942 024a 7B68     		ldr	r3, [r7, #4]
 943 024c 1800     		movs	r0, r3
 944 024e FFF7FEFF 		bl	VL53L0X_device_read_strobe
 945 0252 0300     		movs	r3, r0
 946 0254 1900     		movs	r1, r3
 947 0256 5F23     		movs	r3, #95
 948 0258 FB18     		adds	r3, r7, r3
 949 025a 5F22     		movs	r2, #95
 950 025c BA18     		adds	r2, r7, r2
 951 025e 1278     		ldrb	r2, [r2]
 952 0260 0A43     		orrs	r2, r1
 953 0262 1A70     		strb	r2, [r3]
 270:Api\core\src/vl53l0x_api_core.c **** 			Status |= VL53L0X_RdDWord(Dev, 0x90, &TmpDWord);
 954              		.loc 1 270 0
 955 0264 3023     		movs	r3, #48
 956 0266 FA18     		adds	r2, r7, r3
 957 0268 7B68     		ldr	r3, [r7, #4]
 958 026a 9021     		movs	r1, #144
 959 026c 1800     		movs	r0, r3
 960 026e FFF7FEFF 		bl	VL53L0X_RdDWord
 961 0272 0300     		movs	r3, r0
 962 0274 1900     		movs	r1, r3
 963 0276 5F23     		movs	r3, #95
 964 0278 FB18     		adds	r3, r7, r3
 965 027a 5F22     		movs	r2, #95
 966 027c BA18     		adds	r2, r7, r2
 967 027e 1278     		ldrb	r2, [r2]
 968 0280 0A43     		orrs	r2, r1
 969 0282 1A70     		strb	r2, [r3]
 271:Api\core\src/vl53l0x_api_core.c **** 
 272:Api\core\src/vl53l0x_api_core.c **** 
 273:Api\core\src/vl53l0x_api_core.c **** 			NvmRefGoodSpadMap[0] = (uint8_t)((TmpDWord >> 24)
 970              		.loc 1 273 0
 971 0284 3B6B     		ldr	r3, [r7, #48]
 972 0286 1B0E     		lsrs	r3, r3, #24
 973 0288 DAB2     		uxtb	r2, r3
 974 028a 0823     		movs	r3, #8
ARM GAS  C:\Users\ilya\AppData\Local\Temp\ccAjPEqD.s 			page 23


 975 028c FB18     		adds	r3, r7, r3
 976 028e 1A70     		strb	r2, [r3]
 274:Api\core\src/vl53l0x_api_core.c **** 				& 0xff);
 275:Api\core\src/vl53l0x_api_core.c **** 			NvmRefGoodSpadMap[1] = (uint8_t)((TmpDWord >> 16)
 977              		.loc 1 275 0
 978 0290 3B6B     		ldr	r3, [r7, #48]
 979 0292 1B0C     		lsrs	r3, r3, #16
 980 0294 DAB2     		uxtb	r2, r3
 981 0296 0823     		movs	r3, #8
 982 0298 FB18     		adds	r3, r7, r3
 983 029a 5A70     		strb	r2, [r3, #1]
 276:Api\core\src/vl53l0x_api_core.c **** 				& 0xff);
 277:Api\core\src/vl53l0x_api_core.c **** 			NvmRefGoodSpadMap[2] = (uint8_t)((TmpDWord >> 8)
 984              		.loc 1 277 0
 985 029c 3B6B     		ldr	r3, [r7, #48]
 986 029e 1B0A     		lsrs	r3, r3, #8
 987 02a0 DAB2     		uxtb	r2, r3
 988 02a2 0823     		movs	r3, #8
 989 02a4 FB18     		adds	r3, r7, r3
 990 02a6 9A70     		strb	r2, [r3, #2]
 278:Api\core\src/vl53l0x_api_core.c **** 				& 0xff);
 279:Api\core\src/vl53l0x_api_core.c **** 			NvmRefGoodSpadMap[3] = (uint8_t)(TmpDWord & 0xff);
 991              		.loc 1 279 0
 992 02a8 3B6B     		ldr	r3, [r7, #48]
 993 02aa DAB2     		uxtb	r2, r3
 994 02ac 0823     		movs	r3, #8
 995 02ae FB18     		adds	r3, r7, r3
 996 02b0 DA70     		strb	r2, [r3, #3]
 280:Api\core\src/vl53l0x_api_core.c **** 
 281:Api\core\src/vl53l0x_api_core.c **** 			Status |= VL53L0X_WrByte(Dev, 0x94, 0x25);
 997              		.loc 1 281 0
 998 02b2 7B68     		ldr	r3, [r7, #4]
 999 02b4 2522     		movs	r2, #37
 1000 02b6 9421     		movs	r1, #148
 1001 02b8 1800     		movs	r0, r3
 1002 02ba FFF7FEFF 		bl	VL53L0X_WrByte
 1003 02be 0300     		movs	r3, r0
 1004 02c0 1900     		movs	r1, r3
 1005 02c2 5F23     		movs	r3, #95
 1006 02c4 FB18     		adds	r3, r7, r3
 1007 02c6 5F22     		movs	r2, #95
 1008 02c8 BA18     		adds	r2, r7, r2
 1009 02ca 1278     		ldrb	r2, [r2]
 1010 02cc 0A43     		orrs	r2, r1
 1011 02ce 1A70     		strb	r2, [r3]
 282:Api\core\src/vl53l0x_api_core.c **** 			Status |= VL53L0X_device_read_strobe(Dev);
 1012              		.loc 1 282 0
 1013 02d0 7B68     		ldr	r3, [r7, #4]
 1014 02d2 1800     		movs	r0, r3
 1015 02d4 FFF7FEFF 		bl	VL53L0X_device_read_strobe
 1016 02d8 0300     		movs	r3, r0
 1017 02da 1900     		movs	r1, r3
 1018 02dc 5F23     		movs	r3, #95
 1019 02de FB18     		adds	r3, r7, r3
 1020 02e0 5F22     		movs	r2, #95
 1021 02e2 BA18     		adds	r2, r7, r2
 1022 02e4 1278     		ldrb	r2, [r2]
ARM GAS  C:\Users\ilya\AppData\Local\Temp\ccAjPEqD.s 			page 24


 1023 02e6 0A43     		orrs	r2, r1
 1024 02e8 1A70     		strb	r2, [r3]
 283:Api\core\src/vl53l0x_api_core.c **** 			Status |= VL53L0X_RdDWord(Dev, 0x90, &TmpDWord);
 1025              		.loc 1 283 0
 1026 02ea 3023     		movs	r3, #48
 1027 02ec FA18     		adds	r2, r7, r3
 1028 02ee 7B68     		ldr	r3, [r7, #4]
 1029 02f0 9021     		movs	r1, #144
 1030 02f2 1800     		movs	r0, r3
 1031 02f4 FFF7FEFF 		bl	VL53L0X_RdDWord
 1032 02f8 0300     		movs	r3, r0
 1033 02fa 1900     		movs	r1, r3
 1034 02fc 5F23     		movs	r3, #95
 1035 02fe FB18     		adds	r3, r7, r3
 1036 0300 5F22     		movs	r2, #95
 1037 0302 BA18     		adds	r2, r7, r2
 1038 0304 1278     		ldrb	r2, [r2]
 1039 0306 0A43     		orrs	r2, r1
 1040 0308 1A70     		strb	r2, [r3]
 284:Api\core\src/vl53l0x_api_core.c **** 
 285:Api\core\src/vl53l0x_api_core.c **** 			NvmRefGoodSpadMap[4] = (uint8_t)((TmpDWord >> 24)
 1041              		.loc 1 285 0
 1042 030a 3B6B     		ldr	r3, [r7, #48]
 1043 030c 1B0E     		lsrs	r3, r3, #24
 1044 030e DAB2     		uxtb	r2, r3
 1045 0310 0823     		movs	r3, #8
 1046 0312 FB18     		adds	r3, r7, r3
 1047 0314 1A71     		strb	r2, [r3, #4]
 286:Api\core\src/vl53l0x_api_core.c **** 				& 0xff);
 287:Api\core\src/vl53l0x_api_core.c **** 			NvmRefGoodSpadMap[5] = (uint8_t)((TmpDWord >> 16)
 1048              		.loc 1 287 0
 1049 0316 3B6B     		ldr	r3, [r7, #48]
 1050 0318 1B0C     		lsrs	r3, r3, #16
 1051 031a DAB2     		uxtb	r2, r3
 1052 031c 0823     		movs	r3, #8
 1053 031e FB18     		adds	r3, r7, r3
 1054 0320 5A71     		strb	r2, [r3, #5]
 1055              	.L44:
 288:Api\core\src/vl53l0x_api_core.c **** 				& 0xff);
 289:Api\core\src/vl53l0x_api_core.c **** 		}
 290:Api\core\src/vl53l0x_api_core.c **** 
 291:Api\core\src/vl53l0x_api_core.c **** 		if (((option & 2) == 2) &&
 1056              		.loc 1 291 0
 1057 0322 FB1C     		adds	r3, r7, #3
 1058 0324 1B78     		ldrb	r3, [r3]
 1059 0326 0222     		movs	r2, #2
 1060 0328 1340     		ands	r3, r2
 1061 032a 00D1     		bne	.LCB919
 1062 032c E1E1     		b	.L45	@long jump
 1063              	.LCB919:
 292:Api\core\src/vl53l0x_api_core.c **** 			((ReadDataFromDeviceDone & 2) == 0)) {
 1064              		.loc 1 292 0 discriminator 1
 1065 032e 3F23     		movs	r3, #63
 1066 0330 FB18     		adds	r3, r7, r3
 1067 0332 1B78     		ldrb	r3, [r3]
 1068 0334 0222     		movs	r2, #2
 1069 0336 1340     		ands	r3, r2
ARM GAS  C:\Users\ilya\AppData\Local\Temp\ccAjPEqD.s 			page 25


 291:Api\core\src/vl53l0x_api_core.c **** 			((ReadDataFromDeviceDone & 2) == 0)) {
 1070              		.loc 1 291 0 discriminator 1
 1071 0338 00D0     		beq	.LCB926
 1072 033a DAE1     		b	.L45	@long jump
 1073              	.LCB926:
 293:Api\core\src/vl53l0x_api_core.c **** 
 294:Api\core\src/vl53l0x_api_core.c **** 			Status |= VL53L0X_WrByte(Dev, 0x94, 0x02);
 1074              		.loc 1 294 0
 1075 033c 7B68     		ldr	r3, [r7, #4]
 1076 033e 0222     		movs	r2, #2
 1077 0340 9421     		movs	r1, #148
 1078 0342 1800     		movs	r0, r3
 1079 0344 FFF7FEFF 		bl	VL53L0X_WrByte
 1080 0348 0300     		movs	r3, r0
 1081 034a 1900     		movs	r1, r3
 1082 034c 5F23     		movs	r3, #95
 1083 034e FB18     		adds	r3, r7, r3
 1084 0350 5F22     		movs	r2, #95
 1085 0352 BA18     		adds	r2, r7, r2
 1086 0354 1278     		ldrb	r2, [r2]
 1087 0356 0A43     		orrs	r2, r1
 1088 0358 1A70     		strb	r2, [r3]
 295:Api\core\src/vl53l0x_api_core.c **** 			Status |= VL53L0X_device_read_strobe(Dev);
 1089              		.loc 1 295 0
 1090 035a 7B68     		ldr	r3, [r7, #4]
 1091 035c 1800     		movs	r0, r3
 1092 035e FFF7FEFF 		bl	VL53L0X_device_read_strobe
 1093 0362 0300     		movs	r3, r0
 1094 0364 1900     		movs	r1, r3
 1095 0366 5F23     		movs	r3, #95
 1096 0368 FB18     		adds	r3, r7, r3
 1097 036a 5F22     		movs	r2, #95
 1098 036c BA18     		adds	r2, r7, r2
 1099 036e 1278     		ldrb	r2, [r2]
 1100 0370 0A43     		orrs	r2, r1
 1101 0372 1A70     		strb	r2, [r3]
 296:Api\core\src/vl53l0x_api_core.c **** 			Status |= VL53L0X_RdByte(Dev, 0x90, &ModuleId);
 1102              		.loc 1 296 0
 1103 0374 2F23     		movs	r3, #47
 1104 0376 FA18     		adds	r2, r7, r3
 1105 0378 7B68     		ldr	r3, [r7, #4]
 1106 037a 9021     		movs	r1, #144
 1107 037c 1800     		movs	r0, r3
 1108 037e FFF7FEFF 		bl	VL53L0X_RdByte
 1109 0382 0300     		movs	r3, r0
 1110 0384 1900     		movs	r1, r3
 1111 0386 5F23     		movs	r3, #95
 1112 0388 FB18     		adds	r3, r7, r3
 1113 038a 5F22     		movs	r2, #95
 1114 038c BA18     		adds	r2, r7, r2
 1115 038e 1278     		ldrb	r2, [r2]
 1116 0390 0A43     		orrs	r2, r1
 1117 0392 1A70     		strb	r2, [r3]
 297:Api\core\src/vl53l0x_api_core.c **** 
 298:Api\core\src/vl53l0x_api_core.c **** 			Status |= VL53L0X_WrByte(Dev, 0x94, 0x7B);
 1118              		.loc 1 298 0
 1119 0394 7B68     		ldr	r3, [r7, #4]
ARM GAS  C:\Users\ilya\AppData\Local\Temp\ccAjPEqD.s 			page 26


 1120 0396 7B22     		movs	r2, #123
 1121 0398 9421     		movs	r1, #148
 1122 039a 1800     		movs	r0, r3
 1123 039c FFF7FEFF 		bl	VL53L0X_WrByte
 1124 03a0 0300     		movs	r3, r0
 1125 03a2 1900     		movs	r1, r3
 1126 03a4 5F23     		movs	r3, #95
 1127 03a6 FB18     		adds	r3, r7, r3
 1128 03a8 5F22     		movs	r2, #95
 1129 03aa BA18     		adds	r2, r7, r2
 1130 03ac 1278     		ldrb	r2, [r2]
 1131 03ae 0A43     		orrs	r2, r1
 1132 03b0 1A70     		strb	r2, [r3]
 299:Api\core\src/vl53l0x_api_core.c **** 			Status |= VL53L0X_device_read_strobe(Dev);
 1133              		.loc 1 299 0
 1134 03b2 7B68     		ldr	r3, [r7, #4]
 1135 03b4 1800     		movs	r0, r3
 1136 03b6 FFF7FEFF 		bl	VL53L0X_device_read_strobe
 1137 03ba 0300     		movs	r3, r0
 1138 03bc 1900     		movs	r1, r3
 1139 03be 5F23     		movs	r3, #95
 1140 03c0 FB18     		adds	r3, r7, r3
 1141 03c2 5F22     		movs	r2, #95
 1142 03c4 BA18     		adds	r2, r7, r2
 1143 03c6 1278     		ldrb	r2, [r2]
 1144 03c8 0A43     		orrs	r2, r1
 1145 03ca 1A70     		strb	r2, [r3]
 300:Api\core\src/vl53l0x_api_core.c **** 			Status |= VL53L0X_RdByte(Dev, 0x90, &Revision);
 1146              		.loc 1 300 0
 1147 03cc 2E23     		movs	r3, #46
 1148 03ce FA18     		adds	r2, r7, r3
 1149 03d0 7B68     		ldr	r3, [r7, #4]
 1150 03d2 9021     		movs	r1, #144
 1151 03d4 1800     		movs	r0, r3
 1152 03d6 FFF7FEFF 		bl	VL53L0X_RdByte
 1153 03da 0300     		movs	r3, r0
 1154 03dc 1900     		movs	r1, r3
 1155 03de 5F23     		movs	r3, #95
 1156 03e0 FB18     		adds	r3, r7, r3
 1157 03e2 5F22     		movs	r2, #95
 1158 03e4 BA18     		adds	r2, r7, r2
 1159 03e6 1278     		ldrb	r2, [r2]
 1160 03e8 0A43     		orrs	r2, r1
 1161 03ea 1A70     		strb	r2, [r3]
 301:Api\core\src/vl53l0x_api_core.c **** 
 302:Api\core\src/vl53l0x_api_core.c **** 			Status |= VL53L0X_WrByte(Dev, 0x94, 0x77);
 1162              		.loc 1 302 0
 1163 03ec 7B68     		ldr	r3, [r7, #4]
 1164 03ee 7722     		movs	r2, #119
 1165 03f0 9421     		movs	r1, #148
 1166 03f2 1800     		movs	r0, r3
 1167 03f4 FFF7FEFF 		bl	VL53L0X_WrByte
 1168 03f8 0300     		movs	r3, r0
 1169 03fa 1900     		movs	r1, r3
 1170 03fc 5F23     		movs	r3, #95
 1171 03fe FB18     		adds	r3, r7, r3
 1172 0400 5F22     		movs	r2, #95
ARM GAS  C:\Users\ilya\AppData\Local\Temp\ccAjPEqD.s 			page 27


 1173 0402 BA18     		adds	r2, r7, r2
 1174 0404 1278     		ldrb	r2, [r2]
 1175 0406 0A43     		orrs	r2, r1
 1176 0408 1A70     		strb	r2, [r3]
 303:Api\core\src/vl53l0x_api_core.c **** 			Status |= VL53L0X_device_read_strobe(Dev);
 1177              		.loc 1 303 0
 1178 040a 7B68     		ldr	r3, [r7, #4]
 1179 040c 1800     		movs	r0, r3
 1180 040e FFF7FEFF 		bl	VL53L0X_device_read_strobe
 1181 0412 0300     		movs	r3, r0
 1182 0414 1900     		movs	r1, r3
 1183 0416 5F23     		movs	r3, #95
 1184 0418 FB18     		adds	r3, r7, r3
 1185 041a 5F22     		movs	r2, #95
 1186 041c BA18     		adds	r2, r7, r2
 1187 041e 1278     		ldrb	r2, [r2]
 1188 0420 0A43     		orrs	r2, r1
 1189 0422 1A70     		strb	r2, [r3]
 304:Api\core\src/vl53l0x_api_core.c **** 			Status |= VL53L0X_RdDWord(Dev, 0x90, &TmpDWord);
 1190              		.loc 1 304 0
 1191 0424 3023     		movs	r3, #48
 1192 0426 FA18     		adds	r2, r7, r3
 1193 0428 7B68     		ldr	r3, [r7, #4]
 1194 042a 9021     		movs	r1, #144
 1195 042c 1800     		movs	r0, r3
 1196 042e FFF7FEFF 		bl	VL53L0X_RdDWord
 1197 0432 0300     		movs	r3, r0
 1198 0434 1900     		movs	r1, r3
 1199 0436 5F23     		movs	r3, #95
 1200 0438 FB18     		adds	r3, r7, r3
 1201 043a 5F22     		movs	r2, #95
 1202 043c BA18     		adds	r2, r7, r2
 1203 043e 1278     		ldrb	r2, [r2]
 1204 0440 0A43     		orrs	r2, r1
 1205 0442 1A70     		strb	r2, [r3]
 305:Api\core\src/vl53l0x_api_core.c **** 
 306:Api\core\src/vl53l0x_api_core.c **** 			ProductId[0] = (char)((TmpDWord >> 25) & 0x07f);
 1206              		.loc 1 306 0
 1207 0444 3B6B     		ldr	r3, [r7, #48]
 1208 0446 5B0E     		lsrs	r3, r3, #25
 1209 0448 DBB2     		uxtb	r3, r3
 1210 044a 7F22     		movs	r2, #127
 1211 044c 1340     		ands	r3, r2
 1212 044e DAB2     		uxtb	r2, r3
 1213 0450 1023     		movs	r3, #16
 1214 0452 FB18     		adds	r3, r7, r3
 1215 0454 1A70     		strb	r2, [r3]
 307:Api\core\src/vl53l0x_api_core.c **** 			ProductId[1] = (char)((TmpDWord >> 18) & 0x07f);
 1216              		.loc 1 307 0
 1217 0456 3B6B     		ldr	r3, [r7, #48]
 1218 0458 9B0C     		lsrs	r3, r3, #18
 1219 045a DBB2     		uxtb	r3, r3
 1220 045c 7F22     		movs	r2, #127
 1221 045e 1340     		ands	r3, r2
 1222 0460 DAB2     		uxtb	r2, r3
 1223 0462 1023     		movs	r3, #16
 1224 0464 FB18     		adds	r3, r7, r3
ARM GAS  C:\Users\ilya\AppData\Local\Temp\ccAjPEqD.s 			page 28


 1225 0466 5A70     		strb	r2, [r3, #1]
 308:Api\core\src/vl53l0x_api_core.c **** 			ProductId[2] = (char)((TmpDWord >> 11) & 0x07f);
 1226              		.loc 1 308 0
 1227 0468 3B6B     		ldr	r3, [r7, #48]
 1228 046a DB0A     		lsrs	r3, r3, #11
 1229 046c DBB2     		uxtb	r3, r3
 1230 046e 7F22     		movs	r2, #127
 1231 0470 1340     		ands	r3, r2
 1232 0472 DAB2     		uxtb	r2, r3
 1233 0474 1023     		movs	r3, #16
 1234 0476 FB18     		adds	r3, r7, r3
 1235 0478 9A70     		strb	r2, [r3, #2]
 309:Api\core\src/vl53l0x_api_core.c **** 			ProductId[3] = (char)((TmpDWord >> 4) & 0x07f);
 1236              		.loc 1 309 0
 1237 047a 3B6B     		ldr	r3, [r7, #48]
 1238 047c 1B09     		lsrs	r3, r3, #4
 1239 047e DBB2     		uxtb	r3, r3
 1240 0480 7F22     		movs	r2, #127
 1241 0482 1340     		ands	r3, r2
 1242 0484 DAB2     		uxtb	r2, r3
 1243 0486 1023     		movs	r3, #16
 1244 0488 FB18     		adds	r3, r7, r3
 1245 048a DA70     		strb	r2, [r3, #3]
 310:Api\core\src/vl53l0x_api_core.c **** 
 311:Api\core\src/vl53l0x_api_core.c **** 			byte = (uint8_t)((TmpDWord & 0x00f) << 3);
 1246              		.loc 1 311 0
 1247 048c 3B6B     		ldr	r3, [r7, #48]
 1248 048e DBB2     		uxtb	r3, r3
 1249 0490 DB00     		lsls	r3, r3, #3
 1250 0492 DBB2     		uxtb	r3, r3
 1251 0494 7822     		movs	r2, #120
 1252 0496 1340     		ands	r3, r2
 1253 0498 DAB2     		uxtb	r2, r3
 1254 049a 3723     		movs	r3, #55
 1255 049c FB18     		adds	r3, r7, r3
 1256 049e 1A70     		strb	r2, [r3]
 312:Api\core\src/vl53l0x_api_core.c **** 
 313:Api\core\src/vl53l0x_api_core.c **** 			Status |= VL53L0X_WrByte(Dev, 0x94, 0x78);
 1257              		.loc 1 313 0
 1258 04a0 7B68     		ldr	r3, [r7, #4]
 1259 04a2 7822     		movs	r2, #120
 1260 04a4 9421     		movs	r1, #148
 1261 04a6 1800     		movs	r0, r3
 1262 04a8 FFF7FEFF 		bl	VL53L0X_WrByte
 1263 04ac 0300     		movs	r3, r0
 1264 04ae 1900     		movs	r1, r3
 1265 04b0 5F23     		movs	r3, #95
 1266 04b2 FB18     		adds	r3, r7, r3
 1267 04b4 5F22     		movs	r2, #95
 1268 04b6 BA18     		adds	r2, r7, r2
 1269 04b8 1278     		ldrb	r2, [r2]
 1270 04ba 0A43     		orrs	r2, r1
 1271 04bc 1A70     		strb	r2, [r3]
 314:Api\core\src/vl53l0x_api_core.c **** 			Status |= VL53L0X_device_read_strobe(Dev);
 1272              		.loc 1 314 0
 1273 04be 7B68     		ldr	r3, [r7, #4]
 1274 04c0 1800     		movs	r0, r3
ARM GAS  C:\Users\ilya\AppData\Local\Temp\ccAjPEqD.s 			page 29


 1275 04c2 FFF7FEFF 		bl	VL53L0X_device_read_strobe
 1276 04c6 0300     		movs	r3, r0
 1277 04c8 1900     		movs	r1, r3
 1278 04ca 5F23     		movs	r3, #95
 1279 04cc FB18     		adds	r3, r7, r3
 1280 04ce 5F22     		movs	r2, #95
 1281 04d0 BA18     		adds	r2, r7, r2
 1282 04d2 1278     		ldrb	r2, [r2]
 1283 04d4 0A43     		orrs	r2, r1
 1284 04d6 1A70     		strb	r2, [r3]
 315:Api\core\src/vl53l0x_api_core.c **** 			Status |= VL53L0X_RdDWord(Dev, 0x90, &TmpDWord);
 1285              		.loc 1 315 0
 1286 04d8 3023     		movs	r3, #48
 1287 04da FA18     		adds	r2, r7, r3
 1288 04dc 7B68     		ldr	r3, [r7, #4]
 1289 04de 9021     		movs	r1, #144
 1290 04e0 1800     		movs	r0, r3
 1291 04e2 FFF7FEFF 		bl	VL53L0X_RdDWord
 1292 04e6 0300     		movs	r3, r0
 1293 04e8 1900     		movs	r1, r3
 1294 04ea 5F23     		movs	r3, #95
 1295 04ec FB18     		adds	r3, r7, r3
 1296 04ee 5F22     		movs	r2, #95
 1297 04f0 BA18     		adds	r2, r7, r2
 1298 04f2 1278     		ldrb	r2, [r2]
 1299 04f4 0A43     		orrs	r2, r1
 1300 04f6 1A70     		strb	r2, [r3]
 316:Api\core\src/vl53l0x_api_core.c **** 
 317:Api\core\src/vl53l0x_api_core.c **** 			ProductId[4] = (char)(byte +
 318:Api\core\src/vl53l0x_api_core.c **** 					((TmpDWord >> 29) & 0x07f));
 1301              		.loc 1 318 0
 1302 04f8 3B6B     		ldr	r3, [r7, #48]
 1303 04fa 5B0F     		lsrs	r3, r3, #29
 317:Api\core\src/vl53l0x_api_core.c **** 					((TmpDWord >> 29) & 0x07f));
 1304              		.loc 1 317 0
 1305 04fc DBB2     		uxtb	r3, r3
 1306 04fe 7F22     		movs	r2, #127
 1307 0500 1340     		ands	r3, r2
 1308 0502 DAB2     		uxtb	r2, r3
 1309 0504 3723     		movs	r3, #55
 1310 0506 FB18     		adds	r3, r7, r3
 1311 0508 1B78     		ldrb	r3, [r3]
 1312 050a D318     		adds	r3, r2, r3
 1313 050c DAB2     		uxtb	r2, r3
 1314 050e 1023     		movs	r3, #16
 1315 0510 FB18     		adds	r3, r7, r3
 1316 0512 1A71     		strb	r2, [r3, #4]
 319:Api\core\src/vl53l0x_api_core.c **** 			ProductId[5] = (char)((TmpDWord >> 22) & 0x07f);
 1317              		.loc 1 319 0
 1318 0514 3B6B     		ldr	r3, [r7, #48]
 1319 0516 9B0D     		lsrs	r3, r3, #22
 1320 0518 DBB2     		uxtb	r3, r3
 1321 051a 7F22     		movs	r2, #127
 1322 051c 1340     		ands	r3, r2
 1323 051e DAB2     		uxtb	r2, r3
 1324 0520 1023     		movs	r3, #16
 1325 0522 FB18     		adds	r3, r7, r3
ARM GAS  C:\Users\ilya\AppData\Local\Temp\ccAjPEqD.s 			page 30


 1326 0524 5A71     		strb	r2, [r3, #5]
 320:Api\core\src/vl53l0x_api_core.c **** 			ProductId[6] = (char)((TmpDWord >> 15) & 0x07f);
 1327              		.loc 1 320 0
 1328 0526 3B6B     		ldr	r3, [r7, #48]
 1329 0528 DB0B     		lsrs	r3, r3, #15
 1330 052a DBB2     		uxtb	r3, r3
 1331 052c 7F22     		movs	r2, #127
 1332 052e 1340     		ands	r3, r2
 1333 0530 DAB2     		uxtb	r2, r3
 1334 0532 1023     		movs	r3, #16
 1335 0534 FB18     		adds	r3, r7, r3
 1336 0536 9A71     		strb	r2, [r3, #6]
 321:Api\core\src/vl53l0x_api_core.c **** 			ProductId[7] = (char)((TmpDWord >> 8) & 0x07f);
 1337              		.loc 1 321 0
 1338 0538 3B6B     		ldr	r3, [r7, #48]
 1339 053a 1B0A     		lsrs	r3, r3, #8
 1340 053c DBB2     		uxtb	r3, r3
 1341 053e 7F22     		movs	r2, #127
 1342 0540 1340     		ands	r3, r2
 1343 0542 DAB2     		uxtb	r2, r3
 1344 0544 1023     		movs	r3, #16
 1345 0546 FB18     		adds	r3, r7, r3
 1346 0548 DA71     		strb	r2, [r3, #7]
 322:Api\core\src/vl53l0x_api_core.c **** 			ProductId[8] = (char)((TmpDWord >> 1) & 0x07f);
 1347              		.loc 1 322 0
 1348 054a 3B6B     		ldr	r3, [r7, #48]
 1349 054c 5B08     		lsrs	r3, r3, #1
 1350 054e DBB2     		uxtb	r3, r3
 1351 0550 7F22     		movs	r2, #127
 1352 0552 1340     		ands	r3, r2
 1353 0554 DAB2     		uxtb	r2, r3
 1354 0556 1023     		movs	r3, #16
 1355 0558 FB18     		adds	r3, r7, r3
 1356 055a 1A72     		strb	r2, [r3, #8]
 323:Api\core\src/vl53l0x_api_core.c **** 
 324:Api\core\src/vl53l0x_api_core.c **** 			byte = (uint8_t)((TmpDWord & 0x001) << 6);
 1357              		.loc 1 324 0
 1358 055c 3B6B     		ldr	r3, [r7, #48]
 1359 055e DBB2     		uxtb	r3, r3
 1360 0560 9B01     		lsls	r3, r3, #6
 1361 0562 DBB2     		uxtb	r3, r3
 1362 0564 4022     		movs	r2, #64
 1363 0566 1340     		ands	r3, r2
 1364 0568 DAB2     		uxtb	r2, r3
 1365 056a 3723     		movs	r3, #55
 1366 056c FB18     		adds	r3, r7, r3
 1367 056e 1A70     		strb	r2, [r3]
 325:Api\core\src/vl53l0x_api_core.c **** 
 326:Api\core\src/vl53l0x_api_core.c **** 			Status |= VL53L0X_WrByte(Dev, 0x94, 0x79);
 1368              		.loc 1 326 0
 1369 0570 7B68     		ldr	r3, [r7, #4]
 1370 0572 7922     		movs	r2, #121
 1371 0574 9421     		movs	r1, #148
 1372 0576 1800     		movs	r0, r3
 1373 0578 FFF7FEFF 		bl	VL53L0X_WrByte
 1374 057c 0300     		movs	r3, r0
 1375 057e 1900     		movs	r1, r3
ARM GAS  C:\Users\ilya\AppData\Local\Temp\ccAjPEqD.s 			page 31


 1376 0580 5F23     		movs	r3, #95
 1377 0582 FB18     		adds	r3, r7, r3
 1378 0584 5F22     		movs	r2, #95
 1379 0586 BA18     		adds	r2, r7, r2
 1380 0588 1278     		ldrb	r2, [r2]
 1381 058a 0A43     		orrs	r2, r1
 1382 058c 1A70     		strb	r2, [r3]
 327:Api\core\src/vl53l0x_api_core.c **** 
 328:Api\core\src/vl53l0x_api_core.c **** 			Status |= VL53L0X_device_read_strobe(Dev);
 1383              		.loc 1 328 0
 1384 058e 7B68     		ldr	r3, [r7, #4]
 1385 0590 1800     		movs	r0, r3
 1386 0592 FFF7FEFF 		bl	VL53L0X_device_read_strobe
 1387 0596 0300     		movs	r3, r0
 1388 0598 1900     		movs	r1, r3
 1389 059a 5F23     		movs	r3, #95
 1390 059c FB18     		adds	r3, r7, r3
 1391 059e 5F22     		movs	r2, #95
 1392 05a0 BA18     		adds	r2, r7, r2
 1393 05a2 1278     		ldrb	r2, [r2]
 1394 05a4 0A43     		orrs	r2, r1
 1395 05a6 1A70     		strb	r2, [r3]
 329:Api\core\src/vl53l0x_api_core.c **** 
 330:Api\core\src/vl53l0x_api_core.c **** 			Status |= VL53L0X_RdDWord(Dev, 0x90, &TmpDWord);
 1396              		.loc 1 330 0
 1397 05a8 3023     		movs	r3, #48
 1398 05aa FA18     		adds	r2, r7, r3
 1399 05ac 7B68     		ldr	r3, [r7, #4]
 1400 05ae 9021     		movs	r1, #144
 1401 05b0 1800     		movs	r0, r3
 1402 05b2 FFF7FEFF 		bl	VL53L0X_RdDWord
 1403 05b6 0300     		movs	r3, r0
 1404 05b8 1900     		movs	r1, r3
 1405 05ba 5F23     		movs	r3, #95
 1406 05bc FB18     		adds	r3, r7, r3
 1407 05be 5F22     		movs	r2, #95
 1408 05c0 BA18     		adds	r2, r7, r2
 1409 05c2 1278     		ldrb	r2, [r2]
 1410 05c4 0A43     		orrs	r2, r1
 1411 05c6 1A70     		strb	r2, [r3]
 331:Api\core\src/vl53l0x_api_core.c **** 
 332:Api\core\src/vl53l0x_api_core.c **** 			ProductId[9] = (char)(byte +
 333:Api\core\src/vl53l0x_api_core.c **** 					((TmpDWord >> 26) & 0x07f));
 1412              		.loc 1 333 0
 1413 05c8 3B6B     		ldr	r3, [r7, #48]
 1414 05ca 9B0E     		lsrs	r3, r3, #26
 332:Api\core\src/vl53l0x_api_core.c **** 					((TmpDWord >> 26) & 0x07f));
 1415              		.loc 1 332 0
 1416 05cc DBB2     		uxtb	r3, r3
 1417 05ce 7F22     		movs	r2, #127
 1418 05d0 1340     		ands	r3, r2
 1419 05d2 DAB2     		uxtb	r2, r3
 1420 05d4 3723     		movs	r3, #55
 1421 05d6 FB18     		adds	r3, r7, r3
 1422 05d8 1B78     		ldrb	r3, [r3]
 1423 05da D318     		adds	r3, r2, r3
 1424 05dc DAB2     		uxtb	r2, r3
ARM GAS  C:\Users\ilya\AppData\Local\Temp\ccAjPEqD.s 			page 32


 1425 05de 1023     		movs	r3, #16
 1426 05e0 FB18     		adds	r3, r7, r3
 1427 05e2 5A72     		strb	r2, [r3, #9]
 334:Api\core\src/vl53l0x_api_core.c **** 			ProductId[10] = (char)((TmpDWord >> 19) & 0x07f);
 1428              		.loc 1 334 0
 1429 05e4 3B6B     		ldr	r3, [r7, #48]
 1430 05e6 DB0C     		lsrs	r3, r3, #19
 1431 05e8 DBB2     		uxtb	r3, r3
 1432 05ea 7F22     		movs	r2, #127
 1433 05ec 1340     		ands	r3, r2
 1434 05ee DAB2     		uxtb	r2, r3
 1435 05f0 1023     		movs	r3, #16
 1436 05f2 FB18     		adds	r3, r7, r3
 1437 05f4 9A72     		strb	r2, [r3, #10]
 335:Api\core\src/vl53l0x_api_core.c **** 			ProductId[11] = (char)((TmpDWord >> 12) & 0x07f);
 1438              		.loc 1 335 0
 1439 05f6 3B6B     		ldr	r3, [r7, #48]
 1440 05f8 1B0B     		lsrs	r3, r3, #12
 1441 05fa DBB2     		uxtb	r3, r3
 1442 05fc 7F22     		movs	r2, #127
 1443 05fe 1340     		ands	r3, r2
 1444 0600 DAB2     		uxtb	r2, r3
 1445 0602 1023     		movs	r3, #16
 1446 0604 FB18     		adds	r3, r7, r3
 1447 0606 DA72     		strb	r2, [r3, #11]
 336:Api\core\src/vl53l0x_api_core.c **** 			ProductId[12] = (char)((TmpDWord >> 5) & 0x07f);
 1448              		.loc 1 336 0
 1449 0608 3B6B     		ldr	r3, [r7, #48]
 1450 060a 5B09     		lsrs	r3, r3, #5
 1451 060c DBB2     		uxtb	r3, r3
 1452 060e 7F22     		movs	r2, #127
 1453 0610 1340     		ands	r3, r2
 1454 0612 DAB2     		uxtb	r2, r3
 1455 0614 1023     		movs	r3, #16
 1456 0616 FB18     		adds	r3, r7, r3
 1457 0618 1A73     		strb	r2, [r3, #12]
 337:Api\core\src/vl53l0x_api_core.c **** 
 338:Api\core\src/vl53l0x_api_core.c **** 			byte = (uint8_t)((TmpDWord & 0x01f) << 2);
 1458              		.loc 1 338 0
 1459 061a 3B6B     		ldr	r3, [r7, #48]
 1460 061c DBB2     		uxtb	r3, r3
 1461 061e 9B00     		lsls	r3, r3, #2
 1462 0620 DBB2     		uxtb	r3, r3
 1463 0622 7C22     		movs	r2, #124
 1464 0624 1340     		ands	r3, r2
 1465 0626 DAB2     		uxtb	r2, r3
 1466 0628 3723     		movs	r3, #55
 1467 062a FB18     		adds	r3, r7, r3
 1468 062c 1A70     		strb	r2, [r3]
 339:Api\core\src/vl53l0x_api_core.c **** 
 340:Api\core\src/vl53l0x_api_core.c **** 			Status |= VL53L0X_WrByte(Dev, 0x94, 0x7A);
 1469              		.loc 1 340 0
 1470 062e 7B68     		ldr	r3, [r7, #4]
 1471 0630 7A22     		movs	r2, #122
 1472 0632 9421     		movs	r1, #148
 1473 0634 1800     		movs	r0, r3
 1474 0636 FFF7FEFF 		bl	VL53L0X_WrByte
ARM GAS  C:\Users\ilya\AppData\Local\Temp\ccAjPEqD.s 			page 33


 1475 063a 0300     		movs	r3, r0
 1476 063c 1900     		movs	r1, r3
 1477 063e 5F23     		movs	r3, #95
 1478 0640 FB18     		adds	r3, r7, r3
 1479 0642 5F22     		movs	r2, #95
 1480 0644 BA18     		adds	r2, r7, r2
 1481 0646 1278     		ldrb	r2, [r2]
 1482 0648 0A43     		orrs	r2, r1
 1483 064a 1A70     		strb	r2, [r3]
 341:Api\core\src/vl53l0x_api_core.c **** 
 342:Api\core\src/vl53l0x_api_core.c **** 			Status |= VL53L0X_device_read_strobe(Dev);
 1484              		.loc 1 342 0
 1485 064c 7B68     		ldr	r3, [r7, #4]
 1486 064e 1800     		movs	r0, r3
 1487 0650 FFF7FEFF 		bl	VL53L0X_device_read_strobe
 1488 0654 0300     		movs	r3, r0
 1489 0656 1900     		movs	r1, r3
 1490 0658 5F23     		movs	r3, #95
 1491 065a FB18     		adds	r3, r7, r3
 1492 065c 5F22     		movs	r2, #95
 1493 065e BA18     		adds	r2, r7, r2
 1494 0660 1278     		ldrb	r2, [r2]
 1495 0662 0A43     		orrs	r2, r1
 1496 0664 1A70     		strb	r2, [r3]
 343:Api\core\src/vl53l0x_api_core.c **** 
 344:Api\core\src/vl53l0x_api_core.c **** 			Status |= VL53L0X_RdDWord(Dev, 0x90, &TmpDWord);
 1497              		.loc 1 344 0
 1498 0666 3023     		movs	r3, #48
 1499 0668 FA18     		adds	r2, r7, r3
 1500 066a 7B68     		ldr	r3, [r7, #4]
 1501 066c 9021     		movs	r1, #144
 1502 066e 1800     		movs	r0, r3
 1503 0670 FFF7FEFF 		bl	VL53L0X_RdDWord
 1504 0674 0300     		movs	r3, r0
 1505 0676 1900     		movs	r1, r3
 1506 0678 5F23     		movs	r3, #95
 1507 067a FB18     		adds	r3, r7, r3
 1508 067c 5F22     		movs	r2, #95
 1509 067e BA18     		adds	r2, r7, r2
 1510 0680 1278     		ldrb	r2, [r2]
 1511 0682 0A43     		orrs	r2, r1
 1512 0684 1A70     		strb	r2, [r3]
 345:Api\core\src/vl53l0x_api_core.c **** 
 346:Api\core\src/vl53l0x_api_core.c **** 			ProductId[13] = (char)(byte +
 347:Api\core\src/vl53l0x_api_core.c **** 					((TmpDWord >> 30) & 0x07f));
 1513              		.loc 1 347 0
 1514 0686 3B6B     		ldr	r3, [r7, #48]
 1515 0688 9B0F     		lsrs	r3, r3, #30
 346:Api\core\src/vl53l0x_api_core.c **** 					((TmpDWord >> 30) & 0x07f));
 1516              		.loc 1 346 0
 1517 068a DBB2     		uxtb	r3, r3
 1518 068c 7F22     		movs	r2, #127
 1519 068e 1340     		ands	r3, r2
 1520 0690 DAB2     		uxtb	r2, r3
 1521 0692 3723     		movs	r3, #55
 1522 0694 FB18     		adds	r3, r7, r3
 1523 0696 1B78     		ldrb	r3, [r3]
ARM GAS  C:\Users\ilya\AppData\Local\Temp\ccAjPEqD.s 			page 34


 1524 0698 D318     		adds	r3, r2, r3
 1525 069a DAB2     		uxtb	r2, r3
 1526 069c 1023     		movs	r3, #16
 1527 069e FB18     		adds	r3, r7, r3
 1528 06a0 5A73     		strb	r2, [r3, #13]
 348:Api\core\src/vl53l0x_api_core.c **** 			ProductId[14] = (char)((TmpDWord >> 23) & 0x07f);
 1529              		.loc 1 348 0
 1530 06a2 3B6B     		ldr	r3, [r7, #48]
 1531 06a4 DB0D     		lsrs	r3, r3, #23
 1532 06a6 DBB2     		uxtb	r3, r3
 1533 06a8 7F22     		movs	r2, #127
 1534 06aa 1340     		ands	r3, r2
 1535 06ac DAB2     		uxtb	r2, r3
 1536 06ae 1023     		movs	r3, #16
 1537 06b0 FB18     		adds	r3, r7, r3
 1538 06b2 9A73     		strb	r2, [r3, #14]
 349:Api\core\src/vl53l0x_api_core.c **** 			ProductId[15] = (char)((TmpDWord >> 16) & 0x07f);
 1539              		.loc 1 349 0
 1540 06b4 3B6B     		ldr	r3, [r7, #48]
 1541 06b6 1B0C     		lsrs	r3, r3, #16
 1542 06b8 DBB2     		uxtb	r3, r3
 1543 06ba 7F22     		movs	r2, #127
 1544 06bc 1340     		ands	r3, r2
 1545 06be DAB2     		uxtb	r2, r3
 1546 06c0 1023     		movs	r3, #16
 1547 06c2 FB18     		adds	r3, r7, r3
 1548 06c4 DA73     		strb	r2, [r3, #15]
 350:Api\core\src/vl53l0x_api_core.c **** 			ProductId[16] = (char)((TmpDWord >> 9) & 0x07f);
 1549              		.loc 1 350 0
 1550 06c6 3B6B     		ldr	r3, [r7, #48]
 1551 06c8 5B0A     		lsrs	r3, r3, #9
 1552 06ca DBB2     		uxtb	r3, r3
 1553 06cc 7F22     		movs	r2, #127
 1554 06ce 1340     		ands	r3, r2
 1555 06d0 DAB2     		uxtb	r2, r3
 1556 06d2 1023     		movs	r3, #16
 1557 06d4 FB18     		adds	r3, r7, r3
 1558 06d6 1A74     		strb	r2, [r3, #16]
 351:Api\core\src/vl53l0x_api_core.c **** 			ProductId[17] = (char)((TmpDWord >> 2) & 0x07f);
 1559              		.loc 1 351 0
 1560 06d8 3B6B     		ldr	r3, [r7, #48]
 1561 06da 9B08     		lsrs	r3, r3, #2
 1562 06dc DBB2     		uxtb	r3, r3
 1563 06de 7F22     		movs	r2, #127
 1564 06e0 1340     		ands	r3, r2
 1565 06e2 DAB2     		uxtb	r2, r3
 1566 06e4 1023     		movs	r3, #16
 1567 06e6 FB18     		adds	r3, r7, r3
 1568 06e8 5A74     		strb	r2, [r3, #17]
 352:Api\core\src/vl53l0x_api_core.c **** 			ProductId[18] = '\0';
 1569              		.loc 1 352 0
 1570 06ea 1023     		movs	r3, #16
 1571 06ec FB18     		adds	r3, r7, r3
 1572 06ee 0022     		movs	r2, #0
 1573 06f0 9A74     		strb	r2, [r3, #18]
 1574              	.L45:
 353:Api\core\src/vl53l0x_api_core.c **** 
ARM GAS  C:\Users\ilya\AppData\Local\Temp\ccAjPEqD.s 			page 35


 354:Api\core\src/vl53l0x_api_core.c **** 		}
 355:Api\core\src/vl53l0x_api_core.c **** 
 356:Api\core\src/vl53l0x_api_core.c **** 		if (((option & 4) == 4) &&
 1575              		.loc 1 356 0
 1576 06f2 FB1C     		adds	r3, r7, #3
 1577 06f4 1B78     		ldrb	r3, [r3]
 1578 06f6 0422     		movs	r2, #4
 1579 06f8 1340     		ands	r3, r2
 1580 06fa 00D1     		bne	.LCB1391
 1581 06fc 22E1     		b	.L46	@long jump
 1582              	.LCB1391:
 357:Api\core\src/vl53l0x_api_core.c **** 			((ReadDataFromDeviceDone & 4) == 0)) {
 1583              		.loc 1 357 0 discriminator 1
 1584 06fe 3F23     		movs	r3, #63
 1585 0700 FB18     		adds	r3, r7, r3
 1586 0702 1B78     		ldrb	r3, [r3]
 1587 0704 0422     		movs	r2, #4
 1588 0706 1340     		ands	r3, r2
 356:Api\core\src/vl53l0x_api_core.c **** 			((ReadDataFromDeviceDone & 4) == 0)) {
 1589              		.loc 1 356 0 discriminator 1
 1590 0708 00D0     		beq	.LCB1398
 1591 070a 1BE1     		b	.L46	@long jump
 1592              	.LCB1398:
 358:Api\core\src/vl53l0x_api_core.c **** 
 359:Api\core\src/vl53l0x_api_core.c **** 			Status |= VL53L0X_WrByte(Dev, 0x94, 0x7B);
 1593              		.loc 1 359 0
 1594 070c 7B68     		ldr	r3, [r7, #4]
 1595 070e 7B22     		movs	r2, #123
 1596 0710 9421     		movs	r1, #148
 1597 0712 1800     		movs	r0, r3
 1598 0714 FFF7FEFF 		bl	VL53L0X_WrByte
 1599 0718 0300     		movs	r3, r0
 1600 071a 1900     		movs	r1, r3
 1601 071c 5F23     		movs	r3, #95
 1602 071e FB18     		adds	r3, r7, r3
 1603 0720 5F22     		movs	r2, #95
 1604 0722 BA18     		adds	r2, r7, r2
 1605 0724 1278     		ldrb	r2, [r2]
 1606 0726 0A43     		orrs	r2, r1
 1607 0728 1A70     		strb	r2, [r3]
 360:Api\core\src/vl53l0x_api_core.c **** 			Status |= VL53L0X_device_read_strobe(Dev);
 1608              		.loc 1 360 0
 1609 072a 7B68     		ldr	r3, [r7, #4]
 1610 072c 1800     		movs	r0, r3
 1611 072e FFF7FEFF 		bl	VL53L0X_device_read_strobe
 1612 0732 0300     		movs	r3, r0
 1613 0734 1900     		movs	r1, r3
 1614 0736 5F23     		movs	r3, #95
 1615 0738 FB18     		adds	r3, r7, r3
 1616 073a 5F22     		movs	r2, #95
 1617 073c BA18     		adds	r2, r7, r2
 1618 073e 1278     		ldrb	r2, [r2]
 1619 0740 0A43     		orrs	r2, r1
 1620 0742 1A70     		strb	r2, [r3]
 361:Api\core\src/vl53l0x_api_core.c **** 			Status |= VL53L0X_RdDWord(Dev, 0x90, &PartUIDUpper);
 1621              		.loc 1 361 0
 1622 0744 2823     		movs	r3, #40
ARM GAS  C:\Users\ilya\AppData\Local\Temp\ccAjPEqD.s 			page 36


 1623 0746 FA18     		adds	r2, r7, r3
 1624 0748 7B68     		ldr	r3, [r7, #4]
 1625 074a 9021     		movs	r1, #144
 1626 074c 1800     		movs	r0, r3
 1627 074e FFF7FEFF 		bl	VL53L0X_RdDWord
 1628 0752 0300     		movs	r3, r0
 1629 0754 1900     		movs	r1, r3
 1630 0756 5F23     		movs	r3, #95
 1631 0758 FB18     		adds	r3, r7, r3
 1632 075a 5F22     		movs	r2, #95
 1633 075c BA18     		adds	r2, r7, r2
 1634 075e 1278     		ldrb	r2, [r2]
 1635 0760 0A43     		orrs	r2, r1
 1636 0762 1A70     		strb	r2, [r3]
 362:Api\core\src/vl53l0x_api_core.c **** 
 363:Api\core\src/vl53l0x_api_core.c **** 			Status |= VL53L0X_WrByte(Dev, 0x94, 0x7C);
 1637              		.loc 1 363 0
 1638 0764 7B68     		ldr	r3, [r7, #4]
 1639 0766 7C22     		movs	r2, #124
 1640 0768 9421     		movs	r1, #148
 1641 076a 1800     		movs	r0, r3
 1642 076c FFF7FEFF 		bl	VL53L0X_WrByte
 1643 0770 0300     		movs	r3, r0
 1644 0772 1900     		movs	r1, r3
 1645 0774 5F23     		movs	r3, #95
 1646 0776 FB18     		adds	r3, r7, r3
 1647 0778 5F22     		movs	r2, #95
 1648 077a BA18     		adds	r2, r7, r2
 1649 077c 1278     		ldrb	r2, [r2]
 1650 077e 0A43     		orrs	r2, r1
 1651 0780 1A70     		strb	r2, [r3]
 364:Api\core\src/vl53l0x_api_core.c **** 			Status |= VL53L0X_device_read_strobe(Dev);
 1652              		.loc 1 364 0
 1653 0782 7B68     		ldr	r3, [r7, #4]
 1654 0784 1800     		movs	r0, r3
 1655 0786 FFF7FEFF 		bl	VL53L0X_device_read_strobe
 1656 078a 0300     		movs	r3, r0
 1657 078c 1900     		movs	r1, r3
 1658 078e 5F23     		movs	r3, #95
 1659 0790 FB18     		adds	r3, r7, r3
 1660 0792 5F22     		movs	r2, #95
 1661 0794 BA18     		adds	r2, r7, r2
 1662 0796 1278     		ldrb	r2, [r2]
 1663 0798 0A43     		orrs	r2, r1
 1664 079a 1A70     		strb	r2, [r3]
 365:Api\core\src/vl53l0x_api_core.c **** 			Status |= VL53L0X_RdDWord(Dev, 0x90, &PartUIDLower);
 1665              		.loc 1 365 0
 1666 079c 2423     		movs	r3, #36
 1667 079e FA18     		adds	r2, r7, r3
 1668 07a0 7B68     		ldr	r3, [r7, #4]
 1669 07a2 9021     		movs	r1, #144
 1670 07a4 1800     		movs	r0, r3
 1671 07a6 FFF7FEFF 		bl	VL53L0X_RdDWord
 1672 07aa 0300     		movs	r3, r0
 1673 07ac 1900     		movs	r1, r3
 1674 07ae 5F23     		movs	r3, #95
 1675 07b0 FB18     		adds	r3, r7, r3
ARM GAS  C:\Users\ilya\AppData\Local\Temp\ccAjPEqD.s 			page 37


 1676 07b2 5F22     		movs	r2, #95
 1677 07b4 BA18     		adds	r2, r7, r2
 1678 07b6 1278     		ldrb	r2, [r2]
 1679 07b8 0A43     		orrs	r2, r1
 1680 07ba 1A70     		strb	r2, [r3]
 366:Api\core\src/vl53l0x_api_core.c **** 
 367:Api\core\src/vl53l0x_api_core.c **** 			Status |= VL53L0X_WrByte(Dev, 0x94, 0x73);
 1681              		.loc 1 367 0
 1682 07bc 7B68     		ldr	r3, [r7, #4]
 1683 07be 7322     		movs	r2, #115
 1684 07c0 9421     		movs	r1, #148
 1685 07c2 1800     		movs	r0, r3
 1686 07c4 FFF7FEFF 		bl	VL53L0X_WrByte
 1687 07c8 0300     		movs	r3, r0
 1688 07ca 1900     		movs	r1, r3
 1689 07cc 5F23     		movs	r3, #95
 1690 07ce FB18     		adds	r3, r7, r3
 1691 07d0 5F22     		movs	r2, #95
 1692 07d2 BA18     		adds	r2, r7, r2
 1693 07d4 1278     		ldrb	r2, [r2]
 1694 07d6 0A43     		orrs	r2, r1
 1695 07d8 1A70     		strb	r2, [r3]
 368:Api\core\src/vl53l0x_api_core.c **** 			Status |= VL53L0X_device_read_strobe(Dev);
 1696              		.loc 1 368 0
 1697 07da 7B68     		ldr	r3, [r7, #4]
 1698 07dc 1800     		movs	r0, r3
 1699 07de FFF7FEFF 		bl	VL53L0X_device_read_strobe
 1700 07e2 0300     		movs	r3, r0
 1701 07e4 1900     		movs	r1, r3
 1702 07e6 5F23     		movs	r3, #95
 1703 07e8 FB18     		adds	r3, r7, r3
 1704 07ea 5F22     		movs	r2, #95
 1705 07ec BA18     		adds	r2, r7, r2
 1706 07ee 1278     		ldrb	r2, [r2]
 1707 07f0 0A43     		orrs	r2, r1
 1708 07f2 1A70     		strb	r2, [r3]
 369:Api\core\src/vl53l0x_api_core.c **** 			Status |= VL53L0X_RdDWord(Dev, 0x90, &TmpDWord);
 1709              		.loc 1 369 0
 1710 07f4 3023     		movs	r3, #48
 1711 07f6 FA18     		adds	r2, r7, r3
 1712 07f8 7B68     		ldr	r3, [r7, #4]
 1713 07fa 9021     		movs	r1, #144
 1714 07fc 1800     		movs	r0, r3
 1715 07fe FFF7FEFF 		bl	VL53L0X_RdDWord
 1716 0802 0300     		movs	r3, r0
 1717 0804 1900     		movs	r1, r3
 1718 0806 5F23     		movs	r3, #95
 1719 0808 FB18     		adds	r3, r7, r3
 1720 080a 5F22     		movs	r2, #95
 1721 080c BA18     		adds	r2, r7, r2
 1722 080e 1278     		ldrb	r2, [r2]
 1723 0810 0A43     		orrs	r2, r1
 1724 0812 1A70     		strb	r2, [r3]
 370:Api\core\src/vl53l0x_api_core.c **** 
 371:Api\core\src/vl53l0x_api_core.c **** 			SignalRateMeasFixed1104_400_mm = (TmpDWord &
 372:Api\core\src/vl53l0x_api_core.c **** 				0x0000000ff) << 8;
 1725              		.loc 1 372 0
ARM GAS  C:\Users\ilya\AppData\Local\Temp\ccAjPEqD.s 			page 38


 1726 0814 3B6B     		ldr	r3, [r7, #48]
 1727 0816 1B02     		lsls	r3, r3, #8
 371:Api\core\src/vl53l0x_api_core.c **** 				0x0000000ff) << 8;
 1728              		.loc 1 371 0
 1729 0818 1B04     		lsls	r3, r3, #16
 1730 081a 1B0C     		lsrs	r3, r3, #16
 1731 081c 3B65     		str	r3, [r7, #80]
 373:Api\core\src/vl53l0x_api_core.c **** 
 374:Api\core\src/vl53l0x_api_core.c **** 			Status |= VL53L0X_WrByte(Dev, 0x94, 0x74);
 1732              		.loc 1 374 0
 1733 081e 7B68     		ldr	r3, [r7, #4]
 1734 0820 7422     		movs	r2, #116
 1735 0822 9421     		movs	r1, #148
 1736 0824 1800     		movs	r0, r3
 1737 0826 FFF7FEFF 		bl	VL53L0X_WrByte
 1738 082a 0300     		movs	r3, r0
 1739 082c 1900     		movs	r1, r3
 1740 082e 5F23     		movs	r3, #95
 1741 0830 FB18     		adds	r3, r7, r3
 1742 0832 5F22     		movs	r2, #95
 1743 0834 BA18     		adds	r2, r7, r2
 1744 0836 1278     		ldrb	r2, [r2]
 1745 0838 0A43     		orrs	r2, r1
 1746 083a 1A70     		strb	r2, [r3]
 375:Api\core\src/vl53l0x_api_core.c **** 			Status |= VL53L0X_device_read_strobe(Dev);
 1747              		.loc 1 375 0
 1748 083c 7B68     		ldr	r3, [r7, #4]
 1749 083e 1800     		movs	r0, r3
 1750 0840 FFF7FEFF 		bl	VL53L0X_device_read_strobe
 1751 0844 0300     		movs	r3, r0
 1752 0846 1900     		movs	r1, r3
 1753 0848 5F23     		movs	r3, #95
 1754 084a FB18     		adds	r3, r7, r3
 1755 084c 5F22     		movs	r2, #95
 1756 084e BA18     		adds	r2, r7, r2
 1757 0850 1278     		ldrb	r2, [r2]
 1758 0852 0A43     		orrs	r2, r1
 1759 0854 1A70     		strb	r2, [r3]
 376:Api\core\src/vl53l0x_api_core.c **** 			Status |= VL53L0X_RdDWord(Dev, 0x90, &TmpDWord);
 1760              		.loc 1 376 0
 1761 0856 3023     		movs	r3, #48
 1762 0858 FA18     		adds	r2, r7, r3
 1763 085a 7B68     		ldr	r3, [r7, #4]
 1764 085c 9021     		movs	r1, #144
 1765 085e 1800     		movs	r0, r3
 1766 0860 FFF7FEFF 		bl	VL53L0X_RdDWord
 1767 0864 0300     		movs	r3, r0
 1768 0866 1900     		movs	r1, r3
 1769 0868 5F23     		movs	r3, #95
 1770 086a FB18     		adds	r3, r7, r3
 1771 086c 5F22     		movs	r2, #95
 1772 086e BA18     		adds	r2, r7, r2
 1773 0870 1278     		ldrb	r2, [r2]
 1774 0872 0A43     		orrs	r2, r1
 1775 0874 1A70     		strb	r2, [r3]
 377:Api\core\src/vl53l0x_api_core.c **** 
 378:Api\core\src/vl53l0x_api_core.c **** 			SignalRateMeasFixed1104_400_mm |= ((TmpDWord &
ARM GAS  C:\Users\ilya\AppData\Local\Temp\ccAjPEqD.s 			page 39


 379:Api\core\src/vl53l0x_api_core.c **** 				0xff000000) >> 24);
 1776              		.loc 1 379 0
 1777 0876 3B6B     		ldr	r3, [r7, #48]
 1778 0878 1B0E     		lsrs	r3, r3, #24
 378:Api\core\src/vl53l0x_api_core.c **** 				0xff000000) >> 24);
 1779              		.loc 1 378 0
 1780 087a 3A6D     		ldr	r2, [r7, #80]
 1781 087c 1343     		orrs	r3, r2
 1782 087e 3B65     		str	r3, [r7, #80]
 380:Api\core\src/vl53l0x_api_core.c **** 
 381:Api\core\src/vl53l0x_api_core.c **** 			Status |= VL53L0X_WrByte(Dev, 0x94, 0x75);
 1783              		.loc 1 381 0
 1784 0880 7B68     		ldr	r3, [r7, #4]
 1785 0882 7522     		movs	r2, #117
 1786 0884 9421     		movs	r1, #148
 1787 0886 1800     		movs	r0, r3
 1788 0888 FFF7FEFF 		bl	VL53L0X_WrByte
 1789 088c 0300     		movs	r3, r0
 1790 088e 1900     		movs	r1, r3
 1791 0890 5F23     		movs	r3, #95
 1792 0892 FB18     		adds	r3, r7, r3
 1793 0894 5F22     		movs	r2, #95
 1794 0896 BA18     		adds	r2, r7, r2
 1795 0898 1278     		ldrb	r2, [r2]
 1796 089a 0A43     		orrs	r2, r1
 1797 089c 1A70     		strb	r2, [r3]
 382:Api\core\src/vl53l0x_api_core.c **** 			Status |= VL53L0X_device_read_strobe(Dev);
 1798              		.loc 1 382 0
 1799 089e 7B68     		ldr	r3, [r7, #4]
 1800 08a0 1800     		movs	r0, r3
 1801 08a2 FFF7FEFF 		bl	VL53L0X_device_read_strobe
 1802 08a6 0300     		movs	r3, r0
 1803 08a8 1900     		movs	r1, r3
 1804 08aa 5F23     		movs	r3, #95
 1805 08ac FB18     		adds	r3, r7, r3
 1806 08ae 5F22     		movs	r2, #95
 1807 08b0 BA18     		adds	r2, r7, r2
 1808 08b2 1278     		ldrb	r2, [r2]
 1809 08b4 0A43     		orrs	r2, r1
 1810 08b6 1A70     		strb	r2, [r3]
 383:Api\core\src/vl53l0x_api_core.c **** 			Status |= VL53L0X_RdDWord(Dev, 0x90, &TmpDWord);
 1811              		.loc 1 383 0
 1812 08b8 3023     		movs	r3, #48
 1813 08ba FA18     		adds	r2, r7, r3
 1814 08bc 7B68     		ldr	r3, [r7, #4]
 1815 08be 9021     		movs	r1, #144
 1816 08c0 1800     		movs	r0, r3
 1817 08c2 FFF7FEFF 		bl	VL53L0X_RdDWord
 1818 08c6 0300     		movs	r3, r0
 1819 08c8 1900     		movs	r1, r3
 1820 08ca 5F23     		movs	r3, #95
 1821 08cc FB18     		adds	r3, r7, r3
 1822 08ce 5F22     		movs	r2, #95
 1823 08d0 BA18     		adds	r2, r7, r2
 1824 08d2 1278     		ldrb	r2, [r2]
 1825 08d4 0A43     		orrs	r2, r1
 1826 08d6 1A70     		strb	r2, [r3]
ARM GAS  C:\Users\ilya\AppData\Local\Temp\ccAjPEqD.s 			page 40


 384:Api\core\src/vl53l0x_api_core.c **** 
 385:Api\core\src/vl53l0x_api_core.c **** 			DistMeasFixed1104_400_mm = (TmpDWord & 0x0000000ff)
 386:Api\core\src/vl53l0x_api_core.c **** 							<< 8;
 1827              		.loc 1 386 0
 1828 08d8 3B6B     		ldr	r3, [r7, #48]
 1829 08da 1B02     		lsls	r3, r3, #8
 385:Api\core\src/vl53l0x_api_core.c **** 							<< 8;
 1830              		.loc 1 385 0
 1831 08dc 1B04     		lsls	r3, r3, #16
 1832 08de 1B0C     		lsrs	r3, r3, #16
 1833 08e0 7B65     		str	r3, [r7, #84]
 387:Api\core\src/vl53l0x_api_core.c **** 
 388:Api\core\src/vl53l0x_api_core.c **** 			Status |= VL53L0X_WrByte(Dev, 0x94, 0x76);
 1834              		.loc 1 388 0
 1835 08e2 7B68     		ldr	r3, [r7, #4]
 1836 08e4 7622     		movs	r2, #118
 1837 08e6 9421     		movs	r1, #148
 1838 08e8 1800     		movs	r0, r3
 1839 08ea FFF7FEFF 		bl	VL53L0X_WrByte
 1840 08ee 0300     		movs	r3, r0
 1841 08f0 1900     		movs	r1, r3
 1842 08f2 5F23     		movs	r3, #95
 1843 08f4 FB18     		adds	r3, r7, r3
 1844 08f6 5F22     		movs	r2, #95
 1845 08f8 BA18     		adds	r2, r7, r2
 1846 08fa 1278     		ldrb	r2, [r2]
 1847 08fc 0A43     		orrs	r2, r1
 1848 08fe 1A70     		strb	r2, [r3]
 389:Api\core\src/vl53l0x_api_core.c **** 			Status |= VL53L0X_device_read_strobe(Dev);
 1849              		.loc 1 389 0
 1850 0900 7B68     		ldr	r3, [r7, #4]
 1851 0902 1800     		movs	r0, r3
 1852 0904 FFF7FEFF 		bl	VL53L0X_device_read_strobe
 1853 0908 0300     		movs	r3, r0
 1854 090a 1900     		movs	r1, r3
 1855 090c 5F23     		movs	r3, #95
 1856 090e FB18     		adds	r3, r7, r3
 1857 0910 5F22     		movs	r2, #95
 1858 0912 BA18     		adds	r2, r7, r2
 1859 0914 1278     		ldrb	r2, [r2]
 1860 0916 0A43     		orrs	r2, r1
 1861 0918 1A70     		strb	r2, [r3]
 390:Api\core\src/vl53l0x_api_core.c **** 			Status |= VL53L0X_RdDWord(Dev, 0x90, &TmpDWord);
 1862              		.loc 1 390 0
 1863 091a 3023     		movs	r3, #48
 1864 091c FA18     		adds	r2, r7, r3
 1865 091e 7B68     		ldr	r3, [r7, #4]
 1866 0920 9021     		movs	r1, #144
 1867 0922 1800     		movs	r0, r3
 1868 0924 FFF7FEFF 		bl	VL53L0X_RdDWord
 1869 0928 0300     		movs	r3, r0
 1870 092a 1900     		movs	r1, r3
 1871 092c 5F23     		movs	r3, #95
 1872 092e FB18     		adds	r3, r7, r3
 1873 0930 5F22     		movs	r2, #95
 1874 0932 BA18     		adds	r2, r7, r2
 1875 0934 1278     		ldrb	r2, [r2]
ARM GAS  C:\Users\ilya\AppData\Local\Temp\ccAjPEqD.s 			page 41


 1876 0936 0A43     		orrs	r2, r1
 1877 0938 1A70     		strb	r2, [r3]
 391:Api\core\src/vl53l0x_api_core.c **** 
 392:Api\core\src/vl53l0x_api_core.c **** 			DistMeasFixed1104_400_mm |= ((TmpDWord & 0xff000000)
 393:Api\core\src/vl53l0x_api_core.c **** 							>> 24);
 1878              		.loc 1 393 0
 1879 093a 3B6B     		ldr	r3, [r7, #48]
 1880 093c 1B0E     		lsrs	r3, r3, #24
 392:Api\core\src/vl53l0x_api_core.c **** 							>> 24);
 1881              		.loc 1 392 0
 1882 093e 7A6D     		ldr	r2, [r7, #84]
 1883 0940 1343     		orrs	r3, r2
 1884 0942 7B65     		str	r3, [r7, #84]
 1885              	.L46:
 394:Api\core\src/vl53l0x_api_core.c **** 		}
 395:Api\core\src/vl53l0x_api_core.c **** 
 396:Api\core\src/vl53l0x_api_core.c **** 		Status |= VL53L0X_WrByte(Dev, 0x81, 0x00);
 1886              		.loc 1 396 0
 1887 0944 7B68     		ldr	r3, [r7, #4]
 1888 0946 0022     		movs	r2, #0
 1889 0948 8121     		movs	r1, #129
 1890 094a 1800     		movs	r0, r3
 1891 094c FFF7FEFF 		bl	VL53L0X_WrByte
 1892 0950 0300     		movs	r3, r0
 1893 0952 1900     		movs	r1, r3
 1894 0954 5F23     		movs	r3, #95
 1895 0956 FB18     		adds	r3, r7, r3
 1896 0958 5F22     		movs	r2, #95
 1897 095a BA18     		adds	r2, r7, r2
 1898 095c 1278     		ldrb	r2, [r2]
 1899 095e 0A43     		orrs	r2, r1
 1900 0960 1A70     		strb	r2, [r3]
 397:Api\core\src/vl53l0x_api_core.c **** 		Status |= VL53L0X_WrByte(Dev, 0xFF, 0x06);
 1901              		.loc 1 397 0
 1902 0962 7B68     		ldr	r3, [r7, #4]
 1903 0964 0622     		movs	r2, #6
 1904 0966 FF21     		movs	r1, #255
 1905 0968 1800     		movs	r0, r3
 1906 096a FFF7FEFF 		bl	VL53L0X_WrByte
 1907 096e 0300     		movs	r3, r0
 1908 0970 1900     		movs	r1, r3
 1909 0972 5F23     		movs	r3, #95
 1910 0974 FB18     		adds	r3, r7, r3
 1911 0976 5F22     		movs	r2, #95
 1912 0978 BA18     		adds	r2, r7, r2
 1913 097a 1278     		ldrb	r2, [r2]
 1914 097c 0A43     		orrs	r2, r1
 1915 097e 1A70     		strb	r2, [r3]
 398:Api\core\src/vl53l0x_api_core.c **** 		Status |= VL53L0X_RdByte(Dev, 0x83, &byte);
 1916              		.loc 1 398 0
 1917 0980 3723     		movs	r3, #55
 1918 0982 FA18     		adds	r2, r7, r3
 1919 0984 7B68     		ldr	r3, [r7, #4]
 1920 0986 8321     		movs	r1, #131
 1921 0988 1800     		movs	r0, r3
 1922 098a FFF7FEFF 		bl	VL53L0X_RdByte
 1923 098e 0300     		movs	r3, r0
ARM GAS  C:\Users\ilya\AppData\Local\Temp\ccAjPEqD.s 			page 42


 1924 0990 1900     		movs	r1, r3
 1925 0992 5F23     		movs	r3, #95
 1926 0994 FB18     		adds	r3, r7, r3
 1927 0996 5F22     		movs	r2, #95
 1928 0998 BA18     		adds	r2, r7, r2
 1929 099a 1278     		ldrb	r2, [r2]
 1930 099c 0A43     		orrs	r2, r1
 1931 099e 1A70     		strb	r2, [r3]
 399:Api\core\src/vl53l0x_api_core.c **** 		Status |= VL53L0X_WrByte(Dev, 0x83, byte&0xfb);
 1932              		.loc 1 399 0
 1933 09a0 3723     		movs	r3, #55
 1934 09a2 FB18     		adds	r3, r7, r3
 1935 09a4 1B78     		ldrb	r3, [r3]
 1936 09a6 0422     		movs	r2, #4
 1937 09a8 9343     		bics	r3, r2
 1938 09aa DAB2     		uxtb	r2, r3
 1939 09ac 7B68     		ldr	r3, [r7, #4]
 1940 09ae 8321     		movs	r1, #131
 1941 09b0 1800     		movs	r0, r3
 1942 09b2 FFF7FEFF 		bl	VL53L0X_WrByte
 1943 09b6 0300     		movs	r3, r0
 1944 09b8 1900     		movs	r1, r3
 1945 09ba 5F23     		movs	r3, #95
 1946 09bc FB18     		adds	r3, r7, r3
 1947 09be 5F22     		movs	r2, #95
 1948 09c0 BA18     		adds	r2, r7, r2
 1949 09c2 1278     		ldrb	r2, [r2]
 1950 09c4 0A43     		orrs	r2, r1
 1951 09c6 1A70     		strb	r2, [r3]
 400:Api\core\src/vl53l0x_api_core.c **** 		Status |= VL53L0X_WrByte(Dev, 0xFF, 0x01);
 1952              		.loc 1 400 0
 1953 09c8 7B68     		ldr	r3, [r7, #4]
 1954 09ca 0122     		movs	r2, #1
 1955 09cc FF21     		movs	r1, #255
 1956 09ce 1800     		movs	r0, r3
 1957 09d0 FFF7FEFF 		bl	VL53L0X_WrByte
 1958 09d4 0300     		movs	r3, r0
 1959 09d6 1900     		movs	r1, r3
 1960 09d8 5F23     		movs	r3, #95
 1961 09da FB18     		adds	r3, r7, r3
 1962 09dc 5F22     		movs	r2, #95
 1963 09de BA18     		adds	r2, r7, r2
 1964 09e0 1278     		ldrb	r2, [r2]
 1965 09e2 0A43     		orrs	r2, r1
 1966 09e4 1A70     		strb	r2, [r3]
 401:Api\core\src/vl53l0x_api_core.c **** 		Status |= VL53L0X_WrByte(Dev, 0x00, 0x01);
 1967              		.loc 1 401 0
 1968 09e6 7B68     		ldr	r3, [r7, #4]
 1969 09e8 0122     		movs	r2, #1
 1970 09ea 0021     		movs	r1, #0
 1971 09ec 1800     		movs	r0, r3
 1972 09ee FFF7FEFF 		bl	VL53L0X_WrByte
 1973 09f2 0300     		movs	r3, r0
 1974 09f4 1900     		movs	r1, r3
 1975 09f6 5F23     		movs	r3, #95
 1976 09f8 FB18     		adds	r3, r7, r3
 1977 09fa 5F22     		movs	r2, #95
ARM GAS  C:\Users\ilya\AppData\Local\Temp\ccAjPEqD.s 			page 43


 1978 09fc BA18     		adds	r2, r7, r2
 1979 09fe 1278     		ldrb	r2, [r2]
 1980 0a00 0A43     		orrs	r2, r1
 1981 0a02 1A70     		strb	r2, [r3]
 402:Api\core\src/vl53l0x_api_core.c **** 
 403:Api\core\src/vl53l0x_api_core.c **** 		Status |= VL53L0X_WrByte(Dev, 0xFF, 0x00);
 1982              		.loc 1 403 0
 1983 0a04 7B68     		ldr	r3, [r7, #4]
 1984 0a06 0022     		movs	r2, #0
 1985 0a08 FF21     		movs	r1, #255
 1986 0a0a 1800     		movs	r0, r3
 1987 0a0c FFF7FEFF 		bl	VL53L0X_WrByte
 1988 0a10 0300     		movs	r3, r0
 1989 0a12 1900     		movs	r1, r3
 1990 0a14 5F23     		movs	r3, #95
 1991 0a16 FB18     		adds	r3, r7, r3
 1992 0a18 5F22     		movs	r2, #95
 1993 0a1a BA18     		adds	r2, r7, r2
 1994 0a1c 1278     		ldrb	r2, [r2]
 1995 0a1e 0A43     		orrs	r2, r1
 1996 0a20 1A70     		strb	r2, [r3]
 404:Api\core\src/vl53l0x_api_core.c **** 		Status |= VL53L0X_WrByte(Dev, 0x80, 0x00);
 1997              		.loc 1 404 0
 1998 0a22 7B68     		ldr	r3, [r7, #4]
 1999 0a24 0022     		movs	r2, #0
 2000 0a26 8021     		movs	r1, #128
 2001 0a28 1800     		movs	r0, r3
 2002 0a2a FFF7FEFF 		bl	VL53L0X_WrByte
 2003 0a2e 0300     		movs	r3, r0
 2004 0a30 1900     		movs	r1, r3
 2005 0a32 5F23     		movs	r3, #95
 2006 0a34 FB18     		adds	r3, r7, r3
 2007 0a36 5F22     		movs	r2, #95
 2008 0a38 BA18     		adds	r2, r7, r2
 2009 0a3a 1278     		ldrb	r2, [r2]
 2010 0a3c 0A43     		orrs	r2, r1
 2011 0a3e 1A70     		strb	r2, [r3]
 2012              	.L43:
 405:Api\core\src/vl53l0x_api_core.c **** 	}
 406:Api\core\src/vl53l0x_api_core.c **** 
 407:Api\core\src/vl53l0x_api_core.c **** 	if ((Status == VL53L0X_ERROR_NONE) &&
 2013              		.loc 1 407 0
 2014 0a40 5F23     		movs	r3, #95
 2015 0a42 FB18     		adds	r3, r7, r3
 2016 0a44 1B78     		ldrb	r3, [r3]
 2017 0a46 5BB2     		sxtb	r3, r3
 2018 0a48 002B     		cmp	r3, #0
 2019 0a4a 00D0     		beq	.LCB1792
 2020 0a4c A3E0     		b	.L47	@long jump
 2021              	.LCB1792:
 2022              		.loc 1 407 0 is_stmt 0 discriminator 1
 2023 0a4e 3F23     		movs	r3, #63
 2024 0a50 FB18     		adds	r3, r7, r3
 2025 0a52 1B78     		ldrb	r3, [r3]
 2026 0a54 072B     		cmp	r3, #7
 2027 0a56 00D1     		bne	.LCB1797
 2028 0a58 9DE0     		b	.L47	@long jump
ARM GAS  C:\Users\ilya\AppData\Local\Temp\ccAjPEqD.s 			page 44


 2029              	.LCB1797:
 408:Api\core\src/vl53l0x_api_core.c **** 		(ReadDataFromDeviceDone != 7)) {
 409:Api\core\src/vl53l0x_api_core.c **** 		/* Assign to variable if status is ok */
 410:Api\core\src/vl53l0x_api_core.c **** 		if (((option & 1) == 1) &&
 2030              		.loc 1 410 0 is_stmt 1
 2031 0a5a FB1C     		adds	r3, r7, #3
 2032 0a5c 1B78     		ldrb	r3, [r3]
 2033 0a5e 0122     		movs	r2, #1
 2034 0a60 1340     		ands	r3, r2
 2035 0a62 29D0     		beq	.L48
 411:Api\core\src/vl53l0x_api_core.c **** 			((ReadDataFromDeviceDone & 1) == 0)) {
 2036              		.loc 1 411 0 discriminator 1
 2037 0a64 3F23     		movs	r3, #63
 2038 0a66 FB18     		adds	r3, r7, r3
 2039 0a68 1B78     		ldrb	r3, [r3]
 2040 0a6a 0122     		movs	r2, #1
 2041 0a6c 1340     		ands	r3, r2
 410:Api\core\src/vl53l0x_api_core.c **** 			((ReadDataFromDeviceDone & 1) == 0)) {
 2042              		.loc 1 410 0 discriminator 1
 2043 0a6e 23D1     		bne	.L48
 412:Api\core\src/vl53l0x_api_core.c **** 			VL53L0X_SETDEVICESPECIFICPARAMETER(Dev,
 2044              		.loc 1 412 0
 2045 0a70 7A68     		ldr	r2, [r7, #4]
 2046 0a72 5E23     		movs	r3, #94
 2047 0a74 F918     		adds	r1, r7, r3
 2048 0a76 1423     		movs	r3, #20
 2049 0a78 FF33     		adds	r3, r3, #255
 2050 0a7a 0978     		ldrb	r1, [r1]
 2051 0a7c D154     		strb	r1, [r2, r3]
 413:Api\core\src/vl53l0x_api_core.c **** 				ReferenceSpadCount, ReferenceSpadCount);
 414:Api\core\src/vl53l0x_api_core.c **** 
 415:Api\core\src/vl53l0x_api_core.c **** 			VL53L0X_SETDEVICESPECIFICPARAMETER(Dev,
 2052              		.loc 1 415 0
 2053 0a7e 7A68     		ldr	r2, [r7, #4]
 2054 0a80 5D23     		movs	r3, #93
 2055 0a82 F918     		adds	r1, r7, r3
 2056 0a84 8A23     		movs	r3, #138
 2057 0a86 5B00     		lsls	r3, r3, #1
 2058 0a88 0978     		ldrb	r1, [r1]
 2059 0a8a D154     		strb	r1, [r2, r3]
 416:Api\core\src/vl53l0x_api_core.c **** 				ReferenceSpadType, ReferenceSpadType);
 417:Api\core\src/vl53l0x_api_core.c **** 
 418:Api\core\src/vl53l0x_api_core.c **** 			for (i = 0; i < VL53L0X_REF_SPAD_BUFFER_SIZE; i++) {
 2060              		.loc 1 418 0
 2061 0a8c 0023     		movs	r3, #0
 2062 0a8e FB64     		str	r3, [r7, #76]
 2063 0a90 0FE0     		b	.L49
 2064              	.L50:
 419:Api\core\src/vl53l0x_api_core.c **** 				Dev->Data.SpadData.RefGoodSpadMap[i] =
 420:Api\core\src/vl53l0x_api_core.c **** 					NvmRefGoodSpadMap[i];
 2065              		.loc 1 420 0 discriminator 3
 2066 0a92 0823     		movs	r3, #8
 2067 0a94 FA18     		adds	r2, r7, r3
 2068 0a96 FB6C     		ldr	r3, [r7, #76]
 2069 0a98 D318     		adds	r3, r2, r3
 2070 0a9a 1878     		ldrb	r0, [r3]
 419:Api\core\src/vl53l0x_api_core.c **** 				Dev->Data.SpadData.RefGoodSpadMap[i] =
ARM GAS  C:\Users\ilya\AppData\Local\Temp\ccAjPEqD.s 			page 45


 2071              		.loc 1 419 0 discriminator 3
 2072 0a9c 7968     		ldr	r1, [r7, #4]
 2073 0a9e 9523     		movs	r3, #149
 2074 0aa0 5B00     		lsls	r3, r3, #1
 2075 0aa2 FA6C     		ldr	r2, [r7, #76]
 2076 0aa4 8A18     		adds	r2, r1, r2
 2077 0aa6 D318     		adds	r3, r2, r3
 2078 0aa8 021C     		adds	r2, r0, #0
 2079 0aaa 1A70     		strb	r2, [r3]
 418:Api\core\src/vl53l0x_api_core.c **** 				Dev->Data.SpadData.RefGoodSpadMap[i] =
 2080              		.loc 1 418 0 discriminator 3
 2081 0aac FB6C     		ldr	r3, [r7, #76]
 2082 0aae 0133     		adds	r3, r3, #1
 2083 0ab0 FB64     		str	r3, [r7, #76]
 2084              	.L49:
 418:Api\core\src/vl53l0x_api_core.c **** 				Dev->Data.SpadData.RefGoodSpadMap[i] =
 2085              		.loc 1 418 0 is_stmt 0 discriminator 1
 2086 0ab2 FB6C     		ldr	r3, [r7, #76]
 2087 0ab4 052B     		cmp	r3, #5
 2088 0ab6 ECDD     		ble	.L50
 2089              	.L48:
 421:Api\core\src/vl53l0x_api_core.c **** 			}
 422:Api\core\src/vl53l0x_api_core.c **** 		}
 423:Api\core\src/vl53l0x_api_core.c **** 
 424:Api\core\src/vl53l0x_api_core.c **** 		if (((option & 2) == 2) &&
 2090              		.loc 1 424 0 is_stmt 1
 2091 0ab8 FB1C     		adds	r3, r7, #3
 2092 0aba 1B78     		ldrb	r3, [r3]
 2093 0abc 0222     		movs	r2, #2
 2094 0abe 1340     		ands	r3, r2
 2095 0ac0 1BD0     		beq	.L51
 425:Api\core\src/vl53l0x_api_core.c **** 			((ReadDataFromDeviceDone & 2) == 0)) {
 2096              		.loc 1 425 0 discriminator 1
 2097 0ac2 3F23     		movs	r3, #63
 2098 0ac4 FB18     		adds	r3, r7, r3
 2099 0ac6 1B78     		ldrb	r3, [r3]
 2100 0ac8 0222     		movs	r2, #2
 2101 0aca 1340     		ands	r3, r2
 424:Api\core\src/vl53l0x_api_core.c **** 			((ReadDataFromDeviceDone & 2) == 0)) {
 2102              		.loc 1 424 0 discriminator 1
 2103 0acc 15D1     		bne	.L51
 426:Api\core\src/vl53l0x_api_core.c **** 			VL53L0X_SETDEVICESPECIFICPARAMETER(Dev,
 2104              		.loc 1 426 0
 2105 0ace 2F23     		movs	r3, #47
 2106 0ad0 FB18     		adds	r3, r7, r3
 2107 0ad2 1978     		ldrb	r1, [r3]
 2108 0ad4 7B68     		ldr	r3, [r7, #4]
 2109 0ad6 F122     		movs	r2, #241
 2110 0ad8 9954     		strb	r1, [r3, r2]
 427:Api\core\src/vl53l0x_api_core.c **** 					ModuleId, ModuleId);
 428:Api\core\src/vl53l0x_api_core.c **** 
 429:Api\core\src/vl53l0x_api_core.c **** 			VL53L0X_SETDEVICESPECIFICPARAMETER(Dev,
 2111              		.loc 1 429 0
 2112 0ada 2E23     		movs	r3, #46
 2113 0adc FB18     		adds	r3, r7, r3
 2114 0ade 1978     		ldrb	r1, [r3]
 2115 0ae0 7B68     		ldr	r3, [r7, #4]
ARM GAS  C:\Users\ilya\AppData\Local\Temp\ccAjPEqD.s 			page 46


 2116 0ae2 F222     		movs	r2, #242
 2117 0ae4 9954     		strb	r1, [r3, r2]
 430:Api\core\src/vl53l0x_api_core.c **** 					Revision, Revision);
 431:Api\core\src/vl53l0x_api_core.c **** 
 432:Api\core\src/vl53l0x_api_core.c **** 			ProductId_tmp = VL53L0X_GETDEVICESPECIFICPARAMETER(Dev,
 2118              		.loc 1 432 0
 2119 0ae6 7B68     		ldr	r3, [r7, #4]
 2120 0ae8 F333     		adds	r3, r3, #243
 2121 0aea BB63     		str	r3, [r7, #56]
 433:Api\core\src/vl53l0x_api_core.c **** 					ProductId);
 434:Api\core\src/vl53l0x_api_core.c **** 			VL53L0X_COPYSTRING(ProductId_tmp, ProductId);
 2122              		.loc 1 434 0
 2123 0aec 1023     		movs	r3, #16
 2124 0aee FA18     		adds	r2, r7, r3
 2125 0af0 BB6B     		ldr	r3, [r7, #56]
 2126 0af2 1100     		movs	r1, r2
 2127 0af4 1800     		movs	r0, r3
 2128 0af6 FFF7FEFF 		bl	strcpy
 2129              	.L51:
 435:Api\core\src/vl53l0x_api_core.c **** 
 436:Api\core\src/vl53l0x_api_core.c **** 		}
 437:Api\core\src/vl53l0x_api_core.c **** 
 438:Api\core\src/vl53l0x_api_core.c **** 		if (((option & 4) == 4) &&
 2130              		.loc 1 438 0
 2131 0afa FB1C     		adds	r3, r7, #3
 2132 0afc 1B78     		ldrb	r3, [r3]
 2133 0afe 0422     		movs	r2, #4
 2134 0b00 1340     		ands	r3, r2
 2135 0b02 38D0     		beq	.L52
 439:Api\core\src/vl53l0x_api_core.c **** 			((ReadDataFromDeviceDone & 4) == 0)) {
 2136              		.loc 1 439 0 discriminator 1
 2137 0b04 3F23     		movs	r3, #63
 2138 0b06 FB18     		adds	r3, r7, r3
 2139 0b08 1B78     		ldrb	r3, [r3]
 2140 0b0a 0422     		movs	r2, #4
 2141 0b0c 1340     		ands	r3, r2
 438:Api\core\src/vl53l0x_api_core.c **** 			((ReadDataFromDeviceDone & 4) == 0)) {
 2142              		.loc 1 438 0 discriminator 1
 2143 0b0e 32D1     		bne	.L52
 440:Api\core\src/vl53l0x_api_core.c **** 			VL53L0X_SETDEVICESPECIFICPARAMETER(Dev,
 2144              		.loc 1 440 0
 2145 0b10 B96A     		ldr	r1, [r7, #40]
 2146 0b12 7A68     		ldr	r2, [r7, #4]
 2147 0b14 8C23     		movs	r3, #140
 2148 0b16 5B00     		lsls	r3, r3, #1
 2149 0b18 D150     		str	r1, [r2, r3]
 441:Api\core\src/vl53l0x_api_core.c **** 						PartUIDUpper, PartUIDUpper);
 442:Api\core\src/vl53l0x_api_core.c **** 
 443:Api\core\src/vl53l0x_api_core.c **** 			VL53L0X_SETDEVICESPECIFICPARAMETER(Dev,
 2150              		.loc 1 443 0
 2151 0b1a 796A     		ldr	r1, [r7, #36]
 2152 0b1c 7A68     		ldr	r2, [r7, #4]
 2153 0b1e 8E23     		movs	r3, #142
 2154 0b20 5B00     		lsls	r3, r3, #1
 2155 0b22 D150     		str	r1, [r2, r3]
 444:Api\core\src/vl53l0x_api_core.c **** 						PartUIDLower, PartUIDLower);
 445:Api\core\src/vl53l0x_api_core.c **** 
ARM GAS  C:\Users\ilya\AppData\Local\Temp\ccAjPEqD.s 			page 47


 446:Api\core\src/vl53l0x_api_core.c **** 			SignalRateMeasFixed400mmFix =
 2156              		.loc 1 446 0
 2157 0b24 3B6D     		ldr	r3, [r7, #80]
 2158 0b26 5B02     		lsls	r3, r3, #9
 2159 0b28 3B64     		str	r3, [r7, #64]
 447:Api\core\src/vl53l0x_api_core.c **** 				VL53L0X_FIXPOINT97TOFIXPOINT1616(
 448:Api\core\src/vl53l0x_api_core.c **** 					SignalRateMeasFixed1104_400_mm);
 449:Api\core\src/vl53l0x_api_core.c **** 
 450:Api\core\src/vl53l0x_api_core.c **** 			VL53L0X_SETDEVICESPECIFICPARAMETER(Dev,
 2160              		.loc 1 450 0
 2161 0b2a 7A68     		ldr	r2, [r7, #4]
 2162 0b2c 9023     		movs	r3, #144
 2163 0b2e 5B00     		lsls	r3, r3, #1
 2164 0b30 396C     		ldr	r1, [r7, #64]
 2165 0b32 D150     		str	r1, [r2, r3]
 451:Api\core\src/vl53l0x_api_core.c **** 				SignalRateMeasFixed400mm,
 452:Api\core\src/vl53l0x_api_core.c **** 				SignalRateMeasFixed400mmFix);
 453:Api\core\src/vl53l0x_api_core.c **** 
 454:Api\core\src/vl53l0x_api_core.c **** 			OffsetMicroMeters = 0;
 2166              		.loc 1 454 0
 2167 0b34 5A23     		movs	r3, #90
 2168 0b36 FB18     		adds	r3, r7, r3
 2169 0b38 0022     		movs	r2, #0
 2170 0b3a 1A80     		strh	r2, [r3]
 455:Api\core\src/vl53l0x_api_core.c **** 			if (DistMeasFixed1104_400_mm != 0) {
 2171              		.loc 1 455 0
 2172 0b3c 7B6D     		ldr	r3, [r7, #84]
 2173 0b3e 002B     		cmp	r3, #0
 2174 0b40 13D0     		beq	.L53
 456:Api\core\src/vl53l0x_api_core.c **** 					OffsetFixed1104_mm =
 2175              		.loc 1 456 0
 2176 0b42 7A6D     		ldr	r2, [r7, #84]
 2177 0b44 7B6C     		ldr	r3, [r7, #68]
 2178 0b46 D31A     		subs	r3, r2, r3
 2179 0b48 BB64     		str	r3, [r7, #72]
 457:Api\core\src/vl53l0x_api_core.c **** 						DistMeasFixed1104_400_mm -
 458:Api\core\src/vl53l0x_api_core.c **** 						DistMeasTgtFixed1104_mm;
 459:Api\core\src/vl53l0x_api_core.c **** 					OffsetMicroMeters = (OffsetFixed1104_mm
 460:Api\core\src/vl53l0x_api_core.c **** 						* 1000) >> 4;
 2180              		.loc 1 460 0
 2181 0b4a BB6C     		ldr	r3, [r7, #72]
 2182 0b4c FA22     		movs	r2, #250
 2183 0b4e 9200     		lsls	r2, r2, #2
 2184 0b50 5343     		muls	r3, r2
 2185 0b52 1A09     		lsrs	r2, r3, #4
 459:Api\core\src/vl53l0x_api_core.c **** 						* 1000) >> 4;
 2186              		.loc 1 459 0
 2187 0b54 5A23     		movs	r3, #90
 2188 0b56 FB18     		adds	r3, r7, r3
 2189 0b58 1A80     		strh	r2, [r3]
 461:Api\core\src/vl53l0x_api_core.c **** 					OffsetMicroMeters *= -1;
 2190              		.loc 1 461 0
 2191 0b5a 5A23     		movs	r3, #90
 2192 0b5c FB18     		adds	r3, r7, r3
 2193 0b5e 1B88     		ldrh	r3, [r3]
 2194 0b60 5B42     		rsbs	r3, r3, #0
 2195 0b62 9AB2     		uxth	r2, r3
ARM GAS  C:\Users\ilya\AppData\Local\Temp\ccAjPEqD.s 			page 48


 2196 0b64 5A23     		movs	r3, #90
 2197 0b66 FB18     		adds	r3, r7, r3
 2198 0b68 1A80     		strh	r2, [r3]
 2199              	.L53:
 462:Api\core\src/vl53l0x_api_core.c **** 			}
 463:Api\core\src/vl53l0x_api_core.c **** 
 464:Api\core\src/vl53l0x_api_core.c **** 			PALDevDataSet(Dev,
 2200              		.loc 1 464 0
 2201 0b6a 5A23     		movs	r3, #90
 2202 0b6c FB18     		adds	r3, r7, r3
 2203 0b6e 0022     		movs	r2, #0
 2204 0b70 9A5E     		ldrsh	r2, [r3, r2]
 2205 0b72 7B68     		ldr	r3, [r7, #4]
 2206 0b74 DA60     		str	r2, [r3, #12]
 2207              	.L52:
 465:Api\core\src/vl53l0x_api_core.c **** 				Part2PartOffsetAdjustmentNVMMicroMeter,
 466:Api\core\src/vl53l0x_api_core.c **** 				OffsetMicroMeters);
 467:Api\core\src/vl53l0x_api_core.c **** 		}
 468:Api\core\src/vl53l0x_api_core.c **** 		byte = (uint8_t)(ReadDataFromDeviceDone|option);
 2208              		.loc 1 468 0
 2209 0b76 3F23     		movs	r3, #63
 2210 0b78 FA18     		adds	r2, r7, r3
 2211 0b7a FB1C     		adds	r3, r7, #3
 2212 0b7c 1278     		ldrb	r2, [r2]
 2213 0b7e 1B78     		ldrb	r3, [r3]
 2214 0b80 1343     		orrs	r3, r2
 2215 0b82 DAB2     		uxtb	r2, r3
 2216 0b84 3723     		movs	r3, #55
 2217 0b86 FB18     		adds	r3, r7, r3
 2218 0b88 1A70     		strb	r2, [r3]
 469:Api\core\src/vl53l0x_api_core.c **** 		VL53L0X_SETDEVICESPECIFICPARAMETER(Dev, ReadDataFromDeviceDone,
 2219              		.loc 1 469 0
 2220 0b8a 3723     		movs	r3, #55
 2221 0b8c FB18     		adds	r3, r7, r3
 2222 0b8e 1978     		ldrb	r1, [r3]
 2223 0b90 7B68     		ldr	r3, [r7, #4]
 2224 0b92 F022     		movs	r2, #240
 2225 0b94 9954     		strb	r1, [r3, r2]
 2226              	.L47:
 470:Api\core\src/vl53l0x_api_core.c **** 				byte);
 471:Api\core\src/vl53l0x_api_core.c **** 	}
 472:Api\core\src/vl53l0x_api_core.c **** 
 473:Api\core\src/vl53l0x_api_core.c **** 	LOG_FUNCTION_END(Status);
 474:Api\core\src/vl53l0x_api_core.c **** 	return Status;
 2227              		.loc 1 474 0
 2228 0b96 5F23     		movs	r3, #95
 2229 0b98 FB18     		adds	r3, r7, r3
 2230 0b9a 1B78     		ldrb	r3, [r3]
 2231 0b9c 5BB2     		sxtb	r3, r3
 475:Api\core\src/vl53l0x_api_core.c **** }
 2232              		.loc 1 475 0
 2233 0b9e 1800     		movs	r0, r3
 2234 0ba0 BD46     		mov	sp, r7
 2235 0ba2 18B0     		add	sp, sp, #96
 2236              		@ sp needed
 2237 0ba4 80BD     		pop	{r7, pc}
 2238              		.cfi_endproc
ARM GAS  C:\Users\ilya\AppData\Local\Temp\ccAjPEqD.s 			page 49


 2239              	.LFE8:
 2240              		.size	VL53L0X_get_info_from_device, .-VL53L0X_get_info_from_device
 2241 0ba6 C046     		.section	.text.VL53L0X_calc_macro_period_ps,"ax",%progbits
 2242              		.align	2
 2243              		.global	VL53L0X_calc_macro_period_ps
 2244              		.code	16
 2245              		.thumb_func
 2246              		.type	VL53L0X_calc_macro_period_ps, %function
 2247              	VL53L0X_calc_macro_period_ps:
 2248              	.LFB9:
 476:Api\core\src/vl53l0x_api_core.c **** 
 477:Api\core\src/vl53l0x_api_core.c **** 
 478:Api\core\src/vl53l0x_api_core.c **** uint32_t VL53L0X_calc_macro_period_ps(VL53L0X_DEV Dev, uint8_t vcsel_period_pclks)
 479:Api\core\src/vl53l0x_api_core.c **** {
 2249              		.loc 1 479 0
 2250              		.cfi_startproc
 2251              		@ args = 0, pretend = 0, frame = 24
 2252              		@ frame_needed = 1, uses_anonymous_args = 0
 2253 0000 90B5     		push	{r4, r7, lr}
 2254              		.cfi_def_cfa_offset 12
 2255              		.cfi_offset 4, -12
 2256              		.cfi_offset 7, -8
 2257              		.cfi_offset 14, -4
 2258 0002 87B0     		sub	sp, sp, #28
 2259              		.cfi_def_cfa_offset 40
 2260 0004 00AF     		add	r7, sp, #0
 2261              		.cfi_def_cfa_register 7
 2262 0006 7860     		str	r0, [r7, #4]
 2263 0008 0A00     		movs	r2, r1
 2264 000a FB1C     		adds	r3, r7, #3
 2265 000c 1A70     		strb	r2, [r3]
 480:Api\core\src/vl53l0x_api_core.c **** 	uint64_t PLL_period_ps;
 481:Api\core\src/vl53l0x_api_core.c **** 	uint32_t macro_period_vclks;
 482:Api\core\src/vl53l0x_api_core.c **** 	uint32_t macro_period_ps;
 483:Api\core\src/vl53l0x_api_core.c **** 
 484:Api\core\src/vl53l0x_api_core.c **** 	LOG_FUNCTION_START("");
 485:Api\core\src/vl53l0x_api_core.c **** 
 486:Api\core\src/vl53l0x_api_core.c **** 	/* The above calculation will produce rounding errors,
 487:Api\core\src/vl53l0x_api_core.c **** 	   therefore set fixed value
 488:Api\core\src/vl53l0x_api_core.c **** 	*/
 489:Api\core\src/vl53l0x_api_core.c **** 	PLL_period_ps = 1655;
 2266              		.loc 1 489 0
 2267 000e 094B     		ldr	r3, .L57
 2268 0010 0024     		movs	r4, #0
 2269 0012 3B61     		str	r3, [r7, #16]
 2270 0014 7C61     		str	r4, [r7, #20]
 490:Api\core\src/vl53l0x_api_core.c **** 
 491:Api\core\src/vl53l0x_api_core.c **** 	macro_period_vclks = 2304;
 2271              		.loc 1 491 0
 2272 0016 9023     		movs	r3, #144
 2273 0018 1B01     		lsls	r3, r3, #4
 2274 001a FB60     		str	r3, [r7, #12]
 492:Api\core\src/vl53l0x_api_core.c **** 	macro_period_ps = (uint32_t)(macro_period_vclks
 493:Api\core\src/vl53l0x_api_core.c **** 			* vcsel_period_pclks * PLL_period_ps);
 2275              		.loc 1 493 0
 2276 001c FB1C     		adds	r3, r7, #3
 2277 001e 1B78     		ldrb	r3, [r3]
ARM GAS  C:\Users\ilya\AppData\Local\Temp\ccAjPEqD.s 			page 50


 2278 0020 FA68     		ldr	r2, [r7, #12]
 2279 0022 5343     		muls	r3, r2
 492:Api\core\src/vl53l0x_api_core.c **** 	macro_period_ps = (uint32_t)(macro_period_vclks
 2280              		.loc 1 492 0
 2281 0024 3A69     		ldr	r2, [r7, #16]
 2282 0026 5343     		muls	r3, r2
 2283 0028 BB60     		str	r3, [r7, #8]
 494:Api\core\src/vl53l0x_api_core.c **** 
 495:Api\core\src/vl53l0x_api_core.c **** 	LOG_FUNCTION_END("");
 496:Api\core\src/vl53l0x_api_core.c **** 	return macro_period_ps;
 2284              		.loc 1 496 0
 2285 002a BB68     		ldr	r3, [r7, #8]
 497:Api\core\src/vl53l0x_api_core.c **** }
 2286              		.loc 1 497 0
 2287 002c 1800     		movs	r0, r3
 2288 002e BD46     		mov	sp, r7
 2289 0030 07B0     		add	sp, sp, #28
 2290              		@ sp needed
 2291 0032 90BD     		pop	{r4, r7, pc}
 2292              	.L58:
 2293              		.align	2
 2294              	.L57:
 2295 0034 77060000 		.word	1655
 2296              		.cfi_endproc
 2297              	.LFE9:
 2298              		.size	VL53L0X_calc_macro_period_ps, .-VL53L0X_calc_macro_period_ps
 2299              		.section	.text.VL53L0X_encode_timeout,"ax",%progbits
 2300              		.align	2
 2301              		.global	VL53L0X_encode_timeout
 2302              		.code	16
 2303              		.thumb_func
 2304              		.type	VL53L0X_encode_timeout, %function
 2305              	VL53L0X_encode_timeout:
 2306              	.LFB10:
 498:Api\core\src/vl53l0x_api_core.c **** 
 499:Api\core\src/vl53l0x_api_core.c **** uint16_t VL53L0X_encode_timeout(uint32_t timeout_macro_clks)
 500:Api\core\src/vl53l0x_api_core.c **** {
 2307              		.loc 1 500 0
 2308              		.cfi_startproc
 2309              		@ args = 0, pretend = 0, frame = 24
 2310              		@ frame_needed = 1, uses_anonymous_args = 0
 2311 0000 80B5     		push	{r7, lr}
 2312              		.cfi_def_cfa_offset 8
 2313              		.cfi_offset 7, -8
 2314              		.cfi_offset 14, -4
 2315 0002 86B0     		sub	sp, sp, #24
 2316              		.cfi_def_cfa_offset 32
 2317 0004 00AF     		add	r7, sp, #0
 2318              		.cfi_def_cfa_register 7
 2319 0006 7860     		str	r0, [r7, #4]
 501:Api\core\src/vl53l0x_api_core.c **** 	/*!
 502:Api\core\src/vl53l0x_api_core.c **** 	 * Encode timeout in macro periods in (LSByte * 2^MSByte) + 1 format
 503:Api\core\src/vl53l0x_api_core.c **** 	 */
 504:Api\core\src/vl53l0x_api_core.c **** 
 505:Api\core\src/vl53l0x_api_core.c **** 	uint16_t encoded_timeout = 0;
 2320              		.loc 1 505 0
 2321 0008 1623     		movs	r3, #22
ARM GAS  C:\Users\ilya\AppData\Local\Temp\ccAjPEqD.s 			page 51


 2322 000a FB18     		adds	r3, r7, r3
 2323 000c 0022     		movs	r2, #0
 2324 000e 1A80     		strh	r2, [r3]
 506:Api\core\src/vl53l0x_api_core.c **** 	uint32_t ls_byte = 0;
 2325              		.loc 1 506 0
 2326 0010 0023     		movs	r3, #0
 2327 0012 3B61     		str	r3, [r7, #16]
 507:Api\core\src/vl53l0x_api_core.c **** 	uint16_t ms_byte = 0;
 2328              		.loc 1 507 0
 2329 0014 0E23     		movs	r3, #14
 2330 0016 FB18     		adds	r3, r7, r3
 2331 0018 0022     		movs	r2, #0
 2332 001a 1A80     		strh	r2, [r3]
 508:Api\core\src/vl53l0x_api_core.c **** 
 509:Api\core\src/vl53l0x_api_core.c **** 	if (timeout_macro_clks > 0) {
 2333              		.loc 1 509 0
 2334 001c 7B68     		ldr	r3, [r7, #4]
 2335 001e 002B     		cmp	r3, #0
 2336 0020 1FD0     		beq	.L60
 510:Api\core\src/vl53l0x_api_core.c **** 		ls_byte = timeout_macro_clks - 1;
 2337              		.loc 1 510 0
 2338 0022 7B68     		ldr	r3, [r7, #4]
 2339 0024 013B     		subs	r3, r3, #1
 2340 0026 3B61     		str	r3, [r7, #16]
 511:Api\core\src/vl53l0x_api_core.c **** 
 512:Api\core\src/vl53l0x_api_core.c **** 		while ((ls_byte & 0xFFFFFF00) > 0) {
 2341              		.loc 1 512 0
 2342 0028 09E0     		b	.L61
 2343              	.L62:
 513:Api\core\src/vl53l0x_api_core.c **** 			ls_byte = ls_byte >> 1;
 2344              		.loc 1 513 0
 2345 002a 3B69     		ldr	r3, [r7, #16]
 2346 002c 5B08     		lsrs	r3, r3, #1
 2347 002e 3B61     		str	r3, [r7, #16]
 514:Api\core\src/vl53l0x_api_core.c **** 			ms_byte++;
 2348              		.loc 1 514 0
 2349 0030 0E23     		movs	r3, #14
 2350 0032 FB18     		adds	r3, r7, r3
 2351 0034 1A88     		ldrh	r2, [r3]
 2352 0036 0E23     		movs	r3, #14
 2353 0038 FB18     		adds	r3, r7, r3
 2354 003a 0132     		adds	r2, r2, #1
 2355 003c 1A80     		strh	r2, [r3]
 2356              	.L61:
 512:Api\core\src/vl53l0x_api_core.c **** 			ls_byte = ls_byte >> 1;
 2357              		.loc 1 512 0
 2358 003e 3B69     		ldr	r3, [r7, #16]
 2359 0040 FF22     		movs	r2, #255
 2360 0042 9343     		bics	r3, r2
 2361 0044 F1D1     		bne	.L62
 515:Api\core\src/vl53l0x_api_core.c **** 		}
 516:Api\core\src/vl53l0x_api_core.c **** 
 517:Api\core\src/vl53l0x_api_core.c **** 		encoded_timeout = (ms_byte << 8)
 2362              		.loc 1 517 0
 2363 0046 0E23     		movs	r3, #14
 2364 0048 FB18     		adds	r3, r7, r3
 2365 004a 1B88     		ldrh	r3, [r3]
ARM GAS  C:\Users\ilya\AppData\Local\Temp\ccAjPEqD.s 			page 52


 2366 004c 1B02     		lsls	r3, r3, #8
 2367 004e 99B2     		uxth	r1, r3
 2368 0050 3B69     		ldr	r3, [r7, #16]
 2369 0052 9BB2     		uxth	r3, r3
 2370 0054 FF22     		movs	r2, #255
 2371 0056 1340     		ands	r3, r2
 2372 0058 9AB2     		uxth	r2, r3
 2373 005a 1623     		movs	r3, #22
 2374 005c FB18     		adds	r3, r7, r3
 2375 005e 8A18     		adds	r2, r1, r2
 2376 0060 1A80     		strh	r2, [r3]
 2377              	.L60:
 518:Api\core\src/vl53l0x_api_core.c **** 				+ (uint16_t) (ls_byte & 0x000000FF);
 519:Api\core\src/vl53l0x_api_core.c **** 	}
 520:Api\core\src/vl53l0x_api_core.c **** 
 521:Api\core\src/vl53l0x_api_core.c **** 	return encoded_timeout;
 2378              		.loc 1 521 0
 2379 0062 1623     		movs	r3, #22
 2380 0064 FB18     		adds	r3, r7, r3
 2381 0066 1B88     		ldrh	r3, [r3]
 522:Api\core\src/vl53l0x_api_core.c **** 
 523:Api\core\src/vl53l0x_api_core.c **** }
 2382              		.loc 1 523 0
 2383 0068 1800     		movs	r0, r3
 2384 006a BD46     		mov	sp, r7
 2385 006c 06B0     		add	sp, sp, #24
 2386              		@ sp needed
 2387 006e 80BD     		pop	{r7, pc}
 2388              		.cfi_endproc
 2389              	.LFE10:
 2390              		.size	VL53L0X_encode_timeout, .-VL53L0X_encode_timeout
 2391              		.section	.text.VL53L0X_decode_timeout,"ax",%progbits
 2392              		.align	2
 2393              		.global	VL53L0X_decode_timeout
 2394              		.code	16
 2395              		.thumb_func
 2396              		.type	VL53L0X_decode_timeout, %function
 2397              	VL53L0X_decode_timeout:
 2398              	.LFB11:
 524:Api\core\src/vl53l0x_api_core.c **** 
 525:Api\core\src/vl53l0x_api_core.c **** uint32_t VL53L0X_decode_timeout(uint16_t encoded_timeout)
 526:Api\core\src/vl53l0x_api_core.c **** {
 2399              		.loc 1 526 0
 2400              		.cfi_startproc
 2401              		@ args = 0, pretend = 0, frame = 16
 2402              		@ frame_needed = 1, uses_anonymous_args = 0
 2403 0000 80B5     		push	{r7, lr}
 2404              		.cfi_def_cfa_offset 8
 2405              		.cfi_offset 7, -8
 2406              		.cfi_offset 14, -4
 2407 0002 84B0     		sub	sp, sp, #16
 2408              		.cfi_def_cfa_offset 24
 2409 0004 00AF     		add	r7, sp, #0
 2410              		.cfi_def_cfa_register 7
 2411 0006 0200     		movs	r2, r0
 2412 0008 BB1D     		adds	r3, r7, #6
 2413 000a 1A80     		strh	r2, [r3]
ARM GAS  C:\Users\ilya\AppData\Local\Temp\ccAjPEqD.s 			page 53


 527:Api\core\src/vl53l0x_api_core.c **** 	/*!
 528:Api\core\src/vl53l0x_api_core.c **** 	 * Decode 16-bit timeout register value - format (LSByte * 2^MSByte) + 1
 529:Api\core\src/vl53l0x_api_core.c **** 	 */
 530:Api\core\src/vl53l0x_api_core.c **** 
 531:Api\core\src/vl53l0x_api_core.c **** 	uint32_t timeout_macro_clks = 0;
 2414              		.loc 1 531 0
 2415 000c 0023     		movs	r3, #0
 2416 000e FB60     		str	r3, [r7, #12]
 532:Api\core\src/vl53l0x_api_core.c **** 
 533:Api\core\src/vl53l0x_api_core.c **** 	timeout_macro_clks = ((uint32_t) (encoded_timeout & 0x00FF)
 2417              		.loc 1 533 0
 2418 0010 BB1D     		adds	r3, r7, #6
 2419 0012 1B88     		ldrh	r3, [r3]
 2420 0014 FF22     		movs	r2, #255
 2421 0016 1340     		ands	r3, r2
 534:Api\core\src/vl53l0x_api_core.c **** 			<< (uint32_t) ((encoded_timeout & 0xFF00) >> 8)) + 1;
 2422              		.loc 1 534 0
 2423 0018 BA1D     		adds	r2, r7, #6
 2424 001a 1288     		ldrh	r2, [r2]
 2425 001c 120A     		lsrs	r2, r2, #8
 2426 001e 92B2     		uxth	r2, r2
 2427 0020 9340     		lsls	r3, r3, r2
 533:Api\core\src/vl53l0x_api_core.c **** 			<< (uint32_t) ((encoded_timeout & 0xFF00) >> 8)) + 1;
 2428              		.loc 1 533 0
 2429 0022 0133     		adds	r3, r3, #1
 2430 0024 FB60     		str	r3, [r7, #12]
 535:Api\core\src/vl53l0x_api_core.c **** 
 536:Api\core\src/vl53l0x_api_core.c **** 	return timeout_macro_clks;
 2431              		.loc 1 536 0
 2432 0026 FB68     		ldr	r3, [r7, #12]
 537:Api\core\src/vl53l0x_api_core.c **** }
 2433              		.loc 1 537 0
 2434 0028 1800     		movs	r0, r3
 2435 002a BD46     		mov	sp, r7
 2436 002c 04B0     		add	sp, sp, #16
 2437              		@ sp needed
 2438 002e 80BD     		pop	{r7, pc}
 2439              		.cfi_endproc
 2440              	.LFE11:
 2441              		.size	VL53L0X_decode_timeout, .-VL53L0X_decode_timeout
 2442              		.global	__aeabi_uidiv
 2443              		.section	.text.VL53L0X_calc_timeout_mclks,"ax",%progbits
 2444              		.align	2
 2445              		.global	VL53L0X_calc_timeout_mclks
 2446              		.code	16
 2447              		.thumb_func
 2448              		.type	VL53L0X_calc_timeout_mclks, %function
 2449              	VL53L0X_calc_timeout_mclks:
 2450              	.LFB12:
 538:Api\core\src/vl53l0x_api_core.c **** 
 539:Api\core\src/vl53l0x_api_core.c **** 
 540:Api\core\src/vl53l0x_api_core.c **** /* To convert ms into register value */
 541:Api\core\src/vl53l0x_api_core.c **** uint32_t VL53L0X_calc_timeout_mclks(VL53L0X_DEV Dev,
 542:Api\core\src/vl53l0x_api_core.c **** 		uint32_t timeout_period_us,
 543:Api\core\src/vl53l0x_api_core.c **** 		uint8_t vcsel_period_pclks)
 544:Api\core\src/vl53l0x_api_core.c **** {
 2451              		.loc 1 544 0
ARM GAS  C:\Users\ilya\AppData\Local\Temp\ccAjPEqD.s 			page 54


 2452              		.cfi_startproc
 2453              		@ args = 0, pretend = 0, frame = 32
 2454              		@ frame_needed = 1, uses_anonymous_args = 0
 2455 0000 80B5     		push	{r7, lr}
 2456              		.cfi_def_cfa_offset 8
 2457              		.cfi_offset 7, -8
 2458              		.cfi_offset 14, -4
 2459 0002 88B0     		sub	sp, sp, #32
 2460              		.cfi_def_cfa_offset 40
 2461 0004 00AF     		add	r7, sp, #0
 2462              		.cfi_def_cfa_register 7
 2463 0006 F860     		str	r0, [r7, #12]
 2464 0008 B960     		str	r1, [r7, #8]
 2465 000a FB1D     		adds	r3, r7, #7
 2466 000c 1A70     		strb	r2, [r3]
 545:Api\core\src/vl53l0x_api_core.c **** 	uint32_t macro_period_ps;
 546:Api\core\src/vl53l0x_api_core.c **** 	uint32_t macro_period_ns;
 547:Api\core\src/vl53l0x_api_core.c **** 	uint32_t timeout_period_mclks = 0;
 2467              		.loc 1 547 0
 2468 000e 0023     		movs	r3, #0
 2469 0010 FB61     		str	r3, [r7, #28]
 548:Api\core\src/vl53l0x_api_core.c **** 
 549:Api\core\src/vl53l0x_api_core.c **** 	macro_period_ps = VL53L0X_calc_macro_period_ps(Dev, vcsel_period_pclks);
 2470              		.loc 1 549 0
 2471 0012 FB1D     		adds	r3, r7, #7
 2472 0014 1A78     		ldrb	r2, [r3]
 2473 0016 FB68     		ldr	r3, [r7, #12]
 2474 0018 1100     		movs	r1, r2
 2475 001a 1800     		movs	r0, r3
 2476 001c FFF7FEFF 		bl	VL53L0X_calc_macro_period_ps
 2477 0020 0300     		movs	r3, r0
 2478 0022 BB61     		str	r3, [r7, #24]
 550:Api\core\src/vl53l0x_api_core.c **** 	macro_period_ns = (macro_period_ps + 500) / 1000;
 2479              		.loc 1 550 0
 2480 0024 BB69     		ldr	r3, [r7, #24]
 2481 0026 F533     		adds	r3, r3, #245
 2482 0028 FF33     		adds	r3, r3, #255
 2483 002a 1A00     		movs	r2, r3
 2484 002c FA23     		movs	r3, #250
 2485 002e 9900     		lsls	r1, r3, #2
 2486 0030 1000     		movs	r0, r2
 2487 0032 FFF7FEFF 		bl	__aeabi_uidiv
 2488 0036 0300     		movs	r3, r0
 2489 0038 7B61     		str	r3, [r7, #20]
 551:Api\core\src/vl53l0x_api_core.c **** 
 552:Api\core\src/vl53l0x_api_core.c **** 	timeout_period_mclks =
 553:Api\core\src/vl53l0x_api_core.c **** 		(uint32_t) (((timeout_period_us * 1000)
 2490              		.loc 1 553 0
 2491 003a BB68     		ldr	r3, [r7, #8]
 2492 003c FA22     		movs	r2, #250
 2493 003e 9200     		lsls	r2, r2, #2
 2494 0040 5A43     		muls	r2, r3
 554:Api\core\src/vl53l0x_api_core.c **** 		+ (macro_period_ns / 2)) / macro_period_ns);
 2495              		.loc 1 554 0
 2496 0042 7B69     		ldr	r3, [r7, #20]
 2497 0044 5B08     		lsrs	r3, r3, #1
 2498 0046 D318     		adds	r3, r2, r3
ARM GAS  C:\Users\ilya\AppData\Local\Temp\ccAjPEqD.s 			page 55


 552:Api\core\src/vl53l0x_api_core.c **** 		(uint32_t) (((timeout_period_us * 1000)
 2499              		.loc 1 552 0
 2500 0048 7969     		ldr	r1, [r7, #20]
 2501 004a 1800     		movs	r0, r3
 2502 004c FFF7FEFF 		bl	__aeabi_uidiv
 2503 0050 0300     		movs	r3, r0
 2504 0052 FB61     		str	r3, [r7, #28]
 555:Api\core\src/vl53l0x_api_core.c **** 
 556:Api\core\src/vl53l0x_api_core.c ****     return timeout_period_mclks;
 2505              		.loc 1 556 0
 2506 0054 FB69     		ldr	r3, [r7, #28]
 557:Api\core\src/vl53l0x_api_core.c **** }
 2507              		.loc 1 557 0
 2508 0056 1800     		movs	r0, r3
 2509 0058 BD46     		mov	sp, r7
 2510 005a 08B0     		add	sp, sp, #32
 2511              		@ sp needed
 2512 005c 80BD     		pop	{r7, pc}
 2513              		.cfi_endproc
 2514              	.LFE12:
 2515              		.size	VL53L0X_calc_timeout_mclks, .-VL53L0X_calc_timeout_mclks
 2516 005e C046     		.section	.text.VL53L0X_calc_timeout_us,"ax",%progbits
 2517              		.align	2
 2518              		.global	VL53L0X_calc_timeout_us
 2519              		.code	16
 2520              		.thumb_func
 2521              		.type	VL53L0X_calc_timeout_us, %function
 2522              	VL53L0X_calc_timeout_us:
 2523              	.LFB13:
 558:Api\core\src/vl53l0x_api_core.c **** 
 559:Api\core\src/vl53l0x_api_core.c **** /* To convert register value into us */
 560:Api\core\src/vl53l0x_api_core.c **** uint32_t VL53L0X_calc_timeout_us(VL53L0X_DEV Dev,
 561:Api\core\src/vl53l0x_api_core.c **** 		uint16_t timeout_period_mclks,
 562:Api\core\src/vl53l0x_api_core.c **** 		uint8_t vcsel_period_pclks)
 563:Api\core\src/vl53l0x_api_core.c **** {
 2524              		.loc 1 563 0
 2525              		.cfi_startproc
 2526              		@ args = 0, pretend = 0, frame = 24
 2527              		@ frame_needed = 1, uses_anonymous_args = 0
 2528 0000 80B5     		push	{r7, lr}
 2529              		.cfi_def_cfa_offset 8
 2530              		.cfi_offset 7, -8
 2531              		.cfi_offset 14, -4
 2532 0002 86B0     		sub	sp, sp, #24
 2533              		.cfi_def_cfa_offset 32
 2534 0004 00AF     		add	r7, sp, #0
 2535              		.cfi_def_cfa_register 7
 2536 0006 7860     		str	r0, [r7, #4]
 2537 0008 0800     		movs	r0, r1
 2538 000a 1100     		movs	r1, r2
 2539 000c BB1C     		adds	r3, r7, #2
 2540 000e 021C     		adds	r2, r0, #0
 2541 0010 1A80     		strh	r2, [r3]
 2542 0012 7B1C     		adds	r3, r7, #1
 2543 0014 0A1C     		adds	r2, r1, #0
 2544 0016 1A70     		strb	r2, [r3]
 564:Api\core\src/vl53l0x_api_core.c **** 	uint32_t macro_period_ps;
ARM GAS  C:\Users\ilya\AppData\Local\Temp\ccAjPEqD.s 			page 56


 565:Api\core\src/vl53l0x_api_core.c **** 	uint32_t macro_period_ns;
 566:Api\core\src/vl53l0x_api_core.c **** 	uint32_t actual_timeout_period_us = 0;
 2545              		.loc 1 566 0
 2546 0018 0023     		movs	r3, #0
 2547 001a 7B61     		str	r3, [r7, #20]
 567:Api\core\src/vl53l0x_api_core.c **** 
 568:Api\core\src/vl53l0x_api_core.c **** 	macro_period_ps = VL53L0X_calc_macro_period_ps(Dev, vcsel_period_pclks);
 2548              		.loc 1 568 0
 2549 001c 7B1C     		adds	r3, r7, #1
 2550 001e 1A78     		ldrb	r2, [r3]
 2551 0020 7B68     		ldr	r3, [r7, #4]
 2552 0022 1100     		movs	r1, r2
 2553 0024 1800     		movs	r0, r3
 2554 0026 FFF7FEFF 		bl	VL53L0X_calc_macro_period_ps
 2555 002a 0300     		movs	r3, r0
 2556 002c 3B61     		str	r3, [r7, #16]
 569:Api\core\src/vl53l0x_api_core.c **** 	macro_period_ns = (macro_period_ps + 500) / 1000;
 2557              		.loc 1 569 0
 2558 002e 3B69     		ldr	r3, [r7, #16]
 2559 0030 F533     		adds	r3, r3, #245
 2560 0032 FF33     		adds	r3, r3, #255
 2561 0034 1A00     		movs	r2, r3
 2562 0036 FA23     		movs	r3, #250
 2563 0038 9900     		lsls	r1, r3, #2
 2564 003a 1000     		movs	r0, r2
 2565 003c FFF7FEFF 		bl	__aeabi_uidiv
 2566 0040 0300     		movs	r3, r0
 2567 0042 FB60     		str	r3, [r7, #12]
 570:Api\core\src/vl53l0x_api_core.c **** 
 571:Api\core\src/vl53l0x_api_core.c **** 	actual_timeout_period_us =
 572:Api\core\src/vl53l0x_api_core.c **** 		((timeout_period_mclks * macro_period_ns) + 500) / 1000;
 2568              		.loc 1 572 0
 2569 0044 BB1C     		adds	r3, r7, #2
 2570 0046 1B88     		ldrh	r3, [r3]
 2571 0048 FA68     		ldr	r2, [r7, #12]
 2572 004a 5343     		muls	r3, r2
 2573 004c F533     		adds	r3, r3, #245
 2574 004e FF33     		adds	r3, r3, #255
 2575 0050 1A00     		movs	r2, r3
 571:Api\core\src/vl53l0x_api_core.c **** 		((timeout_period_mclks * macro_period_ns) + 500) / 1000;
 2576              		.loc 1 571 0
 2577 0052 FA23     		movs	r3, #250
 2578 0054 9900     		lsls	r1, r3, #2
 2579 0056 1000     		movs	r0, r2
 2580 0058 FFF7FEFF 		bl	__aeabi_uidiv
 2581 005c 0300     		movs	r3, r0
 2582 005e 7B61     		str	r3, [r7, #20]
 573:Api\core\src/vl53l0x_api_core.c **** 
 574:Api\core\src/vl53l0x_api_core.c **** 	return actual_timeout_period_us;
 2583              		.loc 1 574 0
 2584 0060 7B69     		ldr	r3, [r7, #20]
 575:Api\core\src/vl53l0x_api_core.c **** }
 2585              		.loc 1 575 0
 2586 0062 1800     		movs	r0, r3
 2587 0064 BD46     		mov	sp, r7
 2588 0066 06B0     		add	sp, sp, #24
 2589              		@ sp needed
ARM GAS  C:\Users\ilya\AppData\Local\Temp\ccAjPEqD.s 			page 57


 2590 0068 80BD     		pop	{r7, pc}
 2591              		.cfi_endproc
 2592              	.LFE13:
 2593              		.size	VL53L0X_calc_timeout_us, .-VL53L0X_calc_timeout_us
 2594              		.section	.text.get_sequence_step_timeout,"ax",%progbits
 2595              		.align	2
 2596              		.global	get_sequence_step_timeout
 2597              		.code	16
 2598              		.thumb_func
 2599              		.type	get_sequence_step_timeout, %function
 2600              	get_sequence_step_timeout:
 2601              	.LFB14:
 576:Api\core\src/vl53l0x_api_core.c **** 
 577:Api\core\src/vl53l0x_api_core.c **** 
 578:Api\core\src/vl53l0x_api_core.c **** VL53L0X_Error get_sequence_step_timeout(VL53L0X_DEV Dev,
 579:Api\core\src/vl53l0x_api_core.c **** 				VL53L0X_SequenceStepId SequenceStepId,
 580:Api\core\src/vl53l0x_api_core.c **** 				uint32_t *pTimeOutMicroSecs)
 581:Api\core\src/vl53l0x_api_core.c **** {
 2602              		.loc 1 581 0
 2603              		.cfi_startproc
 2604              		@ args = 0, pretend = 0, frame = 48
 2605              		@ frame_needed = 1, uses_anonymous_args = 0
 2606 0000 90B5     		push	{r4, r7, lr}
 2607              		.cfi_def_cfa_offset 12
 2608              		.cfi_offset 4, -12
 2609              		.cfi_offset 7, -8
 2610              		.cfi_offset 14, -4
 2611 0002 8DB0     		sub	sp, sp, #52
 2612              		.cfi_def_cfa_offset 64
 2613 0004 00AF     		add	r7, sp, #0
 2614              		.cfi_def_cfa_register 7
 2615 0006 F860     		str	r0, [r7, #12]
 2616 0008 7A60     		str	r2, [r7, #4]
 2617 000a 0B23     		movs	r3, #11
 2618 000c FB18     		adds	r3, r7, r3
 2619 000e 0A1C     		adds	r2, r1, #0
 2620 0010 1A70     		strb	r2, [r3]
 582:Api\core\src/vl53l0x_api_core.c **** 	VL53L0X_Error Status = VL53L0X_ERROR_NONE;
 2621              		.loc 1 582 0
 2622 0012 2F23     		movs	r3, #47
 2623 0014 FB18     		adds	r3, r7, r3
 2624 0016 0022     		movs	r2, #0
 2625 0018 1A70     		strb	r2, [r3]
 583:Api\core\src/vl53l0x_api_core.c **** 	uint8_t CurrentVCSELPulsePeriodPClk;
 584:Api\core\src/vl53l0x_api_core.c **** 	uint8_t EncodedTimeOutByte = 0;
 2626              		.loc 1 584 0
 2627 001a 2023     		movs	r3, #32
 2628 001c FB18     		adds	r3, r7, r3
 2629 001e 0022     		movs	r2, #0
 2630 0020 1A70     		strb	r2, [r3]
 585:Api\core\src/vl53l0x_api_core.c **** 	uint32_t TimeoutMicroSeconds = 0;
 2631              		.loc 1 585 0
 2632 0022 0023     		movs	r3, #0
 2633 0024 BB62     		str	r3, [r7, #40]
 586:Api\core\src/vl53l0x_api_core.c **** 	uint16_t PreRangeEncodedTimeOut = 0;
 2634              		.loc 1 586 0
 2635 0026 1E23     		movs	r3, #30
ARM GAS  C:\Users\ilya\AppData\Local\Temp\ccAjPEqD.s 			page 58


 2636 0028 FB18     		adds	r3, r7, r3
 2637 002a 0022     		movs	r2, #0
 2638 002c 1A80     		strh	r2, [r3]
 587:Api\core\src/vl53l0x_api_core.c **** 	uint16_t MsrcTimeOutMClks;
 588:Api\core\src/vl53l0x_api_core.c **** 	uint16_t PreRangeTimeOutMClks;
 589:Api\core\src/vl53l0x_api_core.c **** 	uint16_t FinalRangeTimeOutMClks = 0;
 2639              		.loc 1 589 0
 2640 002e 2423     		movs	r3, #36
 2641 0030 FB18     		adds	r3, r7, r3
 2642 0032 0022     		movs	r2, #0
 2643 0034 1A80     		strh	r2, [r3]
 590:Api\core\src/vl53l0x_api_core.c **** 	uint16_t FinalRangeEncodedTimeOut;
 591:Api\core\src/vl53l0x_api_core.c **** 	VL53L0X_SchedulerSequenceSteps_t SchedulerSequenceSteps;
 592:Api\core\src/vl53l0x_api_core.c **** 
 593:Api\core\src/vl53l0x_api_core.c **** 	if ((SequenceStepId == VL53L0X_SEQUENCESTEP_TCC)	 ||
 2644              		.loc 1 593 0
 2645 0036 0B23     		movs	r3, #11
 2646 0038 FB18     		adds	r3, r7, r3
 2647 003a 1B78     		ldrb	r3, [r3]
 2648 003c 002B     		cmp	r3, #0
 2649 003e 09D0     		beq	.L71
 2650              		.loc 1 593 0 is_stmt 0 discriminator 1
 2651 0040 0B23     		movs	r3, #11
 2652 0042 FB18     		adds	r3, r7, r3
 2653 0044 1B78     		ldrb	r3, [r3]
 2654 0046 012B     		cmp	r3, #1
 2655 0048 04D0     		beq	.L71
 594:Api\core\src/vl53l0x_api_core.c **** 		(SequenceStepId == VL53L0X_SEQUENCESTEP_DSS)	 ||
 2656              		.loc 1 594 0 is_stmt 1
 2657 004a 0B23     		movs	r3, #11
 2658 004c FB18     		adds	r3, r7, r3
 2659 004e 1B78     		ldrb	r3, [r3]
 2660 0050 022B     		cmp	r3, #2
 2661 0052 33D1     		bne	.L72
 2662              	.L71:
 595:Api\core\src/vl53l0x_api_core.c **** 		(SequenceStepId == VL53L0X_SEQUENCESTEP_MSRC)) {
 596:Api\core\src/vl53l0x_api_core.c **** 
 597:Api\core\src/vl53l0x_api_core.c **** 		Status = VL53L0X_GetVcselPulsePeriod(Dev,
 2663              		.loc 1 597 0
 2664 0054 2F23     		movs	r3, #47
 2665 0056 FC18     		adds	r4, r7, r3
 2666 0058 2123     		movs	r3, #33
 2667 005a FA18     		adds	r2, r7, r3
 2668 005c FB68     		ldr	r3, [r7, #12]
 2669 005e 0021     		movs	r1, #0
 2670 0060 1800     		movs	r0, r3
 2671 0062 FFF7FEFF 		bl	VL53L0X_GetVcselPulsePeriod
 2672 0066 0300     		movs	r3, r0
 2673 0068 2370     		strb	r3, [r4]
 598:Api\core\src/vl53l0x_api_core.c **** 					VL53L0X_VCSEL_PERIOD_PRE_RANGE,
 599:Api\core\src/vl53l0x_api_core.c **** 					&CurrentVCSELPulsePeriodPClk);
 600:Api\core\src/vl53l0x_api_core.c **** 		if (Status == VL53L0X_ERROR_NONE) {
 2674              		.loc 1 600 0
 2675 006a 2F23     		movs	r3, #47
 2676 006c FB18     		adds	r3, r7, r3
 2677 006e 1B78     		ldrb	r3, [r3]
 2678 0070 5BB2     		sxtb	r3, r3
ARM GAS  C:\Users\ilya\AppData\Local\Temp\ccAjPEqD.s 			page 59


 2679 0072 002B     		cmp	r3, #0
 2680 0074 0AD1     		bne	.L73
 601:Api\core\src/vl53l0x_api_core.c **** 			Status = VL53L0X_RdByte(Dev,
 2681              		.loc 1 601 0
 2682 0076 2F23     		movs	r3, #47
 2683 0078 FC18     		adds	r4, r7, r3
 2684 007a 2023     		movs	r3, #32
 2685 007c FA18     		adds	r2, r7, r3
 2686 007e FB68     		ldr	r3, [r7, #12]
 2687 0080 4621     		movs	r1, #70
 2688 0082 1800     		movs	r0, r3
 2689 0084 FFF7FEFF 		bl	VL53L0X_RdByte
 2690 0088 0300     		movs	r3, r0
 2691 008a 2370     		strb	r3, [r4]
 2692              	.L73:
 602:Api\core\src/vl53l0x_api_core.c **** 					VL53L0X_REG_MSRC_CONFIG_TIMEOUT_MACROP,
 603:Api\core\src/vl53l0x_api_core.c **** 					&EncodedTimeOutByte);
 604:Api\core\src/vl53l0x_api_core.c **** 		}
 605:Api\core\src/vl53l0x_api_core.c **** 		MsrcTimeOutMClks = VL53L0X_decode_timeout(EncodedTimeOutByte);
 2693              		.loc 1 605 0
 2694 008c 2023     		movs	r3, #32
 2695 008e FB18     		adds	r3, r7, r3
 2696 0090 1B78     		ldrb	r3, [r3]
 2697 0092 9BB2     		uxth	r3, r3
 2698 0094 1800     		movs	r0, r3
 2699 0096 FFF7FEFF 		bl	VL53L0X_decode_timeout
 2700 009a 0200     		movs	r2, r0
 2701 009c 2223     		movs	r3, #34
 2702 009e FB18     		adds	r3, r7, r3
 2703 00a0 1A80     		strh	r2, [r3]
 606:Api\core\src/vl53l0x_api_core.c **** 
 607:Api\core\src/vl53l0x_api_core.c **** 		TimeoutMicroSeconds = VL53L0X_calc_timeout_us(Dev,
 2704              		.loc 1 607 0
 2705 00a2 2123     		movs	r3, #33
 2706 00a4 FB18     		adds	r3, r7, r3
 2707 00a6 1A78     		ldrb	r2, [r3]
 2708 00a8 2223     		movs	r3, #34
 2709 00aa FB18     		adds	r3, r7, r3
 2710 00ac 1988     		ldrh	r1, [r3]
 2711 00ae FB68     		ldr	r3, [r7, #12]
 2712 00b0 1800     		movs	r0, r3
 2713 00b2 FFF7FEFF 		bl	VL53L0X_calc_timeout_us
 2714 00b6 0300     		movs	r3, r0
 2715 00b8 BB62     		str	r3, [r7, #40]
 2716 00ba C7E0     		b	.L74
 2717              	.L72:
 608:Api\core\src/vl53l0x_api_core.c **** 						MsrcTimeOutMClks,
 609:Api\core\src/vl53l0x_api_core.c **** 						CurrentVCSELPulsePeriodPClk);
 610:Api\core\src/vl53l0x_api_core.c **** 	} else if (SequenceStepId == VL53L0X_SEQUENCESTEP_PRE_RANGE) {
 2718              		.loc 1 610 0
 2719 00bc 0B23     		movs	r3, #11
 2720 00be FB18     		adds	r3, r7, r3
 2721 00c0 1B78     		ldrb	r3, [r3]
 2722 00c2 032B     		cmp	r3, #3
 2723 00c4 44D1     		bne	.L75
 611:Api\core\src/vl53l0x_api_core.c **** 		/* Retrieve PRE-RANGE VCSEL Period */
 612:Api\core\src/vl53l0x_api_core.c **** 		Status = VL53L0X_GetVcselPulsePeriod(Dev,
ARM GAS  C:\Users\ilya\AppData\Local\Temp\ccAjPEqD.s 			page 60


 2724              		.loc 1 612 0
 2725 00c6 2F23     		movs	r3, #47
 2726 00c8 FC18     		adds	r4, r7, r3
 2727 00ca 2123     		movs	r3, #33
 2728 00cc FA18     		adds	r2, r7, r3
 2729 00ce FB68     		ldr	r3, [r7, #12]
 2730 00d0 0021     		movs	r1, #0
 2731 00d2 1800     		movs	r0, r3
 2732 00d4 FFF7FEFF 		bl	VL53L0X_GetVcselPulsePeriod
 2733 00d8 0300     		movs	r3, r0
 2734 00da 2370     		strb	r3, [r4]
 613:Api\core\src/vl53l0x_api_core.c **** 						VL53L0X_VCSEL_PERIOD_PRE_RANGE,
 614:Api\core\src/vl53l0x_api_core.c **** 						&CurrentVCSELPulsePeriodPClk);
 615:Api\core\src/vl53l0x_api_core.c **** 
 616:Api\core\src/vl53l0x_api_core.c **** 		/* Retrieve PRE-RANGE Timeout in Macro periods (MCLKS) */
 617:Api\core\src/vl53l0x_api_core.c **** 		if (Status == VL53L0X_ERROR_NONE) {
 2735              		.loc 1 617 0
 2736 00dc 2F23     		movs	r3, #47
 2737 00de FB18     		adds	r3, r7, r3
 2738 00e0 1B78     		ldrb	r3, [r3]
 2739 00e2 5BB2     		sxtb	r3, r3
 2740 00e4 002B     		cmp	r3, #0
 2741 00e6 00D0     		beq	.LCB2413
 2742 00e8 B0E0     		b	.L74	@long jump
 2743              	.LCB2413:
 618:Api\core\src/vl53l0x_api_core.c **** 
 619:Api\core\src/vl53l0x_api_core.c **** 			/* Retrieve PRE-RANGE VCSEL Period */
 620:Api\core\src/vl53l0x_api_core.c **** 			Status = VL53L0X_GetVcselPulsePeriod(Dev,
 2744              		.loc 1 620 0
 2745 00ea 2F23     		movs	r3, #47
 2746 00ec FC18     		adds	r4, r7, r3
 2747 00ee 2123     		movs	r3, #33
 2748 00f0 FA18     		adds	r2, r7, r3
 2749 00f2 FB68     		ldr	r3, [r7, #12]
 2750 00f4 0021     		movs	r1, #0
 2751 00f6 1800     		movs	r0, r3
 2752 00f8 FFF7FEFF 		bl	VL53L0X_GetVcselPulsePeriod
 2753 00fc 0300     		movs	r3, r0
 2754 00fe 2370     		strb	r3, [r4]
 621:Api\core\src/vl53l0x_api_core.c **** 					VL53L0X_VCSEL_PERIOD_PRE_RANGE,
 622:Api\core\src/vl53l0x_api_core.c **** 					&CurrentVCSELPulsePeriodPClk);
 623:Api\core\src/vl53l0x_api_core.c **** 
 624:Api\core\src/vl53l0x_api_core.c **** 			if (Status == VL53L0X_ERROR_NONE) {
 2755              		.loc 1 624 0
 2756 0100 2F23     		movs	r3, #47
 2757 0102 FB18     		adds	r3, r7, r3
 2758 0104 1B78     		ldrb	r3, [r3]
 2759 0106 5BB2     		sxtb	r3, r3
 2760 0108 002B     		cmp	r3, #0
 2761 010a 0AD1     		bne	.L77
 625:Api\core\src/vl53l0x_api_core.c **** 				Status = VL53L0X_RdWord(Dev,
 2762              		.loc 1 625 0
 2763 010c 2F23     		movs	r3, #47
 2764 010e FC18     		adds	r4, r7, r3
 2765 0110 1E23     		movs	r3, #30
 2766 0112 FA18     		adds	r2, r7, r3
 2767 0114 FB68     		ldr	r3, [r7, #12]
ARM GAS  C:\Users\ilya\AppData\Local\Temp\ccAjPEqD.s 			page 61


 2768 0116 5121     		movs	r1, #81
 2769 0118 1800     		movs	r0, r3
 2770 011a FFF7FEFF 		bl	VL53L0X_RdWord
 2771 011e 0300     		movs	r3, r0
 2772 0120 2370     		strb	r3, [r4]
 2773              	.L77:
 626:Api\core\src/vl53l0x_api_core.c **** 				VL53L0X_REG_PRE_RANGE_CONFIG_TIMEOUT_MACROP_HI,
 627:Api\core\src/vl53l0x_api_core.c **** 				&PreRangeEncodedTimeOut);
 628:Api\core\src/vl53l0x_api_core.c **** 			}
 629:Api\core\src/vl53l0x_api_core.c **** 
 630:Api\core\src/vl53l0x_api_core.c **** 			PreRangeTimeOutMClks = VL53L0X_decode_timeout(
 2774              		.loc 1 630 0
 2775 0122 1E23     		movs	r3, #30
 2776 0124 FB18     		adds	r3, r7, r3
 2777 0126 1B88     		ldrh	r3, [r3]
 2778 0128 1800     		movs	r0, r3
 2779 012a FFF7FEFF 		bl	VL53L0X_decode_timeout
 2780 012e 0200     		movs	r2, r0
 2781 0130 2623     		movs	r3, #38
 2782 0132 FB18     		adds	r3, r7, r3
 2783 0134 1A80     		strh	r2, [r3]
 631:Api\core\src/vl53l0x_api_core.c **** 					PreRangeEncodedTimeOut);
 632:Api\core\src/vl53l0x_api_core.c **** 
 633:Api\core\src/vl53l0x_api_core.c **** 			TimeoutMicroSeconds = VL53L0X_calc_timeout_us(Dev,
 2784              		.loc 1 633 0
 2785 0136 2123     		movs	r3, #33
 2786 0138 FB18     		adds	r3, r7, r3
 2787 013a 1A78     		ldrb	r2, [r3]
 2788 013c 2623     		movs	r3, #38
 2789 013e FB18     		adds	r3, r7, r3
 2790 0140 1988     		ldrh	r1, [r3]
 2791 0142 FB68     		ldr	r3, [r7, #12]
 2792 0144 1800     		movs	r0, r3
 2793 0146 FFF7FEFF 		bl	VL53L0X_calc_timeout_us
 2794 014a 0300     		movs	r3, r0
 2795 014c BB62     		str	r3, [r7, #40]
 2796 014e 7DE0     		b	.L74
 2797              	.L75:
 634:Api\core\src/vl53l0x_api_core.c **** 					PreRangeTimeOutMClks,
 635:Api\core\src/vl53l0x_api_core.c **** 					CurrentVCSELPulsePeriodPClk);
 636:Api\core\src/vl53l0x_api_core.c **** 		}
 637:Api\core\src/vl53l0x_api_core.c **** 	} else if (SequenceStepId == VL53L0X_SEQUENCESTEP_FINAL_RANGE) {
 2798              		.loc 1 637 0
 2799 0150 0B23     		movs	r3, #11
 2800 0152 FB18     		adds	r3, r7, r3
 2801 0154 1B78     		ldrb	r3, [r3]
 2802 0156 042B     		cmp	r3, #4
 2803 0158 00D0     		beq	.LCB2470
 2804 015a 77E0     		b	.L74	@long jump
 2805              	.LCB2470:
 638:Api\core\src/vl53l0x_api_core.c **** 
 639:Api\core\src/vl53l0x_api_core.c **** 		VL53L0X_GetSequenceStepEnables(Dev, &SchedulerSequenceSteps);
 2806              		.loc 1 639 0
 2807 015c 1423     		movs	r3, #20
 2808 015e FA18     		adds	r2, r7, r3
 2809 0160 FB68     		ldr	r3, [r7, #12]
 2810 0162 1100     		movs	r1, r2
ARM GAS  C:\Users\ilya\AppData\Local\Temp\ccAjPEqD.s 			page 62


 2811 0164 1800     		movs	r0, r3
 2812 0166 FFF7FEFF 		bl	VL53L0X_GetSequenceStepEnables
 640:Api\core\src/vl53l0x_api_core.c **** 		PreRangeTimeOutMClks = 0;
 2813              		.loc 1 640 0
 2814 016a 2623     		movs	r3, #38
 2815 016c FB18     		adds	r3, r7, r3
 2816 016e 0022     		movs	r2, #0
 2817 0170 1A80     		strh	r2, [r3]
 641:Api\core\src/vl53l0x_api_core.c **** 
 642:Api\core\src/vl53l0x_api_core.c **** 		if (SchedulerSequenceSteps.PreRangeOn) {
 2818              		.loc 1 642 0
 2819 0172 1423     		movs	r3, #20
 2820 0174 FB18     		adds	r3, r7, r3
 2821 0176 DB78     		ldrb	r3, [r3, #3]
 2822 0178 002B     		cmp	r3, #0
 2823 017a 25D0     		beq	.L78
 643:Api\core\src/vl53l0x_api_core.c **** 			/* Retrieve PRE-RANGE VCSEL Period */
 644:Api\core\src/vl53l0x_api_core.c **** 			Status = VL53L0X_GetVcselPulsePeriod(Dev,
 2824              		.loc 1 644 0
 2825 017c 2F23     		movs	r3, #47
 2826 017e FC18     		adds	r4, r7, r3
 2827 0180 2123     		movs	r3, #33
 2828 0182 FA18     		adds	r2, r7, r3
 2829 0184 FB68     		ldr	r3, [r7, #12]
 2830 0186 0021     		movs	r1, #0
 2831 0188 1800     		movs	r0, r3
 2832 018a FFF7FEFF 		bl	VL53L0X_GetVcselPulsePeriod
 2833 018e 0300     		movs	r3, r0
 2834 0190 2370     		strb	r3, [r4]
 645:Api\core\src/vl53l0x_api_core.c **** 				VL53L0X_VCSEL_PERIOD_PRE_RANGE,
 646:Api\core\src/vl53l0x_api_core.c **** 				&CurrentVCSELPulsePeriodPClk);
 647:Api\core\src/vl53l0x_api_core.c **** 
 648:Api\core\src/vl53l0x_api_core.c **** 			/* Retrieve PRE-RANGE Timeout in Macro periods
 649:Api\core\src/vl53l0x_api_core.c **** 			 * (MCLKS) */
 650:Api\core\src/vl53l0x_api_core.c **** 			if (Status == VL53L0X_ERROR_NONE) {
 2835              		.loc 1 650 0
 2836 0192 2F23     		movs	r3, #47
 2837 0194 FB18     		adds	r3, r7, r3
 2838 0196 1B78     		ldrb	r3, [r3]
 2839 0198 5BB2     		sxtb	r3, r3
 2840 019a 002B     		cmp	r3, #0
 2841 019c 14D1     		bne	.L78
 651:Api\core\src/vl53l0x_api_core.c **** 				Status = VL53L0X_RdWord(Dev,
 2842              		.loc 1 651 0
 2843 019e 2F23     		movs	r3, #47
 2844 01a0 FC18     		adds	r4, r7, r3
 2845 01a2 1E23     		movs	r3, #30
 2846 01a4 FA18     		adds	r2, r7, r3
 2847 01a6 FB68     		ldr	r3, [r7, #12]
 2848 01a8 5121     		movs	r1, #81
 2849 01aa 1800     		movs	r0, r3
 2850 01ac FFF7FEFF 		bl	VL53L0X_RdWord
 2851 01b0 0300     		movs	r3, r0
 2852 01b2 2370     		strb	r3, [r4]
 652:Api\core\src/vl53l0x_api_core.c **** 				VL53L0X_REG_PRE_RANGE_CONFIG_TIMEOUT_MACROP_HI,
 653:Api\core\src/vl53l0x_api_core.c **** 				&PreRangeEncodedTimeOut);
 654:Api\core\src/vl53l0x_api_core.c **** 				PreRangeTimeOutMClks = VL53L0X_decode_timeout(
ARM GAS  C:\Users\ilya\AppData\Local\Temp\ccAjPEqD.s 			page 63


 2853              		.loc 1 654 0
 2854 01b4 1E23     		movs	r3, #30
 2855 01b6 FB18     		adds	r3, r7, r3
 2856 01b8 1B88     		ldrh	r3, [r3]
 2857 01ba 1800     		movs	r0, r3
 2858 01bc FFF7FEFF 		bl	VL53L0X_decode_timeout
 2859 01c0 0200     		movs	r2, r0
 2860 01c2 2623     		movs	r3, #38
 2861 01c4 FB18     		adds	r3, r7, r3
 2862 01c6 1A80     		strh	r2, [r3]
 2863              	.L78:
 655:Api\core\src/vl53l0x_api_core.c **** 						PreRangeEncodedTimeOut);
 656:Api\core\src/vl53l0x_api_core.c **** 			}
 657:Api\core\src/vl53l0x_api_core.c **** 		}
 658:Api\core\src/vl53l0x_api_core.c **** 
 659:Api\core\src/vl53l0x_api_core.c **** 		if (Status == VL53L0X_ERROR_NONE) {
 2864              		.loc 1 659 0
 2865 01c8 2F23     		movs	r3, #47
 2866 01ca FB18     		adds	r3, r7, r3
 2867 01cc 1B78     		ldrb	r3, [r3]
 2868 01ce 5BB2     		sxtb	r3, r3
 2869 01d0 002B     		cmp	r3, #0
 2870 01d2 0AD1     		bne	.L79
 660:Api\core\src/vl53l0x_api_core.c **** 			/* Retrieve FINAL-RANGE VCSEL Period */
 661:Api\core\src/vl53l0x_api_core.c **** 			Status = VL53L0X_GetVcselPulsePeriod(Dev,
 2871              		.loc 1 661 0
 2872 01d4 2F23     		movs	r3, #47
 2873 01d6 FC18     		adds	r4, r7, r3
 2874 01d8 2123     		movs	r3, #33
 2875 01da FA18     		adds	r2, r7, r3
 2876 01dc FB68     		ldr	r3, [r7, #12]
 2877 01de 0121     		movs	r1, #1
 2878 01e0 1800     		movs	r0, r3
 2879 01e2 FFF7FEFF 		bl	VL53L0X_GetVcselPulsePeriod
 2880 01e6 0300     		movs	r3, r0
 2881 01e8 2370     		strb	r3, [r4]
 2882              	.L79:
 662:Api\core\src/vl53l0x_api_core.c **** 					VL53L0X_VCSEL_PERIOD_FINAL_RANGE,
 663:Api\core\src/vl53l0x_api_core.c **** 					&CurrentVCSELPulsePeriodPClk);
 664:Api\core\src/vl53l0x_api_core.c **** 		}
 665:Api\core\src/vl53l0x_api_core.c **** 
 666:Api\core\src/vl53l0x_api_core.c **** 		/* Retrieve FINAL-RANGE Timeout in Macro periods (MCLKS) */
 667:Api\core\src/vl53l0x_api_core.c **** 		if (Status == VL53L0X_ERROR_NONE) {
 2883              		.loc 1 667 0
 2884 01ea 2F23     		movs	r3, #47
 2885 01ec FB18     		adds	r3, r7, r3
 2886 01ee 1B78     		ldrb	r3, [r3]
 2887 01f0 5BB2     		sxtb	r3, r3
 2888 01f2 002B     		cmp	r3, #0
 2889 01f4 14D1     		bne	.L80
 668:Api\core\src/vl53l0x_api_core.c **** 			Status = VL53L0X_RdWord(Dev,
 2890              		.loc 1 668 0
 2891 01f6 2F23     		movs	r3, #47
 2892 01f8 FC18     		adds	r4, r7, r3
 2893 01fa 1C23     		movs	r3, #28
 2894 01fc FA18     		adds	r2, r7, r3
 2895 01fe FB68     		ldr	r3, [r7, #12]
ARM GAS  C:\Users\ilya\AppData\Local\Temp\ccAjPEqD.s 			page 64


 2896 0200 7121     		movs	r1, #113
 2897 0202 1800     		movs	r0, r3
 2898 0204 FFF7FEFF 		bl	VL53L0X_RdWord
 2899 0208 0300     		movs	r3, r0
 2900 020a 2370     		strb	r3, [r4]
 669:Api\core\src/vl53l0x_api_core.c **** 				VL53L0X_REG_FINAL_RANGE_CONFIG_TIMEOUT_MACROP_HI,
 670:Api\core\src/vl53l0x_api_core.c **** 				&FinalRangeEncodedTimeOut);
 671:Api\core\src/vl53l0x_api_core.c **** 			FinalRangeTimeOutMClks = VL53L0X_decode_timeout(
 2901              		.loc 1 671 0
 2902 020c 1C23     		movs	r3, #28
 2903 020e FB18     		adds	r3, r7, r3
 2904 0210 1B88     		ldrh	r3, [r3]
 2905 0212 1800     		movs	r0, r3
 2906 0214 FFF7FEFF 		bl	VL53L0X_decode_timeout
 2907 0218 0200     		movs	r2, r0
 2908 021a 2423     		movs	r3, #36
 2909 021c FB18     		adds	r3, r7, r3
 2910 021e 1A80     		strh	r2, [r3]
 2911              	.L80:
 672:Api\core\src/vl53l0x_api_core.c **** 					FinalRangeEncodedTimeOut);
 673:Api\core\src/vl53l0x_api_core.c **** 		}
 674:Api\core\src/vl53l0x_api_core.c **** 
 675:Api\core\src/vl53l0x_api_core.c **** 		FinalRangeTimeOutMClks -= PreRangeTimeOutMClks;
 2912              		.loc 1 675 0
 2913 0220 2423     		movs	r3, #36
 2914 0222 FB18     		adds	r3, r7, r3
 2915 0224 2422     		movs	r2, #36
 2916 0226 B918     		adds	r1, r7, r2
 2917 0228 2622     		movs	r2, #38
 2918 022a BA18     		adds	r2, r7, r2
 2919 022c 0988     		ldrh	r1, [r1]
 2920 022e 1288     		ldrh	r2, [r2]
 2921 0230 8A1A     		subs	r2, r1, r2
 2922 0232 1A80     		strh	r2, [r3]
 676:Api\core\src/vl53l0x_api_core.c **** 		TimeoutMicroSeconds = VL53L0X_calc_timeout_us(Dev,
 2923              		.loc 1 676 0
 2924 0234 2123     		movs	r3, #33
 2925 0236 FB18     		adds	r3, r7, r3
 2926 0238 1A78     		ldrb	r2, [r3]
 2927 023a 2423     		movs	r3, #36
 2928 023c FB18     		adds	r3, r7, r3
 2929 023e 1988     		ldrh	r1, [r3]
 2930 0240 FB68     		ldr	r3, [r7, #12]
 2931 0242 1800     		movs	r0, r3
 2932 0244 FFF7FEFF 		bl	VL53L0X_calc_timeout_us
 2933 0248 0300     		movs	r3, r0
 2934 024a BB62     		str	r3, [r7, #40]
 2935              	.L74:
 677:Api\core\src/vl53l0x_api_core.c **** 						FinalRangeTimeOutMClks,
 678:Api\core\src/vl53l0x_api_core.c **** 						CurrentVCSELPulsePeriodPClk);
 679:Api\core\src/vl53l0x_api_core.c **** 	}
 680:Api\core\src/vl53l0x_api_core.c **** 
 681:Api\core\src/vl53l0x_api_core.c **** 	*pTimeOutMicroSecs = TimeoutMicroSeconds;
 2936              		.loc 1 681 0
 2937 024c 7B68     		ldr	r3, [r7, #4]
 2938 024e BA6A     		ldr	r2, [r7, #40]
 2939 0250 1A60     		str	r2, [r3]
ARM GAS  C:\Users\ilya\AppData\Local\Temp\ccAjPEqD.s 			page 65


 682:Api\core\src/vl53l0x_api_core.c **** 
 683:Api\core\src/vl53l0x_api_core.c **** 	return Status;
 2940              		.loc 1 683 0
 2941 0252 2F23     		movs	r3, #47
 2942 0254 FB18     		adds	r3, r7, r3
 2943 0256 1B78     		ldrb	r3, [r3]
 2944 0258 5BB2     		sxtb	r3, r3
 684:Api\core\src/vl53l0x_api_core.c **** }
 2945              		.loc 1 684 0
 2946 025a 1800     		movs	r0, r3
 2947 025c BD46     		mov	sp, r7
 2948 025e 0DB0     		add	sp, sp, #52
 2949              		@ sp needed
 2950 0260 90BD     		pop	{r4, r7, pc}
 2951              		.cfi_endproc
 2952              	.LFE14:
 2953              		.size	get_sequence_step_timeout, .-get_sequence_step_timeout
 2954 0262 C046     		.section	.text.set_sequence_step_timeout,"ax",%progbits
 2955              		.align	2
 2956              		.global	set_sequence_step_timeout
 2957              		.code	16
 2958              		.thumb_func
 2959              		.type	set_sequence_step_timeout, %function
 2960              	set_sequence_step_timeout:
 2961              	.LFB15:
 685:Api\core\src/vl53l0x_api_core.c **** 
 686:Api\core\src/vl53l0x_api_core.c **** 
 687:Api\core\src/vl53l0x_api_core.c **** VL53L0X_Error set_sequence_step_timeout(VL53L0X_DEV Dev,
 688:Api\core\src/vl53l0x_api_core.c **** 					VL53L0X_SequenceStepId SequenceStepId,
 689:Api\core\src/vl53l0x_api_core.c **** 					uint32_t TimeOutMicroSecs)
 690:Api\core\src/vl53l0x_api_core.c **** {
 2962              		.loc 1 690 0
 2963              		.cfi_startproc
 2964              		@ args = 0, pretend = 0, frame = 40
 2965              		@ frame_needed = 1, uses_anonymous_args = 0
 2966 0000 90B5     		push	{r4, r7, lr}
 2967              		.cfi_def_cfa_offset 12
 2968              		.cfi_offset 4, -12
 2969              		.cfi_offset 7, -8
 2970              		.cfi_offset 14, -4
 2971 0002 8BB0     		sub	sp, sp, #44
 2972              		.cfi_def_cfa_offset 56
 2973 0004 00AF     		add	r7, sp, #0
 2974              		.cfi_def_cfa_register 7
 2975 0006 F860     		str	r0, [r7, #12]
 2976 0008 7A60     		str	r2, [r7, #4]
 2977 000a 0B23     		movs	r3, #11
 2978 000c FB18     		adds	r3, r7, r3
 2979 000e 0A1C     		adds	r2, r1, #0
 2980 0010 1A70     		strb	r2, [r3]
 691:Api\core\src/vl53l0x_api_core.c **** 	VL53L0X_Error Status = VL53L0X_ERROR_NONE;
 2981              		.loc 1 691 0
 2982 0012 2723     		movs	r3, #39
 2983 0014 FB18     		adds	r3, r7, r3
 2984 0016 0022     		movs	r2, #0
 2985 0018 1A70     		strb	r2, [r3]
 692:Api\core\src/vl53l0x_api_core.c **** 	uint8_t CurrentVCSELPulsePeriodPClk;
ARM GAS  C:\Users\ilya\AppData\Local\Temp\ccAjPEqD.s 			page 66


 693:Api\core\src/vl53l0x_api_core.c **** 	uint8_t MsrcEncodedTimeOut;
 694:Api\core\src/vl53l0x_api_core.c **** 	uint16_t PreRangeEncodedTimeOut;
 695:Api\core\src/vl53l0x_api_core.c **** 	uint16_t PreRangeTimeOutMClks;
 696:Api\core\src/vl53l0x_api_core.c **** 	uint16_t MsrcRangeTimeOutMClks;
 697:Api\core\src/vl53l0x_api_core.c **** 	uint32_t FinalRangeTimeOutMClks;
 698:Api\core\src/vl53l0x_api_core.c **** 	uint16_t FinalRangeEncodedTimeOut;
 699:Api\core\src/vl53l0x_api_core.c **** 	VL53L0X_SchedulerSequenceSteps_t SchedulerSequenceSteps;
 700:Api\core\src/vl53l0x_api_core.c **** 
 701:Api\core\src/vl53l0x_api_core.c **** 	if ((SequenceStepId == VL53L0X_SEQUENCESTEP_TCC)	 ||
 2986              		.loc 1 701 0
 2987 001a 0B23     		movs	r3, #11
 2988 001c FB18     		adds	r3, r7, r3
 2989 001e 1B78     		ldrb	r3, [r3]
 2990 0020 002B     		cmp	r3, #0
 2991 0022 09D0     		beq	.L83
 2992              		.loc 1 701 0 is_stmt 0 discriminator 1
 2993 0024 0B23     		movs	r3, #11
 2994 0026 FB18     		adds	r3, r7, r3
 2995 0028 1B78     		ldrb	r3, [r3]
 2996 002a 012B     		cmp	r3, #1
 2997 002c 04D0     		beq	.L83
 702:Api\core\src/vl53l0x_api_core.c **** 		(SequenceStepId == VL53L0X_SEQUENCESTEP_DSS)	 ||
 2998              		.loc 1 702 0 is_stmt 1
 2999 002e 0B23     		movs	r3, #11
 3000 0030 FB18     		adds	r3, r7, r3
 3001 0032 1B78     		ldrb	r3, [r3]
 3002 0034 022B     		cmp	r3, #2
 3003 0036 4BD1     		bne	.L84
 3004              	.L83:
 703:Api\core\src/vl53l0x_api_core.c **** 		(SequenceStepId == VL53L0X_SEQUENCESTEP_MSRC)) {
 704:Api\core\src/vl53l0x_api_core.c **** 
 705:Api\core\src/vl53l0x_api_core.c **** 		Status = VL53L0X_GetVcselPulsePeriod(Dev,
 3005              		.loc 1 705 0
 3006 0038 2723     		movs	r3, #39
 3007 003a FC18     		adds	r4, r7, r3
 3008 003c 1B23     		movs	r3, #27
 3009 003e FA18     		adds	r2, r7, r3
 3010 0040 FB68     		ldr	r3, [r7, #12]
 3011 0042 0021     		movs	r1, #0
 3012 0044 1800     		movs	r0, r3
 3013 0046 FFF7FEFF 		bl	VL53L0X_GetVcselPulsePeriod
 3014 004a 0300     		movs	r3, r0
 3015 004c 2370     		strb	r3, [r4]
 706:Api\core\src/vl53l0x_api_core.c **** 					VL53L0X_VCSEL_PERIOD_PRE_RANGE,
 707:Api\core\src/vl53l0x_api_core.c **** 					&CurrentVCSELPulsePeriodPClk);
 708:Api\core\src/vl53l0x_api_core.c **** 
 709:Api\core\src/vl53l0x_api_core.c **** 		if (Status == VL53L0X_ERROR_NONE) {
 3016              		.loc 1 709 0
 3017 004e 2723     		movs	r3, #39
 3018 0050 FB18     		adds	r3, r7, r3
 3019 0052 1B78     		ldrb	r3, [r3]
 3020 0054 5BB2     		sxtb	r3, r3
 3021 0056 002B     		cmp	r3, #0
 3022 0058 26D1     		bne	.L85
 710:Api\core\src/vl53l0x_api_core.c **** 			MsrcRangeTimeOutMClks = VL53L0X_calc_timeout_mclks(Dev,
 3023              		.loc 1 710 0
 3024 005a 1B23     		movs	r3, #27
ARM GAS  C:\Users\ilya\AppData\Local\Temp\ccAjPEqD.s 			page 67


 3025 005c FB18     		adds	r3, r7, r3
 3026 005e 1A78     		ldrb	r2, [r3]
 3027 0060 7968     		ldr	r1, [r7, #4]
 3028 0062 FB68     		ldr	r3, [r7, #12]
 3029 0064 1800     		movs	r0, r3
 3030 0066 FFF7FEFF 		bl	VL53L0X_calc_timeout_mclks
 3031 006a 0200     		movs	r2, r0
 3032 006c 1C23     		movs	r3, #28
 3033 006e FB18     		adds	r3, r7, r3
 3034 0070 1A80     		strh	r2, [r3]
 711:Api\core\src/vl53l0x_api_core.c **** 					TimeOutMicroSecs,
 712:Api\core\src/vl53l0x_api_core.c **** 					(uint8_t)CurrentVCSELPulsePeriodPClk);
 713:Api\core\src/vl53l0x_api_core.c **** 
 714:Api\core\src/vl53l0x_api_core.c **** 			if (MsrcRangeTimeOutMClks > 256)
 3035              		.loc 1 714 0
 3036 0072 1C23     		movs	r3, #28
 3037 0074 FB18     		adds	r3, r7, r3
 3038 0076 1A88     		ldrh	r2, [r3]
 3039 0078 8023     		movs	r3, #128
 3040 007a 5B00     		lsls	r3, r3, #1
 3041 007c 9A42     		cmp	r2, r3
 3042 007e 04D9     		bls	.L86
 715:Api\core\src/vl53l0x_api_core.c **** 				MsrcEncodedTimeOut = 255;
 3043              		.loc 1 715 0
 3044 0080 2623     		movs	r3, #38
 3045 0082 FB18     		adds	r3, r7, r3
 3046 0084 FF22     		movs	r2, #255
 3047 0086 1A70     		strb	r2, [r3]
 3048 0088 07E0     		b	.L87
 3049              	.L86:
 716:Api\core\src/vl53l0x_api_core.c **** 			else
 717:Api\core\src/vl53l0x_api_core.c **** 				MsrcEncodedTimeOut =
 718:Api\core\src/vl53l0x_api_core.c **** 					(uint8_t)MsrcRangeTimeOutMClks - 1;
 3050              		.loc 1 718 0
 3051 008a 1C23     		movs	r3, #28
 3052 008c FB18     		adds	r3, r7, r3
 3053 008e 1B88     		ldrh	r3, [r3]
 3054 0090 DAB2     		uxtb	r2, r3
 717:Api\core\src/vl53l0x_api_core.c **** 					(uint8_t)MsrcRangeTimeOutMClks - 1;
 3055              		.loc 1 717 0
 3056 0092 2623     		movs	r3, #38
 3057 0094 FB18     		adds	r3, r7, r3
 3058 0096 013A     		subs	r2, r2, #1
 3059 0098 1A70     		strb	r2, [r3]
 3060              	.L87:
 719:Api\core\src/vl53l0x_api_core.c **** 
 720:Api\core\src/vl53l0x_api_core.c **** 			VL53L0X_SETDEVICESPECIFICPARAMETER(Dev,
 3061              		.loc 1 720 0
 3062 009a 2623     		movs	r3, #38
 3063 009c FB18     		adds	r3, r7, r3
 3064 009e 1B78     		ldrb	r3, [r3]
 3065 00a0 99B2     		uxth	r1, r3
 3066 00a2 FB68     		ldr	r3, [r7, #12]
 3067 00a4 D822     		movs	r2, #216
 3068 00a6 9952     		strh	r1, [r3, r2]
 3069              	.L85:
 721:Api\core\src/vl53l0x_api_core.c **** 				LastEncodedTimeout,
ARM GAS  C:\Users\ilya\AppData\Local\Temp\ccAjPEqD.s 			page 68


 722:Api\core\src/vl53l0x_api_core.c **** 				MsrcEncodedTimeOut);
 723:Api\core\src/vl53l0x_api_core.c **** 		}
 724:Api\core\src/vl53l0x_api_core.c **** 
 725:Api\core\src/vl53l0x_api_core.c **** 		if (Status == VL53L0X_ERROR_NONE) {
 3070              		.loc 1 725 0
 3071 00a8 2723     		movs	r3, #39
 3072 00aa FB18     		adds	r3, r7, r3
 3073 00ac 1B78     		ldrb	r3, [r3]
 3074 00ae 5BB2     		sxtb	r3, r3
 3075 00b0 002B     		cmp	r3, #0
 3076 00b2 00D0     		beq	.LCB2715
 3077 00b4 E9E0     		b	.L89	@long jump
 3078              	.LCB2715:
 726:Api\core\src/vl53l0x_api_core.c **** 			Status = VL53L0X_WrByte(Dev,
 3079              		.loc 1 726 0
 3080 00b6 2723     		movs	r3, #39
 3081 00b8 FC18     		adds	r4, r7, r3
 3082 00ba 2623     		movs	r3, #38
 3083 00bc FB18     		adds	r3, r7, r3
 3084 00be 1A78     		ldrb	r2, [r3]
 3085 00c0 FB68     		ldr	r3, [r7, #12]
 3086 00c2 4621     		movs	r1, #70
 3087 00c4 1800     		movs	r0, r3
 3088 00c6 FFF7FEFF 		bl	VL53L0X_WrByte
 3089 00ca 0300     		movs	r3, r0
 3090 00cc 2370     		strb	r3, [r4]
 725:Api\core\src/vl53l0x_api_core.c **** 			Status = VL53L0X_WrByte(Dev,
 3091              		.loc 1 725 0
 3092 00ce DCE0     		b	.L89
 3093              	.L84:
 727:Api\core\src/vl53l0x_api_core.c **** 				VL53L0X_REG_MSRC_CONFIG_TIMEOUT_MACROP,
 728:Api\core\src/vl53l0x_api_core.c **** 				MsrcEncodedTimeOut);
 729:Api\core\src/vl53l0x_api_core.c **** 		}
 730:Api\core\src/vl53l0x_api_core.c **** 	} else {
 731:Api\core\src/vl53l0x_api_core.c **** 
 732:Api\core\src/vl53l0x_api_core.c **** 		if (SequenceStepId == VL53L0X_SEQUENCESTEP_PRE_RANGE) {
 3094              		.loc 1 732 0
 3095 00d0 0B23     		movs	r3, #11
 3096 00d2 FB18     		adds	r3, r7, r3
 3097 00d4 1B78     		ldrb	r3, [r3]
 3098 00d6 032B     		cmp	r3, #3
 3099 00d8 4BD1     		bne	.L90
 733:Api\core\src/vl53l0x_api_core.c **** 
 734:Api\core\src/vl53l0x_api_core.c **** 			if (Status == VL53L0X_ERROR_NONE) {
 3100              		.loc 1 734 0
 3101 00da 2723     		movs	r3, #39
 3102 00dc FB18     		adds	r3, r7, r3
 3103 00de 1B78     		ldrb	r3, [r3]
 3104 00e0 5BB2     		sxtb	r3, r3
 3105 00e2 002B     		cmp	r3, #0
 3106 00e4 27D1     		bne	.L91
 735:Api\core\src/vl53l0x_api_core.c **** 				Status = VL53L0X_GetVcselPulsePeriod(Dev,
 3107              		.loc 1 735 0
 3108 00e6 2723     		movs	r3, #39
 3109 00e8 FC18     		adds	r4, r7, r3
 3110 00ea 1B23     		movs	r3, #27
 3111 00ec FA18     		adds	r2, r7, r3
ARM GAS  C:\Users\ilya\AppData\Local\Temp\ccAjPEqD.s 			page 69


 3112 00ee FB68     		ldr	r3, [r7, #12]
 3113 00f0 0021     		movs	r1, #0
 3114 00f2 1800     		movs	r0, r3
 3115 00f4 FFF7FEFF 		bl	VL53L0X_GetVcselPulsePeriod
 3116 00f8 0300     		movs	r3, r0
 3117 00fa 2370     		strb	r3, [r4]
 736:Api\core\src/vl53l0x_api_core.c **** 						VL53L0X_VCSEL_PERIOD_PRE_RANGE,
 737:Api\core\src/vl53l0x_api_core.c **** 						&CurrentVCSELPulsePeriodPClk);
 738:Api\core\src/vl53l0x_api_core.c **** 				PreRangeTimeOutMClks =
 739:Api\core\src/vl53l0x_api_core.c **** 					VL53L0X_calc_timeout_mclks(Dev,
 3118              		.loc 1 739 0
 3119 00fc 1B23     		movs	r3, #27
 3120 00fe FB18     		adds	r3, r7, r3
 3121 0100 1A78     		ldrb	r2, [r3]
 3122 0102 7968     		ldr	r1, [r7, #4]
 3123 0104 FB68     		ldr	r3, [r7, #12]
 3124 0106 1800     		movs	r0, r3
 3125 0108 FFF7FEFF 		bl	VL53L0X_calc_timeout_mclks
 3126 010c 0200     		movs	r2, r0
 738:Api\core\src/vl53l0x_api_core.c **** 					VL53L0X_calc_timeout_mclks(Dev,
 3127              		.loc 1 738 0
 3128 010e 2423     		movs	r3, #36
 3129 0110 FB18     		adds	r3, r7, r3
 3130 0112 1A80     		strh	r2, [r3]
 740:Api\core\src/vl53l0x_api_core.c **** 					TimeOutMicroSecs,
 741:Api\core\src/vl53l0x_api_core.c **** 					(uint8_t)CurrentVCSELPulsePeriodPClk);
 742:Api\core\src/vl53l0x_api_core.c **** 				PreRangeEncodedTimeOut = VL53L0X_encode_timeout(
 3131              		.loc 1 742 0
 3132 0114 2423     		movs	r3, #36
 3133 0116 FB18     		adds	r3, r7, r3
 3134 0118 1B88     		ldrh	r3, [r3]
 3135 011a 1800     		movs	r0, r3
 3136 011c FFF7FEFF 		bl	VL53L0X_encode_timeout
 3137 0120 0300     		movs	r3, r0
 3138 0122 1A00     		movs	r2, r3
 3139 0124 1823     		movs	r3, #24
 3140 0126 FB18     		adds	r3, r7, r3
 3141 0128 1A80     		strh	r2, [r3]
 743:Api\core\src/vl53l0x_api_core.c **** 					PreRangeTimeOutMClks);
 744:Api\core\src/vl53l0x_api_core.c **** 
 745:Api\core\src/vl53l0x_api_core.c **** 				VL53L0X_SETDEVICESPECIFICPARAMETER(Dev,
 3142              		.loc 1 745 0
 3143 012a 1823     		movs	r3, #24
 3144 012c FB18     		adds	r3, r7, r3
 3145 012e 1988     		ldrh	r1, [r3]
 3146 0130 FB68     		ldr	r3, [r7, #12]
 3147 0132 D822     		movs	r2, #216
 3148 0134 9952     		strh	r1, [r3, r2]
 3149              	.L91:
 746:Api\core\src/vl53l0x_api_core.c **** 					LastEncodedTimeout,
 747:Api\core\src/vl53l0x_api_core.c **** 					PreRangeEncodedTimeOut);
 748:Api\core\src/vl53l0x_api_core.c **** 			}
 749:Api\core\src/vl53l0x_api_core.c **** 
 750:Api\core\src/vl53l0x_api_core.c **** 			if (Status == VL53L0X_ERROR_NONE) {
 3150              		.loc 1 750 0
 3151 0136 2723     		movs	r3, #39
 3152 0138 FB18     		adds	r3, r7, r3
ARM GAS  C:\Users\ilya\AppData\Local\Temp\ccAjPEqD.s 			page 70


 3153 013a 1B78     		ldrb	r3, [r3]
 3154 013c 5BB2     		sxtb	r3, r3
 3155 013e 002B     		cmp	r3, #0
 3156 0140 0BD1     		bne	.L92
 751:Api\core\src/vl53l0x_api_core.c **** 				Status = VL53L0X_WrWord(Dev,
 3157              		.loc 1 751 0
 3158 0142 1823     		movs	r3, #24
 3159 0144 FB18     		adds	r3, r7, r3
 3160 0146 1A88     		ldrh	r2, [r3]
 3161 0148 2723     		movs	r3, #39
 3162 014a FC18     		adds	r4, r7, r3
 3163 014c FB68     		ldr	r3, [r7, #12]
 3164 014e 5121     		movs	r1, #81
 3165 0150 1800     		movs	r0, r3
 3166 0152 FFF7FEFF 		bl	VL53L0X_WrWord
 3167 0156 0300     		movs	r3, r0
 3168 0158 2370     		strb	r3, [r4]
 3169              	.L92:
 752:Api\core\src/vl53l0x_api_core.c **** 				VL53L0X_REG_PRE_RANGE_CONFIG_TIMEOUT_MACROP_HI,
 753:Api\core\src/vl53l0x_api_core.c **** 				PreRangeEncodedTimeOut);
 754:Api\core\src/vl53l0x_api_core.c **** 			}
 755:Api\core\src/vl53l0x_api_core.c **** 
 756:Api\core\src/vl53l0x_api_core.c **** 			if (Status == VL53L0X_ERROR_NONE) {
 3170              		.loc 1 756 0
 3171 015a 2723     		movs	r3, #39
 3172 015c FB18     		adds	r3, r7, r3
 3173 015e 1B78     		ldrb	r3, [r3]
 3174 0160 5BB2     		sxtb	r3, r3
 3175 0162 002B     		cmp	r3, #0
 3176 0164 00D0     		beq	.LCB2805
 3177 0166 90E0     		b	.L89	@long jump
 3178              	.LCB2805:
 757:Api\core\src/vl53l0x_api_core.c **** 				VL53L0X_SETDEVICESPECIFICPARAMETER(
 3179              		.loc 1 757 0
 3180 0168 FB68     		ldr	r3, [r7, #12]
 3181 016a E421     		movs	r1, #228
 3182 016c 7A68     		ldr	r2, [r7, #4]
 3183 016e 5A50     		str	r2, [r3, r1]
 3184 0170 8BE0     		b	.L89
 3185              	.L90:
 758:Api\core\src/vl53l0x_api_core.c **** 					Dev,
 759:Api\core\src/vl53l0x_api_core.c **** 					PreRangeTimeoutMicroSecs,
 760:Api\core\src/vl53l0x_api_core.c **** 					TimeOutMicroSecs);
 761:Api\core\src/vl53l0x_api_core.c **** 			}
 762:Api\core\src/vl53l0x_api_core.c **** 		} else if (SequenceStepId == VL53L0X_SEQUENCESTEP_FINAL_RANGE) {
 3186              		.loc 1 762 0
 3187 0172 0B23     		movs	r3, #11
 3188 0174 FB18     		adds	r3, r7, r3
 3189 0176 1B78     		ldrb	r3, [r3]
 3190 0178 042B     		cmp	r3, #4
 3191 017a 00D0     		beq	.LCB2818
 3192 017c 81E0     		b	.L94	@long jump
 3193              	.LCB2818:
 763:Api\core\src/vl53l0x_api_core.c **** 
 764:Api\core\src/vl53l0x_api_core.c **** 			/* For the final range timeout, the pre-range timeout
 765:Api\core\src/vl53l0x_api_core.c **** 			 * must be added. To do this both final and pre-range
 766:Api\core\src/vl53l0x_api_core.c **** 			 * timeouts must be expressed in macro periods MClks
ARM GAS  C:\Users\ilya\AppData\Local\Temp\ccAjPEqD.s 			page 71


 767:Api\core\src/vl53l0x_api_core.c **** 			 * because they have different vcsel periods.
 768:Api\core\src/vl53l0x_api_core.c **** 			 */
 769:Api\core\src/vl53l0x_api_core.c **** 
 770:Api\core\src/vl53l0x_api_core.c **** 			VL53L0X_GetSequenceStepEnables(Dev,
 3194              		.loc 1 770 0
 3195 017e 1023     		movs	r3, #16
 3196 0180 FA18     		adds	r2, r7, r3
 3197 0182 FB68     		ldr	r3, [r7, #12]
 3198 0184 1100     		movs	r1, r2
 3199 0186 1800     		movs	r0, r3
 3200 0188 FFF7FEFF 		bl	VL53L0X_GetSequenceStepEnables
 771:Api\core\src/vl53l0x_api_core.c **** 					&SchedulerSequenceSteps);
 772:Api\core\src/vl53l0x_api_core.c **** 			PreRangeTimeOutMClks = 0;
 3201              		.loc 1 772 0
 3202 018c 2423     		movs	r3, #36
 3203 018e FB18     		adds	r3, r7, r3
 3204 0190 0022     		movs	r2, #0
 3205 0192 1A80     		strh	r2, [r3]
 773:Api\core\src/vl53l0x_api_core.c **** 			if (SchedulerSequenceSteps.PreRangeOn) {
 3206              		.loc 1 773 0
 3207 0194 1023     		movs	r3, #16
 3208 0196 FB18     		adds	r3, r7, r3
 3209 0198 DB78     		ldrb	r3, [r3, #3]
 3210 019a 002B     		cmp	r3, #0
 3211 019c 25D0     		beq	.L95
 774:Api\core\src/vl53l0x_api_core.c **** 
 775:Api\core\src/vl53l0x_api_core.c **** 				/* Retrieve PRE-RANGE VCSEL Period */
 776:Api\core\src/vl53l0x_api_core.c **** 				Status = VL53L0X_GetVcselPulsePeriod(Dev,
 3212              		.loc 1 776 0
 3213 019e 2723     		movs	r3, #39
 3214 01a0 FC18     		adds	r4, r7, r3
 3215 01a2 1B23     		movs	r3, #27
 3216 01a4 FA18     		adds	r2, r7, r3
 3217 01a6 FB68     		ldr	r3, [r7, #12]
 3218 01a8 0021     		movs	r1, #0
 3219 01aa 1800     		movs	r0, r3
 3220 01ac FFF7FEFF 		bl	VL53L0X_GetVcselPulsePeriod
 3221 01b0 0300     		movs	r3, r0
 3222 01b2 2370     		strb	r3, [r4]
 777:Api\core\src/vl53l0x_api_core.c **** 					VL53L0X_VCSEL_PERIOD_PRE_RANGE,
 778:Api\core\src/vl53l0x_api_core.c **** 					&CurrentVCSELPulsePeriodPClk);
 779:Api\core\src/vl53l0x_api_core.c **** 
 780:Api\core\src/vl53l0x_api_core.c **** 				/* Retrieve PRE-RANGE Timeout in Macro periods
 781:Api\core\src/vl53l0x_api_core.c **** 				 * (MCLKS) */
 782:Api\core\src/vl53l0x_api_core.c **** 				if (Status == VL53L0X_ERROR_NONE) {
 3223              		.loc 1 782 0
 3224 01b4 2723     		movs	r3, #39
 3225 01b6 FB18     		adds	r3, r7, r3
 3226 01b8 1B78     		ldrb	r3, [r3]
 3227 01ba 5BB2     		sxtb	r3, r3
 3228 01bc 002B     		cmp	r3, #0
 3229 01be 14D1     		bne	.L95
 783:Api\core\src/vl53l0x_api_core.c **** 					Status = VL53L0X_RdWord(Dev, 0x51,
 3230              		.loc 1 783 0
 3231 01c0 2723     		movs	r3, #39
 3232 01c2 FC18     		adds	r4, r7, r3
 3233 01c4 1823     		movs	r3, #24
ARM GAS  C:\Users\ilya\AppData\Local\Temp\ccAjPEqD.s 			page 72


 3234 01c6 FA18     		adds	r2, r7, r3
 3235 01c8 FB68     		ldr	r3, [r7, #12]
 3236 01ca 5121     		movs	r1, #81
 3237 01cc 1800     		movs	r0, r3
 3238 01ce FFF7FEFF 		bl	VL53L0X_RdWord
 3239 01d2 0300     		movs	r3, r0
 3240 01d4 2370     		strb	r3, [r4]
 784:Api\core\src/vl53l0x_api_core.c **** 						&PreRangeEncodedTimeOut);
 785:Api\core\src/vl53l0x_api_core.c **** 					PreRangeTimeOutMClks =
 786:Api\core\src/vl53l0x_api_core.c **** 						VL53L0X_decode_timeout(
 3241              		.loc 1 786 0
 3242 01d6 1823     		movs	r3, #24
 3243 01d8 FB18     		adds	r3, r7, r3
 3244 01da 1B88     		ldrh	r3, [r3]
 3245 01dc 1800     		movs	r0, r3
 3246 01de FFF7FEFF 		bl	VL53L0X_decode_timeout
 3247 01e2 0200     		movs	r2, r0
 785:Api\core\src/vl53l0x_api_core.c **** 						VL53L0X_decode_timeout(
 3248              		.loc 1 785 0
 3249 01e4 2423     		movs	r3, #36
 3250 01e6 FB18     		adds	r3, r7, r3
 3251 01e8 1A80     		strh	r2, [r3]
 3252              	.L95:
 787:Api\core\src/vl53l0x_api_core.c **** 							PreRangeEncodedTimeOut);
 788:Api\core\src/vl53l0x_api_core.c **** 				}
 789:Api\core\src/vl53l0x_api_core.c **** 			}
 790:Api\core\src/vl53l0x_api_core.c **** 
 791:Api\core\src/vl53l0x_api_core.c **** 			/* Calculate FINAL RANGE Timeout in Macro Periods
 792:Api\core\src/vl53l0x_api_core.c **** 			 * (MCLKS) and add PRE-RANGE value
 793:Api\core\src/vl53l0x_api_core.c **** 			 */
 794:Api\core\src/vl53l0x_api_core.c **** 			if (Status == VL53L0X_ERROR_NONE) {
 3253              		.loc 1 794 0
 3254 01ea 2723     		movs	r3, #39
 3255 01ec FB18     		adds	r3, r7, r3
 3256 01ee 1B78     		ldrb	r3, [r3]
 3257 01f0 5BB2     		sxtb	r3, r3
 3258 01f2 002B     		cmp	r3, #0
 3259 01f4 0AD1     		bne	.L96
 795:Api\core\src/vl53l0x_api_core.c **** 
 796:Api\core\src/vl53l0x_api_core.c **** 				Status = VL53L0X_GetVcselPulsePeriod(Dev,
 3260              		.loc 1 796 0
 3261 01f6 2723     		movs	r3, #39
 3262 01f8 FC18     		adds	r4, r7, r3
 3263 01fa 1B23     		movs	r3, #27
 3264 01fc FA18     		adds	r2, r7, r3
 3265 01fe FB68     		ldr	r3, [r7, #12]
 3266 0200 0121     		movs	r1, #1
 3267 0202 1800     		movs	r0, r3
 3268 0204 FFF7FEFF 		bl	VL53L0X_GetVcselPulsePeriod
 3269 0208 0300     		movs	r3, r0
 3270 020a 2370     		strb	r3, [r4]
 3271              	.L96:
 797:Api\core\src/vl53l0x_api_core.c **** 						VL53L0X_VCSEL_PERIOD_FINAL_RANGE,
 798:Api\core\src/vl53l0x_api_core.c **** 						&CurrentVCSELPulsePeriodPClk);
 799:Api\core\src/vl53l0x_api_core.c **** 			}
 800:Api\core\src/vl53l0x_api_core.c **** 			if (Status == VL53L0X_ERROR_NONE) {
 3272              		.loc 1 800 0
ARM GAS  C:\Users\ilya\AppData\Local\Temp\ccAjPEqD.s 			page 73


 3273 020c 2723     		movs	r3, #39
 3274 020e FB18     		adds	r3, r7, r3
 3275 0210 1B78     		ldrb	r3, [r3]
 3276 0212 5BB2     		sxtb	r3, r3
 3277 0214 002B     		cmp	r3, #0
 3278 0216 38D1     		bne	.L89
 801:Api\core\src/vl53l0x_api_core.c **** 
 802:Api\core\src/vl53l0x_api_core.c **** 				FinalRangeTimeOutMClks =
 803:Api\core\src/vl53l0x_api_core.c **** 					VL53L0X_calc_timeout_mclks(Dev,
 3279              		.loc 1 803 0
 3280 0218 1B23     		movs	r3, #27
 3281 021a FB18     		adds	r3, r7, r3
 3282 021c 1A78     		ldrb	r2, [r3]
 802:Api\core\src/vl53l0x_api_core.c **** 					VL53L0X_calc_timeout_mclks(Dev,
 3283              		.loc 1 802 0
 3284 021e 7968     		ldr	r1, [r7, #4]
 3285 0220 FB68     		ldr	r3, [r7, #12]
 3286 0222 1800     		movs	r0, r3
 3287 0224 FFF7FEFF 		bl	VL53L0X_calc_timeout_mclks
 3288 0228 0300     		movs	r3, r0
 3289 022a 3B62     		str	r3, [r7, #32]
 804:Api\core\src/vl53l0x_api_core.c **** 					TimeOutMicroSecs,
 805:Api\core\src/vl53l0x_api_core.c **** 					(uint8_t) CurrentVCSELPulsePeriodPClk);
 806:Api\core\src/vl53l0x_api_core.c **** 
 807:Api\core\src/vl53l0x_api_core.c **** 				FinalRangeTimeOutMClks += PreRangeTimeOutMClks;
 3290              		.loc 1 807 0
 3291 022c 2423     		movs	r3, #36
 3292 022e FB18     		adds	r3, r7, r3
 3293 0230 1B88     		ldrh	r3, [r3]
 3294 0232 3A6A     		ldr	r2, [r7, #32]
 3295 0234 D318     		adds	r3, r2, r3
 3296 0236 3B62     		str	r3, [r7, #32]
 808:Api\core\src/vl53l0x_api_core.c **** 
 809:Api\core\src/vl53l0x_api_core.c **** 				FinalRangeEncodedTimeOut =
 3297              		.loc 1 809 0
 3298 0238 1E23     		movs	r3, #30
 3299 023a FC18     		adds	r4, r7, r3
 3300 023c 3B6A     		ldr	r3, [r7, #32]
 3301 023e 1800     		movs	r0, r3
 3302 0240 FFF7FEFF 		bl	VL53L0X_encode_timeout
 3303 0244 0300     		movs	r3, r0
 3304 0246 2380     		strh	r3, [r4]
 810:Api\core\src/vl53l0x_api_core.c **** 				VL53L0X_encode_timeout(FinalRangeTimeOutMClks);
 811:Api\core\src/vl53l0x_api_core.c **** 
 812:Api\core\src/vl53l0x_api_core.c **** 				if (Status == VL53L0X_ERROR_NONE) {
 3305              		.loc 1 812 0
 3306 0248 2723     		movs	r3, #39
 3307 024a FB18     		adds	r3, r7, r3
 3308 024c 1B78     		ldrb	r3, [r3]
 3309 024e 5BB2     		sxtb	r3, r3
 3310 0250 002B     		cmp	r3, #0
 3311 0252 0BD1     		bne	.L98
 813:Api\core\src/vl53l0x_api_core.c **** 					Status = VL53L0X_WrWord(Dev, 0x71,
 3312              		.loc 1 813 0
 3313 0254 2723     		movs	r3, #39
 3314 0256 FC18     		adds	r4, r7, r3
 3315 0258 1E23     		movs	r3, #30
ARM GAS  C:\Users\ilya\AppData\Local\Temp\ccAjPEqD.s 			page 74


 3316 025a FB18     		adds	r3, r7, r3
 3317 025c 1A88     		ldrh	r2, [r3]
 3318 025e FB68     		ldr	r3, [r7, #12]
 3319 0260 7121     		movs	r1, #113
 3320 0262 1800     		movs	r0, r3
 3321 0264 FFF7FEFF 		bl	VL53L0X_WrWord
 3322 0268 0300     		movs	r3, r0
 3323 026a 2370     		strb	r3, [r4]
 3324              	.L98:
 814:Api\core\src/vl53l0x_api_core.c **** 					FinalRangeEncodedTimeOut);
 815:Api\core\src/vl53l0x_api_core.c **** 				}
 816:Api\core\src/vl53l0x_api_core.c **** 
 817:Api\core\src/vl53l0x_api_core.c **** 				if (Status == VL53L0X_ERROR_NONE) {
 3325              		.loc 1 817 0
 3326 026c 2723     		movs	r3, #39
 3327 026e FB18     		adds	r3, r7, r3
 3328 0270 1B78     		ldrb	r3, [r3]
 3329 0272 5BB2     		sxtb	r3, r3
 3330 0274 002B     		cmp	r3, #0
 3331 0276 08D1     		bne	.L89
 818:Api\core\src/vl53l0x_api_core.c **** 					VL53L0X_SETDEVICESPECIFICPARAMETER(
 3332              		.loc 1 818 0
 3333 0278 FB68     		ldr	r3, [r7, #12]
 3334 027a DC21     		movs	r1, #220
 3335 027c 7A68     		ldr	r2, [r7, #4]
 3336 027e 5A50     		str	r2, [r3, r1]
 3337 0280 03E0     		b	.L89
 3338              	.L94:
 819:Api\core\src/vl53l0x_api_core.c **** 						Dev,
 820:Api\core\src/vl53l0x_api_core.c **** 						FinalRangeTimeoutMicroSecs,
 821:Api\core\src/vl53l0x_api_core.c **** 						TimeOutMicroSecs);
 822:Api\core\src/vl53l0x_api_core.c **** 				}
 823:Api\core\src/vl53l0x_api_core.c **** 			}
 824:Api\core\src/vl53l0x_api_core.c **** 		} else
 825:Api\core\src/vl53l0x_api_core.c **** 			Status = VL53L0X_ERROR_INVALID_PARAMS;
 3339              		.loc 1 825 0
 3340 0282 2723     		movs	r3, #39
 3341 0284 FB18     		adds	r3, r7, r3
 3342 0286 FC22     		movs	r2, #252
 3343 0288 1A70     		strb	r2, [r3]
 3344              	.L89:
 826:Api\core\src/vl53l0x_api_core.c **** 
 827:Api\core\src/vl53l0x_api_core.c **** 	}
 828:Api\core\src/vl53l0x_api_core.c **** 	return Status;
 3345              		.loc 1 828 0
 3346 028a 2723     		movs	r3, #39
 3347 028c FB18     		adds	r3, r7, r3
 3348 028e 1B78     		ldrb	r3, [r3]
 3349 0290 5BB2     		sxtb	r3, r3
 829:Api\core\src/vl53l0x_api_core.c **** }
 3350              		.loc 1 829 0
 3351 0292 1800     		movs	r0, r3
 3352 0294 BD46     		mov	sp, r7
 3353 0296 0BB0     		add	sp, sp, #44
 3354              		@ sp needed
 3355 0298 90BD     		pop	{r4, r7, pc}
 3356              		.cfi_endproc
ARM GAS  C:\Users\ilya\AppData\Local\Temp\ccAjPEqD.s 			page 75


 3357              	.LFE15:
 3358              		.size	set_sequence_step_timeout, .-set_sequence_step_timeout
 3359 029a C046     		.section	.text.VL53L0X_set_vcsel_pulse_period,"ax",%progbits
 3360              		.align	2
 3361              		.global	VL53L0X_set_vcsel_pulse_period
 3362              		.code	16
 3363              		.thumb_func
 3364              		.type	VL53L0X_set_vcsel_pulse_period, %function
 3365              	VL53L0X_set_vcsel_pulse_period:
 3366              	.LFB16:
 830:Api\core\src/vl53l0x_api_core.c **** 
 831:Api\core\src/vl53l0x_api_core.c **** VL53L0X_Error VL53L0X_set_vcsel_pulse_period(VL53L0X_DEV Dev,
 832:Api\core\src/vl53l0x_api_core.c **** 	VL53L0X_VcselPeriod VcselPeriodType, uint8_t VCSELPulsePeriodPCLK)
 833:Api\core\src/vl53l0x_api_core.c **** {
 3367              		.loc 1 833 0
 3368              		.cfi_startproc
 3369              		@ args = 0, pretend = 0, frame = 40
 3370              		@ frame_needed = 1, uses_anonymous_args = 0
 3371 0000 90B5     		push	{r4, r7, lr}
 3372              		.cfi_def_cfa_offset 12
 3373              		.cfi_offset 4, -12
 3374              		.cfi_offset 7, -8
 3375              		.cfi_offset 14, -4
 3376 0002 8BB0     		sub	sp, sp, #44
 3377              		.cfi_def_cfa_offset 56
 3378 0004 00AF     		add	r7, sp, #0
 3379              		.cfi_def_cfa_register 7
 3380 0006 7860     		str	r0, [r7, #4]
 3381 0008 0800     		movs	r0, r1
 3382 000a 1100     		movs	r1, r2
 3383 000c FB1C     		adds	r3, r7, #3
 3384 000e 021C     		adds	r2, r0, #0
 3385 0010 1A70     		strb	r2, [r3]
 3386 0012 BB1C     		adds	r3, r7, #2
 3387 0014 0A1C     		adds	r2, r1, #0
 3388 0016 1A70     		strb	r2, [r3]
 834:Api\core\src/vl53l0x_api_core.c **** 	VL53L0X_Error Status = VL53L0X_ERROR_NONE;
 3389              		.loc 1 834 0
 3390 0018 2723     		movs	r3, #39
 3391 001a FB18     		adds	r3, r7, r3
 3392 001c 0022     		movs	r2, #0
 3393 001e 1A70     		strb	r2, [r3]
 835:Api\core\src/vl53l0x_api_core.c **** 	uint8_t vcsel_period_reg;
 836:Api\core\src/vl53l0x_api_core.c **** 	uint8_t MinPreVcselPeriodPCLK = 12;
 3394              		.loc 1 836 0
 3395 0020 2623     		movs	r3, #38
 3396 0022 FB18     		adds	r3, r7, r3
 3397 0024 0C22     		movs	r2, #12
 3398 0026 1A70     		strb	r2, [r3]
 837:Api\core\src/vl53l0x_api_core.c **** 	uint8_t MaxPreVcselPeriodPCLK = 18;
 3399              		.loc 1 837 0
 3400 0028 2523     		movs	r3, #37
 3401 002a FB18     		adds	r3, r7, r3
 3402 002c 1222     		movs	r2, #18
 3403 002e 1A70     		strb	r2, [r3]
 838:Api\core\src/vl53l0x_api_core.c **** 	uint8_t MinFinalVcselPeriodPCLK = 8;
 3404              		.loc 1 838 0
ARM GAS  C:\Users\ilya\AppData\Local\Temp\ccAjPEqD.s 			page 76


 3405 0030 2423     		movs	r3, #36
 3406 0032 FB18     		adds	r3, r7, r3
 3407 0034 0822     		movs	r2, #8
 3408 0036 1A70     		strb	r2, [r3]
 839:Api\core\src/vl53l0x_api_core.c **** 	uint8_t MaxFinalVcselPeriodPCLK = 14;
 3409              		.loc 1 839 0
 3410 0038 2323     		movs	r3, #35
 3411 003a FB18     		adds	r3, r7, r3
 3412 003c 0E22     		movs	r2, #14
 3413 003e 1A70     		strb	r2, [r3]
 840:Api\core\src/vl53l0x_api_core.c **** 	uint32_t MeasurementTimingBudgetMicroSeconds;
 841:Api\core\src/vl53l0x_api_core.c **** 	uint32_t FinalRangeTimeoutMicroSeconds;
 842:Api\core\src/vl53l0x_api_core.c **** 	uint32_t PreRangeTimeoutMicroSeconds;
 843:Api\core\src/vl53l0x_api_core.c **** 	uint32_t MsrcTimeoutMicroSeconds;
 844:Api\core\src/vl53l0x_api_core.c **** 	uint8_t PhaseCalInt = 0;
 3414              		.loc 1 844 0
 3415 0040 0F23     		movs	r3, #15
 3416 0042 FB18     		adds	r3, r7, r3
 3417 0044 0022     		movs	r2, #0
 3418 0046 1A70     		strb	r2, [r3]
 845:Api\core\src/vl53l0x_api_core.c **** 
 846:Api\core\src/vl53l0x_api_core.c **** 	/* Check if valid clock period requested */
 847:Api\core\src/vl53l0x_api_core.c **** 
 848:Api\core\src/vl53l0x_api_core.c **** 	if ((VCSELPulsePeriodPCLK % 2) != 0) {
 3419              		.loc 1 848 0
 3420 0048 BB1C     		adds	r3, r7, #2
 3421 004a 1B78     		ldrb	r3, [r3]
 3422 004c 0122     		movs	r2, #1
 3423 004e 1340     		ands	r3, r2
 3424 0050 DBB2     		uxtb	r3, r3
 3425 0052 002B     		cmp	r3, #0
 3426 0054 04D0     		beq	.L101
 849:Api\core\src/vl53l0x_api_core.c **** 		/* Value must be an even number */
 850:Api\core\src/vl53l0x_api_core.c **** 		Status = VL53L0X_ERROR_INVALID_PARAMS;
 3427              		.loc 1 850 0
 3428 0056 2723     		movs	r3, #39
 3429 0058 FB18     		adds	r3, r7, r3
 3430 005a FC22     		movs	r2, #252
 3431 005c 1A70     		strb	r2, [r3]
 3432 005e 2CE0     		b	.L102
 3433              	.L101:
 851:Api\core\src/vl53l0x_api_core.c **** 	} else if (VcselPeriodType == VL53L0X_VCSEL_PERIOD_PRE_RANGE &&
 3434              		.loc 1 851 0
 3435 0060 FB1C     		adds	r3, r7, #3
 3436 0062 1B78     		ldrb	r3, [r3]
 3437 0064 002B     		cmp	r3, #0
 3438 0066 12D1     		bne	.L103
 3439              		.loc 1 851 0 is_stmt 0 discriminator 1
 3440 0068 BA1C     		adds	r2, r7, #2
 3441 006a 2623     		movs	r3, #38
 3442 006c FB18     		adds	r3, r7, r3
 3443 006e 1278     		ldrb	r2, [r2]
 3444 0070 1B78     		ldrb	r3, [r3]
 3445 0072 9A42     		cmp	r2, r3
 3446 0074 06D3     		bcc	.L104
 852:Api\core\src/vl53l0x_api_core.c **** 		(VCSELPulsePeriodPCLK < MinPreVcselPeriodPCLK ||
 3447              		.loc 1 852 0 is_stmt 1
ARM GAS  C:\Users\ilya\AppData\Local\Temp\ccAjPEqD.s 			page 77


 3448 0076 BA1C     		adds	r2, r7, #2
 3449 0078 2523     		movs	r3, #37
 3450 007a FB18     		adds	r3, r7, r3
 3451 007c 1278     		ldrb	r2, [r2]
 3452 007e 1B78     		ldrb	r3, [r3]
 3453 0080 9A42     		cmp	r2, r3
 3454 0082 04D9     		bls	.L103
 3455              	.L104:
 853:Api\core\src/vl53l0x_api_core.c **** 		VCSELPulsePeriodPCLK > MaxPreVcselPeriodPCLK)) {
 854:Api\core\src/vl53l0x_api_core.c **** 		Status = VL53L0X_ERROR_INVALID_PARAMS;
 3456              		.loc 1 854 0
 3457 0084 2723     		movs	r3, #39
 3458 0086 FB18     		adds	r3, r7, r3
 3459 0088 FC22     		movs	r2, #252
 3460 008a 1A70     		strb	r2, [r3]
 3461 008c 15E0     		b	.L102
 3462              	.L103:
 855:Api\core\src/vl53l0x_api_core.c **** 	} else if (VcselPeriodType == VL53L0X_VCSEL_PERIOD_FINAL_RANGE &&
 3463              		.loc 1 855 0
 3464 008e FB1C     		adds	r3, r7, #3
 3465 0090 1B78     		ldrb	r3, [r3]
 3466 0092 012B     		cmp	r3, #1
 3467 0094 11D1     		bne	.L102
 3468              		.loc 1 855 0 is_stmt 0 discriminator 1
 3469 0096 BA1C     		adds	r2, r7, #2
 3470 0098 2423     		movs	r3, #36
 3471 009a FB18     		adds	r3, r7, r3
 3472 009c 1278     		ldrb	r2, [r2]
 3473 009e 1B78     		ldrb	r3, [r3]
 3474 00a0 9A42     		cmp	r2, r3
 3475 00a2 06D3     		bcc	.L105
 856:Api\core\src/vl53l0x_api_core.c **** 		(VCSELPulsePeriodPCLK < MinFinalVcselPeriodPCLK ||
 3476              		.loc 1 856 0 is_stmt 1
 3477 00a4 BA1C     		adds	r2, r7, #2
 3478 00a6 2323     		movs	r3, #35
 3479 00a8 FB18     		adds	r3, r7, r3
 3480 00aa 1278     		ldrb	r2, [r2]
 3481 00ac 1B78     		ldrb	r3, [r3]
 3482 00ae 9A42     		cmp	r2, r3
 3483 00b0 03D9     		bls	.L102
 3484              	.L105:
 857:Api\core\src/vl53l0x_api_core.c **** 		 VCSELPulsePeriodPCLK > MaxFinalVcselPeriodPCLK)) {
 858:Api\core\src/vl53l0x_api_core.c **** 
 859:Api\core\src/vl53l0x_api_core.c **** 		Status = VL53L0X_ERROR_INVALID_PARAMS;
 3485              		.loc 1 859 0
 3486 00b2 2723     		movs	r3, #39
 3487 00b4 FB18     		adds	r3, r7, r3
 3488 00b6 FC22     		movs	r2, #252
 3489 00b8 1A70     		strb	r2, [r3]
 3490              	.L102:
 860:Api\core\src/vl53l0x_api_core.c **** 	}
 861:Api\core\src/vl53l0x_api_core.c **** 
 862:Api\core\src/vl53l0x_api_core.c **** 	/* Apply specific settings for the requested clock period */
 863:Api\core\src/vl53l0x_api_core.c **** 
 864:Api\core\src/vl53l0x_api_core.c **** 	if (Status != VL53L0X_ERROR_NONE)
 3491              		.loc 1 864 0
 3492 00ba 2723     		movs	r3, #39
ARM GAS  C:\Users\ilya\AppData\Local\Temp\ccAjPEqD.s 			page 78


 3493 00bc FB18     		adds	r3, r7, r3
 3494 00be 1B78     		ldrb	r3, [r3]
 3495 00c0 5BB2     		sxtb	r3, r3
 3496 00c2 002B     		cmp	r3, #0
 3497 00c4 04D0     		beq	.L106
 865:Api\core\src/vl53l0x_api_core.c **** 		return Status;
 3498              		.loc 1 865 0
 3499 00c6 2723     		movs	r3, #39
 3500 00c8 FB18     		adds	r3, r7, r3
 3501 00ca 1B78     		ldrb	r3, [r3]
 3502 00cc 5BB2     		sxtb	r3, r3
 3503 00ce C6E2     		b	.L129
 3504              	.L106:
 866:Api\core\src/vl53l0x_api_core.c **** 
 867:Api\core\src/vl53l0x_api_core.c **** 
 868:Api\core\src/vl53l0x_api_core.c **** 	if (VcselPeriodType == VL53L0X_VCSEL_PERIOD_PRE_RANGE) {
 3505              		.loc 1 868 0
 3506 00d0 FB1C     		adds	r3, r7, #3
 3507 00d2 1B78     		ldrb	r3, [r3]
 3508 00d4 002B     		cmp	r3, #0
 3509 00d6 64D1     		bne	.L108
 869:Api\core\src/vl53l0x_api_core.c **** 
 870:Api\core\src/vl53l0x_api_core.c **** 		/* Set phase check limits */
 871:Api\core\src/vl53l0x_api_core.c **** 		if (VCSELPulsePeriodPCLK == 12) {
 3510              		.loc 1 871 0
 3511 00d8 BB1C     		adds	r3, r7, #2
 3512 00da 1B78     		ldrb	r3, [r3]
 3513 00dc 0C2B     		cmp	r3, #12
 3514 00de 14D1     		bne	.L109
 872:Api\core\src/vl53l0x_api_core.c **** 
 873:Api\core\src/vl53l0x_api_core.c **** 			Status = VL53L0X_WrByte(Dev,
 3515              		.loc 1 873 0
 3516 00e0 2723     		movs	r3, #39
 3517 00e2 FC18     		adds	r4, r7, r3
 3518 00e4 7B68     		ldr	r3, [r7, #4]
 3519 00e6 1822     		movs	r2, #24
 3520 00e8 5721     		movs	r1, #87
 3521 00ea 1800     		movs	r0, r3
 3522 00ec FFF7FEFF 		bl	VL53L0X_WrByte
 3523 00f0 0300     		movs	r3, r0
 3524 00f2 2370     		strb	r3, [r4]
 874:Api\core\src/vl53l0x_api_core.c **** 				VL53L0X_REG_PRE_RANGE_CONFIG_VALID_PHASE_HIGH,
 875:Api\core\src/vl53l0x_api_core.c **** 				0x18);
 876:Api\core\src/vl53l0x_api_core.c **** 			Status = VL53L0X_WrByte(Dev,
 3525              		.loc 1 876 0
 3526 00f4 2723     		movs	r3, #39
 3527 00f6 FC18     		adds	r4, r7, r3
 3528 00f8 7B68     		ldr	r3, [r7, #4]
 3529 00fa 0822     		movs	r2, #8
 3530 00fc 5621     		movs	r1, #86
 3531 00fe 1800     		movs	r0, r3
 3532 0100 FFF7FEFF 		bl	VL53L0X_WrByte
 3533 0104 0300     		movs	r3, r0
 3534 0106 2370     		strb	r3, [r4]
 3535 0108 DFE1     		b	.L113
 3536              	.L109:
 877:Api\core\src/vl53l0x_api_core.c **** 				VL53L0X_REG_PRE_RANGE_CONFIG_VALID_PHASE_LOW,
ARM GAS  C:\Users\ilya\AppData\Local\Temp\ccAjPEqD.s 			page 79


 878:Api\core\src/vl53l0x_api_core.c **** 				0x08);
 879:Api\core\src/vl53l0x_api_core.c **** 		} else if (VCSELPulsePeriodPCLK == 14) {
 3537              		.loc 1 879 0
 3538 010a BB1C     		adds	r3, r7, #2
 3539 010c 1B78     		ldrb	r3, [r3]
 3540 010e 0E2B     		cmp	r3, #14
 3541 0110 14D1     		bne	.L111
 880:Api\core\src/vl53l0x_api_core.c **** 
 881:Api\core\src/vl53l0x_api_core.c **** 			Status = VL53L0X_WrByte(Dev,
 3542              		.loc 1 881 0
 3543 0112 2723     		movs	r3, #39
 3544 0114 FC18     		adds	r4, r7, r3
 3545 0116 7B68     		ldr	r3, [r7, #4]
 3546 0118 3022     		movs	r2, #48
 3547 011a 5721     		movs	r1, #87
 3548 011c 1800     		movs	r0, r3
 3549 011e FFF7FEFF 		bl	VL53L0X_WrByte
 3550 0122 0300     		movs	r3, r0
 3551 0124 2370     		strb	r3, [r4]
 882:Api\core\src/vl53l0x_api_core.c **** 				VL53L0X_REG_PRE_RANGE_CONFIG_VALID_PHASE_HIGH,
 883:Api\core\src/vl53l0x_api_core.c **** 				0x30);
 884:Api\core\src/vl53l0x_api_core.c **** 			Status = VL53L0X_WrByte(Dev,
 3552              		.loc 1 884 0
 3553 0126 2723     		movs	r3, #39
 3554 0128 FC18     		adds	r4, r7, r3
 3555 012a 7B68     		ldr	r3, [r7, #4]
 3556 012c 0822     		movs	r2, #8
 3557 012e 5621     		movs	r1, #86
 3558 0130 1800     		movs	r0, r3
 3559 0132 FFF7FEFF 		bl	VL53L0X_WrByte
 3560 0136 0300     		movs	r3, r0
 3561 0138 2370     		strb	r3, [r4]
 3562 013a C6E1     		b	.L113
 3563              	.L111:
 885:Api\core\src/vl53l0x_api_core.c **** 				VL53L0X_REG_PRE_RANGE_CONFIG_VALID_PHASE_LOW,
 886:Api\core\src/vl53l0x_api_core.c **** 				0x08);
 887:Api\core\src/vl53l0x_api_core.c **** 		} else if (VCSELPulsePeriodPCLK == 16) {
 3564              		.loc 1 887 0
 3565 013c BB1C     		adds	r3, r7, #2
 3566 013e 1B78     		ldrb	r3, [r3]
 3567 0140 102B     		cmp	r3, #16
 3568 0142 14D1     		bne	.L112
 888:Api\core\src/vl53l0x_api_core.c **** 
 889:Api\core\src/vl53l0x_api_core.c **** 			Status = VL53L0X_WrByte(Dev,
 3569              		.loc 1 889 0
 3570 0144 2723     		movs	r3, #39
 3571 0146 FC18     		adds	r4, r7, r3
 3572 0148 7B68     		ldr	r3, [r7, #4]
 3573 014a 4022     		movs	r2, #64
 3574 014c 5721     		movs	r1, #87
 3575 014e 1800     		movs	r0, r3
 3576 0150 FFF7FEFF 		bl	VL53L0X_WrByte
 3577 0154 0300     		movs	r3, r0
 3578 0156 2370     		strb	r3, [r4]
 890:Api\core\src/vl53l0x_api_core.c **** 				VL53L0X_REG_PRE_RANGE_CONFIG_VALID_PHASE_HIGH,
 891:Api\core\src/vl53l0x_api_core.c **** 				0x40);
 892:Api\core\src/vl53l0x_api_core.c **** 			Status = VL53L0X_WrByte(Dev,
ARM GAS  C:\Users\ilya\AppData\Local\Temp\ccAjPEqD.s 			page 80


 3579              		.loc 1 892 0
 3580 0158 2723     		movs	r3, #39
 3581 015a FC18     		adds	r4, r7, r3
 3582 015c 7B68     		ldr	r3, [r7, #4]
 3583 015e 0822     		movs	r2, #8
 3584 0160 5621     		movs	r1, #86
 3585 0162 1800     		movs	r0, r3
 3586 0164 FFF7FEFF 		bl	VL53L0X_WrByte
 3587 0168 0300     		movs	r3, r0
 3588 016a 2370     		strb	r3, [r4]
 3589 016c ADE1     		b	.L113
 3590              	.L112:
 893:Api\core\src/vl53l0x_api_core.c **** 				VL53L0X_REG_PRE_RANGE_CONFIG_VALID_PHASE_LOW,
 894:Api\core\src/vl53l0x_api_core.c **** 				0x08);
 895:Api\core\src/vl53l0x_api_core.c **** 		} else if (VCSELPulsePeriodPCLK == 18) {
 3591              		.loc 1 895 0
 3592 016e BB1C     		adds	r3, r7, #2
 3593 0170 1B78     		ldrb	r3, [r3]
 3594 0172 122B     		cmp	r3, #18
 3595 0174 00D0     		beq	.LCB3184
 3596 0176 A8E1     		b	.L113	@long jump
 3597              	.LCB3184:
 896:Api\core\src/vl53l0x_api_core.c **** 
 897:Api\core\src/vl53l0x_api_core.c **** 			Status = VL53L0X_WrByte(Dev,
 3598              		.loc 1 897 0
 3599 0178 2723     		movs	r3, #39
 3600 017a FC18     		adds	r4, r7, r3
 3601 017c 7B68     		ldr	r3, [r7, #4]
 3602 017e 5022     		movs	r2, #80
 3603 0180 5721     		movs	r1, #87
 3604 0182 1800     		movs	r0, r3
 3605 0184 FFF7FEFF 		bl	VL53L0X_WrByte
 3606 0188 0300     		movs	r3, r0
 3607 018a 2370     		strb	r3, [r4]
 898:Api\core\src/vl53l0x_api_core.c **** 				VL53L0X_REG_PRE_RANGE_CONFIG_VALID_PHASE_HIGH,
 899:Api\core\src/vl53l0x_api_core.c **** 				0x50);
 900:Api\core\src/vl53l0x_api_core.c **** 			Status = VL53L0X_WrByte(Dev,
 3608              		.loc 1 900 0
 3609 018c 2723     		movs	r3, #39
 3610 018e FC18     		adds	r4, r7, r3
 3611 0190 7B68     		ldr	r3, [r7, #4]
 3612 0192 0822     		movs	r2, #8
 3613 0194 5621     		movs	r1, #86
 3614 0196 1800     		movs	r0, r3
 3615 0198 FFF7FEFF 		bl	VL53L0X_WrByte
 3616 019c 0300     		movs	r3, r0
 3617 019e 2370     		strb	r3, [r4]
 3618 01a0 93E1     		b	.L113
 3619              	.L108:
 901:Api\core\src/vl53l0x_api_core.c **** 				VL53L0X_REG_PRE_RANGE_CONFIG_VALID_PHASE_LOW,
 902:Api\core\src/vl53l0x_api_core.c **** 				0x08);
 903:Api\core\src/vl53l0x_api_core.c **** 		}
 904:Api\core\src/vl53l0x_api_core.c **** 	} else if (VcselPeriodType == VL53L0X_VCSEL_PERIOD_FINAL_RANGE) {
 3620              		.loc 1 904 0
 3621 01a2 FB1C     		adds	r3, r7, #3
 3622 01a4 1B78     		ldrb	r3, [r3]
 3623 01a6 012B     		cmp	r3, #1
ARM GAS  C:\Users\ilya\AppData\Local\Temp\ccAjPEqD.s 			page 81


 3624 01a8 00D0     		beq	.LCB3210
 3625 01aa 8EE1     		b	.L113	@long jump
 3626              	.LCB3210:
 905:Api\core\src/vl53l0x_api_core.c **** 
 906:Api\core\src/vl53l0x_api_core.c **** 		if (VCSELPulsePeriodPCLK == 8) {
 3627              		.loc 1 906 0
 3628 01ac BB1C     		adds	r3, r7, #2
 3629 01ae 1B78     		ldrb	r3, [r3]
 3630 01b0 082B     		cmp	r3, #8
 3631 01b2 5FD1     		bne	.L114
 907:Api\core\src/vl53l0x_api_core.c **** 
 908:Api\core\src/vl53l0x_api_core.c **** 			Status = VL53L0X_WrByte(Dev,
 3632              		.loc 1 908 0
 3633 01b4 2723     		movs	r3, #39
 3634 01b6 FC18     		adds	r4, r7, r3
 3635 01b8 7B68     		ldr	r3, [r7, #4]
 3636 01ba 1022     		movs	r2, #16
 3637 01bc 4821     		movs	r1, #72
 3638 01be 1800     		movs	r0, r3
 3639 01c0 FFF7FEFF 		bl	VL53L0X_WrByte
 3640 01c4 0300     		movs	r3, r0
 3641 01c6 2370     		strb	r3, [r4]
 909:Api\core\src/vl53l0x_api_core.c **** 				VL53L0X_REG_FINAL_RANGE_CONFIG_VALID_PHASE_HIGH,
 910:Api\core\src/vl53l0x_api_core.c **** 				0x10);
 911:Api\core\src/vl53l0x_api_core.c **** 			Status = VL53L0X_WrByte(Dev,
 3642              		.loc 1 911 0
 3643 01c8 2723     		movs	r3, #39
 3644 01ca FC18     		adds	r4, r7, r3
 3645 01cc 7B68     		ldr	r3, [r7, #4]
 3646 01ce 0822     		movs	r2, #8
 3647 01d0 4721     		movs	r1, #71
 3648 01d2 1800     		movs	r0, r3
 3649 01d4 FFF7FEFF 		bl	VL53L0X_WrByte
 3650 01d8 0300     		movs	r3, r0
 3651 01da 2370     		strb	r3, [r4]
 912:Api\core\src/vl53l0x_api_core.c **** 				VL53L0X_REG_FINAL_RANGE_CONFIG_VALID_PHASE_LOW,
 913:Api\core\src/vl53l0x_api_core.c **** 				0x08);
 914:Api\core\src/vl53l0x_api_core.c **** 
 915:Api\core\src/vl53l0x_api_core.c **** 			Status |= VL53L0X_WrByte(Dev,
 3652              		.loc 1 915 0
 3653 01dc 7B68     		ldr	r3, [r7, #4]
 3654 01de 0222     		movs	r2, #2
 3655 01e0 3221     		movs	r1, #50
 3656 01e2 1800     		movs	r0, r3
 3657 01e4 FFF7FEFF 		bl	VL53L0X_WrByte
 3658 01e8 0300     		movs	r3, r0
 3659 01ea 1900     		movs	r1, r3
 3660 01ec 2723     		movs	r3, #39
 3661 01ee FB18     		adds	r3, r7, r3
 3662 01f0 2722     		movs	r2, #39
 3663 01f2 BA18     		adds	r2, r7, r2
 3664 01f4 1278     		ldrb	r2, [r2]
 3665 01f6 0A43     		orrs	r2, r1
 3666 01f8 1A70     		strb	r2, [r3]
 916:Api\core\src/vl53l0x_api_core.c **** 				VL53L0X_REG_GLOBAL_CONFIG_VCSEL_WIDTH, 0x02);
 917:Api\core\src/vl53l0x_api_core.c **** 			Status |= VL53L0X_WrByte(Dev,
 3667              		.loc 1 917 0
ARM GAS  C:\Users\ilya\AppData\Local\Temp\ccAjPEqD.s 			page 82


 3668 01fa 7B68     		ldr	r3, [r7, #4]
 3669 01fc 0C22     		movs	r2, #12
 3670 01fe 3021     		movs	r1, #48
 3671 0200 1800     		movs	r0, r3
 3672 0202 FFF7FEFF 		bl	VL53L0X_WrByte
 3673 0206 0300     		movs	r3, r0
 3674 0208 1900     		movs	r1, r3
 3675 020a 2723     		movs	r3, #39
 3676 020c FB18     		adds	r3, r7, r3
 3677 020e 2722     		movs	r2, #39
 3678 0210 BA18     		adds	r2, r7, r2
 3679 0212 1278     		ldrb	r2, [r2]
 3680 0214 0A43     		orrs	r2, r1
 3681 0216 1A70     		strb	r2, [r3]
 918:Api\core\src/vl53l0x_api_core.c **** 				VL53L0X_REG_ALGO_PHASECAL_CONFIG_TIMEOUT, 0x0C);
 919:Api\core\src/vl53l0x_api_core.c **** 
 920:Api\core\src/vl53l0x_api_core.c **** 			Status |= VL53L0X_WrByte(Dev, 0xff, 0x01);
 3682              		.loc 1 920 0
 3683 0218 7B68     		ldr	r3, [r7, #4]
 3684 021a 0122     		movs	r2, #1
 3685 021c FF21     		movs	r1, #255
 3686 021e 1800     		movs	r0, r3
 3687 0220 FFF7FEFF 		bl	VL53L0X_WrByte
 3688 0224 0300     		movs	r3, r0
 3689 0226 1900     		movs	r1, r3
 3690 0228 2723     		movs	r3, #39
 3691 022a FB18     		adds	r3, r7, r3
 3692 022c 2722     		movs	r2, #39
 3693 022e BA18     		adds	r2, r7, r2
 3694 0230 1278     		ldrb	r2, [r2]
 3695 0232 0A43     		orrs	r2, r1
 3696 0234 1A70     		strb	r2, [r3]
 921:Api\core\src/vl53l0x_api_core.c **** 			Status |= VL53L0X_WrByte(Dev,
 3697              		.loc 1 921 0
 3698 0236 7B68     		ldr	r3, [r7, #4]
 3699 0238 3022     		movs	r2, #48
 3700 023a 3021     		movs	r1, #48
 3701 023c 1800     		movs	r0, r3
 3702 023e FFF7FEFF 		bl	VL53L0X_WrByte
 3703 0242 0300     		movs	r3, r0
 3704 0244 1900     		movs	r1, r3
 3705 0246 2723     		movs	r3, #39
 3706 0248 FB18     		adds	r3, r7, r3
 3707 024a 2722     		movs	r2, #39
 3708 024c BA18     		adds	r2, r7, r2
 3709 024e 1278     		ldrb	r2, [r2]
 3710 0250 0A43     		orrs	r2, r1
 3711 0252 1A70     		strb	r2, [r3]
 922:Api\core\src/vl53l0x_api_core.c **** 				VL53L0X_REG_ALGO_PHASECAL_LIM,
 923:Api\core\src/vl53l0x_api_core.c **** 				0x30);
 924:Api\core\src/vl53l0x_api_core.c **** 			Status |= VL53L0X_WrByte(Dev, 0xff, 0x00);
 3712              		.loc 1 924 0
 3713 0254 7B68     		ldr	r3, [r7, #4]
 3714 0256 0022     		movs	r2, #0
 3715 0258 FF21     		movs	r1, #255
 3716 025a 1800     		movs	r0, r3
 3717 025c FFF7FEFF 		bl	VL53L0X_WrByte
ARM GAS  C:\Users\ilya\AppData\Local\Temp\ccAjPEqD.s 			page 83


 3718 0260 0300     		movs	r3, r0
 3719 0262 1900     		movs	r1, r3
 3720 0264 2723     		movs	r3, #39
 3721 0266 FB18     		adds	r3, r7, r3
 3722 0268 2722     		movs	r2, #39
 3723 026a BA18     		adds	r2, r7, r2
 3724 026c 1278     		ldrb	r2, [r2]
 3725 026e 0A43     		orrs	r2, r1
 3726 0270 1A70     		strb	r2, [r3]
 3727 0272 2AE1     		b	.L113
 3728              	.L114:
 925:Api\core\src/vl53l0x_api_core.c **** 		} else if (VCSELPulsePeriodPCLK == 10) {
 3729              		.loc 1 925 0
 3730 0274 BB1C     		adds	r3, r7, #2
 3731 0276 1B78     		ldrb	r3, [r3]
 3732 0278 0A2B     		cmp	r3, #10
 3733 027a 5FD1     		bne	.L115
 926:Api\core\src/vl53l0x_api_core.c **** 
 927:Api\core\src/vl53l0x_api_core.c **** 			Status = VL53L0X_WrByte(Dev,
 3734              		.loc 1 927 0
 3735 027c 2723     		movs	r3, #39
 3736 027e FC18     		adds	r4, r7, r3
 3737 0280 7B68     		ldr	r3, [r7, #4]
 3738 0282 2822     		movs	r2, #40
 3739 0284 4821     		movs	r1, #72
 3740 0286 1800     		movs	r0, r3
 3741 0288 FFF7FEFF 		bl	VL53L0X_WrByte
 3742 028c 0300     		movs	r3, r0
 3743 028e 2370     		strb	r3, [r4]
 928:Api\core\src/vl53l0x_api_core.c **** 				VL53L0X_REG_FINAL_RANGE_CONFIG_VALID_PHASE_HIGH,
 929:Api\core\src/vl53l0x_api_core.c **** 				0x28);
 930:Api\core\src/vl53l0x_api_core.c **** 			Status = VL53L0X_WrByte(Dev,
 3744              		.loc 1 930 0
 3745 0290 2723     		movs	r3, #39
 3746 0292 FC18     		adds	r4, r7, r3
 3747 0294 7B68     		ldr	r3, [r7, #4]
 3748 0296 0822     		movs	r2, #8
 3749 0298 4721     		movs	r1, #71
 3750 029a 1800     		movs	r0, r3
 3751 029c FFF7FEFF 		bl	VL53L0X_WrByte
 3752 02a0 0300     		movs	r3, r0
 3753 02a2 2370     		strb	r3, [r4]
 931:Api\core\src/vl53l0x_api_core.c **** 				VL53L0X_REG_FINAL_RANGE_CONFIG_VALID_PHASE_LOW,
 932:Api\core\src/vl53l0x_api_core.c **** 				0x08);
 933:Api\core\src/vl53l0x_api_core.c **** 
 934:Api\core\src/vl53l0x_api_core.c **** 			Status |= VL53L0X_WrByte(Dev,
 3754              		.loc 1 934 0
 3755 02a4 7B68     		ldr	r3, [r7, #4]
 3756 02a6 0322     		movs	r2, #3
 3757 02a8 3221     		movs	r1, #50
 3758 02aa 1800     		movs	r0, r3
 3759 02ac FFF7FEFF 		bl	VL53L0X_WrByte
 3760 02b0 0300     		movs	r3, r0
 3761 02b2 1900     		movs	r1, r3
 3762 02b4 2723     		movs	r3, #39
 3763 02b6 FB18     		adds	r3, r7, r3
 3764 02b8 2722     		movs	r2, #39
ARM GAS  C:\Users\ilya\AppData\Local\Temp\ccAjPEqD.s 			page 84


 3765 02ba BA18     		adds	r2, r7, r2
 3766 02bc 1278     		ldrb	r2, [r2]
 3767 02be 0A43     		orrs	r2, r1
 3768 02c0 1A70     		strb	r2, [r3]
 935:Api\core\src/vl53l0x_api_core.c **** 				VL53L0X_REG_GLOBAL_CONFIG_VCSEL_WIDTH, 0x03);
 936:Api\core\src/vl53l0x_api_core.c **** 			Status |= VL53L0X_WrByte(Dev,
 3769              		.loc 1 936 0
 3770 02c2 7B68     		ldr	r3, [r7, #4]
 3771 02c4 0922     		movs	r2, #9
 3772 02c6 3021     		movs	r1, #48
 3773 02c8 1800     		movs	r0, r3
 3774 02ca FFF7FEFF 		bl	VL53L0X_WrByte
 3775 02ce 0300     		movs	r3, r0
 3776 02d0 1900     		movs	r1, r3
 3777 02d2 2723     		movs	r3, #39
 3778 02d4 FB18     		adds	r3, r7, r3
 3779 02d6 2722     		movs	r2, #39
 3780 02d8 BA18     		adds	r2, r7, r2
 3781 02da 1278     		ldrb	r2, [r2]
 3782 02dc 0A43     		orrs	r2, r1
 3783 02de 1A70     		strb	r2, [r3]
 937:Api\core\src/vl53l0x_api_core.c **** 				VL53L0X_REG_ALGO_PHASECAL_CONFIG_TIMEOUT, 0x09);
 938:Api\core\src/vl53l0x_api_core.c **** 
 939:Api\core\src/vl53l0x_api_core.c **** 			Status |= VL53L0X_WrByte(Dev, 0xff, 0x01);
 3784              		.loc 1 939 0
 3785 02e0 7B68     		ldr	r3, [r7, #4]
 3786 02e2 0122     		movs	r2, #1
 3787 02e4 FF21     		movs	r1, #255
 3788 02e6 1800     		movs	r0, r3
 3789 02e8 FFF7FEFF 		bl	VL53L0X_WrByte
 3790 02ec 0300     		movs	r3, r0
 3791 02ee 1900     		movs	r1, r3
 3792 02f0 2723     		movs	r3, #39
 3793 02f2 FB18     		adds	r3, r7, r3
 3794 02f4 2722     		movs	r2, #39
 3795 02f6 BA18     		adds	r2, r7, r2
 3796 02f8 1278     		ldrb	r2, [r2]
 3797 02fa 0A43     		orrs	r2, r1
 3798 02fc 1A70     		strb	r2, [r3]
 940:Api\core\src/vl53l0x_api_core.c **** 			Status |= VL53L0X_WrByte(Dev,
 3799              		.loc 1 940 0
 3800 02fe 7B68     		ldr	r3, [r7, #4]
 3801 0300 2022     		movs	r2, #32
 3802 0302 3021     		movs	r1, #48
 3803 0304 1800     		movs	r0, r3
 3804 0306 FFF7FEFF 		bl	VL53L0X_WrByte
 3805 030a 0300     		movs	r3, r0
 3806 030c 1900     		movs	r1, r3
 3807 030e 2723     		movs	r3, #39
 3808 0310 FB18     		adds	r3, r7, r3
 3809 0312 2722     		movs	r2, #39
 3810 0314 BA18     		adds	r2, r7, r2
 3811 0316 1278     		ldrb	r2, [r2]
 3812 0318 0A43     		orrs	r2, r1
 3813 031a 1A70     		strb	r2, [r3]
 941:Api\core\src/vl53l0x_api_core.c **** 				VL53L0X_REG_ALGO_PHASECAL_LIM,
 942:Api\core\src/vl53l0x_api_core.c **** 				0x20);
ARM GAS  C:\Users\ilya\AppData\Local\Temp\ccAjPEqD.s 			page 85


 943:Api\core\src/vl53l0x_api_core.c **** 			Status |= VL53L0X_WrByte(Dev, 0xff, 0x00);
 3814              		.loc 1 943 0
 3815 031c 7B68     		ldr	r3, [r7, #4]
 3816 031e 0022     		movs	r2, #0
 3817 0320 FF21     		movs	r1, #255
 3818 0322 1800     		movs	r0, r3
 3819 0324 FFF7FEFF 		bl	VL53L0X_WrByte
 3820 0328 0300     		movs	r3, r0
 3821 032a 1900     		movs	r1, r3
 3822 032c 2723     		movs	r3, #39
 3823 032e FB18     		adds	r3, r7, r3
 3824 0330 2722     		movs	r2, #39
 3825 0332 BA18     		adds	r2, r7, r2
 3826 0334 1278     		ldrb	r2, [r2]
 3827 0336 0A43     		orrs	r2, r1
 3828 0338 1A70     		strb	r2, [r3]
 3829 033a C6E0     		b	.L113
 3830              	.L115:
 944:Api\core\src/vl53l0x_api_core.c **** 		} else if (VCSELPulsePeriodPCLK == 12) {
 3831              		.loc 1 944 0
 3832 033c BB1C     		adds	r3, r7, #2
 3833 033e 1B78     		ldrb	r3, [r3]
 3834 0340 0C2B     		cmp	r3, #12
 3835 0342 5FD1     		bne	.L116
 945:Api\core\src/vl53l0x_api_core.c **** 
 946:Api\core\src/vl53l0x_api_core.c **** 			Status = VL53L0X_WrByte(Dev,
 3836              		.loc 1 946 0
 3837 0344 2723     		movs	r3, #39
 3838 0346 FC18     		adds	r4, r7, r3
 3839 0348 7B68     		ldr	r3, [r7, #4]
 3840 034a 3822     		movs	r2, #56
 3841 034c 4821     		movs	r1, #72
 3842 034e 1800     		movs	r0, r3
 3843 0350 FFF7FEFF 		bl	VL53L0X_WrByte
 3844 0354 0300     		movs	r3, r0
 3845 0356 2370     		strb	r3, [r4]
 947:Api\core\src/vl53l0x_api_core.c **** 				VL53L0X_REG_FINAL_RANGE_CONFIG_VALID_PHASE_HIGH,
 948:Api\core\src/vl53l0x_api_core.c **** 				0x38);
 949:Api\core\src/vl53l0x_api_core.c **** 			Status = VL53L0X_WrByte(Dev,
 3846              		.loc 1 949 0
 3847 0358 2723     		movs	r3, #39
 3848 035a FC18     		adds	r4, r7, r3
 3849 035c 7B68     		ldr	r3, [r7, #4]
 3850 035e 0822     		movs	r2, #8
 3851 0360 4721     		movs	r1, #71
 3852 0362 1800     		movs	r0, r3
 3853 0364 FFF7FEFF 		bl	VL53L0X_WrByte
 3854 0368 0300     		movs	r3, r0
 3855 036a 2370     		strb	r3, [r4]
 950:Api\core\src/vl53l0x_api_core.c **** 				VL53L0X_REG_FINAL_RANGE_CONFIG_VALID_PHASE_LOW,
 951:Api\core\src/vl53l0x_api_core.c **** 				0x08);
 952:Api\core\src/vl53l0x_api_core.c **** 
 953:Api\core\src/vl53l0x_api_core.c **** 			Status |= VL53L0X_WrByte(Dev,
 3856              		.loc 1 953 0
 3857 036c 7B68     		ldr	r3, [r7, #4]
 3858 036e 0322     		movs	r2, #3
 3859 0370 3221     		movs	r1, #50
ARM GAS  C:\Users\ilya\AppData\Local\Temp\ccAjPEqD.s 			page 86


 3860 0372 1800     		movs	r0, r3
 3861 0374 FFF7FEFF 		bl	VL53L0X_WrByte
 3862 0378 0300     		movs	r3, r0
 3863 037a 1900     		movs	r1, r3
 3864 037c 2723     		movs	r3, #39
 3865 037e FB18     		adds	r3, r7, r3
 3866 0380 2722     		movs	r2, #39
 3867 0382 BA18     		adds	r2, r7, r2
 3868 0384 1278     		ldrb	r2, [r2]
 3869 0386 0A43     		orrs	r2, r1
 3870 0388 1A70     		strb	r2, [r3]
 954:Api\core\src/vl53l0x_api_core.c **** 				VL53L0X_REG_GLOBAL_CONFIG_VCSEL_WIDTH, 0x03);
 955:Api\core\src/vl53l0x_api_core.c **** 			Status |= VL53L0X_WrByte(Dev,
 3871              		.loc 1 955 0
 3872 038a 7B68     		ldr	r3, [r7, #4]
 3873 038c 0822     		movs	r2, #8
 3874 038e 3021     		movs	r1, #48
 3875 0390 1800     		movs	r0, r3
 3876 0392 FFF7FEFF 		bl	VL53L0X_WrByte
 3877 0396 0300     		movs	r3, r0
 3878 0398 1900     		movs	r1, r3
 3879 039a 2723     		movs	r3, #39
 3880 039c FB18     		adds	r3, r7, r3
 3881 039e 2722     		movs	r2, #39
 3882 03a0 BA18     		adds	r2, r7, r2
 3883 03a2 1278     		ldrb	r2, [r2]
 3884 03a4 0A43     		orrs	r2, r1
 3885 03a6 1A70     		strb	r2, [r3]
 956:Api\core\src/vl53l0x_api_core.c **** 				VL53L0X_REG_ALGO_PHASECAL_CONFIG_TIMEOUT, 0x08);
 957:Api\core\src/vl53l0x_api_core.c **** 
 958:Api\core\src/vl53l0x_api_core.c **** 			Status |= VL53L0X_WrByte(Dev, 0xff, 0x01);
 3886              		.loc 1 958 0
 3887 03a8 7B68     		ldr	r3, [r7, #4]
 3888 03aa 0122     		movs	r2, #1
 3889 03ac FF21     		movs	r1, #255
 3890 03ae 1800     		movs	r0, r3
 3891 03b0 FFF7FEFF 		bl	VL53L0X_WrByte
 3892 03b4 0300     		movs	r3, r0
 3893 03b6 1900     		movs	r1, r3
 3894 03b8 2723     		movs	r3, #39
 3895 03ba FB18     		adds	r3, r7, r3
 3896 03bc 2722     		movs	r2, #39
 3897 03be BA18     		adds	r2, r7, r2
 3898 03c0 1278     		ldrb	r2, [r2]
 3899 03c2 0A43     		orrs	r2, r1
 3900 03c4 1A70     		strb	r2, [r3]
 959:Api\core\src/vl53l0x_api_core.c **** 			Status |= VL53L0X_WrByte(Dev,
 3901              		.loc 1 959 0
 3902 03c6 7B68     		ldr	r3, [r7, #4]
 3903 03c8 2022     		movs	r2, #32
 3904 03ca 3021     		movs	r1, #48
 3905 03cc 1800     		movs	r0, r3
 3906 03ce FFF7FEFF 		bl	VL53L0X_WrByte
 3907 03d2 0300     		movs	r3, r0
 3908 03d4 1900     		movs	r1, r3
 3909 03d6 2723     		movs	r3, #39
 3910 03d8 FB18     		adds	r3, r7, r3
ARM GAS  C:\Users\ilya\AppData\Local\Temp\ccAjPEqD.s 			page 87


 3911 03da 2722     		movs	r2, #39
 3912 03dc BA18     		adds	r2, r7, r2
 3913 03de 1278     		ldrb	r2, [r2]
 3914 03e0 0A43     		orrs	r2, r1
 3915 03e2 1A70     		strb	r2, [r3]
 960:Api\core\src/vl53l0x_api_core.c **** 				VL53L0X_REG_ALGO_PHASECAL_LIM,
 961:Api\core\src/vl53l0x_api_core.c **** 				0x20);
 962:Api\core\src/vl53l0x_api_core.c **** 			Status |= VL53L0X_WrByte(Dev, 0xff, 0x00);
 3916              		.loc 1 962 0
 3917 03e4 7B68     		ldr	r3, [r7, #4]
 3918 03e6 0022     		movs	r2, #0
 3919 03e8 FF21     		movs	r1, #255
 3920 03ea 1800     		movs	r0, r3
 3921 03ec FFF7FEFF 		bl	VL53L0X_WrByte
 3922 03f0 0300     		movs	r3, r0
 3923 03f2 1900     		movs	r1, r3
 3924 03f4 2723     		movs	r3, #39
 3925 03f6 FB18     		adds	r3, r7, r3
 3926 03f8 2722     		movs	r2, #39
 3927 03fa BA18     		adds	r2, r7, r2
 3928 03fc 1278     		ldrb	r2, [r2]
 3929 03fe 0A43     		orrs	r2, r1
 3930 0400 1A70     		strb	r2, [r3]
 3931 0402 62E0     		b	.L113
 3932              	.L116:
 963:Api\core\src/vl53l0x_api_core.c **** 		} else if (VCSELPulsePeriodPCLK == 14) {
 3933              		.loc 1 963 0
 3934 0404 BB1C     		adds	r3, r7, #2
 3935 0406 1B78     		ldrb	r3, [r3]
 3936 0408 0E2B     		cmp	r3, #14
 3937 040a 5ED1     		bne	.L113
 964:Api\core\src/vl53l0x_api_core.c **** 
 965:Api\core\src/vl53l0x_api_core.c **** 			Status = VL53L0X_WrByte(Dev,
 3938              		.loc 1 965 0
 3939 040c 2723     		movs	r3, #39
 3940 040e FC18     		adds	r4, r7, r3
 3941 0410 7B68     		ldr	r3, [r7, #4]
 3942 0412 4822     		movs	r2, #72
 3943 0414 4821     		movs	r1, #72
 3944 0416 1800     		movs	r0, r3
 3945 0418 FFF7FEFF 		bl	VL53L0X_WrByte
 3946 041c 0300     		movs	r3, r0
 3947 041e 2370     		strb	r3, [r4]
 966:Api\core\src/vl53l0x_api_core.c **** 				VL53L0X_REG_FINAL_RANGE_CONFIG_VALID_PHASE_HIGH,
 967:Api\core\src/vl53l0x_api_core.c **** 				0x048);
 968:Api\core\src/vl53l0x_api_core.c **** 			Status = VL53L0X_WrByte(Dev,
 3948              		.loc 1 968 0
 3949 0420 2723     		movs	r3, #39
 3950 0422 FC18     		adds	r4, r7, r3
 3951 0424 7B68     		ldr	r3, [r7, #4]
 3952 0426 0822     		movs	r2, #8
 3953 0428 4721     		movs	r1, #71
 3954 042a 1800     		movs	r0, r3
 3955 042c FFF7FEFF 		bl	VL53L0X_WrByte
 3956 0430 0300     		movs	r3, r0
 3957 0432 2370     		strb	r3, [r4]
 969:Api\core\src/vl53l0x_api_core.c **** 				VL53L0X_REG_FINAL_RANGE_CONFIG_VALID_PHASE_LOW,
ARM GAS  C:\Users\ilya\AppData\Local\Temp\ccAjPEqD.s 			page 88


 970:Api\core\src/vl53l0x_api_core.c **** 				0x08);
 971:Api\core\src/vl53l0x_api_core.c **** 
 972:Api\core\src/vl53l0x_api_core.c **** 			Status |= VL53L0X_WrByte(Dev,
 3958              		.loc 1 972 0
 3959 0434 7B68     		ldr	r3, [r7, #4]
 3960 0436 0322     		movs	r2, #3
 3961 0438 3221     		movs	r1, #50
 3962 043a 1800     		movs	r0, r3
 3963 043c FFF7FEFF 		bl	VL53L0X_WrByte
 3964 0440 0300     		movs	r3, r0
 3965 0442 1900     		movs	r1, r3
 3966 0444 2723     		movs	r3, #39
 3967 0446 FB18     		adds	r3, r7, r3
 3968 0448 2722     		movs	r2, #39
 3969 044a BA18     		adds	r2, r7, r2
 3970 044c 1278     		ldrb	r2, [r2]
 3971 044e 0A43     		orrs	r2, r1
 3972 0450 1A70     		strb	r2, [r3]
 973:Api\core\src/vl53l0x_api_core.c **** 				VL53L0X_REG_GLOBAL_CONFIG_VCSEL_WIDTH, 0x03);
 974:Api\core\src/vl53l0x_api_core.c **** 			Status |= VL53L0X_WrByte(Dev,
 3973              		.loc 1 974 0
 3974 0452 7B68     		ldr	r3, [r7, #4]
 3975 0454 0722     		movs	r2, #7
 3976 0456 3021     		movs	r1, #48
 3977 0458 1800     		movs	r0, r3
 3978 045a FFF7FEFF 		bl	VL53L0X_WrByte
 3979 045e 0300     		movs	r3, r0
 3980 0460 1900     		movs	r1, r3
 3981 0462 2723     		movs	r3, #39
 3982 0464 FB18     		adds	r3, r7, r3
 3983 0466 2722     		movs	r2, #39
 3984 0468 BA18     		adds	r2, r7, r2
 3985 046a 1278     		ldrb	r2, [r2]
 3986 046c 0A43     		orrs	r2, r1
 3987 046e 1A70     		strb	r2, [r3]
 975:Api\core\src/vl53l0x_api_core.c **** 				VL53L0X_REG_ALGO_PHASECAL_CONFIG_TIMEOUT, 0x07);
 976:Api\core\src/vl53l0x_api_core.c **** 
 977:Api\core\src/vl53l0x_api_core.c **** 			Status |= VL53L0X_WrByte(Dev, 0xff, 0x01);
 3988              		.loc 1 977 0
 3989 0470 7B68     		ldr	r3, [r7, #4]
 3990 0472 0122     		movs	r2, #1
 3991 0474 FF21     		movs	r1, #255
 3992 0476 1800     		movs	r0, r3
 3993 0478 FFF7FEFF 		bl	VL53L0X_WrByte
 3994 047c 0300     		movs	r3, r0
 3995 047e 1900     		movs	r1, r3
 3996 0480 2723     		movs	r3, #39
 3997 0482 FB18     		adds	r3, r7, r3
 3998 0484 2722     		movs	r2, #39
 3999 0486 BA18     		adds	r2, r7, r2
 4000 0488 1278     		ldrb	r2, [r2]
 4001 048a 0A43     		orrs	r2, r1
 4002 048c 1A70     		strb	r2, [r3]
 978:Api\core\src/vl53l0x_api_core.c **** 			Status |= VL53L0X_WrByte(Dev,
 4003              		.loc 1 978 0
 4004 048e 7B68     		ldr	r3, [r7, #4]
 4005 0490 2022     		movs	r2, #32
ARM GAS  C:\Users\ilya\AppData\Local\Temp\ccAjPEqD.s 			page 89


 4006 0492 3021     		movs	r1, #48
 4007 0494 1800     		movs	r0, r3
 4008 0496 FFF7FEFF 		bl	VL53L0X_WrByte
 4009 049a 0300     		movs	r3, r0
 4010 049c 1900     		movs	r1, r3
 4011 049e 2723     		movs	r3, #39
 4012 04a0 FB18     		adds	r3, r7, r3
 4013 04a2 2722     		movs	r2, #39
 4014 04a4 BA18     		adds	r2, r7, r2
 4015 04a6 1278     		ldrb	r2, [r2]
 4016 04a8 0A43     		orrs	r2, r1
 4017 04aa 1A70     		strb	r2, [r3]
 979:Api\core\src/vl53l0x_api_core.c **** 				VL53L0X_REG_ALGO_PHASECAL_LIM,
 980:Api\core\src/vl53l0x_api_core.c **** 				0x20);
 981:Api\core\src/vl53l0x_api_core.c **** 			Status |= VL53L0X_WrByte(Dev, 0xff, 0x00);
 4018              		.loc 1 981 0
 4019 04ac 7B68     		ldr	r3, [r7, #4]
 4020 04ae 0022     		movs	r2, #0
 4021 04b0 FF21     		movs	r1, #255
 4022 04b2 1800     		movs	r0, r3
 4023 04b4 FFF7FEFF 		bl	VL53L0X_WrByte
 4024 04b8 0300     		movs	r3, r0
 4025 04ba 1900     		movs	r1, r3
 4026 04bc 2723     		movs	r3, #39
 4027 04be FB18     		adds	r3, r7, r3
 4028 04c0 2722     		movs	r2, #39
 4029 04c2 BA18     		adds	r2, r7, r2
 4030 04c4 1278     		ldrb	r2, [r2]
 4031 04c6 0A43     		orrs	r2, r1
 4032 04c8 1A70     		strb	r2, [r3]
 4033              	.L113:
 982:Api\core\src/vl53l0x_api_core.c **** 		}
 983:Api\core\src/vl53l0x_api_core.c **** 	}
 984:Api\core\src/vl53l0x_api_core.c **** 
 985:Api\core\src/vl53l0x_api_core.c **** 
 986:Api\core\src/vl53l0x_api_core.c **** 	/* Re-calculate and apply timeouts, in macro periods */
 987:Api\core\src/vl53l0x_api_core.c **** 
 988:Api\core\src/vl53l0x_api_core.c **** 	if (Status == VL53L0X_ERROR_NONE) {
 4034              		.loc 1 988 0
 4035 04ca 2723     		movs	r3, #39
 4036 04cc FB18     		adds	r3, r7, r3
 4037 04ce 1B78     		ldrb	r3, [r3]
 4038 04d0 5BB2     		sxtb	r3, r3
 4039 04d2 002B     		cmp	r3, #0
 4040 04d4 00D0     		beq	.LCB3598
 4041 04d6 9AE0     		b	.L117	@long jump
 4042              	.LCB3598:
 989:Api\core\src/vl53l0x_api_core.c **** 		vcsel_period_reg = VL53L0X_encode_vcsel_period((uint8_t)
 4043              		.loc 1 989 0
 4044 04d8 2223     		movs	r3, #34
 4045 04da FC18     		adds	r4, r7, r3
 4046 04dc BB1C     		adds	r3, r7, #2
 4047 04de 1B78     		ldrb	r3, [r3]
 4048 04e0 1800     		movs	r0, r3
 4049 04e2 FFF7FEFF 		bl	VL53L0X_encode_vcsel_period
 4050 04e6 0300     		movs	r3, r0
 4051 04e8 2370     		strb	r3, [r4]
ARM GAS  C:\Users\ilya\AppData\Local\Temp\ccAjPEqD.s 			page 90


 990:Api\core\src/vl53l0x_api_core.c **** 			VCSELPulsePeriodPCLK);
 991:Api\core\src/vl53l0x_api_core.c **** 
 992:Api\core\src/vl53l0x_api_core.c **** 		/* When the VCSEL period for the pre or final range is changed,
 993:Api\core\src/vl53l0x_api_core.c **** 		* the corresponding timeout must be read from the device using
 994:Api\core\src/vl53l0x_api_core.c **** 		* the current VCSEL period, then the new VCSEL period can be
 995:Api\core\src/vl53l0x_api_core.c **** 		* applied. The timeout then must be written back to the device
 996:Api\core\src/vl53l0x_api_core.c **** 		* using the new VCSEL period.
 997:Api\core\src/vl53l0x_api_core.c **** 		*
 998:Api\core\src/vl53l0x_api_core.c **** 		* For the MSRC timeout, the same applies - this timeout being
 999:Api\core\src/vl53l0x_api_core.c **** 		* dependant on the pre-range vcsel period.
1000:Api\core\src/vl53l0x_api_core.c **** 		*/
1001:Api\core\src/vl53l0x_api_core.c **** 		switch (VcselPeriodType) {
 4052              		.loc 1 1001 0
 4053 04ea FB1C     		adds	r3, r7, #3
 4054 04ec 1B78     		ldrb	r3, [r3]
 4055 04ee 002B     		cmp	r3, #0
 4056 04f0 02D0     		beq	.L119
 4057 04f2 012B     		cmp	r3, #1
 4058 04f4 54D0     		beq	.L120
 4059 04f6 86E0     		b	.L130
 4060              	.L119:
1002:Api\core\src/vl53l0x_api_core.c **** 		case VL53L0X_VCSEL_PERIOD_PRE_RANGE:
1003:Api\core\src/vl53l0x_api_core.c **** 			Status = get_sequence_step_timeout(Dev,
 4061              		.loc 1 1003 0
 4062 04f8 2723     		movs	r3, #39
 4063 04fa FC18     		adds	r4, r7, r3
 4064 04fc 1423     		movs	r3, #20
 4065 04fe FA18     		adds	r2, r7, r3
 4066 0500 7B68     		ldr	r3, [r7, #4]
 4067 0502 0321     		movs	r1, #3
 4068 0504 1800     		movs	r0, r3
 4069 0506 FFF7FEFF 		bl	get_sequence_step_timeout
 4070 050a 0300     		movs	r3, r0
 4071 050c 2370     		strb	r3, [r4]
1004:Api\core\src/vl53l0x_api_core.c **** 				VL53L0X_SEQUENCESTEP_PRE_RANGE,
1005:Api\core\src/vl53l0x_api_core.c **** 				&PreRangeTimeoutMicroSeconds);
1006:Api\core\src/vl53l0x_api_core.c **** 
1007:Api\core\src/vl53l0x_api_core.c **** 			if (Status == VL53L0X_ERROR_NONE)
 4072              		.loc 1 1007 0
 4073 050e 2723     		movs	r3, #39
 4074 0510 FB18     		adds	r3, r7, r3
 4075 0512 1B78     		ldrb	r3, [r3]
 4076 0514 5BB2     		sxtb	r3, r3
 4077 0516 002B     		cmp	r3, #0
 4078 0518 0AD1     		bne	.L121
1008:Api\core\src/vl53l0x_api_core.c **** 				Status = get_sequence_step_timeout(Dev,
 4079              		.loc 1 1008 0
 4080 051a 2723     		movs	r3, #39
 4081 051c FC18     		adds	r4, r7, r3
 4082 051e 1023     		movs	r3, #16
 4083 0520 FA18     		adds	r2, r7, r3
 4084 0522 7B68     		ldr	r3, [r7, #4]
 4085 0524 0221     		movs	r1, #2
 4086 0526 1800     		movs	r0, r3
 4087 0528 FFF7FEFF 		bl	get_sequence_step_timeout
 4088 052c 0300     		movs	r3, r0
 4089 052e 2370     		strb	r3, [r4]
ARM GAS  C:\Users\ilya\AppData\Local\Temp\ccAjPEqD.s 			page 91


 4090              	.L121:
1009:Api\core\src/vl53l0x_api_core.c **** 					VL53L0X_SEQUENCESTEP_MSRC,
1010:Api\core\src/vl53l0x_api_core.c **** 					&MsrcTimeoutMicroSeconds);
1011:Api\core\src/vl53l0x_api_core.c **** 
1012:Api\core\src/vl53l0x_api_core.c **** 			if (Status == VL53L0X_ERROR_NONE)
 4091              		.loc 1 1012 0
 4092 0530 2723     		movs	r3, #39
 4093 0532 FB18     		adds	r3, r7, r3
 4094 0534 1B78     		ldrb	r3, [r3]
 4095 0536 5BB2     		sxtb	r3, r3
 4096 0538 002B     		cmp	r3, #0
 4097 053a 0BD1     		bne	.L122
1013:Api\core\src/vl53l0x_api_core.c **** 				Status = VL53L0X_WrByte(Dev,
 4098              		.loc 1 1013 0
 4099 053c 2723     		movs	r3, #39
 4100 053e FC18     		adds	r4, r7, r3
 4101 0540 2223     		movs	r3, #34
 4102 0542 FB18     		adds	r3, r7, r3
 4103 0544 1A78     		ldrb	r2, [r3]
 4104 0546 7B68     		ldr	r3, [r7, #4]
 4105 0548 5021     		movs	r1, #80
 4106 054a 1800     		movs	r0, r3
 4107 054c FFF7FEFF 		bl	VL53L0X_WrByte
 4108 0550 0300     		movs	r3, r0
 4109 0552 2370     		strb	r3, [r4]
 4110              	.L122:
1014:Api\core\src/vl53l0x_api_core.c **** 				VL53L0X_REG_PRE_RANGE_CONFIG_VCSEL_PERIOD,
1015:Api\core\src/vl53l0x_api_core.c **** 					vcsel_period_reg);
1016:Api\core\src/vl53l0x_api_core.c **** 
1017:Api\core\src/vl53l0x_api_core.c **** 
1018:Api\core\src/vl53l0x_api_core.c **** 			if (Status == VL53L0X_ERROR_NONE)
 4111              		.loc 1 1018 0
 4112 0554 2723     		movs	r3, #39
 4113 0556 FB18     		adds	r3, r7, r3
 4114 0558 1B78     		ldrb	r3, [r3]
 4115 055a 5BB2     		sxtb	r3, r3
 4116 055c 002B     		cmp	r3, #0
 4117 055e 09D1     		bne	.L123
1019:Api\core\src/vl53l0x_api_core.c **** 				Status = set_sequence_step_timeout(Dev,
 4118              		.loc 1 1019 0
 4119 0560 7A69     		ldr	r2, [r7, #20]
 4120 0562 2723     		movs	r3, #39
 4121 0564 FC18     		adds	r4, r7, r3
 4122 0566 7B68     		ldr	r3, [r7, #4]
 4123 0568 0321     		movs	r1, #3
 4124 056a 1800     		movs	r0, r3
 4125 056c FFF7FEFF 		bl	set_sequence_step_timeout
 4126 0570 0300     		movs	r3, r0
 4127 0572 2370     		strb	r3, [r4]
 4128              	.L123:
1020:Api\core\src/vl53l0x_api_core.c **** 					VL53L0X_SEQUENCESTEP_PRE_RANGE,
1021:Api\core\src/vl53l0x_api_core.c **** 					PreRangeTimeoutMicroSeconds);
1022:Api\core\src/vl53l0x_api_core.c **** 
1023:Api\core\src/vl53l0x_api_core.c **** 
1024:Api\core\src/vl53l0x_api_core.c **** 			if (Status == VL53L0X_ERROR_NONE)
 4129              		.loc 1 1024 0
 4130 0574 2723     		movs	r3, #39
ARM GAS  C:\Users\ilya\AppData\Local\Temp\ccAjPEqD.s 			page 92


 4131 0576 FB18     		adds	r3, r7, r3
 4132 0578 1B78     		ldrb	r3, [r3]
 4133 057a 5BB2     		sxtb	r3, r3
 4134 057c 002B     		cmp	r3, #0
 4135 057e 09D1     		bne	.L124
1025:Api\core\src/vl53l0x_api_core.c **** 				Status = set_sequence_step_timeout(Dev,
 4136              		.loc 1 1025 0
 4137 0580 3A69     		ldr	r2, [r7, #16]
 4138 0582 2723     		movs	r3, #39
 4139 0584 FC18     		adds	r4, r7, r3
 4140 0586 7B68     		ldr	r3, [r7, #4]
 4141 0588 0221     		movs	r1, #2
 4142 058a 1800     		movs	r0, r3
 4143 058c FFF7FEFF 		bl	set_sequence_step_timeout
 4144 0590 0300     		movs	r3, r0
 4145 0592 2370     		strb	r3, [r4]
 4146              	.L124:
1026:Api\core\src/vl53l0x_api_core.c **** 					VL53L0X_SEQUENCESTEP_MSRC,
1027:Api\core\src/vl53l0x_api_core.c **** 					MsrcTimeoutMicroSeconds);
1028:Api\core\src/vl53l0x_api_core.c **** 
1029:Api\core\src/vl53l0x_api_core.c **** 			VL53L0X_SETDEVICESPECIFICPARAMETER(
 4147              		.loc 1 1029 0
 4148 0594 7B68     		ldr	r3, [r7, #4]
 4149 0596 BA1C     		adds	r2, r7, #2
 4150 0598 E821     		movs	r1, #232
 4151 059a 1278     		ldrb	r2, [r2]
 4152 059c 5A54     		strb	r2, [r3, r1]
1030:Api\core\src/vl53l0x_api_core.c **** 				Dev,
1031:Api\core\src/vl53l0x_api_core.c **** 				PreRangeVcselPulsePeriod,
1032:Api\core\src/vl53l0x_api_core.c **** 				VCSELPulsePeriodPCLK);
1033:Api\core\src/vl53l0x_api_core.c **** 			break;
 4153              		.loc 1 1033 0
 4154 059e 36E0     		b	.L117
 4155              	.L120:
1034:Api\core\src/vl53l0x_api_core.c **** 		case VL53L0X_VCSEL_PERIOD_FINAL_RANGE:
1035:Api\core\src/vl53l0x_api_core.c **** 			Status = get_sequence_step_timeout(Dev,
 4156              		.loc 1 1035 0
 4157 05a0 2723     		movs	r3, #39
 4158 05a2 FC18     		adds	r4, r7, r3
 4159 05a4 1823     		movs	r3, #24
 4160 05a6 FA18     		adds	r2, r7, r3
 4161 05a8 7B68     		ldr	r3, [r7, #4]
 4162 05aa 0421     		movs	r1, #4
 4163 05ac 1800     		movs	r0, r3
 4164 05ae FFF7FEFF 		bl	get_sequence_step_timeout
 4165 05b2 0300     		movs	r3, r0
 4166 05b4 2370     		strb	r3, [r4]
1036:Api\core\src/vl53l0x_api_core.c **** 				VL53L0X_SEQUENCESTEP_FINAL_RANGE,
1037:Api\core\src/vl53l0x_api_core.c **** 				&FinalRangeTimeoutMicroSeconds);
1038:Api\core\src/vl53l0x_api_core.c **** 
1039:Api\core\src/vl53l0x_api_core.c **** 			if (Status == VL53L0X_ERROR_NONE)
 4167              		.loc 1 1039 0
 4168 05b6 2723     		movs	r3, #39
 4169 05b8 FB18     		adds	r3, r7, r3
 4170 05ba 1B78     		ldrb	r3, [r3]
 4171 05bc 5BB2     		sxtb	r3, r3
 4172 05be 002B     		cmp	r3, #0
ARM GAS  C:\Users\ilya\AppData\Local\Temp\ccAjPEqD.s 			page 93


 4173 05c0 0BD1     		bne	.L125
1040:Api\core\src/vl53l0x_api_core.c **** 				Status = VL53L0X_WrByte(Dev,
 4174              		.loc 1 1040 0
 4175 05c2 2723     		movs	r3, #39
 4176 05c4 FC18     		adds	r4, r7, r3
 4177 05c6 2223     		movs	r3, #34
 4178 05c8 FB18     		adds	r3, r7, r3
 4179 05ca 1A78     		ldrb	r2, [r3]
 4180 05cc 7B68     		ldr	r3, [r7, #4]
 4181 05ce 7021     		movs	r1, #112
 4182 05d0 1800     		movs	r0, r3
 4183 05d2 FFF7FEFF 		bl	VL53L0X_WrByte
 4184 05d6 0300     		movs	r3, r0
 4185 05d8 2370     		strb	r3, [r4]
 4186              	.L125:
1041:Api\core\src/vl53l0x_api_core.c **** 				VL53L0X_REG_FINAL_RANGE_CONFIG_VCSEL_PERIOD,
1042:Api\core\src/vl53l0x_api_core.c **** 					vcsel_period_reg);
1043:Api\core\src/vl53l0x_api_core.c **** 
1044:Api\core\src/vl53l0x_api_core.c **** 
1045:Api\core\src/vl53l0x_api_core.c **** 			if (Status == VL53L0X_ERROR_NONE)
 4187              		.loc 1 1045 0
 4188 05da 2723     		movs	r3, #39
 4189 05dc FB18     		adds	r3, r7, r3
 4190 05de 1B78     		ldrb	r3, [r3]
 4191 05e0 5BB2     		sxtb	r3, r3
 4192 05e2 002B     		cmp	r3, #0
 4193 05e4 09D1     		bne	.L126
1046:Api\core\src/vl53l0x_api_core.c **** 				Status = set_sequence_step_timeout(Dev,
 4194              		.loc 1 1046 0
 4195 05e6 BA69     		ldr	r2, [r7, #24]
 4196 05e8 2723     		movs	r3, #39
 4197 05ea FC18     		adds	r4, r7, r3
 4198 05ec 7B68     		ldr	r3, [r7, #4]
 4199 05ee 0421     		movs	r1, #4
 4200 05f0 1800     		movs	r0, r3
 4201 05f2 FFF7FEFF 		bl	set_sequence_step_timeout
 4202 05f6 0300     		movs	r3, r0
 4203 05f8 2370     		strb	r3, [r4]
 4204              	.L126:
1047:Api\core\src/vl53l0x_api_core.c **** 					VL53L0X_SEQUENCESTEP_FINAL_RANGE,
1048:Api\core\src/vl53l0x_api_core.c **** 					FinalRangeTimeoutMicroSeconds);
1049:Api\core\src/vl53l0x_api_core.c **** 
1050:Api\core\src/vl53l0x_api_core.c **** 			VL53L0X_SETDEVICESPECIFICPARAMETER(
 4205              		.loc 1 1050 0
 4206 05fa 7B68     		ldr	r3, [r7, #4]
 4207 05fc BA1C     		adds	r2, r7, #2
 4208 05fe E021     		movs	r1, #224
 4209 0600 1278     		ldrb	r2, [r2]
 4210 0602 5A54     		strb	r2, [r3, r1]
1051:Api\core\src/vl53l0x_api_core.c **** 				Dev,
1052:Api\core\src/vl53l0x_api_core.c **** 				FinalRangeVcselPulsePeriod,
1053:Api\core\src/vl53l0x_api_core.c **** 				VCSELPulsePeriodPCLK);
1054:Api\core\src/vl53l0x_api_core.c **** 			break;
 4211              		.loc 1 1054 0
 4212 0604 03E0     		b	.L117
 4213              	.L130:
1055:Api\core\src/vl53l0x_api_core.c **** 		default:
ARM GAS  C:\Users\ilya\AppData\Local\Temp\ccAjPEqD.s 			page 94


1056:Api\core\src/vl53l0x_api_core.c **** 			Status = VL53L0X_ERROR_INVALID_PARAMS;
 4214              		.loc 1 1056 0
 4215 0606 2723     		movs	r3, #39
 4216 0608 FB18     		adds	r3, r7, r3
 4217 060a FC22     		movs	r2, #252
 4218 060c 1A70     		strb	r2, [r3]
 4219              	.L117:
1057:Api\core\src/vl53l0x_api_core.c **** 		}
1058:Api\core\src/vl53l0x_api_core.c **** 	}
1059:Api\core\src/vl53l0x_api_core.c **** 
1060:Api\core\src/vl53l0x_api_core.c **** 	/* Finally, the timing budget must be re-applied */
1061:Api\core\src/vl53l0x_api_core.c **** 	if (Status == VL53L0X_ERROR_NONE) {
 4220              		.loc 1 1061 0
 4221 060e 2723     		movs	r3, #39
 4222 0610 FB18     		adds	r3, r7, r3
 4223 0612 1B78     		ldrb	r3, [r3]
 4224 0614 5BB2     		sxtb	r3, r3
 4225 0616 002B     		cmp	r3, #0
 4226 0618 0CD1     		bne	.L127
1062:Api\core\src/vl53l0x_api_core.c **** 		VL53L0X_GETPARAMETERFIELD(Dev,
 4227              		.loc 1 1062 0
 4228 061a 7B68     		ldr	r3, [r7, #4]
 4229 061c 5B69     		ldr	r3, [r3, #20]
 4230 061e FB61     		str	r3, [r7, #28]
1063:Api\core\src/vl53l0x_api_core.c **** 			MeasurementTimingBudgetMicroSeconds,
1064:Api\core\src/vl53l0x_api_core.c **** 			MeasurementTimingBudgetMicroSeconds);
1065:Api\core\src/vl53l0x_api_core.c **** 
1066:Api\core\src/vl53l0x_api_core.c **** 		Status = VL53L0X_SetMeasurementTimingBudgetMicroSeconds(Dev,
 4231              		.loc 1 1066 0
 4232 0620 2723     		movs	r3, #39
 4233 0622 FC18     		adds	r4, r7, r3
 4234 0624 FA69     		ldr	r2, [r7, #28]
 4235 0626 7B68     		ldr	r3, [r7, #4]
 4236 0628 1100     		movs	r1, r2
 4237 062a 1800     		movs	r0, r3
 4238 062c FFF7FEFF 		bl	VL53L0X_SetMeasurementTimingBudgetMicroSeconds
 4239 0630 0300     		movs	r3, r0
 4240 0632 2370     		strb	r3, [r4]
 4241              	.L127:
1067:Api\core\src/vl53l0x_api_core.c **** 				MeasurementTimingBudgetMicroSeconds);
1068:Api\core\src/vl53l0x_api_core.c **** 	}
1069:Api\core\src/vl53l0x_api_core.c **** 
1070:Api\core\src/vl53l0x_api_core.c **** 	/* Perform the phase calibration. This is needed after changing on
1071:Api\core\src/vl53l0x_api_core.c **** 	 * vcsel period.
1072:Api\core\src/vl53l0x_api_core.c **** 	 * get_data_enable = 0, restore_config = 1 */
1073:Api\core\src/vl53l0x_api_core.c **** 	if (Status == VL53L0X_ERROR_NONE)
 4242              		.loc 1 1073 0
 4243 0634 2723     		movs	r3, #39
 4244 0636 FB18     		adds	r3, r7, r3
 4245 0638 1B78     		ldrb	r3, [r3]
 4246 063a 5BB2     		sxtb	r3, r3
 4247 063c 002B     		cmp	r3, #0
 4248 063e 0AD1     		bne	.L128
1074:Api\core\src/vl53l0x_api_core.c **** 		Status = VL53L0X_perform_phase_calibration(
 4249              		.loc 1 1074 0
 4250 0640 2723     		movs	r3, #39
 4251 0642 FC18     		adds	r4, r7, r3
ARM GAS  C:\Users\ilya\AppData\Local\Temp\ccAjPEqD.s 			page 95


 4252 0644 0F23     		movs	r3, #15
 4253 0646 F918     		adds	r1, r7, r3
 4254 0648 7868     		ldr	r0, [r7, #4]
 4255 064a 0123     		movs	r3, #1
 4256 064c 0022     		movs	r2, #0
 4257 064e FFF7FEFF 		bl	VL53L0X_perform_phase_calibration
 4258 0652 0300     		movs	r3, r0
 4259 0654 2370     		strb	r3, [r4]
 4260              	.L128:
1075:Api\core\src/vl53l0x_api_core.c **** 			Dev, &PhaseCalInt, 0, 1);
1076:Api\core\src/vl53l0x_api_core.c **** 
1077:Api\core\src/vl53l0x_api_core.c **** 	return Status;
 4261              		.loc 1 1077 0
 4262 0656 2723     		movs	r3, #39
 4263 0658 FB18     		adds	r3, r7, r3
 4264 065a 1B78     		ldrb	r3, [r3]
 4265 065c 5BB2     		sxtb	r3, r3
 4266              	.L129:
1078:Api\core\src/vl53l0x_api_core.c **** }
 4267              		.loc 1 1078 0 discriminator 1
 4268 065e 1800     		movs	r0, r3
 4269 0660 BD46     		mov	sp, r7
 4270 0662 0BB0     		add	sp, sp, #44
 4271              		@ sp needed
 4272 0664 90BD     		pop	{r4, r7, pc}
 4273              		.cfi_endproc
 4274              	.LFE16:
 4275              		.size	VL53L0X_set_vcsel_pulse_period, .-VL53L0X_set_vcsel_pulse_period
 4276 0666 C046     		.section	.text.VL53L0X_get_vcsel_pulse_period,"ax",%progbits
 4277              		.align	2
 4278              		.global	VL53L0X_get_vcsel_pulse_period
 4279              		.code	16
 4280              		.thumb_func
 4281              		.type	VL53L0X_get_vcsel_pulse_period, %function
 4282              	VL53L0X_get_vcsel_pulse_period:
 4283              	.LFB17:
1079:Api\core\src/vl53l0x_api_core.c **** 
1080:Api\core\src/vl53l0x_api_core.c **** VL53L0X_Error VL53L0X_get_vcsel_pulse_period(VL53L0X_DEV Dev,
1081:Api\core\src/vl53l0x_api_core.c **** 	VL53L0X_VcselPeriod VcselPeriodType, uint8_t *pVCSELPulsePeriodPCLK)
1082:Api\core\src/vl53l0x_api_core.c **** {
 4284              		.loc 1 1082 0
 4285              		.cfi_startproc
 4286              		@ args = 0, pretend = 0, frame = 24
 4287              		@ frame_needed = 1, uses_anonymous_args = 0
 4288 0000 90B5     		push	{r4, r7, lr}
 4289              		.cfi_def_cfa_offset 12
 4290              		.cfi_offset 4, -12
 4291              		.cfi_offset 7, -8
 4292              		.cfi_offset 14, -4
 4293 0002 87B0     		sub	sp, sp, #28
 4294              		.cfi_def_cfa_offset 40
 4295 0004 00AF     		add	r7, sp, #0
 4296              		.cfi_def_cfa_register 7
 4297 0006 F860     		str	r0, [r7, #12]
 4298 0008 7A60     		str	r2, [r7, #4]
 4299 000a 0B23     		movs	r3, #11
 4300 000c FB18     		adds	r3, r7, r3
ARM GAS  C:\Users\ilya\AppData\Local\Temp\ccAjPEqD.s 			page 96


 4301 000e 0A1C     		adds	r2, r1, #0
 4302 0010 1A70     		strb	r2, [r3]
1083:Api\core\src/vl53l0x_api_core.c **** 	VL53L0X_Error Status = VL53L0X_ERROR_NONE;
 4303              		.loc 1 1083 0
 4304 0012 1723     		movs	r3, #23
 4305 0014 FB18     		adds	r3, r7, r3
 4306 0016 0022     		movs	r2, #0
 4307 0018 1A70     		strb	r2, [r3]
1084:Api\core\src/vl53l0x_api_core.c **** 	uint8_t vcsel_period_reg;
1085:Api\core\src/vl53l0x_api_core.c **** 
1086:Api\core\src/vl53l0x_api_core.c **** 	switch (VcselPeriodType) {
 4308              		.loc 1 1086 0
 4309 001a 0B23     		movs	r3, #11
 4310 001c FB18     		adds	r3, r7, r3
 4311 001e 1B78     		ldrb	r3, [r3]
 4312 0020 002B     		cmp	r3, #0
 4313 0022 02D0     		beq	.L133
 4314 0024 012B     		cmp	r3, #1
 4315 0026 0CD0     		beq	.L134
 4316 0028 17E0     		b	.L138
 4317              	.L133:
1087:Api\core\src/vl53l0x_api_core.c **** 	case VL53L0X_VCSEL_PERIOD_PRE_RANGE:
1088:Api\core\src/vl53l0x_api_core.c **** 		Status = VL53L0X_RdByte(Dev,
 4318              		.loc 1 1088 0
 4319 002a 1723     		movs	r3, #23
 4320 002c FC18     		adds	r4, r7, r3
 4321 002e 1623     		movs	r3, #22
 4322 0030 FA18     		adds	r2, r7, r3
 4323 0032 FB68     		ldr	r3, [r7, #12]
 4324 0034 5021     		movs	r1, #80
 4325 0036 1800     		movs	r0, r3
 4326 0038 FFF7FEFF 		bl	VL53L0X_RdByte
 4327 003c 0300     		movs	r3, r0
 4328 003e 2370     		strb	r3, [r4]
1089:Api\core\src/vl53l0x_api_core.c **** 			VL53L0X_REG_PRE_RANGE_CONFIG_VCSEL_PERIOD,
1090:Api\core\src/vl53l0x_api_core.c **** 			&vcsel_period_reg);
1091:Api\core\src/vl53l0x_api_core.c **** 	break;
 4329              		.loc 1 1091 0
 4330 0040 0FE0     		b	.L135
 4331              	.L134:
1092:Api\core\src/vl53l0x_api_core.c **** 	case VL53L0X_VCSEL_PERIOD_FINAL_RANGE:
1093:Api\core\src/vl53l0x_api_core.c **** 		Status = VL53L0X_RdByte(Dev,
 4332              		.loc 1 1093 0
 4333 0042 1723     		movs	r3, #23
 4334 0044 FC18     		adds	r4, r7, r3
 4335 0046 1623     		movs	r3, #22
 4336 0048 FA18     		adds	r2, r7, r3
 4337 004a FB68     		ldr	r3, [r7, #12]
 4338 004c 7021     		movs	r1, #112
 4339 004e 1800     		movs	r0, r3
 4340 0050 FFF7FEFF 		bl	VL53L0X_RdByte
 4341 0054 0300     		movs	r3, r0
 4342 0056 2370     		strb	r3, [r4]
1094:Api\core\src/vl53l0x_api_core.c **** 			VL53L0X_REG_FINAL_RANGE_CONFIG_VCSEL_PERIOD,
