ARM GAS  C:\Users\ilya\AppData\Local\Temp\ccSeg1re.s 			page 1


   1              		.syntax unified
   2              		.cpu cortex-m0
   3              		.fpu softvfp
   4              		.eabi_attribute 20, 1
   5              		.eabi_attribute 21, 1
   6              		.eabi_attribute 23, 3
   7              		.eabi_attribute 24, 1
   8              		.eabi_attribute 25, 1
   9              		.eabi_attribute 26, 1
  10              		.eabi_attribute 30, 6
  11              		.eabi_attribute 34, 0
  12              		.eabi_attribute 18, 4
  13              		.thumb
  14              		.syntax unified
  15              		.file	"vl53l0x_api_strings.c"
  16              		.text
  17              	.Ltext0:
  18              		.cfi_sections	.debug_frame
  19              		.section	.text.VL53L0X_check_part_used,"ax",%progbits
  20              		.align	2
  21              		.global	VL53L0X_check_part_used
  22              		.code	16
  23              		.thumb_func
  24              		.type	VL53L0X_check_part_used, %function
  25              	VL53L0X_check_part_used:
  26              	.LFB1:
  27              		.file 1 "Api\\core\\src\\vl53l0x_api_strings.c"
   1:Api\core\src/vl53l0x_api_strings.c **** /*******************************************************************************
   2:Api\core\src/vl53l0x_api_strings.c ****  Copyright © 2016, STMicroelectronics International N.V.
   3:Api\core\src/vl53l0x_api_strings.c ****  All rights reserved.
   4:Api\core\src/vl53l0x_api_strings.c **** 
   5:Api\core\src/vl53l0x_api_strings.c ****  Redistribution and use in source and binary forms, with or without
   6:Api\core\src/vl53l0x_api_strings.c ****  modification, are permitted provided that the following conditions are met:
   7:Api\core\src/vl53l0x_api_strings.c ****  * Redistributions of source code must retain the above copyright
   8:Api\core\src/vl53l0x_api_strings.c ****  notice, this list of conditions and the following disclaimer.
   9:Api\core\src/vl53l0x_api_strings.c ****  * Redistributions in binary form must reproduce the above copyright
  10:Api\core\src/vl53l0x_api_strings.c ****  notice, this list of conditions and the following disclaimer in the
  11:Api\core\src/vl53l0x_api_strings.c ****  documentation and/or other materials provided with the distribution.
  12:Api\core\src/vl53l0x_api_strings.c ****  * Neither the name of STMicroelectronics nor the
  13:Api\core\src/vl53l0x_api_strings.c ****  names of its contributors may be used to endorse or promote products
  14:Api\core\src/vl53l0x_api_strings.c ****  derived from this software without specific prior written permission.
  15:Api\core\src/vl53l0x_api_strings.c **** 
  16:Api\core\src/vl53l0x_api_strings.c ****  THIS SOFTWARE IS PROVIDED BY THE COPYRIGHT HOLDERS AND CONTRIBUTORS "AS IS" AND
  17:Api\core\src/vl53l0x_api_strings.c ****  ANY EXPRESS OR IMPLIED WARRANTIES, INCLUDING, BUT NOT LIMITED TO, THE IMPLIED
  18:Api\core\src/vl53l0x_api_strings.c ****  WARRANTIES OF MERCHANTABILITY, FITNESS FOR A PARTICULAR PURPOSE, AND
  19:Api\core\src/vl53l0x_api_strings.c ****  NON-INFRINGEMENT OF INTELLECTUAL PROPERTY RIGHTS ARE DISCLAIMED.
  20:Api\core\src/vl53l0x_api_strings.c ****  IN NO EVENT SHALL STMICROELECTRONICS INTERNATIONAL N.V. BE LIABLE FOR ANY
  21:Api\core\src/vl53l0x_api_strings.c ****  DIRECT, INDIRECT, INCIDENTAL, SPECIAL, EXEMPLARY, OR CONSEQUENTIAL DAMAGES
  22:Api\core\src/vl53l0x_api_strings.c ****  (INCLUDING, BUT NOT LIMITED TO, PROCUREMENT OF SUBSTITUTE GOODS OR SERVICES;
  23:Api\core\src/vl53l0x_api_strings.c ****  LOSS OF USE, DATA, OR PROFITS; OR BUSINESS INTERRUPTION) HOWEVER CAUSED AND
  24:Api\core\src/vl53l0x_api_strings.c ****  ON ANY THEORY OF LIABILITY, WHETHER IN CONTRACT, STRICT LIABILITY, OR TORT
  25:Api\core\src/vl53l0x_api_strings.c ****  (INCLUDING NEGLIGENCE OR OTHERWISE) ARISING IN ANY WAY OUT OF THE USE OF THIS
  26:Api\core\src/vl53l0x_api_strings.c ****  SOFTWARE, EVEN IF ADVISED OF THE POSSIBILITY OF SUCH DAMAGE.
  27:Api\core\src/vl53l0x_api_strings.c ****  ******************************************************************************/
  28:Api\core\src/vl53l0x_api_strings.c **** 
  29:Api\core\src/vl53l0x_api_strings.c **** #include "vl53l0x_api.h"
  30:Api\core\src/vl53l0x_api_strings.c **** #include "vl53l0x_api_core.h"
ARM GAS  C:\Users\ilya\AppData\Local\Temp\ccSeg1re.s 			page 2


  31:Api\core\src/vl53l0x_api_strings.c **** #include "vl53l0x_api_strings.h"
  32:Api\core\src/vl53l0x_api_strings.c **** 
  33:Api\core\src/vl53l0x_api_strings.c **** #ifndef __KERNEL__
  34:Api\core\src/vl53l0x_api_strings.c **** #include <stdlib.h>
  35:Api\core\src/vl53l0x_api_strings.c **** #endif
  36:Api\core\src/vl53l0x_api_strings.c **** 
  37:Api\core\src/vl53l0x_api_strings.c **** #define LOG_FUNCTION_START(fmt, ...) \
  38:Api\core\src/vl53l0x_api_strings.c **** 	_LOG_FUNCTION_START(TRACE_MODULE_API, fmt, ##__VA_ARGS__)
  39:Api\core\src/vl53l0x_api_strings.c **** #define LOG_FUNCTION_END(status, ...) \
  40:Api\core\src/vl53l0x_api_strings.c **** 	_LOG_FUNCTION_END(TRACE_MODULE_API, status, ##__VA_ARGS__)
  41:Api\core\src/vl53l0x_api_strings.c **** #define LOG_FUNCTION_END_FMT(status, fmt, ...) \
  42:Api\core\src/vl53l0x_api_strings.c **** 	_LOG_FUNCTION_END_FMT(TRACE_MODULE_API, status, fmt, ##__VA_ARGS__)
  43:Api\core\src/vl53l0x_api_strings.c **** 
  44:Api\core\src/vl53l0x_api_strings.c **** 
  45:Api\core\src/vl53l0x_api_strings.c **** VL53L0X_Error VL53L0X_check_part_used(VL53L0X_DEV Dev,
  46:Api\core\src/vl53l0x_api_strings.c **** 		uint8_t *Revision,
  47:Api\core\src/vl53l0x_api_strings.c **** 		VL53L0X_DeviceInfo_t *pVL53L0X_DeviceInfo)
  48:Api\core\src/vl53l0x_api_strings.c **** {
  28              		.loc 1 48 0
  29              		.cfi_startproc
  30              		@ args = 0, pretend = 0, frame = 24
  31              		@ frame_needed = 1, uses_anonymous_args = 0
  32 0000 90B5     		push	{r4, r7, lr}
  33              		.cfi_def_cfa_offset 12
  34              		.cfi_offset 4, -12
  35              		.cfi_offset 7, -8
  36              		.cfi_offset 14, -4
  37 0002 87B0     		sub	sp, sp, #28
  38              		.cfi_def_cfa_offset 40
  39 0004 00AF     		add	r7, sp, #0
  40              		.cfi_def_cfa_register 7
  41 0006 F860     		str	r0, [r7, #12]
  42 0008 B960     		str	r1, [r7, #8]
  43 000a 7A60     		str	r2, [r7, #4]
  49:Api\core\src/vl53l0x_api_strings.c **** 	VL53L0X_Error Status = VL53L0X_ERROR_NONE;
  44              		.loc 1 49 0
  45 000c 1723     		movs	r3, #23
  46 000e FB18     		adds	r3, r7, r3
  47 0010 0022     		movs	r2, #0
  48 0012 1A70     		strb	r2, [r3]
  50:Api\core\src/vl53l0x_api_strings.c **** 	uint8_t ModuleIdInt;
  51:Api\core\src/vl53l0x_api_strings.c **** 	char *ProductId_tmp;
  52:Api\core\src/vl53l0x_api_strings.c **** 
  53:Api\core\src/vl53l0x_api_strings.c **** 	LOG_FUNCTION_START("");
  54:Api\core\src/vl53l0x_api_strings.c **** 
  55:Api\core\src/vl53l0x_api_strings.c **** 	Status = VL53L0X_get_info_from_device(Dev, 2);
  49              		.loc 1 55 0
  50 0014 1723     		movs	r3, #23
  51 0016 FC18     		adds	r4, r7, r3
  52 0018 FB68     		ldr	r3, [r7, #12]
  53 001a 0221     		movs	r1, #2
  54 001c 1800     		movs	r0, r3
  55 001e FFF7FEFF 		bl	VL53L0X_get_info_from_device
  56 0022 0300     		movs	r3, r0
  57 0024 2370     		strb	r3, [r4]
  56:Api\core\src/vl53l0x_api_strings.c **** 
  57:Api\core\src/vl53l0x_api_strings.c **** 	if (Status == VL53L0X_ERROR_NONE) {
ARM GAS  C:\Users\ilya\AppData\Local\Temp\ccSeg1re.s 			page 3


  58              		.loc 1 57 0
  59 0026 1723     		movs	r3, #23
  60 0028 FB18     		adds	r3, r7, r3
  61 002a 1B78     		ldrb	r3, [r3]
  62 002c 5BB2     		sxtb	r3, r3
  63 002e 002B     		cmp	r3, #0
  64 0030 21D1     		bne	.L2
  58:Api\core\src/vl53l0x_api_strings.c **** 		ModuleIdInt = VL53L0X_GETDEVICESPECIFICPARAMETER(Dev, ModuleId);
  65              		.loc 1 58 0
  66 0032 1623     		movs	r3, #22
  67 0034 FB18     		adds	r3, r7, r3
  68 0036 FA68     		ldr	r2, [r7, #12]
  69 0038 F121     		movs	r1, #241
  70 003a 525C     		ldrb	r2, [r2, r1]
  71 003c 1A70     		strb	r2, [r3]
  59:Api\core\src/vl53l0x_api_strings.c **** 
  60:Api\core\src/vl53l0x_api_strings.c **** 	if (ModuleIdInt == 0) {
  72              		.loc 1 60 0
  73 003e 1623     		movs	r3, #22
  74 0040 FB18     		adds	r3, r7, r3
  75 0042 1B78     		ldrb	r3, [r3]
  76 0044 002B     		cmp	r3, #0
  77 0046 07D1     		bne	.L3
  61:Api\core\src/vl53l0x_api_strings.c **** 		*Revision = 0;
  78              		.loc 1 61 0
  79 0048 BB68     		ldr	r3, [r7, #8]
  80 004a 0022     		movs	r2, #0
  81 004c 1A70     		strb	r2, [r3]
  62:Api\core\src/vl53l0x_api_strings.c **** 		VL53L0X_COPYSTRING(pVL53L0X_DeviceInfo->ProductId, "");
  82              		.loc 1 62 0
  83 004e 7B68     		ldr	r3, [r7, #4]
  84 0050 4033     		adds	r3, r3, #64
  85 0052 0022     		movs	r2, #0
  86 0054 1A70     		strb	r2, [r3]
  87 0056 0EE0     		b	.L2
  88              	.L3:
  63:Api\core\src/vl53l0x_api_strings.c **** 	} else {
  64:Api\core\src/vl53l0x_api_strings.c **** 		*Revision = VL53L0X_GETDEVICESPECIFICPARAMETER(Dev, Revision);
  89              		.loc 1 64 0
  90 0058 FB68     		ldr	r3, [r7, #12]
  91 005a F222     		movs	r2, #242
  92 005c 9A5C     		ldrb	r2, [r3, r2]
  93 005e BB68     		ldr	r3, [r7, #8]
  94 0060 1A70     		strb	r2, [r3]
  65:Api\core\src/vl53l0x_api_strings.c **** 		ProductId_tmp = VL53L0X_GETDEVICESPECIFICPARAMETER(Dev,
  95              		.loc 1 65 0
  96 0062 FB68     		ldr	r3, [r7, #12]
  97 0064 F333     		adds	r3, r3, #243
  98 0066 3B61     		str	r3, [r7, #16]
  66:Api\core\src/vl53l0x_api_strings.c **** 			ProductId);
  67:Api\core\src/vl53l0x_api_strings.c **** 		VL53L0X_COPYSTRING(pVL53L0X_DeviceInfo->ProductId, ProductId_tmp);
  99              		.loc 1 67 0
 100 0068 7B68     		ldr	r3, [r7, #4]
 101 006a 4033     		adds	r3, r3, #64
 102 006c 3A69     		ldr	r2, [r7, #16]
 103 006e 1100     		movs	r1, r2
 104 0070 1800     		movs	r0, r3
ARM GAS  C:\Users\ilya\AppData\Local\Temp\ccSeg1re.s 			page 4


 105 0072 FFF7FEFF 		bl	strcpy
 106              	.L2:
  68:Api\core\src/vl53l0x_api_strings.c **** 	}
  69:Api\core\src/vl53l0x_api_strings.c **** 	}
  70:Api\core\src/vl53l0x_api_strings.c **** 
  71:Api\core\src/vl53l0x_api_strings.c **** 	LOG_FUNCTION_END(Status);
  72:Api\core\src/vl53l0x_api_strings.c **** 	return Status;
 107              		.loc 1 72 0
 108 0076 1723     		movs	r3, #23
 109 0078 FB18     		adds	r3, r7, r3
 110 007a 1B78     		ldrb	r3, [r3]
 111 007c 5BB2     		sxtb	r3, r3
  73:Api\core\src/vl53l0x_api_strings.c **** }
 112              		.loc 1 73 0
 113 007e 1800     		movs	r0, r3
 114 0080 BD46     		mov	sp, r7
 115 0082 07B0     		add	sp, sp, #28
 116              		@ sp needed
 117 0084 90BD     		pop	{r4, r7, pc}
 118              		.cfi_endproc
 119              	.LFE1:
 120              		.size	VL53L0X_check_part_used, .-VL53L0X_check_part_used
 121              		.section	.text.VL53L0X_get_device_info,"ax",%progbits
 122              		.align	2
 123              		.global	VL53L0X_get_device_info
 124              		.code	16
 125              		.thumb_func
 126              		.type	VL53L0X_get_device_info, %function
 127              	VL53L0X_get_device_info:
 128              	.LFB2:
  74:Api\core\src/vl53l0x_api_strings.c **** 
  75:Api\core\src/vl53l0x_api_strings.c **** 
  76:Api\core\src/vl53l0x_api_strings.c **** VL53L0X_Error VL53L0X_get_device_info(VL53L0X_DEV Dev,
  77:Api\core\src/vl53l0x_api_strings.c **** 				VL53L0X_DeviceInfo_t *pVL53L0X_DeviceInfo)
  78:Api\core\src/vl53l0x_api_strings.c **** {
 129              		.loc 1 78 0
 130              		.cfi_startproc
 131              		@ args = 0, pretend = 0, frame = 16
 132              		@ frame_needed = 1, uses_anonymous_args = 0
 133 0000 90B5     		push	{r4, r7, lr}
 134              		.cfi_def_cfa_offset 12
 135              		.cfi_offset 4, -12
 136              		.cfi_offset 7, -8
 137              		.cfi_offset 14, -4
 138 0002 85B0     		sub	sp, sp, #20
 139              		.cfi_def_cfa_offset 32
 140 0004 00AF     		add	r7, sp, #0
 141              		.cfi_def_cfa_register 7
 142 0006 7860     		str	r0, [r7, #4]
 143 0008 3960     		str	r1, [r7]
  79:Api\core\src/vl53l0x_api_strings.c **** 	VL53L0X_Error Status = VL53L0X_ERROR_NONE;
 144              		.loc 1 79 0
 145 000a 0F23     		movs	r3, #15
 146 000c FB18     		adds	r3, r7, r3
 147 000e 0022     		movs	r2, #0
 148 0010 1A70     		strb	r2, [r3]
  80:Api\core\src/vl53l0x_api_strings.c **** 	uint8_t revision_id;
ARM GAS  C:\Users\ilya\AppData\Local\Temp\ccSeg1re.s 			page 5


  81:Api\core\src/vl53l0x_api_strings.c **** 	uint8_t Revision;
  82:Api\core\src/vl53l0x_api_strings.c **** 
  83:Api\core\src/vl53l0x_api_strings.c **** 	Status = VL53L0X_check_part_used(Dev, &Revision, pVL53L0X_DeviceInfo);
 149              		.loc 1 83 0
 150 0012 0F23     		movs	r3, #15
 151 0014 FC18     		adds	r4, r7, r3
 152 0016 3A68     		ldr	r2, [r7]
 153 0018 0D23     		movs	r3, #13
 154 001a F918     		adds	r1, r7, r3
 155 001c 7B68     		ldr	r3, [r7, #4]
 156 001e 1800     		movs	r0, r3
 157 0020 FFF7FEFF 		bl	VL53L0X_check_part_used
 158 0024 0300     		movs	r3, r0
 159 0026 2370     		strb	r3, [r4]
  84:Api\core\src/vl53l0x_api_strings.c **** 
  85:Api\core\src/vl53l0x_api_strings.c **** 	if (Status == VL53L0X_ERROR_NONE) {
 160              		.loc 1 85 0
 161 0028 0F23     		movs	r3, #15
 162 002a FB18     		adds	r3, r7, r3
 163 002c 1B78     		ldrb	r3, [r3]
 164 002e 5BB2     		sxtb	r3, r3
 165 0030 002B     		cmp	r3, #0
 166 0032 26D1     		bne	.L6
  86:Api\core\src/vl53l0x_api_strings.c **** 		if (Revision == 0) {
 167              		.loc 1 86 0
 168 0034 0D23     		movs	r3, #13
 169 0036 FB18     		adds	r3, r7, r3
 170 0038 1B78     		ldrb	r3, [r3]
 171 003a 002B     		cmp	r3, #0
 172 003c 03D1     		bne	.L7
  87:Api\core\src/vl53l0x_api_strings.c **** 			VL53L0X_COPYSTRING(pVL53L0X_DeviceInfo->Name,
 173              		.loc 1 87 0
 174 003e 3B68     		ldr	r3, [r7]
 175 0040 0022     		movs	r2, #0
 176 0042 1A70     		strb	r2, [r3]
 177 0044 19E0     		b	.L8
 178              	.L7:
  88:Api\core\src/vl53l0x_api_strings.c **** 					VL53L0X_STRING_DEVICE_INFO_NAME_TS0);
  89:Api\core\src/vl53l0x_api_strings.c **** 		} else if ((Revision <= 34) && (Revision != 32)) {
 179              		.loc 1 89 0
 180 0046 0D23     		movs	r3, #13
 181 0048 FB18     		adds	r3, r7, r3
 182 004a 1B78     		ldrb	r3, [r3]
 183 004c 222B     		cmp	r3, #34
 184 004e 08D8     		bhi	.L9
 185              		.loc 1 89 0 is_stmt 0 discriminator 1
 186 0050 0D23     		movs	r3, #13
 187 0052 FB18     		adds	r3, r7, r3
 188 0054 1B78     		ldrb	r3, [r3]
 189 0056 202B     		cmp	r3, #32
 190 0058 03D0     		beq	.L9
  90:Api\core\src/vl53l0x_api_strings.c **** 			VL53L0X_COPYSTRING(pVL53L0X_DeviceInfo->Name,
 191              		.loc 1 90 0 is_stmt 1
 192 005a 3B68     		ldr	r3, [r7]
 193 005c 0022     		movs	r2, #0
 194 005e 1A70     		strb	r2, [r3]
 195 0060 0BE0     		b	.L8
ARM GAS  C:\Users\ilya\AppData\Local\Temp\ccSeg1re.s 			page 6


 196              	.L9:
  91:Api\core\src/vl53l0x_api_strings.c **** 					VL53L0X_STRING_DEVICE_INFO_NAME_TS1);
  92:Api\core\src/vl53l0x_api_strings.c **** 		} else if (Revision < 39) {
 197              		.loc 1 92 0
 198 0062 0D23     		movs	r3, #13
 199 0064 FB18     		adds	r3, r7, r3
 200 0066 1B78     		ldrb	r3, [r3]
 201 0068 262B     		cmp	r3, #38
 202 006a 03D8     		bhi	.L10
  93:Api\core\src/vl53l0x_api_strings.c **** 			VL53L0X_COPYSTRING(pVL53L0X_DeviceInfo->Name,
 203              		.loc 1 93 0
 204 006c 3B68     		ldr	r3, [r7]
 205 006e 0022     		movs	r2, #0
 206 0070 1A70     		strb	r2, [r3]
 207 0072 02E0     		b	.L8
 208              	.L10:
  94:Api\core\src/vl53l0x_api_strings.c **** 					VL53L0X_STRING_DEVICE_INFO_NAME_TS2);
  95:Api\core\src/vl53l0x_api_strings.c **** 		} else {
  96:Api\core\src/vl53l0x_api_strings.c **** 			VL53L0X_COPYSTRING(pVL53L0X_DeviceInfo->Name,
 209              		.loc 1 96 0
 210 0074 3B68     		ldr	r3, [r7]
 211 0076 0022     		movs	r2, #0
 212 0078 1A70     		strb	r2, [r3]
 213              	.L8:
  97:Api\core\src/vl53l0x_api_strings.c **** 					VL53L0X_STRING_DEVICE_INFO_NAME_ES1);
  98:Api\core\src/vl53l0x_api_strings.c **** 		}
  99:Api\core\src/vl53l0x_api_strings.c **** 
 100:Api\core\src/vl53l0x_api_strings.c **** 		VL53L0X_COPYSTRING(pVL53L0X_DeviceInfo->Type,
 214              		.loc 1 100 0
 215 007a 3B68     		ldr	r3, [r7]
 216 007c 2033     		adds	r3, r3, #32
 217 007e 0022     		movs	r2, #0
 218 0080 1A70     		strb	r2, [r3]
 219              	.L6:
 101:Api\core\src/vl53l0x_api_strings.c **** 				VL53L0X_STRING_DEVICE_INFO_TYPE);
 102:Api\core\src/vl53l0x_api_strings.c **** 
 103:Api\core\src/vl53l0x_api_strings.c **** 	}
 104:Api\core\src/vl53l0x_api_strings.c **** 
 105:Api\core\src/vl53l0x_api_strings.c **** 	if (Status == VL53L0X_ERROR_NONE) {
 220              		.loc 1 105 0
 221 0082 0F23     		movs	r3, #15
 222 0084 FB18     		adds	r3, r7, r3
 223 0086 1B78     		ldrb	r3, [r3]
 224 0088 5BB2     		sxtb	r3, r3
 225 008a 002B     		cmp	r3, #0
 226 008c 0BD1     		bne	.L11
 106:Api\core\src/vl53l0x_api_strings.c **** 		Status = VL53L0X_RdByte(Dev, VL53L0X_REG_IDENTIFICATION_MODEL_ID,
 227              		.loc 1 106 0
 228 008e 3B68     		ldr	r3, [r7]
 229 0090 6033     		adds	r3, r3, #96
 230 0092 1A00     		movs	r2, r3
 231 0094 0F23     		movs	r3, #15
 232 0096 FC18     		adds	r4, r7, r3
 233 0098 7B68     		ldr	r3, [r7, #4]
 234 009a C021     		movs	r1, #192
 235 009c 1800     		movs	r0, r3
 236 009e FFF7FEFF 		bl	VL53L0X_RdByte
ARM GAS  C:\Users\ilya\AppData\Local\Temp\ccSeg1re.s 			page 7


 237 00a2 0300     		movs	r3, r0
 238 00a4 2370     		strb	r3, [r4]
 239              	.L11:
 107:Api\core\src/vl53l0x_api_strings.c **** 				&pVL53L0X_DeviceInfo->ProductType);
 108:Api\core\src/vl53l0x_api_strings.c **** 	}
 109:Api\core\src/vl53l0x_api_strings.c **** 
 110:Api\core\src/vl53l0x_api_strings.c **** 	if (Status == VL53L0X_ERROR_NONE) {
 240              		.loc 1 110 0
 241 00a6 0F23     		movs	r3, #15
 242 00a8 FB18     		adds	r3, r7, r3
 243 00aa 1B78     		ldrb	r3, [r3]
 244 00ac 5BB2     		sxtb	r3, r3
 245 00ae 002B     		cmp	r3, #0
 246 00b0 16D1     		bne	.L12
 111:Api\core\src/vl53l0x_api_strings.c **** 		Status = VL53L0X_RdByte(Dev,
 247              		.loc 1 111 0
 248 00b2 0F23     		movs	r3, #15
 249 00b4 FC18     		adds	r4, r7, r3
 250 00b6 0E23     		movs	r3, #14
 251 00b8 FA18     		adds	r2, r7, r3
 252 00ba 7B68     		ldr	r3, [r7, #4]
 253 00bc C221     		movs	r1, #194
 254 00be 1800     		movs	r0, r3
 255 00c0 FFF7FEFF 		bl	VL53L0X_RdByte
 256 00c4 0300     		movs	r3, r0
 257 00c6 2370     		strb	r3, [r4]
 112:Api\core\src/vl53l0x_api_strings.c **** 			VL53L0X_REG_IDENTIFICATION_REVISION_ID,
 113:Api\core\src/vl53l0x_api_strings.c **** 				&revision_id);
 114:Api\core\src/vl53l0x_api_strings.c **** 		pVL53L0X_DeviceInfo->ProductRevisionMajor = 1;
 258              		.loc 1 114 0
 259 00c8 3B68     		ldr	r3, [r7]
 260 00ca 6122     		movs	r2, #97
 261 00cc 0121     		movs	r1, #1
 262 00ce 9954     		strb	r1, [r3, r2]
 115:Api\core\src/vl53l0x_api_strings.c **** 		pVL53L0X_DeviceInfo->ProductRevisionMinor =
 116:Api\core\src/vl53l0x_api_strings.c **** 					(revision_id & 0xF0) >> 4;
 263              		.loc 1 116 0
 264 00d0 0E23     		movs	r3, #14
 265 00d2 FB18     		adds	r3, r7, r3
 266 00d4 1B78     		ldrb	r3, [r3]
 267 00d6 1B09     		lsrs	r3, r3, #4
 268 00d8 D9B2     		uxtb	r1, r3
 115:Api\core\src/vl53l0x_api_strings.c **** 		pVL53L0X_DeviceInfo->ProductRevisionMinor =
 269              		.loc 1 115 0
 270 00da 3B68     		ldr	r3, [r7]
 271 00dc 6222     		movs	r2, #98
 272 00de 9954     		strb	r1, [r3, r2]
 273              	.L12:
 117:Api\core\src/vl53l0x_api_strings.c **** 	}
 118:Api\core\src/vl53l0x_api_strings.c **** 
 119:Api\core\src/vl53l0x_api_strings.c **** 	return Status;
 274              		.loc 1 119 0
 275 00e0 0F23     		movs	r3, #15
 276 00e2 FB18     		adds	r3, r7, r3
 277 00e4 1B78     		ldrb	r3, [r3]
 278 00e6 5BB2     		sxtb	r3, r3
 120:Api\core\src/vl53l0x_api_strings.c **** }
ARM GAS  C:\Users\ilya\AppData\Local\Temp\ccSeg1re.s 			page 8


 279              		.loc 1 120 0
 280 00e8 1800     		movs	r0, r3
 281 00ea BD46     		mov	sp, r7
 282 00ec 05B0     		add	sp, sp, #20
 283              		@ sp needed
 284 00ee 90BD     		pop	{r4, r7, pc}
 285              		.cfi_endproc
 286              	.LFE2:
 287              		.size	VL53L0X_get_device_info, .-VL53L0X_get_device_info
 288              		.section	.text.VL53L0X_get_device_error_string,"ax",%progbits
 289              		.align	2
 290              		.global	VL53L0X_get_device_error_string
 291              		.code	16
 292              		.thumb_func
 293              		.type	VL53L0X_get_device_error_string, %function
 294              	VL53L0X_get_device_error_string:
 295              	.LFB3:
 121:Api\core\src/vl53l0x_api_strings.c **** 
 122:Api\core\src/vl53l0x_api_strings.c **** 
 123:Api\core\src/vl53l0x_api_strings.c **** VL53L0X_Error VL53L0X_get_device_error_string(VL53L0X_DeviceError ErrorCode,
 124:Api\core\src/vl53l0x_api_strings.c **** 		char *pDeviceErrorString)
 125:Api\core\src/vl53l0x_api_strings.c **** {
 296              		.loc 1 125 0
 297              		.cfi_startproc
 298              		@ args = 0, pretend = 0, frame = 16
 299              		@ frame_needed = 1, uses_anonymous_args = 0
 300 0000 80B5     		push	{r7, lr}
 301              		.cfi_def_cfa_offset 8
 302              		.cfi_offset 7, -8
 303              		.cfi_offset 14, -4
 304 0002 84B0     		sub	sp, sp, #16
 305              		.cfi_def_cfa_offset 24
 306 0004 00AF     		add	r7, sp, #0
 307              		.cfi_def_cfa_register 7
 308 0006 0200     		movs	r2, r0
 309 0008 3960     		str	r1, [r7]
 310 000a FB1D     		adds	r3, r7, #7
 311 000c 1A70     		strb	r2, [r3]
 126:Api\core\src/vl53l0x_api_strings.c **** 	VL53L0X_Error Status = VL53L0X_ERROR_NONE;
 312              		.loc 1 126 0
 313 000e 0F23     		movs	r3, #15
 314 0010 FB18     		adds	r3, r7, r3
 315 0012 0022     		movs	r2, #0
 316 0014 1A70     		strb	r2, [r3]
 127:Api\core\src/vl53l0x_api_strings.c **** 
 128:Api\core\src/vl53l0x_api_strings.c **** 	LOG_FUNCTION_START("");
 129:Api\core\src/vl53l0x_api_strings.c **** 
 130:Api\core\src/vl53l0x_api_strings.c **** 	switch (ErrorCode) {
 317              		.loc 1 130 0
 318 0016 FB1D     		adds	r3, r7, #7
 319 0018 1B78     		ldrb	r3, [r3]
 320 001a 0E2B     		cmp	r3, #14
 321 001c 40D8     		bhi	.L15
 322 001e 9A00     		lsls	r2, r3, #2
 323 0020 254B     		ldr	r3, .L34
 324 0022 D318     		adds	r3, r2, r3
 325 0024 1B68     		ldr	r3, [r3]
ARM GAS  C:\Users\ilya\AppData\Local\Temp\ccSeg1re.s 			page 9


 326 0026 9F46     		mov	pc, r3
 327              		.section	.rodata
 328              		.align	2
 329              	.L17:
 330 0000 28000000 		.word	.L16
 331 0004 30000000 		.word	.L18
 332 0008 38000000 		.word	.L19
 333 000c 40000000 		.word	.L20
 334 0010 48000000 		.word	.L21
 335 0014 50000000 		.word	.L22
 336 0018 58000000 		.word	.L23
 337 001c 60000000 		.word	.L24
 338 0020 68000000 		.word	.L25
 339 0024 70000000 		.word	.L26
 340 0028 78000000 		.word	.L27
 341 002c 80000000 		.word	.L28
 342 0030 88000000 		.word	.L29
 343 0034 90000000 		.word	.L30
 344 0038 98000000 		.word	.L31
 345              		.section	.text.VL53L0X_get_device_error_string
 346              	.L16:
 131:Api\core\src/vl53l0x_api_strings.c **** 	case VL53L0X_DEVICEERROR_NONE:
 132:Api\core\src/vl53l0x_api_strings.c **** 		VL53L0X_COPYSTRING(pDeviceErrorString,
 347              		.loc 1 132 0
 348 0028 3B68     		ldr	r3, [r7]
 349 002a 0022     		movs	r2, #0
 350 002c 1A70     		strb	r2, [r3]
 133:Api\core\src/vl53l0x_api_strings.c **** 			VL53L0X_STRING_DEVICEERROR_NONE);
 134:Api\core\src/vl53l0x_api_strings.c **** 	break;
 351              		.loc 1 134 0
 352 002e 3AE0     		b	.L32
 353              	.L18:
 135:Api\core\src/vl53l0x_api_strings.c **** 	case VL53L0X_DEVICEERROR_VCSELCONTINUITYTESTFAILURE:
 136:Api\core\src/vl53l0x_api_strings.c **** 		VL53L0X_COPYSTRING(pDeviceErrorString,
 354              		.loc 1 136 0
 355 0030 3B68     		ldr	r3, [r7]
 356 0032 0022     		movs	r2, #0
 357 0034 1A70     		strb	r2, [r3]
 137:Api\core\src/vl53l0x_api_strings.c **** 			VL53L0X_STRING_DEVICEERROR_VCSELCONTINUITYTESTFAILURE);
 138:Api\core\src/vl53l0x_api_strings.c **** 	break;
 358              		.loc 1 138 0
 359 0036 36E0     		b	.L32
 360              	.L19:
 139:Api\core\src/vl53l0x_api_strings.c **** 	case VL53L0X_DEVICEERROR_VCSELWATCHDOGTESTFAILURE:
 140:Api\core\src/vl53l0x_api_strings.c **** 		VL53L0X_COPYSTRING(pDeviceErrorString,
 361              		.loc 1 140 0
 362 0038 3B68     		ldr	r3, [r7]
 363 003a 0022     		movs	r2, #0
 364 003c 1A70     		strb	r2, [r3]
 141:Api\core\src/vl53l0x_api_strings.c **** 			VL53L0X_STRING_DEVICEERROR_VCSELWATCHDOGTESTFAILURE);
 142:Api\core\src/vl53l0x_api_strings.c **** 	break;
 365              		.loc 1 142 0
 366 003e 32E0     		b	.L32
 367              	.L20:
 143:Api\core\src/vl53l0x_api_strings.c **** 	case VL53L0X_DEVICEERROR_NOVHVVALUEFOUND:
 144:Api\core\src/vl53l0x_api_strings.c **** 		VL53L0X_COPYSTRING(pDeviceErrorString,
 368              		.loc 1 144 0
ARM GAS  C:\Users\ilya\AppData\Local\Temp\ccSeg1re.s 			page 10


 369 0040 3B68     		ldr	r3, [r7]
 370 0042 0022     		movs	r2, #0
 371 0044 1A70     		strb	r2, [r3]
 145:Api\core\src/vl53l0x_api_strings.c **** 			VL53L0X_STRING_DEVICEERROR_NOVHVVALUEFOUND);
 146:Api\core\src/vl53l0x_api_strings.c **** 	break;
 372              		.loc 1 146 0
 373 0046 2EE0     		b	.L32
 374              	.L21:
 147:Api\core\src/vl53l0x_api_strings.c **** 	case VL53L0X_DEVICEERROR_MSRCNOTARGET:
 148:Api\core\src/vl53l0x_api_strings.c **** 		VL53L0X_COPYSTRING(pDeviceErrorString,
 375              		.loc 1 148 0
 376 0048 3B68     		ldr	r3, [r7]
 377 004a 0022     		movs	r2, #0
 378 004c 1A70     		strb	r2, [r3]
 149:Api\core\src/vl53l0x_api_strings.c **** 			VL53L0X_STRING_DEVICEERROR_MSRCNOTARGET);
 150:Api\core\src/vl53l0x_api_strings.c **** 	break;
 379              		.loc 1 150 0
 380 004e 2AE0     		b	.L32
 381              	.L22:
 151:Api\core\src/vl53l0x_api_strings.c **** 	case VL53L0X_DEVICEERROR_SNRCHECK:
 152:Api\core\src/vl53l0x_api_strings.c **** 		VL53L0X_COPYSTRING(pDeviceErrorString,
 382              		.loc 1 152 0
 383 0050 3B68     		ldr	r3, [r7]
 384 0052 0022     		movs	r2, #0
 385 0054 1A70     		strb	r2, [r3]
 153:Api\core\src/vl53l0x_api_strings.c **** 			VL53L0X_STRING_DEVICEERROR_SNRCHECK);
 154:Api\core\src/vl53l0x_api_strings.c **** 	break;
 386              		.loc 1 154 0
 387 0056 26E0     		b	.L32
 388              	.L23:
 155:Api\core\src/vl53l0x_api_strings.c **** 	case VL53L0X_DEVICEERROR_RANGEPHASECHECK:
 156:Api\core\src/vl53l0x_api_strings.c **** 		VL53L0X_COPYSTRING(pDeviceErrorString,
 389              		.loc 1 156 0
 390 0058 3B68     		ldr	r3, [r7]
 391 005a 0022     		movs	r2, #0
 392 005c 1A70     		strb	r2, [r3]
 157:Api\core\src/vl53l0x_api_strings.c **** 			VL53L0X_STRING_DEVICEERROR_RANGEPHASECHECK);
 158:Api\core\src/vl53l0x_api_strings.c **** 	break;
 393              		.loc 1 158 0
 394 005e 22E0     		b	.L32
 395              	.L24:
 159:Api\core\src/vl53l0x_api_strings.c **** 	case VL53L0X_DEVICEERROR_SIGMATHRESHOLDCHECK:
 160:Api\core\src/vl53l0x_api_strings.c **** 		VL53L0X_COPYSTRING(pDeviceErrorString,
 396              		.loc 1 160 0
 397 0060 3B68     		ldr	r3, [r7]
 398 0062 0022     		movs	r2, #0
 399 0064 1A70     		strb	r2, [r3]
 161:Api\core\src/vl53l0x_api_strings.c **** 			VL53L0X_STRING_DEVICEERROR_SIGMATHRESHOLDCHECK);
 162:Api\core\src/vl53l0x_api_strings.c **** 	break;
 400              		.loc 1 162 0
 401 0066 1EE0     		b	.L32
 402              	.L25:
 163:Api\core\src/vl53l0x_api_strings.c **** 	case VL53L0X_DEVICEERROR_TCC:
 164:Api\core\src/vl53l0x_api_strings.c **** 		VL53L0X_COPYSTRING(pDeviceErrorString,
 403              		.loc 1 164 0
 404 0068 3B68     		ldr	r3, [r7]
 405 006a 0022     		movs	r2, #0
ARM GAS  C:\Users\ilya\AppData\Local\Temp\ccSeg1re.s 			page 11


 406 006c 1A70     		strb	r2, [r3]
 165:Api\core\src/vl53l0x_api_strings.c **** 			VL53L0X_STRING_DEVICEERROR_TCC);
 166:Api\core\src/vl53l0x_api_strings.c **** 	break;
 407              		.loc 1 166 0
 408 006e 1AE0     		b	.L32
 409              	.L26:
 167:Api\core\src/vl53l0x_api_strings.c **** 	case VL53L0X_DEVICEERROR_PHASECONSISTENCY:
 168:Api\core\src/vl53l0x_api_strings.c **** 		VL53L0X_COPYSTRING(pDeviceErrorString,
 410              		.loc 1 168 0
 411 0070 3B68     		ldr	r3, [r7]
 412 0072 0022     		movs	r2, #0
 413 0074 1A70     		strb	r2, [r3]
 169:Api\core\src/vl53l0x_api_strings.c **** 			VL53L0X_STRING_DEVICEERROR_PHASECONSISTENCY);
 170:Api\core\src/vl53l0x_api_strings.c **** 	break;
 414              		.loc 1 170 0
 415 0076 16E0     		b	.L32
 416              	.L27:
 171:Api\core\src/vl53l0x_api_strings.c **** 	case VL53L0X_DEVICEERROR_MINCLIP:
 172:Api\core\src/vl53l0x_api_strings.c **** 		VL53L0X_COPYSTRING(pDeviceErrorString,
 417              		.loc 1 172 0
 418 0078 3B68     		ldr	r3, [r7]
 419 007a 0022     		movs	r2, #0
 420 007c 1A70     		strb	r2, [r3]
 173:Api\core\src/vl53l0x_api_strings.c **** 			VL53L0X_STRING_DEVICEERROR_MINCLIP);
 174:Api\core\src/vl53l0x_api_strings.c **** 	break;
 421              		.loc 1 174 0
 422 007e 12E0     		b	.L32
 423              	.L28:
 175:Api\core\src/vl53l0x_api_strings.c **** 	case VL53L0X_DEVICEERROR_RANGECOMPLETE:
 176:Api\core\src/vl53l0x_api_strings.c **** 		VL53L0X_COPYSTRING(pDeviceErrorString,
 424              		.loc 1 176 0
 425 0080 3B68     		ldr	r3, [r7]
 426 0082 0022     		movs	r2, #0
 427 0084 1A70     		strb	r2, [r3]
 177:Api\core\src/vl53l0x_api_strings.c **** 			VL53L0X_STRING_DEVICEERROR_RANGECOMPLETE);
 178:Api\core\src/vl53l0x_api_strings.c **** 	break;
 428              		.loc 1 178 0
 429 0086 0EE0     		b	.L32
 430              	.L29:
 179:Api\core\src/vl53l0x_api_strings.c **** 	case VL53L0X_DEVICEERROR_ALGOUNDERFLOW:
 180:Api\core\src/vl53l0x_api_strings.c **** 		VL53L0X_COPYSTRING(pDeviceErrorString,
 431              		.loc 1 180 0
 432 0088 3B68     		ldr	r3, [r7]
 433 008a 0022     		movs	r2, #0
 434 008c 1A70     		strb	r2, [r3]
 181:Api\core\src/vl53l0x_api_strings.c **** 			VL53L0X_STRING_DEVICEERROR_ALGOUNDERFLOW);
 182:Api\core\src/vl53l0x_api_strings.c **** 	break;
 435              		.loc 1 182 0
 436 008e 0AE0     		b	.L32
 437              	.L30:
 183:Api\core\src/vl53l0x_api_strings.c **** 	case VL53L0X_DEVICEERROR_ALGOOVERFLOW:
 184:Api\core\src/vl53l0x_api_strings.c **** 		VL53L0X_COPYSTRING(pDeviceErrorString,
 438              		.loc 1 184 0
 439 0090 3B68     		ldr	r3, [r7]
 440 0092 0022     		movs	r2, #0
 441 0094 1A70     		strb	r2, [r3]
 185:Api\core\src/vl53l0x_api_strings.c **** 			VL53L0X_STRING_DEVICEERROR_ALGOOVERFLOW);
ARM GAS  C:\Users\ilya\AppData\Local\Temp\ccSeg1re.s 			page 12


 186:Api\core\src/vl53l0x_api_strings.c **** 	break;
 442              		.loc 1 186 0
 443 0096 06E0     		b	.L32
 444              	.L31:
 187:Api\core\src/vl53l0x_api_strings.c **** 	case VL53L0X_DEVICEERROR_RANGEIGNORETHRESHOLD:
 188:Api\core\src/vl53l0x_api_strings.c **** 		VL53L0X_COPYSTRING(pDeviceErrorString,
 445              		.loc 1 188 0
 446 0098 3B68     		ldr	r3, [r7]
 447 009a 0022     		movs	r2, #0
 448 009c 1A70     		strb	r2, [r3]
 189:Api\core\src/vl53l0x_api_strings.c **** 			VL53L0X_STRING_DEVICEERROR_RANGEIGNORETHRESHOLD);
 190:Api\core\src/vl53l0x_api_strings.c **** 	break;
 449              		.loc 1 190 0
 450 009e 02E0     		b	.L32
 451              	.L15:
 191:Api\core\src/vl53l0x_api_strings.c **** 
 192:Api\core\src/vl53l0x_api_strings.c **** 	default:
 193:Api\core\src/vl53l0x_api_strings.c **** 		VL53L0X_COPYSTRING(pDeviceErrorString,
 452              		.loc 1 193 0
 453 00a0 3B68     		ldr	r3, [r7]
 454 00a2 0022     		movs	r2, #0
 455 00a4 1A70     		strb	r2, [r3]
 456              	.L32:
 194:Api\core\src/vl53l0x_api_strings.c **** 			VL53L0X_STRING_UNKNOW_ERROR_CODE);
 195:Api\core\src/vl53l0x_api_strings.c **** 
 196:Api\core\src/vl53l0x_api_strings.c **** 	}
 197:Api\core\src/vl53l0x_api_strings.c **** 
 198:Api\core\src/vl53l0x_api_strings.c **** 	LOG_FUNCTION_END(Status);
 199:Api\core\src/vl53l0x_api_strings.c **** 	return Status;
 457              		.loc 1 199 0
 458 00a6 0F23     		movs	r3, #15
 459 00a8 FB18     		adds	r3, r7, r3
 460 00aa 1B78     		ldrb	r3, [r3]
 461 00ac 5BB2     		sxtb	r3, r3
 200:Api\core\src/vl53l0x_api_strings.c **** }
 462              		.loc 1 200 0
 463 00ae 1800     		movs	r0, r3
 464 00b0 BD46     		mov	sp, r7
 465 00b2 04B0     		add	sp, sp, #16
 466              		@ sp needed
 467 00b4 80BD     		pop	{r7, pc}
 468              	.L35:
 469 00b6 C046     		.align	2
 470              	.L34:
 471 00b8 00000000 		.word	.L17
 472              		.cfi_endproc
 473              	.LFE3:
 474              		.size	VL53L0X_get_device_error_string, .-VL53L0X_get_device_error_string
 475              		.section	.text.VL53L0X_get_range_status_string,"ax",%progbits
 476              		.align	2
 477              		.global	VL53L0X_get_range_status_string
 478              		.code	16
 479              		.thumb_func
 480              		.type	VL53L0X_get_range_status_string, %function
 481              	VL53L0X_get_range_status_string:
 482              	.LFB4:
 201:Api\core\src/vl53l0x_api_strings.c **** 
ARM GAS  C:\Users\ilya\AppData\Local\Temp\ccSeg1re.s 			page 13


 202:Api\core\src/vl53l0x_api_strings.c **** VL53L0X_Error VL53L0X_get_range_status_string(uint8_t RangeStatus,
 203:Api\core\src/vl53l0x_api_strings.c **** 		char *pRangeStatusString)
 204:Api\core\src/vl53l0x_api_strings.c **** {
 483              		.loc 1 204 0
 484              		.cfi_startproc
 485              		@ args = 0, pretend = 0, frame = 16
 486              		@ frame_needed = 1, uses_anonymous_args = 0
 487 0000 80B5     		push	{r7, lr}
 488              		.cfi_def_cfa_offset 8
 489              		.cfi_offset 7, -8
 490              		.cfi_offset 14, -4
 491 0002 84B0     		sub	sp, sp, #16
 492              		.cfi_def_cfa_offset 24
 493 0004 00AF     		add	r7, sp, #0
 494              		.cfi_def_cfa_register 7
 495 0006 0200     		movs	r2, r0
 496 0008 3960     		str	r1, [r7]
 497 000a FB1D     		adds	r3, r7, #7
 498 000c 1A70     		strb	r2, [r3]
 205:Api\core\src/vl53l0x_api_strings.c **** 	VL53L0X_Error Status = VL53L0X_ERROR_NONE;
 499              		.loc 1 205 0
 500 000e 0F23     		movs	r3, #15
 501 0010 FB18     		adds	r3, r7, r3
 502 0012 0022     		movs	r2, #0
 503 0014 1A70     		strb	r2, [r3]
 206:Api\core\src/vl53l0x_api_strings.c **** 
 207:Api\core\src/vl53l0x_api_strings.c **** 	LOG_FUNCTION_START("");
 208:Api\core\src/vl53l0x_api_strings.c **** 
 209:Api\core\src/vl53l0x_api_strings.c **** 	switch (RangeStatus) {
 504              		.loc 1 209 0
 505 0016 FB1D     		adds	r3, r7, #7
 506 0018 1B78     		ldrb	r3, [r3]
 507 001a 052B     		cmp	r3, #5
 508 001c 1CD8     		bhi	.L37
 509 001e 9A00     		lsls	r2, r3, #2
 510 0020 134B     		ldr	r3, .L47
 511 0022 D318     		adds	r3, r2, r3
 512 0024 1B68     		ldr	r3, [r3]
 513 0026 9F46     		mov	pc, r3
 514              		.section	.rodata
 515              		.align	2
 516              	.L39:
 517 003c 28000000 		.word	.L38
 518 0040 30000000 		.word	.L40
 519 0044 38000000 		.word	.L41
 520 0048 40000000 		.word	.L42
 521 004c 48000000 		.word	.L43
 522 0050 50000000 		.word	.L44
 523              		.section	.text.VL53L0X_get_range_status_string
 524              	.L38:
 210:Api\core\src/vl53l0x_api_strings.c **** 	case 0:
 211:Api\core\src/vl53l0x_api_strings.c **** 		VL53L0X_COPYSTRING(pRangeStatusString,
 525              		.loc 1 211 0
 526 0028 3B68     		ldr	r3, [r7]
 527 002a 0022     		movs	r2, #0
 528 002c 1A70     		strb	r2, [r3]
 212:Api\core\src/vl53l0x_api_strings.c **** 			VL53L0X_STRING_RANGESTATUS_RANGEVALID);
ARM GAS  C:\Users\ilya\AppData\Local\Temp\ccSeg1re.s 			page 14


 213:Api\core\src/vl53l0x_api_strings.c **** 	break;
 529              		.loc 1 213 0
 530 002e 16E0     		b	.L45
 531              	.L40:
 214:Api\core\src/vl53l0x_api_strings.c **** 	case 1:
 215:Api\core\src/vl53l0x_api_strings.c **** 		VL53L0X_COPYSTRING(pRangeStatusString,
 532              		.loc 1 215 0
 533 0030 3B68     		ldr	r3, [r7]
 534 0032 0022     		movs	r2, #0
 535 0034 1A70     		strb	r2, [r3]
 216:Api\core\src/vl53l0x_api_strings.c **** 			VL53L0X_STRING_RANGESTATUS_SIGMA);
 217:Api\core\src/vl53l0x_api_strings.c **** 	break;
 536              		.loc 1 217 0
 537 0036 12E0     		b	.L45
 538              	.L41:
 218:Api\core\src/vl53l0x_api_strings.c **** 	case 2:
 219:Api\core\src/vl53l0x_api_strings.c **** 		VL53L0X_COPYSTRING(pRangeStatusString,
 539              		.loc 1 219 0
 540 0038 3B68     		ldr	r3, [r7]
 541 003a 0022     		movs	r2, #0
 542 003c 1A70     		strb	r2, [r3]
 220:Api\core\src/vl53l0x_api_strings.c **** 			VL53L0X_STRING_RANGESTATUS_SIGNAL);
 221:Api\core\src/vl53l0x_api_strings.c **** 	break;
 543              		.loc 1 221 0
 544 003e 0EE0     		b	.L45
 545              	.L42:
 222:Api\core\src/vl53l0x_api_strings.c **** 	case 3:
 223:Api\core\src/vl53l0x_api_strings.c **** 		VL53L0X_COPYSTRING(pRangeStatusString,
 546              		.loc 1 223 0
 547 0040 3B68     		ldr	r3, [r7]
 548 0042 0022     		movs	r2, #0
 549 0044 1A70     		strb	r2, [r3]
 224:Api\core\src/vl53l0x_api_strings.c **** 			VL53L0X_STRING_RANGESTATUS_MINRANGE);
 225:Api\core\src/vl53l0x_api_strings.c **** 	break;
 550              		.loc 1 225 0
 551 0046 0AE0     		b	.L45
 552              	.L43:
 226:Api\core\src/vl53l0x_api_strings.c **** 	case 4:
 227:Api\core\src/vl53l0x_api_strings.c **** 		VL53L0X_COPYSTRING(pRangeStatusString,
 553              		.loc 1 227 0
 554 0048 3B68     		ldr	r3, [r7]
 555 004a 0022     		movs	r2, #0
 556 004c 1A70     		strb	r2, [r3]
 228:Api\core\src/vl53l0x_api_strings.c **** 			VL53L0X_STRING_RANGESTATUS_PHASE);
 229:Api\core\src/vl53l0x_api_strings.c **** 	break;
 557              		.loc 1 229 0
 558 004e 06E0     		b	.L45
 559              	.L44:
 230:Api\core\src/vl53l0x_api_strings.c **** 	case 5:
 231:Api\core\src/vl53l0x_api_strings.c **** 		VL53L0X_COPYSTRING(pRangeStatusString,
 560              		.loc 1 231 0
 561 0050 3B68     		ldr	r3, [r7]
 562 0052 0022     		movs	r2, #0
 563 0054 1A70     		strb	r2, [r3]
 232:Api\core\src/vl53l0x_api_strings.c **** 			VL53L0X_STRING_RANGESTATUS_HW);
 233:Api\core\src/vl53l0x_api_strings.c **** 	break;
 564              		.loc 1 233 0
ARM GAS  C:\Users\ilya\AppData\Local\Temp\ccSeg1re.s 			page 15


 565 0056 02E0     		b	.L45
 566              	.L37:
 234:Api\core\src/vl53l0x_api_strings.c **** 
 235:Api\core\src/vl53l0x_api_strings.c **** 	default: /**/
 236:Api\core\src/vl53l0x_api_strings.c **** 		VL53L0X_COPYSTRING(pRangeStatusString,
 567              		.loc 1 236 0
 568 0058 3B68     		ldr	r3, [r7]
 569 005a 0022     		movs	r2, #0
 570 005c 1A70     		strb	r2, [r3]
 571              	.L45:
 237:Api\core\src/vl53l0x_api_strings.c **** 				VL53L0X_STRING_RANGESTATUS_NONE);
 238:Api\core\src/vl53l0x_api_strings.c **** 	}
 239:Api\core\src/vl53l0x_api_strings.c **** 
 240:Api\core\src/vl53l0x_api_strings.c **** 	LOG_FUNCTION_END(Status);
 241:Api\core\src/vl53l0x_api_strings.c **** 	return Status;
 572              		.loc 1 241 0
 573 005e 0F23     		movs	r3, #15
 574 0060 FB18     		adds	r3, r7, r3
 575 0062 1B78     		ldrb	r3, [r3]
 576 0064 5BB2     		sxtb	r3, r3
 242:Api\core\src/vl53l0x_api_strings.c **** }
 577              		.loc 1 242 0
 578 0066 1800     		movs	r0, r3
 579 0068 BD46     		mov	sp, r7
 580 006a 04B0     		add	sp, sp, #16
 581              		@ sp needed
 582 006c 80BD     		pop	{r7, pc}
 583              	.L48:
 584 006e C046     		.align	2
 585              	.L47:
 586 0070 3C000000 		.word	.L39
 587              		.cfi_endproc
 588              	.LFE4:
 589              		.size	VL53L0X_get_range_status_string, .-VL53L0X_get_range_status_string
 590              		.section	.text.VL53L0X_get_pal_error_string,"ax",%progbits
 591              		.align	2
 592              		.global	VL53L0X_get_pal_error_string
 593              		.code	16
 594              		.thumb_func
 595              		.type	VL53L0X_get_pal_error_string, %function
 596              	VL53L0X_get_pal_error_string:
 597              	.LFB5:
 243:Api\core\src/vl53l0x_api_strings.c **** 
 244:Api\core\src/vl53l0x_api_strings.c **** VL53L0X_Error VL53L0X_get_pal_error_string(VL53L0X_Error PalErrorCode,
 245:Api\core\src/vl53l0x_api_strings.c **** 		char *pPalErrorString)
 246:Api\core\src/vl53l0x_api_strings.c **** {
 598              		.loc 1 246 0
 599              		.cfi_startproc
 600              		@ args = 0, pretend = 0, frame = 16
 601              		@ frame_needed = 1, uses_anonymous_args = 0
 602 0000 80B5     		push	{r7, lr}
 603              		.cfi_def_cfa_offset 8
 604              		.cfi_offset 7, -8
 605              		.cfi_offset 14, -4
 606 0002 84B0     		sub	sp, sp, #16
 607              		.cfi_def_cfa_offset 24
 608 0004 00AF     		add	r7, sp, #0
ARM GAS  C:\Users\ilya\AppData\Local\Temp\ccSeg1re.s 			page 16


 609              		.cfi_def_cfa_register 7
 610 0006 0200     		movs	r2, r0
 611 0008 3960     		str	r1, [r7]
 612 000a FB1D     		adds	r3, r7, #7
 613 000c 1A70     		strb	r2, [r3]
 247:Api\core\src/vl53l0x_api_strings.c **** 	VL53L0X_Error Status = VL53L0X_ERROR_NONE;
 614              		.loc 1 247 0
 615 000e 0F23     		movs	r3, #15
 616 0010 FB18     		adds	r3, r7, r3
 617 0012 0022     		movs	r2, #0
 618 0014 1A70     		strb	r2, [r3]
 248:Api\core\src/vl53l0x_api_strings.c **** 
 249:Api\core\src/vl53l0x_api_strings.c **** 	LOG_FUNCTION_START("");
 250:Api\core\src/vl53l0x_api_strings.c **** 
 251:Api\core\src/vl53l0x_api_strings.c **** 	switch (PalErrorCode) {
 619              		.loc 1 251 0
 620 0016 FB1D     		adds	r3, r7, #7
 621 0018 1B78     		ldrb	r3, [r3]
 622 001a 5BB2     		sxtb	r3, r3
 623 001c 6333     		adds	r3, r3, #99
 624 001e 632B     		cmp	r3, #99
 625 0020 48D8     		bhi	.L50
 626 0022 9A00     		lsls	r2, r3, #2
 627 0024 2A4B     		ldr	r3, .L73
 628 0026 D318     		adds	r3, r2, r3
 629 0028 1B68     		ldr	r3, [r3]
 630 002a 9F46     		mov	pc, r3
 631              		.section	.rodata
 632              		.align	2
 633              	.L52:
 634 0054 AC000000 		.word	.L51
 635 0058 B4000000 		.word	.L50
 636 005c B4000000 		.word	.L50
 637 0060 B4000000 		.word	.L50
 638 0064 B4000000 		.word	.L50
 639 0068 B4000000 		.word	.L50
 640 006c B4000000 		.word	.L50
 641 0070 B4000000 		.word	.L50
 642 0074 B4000000 		.word	.L50
 643 0078 B4000000 		.word	.L50
 644 007c B4000000 		.word	.L50
 645 0080 B4000000 		.word	.L50
 646 0084 B4000000 		.word	.L50
 647 0088 B4000000 		.word	.L50
 648 008c B4000000 		.word	.L50
 649 0090 B4000000 		.word	.L50
 650 0094 B4000000 		.word	.L50
 651 0098 B4000000 		.word	.L50
 652 009c B4000000 		.word	.L50
 653 00a0 B4000000 		.word	.L50
 654 00a4 B4000000 		.word	.L50
 655 00a8 B4000000 		.word	.L50
 656 00ac B4000000 		.word	.L50
 657 00b0 B4000000 		.word	.L50
 658 00b4 B4000000 		.word	.L50
 659 00b8 B4000000 		.word	.L50
 660 00bc B4000000 		.word	.L50
ARM GAS  C:\Users\ilya\AppData\Local\Temp\ccSeg1re.s 			page 17


 661 00c0 B4000000 		.word	.L50
 662 00c4 B4000000 		.word	.L50
 663 00c8 B4000000 		.word	.L50
 664 00cc B4000000 		.word	.L50
 665 00d0 B4000000 		.word	.L50
 666 00d4 B4000000 		.word	.L50
 667 00d8 B4000000 		.word	.L50
 668 00dc B4000000 		.word	.L50
 669 00e0 B4000000 		.word	.L50
 670 00e4 B4000000 		.word	.L50
 671 00e8 B4000000 		.word	.L50
 672 00ec B4000000 		.word	.L50
 673 00f0 B4000000 		.word	.L50
 674 00f4 B4000000 		.word	.L50
 675 00f8 B4000000 		.word	.L50
 676 00fc B4000000 		.word	.L50
 677 0100 B4000000 		.word	.L50
 678 0104 B4000000 		.word	.L50
 679 0108 B4000000 		.word	.L50
 680 010c B4000000 		.word	.L50
 681 0110 B4000000 		.word	.L50
 682 0114 B4000000 		.word	.L50
 683 0118 A4000000 		.word	.L53
 684 011c B4000000 		.word	.L50
 685 0120 B4000000 		.word	.L50
 686 0124 B4000000 		.word	.L50
 687 0128 B4000000 		.word	.L50
 688 012c B4000000 		.word	.L50
 689 0130 B4000000 		.word	.L50
 690 0134 B4000000 		.word	.L50
 691 0138 B4000000 		.word	.L50
 692 013c B4000000 		.word	.L50
 693 0140 9C000000 		.word	.L54
 694 0144 B4000000 		.word	.L50
 695 0148 B4000000 		.word	.L50
 696 014c B4000000 		.word	.L50
 697 0150 B4000000 		.word	.L50
 698 0154 B4000000 		.word	.L50
 699 0158 B4000000 		.word	.L50
 700 015c B4000000 		.word	.L50
 701 0160 B4000000 		.word	.L50
 702 0164 B4000000 		.word	.L50
 703 0168 94000000 		.word	.L55
 704 016c B4000000 		.word	.L50
 705 0170 B4000000 		.word	.L50
 706 0174 B4000000 		.word	.L50
 707 0178 B4000000 		.word	.L50
 708 017c B4000000 		.word	.L50
 709 0180 B4000000 		.word	.L50
 710 0184 B4000000 		.word	.L50
 711 0188 B4000000 		.word	.L50
 712 018c B4000000 		.word	.L50
 713 0190 8C000000 		.word	.L56
 714 0194 B4000000 		.word	.L50
 715 0198 B4000000 		.word	.L50
 716 019c B4000000 		.word	.L50
 717 01a0 B4000000 		.word	.L50
ARM GAS  C:\Users\ilya\AppData\Local\Temp\ccSeg1re.s 			page 18


 718 01a4 B4000000 		.word	.L50
 719 01a8 B4000000 		.word	.L50
 720 01ac B4000000 		.word	.L50
 721 01b0 BC000000 		.word	.L72
 722 01b4 84000000 		.word	.L58
 723 01b8 7C000000 		.word	.L59
 724 01bc 74000000 		.word	.L60
 725 01c0 6C000000 		.word	.L61
 726 01c4 64000000 		.word	.L62
 727 01c8 5C000000 		.word	.L63
 728 01cc 54000000 		.word	.L64
 729 01d0 4C000000 		.word	.L65
 730 01d4 44000000 		.word	.L66
 731 01d8 3C000000 		.word	.L67
 732 01dc 34000000 		.word	.L68
 733 01e0 2C000000 		.word	.L69
 734              		.section	.text.VL53L0X_get_pal_error_string
 735              	.L69:
 252:Api\core\src/vl53l0x_api_strings.c **** 	case VL53L0X_ERROR_NONE:
 253:Api\core\src/vl53l0x_api_strings.c **** 		VL53L0X_COPYSTRING(pPalErrorString,
 736              		.loc 1 253 0
 737 002c 3B68     		ldr	r3, [r7]
 738 002e 0022     		movs	r2, #0
 739 0030 1A70     		strb	r2, [r3]
 254:Api\core\src/vl53l0x_api_strings.c **** 			VL53L0X_STRING_ERROR_NONE);
 255:Api\core\src/vl53l0x_api_strings.c **** 	break;
 740              		.loc 1 255 0
 741 0032 44E0     		b	.L70
 742              	.L68:
 256:Api\core\src/vl53l0x_api_strings.c **** 	case VL53L0X_ERROR_CALIBRATION_WARNING:
 257:Api\core\src/vl53l0x_api_strings.c **** 		VL53L0X_COPYSTRING(pPalErrorString,
 743              		.loc 1 257 0
 744 0034 3B68     		ldr	r3, [r7]
 745 0036 0022     		movs	r2, #0
 746 0038 1A70     		strb	r2, [r3]
 258:Api\core\src/vl53l0x_api_strings.c **** 			VL53L0X_STRING_ERROR_CALIBRATION_WARNING);
 259:Api\core\src/vl53l0x_api_strings.c **** 	break;
 747              		.loc 1 259 0
 748 003a 40E0     		b	.L70
 749              	.L67:
 260:Api\core\src/vl53l0x_api_strings.c **** 	case VL53L0X_ERROR_MIN_CLIPPED:
 261:Api\core\src/vl53l0x_api_strings.c **** 		VL53L0X_COPYSTRING(pPalErrorString,
 750              		.loc 1 261 0
 751 003c 3B68     		ldr	r3, [r7]
 752 003e 0022     		movs	r2, #0
 753 0040 1A70     		strb	r2, [r3]
 262:Api\core\src/vl53l0x_api_strings.c **** 			VL53L0X_STRING_ERROR_MIN_CLIPPED);
 263:Api\core\src/vl53l0x_api_strings.c **** 	break;
 754              		.loc 1 263 0
 755 0042 3CE0     		b	.L70
 756              	.L66:
 264:Api\core\src/vl53l0x_api_strings.c **** 	case VL53L0X_ERROR_UNDEFINED:
 265:Api\core\src/vl53l0x_api_strings.c **** 		VL53L0X_COPYSTRING(pPalErrorString,
 757              		.loc 1 265 0
 758 0044 3B68     		ldr	r3, [r7]
 759 0046 0022     		movs	r2, #0
 760 0048 1A70     		strb	r2, [r3]
ARM GAS  C:\Users\ilya\AppData\Local\Temp\ccSeg1re.s 			page 19


 266:Api\core\src/vl53l0x_api_strings.c **** 			VL53L0X_STRING_ERROR_UNDEFINED);
 267:Api\core\src/vl53l0x_api_strings.c **** 	break;
 761              		.loc 1 267 0
 762 004a 38E0     		b	.L70
 763              	.L65:
 268:Api\core\src/vl53l0x_api_strings.c **** 	case VL53L0X_ERROR_INVALID_PARAMS:
 269:Api\core\src/vl53l0x_api_strings.c **** 		VL53L0X_COPYSTRING(pPalErrorString,
 764              		.loc 1 269 0
 765 004c 3B68     		ldr	r3, [r7]
 766 004e 0022     		movs	r2, #0
 767 0050 1A70     		strb	r2, [r3]
 270:Api\core\src/vl53l0x_api_strings.c **** 			VL53L0X_STRING_ERROR_INVALID_PARAMS);
 271:Api\core\src/vl53l0x_api_strings.c **** 	break;
 768              		.loc 1 271 0
 769 0052 34E0     		b	.L70
 770              	.L64:
 272:Api\core\src/vl53l0x_api_strings.c **** 	case VL53L0X_ERROR_NOT_SUPPORTED:
 273:Api\core\src/vl53l0x_api_strings.c **** 		VL53L0X_COPYSTRING(pPalErrorString,
 771              		.loc 1 273 0
 772 0054 3B68     		ldr	r3, [r7]
 773 0056 0022     		movs	r2, #0
 774 0058 1A70     		strb	r2, [r3]
 274:Api\core\src/vl53l0x_api_strings.c **** 			VL53L0X_STRING_ERROR_NOT_SUPPORTED);
 275:Api\core\src/vl53l0x_api_strings.c **** 	break;
 775              		.loc 1 275 0
 776 005a 30E0     		b	.L70
 777              	.L63:
 276:Api\core\src/vl53l0x_api_strings.c **** 	case VL53L0X_ERROR_INTERRUPT_NOT_CLEARED:
 277:Api\core\src/vl53l0x_api_strings.c **** 		//VL53L0X_COPYSTRING(pPalErrorString,
 278:Api\core\src/vl53l0x_api_strings.c **** 		//	VL53L0X_STRING_ERROR_INTERRUPT_NOT_CLEARED);
 279:Api\core\src/vl53l0x_api_strings.c **** 	break;
 280:Api\core\src/vl53l0x_api_strings.c **** 	case VL53L0X_ERROR_RANGE_ERROR:
 281:Api\core\src/vl53l0x_api_strings.c **** 		VL53L0X_COPYSTRING(pPalErrorString,
 778              		.loc 1 281 0
 779 005c 3B68     		ldr	r3, [r7]
 780 005e 0022     		movs	r2, #0
 781 0060 1A70     		strb	r2, [r3]
 282:Api\core\src/vl53l0x_api_strings.c **** 			VL53L0X_STRING_ERROR_RANGE_ERROR);
 283:Api\core\src/vl53l0x_api_strings.c **** 	break;
 782              		.loc 1 283 0
 783 0062 2CE0     		b	.L70
 784              	.L62:
 284:Api\core\src/vl53l0x_api_strings.c **** 	case VL53L0X_ERROR_TIME_OUT:
 285:Api\core\src/vl53l0x_api_strings.c **** 		VL53L0X_COPYSTRING(pPalErrorString,
 785              		.loc 1 285 0
 786 0064 3B68     		ldr	r3, [r7]
 787 0066 0022     		movs	r2, #0
 788 0068 1A70     		strb	r2, [r3]
 286:Api\core\src/vl53l0x_api_strings.c **** 			VL53L0X_STRING_ERROR_TIME_OUT);
 287:Api\core\src/vl53l0x_api_strings.c **** 	break;
 789              		.loc 1 287 0
 790 006a 28E0     		b	.L70
 791              	.L61:
 288:Api\core\src/vl53l0x_api_strings.c **** 	case VL53L0X_ERROR_MODE_NOT_SUPPORTED:
 289:Api\core\src/vl53l0x_api_strings.c **** 		VL53L0X_COPYSTRING(pPalErrorString,
 792              		.loc 1 289 0
 793 006c 3B68     		ldr	r3, [r7]
ARM GAS  C:\Users\ilya\AppData\Local\Temp\ccSeg1re.s 			page 20


 794 006e 0022     		movs	r2, #0
 795 0070 1A70     		strb	r2, [r3]
 290:Api\core\src/vl53l0x_api_strings.c **** 			VL53L0X_STRING_ERROR_MODE_NOT_SUPPORTED);
 291:Api\core\src/vl53l0x_api_strings.c **** 	break;
 796              		.loc 1 291 0
 797 0072 24E0     		b	.L70
 798              	.L60:
 292:Api\core\src/vl53l0x_api_strings.c **** 	case VL53L0X_ERROR_BUFFER_TOO_SMALL:
 293:Api\core\src/vl53l0x_api_strings.c **** 		VL53L0X_COPYSTRING(pPalErrorString,
 799              		.loc 1 293 0
 800 0074 3B68     		ldr	r3, [r7]
 801 0076 0022     		movs	r2, #0
 802 0078 1A70     		strb	r2, [r3]
 294:Api\core\src/vl53l0x_api_strings.c **** 			VL53L0X_STRING_ERROR_BUFFER_TOO_SMALL);
 295:Api\core\src/vl53l0x_api_strings.c **** 	break;
 803              		.loc 1 295 0
 804 007a 20E0     		b	.L70
 805              	.L59:
 296:Api\core\src/vl53l0x_api_strings.c **** 	case VL53L0X_ERROR_GPIO_NOT_EXISTING:
 297:Api\core\src/vl53l0x_api_strings.c **** 		VL53L0X_COPYSTRING(pPalErrorString,
 806              		.loc 1 297 0
 807 007c 3B68     		ldr	r3, [r7]
 808 007e 0022     		movs	r2, #0
 809 0080 1A70     		strb	r2, [r3]
 298:Api\core\src/vl53l0x_api_strings.c **** 			VL53L0X_STRING_ERROR_GPIO_NOT_EXISTING);
 299:Api\core\src/vl53l0x_api_strings.c **** 	break;
 810              		.loc 1 299 0
 811 0082 1CE0     		b	.L70
 812              	.L58:
 300:Api\core\src/vl53l0x_api_strings.c **** 	case VL53L0X_ERROR_GPIO_FUNCTIONALITY_NOT_SUPPORTED:
 301:Api\core\src/vl53l0x_api_strings.c **** 		VL53L0X_COPYSTRING(pPalErrorString,
 813              		.loc 1 301 0
 814 0084 3B68     		ldr	r3, [r7]
 815 0086 0022     		movs	r2, #0
 816 0088 1A70     		strb	r2, [r3]
 302:Api\core\src/vl53l0x_api_strings.c **** 			VL53L0X_STRING_ERROR_GPIO_FUNCTIONALITY_NOT_SUPPORTED);
 303:Api\core\src/vl53l0x_api_strings.c **** 	break;
 817              		.loc 1 303 0
 818 008a 18E0     		b	.L70
 819              	.L56:
 304:Api\core\src/vl53l0x_api_strings.c **** 	case VL53L0X_ERROR_CONTROL_INTERFACE:
 305:Api\core\src/vl53l0x_api_strings.c **** 		VL53L0X_COPYSTRING(pPalErrorString,
 820              		.loc 1 305 0
 821 008c 3B68     		ldr	r3, [r7]
 822 008e 0022     		movs	r2, #0
 823 0090 1A70     		strb	r2, [r3]
 306:Api\core\src/vl53l0x_api_strings.c **** 			VL53L0X_STRING_ERROR_CONTROL_INTERFACE);
 307:Api\core\src/vl53l0x_api_strings.c **** 	break;
 824              		.loc 1 307 0
 825 0092 14E0     		b	.L70
 826              	.L55:
 308:Api\core\src/vl53l0x_api_strings.c **** 	case VL53L0X_ERROR_INVALID_COMMAND:
 309:Api\core\src/vl53l0x_api_strings.c **** 		VL53L0X_COPYSTRING(pPalErrorString,
 827              		.loc 1 309 0
 828 0094 3B68     		ldr	r3, [r7]
 829 0096 0022     		movs	r2, #0
 830 0098 1A70     		strb	r2, [r3]
ARM GAS  C:\Users\ilya\AppData\Local\Temp\ccSeg1re.s 			page 21


 310:Api\core\src/vl53l0x_api_strings.c **** 			VL53L0X_STRING_ERROR_INVALID_COMMAND);
 311:Api\core\src/vl53l0x_api_strings.c **** 	break;
 831              		.loc 1 311 0
 832 009a 10E0     		b	.L70
 833              	.L54:
 312:Api\core\src/vl53l0x_api_strings.c **** 	case VL53L0X_ERROR_DIVISION_BY_ZERO:
 313:Api\core\src/vl53l0x_api_strings.c **** 		VL53L0X_COPYSTRING(pPalErrorString,
 834              		.loc 1 313 0
 835 009c 3B68     		ldr	r3, [r7]
 836 009e 0022     		movs	r2, #0
 837 00a0 1A70     		strb	r2, [r3]
 314:Api\core\src/vl53l0x_api_strings.c **** 			VL53L0X_STRING_ERROR_DIVISION_BY_ZERO);
 315:Api\core\src/vl53l0x_api_strings.c **** 	break;
 838              		.loc 1 315 0
 839 00a2 0CE0     		b	.L70
 840              	.L53:
 316:Api\core\src/vl53l0x_api_strings.c **** 	case VL53L0X_ERROR_REF_SPAD_INIT:
 317:Api\core\src/vl53l0x_api_strings.c **** 		VL53L0X_COPYSTRING(pPalErrorString,
 841              		.loc 1 317 0
 842 00a4 3B68     		ldr	r3, [r7]
 843 00a6 0022     		movs	r2, #0
 844 00a8 1A70     		strb	r2, [r3]
 318:Api\core\src/vl53l0x_api_strings.c **** 			VL53L0X_STRING_ERROR_REF_SPAD_INIT);
 319:Api\core\src/vl53l0x_api_strings.c **** 	break;
 845              		.loc 1 319 0
 846 00aa 08E0     		b	.L70
 847              	.L51:
 320:Api\core\src/vl53l0x_api_strings.c **** 	case VL53L0X_ERROR_NOT_IMPLEMENTED:
 321:Api\core\src/vl53l0x_api_strings.c **** 		VL53L0X_COPYSTRING(pPalErrorString,
 848              		.loc 1 321 0
 849 00ac 3B68     		ldr	r3, [r7]
 850 00ae 0022     		movs	r2, #0
 851 00b0 1A70     		strb	r2, [r3]
 322:Api\core\src/vl53l0x_api_strings.c **** 			VL53L0X_STRING_ERROR_NOT_IMPLEMENTED);
 323:Api\core\src/vl53l0x_api_strings.c **** 	break;
 852              		.loc 1 323 0
 853 00b2 04E0     		b	.L70
 854              	.L50:
 324:Api\core\src/vl53l0x_api_strings.c **** 
 325:Api\core\src/vl53l0x_api_strings.c **** 	default:
 326:Api\core\src/vl53l0x_api_strings.c **** 		VL53L0X_COPYSTRING(pPalErrorString,
 855              		.loc 1 326 0
 856 00b4 3B68     		ldr	r3, [r7]
 857 00b6 0022     		movs	r2, #0
 858 00b8 1A70     		strb	r2, [r3]
 859 00ba 00E0     		b	.L70
 860              	.L72:
 279:Api\core\src/vl53l0x_api_strings.c **** 	case VL53L0X_ERROR_RANGE_ERROR:
 861              		.loc 1 279 0
 862 00bc C046     		nop
 863              	.L70:
 327:Api\core\src/vl53l0x_api_strings.c **** 				VL53L0X_STRING_UNKNOW_ERROR_CODE);
 328:Api\core\src/vl53l0x_api_strings.c **** 	}
 329:Api\core\src/vl53l0x_api_strings.c **** 
 330:Api\core\src/vl53l0x_api_strings.c **** 	LOG_FUNCTION_END(Status);
 331:Api\core\src/vl53l0x_api_strings.c **** 	return Status;
 864              		.loc 1 331 0
ARM GAS  C:\Users\ilya\AppData\Local\Temp\ccSeg1re.s 			page 22


 865 00be 0F23     		movs	r3, #15
 866 00c0 FB18     		adds	r3, r7, r3
 867 00c2 1B78     		ldrb	r3, [r3]
 868 00c4 5BB2     		sxtb	r3, r3
 332:Api\core\src/vl53l0x_api_strings.c **** }
 869              		.loc 1 332 0
 870 00c6 1800     		movs	r0, r3
 871 00c8 BD46     		mov	sp, r7
 872 00ca 04B0     		add	sp, sp, #16
 873              		@ sp needed
 874 00cc 80BD     		pop	{r7, pc}
 875              	.L74:
 876 00ce C046     		.align	2
 877              	.L73:
 878 00d0 54000000 		.word	.L52
 879              		.cfi_endproc
 880              	.LFE5:
 881              		.size	VL53L0X_get_pal_error_string, .-VL53L0X_get_pal_error_string
 882              		.section	.text.VL53L0X_get_pal_state_string,"ax",%progbits
 883              		.align	2
 884              		.global	VL53L0X_get_pal_state_string
 885              		.code	16
 886              		.thumb_func
 887              		.type	VL53L0X_get_pal_state_string, %function
 888              	VL53L0X_get_pal_state_string:
 889              	.LFB6:
 333:Api\core\src/vl53l0x_api_strings.c **** 
 334:Api\core\src/vl53l0x_api_strings.c **** VL53L0X_Error VL53L0X_get_pal_state_string(VL53L0X_State PalStateCode,
 335:Api\core\src/vl53l0x_api_strings.c **** 		char *pPalStateString)
 336:Api\core\src/vl53l0x_api_strings.c **** {
 890              		.loc 1 336 0
 891              		.cfi_startproc
 892              		@ args = 0, pretend = 0, frame = 16
 893              		@ frame_needed = 1, uses_anonymous_args = 0
 894 0000 80B5     		push	{r7, lr}
 895              		.cfi_def_cfa_offset 8
 896              		.cfi_offset 7, -8
 897              		.cfi_offset 14, -4
 898 0002 84B0     		sub	sp, sp, #16
 899              		.cfi_def_cfa_offset 24
 900 0004 00AF     		add	r7, sp, #0
 901              		.cfi_def_cfa_register 7
 902 0006 0200     		movs	r2, r0
 903 0008 3960     		str	r1, [r7]
 904 000a FB1D     		adds	r3, r7, #7
 905 000c 1A70     		strb	r2, [r3]
 337:Api\core\src/vl53l0x_api_strings.c **** 	VL53L0X_Error Status = VL53L0X_ERROR_NONE;
 906              		.loc 1 337 0
 907 000e 0F23     		movs	r3, #15
 908 0010 FB18     		adds	r3, r7, r3
 909 0012 0022     		movs	r2, #0
 910 0014 1A70     		strb	r2, [r3]
 338:Api\core\src/vl53l0x_api_strings.c **** 
 339:Api\core\src/vl53l0x_api_strings.c **** 	LOG_FUNCTION_START("");
 340:Api\core\src/vl53l0x_api_strings.c **** 
 341:Api\core\src/vl53l0x_api_strings.c **** 	switch (PalStateCode) {
 911              		.loc 1 341 0
ARM GAS  C:\Users\ilya\AppData\Local\Temp\ccSeg1re.s 			page 23


 912 0016 FB1D     		adds	r3, r7, #7
 913 0018 1B78     		ldrb	r3, [r3]
 914 001a 032B     		cmp	r3, #3
 915 001c 19D0     		beq	.L77
 916 001e 05DC     		bgt	.L78
 917 0020 012B     		cmp	r3, #1
 918 0022 0ED0     		beq	.L79
 919 0024 11DC     		bgt	.L80
 920 0026 002B     		cmp	r3, #0
 921 0028 07D0     		beq	.L81
 922 002a 22E0     		b	.L76
 923              	.L78:
 924 002c 622B     		cmp	r3, #98
 925 002e 18D0     		beq	.L82
 926 0030 632B     		cmp	r3, #99
 927 0032 1AD0     		beq	.L83
 928 0034 042B     		cmp	r3, #4
 929 0036 10D0     		beq	.L84
 930 0038 1BE0     		b	.L76
 931              	.L81:
 342:Api\core\src/vl53l0x_api_strings.c **** 	case VL53L0X_STATE_POWERDOWN:
 343:Api\core\src/vl53l0x_api_strings.c **** 		VL53L0X_COPYSTRING(pPalStateString,
 932              		.loc 1 343 0
 933 003a 3B68     		ldr	r3, [r7]
 934 003c 0022     		movs	r2, #0
 935 003e 1A70     		strb	r2, [r3]
 344:Api\core\src/vl53l0x_api_strings.c **** 			VL53L0X_STRING_STATE_POWERDOWN);
 345:Api\core\src/vl53l0x_api_strings.c **** 	break;
 936              		.loc 1 345 0
 937 0040 1AE0     		b	.L85
 938              	.L79:
 346:Api\core\src/vl53l0x_api_strings.c **** 	case VL53L0X_STATE_WAIT_STATICINIT:
 347:Api\core\src/vl53l0x_api_strings.c **** 		VL53L0X_COPYSTRING(pPalStateString,
 939              		.loc 1 347 0
 940 0042 3B68     		ldr	r3, [r7]
 941 0044 0022     		movs	r2, #0
 942 0046 1A70     		strb	r2, [r3]
 348:Api\core\src/vl53l0x_api_strings.c **** 			VL53L0X_STRING_STATE_WAIT_STATICINIT);
 349:Api\core\src/vl53l0x_api_strings.c **** 	break;
 943              		.loc 1 349 0
 944 0048 16E0     		b	.L85
 945              	.L80:
 350:Api\core\src/vl53l0x_api_strings.c **** 	case VL53L0X_STATE_STANDBY:
 351:Api\core\src/vl53l0x_api_strings.c **** 		VL53L0X_COPYSTRING(pPalStateString,
 946              		.loc 1 351 0
 947 004a 3B68     		ldr	r3, [r7]
 948 004c 0022     		movs	r2, #0
 949 004e 1A70     		strb	r2, [r3]
 352:Api\core\src/vl53l0x_api_strings.c **** 			VL53L0X_STRING_STATE_STANDBY);
 353:Api\core\src/vl53l0x_api_strings.c **** 	break;
 950              		.loc 1 353 0
 951 0050 12E0     		b	.L85
 952              	.L77:
 354:Api\core\src/vl53l0x_api_strings.c **** 	case VL53L0X_STATE_IDLE:
 355:Api\core\src/vl53l0x_api_strings.c **** 		VL53L0X_COPYSTRING(pPalStateString,
 953              		.loc 1 355 0
 954 0052 3B68     		ldr	r3, [r7]
ARM GAS  C:\Users\ilya\AppData\Local\Temp\ccSeg1re.s 			page 24


 955 0054 0022     		movs	r2, #0
 956 0056 1A70     		strb	r2, [r3]
 356:Api\core\src/vl53l0x_api_strings.c **** 			VL53L0X_STRING_STATE_IDLE);
 357:Api\core\src/vl53l0x_api_strings.c **** 	break;
 957              		.loc 1 357 0
 958 0058 0EE0     		b	.L85
 959              	.L84:
 358:Api\core\src/vl53l0x_api_strings.c **** 	case VL53L0X_STATE_RUNNING:
 359:Api\core\src/vl53l0x_api_strings.c **** 		VL53L0X_COPYSTRING(pPalStateString,
 960              		.loc 1 359 0
 961 005a 3B68     		ldr	r3, [r7]
 962 005c 0022     		movs	r2, #0
 963 005e 1A70     		strb	r2, [r3]
 360:Api\core\src/vl53l0x_api_strings.c **** 			VL53L0X_STRING_STATE_RUNNING);
 361:Api\core\src/vl53l0x_api_strings.c **** 	break;
 964              		.loc 1 361 0
 965 0060 0AE0     		b	.L85
 966              	.L82:
 362:Api\core\src/vl53l0x_api_strings.c **** 	case VL53L0X_STATE_UNKNOWN:
 363:Api\core\src/vl53l0x_api_strings.c **** 		VL53L0X_COPYSTRING(pPalStateString,
 967              		.loc 1 363 0
 968 0062 3B68     		ldr	r3, [r7]
 969 0064 0022     		movs	r2, #0
 970 0066 1A70     		strb	r2, [r3]
 364:Api\core\src/vl53l0x_api_strings.c **** 			VL53L0X_STRING_STATE_UNKNOWN);
 365:Api\core\src/vl53l0x_api_strings.c **** 	break;
 971              		.loc 1 365 0
 972 0068 06E0     		b	.L85
 973              	.L83:
 366:Api\core\src/vl53l0x_api_strings.c **** 	case VL53L0X_STATE_ERROR:
 367:Api\core\src/vl53l0x_api_strings.c **** 		VL53L0X_COPYSTRING(pPalStateString,
 974              		.loc 1 367 0
 975 006a 3B68     		ldr	r3, [r7]
 976 006c 0022     		movs	r2, #0
 977 006e 1A70     		strb	r2, [r3]
 368:Api\core\src/vl53l0x_api_strings.c **** 			VL53L0X_STRING_STATE_ERROR);
 369:Api\core\src/vl53l0x_api_strings.c **** 	break;
 978              		.loc 1 369 0
 979 0070 02E0     		b	.L85
 980              	.L76:
 370:Api\core\src/vl53l0x_api_strings.c **** 
 371:Api\core\src/vl53l0x_api_strings.c **** 	default:
 372:Api\core\src/vl53l0x_api_strings.c **** 		VL53L0X_COPYSTRING(pPalStateString,
 981              		.loc 1 372 0
 982 0072 3B68     		ldr	r3, [r7]
 983 0074 0022     		movs	r2, #0
 984 0076 1A70     		strb	r2, [r3]
 985              	.L85:
 373:Api\core\src/vl53l0x_api_strings.c **** 			VL53L0X_STRING_STATE_UNKNOWN);
 374:Api\core\src/vl53l0x_api_strings.c **** 	}
 375:Api\core\src/vl53l0x_api_strings.c **** 
 376:Api\core\src/vl53l0x_api_strings.c **** 	LOG_FUNCTION_END(Status);
 377:Api\core\src/vl53l0x_api_strings.c **** 	return Status;
 986              		.loc 1 377 0
 987 0078 0F23     		movs	r3, #15
 988 007a FB18     		adds	r3, r7, r3
 989 007c 1B78     		ldrb	r3, [r3]
ARM GAS  C:\Users\ilya\AppData\Local\Temp\ccSeg1re.s 			page 25


 990 007e 5BB2     		sxtb	r3, r3
 378:Api\core\src/vl53l0x_api_strings.c **** }
 991              		.loc 1 378 0
 992 0080 1800     		movs	r0, r3
 993 0082 BD46     		mov	sp, r7
 994 0084 04B0     		add	sp, sp, #16
 995              		@ sp needed
 996 0086 80BD     		pop	{r7, pc}
 997              		.cfi_endproc
 998              	.LFE6:
 999              		.size	VL53L0X_get_pal_state_string, .-VL53L0X_get_pal_state_string
 1000              		.section	.text.VL53L0X_get_sequence_steps_info,"ax",%progbits
 1001              		.align	2
 1002              		.global	VL53L0X_get_sequence_steps_info
 1003              		.code	16
 1004              		.thumb_func
 1005              		.type	VL53L0X_get_sequence_steps_info, %function
 1006              	VL53L0X_get_sequence_steps_info:
 1007              	.LFB7:
 379:Api\core\src/vl53l0x_api_strings.c **** 
 380:Api\core\src/vl53l0x_api_strings.c **** VL53L0X_Error VL53L0X_get_sequence_steps_info(
 381:Api\core\src/vl53l0x_api_strings.c **** 		VL53L0X_SequenceStepId SequenceStepId,
 382:Api\core\src/vl53l0x_api_strings.c **** 		char *pSequenceStepsString)
 383:Api\core\src/vl53l0x_api_strings.c **** {
 1008              		.loc 1 383 0
 1009              		.cfi_startproc
 1010              		@ args = 0, pretend = 0, frame = 16
 1011              		@ frame_needed = 1, uses_anonymous_args = 0
 1012 0000 80B5     		push	{r7, lr}
 1013              		.cfi_def_cfa_offset 8
 1014              		.cfi_offset 7, -8
 1015              		.cfi_offset 14, -4
 1016 0002 84B0     		sub	sp, sp, #16
 1017              		.cfi_def_cfa_offset 24
 1018 0004 00AF     		add	r7, sp, #0
 1019              		.cfi_def_cfa_register 7
 1020 0006 0200     		movs	r2, r0
 1021 0008 3960     		str	r1, [r7]
 1022 000a FB1D     		adds	r3, r7, #7
 1023 000c 1A70     		strb	r2, [r3]
 384:Api\core\src/vl53l0x_api_strings.c **** 	VL53L0X_Error Status = VL53L0X_ERROR_NONE;
 1024              		.loc 1 384 0
 1025 000e 0F23     		movs	r3, #15
 1026 0010 FB18     		adds	r3, r7, r3
 1027 0012 0022     		movs	r2, #0
 1028 0014 1A70     		strb	r2, [r3]
 385:Api\core\src/vl53l0x_api_strings.c **** 	LOG_FUNCTION_START("");
 386:Api\core\src/vl53l0x_api_strings.c **** 
 387:Api\core\src/vl53l0x_api_strings.c **** 	switch (SequenceStepId) {
 1029              		.loc 1 387 0
 1030 0016 FB1D     		adds	r3, r7, #7
 1031 0018 1B78     		ldrb	r3, [r3]
 1032 001a 042B     		cmp	r3, #4
 1033 001c 18D8     		bhi	.L88
 1034 001e 9A00     		lsls	r2, r3, #2
 1035 0020 114B     		ldr	r3, .L97
 1036 0022 D318     		adds	r3, r2, r3
ARM GAS  C:\Users\ilya\AppData\Local\Temp\ccSeg1re.s 			page 26


 1037 0024 1B68     		ldr	r3, [r3]
 1038 0026 9F46     		mov	pc, r3
 1039              		.section	.rodata
 1040              		.align	2
 1041              	.L90:
 1042 01e4 28000000 		.word	.L89
 1043 01e8 30000000 		.word	.L91
 1044 01ec 38000000 		.word	.L92
 1045 01f0 40000000 		.word	.L93
 1046 01f4 48000000 		.word	.L94
 1047              		.section	.text.VL53L0X_get_sequence_steps_info
 1048              	.L89:
 388:Api\core\src/vl53l0x_api_strings.c **** 	case VL53L0X_SEQUENCESTEP_TCC:
 389:Api\core\src/vl53l0x_api_strings.c **** 		VL53L0X_COPYSTRING(pSequenceStepsString,
 1049              		.loc 1 389 0
 1050 0028 3B68     		ldr	r3, [r7]
 1051 002a 0022     		movs	r2, #0
 1052 002c 1A70     		strb	r2, [r3]
 390:Api\core\src/vl53l0x_api_strings.c **** 			VL53L0X_STRING_SEQUENCESTEP_TCC);
 391:Api\core\src/vl53l0x_api_strings.c **** 	break;
 1053              		.loc 1 391 0
 1054 002e 13E0     		b	.L95
 1055              	.L91:
 392:Api\core\src/vl53l0x_api_strings.c **** 	case VL53L0X_SEQUENCESTEP_DSS:
 393:Api\core\src/vl53l0x_api_strings.c **** 		VL53L0X_COPYSTRING(pSequenceStepsString,
 1056              		.loc 1 393 0
 1057 0030 3B68     		ldr	r3, [r7]
 1058 0032 0022     		movs	r2, #0
 1059 0034 1A70     		strb	r2, [r3]
 394:Api\core\src/vl53l0x_api_strings.c **** 			VL53L0X_STRING_SEQUENCESTEP_DSS);
 395:Api\core\src/vl53l0x_api_strings.c **** 	break;
 1060              		.loc 1 395 0
 1061 0036 0FE0     		b	.L95
 1062              	.L92:
 396:Api\core\src/vl53l0x_api_strings.c **** 	case VL53L0X_SEQUENCESTEP_MSRC:
 397:Api\core\src/vl53l0x_api_strings.c **** 		VL53L0X_COPYSTRING(pSequenceStepsString,
 1063              		.loc 1 397 0
 1064 0038 3B68     		ldr	r3, [r7]
 1065 003a 0022     		movs	r2, #0
 1066 003c 1A70     		strb	r2, [r3]
 398:Api\core\src/vl53l0x_api_strings.c **** 			VL53L0X_STRING_SEQUENCESTEP_MSRC);
 399:Api\core\src/vl53l0x_api_strings.c **** 	break;
 1067              		.loc 1 399 0
 1068 003e 0BE0     		b	.L95
 1069              	.L93:
 400:Api\core\src/vl53l0x_api_strings.c **** 	case VL53L0X_SEQUENCESTEP_PRE_RANGE:
 401:Api\core\src/vl53l0x_api_strings.c **** 		VL53L0X_COPYSTRING(pSequenceStepsString,
 1070              		.loc 1 401 0
 1071 0040 3B68     		ldr	r3, [r7]
 1072 0042 0022     		movs	r2, #0
 1073 0044 1A70     		strb	r2, [r3]
 402:Api\core\src/vl53l0x_api_strings.c **** 			VL53L0X_STRING_SEQUENCESTEP_PRE_RANGE);
 403:Api\core\src/vl53l0x_api_strings.c **** 	break;
 1074              		.loc 1 403 0
 1075 0046 07E0     		b	.L95
 1076              	.L94:
 404:Api\core\src/vl53l0x_api_strings.c **** 	case VL53L0X_SEQUENCESTEP_FINAL_RANGE:
ARM GAS  C:\Users\ilya\AppData\Local\Temp\ccSeg1re.s 			page 27


 405:Api\core\src/vl53l0x_api_strings.c **** 		VL53L0X_COPYSTRING(pSequenceStepsString,
 1077              		.loc 1 405 0
 1078 0048 3B68     		ldr	r3, [r7]
 1079 004a 0022     		movs	r2, #0
 1080 004c 1A70     		strb	r2, [r3]
 406:Api\core\src/vl53l0x_api_strings.c **** 			VL53L0X_STRING_SEQUENCESTEP_FINAL_RANGE);
 407:Api\core\src/vl53l0x_api_strings.c **** 	break;
 1081              		.loc 1 407 0
 1082 004e 03E0     		b	.L95
 1083              	.L88:
 408:Api\core\src/vl53l0x_api_strings.c **** 
 409:Api\core\src/vl53l0x_api_strings.c **** 	default:
 410:Api\core\src/vl53l0x_api_strings.c **** 		Status = VL53L0X_ERROR_INVALID_PARAMS;
 1084              		.loc 1 410 0
 1085 0050 0F23     		movs	r3, #15
 1086 0052 FB18     		adds	r3, r7, r3
 1087 0054 FC22     		movs	r2, #252
 1088 0056 1A70     		strb	r2, [r3]
 1089              	.L95:
 411:Api\core\src/vl53l0x_api_strings.c **** 	}
 412:Api\core\src/vl53l0x_api_strings.c **** 
 413:Api\core\src/vl53l0x_api_strings.c **** 	LOG_FUNCTION_END(Status);
 414:Api\core\src/vl53l0x_api_strings.c **** 
 415:Api\core\src/vl53l0x_api_strings.c **** 	return Status;
 1090              		.loc 1 415 0
 1091 0058 0F23     		movs	r3, #15
 1092 005a FB18     		adds	r3, r7, r3
 1093 005c 1B78     		ldrb	r3, [r3]
 1094 005e 5BB2     		sxtb	r3, r3
 416:Api\core\src/vl53l0x_api_strings.c **** }
 1095              		.loc 1 416 0
 1096 0060 1800     		movs	r0, r3
 1097 0062 BD46     		mov	sp, r7
 1098 0064 04B0     		add	sp, sp, #16
 1099              		@ sp needed
 1100 0066 80BD     		pop	{r7, pc}
 1101              	.L98:
 1102              		.align	2
 1103              	.L97:
 1104 0068 E4010000 		.word	.L90
 1105              		.cfi_endproc
 1106              	.LFE7:
 1107              		.size	VL53L0X_get_sequence_steps_info, .-VL53L0X_get_sequence_steps_info
 1108              		.section	.text.VL53L0X_get_limit_check_info,"ax",%progbits
 1109              		.align	2
 1110              		.global	VL53L0X_get_limit_check_info
 1111              		.code	16
 1112              		.thumb_func
 1113              		.type	VL53L0X_get_limit_check_info, %function
 1114              	VL53L0X_get_limit_check_info:
 1115              	.LFB8:
 417:Api\core\src/vl53l0x_api_strings.c **** 
 418:Api\core\src/vl53l0x_api_strings.c **** 
 419:Api\core\src/vl53l0x_api_strings.c **** VL53L0X_Error VL53L0X_get_limit_check_info(VL53L0X_DEV Dev, uint16_t LimitCheckId,
 420:Api\core\src/vl53l0x_api_strings.c **** 	char *pLimitCheckString)
 421:Api\core\src/vl53l0x_api_strings.c **** {
 1116              		.loc 1 421 0
ARM GAS  C:\Users\ilya\AppData\Local\Temp\ccSeg1re.s 			page 28


 1117              		.cfi_startproc
 1118              		@ args = 0, pretend = 0, frame = 24
 1119              		@ frame_needed = 1, uses_anonymous_args = 0
 1120 0000 80B5     		push	{r7, lr}
 1121              		.cfi_def_cfa_offset 8
 1122              		.cfi_offset 7, -8
 1123              		.cfi_offset 14, -4
 1124 0002 86B0     		sub	sp, sp, #24
 1125              		.cfi_def_cfa_offset 32
 1126 0004 00AF     		add	r7, sp, #0
 1127              		.cfi_def_cfa_register 7
 1128 0006 F860     		str	r0, [r7, #12]
 1129 0008 7A60     		str	r2, [r7, #4]
 1130 000a 0A23     		movs	r3, #10
 1131 000c FB18     		adds	r3, r7, r3
 1132 000e 0A1C     		adds	r2, r1, #0
 1133 0010 1A80     		strh	r2, [r3]
 422:Api\core\src/vl53l0x_api_strings.c **** 	VL53L0X_Error Status = VL53L0X_ERROR_NONE;
 1134              		.loc 1 422 0
 1135 0012 1723     		movs	r3, #23
 1136 0014 FB18     		adds	r3, r7, r3
 1137 0016 0022     		movs	r2, #0
 1138 0018 1A70     		strb	r2, [r3]
 423:Api\core\src/vl53l0x_api_strings.c **** 
 424:Api\core\src/vl53l0x_api_strings.c **** 	LOG_FUNCTION_START("");
 425:Api\core\src/vl53l0x_api_strings.c **** 
 426:Api\core\src/vl53l0x_api_strings.c **** 	switch (LimitCheckId) {
 1139              		.loc 1 426 0
 1140 001a 0A23     		movs	r3, #10
 1141 001c FB18     		adds	r3, r7, r3
 1142 001e 1B88     		ldrh	r3, [r3]
 1143 0020 052B     		cmp	r3, #5
 1144 0022 14D8     		bhi	.L100
 1145 0024 9A00     		lsls	r2, r3, #2
 1146 0026 104B     		ldr	r3, .L111
 1147 0028 D318     		adds	r3, r2, r3
 1148 002a 1B68     		ldr	r3, [r3]
 1149 002c 9F46     		mov	pc, r3
 1150              		.section	.rodata
 1151              		.align	2
 1152              	.L102:
 1153 01f8 2E000000 		.word	.L101
 1154 01fc 36000000 		.word	.L103
 1155 0200 3E000000 		.word	.L104
 1156 0204 46000000 		.word	.L105
 1157 0208 56000000 		.word	.L110
 1158 020c 56000000 		.word	.L110
 1159              		.section	.text.VL53L0X_get_limit_check_info
 1160              	.L101:
 427:Api\core\src/vl53l0x_api_strings.c **** 	case VL53L0X_CHECKENABLE_SIGMA_FINAL_RANGE:
 428:Api\core\src/vl53l0x_api_strings.c **** 		VL53L0X_COPYSTRING(pLimitCheckString,
 1161              		.loc 1 428 0
 1162 002e 7B68     		ldr	r3, [r7, #4]
 1163 0030 0022     		movs	r2, #0
 1164 0032 1A70     		strb	r2, [r3]
 429:Api\core\src/vl53l0x_api_strings.c **** 			VL53L0X_STRING_CHECKENABLE_SIGMA_FINAL_RANGE);
 430:Api\core\src/vl53l0x_api_strings.c **** 	break;
ARM GAS  C:\Users\ilya\AppData\Local\Temp\ccSeg1re.s 			page 29


 1165              		.loc 1 430 0
 1166 0034 10E0     		b	.L108
 1167              	.L103:
 431:Api\core\src/vl53l0x_api_strings.c **** 	case VL53L0X_CHECKENABLE_SIGNAL_RATE_FINAL_RANGE:
 432:Api\core\src/vl53l0x_api_strings.c **** 		VL53L0X_COPYSTRING(pLimitCheckString,
 1168              		.loc 1 432 0
 1169 0036 7B68     		ldr	r3, [r7, #4]
 1170 0038 0022     		movs	r2, #0
 1171 003a 1A70     		strb	r2, [r3]
 433:Api\core\src/vl53l0x_api_strings.c **** 			VL53L0X_STRING_CHECKENABLE_SIGNAL_RATE_FINAL_RANGE);
 434:Api\core\src/vl53l0x_api_strings.c **** 	break;
 1172              		.loc 1 434 0
 1173 003c 0CE0     		b	.L108
 1174              	.L104:
 435:Api\core\src/vl53l0x_api_strings.c **** 	case VL53L0X_CHECKENABLE_SIGNAL_REF_CLIP:
 436:Api\core\src/vl53l0x_api_strings.c **** 		VL53L0X_COPYSTRING(pLimitCheckString,
 1175              		.loc 1 436 0
 1176 003e 7B68     		ldr	r3, [r7, #4]
 1177 0040 0022     		movs	r2, #0
 1178 0042 1A70     		strb	r2, [r3]
 437:Api\core\src/vl53l0x_api_strings.c **** 			VL53L0X_STRING_CHECKENABLE_SIGNAL_REF_CLIP);
 438:Api\core\src/vl53l0x_api_strings.c **** 	break;
 1179              		.loc 1 438 0
 1180 0044 08E0     		b	.L108
 1181              	.L105:
 439:Api\core\src/vl53l0x_api_strings.c **** 	case VL53L0X_CHECKENABLE_RANGE_IGNORE_THRESHOLD:
 440:Api\core\src/vl53l0x_api_strings.c **** 		VL53L0X_COPYSTRING(pLimitCheckString,
 1182              		.loc 1 440 0
 1183 0046 7B68     		ldr	r3, [r7, #4]
 1184 0048 0022     		movs	r2, #0
 1185 004a 1A70     		strb	r2, [r3]
 441:Api\core\src/vl53l0x_api_strings.c **** 			VL53L0X_STRING_CHECKENABLE_RANGE_IGNORE_THRESHOLD);
 442:Api\core\src/vl53l0x_api_strings.c **** 	break;
 1186              		.loc 1 442 0
 1187 004c 04E0     		b	.L108
 1188              	.L100:
 443:Api\core\src/vl53l0x_api_strings.c **** 
 444:Api\core\src/vl53l0x_api_strings.c **** 	case VL53L0X_CHECKENABLE_SIGNAL_RATE_MSRC:
 445:Api\core\src/vl53l0x_api_strings.c **** 		//VL53L0X_COPYSTRING(pLimitCheckString,
 446:Api\core\src/vl53l0x_api_strings.c **** 		//	VL53L0X_STRING_CHECKENABLE_SIGNAL_RATE_MSRC);
 447:Api\core\src/vl53l0x_api_strings.c **** 	break;
 448:Api\core\src/vl53l0x_api_strings.c **** 
 449:Api\core\src/vl53l0x_api_strings.c **** 	case VL53L0X_CHECKENABLE_SIGNAL_RATE_PRE_RANGE:
 450:Api\core\src/vl53l0x_api_strings.c **** 		//VL53L0X_COPYSTRING(pLimitCheckString,
 451:Api\core\src/vl53l0x_api_strings.c **** 		//	VL53L0X_STRING_CHECKENABLE_SIGNAL_RATE_PRE_RANGE);
 452:Api\core\src/vl53l0x_api_strings.c **** 	break;
 453:Api\core\src/vl53l0x_api_strings.c **** 
 454:Api\core\src/vl53l0x_api_strings.c **** 	default:
 455:Api\core\src/vl53l0x_api_strings.c **** 		VL53L0X_COPYSTRING(pLimitCheckString,
 1189              		.loc 1 455 0
 1190 004e 7B68     		ldr	r3, [r7, #4]
 1191 0050 0022     		movs	r2, #0
 1192 0052 1A70     		strb	r2, [r3]
 1193 0054 00E0     		b	.L108
 1194              	.L110:
 452:Api\core\src/vl53l0x_api_strings.c **** 
 1195              		.loc 1 452 0
ARM GAS  C:\Users\ilya\AppData\Local\Temp\ccSeg1re.s 			page 30


 1196 0056 C046     		nop
 1197              	.L108:
 456:Api\core\src/vl53l0x_api_strings.c **** 			VL53L0X_STRING_UNKNOW_ERROR_CODE);
 457:Api\core\src/vl53l0x_api_strings.c **** 
 458:Api\core\src/vl53l0x_api_strings.c **** 	}
 459:Api\core\src/vl53l0x_api_strings.c **** 
 460:Api\core\src/vl53l0x_api_strings.c **** 	LOG_FUNCTION_END(Status);
 461:Api\core\src/vl53l0x_api_strings.c **** 	return Status;
 1198              		.loc 1 461 0
 1199 0058 1723     		movs	r3, #23
 1200 005a FB18     		adds	r3, r7, r3
 1201 005c 1B78     		ldrb	r3, [r3]
 1202 005e 5BB2     		sxtb	r3, r3
 462:Api\core\src/vl53l0x_api_strings.c **** }
 1203              		.loc 1 462 0
 1204 0060 1800     		movs	r0, r3
 1205 0062 BD46     		mov	sp, r7
 1206 0064 06B0     		add	sp, sp, #24
 1207              		@ sp needed
 1208 0066 80BD     		pop	{r7, pc}
 1209              	.L112:
 1210              		.align	2
 1211              	.L111:
 1212 0068 F8010000 		.word	.L102
 1213              		.cfi_endproc
 1214              	.LFE8:
 1215              		.size	VL53L0X_get_limit_check_info, .-VL53L0X_get_limit_check_info
 1216              		.text
 1217              	.Letext0:
 1218              		.file 2 "c:\\program files (x86)\\cypress\\psoc creator\\4.2\\psoc creator\\import\\gnu\\arm\\5.4.
 1219              		.file 3 "c:\\program files (x86)\\cypress\\psoc creator\\4.2\\psoc creator\\import\\gnu\\arm\\5.4.
 1220              		.file 4 ".\\Api\\platform\\inc/vl53l0x_types.h"
 1221              		.file 5 ".\\Api\\core\\inc/vl53l0x_device.h"
 1222              		.file 6 ".\\Api\\core\\inc/vl53l0x_def.h"
 1223              		.file 7 ".\\Api\\platform\\inc/vl53l0x_platform.h"