ARM GAS  C:\Users\ilya\AppData\Local\Temp\ccAjPEqD.s 			page 1


   1              		.syntax unified
   2              		.cpu cortex-m0
   3              		.fpu softvfp
   4              		.eabi_attribute 20, 1
   5              		.eabi_attribute 21, 1
   6              		.eabi_attribute 23, 3
   7              		.eabi_attribute 24, 1
   8              		.eabi_attribute 25, 1
   9              		.eabi_attribute 26, 1
  10              		.eabi_attribute 30, 6
  11              		.eabi_attribute 34, 0
  12              		.eabi_attribute 18, 4
  13              		.thumb
  14              		.syntax unified
  15              		.file	"vl53l0x_api_core.c"
  16              		.text
  17              	.Ltext0:
  18              		.cfi_sections	.debug_frame
  19              		.section	.text.VL53L0X_reverse_bytes,"ax",%progbits
  20              		.align	2
  21              		.global	VL53L0X_reverse_bytes
  22              		.code	16
  23              		.thumb_func
  24              		.type	VL53L0X_reverse_bytes, %function
  25              	VL53L0X_reverse_bytes:
  26              	.LFB1:
  27              		.file 1 "Api\\core\\src\\vl53l0x_api_core.c"
   1:Api\core\src/vl53l0x_api_core.c **** /*******************************************************************************
   2:Api\core\src/vl53l0x_api_core.c ****  Copyright © 2016, STMicroelectronics International N.V.
   3:Api\core\src/vl53l0x_api_core.c ****  All rights reserved.
   4:Api\core\src/vl53l0x_api_core.c **** 
   5:Api\core\src/vl53l0x_api_core.c ****  Redistribution and use in source and binary forms, with or without
   6:Api\core\src/vl53l0x_api_core.c ****  modification, are permitted provided that the following conditions are met:
   7:Api\core\src/vl53l0x_api_core.c ****  * Redistributions of source code must retain the above copyright
   8:Api\core\src/vl53l0x_api_core.c ****  notice, this list of conditions and the following disclaimer.
   9:Api\core\src/vl53l0x_api_core.c ****  * Redistributions in binary form must reproduce the above copyright
  10:Api\core\src/vl53l0x_api_core.c ****  notice, this list of conditions and the following disclaimer in the
  11:Api\core\src/vl53l0x_api_core.c ****  documentation and/or other materials provided with the distribution.
  12:Api\core\src/vl53l0x_api_core.c ****  * Neither the name of STMicroelectronics nor the
  13:Api\core\src/vl53l0x_api_core.c ****  names of its contributors may be used to endorse or promote products
  14:Api\core\src/vl53l0x_api_core.c ****  derived from this software without specific prior written permission.
  15:Api\core\src/vl53l0x_api_core.c **** 
  16:Api\core\src/vl53l0x_api_core.c ****  THIS SOFTWARE IS PROVIDED BY THE COPYRIGHT HOLDERS AND CONTRIBUTORS "AS IS" AND
  17:Api\core\src/vl53l0x_api_core.c ****  ANY EXPRESS OR IMPLIED WARRANTIES, INCLUDING, BUT NOT LIMITED TO, THE IMPLIED
  18:Api\core\src/vl53l0x_api_core.c ****  WARRANTIES OF MERCHANTABILITY, FITNESS FOR A PARTICULAR PURPOSE, AND
  19:Api\core\src/vl53l0x_api_core.c ****  NON-INFRINGEMENT OF INTELLECTUAL PROPERTY RIGHTS ARE DISCLAIMED.
  20:Api\core\src/vl53l0x_api_core.c ****  IN NO EVENT SHALL STMICROELECTRONICS INTERNATIONAL N.V. BE LIABLE FOR ANY
  21:Api\core\src/vl53l0x_api_core.c ****  DIRECT, INDIRECT, INCIDENTAL, SPECIAL, EXEMPLARY, OR CONSEQUENTIAL DAMAGES
  22:Api\core\src/vl53l0x_api_core.c ****  (INCLUDING, BUT NOT LIMITED TO, PROCUREMENT OF SUBSTITUTE GOODS OR SERVICES;
  23:Api\core\src/vl53l0x_api_core.c ****  LOSS OF USE, DATA, OR PROFITS; OR BUSINESS INTERRUPTION) HOWEVER CAUSED AND
  24:Api\core\src/vl53l0x_api_core.c ****  ON ANY THEORY OF LIABILITY, WHETHER IN CONTRACT, STRICT LIABILITY, OR TORT
  25:Api\core\src/vl53l0x_api_core.c ****  (INCLUDING NEGLIGENCE OR OTHERWISE) ARISING IN ANY WAY OUT OF THE USE OF THIS
  26:Api\core\src/vl53l0x_api_core.c ****  SOFTWARE, EVEN IF ADVISED OF THE POSSIBILITY OF SUCH DAMAGE.
  27:Api\core\src/vl53l0x_api_core.c ****  ******************************************************************************/
  28:Api\core\src/vl53l0x_api_core.c **** 
  29:Api\core\src/vl53l0x_api_core.c **** #include "vl53l0x_api.h"
  30:Api\core\src/vl53l0x_api_core.c **** #include "vl53l0x_api_core.h"
ARM GAS  C:\Users\ilya\AppData\Local\Temp\ccAjPEqD.s 			page 2


  31:Api\core\src/vl53l0x_api_core.c **** #include "vl53l0x_api_calibration.h"
  32:Api\core\src/vl53l0x_api_core.c **** 
  33:Api\core\src/vl53l0x_api_core.c **** 
  34:Api\core\src/vl53l0x_api_core.c **** #ifndef __KERNEL__
  35:Api\core\src/vl53l0x_api_core.c **** #include <stdlib.h>
  36:Api\core\src/vl53l0x_api_core.c **** #endif
  37:Api\core\src/vl53l0x_api_core.c **** #define LOG_FUNCTION_START(fmt, ...) \
  38:Api\core\src/vl53l0x_api_core.c **** 	_LOG_FUNCTION_START(TRACE_MODULE_API, fmt, ##__VA_ARGS__)
  39:Api\core\src/vl53l0x_api_core.c **** #define LOG_FUNCTION_END(status, ...) \
  40:Api\core\src/vl53l0x_api_core.c **** 	_LOG_FUNCTION_END(TRACE_MODULE_API, status, ##__VA_ARGS__)
  41:Api\core\src/vl53l0x_api_core.c **** #define LOG_FUNCTION_END_FMT(status, fmt, ...) \
  42:Api\core\src/vl53l0x_api_core.c **** 	_LOG_FUNCTION_END_FMT(TRACE_MODULE_API, status, fmt, ##__VA_ARGS__)
  43:Api\core\src/vl53l0x_api_core.c **** 
  44:Api\core\src/vl53l0x_api_core.c **** VL53L0X_Error VL53L0X_reverse_bytes(uint8_t *data, uint32_t size)
  45:Api\core\src/vl53l0x_api_core.c **** {
  28              		.loc 1 45 0
  29              		.cfi_startproc
  30              		@ args = 0, pretend = 0, frame = 32
  31              		@ frame_needed = 1, uses_anonymous_args = 0
  32 0000 80B5     		push	{r7, lr}
  33              		.cfi_def_cfa_offset 8
  34              		.cfi_offset 7, -8
  35              		.cfi_offset 14, -4
  36 0002 88B0     		sub	sp, sp, #32
  37              		.cfi_def_cfa_offset 40
  38 0004 00AF     		add	r7, sp, #0
  39              		.cfi_def_cfa_register 7
  40 0006 7860     		str	r0, [r7, #4]
  41 0008 3960     		str	r1, [r7]
  46:Api\core\src/vl53l0x_api_core.c **** 	VL53L0X_Error Status = VL53L0X_ERROR_NONE;
  42              		.loc 1 46 0
  43 000a 1B23     		movs	r3, #27
  44 000c FB18     		adds	r3, r7, r3
  45 000e 0022     		movs	r2, #0
  46 0010 1A70     		strb	r2, [r3]
  47:Api\core\src/vl53l0x_api_core.c **** 	uint8_t tempData;
  48:Api\core\src/vl53l0x_api_core.c **** 	uint32_t mirrorIndex;
  49:Api\core\src/vl53l0x_api_core.c **** 	uint32_t middle = size/2;
  47              		.loc 1 49 0
  48 0012 3B68     		ldr	r3, [r7]
  49 0014 5B08     		lsrs	r3, r3, #1
  50 0016 7B61     		str	r3, [r7, #20]
  50:Api\core\src/vl53l0x_api_core.c **** 	uint32_t index;
  51:Api\core\src/vl53l0x_api_core.c **** 
  52:Api\core\src/vl53l0x_api_core.c **** 	for (index = 0; index < middle; index++) {
  51              		.loc 1 52 0
  52 0018 0023     		movs	r3, #0
  53 001a FB61     		str	r3, [r7, #28]
  54 001c 1DE0     		b	.L2
  55              	.L3:
  53:Api\core\src/vl53l0x_api_core.c **** 		mirrorIndex		 = size - index - 1;
  56              		.loc 1 53 0 discriminator 3
  57 001e 3A68     		ldr	r2, [r7]
  58 0020 FB69     		ldr	r3, [r7, #28]
  59 0022 D31A     		subs	r3, r2, r3
  60 0024 013B     		subs	r3, r3, #1
  61 0026 3B61     		str	r3, [r7, #16]
ARM GAS  C:\Users\ilya\AppData\Local\Temp\ccAjPEqD.s 			page 3


  54:Api\core\src/vl53l0x_api_core.c **** 		tempData		 = data[index];
  62              		.loc 1 54 0 discriminator 3
  63 0028 7A68     		ldr	r2, [r7, #4]
  64 002a FB69     		ldr	r3, [r7, #28]
  65 002c D218     		adds	r2, r2, r3
  66 002e 0F23     		movs	r3, #15
  67 0030 FB18     		adds	r3, r7, r3
  68 0032 1278     		ldrb	r2, [r2]
  69 0034 1A70     		strb	r2, [r3]
  55:Api\core\src/vl53l0x_api_core.c **** 		data[index]		 = data[mirrorIndex];
  70              		.loc 1 55 0 discriminator 3
  71 0036 7A68     		ldr	r2, [r7, #4]
  72 0038 FB69     		ldr	r3, [r7, #28]
  73 003a D318     		adds	r3, r2, r3
  74 003c 7968     		ldr	r1, [r7, #4]
  75 003e 3A69     		ldr	r2, [r7, #16]
  76 0040 8A18     		adds	r2, r1, r2
  77 0042 1278     		ldrb	r2, [r2]
  78 0044 1A70     		strb	r2, [r3]
  56:Api\core\src/vl53l0x_api_core.c **** 		data[mirrorIndex] = tempData;
  79              		.loc 1 56 0 discriminator 3
  80 0046 7A68     		ldr	r2, [r7, #4]
  81 0048 3B69     		ldr	r3, [r7, #16]
  82 004a D318     		adds	r3, r2, r3
  83 004c 0F22     		movs	r2, #15
  84 004e BA18     		adds	r2, r7, r2
  85 0050 1278     		ldrb	r2, [r2]
  86 0052 1A70     		strb	r2, [r3]
  52:Api\core\src/vl53l0x_api_core.c **** 		mirrorIndex		 = size - index - 1;
  87              		.loc 1 52 0 discriminator 3
  88 0054 FB69     		ldr	r3, [r7, #28]
  89 0056 0133     		adds	r3, r3, #1
  90 0058 FB61     		str	r3, [r7, #28]
  91              	.L2:
  52:Api\core\src/vl53l0x_api_core.c **** 		mirrorIndex		 = size - index - 1;
  92              		.loc 1 52 0 is_stmt 0 discriminator 1
  93 005a FA69     		ldr	r2, [r7, #28]
  94 005c 7B69     		ldr	r3, [r7, #20]
  95 005e 9A42     		cmp	r2, r3
  96 0060 DDD3     		bcc	.L3
  57:Api\core\src/vl53l0x_api_core.c **** 	}
  58:Api\core\src/vl53l0x_api_core.c **** 	return Status;
  97              		.loc 1 58 0 is_stmt 1
  98 0062 1B23     		movs	r3, #27
  99 0064 FB18     		adds	r3, r7, r3
 100 0066 1B78     		ldrb	r3, [r3]
 101 0068 5BB2     		sxtb	r3, r3
  59:Api\core\src/vl53l0x_api_core.c **** }
 102              		.loc 1 59 0
 103 006a 1800     		movs	r0, r3
 104 006c BD46     		mov	sp, r7
 105 006e 08B0     		add	sp, sp, #32
 106              		@ sp needed
 107 0070 80BD     		pop	{r7, pc}
 108              		.cfi_endproc
 109              	.LFE1:
 110              		.size	VL53L0X_reverse_bytes, .-VL53L0X_reverse_bytes
ARM GAS  C:\Users\ilya\AppData\Local\Temp\ccAjPEqD.s 			page 4


 111 0072 C046     		.section	.text.VL53L0X_measurement_poll_for_completion,"ax",%progbits
 112              		.align	2
 113              		.global	VL53L0X_measurement_poll_for_completion
 114              		.code	16
 115              		.thumb_func
 116              		.type	VL53L0X_measurement_poll_for_completion, %function
 117              	VL53L0X_measurement_poll_for_completion:
 118              	.LFB2:
  60:Api\core\src/vl53l0x_api_core.c **** 
  61:Api\core\src/vl53l0x_api_core.c **** VL53L0X_Error VL53L0X_measurement_poll_for_completion(VL53L0X_DEV Dev)
  62:Api\core\src/vl53l0x_api_core.c **** {
 119              		.loc 1 62 0
 120              		.cfi_startproc
 121              		@ args = 0, pretend = 0, frame = 24
 122              		@ frame_needed = 1, uses_anonymous_args = 0
 123 0000 90B5     		push	{r4, r7, lr}
 124              		.cfi_def_cfa_offset 12
 125              		.cfi_offset 4, -12
 126              		.cfi_offset 7, -8
 127              		.cfi_offset 14, -4
 128 0002 87B0     		sub	sp, sp, #28
 129              		.cfi_def_cfa_offset 40
 130 0004 00AF     		add	r7, sp, #0
 131              		.cfi_def_cfa_register 7
 132 0006 7860     		str	r0, [r7, #4]
  63:Api\core\src/vl53l0x_api_core.c **** 	VL53L0X_Error Status = VL53L0X_ERROR_NONE;
 133              		.loc 1 63 0
 134 0008 1723     		movs	r3, #23
 135 000a FB18     		adds	r3, r7, r3
 136 000c 0022     		movs	r2, #0
 137 000e 1A70     		strb	r2, [r3]
  64:Api\core\src/vl53l0x_api_core.c **** 	uint8_t NewDataReady = 0;
 138              		.loc 1 64 0
 139 0010 0F23     		movs	r3, #15
 140 0012 FB18     		adds	r3, r7, r3
 141 0014 0022     		movs	r2, #0
 142 0016 1A70     		strb	r2, [r3]
  65:Api\core\src/vl53l0x_api_core.c **** 	uint32_t LoopNb;
  66:Api\core\src/vl53l0x_api_core.c **** 
  67:Api\core\src/vl53l0x_api_core.c **** 	LOG_FUNCTION_START("");
  68:Api\core\src/vl53l0x_api_core.c **** 
  69:Api\core\src/vl53l0x_api_core.c **** 	LoopNb = 0;
 143              		.loc 1 69 0
 144 0018 0023     		movs	r3, #0
 145 001a 3B61     		str	r3, [r7, #16]
 146              	.L10:
  70:Api\core\src/vl53l0x_api_core.c **** 
  71:Api\core\src/vl53l0x_api_core.c **** 	do {
  72:Api\core\src/vl53l0x_api_core.c **** 		Status = VL53L0X_GetMeasurementDataReady(Dev, &NewDataReady);
 147              		.loc 1 72 0
 148 001c 1723     		movs	r3, #23
 149 001e FC18     		adds	r4, r7, r3
 150 0020 0F23     		movs	r3, #15
 151 0022 FA18     		adds	r2, r7, r3
 152 0024 7B68     		ldr	r3, [r7, #4]
 153 0026 1100     		movs	r1, r2
 154 0028 1800     		movs	r0, r3
ARM GAS  C:\Users\ilya\AppData\Local\Temp\ccAjPEqD.s 			page 5


 155 002a FFF7FEFF 		bl	VL53L0X_GetMeasurementDataReady
 156 002e 0300     		movs	r3, r0
 157 0030 2370     		strb	r3, [r4]
  73:Api\core\src/vl53l0x_api_core.c **** 		if (Status != 0)
 158              		.loc 1 73 0
 159 0032 1723     		movs	r3, #23
 160 0034 FB18     		adds	r3, r7, r3
 161 0036 1B78     		ldrb	r3, [r3]
 162 0038 5BB2     		sxtb	r3, r3
 163 003a 002B     		cmp	r3, #0
 164 003c 15D1     		bne	.L12
  74:Api\core\src/vl53l0x_api_core.c **** 			break; /* the error is set */
  75:Api\core\src/vl53l0x_api_core.c **** 
  76:Api\core\src/vl53l0x_api_core.c **** 		if (NewDataReady == 1)
 165              		.loc 1 76 0
 166 003e 0F23     		movs	r3, #15
 167 0040 FB18     		adds	r3, r7, r3
 168 0042 1B78     		ldrb	r3, [r3]
 169 0044 012B     		cmp	r3, #1
 170 0046 12D0     		beq	.L13
  77:Api\core\src/vl53l0x_api_core.c **** 			break; /* done note that status == 0 */
  78:Api\core\src/vl53l0x_api_core.c **** 
  79:Api\core\src/vl53l0x_api_core.c **** 		LoopNb++;
 171              		.loc 1 79 0
 172 0048 3B69     		ldr	r3, [r7, #16]
 173 004a 0133     		adds	r3, r3, #1
 174 004c 3B61     		str	r3, [r7, #16]
  80:Api\core\src/vl53l0x_api_core.c **** 		if (LoopNb >= VL53L0X_DEFAULT_MAX_LOOP) {
 175              		.loc 1 80 0
 176 004e 3B69     		ldr	r3, [r7, #16]
 177 0050 0B4A     		ldr	r2, .L14
 178 0052 9342     		cmp	r3, r2
 179 0054 04D9     		bls	.L9
  81:Api\core\src/vl53l0x_api_core.c **** 			Status = VL53L0X_ERROR_TIME_OUT;
 180              		.loc 1 81 0
 181 0056 1723     		movs	r3, #23
 182 0058 FB18     		adds	r3, r7, r3
 183 005a F922     		movs	r2, #249
 184 005c 1A70     		strb	r2, [r3]
  82:Api\core\src/vl53l0x_api_core.c **** 			break;
 185              		.loc 1 82 0
 186 005e 07E0     		b	.L7
 187              	.L9:
  83:Api\core\src/vl53l0x_api_core.c **** 		}
  84:Api\core\src/vl53l0x_api_core.c **** 
  85:Api\core\src/vl53l0x_api_core.c **** 		VL53L0X_PollingDelay(Dev);
 188              		.loc 1 85 0
 189 0060 7B68     		ldr	r3, [r7, #4]
 190 0062 1800     		movs	r0, r3
 191 0064 FFF7FEFF 		bl	VL53L0X_PollingDelay
  86:Api\core\src/vl53l0x_api_core.c **** 	} while (1);
 192              		.loc 1 86 0
 193 0068 D8E7     		b	.L10
 194              	.L12:
  74:Api\core\src/vl53l0x_api_core.c **** 
 195              		.loc 1 74 0
 196 006a C046     		nop
ARM GAS  C:\Users\ilya\AppData\Local\Temp\ccAjPEqD.s 			page 6


 197 006c 00E0     		b	.L7
 198              	.L13:
  77:Api\core\src/vl53l0x_api_core.c **** 
 199              		.loc 1 77 0
 200 006e C046     		nop
 201              	.L7:
  87:Api\core\src/vl53l0x_api_core.c **** 
  88:Api\core\src/vl53l0x_api_core.c **** 	LOG_FUNCTION_END(Status);
  89:Api\core\src/vl53l0x_api_core.c **** 
  90:Api\core\src/vl53l0x_api_core.c **** 	return Status;
 202              		.loc 1 90 0
 203 0070 1723     		movs	r3, #23
 204 0072 FB18     		adds	r3, r7, r3
 205 0074 1B78     		ldrb	r3, [r3]
 206 0076 5BB2     		sxtb	r3, r3
  91:Api\core\src/vl53l0x_api_core.c **** }
 207              		.loc 1 91 0
 208 0078 1800     		movs	r0, r3
 209 007a BD46     		mov	sp, r7
 210 007c 07B0     		add	sp, sp, #28
 211              		@ sp needed
 212 007e 90BD     		pop	{r4, r7, pc}
 213              	.L15:
 214              		.align	2
 215              	.L14:
 216 0080 CF070000 		.word	1999
 217              		.cfi_endproc
 218              	.LFE2:
 219              		.size	VL53L0X_measurement_poll_for_completion, .-VL53L0X_measurement_poll_for_completion
 220              		.section	.text.VL53L0X_decode_vcsel_period,"ax",%progbits
 221              		.align	2
 222              		.global	VL53L0X_decode_vcsel_period
 223              		.code	16
 224              		.thumb_func
 225              		.type	VL53L0X_decode_vcsel_period, %function
 226              	VL53L0X_decode_vcsel_period:
 227              	.LFB3:
  92:Api\core\src/vl53l0x_api_core.c **** 
  93:Api\core\src/vl53l0x_api_core.c **** 
  94:Api\core\src/vl53l0x_api_core.c **** uint8_t VL53L0X_decode_vcsel_period(uint8_t vcsel_period_reg)
  95:Api\core\src/vl53l0x_api_core.c **** {
 228              		.loc 1 95 0
 229              		.cfi_startproc
 230              		@ args = 0, pretend = 0, frame = 16
 231              		@ frame_needed = 1, uses_anonymous_args = 0
 232 0000 80B5     		push	{r7, lr}
 233              		.cfi_def_cfa_offset 8
 234              		.cfi_offset 7, -8
 235              		.cfi_offset 14, -4
 236 0002 84B0     		sub	sp, sp, #16
 237              		.cfi_def_cfa_offset 24
 238 0004 00AF     		add	r7, sp, #0
 239              		.cfi_def_cfa_register 7
 240 0006 0200     		movs	r2, r0
 241 0008 FB1D     		adds	r3, r7, #7
 242 000a 1A70     		strb	r2, [r3]
  96:Api\core\src/vl53l0x_api_core.c **** 	/*!
ARM GAS  C:\Users\ilya\AppData\Local\Temp\ccAjPEqD.s 			page 7


  97:Api\core\src/vl53l0x_api_core.c **** 	 * Converts the encoded VCSEL period register value into the real
  98:Api\core\src/vl53l0x_api_core.c **** 	 * period in PLL clocks
  99:Api\core\src/vl53l0x_api_core.c **** 	 */
 100:Api\core\src/vl53l0x_api_core.c **** 
 101:Api\core\src/vl53l0x_api_core.c **** 	uint8_t vcsel_period_pclks = 0;
 243              		.loc 1 101 0
 244 000c 0F23     		movs	r3, #15
 245 000e FB18     		adds	r3, r7, r3
 246 0010 0022     		movs	r2, #0
 247 0012 1A70     		strb	r2, [r3]
 102:Api\core\src/vl53l0x_api_core.c **** 
 103:Api\core\src/vl53l0x_api_core.c **** 	vcsel_period_pclks = (vcsel_period_reg + 1) << 1;
 248              		.loc 1 103 0
 249 0014 FB1D     		adds	r3, r7, #7
 250 0016 1B78     		ldrb	r3, [r3]
 251 0018 0133     		adds	r3, r3, #1
 252 001a DBB2     		uxtb	r3, r3
 253 001c 0F22     		movs	r2, #15
 254 001e BA18     		adds	r2, r7, r2
 255 0020 DB18     		adds	r3, r3, r3
 256 0022 1370     		strb	r3, [r2]
 104:Api\core\src/vl53l0x_api_core.c **** 
 105:Api\core\src/vl53l0x_api_core.c **** 	return vcsel_period_pclks;
 257              		.loc 1 105 0
 258 0024 0F23     		movs	r3, #15
 259 0026 FB18     		adds	r3, r7, r3
 260 0028 1B78     		ldrb	r3, [r3]
 106:Api\core\src/vl53l0x_api_core.c **** }
 261              		.loc 1 106 0
 262 002a 1800     		movs	r0, r3
 263 002c BD46     		mov	sp, r7
 264 002e 04B0     		add	sp, sp, #16
 265              		@ sp needed
 266 0030 80BD     		pop	{r7, pc}
 267              		.cfi_endproc
 268              	.LFE3:
 269              		.size	VL53L0X_decode_vcsel_period, .-VL53L0X_decode_vcsel_period
 270 0032 C046     		.section	.text.VL53L0X_encode_vcsel_period,"ax",%progbits
 271              		.align	2
 272              		.global	VL53L0X_encode_vcsel_period
 273              		.code	16
 274              		.thumb_func
 275              		.type	VL53L0X_encode_vcsel_period, %function
 276              	VL53L0X_encode_vcsel_period:
 277              	.LFB4:
 107:Api\core\src/vl53l0x_api_core.c **** 
 108:Api\core\src/vl53l0x_api_core.c **** uint8_t VL53L0X_encode_vcsel_period(uint8_t vcsel_period_pclks)
 109:Api\core\src/vl53l0x_api_core.c **** {
 278              		.loc 1 109 0
 279              		.cfi_startproc
 280              		@ args = 0, pretend = 0, frame = 16
 281              		@ frame_needed = 1, uses_anonymous_args = 0
 282 0000 80B5     		push	{r7, lr}
 283              		.cfi_def_cfa_offset 8
 284              		.cfi_offset 7, -8
 285              		.cfi_offset 14, -4
 286 0002 84B0     		sub	sp, sp, #16
ARM GAS  C:\Users\ilya\AppData\Local\Temp\ccAjPEqD.s 			page 8


 287              		.cfi_def_cfa_offset 24
 288 0004 00AF     		add	r7, sp, #0
 289              		.cfi_def_cfa_register 7
 290 0006 0200     		movs	r2, r0
 291 0008 FB1D     		adds	r3, r7, #7
 292 000a 1A70     		strb	r2, [r3]
 110:Api\core\src/vl53l0x_api_core.c **** 	/*!
 111:Api\core\src/vl53l0x_api_core.c **** 	 * Converts the encoded VCSEL period register value into the real period
 112:Api\core\src/vl53l0x_api_core.c **** 	 * in PLL clocks
 113:Api\core\src/vl53l0x_api_core.c **** 	 */
 114:Api\core\src/vl53l0x_api_core.c **** 
 115:Api\core\src/vl53l0x_api_core.c **** 	uint8_t vcsel_period_reg = 0;
 293              		.loc 1 115 0
 294 000c 0F23     		movs	r3, #15
 295 000e FB18     		adds	r3, r7, r3
 296 0010 0022     		movs	r2, #0
 297 0012 1A70     		strb	r2, [r3]
 116:Api\core\src/vl53l0x_api_core.c **** 
 117:Api\core\src/vl53l0x_api_core.c **** 	vcsel_period_reg = (vcsel_period_pclks >> 1) - 1;
 298              		.loc 1 117 0
 299 0014 FB1D     		adds	r3, r7, #7
 300 0016 1B78     		ldrb	r3, [r3]
 301 0018 5B08     		lsrs	r3, r3, #1
 302 001a DAB2     		uxtb	r2, r3
 303 001c 0F23     		movs	r3, #15
 304 001e FB18     		adds	r3, r7, r3
 305 0020 013A     		subs	r2, r2, #1
 306 0022 1A70     		strb	r2, [r3]
 118:Api\core\src/vl53l0x_api_core.c **** 
 119:Api\core\src/vl53l0x_api_core.c **** 	return vcsel_period_reg;
 307              		.loc 1 119 0
 308 0024 0F23     		movs	r3, #15
 309 0026 FB18     		adds	r3, r7, r3
 310 0028 1B78     		ldrb	r3, [r3]
 120:Api\core\src/vl53l0x_api_core.c **** }
 311              		.loc 1 120 0
 312 002a 1800     		movs	r0, r3
 313 002c BD46     		mov	sp, r7
 314 002e 04B0     		add	sp, sp, #16
 315              		@ sp needed
 316 0030 80BD     		pop	{r7, pc}
 317              		.cfi_endproc
 318              	.LFE4:
 319              		.size	VL53L0X_encode_vcsel_period, .-VL53L0X_encode_vcsel_period
 320 0032 C046     		.section	.text.VL53L0X_isqrt,"ax",%progbits
 321              		.align	2
 322              		.global	VL53L0X_isqrt
 323              		.code	16
 324              		.thumb_func
 325              		.type	VL53L0X_isqrt, %function
 326              	VL53L0X_isqrt:
 327              	.LFB5:
 121:Api\core\src/vl53l0x_api_core.c **** 
 122:Api\core\src/vl53l0x_api_core.c **** 
 123:Api\core\src/vl53l0x_api_core.c **** uint32_t VL53L0X_isqrt(uint32_t num)
 124:Api\core\src/vl53l0x_api_core.c **** {
 328              		.loc 1 124 0
ARM GAS  C:\Users\ilya\AppData\Local\Temp\ccAjPEqD.s 			page 9


 329              		.cfi_startproc
 330              		@ args = 0, pretend = 0, frame = 16
 331              		@ frame_needed = 1, uses_anonymous_args = 0
 332 0000 80B5     		push	{r7, lr}
 333              		.cfi_def_cfa_offset 8
 334              		.cfi_offset 7, -8
 335              		.cfi_offset 14, -4
 336 0002 84B0     		sub	sp, sp, #16
 337              		.cfi_def_cfa_offset 24
 338 0004 00AF     		add	r7, sp, #0
 339              		.cfi_def_cfa_register 7
 340 0006 7860     		str	r0, [r7, #4]
 125:Api\core\src/vl53l0x_api_core.c **** 	/*
 126:Api\core\src/vl53l0x_api_core.c **** 	 * Implements an integer square root
 127:Api\core\src/vl53l0x_api_core.c **** 	 *
 128:Api\core\src/vl53l0x_api_core.c **** 	 * From: http://en.wikipedia.org/wiki/Methods_of_computing_square_roots
 129:Api\core\src/vl53l0x_api_core.c **** 	 */
 130:Api\core\src/vl53l0x_api_core.c **** 
 131:Api\core\src/vl53l0x_api_core.c **** 	uint32_t  res = 0;
 341              		.loc 1 131 0
 342 0008 0023     		movs	r3, #0
 343 000a FB60     		str	r3, [r7, #12]
 132:Api\core\src/vl53l0x_api_core.c **** 	uint32_t  bit = 1 << 30;
 344              		.loc 1 132 0
 345 000c 8023     		movs	r3, #128
 346 000e DB05     		lsls	r3, r3, #23
 347 0010 BB60     		str	r3, [r7, #8]
 133:Api\core\src/vl53l0x_api_core.c **** 	/* The second-to-top bit is set:
 134:Api\core\src/vl53l0x_api_core.c **** 	 *	1 << 14 for 16-bits, 1 << 30 for 32 bits */
 135:Api\core\src/vl53l0x_api_core.c **** 
 136:Api\core\src/vl53l0x_api_core.c **** 	 /* "bit" starts at the highest power of four <= the argument. */
 137:Api\core\src/vl53l0x_api_core.c **** 	while (bit > num)
 348              		.loc 1 137 0
 349 0012 02E0     		b	.L21
 350              	.L22:
 138:Api\core\src/vl53l0x_api_core.c **** 		bit >>= 2;
 351              		.loc 1 138 0
 352 0014 BB68     		ldr	r3, [r7, #8]
 353 0016 9B08     		lsrs	r3, r3, #2
 354 0018 BB60     		str	r3, [r7, #8]
 355              	.L21:
 137:Api\core\src/vl53l0x_api_core.c **** 		bit >>= 2;
 356              		.loc 1 137 0
 357 001a BA68     		ldr	r2, [r7, #8]
 358 001c 7B68     		ldr	r3, [r7, #4]
 359 001e 9A42     		cmp	r2, r3
 360 0020 F8D8     		bhi	.L22
 139:Api\core\src/vl53l0x_api_core.c **** 
 140:Api\core\src/vl53l0x_api_core.c **** 
 141:Api\core\src/vl53l0x_api_core.c **** 	while (bit != 0) {
 361              		.loc 1 141 0
 362 0022 17E0     		b	.L23
 363              	.L26:
 142:Api\core\src/vl53l0x_api_core.c **** 		if (num >= res + bit) {
 364              		.loc 1 142 0
 365 0024 FA68     		ldr	r2, [r7, #12]
 366 0026 BB68     		ldr	r3, [r7, #8]
ARM GAS  C:\Users\ilya\AppData\Local\Temp\ccAjPEqD.s 			page 10


 367 0028 D218     		adds	r2, r2, r3
 368 002a 7B68     		ldr	r3, [r7, #4]
 369 002c 9A42     		cmp	r2, r3
 370 002e 0BD8     		bhi	.L24
 143:Api\core\src/vl53l0x_api_core.c **** 			num -= res + bit;
 371              		.loc 1 143 0
 372 0030 FA68     		ldr	r2, [r7, #12]
 373 0032 BB68     		ldr	r3, [r7, #8]
 374 0034 D318     		adds	r3, r2, r3
 375 0036 7A68     		ldr	r2, [r7, #4]
 376 0038 D31A     		subs	r3, r2, r3
 377 003a 7B60     		str	r3, [r7, #4]
 144:Api\core\src/vl53l0x_api_core.c **** 			res = (res >> 1) + bit;
 378              		.loc 1 144 0
 379 003c FB68     		ldr	r3, [r7, #12]
 380 003e 5A08     		lsrs	r2, r3, #1
 381 0040 BB68     		ldr	r3, [r7, #8]
 382 0042 D318     		adds	r3, r2, r3
 383 0044 FB60     		str	r3, [r7, #12]
 384 0046 02E0     		b	.L25
 385              	.L24:
 145:Api\core\src/vl53l0x_api_core.c **** 		} else
 146:Api\core\src/vl53l0x_api_core.c **** 			res >>= 1;
 386              		.loc 1 146 0
 387 0048 FB68     		ldr	r3, [r7, #12]
 388 004a 5B08     		lsrs	r3, r3, #1
 389 004c FB60     		str	r3, [r7, #12]
 390              	.L25:
 147:Api\core\src/vl53l0x_api_core.c **** 
 148:Api\core\src/vl53l0x_api_core.c **** 		bit >>= 2;
 391              		.loc 1 148 0
 392 004e BB68     		ldr	r3, [r7, #8]
 393 0050 9B08     		lsrs	r3, r3, #2
 394 0052 BB60     		str	r3, [r7, #8]
 395              	.L23:
 141:Api\core\src/vl53l0x_api_core.c **** 		if (num >= res + bit) {
 396              		.loc 1 141 0
 397 0054 BB68     		ldr	r3, [r7, #8]
 398 0056 002B     		cmp	r3, #0
 399 0058 E4D1     		bne	.L26
 149:Api\core\src/vl53l0x_api_core.c **** 	}
 150:Api\core\src/vl53l0x_api_core.c **** 
 151:Api\core\src/vl53l0x_api_core.c **** 	return res;
 400              		.loc 1 151 0
 401 005a FB68     		ldr	r3, [r7, #12]
 152:Api\core\src/vl53l0x_api_core.c **** }
 402              		.loc 1 152 0
 403 005c 1800     		movs	r0, r3
 404 005e BD46     		mov	sp, r7
 405 0060 04B0     		add	sp, sp, #16
 406              		@ sp needed
 407 0062 80BD     		pop	{r7, pc}
 408              		.cfi_endproc
 409              	.LFE5:
 410              		.size	VL53L0X_isqrt, .-VL53L0X_isqrt
 411              		.section	.text.VL53L0X_quadrature_sum,"ax",%progbits
 412              		.align	2
ARM GAS  C:\Users\ilya\AppData\Local\Temp\ccAjPEqD.s 			page 11


 413              		.global	VL53L0X_quadrature_sum
 414              		.code	16
 415              		.thumb_func
 416              		.type	VL53L0X_quadrature_sum, %function
 417              	VL53L0X_quadrature_sum:
 418              	.LFB6:
 153:Api\core\src/vl53l0x_api_core.c **** 
 154:Api\core\src/vl53l0x_api_core.c **** 
 155:Api\core\src/vl53l0x_api_core.c **** uint32_t VL53L0X_quadrature_sum(uint32_t a, uint32_t b)
 156:Api\core\src/vl53l0x_api_core.c **** {
 419              		.loc 1 156 0
 420              		.cfi_startproc
 421              		@ args = 0, pretend = 0, frame = 16
 422              		@ frame_needed = 1, uses_anonymous_args = 0
 423 0000 80B5     		push	{r7, lr}
 424              		.cfi_def_cfa_offset 8
 425              		.cfi_offset 7, -8
 426              		.cfi_offset 14, -4
 427 0002 84B0     		sub	sp, sp, #16
 428              		.cfi_def_cfa_offset 24
 429 0004 00AF     		add	r7, sp, #0
 430              		.cfi_def_cfa_register 7
 431 0006 7860     		str	r0, [r7, #4]
 432 0008 3960     		str	r1, [r7]
 157:Api\core\src/vl53l0x_api_core.c **** 	/*
 158:Api\core\src/vl53l0x_api_core.c **** 	 * Implements a quadrature sum
 159:Api\core\src/vl53l0x_api_core.c **** 	 *
 160:Api\core\src/vl53l0x_api_core.c **** 	 * rea = sqrt(a^2 + b^2)
 161:Api\core\src/vl53l0x_api_core.c **** 	 *
 162:Api\core\src/vl53l0x_api_core.c **** 	 * Trap overflow case max input value is 65535 (16-bit value)
 163:Api\core\src/vl53l0x_api_core.c **** 	 * as internal calc are 32-bit wide
 164:Api\core\src/vl53l0x_api_core.c **** 	 *
 165:Api\core\src/vl53l0x_api_core.c **** 	 * If overflow then seta output to maximum
 166:Api\core\src/vl53l0x_api_core.c **** 	 */
 167:Api\core\src/vl53l0x_api_core.c **** 	uint32_t  res = 0;
 433              		.loc 1 167 0
 434 000a 0023     		movs	r3, #0
 435 000c FB60     		str	r3, [r7, #12]
 168:Api\core\src/vl53l0x_api_core.c **** 
 169:Api\core\src/vl53l0x_api_core.c **** 	if (a > 65535 || b > 65535)
 436              		.loc 1 169 0
 437 000e 7B68     		ldr	r3, [r7, #4]
 438 0010 0D4A     		ldr	r2, .L33
 439 0012 9342     		cmp	r3, r2
 440 0014 03D8     		bhi	.L29
 441              		.loc 1 169 0 is_stmt 0 discriminator 1
 442 0016 3B68     		ldr	r3, [r7]
 443 0018 0B4A     		ldr	r2, .L33
 444 001a 9342     		cmp	r3, r2
 445 001c 02D9     		bls	.L30
 446              	.L29:
 170:Api\core\src/vl53l0x_api_core.c **** 		res = 65535;
 447              		.loc 1 170 0 is_stmt 1
 448 001e 0A4B     		ldr	r3, .L33
 449 0020 FB60     		str	r3, [r7, #12]
 450 0022 0BE0     		b	.L31
 451              	.L30:
ARM GAS  C:\Users\ilya\AppData\Local\Temp\ccAjPEqD.s 			page 12


 171:Api\core\src/vl53l0x_api_core.c **** 	else
 172:Api\core\src/vl53l0x_api_core.c **** 		res = VL53L0X_isqrt(a * a + b * b);
 452              		.loc 1 172 0
 453 0024 7B68     		ldr	r3, [r7, #4]
 454 0026 7A68     		ldr	r2, [r7, #4]
 455 0028 5A43     		muls	r2, r3
 456 002a 3B68     		ldr	r3, [r7]
 457 002c 3968     		ldr	r1, [r7]
 458 002e 4B43     		muls	r3, r1
 459 0030 D318     		adds	r3, r2, r3
 460 0032 1800     		movs	r0, r3
 461 0034 FFF7FEFF 		bl	VL53L0X_isqrt
 462 0038 0300     		movs	r3, r0
 463 003a FB60     		str	r3, [r7, #12]
 464              	.L31:
 173:Api\core\src/vl53l0x_api_core.c **** 
 174:Api\core\src/vl53l0x_api_core.c **** 	return res;
 465              		.loc 1 174 0
 466 003c FB68     		ldr	r3, [r7, #12]
 175:Api\core\src/vl53l0x_api_core.c **** }
 467              		.loc 1 175 0
 468 003e 1800     		movs	r0, r3
 469 0040 BD46     		mov	sp, r7
 470 0042 04B0     		add	sp, sp, #16
 471              		@ sp needed
 472 0044 80BD     		pop	{r7, pc}
 473              	.L34:
 474 0046 C046     		.align	2
 475              	.L33:
 476 0048 FFFF0000 		.word	65535
 477              		.cfi_endproc
 478              	.LFE6:
 479              		.size	VL53L0X_quadrature_sum, .-VL53L0X_quadrature_sum
 480              		.section	.text.VL53L0X_device_read_strobe,"ax",%progbits
 481              		.align	2
 482              		.global	VL53L0X_device_read_strobe
 483              		.code	16
 484              		.thumb_func
 485              		.type	VL53L0X_device_read_strobe, %function
 486              	VL53L0X_device_read_strobe:
 487              	.LFB7:
 176:Api\core\src/vl53l0x_api_core.c **** 
 177:Api\core\src/vl53l0x_api_core.c **** 
 178:Api\core\src/vl53l0x_api_core.c **** VL53L0X_Error VL53L0X_device_read_strobe(VL53L0X_DEV Dev)
 179:Api\core\src/vl53l0x_api_core.c **** {
 488              		.loc 1 179 0
 489              		.cfi_startproc
 490              		@ args = 0, pretend = 0, frame = 24
 491              		@ frame_needed = 1, uses_anonymous_args = 0
 492 0000 90B5     		push	{r4, r7, lr}
 493              		.cfi_def_cfa_offset 12
 494              		.cfi_offset 4, -12
 495              		.cfi_offset 7, -8
 496              		.cfi_offset 14, -4
 497 0002 87B0     		sub	sp, sp, #28
 498              		.cfi_def_cfa_offset 40
 499 0004 00AF     		add	r7, sp, #0
ARM GAS  C:\Users\ilya\AppData\Local\Temp\ccAjPEqD.s 			page 13


 500              		.cfi_def_cfa_register 7
 501 0006 7860     		str	r0, [r7, #4]
 180:Api\core\src/vl53l0x_api_core.c **** 	VL53L0X_Error Status = VL53L0X_ERROR_NONE;
 502              		.loc 1 180 0
 503 0008 1723     		movs	r3, #23
 504 000a FB18     		adds	r3, r7, r3
 505 000c 0022     		movs	r2, #0
 506 000e 1A70     		strb	r2, [r3]
 181:Api\core\src/vl53l0x_api_core.c **** 	uint8_t strobe;
 182:Api\core\src/vl53l0x_api_core.c **** 	uint32_t LoopNb;
 183:Api\core\src/vl53l0x_api_core.c **** 	LOG_FUNCTION_START("");
 184:Api\core\src/vl53l0x_api_core.c **** 
 185:Api\core\src/vl53l0x_api_core.c **** 	Status |= VL53L0X_WrByte(Dev, 0x83, 0x00);
 507              		.loc 1 185 0
 508 0010 7B68     		ldr	r3, [r7, #4]
 509 0012 0022     		movs	r2, #0
 510 0014 8321     		movs	r1, #131
 511 0016 1800     		movs	r0, r3
 512 0018 FFF7FEFF 		bl	VL53L0X_WrByte
 513 001c 0300     		movs	r3, r0
 514 001e 1900     		movs	r1, r3
 515 0020 1723     		movs	r3, #23
 516 0022 FB18     		adds	r3, r7, r3
 517 0024 1722     		movs	r2, #23
 518 0026 BA18     		adds	r2, r7, r2
 519 0028 1278     		ldrb	r2, [r2]
 520 002a 0A43     		orrs	r2, r1
 521 002c 1A70     		strb	r2, [r3]
 186:Api\core\src/vl53l0x_api_core.c **** 
 187:Api\core\src/vl53l0x_api_core.c **** 	/* polling
 188:Api\core\src/vl53l0x_api_core.c **** 	 * use timeout to avoid deadlock*/
 189:Api\core\src/vl53l0x_api_core.c **** 	if (Status == VL53L0X_ERROR_NONE) {
 522              		.loc 1 189 0
 523 002e 1723     		movs	r3, #23
 524 0030 FB18     		adds	r3, r7, r3
 525 0032 1B78     		ldrb	r3, [r3]
 526 0034 5BB2     		sxtb	r3, r3
 527 0036 002B     		cmp	r3, #0
 528 0038 26D1     		bne	.L36
 190:Api\core\src/vl53l0x_api_core.c **** 		LoopNb = 0;
 529              		.loc 1 190 0
 530 003a 0023     		movs	r3, #0
 531 003c 3B61     		str	r3, [r7, #16]
 532              	.L38:
 191:Api\core\src/vl53l0x_api_core.c **** 		do {
 192:Api\core\src/vl53l0x_api_core.c **** 			Status = VL53L0X_RdByte(Dev, 0x83, &strobe);
 533              		.loc 1 192 0
 534 003e 1723     		movs	r3, #23
 535 0040 FC18     		adds	r4, r7, r3
 536 0042 0F23     		movs	r3, #15
 537 0044 FA18     		adds	r2, r7, r3
 538 0046 7B68     		ldr	r3, [r7, #4]
 539 0048 8321     		movs	r1, #131
 540 004a 1800     		movs	r0, r3
 541 004c FFF7FEFF 		bl	VL53L0X_RdByte
 542 0050 0300     		movs	r3, r0
 543 0052 2370     		strb	r3, [r4]
ARM GAS  C:\Users\ilya\AppData\Local\Temp\ccAjPEqD.s 			page 14


 193:Api\core\src/vl53l0x_api_core.c **** 			if ((strobe != 0x00) || Status != VL53L0X_ERROR_NONE)
 544              		.loc 1 193 0
 545 0054 0F23     		movs	r3, #15
 546 0056 FB18     		adds	r3, r7, r3
 547 0058 1B78     		ldrb	r3, [r3]
 548 005a 002B     		cmp	r3, #0
 549 005c 0CD1     		bne	.L37
 550              		.loc 1 193 0 is_stmt 0 discriminator 1
 551 005e 1723     		movs	r3, #23
 552 0060 FB18     		adds	r3, r7, r3
 553 0062 1B78     		ldrb	r3, [r3]
 554 0064 5BB2     		sxtb	r3, r3
 555 0066 002B     		cmp	r3, #0
 556 0068 06D1     		bne	.L37
 194:Api\core\src/vl53l0x_api_core.c **** 					break;
 195:Api\core\src/vl53l0x_api_core.c **** 
 196:Api\core\src/vl53l0x_api_core.c **** 			LoopNb = LoopNb + 1;
 557              		.loc 1 196 0 is_stmt 1
 558 006a 3B69     		ldr	r3, [r7, #16]
 559 006c 0133     		adds	r3, r3, #1
 560 006e 3B61     		str	r3, [r7, #16]
 197:Api\core\src/vl53l0x_api_core.c **** 		} while (LoopNb < VL53L0X_DEFAULT_MAX_LOOP);
 561              		.loc 1 197 0
 562 0070 3B69     		ldr	r3, [r7, #16]
 563 0072 114A     		ldr	r2, .L40
 564 0074 9342     		cmp	r3, r2
 565 0076 E2D9     		bls	.L38
 566              	.L37:
 198:Api\core\src/vl53l0x_api_core.c **** 
 199:Api\core\src/vl53l0x_api_core.c **** 		if (LoopNb >= VL53L0X_DEFAULT_MAX_LOOP)
 567              		.loc 1 199 0
 568 0078 3B69     		ldr	r3, [r7, #16]
 569 007a 0F4A     		ldr	r2, .L40
 570 007c 9342     		cmp	r3, r2
 571 007e 03D9     		bls	.L36
 200:Api\core\src/vl53l0x_api_core.c **** 			Status = VL53L0X_ERROR_TIME_OUT;
 572              		.loc 1 200 0
 573 0080 1723     		movs	r3, #23
 574 0082 FB18     		adds	r3, r7, r3
 575 0084 F922     		movs	r2, #249
 576 0086 1A70     		strb	r2, [r3]
 577              	.L36:
 201:Api\core\src/vl53l0x_api_core.c **** 
 202:Api\core\src/vl53l0x_api_core.c **** 	}
 203:Api\core\src/vl53l0x_api_core.c **** 
 204:Api\core\src/vl53l0x_api_core.c **** 	Status |= VL53L0X_WrByte(Dev, 0x83, 0x01);
 578              		.loc 1 204 0
 579 0088 7B68     		ldr	r3, [r7, #4]
 580 008a 0122     		movs	r2, #1
 581 008c 8321     		movs	r1, #131
 582 008e 1800     		movs	r0, r3
 583 0090 FFF7FEFF 		bl	VL53L0X_WrByte
 584 0094 0300     		movs	r3, r0
 585 0096 1900     		movs	r1, r3
 586 0098 1723     		movs	r3, #23
 587 009a FB18     		adds	r3, r7, r3
 588 009c 1722     		movs	r2, #23
ARM GAS  C:\Users\ilya\AppData\Local\Temp\ccAjPEqD.s 			page 15


 589 009e BA18     		adds	r2, r7, r2
 590 00a0 1278     		ldrb	r2, [r2]
 591 00a2 0A43     		orrs	r2, r1
 592 00a4 1A70     		strb	r2, [r3]
 205:Api\core\src/vl53l0x_api_core.c **** 
 206:Api\core\src/vl53l0x_api_core.c **** 	LOG_FUNCTION_END(Status);
 207:Api\core\src/vl53l0x_api_core.c **** 	return Status;
 593              		.loc 1 207 0
 594 00a6 1723     		movs	r3, #23
 595 00a8 FB18     		adds	r3, r7, r3
 596 00aa 1B78     		ldrb	r3, [r3]
 597 00ac 5BB2     		sxtb	r3, r3
 208:Api\core\src/vl53l0x_api_core.c **** 
 209:Api\core\src/vl53l0x_api_core.c **** }
 598              		.loc 1 209 0
 599 00ae 1800     		movs	r0, r3
 600 00b0 BD46     		mov	sp, r7
 601 00b2 07B0     		add	sp, sp, #28
 602              		@ sp needed
 603 00b4 90BD     		pop	{r4, r7, pc}
 604              	.L41:
 605 00b6 C046     		.align	2
 606              	.L40:
 607 00b8 CF070000 		.word	1999
 608              		.cfi_endproc
 609              	.LFE7:
 610              		.size	VL53L0X_device_read_strobe, .-VL53L0X_device_read_strobe
 611              		.section	.text.VL53L0X_get_info_from_device,"ax",%progbits
 612              		.align	2
 613              		.global	VL53L0X_get_info_from_device
 614              		.code	16
 615              		.thumb_func
 616              		.type	VL53L0X_get_info_from_device, %function
 617              	VL53L0X_get_info_from_device:
 618              	.LFB8:
 210:Api\core\src/vl53l0x_api_core.c **** 
 211:Api\core\src/vl53l0x_api_core.c **** VL53L0X_Error VL53L0X_get_info_from_device(VL53L0X_DEV Dev, uint8_t option)
 212:Api\core\src/vl53l0x_api_core.c **** {
 619              		.loc 1 212 0
 620              		.cfi_startproc
 621              		@ args = 0, pretend = 0, frame = 96
 622              		@ frame_needed = 1, uses_anonymous_args = 0
 623 0000 80B5     		push	{r7, lr}
 624              		.cfi_def_cfa_offset 8
 625              		.cfi_offset 7, -8
 626              		.cfi_offset 14, -4
 627 0002 98B0     		sub	sp, sp, #96
 628              		.cfi_def_cfa_offset 104
 629 0004 00AF     		add	r7, sp, #0
 630              		.cfi_def_cfa_register 7
 631 0006 7860     		str	r0, [r7, #4]
 632 0008 0A00     		movs	r2, r1
 633 000a FB1C     		adds	r3, r7, #3
 634 000c 1A70     		strb	r2, [r3]
 213:Api\core\src/vl53l0x_api_core.c **** 
 214:Api\core\src/vl53l0x_api_core.c **** 	VL53L0X_Error Status = VL53L0X_ERROR_NONE;
 635              		.loc 1 214 0
ARM GAS  C:\Users\ilya\AppData\Local\Temp\ccAjPEqD.s 			page 16


 636 000e 5F23     		movs	r3, #95
 637 0010 FB18     		adds	r3, r7, r3
 638 0012 0022     		movs	r2, #0
 639 0014 1A70     		strb	r2, [r3]
 215:Api\core\src/vl53l0x_api_core.c **** 	uint8_t byte;
 216:Api\core\src/vl53l0x_api_core.c **** 	uint32_t TmpDWord;
 217:Api\core\src/vl53l0x_api_core.c **** 	uint8_t ModuleId;
 218:Api\core\src/vl53l0x_api_core.c **** 	uint8_t Revision;
 219:Api\core\src/vl53l0x_api_core.c **** 	uint8_t ReferenceSpadCount = 0;
 640              		.loc 1 219 0
 641 0016 5E23     		movs	r3, #94
 642 0018 FB18     		adds	r3, r7, r3
 643 001a 0022     		movs	r2, #0
 644 001c 1A70     		strb	r2, [r3]
 220:Api\core\src/vl53l0x_api_core.c **** 	uint8_t ReferenceSpadType = 0;
 645              		.loc 1 220 0
 646 001e 5D23     		movs	r3, #93
 647 0020 FB18     		adds	r3, r7, r3
 648 0022 0022     		movs	r2, #0
 649 0024 1A70     		strb	r2, [r3]
 221:Api\core\src/vl53l0x_api_core.c **** 	uint32_t PartUIDUpper = 0;
 650              		.loc 1 221 0
 651 0026 0023     		movs	r3, #0
 652 0028 BB62     		str	r3, [r7, #40]
 222:Api\core\src/vl53l0x_api_core.c **** 	uint32_t PartUIDLower = 0;
 653              		.loc 1 222 0
 654 002a 0023     		movs	r3, #0
 655 002c 7B62     		str	r3, [r7, #36]
 223:Api\core\src/vl53l0x_api_core.c **** 	uint32_t OffsetFixed1104_mm = 0;
 656              		.loc 1 223 0
 657 002e 0023     		movs	r3, #0
 658 0030 BB64     		str	r3, [r7, #72]
 224:Api\core\src/vl53l0x_api_core.c **** 	int16_t OffsetMicroMeters = 0;
 659              		.loc 1 224 0
 660 0032 5A23     		movs	r3, #90
 661 0034 FB18     		adds	r3, r7, r3
 662 0036 0022     		movs	r2, #0
 663 0038 1A80     		strh	r2, [r3]
 225:Api\core\src/vl53l0x_api_core.c **** 	uint32_t DistMeasTgtFixed1104_mm = 400 << 4;
 664              		.loc 1 225 0
 665 003a C823     		movs	r3, #200
 666 003c 5B01     		lsls	r3, r3, #5
 667 003e 7B64     		str	r3, [r7, #68]
 226:Api\core\src/vl53l0x_api_core.c **** 	uint32_t DistMeasFixed1104_400_mm = 0;
 668              		.loc 1 226 0
 669 0040 0023     		movs	r3, #0
 670 0042 7B65     		str	r3, [r7, #84]
 227:Api\core\src/vl53l0x_api_core.c **** 	uint32_t SignalRateMeasFixed1104_400_mm = 0;
 671              		.loc 1 227 0
 672 0044 0023     		movs	r3, #0
 673 0046 3B65     		str	r3, [r7, #80]
 228:Api\core\src/vl53l0x_api_core.c **** 	char ProductId[19];
 229:Api\core\src/vl53l0x_api_core.c **** 	char *ProductId_tmp;
 230:Api\core\src/vl53l0x_api_core.c **** 	uint8_t ReadDataFromDeviceDone;
 231:Api\core\src/vl53l0x_api_core.c **** 	FixPoint1616_t SignalRateMeasFixed400mmFix = 0;
 674              		.loc 1 231 0
 675 0048 0023     		movs	r3, #0
ARM GAS  C:\Users\ilya\AppData\Local\Temp\ccAjPEqD.s 			page 17


 676 004a 3B64     		str	r3, [r7, #64]
 232:Api\core\src/vl53l0x_api_core.c **** 	uint8_t NvmRefGoodSpadMap[VL53L0X_REF_SPAD_BUFFER_SIZE];
 233:Api\core\src/vl53l0x_api_core.c **** 	int i;
 234:Api\core\src/vl53l0x_api_core.c **** 
 235:Api\core\src/vl53l0x_api_core.c **** 
 236:Api\core\src/vl53l0x_api_core.c **** 	LOG_FUNCTION_START("");
 237:Api\core\src/vl53l0x_api_core.c **** 
 238:Api\core\src/vl53l0x_api_core.c **** 	ReadDataFromDeviceDone = VL53L0X_GETDEVICESPECIFICPARAMETER(Dev,
 677              		.loc 1 238 0
 678 004c 3F23     		movs	r3, #63
 679 004e FB18     		adds	r3, r7, r3
 680 0050 7A68     		ldr	r2, [r7, #4]
 681 0052 F021     		movs	r1, #240
 682 0054 525C     		ldrb	r2, [r2, r1]
 683 0056 1A70     		strb	r2, [r3]
 239:Api\core\src/vl53l0x_api_core.c **** 			ReadDataFromDeviceDone);
 240:Api\core\src/vl53l0x_api_core.c **** 
 241:Api\core\src/vl53l0x_api_core.c **** 	/* This access is done only once after that a GetDeviceInfo or
 242:Api\core\src/vl53l0x_api_core.c **** 	 * datainit is done*/
 243:Api\core\src/vl53l0x_api_core.c **** 	if (ReadDataFromDeviceDone != 7) {
 684              		.loc 1 243 0
 685 0058 3F23     		movs	r3, #63
 686 005a FB18     		adds	r3, r7, r3
 687 005c 1B78     		ldrb	r3, [r3]
 688 005e 072B     		cmp	r3, #7
 689 0060 01D1     		bne	.LCB580
 690 0062 00F0EDFC 		bl	.L43	@far jump
 691              	.LCB580:
 244:Api\core\src/vl53l0x_api_core.c **** 
 245:Api\core\src/vl53l0x_api_core.c **** 		Status |= VL53L0X_WrByte(Dev, 0x80, 0x01);
 692              		.loc 1 245 0
 693 0066 7B68     		ldr	r3, [r7, #4]
 694 0068 0122     		movs	r2, #1
 695 006a 8021     		movs	r1, #128
 696 006c 1800     		movs	r0, r3
 697 006e FFF7FEFF 		bl	VL53L0X_WrByte
 698 0072 0300     		movs	r3, r0
 699 0074 1900     		movs	r1, r3
 700 0076 5F23     		movs	r3, #95
 701 0078 FB18     		adds	r3, r7, r3
 702 007a 5F22     		movs	r2, #95
 703 007c BA18     		adds	r2, r7, r2
 704 007e 1278     		ldrb	r2, [r2]
 705 0080 0A43     		orrs	r2, r1
 706 0082 1A70     		strb	r2, [r3]
 246:Api\core\src/vl53l0x_api_core.c **** 		Status |= VL53L0X_WrByte(Dev, 0xFF, 0x01);
 707              		.loc 1 246 0
 708 0084 7B68     		ldr	r3, [r7, #4]
 709 0086 0122     		movs	r2, #1
 710 0088 FF21     		movs	r1, #255
 711 008a 1800     		movs	r0, r3
 712 008c FFF7FEFF 		bl	VL53L0X_WrByte
 713 0090 0300     		movs	r3, r0
 714 0092 1900     		movs	r1, r3
 715 0094 5F23     		movs	r3, #95
 716 0096 FB18     		adds	r3, r7, r3
 717 0098 5F22     		movs	r2, #95
ARM GAS  C:\Users\ilya\AppData\Local\Temp\ccAjPEqD.s 			page 18


 718 009a BA18     		adds	r2, r7, r2
 719 009c 1278     		ldrb	r2, [r2]
 720 009e 0A43     		orrs	r2, r1
 721 00a0 1A70     		strb	r2, [r3]
 247:Api\core\src/vl53l0x_api_core.c **** 		Status |= VL53L0X_WrByte(Dev, 0x00, 0x00);
 722              		.loc 1 247 0
 723 00a2 7B68     		ldr	r3, [r7, #4]
 724 00a4 0022     		movs	r2, #0
 725 00a6 0021     		movs	r1, #0
 726 00a8 1800     		movs	r0, r3
 727 00aa FFF7FEFF 		bl	VL53L0X_WrByte
 728 00ae 0300     		movs	r3, r0
 729 00b0 1900     		movs	r1, r3
 730 00b2 5F23     		movs	r3, #95
 731 00b4 FB18     		adds	r3, r7, r3
 732 00b6 5F22     		movs	r2, #95
 733 00b8 BA18     		adds	r2, r7, r2
 734 00ba 1278     		ldrb	r2, [r2]
 735 00bc 0A43     		orrs	r2, r1
 736 00be 1A70     		strb	r2, [r3]
 248:Api\core\src/vl53l0x_api_core.c **** 
 249:Api\core\src/vl53l0x_api_core.c **** 		Status |= VL53L0X_WrByte(Dev, 0xFF, 0x06);
 737              		.loc 1 249 0
 738 00c0 7B68     		ldr	r3, [r7, #4]
 739 00c2 0622     		movs	r2, #6
 740 00c4 FF21     		movs	r1, #255
 741 00c6 1800     		movs	r0, r3
 742 00c8 FFF7FEFF 		bl	VL53L0X_WrByte
 743 00cc 0300     		movs	r3, r0
 744 00ce 1900     		movs	r1, r3
 745 00d0 5F23     		movs	r3, #95
 746 00d2 FB18     		adds	r3, r7, r3
 747 00d4 5F22     		movs	r2, #95
 748 00d6 BA18     		adds	r2, r7, r2
 749 00d8 1278     		ldrb	r2, [r2]
 750 00da 0A43     		orrs	r2, r1
 751 00dc 1A70     		strb	r2, [r3]
 250:Api\core\src/vl53l0x_api_core.c **** 		Status |= VL53L0X_RdByte(Dev, 0x83, &byte);
 752              		.loc 1 250 0
 753 00de 3723     		movs	r3, #55
 754 00e0 FA18     		adds	r2, r7, r3
 755 00e2 7B68     		ldr	r3, [r7, #4]
 756 00e4 8321     		movs	r1, #131
 757 00e6 1800     		movs	r0, r3
 758 00e8 FFF7FEFF 		bl	VL53L0X_RdByte
 759 00ec 0300     		movs	r3, r0
 760 00ee 1900     		movs	r1, r3
 761 00f0 5F23     		movs	r3, #95
 762 00f2 FB18     		adds	r3, r7, r3
 763 00f4 5F22     		movs	r2, #95
 764 00f6 BA18     		adds	r2, r7, r2
 765 00f8 1278     		ldrb	r2, [r2]
 766 00fa 0A43     		orrs	r2, r1
 767 00fc 1A70     		strb	r2, [r3]
 251:Api\core\src/vl53l0x_api_core.c **** 		Status |= VL53L0X_WrByte(Dev, 0x83, byte|4);
 768              		.loc 1 251 0
 769 00fe 3723     		movs	r3, #55
ARM GAS  C:\Users\ilya\AppData\Local\Temp\ccAjPEqD.s 			page 19


 770 0100 FB18     		adds	r3, r7, r3
 771 0102 1B78     		ldrb	r3, [r3]
 772 0104 0422     		movs	r2, #4
 773 0106 1343     		orrs	r3, r2
 774 0108 DAB2     		uxtb	r2, r3
 775 010a 7B68     		ldr	r3, [r7, #4]
 776 010c 8321     		movs	r1, #131
 777 010e 1800     		movs	r0, r3
 778 0110 FFF7FEFF 		bl	VL53L0X_WrByte
 779 0114 0300     		movs	r3, r0
 780 0116 1900     		movs	r1, r3
 781 0118 5F23     		movs	r3, #95
 782 011a FB18     		adds	r3, r7, r3
 783 011c 5F22     		movs	r2, #95
 784 011e BA18     		adds	r2, r7, r2
 785 0120 1278     		ldrb	r2, [r2]
 786 0122 0A43     		orrs	r2, r1
 787 0124 1A70     		strb	r2, [r3]
 252:Api\core\src/vl53l0x_api_core.c **** 		Status |= VL53L0X_WrByte(Dev, 0xFF, 0x07);
 788              		.loc 1 252 0
 789 0126 7B68     		ldr	r3, [r7, #4]
 790 0128 0722     		movs	r2, #7
 791 012a FF21     		movs	r1, #255
 792 012c 1800     		movs	r0, r3
 793 012e FFF7FEFF 		bl	VL53L0X_WrByte
 794 0132 0300     		movs	r3, r0
 795 0134 1900     		movs	r1, r3
 796 0136 5F23     		movs	r3, #95
 797 0138 FB18     		adds	r3, r7, r3
 798 013a 5F22     		movs	r2, #95
 799 013c BA18     		adds	r2, r7, r2
 800 013e 1278     		ldrb	r2, [r2]
 801 0140 0A43     		orrs	r2, r1
 802 0142 1A70     		strb	r2, [r3]
 253:Api\core\src/vl53l0x_api_core.c **** 		Status |= VL53L0X_WrByte(Dev, 0x81, 0x01);
 803              		.loc 1 253 0
 804 0144 7B68     		ldr	r3, [r7, #4]
 805 0146 0122     		movs	r2, #1
 806 0148 8121     		movs	r1, #129
 807 014a 1800     		movs	r0, r3
 808 014c FFF7FEFF 		bl	VL53L0X_WrByte
 809 0150 0300     		movs	r3, r0
 810 0152 1900     		movs	r1, r3
 811 0154 5F23     		movs	r3, #95
 812 0156 FB18     		adds	r3, r7, r3
 813 0158 5F22     		movs	r2, #95
 814 015a BA18     		adds	r2, r7, r2
 815 015c 1278     		ldrb	r2, [r2]
 816 015e 0A43     		orrs	r2, r1
 817 0160 1A70     		strb	r2, [r3]
 254:Api\core\src/vl53l0x_api_core.c **** 
 255:Api\core\src/vl53l0x_api_core.c **** 		Status |= VL53L0X_PollingDelay(Dev);
 818              		.loc 1 255 0
 819 0162 7B68     		ldr	r3, [r7, #4]
 820 0164 1800     		movs	r0, r3
 821 0166 FFF7FEFF 		bl	VL53L0X_PollingDelay
 822 016a 0300     		movs	r3, r0
ARM GAS  C:\Users\ilya\AppData\Local\Temp\ccAjPEqD.s 			page 20


 823 016c 1900     		movs	r1, r3
 824 016e 5F23     		movs	r3, #95
 825 0170 FB18     		adds	r3, r7, r3
 826 0172 5F22     		movs	r2, #95
 827 0174 BA18     		adds	r2, r7, r2
 828 0176 1278     		ldrb	r2, [r2]
 829 0178 0A43     		orrs	r2, r1
 830 017a 1A70     		strb	r2, [r3]
 256:Api\core\src/vl53l0x_api_core.c **** 
 257:Api\core\src/vl53l0x_api_core.c **** 		Status |= VL53L0X_WrByte(Dev, 0x80, 0x01);
 831              		.loc 1 257 0
 832 017c 7B68     		ldr	r3, [r7, #4]
 833 017e 0122     		movs	r2, #1
 834 0180 8021     		movs	r1, #128
 835 0182 1800     		movs	r0, r3
 836 0184 FFF7FEFF 		bl	VL53L0X_WrByte
 837 0188 0300     		movs	r3, r0
 838 018a 1900     		movs	r1, r3
 839 018c 5F23     		movs	r3, #95
 840 018e FB18     		adds	r3, r7, r3
 841 0190 5F22     		movs	r2, #95
 842 0192 BA18     		adds	r2, r7, r2
 843 0194 1278     		ldrb	r2, [r2]
 844 0196 0A43     		orrs	r2, r1
 845 0198 1A70     		strb	r2, [r3]
 258:Api\core\src/vl53l0x_api_core.c **** 
 259:Api\core\src/vl53l0x_api_core.c **** 		if (((option & 1) == 1) &&
 846              		.loc 1 259 0
 847 019a FB1C     		adds	r3, r7, #3
 848 019c 1B78     		ldrb	r3, [r3]
 849 019e 0122     		movs	r2, #1
 850 01a0 1340     		ands	r3, r2
 851 01a2 00D1     		bne	.LCB730
 852 01a4 BDE0     		b	.L44	@long jump
 853              	.LCB730:
 260:Api\core\src/vl53l0x_api_core.c **** 			((ReadDataFromDeviceDone & 1) == 0)) {
 854              		.loc 1 260 0 discriminator 1
 855 01a6 3F23     		movs	r3, #63
 856 01a8 FB18     		adds	r3, r7, r3
 857 01aa 1B78     		ldrb	r3, [r3]
 858 01ac 0122     		movs	r2, #1
 859 01ae 1340     		ands	r3, r2
 259:Api\core\src/vl53l0x_api_core.c **** 			((ReadDataFromDeviceDone & 1) == 0)) {
 860              		.loc 1 259 0 discriminator 1
 861 01b0 00D0     		beq	.LCB737
 862 01b2 B6E0     		b	.L44	@long jump
 863              	.LCB737:
 261:Api\core\src/vl53l0x_api_core.c **** 			Status |= VL53L0X_WrByte(Dev, 0x94, 0x6b);
 864              		.loc 1 261 0
 865 01b4 7B68     		ldr	r3, [r7, #4]
 866 01b6 6B22     		movs	r2, #107
 867 01b8 9421     		movs	r1, #148
 868 01ba 1800     		movs	r0, r3
 869 01bc FFF7FEFF 		bl	VL53L0X_WrByte
 870 01c0 0300     		movs	r3, r0
 871 01c2 1900     		movs	r1, r3
 872 01c4 5F23     		movs	r3, #95
ARM GAS  C:\Users\ilya\AppData\Local\Temp\ccAjPEqD.s 			page 21


 873 01c6 FB18     		adds	r3, r7, r3
 874 01c8 5F22     		movs	r2, #95
 875 01ca BA18     		adds	r2, r7, r2
 876 01cc 1278     		ldrb	r2, [r2]
 877 01ce 0A43     		orrs	r2, r1
 878 01d0 1A70     		strb	r2, [r3]
 262:Api\core\src/vl53l0x_api_core.c **** 			Status |= VL53L0X_device_read_strobe(Dev);
 879              		.loc 1 262 0
 880 01d2 7B68     		ldr	r3, [r7, #4]
 881 01d4 1800     		movs	r0, r3
 882 01d6 FFF7FEFF 		bl	VL53L0X_device_read_strobe
 883 01da 0300     		movs	r3, r0
 884 01dc 1900     		movs	r1, r3
 885 01de 5F23     		movs	r3, #95
 886 01e0 FB18     		adds	r3, r7, r3
 887 01e2 5F22     		movs	r2, #95
 888 01e4 BA18     		adds	r2, r7, r2
 889 01e6 1278     		ldrb	r2, [r2]
 890 01e8 0A43     		orrs	r2, r1
 891 01ea 1A70     		strb	r2, [r3]
 263:Api\core\src/vl53l0x_api_core.c **** 			Status |= VL53L0X_RdDWord(Dev, 0x90, &TmpDWord);
 892              		.loc 1 263 0
 893 01ec 3023     		movs	r3, #48
 894 01ee FA18     		adds	r2, r7, r3
 895 01f0 7B68     		ldr	r3, [r7, #4]
 896 01f2 9021     		movs	r1, #144
 897 01f4 1800     		movs	r0, r3
 898 01f6 FFF7FEFF 		bl	VL53L0X_RdDWord
 899 01fa 0300     		movs	r3, r0
 900 01fc 1900     		movs	r1, r3
 901 01fe 5F23     		movs	r3, #95
 902 0200 FB18     		adds	r3, r7, r3
 903 0202 5F22     		movs	r2, #95
 904 0204 BA18     		adds	r2, r7, r2
 905 0206 1278     		ldrb	r2, [r2]
 906 0208 0A43     		orrs	r2, r1
 907 020a 1A70     		strb	r2, [r3]
 264:Api\core\src/vl53l0x_api_core.c **** 
 265:Api\core\src/vl53l0x_api_core.c **** 			ReferenceSpadCount = (uint8_t)((TmpDWord >> 8) & 0x07f);
 908              		.loc 1 265 0
 909 020c 3B6B     		ldr	r3, [r7, #48]
 910 020e 1B0A     		lsrs	r3, r3, #8
 911 0210 DAB2     		uxtb	r2, r3
 912 0212 5E23     		movs	r3, #94
 913 0214 FB18     		adds	r3, r7, r3
 914 0216 7F21     		movs	r1, #127
 915 0218 0A40     		ands	r2, r1
 916 021a 1A70     		strb	r2, [r3]
 266:Api\core\src/vl53l0x_api_core.c **** 			ReferenceSpadType  = (uint8_t)((TmpDWord >> 15) & 0x01);
 917              		.loc 1 266 0
 918 021c 3B6B     		ldr	r3, [r7, #48]
 919 021e DB0B     		lsrs	r3, r3, #15
 920 0220 DAB2     		uxtb	r2, r3
 921 0222 5D23     		movs	r3, #93
 922 0224 FB18     		adds	r3, r7, r3
 923 0226 0121     		movs	r1, #1
 924 0228 0A40     		ands	r2, r1
ARM GAS  C:\Users\ilya\AppData\Local\Temp\ccAjPEqD.s 			page 22


 925 022a 1A70     		strb	r2, [r3]
 267:Api\core\src/vl53l0x_api_core.c **** 
 268:Api\core\src/vl53l0x_api_core.c **** 			Status |= VL53L0X_WrByte(Dev, 0x94, 0x24);
 926              		.loc 1 268 0
 927 022c 7B68     		ldr	r3, [r7, #4]
 928 022e 2422     		movs	r2, #36
 929 0230 9421     		movs	r1, #148
 930 0232 1800     		movs	r0, r3
 931 0234 FFF7FEFF 		bl	VL53L0X_WrByte
 932 0238 0300     		movs	r3, r0
 933 023a 1900     		movs	r1, r3
 934 023c 5F23     		movs	r3, #95
 935 023e FB18     		adds	r3, r7, r3
 936 0240 5F22     		movs	r2, #95
 937 0242 BA18     		adds	r2, r7, r2
 938 0244 1278     		ldrb	r2, [r2]
 939 0246 0A43     		orrs	r2, r1
 940 0248 1A70     		strb	r2, [r3]
 269:Api\core\src/vl53l0x_api_core.c **** 			Status |= VL53L0X_device_read_strobe(Dev);
 941              		.loc 1 269 0
 942 024a 7B68     		ldr	r3, [r7, #4]
 943 024c 1800     		movs	r0, r3
 944 024e FFF7FEFF 		bl	VL53L0X_device_read_strobe
 945 0252 0300     		movs	r3, r0
 946 0254 1900     		movs	r1, r3
 947 0256 5F23     		movs	r3, #95
 948 0258 FB18     		adds	r3, r7, r3
 949 025a 5F22     		movs	r2, #95
 950 025c BA18     		adds	r2, r7, r2
 951 025e 1278     		ldrb	r2, [r2]
 952 0260 0A43     		orrs	r2, r1
 953 0262 1A70     		strb	r2, [r3]
 270:Api\core\src/vl53l0x_api_core.c **** 			Status |= VL53L0X_RdDWord(Dev, 0x90, &TmpDWord);
 954              		.loc 1 270 0
 955 0264 3023     		movs	r3, #48
 956 0266 FA18     		adds	r2, r7, r3
 957 0268 7B68     		ldr	r3, [r7, #4]
 958 026a 9021     		movs	r1, #144
 959 026c 1800     		movs	r0, r3
 960 026e FFF7FEFF 		bl	VL53L0X_RdDWord
 961 0272 0300     		movs	r3, r0
 962 0274 1900     		movs	r1, r3
 963 0276 5F23     		movs	r3, #95
 964 0278 FB18     		adds	r3, r7, r3
 965 027a 5F22     		movs	r2, #95
 966 027c BA18     		adds	r2, r7, r2
 967 027e 1278     		ldrb	r2, [r2]
 968 0280 0A43     		orrs	r2, r1
 969 0282 1A70     		strb	r2, [r3]
 271:Api\core\src/vl53l0x_api_core.c **** 
 272:Api\core\src/vl53l0x_api_core.c **** 
 273:Api\core\src/vl53l0x_api_core.c **** 			NvmRefGoodSpadMap[0] = (uint8_t)((TmpDWord >> 24)
 970              		.loc 1 273 0
 971 0284 3B6B     		ldr	r3, [r7, #48]
 972 0286 1B0E     		lsrs	r3, r3, #24
 973 0288 DAB2     		uxtb	r2, r3
 974 028a 0823     		movs	r3, #8
ARM GAS  C:\Users\ilya\AppData\Local\Temp\ccAjPEqD.s 			page 23


 975 028c FB18     		adds	r3, r7, r3
 976 028e 1A70     		strb	r2, [r3]
 274:Api\core\src/vl53l0x_api_core.c **** 				& 0xff);
 275:Api\core\src/vl53l0x_api_core.c **** 			NvmRefGoodSpadMap[1] = (uint8_t)((TmpDWord >> 16)
 977              		.loc 1 275 0
 978 0290 3B6B     		ldr	r3, [r7, #48]
 979 0292 1B0C     		lsrs	r3, r3, #16
 980 0294 DAB2     		uxtb	r2, r3
 981 0296 0823     		movs	r3, #8
 982 0298 FB18     		adds	r3, r7, r3
 983 029a 5A70     		strb	r2, [r3, #1]
 276:Api\core\src/vl53l0x_api_core.c **** 				& 0xff);
 277:Api\core\src/vl53l0x_api_core.c **** 			NvmRefGoodSpadMap[2] = (uint8_t)((TmpDWord >> 8)
 984              		.loc 1 277 0
 985 029c 3B6B     		ldr	r3, [r7, #48]
 986 029e 1B0A     		lsrs	r3, r3, #8
 987 02a0 DAB2     		uxtb	r2, r3
 988 02a2 0823     		movs	r3, #8
 989 02a4 FB18     		adds	r3, r7, r3
 990 02a6 9A70     		strb	r2, [r3, #2]
 278:Api\core\src/vl53l0x_api_core.c **** 				& 0xff);
 279:Api\core\src/vl53l0x_api_core.c **** 			NvmRefGoodSpadMap[3] = (uint8_t)(TmpDWord & 0xff);
 991              		.loc 1 279 0
 992 02a8 3B6B     		ldr	r3, [r7, #48]
 993 02aa DAB2     		uxtb	r2, r3
 994 02ac 0823     		movs	r3, #8
 995 02ae FB18     		adds	r3, r7, r3
 996 02b0 DA70     		strb	r2, [r3, #3]
 280:Api\core\src/vl53l0x_api_core.c **** 
 281:Api\core\src/vl53l0x_api_core.c **** 			Status |= VL53L0X_WrByte(Dev, 0x94, 0x25);
 997              		.loc 1 281 0
 998 02b2 7B68     		ldr	r3, [r7, #4]
 999 02b4 2522     		movs	r2, #37
 1000 02b6 9421     		movs	r1, #148
 1001 02b8 1800     		movs	r0, r3
 1002 02ba FFF7FEFF 		bl	VL53L0X_WrByte
 1003 02be 0300     		movs	r3, r0
 1004 02c0 1900     		movs	r1, r3
 1005 02c2 5F23     		movs	r3, #95
 1006 02c4 FB18     		adds	r3, r7, r3
 1007 02c6 5F22     		movs	r2, #95
 1008 02c8 BA18     		adds	r2, r7, r2
 1009 02ca 1278     		ldrb	r2, [r2]
 1010 02cc 0A43     		orrs	r2, r1
 1011 02ce 1A70     		strb	r2, [r3]
 282:Api\core\src/vl53l0x_api_core.c **** 			Status |= VL53L0X_device_read_strobe(Dev);
 1012              		.loc 1 282 0
 1013 02d0 7B68     		ldr	r3, [r7, #4]
 1014 02d2 1800     		movs	r0, r3
 1015 02d4 FFF7FEFF 		bl	VL53L0X_device_read_strobe
 1016 02d8 0300     		movs	r3, r0
 1017 02da 1900     		movs	r1, r3
 1018 02dc 5F23     		movs	r3, #95
 1019 02de FB18     		adds	r3, r7, r3
 1020 02e0 5F22     		movs	r2, #95
 1021 02e2 BA18     		adds	r2, r7, r2
 1022 02e4 1278     		ldrb	r2, [r2]
ARM GAS  C:\Users\ilya\AppData\Local\Temp\ccAjPEqD.s 			page 24


 1023 02e6 0A43     		orrs	r2, r1
 1024 02e8 1A70     		strb	r2, [r3]
 283:Api\core\src/vl53l0x_api_core.c **** 			Status |= VL53L0X_RdDWord(Dev, 0x90, &TmpDWord);
 1025              		.loc 1 283 0
 1026 02ea 3023     		movs	r3, #48
 1027 02ec FA18     		adds	r2, r7, r3
 1028 02ee 7B68     		ldr	r3, [r7, #4]
 1029 02f0 9021     		movs	r1, #144
 1030 02f2 1800     		movs	r0, r3
 1031 02f4 FFF7FEFF 		bl	VL53L0X_RdDWord
 1032 02f8 0300     		movs	r3, r0
 1033 02fa 1900     		movs	r1, r3
 1034 02fc 5F23     		movs	r3, #95
 1035 02fe FB18     		adds	r3, r7, r3
 1036 0300 5F22     		movs	r2, #95
 1037 0302 BA18     		adds	r2, r7, r2
 1038 0304 1278     		ldrb	r2, [r2]
 1039 0306 0A43     		orrs	r2, r1
 1040 0308 1A70     		strb	r2, [r3]
 284:Api\core\src/vl53l0x_api_core.c **** 
 285:Api\core\src/vl53l0x_api_core.c **** 			NvmRefGoodSpadMap[4] = (uint8_t)((TmpDWord >> 24)
 1041              		.loc 1 285 0
 1042 030a 3B6B     		ldr	r3, [r7, #48]
 1043 030c 1B0E     		lsrs	r3, r3, #24
 1044 030e DAB2     		uxtb	r2, r3
 1045 0310 0823     		movs	r3, #8
 1046 0312 FB18     		adds	r3, r7, r3
 1047 0314 1A71     		strb	r2, [r3, #4]
 286:Api\core\src/vl53l0x_api_core.c **** 				& 0xff);
 287:Api\core\src/vl53l0x_api_core.c **** 			NvmRefGoodSpadMap[5] = (uint8_t)((TmpDWord >> 16)
 1048              		.loc 1 287 0
 1049 0316 3B6B     		ldr	r3, [r7, #48]
 1050 0318 1B0C     		lsrs	r3, r3, #16
 1051 031a DAB2     		uxtb	r2, r3
 1052 031c 0823     		movs	r3, #8
 1053 031e FB18     		adds	r3, r7, r3
 1054 0320 5A71     		strb	r2, [r3, #5]
 1055              	.L44:
 288:Api\core\src/vl53l0x_api_core.c **** 				& 0xff);
 289:Api\core\src/vl53l0x_api_core.c **** 		}
 290:Api\core\src/vl53l0x_api_core.c **** 
 291:Api\core\src/vl53l0x_api_core.c **** 		if (((option & 2) == 2) &&
 1056              		.loc 1 291 0
 1057 0322 FB1C     		adds	r3, r7, #3
 1058 0324 1B78     		ldrb	r3, [r3]
 1059 0326 0222     		movs	r2, #2
 1060 0328 1340     		ands	r3, r2
 1061 032a 00D1     		bne	.LCB919
 1062 032c E1E1     		b	.L45	@long jump
 1063              	.LCB919:
 292:Api\core\src/vl53l0x_api_core.c **** 			((ReadDataFromDeviceDone & 2) == 0)) {
 1064              		.loc 1 292 0 discriminator 1
 1065 032e 3F23     		movs	r3, #63
 1066 0330 FB18     		adds	r3, r7, r3
 1067 0332 1B78     		ldrb	r3, [r3]
 1068 0334 0222     		movs	r2, #2
 1069 0336 1340     		ands	r3, r2
ARM GAS  C:\Users\ilya\AppData\Local\Temp\ccAjPEqD.s 			page 25


 291:Api\core\src/vl53l0x_api_core.c **** 			((ReadDataFromDeviceDone & 2) == 0)) {
 1070              		.loc 1 291 0 discriminator 1
 1071 0338 00D0     		beq	.LCB926
 1072 033a DAE1     		b	.L45	@long jump
 1073              	.LCB926:
 293:Api\core\src/vl53l0x_api_core.c **** 
 294:Api\core\src/vl53l0x_api_core.c **** 			Status |= VL53L0X_WrByte(Dev, 0x94, 0x02);
 1074              		.loc 1 294 0
 1075 033c 7B68     		ldr	r3, [r7, #4]
 1076 033e 0222     		movs	r2, #2
 1077 0340 9421     		movs	r1, #148
 1078 0342 1800     		movs	r0, r3
 1079 0344 FFF7FEFF 		bl	VL53L0X_WrByte
 1080 0348 0300     		movs	r3, r0
 1081 034a 1900     		movs	r1, r3
 1082 034c 5F23     		movs	r3, #95
 1083 034e FB18     		adds	r3, r7, r3
 1084 0350 5F22     		movs	r2, #95
 1085 0352 BA18     		adds	r2, r7, r2
 1086 0354 1278     		ldrb	r2, [r2]
 1087 0356 0A43     		orrs	r2, r1
 1088 0358 1A70     		strb	r2, [r3]
 295:Api\core\src/vl53l0x_api_core.c **** 			Status |= VL53L0X_device_read_strobe(Dev);
 1089              		.loc 1 295 0
 1090 035a 7B68     		ldr	r3, [r7, #4]
 1091 035c 1800     		movs	r0, r3
 1092 035e FFF7FEFF 		bl	VL53L0X_device_read_strobe
 1093 0362 0300     		movs	r3, r0
 1094 0364 1900     		movs	r1, r3
 1095 0366 5F23     		movs	r3, #95
 1096 0368 FB18     		adds	r3, r7, r3
 1097 036a 5F22     		movs	r2, #95
 1098 036c BA18     		adds	r2, r7, r2
 1099 036e 1278     		ldrb	r2, [r2]
 1100 0370 0A43     		orrs	r2, r1
 1101 0372 1A70     		strb	r2, [r3]
 296:Api\core\src/vl53l0x_api_core.c **** 			Status |= VL53L0X_RdByte(Dev, 0x90, &ModuleId);
 1102              		.loc 1 296 0
 1103 0374 2F23     		movs	r3, #47
 1104 0376 FA18     		adds	r2, r7, r3
 1105 0378 7B68     		ldr	r3, [r7, #4]
 1106 037a 9021     		movs	r1, #144
 1107 037c 1800     		movs	r0, r3
 1108 037e FFF7FEFF 		bl	VL53L0X_RdByte
 1109 0382 0300     		movs	r3, r0
 1110 0384 1900     		movs	r1, r3
 1111 0386 5F23     		movs	r3, #95
 1112 0388 FB18     		adds	r3, r7, r3
 1113 038a 5F22     		movs	r2, #95
 1114 038c BA18     		adds	r2, r7, r2
 1115 038e 1278     		ldrb	r2, [r2]
 1116 0390 0A43     		orrs	r2, r1
 1117 0392 1A70     		strb	r2, [r3]
 297:Api\core\src/vl53l0x_api_core.c **** 
 298:Api\core\src/vl53l0x_api_core.c **** 			Status |= VL53L0X_WrByte(Dev, 0x94, 0x7B);
 1118              		.loc 1 298 0
 1119 0394 7B68     		ldr	r3, [r7, #4]
ARM GAS  C:\Users\ilya\AppData\Local\Temp\ccAjPEqD.s 			page 26


 1120 0396 7B22     		movs	r2, #123
 1121 0398 9421     		movs	r1, #148
 1122 039a 1800     		movs	r0, r3
 1123 039c FFF7FEFF 		bl	VL53L0X_WrByte
 1124 03a0 0300     		movs	r3, r0
 1125 03a2 1900     		movs	r1, r3
 1126 03a4 5F23     		movs	r3, #95
 1127 03a6 FB18     		adds	r3, r7, r3
 1128 03a8 5F22     		movs	r2, #95
 1129 03aa BA18     		adds	r2, r7, r2
 1130 03ac 1278     		ldrb	r2, [r2]
 1131 03ae 0A43     		orrs	r2, r1
 1132 03b0 1A70     		strb	r2, [r3]
 299:Api\core\src/vl53l0x_api_core.c **** 			Status |= VL53L0X_device_read_strobe(Dev);
 1133              		.loc 1 299 0
 1134 03b2 7B68     		ldr	r3, [r7, #4]
 1135 03b4 1800     		movs	r0, r3
 1136 03b6 FFF7FEFF 		bl	VL53L0X_device_read_strobe
 1137 03ba 0300     		movs	r3, r0
 1138 03bc 1900     		movs	r1, r3
 1139 03be 5F23     		movs	r3, #95
 1140 03c0 FB18     		adds	r3, r7, r3
 1141 03c2 5F22     		movs	r2, #95
 1142 03c4 BA18     		adds	r2, r7, r2
 1143 03c6 1278     		ldrb	r2, [r2]
 1144 03c8 0A43     		orrs	r2, r1
 1145 03ca 1A70     		strb	r2, [r3]
 300:Api\core\src/vl53l0x_api_core.c **** 			Status |= VL53L0X_RdByte(Dev, 0x90, &Revision);
 1146              		.loc 1 300 0
 1147 03cc 2E23     		movs	r3, #46
 1148 03ce FA18     		adds	r2, r7, r3
 1149 03d0 7B68     		ldr	r3, [r7, #4]
 1150 03d2 9021     		movs	r1, #144
 1151 03d4 1800     		movs	r0, r3
 1152 03d6 FFF7FEFF 		bl	VL53L0X_RdByte
 1153 03da 0300     		movs	r3, r0
 1154 03dc 1900     		movs	r1, r3
 1155 03de 5F23     		movs	r3, #95
 1156 03e0 FB18     		adds	r3, r7, r3
 1157 03e2 5F22     		movs	r2, #95
 1158 03e4 BA18     		adds	r2, r7, r2
 1159 03e6 1278     		ldrb	r2, [r2]
 1160 03e8 0A43     		orrs	r2, r1
 1161 03ea 1A70     		strb	r2, [r3]
 301:Api\core\src/vl53l0x_api_core.c **** 
 302:Api\core\src/vl53l0x_api_core.c **** 			Status |= VL53L0X_WrByte(Dev, 0x94, 0x77);
 1162              		.loc 1 302 0
 1163 03ec 7B68     		ldr	r3, [r7, #4]
 1164 03ee 7722     		movs	r2, #119
 1165 03f0 9421     		movs	r1, #148
 1166 03f2 1800     		movs	r0, r3
 1167 03f4 FFF7FEFF 		bl	VL53L0X_WrByte
 1168 03f8 0300     		movs	r3, r0
 1169 03fa 1900     		movs	r1, r3
 1170 03fc 5F23     		movs	r3, #95
 1171 03fe FB18     		adds	r3, r7, r3
 1172 0400 5F22     		movs	r2, #95
ARM GAS  C:\Users\ilya\AppData\Local\Temp\ccAjPEqD.s 			page 27


 1173 0402 BA18     		adds	r2, r7, r2
 1174 0404 1278     		ldrb	r2, [r2]
 1175 0406 0A43     		orrs	r2, r1
 1176 0408 1A70     		strb	r2, [r3]
 303:Api\core\src/vl53l0x_api_core.c **** 			Status |= VL53L0X_device_read_strobe(Dev);
 1177              		.loc 1 303 0
 1178 040a 7B68     		ldr	r3, [r7, #4]
 1179 040c 1800     		movs	r0, r3
 1180 040e FFF7FEFF 		bl	VL53L0X_device_read_strobe
 1181 0412 0300     		movs	r3, r0
 1182 0414 1900     		movs	r1, r3
 1183 0416 5F23     		movs	r3, #95
 1184 0418 FB18     		adds	r3, r7, r3
 1185 041a 5F22     		movs	r2, #95
 1186 041c BA18     		adds	r2, r7, r2
 1187 041e 1278     		ldrb	r2, [r2]
 1188 0420 0A43     		orrs	r2, r1
 1189 0422 1A70     		strb	r2, [r3]
 304:Api\core\src/vl53l0x_api_core.c **** 			Status |= VL53L0X_RdDWord(Dev, 0x90, &TmpDWord);
 1190              		.loc 1 304 0
 1191 0424 3023     		movs	r3, #48
 1192 0426 FA18     		adds	r2, r7, r3
 1193 0428 7B68     		ldr	r3, [r7, #4]
 1194 042a 9021     		movs	r1, #144
 1195 042c 1800     		movs	r0, r3
 1196 042e FFF7FEFF 		bl	VL53L0X_RdDWord
 1197 0432 0300     		movs	r3, r0
 1198 0434 1900     		movs	r1, r3
 1199 0436 5F23     		movs	r3, #95
 1200 0438 FB18     		adds	r3, r7, r3
 1201 043a 5F22     		movs	r2, #95
 1202 043c BA18     		adds	r2, r7, r2
 1203 043e 1278     		ldrb	r2, [r2]
 1204 0440 0A43     		orrs	r2, r1
 1205 0442 1A70     		strb	r2, [r3]
 305:Api\core\src/vl53l0x_api_core.c **** 
 306:Api\core\src/vl53l0x_api_core.c **** 			ProductId[0] = (char)((TmpDWord >> 25) & 0x07f);
 1206              		.loc 1 306 0
 1207 0444 3B6B     		ldr	r3, [r7, #48]
 1208 0446 5B0E     		lsrs	r3, r3, #25
 1209 0448 DBB2     		uxtb	r3, r3
 1210 044a 7F22     		movs	r2, #127
 1211 044c 1340     		ands	r3, r2
 1212 044e DAB2     		uxtb	r2, r3
 1213 0450 1023     		movs	r3, #16
 1214 0452 FB18     		adds	r3, r7, r3
 1215 0454 1A70     		strb	r2, [r3]
 307:Api\core\src/vl53l0x_api_core.c **** 			ProductId[1] = (char)((TmpDWord >> 18) & 0x07f);
 1216              		.loc 1 307 0
 1217 0456 3B6B     		ldr	r3, [r7, #48]
 1218 0458 9B0C     		lsrs	r3, r3, #18
 1219 045a DBB2     		uxtb	r3, r3
 1220 045c 7F22     		movs	r2, #127
 1221 045e 1340     		ands	r3, r2
 1222 0460 DAB2     		uxtb	r2, r3
 1223 0462 1023     		movs	r3, #16
 1224 0464 FB18     		adds	r3, r7, r3
ARM GAS  C:\Users\ilya\AppData\Local\Temp\ccAjPEqD.s 			page 28


 1225 0466 5A70     		strb	r2, [r3, #1]
 308:Api\core\src/vl53l0x_api_core.c **** 			ProductId[2] = (char)((TmpDWord >> 11) & 0x07f);
 1226              		.loc 1 308 0
 1227 0468 3B6B     		ldr	r3, [r7, #48]
 1228 046a DB0A     		lsrs	r3, r3, #11
 1229 046c DBB2     		uxtb	r3, r3
 1230 046e 7F22     		movs	r2, #127
 1231 0470 1340     		ands	r3, r2
 1232 0472 DAB2     		uxtb	r2, r3
 1233 0474 1023     		movs	r3, #16
 1234 0476 FB18     		adds	r3, r7, r3
 1235 0478 9A70     		strb	r2, [r3, #2]
 309:Api\core\src/vl53l0x_api_core.c **** 			ProductId[3] = (char)((TmpDWord >> 4) & 0x07f);
 1236              		.loc 1 309 0
 1237 047a 3B6B     		ldr	r3, [r7, #48]
 1238 047c 1B09     		lsrs	r3, r3, #4
 1239 047e DBB2     		uxtb	r3, r3
 1240 0480 7F22     		movs	r2, #127
 1241 0482 1340     		ands	r3, r2
 1242 0484 DAB2     		uxtb	r2, r3
 1243 0486 1023     		movs	r3, #16
 1244 0488 FB18     		adds	r3, r7, r3
 1245 048a DA70     		strb	r2, [r3, #3]
 310:Api\core\src/vl53l0x_api_core.c **** 
 311:Api\core\src/vl53l0x_api_core.c **** 			byte = (uint8_t)((TmpDWord & 0x00f) << 3);
 1246              		.loc 1 311 0
 1247 048c 3B6B     		ldr	r3, [r7, #48]
 1248 048e DBB2     		uxtb	r3, r3
 1249 0490 DB00     		lsls	r3, r3, #3
 1250 0492 DBB2     		uxtb	r3, r3
 1251 0494 7822     		movs	r2, #120
 1252 0496 1340     		ands	r3, r2
 1253 0498 DAB2     		uxtb	r2, r3
 1254 049a 3723     		movs	r3, #55
 1255 049c FB18     		adds	r3, r7, r3
 1256 049e 1A70     		strb	r2, [r3]
 312:Api\core\src/vl53l0x_api_core.c **** 
 313:Api\core\src/vl53l0x_api_core.c **** 			Status |= VL53L0X_WrByte(Dev, 0x94, 0x78);
 1257              		.loc 1 313 0
 1258 04a0 7B68     		ldr	r3, [r7, #4]
 1259 04a2 7822     		movs	r2, #120
 1260 04a4 9421     		movs	r1, #148
 1261 04a6 1800     		movs	r0, r3
 1262 04a8 FFF7FEFF 		bl	VL53L0X_WrByte
 1263 04ac 0300     		movs	r3, r0
 1264 04ae 1900     		movs	r1, r3
 1265 04b0 5F23     		movs	r3, #95
 1266 04b2 FB18     		adds	r3, r7, r3
 1267 04b4 5F22     		movs	r2, #95
 1268 04b6 BA18     		adds	r2, r7, r2
 1269 04b8 1278     		ldrb	r2, [r2]
 1270 04ba 0A43     		orrs	r2, r1
 1271 04bc 1A70     		strb	r2, [r3]
 314:Api\core\src/vl53l0x_api_core.c **** 			Status |= VL53L0X_device_read_strobe(Dev);
 1272              		.loc 1 314 0
 1273 04be 7B68     		ldr	r3, [r7, #4]
 1274 04c0 1800     		movs	r0, r3
ARM GAS  C:\Users\ilya\AppData\Local\Temp\ccAjPEqD.s 			page 29


 1275 04c2 FFF7FEFF 		bl	VL53L0X_device_read_strobe
 1276 04c6 0300     		movs	r3, r0
 1277 04c8 1900     		movs	r1, r3
 1278 04ca 5F23     		movs	r3, #95
 1279 04cc FB18     		adds	r3, r7, r3
 1280 04ce 5F22     		movs	r2, #95
 1281 04d0 BA18     		adds	r2, r7, r2
 1282 04d2 1278     		ldrb	r2, [r2]
 1283 04d4 0A43     		orrs	r2, r1
 1284 04d6 1A70     		strb	r2, [r3]
 315:Api\core\src/vl53l0x_api_core.c **** 			Status |= VL53L0X_RdDWord(Dev, 0x90, &TmpDWord);
 1285              		.loc 1 315 0
 1286 04d8 3023     		movs	r3, #48
 1287 04da FA18     		adds	r2, r7, r3
 1288 04dc 7B68     		ldr	r3, [r7, #4]
 1289 04de 9021     		movs	r1, #144
 1290 04e0 1800     		movs	r0, r3
 1291 04e2 FFF7FEFF 		bl	VL53L0X_RdDWord
 1292 04e6 0300     		movs	r3, r0
 1293 04e8 1900     		movs	r1, r3
 1294 04ea 5F23     		movs	r3, #95
 1295 04ec FB18     		adds	r3, r7, r3
 1296 04ee 5F22     		movs	r2, #95
 1297 04f0 BA18     		adds	r2, r7, r2
 1298 04f2 1278     		ldrb	r2, [r2]
 1299 04f4 0A43     		orrs	r2, r1
 1300 04f6 1A70     		strb	r2, [r3]
 316:Api\core\src/vl53l0x_api_core.c **** 
 317:Api\core\src/vl53l0x_api_core.c **** 			ProductId[4] = (char)(byte +
 318:Api\core\src/vl53l0x_api_core.c **** 					((TmpDWord >> 29) & 0x07f));
 1301              		.loc 1 318 0
 1302 04f8 3B6B     		ldr	r3, [r7, #48]
 1303 04fa 5B0F     		lsrs	r3, r3, #29
 317:Api\core\src/vl53l0x_api_core.c **** 					((TmpDWord >> 29) & 0x07f));
 1304              		.loc 1 317 0
 1305 04fc DBB2     		uxtb	r3, r3
 1306 04fe 7F22     		movs	r2, #127
 1307 0500 1340     		ands	r3, r2
 1308 0502 DAB2     		uxtb	r2, r3
 1309 0504 3723     		movs	r3, #55
 1310 0506 FB18     		adds	r3, r7, r3
 1311 0508 1B78     		ldrb	r3, [r3]
 1312 050a D318     		adds	r3, r2, r3
 1313 050c DAB2     		uxtb	r2, r3
 1314 050e 1023     		movs	r3, #16
 1315 0510 FB18     		adds	r3, r7, r3
 1316 0512 1A71     		strb	r2, [r3, #4]
 319:Api\core\src/vl53l0x_api_core.c **** 			ProductId[5] = (char)((TmpDWord >> 22) & 0x07f);
 1317              		.loc 1 319 0
 1318 0514 3B6B     		ldr	r3, [r7, #48]
 1319 0516 9B0D     		lsrs	r3, r3, #22
 1320 0518 DBB2     		uxtb	r3, r3
 1321 051a 7F22     		movs	r2, #127
 1322 051c 1340     		ands	r3, r2
 1323 051e DAB2     		uxtb	r2, r3
 1324 0520 1023     		movs	r3, #16
 1325 0522 FB18     		adds	r3, r7, r3
ARM GAS  C:\Users\ilya\AppData\Local\Temp\ccAjPEqD.s 			page 30


 1326 0524 5A71     		strb	r2, [r3, #5]
 320:Api\core\src/vl53l0x_api_core.c **** 			ProductId[6] = (char)((TmpDWord >> 15) & 0x07f);
 1327              		.loc 1 320 0
 1328 0526 3B6B     		ldr	r3, [r7, #48]
 1329 0528 DB0B     		lsrs	r3, r3, #15
 1330 052a DBB2     		uxtb	r3, r3
 1331 052c 7F22     		movs	r2, #127
 1332 052e 1340     		ands	r3, r2
 1333 0530 DAB2     		uxtb	r2, r3
 1334 0532 1023     		movs	r3, #16
 1335 0534 FB18     		adds	r3, r7, r3
 1336 0536 9A71     		strb	r2, [r3, #6]
 321:Api\core\src/vl53l0x_api_core.c **** 			ProductId[7] = (char)((TmpDWord >> 8) & 0x07f);
 1337              		.loc 1 321 0
 1338 0538 3B6B     		ldr	r3, [r7, #48]
 1339 053a 1B0A     		lsrs	r3, r3, #8
 1340 053c DBB2     		uxtb	r3, r3
 1341 053e 7F22     		movs	r2, #127
 1342 0540 1340     		ands	r3, r2
 1343 0542 DAB2     		uxtb	r2, r3
 1344 0544 1023     		movs	r3, #16
 1345 0546 FB18     		adds	r3, r7, r3
 1346 0548 DA71     		strb	r2, [r3, #7]
 322:Api\core\src/vl53l0x_api_core.c **** 			ProductId[8] = (char)((TmpDWord >> 1) & 0x07f);
 1347              		.loc 1 322 0
 1348 054a 3B6B     		ldr	r3, [r7, #48]
 1349 054c 5B08     		lsrs	r3, r3, #1
 1350 054e DBB2     		uxtb	r3, r3
 1351 0550 7F22     		movs	r2, #127
 1352 0552 1340     		ands	r3, r2
 1353 0554 DAB2     		uxtb	r2, r3
 1354 0556 1023     		movs	r3, #16
 1355 0558 FB18     		adds	r3, r7, r3
 1356 055a 1A72     		strb	r2, [r3, #8]
 323:Api\core\src/vl53l0x_api_core.c **** 
 324:Api\core\src/vl53l0x_api_core.c **** 			byte = (uint8_t)((TmpDWord & 0x001) << 6);
 1357              		.loc 1 324 0
 1358 055c 3B6B     		ldr	r3, [r7, #48]
 1359 055e DBB2     		uxtb	r3, r3
 1360 0560 9B01     		lsls	r3, r3, #6
 1361 0562 DBB2     		uxtb	r3, r3
 1362 0564 4022     		movs	r2, #64
 1363 0566 1340     		ands	r3, r2
 1364 0568 DAB2     		uxtb	r2, r3
 1365 056a 3723     		movs	r3, #55
 1366 056c FB18     		adds	r3, r7, r3
 1367 056e 1A70     		strb	r2, [r3]
 325:Api\core\src/vl53l0x_api_core.c **** 
 326:Api\core\src/vl53l0x_api_core.c **** 			Status |= VL53L0X_WrByte(Dev, 0x94, 0x79);
 1368              		.loc 1 326 0
 1369 0570 7B68     		ldr	r3, [r7, #4]
 1370 0572 7922     		movs	r2, #121
 1371 0574 9421     		movs	r1, #148
 1372 0576 1800     		movs	r0, r3
 1373 0578 FFF7FEFF 		bl	VL53L0X_WrByte
 1374 057c 0300     		movs	r3, r0
 1375 057e 1900     		movs	r1, r3
ARM GAS  C:\Users\ilya\AppData\Local\Temp\ccAjPEqD.s 			page 31


 1376 0580 5F23     		movs	r3, #95
 1377 0582 FB18     		adds	r3, r7, r3
 1378 0584 5F22     		movs	r2, #95
 1379 0586 BA18     		adds	r2, r7, r2
 1380 0588 1278     		ldrb	r2, [r2]
 1381 058a 0A43     		orrs	r2, r1
 1382 058c 1A70     		strb	r2, [r3]
 327:Api\core\src/vl53l0x_api_core.c **** 
 328:Api\core\src/vl53l0x_api_core.c **** 			Status |= VL53L0X_device_read_strobe(Dev);
 1383              		.loc 1 328 0
 1384 058e 7B68     		ldr	r3, [r7, #4]
 1385 0590 1800     		movs	r0, r3
 1386 0592 FFF7FEFF 		bl	VL53L0X_device_read_strobe
 1387 0596 0300     		movs	r3, r0
 1388 0598 1900     		movs	r1, r3
 1389 059a 5F23     		movs	r3, #95
 1390 059c FB18     		adds	r3, r7, r3
 1391 059e 5F22     		movs	r2, #95
 1392 05a0 BA18     		adds	r2, r7, r2
 1393 05a2 1278     		ldrb	r2, [r2]
 1394 05a4 0A43     		orrs	r2, r1
 1395 05a6 1A70     		strb	r2, [r3]
 329:Api\core\src/vl53l0x_api_core.c **** 
 330:Api\core\src/vl53l0x_api_core.c **** 			Status |= VL53L0X_RdDWord(Dev, 0x90, &TmpDWord);
 1396              		.loc 1 330 0
 1397 05a8 3023     		movs	r3, #48
 1398 05aa FA18     		adds	r2, r7, r3
 1399 05ac 7B68     		ldr	r3, [r7, #4]
 1400 05ae 9021     		movs	r1, #144
 1401 05b0 1800     		movs	r0, r3
 1402 05b2 FFF7FEFF 		bl	VL53L0X_RdDWord
 1403 05b6 0300     		movs	r3, r0
 1404 05b8 1900     		movs	r1, r3
 1405 05ba 5F23     		movs	r3, #95
 1406 05bc FB18     		adds	r3, r7, r3
 1407 05be 5F22     		movs	r2, #95
 1408 05c0 BA18     		adds	r2, r7, r2
 1409 05c2 1278     		ldrb	r2, [r2]
 1410 05c4 0A43     		orrs	r2, r1
 1411 05c6 1A70     		strb	r2, [r3]
 331:Api\core\src/vl53l0x_api_core.c **** 
 332:Api\core\src/vl53l0x_api_core.c **** 			ProductId[9] = (char)(byte +
 333:Api\core\src/vl53l0x_api_core.c **** 					((TmpDWord >> 26) & 0x07f));
 1412              		.loc 1 333 0
 1413 05c8 3B6B     		ldr	r3, [r7, #48]
 1414 05ca 9B0E     		lsrs	r3, r3, #26
 332:Api\core\src/vl53l0x_api_core.c **** 					((TmpDWord >> 26) & 0x07f));
 1415              		.loc 1 332 0
 1416 05cc DBB2     		uxtb	r3, r3
 1417 05ce 7F22     		movs	r2, #127
 1418 05d0 1340     		ands	r3, r2
 1419 05d2 DAB2     		uxtb	r2, r3
 1420 05d4 3723     		movs	r3, #55
 1421 05d6 FB18     		adds	r3, r7, r3
 1422 05d8 1B78     		ldrb	r3, [r3]
 1423 05da D318     		adds	r3, r2, r3
 1424 05dc DAB2     		uxtb	r2, r3
ARM GAS  C:\Users\ilya\AppData\Local\Temp\ccAjPEqD.s 			page 32


 1425 05de 1023     		movs	r3, #16
 1426 05e0 FB18     		adds	r3, r7, r3
 1427 05e2 5A72     		strb	r2, [r3, #9]
 334:Api\core\src/vl53l0x_api_core.c **** 			ProductId[10] = (char)((TmpDWord >> 19) & 0x07f);
 1428              		.loc 1 334 0
 1429 05e4 3B6B     		ldr	r3, [r7, #48]
 1430 05e6 DB0C     		lsrs	r3, r3, #19
 1431 05e8 DBB2     		uxtb	r3, r3
 1432 05ea 7F22     		movs	r2, #127
 1433 05ec 1340     		ands	r3, r2
 1434 05ee DAB2     		uxtb	r2, r3
 1435 05f0 1023     		movs	r3, #16
 1436 05f2 FB18     		adds	r3, r7, r3
 1437 05f4 9A72     		strb	r2, [r3, #10]
 335:Api\core\src/vl53l0x_api_core.c **** 			ProductId[11] = (char)((TmpDWord >> 12) & 0x07f);
 1438              		.loc 1 335 0
 1439 05f6 3B6B     		ldr	r3, [r7, #48]
 1440 05f8 1B0B     		lsrs	r3, r3, #12
 1441 05fa DBB2     		uxtb	r3, r3
 1442 05fc 7F22     		movs	r2, #127
 1443 05fe 1340     		ands	r3, r2
 1444 0600 DAB2     		uxtb	r2, r3
 1445 0602 1023     		movs	r3, #16
 1446 0604 FB18     		adds	r3, r7, r3
 1447 0606 DA72     		strb	r2, [r3, #11]
 336:Api\core\src/vl53l0x_api_core.c **** 			ProductId[12] = (char)((TmpDWord >> 5) & 0x07f);
 1448              		.loc 1 336 0
 1449 0608 3B6B     		ldr	r3, [r7, #48]
 1450 060a 5B09     		lsrs	r3, r3, #5
 1451 060c DBB2     		uxtb	r3, r3
 1452 060e 7F22     		movs	r2, #127
 1453 0610 1340     		ands	r3, r2
 1454 0612 DAB2     		uxtb	r2, r3
 1455 0614 1023     		movs	r3, #16
 1456 0616 FB18     		adds	r3, r7, r3
 1457 0618 1A73     		strb	r2, [r3, #12]
 337:Api\core\src/vl53l0x_api_core.c **** 
 338:Api\core\src/vl53l0x_api_core.c **** 			byte = (uint8_t)((TmpDWord & 0x01f) << 2);
 1458              		.loc 1 338 0
 1459 061a 3B6B     		ldr	r3, [r7, #48]
 1460 061c DBB2     		uxtb	r3, r3
 1461 061e 9B00     		lsls	r3, r3, #2
 1462 0620 DBB2     		uxtb	r3, r3
 1463 0622 7C22     		movs	r2, #124
 1464 0624 1340     		ands	r3, r2
 1465 0626 DAB2     		uxtb	r2, r3
 1466 0628 3723     		movs	r3, #55
 1467 062a FB18     		adds	r3, r7, r3
 1468 062c 1A70     		strb	r2, [r3]
 339:Api\core\src/vl53l0x_api_core.c **** 
 340:Api\core\src/vl53l0x_api_core.c **** 			Status |= VL53L0X_WrByte(Dev, 0x94, 0x7A);
 1469              		.loc 1 340 0
 1470 062e 7B68     		ldr	r3, [r7, #4]
 1471 0630 7A22     		movs	r2, #122
 1472 0632 9421     		movs	r1, #148
 1473 0634 1800     		movs	r0, r3
 1474 0636 FFF7FEFF 		bl	VL53L0X_WrByte
ARM GAS  C:\Users\ilya\AppData\Local\Temp\ccAjPEqD.s 			page 33


 1475 063a 0300     		movs	r3, r0
 1476 063c 1900     		movs	r1, r3
 1477 063e 5F23     		movs	r3, #95
 1478 0640 FB18     		adds	r3, r7, r3
 1479 0642 5F22     		movs	r2, #95
 1480 0644 BA18     		adds	r2, r7, r2
 1481 0646 1278     		ldrb	r2, [r2]
 1482 0648 0A43     		orrs	r2, r1
 1483 064a 1A70     		strb	r2, [r3]
 341:Api\core\src/vl53l0x_api_core.c **** 
 342:Api\core\src/vl53l0x_api_core.c **** 			Status |= VL53L0X_device_read_strobe(Dev);
 1484              		.loc 1 342 0
 1485 064c 7B68     		ldr	r3, [r7, #4]
 1486 064e 1800     		movs	r0, r3
 1487 0650 FFF7FEFF 		bl	VL53L0X_device_read_strobe
 1488 0654 0300     		movs	r3, r0
 1489 0656 1900     		movs	r1, r3
 1490 0658 5F23     		movs	r3, #95
 1491 065a FB18     		adds	r3, r7, r3
 1492 065c 5F22     		movs	r2, #95
 1493 065e BA18     		adds	r2, r7, r2
 1494 0660 1278     		ldrb	r2, [r2]
 1495 0662 0A43     		orrs	r2, r1
 1496 0664 1A70     		strb	r2, [r3]
 343:Api\core\src/vl53l0x_api_core.c **** 
 344:Api\core\src/vl53l0x_api_core.c **** 			Status |= VL53L0X_RdDWord(Dev, 0x90, &TmpDWord);
 1497              		.loc 1 344 0
 1498 0666 3023     		movs	r3, #48
 1499 0668 FA18     		adds	r2, r7, r3
 1500 066a 7B68     		ldr	r3, [r7, #4]
 1501 066c 9021     		movs	r1, #144
 1502 066e 1800     		movs	r0, r3
 1503 0670 FFF7FEFF 		bl	VL53L0X_RdDWord
 1504 0674 0300     		movs	r3, r0
 1505 0676 1900     		movs	r1, r3
 1506 0678 5F23     		movs	r3, #95
 1507 067a FB18     		adds	r3, r7, r3
 1508 067c 5F22     		movs	r2, #95
 1509 067e BA18     		adds	r2, r7, r2
 1510 0680 1278     		ldrb	r2, [r2]
 1511 0682 0A43     		orrs	r2, r1
 1512 0684 1A70     		strb	r2, [r3]
 345:Api\core\src/vl53l0x_api_core.c **** 
 346:Api\core\src/vl53l0x_api_core.c **** 			ProductId[13] = (char)(byte +
 347:Api\core\src/vl53l0x_api_core.c **** 					((TmpDWord >> 30) & 0x07f));
 1513              		.loc 1 347 0
 1514 0686 3B6B     		ldr	r3, [r7, #48]
 1515 0688 9B0F     		lsrs	r3, r3, #30
 346:Api\core\src/vl53l0x_api_core.c **** 					((TmpDWord >> 30) & 0x07f));
 1516              		.loc 1 346 0
 1517 068a DBB2     		uxtb	r3, r3
 1518 068c 7F22     		movs	r2, #127
 1519 068e 1340     		ands	r3, r2
 1520 0690 DAB2     		uxtb	r2, r3
 1521 0692 3723     		movs	r3, #55
 1522 0694 FB18     		adds	r3, r7, r3
 1523 0696 1B78     		ldrb	r3, [r3]
ARM GAS  C:\Users\ilya\AppData\Local\Temp\ccAjPEqD.s 			page 34


 1524 0698 D318     		adds	r3, r2, r3
 1525 069a DAB2     		uxtb	r2, r3
 1526 069c 1023     		movs	r3, #16
 1527 069e FB18     		adds	r3, r7, r3
 1528 06a0 5A73     		strb	r2, [r3, #13]
 348:Api\core\src/vl53l0x_api_core.c **** 			ProductId[14] = (char)((TmpDWord >> 23) & 0x07f);
 1529              		.loc 1 348 0
 1530 06a2 3B6B     		ldr	r3, [r7, #48]
 1531 06a4 DB0D     		lsrs	r3, r3, #23
 1532 06a6 DBB2     		uxtb	r3, r3
 1533 06a8 7F22     		movs	r2, #127
 1534 06aa 1340     		ands	r3, r2
 1535 06ac DAB2     		uxtb	r2, r3
 1536 06ae 1023     		movs	r3, #16
 1537 06b0 FB18     		adds	r3, r7, r3
 1538 06b2 9A73     		strb	r2, [r3, #14]
 349:Api\core\src/vl53l0x_api_core.c **** 			ProductId[15] = (char)((TmpDWord >> 16) & 0x07f);
 1539              		.loc 1 349 0
 1540 06b4 3B6B     		ldr	r3, [r7, #48]
 1541 06b6 1B0C     		lsrs	r3, r3, #16
 1542 06b8 DBB2     		uxtb	r3, r3
 1543 06ba 7F22     		movs	r2, #127
 1544 06bc 1340     		ands	r3, r2
 1545 06be DAB2     		uxtb	r2, r3
 1546 06c0 1023     		movs	r3, #16
 1547 06c2 FB18     		adds	r3, r7, r3
 1548 06c4 DA73     		strb	r2, [r3, #15]
 350:Api\core\src/vl53l0x_api_core.c **** 			ProductId[16] = (char)((TmpDWord >> 9) & 0x07f);
 1549              		.loc 1 350 0
 1550 06c6 3B6B     		ldr	r3, [r7, #48]
 1551 06c8 5B0A     		lsrs	r3, r3, #9
 1552 06ca DBB2     		uxtb	r3, r3
 1553 06cc 7F22     		movs	r2, #127
 1554 06ce 1340     		ands	r3, r2
 1555 06d0 DAB2     		uxtb	r2, r3
 1556 06d2 1023     		movs	r3, #16
 1557 06d4 FB18     		adds	r3, r7, r3
 1558 06d6 1A74     		strb	r2, [r3, #16]
 351:Api\core\src/vl53l0x_api_core.c **** 			ProductId[17] = (char)((TmpDWord >> 2) & 0x07f);
 1559              		.loc 1 351 0
 1560 06d8 3B6B     		ldr	r3, [r7, #48]
 1561 06da 9B08     		lsrs	r3, r3, #2
 1562 06dc DBB2     		uxtb	r3, r3
 1563 06de 7F22     		movs	r2, #127
 1564 06e0 1340     		ands	r3, r2
 1565 06e2 DAB2     		uxtb	r2, r3
 1566 06e4 1023     		movs	r3, #16
 1567 06e6 FB18     		adds	r3, r7, r3
 1568 06e8 5A74     		strb	r2, [r3, #17]
 352:Api\core\src/vl53l0x_api_core.c **** 			ProductId[18] = '\0';
 1569              		.loc 1 352 0
 1570 06ea 1023     		movs	r3, #16
 1571 06ec FB18     		adds	r3, r7, r3
 1572 06ee 0022     		movs	r2, #0
 1573 06f0 9A74     		strb	r2, [r3, #18]
 1574              	.L45:
 353:Api\core\src/vl53l0x_api_core.c **** 
ARM GAS  C:\Users\ilya\AppData\Local\Temp\ccAjPEqD.s 			page 35


 354:Api\core\src/vl53l0x_api_core.c **** 		}
 355:Api\core\src/vl53l0x_api_core.c **** 
 356:Api\core\src/vl53l0x_api_core.c **** 		if (((option & 4) == 4) &&
 1575              		.loc 1 356 0
 1576 06f2 FB1C     		adds	r3, r7, #3
 1577 06f4 1B78     		ldrb	r3, [r3]
 1578 06f6 0422     		movs	r2, #4
 1579 06f8 1340     		ands	r3, r2
 1580 06fa 00D1     		bne	.LCB1391
 1581 06fc 22E1     		b	.L46	@long jump
 1582              	.LCB1391:
 357:Api\core\src/vl53l0x_api_core.c **** 			((ReadDataFromDeviceDone & 4) == 0)) {
 1583              		.loc 1 357 0 discriminator 1
 1584 06fe 3F23     		movs	r3, #63
 1585 0700 FB18     		adds	r3, r7, r3
 1586 0702 1B78     		ldrb	r3, [r3]
 1587 0704 0422     		movs	r2, #4
 1588 0706 1340     		ands	r3, r2
 356:Api\core\src/vl53l0x_api_core.c **** 			((ReadDataFromDeviceDone & 4) == 0)) {
 1589              		.loc 1 356 0 discriminator 1
 1590 0708 00D0     		beq	.LCB1398
 1591 070a 1BE1     		b	.L46	@long jump
 1592              	.LCB1398:
 358:Api\core\src/vl53l0x_api_core.c **** 
 359:Api\core\src/vl53l0x_api_core.c **** 			Status |= VL53L0X_WrByte(Dev, 0x94, 0x7B);
 1593              		.loc 1 359 0
 1594 070c 7B68     		ldr	r3, [r7, #4]
 1595 070e 7B22     		movs	r2, #123
 1596 0710 9421     		movs	r1, #148
 1597 0712 1800     		movs	r0, r3
 1598 0714 FFF7FEFF 		bl	VL53L0X_WrByte
 1599 0718 0300     		movs	r3, r0
 1600 071a 1900     		movs	r1, r3
 1601 071c 5F23     		movs	r3, #95
 1602 071e FB18     		adds	r3, r7, r3
 1603 0720 5F22     		movs	r2, #95
 1604 0722 BA18     		adds	r2, r7, r2
 1605 0724 1278     		ldrb	r2, [r2]
 1606 0726 0A43     		orrs	r2, r1
 1607 0728 1A70     		strb	r2, [r3]
 360:Api\core\src/vl53l0x_api_core.c **** 			Status |= VL53L0X_device_read_strobe(Dev);
 1608              		.loc 1 360 0
 1609 072a 7B68     		ldr	r3, [r7, #4]
 1610 072c 1800     		movs	r0, r3
 1611 072e FFF7FEFF 		bl	VL53L0X_device_read_strobe
 1612 0732 0300     		movs	r3, r0
 1613 0734 1900     		movs	r1, r3
 1614 0736 5F23     		movs	r3, #95
 1615 0738 FB18     		adds	r3, r7, r3
 1616 073a 5F22     		movs	r2, #95
 1617 073c BA18     		adds	r2, r7, r2
 1618 073e 1278     		ldrb	r2, [r2]
 1619 0740 0A43     		orrs	r2, r1
 1620 0742 1A70     		strb	r2, [r3]
 361:Api\core\src/vl53l0x_api_core.c **** 			Status |= VL53L0X_RdDWord(Dev, 0x90, &PartUIDUpper);
 1621              		.loc 1 361 0
 1622 0744 2823     		movs	r3, #40
ARM GAS  C:\Users\ilya\AppData\Local\Temp\ccAjPEqD.s 			page 36


 1623 0746 FA18     		adds	r2, r7, r3
 1624 0748 7B68     		ldr	r3, [r7, #4]
 1625 074a 9021     		movs	r1, #144
 1626 074c 1800     		movs	r0, r3
 1627 074e FFF7FEFF 		bl	VL53L0X_RdDWord
 1628 0752 0300     		movs	r3, r0
 1629 0754 1900     		movs	r1, r3
 1630 0756 5F23     		movs	r3, #95
 1631 0758 FB18     		adds	r3, r7, r3
 1632 075a 5F22     		movs	r2, #95
 1633 075c BA18     		adds	r2, r7, r2
 1634 075e 1278     		ldrb	r2, [r2]
 1635 0760 0A43     		orrs	r2, r1
 1636 0762 1A70     		strb	r2, [r3]
 362:Api\core\src/vl53l0x_api_core.c **** 
 363:Api\core\src/vl53l0x_api_core.c **** 			Status |= VL53L0X_WrByte(Dev, 0x94, 0x7C);
 1637              		.loc 1 363 0
 1638 0764 7B68     		ldr	r3, [r7, #4]
 1639 0766 7C22     		movs	r2, #124
 1640 0768 9421     		movs	r1, #148
 1641 076a 1800     		movs	r0, r3
 1642 076c FFF7FEFF 		bl	VL53L0X_WrByte
 1643 0770 0300     		movs	r3, r0
 1644 0772 1900     		movs	r1, r3
 1645 0774 5F23     		movs	r3, #95
 1646 0776 FB18     		adds	r3, r7, r3
 1647 0778 5F22     		movs	r2, #95
 1648 077a BA18     		adds	r2, r7, r2
 1649 077c 1278     		ldrb	r2, [r2]
 1650 077e 0A43     		orrs	r2, r1
 1651 0780 1A70     		strb	r2, [r3]
 364:Api\core\src/vl53l0x_api_core.c **** 			Status |= VL53L0X_device_read_strobe(Dev);
 1652              		.loc 1 364 0
 1653 0782 7B68     		ldr	r3, [r7, #4]
 1654 0784 1800     		movs	r0, r3
 1655 0786 FFF7FEFF 		bl	VL53L0X_device_read_strobe
 1656 078a 0300     		movs	r3, r0
 1657 078c 1900     		movs	r1, r3
 1658 078e 5F23     		movs	r3, #95
 1659 0790 FB18     		adds	r3, r7, r3
 1660 0792 5F22     		movs	r2, #95
 1661 0794 BA18     		adds	r2, r7, r2
 1662 0796 1278     		ldrb	r2, [r2]
 1663 0798 0A43     		orrs	r2, r1
 1664 079a 1A70     		strb	r2, [r3]
 365:Api\core\src/vl53l0x_api_core.c **** 			Status |= VL53L0X_RdDWord(Dev, 0x90, &PartUIDLower);
 1665              		.loc 1 365 0
 1666 079c 2423     		movs	r3, #36
 1667 079e FA18     		adds	r2, r7, r3
 1668 07a0 7B68     		ldr	r3, [r7, #4]
 1669 07a2 9021     		movs	r1, #144
 1670 07a4 1800     		movs	r0, r3
 1671 07a6 FFF7FEFF 		bl	VL53L0X_RdDWord
 1672 07aa 0300     		movs	r3, r0
 1673 07ac 1900     		movs	r1, r3
 1674 07ae 5F23     		movs	r3, #95
 1675 07b0 FB18     		adds	r3, r7, r3
ARM GAS  C:\Users\ilya\AppData\Local\Temp\ccAjPEqD.s 			page 37


 1676 07b2 5F22     		movs	r2, #95
 1677 07b4 BA18     		adds	r2, r7, r2
 1678 07b6 1278     		ldrb	r2, [r2]
 1679 07b8 0A43     		orrs	r2, r1
 1680 07ba 1A70     		strb	r2, [r3]
 366:Api\core\src/vl53l0x_api_core.c **** 
 367:Api\core\src/vl53l0x_api_core.c **** 			Status |= VL53L0X_WrByte(Dev, 0x94, 0x73);
 1681              		.loc 1 367 0
 1682 07bc 7B68     		ldr	r3, [r7, #4]
 1683 07be 7322     		movs	r2, #115
 1684 07c0 9421     		movs	r1, #148
 1685 07c2 1800     		movs	r0, r3
 1686 07c4 FFF7FEFF 		bl	VL53L0X_WrByte
 1687 07c8 0300     		movs	r3, r0
 1688 07ca 1900     		movs	r1, r3
 1689 07cc 5F23     		movs	r3, #95
 1690 07ce FB18     		adds	r3, r7, r3
 1691 07d0 5F22     		movs	r2, #95
 1692 07d2 BA18     		adds	r2, r7, r2
 1693 07d4 1278     		ldrb	r2, [r2]
 1694 07d6 0A43     		orrs	r2, r1
 1695 07d8 1A70     		strb	r2, [r3]
 368:Api\core\src/vl53l0x_api_core.c **** 			Status |= VL53L0X_device_read_strobe(Dev);
 1696              		.loc 1 368 0
 1697 07da 7B68     		ldr	r3, [r7, #4]
 1698 07dc 1800     		movs	r0, r3
 1699 07de FFF7FEFF 		bl	VL53L0X_device_read_strobe
 1700 07e2 0300     		movs	r3, r0
 1701 07e4 1900     		movs	r1, r3
 1702 07e6 5F23     		movs	r3, #95
 1703 07e8 FB18     		adds	r3, r7, r3
 1704 07ea 5F22     		movs	r2, #95
 1705 07ec BA18     		adds	r2, r7, r2
 1706 07ee 1278     		ldrb	r2, [r2]
 1707 07f0 0A43     		orrs	r2, r1
 1708 07f2 1A70     		strb	r2, [r3]
 369:Api\core\src/vl53l0x_api_core.c **** 			Status |= VL53L0X_RdDWord(Dev, 0x90, &TmpDWord);
 1709              		.loc 1 369 0
 1710 07f4 3023     		movs	r3, #48
 1711 07f6 FA18     		adds	r2, r7, r3
 1712 07f8 7B68     		ldr	r3, [r7, #4]
 1713 07fa 9021     		movs	r1, #144
 1714 07fc 1800     		movs	r0, r3
 1715 07fe FFF7FEFF 		bl	VL53L0X_RdDWord
 1716 0802 0300     		movs	r3, r0
 1717 0804 1900     		movs	r1, r3
 1718 0806 5F23     		movs	r3, #95
 1719 0808 FB18     		adds	r3, r7, r3
 1720 080a 5F22     		movs	r2, #95
 1721 080c BA18     		adds	r2, r7, r2
 1722 080e 1278     		ldrb	r2, [r2]
 1723 0810 0A43     		orrs	r2, r1
 1724 0812 1A70     		strb	r2, [r3]
 370:Api\core\src/vl53l0x_api_core.c **** 
 371:Api\core\src/vl53l0x_api_core.c **** 			SignalRateMeasFixed1104_400_mm = (TmpDWord &
 372:Api\core\src/vl53l0x_api_core.c **** 				0x0000000ff) << 8;
 1725              		.loc 1 372 0
ARM GAS  C:\Users\ilya\AppData\Local\Temp\ccAjPEqD.s 			page 38


 1726 0814 3B6B     		ldr	r3, [r7, #48]
 1727 0816 1B02     		lsls	r3, r3, #8
 371:Api\core\src/vl53l0x_api_core.c **** 				0x0000000ff) << 8;
 1728              		.loc 1 371 0
 1729 0818 1B04     		lsls	r3, r3, #16
 1730 081a 1B0C     		lsrs	r3, r3, #16
 1731 081c 3B65     		str	r3, [r7, #80]
 373:Api\core\src/vl53l0x_api_core.c **** 
 374:Api\core\src/vl53l0x_api_core.c **** 			Status |= VL53L0X_WrByte(Dev, 0x94, 0x74);
 1732              		.loc 1 374 0
 1733 081e 7B68     		ldr	r3, [r7, #4]
 1734 0820 7422     		movs	r2, #116
 1735 0822 9421     		movs	r1, #148
 1736 0824 1800     		movs	r0, r3
 1737 0826 FFF7FEFF 		bl	VL53L0X_WrByte
 1738 082a 0300     		movs	r3, r0
 1739 082c 1900     		movs	r1, r3
 1740 082e 5F23     		movs	r3, #95
 1741 0830 FB18     		adds	r3, r7, r3
 1742 0832 5F22     		movs	r2, #95
 1743 0834 BA18     		adds	r2, r7, r2
 1744 0836 1278     		ldrb	r2, [r2]
 1745 0838 0A43     		orrs	r2, r1
 1746 083a 1A70     		strb	r2, [r3]
 375:Api\core\src/vl53l0x_api_core.c **** 			Status |= VL53L0X_device_read_strobe(Dev);
 1747              		.loc 1 375 0
 1748 083c 7B68     		ldr	r3, [r7, #4]
 1749 083e 1800     		movs	r0, r3
 1750 0840 FFF7FEFF 		bl	VL53L0X_device_read_strobe
 1751 0844 0300     		movs	r3, r0
 1752 0846 1900     		movs	r1, r3
 1753 0848 5F23     		movs	r3, #95
 1754 084a FB18     		adds	r3, r7, r3
 1755 084c 5F22     		movs	r2, #95
 1756 084e BA18     		adds	r2, r7, r2
 1757 0850 1278     		ldrb	r2, [r2]
 1758 0852 0A43     		orrs	r2, r1
 1759 0854 1A70     		strb	r2, [r3]
 376:Api\core\src/vl53l0x_api_core.c **** 			Status |= VL53L0X_RdDWord(Dev, 0x90, &TmpDWord);
 1760              		.loc 1 376 0
 1761 0856 3023     		movs	r3, #48
 1762 0858 FA18     		adds	r2, r7, r3
 1763 085a 7B68     		ldr	r3, [r7, #4]
 1764 085c 9021     		movs	r1, #144
 1765 085e 1800     		movs	r0, r3
 1766 0860 FFF7FEFF 		bl	VL53L0X_RdDWord
 1767 0864 0300     		movs	r3, r0
 1768 0866 1900     		movs	r1, r3
 1769 0868 5F23     		movs	r3, #95
 1770 086a FB18     		adds	r3, r7, r3
 1771 086c 5F22     		movs	r2, #95
 1772 086e BA18     		adds	r2, r7, r2
 1773 0870 1278     		ldrb	r2, [r2]
 1774 0872 0A43     		orrs	r2, r1
 1775 0874 1A70     		strb	r2, [r3]
 377:Api\core\src/vl53l0x_api_core.c **** 
 378:Api\core\src/vl53l0x_api_core.c **** 			SignalRateMeasFixed1104_400_mm |= ((TmpDWord &
ARM GAS  C:\Users\ilya\AppData\Local\Temp\ccAjPEqD.s 			page 39


 379:Api\core\src/vl53l0x_api_core.c **** 				0xff000000) >> 24);
 1776              		.loc 1 379 0
 1777 0876 3B6B     		ldr	r3, [r7, #48]
 1778 0878 1B0E     		lsrs	r3, r3, #24
 378:Api\core\src/vl53l0x_api_core.c **** 				0xff000000) >> 24);
 1779              		.loc 1 378 0
 1780 087a 3A6D     		ldr	r2, [r7, #80]
 1781 087c 1343     		orrs	r3, r2
 1782 087e 3B65     		str	r3, [r7, #80]
 380:Api\core\src/vl53l0x_api_core.c **** 
 381:Api\core\src/vl53l0x_api_core.c **** 			Status |= VL53L0X_WrByte(Dev, 0x94, 0x75);
 1783              		.loc 1 381 0
 1784 0880 7B68     		ldr	r3, [r7, #4]
 1785 0882 7522     		movs	r2, #117
 1786 0884 9421     		movs	r1, #148
 1787 0886 1800     		movs	r0, r3
 1788 0888 FFF7FEFF 		bl	VL53L0X_WrByte
 1789 088c 0300     		movs	r3, r0
 1790 088e 1900     		movs	r1, r3
 1791 0890 5F23     		movs	r3, #95
 1792 0892 FB18     		adds	r3, r7, r3
 1793 0894 5F22     		movs	r2, #95
 1794 0896 BA18     		adds	r2, r7, r2
 1795 0898 1278     		ldrb	r2, [r2]
 1796 089a 0A43     		orrs	r2, r1
 1797 089c 1A70     		strb	r2, [r3]
 382:Api\core\src/vl53l0x_api_core.c **** 			Status |= VL53L0X_device_read_strobe(Dev);
 1798              		.loc 1 382 0
 1799 089e 7B68     		ldr	r3, [r7, #4]
 1800 08a0 1800     		movs	r0, r3
 1801 08a2 FFF7FEFF 		bl	VL53L0X_device_read_strobe
 1802 08a6 0300     		movs	r3, r0
 1803 08a8 1900     		movs	r1, r3
 1804 08aa 5F23     		movs	r3, #95
 1805 08ac FB18     		adds	r3, r7, r3
 1806 08ae 5F22     		movs	r2, #95
 1807 08b0 BA18     		adds	r2, r7, r2
 1808 08b2 1278     		ldrb	r2, [r2]
 1809 08b4 0A43     		orrs	r2, r1
 1810 08b6 1A70     		strb	r2, [r3]
 383:Api\core\src/vl53l0x_api_core.c **** 			Status |= VL53L0X_RdDWord(Dev, 0x90, &TmpDWord);
 1811              		.loc 1 383 0
 1812 08b8 3023     		movs	r3, #48
 1813 08ba FA18     		adds	r2, r7, r3
 1814 08bc 7B68     		ldr	r3, [r7, #4]
 1815 08be 9021     		movs	r1, #144
 1816 08c0 1800     		movs	r0, r3
 1817 08c2 FFF7FEFF 		bl	VL53L0X_RdDWord
 1818 08c6 0300     		movs	r3, r0
 1819 08c8 1900     		movs	r1, r3
 1820 08ca 5F23     		movs	r3, #95
 1821 08cc FB18     		adds	r3, r7, r3
 1822 08ce 5F22     		movs	r2, #95
 1823 08d0 BA18     		adds	r2, r7, r2
 1824 08d2 1278     		ldrb	r2, [r2]
 1825 08d4 0A43     		orrs	r2, r1
 1826 08d6 1A70     		strb	r2, [r3]
ARM GAS  C:\Users\ilya\AppData\Local\Temp\ccAjPEqD.s 			page 40


 384:Api\core\src/vl53l0x_api_core.c **** 
 385:Api\core\src/vl53l0x_api_core.c **** 			DistMeasFixed1104_400_mm = (TmpDWord & 0x0000000ff)
 386:Api\core\src/vl53l0x_api_core.c **** 							<< 8;
 1827              		.loc 1 386 0
 1828 08d8 3B6B     		ldr	r3, [r7, #48]
 1829 08da 1B02     		lsls	r3, r3, #8
 385:Api\core\src/vl53l0x_api_core.c **** 							<< 8;
 1830              		.loc 1 385 0
 1831 08dc 1B04     		lsls	r3, r3, #16
 1832 08de 1B0C     		lsrs	r3, r3, #16
 1833 08e0 7B65     		str	r3, [r7, #84]
 387:Api\core\src/vl53l0x_api_core.c **** 
 388:Api\core\src/vl53l0x_api_core.c **** 			Status |= VL53L0X_WrByte(Dev, 0x94, 0x76);
 1834              		.loc 1 388 0
 1835 08e2 7B68     		ldr	r3, [r7, #4]
 1836 08e4 7622     		movs	r2, #118
 1837 08e6 9421     		movs	r1, #148
 1838 08e8 1800     		movs	r0, r3
 1839 08ea FFF7FEFF 		bl	VL53L0X_WrByte
 1840 08ee 0300     		movs	r3, r0
 1841 08f0 1900     		movs	r1, r3
 1842 08f2 5F23     		movs	r3, #95
 1843 08f4 FB18     		adds	r3, r7, r3
 1844 08f6 5F22     		movs	r2, #95
 1845 08f8 BA18     		adds	r2, r7, r2
 1846 08fa 1278     		ldrb	r2, [r2]
 1847 08fc 0A43     		orrs	r2, r1
 1848 08fe 1A70     		strb	r2, [r3]
 389:Api\core\src/vl53l0x_api_core.c **** 			Status |= VL53L0X_device_read_strobe(Dev);
 1849              		.loc 1 389 0
 1850 0900 7B68     		ldr	r3, [r7, #4]
 1851 0902 1800     		movs	r0, r3
 1852 0904 FFF7FEFF 		bl	VL53L0X_device_read_strobe
 1853 0908 0300     		movs	r3, r0
 1854 090a 1900     		movs	r1, r3
 1855 090c 5F23     		movs	r3, #95
 1856 090e FB18     		adds	r3, r7, r3
 1857 0910 5F22     		movs	r2, #95
 1858 0912 BA18     		adds	r2, r7, r2
 1859 0914 1278     		ldrb	r2, [r2]
 1860 0916 0A43     		orrs	r2, r1
 1861 0918 1A70     		strb	r2, [r3]
 390:Api\core\src/vl53l0x_api_core.c **** 			Status |= VL53L0X_RdDWord(Dev, 0x90, &TmpDWord);
 1862              		.loc 1 390 0
 1863 091a 3023     		movs	r3, #48
 1864 091c FA18     		adds	r2, r7, r3
 1865 091e 7B68     		ldr	r3, [r7, #4]
 1866 0920 9021     		movs	r1, #144
 1867 0922 1800     		movs	r0, r3
 1868 0924 FFF7FEFF 		bl	VL53L0X_RdDWord
 1869 0928 0300     		movs	r3, r0
 1870 092a 1900     		movs	r1, r3
 1871 092c 5F23     		movs	r3, #95
 1872 092e FB18     		adds	r3, r7, r3
 1873 0930 5F22     		movs	r2, #95
 1874 0932 BA18     		adds	r2, r7, r2
 1875 0934 1278     		ldrb	r2, [r2]
ARM GAS  C:\Users\ilya\AppData\Local\Temp\ccAjPEqD.s 			page 41


 1876 0936 0A43     		orrs	r2, r1
 1877 0938 1A70     		strb	r2, [r3]
 391:Api\core\src/vl53l0x_api_core.c **** 
 392:Api\core\src/vl53l0x_api_core.c **** 			DistMeasFixed1104_400_mm |= ((TmpDWord & 0xff000000)
 393:Api\core\src/vl53l0x_api_core.c **** 							>> 24);
 1878              		.loc 1 393 0
 1879 093a 3B6B     		ldr	r3, [r7, #48]
 1880 093c 1B0E     		lsrs	r3, r3, #24
 392:Api\core\src/vl53l0x_api_core.c **** 							>> 24);
 1881              		.loc 1 392 0
 1882 093e 7A6D     		ldr	r2, [r7, #84]
 1883 0940 1343     		orrs	r3, r2
 1884 0942 7B65     		str	r3, [r7, #84]
 1885              	.L46:
 394:Api\core\src/vl53l0x_api_core.c **** 		}
 395:Api\core\src/vl53l0x_api_core.c **** 
 396:Api\core\src/vl53l0x_api_core.c **** 		Status |= VL53L0X_WrByte(Dev, 0x81, 0x00);
 1886              		.loc 1 396 0
 1887 0944 7B68     		ldr	r3, [r7, #4]
 1888 0946 0022     		movs	r2, #0
 1889 0948 8121     		movs	r1, #129
 1890 094a 1800     		movs	r0, r3
 1891 094c FFF7FEFF 		bl	VL53L0X_WrByte
 1892 0950 0300     		movs	r3, r0
 1893 0952 1900     		movs	r1, r3
 1894 0954 5F23     		movs	r3, #95
 1895 0956 FB18     		adds	r3, r7, r3
 1896 0958 5F22     		movs	r2, #95
 1897 095a BA18     		adds	r2, r7, r2
 1898 095c 1278     		ldrb	r2, [r2]
 1899 095e 0A43     		orrs	r2, r1
 1900 0960 1A70     		strb	r2, [r3]
 397:Api\core\src/vl53l0x_api_core.c **** 		Status |= VL53L0X_WrByte(Dev, 0xFF, 0x06);
 1901              		.loc 1 397 0
 1902 0962 7B68     		ldr	r3, [r7, #4]
 1903 0964 0622     		movs	r2, #6
 1904 0966 FF21     		movs	r1, #255
 1905 0968 1800     		movs	r0, r3
 1906 096a FFF7FEFF 		bl	VL53L0X_WrByte
 1907 096e 0300     		movs	r3, r0
 1908 0970 1900     		movs	r1, r3
 1909 0972 5F23     		movs	r3, #95
 1910 0974 FB18     		adds	r3, r7, r3
 1911 0976 5F22     		movs	r2, #95
 1912 0978 BA18     		adds	r2, r7, r2
 1913 097a 1278     		ldrb	r2, [r2]
 1914 097c 0A43     		orrs	r2, r1
 1915 097e 1A70     		strb	r2, [r3]
 398:Api\core\src/vl53l0x_api_core.c **** 		Status |= VL53L0X_RdByte(Dev, 0x83, &byte);
 1916              		.loc 1 398 0
 1917 0980 3723     		movs	r3, #55
 1918 0982 FA18     		adds	r2, r7, r3
 1919 0984 7B68     		ldr	r3, [r7, #4]
 1920 0986 8321     		movs	r1, #131
 1921 0988 1800     		movs	r0, r3
 1922 098a FFF7FEFF 		bl	VL53L0X_RdByte
 1923 098e 0300     		movs	r3, r0
ARM GAS  C:\Users\ilya\AppData\Local\Temp\ccAjPEqD.s 			page 42


 1924 0990 1900     		movs	r1, r3
 1925 0992 5F23     		movs	r3, #95
 1926 0994 FB18     		adds	r3, r7, r3
 1927 0996 5F22     		movs	r2, #95
 1928 0998 BA18     		adds	r2, r7, r2
 1929 099a 1278     		ldrb	r2, [r2]
 1930 099c 0A43     		orrs	r2, r1
 1931 099e 1A70     		strb	r2, [r3]
 399:Api\core\src/vl53l0x_api_core.c **** 		Status |= VL53L0X_WrByte(Dev, 0x83, byte&0xfb);
 1932              		.loc 1 399 0
 1933 09a0 3723     		movs	r3, #55
 1934 09a2 FB18     		adds	r3, r7, r3
 1935 09a4 1B78     		ldrb	r3, [r3]
 1936 09a6 0422     		movs	r2, #4
 1937 09a8 9343     		bics	r3, r2
 1938 09aa DAB2     		uxtb	r2, r3
 1939 09ac 7B68     		ldr	r3, [r7, #4]
 1940 09ae 8321     		movs	r1, #131
 1941 09b0 1800     		movs	r0, r3
 1942 09b2 FFF7FEFF 		bl	VL53L0X_WrByte
 1943 09b6 0300     		movs	r3, r0
 1944 09b8 1900     		movs	r1, r3
 1945 09ba 5F23     		movs	r3, #95
 1946 09bc FB18     		adds	r3, r7, r3
 1947 09be 5F22     		movs	r2, #95
 1948 09c0 BA18     		adds	r2, r7, r2
 1949 09c2 1278     		ldrb	r2, [r2]
 1950 09c4 0A43     		orrs	r2, r1
 1951 09c6 1A70     		strb	r2, [r3]
 400:Api\core\src/vl53l0x_api_core.c **** 		Status |= VL53L0X_WrByte(Dev, 0xFF, 0x01);
 1952              		.loc 1 400 0
 1953 09c8 7B68     		ldr	r3, [r7, #4]
 1954 09ca 0122     		movs	r2, #1
 1955 09cc FF21     		movs	r1, #255
 1956 09ce 1800     		movs	r0, r3
 1957 09d0 FFF7FEFF 		bl	VL53L0X_WrByte
 1958 09d4 0300     		movs	r3, r0
 1959 09d6 1900     		movs	r1, r3
 1960 09d8 5F23     		movs	r3, #95
 1961 09da FB18     		adds	r3, r7, r3
 1962 09dc 5F22     		movs	r2, #95
 1963 09de BA18     		adds	r2, r7, r2
 1964 09e0 1278     		ldrb	r2, [r2]
 1965 09e2 0A43     		orrs	r2, r1
 1966 09e4 1A70     		strb	r2, [r3]
 401:Api\core\src/vl53l0x_api_core.c **** 		Status |= VL53L0X_WrByte(Dev, 0x00, 0x01);
 1967              		.loc 1 401 0
 1968 09e6 7B68     		ldr	r3, [r7, #4]
 1969 09e8 0122     		movs	r2, #1
 1970 09ea 0021     		movs	r1, #0
 1971 09ec 1800     		movs	r0, r3
 1972 09ee FFF7FEFF 		bl	VL53L0X_WrByte
 1973 09f2 0300     		movs	r3, r0
 1974 09f4 1900     		movs	r1, r3
 1975 09f6 5F23     		movs	r3, #95
 1976 09f8 FB18     		adds	r3, r7, r3
 1977 09fa 5F22     		movs	r2, #95
ARM GAS  C:\Users\ilya\AppData\Local\Temp\ccAjPEqD.s 			page 43


 1978 09fc BA18     		adds	r2, r7, r2
 1979 09fe 1278     		ldrb	r2, [r2]
 1980 0a00 0A43     		orrs	r2, r1
 1981 0a02 1A70     		strb	r2, [r3]
 402:Api\core\src/vl53l0x_api_core.c **** 
 403:Api\core\src/vl53l0x_api_core.c **** 		Status |= VL53L0X_WrByte(Dev, 0xFF, 0x00);
 1982              		.loc 1 403 0
 1983 0a04 7B68     		ldr	r3, [r7, #4]
 1984 0a06 0022     		movs	r2, #0
 1985 0a08 FF21     		movs	r1, #255
 1986 0a0a 1800     		movs	r0, r3
 1987 0a0c FFF7FEFF 		bl	VL53L0X_WrByte
 1988 0a10 0300     		movs	r3, r0
 1989 0a12 1900     		movs	r1, r3
 1990 0a14 5F23     		movs	r3, #95
 1991 0a16 FB18     		adds	r3, r7, r3
 1992 0a18 5F22     		movs	r2, #95
 1993 0a1a BA18     		adds	r2, r7, r2
 1994 0a1c 1278     		ldrb	r2, [r2]
 1995 0a1e 0A43     		orrs	r2, r1
 1996 0a20 1A70     		strb	r2, [r3]
 404:Api\core\src/vl53l0x_api_core.c **** 		Status |= VL53L0X_WrByte(Dev, 0x80, 0x00);
 1997              		.loc 1 404 0
 1998 0a22 7B68     		ldr	r3, [r7, #4]
 1999 0a24 0022     		movs	r2, #0
 2000 0a26 8021     		movs	r1, #128
 2001 0a28 1800     		movs	r0, r3
 2002 0a2a FFF7FEFF 		bl	VL53L0X_WrByte
 2003 0a2e 0300     		movs	r3, r0
 2004 0a30 1900     		movs	r1, r3
 2005 0a32 5F23     		movs	r3, #95
 2006 0a34 FB18     		adds	r3, r7, r3
 2007 0a36 5F22     		movs	r2, #95
 2008 0a38 BA18     		adds	r2, r7, r2
 2009 0a3a 1278     		ldrb	r2, [r2]
 2010 0a3c 0A43     		orrs	r2, r1
 2011 0a3e 1A70     		strb	r2, [r3]
 2012              	.L43:
 405:Api\core\src/vl53l0x_api_core.c **** 	}
 406:Api\core\src/vl53l0x_api_core.c **** 
 407:Api\core\src/vl53l0x_api_core.c **** 	if ((Status == VL53L0X_ERROR_NONE) &&
 2013              		.loc 1 407 0
 2014 0a40 5F23     		movs	r3, #95
 2015 0a42 FB18     		adds	r3, r7, r3
 2016 0a44 1B78     		ldrb	r3, [r3]
 2017 0a46 5BB2     		sxtb	r3, r3
 2018 0a48 002B     		cmp	r3, #0
 2019 0a4a 00D0     		beq	.LCB1792
 2020 0a4c A3E0     		b	.L47	@long jump
 2021              	.LCB1792:
 2022              		.loc 1 407 0 is_stmt 0 discriminator 1
 2023 0a4e 3F23     		movs	r3, #63
 2024 0a50 FB18     		adds	r3, r7, r3
 2025 0a52 1B78     		ldrb	r3, [r3]
 2026 0a54 072B     		cmp	r3, #7
 2027 0a56 00D1     		bne	.LCB1797
 2028 0a58 9DE0     		b	.L47	@long jump
ARM GAS  C:\Users\ilya\AppData\Local\Temp\ccAjPEqD.s 			page 44


 2029              	.LCB1797:
 408:Api\core\src/vl53l0x_api_core.c **** 		(ReadDataFromDeviceDone != 7)) {
 409:Api\core\src/vl53l0x_api_core.c **** 		/* Assign to variable if status is ok */
 410:Api\core\src/vl53l0x_api_core.c **** 		if (((option & 1) == 1) &&
 2030              		.loc 1 410 0 is_stmt 1
 2031 0a5a FB1C     		adds	r3, r7, #3
 2032 0a5c 1B78     		ldrb	r3, [r3]
 2033 0a5e 0122     		movs	r2, #1
 2034 0a60 1340     		ands	r3, r2
 2035 0a62 29D0     		beq	.L48
 411:Api\core\src/vl53l0x_api_core.c **** 			((ReadDataFromDeviceDone & 1) == 0)) {
 2036              		.loc 1 411 0 discriminator 1
 2037 0a64 3F23     		movs	r3, #63
 2038 0a66 FB18     		adds	r3, r7, r3
 2039 0a68 1B78     		ldrb	r3, [r3]
 2040 0a6a 0122     		movs	r2, #1
 2041 0a6c 1340     		ands	r3, r2
 410:Api\core\src/vl53l0x_api_core.c **** 			((ReadDataFromDeviceDone & 1) == 0)) {
 2042              		.loc 1 410 0 discriminator 1
 2043 0a6e 23D1     		bne	.L48
 412:Api\core\src/vl53l0x_api_core.c **** 			VL53L0X_SETDEVICESPECIFICPARAMETER(Dev,
 2044              		.loc 1 412 0
 2045 0a70 7A68     		ldr	r2, [r7, #4]
 2046 0a72 5E23     		movs	r3, #94
 2047 0a74 F918     		adds	r1, r7, r3
 2048 0a76 1423     		movs	r3, #20
 2049 0a78 FF33     		adds	r3, r3, #255
 2050 0a7a 0978     		ldrb	r1, [r1]
 2051 0a7c D154     		strb	r1, [r2, r3]
 413:Api\core\src/vl53l0x_api_core.c **** 				ReferenceSpadCount, ReferenceSpadCount);
 414:Api\core\src/vl53l0x_api_core.c **** 
 415:Api\core\src/vl53l0x_api_core.c **** 			VL53L0X_SETDEVICESPECIFICPARAMETER(Dev,
 2052              		.loc 1 415 0
 2053 0a7e 7A68     		ldr	r2, [r7, #4]
 2054 0a80 5D23     		movs	r3, #93
 2055 0a82 F918     		adds	r1, r7, r3
 2056 0a84 8A23     		movs	r3, #138
 2057 0a86 5B00     		lsls	r3, r3, #1
 2058 0a88 0978     		ldrb	r1, [r1]
 2059 0a8a D154     		strb	r1, [r2, r3]
 416:Api\core\src/vl53l0x_api_core.c **** 				ReferenceSpadType, ReferenceSpadType);
 417:Api\core\src/vl53l0x_api_core.c **** 
 418:Api\core\src/vl53l0x_api_core.c **** 			for (i = 0; i < VL53L0X_REF_SPAD_BUFFER_SIZE; i++) {
 2060              		.loc 1 418 0
 2061 0a8c 0023     		movs	r3, #0
 2062 0a8e FB64     		str	r3, [r7, #76]
 2063 0a90 0FE0     		b	.L49
 2064              	.L50:
 419:Api\core\src/vl53l0x_api_core.c **** 				Dev->Data.SpadData.RefGoodSpadMap[i] =
 420:Api\core\src/vl53l0x_api_core.c **** 					NvmRefGoodSpadMap[i];
 2065              		.loc 1 420 0 discriminator 3
 2066 0a92 0823     		movs	r3, #8
 2067 0a94 FA18     		adds	r2, r7, r3
 2068 0a96 FB6C     		ldr	r3, [r7, #76]
 2069 0a98 D318     		adds	r3, r2, r3
 2070 0a9a 1878     		ldrb	r0, [r3]
 419:Api\core\src/vl53l0x_api_core.c **** 				Dev->Data.SpadData.RefGoodSpadMap[i] =
ARM GAS  C:\Users\ilya\AppData\Local\Temp\ccAjPEqD.s 			page 45


 2071              		.loc 1 419 0 discriminator 3
 2072 0a9c 7968     		ldr	r1, [r7, #4]
 2073 0a9e 9523     		movs	r3, #149
 2074 0aa0 5B00     		lsls	r3, r3, #1
 2075 0aa2 FA6C     		ldr	r2, [r7, #76]
 2076 0aa4 8A18     		adds	r2, r1, r2
 2077 0aa6 D318     		adds	r3, r2, r3
 2078 0aa8 021C     		adds	r2, r0, #0
 2079 0aaa 1A70     		strb	r2, [r3]
 418:Api\core\src/vl53l0x_api_core.c **** 				Dev->Data.SpadData.RefGoodSpadMap[i] =
 2080              		.loc 1 418 0 discriminator 3
 2081 0aac FB6C     		ldr	r3, [r7, #76]
 2082 0aae 0133     		adds	r3, r3, #1
 2083 0ab0 FB64     		str	r3, [r7, #76]
 2084              	.L49:
 418:Api\core\src/vl53l0x_api_core.c **** 				Dev->Data.SpadData.RefGoodSpadMap[i] =
 2085              		.loc 1 418 0 is_stmt 0 discriminator 1
 2086 0ab2 FB6C     		ldr	r3, [r7, #76]
 2087 0ab4 052B     		cmp	r3, #5
 2088 0ab6 ECDD     		ble	.L50
 2089              	.L48:
 421:Api\core\src/vl53l0x_api_core.c **** 			}
 422:Api\core\src/vl53l0x_api_core.c **** 		}
 423:Api\core\src/vl53l0x_api_core.c **** 
 424:Api\core\src/vl53l0x_api_core.c **** 		if (((option & 2) == 2) &&
 2090              		.loc 1 424 0 is_stmt 1
 2091 0ab8 FB1C     		adds	r3, r7, #3
 2092 0aba 1B78     		ldrb	r3, [r3]
 2093 0abc 0222     		movs	r2, #2
 2094 0abe 1340     		ands	r3, r2
 2095 0ac0 1BD0     		beq	.L51
 425:Api\core\src/vl53l0x_api_core.c **** 			((ReadDataFromDeviceDone & 2) == 0)) {
 2096              		.loc 1 425 0 discriminator 1
 2097 0ac2 3F23     		movs	r3, #63
 2098 0ac4 FB18     		adds	r3, r7, r3
 2099 0ac6 1B78     		ldrb	r3, [r3]
 2100 0ac8 0222     		movs	r2, #2
 2101 0aca 1340     		ands	r3, r2
 424:Api\core\src/vl53l0x_api_core.c **** 			((ReadDataFromDeviceDone & 2) == 0)) {
 2102              		.loc 1 424 0 discriminator 1
 2103 0acc 15D1     		bne	.L51
 426:Api\core\src/vl53l0x_api_core.c **** 			VL53L0X_SETDEVICESPECIFICPARAMETER(Dev,
 2104              		.loc 1 426 0
 2105 0ace 2F23     		movs	r3, #47
 2106 0ad0 FB18     		adds	r3, r7, r3
 2107 0ad2 1978     		ldrb	r1, [r3]
 2108 0ad4 7B68     		ldr	r3, [r7, #4]
 2109 0ad6 F122     		movs	r2, #241
 2110 0ad8 9954     		strb	r1, [r3, r2]
 427:Api\core\src/vl53l0x_api_core.c **** 					ModuleId, ModuleId);
 428:Api\core\src/vl53l0x_api_core.c **** 
 429:Api\core\src/vl53l0x_api_core.c **** 			VL53L0X_SETDEVICESPECIFICPARAMETER(Dev,
 2111              		.loc 1 429 0
 2112 0ada 2E23     		movs	r3, #46
 2113 0adc FB18     		adds	r3, r7, r3
 2114 0ade 1978     		ldrb	r1, [r3]
 2115 0ae0 7B68     		ldr	r3, [r7, #4]
ARM GAS  C:\Users\ilya\AppData\Local\Temp\ccAjPEqD.s 			page 46


 2116 0ae2 F222     		movs	r2, #242
 2117 0ae4 9954     		strb	r1, [r3, r2]
 430:Api\core\src/vl53l0x_api_core.c **** 					Revision, Revision);
 431:Api\core\src/vl53l0x_api_core.c **** 
 432:Api\core\src/vl53l0x_api_core.c **** 			ProductId_tmp = VL53L0X_GETDEVICESPECIFICPARAMETER(Dev,
 2118              		.loc 1 432 0
 2119 0ae6 7B68     		ldr	r3, [r7, #4]
 2120 0ae8 F333     		adds	r3, r3, #243
 2121 0aea BB63     		str	r3, [r7, #56]
 433:Api\core\src/vl53l0x_api_core.c **** 					ProductId);
 434:Api\core\src/vl53l0x_api_core.c **** 			VL53L0X_COPYSTRING(ProductId_tmp, ProductId);
 2122              		.loc 1 434 0
 2123 0aec 1023     		movs	r3, #16
 2124 0aee FA18     		adds	r2, r7, r3
 2125 0af0 BB6B     		ldr	r3, [r7, #56]
 2126 0af2 1100     		movs	r1, r2
 2127 0af4 1800     		movs	r0, r3
 2128 0af6 FFF7FEFF 		bl	strcpy
 2129              	.L51:
 435:Api\core\src/vl53l0x_api_core.c **** 
 436:Api\core\src/vl53l0x_api_core.c **** 		}
 437:Api\core\src/vl53l0x_api_core.c **** 
 438:Api\core\src/vl53l0x_api_core.c **** 		if (((option & 4) == 4) &&
 2130              		.loc 1 438 0
 2131 0afa FB1C     		adds	r3, r7, #3
 2132 0afc 1B78     		ldrb	r3, [r3]
 2133 0afe 0422     		movs	r2, #4
 2134 0b00 1340     		ands	r3, r2
 2135 0b02 38D0     		beq	.L52
 439:Api\core\src/vl53l0x_api_core.c **** 			((ReadDataFromDeviceDone & 4) == 0)) {
 2136              		.loc 1 439 0 discriminator 1
 2137 0b04 3F23     		movs	r3, #63
 2138 0b06 FB18     		adds	r3, r7, r3
 2139 0b08 1B78     		ldrb	r3, [r3]
 2140 0b0a 0422     		movs	r2, #4
 2141 0b0c 1340     		ands	r3, r2
 438:Api\core\src/vl53l0x_api_core.c **** 			((ReadDataFromDeviceDone & 4) == 0)) {
 2142              		.loc 1 438 0 discriminator 1
 2143 0b0e 32D1     		bne	.L52
 440:Api\core\src/vl53l0x_api_core.c **** 			VL53L0X_SETDEVICESPECIFICPARAMETER(Dev,
 2144              		.loc 1 440 0
 2145 0b10 B96A     		ldr	r1, [r7, #40]
 2146 0b12 7A68     		ldr	r2, [r7, #4]
 2147 0b14 8C23     		movs	r3, #140
 2148 0b16 5B00     		lsls	r3, r3, #1
 2149 0b18 D150     		str	r1, [r2, r3]
 441:Api\core\src/vl53l0x_api_core.c **** 						PartUIDUpper, PartUIDUpper);
 442:Api\core\src/vl53l0x_api_core.c **** 
 443:Api\core\src/vl53l0x_api_core.c **** 			VL53L0X_SETDEVICESPECIFICPARAMETER(Dev,
 2150              		.loc 1 443 0
 2151 0b1a 796A     		ldr	r1, [r7, #36]
 2152 0b1c 7A68     		ldr	r2, [r7, #4]
 2153 0b1e 8E23     		movs	r3, #142
 2154 0b20 5B00     		lsls	r3, r3, #1
 2155 0b22 D150     		str	r1, [r2, r3]
 444:Api\core\src/vl53l0x_api_core.c **** 						PartUIDLower, PartUIDLower);
 445:Api\core\src/vl53l0x_api_core.c **** 
ARM GAS  C:\Users\ilya\AppData\Local\Temp\ccAjPEqD.s 			page 47


 446:Api\core\src/vl53l0x_api_core.c **** 			SignalRateMeasFixed400mmFix =
 2156              		.loc 1 446 0
 2157 0b24 3B6D     		ldr	r3, [r7, #80]
 2158 0b26 5B02     		lsls	r3, r3, #9
 2159 0b28 3B64     		str	r3, [r7, #64]
 447:Api\core\src/vl53l0x_api_core.c **** 				VL53L0X_FIXPOINT97TOFIXPOINT1616(
 448:Api\core\src/vl53l0x_api_core.c **** 					SignalRateMeasFixed1104_400_mm);
 449:Api\core\src/vl53l0x_api_core.c **** 
 450:Api\core\src/vl53l0x_api_core.c **** 			VL53L0X_SETDEVICESPECIFICPARAMETER(Dev,
 2160              		.loc 1 450 0
 2161 0b2a 7A68     		ldr	r2, [r7, #4]
 2162 0b2c 9023     		movs	r3, #144
 2163 0b2e 5B00     		lsls	r3, r3, #1
 2164 0b30 396C     		ldr	r1, [r7, #64]
 2165 0b32 D150     		str	r1, [r2, r3]
 451:Api\core\src/vl53l0x_api_core.c **** 				SignalRateMeasFixed400mm,
 452:Api\core\src/vl53l0x_api_core.c **** 				SignalRateMeasFixed400mmFix);
 453:Api\core\src/vl53l0x_api_core.c **** 
 454:Api\core\src/vl53l0x_api_core.c **** 			OffsetMicroMeters = 0;
 2166              		.loc 1 454 0
 2167 0b34 5A23     		movs	r3, #90
 2168 0b36 FB18     		adds	r3, r7, r3
 2169 0b38 0022     		movs	r2, #0
 2170 0b3a 1A80     		strh	r2, [r3]
 455:Api\core\src/vl53l0x_api_core.c **** 			if (DistMeasFixed1104_400_mm != 0) {
 2171              		.loc 1 455 0
 2172 0b3c 7B6D     		ldr	r3, [r7, #84]
 2173 0b3e 002B     		cmp	r3, #0
 2174 0b40 13D0     		beq	.L53
 456:Api\core\src/vl53l0x_api_core.c **** 					OffsetFixed1104_mm =
 2175              		.loc 1 456 0
 2176 0b42 7A6D     		ldr	r2, [r7, #84]
 2177 0b44 7B6C     		ldr	r3, [r7, #68]
 2178 0b46 D31A     		subs	r3, r2, r3
 2179 0b48 BB64     		str	r3, [r7, #72]
 457:Api\core\src/vl53l0x_api_core.c **** 						DistMeasFixed1104_400_mm -
 458:Api\core\src/vl53l0x_api_core.c **** 						DistMeasTgtFixed1104_mm;
 459:Api\core\src/vl53l0x_api_core.c **** 					OffsetMicroMeters = (OffsetFixed1104_mm
 460:Api\core\src/vl53l0x_api_core.c **** 						* 1000) >> 4;
 2180              		.loc 1 460 0
 2181 0b4a BB6C     		ldr	r3, [r7, #72]
 2182 0b4c FA22     		movs	r2, #250
 2183 0b4e 9200     		lsls	r2, r2, #2
 2184 0b50 5343     		muls	r3, r2
 2185 0b52 1A09     		lsrs	r2, r3, #4
 459:Api\core\src/vl53l0x_api_core.c **** 						* 1000) >> 4;
 2186              		.loc 1 459 0
 2187 0b54 5A23     		movs	r3, #90
 2188 0b56 FB18     		adds	r3, r7, r3
 2189 0b58 1A80     		strh	r2, [r3]
 461:Api\core\src/vl53l0x_api_core.c **** 					OffsetMicroMeters *= -1;
 2190              		.loc 1 461 0
 2191 0b5a 5A23     		movs	r3, #90
 2192 0b5c FB18     		adds	r3, r7, r3
 2193 0b5e 1B88     		ldrh	r3, [r3]
 2194 0b60 5B42     		rsbs	r3, r3, #0
 2195 0b62 9AB2     		uxth	r2, r3
ARM GAS  C:\Users\ilya\AppData\Local\Temp\ccAjPEqD.s 			page 48


 2196 0b64 5A23     		movs	r3, #90
 2197 0b66 FB18     		adds	r3, r7, r3
 2198 0b68 1A80     		strh	r2, [r3]
 2199              	.L53:
 462:Api\core\src/vl53l0x_api_core.c **** 			}
 463:Api\core\src/vl53l0x_api_core.c **** 
 464:Api\core\src/vl53l0x_api_core.c **** 			PALDevDataSet(Dev,
 2200              		.loc 1 464 0
 2201 0b6a 5A23     		movs	r3, #90
 2202 0b6c FB18     		adds	r3, r7, r3
 2203 0b6e 0022     		movs	r2, #0
 2204 0b70 9A5E     		ldrsh	r2, [r3, r2]
 2205 0b72 7B68     		ldr	r3, [r7, #4]
 2206 0b74 DA60     		str	r2, [r3, #12]
 2207              	.L52:
 465:Api\core\src/vl53l0x_api_core.c **** 				Part2PartOffsetAdjustmentNVMMicroMeter,
 466:Api\core\src/vl53l0x_api_core.c **** 				OffsetMicroMeters);
 467:Api\core\src/vl53l0x_api_core.c **** 		}
 468:Api\core\src/vl53l0x_api_core.c **** 		byte = (uint8_t)(ReadDataFromDeviceDone|option);
 2208              		.loc 1 468 0
 2209 0b76 3F23     		movs	r3, #63
 2210 0b78 FA18     		adds	r2, r7, r3
 2211 0b7a FB1C     		adds	r3, r7, #3
 2212 0b7c 1278     		ldrb	r2, [r2]
 2213 0b7e 1B78     		ldrb	r3, [r3]
 2214 0b80 1343     		orrs	r3, r2
 2215 0b82 DAB2     		uxtb	r2, r3
 2216 0b84 3723     		movs	r3, #55
 2217 0b86 FB18     		adds	r3, r7, r3
 2218 0b88 1A70     		strb	r2, [r3]
 469:Api\core\src/vl53l0x_api_core.c **** 		VL53L0X_SETDEVICESPECIFICPARAMETER(Dev, ReadDataFromDeviceDone,
 2219              		.loc 1 469 0
 2220 0b8a 3723     		movs	r3, #55
 2221 0b8c FB18     		adds	r3, r7, r3
 2222 0b8e 1978     		ldrb	r1, [r3]
 2223 0b90 7B68     		ldr	r3, [r7, #4]
 2224 0b92 F022     		movs	r2, #240
 2225 0b94 9954     		strb	r1, [r3, r2]
 2226              	.L47:
 470:Api\core\src/vl53l0x_api_core.c **** 				byte);
 471:Api\core\src/vl53l0x_api_core.c **** 	}
 472:Api\core\src/vl53l0x_api_core.c **** 
 473:Api\core\src/vl53l0x_api_core.c **** 	LOG_FUNCTION_END(Status);
 474:Api\core\src/vl53l0x_api_core.c **** 	return Status;
 2227              		.loc 1 474 0
 2228 0b96 5F23     		movs	r3, #95
 2229 0b98 FB18     		adds	r3, r7, r3
 2230 0b9a 1B78     		ldrb	r3, [r3]
 2231 0b9c 5BB2     		sxtb	r3, r3
 475:Api\core\src/vl53l0x_api_core.c **** }
 2232              		.loc 1 475 0
 2233 0b9e 1800     		movs	r0, r3
 2234 0ba0 BD46     		mov	sp, r7
 2235 0ba2 18B0     		add	sp, sp, #96
 2236              		@ sp needed
 2237 0ba4 80BD     		pop	{r7, pc}
 2238              		.cfi_endproc
ARM GAS  C:\Users\ilya\AppData\Local\Temp\ccAjPEqD.s 			page 49


 2239              	.LFE8:
 2240              		.size	VL53L0X_get_info_from_device, .-VL53L0X_get_info_from_device
 2241 0ba6 C046     		.section	.text.VL53L0X_calc_macro_period_ps,"ax",%progbits
 2242              		.align	2
 2243              		.global	VL53L0X_calc_macro_period_ps
 2244              		.code	16
 2245              		.thumb_func
 2246              		.type	VL53L0X_calc_macro_period_ps, %function
 2247              	VL53L0X_calc_macro_period_ps:
 2248              	.LFB9:
 476:Api\core\src/vl53l0x_api_core.c **** 
 477:Api\core\src/vl53l0x_api_core.c **** 
 478:Api\core\src/vl53l0x_api_core.c **** uint32_t VL53L0X_calc_macro_period_ps(VL53L0X_DEV Dev, uint8_t vcsel_period_pclks)
 479:Api\core\src/vl53l0x_api_core.c **** {
 2249              		.loc 1 479 0
 2250              		.cfi_startproc
 2251              		@ args = 0, pretend = 0, frame = 24
 2252              		@ frame_needed = 1, uses_anonymous_args = 0
 2253 0000 90B5     		push	{r4, r7, lr}
 2254              		.cfi_def_cfa_offset 12
 2255              		.cfi_offset 4, -12
 2256              		.cfi_offset 7, -8
 2257              		.cfi_offset 14, -4
 2258 0002 87B0     		sub	sp, sp, #28
 2259              		.cfi_def_cfa_offset 40
 2260 0004 00AF     		add	r7, sp, #0
 2261              		.cfi_def_cfa_register 7
 2262 0006 7860     		str	r0, [r7, #4]
 2263 0008 0A00     		movs	r2, r1
 2264 000a FB1C     		adds	r3, r7, #3
 2265 000c 1A70     		strb	r2, [r3]
 480:Api\core\src/vl53l0x_api_core.c **** 	uint64_t PLL_period_ps;
 481:Api\core\src/vl53l0x_api_core.c **** 	uint32_t macro_period_vclks;
 482:Api\core\src/vl53l0x_api_core.c **** 	uint32_t macro_period_ps;
 483:Api\core\src/vl53l0x_api_core.c **** 
 484:Api\core\src/vl53l0x_api_core.c **** 	LOG_FUNCTION_START("");
 485:Api\core\src/vl53l0x_api_core.c **** 
 486:Api\core\src/vl53l0x_api_core.c **** 	/* The above calculation will produce rounding errors,
 487:Api\core\src/vl53l0x_api_core.c **** 	   therefore set fixed value
 488:Api\core\src/vl53l0x_api_core.c **** 	*/
 489:Api\core\src/vl53l0x_api_core.c **** 	PLL_period_ps = 1655;
 2266              		.loc 1 489 0
 2267 000e 094B     		ldr	r3, .L57
 2268 0010 0024     		movs	r4, #0
 2269 0012 3B61     		str	r3, [r7, #16]
 2270 0014 7C61     		str	r4, [r7, #20]
 490:Api\core\src/vl53l0x_api_core.c **** 
 491:Api\core\src/vl53l0x_api_core.c **** 	macro_period_vclks = 2304;
 2271              		.loc 1 491 0
 2272 0016 9023     		movs	r3, #144
 2273 0018 1B01     		lsls	r3, r3, #4
 2274 001a FB60     		str	r3, [r7, #12]
 492:Api\core\src/vl53l0x_api_core.c **** 	macro_period_ps = (uint32_t)(macro_period_vclks
 493:Api\core\src/vl53l0x_api_core.c **** 			* vcsel_period_pclks * PLL_period_ps);
 2275              		.loc 1 493 0
 2276 001c FB1C     		adds	r3, r7, #3
 2277 001e 1B78     		ldrb	r3, [r3]
ARM GAS  C:\Users\ilya\AppData\Local\Temp\ccAjPEqD.s 			page 50


 2278 0020 FA68     		ldr	r2, [r7, #12]
 2279 0022 5343     		muls	r3, r2
 492:Api\core\src/vl53l0x_api_core.c **** 	macro_period_ps = (uint32_t)(macro_period_vclks
 2280              		.loc 1 492 0
 2281 0024 3A69     		ldr	r2, [r7, #16]
 2282 0026 5343     		muls	r3, r2
 2283 0028 BB60     		str	r3, [r7, #8]
 494:Api\core\src/vl53l0x_api_core.c **** 
 495:Api\core\src/vl53l0x_api_core.c **** 	LOG_FUNCTION_END("");
 496:Api\core\src/vl53l0x_api_core.c **** 	return macro_period_ps;
 2284              		.loc 1 496 0
 2285 002a BB68     		ldr	r3, [r7, #8]
 497:Api\core\src/vl53l0x_api_core.c **** }
 2286              		.loc 1 497 0
 2287 002c 1800     		movs	r0, r3
 2288 002e BD46     		mov	sp, r7
 2289 0030 07B0     		add	sp, sp, #28
 2290              		@ sp needed
 2291 0032 90BD     		pop	{r4, r7, pc}
 2292              	.L58:
 2293              		.align	2
 2294              	.L57:
 2295 0034 77060000 		.word	1655
 2296              		.cfi_endproc
 2297              	.LFE9:
 2298              		.size	VL53L0X_calc_macro_period_ps, .-VL53L0X_calc_macro_period_ps
 2299              		.section	.text.VL53L0X_encode_timeout,"ax",%progbits
 2300              		.align	2
 2301              		.global	VL53L0X_encode_timeout
 2302              		.code	16
 2303              		.thumb_func
 2304              		.type	VL53L0X_encode_timeout, %function
 2305              	VL53L0X_encode_timeout:
 2306              	.LFB10:
 498:Api\core\src/vl53l0x_api_core.c **** 
 499:Api\core\src/vl53l0x_api_core.c **** uint16_t VL53L0X_encode_timeout(uint32_t timeout_macro_clks)
 500:Api\core\src/vl53l0x_api_core.c **** {
 2307              		.loc 1 500 0
 2308              		.cfi_startproc
 2309              		@ args = 0, pretend = 0, frame = 24
 2310              		@ frame_needed = 1, uses_anonymous_args = 0
 2311 0000 80B5     		push	{r7, lr}
 2312              		.cfi_def_cfa_offset 8
 2313              		.cfi_offset 7, -8
 2314              		.cfi_offset 14, -4
 2315 0002 86B0     		sub	sp, sp, #24
 2316              		.cfi_def_cfa_offset 32
 2317 0004 00AF     		add	r7, sp, #0
 2318              		.cfi_def_cfa_register 7
 2319 0006 7860     		str	r0, [r7, #4]
 501:Api\core\src/vl53l0x_api_core.c **** 	/*!
 502:Api\core\src/vl53l0x_api_core.c **** 	 * Encode timeout in macro periods in (LSByte * 2^MSByte) + 1 format
 503:Api\core\src/vl53l0x_api_core.c **** 	 */
 504:Api\core\src/vl53l0x_api_core.c **** 
 505:Api\core\src/vl53l0x_api_core.c **** 	uint16_t encoded_timeout = 0;
 2320              		.loc 1 505 0
 2321 0008 1623     		movs	r3, #22
ARM GAS  C:\Users\ilya\AppData\Local\Temp\ccAjPEqD.s 			page 51


 2322 000a FB18     		adds	r3, r7, r3
 2323 000c 0022     		movs	r2, #0
 2324 000e 1A80     		strh	r2, [r3]
 506:Api\core\src/vl53l0x_api_core.c **** 	uint32_t ls_byte = 0;
 2325              		.loc 1 506 0
 2326 0010 0023     		movs	r3, #0
 2327 0012 3B61     		str	r3, [r7, #16]
 507:Api\core\src/vl53l0x_api_core.c **** 	uint16_t ms_byte = 0;
 2328              		.loc 1 507 0
 2329 0014 0E23     		movs	r3, #14
 2330 0016 FB18     		adds	r3, r7, r3
 2331 0018 0022     		movs	r2, #0
 2332 001a 1A80     		strh	r2, [r3]
 508:Api\core\src/vl53l0x_api_core.c **** 
 509:Api\core\src/vl53l0x_api_core.c **** 	if (timeout_macro_clks > 0) {
 2333              		.loc 1 509 0
 2334 001c 7B68     		ldr	r3, [r7, #4]
 2335 001e 002B     		cmp	r3, #0
 2336 0020 1FD0     		beq	.L60
 510:Api\core\src/vl53l0x_api_core.c **** 		ls_byte = timeout_macro_clks - 1;
 2337              		.loc 1 510 0
 2338 0022 7B68     		ldr	r3, [r7, #4]
 2339 0024 013B     		subs	r3, r3, #1
 2340 0026 3B61     		str	r3, [r7, #16]
 511:Api\core\src/vl53l0x_api_core.c **** 
 512:Api\core\src/vl53l0x_api_core.c **** 		while ((ls_byte & 0xFFFFFF00) > 0) {
 2341              		.loc 1 512 0
 2342 0028 09E0     		b	.L61
 2343              	.L62:
 513:Api\core\src/vl53l0x_api_core.c **** 			ls_byte = ls_byte >> 1;
 2344              		.loc 1 513 0
 2345 002a 3B69     		ldr	r3, [r7, #16]
 2346 002c 5B08     		lsrs	r3, r3, #1
 2347 002e 3B61     		str	r3, [r7, #16]
 514:Api\core\src/vl53l0x_api_core.c **** 			ms_byte++;
 2348              		.loc 1 514 0
 2349 0030 0E23     		movs	r3, #14
 2350 0032 FB18     		adds	r3, r7, r3
 2351 0034 1A88     		ldrh	r2, [r3]
 2352 0036 0E23     		movs	r3, #14
 2353 0038 FB18     		adds	r3, r7, r3
 2354 003a 0132     		adds	r2, r2, #1
 2355 003c 1A80     		strh	r2, [r3]
 2356              	.L61:
 512:Api\core\src/vl53l0x_api_core.c **** 			ls_byte = ls_byte >> 1;
 2357              		.loc 1 512 0
 2358 003e 3B69     		ldr	r3, [r7, #16]
 2359 0040 FF22     		movs	r2, #255
 2360 0042 9343     		bics	r3, r2
 2361 0044 F1D1     		bne	.L62
 515:Api\core\src/vl53l0x_api_core.c **** 		}
 516:Api\core\src/vl53l0x_api_core.c **** 
 517:Api\core\src/vl53l0x_api_core.c **** 		encoded_timeout = (ms_byte << 8)
 2362              		.loc 1 517 0
 2363 0046 0E23     		movs	r3, #14
 2364 0048 FB18     		adds	r3, r7, r3
 2365 004a 1B88     		ldrh	r3, [r3]
ARM GAS  C:\Users\ilya\AppData\Local\Temp\ccAjPEqD.s 			page 52


 2366 004c 1B02     		lsls	r3, r3, #8
 2367 004e 99B2     		uxth	r1, r3
 2368 0050 3B69     		ldr	r3, [r7, #16]
 2369 0052 9BB2     		uxth	r3, r3
 2370 0054 FF22     		movs	r2, #255
 2371 0056 1340     		ands	r3, r2
 2372 0058 9AB2     		uxth	r2, r3
 2373 005a 1623     		movs	r3, #22
 2374 005c FB18     		adds	r3, r7, r3
 2375 005e 8A18     		adds	r2, r1, r2
 2376 0060 1A80     		strh	r2, [r3]
 2377              	.L60:
 518:Api\core\src/vl53l0x_api_core.c **** 				+ (uint16_t) (ls_byte & 0x000000FF);
 519:Api\core\src/vl53l0x_api_core.c **** 	}
 520:Api\core\src/vl53l0x_api_core.c **** 
 521:Api\core\src/vl53l0x_api_core.c **** 	return encoded_timeout;
 2378              		.loc 1 521 0
 2379 0062 1623     		movs	r3, #22
 2380 0064 FB18     		adds	r3, r7, r3
 2381 0066 1B88     		ldrh	r3, [r3]
 522:Api\core\src/vl53l0x_api_core.c **** 
 523:Api\core\src/vl53l0x_api_core.c **** }
 2382              		.loc 1 523 0
 2383 0068 1800     		movs	r0, r3
 2384 006a BD46     		mov	sp, r7
 2385 006c 06B0     		add	sp, sp, #24
 2386              		@ sp needed
 2387 006e 80BD     		pop	{r7, pc}
 2388              		.cfi_endproc
 2389              	.LFE10:
 2390              		.size	VL53L0X_encode_timeout, .-VL53L0X_encode_timeout
 2391              		.section	.text.VL53L0X_decode_timeout,"ax",%progbits
 2392              		.align	2
 2393              		.global	VL53L0X_decode_timeout
 2394              		.code	16
 2395              		.thumb_func
 2396              		.type	VL53L0X_decode_timeout, %function
 2397              	VL53L0X_decode_timeout:
 2398              	.LFB11:
 524:Api\core\src/vl53l0x_api_core.c **** 
 525:Api\core\src/vl53l0x_api_core.c **** uint32_t VL53L0X_decode_timeout(uint16_t encoded_timeout)
 526:Api\core\src/vl53l0x_api_core.c **** {
 2399              		.loc 1 526 0
 2400              		.cfi_startproc
 2401              		@ args = 0, pretend = 0, frame = 16
 2402              		@ frame_needed = 1, uses_anonymous_args = 0
 2403 0000 80B5     		push	{r7, lr}
 2404              		.cfi_def_cfa_offset 8
 2405              		.cfi_offset 7, -8
 2406              		.cfi_offset 14, -4
 2407 0002 84B0     		sub	sp, sp, #16
 2408              		.cfi_def_cfa_offset 24
 2409 0004 00AF     		add	r7, sp, #0
 2410              		.cfi_def_cfa_register 7
 2411 0006 0200     		movs	r2, r0
 2412 0008 BB1D     		adds	r3, r7, #6
 2413 000a 1A80     		strh	r2, [r3]
ARM GAS  C:\Users\ilya\AppData\Local\Temp\ccAjPEqD.s 			page 53


 527:Api\core\src/vl53l0x_api_core.c **** 	/*!
 528:Api\core\src/vl53l0x_api_core.c **** 	 * Decode 16-bit timeout register value - format (LSByte * 2^MSByte) + 1
 529:Api\core\src/vl53l0x_api_core.c **** 	 */
 530:Api\core\src/vl53l0x_api_core.c **** 
 531:Api\core\src/vl53l0x_api_core.c **** 	uint32_t timeout_macro_clks = 0;
 2414              		.loc 1 531 0
 2415 000c 0023     		movs	r3, #0
 2416 000e FB60     		str	r3, [r7, #12]
 532:Api\core\src/vl53l0x_api_core.c **** 
 533:Api\core\src/vl53l0x_api_core.c **** 	timeout_macro_clks = ((uint32_t) (encoded_timeout & 0x00FF)
 2417              		.loc 1 533 0
 2418 0010 BB1D     		adds	r3, r7, #6
 2419 0012 1B88     		ldrh	r3, [r3]
 2420 0014 FF22     		movs	r2, #255
 2421 0016 1340     		ands	r3, r2
 534:Api\core\src/vl53l0x_api_core.c **** 			<< (uint32_t) ((encoded_timeout & 0xFF00) >> 8)) + 1;
 2422              		.loc 1 534 0
 2423 0018 BA1D     		adds	r2, r7, #6
 2424 001a 1288     		ldrh	r2, [r2]
 2425 001c 120A     		lsrs	r2, r2, #8
 2426 001e 92B2     		uxth	r2, r2
 2427 0020 9340     		lsls	r3, r3, r2
 533:Api\core\src/vl53l0x_api_core.c **** 			<< (uint32_t) ((encoded_timeout & 0xFF00) >> 8)) + 1;
 2428              		.loc 1 533 0
 2429 0022 0133     		adds	r3, r3, #1
 2430 0024 FB60     		str	r3, [r7, #12]
 535:Api\core\src/vl53l0x_api_core.c **** 
 536:Api\core\src/vl53l0x_api_core.c **** 	return timeout_macro_clks;
 2431              		.loc 1 536 0
 2432 0026 FB68     		ldr	r3, [r7, #12]
 537:Api\core\src/vl53l0x_api_core.c **** }
 2433              		.loc 1 537 0
 2434 0028 1800     		movs	r0, r3
 2435 002a BD46     		mov	sp, r7
 2436 002c 04B0     		add	sp, sp, #16
 2437              		@ sp needed
 2438 002e 80BD     		pop	{r7, pc}
 2439              		.cfi_endproc
 2440              	.LFE11:
 2441              		.size	VL53L0X_decode_timeout, .-VL53L0X_decode_timeout
 2442              		.global	__aeabi_uidiv
 2443              		.section	.text.VL53L0X_calc_timeout_mclks,"ax",%progbits
 2444              		.align	2
 2445              		.global	VL53L0X_calc_timeout_mclks
 2446              		.code	16
 2447              		.thumb_func
 2448              		.type	VL53L0X_calc_timeout_mclks, %function
 2449              	VL53L0X_calc_timeout_mclks:
 2450              	.LFB12:
 538:Api\core\src/vl53l0x_api_core.c **** 
 539:Api\core\src/vl53l0x_api_core.c **** 
 540:Api\core\src/vl53l0x_api_core.c **** /* To convert ms into register value */
 541:Api\core\src/vl53l0x_api_core.c **** uint32_t VL53L0X_calc_timeout_mclks(VL53L0X_DEV Dev,
 542:Api\core\src/vl53l0x_api_core.c **** 		uint32_t timeout_period_us,
 543:Api\core\src/vl53l0x_api_core.c **** 		uint8_t vcsel_period_pclks)
 544:Api\core\src/vl53l0x_api_core.c **** {
 2451              		.loc 1 544 0
ARM GAS  C:\Users\ilya\AppData\Local\Temp\ccAjPEqD.s 			page 54


 2452              		.cfi_startproc
 2453              		@ args = 0, pretend = 0, frame = 32
 2454              		@ frame_needed = 1, uses_anonymous_args = 0
 2455 0000 80B5     		push	{r7, lr}
 2456              		.cfi_def_cfa_offset 8
 2457              		.cfi_offset 7, -8
 2458              		.cfi_offset 14, -4
 2459 0002 88B0     		sub	sp, sp, #32
 2460              		.cfi_def_cfa_offset 40
 2461 0004 00AF     		add	r7, sp, #0
 2462              		.cfi_def_cfa_register 7
 2463 0006 F860     		str	r0, [r7, #12]
 2464 0008 B960     		str	r1, [r7, #8]
 2465 000a FB1D     		adds	r3, r7, #7
 2466 000c 1A70     		strb	r2, [r3]
 545:Api\core\src/vl53l0x_api_core.c **** 	uint32_t macro_period_ps;
 546:Api\core\src/vl53l0x_api_core.c **** 	uint32_t macro_period_ns;
 547:Api\core\src/vl53l0x_api_core.c **** 	uint32_t timeout_period_mclks = 0;
 2467              		.loc 1 547 0
 2468 000e 0023     		movs	r3, #0
 2469 0010 FB61     		str	r3, [r7, #28]
 548:Api\core\src/vl53l0x_api_core.c **** 
 549:Api\core\src/vl53l0x_api_core.c **** 	macro_period_ps = VL53L0X_calc_macro_period_ps(Dev, vcsel_period_pclks);
 2470              		.loc 1 549 0
 2471 0012 FB1D     		adds	r3, r7, #7
 2472 0014 1A78     		ldrb	r2, [r3]
 2473 0016 FB68     		ldr	r3, [r7, #12]
 2474 0018 1100     		movs	r1, r2
 2475 001a 1800     		movs	r0, r3
 2476 001c FFF7FEFF 		bl	VL53L0X_calc_macro_period_ps
 2477 0020 0300     		movs	r3, r0
 2478 0022 BB61     		str	r3, [r7, #24]
 550:Api\core\src/vl53l0x_api_core.c **** 	macro_period_ns = (macro_period_ps + 500) / 1000;
 2479              		.loc 1 550 0
 2480 0024 BB69     		ldr	r3, [r7, #24]
 2481 0026 F533     		adds	r3, r3, #245
 2482 0028 FF33     		adds	r3, r3, #255
 2483 002a 1A00     		movs	r2, r3
 2484 002c FA23     		movs	r3, #250
 2485 002e 9900     		lsls	r1, r3, #2
 2486 0030 1000     		movs	r0, r2
 2487 0032 FFF7FEFF 		bl	__aeabi_uidiv
 2488 0036 0300     		movs	r3, r0
 2489 0038 7B61     		str	r3, [r7, #20]
 551:Api\core\src/vl53l0x_api_core.c **** 
 552:Api\core\src/vl53l0x_api_core.c **** 	timeout_period_mclks =
 553:Api\core\src/vl53l0x_api_core.c **** 		(uint32_t) (((timeout_period_us * 1000)
 2490              		.loc 1 553 0
 2491 003a BB68     		ldr	r3, [r7, #8]
 2492 003c FA22     		movs	r2, #250
 2493 003e 9200     		lsls	r2, r2, #2
 2494 0040 5A43     		muls	r2, r3
 554:Api\core\src/vl53l0x_api_core.c **** 		+ (macro_period_ns / 2)) / macro_period_ns);
 2495              		.loc 1 554 0
 2496 0042 7B69     		ldr	r3, [r7, #20]
 2497 0044 5B08     		lsrs	r3, r3, #1
 2498 0046 D318     		adds	r3, r2, r3
ARM GAS  C:\Users\ilya\AppData\Local\Temp\ccAjPEqD.s 			page 55


 552:Api\core\src/vl53l0x_api_core.c **** 		(uint32_t) (((timeout_period_us * 1000)
 2499              		.loc 1 552 0
 2500 0048 7969     		ldr	r1, [r7, #20]
 2501 004a 1800     		movs	r0, r3
 2502 004c FFF7FEFF 		bl	__aeabi_uidiv
 2503 0050 0300     		movs	r3, r0
 2504 0052 FB61     		str	r3, [r7, #28]
 555:Api\core\src/vl53l0x_api_core.c **** 
 556:Api\core\src/vl53l0x_api_core.c ****     return timeout_period_mclks;
 2505              		.loc 1 556 0
 2506 0054 FB69     		ldr	r3, [r7, #28]
 557:Api\core\src/vl53l0x_api_core.c **** }
 2507              		.loc 1 557 0
 2508 0056 1800     		movs	r0, r3
 2509 0058 BD46     		mov	sp, r7
 2510 005a 08B0     		add	sp, sp, #32
 2511              		@ sp needed
 2512 005c 80BD     		pop	{r7, pc}
 2513              		.cfi_endproc
 2514              	.LFE12:
 2515              		.size	VL53L0X_calc_timeout_mclks, .-VL53L0X_calc_timeout_mclks
 2516 005e C046     		.section	.text.VL53L0X_calc_timeout_us,"ax",%progbits
 2517              		.align	2
 2518              		.global	VL53L0X_calc_timeout_us
 2519              		.code	16
 2520              		.thumb_func
 2521              		.type	VL53L0X_calc_timeout_us, %function
 2522              	VL53L0X_calc_timeout_us:
 2523              	.LFB13:
 558:Api\core\src/vl53l0x_api_core.c **** 
 559:Api\core\src/vl53l0x_api_core.c **** /* To convert register value into us */
 560:Api\core\src/vl53l0x_api_core.c **** uint32_t VL53L0X_calc_timeout_us(VL53L0X_DEV Dev,
 561:Api\core\src/vl53l0x_api_core.c **** 		uint16_t timeout_period_mclks,
 562:Api\core\src/vl53l0x_api_core.c **** 		uint8_t vcsel_period_pclks)
 563:Api\core\src/vl53l0x_api_core.c **** {
 2524              		.loc 1 563 0
 2525              		.cfi_startproc
 2526              		@ args = 0, pretend = 0, frame = 24
 2527              		@ frame_needed = 1, uses_anonymous_args = 0
 2528 0000 80B5     		push	{r7, lr}
 2529              		.cfi_def_cfa_offset 8
 2530              		.cfi_offset 7, -8
 2531              		.cfi_offset 14, -4
 2532 0002 86B0     		sub	sp, sp, #24
 2533              		.cfi_def_cfa_offset 32
 2534 0004 00AF     		add	r7, sp, #0
 2535              		.cfi_def_cfa_register 7
 2536 0006 7860     		str	r0, [r7, #4]
 2537 0008 0800     		movs	r0, r1
 2538 000a 1100     		movs	r1, r2
 2539 000c BB1C     		adds	r3, r7, #2
 2540 000e 021C     		adds	r2, r0, #0
 2541 0010 1A80     		strh	r2, [r3]
 2542 0012 7B1C     		adds	r3, r7, #1
 2543 0014 0A1C     		adds	r2, r1, #0
 2544 0016 1A70     		strb	r2, [r3]
 564:Api\core\src/vl53l0x_api_core.c **** 	uint32_t macro_period_ps;
ARM GAS  C:\Users\ilya\AppData\Local\Temp\ccAjPEqD.s 			page 56


 565:Api\core\src/vl53l0x_api_core.c **** 	uint32_t macro_period_ns;
 566:Api\core\src/vl53l0x_api_core.c **** 	uint32_t actual_timeout_period_us = 0;
 2545              		.loc 1 566 0
 2546 0018 0023     		movs	r3, #0
 2547 001a 7B61     		str	r3, [r7, #20]
 567:Api\core\src/vl53l0x_api_core.c **** 
 568:Api\core\src/vl53l0x_api_core.c **** 	macro_period_ps = VL53L0X_calc_macro_period_ps(Dev, vcsel_period_pclks);
 2548              		.loc 1 568 0
 2549 001c 7B1C     		adds	r3, r7, #1
 2550 001e 1A78     		ldrb	r2, [r3]
 2551 0020 7B68     		ldr	r3, [r7, #4]
 2552 0022 1100     		movs	r1, r2
 2553 0024 1800     		movs	r0, r3
 2554 0026 FFF7FEFF 		bl	VL53L0X_calc_macro_period_ps
 2555 002a 0300     		movs	r3, r0
 2556 002c 3B61     		str	r3, [r7, #16]
 569:Api\core\src/vl53l0x_api_core.c **** 	macro_period_ns = (macro_period_ps + 500) / 1000;
 2557              		.loc 1 569 0
 2558 002e 3B69     		ldr	r3, [r7, #16]
 2559 0030 F533     		adds	r3, r3, #245
 2560 0032 FF33     		adds	r3, r3, #255
 2561 0034 1A00     		movs	r2, r3
 2562 0036 FA23     		movs	r3, #250
 2563 0038 9900     		lsls	r1, r3, #2
 2564 003a 1000     		movs	r0, r2
 2565 003c FFF7FEFF 		bl	__aeabi_uidiv
 2566 0040 0300     		movs	r3, r0
 2567 0042 FB60     		str	r3, [r7, #12]
 570:Api\core\src/vl53l0x_api_core.c **** 
 571:Api\core\src/vl53l0x_api_core.c **** 	actual_timeout_period_us =
 572:Api\core\src/vl53l0x_api_core.c **** 		((timeout_period_mclks * macro_period_ns) + 500) / 1000;
 2568              		.loc 1 572 0
 2569 0044 BB1C     		adds	r3, r7, #2
 2570 0046 1B88     		ldrh	r3, [r3]
 2571 0048 FA68     		ldr	r2, [r7, #12]
 2572 004a 5343     		muls	r3, r2
 2573 004c F533     		adds	r3, r3, #245
 2574 004e FF33     		adds	r3, r3, #255
 2575 0050 1A00     		movs	r2, r3
 571:Api\core\src/vl53l0x_api_core.c **** 		((timeout_period_mclks * macro_period_ns) + 500) / 1000;
 2576              		.loc 1 571 0
 2577 0052 FA23     		movs	r3, #250
 2578 0054 9900     		lsls	r1, r3, #2
 2579 0056 1000     		movs	r0, r2
 2580 0058 FFF7FEFF 		bl	__aeabi_uidiv
 2581 005c 0300     		movs	r3, r0
 2582 005e 7B61     		str	r3, [r7, #20]
 573:Api\core\src/vl53l0x_api_core.c **** 
 574:Api\core\src/vl53l0x_api_core.c **** 	return actual_timeout_period_us;
 2583              		.loc 1 574 0
 2584 0060 7B69     		ldr	r3, [r7, #20]
 575:Api\core\src/vl53l0x_api_core.c **** }
 2585              		.loc 1 575 0
 2586 0062 1800     		movs	r0, r3
 2587 0064 BD46     		mov	sp, r7
 2588 0066 06B0     		add	sp, sp, #24
 2589              		@ sp needed
ARM GAS  C:\Users\ilya\AppData\Local\Temp\ccAjPEqD.s 			page 57


 2590 0068 80BD     		pop	{r7, pc}
 2591              		.cfi_endproc
 2592              	.LFE13:
 2593              		.size	VL53L0X_calc_timeout_us, .-VL53L0X_calc_timeout_us
 2594              		.section	.text.get_sequence_step_timeout,"ax",%progbits
 2595              		.align	2
 2596              		.global	get_sequence_step_timeout
 2597              		.code	16
 2598              		.thumb_func
 2599              		.type	get_sequence_step_timeout, %function
 2600              	get_sequence_step_timeout:
 2601              	.LFB14:
 576:Api\core\src/vl53l0x_api_core.c **** 
 577:Api\core\src/vl53l0x_api_core.c **** 
 578:Api\core\src/vl53l0x_api_core.c **** VL53L0X_Error get_sequence_step_timeout(VL53L0X_DEV Dev,
 579:Api\core\src/vl53l0x_api_core.c **** 				VL53L0X_SequenceStepId SequenceStepId,
 580:Api\core\src/vl53l0x_api_core.c **** 				uint32_t *pTimeOutMicroSecs)
 581:Api\core\src/vl53l0x_api_core.c **** {
 2602              		.loc 1 581 0
 2603              		.cfi_startproc
 2604              		@ args = 0, pretend = 0, frame = 48
 2605              		@ frame_needed = 1, uses_anonymous_args = 0
 2606 0000 90B5     		push	{r4, r7, lr}
 2607              		.cfi_def_cfa_offset 12
 2608              		.cfi_offset 4, -12
 2609              		.cfi_offset 7, -8
 2610              		.cfi_offset 14, -4
 2611 0002 8DB0     		sub	sp, sp, #52
 2612              		.cfi_def_cfa_offset 64
 2613 0004 00AF     		add	r7, sp, #0
 2614              		.cfi_def_cfa_register 7
 2615 0006 F860     		str	r0, [r7, #12]
 2616 0008 7A60     		str	r2, [r7, #4]
 2617 000a 0B23     		movs	r3, #11
 2618 000c FB18     		adds	r3, r7, r3
 2619 000e 0A1C     		adds	r2, r1, #0
 2620 0010 1A70     		strb	r2, [r3]
 582:Api\core\src/vl53l0x_api_core.c **** 	VL53L0X_Error Status = VL53L0X_ERROR_NONE;
 2621              		.loc 1 582 0
 2622 0012 2F23     		movs	r3, #47
 2623 0014 FB18     		adds	r3, r7, r3
 2624 0016 0022     		movs	r2, #0
 2625 0018 1A70     		strb	r2, [r3]
 583:Api\core\src/vl53l0x_api_core.c **** 	uint8_t CurrentVCSELPulsePeriodPClk;
 584:Api\core\src/vl53l0x_api_core.c **** 	uint8_t EncodedTimeOutByte = 0;
 2626              		.loc 1 584 0
 2627 001a 2023     		movs	r3, #32
 2628 001c FB18     		adds	r3, r7, r3
 2629 001e 0022     		movs	r2, #0
 2630 0020 1A70     		strb	r2, [r3]
 585:Api\core\src/vl53l0x_api_core.c **** 	uint32_t TimeoutMicroSeconds = 0;
 2631              		.loc 1 585 0
 2632 0022 0023     		movs	r3, #0
 2633 0024 BB62     		str	r3, [r7, #40]
 586:Api\core\src/vl53l0x_api_core.c **** 	uint16_t PreRangeEncodedTimeOut = 0;
 2634              		.loc 1 586 0
 2635 0026 1E23     		movs	r3, #30
ARM GAS  C:\Users\ilya\AppData\Local\Temp\ccAjPEqD.s 			page 58


 2636 0028 FB18     		adds	r3, r7, r3
 2637 002a 0022     		movs	r2, #0
 2638 002c 1A80     		strh	r2, [r3]
 587:Api\core\src/vl53l0x_api_core.c **** 	uint16_t MsrcTimeOutMClks;
 588:Api\core\src/vl53l0x_api_core.c **** 	uint16_t PreRangeTimeOutMClks;
 589:Api\core\src/vl53l0x_api_core.c **** 	uint16_t FinalRangeTimeOutMClks = 0;
 2639              		.loc 1 589 0
 2640 002e 2423     		movs	r3, #36
 2641 0030 FB18     		adds	r3, r7, r3
 2642 0032 0022     		movs	r2, #0
 2643 0034 1A80     		strh	r2, [r3]
 590:Api\core\src/vl53l0x_api_core.c **** 	uint16_t FinalRangeEncodedTimeOut;
 591:Api\core\src/vl53l0x_api_core.c **** 	VL53L0X_SchedulerSequenceSteps_t SchedulerSequenceSteps;
 592:Api\core\src/vl53l0x_api_core.c **** 
 593:Api\core\src/vl53l0x_api_core.c **** 	if ((SequenceStepId == VL53L0X_SEQUENCESTEP_TCC)	 ||
 2644              		.loc 1 593 0
 2645 0036 0B23     		movs	r3, #11
 2646 0038 FB18     		adds	r3, r7, r3
 2647 003a 1B78     		ldrb	r3, [r3]
 2648 003c 002B     		cmp	r3, #0
 2649 003e 09D0     		beq	.L71
 2650              		.loc 1 593 0 is_stmt 0 discriminator 1
 2651 0040 0B23     		movs	r3, #11
 2652 0042 FB18     		adds	r3, r7, r3
 2653 0044 1B78     		ldrb	r3, [r3]
 2654 0046 012B     		cmp	r3, #1
 2655 0048 04D0     		beq	.L71
 594:Api\core\src/vl53l0x_api_core.c **** 		(SequenceStepId == VL53L0X_SEQUENCESTEP_DSS)	 ||
 2656              		.loc 1 594 0 is_stmt 1
 2657 004a 0B23     		movs	r3, #11
 2658 004c FB18     		adds	r3, r7, r3
 2659 004e 1B78     		ldrb	r3, [r3]
 2660 0050 022B     		cmp	r3, #2
 2661 0052 33D1     		bne	.L72
 2662              	.L71:
 595:Api\core\src/vl53l0x_api_core.c **** 		(SequenceStepId == VL53L0X_SEQUENCESTEP_MSRC)) {
 596:Api\core\src/vl53l0x_api_core.c **** 
 597:Api\core\src/vl53l0x_api_core.c **** 		Status = VL53L0X_GetVcselPulsePeriod(Dev,
 2663              		.loc 1 597 0
 2664 0054 2F23     		movs	r3, #47
 2665 0056 FC18     		adds	r4, r7, r3
 2666 0058 2123     		movs	r3, #33
 2667 005a FA18     		adds	r2, r7, r3
 2668 005c FB68     		ldr	r3, [r7, #12]
 2669 005e 0021     		movs	r1, #0
 2670 0060 1800     		movs	r0, r3
 2671 0062 FFF7FEFF 		bl	VL53L0X_GetVcselPulsePeriod
 2672 0066 0300     		movs	r3, r0
 2673 0068 2370     		strb	r3, [r4]
 598:Api\core\src/vl53l0x_api_core.c **** 					VL53L0X_VCSEL_PERIOD_PRE_RANGE,
 599:Api\core\src/vl53l0x_api_core.c **** 					&CurrentVCSELPulsePeriodPClk);
 600:Api\core\src/vl53l0x_api_core.c **** 		if (Status == VL53L0X_ERROR_NONE) {
 2674              		.loc 1 600 0
 2675 006a 2F23     		movs	r3, #47
 2676 006c FB18     		adds	r3, r7, r3
 2677 006e 1B78     		ldrb	r3, [r3]
 2678 0070 5BB2     		sxtb	r3, r3
ARM GAS  C:\Users\ilya\AppData\Local\Temp\ccAjPEqD.s 			page 59


 2679 0072 002B     		cmp	r3, #0
 2680 0074 0AD1     		bne	.L73
 601:Api\core\src/vl53l0x_api_core.c **** 			Status = VL53L0X_RdByte(Dev,
 2681              		.loc 1 601 0
 2682 0076 2F23     		movs	r3, #47
 2683 0078 FC18     		adds	r4, r7, r3
 2684 007a 2023     		movs	r3, #32
 2685 007c FA18     		adds	r2, r7, r3
 2686 007e FB68     		ldr	r3, [r7, #12]
 2687 0080 4621     		movs	r1, #70
 2688 0082 1800     		movs	r0, r3
 2689 0084 FFF7FEFF 		bl	VL53L0X_RdByte
 2690 0088 0300     		movs	r3, r0
 2691 008a 2370     		strb	r3, [r4]
 2692              	.L73:
 602:Api\core\src/vl53l0x_api_core.c **** 					VL53L0X_REG_MSRC_CONFIG_TIMEOUT_MACROP,
 603:Api\core\src/vl53l0x_api_core.c **** 					&EncodedTimeOutByte);
 604:Api\core\src/vl53l0x_api_core.c **** 		}
 605:Api\core\src/vl53l0x_api_core.c **** 		MsrcTimeOutMClks = VL53L0X_decode_timeout(EncodedTimeOutByte);
 2693              		.loc 1 605 0
 2694 008c 2023     		movs	r3, #32
 2695 008e FB18     		adds	r3, r7, r3
 2696 0090 1B78     		ldrb	r3, [r3]
 2697 0092 9BB2     		uxth	r3, r3
 2698 0094 1800     		movs	r0, r3
 2699 0096 FFF7FEFF 		bl	VL53L0X_decode_timeout
 2700 009a 0200     		movs	r2, r0
 2701 009c 2223     		movs	r3, #34
 2702 009e FB18     		adds	r3, r7, r3
 2703 00a0 1A80     		strh	r2, [r3]
 606:Api\core\src/vl53l0x_api_core.c **** 
 607:Api\core\src/vl53l0x_api_core.c **** 		TimeoutMicroSeconds = VL53L0X_calc_timeout_us(Dev,
 2704              		.loc 1 607 0
 2705 00a2 2123     		movs	r3, #33
 2706 00a4 FB18     		adds	r3, r7, r3
 2707 00a6 1A78     		ldrb	r2, [r3]
 2708 00a8 2223     		movs	r3, #34
 2709 00aa FB18     		adds	r3, r7, r3
 2710 00ac 1988     		ldrh	r1, [r3]
 2711 00ae FB68     		ldr	r3, [r7, #12]
 2712 00b0 1800     		movs	r0, r3
 2713 00b2 FFF7FEFF 		bl	VL53L0X_calc_timeout_us
 2714 00b6 0300     		movs	r3, r0
 2715 00b8 BB62     		str	r3, [r7, #40]
 2716 00ba C7E0     		b	.L74
 2717              	.L72:
 608:Api\core\src/vl53l0x_api_core.c **** 						MsrcTimeOutMClks,
 609:Api\core\src/vl53l0x_api_core.c **** 						CurrentVCSELPulsePeriodPClk);
 610:Api\core\src/vl53l0x_api_core.c **** 	} else if (SequenceStepId == VL53L0X_SEQUENCESTEP_PRE_RANGE) {
 2718              		.loc 1 610 0
 2719 00bc 0B23     		movs	r3, #11
 2720 00be FB18     		adds	r3, r7, r3
 2721 00c0 1B78     		ldrb	r3, [r3]
 2722 00c2 032B     		cmp	r3, #3
 2723 00c4 44D1     		bne	.L75
 611:Api\core\src/vl53l0x_api_core.c **** 		/* Retrieve PRE-RANGE VCSEL Period */
 612:Api\core\src/vl53l0x_api_core.c **** 		Status = VL53L0X_GetVcselPulsePeriod(Dev,
ARM GAS  C:\Users\ilya\AppData\Local\Temp\ccAjPEqD.s 			page 60


 2724              		.loc 1 612 0
 2725 00c6 2F23     		movs	r3, #47
 2726 00c8 FC18     		adds	r4, r7, r3
 2727 00ca 2123     		movs	r3, #33
 2728 00cc FA18     		adds	r2, r7, r3
 2729 00ce FB68     		ldr	r3, [r7, #12]
 2730 00d0 0021     		movs	r1, #0
 2731 00d2 1800     		movs	r0, r3
 2732 00d4 FFF7FEFF 		bl	VL53L0X_GetVcselPulsePeriod
 2733 00d8 0300     		movs	r3, r0
 2734 00da 2370     		strb	r3, [r4]
 613:Api\core\src/vl53l0x_api_core.c **** 						VL53L0X_VCSEL_PERIOD_PRE_RANGE,
 614:Api\core\src/vl53l0x_api_core.c **** 						&CurrentVCSELPulsePeriodPClk);
 615:Api\core\src/vl53l0x_api_core.c **** 
 616:Api\core\src/vl53l0x_api_core.c **** 		/* Retrieve PRE-RANGE Timeout in Macro periods (MCLKS) */
 617:Api\core\src/vl53l0x_api_core.c **** 		if (Status == VL53L0X_ERROR_NONE) {
 2735              		.loc 1 617 0
 2736 00dc 2F23     		movs	r3, #47
 2737 00de FB18     		adds	r3, r7, r3
 2738 00e0 1B78     		ldrb	r3, [r3]
 2739 00e2 5BB2     		sxtb	r3, r3
 2740 00e4 002B     		cmp	r3, #0
 2741 00e6 00D0     		beq	.LCB2413
 2742 00e8 B0E0     		b	.L74	@long jump
 2743              	.LCB2413:
 618:Api\core\src/vl53l0x_api_core.c **** 
 619:Api\core\src/vl53l0x_api_core.c **** 			/* Retrieve PRE-RANGE VCSEL Period */
 620:Api\core\src/vl53l0x_api_core.c **** 			Status = VL53L0X_GetVcselPulsePeriod(Dev,
 2744              		.loc 1 620 0
 2745 00ea 2F23     		movs	r3, #47
 2746 00ec FC18     		adds	r4, r7, r3
 2747 00ee 2123     		movs	r3, #33
 2748 00f0 FA18     		adds	r2, r7, r3
 2749 00f2 FB68     		ldr	r3, [r7, #12]
 2750 00f4 0021     		movs	r1, #0
 2751 00f6 1800     		movs	r0, r3
 2752 00f8 FFF7FEFF 		bl	VL53L0X_GetVcselPulsePeriod
 2753 00fc 0300     		movs	r3, r0
 2754 00fe 2370     		strb	r3, [r4]
 621:Api\core\src/vl53l0x_api_core.c **** 					VL53L0X_VCSEL_PERIOD_PRE_RANGE,
 622:Api\core\src/vl53l0x_api_core.c **** 					&CurrentVCSELPulsePeriodPClk);
 623:Api\core\src/vl53l0x_api_core.c **** 
 624:Api\core\src/vl53l0x_api_core.c **** 			if (Status == VL53L0X_ERROR_NONE) {
 2755              		.loc 1 624 0
 2756 0100 2F23     		movs	r3, #47
 2757 0102 FB18     		adds	r3, r7, r3
 2758 0104 1B78     		ldrb	r3, [r3]
 2759 0106 5BB2     		sxtb	r3, r3
 2760 0108 002B     		cmp	r3, #0
 2761 010a 0AD1     		bne	.L77
 625:Api\core\src/vl53l0x_api_core.c **** 				Status = VL53L0X_RdWord(Dev,
 2762              		.loc 1 625 0
 2763 010c 2F23     		movs	r3, #47
 2764 010e FC18     		adds	r4, r7, r3
 2765 0110 1E23     		movs	r3, #30
 2766 0112 FA18     		adds	r2, r7, r3
 2767 0114 FB68     		ldr	r3, [r7, #12]
ARM GAS  C:\Users\ilya\AppData\Local\Temp\ccAjPEqD.s 			page 61


 2768 0116 5121     		movs	r1, #81
 2769 0118 1800     		movs	r0, r3
 2770 011a FFF7FEFF 		bl	VL53L0X_RdWord
 2771 011e 0300     		movs	r3, r0
 2772 0120 2370     		strb	r3, [r4]
 2773              	.L77:
 626:Api\core\src/vl53l0x_api_core.c **** 				VL53L0X_REG_PRE_RANGE_CONFIG_TIMEOUT_MACROP_HI,
 627:Api\core\src/vl53l0x_api_core.c **** 				&PreRangeEncodedTimeOut);
 628:Api\core\src/vl53l0x_api_core.c **** 			}
 629:Api\core\src/vl53l0x_api_core.c **** 
 630:Api\core\src/vl53l0x_api_core.c **** 			PreRangeTimeOutMClks = VL53L0X_decode_timeout(
 2774              		.loc 1 630 0
 2775 0122 1E23     		movs	r3, #30
 2776 0124 FB18     		adds	r3, r7, r3
 2777 0126 1B88     		ldrh	r3, [r3]
 2778 0128 1800     		movs	r0, r3
 2779 012a FFF7FEFF 		bl	VL53L0X_decode_timeout
 2780 012e 0200     		movs	r2, r0
 2781 0130 2623     		movs	r3, #38
 2782 0132 FB18     		adds	r3, r7, r3
 2783 0134 1A80     		strh	r2, [r3]
 631:Api\core\src/vl53l0x_api_core.c **** 					PreRangeEncodedTimeOut);
 632:Api\core\src/vl53l0x_api_core.c **** 
 633:Api\core\src/vl53l0x_api_core.c **** 			TimeoutMicroSeconds = VL53L0X_calc_timeout_us(Dev,
 2784              		.loc 1 633 0
 2785 0136 2123     		movs	r3, #33
 2786 0138 FB18     		adds	r3, r7, r3
 2787 013a 1A78     		ldrb	r2, [r3]
 2788 013c 2623     		movs	r3, #38
 2789 013e FB18     		adds	r3, r7, r3
 2790 0140 1988     		ldrh	r1, [r3]
 2791 0142 FB68     		ldr	r3, [r7, #12]
 2792 0144 1800     		movs	r0, r3
 2793 0146 FFF7FEFF 		bl	VL53L0X_calc_timeout_us
 2794 014a 0300     		movs	r3, r0
 2795 014c BB62     		str	r3, [r7, #40]
 2796 014e 7DE0     		b	.L74
 2797              	.L75:
 634:Api\core\src/vl53l0x_api_core.c **** 					PreRangeTimeOutMClks,
 635:Api\core\src/vl53l0x_api_core.c **** 					CurrentVCSELPulsePeriodPClk);
 636:Api\core\src/vl53l0x_api_core.c **** 		}
 637:Api\core\src/vl53l0x_api_core.c **** 	} else if (SequenceStepId == VL53L0X_SEQUENCESTEP_FINAL_RANGE) {
 2798              		.loc 1 637 0
 2799 0150 0B23     		movs	r3, #11
 2800 0152 FB18     		adds	r3, r7, r3
 2801 0154 1B78     		ldrb	r3, [r3]
 2802 0156 042B     		cmp	r3, #4
 2803 0158 00D0     		beq	.LCB2470
 2804 015a 77E0     		b	.L74	@long jump
 2805              	.LCB2470:
 638:Api\core\src/vl53l0x_api_core.c **** 
 639:Api\core\src/vl53l0x_api_core.c **** 		VL53L0X_GetSequenceStepEnables(Dev, &SchedulerSequenceSteps);
 2806              		.loc 1 639 0
 2807 015c 1423     		movs	r3, #20
 2808 015e FA18     		adds	r2, r7, r3
 2809 0160 FB68     		ldr	r3, [r7, #12]
 2810 0162 1100     		movs	r1, r2
ARM GAS  C:\Users\ilya\AppData\Local\Temp\ccAjPEqD.s 			page 62


 2811 0164 1800     		movs	r0, r3
 2812 0166 FFF7FEFF 		bl	VL53L0X_GetSequenceStepEnables
 640:Api\core\src/vl53l0x_api_core.c **** 		PreRangeTimeOutMClks = 0;
 2813              		.loc 1 640 0
 2814 016a 2623     		movs	r3, #38
 2815 016c FB18     		adds	r3, r7, r3
 2816 016e 0022     		movs	r2, #0
 2817 0170 1A80     		strh	r2, [r3]
 641:Api\core\src/vl53l0x_api_core.c **** 
 642:Api\core\src/vl53l0x_api_core.c **** 		if (SchedulerSequenceSteps.PreRangeOn) {
 2818              		.loc 1 642 0
 2819 0172 1423     		movs	r3, #20
 2820 0174 FB18     		adds	r3, r7, r3
 2821 0176 DB78     		ldrb	r3, [r3, #3]
 2822 0178 002B     		cmp	r3, #0
 2823 017a 25D0     		beq	.L78
 643:Api\core\src/vl53l0x_api_core.c **** 			/* Retrieve PRE-RANGE VCSEL Period */
 644:Api\core\src/vl53l0x_api_core.c **** 			Status = VL53L0X_GetVcselPulsePeriod(Dev,
 2824              		.loc 1 644 0
 2825 017c 2F23     		movs	r3, #47
 2826 017e FC18     		adds	r4, r7, r3
 2827 0180 2123     		movs	r3, #33
 2828 0182 FA18     		adds	r2, r7, r3
 2829 0184 FB68     		ldr	r3, [r7, #12]
 2830 0186 0021     		movs	r1, #0
 2831 0188 1800     		movs	r0, r3
 2832 018a FFF7FEFF 		bl	VL53L0X_GetVcselPulsePeriod
 2833 018e 0300     		movs	r3, r0
 2834 0190 2370     		strb	r3, [r4]
 645:Api\core\src/vl53l0x_api_core.c **** 				VL53L0X_VCSEL_PERIOD_PRE_RANGE,
 646:Api\core\src/vl53l0x_api_core.c **** 				&CurrentVCSELPulsePeriodPClk);
 647:Api\core\src/vl53l0x_api_core.c **** 
 648:Api\core\src/vl53l0x_api_core.c **** 			/* Retrieve PRE-RANGE Timeout in Macro periods
 649:Api\core\src/vl53l0x_api_core.c **** 			 * (MCLKS) */
 650:Api\core\src/vl53l0x_api_core.c **** 			if (Status == VL53L0X_ERROR_NONE) {
 2835              		.loc 1 650 0
 2836 0192 2F23     		movs	r3, #47
 2837 0194 FB18     		adds	r3, r7, r3
 2838 0196 1B78     		ldrb	r3, [r3]
 2839 0198 5BB2     		sxtb	r3, r3
 2840 019a 002B     		cmp	r3, #0
 2841 019c 14D1     		bne	.L78
 651:Api\core\src/vl53l0x_api_core.c **** 				Status = VL53L0X_RdWord(Dev,
 2842              		.loc 1 651 0
 2843 019e 2F23     		movs	r3, #47
 2844 01a0 FC18     		adds	r4, r7, r3
 2845 01a2 1E23     		movs	r3, #30
 2846 01a4 FA18     		adds	r2, r7, r3
 2847 01a6 FB68     		ldr	r3, [r7, #12]
 2848 01a8 5121     		movs	r1, #81
 2849 01aa 1800     		movs	r0, r3
 2850 01ac FFF7FEFF 		bl	VL53L0X_RdWord
 2851 01b0 0300     		movs	r3, r0
 2852 01b2 2370     		strb	r3, [r4]
 652:Api\core\src/vl53l0x_api_core.c **** 				VL53L0X_REG_PRE_RANGE_CONFIG_TIMEOUT_MACROP_HI,
 653:Api\core\src/vl53l0x_api_core.c **** 				&PreRangeEncodedTimeOut);
 654:Api\core\src/vl53l0x_api_core.c **** 				PreRangeTimeOutMClks = VL53L0X_decode_timeout(
ARM GAS  C:\Users\ilya\AppData\Local\Temp\ccAjPEqD.s 			page 63


 2853              		.loc 1 654 0
 2854 01b4 1E23     		movs	r3, #30
 2855 01b6 FB18     		adds	r3, r7, r3
 2856 01b8 1B88     		ldrh	r3, [r3]
 2857 01ba 1800     		movs	r0, r3
 2858 01bc FFF7FEFF 		bl	VL53L0X_decode_timeout
 2859 01c0 0200     		movs	r2, r0
 2860 01c2 2623     		movs	r3, #38
 2861 01c4 FB18     		adds	r3, r7, r3
 2862 01c6 1A80     		strh	r2, [r3]
 2863              	.L78:
 655:Api\core\src/vl53l0x_api_core.c **** 						PreRangeEncodedTimeOut);
 656:Api\core\src/vl53l0x_api_core.c **** 			}
 657:Api\core\src/vl53l0x_api_core.c **** 		}
 658:Api\core\src/vl53l0x_api_core.c **** 
 659:Api\core\src/vl53l0x_api_core.c **** 		if (Status == VL53L0X_ERROR_NONE) {
 2864              		.loc 1 659 0
 2865 01c8 2F23     		movs	r3, #47
 2866 01ca FB18     		adds	r3, r7, r3
 2867 01cc 1B78     		ldrb	r3, [r3]
 2868 01ce 5BB2     		sxtb	r3, r3
 2869 01d0 002B     		cmp	r3, #0
 2870 01d2 0AD1     		bne	.L79
 660:Api\core\src/vl53l0x_api_core.c **** 			/* Retrieve FINAL-RANGE VCSEL Period */
 661:Api\core\src/vl53l0x_api_core.c **** 			Status = VL53L0X_GetVcselPulsePeriod(Dev,
 2871              		.loc 1 661 0
 2872 01d4 2F23     		movs	r3, #47
 2873 01d6 FC18     		adds	r4, r7, r3
 2874 01d8 2123     		movs	r3, #33
 2875 01da FA18     		adds	r2, r7, r3
 2876 01dc FB68     		ldr	r3, [r7, #12]
 2877 01de 0121     		movs	r1, #1
 2878 01e0 1800     		movs	r0, r3
 2879 01e2 FFF7FEFF 		bl	VL53L0X_GetVcselPulsePeriod
 2880 01e6 0300     		movs	r3, r0
 2881 01e8 2370     		strb	r3, [r4]
 2882              	.L79:
 662:Api\core\src/vl53l0x_api_core.c **** 					VL53L0X_VCSEL_PERIOD_FINAL_RANGE,
 663:Api\core\src/vl53l0x_api_core.c **** 					&CurrentVCSELPulsePeriodPClk);
 664:Api\core\src/vl53l0x_api_core.c **** 		}
 665:Api\core\src/vl53l0x_api_core.c **** 
 666:Api\core\src/vl53l0x_api_core.c **** 		/* Retrieve FINAL-RANGE Timeout in Macro periods (MCLKS) */
 667:Api\core\src/vl53l0x_api_core.c **** 		if (Status == VL53L0X_ERROR_NONE) {
 2883              		.loc 1 667 0
 2884 01ea 2F23     		movs	r3, #47
 2885 01ec FB18     		adds	r3, r7, r3
 2886 01ee 1B78     		ldrb	r3, [r3]
 2887 01f0 5BB2     		sxtb	r3, r3
 2888 01f2 002B     		cmp	r3, #0
 2889 01f4 14D1     		bne	.L80
 668:Api\core\src/vl53l0x_api_core.c **** 			Status = VL53L0X_RdWord(Dev,
 2890              		.loc 1 668 0
 2891 01f6 2F23     		movs	r3, #47
 2892 01f8 FC18     		adds	r4, r7, r3
 2893 01fa 1C23     		movs	r3, #28
 2894 01fc FA18     		adds	r2, r7, r3
 2895 01fe FB68     		ldr	r3, [r7, #12]
ARM GAS  C:\Users\ilya\AppData\Local\Temp\ccAjPEqD.s 			page 64


 2896 0200 7121     		movs	r1, #113
 2897 0202 1800     		movs	r0, r3
 2898 0204 FFF7FEFF 		bl	VL53L0X_RdWord
 2899 0208 0300     		movs	r3, r0
 2900 020a 2370     		strb	r3, [r4]
 669:Api\core\src/vl53l0x_api_core.c **** 				VL53L0X_REG_FINAL_RANGE_CONFIG_TIMEOUT_MACROP_HI,
 670:Api\core\src/vl53l0x_api_core.c **** 				&FinalRangeEncodedTimeOut);
 671:Api\core\src/vl53l0x_api_core.c **** 			FinalRangeTimeOutMClks = VL53L0X_decode_timeout(
 2901              		.loc 1 671 0
 2902 020c 1C23     		movs	r3, #28
 2903 020e FB18     		adds	r3, r7, r3
 2904 0210 1B88     		ldrh	r3, [r3]
 2905 0212 1800     		movs	r0, r3
 2906 0214 FFF7FEFF 		bl	VL53L0X_decode_timeout
 2907 0218 0200     		movs	r2, r0
 2908 021a 2423     		movs	r3, #36
 2909 021c FB18     		adds	r3, r7, r3
 2910 021e 1A80     		strh	r2, [r3]
 2911              	.L80:
 672:Api\core\src/vl53l0x_api_core.c **** 					FinalRangeEncodedTimeOut);
 673:Api\core\src/vl53l0x_api_core.c **** 		}
 674:Api\core\src/vl53l0x_api_core.c **** 
 675:Api\core\src/vl53l0x_api_core.c **** 		FinalRangeTimeOutMClks -= PreRangeTimeOutMClks;
 2912              		.loc 1 675 0
 2913 0220 2423     		movs	r3, #36
 2914 0222 FB18     		adds	r3, r7, r3
 2915 0224 2422     		movs	r2, #36
 2916 0226 B918     		adds	r1, r7, r2
 2917 0228 2622     		movs	r2, #38
 2918 022a BA18     		adds	r2, r7, r2
 2919 022c 0988     		ldrh	r1, [r1]
 2920 022e 1288     		ldrh	r2, [r2]
 2921 0230 8A1A     		subs	r2, r1, r2
 2922 0232 1A80     		strh	r2, [r3]
 676:Api\core\src/vl53l0x_api_core.c **** 		TimeoutMicroSeconds = VL53L0X_calc_timeout_us(Dev,
 2923              		.loc 1 676 0
 2924 0234 2123     		movs	r3, #33
 2925 0236 FB18     		adds	r3, r7, r3
 2926 0238 1A78     		ldrb	r2, [r3]
 2927 023a 2423     		movs	r3, #36
 2928 023c FB18     		adds	r3, r7, r3
 2929 023e 1988     		ldrh	r1, [r3]
 2930 0240 FB68     		ldr	r3, [r7, #12]
 2931 0242 1800     		movs	r0, r3
 2932 0244 FFF7FEFF 		bl	VL53L0X_calc_timeout_us
 2933 0248 0300     		movs	r3, r0
 2934 024a BB62     		str	r3, [r7, #40]
 2935              	.L74:
 677:Api\core\src/vl53l0x_api_core.c **** 						FinalRangeTimeOutMClks,
 678:Api\core\src/vl53l0x_api_core.c **** 						CurrentVCSELPulsePeriodPClk);
 679:Api\core\src/vl53l0x_api_core.c **** 	}
 680:Api\core\src/vl53l0x_api_core.c **** 
 681:Api\core\src/vl53l0x_api_core.c **** 	*pTimeOutMicroSecs = TimeoutMicroSeconds;
 2936              		.loc 1 681 0
 2937 024c 7B68     		ldr	r3, [r7, #4]
 2938 024e BA6A     		ldr	r2, [r7, #40]
 2939 0250 1A60     		str	r2, [r3]
ARM GAS  C:\Users\ilya\AppData\Local\Temp\ccAjPEqD.s 			page 65


 682:Api\core\src/vl53l0x_api_core.c **** 
 683:Api\core\src/vl53l0x_api_core.c **** 	return Status;
 2940              		.loc 1 683 0
 2941 0252 2F23     		movs	r3, #47
 2942 0254 FB18     		adds	r3, r7, r3
 2943 0256 1B78     		ldrb	r3, [r3]
 2944 0258 5BB2     		sxtb	r3, r3
 684:Api\core\src/vl53l0x_api_core.c **** }
 2945              		.loc 1 684 0
 2946 025a 1800     		movs	r0, r3
 2947 025c BD46     		mov	sp, r7
 2948 025e 0DB0     		add	sp, sp, #52
 2949              		@ sp needed
 2950 0260 90BD     		pop	{r4, r7, pc}
 2951              		.cfi_endproc
 2952              	.LFE14:
 2953              		.size	get_sequence_step_timeout, .-get_sequence_step_timeout
 2954 0262 C046     		.section	.text.set_sequence_step_timeout,"ax",%progbits
 2955              		.align	2
 2956              		.global	set_sequence_step_timeout
 2957              		.code	16
 2958              		.thumb_func
 2959              		.type	set_sequence_step_timeout, %function
 2960              	set_sequence_step_timeout:
 2961              	.LFB15:
 685:Api\core\src/vl53l0x_api_core.c **** 
 686:Api\core\src/vl53l0x_api_core.c **** 
 687:Api\core\src/vl53l0x_api_core.c **** VL53L0X_Error set_sequence_step_timeout(VL53L0X_DEV Dev,
 688:Api\core\src/vl53l0x_api_core.c **** 					VL53L0X_SequenceStepId SequenceStepId,
 689:Api\core\src/vl53l0x_api_core.c **** 					uint32_t TimeOutMicroSecs)
 690:Api\core\src/vl53l0x_api_core.c **** {
 2962              		.loc 1 690 0
 2963              		.cfi_startproc
 2964              		@ args = 0, pretend = 0, frame = 40
 2965              		@ frame_needed = 1, uses_anonymous_args = 0
 2966 0000 90B5     		push	{r4, r7, lr}
 2967              		.cfi_def_cfa_offset 12
 2968              		.cfi_offset 4, -12
 2969              		.cfi_offset 7, -8
 2970              		.cfi_offset 14, -4
 2971 0002 8BB0     		sub	sp, sp, #44
 2972              		.cfi_def_cfa_offset 56
 2973 0004 00AF     		add	r7, sp, #0
 2974              		.cfi_def_cfa_register 7
 2975 0006 F860     		str	r0, [r7, #12]
 2976 0008 7A60     		str	r2, [r7, #4]
 2977 000a 0B23     		movs	r3, #11
 2978 000c FB18     		adds	r3, r7, r3
 2979 000e 0A1C     		adds	r2, r1, #0
 2980 0010 1A70     		strb	r2, [r3]
 691:Api\core\src/vl53l0x_api_core.c **** 	VL53L0X_Error Status = VL53L0X_ERROR_NONE;
 2981              		.loc 1 691 0
 2982 0012 2723     		movs	r3, #39
 2983 0014 FB18     		adds	r3, r7, r3
 2984 0016 0022     		movs	r2, #0
 2985 0018 1A70     		strb	r2, [r3]
 692:Api\core\src/vl53l0x_api_core.c **** 	uint8_t CurrentVCSELPulsePeriodPClk;
ARM GAS  C:\Users\ilya\AppData\Local\Temp\ccAjPEqD.s 			page 66


 693:Api\core\src/vl53l0x_api_core.c **** 	uint8_t MsrcEncodedTimeOut;
 694:Api\core\src/vl53l0x_api_core.c **** 	uint16_t PreRangeEncodedTimeOut;
 695:Api\core\src/vl53l0x_api_core.c **** 	uint16_t PreRangeTimeOutMClks;
 696:Api\core\src/vl53l0x_api_core.c **** 	uint16_t MsrcRangeTimeOutMClks;
 697:Api\core\src/vl53l0x_api_core.c **** 	uint32_t FinalRangeTimeOutMClks;
 698:Api\core\src/vl53l0x_api_core.c **** 	uint16_t FinalRangeEncodedTimeOut;
 699:Api\core\src/vl53l0x_api_core.c **** 	VL53L0X_SchedulerSequenceSteps_t SchedulerSequenceSteps;
 700:Api\core\src/vl53l0x_api_core.c **** 
 701:Api\core\src/vl53l0x_api_core.c **** 	if ((SequenceStepId == VL53L0X_SEQUENCESTEP_TCC)	 ||
 2986              		.loc 1 701 0
 2987 001a 0B23     		movs	r3, #11
 2988 001c FB18     		adds	r3, r7, r3
 2989 001e 1B78     		ldrb	r3, [r3]
 2990 0020 002B     		cmp	r3, #0
 2991 0022 09D0     		beq	.L83
 2992              		.loc 1 701 0 is_stmt 0 discriminator 1
 2993 0024 0B23     		movs	r3, #11
 2994 0026 FB18     		adds	r3, r7, r3
 2995 0028 1B78     		ldrb	r3, [r3]
 2996 002a 012B     		cmp	r3, #1
 2997 002c 04D0     		beq	.L83
 702:Api\core\src/vl53l0x_api_core.c **** 		(SequenceStepId == VL53L0X_SEQUENCESTEP_DSS)	 ||
 2998              		.loc 1 702 0 is_stmt 1
 2999 002e 0B23     		movs	r3, #11
 3000 0030 FB18     		adds	r3, r7, r3
 3001 0032 1B78     		ldrb	r3, [r3]
 3002 0034 022B     		cmp	r3, #2
 3003 0036 4BD1     		bne	.L84
 3004              	.L83:
 703:Api\core\src/vl53l0x_api_core.c **** 		(SequenceStepId == VL53L0X_SEQUENCESTEP_MSRC)) {
 704:Api\core\src/vl53l0x_api_core.c **** 
 705:Api\core\src/vl53l0x_api_core.c **** 		Status = VL53L0X_GetVcselPulsePeriod(Dev,
 3005              		.loc 1 705 0
 3006 0038 2723     		movs	r3, #39
 3007 003a FC18     		adds	r4, r7, r3
 3008 003c 1B23     		movs	r3, #27
 3009 003e FA18     		adds	r2, r7, r3
 3010 0040 FB68     		ldr	r3, [r7, #12]
 3011 0042 0021     		movs	r1, #0
 3012 0044 1800     		movs	r0, r3
 3013 0046 FFF7FEFF 		bl	VL53L0X_GetVcselPulsePeriod
 3014 004a 0300     		movs	r3, r0
 3015 004c 2370     		strb	r3, [r4]
 706:Api\core\src/vl53l0x_api_core.c **** 					VL53L0X_VCSEL_PERIOD_PRE_RANGE,
 707:Api\core\src/vl53l0x_api_core.c **** 					&CurrentVCSELPulsePeriodPClk);
 708:Api\core\src/vl53l0x_api_core.c **** 
 709:Api\core\src/vl53l0x_api_core.c **** 		if (Status == VL53L0X_ERROR_NONE) {
 3016              		.loc 1 709 0
 3017 004e 2723     		movs	r3, #39
 3018 0050 FB18     		adds	r3, r7, r3
 3019 0052 1B78     		ldrb	r3, [r3]
 3020 0054 5BB2     		sxtb	r3, r3
 3021 0056 002B     		cmp	r3, #0
 3022 0058 26D1     		bne	.L85
 710:Api\core\src/vl53l0x_api_core.c **** 			MsrcRangeTimeOutMClks = VL53L0X_calc_timeout_mclks(Dev,
 3023              		.loc 1 710 0
 3024 005a 1B23     		movs	r3, #27
ARM GAS  C:\Users\ilya\AppData\Local\Temp\ccAjPEqD.s 			page 67


 3025 005c FB18     		adds	r3, r7, r3
 3026 005e 1A78     		ldrb	r2, [r3]
 3027 0060 7968     		ldr	r1, [r7, #4]
 3028 0062 FB68     		ldr	r3, [r7, #12]
 3029 0064 1800     		movs	r0, r3
 3030 0066 FFF7FEFF 		bl	VL53L0X_calc_timeout_mclks
 3031 006a 0200     		movs	r2, r0
 3032 006c 1C23     		movs	r3, #28
 3033 006e FB18     		adds	r3, r7, r3
 3034 0070 1A80     		strh	r2, [r3]
 711:Api\core\src/vl53l0x_api_core.c **** 					TimeOutMicroSecs,
 712:Api\core\src/vl53l0x_api_core.c **** 					(uint8_t)CurrentVCSELPulsePeriodPClk);
 713:Api\core\src/vl53l0x_api_core.c **** 
 714:Api\core\src/vl53l0x_api_core.c **** 			if (MsrcRangeTimeOutMClks > 256)
 3035              		.loc 1 714 0
 3036 0072 1C23     		movs	r3, #28
 3037 0074 FB18     		adds	r3, r7, r3
 3038 0076 1A88     		ldrh	r2, [r3]
 3039 0078 8023     		movs	r3, #128
 3040 007a 5B00     		lsls	r3, r3, #1
 3041 007c 9A42     		cmp	r2, r3
 3042 007e 04D9     		bls	.L86
 715:Api\core\src/vl53l0x_api_core.c **** 				MsrcEncodedTimeOut = 255;
 3043              		.loc 1 715 0
 3044 0080 2623     		movs	r3, #38
 3045 0082 FB18     		adds	r3, r7, r3
 3046 0084 FF22     		movs	r2, #255
 3047 0086 1A70     		strb	r2, [r3]
 3048 0088 07E0     		b	.L87
 3049              	.L86:
 716:Api\core\src/vl53l0x_api_core.c **** 			else
 717:Api\core\src/vl53l0x_api_core.c **** 				MsrcEncodedTimeOut =
 718:Api\core\src/vl53l0x_api_core.c **** 					(uint8_t)MsrcRangeTimeOutMClks - 1;
 3050              		.loc 1 718 0
 3051 008a 1C23     		movs	r3, #28
 3052 008c FB18     		adds	r3, r7, r3
 3053 008e 1B88     		ldrh	r3, [r3]
 3054 0090 DAB2     		uxtb	r2, r3
 717:Api\core\src/vl53l0x_api_core.c **** 					(uint8_t)MsrcRangeTimeOutMClks - 1;
 3055              		.loc 1 717 0
 3056 0092 2623     		movs	r3, #38
 3057 0094 FB18     		adds	r3, r7, r3
 3058 0096 013A     		subs	r2, r2, #1
 3059 0098 1A70     		strb	r2, [r3]
 3060              	.L87:
 719:Api\core\src/vl53l0x_api_core.c **** 
 720:Api\core\src/vl53l0x_api_core.c **** 			VL53L0X_SETDEVICESPECIFICPARAMETER(Dev,
 3061              		.loc 1 720 0
 3062 009a 2623     		movs	r3, #38
 3063 009c FB18     		adds	r3, r7, r3
 3064 009e 1B78     		ldrb	r3, [r3]
 3065 00a0 99B2     		uxth	r1, r3
 3066 00a2 FB68     		ldr	r3, [r7, #12]
 3067 00a4 D822     		movs	r2, #216
 3068 00a6 9952     		strh	r1, [r3, r2]
 3069              	.L85:
 721:Api\core\src/vl53l0x_api_core.c **** 				LastEncodedTimeout,
ARM GAS  C:\Users\ilya\AppData\Local\Temp\ccAjPEqD.s 			page 68


 722:Api\core\src/vl53l0x_api_core.c **** 				MsrcEncodedTimeOut);
 723:Api\core\src/vl53l0x_api_core.c **** 		}
 724:Api\core\src/vl53l0x_api_core.c **** 
 725:Api\core\src/vl53l0x_api_core.c **** 		if (Status == VL53L0X_ERROR_NONE) {
 3070              		.loc 1 725 0
 3071 00a8 2723     		movs	r3, #39
 3072 00aa FB18     		adds	r3, r7, r3
 3073 00ac 1B78     		ldrb	r3, [r3]
 3074 00ae 5BB2     		sxtb	r3, r3
 3075 00b0 002B     		cmp	r3, #0
 3076 00b2 00D0     		beq	.LCB2715
 3077 00b4 E9E0     		b	.L89	@long jump
 3078              	.LCB2715:
 726:Api\core\src/vl53l0x_api_core.c **** 			Status = VL53L0X_WrByte(Dev,
 3079              		.loc 1 726 0
 3080 00b6 2723     		movs	r3, #39
 3081 00b8 FC18     		adds	r4, r7, r3
 3082 00ba 2623     		movs	r3, #38
 3083 00bc FB18     		adds	r3, r7, r3
 3084 00be 1A78     		ldrb	r2, [r3]
 3085 00c0 FB68     		ldr	r3, [r7, #12]
 3086 00c2 4621     		movs	r1, #70
 3087 00c4 1800     		movs	r0, r3
 3088 00c6 FFF7FEFF 		bl	VL53L0X_WrByte
 3089 00ca 0300     		movs	r3, r0
 3090 00cc 2370     		strb	r3, [r4]
 725:Api\core\src/vl53l0x_api_core.c **** 			Status = VL53L0X_WrByte(Dev,
 3091              		.loc 1 725 0
 3092 00ce DCE0     		b	.L89
 3093              	.L84:
 727:Api\core\src/vl53l0x_api_core.c **** 				VL53L0X_REG_MSRC_CONFIG_TIMEOUT_MACROP,
 728:Api\core\src/vl53l0x_api_core.c **** 				MsrcEncodedTimeOut);
 729:Api\core\src/vl53l0x_api_core.c **** 		}
 730:Api\core\src/vl53l0x_api_core.c **** 	} else {
 731:Api\core\src/vl53l0x_api_core.c **** 
 732:Api\core\src/vl53l0x_api_core.c **** 		if (SequenceStepId == VL53L0X_SEQUENCESTEP_PRE_RANGE) {
 3094              		.loc 1 732 0
 3095 00d0 0B23     		movs	r3, #11
 3096 00d2 FB18     		adds	r3, r7, r3
 3097 00d4 1B78     		ldrb	r3, [r3]
 3098 00d6 032B     		cmp	r3, #3
 3099 00d8 4BD1     		bne	.L90
 733:Api\core\src/vl53l0x_api_core.c **** 
 734:Api\core\src/vl53l0x_api_core.c **** 			if (Status == VL53L0X_ERROR_NONE) {
 3100              		.loc 1 734 0
 3101 00da 2723     		movs	r3, #39
 3102 00dc FB18     		adds	r3, r7, r3
 3103 00de 1B78     		ldrb	r3, [r3]
 3104 00e0 5BB2     		sxtb	r3, r3
 3105 00e2 002B     		cmp	r3, #0
 3106 00e4 27D1     		bne	.L91
 735:Api\core\src/vl53l0x_api_core.c **** 				Status = VL53L0X_GetVcselPulsePeriod(Dev,
 3107              		.loc 1 735 0
 3108 00e6 2723     		movs	r3, #39
 3109 00e8 FC18     		adds	r4, r7, r3
 3110 00ea 1B23     		movs	r3, #27
 3111 00ec FA18     		adds	r2, r7, r3
ARM GAS  C:\Users\ilya\AppData\Local\Temp\ccAjPEqD.s 			page 69


 3112 00ee FB68     		ldr	r3, [r7, #12]
 3113 00f0 0021     		movs	r1, #0
 3114 00f2 1800     		movs	r0, r3
 3115 00f4 FFF7FEFF 		bl	VL53L0X_GetVcselPulsePeriod
 3116 00f8 0300     		movs	r3, r0
 3117 00fa 2370     		strb	r3, [r4]
 736:Api\core\src/vl53l0x_api_core.c **** 						VL53L0X_VCSEL_PERIOD_PRE_RANGE,
 737:Api\core\src/vl53l0x_api_core.c **** 						&CurrentVCSELPulsePeriodPClk);
 738:Api\core\src/vl53l0x_api_core.c **** 				PreRangeTimeOutMClks =
 739:Api\core\src/vl53l0x_api_core.c **** 					VL53L0X_calc_timeout_mclks(Dev,
 3118              		.loc 1 739 0
 3119 00fc 1B23     		movs	r3, #27
 3120 00fe FB18     		adds	r3, r7, r3
 3121 0100 1A78     		ldrb	r2, [r3]
 3122 0102 7968     		ldr	r1, [r7, #4]
 3123 0104 FB68     		ldr	r3, [r7, #12]
 3124 0106 1800     		movs	r0, r3
 3125 0108 FFF7FEFF 		bl	VL53L0X_calc_timeout_mclks
 3126 010c 0200     		movs	r2, r0
 738:Api\core\src/vl53l0x_api_core.c **** 					VL53L0X_calc_timeout_mclks(Dev,
 3127              		.loc 1 738 0
 3128 010e 2423     		movs	r3, #36
 3129 0110 FB18     		adds	r3, r7, r3
 3130 0112 1A80     		strh	r2, [r3]
 740:Api\core\src/vl53l0x_api_core.c **** 					TimeOutMicroSecs,
 741:Api\core\src/vl53l0x_api_core.c **** 					(uint8_t)CurrentVCSELPulsePeriodPClk);
 742:Api\core\src/vl53l0x_api_core.c **** 				PreRangeEncodedTimeOut = VL53L0X_encode_timeout(
 3131              		.loc 1 742 0
 3132 0114 2423     		movs	r3, #36
 3133 0116 FB18     		adds	r3, r7, r3
 3134 0118 1B88     		ldrh	r3, [r3]
 3135 011a 1800     		movs	r0, r3
 3136 011c FFF7FEFF 		bl	VL53L0X_encode_timeout
 3137 0120 0300     		movs	r3, r0
 3138 0122 1A00     		movs	r2, r3
 3139 0124 1823     		movs	r3, #24
 3140 0126 FB18     		adds	r3, r7, r3
 3141 0128 1A80     		strh	r2, [r3]
 743:Api\core\src/vl53l0x_api_core.c **** 					PreRangeTimeOutMClks);
 744:Api\core\src/vl53l0x_api_core.c **** 
 745:Api\core\src/vl53l0x_api_core.c **** 				VL53L0X_SETDEVICESPECIFICPARAMETER(Dev,
 3142              		.loc 1 745 0
 3143 012a 1823     		movs	r3, #24
 3144 012c FB18     		adds	r3, r7, r3
 3145 012e 1988     		ldrh	r1, [r3]
 3146 0130 FB68     		ldr	r3, [r7, #12]
 3147 0132 D822     		movs	r2, #216
 3148 0134 9952     		strh	r1, [r3, r2]
 3149              	.L91:
 746:Api\core\src/vl53l0x_api_core.c **** 					LastEncodedTimeout,
 747:Api\core\src/vl53l0x_api_core.c **** 					PreRangeEncodedTimeOut);
 748:Api\core\src/vl53l0x_api_core.c **** 			}
 749:Api\core\src/vl53l0x_api_core.c **** 
 750:Api\core\src/vl53l0x_api_core.c **** 			if (Status == VL53L0X_ERROR_NONE) {
 3150              		.loc 1 750 0
 3151 0136 2723     		movs	r3, #39
 3152 0138 FB18     		adds	r3, r7, r3
ARM GAS  C:\Users\ilya\AppData\Local\Temp\ccAjPEqD.s 			page 70


 3153 013a 1B78     		ldrb	r3, [r3]
 3154 013c 5BB2     		sxtb	r3, r3
 3155 013e 002B     		cmp	r3, #0
 3156 0140 0BD1     		bne	.L92
 751:Api\core\src/vl53l0x_api_core.c **** 				Status = VL53L0X_WrWord(Dev,
 3157              		.loc 1 751 0
 3158 0142 1823     		movs	r3, #24
 3159 0144 FB18     		adds	r3, r7, r3
 3160 0146 1A88     		ldrh	r2, [r3]
 3161 0148 2723     		movs	r3, #39
 3162 014a FC18     		adds	r4, r7, r3
 3163 014c FB68     		ldr	r3, [r7, #12]
 3164 014e 5121     		movs	r1, #81
 3165 0150 1800     		movs	r0, r3
 3166 0152 FFF7FEFF 		bl	VL53L0X_WrWord
 3167 0156 0300     		movs	r3, r0
 3168 0158 2370     		strb	r3, [r4]
 3169              	.L92:
 752:Api\core\src/vl53l0x_api_core.c **** 				VL53L0X_REG_PRE_RANGE_CONFIG_TIMEOUT_MACROP_HI,
 753:Api\core\src/vl53l0x_api_core.c **** 				PreRangeEncodedTimeOut);
 754:Api\core\src/vl53l0x_api_core.c **** 			}
 755:Api\core\src/vl53l0x_api_core.c **** 
 756:Api\core\src/vl53l0x_api_core.c **** 			if (Status == VL53L0X_ERROR_NONE) {
 3170              		.loc 1 756 0
 3171 015a 2723     		movs	r3, #39
 3172 015c FB18     		adds	r3, r7, r3
 3173 015e 1B78     		ldrb	r3, [r3]
 3174 0160 5BB2     		sxtb	r3, r3
 3175 0162 002B     		cmp	r3, #0
 3176 0164 00D0     		beq	.LCB2805
 3177 0166 90E0     		b	.L89	@long jump
 3178              	.LCB2805:
 757:Api\core\src/vl53l0x_api_core.c **** 				VL53L0X_SETDEVICESPECIFICPARAMETER(
 3179              		.loc 1 757 0
 3180 0168 FB68     		ldr	r3, [r7, #12]
 3181 016a E421     		movs	r1, #228
 3182 016c 7A68     		ldr	r2, [r7, #4]
 3183 016e 5A50     		str	r2, [r3, r1]
 3184 0170 8BE0     		b	.L89
 3185              	.L90:
 758:Api\core\src/vl53l0x_api_core.c **** 					Dev,
 759:Api\core\src/vl53l0x_api_core.c **** 					PreRangeTimeoutMicroSecs,
 760:Api\core\src/vl53l0x_api_core.c **** 					TimeOutMicroSecs);
 761:Api\core\src/vl53l0x_api_core.c **** 			}
 762:Api\core\src/vl53l0x_api_core.c **** 		} else if (SequenceStepId == VL53L0X_SEQUENCESTEP_FINAL_RANGE) {
 3186              		.loc 1 762 0
 3187 0172 0B23     		movs	r3, #11
 3188 0174 FB18     		adds	r3, r7, r3
 3189 0176 1B78     		ldrb	r3, [r3]
 3190 0178 042B     		cmp	r3, #4
 3191 017a 00D0     		beq	.LCB2818
 3192 017c 81E0     		b	.L94	@long jump
 3193              	.LCB2818:
 763:Api\core\src/vl53l0x_api_core.c **** 
 764:Api\core\src/vl53l0x_api_core.c **** 			/* For the final range timeout, the pre-range timeout
 765:Api\core\src/vl53l0x_api_core.c **** 			 * must be added. To do this both final and pre-range
 766:Api\core\src/vl53l0x_api_core.c **** 			 * timeouts must be expressed in macro periods MClks
ARM GAS  C:\Users\ilya\AppData\Local\Temp\ccAjPEqD.s 			page 71


 767:Api\core\src/vl53l0x_api_core.c **** 			 * because they have different vcsel periods.
 768:Api\core\src/vl53l0x_api_core.c **** 			 */
 769:Api\core\src/vl53l0x_api_core.c **** 
 770:Api\core\src/vl53l0x_api_core.c **** 			VL53L0X_GetSequenceStepEnables(Dev,
 3194              		.loc 1 770 0
 3195 017e 1023     		movs	r3, #16
 3196 0180 FA18     		adds	r2, r7, r3
 3197 0182 FB68     		ldr	r3, [r7, #12]
 3198 0184 1100     		movs	r1, r2
 3199 0186 1800     		movs	r0, r3
 3200 0188 FFF7FEFF 		bl	VL53L0X_GetSequenceStepEnables
 771:Api\core\src/vl53l0x_api_core.c **** 					&SchedulerSequenceSteps);
 772:Api\core\src/vl53l0x_api_core.c **** 			PreRangeTimeOutMClks = 0;
 3201              		.loc 1 772 0
 3202 018c 2423     		movs	r3, #36
 3203 018e FB18     		adds	r3, r7, r3
 3204 0190 0022     		movs	r2, #0
 3205 0192 1A80     		strh	r2, [r3]
 773:Api\core\src/vl53l0x_api_core.c **** 			if (SchedulerSequenceSteps.PreRangeOn) {
 3206              		.loc 1 773 0
 3207 0194 1023     		movs	r3, #16
 3208 0196 FB18     		adds	r3, r7, r3
 3209 0198 DB78     		ldrb	r3, [r3, #3]
 3210 019a 002B     		cmp	r3, #0
 3211 019c 25D0     		beq	.L95
 774:Api\core\src/vl53l0x_api_core.c **** 
 775:Api\core\src/vl53l0x_api_core.c **** 				/* Retrieve PRE-RANGE VCSEL Period */
 776:Api\core\src/vl53l0x_api_core.c **** 				Status = VL53L0X_GetVcselPulsePeriod(Dev,
 3212              		.loc 1 776 0
 3213 019e 2723     		movs	r3, #39
 3214 01a0 FC18     		adds	r4, r7, r3
 3215 01a2 1B23     		movs	r3, #27
 3216 01a4 FA18     		adds	r2, r7, r3
 3217 01a6 FB68     		ldr	r3, [r7, #12]
 3218 01a8 0021     		movs	r1, #0
 3219 01aa 1800     		movs	r0, r3
 3220 01ac FFF7FEFF 		bl	VL53L0X_GetVcselPulsePeriod
 3221 01b0 0300     		movs	r3, r0
 3222 01b2 2370     		strb	r3, [r4]
 777:Api\core\src/vl53l0x_api_core.c **** 					VL53L0X_VCSEL_PERIOD_PRE_RANGE,
 778:Api\core\src/vl53l0x_api_core.c **** 					&CurrentVCSELPulsePeriodPClk);
 779:Api\core\src/vl53l0x_api_core.c **** 
 780:Api\core\src/vl53l0x_api_core.c **** 				/* Retrieve PRE-RANGE Timeout in Macro periods
 781:Api\core\src/vl53l0x_api_core.c **** 				 * (MCLKS) */
 782:Api\core\src/vl53l0x_api_core.c **** 				if (Status == VL53L0X_ERROR_NONE) {
 3223              		.loc 1 782 0
 3224 01b4 2723     		movs	r3, #39
 3225 01b6 FB18     		adds	r3, r7, r3
 3226 01b8 1B78     		ldrb	r3, [r3]
 3227 01ba 5BB2     		sxtb	r3, r3
 3228 01bc 002B     		cmp	r3, #0
 3229 01be 14D1     		bne	.L95
 783:Api\core\src/vl53l0x_api_core.c **** 					Status = VL53L0X_RdWord(Dev, 0x51,
 3230              		.loc 1 783 0
 3231 01c0 2723     		movs	r3, #39
 3232 01c2 FC18     		adds	r4, r7, r3
 3233 01c4 1823     		movs	r3, #24
ARM GAS  C:\Users\ilya\AppData\Local\Temp\ccAjPEqD.s 			page 72


 3234 01c6 FA18     		adds	r2, r7, r3
 3235 01c8 FB68     		ldr	r3, [r7, #12]
 3236 01ca 5121     		movs	r1, #81
 3237 01cc 1800     		movs	r0, r3
 3238 01ce FFF7FEFF 		bl	VL53L0X_RdWord
 3239 01d2 0300     		movs	r3, r0
 3240 01d4 2370     		strb	r3, [r4]
 784:Api\core\src/vl53l0x_api_core.c **** 						&PreRangeEncodedTimeOut);
 785:Api\core\src/vl53l0x_api_core.c **** 					PreRangeTimeOutMClks =
 786:Api\core\src/vl53l0x_api_core.c **** 						VL53L0X_decode_timeout(
 3241              		.loc 1 786 0
 3242 01d6 1823     		movs	r3, #24
 3243 01d8 FB18     		adds	r3, r7, r3
 3244 01da 1B88     		ldrh	r3, [r3]
 3245 01dc 1800     		movs	r0, r3
 3246 01de FFF7FEFF 		bl	VL53L0X_decode_timeout
 3247 01e2 0200     		movs	r2, r0
 785:Api\core\src/vl53l0x_api_core.c **** 						VL53L0X_decode_timeout(
 3248              		.loc 1 785 0
 3249 01e4 2423     		movs	r3, #36
 3250 01e6 FB18     		adds	r3, r7, r3
 3251 01e8 1A80     		strh	r2, [r3]
 3252              	.L95:
 787:Api\core\src/vl53l0x_api_core.c **** 							PreRangeEncodedTimeOut);
 788:Api\core\src/vl53l0x_api_core.c **** 				}
 789:Api\core\src/vl53l0x_api_core.c **** 			}
 790:Api\core\src/vl53l0x_api_core.c **** 
 791:Api\core\src/vl53l0x_api_core.c **** 			/* Calculate FINAL RANGE Timeout in Macro Periods
 792:Api\core\src/vl53l0x_api_core.c **** 			 * (MCLKS) and add PRE-RANGE value
 793:Api\core\src/vl53l0x_api_core.c **** 			 */
 794:Api\core\src/vl53l0x_api_core.c **** 			if (Status == VL53L0X_ERROR_NONE) {
 3253              		.loc 1 794 0
 3254 01ea 2723     		movs	r3, #39
 3255 01ec FB18     		adds	r3, r7, r3
 3256 01ee 1B78     		ldrb	r3, [r3]
 3257 01f0 5BB2     		sxtb	r3, r3
 3258 01f2 002B     		cmp	r3, #0
 3259 01f4 0AD1     		bne	.L96
 795:Api\core\src/vl53l0x_api_core.c **** 
 796:Api\core\src/vl53l0x_api_core.c **** 				Status = VL53L0X_GetVcselPulsePeriod(Dev,
 3260              		.loc 1 796 0
 3261 01f6 2723     		movs	r3, #39
 3262 01f8 FC18     		adds	r4, r7, r3
 3263 01fa 1B23     		movs	r3, #27
 3264 01fc FA18     		adds	r2, r7, r3
 3265 01fe FB68     		ldr	r3, [r7, #12]
 3266 0200 0121     		movs	r1, #1
 3267 0202 1800     		movs	r0, r3
 3268 0204 FFF7FEFF 		bl	VL53L0X_GetVcselPulsePeriod
 3269 0208 0300     		movs	r3, r0
 3270 020a 2370     		strb	r3, [r4]
 3271              	.L96:
 797:Api\core\src/vl53l0x_api_core.c **** 						VL53L0X_VCSEL_PERIOD_FINAL_RANGE,
 798:Api\core\src/vl53l0x_api_core.c **** 						&CurrentVCSELPulsePeriodPClk);
 799:Api\core\src/vl53l0x_api_core.c **** 			}
 800:Api\core\src/vl53l0x_api_core.c **** 			if (Status == VL53L0X_ERROR_NONE) {
 3272              		.loc 1 800 0
ARM GAS  C:\Users\ilya\AppData\Local\Temp\ccAjPEqD.s 			page 73


 3273 020c 2723     		movs	r3, #39
 3274 020e FB18     		adds	r3, r7, r3
 3275 0210 1B78     		ldrb	r3, [r3]
 3276 0212 5BB2     		sxtb	r3, r3
 3277 0214 002B     		cmp	r3, #0
 3278 0216 38D1     		bne	.L89
 801:Api\core\src/vl53l0x_api_core.c **** 
 802:Api\core\src/vl53l0x_api_core.c **** 				FinalRangeTimeOutMClks =
 803:Api\core\src/vl53l0x_api_core.c **** 					VL53L0X_calc_timeout_mclks(Dev,
 3279              		.loc 1 803 0
 3280 0218 1B23     		movs	r3, #27
 3281 021a FB18     		adds	r3, r7, r3
 3282 021c 1A78     		ldrb	r2, [r3]
 802:Api\core\src/vl53l0x_api_core.c **** 					VL53L0X_calc_timeout_mclks(Dev,
 3283              		.loc 1 802 0
 3284 021e 7968     		ldr	r1, [r7, #4]
 3285 0220 FB68     		ldr	r3, [r7, #12]
 3286 0222 1800     		movs	r0, r3
 3287 0224 FFF7FEFF 		bl	VL53L0X_calc_timeout_mclks
 3288 0228 0300     		movs	r3, r0
 3289 022a 3B62     		str	r3, [r7, #32]
 804:Api\core\src/vl53l0x_api_core.c **** 					TimeOutMicroSecs,
 805:Api\core\src/vl53l0x_api_core.c **** 					(uint8_t) CurrentVCSELPulsePeriodPClk);
 806:Api\core\src/vl53l0x_api_core.c **** 
 807:Api\core\src/vl53l0x_api_core.c **** 				FinalRangeTimeOutMClks += PreRangeTimeOutMClks;
 3290              		.loc 1 807 0
 3291 022c 2423     		movs	r3, #36
 3292 022e FB18     		adds	r3, r7, r3
 3293 0230 1B88     		ldrh	r3, [r3]
 3294 0232 3A6A     		ldr	r2, [r7, #32]
 3295 0234 D318     		adds	r3, r2, r3
 3296 0236 3B62     		str	r3, [r7, #32]
 808:Api\core\src/vl53l0x_api_core.c **** 
 809:Api\core\src/vl53l0x_api_core.c **** 				FinalRangeEncodedTimeOut =
 3297              		.loc 1 809 0
 3298 0238 1E23     		movs	r3, #30
 3299 023a FC18     		adds	r4, r7, r3
 3300 023c 3B6A     		ldr	r3, [r7, #32]
 3301 023e 1800     		movs	r0, r3
 3302 0240 FFF7FEFF 		bl	VL53L0X_encode_timeout
 3303 0244 0300     		movs	r3, r0
 3304 0246 2380     		strh	r3, [r4]
 810:Api\core\src/vl53l0x_api_core.c **** 				VL53L0X_encode_timeout(FinalRangeTimeOutMClks);
 811:Api\core\src/vl53l0x_api_core.c **** 
 812:Api\core\src/vl53l0x_api_core.c **** 				if (Status == VL53L0X_ERROR_NONE) {
 3305              		.loc 1 812 0
 3306 0248 2723     		movs	r3, #39
 3307 024a FB18     		adds	r3, r7, r3
 3308 024c 1B78     		ldrb	r3, [r3]
 3309 024e 5BB2     		sxtb	r3, r3
 3310 0250 002B     		cmp	r3, #0
 3311 0252 0BD1     		bne	.L98
 813:Api\core\src/vl53l0x_api_core.c **** 					Status = VL53L0X_WrWord(Dev, 0x71,
 3312              		.loc 1 813 0
 3313 0254 2723     		movs	r3, #39
 3314 0256 FC18     		adds	r4, r7, r3
 3315 0258 1E23     		movs	r3, #30
ARM GAS  C:\Users\ilya\AppData\Local\Temp\ccAjPEqD.s 			page 74


 3316 025a FB18     		adds	r3, r7, r3
 3317 025c 1A88     		ldrh	r2, [r3]
 3318 025e FB68     		ldr	r3, [r7, #12]
 3319 0260 7121     		movs	r1, #113
 3320 0262 1800     		movs	r0, r3
 3321 0264 FFF7FEFF 		bl	VL53L0X_WrWord
 3322 0268 0300     		movs	r3, r0
 3323 026a 2370     		strb	r3, [r4]
 3324              	.L98:
 814:Api\core\src/vl53l0x_api_core.c **** 					FinalRangeEncodedTimeOut);
 815:Api\core\src/vl53l0x_api_core.c **** 				}
 816:Api\core\src/vl53l0x_api_core.c **** 
 817:Api\core\src/vl53l0x_api_core.c **** 				if (Status == VL53L0X_ERROR_NONE) {
 3325              		.loc 1 817 0
 3326 026c 2723     		movs	r3, #39
 3327 026e FB18     		adds	r3, r7, r3
 3328 0270 1B78     		ldrb	r3, [r3]
 3329 0272 5BB2     		sxtb	r3, r3
 3330 0274 002B     		cmp	r3, #0
 3331 0276 08D1     		bne	.L89
 818:Api\core\src/vl53l0x_api_core.c **** 					VL53L0X_SETDEVICESPECIFICPARAMETER(
 3332              		.loc 1 818 0
 3333 0278 FB68     		ldr	r3, [r7, #12]
 3334 027a DC21     		movs	r1, #220
 3335 027c 7A68     		ldr	r2, [r7, #4]
 3336 027e 5A50     		str	r2, [r3, r1]
 3337 0280 03E0     		b	.L89
 3338              	.L94:
 819:Api\core\src/vl53l0x_api_core.c **** 						Dev,
 820:Api\core\src/vl53l0x_api_core.c **** 						FinalRangeTimeoutMicroSecs,
 821:Api\core\src/vl53l0x_api_core.c **** 						TimeOutMicroSecs);
 822:Api\core\src/vl53l0x_api_core.c **** 				}
 823:Api\core\src/vl53l0x_api_core.c **** 			}
 824:Api\core\src/vl53l0x_api_core.c **** 		} else
 825:Api\core\src/vl53l0x_api_core.c **** 			Status = VL53L0X_ERROR_INVALID_PARAMS;
 3339              		.loc 1 825 0
 3340 0282 2723     		movs	r3, #39
 3341 0284 FB18     		adds	r3, r7, r3
 3342 0286 FC22     		movs	r2, #252
 3343 0288 1A70     		strb	r2, [r3]
 3344              	.L89:
 826:Api\core\src/vl53l0x_api_core.c **** 
 827:Api\core\src/vl53l0x_api_core.c **** 	}
 828:Api\core\src/vl53l0x_api_core.c **** 	return Status;
 3345              		.loc 1 828 0
 3346 028a 2723     		movs	r3, #39
 3347 028c FB18     		adds	r3, r7, r3
 3348 028e 1B78     		ldrb	r3, [r3]
 3349 0290 5BB2     		sxtb	r3, r3
 829:Api\core\src/vl53l0x_api_core.c **** }
 3350              		.loc 1 829 0
 3351 0292 1800     		movs	r0, r3
 3352 0294 BD46     		mov	sp, r7
 3353 0296 0BB0     		add	sp, sp, #44
 3354              		@ sp needed
 3355 0298 90BD     		pop	{r4, r7, pc}
 3356              		.cfi_endproc
ARM GAS  C:\Users\ilya\AppData\Local\Temp\ccAjPEqD.s 			page 75


 3357              	.LFE15:
 3358              		.size	set_sequence_step_timeout, .-set_sequence_step_timeout
 3359 029a C046     		.section	.text.VL53L0X_set_vcsel_pulse_period,"ax",%progbits
 3360              		.align	2
 3361              		.global	VL53L0X_set_vcsel_pulse_period
 3362              		.code	16
 3363              		.thumb_func
 3364              		.type	VL53L0X_set_vcsel_pulse_period, %function
 3365              	VL53L0X_set_vcsel_pulse_period:
 3366              	.LFB16:
 830:Api\core\src/vl53l0x_api_core.c **** 
 831:Api\core\src/vl53l0x_api_core.c **** VL53L0X_Error VL53L0X_set_vcsel_pulse_period(VL53L0X_DEV Dev,
 832:Api\core\src/vl53l0x_api_core.c **** 	VL53L0X_VcselPeriod VcselPeriodType, uint8_t VCSELPulsePeriodPCLK)
 833:Api\core\src/vl53l0x_api_core.c **** {
 3367              		.loc 1 833 0
 3368              		.cfi_startproc
 3369              		@ args = 0, pretend = 0, frame = 40
 3370              		@ frame_needed = 1, uses_anonymous_args = 0
 3371 0000 90B5     		push	{r4, r7, lr}
 3372              		.cfi_def_cfa_offset 12
 3373              		.cfi_offset 4, -12
 3374              		.cfi_offset 7, -8
 3375              		.cfi_offset 14, -4
 3376 0002 8BB0     		sub	sp, sp, #44
 3377              		.cfi_def_cfa_offset 56
 3378 0004 00AF     		add	r7, sp, #0
 3379              		.cfi_def_cfa_register 7
 3380 0006 7860     		str	r0, [r7, #4]
 3381 0008 0800     		movs	r0, r1
 3382 000a 1100     		movs	r1, r2
 3383 000c FB1C     		adds	r3, r7, #3
 3384 000e 021C     		adds	r2, r0, #0
 3385 0010 1A70     		strb	r2, [r3]
 3386 0012 BB1C     		adds	r3, r7, #2
 3387 0014 0A1C     		adds	r2, r1, #0
 3388 0016 1A70     		strb	r2, [r3]
 834:Api\core\src/vl53l0x_api_core.c **** 	VL53L0X_Error Status = VL53L0X_ERROR_NONE;
 3389              		.loc 1 834 0
 3390 0018 2723     		movs	r3, #39
 3391 001a FB18     		adds	r3, r7, r3
 3392 001c 0022     		movs	r2, #0
 3393 001e 1A70     		strb	r2, [r3]
 835:Api\core\src/vl53l0x_api_core.c **** 	uint8_t vcsel_period_reg;
 836:Api\core\src/vl53l0x_api_core.c **** 	uint8_t MinPreVcselPeriodPCLK = 12;
 3394              		.loc 1 836 0
 3395 0020 2623     		movs	r3, #38
 3396 0022 FB18     		adds	r3, r7, r3
 3397 0024 0C22     		movs	r2, #12
 3398 0026 1A70     		strb	r2, [r3]
 837:Api\core\src/vl53l0x_api_core.c **** 	uint8_t MaxPreVcselPeriodPCLK = 18;
 3399              		.loc 1 837 0
 3400 0028 2523     		movs	r3, #37
 3401 002a FB18     		adds	r3, r7, r3
 3402 002c 1222     		movs	r2, #18
 3403 002e 1A70     		strb	r2, [r3]
 838:Api\core\src/vl53l0x_api_core.c **** 	uint8_t MinFinalVcselPeriodPCLK = 8;
 3404              		.loc 1 838 0
ARM GAS  C:\Users\ilya\AppData\Local\Temp\ccAjPEqD.s 			page 76


 3405 0030 2423     		movs	r3, #36
 3406 0032 FB18     		adds	r3, r7, r3
 3407 0034 0822     		movs	r2, #8
 3408 0036 1A70     		strb	r2, [r3]
 839:Api\core\src/vl53l0x_api_core.c **** 	uint8_t MaxFinalVcselPeriodPCLK = 14;
 3409              		.loc 1 839 0
 3410 0038 2323     		movs	r3, #35
 3411 003a FB18     		adds	r3, r7, r3
 3412 003c 0E22     		movs	r2, #14
 3413 003e 1A70     		strb	r2, [r3]
 840:Api\core\src/vl53l0x_api_core.c **** 	uint32_t MeasurementTimingBudgetMicroSeconds;
 841:Api\core\src/vl53l0x_api_core.c **** 	uint32_t FinalRangeTimeoutMicroSeconds;
 842:Api\core\src/vl53l0x_api_core.c **** 	uint32_t PreRangeTimeoutMicroSeconds;
 843:Api\core\src/vl53l0x_api_core.c **** 	uint32_t MsrcTimeoutMicroSeconds;
 844:Api\core\src/vl53l0x_api_core.c **** 	uint8_t PhaseCalInt = 0;
 3414              		.loc 1 844 0
 3415 0040 0F23     		movs	r3, #15
 3416 0042 FB18     		adds	r3, r7, r3
 3417 0044 0022     		movs	r2, #0
 3418 0046 1A70     		strb	r2, [r3]
 845:Api\core\src/vl53l0x_api_core.c **** 
 846:Api\core\src/vl53l0x_api_core.c **** 	/* Check if valid clock period requested */
 847:Api\core\src/vl53l0x_api_core.c **** 
 848:Api\core\src/vl53l0x_api_core.c **** 	if ((VCSELPulsePeriodPCLK % 2) != 0) {
 3419              		.loc 1 848 0
 3420 0048 BB1C     		adds	r3, r7, #2
 3421 004a 1B78     		ldrb	r3, [r3]
 3422 004c 0122     		movs	r2, #1
 3423 004e 1340     		ands	r3, r2
 3424 0050 DBB2     		uxtb	r3, r3
 3425 0052 002B     		cmp	r3, #0
 3426 0054 04D0     		beq	.L101
 849:Api\core\src/vl53l0x_api_core.c **** 		/* Value must be an even number */
 850:Api\core\src/vl53l0x_api_core.c **** 		Status = VL53L0X_ERROR_INVALID_PARAMS;
 3427              		.loc 1 850 0
 3428 0056 2723     		movs	r3, #39
 3429 0058 FB18     		adds	r3, r7, r3
 3430 005a FC22     		movs	r2, #252
 3431 005c 1A70     		strb	r2, [r3]
 3432 005e 2CE0     		b	.L102
 3433              	.L101:
 851:Api\core\src/vl53l0x_api_core.c **** 	} else if (VcselPeriodType == VL53L0X_VCSEL_PERIOD_PRE_RANGE &&
 3434              		.loc 1 851 0
 3435 0060 FB1C     		adds	r3, r7, #3
 3436 0062 1B78     		ldrb	r3, [r3]
 3437 0064 002B     		cmp	r3, #0
 3438 0066 12D1     		bne	.L103
 3439              		.loc 1 851 0 is_stmt 0 discriminator 1
 3440 0068 BA1C     		adds	r2, r7, #2
 3441 006a 2623     		movs	r3, #38
 3442 006c FB18     		adds	r3, r7, r3
 3443 006e 1278     		ldrb	r2, [r2]
 3444 0070 1B78     		ldrb	r3, [r3]
 3445 0072 9A42     		cmp	r2, r3
 3446 0074 06D3     		bcc	.L104
 852:Api\core\src/vl53l0x_api_core.c **** 		(VCSELPulsePeriodPCLK < MinPreVcselPeriodPCLK ||
 3447              		.loc 1 852 0 is_stmt 1
ARM GAS  C:\Users\ilya\AppData\Local\Temp\ccAjPEqD.s 			page 77


 3448 0076 BA1C     		adds	r2, r7, #2
 3449 0078 2523     		movs	r3, #37
 3450 007a FB18     		adds	r3, r7, r3
 3451 007c 1278     		ldrb	r2, [r2]
 3452 007e 1B78     		ldrb	r3, [r3]
 3453 0080 9A42     		cmp	r2, r3
 3454 0082 04D9     		bls	.L103
 3455              	.L104:
 853:Api\core\src/vl53l0x_api_core.c **** 		VCSELPulsePeriodPCLK > MaxPreVcselPeriodPCLK)) {
 854:Api\core\src/vl53l0x_api_core.c **** 		Status = VL53L0X_ERROR_INVALID_PARAMS;
 3456              		.loc 1 854 0
 3457 0084 2723     		movs	r3, #39
 3458 0086 FB18     		adds	r3, r7, r3
 3459 0088 FC22     		movs	r2, #252
 3460 008a 1A70     		strb	r2, [r3]
 3461 008c 15E0     		b	.L102
 3462              	.L103:
 855:Api\core\src/vl53l0x_api_core.c **** 	} else if (VcselPeriodType == VL53L0X_VCSEL_PERIOD_FINAL_RANGE &&
 3463              		.loc 1 855 0
 3464 008e FB1C     		adds	r3, r7, #3
 3465 0090 1B78     		ldrb	r3, [r3]
 3466 0092 012B     		cmp	r3, #1
 3467 0094 11D1     		bne	.L102
 3468              		.loc 1 855 0 is_stmt 0 discriminator 1
 3469 0096 BA1C     		adds	r2, r7, #2
 3470 0098 2423     		movs	r3, #36
 3471 009a FB18     		adds	r3, r7, r3
 3472 009c 1278     		ldrb	r2, [r2]
 3473 009e 1B78     		ldrb	r3, [r3]
 3474 00a0 9A42     		cmp	r2, r3
 3475 00a2 06D3     		bcc	.L105
 856:Api\core\src/vl53l0x_api_core.c **** 		(VCSELPulsePeriodPCLK < MinFinalVcselPeriodPCLK ||
 3476              		.loc 1 856 0 is_stmt 1
 3477 00a4 BA1C     		adds	r2, r7, #2
 3478 00a6 2323     		movs	r3, #35
 3479 00a8 FB18     		adds	r3, r7, r3
 3480 00aa 1278     		ldrb	r2, [r2]
 3481 00ac 1B78     		ldrb	r3, [r3]
 3482 00ae 9A42     		cmp	r2, r3
 3483 00b0 03D9     		bls	.L102
 3484              	.L105:
 857:Api\core\src/vl53l0x_api_core.c **** 		 VCSELPulsePeriodPCLK > MaxFinalVcselPeriodPCLK)) {
 858:Api\core\src/vl53l0x_api_core.c **** 
 859:Api\core\src/vl53l0x_api_core.c **** 		Status = VL53L0X_ERROR_INVALID_PARAMS;
 3485              		.loc 1 859 0
 3486 00b2 2723     		movs	r3, #39
 3487 00b4 FB18     		adds	r3, r7, r3
 3488 00b6 FC22     		movs	r2, #252
 3489 00b8 1A70     		strb	r2, [r3]
 3490              	.L102:
 860:Api\core\src/vl53l0x_api_core.c **** 	}
 861:Api\core\src/vl53l0x_api_core.c **** 
 862:Api\core\src/vl53l0x_api_core.c **** 	/* Apply specific settings for the requested clock period */
 863:Api\core\src/vl53l0x_api_core.c **** 
 864:Api\core\src/vl53l0x_api_core.c **** 	if (Status != VL53L0X_ERROR_NONE)
 3491              		.loc 1 864 0
 3492 00ba 2723     		movs	r3, #39
ARM GAS  C:\Users\ilya\AppData\Local\Temp\ccAjPEqD.s 			page 78


 3493 00bc FB18     		adds	r3, r7, r3
 3494 00be 1B78     		ldrb	r3, [r3]
 3495 00c0 5BB2     		sxtb	r3, r3
 3496 00c2 002B     		cmp	r3, #0
 3497 00c4 04D0     		beq	.L106
 865:Api\core\src/vl53l0x_api_core.c **** 		return Status;
 3498              		.loc 1 865 0
 3499 00c6 2723     		movs	r3, #39
 3500 00c8 FB18     		adds	r3, r7, r3
 3501 00ca 1B78     		ldrb	r3, [r3]
 3502 00cc 5BB2     		sxtb	r3, r3
 3503 00ce C6E2     		b	.L129
 3504              	.L106:
 866:Api\core\src/vl53l0x_api_core.c **** 
 867:Api\core\src/vl53l0x_api_core.c **** 
 868:Api\core\src/vl53l0x_api_core.c **** 	if (VcselPeriodType == VL53L0X_VCSEL_PERIOD_PRE_RANGE) {
 3505              		.loc 1 868 0
 3506 00d0 FB1C     		adds	r3, r7, #3
 3507 00d2 1B78     		ldrb	r3, [r3]
 3508 00d4 002B     		cmp	r3, #0
 3509 00d6 64D1     		bne	.L108
 869:Api\core\src/vl53l0x_api_core.c **** 
 870:Api\core\src/vl53l0x_api_core.c **** 		/* Set phase check limits */
 871:Api\core\src/vl53l0x_api_core.c **** 		if (VCSELPulsePeriodPCLK == 12) {
 3510              		.loc 1 871 0
 3511 00d8 BB1C     		adds	r3, r7, #2
 3512 00da 1B78     		ldrb	r3, [r3]
 3513 00dc 0C2B     		cmp	r3, #12
 3514 00de 14D1     		bne	.L109
 872:Api\core\src/vl53l0x_api_core.c **** 
 873:Api\core\src/vl53l0x_api_core.c **** 			Status = VL53L0X_WrByte(Dev,
 3515              		.loc 1 873 0
 3516 00e0 2723     		movs	r3, #39
 3517 00e2 FC18     		adds	r4, r7, r3
 3518 00e4 7B68     		ldr	r3, [r7, #4]
 3519 00e6 1822     		movs	r2, #24
 3520 00e8 5721     		movs	r1, #87
 3521 00ea 1800     		movs	r0, r3
 3522 00ec FFF7FEFF 		bl	VL53L0X_WrByte
 3523 00f0 0300     		movs	r3, r0
 3524 00f2 2370     		strb	r3, [r4]
 874:Api\core\src/vl53l0x_api_core.c **** 				VL53L0X_REG_PRE_RANGE_CONFIG_VALID_PHASE_HIGH,
 875:Api\core\src/vl53l0x_api_core.c **** 				0x18);
 876:Api\core\src/vl53l0x_api_core.c **** 			Status = VL53L0X_WrByte(Dev,
 3525              		.loc 1 876 0
 3526 00f4 2723     		movs	r3, #39
 3527 00f6 FC18     		adds	r4, r7, r3
 3528 00f8 7B68     		ldr	r3, [r7, #4]
 3529 00fa 0822     		movs	r2, #8
 3530 00fc 5621     		movs	r1, #86
 3531 00fe 1800     		movs	r0, r3
 3532 0100 FFF7FEFF 		bl	VL53L0X_WrByte
 3533 0104 0300     		movs	r3, r0
 3534 0106 2370     		strb	r3, [r4]
 3535 0108 DFE1     		b	.L113
 3536              	.L109:
 877:Api\core\src/vl53l0x_api_core.c **** 				VL53L0X_REG_PRE_RANGE_CONFIG_VALID_PHASE_LOW,
ARM GAS  C:\Users\ilya\AppData\Local\Temp\ccAjPEqD.s 			page 79


 878:Api\core\src/vl53l0x_api_core.c **** 				0x08);
 879:Api\core\src/vl53l0x_api_core.c **** 		} else if (VCSELPulsePeriodPCLK == 14) {
 3537              		.loc 1 879 0
 3538 010a BB1C     		adds	r3, r7, #2
 3539 010c 1B78     		ldrb	r3, [r3]
 3540 010e 0E2B     		cmp	r3, #14
 3541 0110 14D1     		bne	.L111
 880:Api\core\src/vl53l0x_api_core.c **** 
 881:Api\core\src/vl53l0x_api_core.c **** 			Status = VL53L0X_WrByte(Dev,
 3542              		.loc 1 881 0
 3543 0112 2723     		movs	r3, #39
 3544 0114 FC18     		adds	r4, r7, r3
 3545 0116 7B68     		ldr	r3, [r7, #4]
 3546 0118 3022     		movs	r2, #48
 3547 011a 5721     		movs	r1, #87
 3548 011c 1800     		movs	r0, r3
 3549 011e FFF7FEFF 		bl	VL53L0X_WrByte
 3550 0122 0300     		movs	r3, r0
 3551 0124 2370     		strb	r3, [r4]
 882:Api\core\src/vl53l0x_api_core.c **** 				VL53L0X_REG_PRE_RANGE_CONFIG_VALID_PHASE_HIGH,
 883:Api\core\src/vl53l0x_api_core.c **** 				0x30);
 884:Api\core\src/vl53l0x_api_core.c **** 			Status = VL53L0X_WrByte(Dev,
 3552              		.loc 1 884 0
 3553 0126 2723     		movs	r3, #39
 3554 0128 FC18     		adds	r4, r7, r3
 3555 012a 7B68     		ldr	r3, [r7, #4]
 3556 012c 0822     		movs	r2, #8
 3557 012e 5621     		movs	r1, #86
 3558 0130 1800     		movs	r0, r3
 3559 0132 FFF7FEFF 		bl	VL53L0X_WrByte
 3560 0136 0300     		movs	r3, r0
 3561 0138 2370     		strb	r3, [r4]
 3562 013a C6E1     		b	.L113
 3563              	.L111:
 885:Api\core\src/vl53l0x_api_core.c **** 				VL53L0X_REG_PRE_RANGE_CONFIG_VALID_PHASE_LOW,
 886:Api\core\src/vl53l0x_api_core.c **** 				0x08);
 887:Api\core\src/vl53l0x_api_core.c **** 		} else if (VCSELPulsePeriodPCLK == 16) {
 3564              		.loc 1 887 0
 3565 013c BB1C     		adds	r3, r7, #2
 3566 013e 1B78     		ldrb	r3, [r3]
 3567 0140 102B     		cmp	r3, #16
 3568 0142 14D1     		bne	.L112
 888:Api\core\src/vl53l0x_api_core.c **** 
 889:Api\core\src/vl53l0x_api_core.c **** 			Status = VL53L0X_WrByte(Dev,
 3569              		.loc 1 889 0
 3570 0144 2723     		movs	r3, #39
 3571 0146 FC18     		adds	r4, r7, r3
 3572 0148 7B68     		ldr	r3, [r7, #4]
 3573 014a 4022     		movs	r2, #64
 3574 014c 5721     		movs	r1, #87
 3575 014e 1800     		movs	r0, r3
 3576 0150 FFF7FEFF 		bl	VL53L0X_WrByte
 3577 0154 0300     		movs	r3, r0
 3578 0156 2370     		strb	r3, [r4]
 890:Api\core\src/vl53l0x_api_core.c **** 				VL53L0X_REG_PRE_RANGE_CONFIG_VALID_PHASE_HIGH,
 891:Api\core\src/vl53l0x_api_core.c **** 				0x40);
 892:Api\core\src/vl53l0x_api_core.c **** 			Status = VL53L0X_WrByte(Dev,
ARM GAS  C:\Users\ilya\AppData\Local\Temp\ccAjPEqD.s 			page 80


 3579              		.loc 1 892 0
 3580 0158 2723     		movs	r3, #39
 3581 015a FC18     		adds	r4, r7, r3
 3582 015c 7B68     		ldr	r3, [r7, #4]
 3583 015e 0822     		movs	r2, #8
 3584 0160 5621     		movs	r1, #86
 3585 0162 1800     		movs	r0, r3
 3586 0164 FFF7FEFF 		bl	VL53L0X_WrByte
 3587 0168 0300     		movs	r3, r0
 3588 016a 2370     		strb	r3, [r4]
 3589 016c ADE1     		b	.L113
 3590              	.L112:
 893:Api\core\src/vl53l0x_api_core.c **** 				VL53L0X_REG_PRE_RANGE_CONFIG_VALID_PHASE_LOW,
 894:Api\core\src/vl53l0x_api_core.c **** 				0x08);
 895:Api\core\src/vl53l0x_api_core.c **** 		} else if (VCSELPulsePeriodPCLK == 18) {
 3591              		.loc 1 895 0
 3592 016e BB1C     		adds	r3, r7, #2
 3593 0170 1B78     		ldrb	r3, [r3]
 3594 0172 122B     		cmp	r3, #18
 3595 0174 00D0     		beq	.LCB3184
 3596 0176 A8E1     		b	.L113	@long jump
 3597              	.LCB3184:
 896:Api\core\src/vl53l0x_api_core.c **** 
 897:Api\core\src/vl53l0x_api_core.c **** 			Status = VL53L0X_WrByte(Dev,
 3598              		.loc 1 897 0
 3599 0178 2723     		movs	r3, #39
 3600 017a FC18     		adds	r4, r7, r3
 3601 017c 7B68     		ldr	r3, [r7, #4]
 3602 017e 5022     		movs	r2, #80
 3603 0180 5721     		movs	r1, #87
 3604 0182 1800     		movs	r0, r3
 3605 0184 FFF7FEFF 		bl	VL53L0X_WrByte
 3606 0188 0300     		movs	r3, r0
 3607 018a 2370     		strb	r3, [r4]
 898:Api\core\src/vl53l0x_api_core.c **** 				VL53L0X_REG_PRE_RANGE_CONFIG_VALID_PHASE_HIGH,
 899:Api\core\src/vl53l0x_api_core.c **** 				0x50);
 900:Api\core\src/vl53l0x_api_core.c **** 			Status = VL53L0X_WrByte(Dev,
 3608              		.loc 1 900 0
 3609 018c 2723     		movs	r3, #39
 3610 018e FC18     		adds	r4, r7, r3
 3611 0190 7B68     		ldr	r3, [r7, #4]
 3612 0192 0822     		movs	r2, #8
 3613 0194 5621     		movs	r1, #86
 3614 0196 1800     		movs	r0, r3
 3615 0198 FFF7FEFF 		bl	VL53L0X_WrByte
 3616 019c 0300     		movs	r3, r0
 3617 019e 2370     		strb	r3, [r4]
 3618 01a0 93E1     		b	.L113
 3619              	.L108:
 901:Api\core\src/vl53l0x_api_core.c **** 				VL53L0X_REG_PRE_RANGE_CONFIG_VALID_PHASE_LOW,
 902:Api\core\src/vl53l0x_api_core.c **** 				0x08);
 903:Api\core\src/vl53l0x_api_core.c **** 		}
 904:Api\core\src/vl53l0x_api_core.c **** 	} else if (VcselPeriodType == VL53L0X_VCSEL_PERIOD_FINAL_RANGE) {
 3620              		.loc 1 904 0
 3621 01a2 FB1C     		adds	r3, r7, #3
 3622 01a4 1B78     		ldrb	r3, [r3]
 3623 01a6 012B     		cmp	r3, #1
ARM GAS  C:\Users\ilya\AppData\Local\Temp\ccAjPEqD.s 			page 81


 3624 01a8 00D0     		beq	.LCB3210
 3625 01aa 8EE1     		b	.L113	@long jump
 3626              	.LCB3210:
 905:Api\core\src/vl53l0x_api_core.c **** 
 906:Api\core\src/vl53l0x_api_core.c **** 		if (VCSELPulsePeriodPCLK == 8) {
 3627              		.loc 1 906 0
 3628 01ac BB1C     		adds	r3, r7, #2
 3629 01ae 1B78     		ldrb	r3, [r3]
 3630 01b0 082B     		cmp	r3, #8
 3631 01b2 5FD1     		bne	.L114
 907:Api\core\src/vl53l0x_api_core.c **** 
 908:Api\core\src/vl53l0x_api_core.c **** 			Status = VL53L0X_WrByte(Dev,
 3632              		.loc 1 908 0
 3633 01b4 2723     		movs	r3, #39
 3634 01b6 FC18     		adds	r4, r7, r3
 3635 01b8 7B68     		ldr	r3, [r7, #4]
 3636 01ba 1022     		movs	r2, #16
 3637 01bc 4821     		movs	r1, #72
 3638 01be 1800     		movs	r0, r3
 3639 01c0 FFF7FEFF 		bl	VL53L0X_WrByte
 3640 01c4 0300     		movs	r3, r0
 3641 01c6 2370     		strb	r3, [r4]
 909:Api\core\src/vl53l0x_api_core.c **** 				VL53L0X_REG_FINAL_RANGE_CONFIG_VALID_PHASE_HIGH,
 910:Api\core\src/vl53l0x_api_core.c **** 				0x10);
 911:Api\core\src/vl53l0x_api_core.c **** 			Status = VL53L0X_WrByte(Dev,
 3642              		.loc 1 911 0
 3643 01c8 2723     		movs	r3, #39
 3644 01ca FC18     		adds	r4, r7, r3
 3645 01cc 7B68     		ldr	r3, [r7, #4]
 3646 01ce 0822     		movs	r2, #8
 3647 01d0 4721     		movs	r1, #71
 3648 01d2 1800     		movs	r0, r3
 3649 01d4 FFF7FEFF 		bl	VL53L0X_WrByte
 3650 01d8 0300     		movs	r3, r0
 3651 01da 2370     		strb	r3, [r4]
 912:Api\core\src/vl53l0x_api_core.c **** 				VL53L0X_REG_FINAL_RANGE_CONFIG_VALID_PHASE_LOW,
 913:Api\core\src/vl53l0x_api_core.c **** 				0x08);
 914:Api\core\src/vl53l0x_api_core.c **** 
 915:Api\core\src/vl53l0x_api_core.c **** 			Status |= VL53L0X_WrByte(Dev,
 3652              		.loc 1 915 0
 3653 01dc 7B68     		ldr	r3, [r7, #4]
 3654 01de 0222     		movs	r2, #2
 3655 01e0 3221     		movs	r1, #50
 3656 01e2 1800     		movs	r0, r3
 3657 01e4 FFF7FEFF 		bl	VL53L0X_WrByte
 3658 01e8 0300     		movs	r3, r0
 3659 01ea 1900     		movs	r1, r3
 3660 01ec 2723     		movs	r3, #39
 3661 01ee FB18     		adds	r3, r7, r3
 3662 01f0 2722     		movs	r2, #39
 3663 01f2 BA18     		adds	r2, r7, r2
 3664 01f4 1278     		ldrb	r2, [r2]
 3665 01f6 0A43     		orrs	r2, r1
 3666 01f8 1A70     		strb	r2, [r3]
 916:Api\core\src/vl53l0x_api_core.c **** 				VL53L0X_REG_GLOBAL_CONFIG_VCSEL_WIDTH, 0x02);
 917:Api\core\src/vl53l0x_api_core.c **** 			Status |= VL53L0X_WrByte(Dev,
 3667              		.loc 1 917 0
ARM GAS  C:\Users\ilya\AppData\Local\Temp\ccAjPEqD.s 			page 82


 3668 01fa 7B68     		ldr	r3, [r7, #4]
 3669 01fc 0C22     		movs	r2, #12
 3670 01fe 3021     		movs	r1, #48
 3671 0200 1800     		movs	r0, r3
 3672 0202 FFF7FEFF 		bl	VL53L0X_WrByte
 3673 0206 0300     		movs	r3, r0
 3674 0208 1900     		movs	r1, r3
 3675 020a 2723     		movs	r3, #39
 3676 020c FB18     		adds	r3, r7, r3
 3677 020e 2722     		movs	r2, #39
 3678 0210 BA18     		adds	r2, r7, r2
 3679 0212 1278     		ldrb	r2, [r2]
 3680 0214 0A43     		orrs	r2, r1
 3681 0216 1A70     		strb	r2, [r3]
 918:Api\core\src/vl53l0x_api_core.c **** 				VL53L0X_REG_ALGO_PHASECAL_CONFIG_TIMEOUT, 0x0C);
 919:Api\core\src/vl53l0x_api_core.c **** 
 920:Api\core\src/vl53l0x_api_core.c **** 			Status |= VL53L0X_WrByte(Dev, 0xff, 0x01);
 3682              		.loc 1 920 0
 3683 0218 7B68     		ldr	r3, [r7, #4]
 3684 021a 0122     		movs	r2, #1
 3685 021c FF21     		movs	r1, #255
 3686 021e 1800     		movs	r0, r3
 3687 0220 FFF7FEFF 		bl	VL53L0X_WrByte
 3688 0224 0300     		movs	r3, r0
 3689 0226 1900     		movs	r1, r3
 3690 0228 2723     		movs	r3, #39
 3691 022a FB18     		adds	r3, r7, r3
 3692 022c 2722     		movs	r2, #39
 3693 022e BA18     		adds	r2, r7, r2
 3694 0230 1278     		ldrb	r2, [r2]
 3695 0232 0A43     		orrs	r2, r1
 3696 0234 1A70     		strb	r2, [r3]
 921:Api\core\src/vl53l0x_api_core.c **** 			Status |= VL53L0X_WrByte(Dev,
 3697              		.loc 1 921 0
 3698 0236 7B68     		ldr	r3, [r7, #4]
 3699 0238 3022     		movs	r2, #48
 3700 023a 3021     		movs	r1, #48
 3701 023c 1800     		movs	r0, r3
 3702 023e FFF7FEFF 		bl	VL53L0X_WrByte
 3703 0242 0300     		movs	r3, r0
 3704 0244 1900     		movs	r1, r3
 3705 0246 2723     		movs	r3, #39
 3706 0248 FB18     		adds	r3, r7, r3
 3707 024a 2722     		movs	r2, #39
 3708 024c BA18     		adds	r2, r7, r2
 3709 024e 1278     		ldrb	r2, [r2]
 3710 0250 0A43     		orrs	r2, r1
 3711 0252 1A70     		strb	r2, [r3]
 922:Api\core\src/vl53l0x_api_core.c **** 				VL53L0X_REG_ALGO_PHASECAL_LIM,
 923:Api\core\src/vl53l0x_api_core.c **** 				0x30);
 924:Api\core\src/vl53l0x_api_core.c **** 			Status |= VL53L0X_WrByte(Dev, 0xff, 0x00);
 3712              		.loc 1 924 0
 3713 0254 7B68     		ldr	r3, [r7, #4]
 3714 0256 0022     		movs	r2, #0
 3715 0258 FF21     		movs	r1, #255
 3716 025a 1800     		movs	r0, r3
 3717 025c FFF7FEFF 		bl	VL53L0X_WrByte
ARM GAS  C:\Users\ilya\AppData\Local\Temp\ccAjPEqD.s 			page 83


 3718 0260 0300     		movs	r3, r0
 3719 0262 1900     		movs	r1, r3
 3720 0264 2723     		movs	r3, #39
 3721 0266 FB18     		adds	r3, r7, r3
 3722 0268 2722     		movs	r2, #39
 3723 026a BA18     		adds	r2, r7, r2
 3724 026c 1278     		ldrb	r2, [r2]
 3725 026e 0A43     		orrs	r2, r1
 3726 0270 1A70     		strb	r2, [r3]
 3727 0272 2AE1     		b	.L113
 3728              	.L114:
 925:Api\core\src/vl53l0x_api_core.c **** 		} else if (VCSELPulsePeriodPCLK == 10) {
 3729              		.loc 1 925 0
 3730 0274 BB1C     		adds	r3, r7, #2
 3731 0276 1B78     		ldrb	r3, [r3]
 3732 0278 0A2B     		cmp	r3, #10
 3733 027a 5FD1     		bne	.L115
 926:Api\core\src/vl53l0x_api_core.c **** 
 927:Api\core\src/vl53l0x_api_core.c **** 			Status = VL53L0X_WrByte(Dev,
 3734              		.loc 1 927 0
 3735 027c 2723     		movs	r3, #39
 3736 027e FC18     		adds	r4, r7, r3
 3737 0280 7B68     		ldr	r3, [r7, #4]
 3738 0282 2822     		movs	r2, #40
 3739 0284 4821     		movs	r1, #72
 3740 0286 1800     		movs	r0, r3
 3741 0288 FFF7FEFF 		bl	VL53L0X_WrByte
 3742 028c 0300     		movs	r3, r0
 3743 028e 2370     		strb	r3, [r4]
 928:Api\core\src/vl53l0x_api_core.c **** 				VL53L0X_REG_FINAL_RANGE_CONFIG_VALID_PHASE_HIGH,
 929:Api\core\src/vl53l0x_api_core.c **** 				0x28);
 930:Api\core\src/vl53l0x_api_core.c **** 			Status = VL53L0X_WrByte(Dev,
 3744              		.loc 1 930 0
 3745 0290 2723     		movs	r3, #39
 3746 0292 FC18     		adds	r4, r7, r3
 3747 0294 7B68     		ldr	r3, [r7, #4]
 3748 0296 0822     		movs	r2, #8
 3749 0298 4721     		movs	r1, #71
 3750 029a 1800     		movs	r0, r3
 3751 029c FFF7FEFF 		bl	VL53L0X_WrByte
 3752 02a0 0300     		movs	r3, r0
 3753 02a2 2370     		strb	r3, [r4]
 931:Api\core\src/vl53l0x_api_core.c **** 				VL53L0X_REG_FINAL_RANGE_CONFIG_VALID_PHASE_LOW,
 932:Api\core\src/vl53l0x_api_core.c **** 				0x08);
 933:Api\core\src/vl53l0x_api_core.c **** 
 934:Api\core\src/vl53l0x_api_core.c **** 			Status |= VL53L0X_WrByte(Dev,
 3754              		.loc 1 934 0
 3755 02a4 7B68     		ldr	r3, [r7, #4]
 3756 02a6 0322     		movs	r2, #3
 3757 02a8 3221     		movs	r1, #50
 3758 02aa 1800     		movs	r0, r3
 3759 02ac FFF7FEFF 		bl	VL53L0X_WrByte
 3760 02b0 0300     		movs	r3, r0
 3761 02b2 1900     		movs	r1, r3
 3762 02b4 2723     		movs	r3, #39
 3763 02b6 FB18     		adds	r3, r7, r3
 3764 02b8 2722     		movs	r2, #39
ARM GAS  C:\Users\ilya\AppData\Local\Temp\ccAjPEqD.s 			page 84


 3765 02ba BA18     		adds	r2, r7, r2
 3766 02bc 1278     		ldrb	r2, [r2]
 3767 02be 0A43     		orrs	r2, r1
 3768 02c0 1A70     		strb	r2, [r3]
 935:Api\core\src/vl53l0x_api_core.c **** 				VL53L0X_REG_GLOBAL_CONFIG_VCSEL_WIDTH, 0x03);
 936:Api\core\src/vl53l0x_api_core.c **** 			Status |= VL53L0X_WrByte(Dev,
 3769              		.loc 1 936 0
 3770 02c2 7B68     		ldr	r3, [r7, #4]
 3771 02c4 0922     		movs	r2, #9
 3772 02c6 3021     		movs	r1, #48
 3773 02c8 1800     		movs	r0, r3
 3774 02ca FFF7FEFF 		bl	VL53L0X_WrByte
 3775 02ce 0300     		movs	r3, r0
 3776 02d0 1900     		movs	r1, r3
 3777 02d2 2723     		movs	r3, #39
 3778 02d4 FB18     		adds	r3, r7, r3
 3779 02d6 2722     		movs	r2, #39
 3780 02d8 BA18     		adds	r2, r7, r2
 3781 02da 1278     		ldrb	r2, [r2]
 3782 02dc 0A43     		orrs	r2, r1
 3783 02de 1A70     		strb	r2, [r3]
 937:Api\core\src/vl53l0x_api_core.c **** 				VL53L0X_REG_ALGO_PHASECAL_CONFIG_TIMEOUT, 0x09);
 938:Api\core\src/vl53l0x_api_core.c **** 
 939:Api\core\src/vl53l0x_api_core.c **** 			Status |= VL53L0X_WrByte(Dev, 0xff, 0x01);
 3784              		.loc 1 939 0
 3785 02e0 7B68     		ldr	r3, [r7, #4]
 3786 02e2 0122     		movs	r2, #1
 3787 02e4 FF21     		movs	r1, #255
 3788 02e6 1800     		movs	r0, r3
 3789 02e8 FFF7FEFF 		bl	VL53L0X_WrByte
 3790 02ec 0300     		movs	r3, r0
 3791 02ee 1900     		movs	r1, r3
 3792 02f0 2723     		movs	r3, #39
 3793 02f2 FB18     		adds	r3, r7, r3
 3794 02f4 2722     		movs	r2, #39
 3795 02f6 BA18     		adds	r2, r7, r2
 3796 02f8 1278     		ldrb	r2, [r2]
 3797 02fa 0A43     		orrs	r2, r1
 3798 02fc 1A70     		strb	r2, [r3]
 940:Api\core\src/vl53l0x_api_core.c **** 			Status |= VL53L0X_WrByte(Dev,
 3799              		.loc 1 940 0
 3800 02fe 7B68     		ldr	r3, [r7, #4]
 3801 0300 2022     		movs	r2, #32
 3802 0302 3021     		movs	r1, #48
 3803 0304 1800     		movs	r0, r3
 3804 0306 FFF7FEFF 		bl	VL53L0X_WrByte
 3805 030a 0300     		movs	r3, r0
 3806 030c 1900     		movs	r1, r3
 3807 030e 2723     		movs	r3, #39
 3808 0310 FB18     		adds	r3, r7, r3
 3809 0312 2722     		movs	r2, #39
 3810 0314 BA18     		adds	r2, r7, r2
 3811 0316 1278     		ldrb	r2, [r2]
 3812 0318 0A43     		orrs	r2, r1
 3813 031a 1A70     		strb	r2, [r3]
 941:Api\core\src/vl53l0x_api_core.c **** 				VL53L0X_REG_ALGO_PHASECAL_LIM,
 942:Api\core\src/vl53l0x_api_core.c **** 				0x20);
ARM GAS  C:\Users\ilya\AppData\Local\Temp\ccAjPEqD.s 			page 85


 943:Api\core\src/vl53l0x_api_core.c **** 			Status |= VL53L0X_WrByte(Dev, 0xff, 0x00);
 3814              		.loc 1 943 0
 3815 031c 7B68     		ldr	r3, [r7, #4]
 3816 031e 0022     		movs	r2, #0
 3817 0320 FF21     		movs	r1, #255
 3818 0322 1800     		movs	r0, r3
 3819 0324 FFF7FEFF 		bl	VL53L0X_WrByte
 3820 0328 0300     		movs	r3, r0
 3821 032a 1900     		movs	r1, r3
 3822 032c 2723     		movs	r3, #39
 3823 032e FB18     		adds	r3, r7, r3
 3824 0330 2722     		movs	r2, #39
 3825 0332 BA18     		adds	r2, r7, r2
 3826 0334 1278     		ldrb	r2, [r2]
 3827 0336 0A43     		orrs	r2, r1
 3828 0338 1A70     		strb	r2, [r3]
 3829 033a C6E0     		b	.L113
 3830              	.L115:
 944:Api\core\src/vl53l0x_api_core.c **** 		} else if (VCSELPulsePeriodPCLK == 12) {
 3831              		.loc 1 944 0
 3832 033c BB1C     		adds	r3, r7, #2
 3833 033e 1B78     		ldrb	r3, [r3]
 3834 0340 0C2B     		cmp	r3, #12
 3835 0342 5FD1     		bne	.L116
 945:Api\core\src/vl53l0x_api_core.c **** 
 946:Api\core\src/vl53l0x_api_core.c **** 			Status = VL53L0X_WrByte(Dev,
 3836              		.loc 1 946 0
 3837 0344 2723     		movs	r3, #39
 3838 0346 FC18     		adds	r4, r7, r3
 3839 0348 7B68     		ldr	r3, [r7, #4]
 3840 034a 3822     		movs	r2, #56
 3841 034c 4821     		movs	r1, #72
 3842 034e 1800     		movs	r0, r3
 3843 0350 FFF7FEFF 		bl	VL53L0X_WrByte
 3844 0354 0300     		movs	r3, r0
 3845 0356 2370     		strb	r3, [r4]
 947:Api\core\src/vl53l0x_api_core.c **** 				VL53L0X_REG_FINAL_RANGE_CONFIG_VALID_PHASE_HIGH,
 948:Api\core\src/vl53l0x_api_core.c **** 				0x38);
 949:Api\core\src/vl53l0x_api_core.c **** 			Status = VL53L0X_WrByte(Dev,
 3846              		.loc 1 949 0
 3847 0358 2723     		movs	r3, #39
 3848 035a FC18     		adds	r4, r7, r3
 3849 035c 7B68     		ldr	r3, [r7, #4]
 3850 035e 0822     		movs	r2, #8
 3851 0360 4721     		movs	r1, #71
 3852 0362 1800     		movs	r0, r3
 3853 0364 FFF7FEFF 		bl	VL53L0X_WrByte
 3854 0368 0300     		movs	r3, r0
 3855 036a 2370     		strb	r3, [r4]
 950:Api\core\src/vl53l0x_api_core.c **** 				VL53L0X_REG_FINAL_RANGE_CONFIG_VALID_PHASE_LOW,
 951:Api\core\src/vl53l0x_api_core.c **** 				0x08);
 952:Api\core\src/vl53l0x_api_core.c **** 
 953:Api\core\src/vl53l0x_api_core.c **** 			Status |= VL53L0X_WrByte(Dev,
 3856              		.loc 1 953 0
 3857 036c 7B68     		ldr	r3, [r7, #4]
 3858 036e 0322     		movs	r2, #3
 3859 0370 3221     		movs	r1, #50
ARM GAS  C:\Users\ilya\AppData\Local\Temp\ccAjPEqD.s 			page 86


 3860 0372 1800     		movs	r0, r3
 3861 0374 FFF7FEFF 		bl	VL53L0X_WrByte
 3862 0378 0300     		movs	r3, r0
 3863 037a 1900     		movs	r1, r3
 3864 037c 2723     		movs	r3, #39
 3865 037e FB18     		adds	r3, r7, r3
 3866 0380 2722     		movs	r2, #39
 3867 0382 BA18     		adds	r2, r7, r2
 3868 0384 1278     		ldrb	r2, [r2]
 3869 0386 0A43     		orrs	r2, r1
 3870 0388 1A70     		strb	r2, [r3]
 954:Api\core\src/vl53l0x_api_core.c **** 				VL53L0X_REG_GLOBAL_CONFIG_VCSEL_WIDTH, 0x03);
 955:Api\core\src/vl53l0x_api_core.c **** 			Status |= VL53L0X_WrByte(Dev,
 3871              		.loc 1 955 0
 3872 038a 7B68     		ldr	r3, [r7, #4]
 3873 038c 0822     		movs	r2, #8
 3874 038e 3021     		movs	r1, #48
 3875 0390 1800     		movs	r0, r3
 3876 0392 FFF7FEFF 		bl	VL53L0X_WrByte
 3877 0396 0300     		movs	r3, r0
 3878 0398 1900     		movs	r1, r3
 3879 039a 2723     		movs	r3, #39
 3880 039c FB18     		adds	r3, r7, r3
 3881 039e 2722     		movs	r2, #39
 3882 03a0 BA18     		adds	r2, r7, r2
 3883 03a2 1278     		ldrb	r2, [r2]
 3884 03a4 0A43     		orrs	r2, r1
 3885 03a6 1A70     		strb	r2, [r3]
 956:Api\core\src/vl53l0x_api_core.c **** 				VL53L0X_REG_ALGO_PHASECAL_CONFIG_TIMEOUT, 0x08);
 957:Api\core\src/vl53l0x_api_core.c **** 
 958:Api\core\src/vl53l0x_api_core.c **** 			Status |= VL53L0X_WrByte(Dev, 0xff, 0x01);
 3886              		.loc 1 958 0
 3887 03a8 7B68     		ldr	r3, [r7, #4]
 3888 03aa 0122     		movs	r2, #1
 3889 03ac FF21     		movs	r1, #255
 3890 03ae 1800     		movs	r0, r3
 3891 03b0 FFF7FEFF 		bl	VL53L0X_WrByte
 3892 03b4 0300     		movs	r3, r0
 3893 03b6 1900     		movs	r1, r3
 3894 03b8 2723     		movs	r3, #39
 3895 03ba FB18     		adds	r3, r7, r3
 3896 03bc 2722     		movs	r2, #39
 3897 03be BA18     		adds	r2, r7, r2
 3898 03c0 1278     		ldrb	r2, [r2]
 3899 03c2 0A43     		orrs	r2, r1
 3900 03c4 1A70     		strb	r2, [r3]
 959:Api\core\src/vl53l0x_api_core.c **** 			Status |= VL53L0X_WrByte(Dev,
 3901              		.loc 1 959 0
 3902 03c6 7B68     		ldr	r3, [r7, #4]
 3903 03c8 2022     		movs	r2, #32
 3904 03ca 3021     		movs	r1, #48
 3905 03cc 1800     		movs	r0, r3
 3906 03ce FFF7FEFF 		bl	VL53L0X_WrByte
 3907 03d2 0300     		movs	r3, r0
 3908 03d4 1900     		movs	r1, r3
 3909 03d6 2723     		movs	r3, #39
 3910 03d8 FB18     		adds	r3, r7, r3
ARM GAS  C:\Users\ilya\AppData\Local\Temp\ccAjPEqD.s 			page 87


 3911 03da 2722     		movs	r2, #39
 3912 03dc BA18     		adds	r2, r7, r2
 3913 03de 1278     		ldrb	r2, [r2]
 3914 03e0 0A43     		orrs	r2, r1
 3915 03e2 1A70     		strb	r2, [r3]
 960:Api\core\src/vl53l0x_api_core.c **** 				VL53L0X_REG_ALGO_PHASECAL_LIM,
 961:Api\core\src/vl53l0x_api_core.c **** 				0x20);
 962:Api\core\src/vl53l0x_api_core.c **** 			Status |= VL53L0X_WrByte(Dev, 0xff, 0x00);
 3916              		.loc 1 962 0
 3917 03e4 7B68     		ldr	r3, [r7, #4]
 3918 03e6 0022     		movs	r2, #0
 3919 03e8 FF21     		movs	r1, #255
 3920 03ea 1800     		movs	r0, r3
 3921 03ec FFF7FEFF 		bl	VL53L0X_WrByte
 3922 03f0 0300     		movs	r3, r0
 3923 03f2 1900     		movs	r1, r3
 3924 03f4 2723     		movs	r3, #39
 3925 03f6 FB18     		adds	r3, r7, r3
 3926 03f8 2722     		movs	r2, #39
 3927 03fa BA18     		adds	r2, r7, r2
 3928 03fc 1278     		ldrb	r2, [r2]
 3929 03fe 0A43     		orrs	r2, r1
 3930 0400 1A70     		strb	r2, [r3]
 3931 0402 62E0     		b	.L113
 3932              	.L116:
 963:Api\core\src/vl53l0x_api_core.c **** 		} else if (VCSELPulsePeriodPCLK == 14) {
 3933              		.loc 1 963 0
 3934 0404 BB1C     		adds	r3, r7, #2
 3935 0406 1B78     		ldrb	r3, [r3]
 3936 0408 0E2B     		cmp	r3, #14
 3937 040a 5ED1     		bne	.L113
 964:Api\core\src/vl53l0x_api_core.c **** 
 965:Api\core\src/vl53l0x_api_core.c **** 			Status = VL53L0X_WrByte(Dev,
 3938              		.loc 1 965 0
 3939 040c 2723     		movs	r3, #39
 3940 040e FC18     		adds	r4, r7, r3
 3941 0410 7B68     		ldr	r3, [r7, #4]
 3942 0412 4822     		movs	r2, #72
 3943 0414 4821     		movs	r1, #72
 3944 0416 1800     		movs	r0, r3
 3945 0418 FFF7FEFF 		bl	VL53L0X_WrByte
 3946 041c 0300     		movs	r3, r0
 3947 041e 2370     		strb	r3, [r4]
 966:Api\core\src/vl53l0x_api_core.c **** 				VL53L0X_REG_FINAL_RANGE_CONFIG_VALID_PHASE_HIGH,
 967:Api\core\src/vl53l0x_api_core.c **** 				0x048);
 968:Api\core\src/vl53l0x_api_core.c **** 			Status = VL53L0X_WrByte(Dev,
 3948              		.loc 1 968 0
 3949 0420 2723     		movs	r3, #39
 3950 0422 FC18     		adds	r4, r7, r3
 3951 0424 7B68     		ldr	r3, [r7, #4]
 3952 0426 0822     		movs	r2, #8
 3953 0428 4721     		movs	r1, #71
 3954 042a 1800     		movs	r0, r3
 3955 042c FFF7FEFF 		bl	VL53L0X_WrByte
 3956 0430 0300     		movs	r3, r0
 3957 0432 2370     		strb	r3, [r4]
 969:Api\core\src/vl53l0x_api_core.c **** 				VL53L0X_REG_FINAL_RANGE_CONFIG_VALID_PHASE_LOW,
ARM GAS  C:\Users\ilya\AppData\Local\Temp\ccAjPEqD.s 			page 88


 970:Api\core\src/vl53l0x_api_core.c **** 				0x08);
 971:Api\core\src/vl53l0x_api_core.c **** 
 972:Api\core\src/vl53l0x_api_core.c **** 			Status |= VL53L0X_WrByte(Dev,
 3958              		.loc 1 972 0
 3959 0434 7B68     		ldr	r3, [r7, #4]
 3960 0436 0322     		movs	r2, #3
 3961 0438 3221     		movs	r1, #50
 3962 043a 1800     		movs	r0, r3
 3963 043c FFF7FEFF 		bl	VL53L0X_WrByte
 3964 0440 0300     		movs	r3, r0
 3965 0442 1900     		movs	r1, r3
 3966 0444 2723     		movs	r3, #39
 3967 0446 FB18     		adds	r3, r7, r3
 3968 0448 2722     		movs	r2, #39
 3969 044a BA18     		adds	r2, r7, r2
 3970 044c 1278     		ldrb	r2, [r2]
 3971 044e 0A43     		orrs	r2, r1
 3972 0450 1A70     		strb	r2, [r3]
 973:Api\core\src/vl53l0x_api_core.c **** 				VL53L0X_REG_GLOBAL_CONFIG_VCSEL_WIDTH, 0x03);
 974:Api\core\src/vl53l0x_api_core.c **** 			Status |= VL53L0X_WrByte(Dev,
 3973              		.loc 1 974 0
 3974 0452 7B68     		ldr	r3, [r7, #4]
 3975 0454 0722     		movs	r2, #7
 3976 0456 3021     		movs	r1, #48
 3977 0458 1800     		movs	r0, r3
 3978 045a FFF7FEFF 		bl	VL53L0X_WrByte
 3979 045e 0300     		movs	r3, r0
 3980 0460 1900     		movs	r1, r3
 3981 0462 2723     		movs	r3, #39
 3982 0464 FB18     		adds	r3, r7, r3
 3983 0466 2722     		movs	r2, #39
 3984 0468 BA18     		adds	r2, r7, r2
 3985 046a 1278     		ldrb	r2, [r2]
 3986 046c 0A43     		orrs	r2, r1
 3987 046e 1A70     		strb	r2, [r3]
 975:Api\core\src/vl53l0x_api_core.c **** 				VL53L0X_REG_ALGO_PHASECAL_CONFIG_TIMEOUT, 0x07);
 976:Api\core\src/vl53l0x_api_core.c **** 
 977:Api\core\src/vl53l0x_api_core.c **** 			Status |= VL53L0X_WrByte(Dev, 0xff, 0x01);
 3988              		.loc 1 977 0
 3989 0470 7B68     		ldr	r3, [r7, #4]
 3990 0472 0122     		movs	r2, #1
 3991 0474 FF21     		movs	r1, #255
 3992 0476 1800     		movs	r0, r3
 3993 0478 FFF7FEFF 		bl	VL53L0X_WrByte
 3994 047c 0300     		movs	r3, r0
 3995 047e 1900     		movs	r1, r3
 3996 0480 2723     		movs	r3, #39
 3997 0482 FB18     		adds	r3, r7, r3
 3998 0484 2722     		movs	r2, #39
 3999 0486 BA18     		adds	r2, r7, r2
 4000 0488 1278     		ldrb	r2, [r2]
 4001 048a 0A43     		orrs	r2, r1
 4002 048c 1A70     		strb	r2, [r3]
 978:Api\core\src/vl53l0x_api_core.c **** 			Status |= VL53L0X_WrByte(Dev,
 4003              		.loc 1 978 0
 4004 048e 7B68     		ldr	r3, [r7, #4]
 4005 0490 2022     		movs	r2, #32
ARM GAS  C:\Users\ilya\AppData\Local\Temp\ccAjPEqD.s 			page 89


 4006 0492 3021     		movs	r1, #48
 4007 0494 1800     		movs	r0, r3
 4008 0496 FFF7FEFF 		bl	VL53L0X_WrByte
 4009 049a 0300     		movs	r3, r0
 4010 049c 1900     		movs	r1, r3
 4011 049e 2723     		movs	r3, #39
 4012 04a0 FB18     		adds	r3, r7, r3
 4013 04a2 2722     		movs	r2, #39
 4014 04a4 BA18     		adds	r2, r7, r2
 4015 04a6 1278     		ldrb	r2, [r2]
 4016 04a8 0A43     		orrs	r2, r1
 4017 04aa 1A70     		strb	r2, [r3]
 979:Api\core\src/vl53l0x_api_core.c **** 				VL53L0X_REG_ALGO_PHASECAL_LIM,
 980:Api\core\src/vl53l0x_api_core.c **** 				0x20);
 981:Api\core\src/vl53l0x_api_core.c **** 			Status |= VL53L0X_WrByte(Dev, 0xff, 0x00);
 4018              		.loc 1 981 0
 4019 04ac 7B68     		ldr	r3, [r7, #4]
 4020 04ae 0022     		movs	r2, #0
 4021 04b0 FF21     		movs	r1, #255
 4022 04b2 1800     		movs	r0, r3
 4023 04b4 FFF7FEFF 		bl	VL53L0X_WrByte
 4024 04b8 0300     		movs	r3, r0
 4025 04ba 1900     		movs	r1, r3
 4026 04bc 2723     		movs	r3, #39
 4027 04be FB18     		adds	r3, r7, r3
 4028 04c0 2722     		movs	r2, #39
 4029 04c2 BA18     		adds	r2, r7, r2
 4030 04c4 1278     		ldrb	r2, [r2]
 4031 04c6 0A43     		orrs	r2, r1
 4032 04c8 1A70     		strb	r2, [r3]
 4033              	.L113:
 982:Api\core\src/vl53l0x_api_core.c **** 		}
 983:Api\core\src/vl53l0x_api_core.c **** 	}
 984:Api\core\src/vl53l0x_api_core.c **** 
 985:Api\core\src/vl53l0x_api_core.c **** 
 986:Api\core\src/vl53l0x_api_core.c **** 	/* Re-calculate and apply timeouts, in macro periods */
 987:Api\core\src/vl53l0x_api_core.c **** 
 988:Api\core\src/vl53l0x_api_core.c **** 	if (Status == VL53L0X_ERROR_NONE) {
 4034              		.loc 1 988 0
 4035 04ca 2723     		movs	r3, #39
 4036 04cc FB18     		adds	r3, r7, r3
 4037 04ce 1B78     		ldrb	r3, [r3]
 4038 04d0 5BB2     		sxtb	r3, r3
 4039 04d2 002B     		cmp	r3, #0
 4040 04d4 00D0     		beq	.LCB3598
 4041 04d6 9AE0     		b	.L117	@long jump
 4042              	.LCB3598:
 989:Api\core\src/vl53l0x_api_core.c **** 		vcsel_period_reg = VL53L0X_encode_vcsel_period((uint8_t)
 4043              		.loc 1 989 0
 4044 04d8 2223     		movs	r3, #34
 4045 04da FC18     		adds	r4, r7, r3
 4046 04dc BB1C     		adds	r3, r7, #2
 4047 04de 1B78     		ldrb	r3, [r3]
 4048 04e0 1800     		movs	r0, r3
 4049 04e2 FFF7FEFF 		bl	VL53L0X_encode_vcsel_period
 4050 04e6 0300     		movs	r3, r0
 4051 04e8 2370     		strb	r3, [r4]
ARM GAS  C:\Users\ilya\AppData\Local\Temp\ccAjPEqD.s 			page 90


 990:Api\core\src/vl53l0x_api_core.c **** 			VCSELPulsePeriodPCLK);
 991:Api\core\src/vl53l0x_api_core.c **** 
 992:Api\core\src/vl53l0x_api_core.c **** 		/* When the VCSEL period for the pre or final range is changed,
 993:Api\core\src/vl53l0x_api_core.c **** 		* the corresponding timeout must be read from the device using
 994:Api\core\src/vl53l0x_api_core.c **** 		* the current VCSEL period, then the new VCSEL period can be
 995:Api\core\src/vl53l0x_api_core.c **** 		* applied. The timeout then must be written back to the device
 996:Api\core\src/vl53l0x_api_core.c **** 		* using the new VCSEL period.
 997:Api\core\src/vl53l0x_api_core.c **** 		*
 998:Api\core\src/vl53l0x_api_core.c **** 		* For the MSRC timeout, the same applies - this timeout being
 999:Api\core\src/vl53l0x_api_core.c **** 		* dependant on the pre-range vcsel period.
1000:Api\core\src/vl53l0x_api_core.c **** 		*/
1001:Api\core\src/vl53l0x_api_core.c **** 		switch (VcselPeriodType) {
 4052              		.loc 1 1001 0
 4053 04ea FB1C     		adds	r3, r7, #3
 4054 04ec 1B78     		ldrb	r3, [r3]
 4055 04ee 002B     		cmp	r3, #0
 4056 04f0 02D0     		beq	.L119
 4057 04f2 012B     		cmp	r3, #1
 4058 04f4 54D0     		beq	.L120
 4059 04f6 86E0     		b	.L130
 4060              	.L119:
1002:Api\core\src/vl53l0x_api_core.c **** 		case VL53L0X_VCSEL_PERIOD_PRE_RANGE:
1003:Api\core\src/vl53l0x_api_core.c **** 			Status = get_sequence_step_timeout(Dev,
 4061              		.loc 1 1003 0
 4062 04f8 2723     		movs	r3, #39
 4063 04fa FC18     		adds	r4, r7, r3
 4064 04fc 1423     		movs	r3, #20
 4065 04fe FA18     		adds	r2, r7, r3
 4066 0500 7B68     		ldr	r3, [r7, #4]
 4067 0502 0321     		movs	r1, #3
 4068 0504 1800     		movs	r0, r3
 4069 0506 FFF7FEFF 		bl	get_sequence_step_timeout
 4070 050a 0300     		movs	r3, r0
 4071 050c 2370     		strb	r3, [r4]
1004:Api\core\src/vl53l0x_api_core.c **** 				VL53L0X_SEQUENCESTEP_PRE_RANGE,
1005:Api\core\src/vl53l0x_api_core.c **** 				&PreRangeTimeoutMicroSeconds);
1006:Api\core\src/vl53l0x_api_core.c **** 
1007:Api\core\src/vl53l0x_api_core.c **** 			if (Status == VL53L0X_ERROR_NONE)
 4072              		.loc 1 1007 0
 4073 050e 2723     		movs	r3, #39
 4074 0510 FB18     		adds	r3, r7, r3
 4075 0512 1B78     		ldrb	r3, [r3]
 4076 0514 5BB2     		sxtb	r3, r3
 4077 0516 002B     		cmp	r3, #0
 4078 0518 0AD1     		bne	.L121
1008:Api\core\src/vl53l0x_api_core.c **** 				Status = get_sequence_step_timeout(Dev,
 4079              		.loc 1 1008 0
 4080 051a 2723     		movs	r3, #39
 4081 051c FC18     		adds	r4, r7, r3
 4082 051e 1023     		movs	r3, #16
 4083 0520 FA18     		adds	r2, r7, r3
 4084 0522 7B68     		ldr	r3, [r7, #4]
 4085 0524 0221     		movs	r1, #2
 4086 0526 1800     		movs	r0, r3
 4087 0528 FFF7FEFF 		bl	get_sequence_step_timeout
 4088 052c 0300     		movs	r3, r0
 4089 052e 2370     		strb	r3, [r4]
ARM GAS  C:\Users\ilya\AppData\Local\Temp\ccAjPEqD.s 			page 91


 4090              	.L121:
1009:Api\core\src/vl53l0x_api_core.c **** 					VL53L0X_SEQUENCESTEP_MSRC,
1010:Api\core\src/vl53l0x_api_core.c **** 					&MsrcTimeoutMicroSeconds);
1011:Api\core\src/vl53l0x_api_core.c **** 
1012:Api\core\src/vl53l0x_api_core.c **** 			if (Status == VL53L0X_ERROR_NONE)
 4091              		.loc 1 1012 0
 4092 0530 2723     		movs	r3, #39
 4093 0532 FB18     		adds	r3, r7, r3
 4094 0534 1B78     		ldrb	r3, [r3]
 4095 0536 5BB2     		sxtb	r3, r3
 4096 0538 002B     		cmp	r3, #0
 4097 053a 0BD1     		bne	.L122
1013:Api\core\src/vl53l0x_api_core.c **** 				Status = VL53L0X_WrByte(Dev,
 4098              		.loc 1 1013 0
 4099 053c 2723     		movs	r3, #39
 4100 053e FC18     		adds	r4, r7, r3
 4101 0540 2223     		movs	r3, #34
 4102 0542 FB18     		adds	r3, r7, r3
 4103 0544 1A78     		ldrb	r2, [r3]
 4104 0546 7B68     		ldr	r3, [r7, #4]
 4105 0548 5021     		movs	r1, #80
 4106 054a 1800     		movs	r0, r3
 4107 054c FFF7FEFF 		bl	VL53L0X_WrByte
 4108 0550 0300     		movs	r3, r0
 4109 0552 2370     		strb	r3, [r4]
 4110              	.L122:
1014:Api\core\src/vl53l0x_api_core.c **** 				VL53L0X_REG_PRE_RANGE_CONFIG_VCSEL_PERIOD,
1015:Api\core\src/vl53l0x_api_core.c **** 					vcsel_period_reg);
1016:Api\core\src/vl53l0x_api_core.c **** 
1017:Api\core\src/vl53l0x_api_core.c **** 
1018:Api\core\src/vl53l0x_api_core.c **** 			if (Status == VL53L0X_ERROR_NONE)
 4111              		.loc 1 1018 0
 4112 0554 2723     		movs	r3, #39
 4113 0556 FB18     		adds	r3, r7, r3
 4114 0558 1B78     		ldrb	r3, [r3]
 4115 055a 5BB2     		sxtb	r3, r3
 4116 055c 002B     		cmp	r3, #0
 4117 055e 09D1     		bne	.L123
1019:Api\core\src/vl53l0x_api_core.c **** 				Status = set_sequence_step_timeout(Dev,
 4118              		.loc 1 1019 0
 4119 0560 7A69     		ldr	r2, [r7, #20]
 4120 0562 2723     		movs	r3, #39
 4121 0564 FC18     		adds	r4, r7, r3
 4122 0566 7B68     		ldr	r3, [r7, #4]
 4123 0568 0321     		movs	r1, #3
 4124 056a 1800     		movs	r0, r3
 4125 056c FFF7FEFF 		bl	set_sequence_step_timeout
 4126 0570 0300     		movs	r3, r0
 4127 0572 2370     		strb	r3, [r4]
 4128              	.L123:
1020:Api\core\src/vl53l0x_api_core.c **** 					VL53L0X_SEQUENCESTEP_PRE_RANGE,
1021:Api\core\src/vl53l0x_api_core.c **** 					PreRangeTimeoutMicroSeconds);
1022:Api\core\src/vl53l0x_api_core.c **** 
1023:Api\core\src/vl53l0x_api_core.c **** 
1024:Api\core\src/vl53l0x_api_core.c **** 			if (Status == VL53L0X_ERROR_NONE)
 4129              		.loc 1 1024 0
 4130 0574 2723     		movs	r3, #39
ARM GAS  C:\Users\ilya\AppData\Local\Temp\ccAjPEqD.s 			page 92


 4131 0576 FB18     		adds	r3, r7, r3
 4132 0578 1B78     		ldrb	r3, [r3]
 4133 057a 5BB2     		sxtb	r3, r3
 4134 057c 002B     		cmp	r3, #0
 4135 057e 09D1     		bne	.L124
1025:Api\core\src/vl53l0x_api_core.c **** 				Status = set_sequence_step_timeout(Dev,
 4136              		.loc 1 1025 0
 4137 0580 3A69     		ldr	r2, [r7, #16]
 4138 0582 2723     		movs	r3, #39
 4139 0584 FC18     		adds	r4, r7, r3
 4140 0586 7B68     		ldr	r3, [r7, #4]
 4141 0588 0221     		movs	r1, #2
 4142 058a 1800     		movs	r0, r3
 4143 058c FFF7FEFF 		bl	set_sequence_step_timeout
 4144 0590 0300     		movs	r3, r0
 4145 0592 2370     		strb	r3, [r4]
 4146              	.L124:
1026:Api\core\src/vl53l0x_api_core.c **** 					VL53L0X_SEQUENCESTEP_MSRC,
1027:Api\core\src/vl53l0x_api_core.c **** 					MsrcTimeoutMicroSeconds);
1028:Api\core\src/vl53l0x_api_core.c **** 
1029:Api\core\src/vl53l0x_api_core.c **** 			VL53L0X_SETDEVICESPECIFICPARAMETER(
 4147              		.loc 1 1029 0
 4148 0594 7B68     		ldr	r3, [r7, #4]
 4149 0596 BA1C     		adds	r2, r7, #2
 4150 0598 E821     		movs	r1, #232
 4151 059a 1278     		ldrb	r2, [r2]
 4152 059c 5A54     		strb	r2, [r3, r1]
1030:Api\core\src/vl53l0x_api_core.c **** 				Dev,
1031:Api\core\src/vl53l0x_api_core.c **** 				PreRangeVcselPulsePeriod,
1032:Api\core\src/vl53l0x_api_core.c **** 				VCSELPulsePeriodPCLK);
1033:Api\core\src/vl53l0x_api_core.c **** 			break;
 4153              		.loc 1 1033 0
 4154 059e 36E0     		b	.L117
 4155              	.L120:
1034:Api\core\src/vl53l0x_api_core.c **** 		case VL53L0X_VCSEL_PERIOD_FINAL_RANGE:
1035:Api\core\src/vl53l0x_api_core.c **** 			Status = get_sequence_step_timeout(Dev,
 4156              		.loc 1 1035 0
 4157 05a0 2723     		movs	r3, #39
 4158 05a2 FC18     		adds	r4, r7, r3
 4159 05a4 1823     		movs	r3, #24
 4160 05a6 FA18     		adds	r2, r7, r3
 4161 05a8 7B68     		ldr	r3, [r7, #4]
 4162 05aa 0421     		movs	r1, #4
 4163 05ac 1800     		movs	r0, r3
 4164 05ae FFF7FEFF 		bl	get_sequence_step_timeout
 4165 05b2 0300     		movs	r3, r0
 4166 05b4 2370     		strb	r3, [r4]
1036:Api\core\src/vl53l0x_api_core.c **** 				VL53L0X_SEQUENCESTEP_FINAL_RANGE,
1037:Api\core\src/vl53l0x_api_core.c **** 				&FinalRangeTimeoutMicroSeconds);
1038:Api\core\src/vl53l0x_api_core.c **** 
1039:Api\core\src/vl53l0x_api_core.c **** 			if (Status == VL53L0X_ERROR_NONE)
 4167              		.loc 1 1039 0
 4168 05b6 2723     		movs	r3, #39
 4169 05b8 FB18     		adds	r3, r7, r3
 4170 05ba 1B78     		ldrb	r3, [r3]
 4171 05bc 5BB2     		sxtb	r3, r3
 4172 05be 002B     		cmp	r3, #0
ARM GAS  C:\Users\ilya\AppData\Local\Temp\ccAjPEqD.s 			page 93


 4173 05c0 0BD1     		bne	.L125
1040:Api\core\src/vl53l0x_api_core.c **** 				Status = VL53L0X_WrByte(Dev,
 4174              		.loc 1 1040 0
 4175 05c2 2723     		movs	r3, #39
 4176 05c4 FC18     		adds	r4, r7, r3
 4177 05c6 2223     		movs	r3, #34
 4178 05c8 FB18     		adds	r3, r7, r3
 4179 05ca 1A78     		ldrb	r2, [r3]
 4180 05cc 7B68     		ldr	r3, [r7, #4]
 4181 05ce 7021     		movs	r1, #112
 4182 05d0 1800     		movs	r0, r3
 4183 05d2 FFF7FEFF 		bl	VL53L0X_WrByte
 4184 05d6 0300     		movs	r3, r0
 4185 05d8 2370     		strb	r3, [r4]
 4186              	.L125:
1041:Api\core\src/vl53l0x_api_core.c **** 				VL53L0X_REG_FINAL_RANGE_CONFIG_VCSEL_PERIOD,
1042:Api\core\src/vl53l0x_api_core.c **** 					vcsel_period_reg);
1043:Api\core\src/vl53l0x_api_core.c **** 
1044:Api\core\src/vl53l0x_api_core.c **** 
1045:Api\core\src/vl53l0x_api_core.c **** 			if (Status == VL53L0X_ERROR_NONE)
 4187              		.loc 1 1045 0
 4188 05da 2723     		movs	r3, #39
 4189 05dc FB18     		adds	r3, r7, r3
 4190 05de 1B78     		ldrb	r3, [r3]
 4191 05e0 5BB2     		sxtb	r3, r3
 4192 05e2 002B     		cmp	r3, #0
 4193 05e4 09D1     		bne	.L126
1046:Api\core\src/vl53l0x_api_core.c **** 				Status = set_sequence_step_timeout(Dev,
 4194              		.loc 1 1046 0
 4195 05e6 BA69     		ldr	r2, [r7, #24]
 4196 05e8 2723     		movs	r3, #39
 4197 05ea FC18     		adds	r4, r7, r3
 4198 05ec 7B68     		ldr	r3, [r7, #4]
 4199 05ee 0421     		movs	r1, #4
 4200 05f0 1800     		movs	r0, r3
 4201 05f2 FFF7FEFF 		bl	set_sequence_step_timeout
 4202 05f6 0300     		movs	r3, r0
 4203 05f8 2370     		strb	r3, [r4]
 4204              	.L126:
1047:Api\core\src/vl53l0x_api_core.c **** 					VL53L0X_SEQUENCESTEP_FINAL_RANGE,
1048:Api\core\src/vl53l0x_api_core.c **** 					FinalRangeTimeoutMicroSeconds);
1049:Api\core\src/vl53l0x_api_core.c **** 
1050:Api\core\src/vl53l0x_api_core.c **** 			VL53L0X_SETDEVICESPECIFICPARAMETER(
 4205              		.loc 1 1050 0
 4206 05fa 7B68     		ldr	r3, [r7, #4]
 4207 05fc BA1C     		adds	r2, r7, #2
 4208 05fe E021     		movs	r1, #224
 4209 0600 1278     		ldrb	r2, [r2]
 4210 0602 5A54     		strb	r2, [r3, r1]
1051:Api\core\src/vl53l0x_api_core.c **** 				Dev,
1052:Api\core\src/vl53l0x_api_core.c **** 				FinalRangeVcselPulsePeriod,
1053:Api\core\src/vl53l0x_api_core.c **** 				VCSELPulsePeriodPCLK);
1054:Api\core\src/vl53l0x_api_core.c **** 			break;
 4211              		.loc 1 1054 0
 4212 0604 03E0     		b	.L117
 4213              	.L130:
1055:Api\core\src/vl53l0x_api_core.c **** 		default:
ARM GAS  C:\Users\ilya\AppData\Local\Temp\ccAjPEqD.s 			page 94


1056:Api\core\src/vl53l0x_api_core.c **** 			Status = VL53L0X_ERROR_INVALID_PARAMS;
 4214              		.loc 1 1056 0
 4215 0606 2723     		movs	r3, #39
 4216 0608 FB18     		adds	r3, r7, r3
 4217 060a FC22     		movs	r2, #252
 4218 060c 1A70     		strb	r2, [r3]
 4219              	.L117:
1057:Api\core\src/vl53l0x_api_core.c **** 		}
1058:Api\core\src/vl53l0x_api_core.c **** 	}
1059:Api\core\src/vl53l0x_api_core.c **** 
1060:Api\core\src/vl53l0x_api_core.c **** 	/* Finally, the timing budget must be re-applied */
1061:Api\core\src/vl53l0x_api_core.c **** 	if (Status == VL53L0X_ERROR_NONE) {
 4220              		.loc 1 1061 0
 4221 060e 2723     		movs	r3, #39
 4222 0610 FB18     		adds	r3, r7, r3
 4223 0612 1B78     		ldrb	r3, [r3]
 4224 0614 5BB2     		sxtb	r3, r3
 4225 0616 002B     		cmp	r3, #0
 4226 0618 0CD1     		bne	.L127
1062:Api\core\src/vl53l0x_api_core.c **** 		VL53L0X_GETPARAMETERFIELD(Dev,
 4227              		.loc 1 1062 0
 4228 061a 7B68     		ldr	r3, [r7, #4]
 4229 061c 5B69     		ldr	r3, [r3, #20]
 4230 061e FB61     		str	r3, [r7, #28]
1063:Api\core\src/vl53l0x_api_core.c **** 			MeasurementTimingBudgetMicroSeconds,
1064:Api\core\src/vl53l0x_api_core.c **** 			MeasurementTimingBudgetMicroSeconds);
1065:Api\core\src/vl53l0x_api_core.c **** 
1066:Api\core\src/vl53l0x_api_core.c **** 		Status = VL53L0X_SetMeasurementTimingBudgetMicroSeconds(Dev,
 4231              		.loc 1 1066 0
 4232 0620 2723     		movs	r3, #39
 4233 0622 FC18     		adds	r4, r7, r3
 4234 0624 FA69     		ldr	r2, [r7, #28]
 4235 0626 7B68     		ldr	r3, [r7, #4]
 4236 0628 1100     		movs	r1, r2
 4237 062a 1800     		movs	r0, r3
 4238 062c FFF7FEFF 		bl	VL53L0X_SetMeasurementTimingBudgetMicroSeconds
 4239 0630 0300     		movs	r3, r0
 4240 0632 2370     		strb	r3, [r4]
 4241              	.L127:
1067:Api\core\src/vl53l0x_api_core.c **** 				MeasurementTimingBudgetMicroSeconds);
1068:Api\core\src/vl53l0x_api_core.c **** 	}
1069:Api\core\src/vl53l0x_api_core.c **** 
1070:Api\core\src/vl53l0x_api_core.c **** 	/* Perform the phase calibration. This is needed after changing on
1071:Api\core\src/vl53l0x_api_core.c **** 	 * vcsel period.
1072:Api\core\src/vl53l0x_api_core.c **** 	 * get_data_enable = 0, restore_config = 1 */
1073:Api\core\src/vl53l0x_api_core.c **** 	if (Status == VL53L0X_ERROR_NONE)
 4242              		.loc 1 1073 0
 4243 0634 2723     		movs	r3, #39
 4244 0636 FB18     		adds	r3, r7, r3
 4245 0638 1B78     		ldrb	r3, [r3]
 4246 063a 5BB2     		sxtb	r3, r3
 4247 063c 002B     		cmp	r3, #0
 4248 063e 0AD1     		bne	.L128
1074:Api\core\src/vl53l0x_api_core.c **** 		Status = VL53L0X_perform_phase_calibration(
 4249              		.loc 1 1074 0
 4250 0640 2723     		movs	r3, #39
 4251 0642 FC18     		adds	r4, r7, r3
ARM GAS  C:\Users\ilya\AppData\Local\Temp\ccAjPEqD.s 			page 95


 4252 0644 0F23     		movs	r3, #15
 4253 0646 F918     		adds	r1, r7, r3
 4254 0648 7868     		ldr	r0, [r7, #4]
 4255 064a 0123     		movs	r3, #1
 4256 064c 0022     		movs	r2, #0
 4257 064e FFF7FEFF 		bl	VL53L0X_perform_phase_calibration
 4258 0652 0300     		movs	r3, r0
 4259 0654 2370     		strb	r3, [r4]
 4260              	.L128:
1075:Api\core\src/vl53l0x_api_core.c **** 			Dev, &PhaseCalInt, 0, 1);
1076:Api\core\src/vl53l0x_api_core.c **** 
1077:Api\core\src/vl53l0x_api_core.c **** 	return Status;
 4261              		.loc 1 1077 0
 4262 0656 2723     		movs	r3, #39
 4263 0658 FB18     		adds	r3, r7, r3
 4264 065a 1B78     		ldrb	r3, [r3]
 4265 065c 5BB2     		sxtb	r3, r3
 4266              	.L129:
1078:Api\core\src/vl53l0x_api_core.c **** }
 4267              		.loc 1 1078 0 discriminator 1
 4268 065e 1800     		movs	r0, r3
 4269 0660 BD46     		mov	sp, r7
 4270 0662 0BB0     		add	sp, sp, #44
 4271              		@ sp needed
 4272 0664 90BD     		pop	{r4, r7, pc}
 4273              		.cfi_endproc
 4274              	.LFE16:
 4275              		.size	VL53L0X_set_vcsel_pulse_period, .-VL53L0X_set_vcsel_pulse_period
 4276 0666 C046     		.section	.text.VL53L0X_get_vcsel_pulse_period,"ax",%progbits
 4277              		.align	2
 4278              		.global	VL53L0X_get_vcsel_pulse_period
 4279              		.code	16
 4280              		.thumb_func
 4281              		.type	VL53L0X_get_vcsel_pulse_period, %function
 4282              	VL53L0X_get_vcsel_pulse_period:
 4283              	.LFB17:
1079:Api\core\src/vl53l0x_api_core.c **** 
1080:Api\core\src/vl53l0x_api_core.c **** VL53L0X_Error VL53L0X_get_vcsel_pulse_period(VL53L0X_DEV Dev,
1081:Api\core\src/vl53l0x_api_core.c **** 	VL53L0X_VcselPeriod VcselPeriodType, uint8_t *pVCSELPulsePeriodPCLK)
1082:Api\core\src/vl53l0x_api_core.c **** {
 4284              		.loc 1 1082 0
 4285              		.cfi_startproc
 4286              		@ args = 0, pretend = 0, frame = 24
 4287              		@ frame_needed = 1, uses_anonymous_args = 0
 4288 0000 90B5     		push	{r4, r7, lr}
 4289              		.cfi_def_cfa_offset 12
 4290              		.cfi_offset 4, -12
 4291              		.cfi_offset 7, -8
 4292              		.cfi_offset 14, -4
 4293 0002 87B0     		sub	sp, sp, #28
 4294              		.cfi_def_cfa_offset 40
 4295 0004 00AF     		add	r7, sp, #0
 4296              		.cfi_def_cfa_register 7
 4297 0006 F860     		str	r0, [r7, #12]
 4298 0008 7A60     		str	r2, [r7, #4]
 4299 000a 0B23     		movs	r3, #11
 4300 000c FB18     		adds	r3, r7, r3
ARM GAS  C:\Users\ilya\AppData\Local\Temp\ccAjPEqD.s 			page 96


 4301 000e 0A1C     		adds	r2, r1, #0
 4302 0010 1A70     		strb	r2, [r3]
1083:Api\core\src/vl53l0x_api_core.c **** 	VL53L0X_Error Status = VL53L0X_ERROR_NONE;
 4303              		.loc 1 1083 0
 4304 0012 1723     		movs	r3, #23
 4305 0014 FB18     		adds	r3, r7, r3
 4306 0016 0022     		movs	r2, #0
 4307 0018 1A70     		strb	r2, [r3]
1084:Api\core\src/vl53l0x_api_core.c **** 	uint8_t vcsel_period_reg;
1085:Api\core\src/vl53l0x_api_core.c **** 
1086:Api\core\src/vl53l0x_api_core.c **** 	switch (VcselPeriodType) {
 4308              		.loc 1 1086 0
 4309 001a 0B23     		movs	r3, #11
 4310 001c FB18     		adds	r3, r7, r3
 4311 001e 1B78     		ldrb	r3, [r3]
 4312 0020 002B     		cmp	r3, #0
 4313 0022 02D0     		beq	.L133
 4314 0024 012B     		cmp	r3, #1
 4315 0026 0CD0     		beq	.L134
 4316 0028 17E0     		b	.L138
 4317              	.L133:
1087:Api\core\src/vl53l0x_api_core.c **** 	case VL53L0X_VCSEL_PERIOD_PRE_RANGE:
1088:Api\core\src/vl53l0x_api_core.c **** 		Status = VL53L0X_RdByte(Dev,
 4318              		.loc 1 1088 0
 4319 002a 1723     		movs	r3, #23
 4320 002c FC18     		adds	r4, r7, r3
 4321 002e 1623     		movs	r3, #22
 4322 0030 FA18     		adds	r2, r7, r3
 4323 0032 FB68     		ldr	r3, [r7, #12]
 4324 0034 5021     		movs	r1, #80
 4325 0036 1800     		movs	r0, r3
 4326 0038 FFF7FEFF 		bl	VL53L0X_RdByte
 4327 003c 0300     		movs	r3, r0
 4328 003e 2370     		strb	r3, [r4]
1089:Api\core\src/vl53l0x_api_core.c **** 			VL53L0X_REG_PRE_RANGE_CONFIG_VCSEL_PERIOD,
1090:Api\core\src/vl53l0x_api_core.c **** 			&vcsel_period_reg);
1091:Api\core\src/vl53l0x_api_core.c **** 	break;
 4329              		.loc 1 1091 0
 4330 0040 0FE0     		b	.L135
 4331              	.L134:
1092:Api\core\src/vl53l0x_api_core.c **** 	case VL53L0X_VCSEL_PERIOD_FINAL_RANGE:
1093:Api\core\src/vl53l0x_api_core.c **** 		Status = VL53L0X_RdByte(Dev,
 4332              		.loc 1 1093 0
 4333 0042 1723     		movs	r3, #23
 4334 0044 FC18     		adds	r4, r7, r3
 4335 0046 1623     		movs	r3, #22
 4336 0048 FA18     		adds	r2, r7, r3
 4337 004a FB68     		ldr	r3, [r7, #12]
 4338 004c 7021     		movs	r1, #112
 4339 004e 1800     		movs	r0, r3
 4340 0050 FFF7FEFF 		bl	VL53L0X_RdByte
 4341 0054 0300     		movs	r3, r0
 4342 0056 2370     		strb	r3, [r4]
1094:Api\core\src/vl53l0x_api_core.c **** 			VL53L0X_REG_FINAL_RANGE_CONFIG_VCSEL_PERIOD,
1095:Api\core\src/vl53l0x_api_core.c **** 			&vcsel_period_reg);
1096:Api\core\src/vl53l0x_api_core.c **** 	break;
 4343              		.loc 1 1096 0
ARM GAS  C:\Users\ilya\AppData\Local\Temp\ccAjPEqD.s 			page 97


 4344 0058 03E0     		b	.L135
 4345              	.L138:
1097:Api\core\src/vl53l0x_api_core.c **** 	default:
1098:Api\core\src/vl53l0x_api_core.c **** 		Status = VL53L0X_ERROR_INVALID_PARAMS;
 4346              		.loc 1 1098 0
 4347 005a 1723     		movs	r3, #23
 4348 005c FB18     		adds	r3, r7, r3
 4349 005e FC22     		movs	r2, #252
 4350 0060 1A70     		strb	r2, [r3]
 4351              	.L135:
1099:Api\core\src/vl53l0x_api_core.c **** 	}
1100:Api\core\src/vl53l0x_api_core.c **** 
1101:Api\core\src/vl53l0x_api_core.c **** 	if (Status == VL53L0X_ERROR_NONE)
 4352              		.loc 1 1101 0
 4353 0062 1723     		movs	r3, #23
 4354 0064 FB18     		adds	r3, r7, r3
 4355 0066 1B78     		ldrb	r3, [r3]
 4356 0068 5BB2     		sxtb	r3, r3
 4357 006a 002B     		cmp	r3, #0
 4358 006c 09D1     		bne	.L136
1102:Api\core\src/vl53l0x_api_core.c **** 		*pVCSELPulsePeriodPCLK =
1103:Api\core\src/vl53l0x_api_core.c **** 			VL53L0X_decode_vcsel_period(vcsel_period_reg);
 4359              		.loc 1 1103 0
 4360 006e 1623     		movs	r3, #22
 4361 0070 FB18     		adds	r3, r7, r3
 4362 0072 1B78     		ldrb	r3, [r3]
 4363 0074 1800     		movs	r0, r3
 4364 0076 FFF7FEFF 		bl	VL53L0X_decode_vcsel_period
 4365 007a 0300     		movs	r3, r0
 4366 007c 1A00     		movs	r2, r3
1102:Api\core\src/vl53l0x_api_core.c **** 		*pVCSELPulsePeriodPCLK =
 4367              		.loc 1 1102 0
 4368 007e 7B68     		ldr	r3, [r7, #4]
 4369 0080 1A70     		strb	r2, [r3]
 4370              	.L136:
1104:Api\core\src/vl53l0x_api_core.c **** 
1105:Api\core\src/vl53l0x_api_core.c **** 	return Status;
 4371              		.loc 1 1105 0
 4372 0082 1723     		movs	r3, #23
 4373 0084 FB18     		adds	r3, r7, r3
 4374 0086 1B78     		ldrb	r3, [r3]
 4375 0088 5BB2     		sxtb	r3, r3
1106:Api\core\src/vl53l0x_api_core.c **** }
 4376              		.loc 1 1106 0
 4377 008a 1800     		movs	r0, r3
 4378 008c BD46     		mov	sp, r7
 4379 008e 07B0     		add	sp, sp, #28
 4380              		@ sp needed
 4381 0090 90BD     		pop	{r4, r7, pc}
 4382              		.cfi_endproc
 4383              	.LFE17:
 4384              		.size	VL53L0X_get_vcsel_pulse_period, .-VL53L0X_get_vcsel_pulse_period
 4385 0092 C046     		.section	.text.VL53L0X_set_measurement_timing_budget_micro_seconds,"ax",%progbits
 4386              		.align	2
 4387              		.global	VL53L0X_set_measurement_timing_budget_micro_seconds
 4388              		.code	16
 4389              		.thumb_func
ARM GAS  C:\Users\ilya\AppData\Local\Temp\ccAjPEqD.s 			page 98


 4390              		.type	VL53L0X_set_measurement_timing_budget_micro_seconds, %function
 4391              	VL53L0X_set_measurement_timing_budget_micro_seconds:
 4392              	.LFB18:
1107:Api\core\src/vl53l0x_api_core.c **** 
1108:Api\core\src/vl53l0x_api_core.c **** 
1109:Api\core\src/vl53l0x_api_core.c **** 
1110:Api\core\src/vl53l0x_api_core.c **** VL53L0X_Error VL53L0X_set_measurement_timing_budget_micro_seconds(VL53L0X_DEV Dev,
1111:Api\core\src/vl53l0x_api_core.c **** 		uint32_t MeasurementTimingBudgetMicroSeconds)
1112:Api\core\src/vl53l0x_api_core.c **** {
 4393              		.loc 1 1112 0
 4394              		.cfi_startproc
 4395              		@ args = 0, pretend = 0, frame = 72
 4396              		@ frame_needed = 1, uses_anonymous_args = 0
 4397 0000 90B5     		push	{r4, r7, lr}
 4398              		.cfi_def_cfa_offset 12
 4399              		.cfi_offset 4, -12
 4400              		.cfi_offset 7, -8
 4401              		.cfi_offset 14, -4
 4402 0002 93B0     		sub	sp, sp, #76
 4403              		.cfi_def_cfa_offset 88
 4404 0004 00AF     		add	r7, sp, #0
 4405              		.cfi_def_cfa_register 7
 4406 0006 7860     		str	r0, [r7, #4]
 4407 0008 3960     		str	r1, [r7]
1113:Api\core\src/vl53l0x_api_core.c **** 	VL53L0X_Error Status = VL53L0X_ERROR_NONE;
 4408              		.loc 1 1113 0
 4409 000a 4723     		movs	r3, #71
 4410 000c FB18     		adds	r3, r7, r3
 4411 000e 0022     		movs	r2, #0
 4412 0010 1A70     		strb	r2, [r3]
1114:Api\core\src/vl53l0x_api_core.c **** 	uint32_t FinalRangeTimingBudgetMicroSeconds;
1115:Api\core\src/vl53l0x_api_core.c **** 	VL53L0X_SchedulerSequenceSteps_t SchedulerSequenceSteps;
1116:Api\core\src/vl53l0x_api_core.c **** 	uint32_t MsrcDccTccTimeoutMicroSeconds	= 2000;
 4413              		.loc 1 1116 0
 4414 0012 FA23     		movs	r3, #250
 4415 0014 DB00     		lsls	r3, r3, #3
 4416 0016 3B61     		str	r3, [r7, #16]
1117:Api\core\src/vl53l0x_api_core.c **** 	uint32_t StartOverheadMicroSeconds		= 1910;
 4417              		.loc 1 1117 0
 4418 0018 7F4B     		ldr	r3, .L157
 4419 001a FB63     		str	r3, [r7, #60]
1118:Api\core\src/vl53l0x_api_core.c **** 	uint32_t EndOverheadMicroSeconds		= 960;
 4420              		.loc 1 1118 0
 4421 001c F023     		movs	r3, #240
 4422 001e 9B00     		lsls	r3, r3, #2
 4423 0020 BB63     		str	r3, [r7, #56]
1119:Api\core\src/vl53l0x_api_core.c **** 	uint32_t MsrcOverheadMicroSeconds		= 660;
 4424              		.loc 1 1119 0
 4425 0022 A523     		movs	r3, #165
 4426 0024 9B00     		lsls	r3, r3, #2
 4427 0026 7B63     		str	r3, [r7, #52]
1120:Api\core\src/vl53l0x_api_core.c **** 	uint32_t TccOverheadMicroSeconds		= 590;
 4428              		.loc 1 1120 0
 4429 0028 7C4B     		ldr	r3, .L157+4
 4430 002a 3B63     		str	r3, [r7, #48]
1121:Api\core\src/vl53l0x_api_core.c **** 	uint32_t DssOverheadMicroSeconds		= 690;
 4431              		.loc 1 1121 0
ARM GAS  C:\Users\ilya\AppData\Local\Temp\ccAjPEqD.s 			page 99


 4432 002c 7C4B     		ldr	r3, .L157+8
 4433 002e FB62     		str	r3, [r7, #44]
1122:Api\core\src/vl53l0x_api_core.c **** 	uint32_t PreRangeOverheadMicroSeconds	= 660;
 4434              		.loc 1 1122 0
 4435 0030 A523     		movs	r3, #165
 4436 0032 9B00     		lsls	r3, r3, #2
 4437 0034 BB62     		str	r3, [r7, #40]
1123:Api\core\src/vl53l0x_api_core.c **** 	uint32_t FinalRangeOverheadMicroSeconds = 550;
 4438              		.loc 1 1123 0
 4439 0036 7B4B     		ldr	r3, .L157+12
 4440 0038 7B62     		str	r3, [r7, #36]
1124:Api\core\src/vl53l0x_api_core.c **** 	uint32_t PreRangeTimeoutMicroSeconds	= 0;
 4441              		.loc 1 1124 0
 4442 003a 0023     		movs	r3, #0
 4443 003c FB60     		str	r3, [r7, #12]
1125:Api\core\src/vl53l0x_api_core.c **** 	uint32_t cMinTimingBudgetMicroSeconds	= 20000;
 4444              		.loc 1 1125 0
 4445 003e 7A4B     		ldr	r3, .L157+16
 4446 0040 3B62     		str	r3, [r7, #32]
1126:Api\core\src/vl53l0x_api_core.c **** 	uint32_t SubTimeout = 0;
 4447              		.loc 1 1126 0
 4448 0042 0023     		movs	r3, #0
 4449 0044 FB61     		str	r3, [r7, #28]
1127:Api\core\src/vl53l0x_api_core.c **** 
1128:Api\core\src/vl53l0x_api_core.c **** 	LOG_FUNCTION_START("");
1129:Api\core\src/vl53l0x_api_core.c **** 
1130:Api\core\src/vl53l0x_api_core.c **** 	if (MeasurementTimingBudgetMicroSeconds
 4450              		.loc 1 1130 0
 4451 0046 3A68     		ldr	r2, [r7]
 4452 0048 3B6A     		ldr	r3, [r7, #32]
 4453 004a 9A42     		cmp	r2, r3
 4454 004c 08D2     		bcs	.L140
1131:Api\core\src/vl53l0x_api_core.c **** 			< cMinTimingBudgetMicroSeconds) {
1132:Api\core\src/vl53l0x_api_core.c **** 		Status = VL53L0X_ERROR_INVALID_PARAMS;
 4455              		.loc 1 1132 0
 4456 004e 4723     		movs	r3, #71
 4457 0050 FB18     		adds	r3, r7, r3
 4458 0052 FC22     		movs	r2, #252
 4459 0054 1A70     		strb	r2, [r3]
1133:Api\core\src/vl53l0x_api_core.c **** 		return Status;
 4460              		.loc 1 1133 0
 4461 0056 4723     		movs	r3, #71
 4462 0058 FB18     		adds	r3, r7, r3
 4463 005a 1B78     		ldrb	r3, [r3]
 4464 005c 5BB2     		sxtb	r3, r3
 4465 005e D7E0     		b	.L156
 4466              	.L140:
1134:Api\core\src/vl53l0x_api_core.c **** 	}
1135:Api\core\src/vl53l0x_api_core.c **** 
1136:Api\core\src/vl53l0x_api_core.c **** 	FinalRangeTimingBudgetMicroSeconds =
1137:Api\core\src/vl53l0x_api_core.c **** 		MeasurementTimingBudgetMicroSeconds -
1138:Api\core\src/vl53l0x_api_core.c **** 		(StartOverheadMicroSeconds + EndOverheadMicroSeconds);
 4467              		.loc 1 1138 0
 4468 0060 FA6B     		ldr	r2, [r7, #60]
 4469 0062 BB6B     		ldr	r3, [r7, #56]
 4470 0064 D318     		adds	r3, r2, r3
1136:Api\core\src/vl53l0x_api_core.c **** 		MeasurementTimingBudgetMicroSeconds -
ARM GAS  C:\Users\ilya\AppData\Local\Temp\ccAjPEqD.s 			page 100


 4471              		.loc 1 1136 0
 4472 0066 3A68     		ldr	r2, [r7]
 4473 0068 D31A     		subs	r3, r2, r3
 4474 006a 3B64     		str	r3, [r7, #64]
1139:Api\core\src/vl53l0x_api_core.c **** 
1140:Api\core\src/vl53l0x_api_core.c **** 	Status = VL53L0X_GetSequenceStepEnables(Dev, &SchedulerSequenceSteps);
 4475              		.loc 1 1140 0
 4476 006c 4723     		movs	r3, #71
 4477 006e FC18     		adds	r4, r7, r3
 4478 0070 1423     		movs	r3, #20
 4479 0072 FA18     		adds	r2, r7, r3
 4480 0074 7B68     		ldr	r3, [r7, #4]
 4481 0076 1100     		movs	r1, r2
 4482 0078 1800     		movs	r0, r3
 4483 007a FFF7FEFF 		bl	VL53L0X_GetSequenceStepEnables
 4484 007e 0300     		movs	r3, r0
 4485 0080 2370     		strb	r3, [r4]
1141:Api\core\src/vl53l0x_api_core.c **** 
1142:Api\core\src/vl53l0x_api_core.c **** 	if (Status == VL53L0X_ERROR_NONE &&
 4486              		.loc 1 1142 0
 4487 0082 4723     		movs	r3, #71
 4488 0084 FB18     		adds	r3, r7, r3
 4489 0086 1B78     		ldrb	r3, [r3]
 4490 0088 5BB2     		sxtb	r3, r3
 4491 008a 002B     		cmp	r3, #0
 4492 008c 00D0     		beq	.LCB4007
 4493 008e 73E0     		b	.L142	@long jump
 4494              	.LCB4007:
1143:Api\core\src/vl53l0x_api_core.c **** 		(SchedulerSequenceSteps.TccOn  ||
 4495              		.loc 1 1143 0 discriminator 1
 4496 0090 1423     		movs	r3, #20
 4497 0092 FB18     		adds	r3, r7, r3
 4498 0094 1B78     		ldrb	r3, [r3]
1142:Api\core\src/vl53l0x_api_core.c **** 		(SchedulerSequenceSteps.TccOn  ||
 4499              		.loc 1 1142 0 discriminator 1
 4500 0096 002B     		cmp	r3, #0
 4501 0098 09D1     		bne	.L143
1144:Api\core\src/vl53l0x_api_core.c **** 		SchedulerSequenceSteps.MsrcOn ||
 4502              		.loc 1 1144 0
 4503 009a 1423     		movs	r3, #20
 4504 009c FB18     		adds	r3, r7, r3
 4505 009e 5B78     		ldrb	r3, [r3, #1]
1143:Api\core\src/vl53l0x_api_core.c **** 		(SchedulerSequenceSteps.TccOn  ||
 4506              		.loc 1 1143 0
 4507 00a0 002B     		cmp	r3, #0
 4508 00a2 04D1     		bne	.L143
1145:Api\core\src/vl53l0x_api_core.c **** 		SchedulerSequenceSteps.DssOn)) {
 4509              		.loc 1 1145 0
 4510 00a4 1423     		movs	r3, #20
 4511 00a6 FB18     		adds	r3, r7, r3
 4512 00a8 9B78     		ldrb	r3, [r3, #2]
1144:Api\core\src/vl53l0x_api_core.c **** 		SchedulerSequenceSteps.MsrcOn ||
 4513              		.loc 1 1144 0
 4514 00aa 002B     		cmp	r3, #0
 4515 00ac 64D0     		beq	.L142
 4516              	.L143:
1146:Api\core\src/vl53l0x_api_core.c **** 
ARM GAS  C:\Users\ilya\AppData\Local\Temp\ccAjPEqD.s 			page 101


1147:Api\core\src/vl53l0x_api_core.c **** 		/* TCC, MSRC and DSS all share the same timeout */
1148:Api\core\src/vl53l0x_api_core.c **** 		Status = get_sequence_step_timeout(Dev,
 4517              		.loc 1 1148 0
 4518 00ae 4723     		movs	r3, #71
 4519 00b0 FC18     		adds	r4, r7, r3
 4520 00b2 1023     		movs	r3, #16
 4521 00b4 FA18     		adds	r2, r7, r3
 4522 00b6 7B68     		ldr	r3, [r7, #4]
 4523 00b8 0221     		movs	r1, #2
 4524 00ba 1800     		movs	r0, r3
 4525 00bc FFF7FEFF 		bl	get_sequence_step_timeout
 4526 00c0 0300     		movs	r3, r0
 4527 00c2 2370     		strb	r3, [r4]
1149:Api\core\src/vl53l0x_api_core.c **** 					VL53L0X_SEQUENCESTEP_MSRC,
1150:Api\core\src/vl53l0x_api_core.c **** 					&MsrcDccTccTimeoutMicroSeconds);
1151:Api\core\src/vl53l0x_api_core.c **** 
1152:Api\core\src/vl53l0x_api_core.c **** 		/* Subtract the TCC, MSRC and DSS timeouts if they are
1153:Api\core\src/vl53l0x_api_core.c **** 		 * enabled. */
1154:Api\core\src/vl53l0x_api_core.c **** 
1155:Api\core\src/vl53l0x_api_core.c **** 		if (Status != VL53L0X_ERROR_NONE)
 4528              		.loc 1 1155 0
 4529 00c4 4723     		movs	r3, #71
 4530 00c6 FB18     		adds	r3, r7, r3
 4531 00c8 1B78     		ldrb	r3, [r3]
 4532 00ca 5BB2     		sxtb	r3, r3
 4533 00cc 002B     		cmp	r3, #0
 4534 00ce 04D0     		beq	.L144
1156:Api\core\src/vl53l0x_api_core.c **** 			return Status;
 4535              		.loc 1 1156 0
 4536 00d0 4723     		movs	r3, #71
 4537 00d2 FB18     		adds	r3, r7, r3
 4538 00d4 1B78     		ldrb	r3, [r3]
 4539 00d6 5BB2     		sxtb	r3, r3
 4540 00d8 9AE0     		b	.L156
 4541              	.L144:
1157:Api\core\src/vl53l0x_api_core.c **** 
1158:Api\core\src/vl53l0x_api_core.c **** 		/* TCC */
1159:Api\core\src/vl53l0x_api_core.c **** 		if (SchedulerSequenceSteps.TccOn) {
 4542              		.loc 1 1159 0
 4543 00da 1423     		movs	r3, #20
 4544 00dc FB18     		adds	r3, r7, r3
 4545 00de 1B78     		ldrb	r3, [r3]
 4546 00e0 002B     		cmp	r3, #0
 4547 00e2 10D0     		beq	.L145
1160:Api\core\src/vl53l0x_api_core.c **** 
1161:Api\core\src/vl53l0x_api_core.c **** 			SubTimeout = MsrcDccTccTimeoutMicroSeconds
1162:Api\core\src/vl53l0x_api_core.c **** 				+ TccOverheadMicroSeconds;
 4548              		.loc 1 1162 0
 4549 00e4 3A69     		ldr	r2, [r7, #16]
1161:Api\core\src/vl53l0x_api_core.c **** 				+ TccOverheadMicroSeconds;
 4550              		.loc 1 1161 0
 4551 00e6 3B6B     		ldr	r3, [r7, #48]
 4552 00e8 D318     		adds	r3, r2, r3
 4553 00ea FB61     		str	r3, [r7, #28]
1163:Api\core\src/vl53l0x_api_core.c **** 
1164:Api\core\src/vl53l0x_api_core.c **** 			if (SubTimeout <
 4554              		.loc 1 1164 0
ARM GAS  C:\Users\ilya\AppData\Local\Temp\ccAjPEqD.s 			page 102


 4555 00ec FA69     		ldr	r2, [r7, #28]
 4556 00ee 3B6C     		ldr	r3, [r7, #64]
 4557 00f0 9A42     		cmp	r2, r3
 4558 00f2 04D2     		bcs	.L146
1165:Api\core\src/vl53l0x_api_core.c **** 				FinalRangeTimingBudgetMicroSeconds) {
1166:Api\core\src/vl53l0x_api_core.c **** 				FinalRangeTimingBudgetMicroSeconds -=
 4559              		.loc 1 1166 0
 4560 00f4 3A6C     		ldr	r2, [r7, #64]
 4561 00f6 FB69     		ldr	r3, [r7, #28]
 4562 00f8 D31A     		subs	r3, r2, r3
 4563 00fa 3B64     		str	r3, [r7, #64]
 4564 00fc 03E0     		b	.L145
 4565              	.L146:
1167:Api\core\src/vl53l0x_api_core.c **** 							SubTimeout;
1168:Api\core\src/vl53l0x_api_core.c **** 			} else {
1169:Api\core\src/vl53l0x_api_core.c **** 				/* Requested timeout too big. */
1170:Api\core\src/vl53l0x_api_core.c **** 				Status = VL53L0X_ERROR_INVALID_PARAMS;
 4566              		.loc 1 1170 0
 4567 00fe 4723     		movs	r3, #71
 4568 0100 FB18     		adds	r3, r7, r3
 4569 0102 FC22     		movs	r2, #252
 4570 0104 1A70     		strb	r2, [r3]
 4571              	.L145:
1171:Api\core\src/vl53l0x_api_core.c **** 			}
1172:Api\core\src/vl53l0x_api_core.c **** 		}
1173:Api\core\src/vl53l0x_api_core.c **** 
1174:Api\core\src/vl53l0x_api_core.c **** 		if (Status != VL53L0X_ERROR_NONE) {
 4572              		.loc 1 1174 0
 4573 0106 4723     		movs	r3, #71
 4574 0108 FB18     		adds	r3, r7, r3
 4575 010a 1B78     		ldrb	r3, [r3]
 4576 010c 5BB2     		sxtb	r3, r3
 4577 010e 002B     		cmp	r3, #0
 4578 0110 04D0     		beq	.L147
1175:Api\core\src/vl53l0x_api_core.c **** 			LOG_FUNCTION_END(Status);
1176:Api\core\src/vl53l0x_api_core.c **** 			return Status;
 4579              		.loc 1 1176 0
 4580 0112 4723     		movs	r3, #71
 4581 0114 FB18     		adds	r3, r7, r3
 4582 0116 1B78     		ldrb	r3, [r3]
 4583 0118 5BB2     		sxtb	r3, r3
 4584 011a 79E0     		b	.L156
 4585              	.L147:
1177:Api\core\src/vl53l0x_api_core.c **** 		}
1178:Api\core\src/vl53l0x_api_core.c **** 
1179:Api\core\src/vl53l0x_api_core.c **** 		/* DSS */
1180:Api\core\src/vl53l0x_api_core.c **** 		if (SchedulerSequenceSteps.DssOn) {
 4586              		.loc 1 1180 0
 4587 011c 1423     		movs	r3, #20
 4588 011e FB18     		adds	r3, r7, r3
 4589 0120 9B78     		ldrb	r3, [r3, #2]
 4590 0122 002B     		cmp	r3, #0
 4591 0124 12D0     		beq	.L148
1181:Api\core\src/vl53l0x_api_core.c **** 
1182:Api\core\src/vl53l0x_api_core.c **** 			SubTimeout = 2 * (MsrcDccTccTimeoutMicroSeconds +
 4592              		.loc 1 1182 0
 4593 0126 3A69     		ldr	r2, [r7, #16]
ARM GAS  C:\Users\ilya\AppData\Local\Temp\ccAjPEqD.s 			page 103


 4594 0128 FB6A     		ldr	r3, [r7, #44]
 4595 012a D318     		adds	r3, r2, r3
 4596 012c 5B00     		lsls	r3, r3, #1
 4597 012e FB61     		str	r3, [r7, #28]
1183:Api\core\src/vl53l0x_api_core.c **** 				DssOverheadMicroSeconds);
1184:Api\core\src/vl53l0x_api_core.c **** 
1185:Api\core\src/vl53l0x_api_core.c **** 			if (SubTimeout < FinalRangeTimingBudgetMicroSeconds) {
 4598              		.loc 1 1185 0
 4599 0130 FA69     		ldr	r2, [r7, #28]
 4600 0132 3B6C     		ldr	r3, [r7, #64]
 4601 0134 9A42     		cmp	r2, r3
 4602 0136 04D2     		bcs	.L149
1186:Api\core\src/vl53l0x_api_core.c **** 				FinalRangeTimingBudgetMicroSeconds
1187:Api\core\src/vl53l0x_api_core.c **** 							-= SubTimeout;
 4603              		.loc 1 1187 0
 4604 0138 3A6C     		ldr	r2, [r7, #64]
 4605 013a FB69     		ldr	r3, [r7, #28]
 4606 013c D31A     		subs	r3, r2, r3
 4607 013e 3B64     		str	r3, [r7, #64]
 4608 0140 1AE0     		b	.L142
 4609              	.L149:
1188:Api\core\src/vl53l0x_api_core.c **** 			} else {
1189:Api\core\src/vl53l0x_api_core.c **** 				/* Requested timeout too big. */
1190:Api\core\src/vl53l0x_api_core.c **** 				Status = VL53L0X_ERROR_INVALID_PARAMS;
 4610              		.loc 1 1190 0
 4611 0142 4723     		movs	r3, #71
 4612 0144 FB18     		adds	r3, r7, r3
 4613 0146 FC22     		movs	r2, #252
 4614 0148 1A70     		strb	r2, [r3]
 4615 014a 15E0     		b	.L142
 4616              	.L148:
1191:Api\core\src/vl53l0x_api_core.c **** 			}
1192:Api\core\src/vl53l0x_api_core.c **** 		} else if (SchedulerSequenceSteps.MsrcOn) {
 4617              		.loc 1 1192 0
 4618 014c 1423     		movs	r3, #20
 4619 014e FB18     		adds	r3, r7, r3
 4620 0150 5B78     		ldrb	r3, [r3, #1]
 4621 0152 002B     		cmp	r3, #0
 4622 0154 10D0     		beq	.L142
1193:Api\core\src/vl53l0x_api_core.c **** 			/* MSRC */
1194:Api\core\src/vl53l0x_api_core.c **** 			SubTimeout = MsrcDccTccTimeoutMicroSeconds +
 4623              		.loc 1 1194 0
 4624 0156 3A69     		ldr	r2, [r7, #16]
 4625 0158 7B6B     		ldr	r3, [r7, #52]
 4626 015a D318     		adds	r3, r2, r3
 4627 015c FB61     		str	r3, [r7, #28]
1195:Api\core\src/vl53l0x_api_core.c **** 						MsrcOverheadMicroSeconds;
1196:Api\core\src/vl53l0x_api_core.c **** 
1197:Api\core\src/vl53l0x_api_core.c **** 			if (SubTimeout < FinalRangeTimingBudgetMicroSeconds) {
 4628              		.loc 1 1197 0
 4629 015e FA69     		ldr	r2, [r7, #28]
 4630 0160 3B6C     		ldr	r3, [r7, #64]
 4631 0162 9A42     		cmp	r2, r3
 4632 0164 04D2     		bcs	.L151
1198:Api\core\src/vl53l0x_api_core.c **** 				FinalRangeTimingBudgetMicroSeconds
1199:Api\core\src/vl53l0x_api_core.c **** 							-= SubTimeout;
 4633              		.loc 1 1199 0
ARM GAS  C:\Users\ilya\AppData\Local\Temp\ccAjPEqD.s 			page 104


 4634 0166 3A6C     		ldr	r2, [r7, #64]
 4635 0168 FB69     		ldr	r3, [r7, #28]
 4636 016a D31A     		subs	r3, r2, r3
 4637 016c 3B64     		str	r3, [r7, #64]
 4638 016e 03E0     		b	.L142
 4639              	.L151:
1200:Api\core\src/vl53l0x_api_core.c **** 			} else {
1201:Api\core\src/vl53l0x_api_core.c **** 				/* Requested timeout too big. */
1202:Api\core\src/vl53l0x_api_core.c **** 				Status = VL53L0X_ERROR_INVALID_PARAMS;
 4640              		.loc 1 1202 0
 4641 0170 4723     		movs	r3, #71
 4642 0172 FB18     		adds	r3, r7, r3
 4643 0174 FC22     		movs	r2, #252
 4644 0176 1A70     		strb	r2, [r3]
 4645              	.L142:
1203:Api\core\src/vl53l0x_api_core.c **** 			}
1204:Api\core\src/vl53l0x_api_core.c **** 		}
1205:Api\core\src/vl53l0x_api_core.c **** 
1206:Api\core\src/vl53l0x_api_core.c **** 	}
1207:Api\core\src/vl53l0x_api_core.c **** 
1208:Api\core\src/vl53l0x_api_core.c **** 	if (Status != VL53L0X_ERROR_NONE) {
 4646              		.loc 1 1208 0
 4647 0178 4723     		movs	r3, #71
 4648 017a FB18     		adds	r3, r7, r3
 4649 017c 1B78     		ldrb	r3, [r3]
 4650 017e 5BB2     		sxtb	r3, r3
 4651 0180 002B     		cmp	r3, #0
 4652 0182 04D0     		beq	.L152
1209:Api\core\src/vl53l0x_api_core.c **** 		LOG_FUNCTION_END(Status);
1210:Api\core\src/vl53l0x_api_core.c **** 		return Status;
 4653              		.loc 1 1210 0
 4654 0184 4723     		movs	r3, #71
 4655 0186 FB18     		adds	r3, r7, r3
 4656 0188 1B78     		ldrb	r3, [r3]
 4657 018a 5BB2     		sxtb	r3, r3
 4658 018c 40E0     		b	.L156
 4659              	.L152:
1211:Api\core\src/vl53l0x_api_core.c **** 	}
1212:Api\core\src/vl53l0x_api_core.c **** 
1213:Api\core\src/vl53l0x_api_core.c **** 	if (SchedulerSequenceSteps.PreRangeOn) {
 4660              		.loc 1 1213 0
 4661 018e 1423     		movs	r3, #20
 4662 0190 FB18     		adds	r3, r7, r3
 4663 0192 DB78     		ldrb	r3, [r3, #3]
 4664 0194 002B     		cmp	r3, #0
 4665 0196 1BD0     		beq	.L153
1214:Api\core\src/vl53l0x_api_core.c **** 
1215:Api\core\src/vl53l0x_api_core.c **** 		/* Subtract the Pre-range timeout if enabled. */
1216:Api\core\src/vl53l0x_api_core.c **** 
1217:Api\core\src/vl53l0x_api_core.c **** 		Status = get_sequence_step_timeout(Dev,
 4666              		.loc 1 1217 0
 4667 0198 4723     		movs	r3, #71
 4668 019a FC18     		adds	r4, r7, r3
 4669 019c 0C23     		movs	r3, #12
 4670 019e FA18     		adds	r2, r7, r3
 4671 01a0 7B68     		ldr	r3, [r7, #4]
 4672 01a2 0321     		movs	r1, #3
ARM GAS  C:\Users\ilya\AppData\Local\Temp\ccAjPEqD.s 			page 105


 4673 01a4 1800     		movs	r0, r3
 4674 01a6 FFF7FEFF 		bl	get_sequence_step_timeout
 4675 01aa 0300     		movs	r3, r0
 4676 01ac 2370     		strb	r3, [r4]
1218:Api\core\src/vl53l0x_api_core.c **** 				VL53L0X_SEQUENCESTEP_PRE_RANGE,
1219:Api\core\src/vl53l0x_api_core.c **** 				&PreRangeTimeoutMicroSeconds);
1220:Api\core\src/vl53l0x_api_core.c **** 
1221:Api\core\src/vl53l0x_api_core.c **** 		SubTimeout = PreRangeTimeoutMicroSeconds +
 4677              		.loc 1 1221 0
 4678 01ae FA68     		ldr	r2, [r7, #12]
 4679 01b0 BB6A     		ldr	r3, [r7, #40]
 4680 01b2 D318     		adds	r3, r2, r3
 4681 01b4 FB61     		str	r3, [r7, #28]
1222:Api\core\src/vl53l0x_api_core.c **** 				PreRangeOverheadMicroSeconds;
1223:Api\core\src/vl53l0x_api_core.c **** 
1224:Api\core\src/vl53l0x_api_core.c **** 		if (SubTimeout < FinalRangeTimingBudgetMicroSeconds) {
 4682              		.loc 1 1224 0
 4683 01b6 FA69     		ldr	r2, [r7, #28]
 4684 01b8 3B6C     		ldr	r3, [r7, #64]
 4685 01ba 9A42     		cmp	r2, r3
 4686 01bc 04D2     		bcs	.L154
1225:Api\core\src/vl53l0x_api_core.c **** 			FinalRangeTimingBudgetMicroSeconds -= SubTimeout;
 4687              		.loc 1 1225 0
 4688 01be 3A6C     		ldr	r2, [r7, #64]
 4689 01c0 FB69     		ldr	r3, [r7, #28]
 4690 01c2 D31A     		subs	r3, r2, r3
 4691 01c4 3B64     		str	r3, [r7, #64]
 4692 01c6 03E0     		b	.L153
 4693              	.L154:
1226:Api\core\src/vl53l0x_api_core.c **** 		} else {
1227:Api\core\src/vl53l0x_api_core.c **** 			/* Requested timeout too big. */
1228:Api\core\src/vl53l0x_api_core.c **** 			Status = VL53L0X_ERROR_INVALID_PARAMS;
 4694              		.loc 1 1228 0
 4695 01c8 4723     		movs	r3, #71
 4696 01ca FB18     		adds	r3, r7, r3
 4697 01cc FC22     		movs	r2, #252
 4698 01ce 1A70     		strb	r2, [r3]
 4699              	.L153:
1229:Api\core\src/vl53l0x_api_core.c **** 		}
1230:Api\core\src/vl53l0x_api_core.c **** 	}
1231:Api\core\src/vl53l0x_api_core.c **** 
1232:Api\core\src/vl53l0x_api_core.c **** 
1233:Api\core\src/vl53l0x_api_core.c **** 	if (Status == VL53L0X_ERROR_NONE &&
 4700              		.loc 1 1233 0
 4701 01d0 4723     		movs	r3, #71
 4702 01d2 FB18     		adds	r3, r7, r3
 4703 01d4 1B78     		ldrb	r3, [r3]
 4704 01d6 5BB2     		sxtb	r3, r3
 4705 01d8 002B     		cmp	r3, #0
 4706 01da 15D1     		bne	.L155
1234:Api\core\src/vl53l0x_api_core.c **** 		SchedulerSequenceSteps.FinalRangeOn) {
 4707              		.loc 1 1234 0 discriminator 1
 4708 01dc 1423     		movs	r3, #20
 4709 01de FB18     		adds	r3, r7, r3
 4710 01e0 1B79     		ldrb	r3, [r3, #4]
1233:Api\core\src/vl53l0x_api_core.c **** 		SchedulerSequenceSteps.FinalRangeOn) {
 4711              		.loc 1 1233 0 discriminator 1
ARM GAS  C:\Users\ilya\AppData\Local\Temp\ccAjPEqD.s 			page 106


 4712 01e2 002B     		cmp	r3, #0
 4713 01e4 10D0     		beq	.L155
1235:Api\core\src/vl53l0x_api_core.c **** 
1236:Api\core\src/vl53l0x_api_core.c **** 		FinalRangeTimingBudgetMicroSeconds -=
 4714              		.loc 1 1236 0
 4715 01e6 3A6C     		ldr	r2, [r7, #64]
 4716 01e8 7B6A     		ldr	r3, [r7, #36]
 4717 01ea D31A     		subs	r3, r2, r3
 4718 01ec 3B64     		str	r3, [r7, #64]
1237:Api\core\src/vl53l0x_api_core.c **** 				FinalRangeOverheadMicroSeconds;
1238:Api\core\src/vl53l0x_api_core.c **** 
1239:Api\core\src/vl53l0x_api_core.c **** 		/* Final Range Timeout
1240:Api\core\src/vl53l0x_api_core.c **** 		 * Note that the final range timeout is determined by the timing
1241:Api\core\src/vl53l0x_api_core.c **** 		 * budget and the sum of all other timeouts within the sequence.
1242:Api\core\src/vl53l0x_api_core.c **** 		 * If there is no room for the final range timeout, then an error
1243:Api\core\src/vl53l0x_api_core.c **** 		 * will be set. Otherwise the remaining time will be applied to
1244:Api\core\src/vl53l0x_api_core.c **** 		 * the final range.
1245:Api\core\src/vl53l0x_api_core.c **** 		 */
1246:Api\core\src/vl53l0x_api_core.c **** 		Status = set_sequence_step_timeout(Dev,
 4719              		.loc 1 1246 0
 4720 01ee 4723     		movs	r3, #71
 4721 01f0 FC18     		adds	r4, r7, r3
 4722 01f2 3A6C     		ldr	r2, [r7, #64]
 4723 01f4 7B68     		ldr	r3, [r7, #4]
 4724 01f6 0421     		movs	r1, #4
 4725 01f8 1800     		movs	r0, r3
 4726 01fa FFF7FEFF 		bl	set_sequence_step_timeout
 4727 01fe 0300     		movs	r3, r0
 4728 0200 2370     		strb	r3, [r4]
1247:Api\core\src/vl53l0x_api_core.c **** 			VL53L0X_SEQUENCESTEP_FINAL_RANGE,
1248:Api\core\src/vl53l0x_api_core.c **** 			FinalRangeTimingBudgetMicroSeconds);
1249:Api\core\src/vl53l0x_api_core.c **** 
1250:Api\core\src/vl53l0x_api_core.c **** 		VL53L0X_SETPARAMETERFIELD(Dev,
 4729              		.loc 1 1250 0
 4730 0202 7B68     		ldr	r3, [r7, #4]
 4731 0204 3A68     		ldr	r2, [r7]
 4732 0206 5A61     		str	r2, [r3, #20]
 4733              	.L155:
1251:Api\core\src/vl53l0x_api_core.c **** 			MeasurementTimingBudgetMicroSeconds,
1252:Api\core\src/vl53l0x_api_core.c **** 			MeasurementTimingBudgetMicroSeconds);
1253:Api\core\src/vl53l0x_api_core.c **** 	}
1254:Api\core\src/vl53l0x_api_core.c **** 
1255:Api\core\src/vl53l0x_api_core.c **** 	LOG_FUNCTION_END(Status);
1256:Api\core\src/vl53l0x_api_core.c **** 
1257:Api\core\src/vl53l0x_api_core.c **** 	return Status;
 4734              		.loc 1 1257 0
 4735 0208 4723     		movs	r3, #71
 4736 020a FB18     		adds	r3, r7, r3
 4737 020c 1B78     		ldrb	r3, [r3]
 4738 020e 5BB2     		sxtb	r3, r3
 4739              	.L156:
1258:Api\core\src/vl53l0x_api_core.c **** }
 4740              		.loc 1 1258 0 discriminator 1
 4741 0210 1800     		movs	r0, r3
 4742 0212 BD46     		mov	sp, r7
 4743 0214 13B0     		add	sp, sp, #76
 4744              		@ sp needed
ARM GAS  C:\Users\ilya\AppData\Local\Temp\ccAjPEqD.s 			page 107


 4745 0216 90BD     		pop	{r4, r7, pc}
 4746              	.L158:
 4747              		.align	2
 4748              	.L157:
 4749 0218 76070000 		.word	1910
 4750 021c 4E020000 		.word	590
 4751 0220 B2020000 		.word	690
 4752 0224 26020000 		.word	550
 4753 0228 204E0000 		.word	20000
 4754              		.cfi_endproc
 4755              	.LFE18:
 4756              		.size	VL53L0X_set_measurement_timing_budget_micro_seconds, .-VL53L0X_set_measurement_timing_budget
 4757              		.section	.text.VL53L0X_get_measurement_timing_budget_micro_seconds,"ax",%progbits
 4758              		.align	2
 4759              		.global	VL53L0X_get_measurement_timing_budget_micro_seconds
 4760              		.code	16
 4761              		.thumb_func
 4762              		.type	VL53L0X_get_measurement_timing_budget_micro_seconds, %function
 4763              	VL53L0X_get_measurement_timing_budget_micro_seconds:
 4764              	.LFB19:
1259:Api\core\src/vl53l0x_api_core.c **** 
1260:Api\core\src/vl53l0x_api_core.c **** VL53L0X_Error VL53L0X_get_measurement_timing_budget_micro_seconds(VL53L0X_DEV Dev,
1261:Api\core\src/vl53l0x_api_core.c **** 		uint32_t *pMeasurementTimingBudgetMicroSeconds)
1262:Api\core\src/vl53l0x_api_core.c **** {
 4765              		.loc 1 1262 0
 4766              		.cfi_startproc
 4767              		@ args = 0, pretend = 0, frame = 64
 4768              		@ frame_needed = 1, uses_anonymous_args = 0
 4769 0000 90B5     		push	{r4, r7, lr}
 4770              		.cfi_def_cfa_offset 12
 4771              		.cfi_offset 4, -12
 4772              		.cfi_offset 7, -8
 4773              		.cfi_offset 14, -4
 4774 0002 91B0     		sub	sp, sp, #68
 4775              		.cfi_def_cfa_offset 80
 4776 0004 00AF     		add	r7, sp, #0
 4777              		.cfi_def_cfa_register 7
 4778 0006 7860     		str	r0, [r7, #4]
 4779 0008 3960     		str	r1, [r7]
1263:Api\core\src/vl53l0x_api_core.c **** 	VL53L0X_Error Status = VL53L0X_ERROR_NONE;
 4780              		.loc 1 1263 0
 4781 000a 3F23     		movs	r3, #63
 4782 000c FB18     		adds	r3, r7, r3
 4783 000e 0022     		movs	r2, #0
 4784 0010 1A70     		strb	r2, [r3]
1264:Api\core\src/vl53l0x_api_core.c **** 	VL53L0X_SchedulerSequenceSteps_t SchedulerSequenceSteps;
1265:Api\core\src/vl53l0x_api_core.c **** 	uint32_t FinalRangeTimeoutMicroSeconds;
1266:Api\core\src/vl53l0x_api_core.c **** 	uint32_t MsrcDccTccTimeoutMicroSeconds	= 2000;
 4785              		.loc 1 1266 0
 4786 0012 FA23     		movs	r3, #250
 4787 0014 DB00     		lsls	r3, r3, #3
 4788 0016 3B61     		str	r3, [r7, #16]
1267:Api\core\src/vl53l0x_api_core.c **** 	uint32_t StartOverheadMicroSeconds		= 1910;
 4789              		.loc 1 1267 0
 4790 0018 624B     		ldr	r3, .L170
 4791 001a BB63     		str	r3, [r7, #56]
1268:Api\core\src/vl53l0x_api_core.c **** 	uint32_t EndOverheadMicroSeconds		= 960;
ARM GAS  C:\Users\ilya\AppData\Local\Temp\ccAjPEqD.s 			page 108


 4792              		.loc 1 1268 0
 4793 001c F023     		movs	r3, #240
 4794 001e 9B00     		lsls	r3, r3, #2
 4795 0020 7B63     		str	r3, [r7, #52]
1269:Api\core\src/vl53l0x_api_core.c **** 	uint32_t MsrcOverheadMicroSeconds		= 660;
 4796              		.loc 1 1269 0
 4797 0022 A523     		movs	r3, #165
 4798 0024 9B00     		lsls	r3, r3, #2
 4799 0026 3B63     		str	r3, [r7, #48]
1270:Api\core\src/vl53l0x_api_core.c **** 	uint32_t TccOverheadMicroSeconds		= 590;
 4800              		.loc 1 1270 0
 4801 0028 5F4B     		ldr	r3, .L170+4
 4802 002a FB62     		str	r3, [r7, #44]
1271:Api\core\src/vl53l0x_api_core.c **** 	uint32_t DssOverheadMicroSeconds		= 690;
 4803              		.loc 1 1271 0
 4804 002c 5F4B     		ldr	r3, .L170+8
 4805 002e BB62     		str	r3, [r7, #40]
1272:Api\core\src/vl53l0x_api_core.c **** 	uint32_t PreRangeOverheadMicroSeconds	= 660;
 4806              		.loc 1 1272 0
 4807 0030 A523     		movs	r3, #165
 4808 0032 9B00     		lsls	r3, r3, #2
 4809 0034 7B62     		str	r3, [r7, #36]
1273:Api\core\src/vl53l0x_api_core.c **** 	uint32_t FinalRangeOverheadMicroSeconds = 550;
 4810              		.loc 1 1273 0
 4811 0036 5E4B     		ldr	r3, .L170+12
 4812 0038 3B62     		str	r3, [r7, #32]
1274:Api\core\src/vl53l0x_api_core.c **** 	uint32_t PreRangeTimeoutMicroSeconds	= 0;
 4813              		.loc 1 1274 0
 4814 003a 0023     		movs	r3, #0
 4815 003c FB60     		str	r3, [r7, #12]
1275:Api\core\src/vl53l0x_api_core.c **** 
1276:Api\core\src/vl53l0x_api_core.c **** 	LOG_FUNCTION_START("");
1277:Api\core\src/vl53l0x_api_core.c **** 
1278:Api\core\src/vl53l0x_api_core.c **** 	/* Start and end overhead times always present */
1279:Api\core\src/vl53l0x_api_core.c **** 	*pMeasurementTimingBudgetMicroSeconds
1280:Api\core\src/vl53l0x_api_core.c **** 		= StartOverheadMicroSeconds + EndOverheadMicroSeconds;
 4816              		.loc 1 1280 0
 4817 003e BA6B     		ldr	r2, [r7, #56]
 4818 0040 7B6B     		ldr	r3, [r7, #52]
 4819 0042 D218     		adds	r2, r2, r3
 4820 0044 3B68     		ldr	r3, [r7]
 4821 0046 1A60     		str	r2, [r3]
1281:Api\core\src/vl53l0x_api_core.c **** 
1282:Api\core\src/vl53l0x_api_core.c **** 	Status = VL53L0X_GetSequenceStepEnables(Dev, &SchedulerSequenceSteps);
 4822              		.loc 1 1282 0
 4823 0048 3F23     		movs	r3, #63
 4824 004a FC18     		adds	r4, r7, r3
 4825 004c 1823     		movs	r3, #24
 4826 004e FA18     		adds	r2, r7, r3
 4827 0050 7B68     		ldr	r3, [r7, #4]
 4828 0052 1100     		movs	r1, r2
 4829 0054 1800     		movs	r0, r3
 4830 0056 FFF7FEFF 		bl	VL53L0X_GetSequenceStepEnables
 4831 005a 0300     		movs	r3, r0
 4832 005c 2370     		strb	r3, [r4]
1283:Api\core\src/vl53l0x_api_core.c **** 
1284:Api\core\src/vl53l0x_api_core.c **** 	if (Status != VL53L0X_ERROR_NONE) {
ARM GAS  C:\Users\ilya\AppData\Local\Temp\ccAjPEqD.s 			page 109


 4833              		.loc 1 1284 0
 4834 005e 3F23     		movs	r3, #63
 4835 0060 FB18     		adds	r3, r7, r3
 4836 0062 1B78     		ldrb	r3, [r3]
 4837 0064 5BB2     		sxtb	r3, r3
 4838 0066 002B     		cmp	r3, #0
 4839 0068 04D0     		beq	.L160
1285:Api\core\src/vl53l0x_api_core.c **** 		LOG_FUNCTION_END(Status);
1286:Api\core\src/vl53l0x_api_core.c **** 		return Status;
 4840              		.loc 1 1286 0
 4841 006a 3F23     		movs	r3, #63
 4842 006c FB18     		adds	r3, r7, r3
 4843 006e 1B78     		ldrb	r3, [r3]
 4844 0070 5BB2     		sxtb	r3, r3
 4845 0072 92E0     		b	.L169
 4846              	.L160:
1287:Api\core\src/vl53l0x_api_core.c **** 	}
1288:Api\core\src/vl53l0x_api_core.c **** 
1289:Api\core\src/vl53l0x_api_core.c **** 
1290:Api\core\src/vl53l0x_api_core.c **** 	if (SchedulerSequenceSteps.TccOn  ||
 4847              		.loc 1 1290 0
 4848 0074 1823     		movs	r3, #24
 4849 0076 FB18     		adds	r3, r7, r3
 4850 0078 1B78     		ldrb	r3, [r3]
 4851 007a 002B     		cmp	r3, #0
 4852 007c 09D1     		bne	.L162
1291:Api\core\src/vl53l0x_api_core.c **** 		SchedulerSequenceSteps.MsrcOn ||
 4853              		.loc 1 1291 0 discriminator 1
 4854 007e 1823     		movs	r3, #24
 4855 0080 FB18     		adds	r3, r7, r3
 4856 0082 5B78     		ldrb	r3, [r3, #1]
1290:Api\core\src/vl53l0x_api_core.c **** 		SchedulerSequenceSteps.MsrcOn ||
 4857              		.loc 1 1290 0 discriminator 1
 4858 0084 002B     		cmp	r3, #0
 4859 0086 04D1     		bne	.L162
1292:Api\core\src/vl53l0x_api_core.c **** 		SchedulerSequenceSteps.DssOn) {
 4860              		.loc 1 1292 0
 4861 0088 1823     		movs	r3, #24
 4862 008a FB18     		adds	r3, r7, r3
 4863 008c 9B78     		ldrb	r3, [r3, #2]
1291:Api\core\src/vl53l0x_api_core.c **** 		SchedulerSequenceSteps.MsrcOn ||
 4864              		.loc 1 1291 0
 4865 008e 002B     		cmp	r3, #0
 4866 0090 39D0     		beq	.L163
 4867              	.L162:
1293:Api\core\src/vl53l0x_api_core.c **** 
1294:Api\core\src/vl53l0x_api_core.c **** 		Status = get_sequence_step_timeout(Dev,
 4868              		.loc 1 1294 0
 4869 0092 3F23     		movs	r3, #63
 4870 0094 FC18     		adds	r4, r7, r3
 4871 0096 1023     		movs	r3, #16
 4872 0098 FA18     		adds	r2, r7, r3
 4873 009a 7B68     		ldr	r3, [r7, #4]
 4874 009c 0221     		movs	r1, #2
 4875 009e 1800     		movs	r0, r3
 4876 00a0 FFF7FEFF 		bl	get_sequence_step_timeout
 4877 00a4 0300     		movs	r3, r0
ARM GAS  C:\Users\ilya\AppData\Local\Temp\ccAjPEqD.s 			page 110


 4878 00a6 2370     		strb	r3, [r4]
1295:Api\core\src/vl53l0x_api_core.c **** 				VL53L0X_SEQUENCESTEP_MSRC,
1296:Api\core\src/vl53l0x_api_core.c **** 				&MsrcDccTccTimeoutMicroSeconds);
1297:Api\core\src/vl53l0x_api_core.c **** 
1298:Api\core\src/vl53l0x_api_core.c **** 		if (Status == VL53L0X_ERROR_NONE) {
 4879              		.loc 1 1298 0
 4880 00a8 3F23     		movs	r3, #63
 4881 00aa FB18     		adds	r3, r7, r3
 4882 00ac 1B78     		ldrb	r3, [r3]
 4883 00ae 5BB2     		sxtb	r3, r3
 4884 00b0 002B     		cmp	r3, #0
 4885 00b2 28D1     		bne	.L163
1299:Api\core\src/vl53l0x_api_core.c **** 			if (SchedulerSequenceSteps.TccOn) {
 4886              		.loc 1 1299 0
 4887 00b4 1823     		movs	r3, #24
 4888 00b6 FB18     		adds	r3, r7, r3
 4889 00b8 1B78     		ldrb	r3, [r3]
 4890 00ba 002B     		cmp	r3, #0
 4891 00bc 07D0     		beq	.L164
1300:Api\core\src/vl53l0x_api_core.c **** 				*pMeasurementTimingBudgetMicroSeconds +=
 4892              		.loc 1 1300 0
 4893 00be 3B68     		ldr	r3, [r7]
 4894 00c0 1A68     		ldr	r2, [r3]
1301:Api\core\src/vl53l0x_api_core.c **** 					MsrcDccTccTimeoutMicroSeconds +
 4895              		.loc 1 1301 0
 4896 00c2 3969     		ldr	r1, [r7, #16]
 4897 00c4 FB6A     		ldr	r3, [r7, #44]
 4898 00c6 CB18     		adds	r3, r1, r3
1300:Api\core\src/vl53l0x_api_core.c **** 				*pMeasurementTimingBudgetMicroSeconds +=
 4899              		.loc 1 1300 0
 4900 00c8 D218     		adds	r2, r2, r3
 4901 00ca 3B68     		ldr	r3, [r7]
 4902 00cc 1A60     		str	r2, [r3]
 4903              	.L164:
1302:Api\core\src/vl53l0x_api_core.c **** 					TccOverheadMicroSeconds;
1303:Api\core\src/vl53l0x_api_core.c **** 			}
1304:Api\core\src/vl53l0x_api_core.c **** 
1305:Api\core\src/vl53l0x_api_core.c **** 			if (SchedulerSequenceSteps.DssOn) {
 4904              		.loc 1 1305 0
 4905 00ce 1823     		movs	r3, #24
 4906 00d0 FB18     		adds	r3, r7, r3
 4907 00d2 9B78     		ldrb	r3, [r3, #2]
 4908 00d4 002B     		cmp	r3, #0
 4909 00d6 09D0     		beq	.L165
1306:Api\core\src/vl53l0x_api_core.c **** 				*pMeasurementTimingBudgetMicroSeconds +=
 4910              		.loc 1 1306 0
 4911 00d8 3B68     		ldr	r3, [r7]
 4912 00da 1A68     		ldr	r2, [r3]
1307:Api\core\src/vl53l0x_api_core.c **** 				2 * (MsrcDccTccTimeoutMicroSeconds +
 4913              		.loc 1 1307 0
 4914 00dc 3969     		ldr	r1, [r7, #16]
 4915 00de BB6A     		ldr	r3, [r7, #40]
 4916 00e0 CB18     		adds	r3, r1, r3
 4917 00e2 5B00     		lsls	r3, r3, #1
1306:Api\core\src/vl53l0x_api_core.c **** 				*pMeasurementTimingBudgetMicroSeconds +=
 4918              		.loc 1 1306 0
 4919 00e4 D218     		adds	r2, r2, r3
ARM GAS  C:\Users\ilya\AppData\Local\Temp\ccAjPEqD.s 			page 111


 4920 00e6 3B68     		ldr	r3, [r7]
 4921 00e8 1A60     		str	r2, [r3]
 4922 00ea 0CE0     		b	.L163
 4923              	.L165:
1308:Api\core\src/vl53l0x_api_core.c **** 					DssOverheadMicroSeconds);
1309:Api\core\src/vl53l0x_api_core.c **** 			} else if (SchedulerSequenceSteps.MsrcOn) {
 4924              		.loc 1 1309 0
 4925 00ec 1823     		movs	r3, #24
 4926 00ee FB18     		adds	r3, r7, r3
 4927 00f0 5B78     		ldrb	r3, [r3, #1]
 4928 00f2 002B     		cmp	r3, #0
 4929 00f4 07D0     		beq	.L163
1310:Api\core\src/vl53l0x_api_core.c **** 				*pMeasurementTimingBudgetMicroSeconds +=
 4930              		.loc 1 1310 0
 4931 00f6 3B68     		ldr	r3, [r7]
 4932 00f8 1A68     		ldr	r2, [r3]
1311:Api\core\src/vl53l0x_api_core.c **** 					MsrcDccTccTimeoutMicroSeconds +
 4933              		.loc 1 1311 0
 4934 00fa 3969     		ldr	r1, [r7, #16]
 4935 00fc 3B6B     		ldr	r3, [r7, #48]
 4936 00fe CB18     		adds	r3, r1, r3
1310:Api\core\src/vl53l0x_api_core.c **** 				*pMeasurementTimingBudgetMicroSeconds +=
 4937              		.loc 1 1310 0
 4938 0100 D218     		adds	r2, r2, r3
 4939 0102 3B68     		ldr	r3, [r7]
 4940 0104 1A60     		str	r2, [r3]
 4941              	.L163:
1312:Api\core\src/vl53l0x_api_core.c **** 					MsrcOverheadMicroSeconds;
1313:Api\core\src/vl53l0x_api_core.c **** 			}
1314:Api\core\src/vl53l0x_api_core.c **** 		}
1315:Api\core\src/vl53l0x_api_core.c **** 	}
1316:Api\core\src/vl53l0x_api_core.c **** 
1317:Api\core\src/vl53l0x_api_core.c **** 	if (Status == VL53L0X_ERROR_NONE) {
 4942              		.loc 1 1317 0
 4943 0106 3F23     		movs	r3, #63
 4944 0108 FB18     		adds	r3, r7, r3
 4945 010a 1B78     		ldrb	r3, [r3]
 4946 010c 5BB2     		sxtb	r3, r3
 4947 010e 002B     		cmp	r3, #0
 4948 0110 17D1     		bne	.L166
1318:Api\core\src/vl53l0x_api_core.c **** 		if (SchedulerSequenceSteps.PreRangeOn) {
 4949              		.loc 1 1318 0
 4950 0112 1823     		movs	r3, #24
 4951 0114 FB18     		adds	r3, r7, r3
 4952 0116 DB78     		ldrb	r3, [r3, #3]
 4953 0118 002B     		cmp	r3, #0
 4954 011a 12D0     		beq	.L166
1319:Api\core\src/vl53l0x_api_core.c **** 			Status = get_sequence_step_timeout(Dev,
 4955              		.loc 1 1319 0
 4956 011c 3F23     		movs	r3, #63
 4957 011e FC18     		adds	r4, r7, r3
 4958 0120 0C23     		movs	r3, #12
 4959 0122 FA18     		adds	r2, r7, r3
 4960 0124 7B68     		ldr	r3, [r7, #4]
 4961 0126 0321     		movs	r1, #3
 4962 0128 1800     		movs	r0, r3
 4963 012a FFF7FEFF 		bl	get_sequence_step_timeout
ARM GAS  C:\Users\ilya\AppData\Local\Temp\ccAjPEqD.s 			page 112


 4964 012e 0300     		movs	r3, r0
 4965 0130 2370     		strb	r3, [r4]
1320:Api\core\src/vl53l0x_api_core.c **** 				VL53L0X_SEQUENCESTEP_PRE_RANGE,
1321:Api\core\src/vl53l0x_api_core.c **** 				&PreRangeTimeoutMicroSeconds);
1322:Api\core\src/vl53l0x_api_core.c **** 			*pMeasurementTimingBudgetMicroSeconds +=
 4966              		.loc 1 1322 0
 4967 0132 3B68     		ldr	r3, [r7]
 4968 0134 1A68     		ldr	r2, [r3]
1323:Api\core\src/vl53l0x_api_core.c **** 				PreRangeTimeoutMicroSeconds +
 4969              		.loc 1 1323 0
 4970 0136 F968     		ldr	r1, [r7, #12]
 4971 0138 7B6A     		ldr	r3, [r7, #36]
 4972 013a CB18     		adds	r3, r1, r3
1322:Api\core\src/vl53l0x_api_core.c **** 				PreRangeTimeoutMicroSeconds +
 4973              		.loc 1 1322 0
 4974 013c D218     		adds	r2, r2, r3
 4975 013e 3B68     		ldr	r3, [r7]
 4976 0140 1A60     		str	r2, [r3]
 4977              	.L166:
1324:Api\core\src/vl53l0x_api_core.c **** 				PreRangeOverheadMicroSeconds;
1325:Api\core\src/vl53l0x_api_core.c **** 		}
1326:Api\core\src/vl53l0x_api_core.c **** 	}
1327:Api\core\src/vl53l0x_api_core.c **** 
1328:Api\core\src/vl53l0x_api_core.c **** 	if (Status == VL53L0X_ERROR_NONE) {
 4978              		.loc 1 1328 0
 4979 0142 3F23     		movs	r3, #63
 4980 0144 FB18     		adds	r3, r7, r3
 4981 0146 1B78     		ldrb	r3, [r3]
 4982 0148 5BB2     		sxtb	r3, r3
 4983 014a 002B     		cmp	r3, #0
 4984 014c 17D1     		bne	.L167
1329:Api\core\src/vl53l0x_api_core.c **** 		if (SchedulerSequenceSteps.FinalRangeOn) {
 4985              		.loc 1 1329 0
 4986 014e 1823     		movs	r3, #24
 4987 0150 FB18     		adds	r3, r7, r3
 4988 0152 1B79     		ldrb	r3, [r3, #4]
 4989 0154 002B     		cmp	r3, #0
 4990 0156 12D0     		beq	.L167
1330:Api\core\src/vl53l0x_api_core.c **** 			Status = get_sequence_step_timeout(Dev,
 4991              		.loc 1 1330 0
 4992 0158 3F23     		movs	r3, #63
 4993 015a FC18     		adds	r4, r7, r3
 4994 015c 1423     		movs	r3, #20
 4995 015e FA18     		adds	r2, r7, r3
 4996 0160 7B68     		ldr	r3, [r7, #4]
 4997 0162 0421     		movs	r1, #4
 4998 0164 1800     		movs	r0, r3
 4999 0166 FFF7FEFF 		bl	get_sequence_step_timeout
 5000 016a 0300     		movs	r3, r0
 5001 016c 2370     		strb	r3, [r4]
1331:Api\core\src/vl53l0x_api_core.c **** 					VL53L0X_SEQUENCESTEP_FINAL_RANGE,
1332:Api\core\src/vl53l0x_api_core.c **** 					&FinalRangeTimeoutMicroSeconds);
1333:Api\core\src/vl53l0x_api_core.c **** 			*pMeasurementTimingBudgetMicroSeconds +=
 5002              		.loc 1 1333 0
 5003 016e 3B68     		ldr	r3, [r7]
 5004 0170 1A68     		ldr	r2, [r3]
1334:Api\core\src/vl53l0x_api_core.c **** 				(FinalRangeTimeoutMicroSeconds +
ARM GAS  C:\Users\ilya\AppData\Local\Temp\ccAjPEqD.s 			page 113


 5005              		.loc 1 1334 0
 5006 0172 7969     		ldr	r1, [r7, #20]
 5007 0174 3B6A     		ldr	r3, [r7, #32]
 5008 0176 CB18     		adds	r3, r1, r3
1333:Api\core\src/vl53l0x_api_core.c **** 				(FinalRangeTimeoutMicroSeconds +
 5009              		.loc 1 1333 0
 5010 0178 D218     		adds	r2, r2, r3
 5011 017a 3B68     		ldr	r3, [r7]
 5012 017c 1A60     		str	r2, [r3]
 5013              	.L167:
1335:Api\core\src/vl53l0x_api_core.c **** 				FinalRangeOverheadMicroSeconds);
1336:Api\core\src/vl53l0x_api_core.c **** 		}
1337:Api\core\src/vl53l0x_api_core.c **** 	}
1338:Api\core\src/vl53l0x_api_core.c **** 
1339:Api\core\src/vl53l0x_api_core.c **** 	if (Status == VL53L0X_ERROR_NONE) {
 5014              		.loc 1 1339 0
 5015 017e 3F23     		movs	r3, #63
 5016 0180 FB18     		adds	r3, r7, r3
 5017 0182 1B78     		ldrb	r3, [r3]
 5018 0184 5BB2     		sxtb	r3, r3
 5019 0186 002B     		cmp	r3, #0
 5020 0188 03D1     		bne	.L168
1340:Api\core\src/vl53l0x_api_core.c **** 		VL53L0X_SETPARAMETERFIELD(Dev,
 5021              		.loc 1 1340 0
 5022 018a 3B68     		ldr	r3, [r7]
 5023 018c 1A68     		ldr	r2, [r3]
 5024 018e 7B68     		ldr	r3, [r7, #4]
 5025 0190 5A61     		str	r2, [r3, #20]
 5026              	.L168:
1341:Api\core\src/vl53l0x_api_core.c **** 			MeasurementTimingBudgetMicroSeconds,
1342:Api\core\src/vl53l0x_api_core.c **** 			*pMeasurementTimingBudgetMicroSeconds);
1343:Api\core\src/vl53l0x_api_core.c **** 	}
1344:Api\core\src/vl53l0x_api_core.c **** 
1345:Api\core\src/vl53l0x_api_core.c **** 	LOG_FUNCTION_END(Status);
1346:Api\core\src/vl53l0x_api_core.c **** 	return Status;
 5027              		.loc 1 1346 0
 5028 0192 3F23     		movs	r3, #63
 5029 0194 FB18     		adds	r3, r7, r3
 5030 0196 1B78     		ldrb	r3, [r3]
 5031 0198 5BB2     		sxtb	r3, r3
 5032              	.L169:
1347:Api\core\src/vl53l0x_api_core.c **** }
 5033              		.loc 1 1347 0 discriminator 1
 5034 019a 1800     		movs	r0, r3
 5035 019c BD46     		mov	sp, r7
 5036 019e 11B0     		add	sp, sp, #68
 5037              		@ sp needed
 5038 01a0 90BD     		pop	{r4, r7, pc}
 5039              	.L171:
 5040 01a2 C046     		.align	2
 5041              	.L170:
 5042 01a4 76070000 		.word	1910
 5043 01a8 4E020000 		.word	590
 5044 01ac B2020000 		.word	690
 5045 01b0 26020000 		.word	550
 5046              		.cfi_endproc
 5047              	.LFE19:
ARM GAS  C:\Users\ilya\AppData\Local\Temp\ccAjPEqD.s 			page 114


 5048              		.size	VL53L0X_get_measurement_timing_budget_micro_seconds, .-VL53L0X_get_measurement_timing_budget
 5049              		.section	.text.VL53L0X_load_tuning_settings,"ax",%progbits
 5050              		.align	2
 5051              		.global	VL53L0X_load_tuning_settings
 5052              		.code	16
 5053              		.thumb_func
 5054              		.type	VL53L0X_load_tuning_settings, %function
 5055              	VL53L0X_load_tuning_settings:
 5056              	.LFB20:
1348:Api\core\src/vl53l0x_api_core.c **** 
1349:Api\core\src/vl53l0x_api_core.c **** 
1350:Api\core\src/vl53l0x_api_core.c **** 
1351:Api\core\src/vl53l0x_api_core.c **** VL53L0X_Error VL53L0X_load_tuning_settings(VL53L0X_DEV Dev,
1352:Api\core\src/vl53l0x_api_core.c **** 		uint8_t *pTuningSettingBuffer)
1353:Api\core\src/vl53l0x_api_core.c **** {
 5057              		.loc 1 1353 0
 5058              		.cfi_startproc
 5059              		@ args = 0, pretend = 0, frame = 32
 5060              		@ frame_needed = 1, uses_anonymous_args = 0
 5061 0000 B0B5     		push	{r4, r5, r7, lr}
 5062              		.cfi_def_cfa_offset 16
 5063              		.cfi_offset 4, -16
 5064              		.cfi_offset 5, -12
 5065              		.cfi_offset 7, -8
 5066              		.cfi_offset 14, -4
 5067 0002 88B0     		sub	sp, sp, #32
 5068              		.cfi_def_cfa_offset 48
 5069 0004 00AF     		add	r7, sp, #0
 5070              		.cfi_def_cfa_register 7
 5071 0006 7860     		str	r0, [r7, #4]
 5072 0008 3960     		str	r1, [r7]
1354:Api\core\src/vl53l0x_api_core.c **** 	VL53L0X_Error Status = VL53L0X_ERROR_NONE;
 5073              		.loc 1 1354 0
 5074 000a 1F23     		movs	r3, #31
 5075 000c FB18     		adds	r3, r7, r3
 5076 000e 0022     		movs	r2, #0
 5077 0010 1A70     		strb	r2, [r3]
1355:Api\core\src/vl53l0x_api_core.c **** 	int i;
1356:Api\core\src/vl53l0x_api_core.c **** 	int Index;
1357:Api\core\src/vl53l0x_api_core.c **** 	uint8_t msb;
1358:Api\core\src/vl53l0x_api_core.c **** 	uint8_t lsb;
1359:Api\core\src/vl53l0x_api_core.c **** 	uint8_t SelectParam;
1360:Api\core\src/vl53l0x_api_core.c **** 	uint8_t NumberOfWrites;
1361:Api\core\src/vl53l0x_api_core.c **** 	uint8_t Address;
1362:Api\core\src/vl53l0x_api_core.c **** 	uint8_t localBuffer[4]; /* max */
1363:Api\core\src/vl53l0x_api_core.c **** 	uint16_t Temp16;
1364:Api\core\src/vl53l0x_api_core.c **** 
1365:Api\core\src/vl53l0x_api_core.c **** 	LOG_FUNCTION_START("");
1366:Api\core\src/vl53l0x_api_core.c **** 
1367:Api\core\src/vl53l0x_api_core.c **** 	Index = 0;
 5078              		.loc 1 1367 0
 5079 0012 0023     		movs	r3, #0
 5080 0014 7B61     		str	r3, [r7, #20]
1368:Api\core\src/vl53l0x_api_core.c **** 
1369:Api\core\src/vl53l0x_api_core.c **** 	while ((*(pTuningSettingBuffer + Index) != 0) &&
 5081              		.loc 1 1369 0
 5082 0016 12E1     		b	.L173
ARM GAS  C:\Users\ilya\AppData\Local\Temp\ccAjPEqD.s 			page 115


 5083              	.L186:
1370:Api\core\src/vl53l0x_api_core.c **** 			(Status == VL53L0X_ERROR_NONE)) {
1371:Api\core\src/vl53l0x_api_core.c **** 		NumberOfWrites = *(pTuningSettingBuffer + Index);
 5084              		.loc 1 1371 0
 5085 0018 7B69     		ldr	r3, [r7, #20]
 5086 001a 3A68     		ldr	r2, [r7]
 5087 001c D218     		adds	r2, r2, r3
 5088 001e 1323     		movs	r3, #19
 5089 0020 FB18     		adds	r3, r7, r3
 5090 0022 1278     		ldrb	r2, [r2]
 5091 0024 1A70     		strb	r2, [r3]
1372:Api\core\src/vl53l0x_api_core.c **** 		Index++;
 5092              		.loc 1 1372 0
 5093 0026 7B69     		ldr	r3, [r7, #20]
 5094 0028 0133     		adds	r3, r3, #1
 5095 002a 7B61     		str	r3, [r7, #20]
1373:Api\core\src/vl53l0x_api_core.c **** 		if (NumberOfWrites == 0xFF) {
 5096              		.loc 1 1373 0
 5097 002c 1323     		movs	r3, #19
 5098 002e FB18     		adds	r3, r7, r3
 5099 0030 1B78     		ldrb	r3, [r3]
 5100 0032 FF2B     		cmp	r3, #255
 5101 0034 00D0     		beq	.LCB4545
 5102 0036 C5E0     		b	.L174	@long jump
 5103              	.LCB4545:
1374:Api\core\src/vl53l0x_api_core.c **** 			/* internal parameters */
1375:Api\core\src/vl53l0x_api_core.c **** 			SelectParam = *(pTuningSettingBuffer + Index);
 5104              		.loc 1 1375 0
 5105 0038 7B69     		ldr	r3, [r7, #20]
 5106 003a 3A68     		ldr	r2, [r7]
 5107 003c D218     		adds	r2, r2, r3
 5108 003e 1223     		movs	r3, #18
 5109 0040 FB18     		adds	r3, r7, r3
 5110 0042 1278     		ldrb	r2, [r2]
 5111 0044 1A70     		strb	r2, [r3]
1376:Api\core\src/vl53l0x_api_core.c **** 			Index++;
 5112              		.loc 1 1376 0
 5113 0046 7B69     		ldr	r3, [r7, #20]
 5114 0048 0133     		adds	r3, r3, #1
 5115 004a 7B61     		str	r3, [r7, #20]
1377:Api\core\src/vl53l0x_api_core.c **** 			switch (SelectParam) {
 5116              		.loc 1 1377 0
 5117 004c 1223     		movs	r3, #18
 5118 004e FB18     		adds	r3, r7, r3
 5119 0050 1B78     		ldrb	r3, [r3]
 5120 0052 012B     		cmp	r3, #1
 5121 0054 33D0     		beq	.L176
 5122 0056 02DC     		bgt	.L177
 5123 0058 002B     		cmp	r3, #0
 5124 005a 06D0     		beq	.L178
 5125 005c ADE0     		b	.L175
 5126              	.L177:
 5127 005e 022B     		cmp	r3, #2
 5128 0060 57D0     		beq	.L179
 5129 0062 032B     		cmp	r3, #3
 5130 0064 00D1     		bne	.LCB4572
 5131 0066 7EE0     		b	.L180	@long jump
ARM GAS  C:\Users\ilya\AppData\Local\Temp\ccAjPEqD.s 			page 116


 5132              	.LCB4572:
 5133 0068 A7E0     		b	.L175
 5134              	.L178:
1378:Api\core\src/vl53l0x_api_core.c **** 			case 0: /* uint16_t SigmaEstRefArray -> 2 bytes */
1379:Api\core\src/vl53l0x_api_core.c **** 				msb = *(pTuningSettingBuffer + Index);
 5135              		.loc 1 1379 0
 5136 006a 7B69     		ldr	r3, [r7, #20]
 5137 006c 3A68     		ldr	r2, [r7]
 5138 006e D218     		adds	r2, r2, r3
 5139 0070 1123     		movs	r3, #17
 5140 0072 FB18     		adds	r3, r7, r3
 5141 0074 1278     		ldrb	r2, [r2]
 5142 0076 1A70     		strb	r2, [r3]
1380:Api\core\src/vl53l0x_api_core.c **** 				Index++;
 5143              		.loc 1 1380 0
 5144 0078 7B69     		ldr	r3, [r7, #20]
 5145 007a 0133     		adds	r3, r3, #1
 5146 007c 7B61     		str	r3, [r7, #20]
1381:Api\core\src/vl53l0x_api_core.c **** 				lsb = *(pTuningSettingBuffer + Index);
 5147              		.loc 1 1381 0
 5148 007e 7B69     		ldr	r3, [r7, #20]
 5149 0080 3A68     		ldr	r2, [r7]
 5150 0082 D218     		adds	r2, r2, r3
 5151 0084 1023     		movs	r3, #16
 5152 0086 FB18     		adds	r3, r7, r3
 5153 0088 1278     		ldrb	r2, [r2]
 5154 008a 1A70     		strb	r2, [r3]
1382:Api\core\src/vl53l0x_api_core.c **** 				Index++;
 5155              		.loc 1 1382 0
 5156 008c 7B69     		ldr	r3, [r7, #20]
 5157 008e 0133     		adds	r3, r3, #1
 5158 0090 7B61     		str	r3, [r7, #20]
1383:Api\core\src/vl53l0x_api_core.c **** 				Temp16 = VL53L0X_MAKEUINT16(lsb, msb);
 5159              		.loc 1 1383 0
 5160 0092 1123     		movs	r3, #17
 5161 0094 FB18     		adds	r3, r7, r3
 5162 0096 1B78     		ldrb	r3, [r3]
 5163 0098 9BB2     		uxth	r3, r3
 5164 009a 1B02     		lsls	r3, r3, #8
 5165 009c 99B2     		uxth	r1, r3
 5166 009e 1023     		movs	r3, #16
 5167 00a0 FB18     		adds	r3, r7, r3
 5168 00a2 1B78     		ldrb	r3, [r3]
 5169 00a4 9AB2     		uxth	r2, r3
 5170 00a6 0E23     		movs	r3, #14
 5171 00a8 FB18     		adds	r3, r7, r3
 5172 00aa 8A18     		adds	r2, r1, r2
 5173 00ac 1A80     		strh	r2, [r3]
1384:Api\core\src/vl53l0x_api_core.c **** 				PALDevDataSet(Dev, SigmaEstRefArray, Temp16);
 5174              		.loc 1 1384 0
 5175 00ae 7A68     		ldr	r2, [r7, #4]
 5176 00b0 0E23     		movs	r3, #14
 5177 00b2 F918     		adds	r1, r7, r3
 5178 00b4 9A23     		movs	r3, #154
 5179 00b6 5B00     		lsls	r3, r3, #1
 5180 00b8 0988     		ldrh	r1, [r1]
 5181 00ba D152     		strh	r1, [r2, r3]
ARM GAS  C:\Users\ilya\AppData\Local\Temp\ccAjPEqD.s 			page 117


1385:Api\core\src/vl53l0x_api_core.c **** 				break;
 5182              		.loc 1 1385 0
 5183 00bc BFE0     		b	.L173
 5184              	.L176:
1386:Api\core\src/vl53l0x_api_core.c **** 			case 1: /* uint16_t SigmaEstEffPulseWidth -> 2 bytes */
1387:Api\core\src/vl53l0x_api_core.c **** 				msb = *(pTuningSettingBuffer + Index);
 5185              		.loc 1 1387 0
 5186 00be 7B69     		ldr	r3, [r7, #20]
 5187 00c0 3A68     		ldr	r2, [r7]
 5188 00c2 D218     		adds	r2, r2, r3
 5189 00c4 1123     		movs	r3, #17
 5190 00c6 FB18     		adds	r3, r7, r3
 5191 00c8 1278     		ldrb	r2, [r2]
 5192 00ca 1A70     		strb	r2, [r3]
1388:Api\core\src/vl53l0x_api_core.c **** 				Index++;
 5193              		.loc 1 1388 0
 5194 00cc 7B69     		ldr	r3, [r7, #20]
 5195 00ce 0133     		adds	r3, r3, #1
 5196 00d0 7B61     		str	r3, [r7, #20]
1389:Api\core\src/vl53l0x_api_core.c **** 				lsb = *(pTuningSettingBuffer + Index);
 5197              		.loc 1 1389 0
 5198 00d2 7B69     		ldr	r3, [r7, #20]
 5199 00d4 3A68     		ldr	r2, [r7]
 5200 00d6 D218     		adds	r2, r2, r3
 5201 00d8 1023     		movs	r3, #16
 5202 00da FB18     		adds	r3, r7, r3
 5203 00dc 1278     		ldrb	r2, [r2]
 5204 00de 1A70     		strb	r2, [r3]
1390:Api\core\src/vl53l0x_api_core.c **** 				Index++;
 5205              		.loc 1 1390 0
 5206 00e0 7B69     		ldr	r3, [r7, #20]
 5207 00e2 0133     		adds	r3, r3, #1
 5208 00e4 7B61     		str	r3, [r7, #20]
1391:Api\core\src/vl53l0x_api_core.c **** 				Temp16 = VL53L0X_MAKEUINT16(lsb, msb);
 5209              		.loc 1 1391 0
 5210 00e6 1123     		movs	r3, #17
 5211 00e8 FB18     		adds	r3, r7, r3
 5212 00ea 1B78     		ldrb	r3, [r3]
 5213 00ec 9BB2     		uxth	r3, r3
 5214 00ee 1B02     		lsls	r3, r3, #8
 5215 00f0 99B2     		uxth	r1, r3
 5216 00f2 1023     		movs	r3, #16
 5217 00f4 FB18     		adds	r3, r7, r3
 5218 00f6 1B78     		ldrb	r3, [r3]
 5219 00f8 9AB2     		uxth	r2, r3
 5220 00fa 0E23     		movs	r3, #14
 5221 00fc FB18     		adds	r3, r7, r3
 5222 00fe 8A18     		adds	r2, r1, r2
 5223 0100 1A80     		strh	r2, [r3]
1392:Api\core\src/vl53l0x_api_core.c **** 				PALDevDataSet(Dev, SigmaEstEffPulseWidth,
 5224              		.loc 1 1392 0
 5225 0102 7A68     		ldr	r2, [r7, #4]
 5226 0104 0E23     		movs	r3, #14
 5227 0106 F918     		adds	r1, r7, r3
 5228 0108 9B23     		movs	r3, #155
 5229 010a 5B00     		lsls	r3, r3, #1
 5230 010c 0988     		ldrh	r1, [r1]
ARM GAS  C:\Users\ilya\AppData\Local\Temp\ccAjPEqD.s 			page 118


 5231 010e D152     		strh	r1, [r2, r3]
1393:Api\core\src/vl53l0x_api_core.c **** 					Temp16);
1394:Api\core\src/vl53l0x_api_core.c **** 				break;
 5232              		.loc 1 1394 0
 5233 0110 95E0     		b	.L173
 5234              	.L179:
1395:Api\core\src/vl53l0x_api_core.c **** 			case 2: /* uint16_t SigmaEstEffAmbWidth -> 2 bytes */
1396:Api\core\src/vl53l0x_api_core.c **** 				msb = *(pTuningSettingBuffer + Index);
 5235              		.loc 1 1396 0
 5236 0112 7B69     		ldr	r3, [r7, #20]
 5237 0114 3A68     		ldr	r2, [r7]
 5238 0116 D218     		adds	r2, r2, r3
 5239 0118 1123     		movs	r3, #17
 5240 011a FB18     		adds	r3, r7, r3
 5241 011c 1278     		ldrb	r2, [r2]
 5242 011e 1A70     		strb	r2, [r3]
1397:Api\core\src/vl53l0x_api_core.c **** 				Index++;
 5243              		.loc 1 1397 0
 5244 0120 7B69     		ldr	r3, [r7, #20]
 5245 0122 0133     		adds	r3, r3, #1
 5246 0124 7B61     		str	r3, [r7, #20]
1398:Api\core\src/vl53l0x_api_core.c **** 				lsb = *(pTuningSettingBuffer + Index);
 5247              		.loc 1 1398 0
 5248 0126 7B69     		ldr	r3, [r7, #20]
 5249 0128 3A68     		ldr	r2, [r7]
 5250 012a D218     		adds	r2, r2, r3
 5251 012c 1023     		movs	r3, #16
 5252 012e FB18     		adds	r3, r7, r3
 5253 0130 1278     		ldrb	r2, [r2]
 5254 0132 1A70     		strb	r2, [r3]
1399:Api\core\src/vl53l0x_api_core.c **** 				Index++;
 5255              		.loc 1 1399 0
 5256 0134 7B69     		ldr	r3, [r7, #20]
 5257 0136 0133     		adds	r3, r3, #1
 5258 0138 7B61     		str	r3, [r7, #20]
1400:Api\core\src/vl53l0x_api_core.c **** 				Temp16 = VL53L0X_MAKEUINT16(lsb, msb);
 5259              		.loc 1 1400 0
 5260 013a 1123     		movs	r3, #17
 5261 013c FB18     		adds	r3, r7, r3
 5262 013e 1B78     		ldrb	r3, [r3]
 5263 0140 9BB2     		uxth	r3, r3
 5264 0142 1B02     		lsls	r3, r3, #8
 5265 0144 99B2     		uxth	r1, r3
 5266 0146 1023     		movs	r3, #16
 5267 0148 FB18     		adds	r3, r7, r3
 5268 014a 1B78     		ldrb	r3, [r3]
 5269 014c 9AB2     		uxth	r2, r3
 5270 014e 0E23     		movs	r3, #14
 5271 0150 FB18     		adds	r3, r7, r3
 5272 0152 8A18     		adds	r2, r1, r2
 5273 0154 1A80     		strh	r2, [r3]
1401:Api\core\src/vl53l0x_api_core.c **** 				PALDevDataSet(Dev, SigmaEstEffAmbWidth, Temp16);
 5274              		.loc 1 1401 0
 5275 0156 7A68     		ldr	r2, [r7, #4]
 5276 0158 0E23     		movs	r3, #14
 5277 015a F918     		adds	r1, r7, r3
 5278 015c 9C23     		movs	r3, #156
ARM GAS  C:\Users\ilya\AppData\Local\Temp\ccAjPEqD.s 			page 119


 5279 015e 5B00     		lsls	r3, r3, #1
 5280 0160 0988     		ldrh	r1, [r1]
 5281 0162 D152     		strh	r1, [r2, r3]
1402:Api\core\src/vl53l0x_api_core.c **** 				break;
 5282              		.loc 1 1402 0
 5283 0164 6BE0     		b	.L173
 5284              	.L180:
1403:Api\core\src/vl53l0x_api_core.c **** 			case 3: /* uint16_t targetRefRate -> 2 bytes */
1404:Api\core\src/vl53l0x_api_core.c **** 				msb = *(pTuningSettingBuffer + Index);
 5285              		.loc 1 1404 0
 5286 0166 7B69     		ldr	r3, [r7, #20]
 5287 0168 3A68     		ldr	r2, [r7]
 5288 016a D218     		adds	r2, r2, r3
 5289 016c 1123     		movs	r3, #17
 5290 016e FB18     		adds	r3, r7, r3
 5291 0170 1278     		ldrb	r2, [r2]
 5292 0172 1A70     		strb	r2, [r3]
1405:Api\core\src/vl53l0x_api_core.c **** 				Index++;
 5293              		.loc 1 1405 0
 5294 0174 7B69     		ldr	r3, [r7, #20]
 5295 0176 0133     		adds	r3, r3, #1
 5296 0178 7B61     		str	r3, [r7, #20]
1406:Api\core\src/vl53l0x_api_core.c **** 				lsb = *(pTuningSettingBuffer + Index);
 5297              		.loc 1 1406 0
 5298 017a 7B69     		ldr	r3, [r7, #20]
 5299 017c 3A68     		ldr	r2, [r7]
 5300 017e D218     		adds	r2, r2, r3
 5301 0180 1023     		movs	r3, #16
 5302 0182 FB18     		adds	r3, r7, r3
 5303 0184 1278     		ldrb	r2, [r2]
 5304 0186 1A70     		strb	r2, [r3]
1407:Api\core\src/vl53l0x_api_core.c **** 				Index++;
 5305              		.loc 1 1407 0
 5306 0188 7B69     		ldr	r3, [r7, #20]
 5307 018a 0133     		adds	r3, r3, #1
 5308 018c 7B61     		str	r3, [r7, #20]
1408:Api\core\src/vl53l0x_api_core.c **** 				Temp16 = VL53L0X_MAKEUINT16(lsb, msb);
 5309              		.loc 1 1408 0
 5310 018e 1123     		movs	r3, #17
 5311 0190 FB18     		adds	r3, r7, r3
 5312 0192 1B78     		ldrb	r3, [r3]
 5313 0194 9BB2     		uxth	r3, r3
 5314 0196 1B02     		lsls	r3, r3, #8
 5315 0198 99B2     		uxth	r1, r3
 5316 019a 1023     		movs	r3, #16
 5317 019c FB18     		adds	r3, r7, r3
 5318 019e 1B78     		ldrb	r3, [r3]
 5319 01a0 9AB2     		uxth	r2, r3
 5320 01a2 0E23     		movs	r3, #14
 5321 01a4 FB18     		adds	r3, r7, r3
 5322 01a6 8A18     		adds	r2, r1, r2
 5323 01a8 1A80     		strh	r2, [r3]
1409:Api\core\src/vl53l0x_api_core.c **** 				PALDevDataSet(Dev, targetRefRate, Temp16);
 5324              		.loc 1 1409 0
 5325 01aa 7A68     		ldr	r2, [r7, #4]
 5326 01ac 0E23     		movs	r3, #14
 5327 01ae F918     		adds	r1, r7, r3
ARM GAS  C:\Users\ilya\AppData\Local\Temp\ccAjPEqD.s 			page 120


 5328 01b0 9E23     		movs	r3, #158
 5329 01b2 5B00     		lsls	r3, r3, #1
 5330 01b4 0988     		ldrh	r1, [r1]
 5331 01b6 D152     		strh	r1, [r2, r3]
1410:Api\core\src/vl53l0x_api_core.c **** 				break;
 5332              		.loc 1 1410 0
 5333 01b8 41E0     		b	.L173
 5334              	.L175:
1411:Api\core\src/vl53l0x_api_core.c **** 			default: /* invalid parameter */
1412:Api\core\src/vl53l0x_api_core.c **** 				Status = VL53L0X_ERROR_INVALID_PARAMS;
 5335              		.loc 1 1412 0
 5336 01ba 1F23     		movs	r3, #31
 5337 01bc FB18     		adds	r3, r7, r3
 5338 01be FC22     		movs	r2, #252
 5339 01c0 1A70     		strb	r2, [r3]
 5340 01c2 3CE0     		b	.L173
 5341              	.L174:
1413:Api\core\src/vl53l0x_api_core.c **** 			}
1414:Api\core\src/vl53l0x_api_core.c **** 
1415:Api\core\src/vl53l0x_api_core.c **** 		} else if (NumberOfWrites <= 4) {
 5342              		.loc 1 1415 0
 5343 01c4 1323     		movs	r3, #19
 5344 01c6 FB18     		adds	r3, r7, r3
 5345 01c8 1B78     		ldrb	r3, [r3]
 5346 01ca 042B     		cmp	r3, #4
 5347 01cc 33D8     		bhi	.L182
1416:Api\core\src/vl53l0x_api_core.c **** 			Address = *(pTuningSettingBuffer + Index);
 5348              		.loc 1 1416 0
 5349 01ce 7B69     		ldr	r3, [r7, #20]
 5350 01d0 3A68     		ldr	r2, [r7]
 5351 01d2 D218     		adds	r2, r2, r3
 5352 01d4 0D23     		movs	r3, #13
 5353 01d6 FB18     		adds	r3, r7, r3
 5354 01d8 1278     		ldrb	r2, [r2]
 5355 01da 1A70     		strb	r2, [r3]
1417:Api\core\src/vl53l0x_api_core.c **** 			Index++;
 5356              		.loc 1 1417 0
 5357 01dc 7B69     		ldr	r3, [r7, #20]
 5358 01de 0133     		adds	r3, r3, #1
 5359 01e0 7B61     		str	r3, [r7, #20]
1418:Api\core\src/vl53l0x_api_core.c **** 
1419:Api\core\src/vl53l0x_api_core.c **** 			for (i = 0; i < NumberOfWrites; i++) {
 5360              		.loc 1 1419 0
 5361 01e2 0023     		movs	r3, #0
 5362 01e4 BB61     		str	r3, [r7, #24]
 5363 01e6 0FE0     		b	.L183
 5364              	.L184:
1420:Api\core\src/vl53l0x_api_core.c **** 				localBuffer[i] = *(pTuningSettingBuffer +
 5365              		.loc 1 1420 0 discriminator 3
 5366 01e8 7B69     		ldr	r3, [r7, #20]
 5367 01ea 3A68     		ldr	r2, [r7]
 5368 01ec D318     		adds	r3, r2, r3
 5369 01ee 1978     		ldrb	r1, [r3]
 5370 01f0 0823     		movs	r3, #8
 5371 01f2 FA18     		adds	r2, r7, r3
 5372 01f4 BB69     		ldr	r3, [r7, #24]
 5373 01f6 D318     		adds	r3, r2, r3
ARM GAS  C:\Users\ilya\AppData\Local\Temp\ccAjPEqD.s 			page 121


 5374 01f8 0A1C     		adds	r2, r1, #0
 5375 01fa 1A70     		strb	r2, [r3]
1421:Api\core\src/vl53l0x_api_core.c **** 							Index);
1422:Api\core\src/vl53l0x_api_core.c **** 				Index++;
 5376              		.loc 1 1422 0 discriminator 3
 5377 01fc 7B69     		ldr	r3, [r7, #20]
 5378 01fe 0133     		adds	r3, r3, #1
 5379 0200 7B61     		str	r3, [r7, #20]
1419:Api\core\src/vl53l0x_api_core.c **** 				localBuffer[i] = *(pTuningSettingBuffer +
 5380              		.loc 1 1419 0 discriminator 3
 5381 0202 BB69     		ldr	r3, [r7, #24]
 5382 0204 0133     		adds	r3, r3, #1
 5383 0206 BB61     		str	r3, [r7, #24]
 5384              	.L183:
1419:Api\core\src/vl53l0x_api_core.c **** 				localBuffer[i] = *(pTuningSettingBuffer +
 5385              		.loc 1 1419 0 is_stmt 0 discriminator 1
 5386 0208 1323     		movs	r3, #19
 5387 020a FB18     		adds	r3, r7, r3
 5388 020c 1A78     		ldrb	r2, [r3]
 5389 020e BB69     		ldr	r3, [r7, #24]
 5390 0210 9A42     		cmp	r2, r3
 5391 0212 E9DC     		bgt	.L184
1423:Api\core\src/vl53l0x_api_core.c **** 			}
1424:Api\core\src/vl53l0x_api_core.c **** 
1425:Api\core\src/vl53l0x_api_core.c **** 			Status = VL53L0X_WriteMulti(Dev, Address, localBuffer,
 5392              		.loc 1 1425 0 is_stmt 1
 5393 0214 1323     		movs	r3, #19
 5394 0216 FB18     		adds	r3, r7, r3
 5395 0218 1D78     		ldrb	r5, [r3]
 5396 021a 1F23     		movs	r3, #31
 5397 021c FC18     		adds	r4, r7, r3
 5398 021e 0823     		movs	r3, #8
 5399 0220 FA18     		adds	r2, r7, r3
 5400 0222 0D23     		movs	r3, #13
 5401 0224 FB18     		adds	r3, r7, r3
 5402 0226 1978     		ldrb	r1, [r3]
 5403 0228 7868     		ldr	r0, [r7, #4]
 5404 022a 2B00     		movs	r3, r5
 5405 022c FFF7FEFF 		bl	VL53L0X_WriteMulti
 5406 0230 0300     		movs	r3, r0
 5407 0232 2370     		strb	r3, [r4]
 5408 0234 03E0     		b	.L173
 5409              	.L182:
1426:Api\core\src/vl53l0x_api_core.c **** 					NumberOfWrites);
1427:Api\core\src/vl53l0x_api_core.c **** 
1428:Api\core\src/vl53l0x_api_core.c **** 		} else {
1429:Api\core\src/vl53l0x_api_core.c **** 			Status = VL53L0X_ERROR_INVALID_PARAMS;
 5410              		.loc 1 1429 0
 5411 0236 1F23     		movs	r3, #31
 5412 0238 FB18     		adds	r3, r7, r3
 5413 023a FC22     		movs	r2, #252
 5414 023c 1A70     		strb	r2, [r3]
 5415              	.L173:
1369:Api\core\src/vl53l0x_api_core.c **** 			(Status == VL53L0X_ERROR_NONE)) {
 5416              		.loc 1 1369 0
 5417 023e 7B69     		ldr	r3, [r7, #20]
 5418 0240 3A68     		ldr	r2, [r7]
ARM GAS  C:\Users\ilya\AppData\Local\Temp\ccAjPEqD.s 			page 122


 5419 0242 D318     		adds	r3, r2, r3
 5420 0244 1B78     		ldrb	r3, [r3]
 5421 0246 002B     		cmp	r3, #0
 5422 0248 06D0     		beq	.L185
1369:Api\core\src/vl53l0x_api_core.c **** 			(Status == VL53L0X_ERROR_NONE)) {
 5423              		.loc 1 1369 0 is_stmt 0 discriminator 1
 5424 024a 1F23     		movs	r3, #31
 5425 024c FB18     		adds	r3, r7, r3
 5426 024e 1B78     		ldrb	r3, [r3]
 5427 0250 5BB2     		sxtb	r3, r3
 5428 0252 002B     		cmp	r3, #0
 5429 0254 00D1     		bne	.LCB4846
 5430 0256 DFE6     		b	.L186	@long jump
 5431              	.LCB4846:
 5432              	.L185:
1430:Api\core\src/vl53l0x_api_core.c **** 		}
1431:Api\core\src/vl53l0x_api_core.c **** 	}
1432:Api\core\src/vl53l0x_api_core.c **** 
1433:Api\core\src/vl53l0x_api_core.c **** 	LOG_FUNCTION_END(Status);
1434:Api\core\src/vl53l0x_api_core.c **** 	return Status;
 5433              		.loc 1 1434 0 is_stmt 1
 5434 0258 1F23     		movs	r3, #31
 5435 025a FB18     		adds	r3, r7, r3
 5436 025c 1B78     		ldrb	r3, [r3]
 5437 025e 5BB2     		sxtb	r3, r3
1435:Api\core\src/vl53l0x_api_core.c **** }
 5438              		.loc 1 1435 0
 5439 0260 1800     		movs	r0, r3
 5440 0262 BD46     		mov	sp, r7
 5441 0264 08B0     		add	sp, sp, #32
 5442              		@ sp needed
 5443 0266 B0BD     		pop	{r4, r5, r7, pc}
 5444              		.cfi_endproc
 5445              	.LFE20:
 5446              		.size	VL53L0X_load_tuning_settings, .-VL53L0X_load_tuning_settings
 5447              		.section	.text.VL53L0X_get_total_xtalk_rate,"ax",%progbits
 5448              		.align	2
 5449              		.global	VL53L0X_get_total_xtalk_rate
 5450              		.code	16
 5451              		.thumb_func
 5452              		.type	VL53L0X_get_total_xtalk_rate, %function
 5453              	VL53L0X_get_total_xtalk_rate:
 5454              	.LFB21:
1436:Api\core\src/vl53l0x_api_core.c **** 
1437:Api\core\src/vl53l0x_api_core.c **** VL53L0X_Error VL53L0X_get_total_xtalk_rate(VL53L0X_DEV Dev,
1438:Api\core\src/vl53l0x_api_core.c **** 	VL53L0X_RangingMeasurementData_t *pRangingMeasurementData,
1439:Api\core\src/vl53l0x_api_core.c **** 	FixPoint1616_t *ptotal_xtalk_rate_mcps)
1440:Api\core\src/vl53l0x_api_core.c **** {
 5455              		.loc 1 1440 0
 5456              		.cfi_startproc
 5457              		@ args = 0, pretend = 0, frame = 32
 5458              		@ frame_needed = 1, uses_anonymous_args = 0
 5459 0000 90B5     		push	{r4, r7, lr}
 5460              		.cfi_def_cfa_offset 12
 5461              		.cfi_offset 4, -12
 5462              		.cfi_offset 7, -8
 5463              		.cfi_offset 14, -4
ARM GAS  C:\Users\ilya\AppData\Local\Temp\ccAjPEqD.s 			page 123


 5464 0002 89B0     		sub	sp, sp, #36
 5465              		.cfi_def_cfa_offset 48
 5466 0004 00AF     		add	r7, sp, #0
 5467              		.cfi_def_cfa_register 7
 5468 0006 F860     		str	r0, [r7, #12]
 5469 0008 B960     		str	r1, [r7, #8]
 5470 000a 7A60     		str	r2, [r7, #4]
1441:Api\core\src/vl53l0x_api_core.c **** 	VL53L0X_Error Status = VL53L0X_ERROR_NONE;
 5471              		.loc 1 1441 0
 5472 000c 1F23     		movs	r3, #31
 5473 000e FB18     		adds	r3, r7, r3
 5474 0010 0022     		movs	r2, #0
 5475 0012 1A70     		strb	r2, [r3]
1442:Api\core\src/vl53l0x_api_core.c **** 
1443:Api\core\src/vl53l0x_api_core.c **** 	uint8_t xtalkCompEnable;
1444:Api\core\src/vl53l0x_api_core.c **** 	FixPoint1616_t totalXtalkMegaCps;
1445:Api\core\src/vl53l0x_api_core.c **** 	FixPoint1616_t xtalkPerSpadMegaCps;
1446:Api\core\src/vl53l0x_api_core.c **** 
1447:Api\core\src/vl53l0x_api_core.c **** 	*ptotal_xtalk_rate_mcps = 0;
 5476              		.loc 1 1447 0
 5477 0014 7B68     		ldr	r3, [r7, #4]
 5478 0016 0022     		movs	r2, #0
 5479 0018 1A60     		str	r2, [r3]
1448:Api\core\src/vl53l0x_api_core.c **** 
1449:Api\core\src/vl53l0x_api_core.c **** 	Status = VL53L0X_GetXTalkCompensationEnable(Dev, &xtalkCompEnable);
 5480              		.loc 1 1449 0
 5481 001a 1F23     		movs	r3, #31
 5482 001c FC18     		adds	r4, r7, r3
 5483 001e 1323     		movs	r3, #19
 5484 0020 FA18     		adds	r2, r7, r3
 5485 0022 FB68     		ldr	r3, [r7, #12]
 5486 0024 1100     		movs	r1, r2
 5487 0026 1800     		movs	r0, r3
 5488 0028 FFF7FEFF 		bl	VL53L0X_GetXTalkCompensationEnable
 5489 002c 0300     		movs	r3, r0
 5490 002e 2370     		strb	r3, [r4]
1450:Api\core\src/vl53l0x_api_core.c **** 	if (Status == VL53L0X_ERROR_NONE) {
 5491              		.loc 1 1450 0
 5492 0030 1F23     		movs	r3, #31
 5493 0032 FB18     		adds	r3, r7, r3
 5494 0034 1B78     		ldrb	r3, [r3]
 5495 0036 5BB2     		sxtb	r3, r3
 5496 0038 002B     		cmp	r3, #0
 5497 003a 12D1     		bne	.L189
1451:Api\core\src/vl53l0x_api_core.c **** 
1452:Api\core\src/vl53l0x_api_core.c **** 		if (xtalkCompEnable) {
 5498              		.loc 1 1452 0
 5499 003c 1323     		movs	r3, #19
 5500 003e FB18     		adds	r3, r7, r3
 5501 0040 1B78     		ldrb	r3, [r3]
 5502 0042 002B     		cmp	r3, #0
 5503 0044 0DD0     		beq	.L189
1453:Api\core\src/vl53l0x_api_core.c **** 
1454:Api\core\src/vl53l0x_api_core.c **** 			VL53L0X_GETPARAMETERFIELD(
 5504              		.loc 1 1454 0
 5505 0046 FB68     		ldr	r3, [r7, #12]
 5506 0048 1B6A     		ldr	r3, [r3, #32]
ARM GAS  C:\Users\ilya\AppData\Local\Temp\ccAjPEqD.s 			page 124


 5507 004a BB61     		str	r3, [r7, #24]
1455:Api\core\src/vl53l0x_api_core.c **** 				Dev,
1456:Api\core\src/vl53l0x_api_core.c **** 				XTalkCompensationRateMegaCps,
1457:Api\core\src/vl53l0x_api_core.c **** 				xtalkPerSpadMegaCps);
1458:Api\core\src/vl53l0x_api_core.c **** 
1459:Api\core\src/vl53l0x_api_core.c **** 			/* FixPoint1616 * FixPoint 8:8 = FixPoint0824 */
1460:Api\core\src/vl53l0x_api_core.c **** 			totalXtalkMegaCps =
1461:Api\core\src/vl53l0x_api_core.c **** 				pRangingMeasurementData->EffectiveSpadRtnCount *
 5508              		.loc 1 1461 0
 5509 004c BB68     		ldr	r3, [r7, #8]
 5510 004e 9B8A     		ldrh	r3, [r3, #20]
 5511 0050 1A00     		movs	r2, r3
1460:Api\core\src/vl53l0x_api_core.c **** 				pRangingMeasurementData->EffectiveSpadRtnCount *
 5512              		.loc 1 1460 0
 5513 0052 BB69     		ldr	r3, [r7, #24]
 5514 0054 5343     		muls	r3, r2
 5515 0056 7B61     		str	r3, [r7, #20]
1462:Api\core\src/vl53l0x_api_core.c **** 				xtalkPerSpadMegaCps;
1463:Api\core\src/vl53l0x_api_core.c **** 
1464:Api\core\src/vl53l0x_api_core.c **** 			/* FixPoint0824 >> 8 = FixPoint1616 */
1465:Api\core\src/vl53l0x_api_core.c **** 			*ptotal_xtalk_rate_mcps =
1466:Api\core\src/vl53l0x_api_core.c **** 				(totalXtalkMegaCps + 0x80) >> 8;
 5516              		.loc 1 1466 0
 5517 0058 7B69     		ldr	r3, [r7, #20]
 5518 005a 8033     		adds	r3, r3, #128
 5519 005c 1A0A     		lsrs	r2, r3, #8
1465:Api\core\src/vl53l0x_api_core.c **** 				(totalXtalkMegaCps + 0x80) >> 8;
 5520              		.loc 1 1465 0
 5521 005e 7B68     		ldr	r3, [r7, #4]
 5522 0060 1A60     		str	r2, [r3]
 5523              	.L189:
1467:Api\core\src/vl53l0x_api_core.c **** 		}
1468:Api\core\src/vl53l0x_api_core.c **** 	}
1469:Api\core\src/vl53l0x_api_core.c **** 
1470:Api\core\src/vl53l0x_api_core.c **** 	return Status;
 5524              		.loc 1 1470 0
 5525 0062 1F23     		movs	r3, #31
 5526 0064 FB18     		adds	r3, r7, r3
 5527 0066 1B78     		ldrb	r3, [r3]
 5528 0068 5BB2     		sxtb	r3, r3
1471:Api\core\src/vl53l0x_api_core.c **** }
 5529              		.loc 1 1471 0
 5530 006a 1800     		movs	r0, r3
 5531 006c BD46     		mov	sp, r7
 5532 006e 09B0     		add	sp, sp, #36
 5533              		@ sp needed
 5534 0070 90BD     		pop	{r4, r7, pc}
 5535              		.cfi_endproc
 5536              	.LFE21:
 5537              		.size	VL53L0X_get_total_xtalk_rate, .-VL53L0X_get_total_xtalk_rate
 5538 0072 C046     		.section	.text.VL53L0X_get_total_signal_rate,"ax",%progbits
 5539              		.align	2
 5540              		.global	VL53L0X_get_total_signal_rate
 5541              		.code	16
 5542              		.thumb_func
 5543              		.type	VL53L0X_get_total_signal_rate, %function
 5544              	VL53L0X_get_total_signal_rate:
ARM GAS  C:\Users\ilya\AppData\Local\Temp\ccAjPEqD.s 			page 125


 5545              	.LFB22:
1472:Api\core\src/vl53l0x_api_core.c **** 
1473:Api\core\src/vl53l0x_api_core.c **** VL53L0X_Error VL53L0X_get_total_signal_rate(VL53L0X_DEV Dev,
1474:Api\core\src/vl53l0x_api_core.c **** 	VL53L0X_RangingMeasurementData_t *pRangingMeasurementData,
1475:Api\core\src/vl53l0x_api_core.c **** 	FixPoint1616_t *ptotal_signal_rate_mcps)
1476:Api\core\src/vl53l0x_api_core.c **** {
 5546              		.loc 1 1476 0
 5547              		.cfi_startproc
 5548              		@ args = 0, pretend = 0, frame = 24
 5549              		@ frame_needed = 1, uses_anonymous_args = 0
 5550 0000 90B5     		push	{r4, r7, lr}
 5551              		.cfi_def_cfa_offset 12
 5552              		.cfi_offset 4, -12
 5553              		.cfi_offset 7, -8
 5554              		.cfi_offset 14, -4
 5555 0002 87B0     		sub	sp, sp, #28
 5556              		.cfi_def_cfa_offset 40
 5557 0004 00AF     		add	r7, sp, #0
 5558              		.cfi_def_cfa_register 7
 5559 0006 F860     		str	r0, [r7, #12]
 5560 0008 B960     		str	r1, [r7, #8]
 5561 000a 7A60     		str	r2, [r7, #4]
1477:Api\core\src/vl53l0x_api_core.c **** 	VL53L0X_Error Status = VL53L0X_ERROR_NONE;
 5562              		.loc 1 1477 0
 5563 000c 1723     		movs	r3, #23
 5564 000e FB18     		adds	r3, r7, r3
 5565 0010 0022     		movs	r2, #0
 5566 0012 1A70     		strb	r2, [r3]
1478:Api\core\src/vl53l0x_api_core.c **** 	FixPoint1616_t totalXtalkMegaCps;
1479:Api\core\src/vl53l0x_api_core.c **** 
1480:Api\core\src/vl53l0x_api_core.c **** 	LOG_FUNCTION_START("");
1481:Api\core\src/vl53l0x_api_core.c **** 
1482:Api\core\src/vl53l0x_api_core.c **** 	*ptotal_signal_rate_mcps =
1483:Api\core\src/vl53l0x_api_core.c **** 		pRangingMeasurementData->SignalRateRtnMegaCps;
 5567              		.loc 1 1483 0
 5568 0014 BB68     		ldr	r3, [r7, #8]
 5569 0016 DA68     		ldr	r2, [r3, #12]
1482:Api\core\src/vl53l0x_api_core.c **** 		pRangingMeasurementData->SignalRateRtnMegaCps;
 5570              		.loc 1 1482 0
 5571 0018 7B68     		ldr	r3, [r7, #4]
 5572 001a 1A60     		str	r2, [r3]
1484:Api\core\src/vl53l0x_api_core.c **** 
1485:Api\core\src/vl53l0x_api_core.c **** 	Status = VL53L0X_get_total_xtalk_rate(
 5573              		.loc 1 1485 0
 5574 001c 1723     		movs	r3, #23
 5575 001e FC18     		adds	r4, r7, r3
 5576 0020 1023     		movs	r3, #16
 5577 0022 FA18     		adds	r2, r7, r3
 5578 0024 B968     		ldr	r1, [r7, #8]
 5579 0026 FB68     		ldr	r3, [r7, #12]
 5580 0028 1800     		movs	r0, r3
 5581 002a FFF7FEFF 		bl	VL53L0X_get_total_xtalk_rate
 5582 002e 0300     		movs	r3, r0
 5583 0030 2370     		strb	r3, [r4]
1486:Api\core\src/vl53l0x_api_core.c **** 		Dev, pRangingMeasurementData, &totalXtalkMegaCps);
1487:Api\core\src/vl53l0x_api_core.c **** 
1488:Api\core\src/vl53l0x_api_core.c **** 	if (Status == VL53L0X_ERROR_NONE)
ARM GAS  C:\Users\ilya\AppData\Local\Temp\ccAjPEqD.s 			page 126


 5584              		.loc 1 1488 0
 5585 0032 1723     		movs	r3, #23
 5586 0034 FB18     		adds	r3, r7, r3
 5587 0036 1B78     		ldrb	r3, [r3]
 5588 0038 5BB2     		sxtb	r3, r3
 5589 003a 002B     		cmp	r3, #0
 5590 003c 05D1     		bne	.L192
1489:Api\core\src/vl53l0x_api_core.c **** 		*ptotal_signal_rate_mcps += totalXtalkMegaCps;
 5591              		.loc 1 1489 0
 5592 003e 7B68     		ldr	r3, [r7, #4]
 5593 0040 1A68     		ldr	r2, [r3]
 5594 0042 3B69     		ldr	r3, [r7, #16]
 5595 0044 D218     		adds	r2, r2, r3
 5596 0046 7B68     		ldr	r3, [r7, #4]
 5597 0048 1A60     		str	r2, [r3]
 5598              	.L192:
1490:Api\core\src/vl53l0x_api_core.c **** 
1491:Api\core\src/vl53l0x_api_core.c **** 	return Status;
 5599              		.loc 1 1491 0
 5600 004a 1723     		movs	r3, #23
 5601 004c FB18     		adds	r3, r7, r3
 5602 004e 1B78     		ldrb	r3, [r3]
 5603 0050 5BB2     		sxtb	r3, r3
1492:Api\core\src/vl53l0x_api_core.c **** }
 5604              		.loc 1 1492 0
 5605 0052 1800     		movs	r0, r3
 5606 0054 BD46     		mov	sp, r7
 5607 0056 07B0     		add	sp, sp, #28
 5608              		@ sp needed
 5609 0058 90BD     		pop	{r4, r7, pc}
 5610              		.cfi_endproc
 5611              	.LFE22:
 5612              		.size	VL53L0X_get_total_signal_rate, .-VL53L0X_get_total_signal_rate
 5613 005a C046     		.section	.text.VL53L0X_calc_dmax,"ax",%progbits
 5614              		.align	2
 5615              		.global	VL53L0X_calc_dmax
 5616              		.code	16
 5617              		.thumb_func
 5618              		.type	VL53L0X_calc_dmax, %function
 5619              	VL53L0X_calc_dmax:
 5620              	.LFB23:
1493:Api\core\src/vl53l0x_api_core.c **** 
1494:Api\core\src/vl53l0x_api_core.c **** VL53L0X_Error VL53L0X_calc_dmax(
1495:Api\core\src/vl53l0x_api_core.c **** 	VL53L0X_DEV Dev,
1496:Api\core\src/vl53l0x_api_core.c **** 	FixPoint1616_t totalSignalRate_mcps,
1497:Api\core\src/vl53l0x_api_core.c **** 	FixPoint1616_t totalCorrSignalRate_mcps,
1498:Api\core\src/vl53l0x_api_core.c **** 	FixPoint1616_t pwMult,
1499:Api\core\src/vl53l0x_api_core.c **** 	uint32_t sigmaEstimateP1,
1500:Api\core\src/vl53l0x_api_core.c **** 	FixPoint1616_t sigmaEstimateP2,
1501:Api\core\src/vl53l0x_api_core.c **** 	uint32_t peakVcselDuration_us,
1502:Api\core\src/vl53l0x_api_core.c **** 	uint32_t *pdmax_mm)
1503:Api\core\src/vl53l0x_api_core.c **** {
 5621              		.loc 1 1503 0
 5622              		.cfi_startproc
 5623              		@ args = 16, pretend = 0, frame = 104
 5624              		@ frame_needed = 1, uses_anonymous_args = 0
 5625 0000 80B5     		push	{r7, lr}
ARM GAS  C:\Users\ilya\AppData\Local\Temp\ccAjPEqD.s 			page 127


 5626              		.cfi_def_cfa_offset 8
 5627              		.cfi_offset 7, -8
 5628              		.cfi_offset 14, -4
 5629 0002 9AB0     		sub	sp, sp, #104
 5630              		.cfi_def_cfa_offset 112
 5631 0004 00AF     		add	r7, sp, #0
 5632              		.cfi_def_cfa_register 7
 5633 0006 F860     		str	r0, [r7, #12]
 5634 0008 B960     		str	r1, [r7, #8]
 5635 000a 7A60     		str	r2, [r7, #4]
 5636 000c 3B60     		str	r3, [r7]
1504:Api\core\src/vl53l0x_api_core.c **** 	const uint32_t cSigmaLimit		= 18;
 5637              		.loc 1 1504 0
 5638 000e 1223     		movs	r3, #18
 5639 0010 7B65     		str	r3, [r7, #84]
1505:Api\core\src/vl53l0x_api_core.c **** 	const FixPoint1616_t cSignalLimit	= 0x4000; /* 0.25 */
 5640              		.loc 1 1505 0
 5641 0012 8023     		movs	r3, #128
 5642 0014 DB01     		lsls	r3, r3, #7
 5643 0016 3B65     		str	r3, [r7, #80]
1506:Api\core\src/vl53l0x_api_core.c **** 	const FixPoint1616_t cSigmaEstRef	= 0x00000042; /* 0.001 */
 5644              		.loc 1 1506 0
 5645 0018 4223     		movs	r3, #66
 5646 001a FB64     		str	r3, [r7, #76]
1507:Api\core\src/vl53l0x_api_core.c **** 	const uint32_t cAmbEffWidthSigmaEst_ns = 6;
 5647              		.loc 1 1507 0
 5648 001c 0623     		movs	r3, #6
 5649 001e BB64     		str	r3, [r7, #72]
1508:Api\core\src/vl53l0x_api_core.c **** 	const uint32_t cAmbEffWidthDMax_ns	   = 7;
 5650              		.loc 1 1508 0
 5651 0020 0723     		movs	r3, #7
 5652 0022 7B64     		str	r3, [r7, #68]
1509:Api\core\src/vl53l0x_api_core.c **** 	uint32_t dmaxCalRange_mm;
1510:Api\core\src/vl53l0x_api_core.c **** 	FixPoint1616_t dmaxCalSignalRateRtn_mcps;
1511:Api\core\src/vl53l0x_api_core.c **** 	FixPoint1616_t minSignalNeeded;
1512:Api\core\src/vl53l0x_api_core.c **** 	FixPoint1616_t minSignalNeeded_p1;
1513:Api\core\src/vl53l0x_api_core.c **** 	FixPoint1616_t minSignalNeeded_p2;
1514:Api\core\src/vl53l0x_api_core.c **** 	FixPoint1616_t minSignalNeeded_p3;
1515:Api\core\src/vl53l0x_api_core.c **** 	FixPoint1616_t minSignalNeeded_p4;
1516:Api\core\src/vl53l0x_api_core.c **** 	FixPoint1616_t sigmaLimitTmp;
1517:Api\core\src/vl53l0x_api_core.c **** 	FixPoint1616_t sigmaEstSqTmp;
1518:Api\core\src/vl53l0x_api_core.c **** 	FixPoint1616_t signalLimitTmp;
1519:Api\core\src/vl53l0x_api_core.c **** 	FixPoint1616_t SignalAt0mm;
1520:Api\core\src/vl53l0x_api_core.c **** 	FixPoint1616_t dmaxDark;
1521:Api\core\src/vl53l0x_api_core.c **** 	FixPoint1616_t dmaxAmbient;
1522:Api\core\src/vl53l0x_api_core.c **** 	FixPoint1616_t dmaxDarkTmp;
1523:Api\core\src/vl53l0x_api_core.c **** 	FixPoint1616_t sigmaEstP2Tmp;
1524:Api\core\src/vl53l0x_api_core.c **** 	uint32_t signalRateTemp_mcps;
1525:Api\core\src/vl53l0x_api_core.c **** 
1526:Api\core\src/vl53l0x_api_core.c **** 	VL53L0X_Error Status = VL53L0X_ERROR_NONE;
 5653              		.loc 1 1526 0
 5654 0024 4323     		movs	r3, #67
 5655 0026 FB18     		adds	r3, r7, r3
 5656 0028 0022     		movs	r2, #0
 5657 002a 1A70     		strb	r2, [r3]
1527:Api\core\src/vl53l0x_api_core.c **** 
1528:Api\core\src/vl53l0x_api_core.c **** 	LOG_FUNCTION_START("");
ARM GAS  C:\Users\ilya\AppData\Local\Temp\ccAjPEqD.s 			page 128


1529:Api\core\src/vl53l0x_api_core.c **** 
1530:Api\core\src/vl53l0x_api_core.c **** 	dmaxCalRange_mm =
1531:Api\core\src/vl53l0x_api_core.c **** 		PALDevDataGet(Dev, DmaxCalRangeMilliMeter);
 5658              		.loc 1 1531 0
 5659 002c FA68     		ldr	r2, [r7, #12]
 5660 002e AA23     		movs	r3, #170
 5661 0030 5B00     		lsls	r3, r3, #1
 5662 0032 D35A     		ldrh	r3, [r2, r3]
1530:Api\core\src/vl53l0x_api_core.c **** 		PALDevDataGet(Dev, DmaxCalRangeMilliMeter);
 5663              		.loc 1 1530 0
 5664 0034 FB63     		str	r3, [r7, #60]
1532:Api\core\src/vl53l0x_api_core.c **** 
1533:Api\core\src/vl53l0x_api_core.c **** 	dmaxCalSignalRateRtn_mcps =
 5665              		.loc 1 1533 0
 5666 0036 FA68     		ldr	r2, [r7, #12]
 5667 0038 AC23     		movs	r3, #172
 5668 003a 5B00     		lsls	r3, r3, #1
 5669 003c D358     		ldr	r3, [r2, r3]
 5670 003e BB63     		str	r3, [r7, #56]
1534:Api\core\src/vl53l0x_api_core.c **** 		PALDevDataGet(Dev, DmaxCalSignalRateRtnMegaCps);
1535:Api\core\src/vl53l0x_api_core.c **** 
1536:Api\core\src/vl53l0x_api_core.c **** 	/* uint32 * FixPoint1616 = FixPoint1616 */
1537:Api\core\src/vl53l0x_api_core.c **** 	SignalAt0mm = dmaxCalRange_mm * dmaxCalSignalRateRtn_mcps;
 5671              		.loc 1 1537 0
 5672 0040 FB6B     		ldr	r3, [r7, #60]
 5673 0042 BA6B     		ldr	r2, [r7, #56]
 5674 0044 5343     		muls	r3, r2
 5675 0046 7B63     		str	r3, [r7, #52]
1538:Api\core\src/vl53l0x_api_core.c **** 
1539:Api\core\src/vl53l0x_api_core.c **** 	/* FixPoint1616 >> 8 = FixPoint2408 */
1540:Api\core\src/vl53l0x_api_core.c **** 	SignalAt0mm = (SignalAt0mm + 0x80) >> 8;
 5676              		.loc 1 1540 0
 5677 0048 7B6B     		ldr	r3, [r7, #52]
 5678 004a 8033     		adds	r3, r3, #128
 5679 004c 1B0A     		lsrs	r3, r3, #8
 5680 004e 7B63     		str	r3, [r7, #52]
1541:Api\core\src/vl53l0x_api_core.c **** 	SignalAt0mm *= dmaxCalRange_mm;
 5681              		.loc 1 1541 0
 5682 0050 7B6B     		ldr	r3, [r7, #52]
 5683 0052 FA6B     		ldr	r2, [r7, #60]
 5684 0054 5343     		muls	r3, r2
 5685 0056 7B63     		str	r3, [r7, #52]
1542:Api\core\src/vl53l0x_api_core.c **** 
1543:Api\core\src/vl53l0x_api_core.c **** 	minSignalNeeded_p1 = 0;
 5686              		.loc 1 1543 0
 5687 0058 0023     		movs	r3, #0
 5688 005a 7B66     		str	r3, [r7, #100]
1544:Api\core\src/vl53l0x_api_core.c **** 	if (totalCorrSignalRate_mcps > 0) {
 5689              		.loc 1 1544 0
 5690 005c 7B68     		ldr	r3, [r7, #4]
 5691 005e 002B     		cmp	r3, #0
 5692 0060 1DD0     		beq	.L195
1545:Api\core\src/vl53l0x_api_core.c **** 
1546:Api\core\src/vl53l0x_api_core.c **** 		/* Shift by 10 bits to increase resolution prior to the
1547:Api\core\src/vl53l0x_api_core.c **** 		 * division */
1548:Api\core\src/vl53l0x_api_core.c **** 		signalRateTemp_mcps = totalSignalRate_mcps << 10;
 5693              		.loc 1 1548 0
ARM GAS  C:\Users\ilya\AppData\Local\Temp\ccAjPEqD.s 			page 129


 5694 0062 BB68     		ldr	r3, [r7, #8]
 5695 0064 9B02     		lsls	r3, r3, #10
 5696 0066 3B63     		str	r3, [r7, #48]
1549:Api\core\src/vl53l0x_api_core.c **** 
1550:Api\core\src/vl53l0x_api_core.c **** 		/* Add rounding value prior to division */
1551:Api\core\src/vl53l0x_api_core.c **** 		minSignalNeeded_p1 = signalRateTemp_mcps +
1552:Api\core\src/vl53l0x_api_core.c **** 			(totalCorrSignalRate_mcps/2);
 5697              		.loc 1 1552 0
 5698 0068 7B68     		ldr	r3, [r7, #4]
 5699 006a 5A08     		lsrs	r2, r3, #1
1551:Api\core\src/vl53l0x_api_core.c **** 			(totalCorrSignalRate_mcps/2);
 5700              		.loc 1 1551 0
 5701 006c 3B6B     		ldr	r3, [r7, #48]
 5702 006e D318     		adds	r3, r2, r3
 5703 0070 7B66     		str	r3, [r7, #100]
1553:Api\core\src/vl53l0x_api_core.c **** 
1554:Api\core\src/vl53l0x_api_core.c **** 		/* FixPoint0626/FixPoint1616 = FixPoint2210 */
1555:Api\core\src/vl53l0x_api_core.c **** 		minSignalNeeded_p1 /= totalCorrSignalRate_mcps;
 5704              		.loc 1 1555 0
 5705 0072 7968     		ldr	r1, [r7, #4]
 5706 0074 786E     		ldr	r0, [r7, #100]
 5707 0076 FFF7FEFF 		bl	__aeabi_uidiv
 5708 007a 0300     		movs	r3, r0
 5709 007c 7B66     		str	r3, [r7, #100]
1556:Api\core\src/vl53l0x_api_core.c **** 
1557:Api\core\src/vl53l0x_api_core.c **** 		/* Apply a factored version of the speed of light.
1558:Api\core\src/vl53l0x_api_core.c **** 		 Correction to be applied at the end */
1559:Api\core\src/vl53l0x_api_core.c **** 		minSignalNeeded_p1 *= 3;
 5710              		.loc 1 1559 0
 5711 007e 7A6E     		ldr	r2, [r7, #100]
 5712 0080 1300     		movs	r3, r2
 5713 0082 5B00     		lsls	r3, r3, #1
 5714 0084 9B18     		adds	r3, r3, r2
 5715 0086 7B66     		str	r3, [r7, #100]
1560:Api\core\src/vl53l0x_api_core.c **** 
1561:Api\core\src/vl53l0x_api_core.c **** 		/* FixPoint2210 * FixPoint2210 = FixPoint1220 */
1562:Api\core\src/vl53l0x_api_core.c **** 		minSignalNeeded_p1 *= minSignalNeeded_p1;
 5716              		.loc 1 1562 0
 5717 0088 7B6E     		ldr	r3, [r7, #100]
 5718 008a 7A6E     		ldr	r2, [r7, #100]
 5719 008c 5343     		muls	r3, r2
 5720 008e 7B66     		str	r3, [r7, #100]
1563:Api\core\src/vl53l0x_api_core.c **** 
1564:Api\core\src/vl53l0x_api_core.c **** 		/* FixPoint1220 >> 16 = FixPoint2804 */
1565:Api\core\src/vl53l0x_api_core.c **** 		minSignalNeeded_p1 = (minSignalNeeded_p1 + 0x8000) >> 16;
 5721              		.loc 1 1565 0
 5722 0090 7B6E     		ldr	r3, [r7, #100]
 5723 0092 8022     		movs	r2, #128
 5724 0094 1202     		lsls	r2, r2, #8
 5725 0096 9446     		mov	ip, r2
 5726 0098 6344     		add	r3, r3, ip
 5727 009a 1B0C     		lsrs	r3, r3, #16
 5728 009c 7B66     		str	r3, [r7, #100]
 5729              	.L195:
1566:Api\core\src/vl53l0x_api_core.c **** 	}
1567:Api\core\src/vl53l0x_api_core.c **** 
1568:Api\core\src/vl53l0x_api_core.c **** 	minSignalNeeded_p2 = pwMult * sigmaEstimateP1;
ARM GAS  C:\Users\ilya\AppData\Local\Temp\ccAjPEqD.s 			page 130


 5730              		.loc 1 1568 0
 5731 009e 3B68     		ldr	r3, [r7]
 5732 00a0 3A6F     		ldr	r2, [r7, #112]
 5733 00a2 5343     		muls	r3, r2
 5734 00a4 FB62     		str	r3, [r7, #44]
1569:Api\core\src/vl53l0x_api_core.c **** 
1570:Api\core\src/vl53l0x_api_core.c **** 	/* FixPoint1616 >> 16 =	 uint32 */
1571:Api\core\src/vl53l0x_api_core.c **** 	minSignalNeeded_p2 = (minSignalNeeded_p2 + 0x8000) >> 16;
 5735              		.loc 1 1571 0
 5736 00a6 FB6A     		ldr	r3, [r7, #44]
 5737 00a8 8022     		movs	r2, #128
 5738 00aa 1202     		lsls	r2, r2, #8
 5739 00ac 9446     		mov	ip, r2
 5740 00ae 6344     		add	r3, r3, ip
 5741 00b0 1B0C     		lsrs	r3, r3, #16
 5742 00b2 FB62     		str	r3, [r7, #44]
1572:Api\core\src/vl53l0x_api_core.c **** 
1573:Api\core\src/vl53l0x_api_core.c **** 	/* uint32 * uint32	=  uint32 */
1574:Api\core\src/vl53l0x_api_core.c **** 	minSignalNeeded_p2 *= minSignalNeeded_p2;
 5743              		.loc 1 1574 0
 5744 00b4 FB6A     		ldr	r3, [r7, #44]
 5745 00b6 FA6A     		ldr	r2, [r7, #44]
 5746 00b8 5343     		muls	r3, r2
 5747 00ba FB62     		str	r3, [r7, #44]
1575:Api\core\src/vl53l0x_api_core.c **** 
1576:Api\core\src/vl53l0x_api_core.c **** 	/* Check sigmaEstimateP2
1577:Api\core\src/vl53l0x_api_core.c **** 	 * If this value is too high there is not enough signal rate
1578:Api\core\src/vl53l0x_api_core.c **** 	 * to calculate dmax value so set a suitable value to ensure
1579:Api\core\src/vl53l0x_api_core.c **** 	 * a very small dmax.
1580:Api\core\src/vl53l0x_api_core.c **** 	 */
1581:Api\core\src/vl53l0x_api_core.c **** 	sigmaEstP2Tmp = (sigmaEstimateP2 + 0x8000) >> 16;
 5748              		.loc 1 1581 0
 5749 00bc 7B6F     		ldr	r3, [r7, #116]
 5750 00be 8022     		movs	r2, #128
 5751 00c0 1202     		lsls	r2, r2, #8
 5752 00c2 9446     		mov	ip, r2
 5753 00c4 6344     		add	r3, r3, ip
 5754 00c6 1B0C     		lsrs	r3, r3, #16
 5755 00c8 BB62     		str	r3, [r7, #40]
1582:Api\core\src/vl53l0x_api_core.c **** 	sigmaEstP2Tmp = (sigmaEstP2Tmp + cAmbEffWidthSigmaEst_ns/2)/
 5756              		.loc 1 1582 0
 5757 00ca BB6C     		ldr	r3, [r7, #72]
 5758 00cc 5A08     		lsrs	r2, r3, #1
 5759 00ce BB6A     		ldr	r3, [r7, #40]
 5760 00d0 D318     		adds	r3, r2, r3
 5761 00d2 B96C     		ldr	r1, [r7, #72]
 5762 00d4 1800     		movs	r0, r3
 5763 00d6 FFF7FEFF 		bl	__aeabi_uidiv
 5764 00da 0300     		movs	r3, r0
 5765 00dc BB62     		str	r3, [r7, #40]
1583:Api\core\src/vl53l0x_api_core.c **** 		cAmbEffWidthSigmaEst_ns;
1584:Api\core\src/vl53l0x_api_core.c **** 	sigmaEstP2Tmp *= cAmbEffWidthDMax_ns;
 5766              		.loc 1 1584 0
 5767 00de BB6A     		ldr	r3, [r7, #40]
 5768 00e0 7A6C     		ldr	r2, [r7, #68]
 5769 00e2 5343     		muls	r3, r2
 5770 00e4 BB62     		str	r3, [r7, #40]
ARM GAS  C:\Users\ilya\AppData\Local\Temp\ccAjPEqD.s 			page 131


1585:Api\core\src/vl53l0x_api_core.c **** 
1586:Api\core\src/vl53l0x_api_core.c **** 	if (sigmaEstP2Tmp > 0xffff) {
 5771              		.loc 1 1586 0
 5772 00e6 BB6A     		ldr	r3, [r7, #40]
 5773 00e8 614A     		ldr	r2, .L204
 5774 00ea 9342     		cmp	r3, r2
 5775 00ec 02D9     		bls	.L196
1587:Api\core\src/vl53l0x_api_core.c **** 		minSignalNeeded_p3 = 0xfff00000;
 5776              		.loc 1 1587 0
 5777 00ee 614B     		ldr	r3, .L204+4
 5778 00f0 3B66     		str	r3, [r7, #96]
 5779 00f2 18E0     		b	.L197
 5780              	.L196:
1588:Api\core\src/vl53l0x_api_core.c **** 	} else {
1589:Api\core\src/vl53l0x_api_core.c **** 
1590:Api\core\src/vl53l0x_api_core.c **** 		/* DMAX uses a different ambient width from sigma, so apply
1591:Api\core\src/vl53l0x_api_core.c **** 		 * correction.
1592:Api\core\src/vl53l0x_api_core.c **** 		 * Perform division before multiplication to prevent overflow.
1593:Api\core\src/vl53l0x_api_core.c **** 		 */
1594:Api\core\src/vl53l0x_api_core.c **** 		sigmaEstimateP2 = (sigmaEstimateP2 + cAmbEffWidthSigmaEst_ns/2)/
 5781              		.loc 1 1594 0
 5782 00f4 BB6C     		ldr	r3, [r7, #72]
 5783 00f6 5A08     		lsrs	r2, r3, #1
 5784 00f8 7B6F     		ldr	r3, [r7, #116]
 5785 00fa D318     		adds	r3, r2, r3
 5786 00fc B96C     		ldr	r1, [r7, #72]
 5787 00fe 1800     		movs	r0, r3
 5788 0100 FFF7FEFF 		bl	__aeabi_uidiv
 5789 0104 0300     		movs	r3, r0
 5790 0106 7B67     		str	r3, [r7, #116]
1595:Api\core\src/vl53l0x_api_core.c **** 			cAmbEffWidthSigmaEst_ns;
1596:Api\core\src/vl53l0x_api_core.c **** 		sigmaEstimateP2 *= cAmbEffWidthDMax_ns;
 5791              		.loc 1 1596 0
 5792 0108 7B6F     		ldr	r3, [r7, #116]
 5793 010a 7A6C     		ldr	r2, [r7, #68]
 5794 010c 5343     		muls	r3, r2
 5795 010e 7B67     		str	r3, [r7, #116]
1597:Api\core\src/vl53l0x_api_core.c **** 
1598:Api\core\src/vl53l0x_api_core.c **** 		/* FixPoint1616 >> 16 = uint32 */
1599:Api\core\src/vl53l0x_api_core.c **** 		minSignalNeeded_p3 = (sigmaEstimateP2 + 0x8000) >> 16;
 5796              		.loc 1 1599 0
 5797 0110 7B6F     		ldr	r3, [r7, #116]
 5798 0112 8022     		movs	r2, #128
 5799 0114 1202     		lsls	r2, r2, #8
 5800 0116 9446     		mov	ip, r2
 5801 0118 6344     		add	r3, r3, ip
 5802 011a 1B0C     		lsrs	r3, r3, #16
 5803 011c 3B66     		str	r3, [r7, #96]
1600:Api\core\src/vl53l0x_api_core.c **** 
1601:Api\core\src/vl53l0x_api_core.c **** 		minSignalNeeded_p3 *= minSignalNeeded_p3;
 5804              		.loc 1 1601 0
 5805 011e 3B6E     		ldr	r3, [r7, #96]
 5806 0120 3A6E     		ldr	r2, [r7, #96]
 5807 0122 5343     		muls	r3, r2
 5808 0124 3B66     		str	r3, [r7, #96]
 5809              	.L197:
1602:Api\core\src/vl53l0x_api_core.c **** 
ARM GAS  C:\Users\ilya\AppData\Local\Temp\ccAjPEqD.s 			page 132


1603:Api\core\src/vl53l0x_api_core.c **** 	}
1604:Api\core\src/vl53l0x_api_core.c **** 
1605:Api\core\src/vl53l0x_api_core.c **** 	/* FixPoint1814 / uint32 = FixPoint1814 */
1606:Api\core\src/vl53l0x_api_core.c **** 	sigmaLimitTmp = ((cSigmaLimit << 14) + 500) / 1000;
 5810              		.loc 1 1606 0
 5811 0126 7B6D     		ldr	r3, [r7, #84]
 5812 0128 9B03     		lsls	r3, r3, #14
 5813 012a F533     		adds	r3, r3, #245
 5814 012c FF33     		adds	r3, r3, #255
 5815 012e 1A00     		movs	r2, r3
 5816 0130 FA23     		movs	r3, #250
 5817 0132 9900     		lsls	r1, r3, #2
 5818 0134 1000     		movs	r0, r2
 5819 0136 FFF7FEFF 		bl	__aeabi_uidiv
 5820 013a 0300     		movs	r3, r0
 5821 013c 7B62     		str	r3, [r7, #36]
1607:Api\core\src/vl53l0x_api_core.c **** 
1608:Api\core\src/vl53l0x_api_core.c **** 	/* FixPoint1814 * FixPoint1814 = FixPoint3628 := FixPoint0428 */
1609:Api\core\src/vl53l0x_api_core.c **** 	sigmaLimitTmp *= sigmaLimitTmp;
 5822              		.loc 1 1609 0
 5823 013e 7B6A     		ldr	r3, [r7, #36]
 5824 0140 7A6A     		ldr	r2, [r7, #36]
 5825 0142 5343     		muls	r3, r2
 5826 0144 7B62     		str	r3, [r7, #36]
1610:Api\core\src/vl53l0x_api_core.c **** 
1611:Api\core\src/vl53l0x_api_core.c **** 	/* FixPoint1616 * FixPoint1616 = FixPoint3232 */
1612:Api\core\src/vl53l0x_api_core.c **** 	sigmaEstSqTmp = cSigmaEstRef * cSigmaEstRef;
 5827              		.loc 1 1612 0
 5828 0146 FB6C     		ldr	r3, [r7, #76]
 5829 0148 FA6C     		ldr	r2, [r7, #76]
 5830 014a 5343     		muls	r3, r2
 5831 014c 3B62     		str	r3, [r7, #32]
1613:Api\core\src/vl53l0x_api_core.c **** 
1614:Api\core\src/vl53l0x_api_core.c **** 	/* FixPoint3232 >> 4 = FixPoint0428 */
1615:Api\core\src/vl53l0x_api_core.c **** 	sigmaEstSqTmp = (sigmaEstSqTmp + 0x08) >> 4;
 5832              		.loc 1 1615 0
 5833 014e 3B6A     		ldr	r3, [r7, #32]
 5834 0150 0833     		adds	r3, r3, #8
 5835 0152 1B09     		lsrs	r3, r3, #4
 5836 0154 3B62     		str	r3, [r7, #32]
1616:Api\core\src/vl53l0x_api_core.c **** 
1617:Api\core\src/vl53l0x_api_core.c **** 	/* FixPoint0428 - FixPoint0428	= FixPoint0428 */
1618:Api\core\src/vl53l0x_api_core.c **** 	sigmaLimitTmp -=  sigmaEstSqTmp;
 5837              		.loc 1 1618 0
 5838 0156 7A6A     		ldr	r2, [r7, #36]
 5839 0158 3B6A     		ldr	r3, [r7, #32]
 5840 015a D31A     		subs	r3, r2, r3
 5841 015c 7B62     		str	r3, [r7, #36]
1619:Api\core\src/vl53l0x_api_core.c **** 
1620:Api\core\src/vl53l0x_api_core.c **** 	/* uint32_t * FixPoint0428 = FixPoint0428 */
1621:Api\core\src/vl53l0x_api_core.c **** 	minSignalNeeded_p4 = 4 * 12 * sigmaLimitTmp;
 5842              		.loc 1 1621 0
 5843 015e 7A6A     		ldr	r2, [r7, #36]
 5844 0160 1300     		movs	r3, r2
 5845 0162 5B00     		lsls	r3, r3, #1
 5846 0164 9B18     		adds	r3, r3, r2
 5847 0166 1B01     		lsls	r3, r3, #4
ARM GAS  C:\Users\ilya\AppData\Local\Temp\ccAjPEqD.s 			page 133


 5848 0168 FB61     		str	r3, [r7, #28]
1622:Api\core\src/vl53l0x_api_core.c **** 
1623:Api\core\src/vl53l0x_api_core.c **** 	/* FixPoint0428 >> 14 = FixPoint1814 */
1624:Api\core\src/vl53l0x_api_core.c **** 	minSignalNeeded_p4 = (minSignalNeeded_p4 + 0x2000) >> 14;
 5849              		.loc 1 1624 0
 5850 016a FB69     		ldr	r3, [r7, #28]
 5851 016c 8022     		movs	r2, #128
 5852 016e 9201     		lsls	r2, r2, #6
 5853 0170 9446     		mov	ip, r2
 5854 0172 6344     		add	r3, r3, ip
 5855 0174 9B0B     		lsrs	r3, r3, #14
 5856 0176 FB61     		str	r3, [r7, #28]
1625:Api\core\src/vl53l0x_api_core.c **** 
1626:Api\core\src/vl53l0x_api_core.c **** 	/* uint32 + uint32 = uint32 */
1627:Api\core\src/vl53l0x_api_core.c **** 	minSignalNeeded = (minSignalNeeded_p2 + minSignalNeeded_p3);
 5857              		.loc 1 1627 0
 5858 0178 FA6A     		ldr	r2, [r7, #44]
 5859 017a 3B6E     		ldr	r3, [r7, #96]
 5860 017c D318     		adds	r3, r2, r3
 5861 017e BB61     		str	r3, [r7, #24]
1628:Api\core\src/vl53l0x_api_core.c **** 
1629:Api\core\src/vl53l0x_api_core.c **** 	/* uint32 / uint32 = uint32 */
1630:Api\core\src/vl53l0x_api_core.c **** 	minSignalNeeded += (peakVcselDuration_us/2);
 5862              		.loc 1 1630 0
 5863 0180 BB6F     		ldr	r3, [r7, #120]
 5864 0182 5B08     		lsrs	r3, r3, #1
 5865 0184 BA69     		ldr	r2, [r7, #24]
 5866 0186 D318     		adds	r3, r2, r3
 5867 0188 BB61     		str	r3, [r7, #24]
1631:Api\core\src/vl53l0x_api_core.c **** 	minSignalNeeded /= peakVcselDuration_us;
 5868              		.loc 1 1631 0
 5869 018a B96F     		ldr	r1, [r7, #120]
 5870 018c B869     		ldr	r0, [r7, #24]
 5871 018e FFF7FEFF 		bl	__aeabi_uidiv
 5872 0192 0300     		movs	r3, r0
 5873 0194 BB61     		str	r3, [r7, #24]
1632:Api\core\src/vl53l0x_api_core.c **** 
1633:Api\core\src/vl53l0x_api_core.c **** 	/* uint32 << 14 = FixPoint1814 */
1634:Api\core\src/vl53l0x_api_core.c **** 	minSignalNeeded <<= 14;
 5874              		.loc 1 1634 0
 5875 0196 BB69     		ldr	r3, [r7, #24]
 5876 0198 9B03     		lsls	r3, r3, #14
 5877 019a BB61     		str	r3, [r7, #24]
1635:Api\core\src/vl53l0x_api_core.c **** 
1636:Api\core\src/vl53l0x_api_core.c **** 	/* FixPoint1814 / FixPoint1814 = uint32 */
1637:Api\core\src/vl53l0x_api_core.c **** 	minSignalNeeded += (minSignalNeeded_p4/2);
 5878              		.loc 1 1637 0
 5879 019c FB69     		ldr	r3, [r7, #28]
 5880 019e 5B08     		lsrs	r3, r3, #1
 5881 01a0 BA69     		ldr	r2, [r7, #24]
 5882 01a2 D318     		adds	r3, r2, r3
 5883 01a4 BB61     		str	r3, [r7, #24]
1638:Api\core\src/vl53l0x_api_core.c **** 	minSignalNeeded /= minSignalNeeded_p4;
 5884              		.loc 1 1638 0
 5885 01a6 F969     		ldr	r1, [r7, #28]
 5886 01a8 B869     		ldr	r0, [r7, #24]
 5887 01aa FFF7FEFF 		bl	__aeabi_uidiv
ARM GAS  C:\Users\ilya\AppData\Local\Temp\ccAjPEqD.s 			page 134


 5888 01ae 0300     		movs	r3, r0
 5889 01b0 BB61     		str	r3, [r7, #24]
1639:Api\core\src/vl53l0x_api_core.c **** 
1640:Api\core\src/vl53l0x_api_core.c **** 	/* FixPoint3200 * FixPoint2804 := FixPoint2804*/
1641:Api\core\src/vl53l0x_api_core.c **** 	minSignalNeeded *= minSignalNeeded_p1;
 5890              		.loc 1 1641 0
 5891 01b2 BB69     		ldr	r3, [r7, #24]
 5892 01b4 7A6E     		ldr	r2, [r7, #100]
 5893 01b6 5343     		muls	r3, r2
 5894 01b8 BB61     		str	r3, [r7, #24]
1642:Api\core\src/vl53l0x_api_core.c **** 
1643:Api\core\src/vl53l0x_api_core.c **** 	/* Apply correction by dividing by 1000000.
1644:Api\core\src/vl53l0x_api_core.c **** 	 * This assumes 10E16 on the numerator of the equation
1645:Api\core\src/vl53l0x_api_core.c **** 	 * and 10E-22 on the denominator.
1646:Api\core\src/vl53l0x_api_core.c **** 	 * We do this because 32bit fix point calculation can't
1647:Api\core\src/vl53l0x_api_core.c **** 	 * handle the larger and smaller elements of this equation,
1648:Api\core\src/vl53l0x_api_core.c **** 	 * i.e. speed of light and pulse widths.
1649:Api\core\src/vl53l0x_api_core.c **** 	 */
1650:Api\core\src/vl53l0x_api_core.c **** 	minSignalNeeded = (minSignalNeeded + 500) / 1000;
 5895              		.loc 1 1650 0
 5896 01ba BB69     		ldr	r3, [r7, #24]
 5897 01bc F533     		adds	r3, r3, #245
 5898 01be FF33     		adds	r3, r3, #255
 5899 01c0 1A00     		movs	r2, r3
 5900 01c2 FA23     		movs	r3, #250
 5901 01c4 9900     		lsls	r1, r3, #2
 5902 01c6 1000     		movs	r0, r2
 5903 01c8 FFF7FEFF 		bl	__aeabi_uidiv
 5904 01cc 0300     		movs	r3, r0
 5905 01ce BB61     		str	r3, [r7, #24]
1651:Api\core\src/vl53l0x_api_core.c **** 	minSignalNeeded <<= 4;
 5906              		.loc 1 1651 0
 5907 01d0 BB69     		ldr	r3, [r7, #24]
 5908 01d2 1B01     		lsls	r3, r3, #4
 5909 01d4 BB61     		str	r3, [r7, #24]
1652:Api\core\src/vl53l0x_api_core.c **** 
1653:Api\core\src/vl53l0x_api_core.c **** 	minSignalNeeded = (minSignalNeeded + 500) / 1000;
 5910              		.loc 1 1653 0
 5911 01d6 BB69     		ldr	r3, [r7, #24]
 5912 01d8 F533     		adds	r3, r3, #245
 5913 01da FF33     		adds	r3, r3, #255
 5914 01dc 1A00     		movs	r2, r3
 5915 01de FA23     		movs	r3, #250
 5916 01e0 9900     		lsls	r1, r3, #2
 5917 01e2 1000     		movs	r0, r2
 5918 01e4 FFF7FEFF 		bl	__aeabi_uidiv
 5919 01e8 0300     		movs	r3, r0
 5920 01ea BB61     		str	r3, [r7, #24]
1654:Api\core\src/vl53l0x_api_core.c **** 
1655:Api\core\src/vl53l0x_api_core.c **** 	/* FixPoint1616 >> 8 = FixPoint2408 */
1656:Api\core\src/vl53l0x_api_core.c **** 	signalLimitTmp = (cSignalLimit + 0x80) >> 8;
 5921              		.loc 1 1656 0
 5922 01ec 3B6D     		ldr	r3, [r7, #80]
 5923 01ee 8033     		adds	r3, r3, #128
 5924 01f0 1B0A     		lsrs	r3, r3, #8
 5925 01f2 7B61     		str	r3, [r7, #20]
1657:Api\core\src/vl53l0x_api_core.c **** 
ARM GAS  C:\Users\ilya\AppData\Local\Temp\ccAjPEqD.s 			page 135


1658:Api\core\src/vl53l0x_api_core.c **** 	/* FixPoint2408/FixPoint2408 = uint32 */
1659:Api\core\src/vl53l0x_api_core.c **** 	if (signalLimitTmp != 0)
 5926              		.loc 1 1659 0
 5927 01f4 7B69     		ldr	r3, [r7, #20]
 5928 01f6 002B     		cmp	r3, #0
 5929 01f8 0AD0     		beq	.L198
1660:Api\core\src/vl53l0x_api_core.c **** 		dmaxDarkTmp = (SignalAt0mm + (signalLimitTmp / 2))
 5930              		.loc 1 1660 0
 5931 01fa 7B69     		ldr	r3, [r7, #20]
 5932 01fc 5A08     		lsrs	r2, r3, #1
 5933 01fe 7B6B     		ldr	r3, [r7, #52]
 5934 0200 D318     		adds	r3, r2, r3
 5935 0202 7969     		ldr	r1, [r7, #20]
 5936 0204 1800     		movs	r0, r3
 5937 0206 FFF7FEFF 		bl	__aeabi_uidiv
 5938 020a 0300     		movs	r3, r0
 5939 020c BB65     		str	r3, [r7, #88]
 5940 020e 01E0     		b	.L199
 5941              	.L198:
1661:Api\core\src/vl53l0x_api_core.c **** 			/ signalLimitTmp;
1662:Api\core\src/vl53l0x_api_core.c **** 	else
1663:Api\core\src/vl53l0x_api_core.c **** 		dmaxDarkTmp = 0;
 5942              		.loc 1 1663 0
 5943 0210 0023     		movs	r3, #0
 5944 0212 BB65     		str	r3, [r7, #88]
 5945              	.L199:
1664:Api\core\src/vl53l0x_api_core.c **** 
1665:Api\core\src/vl53l0x_api_core.c **** 	dmaxDark = VL53L0X_isqrt(dmaxDarkTmp);
 5946              		.loc 1 1665 0
 5947 0214 BB6D     		ldr	r3, [r7, #88]
 5948 0216 1800     		movs	r0, r3
 5949 0218 FFF7FEFF 		bl	VL53L0X_isqrt
 5950 021c 0300     		movs	r3, r0
 5951 021e 3B61     		str	r3, [r7, #16]
1666:Api\core\src/vl53l0x_api_core.c **** 
1667:Api\core\src/vl53l0x_api_core.c **** 	/* FixPoint2408/FixPoint2408 = uint32 */
1668:Api\core\src/vl53l0x_api_core.c **** 	if (minSignalNeeded != 0)
 5952              		.loc 1 1668 0
 5953 0220 BB69     		ldr	r3, [r7, #24]
 5954 0222 002B     		cmp	r3, #0
 5955 0224 0AD0     		beq	.L200
1669:Api\core\src/vl53l0x_api_core.c **** 		dmaxAmbient = (SignalAt0mm + minSignalNeeded/2)
 5956              		.loc 1 1669 0
 5957 0226 BB69     		ldr	r3, [r7, #24]
 5958 0228 5A08     		lsrs	r2, r3, #1
 5959 022a 7B6B     		ldr	r3, [r7, #52]
 5960 022c D318     		adds	r3, r2, r3
 5961 022e B969     		ldr	r1, [r7, #24]
 5962 0230 1800     		movs	r0, r3
 5963 0232 FFF7FEFF 		bl	__aeabi_uidiv
 5964 0236 0300     		movs	r3, r0
 5965 0238 FB65     		str	r3, [r7, #92]
 5966 023a 01E0     		b	.L201
 5967              	.L200:
1670:Api\core\src/vl53l0x_api_core.c **** 			/ minSignalNeeded;
1671:Api\core\src/vl53l0x_api_core.c **** 	else
1672:Api\core\src/vl53l0x_api_core.c **** 		dmaxAmbient = 0;
ARM GAS  C:\Users\ilya\AppData\Local\Temp\ccAjPEqD.s 			page 136


 5968              		.loc 1 1672 0
 5969 023c 0023     		movs	r3, #0
 5970 023e FB65     		str	r3, [r7, #92]
 5971              	.L201:
1673:Api\core\src/vl53l0x_api_core.c **** 
1674:Api\core\src/vl53l0x_api_core.c **** 	dmaxAmbient = VL53L0X_isqrt(dmaxAmbient);
 5972              		.loc 1 1674 0
 5973 0240 FB6D     		ldr	r3, [r7, #92]
 5974 0242 1800     		movs	r0, r3
 5975 0244 FFF7FEFF 		bl	VL53L0X_isqrt
 5976 0248 0300     		movs	r3, r0
 5977 024a FB65     		str	r3, [r7, #92]
1675:Api\core\src/vl53l0x_api_core.c **** 
1676:Api\core\src/vl53l0x_api_core.c **** 	*pdmax_mm = dmaxDark;
 5978              		.loc 1 1676 0
 5979 024c FB6F     		ldr	r3, [r7, #124]
 5980 024e 3A69     		ldr	r2, [r7, #16]
 5981 0250 1A60     		str	r2, [r3]
1677:Api\core\src/vl53l0x_api_core.c **** 	if (dmaxDark > dmaxAmbient)
 5982              		.loc 1 1677 0
 5983 0252 3A69     		ldr	r2, [r7, #16]
 5984 0254 FB6D     		ldr	r3, [r7, #92]
 5985 0256 9A42     		cmp	r2, r3
 5986 0258 02D9     		bls	.L202
1678:Api\core\src/vl53l0x_api_core.c **** 		*pdmax_mm = dmaxAmbient;
 5987              		.loc 1 1678 0
 5988 025a FB6F     		ldr	r3, [r7, #124]
 5989 025c FA6D     		ldr	r2, [r7, #92]
 5990 025e 1A60     		str	r2, [r3]
 5991              	.L202:
1679:Api\core\src/vl53l0x_api_core.c **** 
1680:Api\core\src/vl53l0x_api_core.c **** 	LOG_FUNCTION_END(Status);
1681:Api\core\src/vl53l0x_api_core.c **** 
1682:Api\core\src/vl53l0x_api_core.c **** 	return Status;
 5992              		.loc 1 1682 0
 5993 0260 4323     		movs	r3, #67
 5994 0262 FB18     		adds	r3, r7, r3
 5995 0264 1B78     		ldrb	r3, [r3]
 5996 0266 5BB2     		sxtb	r3, r3
1683:Api\core\src/vl53l0x_api_core.c **** }
 5997              		.loc 1 1683 0
 5998 0268 1800     		movs	r0, r3
 5999 026a BD46     		mov	sp, r7
 6000 026c 1AB0     		add	sp, sp, #104
 6001              		@ sp needed
 6002 026e 80BD     		pop	{r7, pc}
 6003              	.L205:
 6004              		.align	2
 6005              	.L204:
 6006 0270 FFFF0000 		.word	65535
 6007 0274 0000F0FF 		.word	-1048576
 6008              		.cfi_endproc
 6009              	.LFE23:
 6010              		.size	VL53L0X_calc_dmax, .-VL53L0X_calc_dmax
 6011              		.section	.text.VL53L0X_calc_sigma_estimate,"ax",%progbits
 6012              		.align	2
 6013              		.global	VL53L0X_calc_sigma_estimate
ARM GAS  C:\Users\ilya\AppData\Local\Temp\ccAjPEqD.s 			page 137


 6014              		.code	16
 6015              		.thumb_func
 6016              		.type	VL53L0X_calc_sigma_estimate, %function
 6017              	VL53L0X_calc_sigma_estimate:
 6018              	.LFB24:
1684:Api\core\src/vl53l0x_api_core.c **** 
1685:Api\core\src/vl53l0x_api_core.c **** 
1686:Api\core\src/vl53l0x_api_core.c **** VL53L0X_Error VL53L0X_calc_sigma_estimate(VL53L0X_DEV Dev,
1687:Api\core\src/vl53l0x_api_core.c **** 	VL53L0X_RangingMeasurementData_t *pRangingMeasurementData,
1688:Api\core\src/vl53l0x_api_core.c **** 	FixPoint1616_t *pSigmaEstimate,
1689:Api\core\src/vl53l0x_api_core.c **** 	uint32_t *pDmax_mm)
1690:Api\core\src/vl53l0x_api_core.c **** {
 6019              		.loc 1 1690 0
 6020              		.cfi_startproc
 6021              		@ args = 0, pretend = 0, frame = 192
 6022              		@ frame_needed = 1, uses_anonymous_args = 0
 6023 0000 B0B5     		push	{r4, r5, r7, lr}
 6024              		.cfi_def_cfa_offset 16
 6025              		.cfi_offset 4, -16
 6026              		.cfi_offset 5, -12
 6027              		.cfi_offset 7, -8
 6028              		.cfi_offset 14, -4
 6029 0002 B4B0     		sub	sp, sp, #208
 6030              		.cfi_def_cfa_offset 224
 6031 0004 04AF     		add	r7, sp, #16
 6032              		.cfi_def_cfa 7, 208
 6033 0006 F860     		str	r0, [r7, #12]
 6034 0008 B960     		str	r1, [r7, #8]
 6035 000a 7A60     		str	r2, [r7, #4]
 6036 000c 3B60     		str	r3, [r7]
1691:Api\core\src/vl53l0x_api_core.c **** 	/* Expressed in 100ths of a ns, i.e. centi-ns */
1692:Api\core\src/vl53l0x_api_core.c **** 	const uint32_t cPulseEffectiveWidth_centi_ns   = 800;
 6037              		.loc 1 1692 0
 6038 000e C823     		movs	r3, #200
 6039 0010 9B00     		lsls	r3, r3, #2
 6040 0012 9022     		movs	r2, #144
 6041 0014 BA18     		adds	r2, r7, r2
 6042 0016 1360     		str	r3, [r2]
1693:Api\core\src/vl53l0x_api_core.c **** 	/* Expressed in 100ths of a ns, i.e. centi-ns */
1694:Api\core\src/vl53l0x_api_core.c **** 	const uint32_t cAmbientEffectiveWidth_centi_ns = 600;
 6043              		.loc 1 1694 0
 6044 0018 9623     		movs	r3, #150
 6045 001a 9B00     		lsls	r3, r3, #2
 6046 001c 8C22     		movs	r2, #140
 6047 001e BA18     		adds	r2, r7, r2
 6048 0020 1360     		str	r3, [r2]
1695:Api\core\src/vl53l0x_api_core.c **** 	const FixPoint1616_t cDfltFinalRangeIntegrationTimeMilliSecs	= 0x00190000; /* 25ms */
 6049              		.loc 1 1695 0
 6050 0022 C823     		movs	r3, #200
 6051 0024 5B03     		lsls	r3, r3, #13
 6052 0026 8822     		movs	r2, #136
 6053 0028 BA18     		adds	r2, r7, r2
 6054 002a 1360     		str	r3, [r2]
1696:Api\core\src/vl53l0x_api_core.c **** 	const uint32_t cVcselPulseWidth_ps	= 4700; /* pico secs */
 6055              		.loc 1 1696 0
 6056 002c BF4B     		ldr	r3, .L222
 6057 002e 8422     		movs	r2, #132
ARM GAS  C:\Users\ilya\AppData\Local\Temp\ccAjPEqD.s 			page 138


 6058 0030 BA18     		adds	r2, r7, r2
 6059 0032 1360     		str	r3, [r2]
1697:Api\core\src/vl53l0x_api_core.c **** 	const FixPoint1616_t cSigmaEstMax	= 0x028F87AE;
 6060              		.loc 1 1697 0
 6061 0034 BE4B     		ldr	r3, .L222+4
 6062 0036 8022     		movs	r2, #128
 6063 0038 BA18     		adds	r2, r7, r2
 6064 003a 1360     		str	r3, [r2]
1698:Api\core\src/vl53l0x_api_core.c **** 	const FixPoint1616_t cSigmaEstRtnMax	= 0xF000;
 6065              		.loc 1 1698 0
 6066 003c F023     		movs	r3, #240
 6067 003e 1B02     		lsls	r3, r3, #8
 6068 0040 FB67     		str	r3, [r7, #124]
1699:Api\core\src/vl53l0x_api_core.c **** 	const FixPoint1616_t cAmbToSignalRatioMax = 0xF0000000/
 6069              		.loc 1 1699 0
 6070 0042 8C23     		movs	r3, #140
 6071 0044 FB18     		adds	r3, r7, r3
 6072 0046 1968     		ldr	r1, [r3]
 6073 0048 F023     		movs	r3, #240
 6074 004a 1806     		lsls	r0, r3, #24
 6075 004c FFF7FEFF 		bl	__aeabi_uidiv
 6076 0050 0300     		movs	r3, r0
 6077 0052 BB67     		str	r3, [r7, #120]
1700:Api\core\src/vl53l0x_api_core.c **** 		cAmbientEffectiveWidth_centi_ns;
1701:Api\core\src/vl53l0x_api_core.c **** 	/* Time Of Flight per mm (6.6 pico secs) */
1702:Api\core\src/vl53l0x_api_core.c **** 	const FixPoint1616_t cTOF_per_mm_ps		= 0x0006999A;
 6078              		.loc 1 1702 0
 6079 0054 B74B     		ldr	r3, .L222+8
 6080 0056 7B67     		str	r3, [r7, #116]
1703:Api\core\src/vl53l0x_api_core.c **** 	const uint32_t c16BitRoundingParam		= 0x00008000;
 6081              		.loc 1 1703 0
 6082 0058 8023     		movs	r3, #128
 6083 005a 1B02     		lsls	r3, r3, #8
 6084 005c 3B67     		str	r3, [r7, #112]
1704:Api\core\src/vl53l0x_api_core.c **** 	const FixPoint1616_t cMaxXTalk_kcps		= 0x00320000;
 6085              		.loc 1 1704 0
 6086 005e C823     		movs	r3, #200
 6087 0060 9B03     		lsls	r3, r3, #14
 6088 0062 FB66     		str	r3, [r7, #108]
1705:Api\core\src/vl53l0x_api_core.c **** 	const uint32_t cPllPeriod_ps			= 1655;
 6089              		.loc 1 1705 0
 6090 0064 B44B     		ldr	r3, .L222+12
 6091 0066 BB66     		str	r3, [r7, #104]
1706:Api\core\src/vl53l0x_api_core.c **** 
1707:Api\core\src/vl53l0x_api_core.c **** 	uint32_t vcselTotalEventsRtn;
1708:Api\core\src/vl53l0x_api_core.c **** 	uint32_t finalRangeTimeoutMicroSecs;
1709:Api\core\src/vl53l0x_api_core.c **** 	uint32_t preRangeTimeoutMicroSecs;
1710:Api\core\src/vl53l0x_api_core.c **** 	uint32_t finalRangeIntegrationTimeMilliSecs;
1711:Api\core\src/vl53l0x_api_core.c **** 	FixPoint1616_t sigmaEstimateP1;
1712:Api\core\src/vl53l0x_api_core.c **** 	FixPoint1616_t sigmaEstimateP2;
1713:Api\core\src/vl53l0x_api_core.c **** 	FixPoint1616_t sigmaEstimateP3;
1714:Api\core\src/vl53l0x_api_core.c **** 	FixPoint1616_t deltaT_ps;
1715:Api\core\src/vl53l0x_api_core.c **** 	FixPoint1616_t pwMult;
1716:Api\core\src/vl53l0x_api_core.c **** 	FixPoint1616_t sigmaEstRtn;
1717:Api\core\src/vl53l0x_api_core.c **** 	FixPoint1616_t sigmaEstimate;
1718:Api\core\src/vl53l0x_api_core.c **** 	FixPoint1616_t xTalkCorrection;
1719:Api\core\src/vl53l0x_api_core.c **** 	FixPoint1616_t ambientRate_kcps;
ARM GAS  C:\Users\ilya\AppData\Local\Temp\ccAjPEqD.s 			page 139


1720:Api\core\src/vl53l0x_api_core.c **** 	FixPoint1616_t peakSignalRate_kcps;
1721:Api\core\src/vl53l0x_api_core.c **** 	FixPoint1616_t xTalkCompRate_mcps;
1722:Api\core\src/vl53l0x_api_core.c **** 	uint32_t xTalkCompRate_kcps;
1723:Api\core\src/vl53l0x_api_core.c **** 	VL53L0X_Error Status = VL53L0X_ERROR_NONE;
 6092              		.loc 1 1723 0
 6093 0068 9F23     		movs	r3, #159
 6094 006a FB18     		adds	r3, r7, r3
 6095 006c 0022     		movs	r2, #0
 6096 006e 1A70     		strb	r2, [r3]
1724:Api\core\src/vl53l0x_api_core.c **** 	FixPoint1616_t diff1_mcps;
1725:Api\core\src/vl53l0x_api_core.c **** 	FixPoint1616_t diff2_mcps;
1726:Api\core\src/vl53l0x_api_core.c **** 	FixPoint1616_t sqr1;
1727:Api\core\src/vl53l0x_api_core.c **** 	FixPoint1616_t sqr2;
1728:Api\core\src/vl53l0x_api_core.c **** 	FixPoint1616_t sqrSum;
1729:Api\core\src/vl53l0x_api_core.c **** 	FixPoint1616_t sqrtResult_centi_ns;
1730:Api\core\src/vl53l0x_api_core.c **** 	FixPoint1616_t sqrtResult;
1731:Api\core\src/vl53l0x_api_core.c **** 	FixPoint1616_t totalSignalRate_mcps;
1732:Api\core\src/vl53l0x_api_core.c **** 	FixPoint1616_t correctedSignalRate_mcps;
1733:Api\core\src/vl53l0x_api_core.c **** 	FixPoint1616_t sigmaEstRef;
1734:Api\core\src/vl53l0x_api_core.c **** 	uint32_t vcselWidth;
1735:Api\core\src/vl53l0x_api_core.c **** 	uint32_t finalRangeMacroPCLKS;
1736:Api\core\src/vl53l0x_api_core.c **** 	uint32_t preRangeMacroPCLKS;
1737:Api\core\src/vl53l0x_api_core.c **** 	uint32_t peakVcselDuration_us;
1738:Api\core\src/vl53l0x_api_core.c **** 	uint8_t finalRangeVcselPCLKS;
1739:Api\core\src/vl53l0x_api_core.c **** 	uint8_t preRangeVcselPCLKS;
1740:Api\core\src/vl53l0x_api_core.c **** 	/*! \addtogroup calc_sigma_estimate
1741:Api\core\src/vl53l0x_api_core.c **** 	 * @{
1742:Api\core\src/vl53l0x_api_core.c **** 	 *
1743:Api\core\src/vl53l0x_api_core.c **** 	 * Estimates the range sigma
1744:Api\core\src/vl53l0x_api_core.c **** 	 */
1745:Api\core\src/vl53l0x_api_core.c **** 
1746:Api\core\src/vl53l0x_api_core.c **** 	LOG_FUNCTION_START("");
1747:Api\core\src/vl53l0x_api_core.c **** 
1748:Api\core\src/vl53l0x_api_core.c **** 	VL53L0X_GETPARAMETERFIELD(Dev, XTalkCompensationRateMegaCps,
 6097              		.loc 1 1748 0
 6098 0070 FB68     		ldr	r3, [r7, #12]
 6099 0072 1B6A     		ldr	r3, [r3, #32]
 6100 0074 7B61     		str	r3, [r7, #20]
1749:Api\core\src/vl53l0x_api_core.c **** 			xTalkCompRate_mcps);
1750:Api\core\src/vl53l0x_api_core.c **** 
1751:Api\core\src/vl53l0x_api_core.c **** 	/*
1752:Api\core\src/vl53l0x_api_core.c **** 	 * We work in kcps rather than mcps as this helps keep within the
1753:Api\core\src/vl53l0x_api_core.c **** 	 * confines of the 32 Fix1616 type.
1754:Api\core\src/vl53l0x_api_core.c **** 	 */
1755:Api\core\src/vl53l0x_api_core.c **** 
1756:Api\core\src/vl53l0x_api_core.c **** 	ambientRate_kcps =
1757:Api\core\src/vl53l0x_api_core.c **** 		(pRangingMeasurementData->AmbientRateRtnMegaCps * 1000) >> 16;
 6101              		.loc 1 1757 0
 6102 0076 BB68     		ldr	r3, [r7, #8]
 6103 0078 1B69     		ldr	r3, [r3, #16]
 6104 007a FA22     		movs	r2, #250
 6105 007c 9200     		lsls	r2, r2, #2
 6106 007e 5343     		muls	r3, r2
1756:Api\core\src/vl53l0x_api_core.c **** 		(pRangingMeasurementData->AmbientRateRtnMegaCps * 1000) >> 16;
 6107              		.loc 1 1756 0
 6108 0080 1B0C     		lsrs	r3, r3, #16
 6109 0082 7B66     		str	r3, [r7, #100]
ARM GAS  C:\Users\ilya\AppData\Local\Temp\ccAjPEqD.s 			page 140


1758:Api\core\src/vl53l0x_api_core.c **** 
1759:Api\core\src/vl53l0x_api_core.c **** 	correctedSignalRate_mcps =
 6110              		.loc 1 1759 0
 6111 0084 BB68     		ldr	r3, [r7, #8]
 6112 0086 DB68     		ldr	r3, [r3, #12]
 6113 0088 3B66     		str	r3, [r7, #96]
1760:Api\core\src/vl53l0x_api_core.c **** 		pRangingMeasurementData->SignalRateRtnMegaCps;
1761:Api\core\src/vl53l0x_api_core.c **** 
1762:Api\core\src/vl53l0x_api_core.c **** 
1763:Api\core\src/vl53l0x_api_core.c **** 	Status = VL53L0X_get_total_signal_rate(
 6114              		.loc 1 1763 0
 6115 008a 9F23     		movs	r3, #159
 6116 008c FC18     		adds	r4, r7, r3
 6117 008e 1023     		movs	r3, #16
 6118 0090 FA18     		adds	r2, r7, r3
 6119 0092 B968     		ldr	r1, [r7, #8]
 6120 0094 FB68     		ldr	r3, [r7, #12]
 6121 0096 1800     		movs	r0, r3
 6122 0098 FFF7FEFF 		bl	VL53L0X_get_total_signal_rate
 6123 009c 0300     		movs	r3, r0
 6124 009e 2370     		strb	r3, [r4]
1764:Api\core\src/vl53l0x_api_core.c **** 		Dev, pRangingMeasurementData, &totalSignalRate_mcps);
1765:Api\core\src/vl53l0x_api_core.c **** 	Status = VL53L0X_get_total_xtalk_rate(
 6125              		.loc 1 1765 0
 6126 00a0 9F23     		movs	r3, #159
 6127 00a2 FC18     		adds	r4, r7, r3
 6128 00a4 1423     		movs	r3, #20
 6129 00a6 FA18     		adds	r2, r7, r3
 6130 00a8 B968     		ldr	r1, [r7, #8]
 6131 00aa FB68     		ldr	r3, [r7, #12]
 6132 00ac 1800     		movs	r0, r3
 6133 00ae FFF7FEFF 		bl	VL53L0X_get_total_xtalk_rate
 6134 00b2 0300     		movs	r3, r0
 6135 00b4 2370     		strb	r3, [r4]
1766:Api\core\src/vl53l0x_api_core.c **** 		Dev, pRangingMeasurementData, &xTalkCompRate_mcps);
1767:Api\core\src/vl53l0x_api_core.c **** 
1768:Api\core\src/vl53l0x_api_core.c **** 
1769:Api\core\src/vl53l0x_api_core.c **** 	/* Signal rate measurement provided by device is the
1770:Api\core\src/vl53l0x_api_core.c **** 	 * peak signal rate, not average.
1771:Api\core\src/vl53l0x_api_core.c **** 	 */
1772:Api\core\src/vl53l0x_api_core.c **** 	peakSignalRate_kcps = (totalSignalRate_mcps * 1000);
 6136              		.loc 1 1772 0
 6137 00b6 3B69     		ldr	r3, [r7, #16]
 6138 00b8 FA22     		movs	r2, #250
 6139 00ba 9200     		lsls	r2, r2, #2
 6140 00bc 5343     		muls	r3, r2
 6141 00be FB65     		str	r3, [r7, #92]
1773:Api\core\src/vl53l0x_api_core.c **** 	peakSignalRate_kcps = (peakSignalRate_kcps + 0x8000) >> 16;
 6142              		.loc 1 1773 0
 6143 00c0 FB6D     		ldr	r3, [r7, #92]
 6144 00c2 8022     		movs	r2, #128
 6145 00c4 1202     		lsls	r2, r2, #8
 6146 00c6 9446     		mov	ip, r2
 6147 00c8 6344     		add	r3, r3, ip
 6148 00ca 1B0C     		lsrs	r3, r3, #16
 6149 00cc FB65     		str	r3, [r7, #92]
1774:Api\core\src/vl53l0x_api_core.c **** 
ARM GAS  C:\Users\ilya\AppData\Local\Temp\ccAjPEqD.s 			page 141


1775:Api\core\src/vl53l0x_api_core.c **** 	xTalkCompRate_kcps = xTalkCompRate_mcps * 1000;
 6150              		.loc 1 1775 0
 6151 00ce 7B69     		ldr	r3, [r7, #20]
 6152 00d0 FA22     		movs	r2, #250
 6153 00d2 9200     		lsls	r2, r2, #2
 6154 00d4 5343     		muls	r3, r2
 6155 00d6 A022     		movs	r2, #160
 6156 00d8 BA18     		adds	r2, r7, r2
 6157 00da 1360     		str	r3, [r2]
1776:Api\core\src/vl53l0x_api_core.c **** 
1777:Api\core\src/vl53l0x_api_core.c **** 	if (xTalkCompRate_kcps > cMaxXTalk_kcps)
 6158              		.loc 1 1777 0
 6159 00dc A023     		movs	r3, #160
 6160 00de FB18     		adds	r3, r7, r3
 6161 00e0 1A68     		ldr	r2, [r3]
 6162 00e2 FB6E     		ldr	r3, [r7, #108]
 6163 00e4 9A42     		cmp	r2, r3
 6164 00e6 03D9     		bls	.L207
1778:Api\core\src/vl53l0x_api_core.c **** 		xTalkCompRate_kcps = cMaxXTalk_kcps;
 6165              		.loc 1 1778 0
 6166 00e8 FB6E     		ldr	r3, [r7, #108]
 6167 00ea A022     		movs	r2, #160
 6168 00ec BA18     		adds	r2, r7, r2
 6169 00ee 1360     		str	r3, [r2]
 6170              	.L207:
1779:Api\core\src/vl53l0x_api_core.c **** 
1780:Api\core\src/vl53l0x_api_core.c **** 	if (Status == VL53L0X_ERROR_NONE) {
 6171              		.loc 1 1780 0
 6172 00f0 9F23     		movs	r3, #159
 6173 00f2 FB18     		adds	r3, r7, r3
 6174 00f4 1B78     		ldrb	r3, [r3]
 6175 00f6 5BB2     		sxtb	r3, r3
 6176 00f8 002B     		cmp	r3, #0
 6177 00fa 00D0     		beq	.LCB5482
 6178 00fc 84E0     		b	.L208	@long jump
 6179              	.LCB5482:
1781:Api\core\src/vl53l0x_api_core.c **** 
1782:Api\core\src/vl53l0x_api_core.c **** 		/* Calculate final range macro periods */
1783:Api\core\src/vl53l0x_api_core.c **** 		finalRangeTimeoutMicroSecs = VL53L0X_GETDEVICESPECIFICPARAMETER(
 6180              		.loc 1 1783 0
 6181 00fe FB68     		ldr	r3, [r7, #12]
 6182 0100 DC22     		movs	r2, #220
 6183 0102 9B58     		ldr	r3, [r3, r2]
 6184 0104 B822     		movs	r2, #184
 6185 0106 BA18     		adds	r2, r7, r2
 6186 0108 1360     		str	r3, [r2]
1784:Api\core\src/vl53l0x_api_core.c **** 			Dev, FinalRangeTimeoutMicroSecs);
1785:Api\core\src/vl53l0x_api_core.c **** 
1786:Api\core\src/vl53l0x_api_core.c **** 		finalRangeVcselPCLKS = VL53L0X_GETDEVICESPECIFICPARAMETER(
 6187              		.loc 1 1786 0
 6188 010a 5B23     		movs	r3, #91
 6189 010c FB18     		adds	r3, r7, r3
 6190 010e FA68     		ldr	r2, [r7, #12]
 6191 0110 E021     		movs	r1, #224
 6192 0112 525C     		ldrb	r2, [r2, r1]
 6193 0114 1A70     		strb	r2, [r3]
1787:Api\core\src/vl53l0x_api_core.c **** 			Dev, FinalRangeVcselPulsePeriod);
ARM GAS  C:\Users\ilya\AppData\Local\Temp\ccAjPEqD.s 			page 142


1788:Api\core\src/vl53l0x_api_core.c **** 
1789:Api\core\src/vl53l0x_api_core.c **** 		finalRangeMacroPCLKS = VL53L0X_calc_timeout_mclks(
 6194              		.loc 1 1789 0
 6195 0116 5B23     		movs	r3, #91
 6196 0118 FB18     		adds	r3, r7, r3
 6197 011a 1A78     		ldrb	r2, [r3]
 6198 011c B823     		movs	r3, #184
 6199 011e FB18     		adds	r3, r7, r3
 6200 0120 1968     		ldr	r1, [r3]
 6201 0122 FB68     		ldr	r3, [r7, #12]
 6202 0124 1800     		movs	r0, r3
 6203 0126 FFF7FEFF 		bl	VL53L0X_calc_timeout_mclks
 6204 012a 0300     		movs	r3, r0
 6205 012c 7B65     		str	r3, [r7, #84]
1790:Api\core\src/vl53l0x_api_core.c **** 			Dev, finalRangeTimeoutMicroSecs, finalRangeVcselPCLKS);
1791:Api\core\src/vl53l0x_api_core.c **** 
1792:Api\core\src/vl53l0x_api_core.c **** 		/* Calculate pre-range macro periods */
1793:Api\core\src/vl53l0x_api_core.c **** 		preRangeTimeoutMicroSecs = VL53L0X_GETDEVICESPECIFICPARAMETER(
 6206              		.loc 1 1793 0
 6207 012e FB68     		ldr	r3, [r7, #12]
 6208 0130 E422     		movs	r2, #228
 6209 0132 9B58     		ldr	r3, [r3, r2]
 6210 0134 B422     		movs	r2, #180
 6211 0136 BA18     		adds	r2, r7, r2
 6212 0138 1360     		str	r3, [r2]
1794:Api\core\src/vl53l0x_api_core.c **** 			Dev, PreRangeTimeoutMicroSecs);
1795:Api\core\src/vl53l0x_api_core.c **** 
1796:Api\core\src/vl53l0x_api_core.c **** 		preRangeVcselPCLKS = VL53L0X_GETDEVICESPECIFICPARAMETER(
 6213              		.loc 1 1796 0
 6214 013a 5323     		movs	r3, #83
 6215 013c FB18     		adds	r3, r7, r3
 6216 013e FA68     		ldr	r2, [r7, #12]
 6217 0140 E821     		movs	r1, #232
 6218 0142 525C     		ldrb	r2, [r2, r1]
 6219 0144 1A70     		strb	r2, [r3]
1797:Api\core\src/vl53l0x_api_core.c **** 			Dev, PreRangeVcselPulsePeriod);
1798:Api\core\src/vl53l0x_api_core.c **** 
1799:Api\core\src/vl53l0x_api_core.c **** 		preRangeMacroPCLKS = VL53L0X_calc_timeout_mclks(
 6220              		.loc 1 1799 0
 6221 0146 5323     		movs	r3, #83
 6222 0148 FB18     		adds	r3, r7, r3
 6223 014a 1A78     		ldrb	r2, [r3]
 6224 014c B423     		movs	r3, #180
 6225 014e FB18     		adds	r3, r7, r3
 6226 0150 1968     		ldr	r1, [r3]
 6227 0152 FB68     		ldr	r3, [r7, #12]
 6228 0154 1800     		movs	r0, r3
 6229 0156 FFF7FEFF 		bl	VL53L0X_calc_timeout_mclks
 6230 015a 0300     		movs	r3, r0
 6231 015c FB64     		str	r3, [r7, #76]
1800:Api\core\src/vl53l0x_api_core.c **** 			Dev, preRangeTimeoutMicroSecs, preRangeVcselPCLKS);
1801:Api\core\src/vl53l0x_api_core.c **** 
1802:Api\core\src/vl53l0x_api_core.c **** 		vcselWidth = 3;
 6232              		.loc 1 1802 0
 6233 015e 0323     		movs	r3, #3
 6234 0160 9822     		movs	r2, #152
 6235 0162 BA18     		adds	r2, r7, r2
ARM GAS  C:\Users\ilya\AppData\Local\Temp\ccAjPEqD.s 			page 143


 6236 0164 1360     		str	r3, [r2]
1803:Api\core\src/vl53l0x_api_core.c **** 		if (finalRangeVcselPCLKS == 8)
 6237              		.loc 1 1803 0
 6238 0166 5B23     		movs	r3, #91
 6239 0168 FB18     		adds	r3, r7, r3
 6240 016a 1B78     		ldrb	r3, [r3]
 6241 016c 082B     		cmp	r3, #8
 6242 016e 03D1     		bne	.L209
1804:Api\core\src/vl53l0x_api_core.c **** 			vcselWidth = 2;
 6243              		.loc 1 1804 0
 6244 0170 0223     		movs	r3, #2
 6245 0172 9822     		movs	r2, #152
 6246 0174 BA18     		adds	r2, r7, r2
 6247 0176 1360     		str	r3, [r2]
 6248              	.L209:
1805:Api\core\src/vl53l0x_api_core.c **** 
1806:Api\core\src/vl53l0x_api_core.c **** 
1807:Api\core\src/vl53l0x_api_core.c **** 		peakVcselDuration_us = vcselWidth * 2048 *
1808:Api\core\src/vl53l0x_api_core.c **** 			(preRangeMacroPCLKS + finalRangeMacroPCLKS);
 6249              		.loc 1 1808 0
 6250 0178 FA6C     		ldr	r2, [r7, #76]
 6251 017a 7B6D     		ldr	r3, [r7, #84]
 6252 017c D318     		adds	r3, r2, r3
1807:Api\core\src/vl53l0x_api_core.c **** 			(preRangeMacroPCLKS + finalRangeMacroPCLKS);
 6253              		.loc 1 1807 0
 6254 017e 9822     		movs	r2, #152
 6255 0180 BA18     		adds	r2, r7, r2
 6256 0182 1268     		ldr	r2, [r2]
 6257 0184 5343     		muls	r3, r2
 6258 0186 DB02     		lsls	r3, r3, #11
 6259 0188 9422     		movs	r2, #148
 6260 018a BA18     		adds	r2, r7, r2
 6261 018c 1360     		str	r3, [r2]
1809:Api\core\src/vl53l0x_api_core.c **** 		peakVcselDuration_us = (peakVcselDuration_us + 500)/1000;
 6262              		.loc 1 1809 0
 6263 018e 9423     		movs	r3, #148
 6264 0190 FB18     		adds	r3, r7, r3
 6265 0192 1B68     		ldr	r3, [r3]
 6266 0194 F533     		adds	r3, r3, #245
 6267 0196 FF33     		adds	r3, r3, #255
 6268 0198 1A00     		movs	r2, r3
 6269 019a FA23     		movs	r3, #250
 6270 019c 9900     		lsls	r1, r3, #2
 6271 019e 1000     		movs	r0, r2
 6272 01a0 FFF7FEFF 		bl	__aeabi_uidiv
 6273 01a4 0300     		movs	r3, r0
 6274 01a6 9422     		movs	r2, #148
 6275 01a8 BA18     		adds	r2, r7, r2
 6276 01aa 1360     		str	r3, [r2]
1810:Api\core\src/vl53l0x_api_core.c **** 		peakVcselDuration_us *= cPllPeriod_ps;
 6277              		.loc 1 1810 0
 6278 01ac 9423     		movs	r3, #148
 6279 01ae FB18     		adds	r3, r7, r3
 6280 01b0 1B68     		ldr	r3, [r3]
 6281 01b2 BA6E     		ldr	r2, [r7, #104]
 6282 01b4 5343     		muls	r3, r2
 6283 01b6 9422     		movs	r2, #148
ARM GAS  C:\Users\ilya\AppData\Local\Temp\ccAjPEqD.s 			page 144


 6284 01b8 BA18     		adds	r2, r7, r2
 6285 01ba 1360     		str	r3, [r2]
1811:Api\core\src/vl53l0x_api_core.c **** 		peakVcselDuration_us = (peakVcselDuration_us + 500)/1000;
 6286              		.loc 1 1811 0
 6287 01bc 9423     		movs	r3, #148
 6288 01be FB18     		adds	r3, r7, r3
 6289 01c0 1B68     		ldr	r3, [r3]
 6290 01c2 F533     		adds	r3, r3, #245
 6291 01c4 FF33     		adds	r3, r3, #255
 6292 01c6 1A00     		movs	r2, r3
 6293 01c8 FA23     		movs	r3, #250
 6294 01ca 9900     		lsls	r1, r3, #2
 6295 01cc 1000     		movs	r0, r2
 6296 01ce FFF7FEFF 		bl	__aeabi_uidiv
 6297 01d2 0300     		movs	r3, r0
 6298 01d4 9422     		movs	r2, #148
 6299 01d6 BA18     		adds	r2, r7, r2
 6300 01d8 1360     		str	r3, [r2]
1812:Api\core\src/vl53l0x_api_core.c **** 
1813:Api\core\src/vl53l0x_api_core.c **** 		/* Fix1616 >> 8 = Fix2408 */
1814:Api\core\src/vl53l0x_api_core.c **** 		totalSignalRate_mcps = (totalSignalRate_mcps + 0x80) >> 8;
 6301              		.loc 1 1814 0
 6302 01da 3B69     		ldr	r3, [r7, #16]
 6303 01dc 8033     		adds	r3, r3, #128
 6304 01de 1B0A     		lsrs	r3, r3, #8
 6305 01e0 3B61     		str	r3, [r7, #16]
1815:Api\core\src/vl53l0x_api_core.c **** 
1816:Api\core\src/vl53l0x_api_core.c **** 		/* Fix2408 * uint32 = Fix2408 */
1817:Api\core\src/vl53l0x_api_core.c **** 		vcselTotalEventsRtn = totalSignalRate_mcps *
 6306              		.loc 1 1817 0
 6307 01e2 3B69     		ldr	r3, [r7, #16]
 6308 01e4 9422     		movs	r2, #148
 6309 01e6 BA18     		adds	r2, r7, r2
 6310 01e8 1268     		ldr	r2, [r2]
 6311 01ea 5343     		muls	r3, r2
 6312 01ec BC22     		movs	r2, #188
 6313 01ee BA18     		adds	r2, r7, r2
 6314 01f0 1360     		str	r3, [r2]
1818:Api\core\src/vl53l0x_api_core.c **** 			peakVcselDuration_us;
1819:Api\core\src/vl53l0x_api_core.c **** 
1820:Api\core\src/vl53l0x_api_core.c **** 		/* Fix2408 >> 8 = uint32 */
1821:Api\core\src/vl53l0x_api_core.c **** 		vcselTotalEventsRtn = (vcselTotalEventsRtn + 0x80) >> 8;
 6315              		.loc 1 1821 0
 6316 01f2 BC23     		movs	r3, #188
 6317 01f4 FB18     		adds	r3, r7, r3
 6318 01f6 1B68     		ldr	r3, [r3]
 6319 01f8 8033     		adds	r3, r3, #128
 6320 01fa 1B0A     		lsrs	r3, r3, #8
 6321 01fc BC22     		movs	r2, #188
 6322 01fe BA18     		adds	r2, r7, r2
 6323 0200 1360     		str	r3, [r2]
1822:Api\core\src/vl53l0x_api_core.c **** 
1823:Api\core\src/vl53l0x_api_core.c **** 		/* Fix2408 << 8 = Fix1616 = */
1824:Api\core\src/vl53l0x_api_core.c **** 		totalSignalRate_mcps <<= 8;
 6324              		.loc 1 1824 0
 6325 0202 3B69     		ldr	r3, [r7, #16]
 6326 0204 1B02     		lsls	r3, r3, #8
ARM GAS  C:\Users\ilya\AppData\Local\Temp\ccAjPEqD.s 			page 145


 6327 0206 3B61     		str	r3, [r7, #16]
 6328              	.L208:
1825:Api\core\src/vl53l0x_api_core.c **** 	}
1826:Api\core\src/vl53l0x_api_core.c **** 
1827:Api\core\src/vl53l0x_api_core.c **** 	if (Status != VL53L0X_ERROR_NONE) {
 6329              		.loc 1 1827 0
 6330 0208 9F23     		movs	r3, #159
 6331 020a FB18     		adds	r3, r7, r3
 6332 020c 1B78     		ldrb	r3, [r3]
 6333 020e 5BB2     		sxtb	r3, r3
 6334 0210 002B     		cmp	r3, #0
 6335 0212 04D0     		beq	.L210
1828:Api\core\src/vl53l0x_api_core.c **** 		LOG_FUNCTION_END(Status);
1829:Api\core\src/vl53l0x_api_core.c **** 		return Status;
 6336              		.loc 1 1829 0
 6337 0214 9F23     		movs	r3, #159
 6338 0216 FB18     		adds	r3, r7, r3
 6339 0218 1B78     		ldrb	r3, [r3]
 6340 021a 5BB2     		sxtb	r3, r3
 6341 021c B8E1     		b	.L221
 6342              	.L210:
1830:Api\core\src/vl53l0x_api_core.c **** 	}
1831:Api\core\src/vl53l0x_api_core.c **** 
1832:Api\core\src/vl53l0x_api_core.c **** 	if (peakSignalRate_kcps == 0) {
 6343              		.loc 1 1832 0
 6344 021e FB6D     		ldr	r3, [r7, #92]
 6345 0220 002B     		cmp	r3, #0
 6346 0222 0FD1     		bne	.L212
1833:Api\core\src/vl53l0x_api_core.c **** 		*pSigmaEstimate = cSigmaEstMax;
 6347              		.loc 1 1833 0
 6348 0224 7B68     		ldr	r3, [r7, #4]
 6349 0226 8022     		movs	r2, #128
 6350 0228 BA18     		adds	r2, r7, r2
 6351 022a 1268     		ldr	r2, [r2]
 6352 022c 1A60     		str	r2, [r3]
1834:Api\core\src/vl53l0x_api_core.c **** 		PALDevDataSet(Dev, SigmaEstimate, cSigmaEstMax);
 6353              		.loc 1 1834 0
 6354 022e FA68     		ldr	r2, [r7, #12]
 6355 0230 A023     		movs	r3, #160
 6356 0232 5B00     		lsls	r3, r3, #1
 6357 0234 8021     		movs	r1, #128
 6358 0236 7918     		adds	r1, r7, r1
 6359 0238 0968     		ldr	r1, [r1]
 6360 023a D150     		str	r1, [r2, r3]
1835:Api\core\src/vl53l0x_api_core.c **** 		*pDmax_mm = 0;
 6361              		.loc 1 1835 0
 6362 023c 3B68     		ldr	r3, [r7]
 6363 023e 0022     		movs	r2, #0
 6364 0240 1A60     		str	r2, [r3]
 6365 0242 A1E1     		b	.L213
 6366              	.L212:
1836:Api\core\src/vl53l0x_api_core.c **** 	} else {
1837:Api\core\src/vl53l0x_api_core.c **** 		if (vcselTotalEventsRtn < 1)
 6367              		.loc 1 1837 0
 6368 0244 BC23     		movs	r3, #188
 6369 0246 FB18     		adds	r3, r7, r3
 6370 0248 1B68     		ldr	r3, [r3]
ARM GAS  C:\Users\ilya\AppData\Local\Temp\ccAjPEqD.s 			page 146


 6371 024a 002B     		cmp	r3, #0
 6372 024c 03D1     		bne	.L214
1838:Api\core\src/vl53l0x_api_core.c **** 			vcselTotalEventsRtn = 1;
 6373              		.loc 1 1838 0
 6374 024e 0123     		movs	r3, #1
 6375 0250 BC22     		movs	r2, #188
 6376 0252 BA18     		adds	r2, r7, r2
 6377 0254 1360     		str	r3, [r2]
 6378              	.L214:
1839:Api\core\src/vl53l0x_api_core.c **** 
1840:Api\core\src/vl53l0x_api_core.c **** 		sigmaEstimateP1 = cPulseEffectiveWidth_centi_ns;
 6379              		.loc 1 1840 0
 6380 0256 9023     		movs	r3, #144
 6381 0258 FB18     		adds	r3, r7, r3
 6382 025a 1B68     		ldr	r3, [r3]
 6383 025c BB64     		str	r3, [r7, #72]
1841:Api\core\src/vl53l0x_api_core.c **** 
1842:Api\core\src/vl53l0x_api_core.c **** 		/* ((FixPoint1616 << 16)* uint32)/uint32 = FixPoint1616 */
1843:Api\core\src/vl53l0x_api_core.c **** 		sigmaEstimateP2 = (ambientRate_kcps << 16)/peakSignalRate_kcps;
 6384              		.loc 1 1843 0
 6385 025e 7B6E     		ldr	r3, [r7, #100]
 6386 0260 1B04     		lsls	r3, r3, #16
 6387 0262 F96D     		ldr	r1, [r7, #92]
 6388 0264 1800     		movs	r0, r3
 6389 0266 FFF7FEFF 		bl	__aeabi_uidiv
 6390 026a 0300     		movs	r3, r0
 6391 026c B022     		movs	r2, #176
 6392 026e BA18     		adds	r2, r7, r2
 6393 0270 1360     		str	r3, [r2]
1844:Api\core\src/vl53l0x_api_core.c **** 		if (sigmaEstimateP2 > cAmbToSignalRatioMax) {
 6394              		.loc 1 1844 0
 6395 0272 B023     		movs	r3, #176
 6396 0274 FB18     		adds	r3, r7, r3
 6397 0276 1A68     		ldr	r2, [r3]
 6398 0278 BB6F     		ldr	r3, [r7, #120]
 6399 027a 9A42     		cmp	r2, r3
 6400 027c 03D9     		bls	.L215
1845:Api\core\src/vl53l0x_api_core.c **** 			/* Clip to prevent overflow. Will ensure safe
1846:Api\core\src/vl53l0x_api_core.c **** 			 * max result. */
1847:Api\core\src/vl53l0x_api_core.c **** 			sigmaEstimateP2 = cAmbToSignalRatioMax;
 6401              		.loc 1 1847 0
 6402 027e BB6F     		ldr	r3, [r7, #120]
 6403 0280 B022     		movs	r2, #176
 6404 0282 BA18     		adds	r2, r7, r2
 6405 0284 1360     		str	r3, [r2]
 6406              	.L215:
1848:Api\core\src/vl53l0x_api_core.c **** 		}
1849:Api\core\src/vl53l0x_api_core.c **** 		sigmaEstimateP2 *= cAmbientEffectiveWidth_centi_ns;
 6407              		.loc 1 1849 0
 6408 0286 B023     		movs	r3, #176
 6409 0288 FB18     		adds	r3, r7, r3
 6410 028a 1B68     		ldr	r3, [r3]
 6411 028c 8C22     		movs	r2, #140
 6412 028e BA18     		adds	r2, r7, r2
 6413 0290 1268     		ldr	r2, [r2]
 6414 0292 5343     		muls	r3, r2
 6415 0294 B022     		movs	r2, #176
ARM GAS  C:\Users\ilya\AppData\Local\Temp\ccAjPEqD.s 			page 147


 6416 0296 BA18     		adds	r2, r7, r2
 6417 0298 1360     		str	r3, [r2]
1850:Api\core\src/vl53l0x_api_core.c **** 
1851:Api\core\src/vl53l0x_api_core.c **** 		sigmaEstimateP3 = 2 * VL53L0X_isqrt(vcselTotalEventsRtn * 12);
 6418              		.loc 1 1851 0
 6419 029a BC23     		movs	r3, #188
 6420 029c FB18     		adds	r3, r7, r3
 6421 029e 1A68     		ldr	r2, [r3]
 6422 02a0 1300     		movs	r3, r2
 6423 02a2 5B00     		lsls	r3, r3, #1
 6424 02a4 9B18     		adds	r3, r3, r2
 6425 02a6 9B00     		lsls	r3, r3, #2
 6426 02a8 1800     		movs	r0, r3
 6427 02aa FFF7FEFF 		bl	VL53L0X_isqrt
 6428 02ae 0300     		movs	r3, r0
 6429 02b0 5B00     		lsls	r3, r3, #1
 6430 02b2 7B64     		str	r3, [r7, #68]
1852:Api\core\src/vl53l0x_api_core.c **** 
1853:Api\core\src/vl53l0x_api_core.c **** 		/* uint32 * FixPoint1616 = FixPoint1616 */
1854:Api\core\src/vl53l0x_api_core.c **** 		deltaT_ps = pRangingMeasurementData->RangeMilliMeter *
 6431              		.loc 1 1854 0
 6432 02b4 BB68     		ldr	r3, [r7, #8]
 6433 02b6 1B89     		ldrh	r3, [r3, #8]
 6434 02b8 1A00     		movs	r2, r3
 6435 02ba 7B6F     		ldr	r3, [r7, #116]
 6436 02bc 5343     		muls	r3, r2
 6437 02be 3B64     		str	r3, [r7, #64]
1855:Api\core\src/vl53l0x_api_core.c **** 					cTOF_per_mm_ps;
1856:Api\core\src/vl53l0x_api_core.c **** 
1857:Api\core\src/vl53l0x_api_core.c **** 		/*
1858:Api\core\src/vl53l0x_api_core.c **** 		 * vcselRate - xtalkCompRate
1859:Api\core\src/vl53l0x_api_core.c **** 		 * (uint32 << 16) - FixPoint1616 = FixPoint1616.
1860:Api\core\src/vl53l0x_api_core.c **** 		 * Divide result by 1000 to convert to mcps.
1861:Api\core\src/vl53l0x_api_core.c **** 		 * 500 is added to ensure rounding when integer division
1862:Api\core\src/vl53l0x_api_core.c **** 		 * truncates.
1863:Api\core\src/vl53l0x_api_core.c **** 		 */
1864:Api\core\src/vl53l0x_api_core.c **** 		diff1_mcps = (((peakSignalRate_kcps << 16) -
 6438              		.loc 1 1864 0
 6439 02c0 FB6D     		ldr	r3, [r7, #92]
 6440 02c2 1A04     		lsls	r2, r3, #16
1865:Api\core\src/vl53l0x_api_core.c **** 			2 * xTalkCompRate_kcps) + 500)/1000;
 6441              		.loc 1 1865 0
 6442 02c4 A023     		movs	r3, #160
 6443 02c6 FB18     		adds	r3, r7, r3
 6444 02c8 1B68     		ldr	r3, [r3]
 6445 02ca 5B00     		lsls	r3, r3, #1
1864:Api\core\src/vl53l0x_api_core.c **** 			2 * xTalkCompRate_kcps) + 500)/1000;
 6446              		.loc 1 1864 0
 6447 02cc D31A     		subs	r3, r2, r3
 6448              		.loc 1 1865 0
 6449 02ce F533     		adds	r3, r3, #245
 6450 02d0 FF33     		adds	r3, r3, #255
 6451 02d2 1A00     		movs	r2, r3
1864:Api\core\src/vl53l0x_api_core.c **** 			2 * xTalkCompRate_kcps) + 500)/1000;
 6452              		.loc 1 1864 0
 6453 02d4 FA23     		movs	r3, #250
 6454 02d6 9900     		lsls	r1, r3, #2
ARM GAS  C:\Users\ilya\AppData\Local\Temp\ccAjPEqD.s 			page 148


 6455 02d8 1000     		movs	r0, r2
 6456 02da FFF7FEFF 		bl	__aeabi_uidiv
 6457 02de 0300     		movs	r3, r0
 6458 02e0 FB63     		str	r3, [r7, #60]
1866:Api\core\src/vl53l0x_api_core.c **** 
1867:Api\core\src/vl53l0x_api_core.c **** 		/* vcselRate + xtalkCompRate */
1868:Api\core\src/vl53l0x_api_core.c **** 		diff2_mcps = ((peakSignalRate_kcps << 16) + 500)/1000;
 6459              		.loc 1 1868 0
 6460 02e2 FB6D     		ldr	r3, [r7, #92]
 6461 02e4 1B04     		lsls	r3, r3, #16
 6462 02e6 F533     		adds	r3, r3, #245
 6463 02e8 FF33     		adds	r3, r3, #255
 6464 02ea 1A00     		movs	r2, r3
 6465 02ec FA23     		movs	r3, #250
 6466 02ee 9900     		lsls	r1, r3, #2
 6467 02f0 1000     		movs	r0, r2
 6468 02f2 FFF7FEFF 		bl	__aeabi_uidiv
 6469 02f6 0300     		movs	r3, r0
 6470 02f8 BB63     		str	r3, [r7, #56]
1869:Api\core\src/vl53l0x_api_core.c **** 
1870:Api\core\src/vl53l0x_api_core.c **** 		/* Shift by 8 bits to increase resolution prior to the
1871:Api\core\src/vl53l0x_api_core.c **** 		 * division */
1872:Api\core\src/vl53l0x_api_core.c **** 		diff1_mcps <<= 8;
 6471              		.loc 1 1872 0
 6472 02fa FB6B     		ldr	r3, [r7, #60]
 6473 02fc 1B02     		lsls	r3, r3, #8
 6474 02fe FB63     		str	r3, [r7, #60]
1873:Api\core\src/vl53l0x_api_core.c **** 
1874:Api\core\src/vl53l0x_api_core.c **** 		/* FixPoint0824/FixPoint1616 = FixPoint2408 */
1875:Api\core\src/vl53l0x_api_core.c **** 		xTalkCorrection	 = abs(diff1_mcps/diff2_mcps);
 6475              		.loc 1 1875 0
 6476 0300 B96B     		ldr	r1, [r7, #56]
 6477 0302 F86B     		ldr	r0, [r7, #60]
 6478 0304 FFF7FEFF 		bl	__aeabi_uidiv
 6479 0308 0300     		movs	r3, r0
 6480 030a DA17     		asrs	r2, r3, #31
 6481 030c 9B18     		adds	r3, r3, r2
 6482 030e 5340     		eors	r3, r2
 6483 0310 7B63     		str	r3, [r7, #52]
1876:Api\core\src/vl53l0x_api_core.c **** 
1877:Api\core\src/vl53l0x_api_core.c **** 		/* FixPoint2408 << 8 = FixPoint1616 */
1878:Api\core\src/vl53l0x_api_core.c **** 		xTalkCorrection <<= 8;
 6484              		.loc 1 1878 0
 6485 0312 7B6B     		ldr	r3, [r7, #52]
 6486 0314 1B02     		lsls	r3, r3, #8
 6487 0316 7B63     		str	r3, [r7, #52]
1879:Api\core\src/vl53l0x_api_core.c **** 
1880:Api\core\src/vl53l0x_api_core.c **** 		if(pRangingMeasurementData->RangeStatus != 0){
 6488              		.loc 1 1880 0
 6489 0318 BB68     		ldr	r3, [r7, #8]
 6490 031a 1B7E     		ldrb	r3, [r3, #24]
 6491 031c 002B     		cmp	r3, #0
 6492 031e 0DD0     		beq	.L216
1881:Api\core\src/vl53l0x_api_core.c **** 			pwMult = 1 << 16;
 6493              		.loc 1 1881 0
 6494 0320 8023     		movs	r3, #128
 6495 0322 5B02     		lsls	r3, r3, #9
ARM GAS  C:\Users\ilya\AppData\Local\Temp\ccAjPEqD.s 			page 149


 6496 0324 AC22     		movs	r2, #172
 6497 0326 BA18     		adds	r2, r7, r2
 6498 0328 1360     		str	r3, [r2]
 6499 032a 47E0     		b	.L217
 6500              	.L223:
 6501              		.align	2
 6502              	.L222:
 6503 032c 5C120000 		.word	4700
 6504 0330 AE878F02 		.word	42960814
 6505 0334 9A990600 		.word	432538
 6506 0338 77060000 		.word	1655
 6507              	.L216:
1882:Api\core\src/vl53l0x_api_core.c **** 		} else {
1883:Api\core\src/vl53l0x_api_core.c **** 			/* FixPoint1616/uint32 = FixPoint1616 */
1884:Api\core\src/vl53l0x_api_core.c **** 			pwMult = deltaT_ps/cVcselPulseWidth_ps; /* smaller than 1.0f */
 6508              		.loc 1 1884 0
 6509 033c 8423     		movs	r3, #132
 6510 033e FB18     		adds	r3, r7, r3
 6511 0340 1968     		ldr	r1, [r3]
 6512 0342 386C     		ldr	r0, [r7, #64]
 6513 0344 FFF7FEFF 		bl	__aeabi_uidiv
 6514 0348 0300     		movs	r3, r0
 6515 034a AC22     		movs	r2, #172
 6516 034c BA18     		adds	r2, r7, r2
 6517 034e 1360     		str	r3, [r2]
1885:Api\core\src/vl53l0x_api_core.c **** 
1886:Api\core\src/vl53l0x_api_core.c **** 			/*
1887:Api\core\src/vl53l0x_api_core.c **** 			 * FixPoint1616 * FixPoint1616 = FixPoint3232, however both
1888:Api\core\src/vl53l0x_api_core.c **** 			 * values are small enough such that32 bits will not be
1889:Api\core\src/vl53l0x_api_core.c **** 			 * exceeded.
1890:Api\core\src/vl53l0x_api_core.c **** 			 */
1891:Api\core\src/vl53l0x_api_core.c **** 			pwMult *= ((1 << 16) - xTalkCorrection);
 6518              		.loc 1 1891 0
 6519 0350 7B6B     		ldr	r3, [r7, #52]
 6520 0352 8022     		movs	r2, #128
 6521 0354 5202     		lsls	r2, r2, #9
 6522 0356 D21A     		subs	r2, r2, r3
 6523 0358 AC23     		movs	r3, #172
 6524 035a FB18     		adds	r3, r7, r3
 6525 035c 1B68     		ldr	r3, [r3]
 6526 035e 5343     		muls	r3, r2
 6527 0360 AC22     		movs	r2, #172
 6528 0362 BA18     		adds	r2, r7, r2
 6529 0364 1360     		str	r3, [r2]
1892:Api\core\src/vl53l0x_api_core.c **** 
1893:Api\core\src/vl53l0x_api_core.c **** 			/* (FixPoint3232 >> 16) = FixPoint1616 */
1894:Api\core\src/vl53l0x_api_core.c **** 			pwMult =  (pwMult + c16BitRoundingParam) >> 16;
 6530              		.loc 1 1894 0
 6531 0366 AC23     		movs	r3, #172
 6532 0368 FB18     		adds	r3, r7, r3
 6533 036a 1A68     		ldr	r2, [r3]
 6534 036c 3B6F     		ldr	r3, [r7, #112]
 6535 036e D318     		adds	r3, r2, r3
 6536 0370 1B0C     		lsrs	r3, r3, #16
 6537 0372 AC22     		movs	r2, #172
 6538 0374 BA18     		adds	r2, r7, r2
 6539 0376 1360     		str	r3, [r2]
ARM GAS  C:\Users\ilya\AppData\Local\Temp\ccAjPEqD.s 			page 150


1895:Api\core\src/vl53l0x_api_core.c **** 
1896:Api\core\src/vl53l0x_api_core.c **** 			/* FixPoint1616 + FixPoint1616 = FixPoint1616 */
1897:Api\core\src/vl53l0x_api_core.c **** 			pwMult += (1 << 16);
 6540              		.loc 1 1897 0
 6541 0378 AC23     		movs	r3, #172
 6542 037a FB18     		adds	r3, r7, r3
 6543 037c 1B68     		ldr	r3, [r3]
 6544 037e 8022     		movs	r2, #128
 6545 0380 5202     		lsls	r2, r2, #9
 6546 0382 9446     		mov	ip, r2
 6547 0384 6344     		add	r3, r3, ip
 6548 0386 AC22     		movs	r2, #172
 6549 0388 BA18     		adds	r2, r7, r2
 6550 038a 1360     		str	r3, [r2]
1898:Api\core\src/vl53l0x_api_core.c **** 
1899:Api\core\src/vl53l0x_api_core.c **** 			/*
1900:Api\core\src/vl53l0x_api_core.c **** 			 * At this point the value will be 1.xx, therefore if we square
1901:Api\core\src/vl53l0x_api_core.c **** 			 * the value this will exceed 32 bits. To address this perform
1902:Api\core\src/vl53l0x_api_core.c **** 			 * a single shift to the right before the multiplication.
1903:Api\core\src/vl53l0x_api_core.c **** 			 */
1904:Api\core\src/vl53l0x_api_core.c **** 			pwMult >>= 1;
 6551              		.loc 1 1904 0
 6552 038c AC23     		movs	r3, #172
 6553 038e FB18     		adds	r3, r7, r3
 6554 0390 1B68     		ldr	r3, [r3]
 6555 0392 5B08     		lsrs	r3, r3, #1
 6556 0394 AC22     		movs	r2, #172
 6557 0396 BA18     		adds	r2, r7, r2
 6558 0398 1360     		str	r3, [r2]
1905:Api\core\src/vl53l0x_api_core.c **** 			/* FixPoint1715 * FixPoint1715 = FixPoint3430 */
1906:Api\core\src/vl53l0x_api_core.c **** 			pwMult = pwMult * pwMult;
 6559              		.loc 1 1906 0
 6560 039a AC23     		movs	r3, #172
 6561 039c FB18     		adds	r3, r7, r3
 6562 039e 1B68     		ldr	r3, [r3]
 6563 03a0 AC22     		movs	r2, #172
 6564 03a2 BA18     		adds	r2, r7, r2
 6565 03a4 1268     		ldr	r2, [r2]
 6566 03a6 5343     		muls	r3, r2
 6567 03a8 AC22     		movs	r2, #172
 6568 03aa BA18     		adds	r2, r7, r2
 6569 03ac 1360     		str	r3, [r2]
1907:Api\core\src/vl53l0x_api_core.c **** 
1908:Api\core\src/vl53l0x_api_core.c **** 			/* (FixPoint3430 >> 14) = Fix1616 */
1909:Api\core\src/vl53l0x_api_core.c **** 			pwMult >>= 14;
 6570              		.loc 1 1909 0
 6571 03ae AC23     		movs	r3, #172
 6572 03b0 FB18     		adds	r3, r7, r3
 6573 03b2 1B68     		ldr	r3, [r3]
 6574 03b4 9B0B     		lsrs	r3, r3, #14
 6575 03b6 AC22     		movs	r2, #172
 6576 03b8 BA18     		adds	r2, r7, r2
 6577 03ba 1360     		str	r3, [r2]
 6578              	.L217:
1910:Api\core\src/vl53l0x_api_core.c **** 		}
1911:Api\core\src/vl53l0x_api_core.c **** 
1912:Api\core\src/vl53l0x_api_core.c **** 		/* FixPoint1616 * uint32 = FixPoint1616 */
ARM GAS  C:\Users\ilya\AppData\Local\Temp\ccAjPEqD.s 			page 151


1913:Api\core\src/vl53l0x_api_core.c **** 		sqr1 = pwMult * sigmaEstimateP1;
 6579              		.loc 1 1913 0
 6580 03bc AC23     		movs	r3, #172
 6581 03be FB18     		adds	r3, r7, r3
 6582 03c0 1B68     		ldr	r3, [r3]
 6583 03c2 BA6C     		ldr	r2, [r7, #72]
 6584 03c4 5343     		muls	r3, r2
 6585 03c6 3B63     		str	r3, [r7, #48]
1914:Api\core\src/vl53l0x_api_core.c **** 
1915:Api\core\src/vl53l0x_api_core.c **** 		/* (FixPoint1616 >> 16) = FixPoint3200 */
1916:Api\core\src/vl53l0x_api_core.c **** 		sqr1 = (sqr1 + 0x8000) >> 16;
 6586              		.loc 1 1916 0
 6587 03c8 3B6B     		ldr	r3, [r7, #48]
 6588 03ca 8022     		movs	r2, #128
 6589 03cc 1202     		lsls	r2, r2, #8
 6590 03ce 9446     		mov	ip, r2
 6591 03d0 6344     		add	r3, r3, ip
 6592 03d2 1B0C     		lsrs	r3, r3, #16
 6593 03d4 3B63     		str	r3, [r7, #48]
1917:Api\core\src/vl53l0x_api_core.c **** 
1918:Api\core\src/vl53l0x_api_core.c **** 		/* FixPoint3200 * FixPoint3200 = FixPoint6400 */
1919:Api\core\src/vl53l0x_api_core.c **** 		sqr1 *= sqr1;
 6594              		.loc 1 1919 0
 6595 03d6 3B6B     		ldr	r3, [r7, #48]
 6596 03d8 3A6B     		ldr	r2, [r7, #48]
 6597 03da 5343     		muls	r3, r2
 6598 03dc 3B63     		str	r3, [r7, #48]
1920:Api\core\src/vl53l0x_api_core.c **** 
1921:Api\core\src/vl53l0x_api_core.c **** 		sqr2 = sigmaEstimateP2;
 6599              		.loc 1 1921 0
 6600 03de B023     		movs	r3, #176
 6601 03e0 FB18     		adds	r3, r7, r3
 6602 03e2 1B68     		ldr	r3, [r3]
 6603 03e4 FB62     		str	r3, [r7, #44]
1922:Api\core\src/vl53l0x_api_core.c **** 
1923:Api\core\src/vl53l0x_api_core.c **** 		/* (FixPoint1616 >> 16) = FixPoint3200 */
1924:Api\core\src/vl53l0x_api_core.c **** 		sqr2 = (sqr2 + 0x8000) >> 16;
 6604              		.loc 1 1924 0
 6605 03e6 FB6A     		ldr	r3, [r7, #44]
 6606 03e8 8022     		movs	r2, #128
 6607 03ea 1202     		lsls	r2, r2, #8
 6608 03ec 9446     		mov	ip, r2
 6609 03ee 6344     		add	r3, r3, ip
 6610 03f0 1B0C     		lsrs	r3, r3, #16
 6611 03f2 FB62     		str	r3, [r7, #44]
1925:Api\core\src/vl53l0x_api_core.c **** 
1926:Api\core\src/vl53l0x_api_core.c **** 		/* FixPoint3200 * FixPoint3200 = FixPoint6400 */
1927:Api\core\src/vl53l0x_api_core.c **** 		sqr2 *= sqr2;
 6612              		.loc 1 1927 0
 6613 03f4 FB6A     		ldr	r3, [r7, #44]
 6614 03f6 FA6A     		ldr	r2, [r7, #44]
 6615 03f8 5343     		muls	r3, r2
 6616 03fa FB62     		str	r3, [r7, #44]
1928:Api\core\src/vl53l0x_api_core.c **** 
1929:Api\core\src/vl53l0x_api_core.c **** 		/* FixPoint64000 + FixPoint6400 = FixPoint6400 */
1930:Api\core\src/vl53l0x_api_core.c **** 		sqrSum = sqr1 + sqr2;
 6617              		.loc 1 1930 0
ARM GAS  C:\Users\ilya\AppData\Local\Temp\ccAjPEqD.s 			page 152


 6618 03fc 3A6B     		ldr	r2, [r7, #48]
 6619 03fe FB6A     		ldr	r3, [r7, #44]
 6620 0400 D318     		adds	r3, r2, r3
 6621 0402 BB62     		str	r3, [r7, #40]
1931:Api\core\src/vl53l0x_api_core.c **** 
1932:Api\core\src/vl53l0x_api_core.c **** 		/* SQRT(FixPoin6400) = FixPoint3200 */
1933:Api\core\src/vl53l0x_api_core.c **** 		sqrtResult_centi_ns = VL53L0X_isqrt(sqrSum);
 6622              		.loc 1 1933 0
 6623 0404 BB6A     		ldr	r3, [r7, #40]
 6624 0406 1800     		movs	r0, r3
 6625 0408 FFF7FEFF 		bl	VL53L0X_isqrt
 6626 040c 0300     		movs	r3, r0
 6627 040e 7B62     		str	r3, [r7, #36]
1934:Api\core\src/vl53l0x_api_core.c **** 
1935:Api\core\src/vl53l0x_api_core.c **** 		/* (FixPoint3200 << 16) = FixPoint1616 */
1936:Api\core\src/vl53l0x_api_core.c **** 		sqrtResult_centi_ns <<= 16;
 6628              		.loc 1 1936 0
 6629 0410 7B6A     		ldr	r3, [r7, #36]
 6630 0412 1B04     		lsls	r3, r3, #16
 6631 0414 7B62     		str	r3, [r7, #36]
1937:Api\core\src/vl53l0x_api_core.c **** 
1938:Api\core\src/vl53l0x_api_core.c **** 		/*
1939:Api\core\src/vl53l0x_api_core.c **** 		 * Note that the Speed Of Light is expressed in um per 1E-10
1940:Api\core\src/vl53l0x_api_core.c **** 		 * seconds (2997) Therefore to get mm/ns we have to divide by
1941:Api\core\src/vl53l0x_api_core.c **** 		 * 10000
1942:Api\core\src/vl53l0x_api_core.c **** 		 */
1943:Api\core\src/vl53l0x_api_core.c **** 		sigmaEstRtn = (((sqrtResult_centi_ns+50)/100) /
 6632              		.loc 1 1943 0
 6633 0416 7B6A     		ldr	r3, [r7, #36]
 6634 0418 3233     		adds	r3, r3, #50
 6635 041a 6421     		movs	r1, #100
 6636 041c 1800     		movs	r0, r3
 6637 041e FFF7FEFF 		bl	__aeabi_uidiv
 6638 0422 0300     		movs	r3, r0
 6639 0424 796C     		ldr	r1, [r7, #68]
 6640 0426 1800     		movs	r0, r3
 6641 0428 FFF7FEFF 		bl	__aeabi_uidiv
 6642 042c 0300     		movs	r3, r0
 6643 042e A822     		movs	r2, #168
 6644 0430 BA18     		adds	r2, r7, r2
 6645 0432 1360     		str	r3, [r2]
1944:Api\core\src/vl53l0x_api_core.c **** 				sigmaEstimateP3);
1945:Api\core\src/vl53l0x_api_core.c **** 		sigmaEstRtn		 *= VL53L0X_SPEED_OF_LIGHT_IN_AIR;
 6646              		.loc 1 1945 0
 6647 0434 A823     		movs	r3, #168
 6648 0436 FB18     		adds	r3, r7, r3
 6649 0438 1B68     		ldr	r3, [r3]
 6650 043a 574A     		ldr	r2, .L224
 6651 043c 5343     		muls	r3, r2
 6652 043e A822     		movs	r2, #168
 6653 0440 BA18     		adds	r2, r7, r2
 6654 0442 1360     		str	r3, [r2]
1946:Api\core\src/vl53l0x_api_core.c **** 
1947:Api\core\src/vl53l0x_api_core.c **** 		/* Add 5000 before dividing by 10000 to ensure rounding. */
1948:Api\core\src/vl53l0x_api_core.c **** 		sigmaEstRtn		 += 5000;
 6655              		.loc 1 1948 0
 6656 0444 A823     		movs	r3, #168
ARM GAS  C:\Users\ilya\AppData\Local\Temp\ccAjPEqD.s 			page 153


 6657 0446 FB18     		adds	r3, r7, r3
 6658 0448 1B68     		ldr	r3, [r3]
 6659 044a 544A     		ldr	r2, .L224+4
 6660 044c 9446     		mov	ip, r2
 6661 044e 6344     		add	r3, r3, ip
 6662 0450 A822     		movs	r2, #168
 6663 0452 BA18     		adds	r2, r7, r2
 6664 0454 1360     		str	r3, [r2]
1949:Api\core\src/vl53l0x_api_core.c **** 		sigmaEstRtn		 /= 10000;
 6665              		.loc 1 1949 0
 6666 0456 A823     		movs	r3, #168
 6667 0458 FB18     		adds	r3, r7, r3
 6668 045a 1B68     		ldr	r3, [r3]
 6669 045c 5049     		ldr	r1, .L224+8
 6670 045e 1800     		movs	r0, r3
 6671 0460 FFF7FEFF 		bl	__aeabi_uidiv
 6672 0464 0300     		movs	r3, r0
 6673 0466 A822     		movs	r2, #168
 6674 0468 BA18     		adds	r2, r7, r2
 6675 046a 1360     		str	r3, [r2]
1950:Api\core\src/vl53l0x_api_core.c **** 
1951:Api\core\src/vl53l0x_api_core.c **** 		if (sigmaEstRtn > cSigmaEstRtnMax) {
 6676              		.loc 1 1951 0
 6677 046c A823     		movs	r3, #168
 6678 046e FB18     		adds	r3, r7, r3
 6679 0470 1A68     		ldr	r2, [r3]
 6680 0472 FB6F     		ldr	r3, [r7, #124]
 6681 0474 9A42     		cmp	r2, r3
 6682 0476 03D9     		bls	.L218
1952:Api\core\src/vl53l0x_api_core.c **** 			/* Clip to prevent overflow. Will ensure safe
1953:Api\core\src/vl53l0x_api_core.c **** 			 * max result. */
1954:Api\core\src/vl53l0x_api_core.c **** 			sigmaEstRtn = cSigmaEstRtnMax;
 6683              		.loc 1 1954 0
 6684 0478 FB6F     		ldr	r3, [r7, #124]
 6685 047a A822     		movs	r2, #168
 6686 047c BA18     		adds	r2, r7, r2
 6687 047e 1360     		str	r3, [r2]
 6688              	.L218:
1955:Api\core\src/vl53l0x_api_core.c **** 		}
1956:Api\core\src/vl53l0x_api_core.c **** 		finalRangeIntegrationTimeMilliSecs =
1957:Api\core\src/vl53l0x_api_core.c **** 			(finalRangeTimeoutMicroSecs + preRangeTimeoutMicroSecs + 500)/1000;
 6689              		.loc 1 1957 0
 6690 0480 B823     		movs	r3, #184
 6691 0482 FB18     		adds	r3, r7, r3
 6692 0484 1A68     		ldr	r2, [r3]
 6693 0486 B423     		movs	r3, #180
 6694 0488 FB18     		adds	r3, r7, r3
 6695 048a 1B68     		ldr	r3, [r3]
 6696 048c D318     		adds	r3, r2, r3
 6697 048e F533     		adds	r3, r3, #245
 6698 0490 FF33     		adds	r3, r3, #255
 6699 0492 1A00     		movs	r2, r3
1956:Api\core\src/vl53l0x_api_core.c **** 			(finalRangeTimeoutMicroSecs + preRangeTimeoutMicroSecs + 500)/1000;
 6700              		.loc 1 1956 0
 6701 0494 FA23     		movs	r3, #250
 6702 0496 9900     		lsls	r1, r3, #2
 6703 0498 1000     		movs	r0, r2
ARM GAS  C:\Users\ilya\AppData\Local\Temp\ccAjPEqD.s 			page 154


 6704 049a FFF7FEFF 		bl	__aeabi_uidiv
 6705 049e 0300     		movs	r3, r0
 6706 04a0 3B62     		str	r3, [r7, #32]
1958:Api\core\src/vl53l0x_api_core.c **** 
1959:Api\core\src/vl53l0x_api_core.c **** 		/* sigmaEstRef = 1mm * 25ms/final range integration time (inc pre-range)
1960:Api\core\src/vl53l0x_api_core.c **** 		 * sqrt(FixPoint1616/int) = FixPoint2408)
1961:Api\core\src/vl53l0x_api_core.c **** 		 */
1962:Api\core\src/vl53l0x_api_core.c **** 		sigmaEstRef =
1963:Api\core\src/vl53l0x_api_core.c **** 			VL53L0X_isqrt((cDfltFinalRangeIntegrationTimeMilliSecs +
1964:Api\core\src/vl53l0x_api_core.c **** 				finalRangeIntegrationTimeMilliSecs/2)/
 6707              		.loc 1 1964 0
 6708 04a2 3B6A     		ldr	r3, [r7, #32]
 6709 04a4 5A08     		lsrs	r2, r3, #1
1963:Api\core\src/vl53l0x_api_core.c **** 				finalRangeIntegrationTimeMilliSecs/2)/
 6710              		.loc 1 1963 0
 6711 04a6 8823     		movs	r3, #136
 6712 04a8 FB18     		adds	r3, r7, r3
 6713 04aa 1B68     		ldr	r3, [r3]
 6714 04ac D318     		adds	r3, r2, r3
 6715 04ae 396A     		ldr	r1, [r7, #32]
 6716 04b0 1800     		movs	r0, r3
 6717 04b2 FFF7FEFF 		bl	__aeabi_uidiv
 6718 04b6 0300     		movs	r3, r0
1962:Api\core\src/vl53l0x_api_core.c **** 			VL53L0X_isqrt((cDfltFinalRangeIntegrationTimeMilliSecs +
 6719              		.loc 1 1962 0
 6720 04b8 1800     		movs	r0, r3
 6721 04ba FFF7FEFF 		bl	VL53L0X_isqrt
 6722 04be 0300     		movs	r3, r0
 6723 04c0 FB61     		str	r3, [r7, #28]
1965:Api\core\src/vl53l0x_api_core.c **** 				finalRangeIntegrationTimeMilliSecs);
1966:Api\core\src/vl53l0x_api_core.c **** 
1967:Api\core\src/vl53l0x_api_core.c **** 		/* FixPoint2408 << 8 = FixPoint1616 */
1968:Api\core\src/vl53l0x_api_core.c **** 		sigmaEstRef <<= 8;
 6724              		.loc 1 1968 0
 6725 04c2 FB69     		ldr	r3, [r7, #28]
 6726 04c4 1B02     		lsls	r3, r3, #8
 6727 04c6 FB61     		str	r3, [r7, #28]
1969:Api\core\src/vl53l0x_api_core.c **** 		sigmaEstRef = (sigmaEstRef + 500)/1000;
 6728              		.loc 1 1969 0
 6729 04c8 FB69     		ldr	r3, [r7, #28]
 6730 04ca F533     		adds	r3, r3, #245
 6731 04cc FF33     		adds	r3, r3, #255
 6732 04ce 1A00     		movs	r2, r3
 6733 04d0 FA23     		movs	r3, #250
 6734 04d2 9900     		lsls	r1, r3, #2
 6735 04d4 1000     		movs	r0, r2
 6736 04d6 FFF7FEFF 		bl	__aeabi_uidiv
 6737 04da 0300     		movs	r3, r0
 6738 04dc FB61     		str	r3, [r7, #28]
1970:Api\core\src/vl53l0x_api_core.c **** 
1971:Api\core\src/vl53l0x_api_core.c **** 		/* FixPoint1616 * FixPoint1616 = FixPoint3232 */
1972:Api\core\src/vl53l0x_api_core.c **** 		sqr1 = sigmaEstRtn * sigmaEstRtn;
 6739              		.loc 1 1972 0
 6740 04de A823     		movs	r3, #168
 6741 04e0 FB18     		adds	r3, r7, r3
 6742 04e2 1B68     		ldr	r3, [r3]
 6743 04e4 A822     		movs	r2, #168
ARM GAS  C:\Users\ilya\AppData\Local\Temp\ccAjPEqD.s 			page 155


 6744 04e6 BA18     		adds	r2, r7, r2
 6745 04e8 1268     		ldr	r2, [r2]
 6746 04ea 5343     		muls	r3, r2
 6747 04ec 3B63     		str	r3, [r7, #48]
1973:Api\core\src/vl53l0x_api_core.c **** 		/* FixPoint1616 * FixPoint1616 = FixPoint3232 */
1974:Api\core\src/vl53l0x_api_core.c **** 		sqr2 = sigmaEstRef * sigmaEstRef;
 6748              		.loc 1 1974 0
 6749 04ee FB69     		ldr	r3, [r7, #28]
 6750 04f0 FA69     		ldr	r2, [r7, #28]
 6751 04f2 5343     		muls	r3, r2
 6752 04f4 FB62     		str	r3, [r7, #44]
1975:Api\core\src/vl53l0x_api_core.c **** 
1976:Api\core\src/vl53l0x_api_core.c **** 		/* sqrt(FixPoint3232) = FixPoint1616 */
1977:Api\core\src/vl53l0x_api_core.c **** 		sqrtResult = VL53L0X_isqrt((sqr1 + sqr2));
 6753              		.loc 1 1977 0
 6754 04f6 3A6B     		ldr	r2, [r7, #48]
 6755 04f8 FB6A     		ldr	r3, [r7, #44]
 6756 04fa D318     		adds	r3, r2, r3
 6757 04fc 1800     		movs	r0, r3
 6758 04fe FFF7FEFF 		bl	VL53L0X_isqrt
 6759 0502 0300     		movs	r3, r0
 6760 0504 BB61     		str	r3, [r7, #24]
1978:Api\core\src/vl53l0x_api_core.c **** 		/*
1979:Api\core\src/vl53l0x_api_core.c **** 		 * Note that the Shift by 4 bits increases resolution prior to
1980:Api\core\src/vl53l0x_api_core.c **** 		 * the sqrt, therefore the result must be shifted by 2 bits to
1981:Api\core\src/vl53l0x_api_core.c **** 		 * the right to revert back to the FixPoint1616 format.
1982:Api\core\src/vl53l0x_api_core.c **** 		 */
1983:Api\core\src/vl53l0x_api_core.c **** 
1984:Api\core\src/vl53l0x_api_core.c **** 		sigmaEstimate	 = 1000 * sqrtResult;
 6761              		.loc 1 1984 0
 6762 0506 BB69     		ldr	r3, [r7, #24]
 6763 0508 FA22     		movs	r2, #250
 6764 050a 9200     		lsls	r2, r2, #2
 6765 050c 5343     		muls	r3, r2
 6766 050e A422     		movs	r2, #164
 6767 0510 BA18     		adds	r2, r7, r2
 6768 0512 1360     		str	r3, [r2]
1985:Api\core\src/vl53l0x_api_core.c **** 
1986:Api\core\src/vl53l0x_api_core.c **** 		if ((peakSignalRate_kcps < 1) || (vcselTotalEventsRtn < 1) ||
 6769              		.loc 1 1986 0
 6770 0514 FB6D     		ldr	r3, [r7, #92]
 6771 0516 002B     		cmp	r3, #0
 6772 0518 0CD0     		beq	.L219
 6773              		.loc 1 1986 0 is_stmt 0 discriminator 1
 6774 051a BC23     		movs	r3, #188
 6775 051c FB18     		adds	r3, r7, r3
 6776 051e 1B68     		ldr	r3, [r3]
 6777 0520 002B     		cmp	r3, #0
 6778 0522 07D0     		beq	.L219
 6779              		.loc 1 1986 0 discriminator 2
 6780 0524 A423     		movs	r3, #164
 6781 0526 FB18     		adds	r3, r7, r3
 6782 0528 1A68     		ldr	r2, [r3]
 6783 052a 8023     		movs	r3, #128
 6784 052c FB18     		adds	r3, r7, r3
 6785 052e 1B68     		ldr	r3, [r3]
 6786 0530 9A42     		cmp	r2, r3
ARM GAS  C:\Users\ilya\AppData\Local\Temp\ccAjPEqD.s 			page 156


 6787 0532 05D9     		bls	.L220
 6788              	.L219:
1987:Api\core\src/vl53l0x_api_core.c **** 				(sigmaEstimate > cSigmaEstMax)) {
1988:Api\core\src/vl53l0x_api_core.c **** 				sigmaEstimate = cSigmaEstMax;
 6789              		.loc 1 1988 0 is_stmt 1
 6790 0534 8023     		movs	r3, #128
 6791 0536 FB18     		adds	r3, r7, r3
 6792 0538 1B68     		ldr	r3, [r3]
 6793 053a A422     		movs	r2, #164
 6794 053c BA18     		adds	r2, r7, r2
 6795 053e 1360     		str	r3, [r2]
 6796              	.L220:
1989:Api\core\src/vl53l0x_api_core.c **** 		}
1990:Api\core\src/vl53l0x_api_core.c **** 
1991:Api\core\src/vl53l0x_api_core.c **** 		*pSigmaEstimate = (uint32_t)(sigmaEstimate);
 6797              		.loc 1 1991 0
 6798 0540 7B68     		ldr	r3, [r7, #4]
 6799 0542 A422     		movs	r2, #164
 6800 0544 BA18     		adds	r2, r7, r2
 6801 0546 1268     		ldr	r2, [r2]
 6802 0548 1A60     		str	r2, [r3]
1992:Api\core\src/vl53l0x_api_core.c **** 		PALDevDataSet(Dev, SigmaEstimate, *pSigmaEstimate);
 6803              		.loc 1 1992 0
 6804 054a 7B68     		ldr	r3, [r7, #4]
 6805 054c 1968     		ldr	r1, [r3]
 6806 054e FA68     		ldr	r2, [r7, #12]
 6807 0550 A023     		movs	r3, #160
 6808 0552 5B00     		lsls	r3, r3, #1
 6809 0554 D150     		str	r1, [r2, r3]
1993:Api\core\src/vl53l0x_api_core.c **** 		Status = VL53L0X_calc_dmax(
 6810              		.loc 1 1993 0
 6811 0556 3969     		ldr	r1, [r7, #16]
 6812 0558 9F23     		movs	r3, #159
 6813 055a FC18     		adds	r4, r7, r3
 6814 055c AC23     		movs	r3, #172
 6815 055e FB18     		adds	r3, r7, r3
 6816 0560 1D68     		ldr	r5, [r3]
 6817 0562 3A6E     		ldr	r2, [r7, #96]
 6818 0564 F868     		ldr	r0, [r7, #12]
 6819 0566 3B68     		ldr	r3, [r7]
 6820 0568 0393     		str	r3, [sp, #12]
 6821 056a 9423     		movs	r3, #148
 6822 056c FB18     		adds	r3, r7, r3
 6823 056e 1B68     		ldr	r3, [r3]
 6824 0570 0293     		str	r3, [sp, #8]
 6825 0572 B023     		movs	r3, #176
 6826 0574 FB18     		adds	r3, r7, r3
 6827 0576 1B68     		ldr	r3, [r3]
 6828 0578 0193     		str	r3, [sp, #4]
 6829 057a BB6C     		ldr	r3, [r7, #72]
 6830 057c 0093     		str	r3, [sp]
 6831 057e 2B00     		movs	r3, r5
 6832 0580 FFF7FEFF 		bl	VL53L0X_calc_dmax
 6833 0584 0300     		movs	r3, r0
 6834 0586 2370     		strb	r3, [r4]
 6835              	.L213:
1994:Api\core\src/vl53l0x_api_core.c **** 			Dev,
ARM GAS  C:\Users\ilya\AppData\Local\Temp\ccAjPEqD.s 			page 157


1995:Api\core\src/vl53l0x_api_core.c **** 			totalSignalRate_mcps,
1996:Api\core\src/vl53l0x_api_core.c **** 			correctedSignalRate_mcps,
1997:Api\core\src/vl53l0x_api_core.c **** 			pwMult,
1998:Api\core\src/vl53l0x_api_core.c **** 			sigmaEstimateP1,
1999:Api\core\src/vl53l0x_api_core.c **** 			sigmaEstimateP2,
2000:Api\core\src/vl53l0x_api_core.c **** 			peakVcselDuration_us,
2001:Api\core\src/vl53l0x_api_core.c **** 			pDmax_mm);
2002:Api\core\src/vl53l0x_api_core.c **** 	}
2003:Api\core\src/vl53l0x_api_core.c **** 
2004:Api\core\src/vl53l0x_api_core.c **** 	LOG_FUNCTION_END(Status);
2005:Api\core\src/vl53l0x_api_core.c **** 	return Status;
 6836              		.loc 1 2005 0
 6837 0588 9F23     		movs	r3, #159
 6838 058a FB18     		adds	r3, r7, r3
 6839 058c 1B78     		ldrb	r3, [r3]
 6840 058e 5BB2     		sxtb	r3, r3
 6841              	.L221:
2006:Api\core\src/vl53l0x_api_core.c **** }
 6842              		.loc 1 2006 0 discriminator 1
 6843 0590 1800     		movs	r0, r3
 6844 0592 BD46     		mov	sp, r7
 6845 0594 30B0     		add	sp, sp, #192
 6846              		@ sp needed
 6847 0596 B0BD     		pop	{r4, r5, r7, pc}
 6848              	.L225:
 6849              		.align	2
 6850              	.L224:
 6851 0598 B50B0000 		.word	2997
 6852 059c 88130000 		.word	5000
 6853 05a0 10270000 		.word	10000
 6854              		.cfi_endproc
 6855              	.LFE24:
 6856              		.size	VL53L0X_calc_sigma_estimate, .-VL53L0X_calc_sigma_estimate
 6857              		.section	.text.VL53L0X_get_pal_range_status,"ax",%progbits
 6858              		.align	2
 6859              		.global	VL53L0X_get_pal_range_status
 6860              		.code	16
 6861              		.thumb_func
 6862              		.type	VL53L0X_get_pal_range_status, %function
 6863              	VL53L0X_get_pal_range_status:
 6864              	.LFB25:
2007:Api\core\src/vl53l0x_api_core.c **** 
2008:Api\core\src/vl53l0x_api_core.c **** VL53L0X_Error VL53L0X_get_pal_range_status(VL53L0X_DEV Dev,
2009:Api\core\src/vl53l0x_api_core.c **** 		uint8_t DeviceRangeStatus,
2010:Api\core\src/vl53l0x_api_core.c **** 		FixPoint1616_t SignalRate,
2011:Api\core\src/vl53l0x_api_core.c **** 		uint16_t EffectiveSpadRtnCount,
2012:Api\core\src/vl53l0x_api_core.c **** 		VL53L0X_RangingMeasurementData_t *pRangingMeasurementData,
2013:Api\core\src/vl53l0x_api_core.c **** 		uint8_t *pPalRangeStatus)
2014:Api\core\src/vl53l0x_api_core.c **** {
 6865              		.loc 1 2014 0
 6866              		.cfi_startproc
 6867              		@ args = 8, pretend = 0, frame = 64
 6868              		@ frame_needed = 1, uses_anonymous_args = 0
 6869 0000 90B5     		push	{r4, r7, lr}
 6870              		.cfi_def_cfa_offset 12
 6871              		.cfi_offset 4, -12
 6872              		.cfi_offset 7, -8
ARM GAS  C:\Users\ilya\AppData\Local\Temp\ccAjPEqD.s 			page 158


 6873              		.cfi_offset 14, -4
 6874 0002 91B0     		sub	sp, sp, #68
 6875              		.cfi_def_cfa_offset 80
 6876 0004 00AF     		add	r7, sp, #0
 6877              		.cfi_def_cfa_register 7
 6878 0006 F860     		str	r0, [r7, #12]
 6879 0008 0800     		movs	r0, r1
 6880 000a 7A60     		str	r2, [r7, #4]
 6881 000c 1900     		movs	r1, r3
 6882 000e 0B23     		movs	r3, #11
 6883 0010 FB18     		adds	r3, r7, r3
 6884 0012 021C     		adds	r2, r0, #0
 6885 0014 1A70     		strb	r2, [r3]
 6886 0016 0823     		movs	r3, #8
 6887 0018 FB18     		adds	r3, r7, r3
 6888 001a 0A1C     		adds	r2, r1, #0
 6889 001c 1A80     		strh	r2, [r3]
2015:Api\core\src/vl53l0x_api_core.c **** 	VL53L0X_Error Status = VL53L0X_ERROR_NONE;
 6890              		.loc 1 2015 0
 6891 001e 3F23     		movs	r3, #63
 6892 0020 FB18     		adds	r3, r7, r3
 6893 0022 0022     		movs	r2, #0
 6894 0024 1A70     		strb	r2, [r3]
2016:Api\core\src/vl53l0x_api_core.c **** 	uint8_t NoneFlag;
2017:Api\core\src/vl53l0x_api_core.c **** 	uint8_t SigmaLimitflag = 0;
 6895              		.loc 1 2017 0
 6896 0026 3D23     		movs	r3, #61
 6897 0028 FB18     		adds	r3, r7, r3
 6898 002a 0022     		movs	r2, #0
 6899 002c 1A70     		strb	r2, [r3]
2018:Api\core\src/vl53l0x_api_core.c **** 	uint8_t SignalRefClipflag = 0;
 6900              		.loc 1 2018 0
 6901 002e 3C23     		movs	r3, #60
 6902 0030 FB18     		adds	r3, r7, r3
 6903 0032 0022     		movs	r2, #0
 6904 0034 1A70     		strb	r2, [r3]
2019:Api\core\src/vl53l0x_api_core.c **** 	uint8_t RangeIgnoreThresholdflag = 0;
 6905              		.loc 1 2019 0
 6906 0036 3B23     		movs	r3, #59
 6907 0038 FB18     		adds	r3, r7, r3
 6908 003a 0022     		movs	r2, #0
 6909 003c 1A70     		strb	r2, [r3]
2020:Api\core\src/vl53l0x_api_core.c **** 	uint8_t SigmaLimitCheckEnable = 0;
 6910              		.loc 1 2020 0
 6911 003e 2B23     		movs	r3, #43
 6912 0040 FB18     		adds	r3, r7, r3
 6913 0042 0022     		movs	r2, #0
 6914 0044 1A70     		strb	r2, [r3]
2021:Api\core\src/vl53l0x_api_core.c **** 	uint8_t SignalRateFinalRangeLimitCheckEnable = 0;
 6915              		.loc 1 2021 0
 6916 0046 2A23     		movs	r3, #42
 6917 0048 FB18     		adds	r3, r7, r3
 6918 004a 0022     		movs	r2, #0
 6919 004c 1A70     		strb	r2, [r3]
2022:Api\core\src/vl53l0x_api_core.c **** 	uint8_t SignalRefClipLimitCheckEnable = 0;
 6920              		.loc 1 2022 0
 6921 004e 2923     		movs	r3, #41
ARM GAS  C:\Users\ilya\AppData\Local\Temp\ccAjPEqD.s 			page 159


 6922 0050 FB18     		adds	r3, r7, r3
 6923 0052 0022     		movs	r2, #0
 6924 0054 1A70     		strb	r2, [r3]
2023:Api\core\src/vl53l0x_api_core.c **** 	uint8_t RangeIgnoreThresholdLimitCheckEnable = 0;
 6925              		.loc 1 2023 0
 6926 0056 2823     		movs	r3, #40
 6927 0058 FB18     		adds	r3, r7, r3
 6928 005a 0022     		movs	r2, #0
 6929 005c 1A70     		strb	r2, [r3]
2024:Api\core\src/vl53l0x_api_core.c **** 	FixPoint1616_t SigmaEstimate;
2025:Api\core\src/vl53l0x_api_core.c **** 	FixPoint1616_t SigmaLimitValue;
2026:Api\core\src/vl53l0x_api_core.c **** 	FixPoint1616_t SignalRefClipValue;
2027:Api\core\src/vl53l0x_api_core.c **** 	FixPoint1616_t RangeIgnoreThresholdValue;
2028:Api\core\src/vl53l0x_api_core.c **** 	FixPoint1616_t SignalRatePerSpad;
2029:Api\core\src/vl53l0x_api_core.c **** 	uint8_t DeviceRangeStatusInternal = 0;
 6930              		.loc 1 2029 0
 6931 005e 3223     		movs	r3, #50
 6932 0060 FB18     		adds	r3, r7, r3
 6933 0062 0022     		movs	r2, #0
 6934 0064 1A70     		strb	r2, [r3]
2030:Api\core\src/vl53l0x_api_core.c **** 	uint16_t tmpWord = 0;
 6935              		.loc 1 2030 0
 6936 0066 1623     		movs	r3, #22
 6937 0068 FB18     		adds	r3, r7, r3
 6938 006a 0022     		movs	r2, #0
 6939 006c 1A80     		strh	r2, [r3]
2031:Api\core\src/vl53l0x_api_core.c **** 	uint8_t Temp8;
2032:Api\core\src/vl53l0x_api_core.c **** 	uint32_t Dmax_mm = 0;
 6940              		.loc 1 2032 0
 6941 006e 0023     		movs	r3, #0
 6942 0070 3B61     		str	r3, [r7, #16]
2033:Api\core\src/vl53l0x_api_core.c **** 	FixPoint1616_t LastSignalRefMcps;
2034:Api\core\src/vl53l0x_api_core.c **** 
2035:Api\core\src/vl53l0x_api_core.c **** 	LOG_FUNCTION_START("");
2036:Api\core\src/vl53l0x_api_core.c **** 
2037:Api\core\src/vl53l0x_api_core.c **** 
2038:Api\core\src/vl53l0x_api_core.c **** 	/*
2039:Api\core\src/vl53l0x_api_core.c **** 	 * VL53L0X has a good ranging when the value of the
2040:Api\core\src/vl53l0x_api_core.c **** 	 * DeviceRangeStatus = 11. This function will replace the value 0 with
2041:Api\core\src/vl53l0x_api_core.c **** 	 * the value 11 in the DeviceRangeStatus.
2042:Api\core\src/vl53l0x_api_core.c **** 	 * In addition, the SigmaEstimator is not included in the VL53L0X
2043:Api\core\src/vl53l0x_api_core.c **** 	 * DeviceRangeStatus, this will be added in the PalRangeStatus.
2044:Api\core\src/vl53l0x_api_core.c **** 	 */
2045:Api\core\src/vl53l0x_api_core.c **** 
2046:Api\core\src/vl53l0x_api_core.c **** 	DeviceRangeStatusInternal = ((DeviceRangeStatus & 0x78) >> 3);
 6943              		.loc 1 2046 0
 6944 0072 0B23     		movs	r3, #11
 6945 0074 FB18     		adds	r3, r7, r3
 6946 0076 1B78     		ldrb	r3, [r3]
 6947 0078 DB10     		asrs	r3, r3, #3
 6948 007a DAB2     		uxtb	r2, r3
 6949 007c 3223     		movs	r3, #50
 6950 007e FB18     		adds	r3, r7, r3
 6951 0080 0F21     		movs	r1, #15
 6952 0082 0A40     		ands	r2, r1
 6953 0084 1A70     		strb	r2, [r3]
2047:Api\core\src/vl53l0x_api_core.c **** 
ARM GAS  C:\Users\ilya\AppData\Local\Temp\ccAjPEqD.s 			page 160


2048:Api\core\src/vl53l0x_api_core.c **** 	if (DeviceRangeStatusInternal == 0 ||
 6954              		.loc 1 2048 0
 6955 0086 3223     		movs	r3, #50
 6956 0088 FB18     		adds	r3, r7, r3
 6957 008a 1B78     		ldrb	r3, [r3]
 6958 008c 002B     		cmp	r3, #0
 6959 008e 1DD0     		beq	.L227
 6960              		.loc 1 2048 0 is_stmt 0 discriminator 1
 6961 0090 3223     		movs	r3, #50
 6962 0092 FB18     		adds	r3, r7, r3
 6963 0094 1B78     		ldrb	r3, [r3]
 6964 0096 052B     		cmp	r3, #5
 6965 0098 18D0     		beq	.L227
2049:Api\core\src/vl53l0x_api_core.c **** 		DeviceRangeStatusInternal == 5 ||
 6966              		.loc 1 2049 0 is_stmt 1
 6967 009a 3223     		movs	r3, #50
 6968 009c FB18     		adds	r3, r7, r3
 6969 009e 1B78     		ldrb	r3, [r3]
 6970 00a0 072B     		cmp	r3, #7
 6971 00a2 13D0     		beq	.L227
2050:Api\core\src/vl53l0x_api_core.c **** 		DeviceRangeStatusInternal == 7 ||
 6972              		.loc 1 2050 0
 6973 00a4 3223     		movs	r3, #50
 6974 00a6 FB18     		adds	r3, r7, r3
 6975 00a8 1B78     		ldrb	r3, [r3]
 6976 00aa 0C2B     		cmp	r3, #12
 6977 00ac 0ED0     		beq	.L227
2051:Api\core\src/vl53l0x_api_core.c **** 		DeviceRangeStatusInternal == 12 ||
 6978              		.loc 1 2051 0
 6979 00ae 3223     		movs	r3, #50
 6980 00b0 FB18     		adds	r3, r7, r3
 6981 00b2 1B78     		ldrb	r3, [r3]
 6982 00b4 0D2B     		cmp	r3, #13
 6983 00b6 09D0     		beq	.L227
2052:Api\core\src/vl53l0x_api_core.c **** 		DeviceRangeStatusInternal == 13 ||
 6984              		.loc 1 2052 0
 6985 00b8 3223     		movs	r3, #50
 6986 00ba FB18     		adds	r3, r7, r3
 6987 00bc 1B78     		ldrb	r3, [r3]
 6988 00be 0E2B     		cmp	r3, #14
 6989 00c0 04D0     		beq	.L227
2053:Api\core\src/vl53l0x_api_core.c **** 		DeviceRangeStatusInternal == 14 ||
 6990              		.loc 1 2053 0
 6991 00c2 3223     		movs	r3, #50
 6992 00c4 FB18     		adds	r3, r7, r3
 6993 00c6 1B78     		ldrb	r3, [r3]
 6994 00c8 0F2B     		cmp	r3, #15
 6995 00ca 04D1     		bne	.L228
 6996              	.L227:
2054:Api\core\src/vl53l0x_api_core.c **** 		DeviceRangeStatusInternal == 15
2055:Api\core\src/vl53l0x_api_core.c **** 			) {
2056:Api\core\src/vl53l0x_api_core.c **** 		NoneFlag = 1;
 6997              		.loc 1 2056 0
 6998 00cc 3E23     		movs	r3, #62
 6999 00ce FB18     		adds	r3, r7, r3
 7000 00d0 0122     		movs	r2, #1
 7001 00d2 1A70     		strb	r2, [r3]
ARM GAS  C:\Users\ilya\AppData\Local\Temp\ccAjPEqD.s 			page 161


 7002 00d4 03E0     		b	.L229
 7003              	.L228:
2057:Api\core\src/vl53l0x_api_core.c **** 	} else {
2058:Api\core\src/vl53l0x_api_core.c **** 		NoneFlag = 0;
 7004              		.loc 1 2058 0
 7005 00d6 3E23     		movs	r3, #62
 7006 00d8 FB18     		adds	r3, r7, r3
 7007 00da 0022     		movs	r2, #0
 7008 00dc 1A70     		strb	r2, [r3]
 7009              	.L229:
2059:Api\core\src/vl53l0x_api_core.c **** 	}
2060:Api\core\src/vl53l0x_api_core.c **** 
2061:Api\core\src/vl53l0x_api_core.c **** 	/*
2062:Api\core\src/vl53l0x_api_core.c **** 	 * Check if Sigma limit is enabled, if yes then do comparison with limit
2063:Api\core\src/vl53l0x_api_core.c **** 	 * value and put the result back into pPalRangeStatus.
2064:Api\core\src/vl53l0x_api_core.c **** 	 */
2065:Api\core\src/vl53l0x_api_core.c **** 	if (Status == VL53L0X_ERROR_NONE)
 7010              		.loc 1 2065 0
 7011 00de 3F23     		movs	r3, #63
 7012 00e0 FB18     		adds	r3, r7, r3
 7013 00e2 1B78     		ldrb	r3, [r3]
 7014 00e4 5BB2     		sxtb	r3, r3
 7015 00e6 002B     		cmp	r3, #0
 7016 00e8 0AD1     		bne	.L230
2066:Api\core\src/vl53l0x_api_core.c **** 		Status =  VL53L0X_GetLimitCheckEnable(Dev,
 7017              		.loc 1 2066 0
 7018 00ea 3F23     		movs	r3, #63
 7019 00ec FC18     		adds	r4, r7, r3
 7020 00ee 2B23     		movs	r3, #43
 7021 00f0 FA18     		adds	r2, r7, r3
 7022 00f2 FB68     		ldr	r3, [r7, #12]
 7023 00f4 0021     		movs	r1, #0
 7024 00f6 1800     		movs	r0, r3
 7025 00f8 FFF7FEFF 		bl	VL53L0X_GetLimitCheckEnable
 7026 00fc 0300     		movs	r3, r0
 7027 00fe 2370     		strb	r3, [r4]
 7028              	.L230:
2067:Api\core\src/vl53l0x_api_core.c **** 			VL53L0X_CHECKENABLE_SIGMA_FINAL_RANGE,
2068:Api\core\src/vl53l0x_api_core.c **** 			&SigmaLimitCheckEnable);
2069:Api\core\src/vl53l0x_api_core.c **** 
2070:Api\core\src/vl53l0x_api_core.c **** 	if ((SigmaLimitCheckEnable != 0) && (Status == VL53L0X_ERROR_NONE)) {
 7029              		.loc 1 2070 0
 7030 0100 2B23     		movs	r3, #43
 7031 0102 FB18     		adds	r3, r7, r3
 7032 0104 1B78     		ldrb	r3, [r3]
 7033 0106 002B     		cmp	r3, #0
 7034 0108 37D0     		beq	.L231
 7035              		.loc 1 2070 0 is_stmt 0 discriminator 1
 7036 010a 3F23     		movs	r3, #63
 7037 010c FB18     		adds	r3, r7, r3
 7038 010e 1B78     		ldrb	r3, [r3]
 7039 0110 5BB2     		sxtb	r3, r3
 7040 0112 002B     		cmp	r3, #0
 7041 0114 31D1     		bne	.L231
2071:Api\core\src/vl53l0x_api_core.c **** 		/*
2072:Api\core\src/vl53l0x_api_core.c **** 		* compute the Sigma and check with limit
2073:Api\core\src/vl53l0x_api_core.c **** 		*/
ARM GAS  C:\Users\ilya\AppData\Local\Temp\ccAjPEqD.s 			page 162


2074:Api\core\src/vl53l0x_api_core.c **** 		Status = VL53L0X_calc_sigma_estimate(
 7042              		.loc 1 2074 0 is_stmt 1
 7043 0116 3F23     		movs	r3, #63
 7044 0118 FC18     		adds	r4, r7, r3
 7045 011a 1023     		movs	r3, #16
 7046 011c FB18     		adds	r3, r7, r3
 7047 011e 2422     		movs	r2, #36
 7048 0120 BA18     		adds	r2, r7, r2
 7049 0122 396D     		ldr	r1, [r7, #80]
 7050 0124 F868     		ldr	r0, [r7, #12]
 7051 0126 FFF7FEFF 		bl	VL53L0X_calc_sigma_estimate
 7052 012a 0300     		movs	r3, r0
 7053 012c 2370     		strb	r3, [r4]
2075:Api\core\src/vl53l0x_api_core.c **** 			Dev,
2076:Api\core\src/vl53l0x_api_core.c **** 			pRangingMeasurementData,
2077:Api\core\src/vl53l0x_api_core.c **** 			&SigmaEstimate,
2078:Api\core\src/vl53l0x_api_core.c **** 			&Dmax_mm);
2079:Api\core\src/vl53l0x_api_core.c **** 		if (Status == VL53L0X_ERROR_NONE)
 7054              		.loc 1 2079 0
 7055 012e 3F23     		movs	r3, #63
 7056 0130 FB18     		adds	r3, r7, r3
 7057 0132 1B78     		ldrb	r3, [r3]
 7058 0134 5BB2     		sxtb	r3, r3
 7059 0136 002B     		cmp	r3, #0
 7060 0138 03D1     		bne	.L232
2080:Api\core\src/vl53l0x_api_core.c **** 			pRangingMeasurementData->RangeDMaxMilliMeter = Dmax_mm;
 7061              		.loc 1 2080 0
 7062 013a 3B69     		ldr	r3, [r7, #16]
 7063 013c 9AB2     		uxth	r2, r3
 7064 013e 3B6D     		ldr	r3, [r7, #80]
 7065 0140 5A81     		strh	r2, [r3, #10]
 7066              	.L232:
2081:Api\core\src/vl53l0x_api_core.c **** 
2082:Api\core\src/vl53l0x_api_core.c **** 		if (Status == VL53L0X_ERROR_NONE) {
 7067              		.loc 1 2082 0
 7068 0142 3F23     		movs	r3, #63
 7069 0144 FB18     		adds	r3, r7, r3
 7070 0146 1B78     		ldrb	r3, [r3]
 7071 0148 5BB2     		sxtb	r3, r3
 7072 014a 002B     		cmp	r3, #0
 7073 014c 15D1     		bne	.L231
2083:Api\core\src/vl53l0x_api_core.c **** 			Status = VL53L0X_GetLimitCheckValue(Dev,
 7074              		.loc 1 2083 0
 7075 014e 3F23     		movs	r3, #63
 7076 0150 FC18     		adds	r4, r7, r3
 7077 0152 2023     		movs	r3, #32
 7078 0154 FA18     		adds	r2, r7, r3
 7079 0156 FB68     		ldr	r3, [r7, #12]
 7080 0158 0021     		movs	r1, #0
 7081 015a 1800     		movs	r0, r3
 7082 015c FFF7FEFF 		bl	VL53L0X_GetLimitCheckValue
 7083 0160 0300     		movs	r3, r0
 7084 0162 2370     		strb	r3, [r4]
2084:Api\core\src/vl53l0x_api_core.c **** 				VL53L0X_CHECKENABLE_SIGMA_FINAL_RANGE,
2085:Api\core\src/vl53l0x_api_core.c **** 				&SigmaLimitValue);
2086:Api\core\src/vl53l0x_api_core.c **** 
2087:Api\core\src/vl53l0x_api_core.c **** 			if ((SigmaLimitValue > 0) &&
ARM GAS  C:\Users\ilya\AppData\Local\Temp\ccAjPEqD.s 			page 163


 7085              		.loc 1 2087 0
 7086 0164 3B6A     		ldr	r3, [r7, #32]
 7087 0166 002B     		cmp	r3, #0
 7088 0168 07D0     		beq	.L231
2088:Api\core\src/vl53l0x_api_core.c **** 				(SigmaEstimate > SigmaLimitValue))
 7089              		.loc 1 2088 0 discriminator 1
 7090 016a 7A6A     		ldr	r2, [r7, #36]
 7091 016c 3B6A     		ldr	r3, [r7, #32]
2087:Api\core\src/vl53l0x_api_core.c **** 				(SigmaEstimate > SigmaLimitValue))
 7092              		.loc 1 2087 0 discriminator 1
 7093 016e 9A42     		cmp	r2, r3
 7094 0170 03D9     		bls	.L231
2089:Api\core\src/vl53l0x_api_core.c **** 					/* Limit Fail */
2090:Api\core\src/vl53l0x_api_core.c **** 					SigmaLimitflag = 1;
 7095              		.loc 1 2090 0
 7096 0172 3D23     		movs	r3, #61
 7097 0174 FB18     		adds	r3, r7, r3
 7098 0176 0122     		movs	r2, #1
 7099 0178 1A70     		strb	r2, [r3]
 7100              	.L231:
2091:Api\core\src/vl53l0x_api_core.c **** 		}
2092:Api\core\src/vl53l0x_api_core.c **** 	}
2093:Api\core\src/vl53l0x_api_core.c **** 
2094:Api\core\src/vl53l0x_api_core.c **** 	/*
2095:Api\core\src/vl53l0x_api_core.c **** 	 * Check if Signal ref clip limit is enabled, if yes then do comparison
2096:Api\core\src/vl53l0x_api_core.c **** 	 * with limit value and put the result back into pPalRangeStatus.
2097:Api\core\src/vl53l0x_api_core.c **** 	 */
2098:Api\core\src/vl53l0x_api_core.c **** 	if (Status == VL53L0X_ERROR_NONE)
 7101              		.loc 1 2098 0
 7102 017a 3F23     		movs	r3, #63
 7103 017c FB18     		adds	r3, r7, r3
 7104 017e 1B78     		ldrb	r3, [r3]
 7105 0180 5BB2     		sxtb	r3, r3
 7106 0182 002B     		cmp	r3, #0
 7107 0184 0AD1     		bne	.L233
2099:Api\core\src/vl53l0x_api_core.c **** 		Status =  VL53L0X_GetLimitCheckEnable(Dev,
 7108              		.loc 1 2099 0
 7109 0186 3F23     		movs	r3, #63
 7110 0188 FC18     		adds	r4, r7, r3
 7111 018a 2923     		movs	r3, #41
 7112 018c FA18     		adds	r2, r7, r3
 7113 018e FB68     		ldr	r3, [r7, #12]
 7114 0190 0221     		movs	r1, #2
 7115 0192 1800     		movs	r0, r3
 7116 0194 FFF7FEFF 		bl	VL53L0X_GetLimitCheckEnable
 7117 0198 0300     		movs	r3, r0
 7118 019a 2370     		strb	r3, [r4]
 7119              	.L233:
2100:Api\core\src/vl53l0x_api_core.c **** 				VL53L0X_CHECKENABLE_SIGNAL_REF_CLIP,
2101:Api\core\src/vl53l0x_api_core.c **** 				&SignalRefClipLimitCheckEnable);
2102:Api\core\src/vl53l0x_api_core.c **** 
2103:Api\core\src/vl53l0x_api_core.c **** 	if ((SignalRefClipLimitCheckEnable != 0) &&
 7120              		.loc 1 2103 0
 7121 019c 2923     		movs	r3, #41
 7122 019e FB18     		adds	r3, r7, r3
 7123 01a0 1B78     		ldrb	r3, [r3]
 7124 01a2 002B     		cmp	r3, #0
ARM GAS  C:\Users\ilya\AppData\Local\Temp\ccAjPEqD.s 			page 164


 7125 01a4 56D0     		beq	.L234
 7126              		.loc 1 2103 0 is_stmt 0 discriminator 1
 7127 01a6 3F23     		movs	r3, #63
 7128 01a8 FB18     		adds	r3, r7, r3
 7129 01aa 1B78     		ldrb	r3, [r3]
 7130 01ac 5BB2     		sxtb	r3, r3
 7131 01ae 002B     		cmp	r3, #0
 7132 01b0 50D1     		bne	.L234
2104:Api\core\src/vl53l0x_api_core.c **** 			(Status == VL53L0X_ERROR_NONE)) {
2105:Api\core\src/vl53l0x_api_core.c **** 
2106:Api\core\src/vl53l0x_api_core.c **** 		Status = VL53L0X_GetLimitCheckValue(Dev,
 7133              		.loc 1 2106 0 is_stmt 1
 7134 01b2 3F23     		movs	r3, #63
 7135 01b4 FC18     		adds	r4, r7, r3
 7136 01b6 1C23     		movs	r3, #28
 7137 01b8 FA18     		adds	r2, r7, r3
 7138 01ba FB68     		ldr	r3, [r7, #12]
 7139 01bc 0221     		movs	r1, #2
 7140 01be 1800     		movs	r0, r3
 7141 01c0 FFF7FEFF 		bl	VL53L0X_GetLimitCheckValue
 7142 01c4 0300     		movs	r3, r0
 7143 01c6 2370     		strb	r3, [r4]
2107:Api\core\src/vl53l0x_api_core.c **** 				VL53L0X_CHECKENABLE_SIGNAL_REF_CLIP,
2108:Api\core\src/vl53l0x_api_core.c **** 				&SignalRefClipValue);
2109:Api\core\src/vl53l0x_api_core.c **** 
2110:Api\core\src/vl53l0x_api_core.c **** 		/* Read LastSignalRefMcps from device */
2111:Api\core\src/vl53l0x_api_core.c **** 		if (Status == VL53L0X_ERROR_NONE)
 7144              		.loc 1 2111 0
 7145 01c8 3F23     		movs	r3, #63
 7146 01ca FB18     		adds	r3, r7, r3
 7147 01cc 1B78     		ldrb	r3, [r3]
 7148 01ce 5BB2     		sxtb	r3, r3
 7149 01d0 002B     		cmp	r3, #0
 7150 01d2 09D1     		bne	.L235
2112:Api\core\src/vl53l0x_api_core.c **** 			Status = VL53L0X_WrByte(Dev, 0xFF, 0x01);
 7151              		.loc 1 2112 0
 7152 01d4 3F23     		movs	r3, #63
 7153 01d6 FC18     		adds	r4, r7, r3
 7154 01d8 FB68     		ldr	r3, [r7, #12]
 7155 01da 0122     		movs	r2, #1
 7156 01dc FF21     		movs	r1, #255
 7157 01de 1800     		movs	r0, r3
 7158 01e0 FFF7FEFF 		bl	VL53L0X_WrByte
 7159 01e4 0300     		movs	r3, r0
 7160 01e6 2370     		strb	r3, [r4]
 7161              	.L235:
2113:Api\core\src/vl53l0x_api_core.c **** 
2114:Api\core\src/vl53l0x_api_core.c **** 		if (Status == VL53L0X_ERROR_NONE)
 7162              		.loc 1 2114 0
 7163 01e8 3F23     		movs	r3, #63
 7164 01ea FB18     		adds	r3, r7, r3
 7165 01ec 1B78     		ldrb	r3, [r3]
 7166 01ee 5BB2     		sxtb	r3, r3
 7167 01f0 002B     		cmp	r3, #0
 7168 01f2 0AD1     		bne	.L236
2115:Api\core\src/vl53l0x_api_core.c **** 			Status = VL53L0X_RdWord(Dev,
 7169              		.loc 1 2115 0
ARM GAS  C:\Users\ilya\AppData\Local\Temp\ccAjPEqD.s 			page 165


 7170 01f4 3F23     		movs	r3, #63
 7171 01f6 FC18     		adds	r4, r7, r3
 7172 01f8 1623     		movs	r3, #22
 7173 01fa FA18     		adds	r2, r7, r3
 7174 01fc FB68     		ldr	r3, [r7, #12]
 7175 01fe B621     		movs	r1, #182
 7176 0200 1800     		movs	r0, r3
 7177 0202 FFF7FEFF 		bl	VL53L0X_RdWord
 7178 0206 0300     		movs	r3, r0
 7179 0208 2370     		strb	r3, [r4]
 7180              	.L236:
2116:Api\core\src/vl53l0x_api_core.c **** 				VL53L0X_REG_RESULT_PEAK_SIGNAL_RATE_REF,
2117:Api\core\src/vl53l0x_api_core.c **** 				&tmpWord);
2118:Api\core\src/vl53l0x_api_core.c **** 
2119:Api\core\src/vl53l0x_api_core.c **** 		if (Status == VL53L0X_ERROR_NONE)
 7181              		.loc 1 2119 0
 7182 020a 3F23     		movs	r3, #63
 7183 020c FB18     		adds	r3, r7, r3
 7184 020e 1B78     		ldrb	r3, [r3]
 7185 0210 5BB2     		sxtb	r3, r3
 7186 0212 002B     		cmp	r3, #0
 7187 0214 09D1     		bne	.L237
2120:Api\core\src/vl53l0x_api_core.c **** 			Status = VL53L0X_WrByte(Dev, 0xFF, 0x00);
 7188              		.loc 1 2120 0
 7189 0216 3F23     		movs	r3, #63
 7190 0218 FC18     		adds	r4, r7, r3
 7191 021a FB68     		ldr	r3, [r7, #12]
 7192 021c 0022     		movs	r2, #0
 7193 021e FF21     		movs	r1, #255
 7194 0220 1800     		movs	r0, r3
 7195 0222 FFF7FEFF 		bl	VL53L0X_WrByte
 7196 0226 0300     		movs	r3, r0
 7197 0228 2370     		strb	r3, [r4]
 7198              	.L237:
2121:Api\core\src/vl53l0x_api_core.c **** 
2122:Api\core\src/vl53l0x_api_core.c **** 		LastSignalRefMcps = VL53L0X_FIXPOINT97TOFIXPOINT1616(tmpWord);
 7199              		.loc 1 2122 0
 7200 022a 1623     		movs	r3, #22
 7201 022c FB18     		adds	r3, r7, r3
 7202 022e 1B88     		ldrh	r3, [r3]
 7203 0230 5B02     		lsls	r3, r3, #9
 7204 0232 FB62     		str	r3, [r7, #44]
2123:Api\core\src/vl53l0x_api_core.c **** 		PALDevDataSet(Dev, LastSignalRefMcps, LastSignalRefMcps);
 7205              		.loc 1 2123 0
 7206 0234 FA68     		ldr	r2, [r7, #12]
 7207 0236 A423     		movs	r3, #164
 7208 0238 5B00     		lsls	r3, r3, #1
 7209 023a F96A     		ldr	r1, [r7, #44]
 7210 023c D150     		str	r1, [r2, r3]
2124:Api\core\src/vl53l0x_api_core.c **** 
2125:Api\core\src/vl53l0x_api_core.c **** 		if ((SignalRefClipValue > 0) &&
 7211              		.loc 1 2125 0
 7212 023e FB69     		ldr	r3, [r7, #28]
 7213 0240 002B     		cmp	r3, #0
 7214 0242 07D0     		beq	.L234
2126:Api\core\src/vl53l0x_api_core.c **** 				(LastSignalRefMcps > SignalRefClipValue)) {
 7215              		.loc 1 2126 0 discriminator 1
ARM GAS  C:\Users\ilya\AppData\Local\Temp\ccAjPEqD.s 			page 166


 7216 0244 FB69     		ldr	r3, [r7, #28]
2125:Api\core\src/vl53l0x_api_core.c **** 				(LastSignalRefMcps > SignalRefClipValue)) {
 7217              		.loc 1 2125 0 discriminator 1
 7218 0246 FA6A     		ldr	r2, [r7, #44]
 7219 0248 9A42     		cmp	r2, r3
 7220 024a 03D9     		bls	.L234
2127:Api\core\src/vl53l0x_api_core.c **** 			/* Limit Fail */
2128:Api\core\src/vl53l0x_api_core.c **** 			SignalRefClipflag = 1;
 7221              		.loc 1 2128 0
 7222 024c 3C23     		movs	r3, #60
 7223 024e FB18     		adds	r3, r7, r3
 7224 0250 0122     		movs	r2, #1
 7225 0252 1A70     		strb	r2, [r3]
 7226              	.L234:
2129:Api\core\src/vl53l0x_api_core.c **** 		}
2130:Api\core\src/vl53l0x_api_core.c **** 	}
2131:Api\core\src/vl53l0x_api_core.c **** 
2132:Api\core\src/vl53l0x_api_core.c **** 	/*
2133:Api\core\src/vl53l0x_api_core.c **** 	 * Check if Signal ref clip limit is enabled, if yes then do comparison
2134:Api\core\src/vl53l0x_api_core.c **** 	 * with limit value and put the result back into pPalRangeStatus.
2135:Api\core\src/vl53l0x_api_core.c **** 	 * EffectiveSpadRtnCount has a format 8.8
2136:Api\core\src/vl53l0x_api_core.c **** 	 * If (Return signal rate < (1.5 x Xtalk x number of Spads)) : FAIL
2137:Api\core\src/vl53l0x_api_core.c **** 	 */
2138:Api\core\src/vl53l0x_api_core.c **** 	if (Status == VL53L0X_ERROR_NONE)
 7227              		.loc 1 2138 0
 7228 0254 3F23     		movs	r3, #63
 7229 0256 FB18     		adds	r3, r7, r3
 7230 0258 1B78     		ldrb	r3, [r3]
 7231 025a 5BB2     		sxtb	r3, r3
 7232 025c 002B     		cmp	r3, #0
 7233 025e 0AD1     		bne	.L238
2139:Api\core\src/vl53l0x_api_core.c **** 		Status =  VL53L0X_GetLimitCheckEnable(Dev,
 7234              		.loc 1 2139 0
 7235 0260 3F23     		movs	r3, #63
 7236 0262 FC18     		adds	r4, r7, r3
 7237 0264 2823     		movs	r3, #40
 7238 0266 FA18     		adds	r2, r7, r3
 7239 0268 FB68     		ldr	r3, [r7, #12]
 7240 026a 0321     		movs	r1, #3
 7241 026c 1800     		movs	r0, r3
 7242 026e FFF7FEFF 		bl	VL53L0X_GetLimitCheckEnable
 7243 0272 0300     		movs	r3, r0
 7244 0274 2370     		strb	r3, [r4]
 7245              	.L238:
2140:Api\core\src/vl53l0x_api_core.c **** 				VL53L0X_CHECKENABLE_RANGE_IGNORE_THRESHOLD,
2141:Api\core\src/vl53l0x_api_core.c **** 				&RangeIgnoreThresholdLimitCheckEnable);
2142:Api\core\src/vl53l0x_api_core.c **** 
2143:Api\core\src/vl53l0x_api_core.c **** 	if ((RangeIgnoreThresholdLimitCheckEnable != 0) &&
 7246              		.loc 1 2143 0
 7247 0276 2823     		movs	r3, #40
 7248 0278 FB18     		adds	r3, r7, r3
 7249 027a 1B78     		ldrb	r3, [r3]
 7250 027c 002B     		cmp	r3, #0
 7251 027e 2ED0     		beq	.L239
 7252              		.loc 1 2143 0 is_stmt 0 discriminator 1
 7253 0280 3F23     		movs	r3, #63
 7254 0282 FB18     		adds	r3, r7, r3
ARM GAS  C:\Users\ilya\AppData\Local\Temp\ccAjPEqD.s 			page 167


 7255 0284 1B78     		ldrb	r3, [r3]
 7256 0286 5BB2     		sxtb	r3, r3
 7257 0288 002B     		cmp	r3, #0
 7258 028a 28D1     		bne	.L239
2144:Api\core\src/vl53l0x_api_core.c **** 			(Status == VL53L0X_ERROR_NONE)) {
2145:Api\core\src/vl53l0x_api_core.c **** 
2146:Api\core\src/vl53l0x_api_core.c **** 		/* Compute the signal rate per spad */
2147:Api\core\src/vl53l0x_api_core.c **** 		if (EffectiveSpadRtnCount == 0) {
 7259              		.loc 1 2147 0 is_stmt 1
 7260 028c 0823     		movs	r3, #8
 7261 028e FB18     		adds	r3, r7, r3
 7262 0290 1B88     		ldrh	r3, [r3]
 7263 0292 002B     		cmp	r3, #0
 7264 0294 02D1     		bne	.L240
2148:Api\core\src/vl53l0x_api_core.c **** 			SignalRatePerSpad = 0;
 7265              		.loc 1 2148 0
 7266 0296 0023     		movs	r3, #0
 7267 0298 7B63     		str	r3, [r7, #52]
 7268 029a 0AE0     		b	.L241
 7269              	.L240:
2149:Api\core\src/vl53l0x_api_core.c **** 		} else {
2150:Api\core\src/vl53l0x_api_core.c **** 			SignalRatePerSpad = (FixPoint1616_t)((256 * SignalRate)
 7270              		.loc 1 2150 0
 7271 029c 7B68     		ldr	r3, [r7, #4]
 7272 029e 1A02     		lsls	r2, r3, #8
 7273 02a0 0823     		movs	r3, #8
 7274 02a2 FB18     		adds	r3, r7, r3
 7275 02a4 1B88     		ldrh	r3, [r3]
 7276 02a6 1900     		movs	r1, r3
 7277 02a8 1000     		movs	r0, r2
 7278 02aa FFF7FEFF 		bl	__aeabi_uidiv
 7279 02ae 0300     		movs	r3, r0
 7280 02b0 7B63     		str	r3, [r7, #52]
 7281              	.L241:
2151:Api\core\src/vl53l0x_api_core.c **** 				/ EffectiveSpadRtnCount);
2152:Api\core\src/vl53l0x_api_core.c **** 		}
2153:Api\core\src/vl53l0x_api_core.c **** 
2154:Api\core\src/vl53l0x_api_core.c **** 		Status = VL53L0X_GetLimitCheckValue(Dev,
 7282              		.loc 1 2154 0
 7283 02b2 3F23     		movs	r3, #63
 7284 02b4 FC18     		adds	r4, r7, r3
 7285 02b6 1823     		movs	r3, #24
 7286 02b8 FA18     		adds	r2, r7, r3
 7287 02ba FB68     		ldr	r3, [r7, #12]
 7288 02bc 0321     		movs	r1, #3
 7289 02be 1800     		movs	r0, r3
 7290 02c0 FFF7FEFF 		bl	VL53L0X_GetLimitCheckValue
 7291 02c4 0300     		movs	r3, r0
 7292 02c6 2370     		strb	r3, [r4]
2155:Api\core\src/vl53l0x_api_core.c **** 				VL53L0X_CHECKENABLE_RANGE_IGNORE_THRESHOLD,
2156:Api\core\src/vl53l0x_api_core.c **** 				&RangeIgnoreThresholdValue);
2157:Api\core\src/vl53l0x_api_core.c **** 
2158:Api\core\src/vl53l0x_api_core.c **** 		if ((RangeIgnoreThresholdValue > 0) &&
 7293              		.loc 1 2158 0
 7294 02c8 BB69     		ldr	r3, [r7, #24]
 7295 02ca 002B     		cmp	r3, #0
 7296 02cc 07D0     		beq	.L239
ARM GAS  C:\Users\ilya\AppData\Local\Temp\ccAjPEqD.s 			page 168


2159:Api\core\src/vl53l0x_api_core.c **** 			(SignalRatePerSpad < RangeIgnoreThresholdValue)) {
 7297              		.loc 1 2159 0 discriminator 1
 7298 02ce BB69     		ldr	r3, [r7, #24]
2158:Api\core\src/vl53l0x_api_core.c **** 			(SignalRatePerSpad < RangeIgnoreThresholdValue)) {
 7299              		.loc 1 2158 0 discriminator 1
 7300 02d0 7A6B     		ldr	r2, [r7, #52]
 7301 02d2 9A42     		cmp	r2, r3
 7302 02d4 03D2     		bcs	.L239
2160:Api\core\src/vl53l0x_api_core.c **** 			/* Limit Fail add 2^6 to range status */
2161:Api\core\src/vl53l0x_api_core.c **** 			RangeIgnoreThresholdflag = 1;
 7303              		.loc 1 2161 0
 7304 02d6 3B23     		movs	r3, #59
 7305 02d8 FB18     		adds	r3, r7, r3
 7306 02da 0122     		movs	r2, #1
 7307 02dc 1A70     		strb	r2, [r3]
 7308              	.L239:
2162:Api\core\src/vl53l0x_api_core.c **** 		}
2163:Api\core\src/vl53l0x_api_core.c **** 	}
2164:Api\core\src/vl53l0x_api_core.c **** 
2165:Api\core\src/vl53l0x_api_core.c **** 	if (Status == VL53L0X_ERROR_NONE) {
 7309              		.loc 1 2165 0
 7310 02de 3F23     		movs	r3, #63
 7311 02e0 FB18     		adds	r3, r7, r3
 7312 02e2 1B78     		ldrb	r3, [r3]
 7313 02e4 5BB2     		sxtb	r3, r3
 7314 02e6 002B     		cmp	r3, #0
 7315 02e8 56D1     		bne	.L242
2166:Api\core\src/vl53l0x_api_core.c **** 		if (NoneFlag == 1) {
 7316              		.loc 1 2166 0
 7317 02ea 3E23     		movs	r3, #62
 7318 02ec FB18     		adds	r3, r7, r3
 7319 02ee 1B78     		ldrb	r3, [r3]
 7320 02f0 012B     		cmp	r3, #1
 7321 02f2 03D1     		bne	.L243
2167:Api\core\src/vl53l0x_api_core.c **** 			*pPalRangeStatus = 255;	 /* NONE */
 7322              		.loc 1 2167 0
 7323 02f4 7B6D     		ldr	r3, [r7, #84]
 7324 02f6 FF22     		movs	r2, #255
 7325 02f8 1A70     		strb	r2, [r3]
 7326 02fa 4DE0     		b	.L242
 7327              	.L243:
2168:Api\core\src/vl53l0x_api_core.c **** 		} else if (DeviceRangeStatusInternal == 1 ||
 7328              		.loc 1 2168 0
 7329 02fc 3223     		movs	r3, #50
 7330 02fe FB18     		adds	r3, r7, r3
 7331 0300 1B78     		ldrb	r3, [r3]
 7332 0302 012B     		cmp	r3, #1
 7333 0304 09D0     		beq	.L244
 7334              		.loc 1 2168 0 is_stmt 0 discriminator 1
 7335 0306 3223     		movs	r3, #50
 7336 0308 FB18     		adds	r3, r7, r3
 7337 030a 1B78     		ldrb	r3, [r3]
 7338 030c 022B     		cmp	r3, #2
 7339 030e 04D0     		beq	.L244
2169:Api\core\src/vl53l0x_api_core.c **** 					DeviceRangeStatusInternal == 2 ||
 7340              		.loc 1 2169 0 is_stmt 1
 7341 0310 3223     		movs	r3, #50
ARM GAS  C:\Users\ilya\AppData\Local\Temp\ccAjPEqD.s 			page 169


 7342 0312 FB18     		adds	r3, r7, r3
 7343 0314 1B78     		ldrb	r3, [r3]
 7344 0316 032B     		cmp	r3, #3
 7345 0318 03D1     		bne	.L245
 7346              	.L244:
2170:Api\core\src/vl53l0x_api_core.c **** 					DeviceRangeStatusInternal == 3) {
2171:Api\core\src/vl53l0x_api_core.c **** 			*pPalRangeStatus = 5; /* HW fail */
 7347              		.loc 1 2171 0
 7348 031a 7B6D     		ldr	r3, [r7, #84]
 7349 031c 0522     		movs	r2, #5
 7350 031e 1A70     		strb	r2, [r3]
 7351 0320 3AE0     		b	.L242
 7352              	.L245:
2172:Api\core\src/vl53l0x_api_core.c **** 		} else if (DeviceRangeStatusInternal == 6 ||
 7353              		.loc 1 2172 0
 7354 0322 3223     		movs	r3, #50
 7355 0324 FB18     		adds	r3, r7, r3
 7356 0326 1B78     		ldrb	r3, [r3]
 7357 0328 062B     		cmp	r3, #6
 7358 032a 04D0     		beq	.L246
 7359              		.loc 1 2172 0 is_stmt 0 discriminator 1
 7360 032c 3223     		movs	r3, #50
 7361 032e FB18     		adds	r3, r7, r3
 7362 0330 1B78     		ldrb	r3, [r3]
 7363 0332 092B     		cmp	r3, #9
 7364 0334 03D1     		bne	.L247
 7365              	.L246:
2173:Api\core\src/vl53l0x_api_core.c **** 					DeviceRangeStatusInternal == 9) {
2174:Api\core\src/vl53l0x_api_core.c **** 			*pPalRangeStatus = 4;  /* Phase fail */
 7366              		.loc 1 2174 0 is_stmt 1
 7367 0336 7B6D     		ldr	r3, [r7, #84]
 7368 0338 0422     		movs	r2, #4
 7369 033a 1A70     		strb	r2, [r3]
 7370 033c 2CE0     		b	.L242
 7371              	.L247:
2175:Api\core\src/vl53l0x_api_core.c **** 		} else if (DeviceRangeStatusInternal == 8 ||
 7372              		.loc 1 2175 0
 7373 033e 3223     		movs	r3, #50
 7374 0340 FB18     		adds	r3, r7, r3
 7375 0342 1B78     		ldrb	r3, [r3]
 7376 0344 082B     		cmp	r3, #8
 7377 0346 09D0     		beq	.L248
 7378              		.loc 1 2175 0 is_stmt 0 discriminator 1
 7379 0348 3223     		movs	r3, #50
 7380 034a FB18     		adds	r3, r7, r3
 7381 034c 1B78     		ldrb	r3, [r3]
 7382 034e 0A2B     		cmp	r3, #10
 7383 0350 04D0     		beq	.L248
2176:Api\core\src/vl53l0x_api_core.c **** 					DeviceRangeStatusInternal == 10 ||
 7384              		.loc 1 2176 0 is_stmt 1
 7385 0352 3C23     		movs	r3, #60
 7386 0354 FB18     		adds	r3, r7, r3
 7387 0356 1B78     		ldrb	r3, [r3]
 7388 0358 012B     		cmp	r3, #1
 7389 035a 03D1     		bne	.L249
 7390              	.L248:
2177:Api\core\src/vl53l0x_api_core.c **** 					SignalRefClipflag == 1) {
ARM GAS  C:\Users\ilya\AppData\Local\Temp\ccAjPEqD.s 			page 170


2178:Api\core\src/vl53l0x_api_core.c **** 			*pPalRangeStatus = 3;  /* Min range */
 7391              		.loc 1 2178 0
 7392 035c 7B6D     		ldr	r3, [r7, #84]
 7393 035e 0322     		movs	r2, #3
 7394 0360 1A70     		strb	r2, [r3]
 7395 0362 19E0     		b	.L242
 7396              	.L249:
2179:Api\core\src/vl53l0x_api_core.c **** 		} else if (DeviceRangeStatusInternal == 4 ||
 7397              		.loc 1 2179 0
 7398 0364 3223     		movs	r3, #50
 7399 0366 FB18     		adds	r3, r7, r3
 7400 0368 1B78     		ldrb	r3, [r3]
 7401 036a 042B     		cmp	r3, #4
 7402 036c 04D0     		beq	.L250
 7403              		.loc 1 2179 0 is_stmt 0 discriminator 1
 7404 036e 3B23     		movs	r3, #59
 7405 0370 FB18     		adds	r3, r7, r3
 7406 0372 1B78     		ldrb	r3, [r3]
 7407 0374 012B     		cmp	r3, #1
 7408 0376 03D1     		bne	.L251
 7409              	.L250:
2180:Api\core\src/vl53l0x_api_core.c **** 					RangeIgnoreThresholdflag == 1) {
2181:Api\core\src/vl53l0x_api_core.c **** 			*pPalRangeStatus = 2;  /* Signal Fail */
 7410              		.loc 1 2181 0 is_stmt 1
 7411 0378 7B6D     		ldr	r3, [r7, #84]
 7412 037a 0222     		movs	r2, #2
 7413 037c 1A70     		strb	r2, [r3]
 7414 037e 0BE0     		b	.L242
 7415              	.L251:
2182:Api\core\src/vl53l0x_api_core.c **** 		} else if (SigmaLimitflag == 1) {
 7416              		.loc 1 2182 0
 7417 0380 3D23     		movs	r3, #61
 7418 0382 FB18     		adds	r3, r7, r3
 7419 0384 1B78     		ldrb	r3, [r3]
 7420 0386 012B     		cmp	r3, #1
 7421 0388 03D1     		bne	.L252
2183:Api\core\src/vl53l0x_api_core.c **** 			*pPalRangeStatus = 1;  /* Sigma	 Fail */
 7422              		.loc 1 2183 0
 7423 038a 7B6D     		ldr	r3, [r7, #84]
 7424 038c 0122     		movs	r2, #1
 7425 038e 1A70     		strb	r2, [r3]
 7426 0390 02E0     		b	.L242
 7427              	.L252:
2184:Api\core\src/vl53l0x_api_core.c **** 		} else {
2185:Api\core\src/vl53l0x_api_core.c **** 			*pPalRangeStatus = 0; /* Range Valid */
 7428              		.loc 1 2185 0
 7429 0392 7B6D     		ldr	r3, [r7, #84]
 7430 0394 0022     		movs	r2, #0
 7431 0396 1A70     		strb	r2, [r3]
 7432              	.L242:
2186:Api\core\src/vl53l0x_api_core.c **** 		}
2187:Api\core\src/vl53l0x_api_core.c **** 	}
2188:Api\core\src/vl53l0x_api_core.c **** 
2189:Api\core\src/vl53l0x_api_core.c **** 	/* DMAX only relevant during range error */
2190:Api\core\src/vl53l0x_api_core.c **** 	if (*pPalRangeStatus == 0)
 7433              		.loc 1 2190 0
 7434 0398 7B6D     		ldr	r3, [r7, #84]
ARM GAS  C:\Users\ilya\AppData\Local\Temp\ccAjPEqD.s 			page 171


 7435 039a 1B78     		ldrb	r3, [r3]
 7436 039c 002B     		cmp	r3, #0
 7437 039e 02D1     		bne	.L253
2191:Api\core\src/vl53l0x_api_core.c **** 		pRangingMeasurementData->RangeDMaxMilliMeter = 0;
 7438              		.loc 1 2191 0
 7439 03a0 3B6D     		ldr	r3, [r7, #80]
 7440 03a2 0022     		movs	r2, #0
 7441 03a4 5A81     		strh	r2, [r3, #10]
 7442              	.L253:
2192:Api\core\src/vl53l0x_api_core.c **** 
2193:Api\core\src/vl53l0x_api_core.c **** 	/* fill the Limit Check Status */
2194:Api\core\src/vl53l0x_api_core.c **** 
2195:Api\core\src/vl53l0x_api_core.c **** 	Status =  VL53L0X_GetLimitCheckEnable(Dev,
 7443              		.loc 1 2195 0
 7444 03a6 3F23     		movs	r3, #63
 7445 03a8 FC18     		adds	r4, r7, r3
 7446 03aa 2A23     		movs	r3, #42
 7447 03ac FA18     		adds	r2, r7, r3
 7448 03ae FB68     		ldr	r3, [r7, #12]
 7449 03b0 0121     		movs	r1, #1
 7450 03b2 1800     		movs	r0, r3
 7451 03b4 FFF7FEFF 		bl	VL53L0X_GetLimitCheckEnable
 7452 03b8 0300     		movs	r3, r0
 7453 03ba 2370     		strb	r3, [r4]
2196:Api\core\src/vl53l0x_api_core.c **** 			VL53L0X_CHECKENABLE_SIGNAL_RATE_FINAL_RANGE,
2197:Api\core\src/vl53l0x_api_core.c **** 			&SignalRateFinalRangeLimitCheckEnable);
2198:Api\core\src/vl53l0x_api_core.c **** 
2199:Api\core\src/vl53l0x_api_core.c **** 	if (Status == VL53L0X_ERROR_NONE) {
 7454              		.loc 1 2199 0
 7455 03bc 3F23     		movs	r3, #63
 7456 03be FB18     		adds	r3, r7, r3
 7457 03c0 1B78     		ldrb	r3, [r3]
 7458 03c2 5BB2     		sxtb	r3, r3
 7459 03c4 002B     		cmp	r3, #0
 7460 03c6 63D1     		bne	.L254
2200:Api\core\src/vl53l0x_api_core.c **** 		if ((SigmaLimitCheckEnable == 0) || (SigmaLimitflag == 1))
 7461              		.loc 1 2200 0
 7462 03c8 2B23     		movs	r3, #43
 7463 03ca FB18     		adds	r3, r7, r3
 7464 03cc 1B78     		ldrb	r3, [r3]
 7465 03ce 002B     		cmp	r3, #0
 7466 03d0 04D0     		beq	.L255
 7467              		.loc 1 2200 0 is_stmt 0 discriminator 1
 7468 03d2 3D23     		movs	r3, #61
 7469 03d4 FB18     		adds	r3, r7, r3
 7470 03d6 1B78     		ldrb	r3, [r3]
 7471 03d8 012B     		cmp	r3, #1
 7472 03da 04D1     		bne	.L256
 7473              	.L255:
2201:Api\core\src/vl53l0x_api_core.c **** 			Temp8 = 1;
 7474              		.loc 1 2201 0 is_stmt 1
 7475 03dc 3323     		movs	r3, #51
 7476 03de FB18     		adds	r3, r7, r3
 7477 03e0 0122     		movs	r2, #1
 7478 03e2 1A70     		strb	r2, [r3]
 7479 03e4 03E0     		b	.L257
 7480              	.L256:
ARM GAS  C:\Users\ilya\AppData\Local\Temp\ccAjPEqD.s 			page 172


2202:Api\core\src/vl53l0x_api_core.c **** 		else
2203:Api\core\src/vl53l0x_api_core.c **** 			Temp8 = 0;
 7481              		.loc 1 2203 0
 7482 03e6 3323     		movs	r3, #51
 7483 03e8 FB18     		adds	r3, r7, r3
 7484 03ea 0022     		movs	r2, #0
 7485 03ec 1A70     		strb	r2, [r3]
 7486              	.L257:
2204:Api\core\src/vl53l0x_api_core.c **** 		VL53L0X_SETARRAYPARAMETERFIELD(Dev, LimitChecksStatus,
 7487              		.loc 1 2204 0
 7488 03ee FB68     		ldr	r3, [r7, #12]
 7489 03f0 3322     		movs	r2, #51
 7490 03f2 BA18     		adds	r2, r7, r2
 7491 03f4 2E21     		movs	r1, #46
 7492 03f6 1278     		ldrb	r2, [r2]
 7493 03f8 5A54     		strb	r2, [r3, r1]
2205:Api\core\src/vl53l0x_api_core.c **** 				VL53L0X_CHECKENABLE_SIGMA_FINAL_RANGE, Temp8);
2206:Api\core\src/vl53l0x_api_core.c **** 
2207:Api\core\src/vl53l0x_api_core.c **** 		if ((DeviceRangeStatusInternal == 4) ||
 7494              		.loc 1 2207 0
 7495 03fa 3223     		movs	r3, #50
 7496 03fc FB18     		adds	r3, r7, r3
 7497 03fe 1B78     		ldrb	r3, [r3]
 7498 0400 042B     		cmp	r3, #4
 7499 0402 04D0     		beq	.L258
2208:Api\core\src/vl53l0x_api_core.c **** 				(SignalRateFinalRangeLimitCheckEnable == 0))
 7500              		.loc 1 2208 0 discriminator 1
 7501 0404 2A23     		movs	r3, #42
 7502 0406 FB18     		adds	r3, r7, r3
 7503 0408 1B78     		ldrb	r3, [r3]
2207:Api\core\src/vl53l0x_api_core.c **** 				(SignalRateFinalRangeLimitCheckEnable == 0))
 7504              		.loc 1 2207 0 discriminator 1
 7505 040a 002B     		cmp	r3, #0
 7506 040c 04D1     		bne	.L259
 7507              	.L258:
2209:Api\core\src/vl53l0x_api_core.c **** 			Temp8 = 1;
 7508              		.loc 1 2209 0
 7509 040e 3323     		movs	r3, #51
 7510 0410 FB18     		adds	r3, r7, r3
 7511 0412 0122     		movs	r2, #1
 7512 0414 1A70     		strb	r2, [r3]
 7513 0416 03E0     		b	.L260
 7514              	.L259:
2210:Api\core\src/vl53l0x_api_core.c **** 		else
2211:Api\core\src/vl53l0x_api_core.c **** 			Temp8 = 0;
 7515              		.loc 1 2211 0
 7516 0418 3323     		movs	r3, #51
 7517 041a FB18     		adds	r3, r7, r3
 7518 041c 0022     		movs	r2, #0
 7519 041e 1A70     		strb	r2, [r3]
 7520              	.L260:
2212:Api\core\src/vl53l0x_api_core.c **** 		VL53L0X_SETARRAYPARAMETERFIELD(Dev, LimitChecksStatus,
 7521              		.loc 1 2212 0
 7522 0420 FB68     		ldr	r3, [r7, #12]
 7523 0422 3322     		movs	r2, #51
 7524 0424 BA18     		adds	r2, r7, r2
 7525 0426 2F21     		movs	r1, #47
ARM GAS  C:\Users\ilya\AppData\Local\Temp\ccAjPEqD.s 			page 173


 7526 0428 1278     		ldrb	r2, [r2]
 7527 042a 5A54     		strb	r2, [r3, r1]
2213:Api\core\src/vl53l0x_api_core.c **** 				VL53L0X_CHECKENABLE_SIGNAL_RATE_FINAL_RANGE,
2214:Api\core\src/vl53l0x_api_core.c **** 				Temp8);
2215:Api\core\src/vl53l0x_api_core.c **** 
2216:Api\core\src/vl53l0x_api_core.c **** 		if ((SignalRefClipLimitCheckEnable == 0) ||
 7528              		.loc 1 2216 0
 7529 042c 2923     		movs	r3, #41
 7530 042e FB18     		adds	r3, r7, r3
 7531 0430 1B78     		ldrb	r3, [r3]
 7532 0432 002B     		cmp	r3, #0
 7533 0434 04D0     		beq	.L261
 7534              		.loc 1 2216 0 is_stmt 0 discriminator 1
 7535 0436 3C23     		movs	r3, #60
 7536 0438 FB18     		adds	r3, r7, r3
 7537 043a 1B78     		ldrb	r3, [r3]
 7538 043c 012B     		cmp	r3, #1
 7539 043e 04D1     		bne	.L262
 7540              	.L261:
2217:Api\core\src/vl53l0x_api_core.c **** 					(SignalRefClipflag == 1))
2218:Api\core\src/vl53l0x_api_core.c **** 			Temp8 = 1;
 7541              		.loc 1 2218 0 is_stmt 1
 7542 0440 3323     		movs	r3, #51
 7543 0442 FB18     		adds	r3, r7, r3
 7544 0444 0122     		movs	r2, #1
 7545 0446 1A70     		strb	r2, [r3]
 7546 0448 03E0     		b	.L263
 7547              	.L262:
2219:Api\core\src/vl53l0x_api_core.c **** 		else
2220:Api\core\src/vl53l0x_api_core.c **** 			Temp8 = 0;
 7548              		.loc 1 2220 0
 7549 044a 3323     		movs	r3, #51
 7550 044c FB18     		adds	r3, r7, r3
 7551 044e 0022     		movs	r2, #0
 7552 0450 1A70     		strb	r2, [r3]
 7553              	.L263:
2221:Api\core\src/vl53l0x_api_core.c **** 
2222:Api\core\src/vl53l0x_api_core.c **** 		VL53L0X_SETARRAYPARAMETERFIELD(Dev, LimitChecksStatus,
 7554              		.loc 1 2222 0
 7555 0452 FB68     		ldr	r3, [r7, #12]
 7556 0454 3322     		movs	r2, #51
 7557 0456 BA18     		adds	r2, r7, r2
 7558 0458 3021     		movs	r1, #48
 7559 045a 1278     		ldrb	r2, [r2]
 7560 045c 5A54     		strb	r2, [r3, r1]
2223:Api\core\src/vl53l0x_api_core.c **** 				VL53L0X_CHECKENABLE_SIGNAL_REF_CLIP, Temp8);
2224:Api\core\src/vl53l0x_api_core.c **** 
2225:Api\core\src/vl53l0x_api_core.c **** 		if ((RangeIgnoreThresholdLimitCheckEnable == 0) ||
 7561              		.loc 1 2225 0
 7562 045e 2823     		movs	r3, #40
 7563 0460 FB18     		adds	r3, r7, r3
 7564 0462 1B78     		ldrb	r3, [r3]
 7565 0464 002B     		cmp	r3, #0
 7566 0466 04D0     		beq	.L264
 7567              		.loc 1 2225 0 is_stmt 0 discriminator 1
 7568 0468 3B23     		movs	r3, #59
 7569 046a FB18     		adds	r3, r7, r3
ARM GAS  C:\Users\ilya\AppData\Local\Temp\ccAjPEqD.s 			page 174


 7570 046c 1B78     		ldrb	r3, [r3]
 7571 046e 012B     		cmp	r3, #1
 7572 0470 04D1     		bne	.L265
 7573              	.L264:
2226:Api\core\src/vl53l0x_api_core.c **** 				(RangeIgnoreThresholdflag == 1))
2227:Api\core\src/vl53l0x_api_core.c **** 			Temp8 = 1;
 7574              		.loc 1 2227 0 is_stmt 1
 7575 0472 3323     		movs	r3, #51
 7576 0474 FB18     		adds	r3, r7, r3
 7577 0476 0122     		movs	r2, #1
 7578 0478 1A70     		strb	r2, [r3]
 7579 047a 03E0     		b	.L266
 7580              	.L265:
2228:Api\core\src/vl53l0x_api_core.c **** 		else
2229:Api\core\src/vl53l0x_api_core.c **** 			Temp8 = 0;
 7581              		.loc 1 2229 0
 7582 047c 3323     		movs	r3, #51
 7583 047e FB18     		adds	r3, r7, r3
 7584 0480 0022     		movs	r2, #0
 7585 0482 1A70     		strb	r2, [r3]
 7586              	.L266:
2230:Api\core\src/vl53l0x_api_core.c **** 
2231:Api\core\src/vl53l0x_api_core.c **** 		VL53L0X_SETARRAYPARAMETERFIELD(Dev, LimitChecksStatus,
 7587              		.loc 1 2231 0
 7588 0484 FB68     		ldr	r3, [r7, #12]
 7589 0486 3322     		movs	r2, #51
 7590 0488 BA18     		adds	r2, r7, r2
 7591 048a 3121     		movs	r1, #49
 7592 048c 1278     		ldrb	r2, [r2]
 7593 048e 5A54     		strb	r2, [r3, r1]
 7594              	.L254:
2232:Api\core\src/vl53l0x_api_core.c **** 				VL53L0X_CHECKENABLE_RANGE_IGNORE_THRESHOLD,
2233:Api\core\src/vl53l0x_api_core.c **** 				Temp8);
2234:Api\core\src/vl53l0x_api_core.c **** 	}
2235:Api\core\src/vl53l0x_api_core.c **** 
2236:Api\core\src/vl53l0x_api_core.c **** 	LOG_FUNCTION_END(Status);
2237:Api\core\src/vl53l0x_api_core.c **** 	return Status;
 7595              		.loc 1 2237 0
 7596 0490 3F23     		movs	r3, #63
 7597 0492 FB18     		adds	r3, r7, r3
 7598 0494 1B78     		ldrb	r3, [r3]
 7599 0496 5BB2     		sxtb	r3, r3
2238:Api\core\src/vl53l0x_api_core.c **** 
2239:Api\core\src/vl53l0x_api_core.c **** }
 7600              		.loc 1 2239 0
 7601 0498 1800     		movs	r0, r3
 7602 049a BD46     		mov	sp, r7
 7603 049c 11B0     		add	sp, sp, #68
 7604              		@ sp needed
 7605 049e 90BD     		pop	{r4, r7, pc}
 7606              		.cfi_endproc
 7607              	.LFE25:
 7608              		.size	VL53L0X_get_pal_range_status, .-VL53L0X_get_pal_range_status
 7609              		.text
 7610              	.Letext0:
 7611              		.file 2 "c:\\program files (x86)\\cypress\\psoc creator\\4.2\\psoc creator\\import\\gnu\\arm\\5.4.
 7612              		.file 3 "c:\\program files (x86)\\cypress\\psoc creator\\4.2\\psoc creator\\import\\gnu\\arm\\5.4.
ARM GAS  C:\Users\ilya\AppData\Local\Temp\ccAjPEqD.s 			page 175


 7613              		.file 4 ".\\Api\\platform\\inc/vl53l0x_types.h"
 7614              		.file 5 ".\\Api\\core\\inc/vl53l0x_device.h"
 7615              		.file 6 ".\\Api\\core\\inc/vl53l0x_def.h"
 7616              		.file 7 ".\\Api\\platform\\inc/vl53l0x_platform.h"
 7617              		.section	.debug_info,"",%progbits
 7618              	.Ldebug_info0:
 7619 0000 CE190000 		.4byte	0x19ce
 7620 0004 0400     		.2byte	0x4
 7621 0006 00000000 		.4byte	.Ldebug_abbrev0
 7622 000a 04       		.byte	0x4
 7623 000b 01       		.uleb128 0x1
 7624 000c 5E020000 		.4byte	.LASF324
 7625 0010 0C       		.byte	0xc
 7626 0011 59000000 		.4byte	.LASF325
 7627 0015 A1050000 		.4byte	.LASF326
 7628 0019 00000000 		.4byte	.Ldebug_ranges0+0
 7629 001d 00000000 		.4byte	0
 7630 0021 00000000 		.4byte	.Ldebug_line0
 7631 0025 02       		.uleb128 0x2
 7632 0026 D70D0000 		.4byte	.LASF0
 7633 002a 02       		.byte	0x2
 7634 002b 1B       		.byte	0x1b
 7635 002c 30000000 		.4byte	0x30
 7636 0030 03       		.uleb128 0x3
 7637 0031 01       		.byte	0x1
 7638 0032 06       		.byte	0x6
 7639 0033 A7150000 		.4byte	.LASF2
 7640 0037 02       		.uleb128 0x2
 7641 0038 68110000 		.4byte	.LASF1
 7642 003c 02       		.byte	0x2
 7643 003d 1D       		.byte	0x1d
 7644 003e 42000000 		.4byte	0x42
 7645 0042 03       		.uleb128 0x3
 7646 0043 01       		.byte	0x1
 7647 0044 08       		.byte	0x8
 7648 0045 51130000 		.4byte	.LASF3
 7649 0049 02       		.uleb128 0x2
 7650 004a 700C0000 		.4byte	.LASF4
 7651 004e 02       		.byte	0x2
 7652 004f 29       		.byte	0x29
 7653 0050 54000000 		.4byte	0x54
 7654 0054 03       		.uleb128 0x3
 7655 0055 02       		.byte	0x2
 7656 0056 05       		.byte	0x5
 7657 0057 C10F0000 		.4byte	.LASF5
 7658 005b 02       		.uleb128 0x2
 7659 005c FF060000 		.4byte	.LASF6
 7660 0060 02       		.byte	0x2
 7661 0061 2B       		.byte	0x2b
 7662 0062 66000000 		.4byte	0x66
 7663 0066 03       		.uleb128 0x3
 7664 0067 02       		.byte	0x2
 7665 0068 07       		.byte	0x7
 7666 0069 E3150000 		.4byte	.LASF7
 7667 006d 02       		.uleb128 0x2
 7668 006e 44020000 		.4byte	.LASF8
 7669 0072 02       		.byte	0x2
ARM GAS  C:\Users\ilya\AppData\Local\Temp\ccAjPEqD.s 			page 176


 7670 0073 3F       		.byte	0x3f
 7671 0074 78000000 		.4byte	0x78
 7672 0078 03       		.uleb128 0x3
 7673 0079 04       		.byte	0x4
 7674 007a 05       		.byte	0x5
 7675 007b 02100000 		.4byte	.LASF9
 7676 007f 02       		.uleb128 0x2
 7677 0080 85130000 		.4byte	.LASF10
 7678 0084 02       		.byte	0x2
 7679 0085 41       		.byte	0x41
 7680 0086 8A000000 		.4byte	0x8a
 7681 008a 03       		.uleb128 0x3
 7682 008b 04       		.byte	0x4
 7683 008c 07       		.byte	0x7
 7684 008d 67120000 		.4byte	.LASF11
 7685 0091 03       		.uleb128 0x3
 7686 0092 08       		.byte	0x8
 7687 0093 05       		.byte	0x5
 7688 0094 EB0B0000 		.4byte	.LASF12
 7689 0098 02       		.uleb128 0x2
 7690 0099 C5080000 		.4byte	.LASF13
 7691 009d 02       		.byte	0x2
 7692 009e 5B       		.byte	0x5b
 7693 009f A3000000 		.4byte	0xa3
 7694 00a3 03       		.uleb128 0x3
 7695 00a4 08       		.byte	0x8
 7696 00a5 07       		.byte	0x7
 7697 00a6 78060000 		.4byte	.LASF14
 7698 00aa 04       		.uleb128 0x4
 7699 00ab 04       		.byte	0x4
 7700 00ac 05       		.byte	0x5
 7701 00ad 696E7400 		.ascii	"int\000"
 7702 00b1 03       		.uleb128 0x3
 7703 00b2 04       		.byte	0x4
 7704 00b3 07       		.byte	0x7
 7705 00b4 8E010000 		.4byte	.LASF15
 7706 00b8 02       		.uleb128 0x2
 7707 00b9 2A050000 		.4byte	.LASF16
 7708 00bd 03       		.byte	0x3
 7709 00be 14       		.byte	0x14
 7710 00bf 25000000 		.4byte	0x25
 7711 00c3 02       		.uleb128 0x2
 7712 00c4 4F0B0000 		.4byte	.LASF17
 7713 00c8 03       		.byte	0x3
 7714 00c9 18       		.byte	0x18
 7715 00ca 37000000 		.4byte	0x37
 7716 00ce 02       		.uleb128 0x2
 7717 00cf 40060000 		.4byte	.LASF18
 7718 00d3 03       		.byte	0x3
 7719 00d4 20       		.byte	0x20
 7720 00d5 49000000 		.4byte	0x49
 7721 00d9 02       		.uleb128 0x2
 7722 00da C30E0000 		.4byte	.LASF19
 7723 00de 03       		.byte	0x3
 7724 00df 24       		.byte	0x24
 7725 00e0 5B000000 		.4byte	0x5b
 7726 00e4 02       		.uleb128 0x2
ARM GAS  C:\Users\ilya\AppData\Local\Temp\ccAjPEqD.s 			page 177


 7727 00e5 E2120000 		.4byte	.LASF20
 7728 00e9 03       		.byte	0x3
 7729 00ea 2C       		.byte	0x2c
 7730 00eb 6D000000 		.4byte	0x6d
 7731 00ef 02       		.uleb128 0x2
 7732 00f0 21050000 		.4byte	.LASF21
 7733 00f4 03       		.byte	0x3
 7734 00f5 30       		.byte	0x30
 7735 00f6 7F000000 		.4byte	0x7f
 7736 00fa 02       		.uleb128 0x2
 7737 00fb B4100000 		.4byte	.LASF22
 7738 00ff 03       		.byte	0x3
 7739 0100 3C       		.byte	0x3c
 7740 0101 98000000 		.4byte	0x98
 7741 0105 03       		.uleb128 0x3
 7742 0106 08       		.byte	0x8
 7743 0107 04       		.byte	0x4
 7744 0108 9E0E0000 		.4byte	.LASF23
 7745 010c 02       		.uleb128 0x2
 7746 010d EF040000 		.4byte	.LASF24
 7747 0111 04       		.byte	0x4
 7748 0112 6D       		.byte	0x6d
 7749 0113 EF000000 		.4byte	0xef
 7750 0117 02       		.uleb128 0x2
 7751 0118 15060000 		.4byte	.LASF25
 7752 011c 05       		.byte	0x5
 7753 011d 36       		.byte	0x36
 7754 011e C3000000 		.4byte	0xc3
 7755 0122 02       		.uleb128 0x2
 7756 0123 570B0000 		.4byte	.LASF26
 7757 0127 05       		.byte	0x5
 7758 0128 64       		.byte	0x64
 7759 0129 C3000000 		.4byte	0xc3
 7760 012d 05       		.uleb128 0x5
 7761 012e 44010000 		.4byte	0x144
 7762 0132 3D010000 		.4byte	0x13d
 7763 0136 06       		.uleb128 0x6
 7764 0137 3D010000 		.4byte	0x13d
 7765 013b 1F       		.byte	0x1f
 7766 013c 00       		.byte	0
 7767 013d 03       		.uleb128 0x3
 7768 013e 04       		.byte	0x4
 7769 013f 07       		.byte	0x7
 7770 0140 37120000 		.4byte	.LASF27
 7771 0144 03       		.uleb128 0x3
 7772 0145 01       		.byte	0x1
 7773 0146 08       		.byte	0x8
 7774 0147 160A0000 		.4byte	.LASF28
 7775 014b 02       		.uleb128 0x2
 7776 014c 91110000 		.4byte	.LASF29
 7777 0150 06       		.byte	0x6
 7778 0151 83       		.byte	0x83
 7779 0152 B8000000 		.4byte	0xb8
 7780 0156 02       		.uleb128 0x2
 7781 0157 1A0C0000 		.4byte	.LASF30
 7782 015b 06       		.byte	0x6
 7783 015c B5       		.byte	0xb5
ARM GAS  C:\Users\ilya\AppData\Local\Temp\ccAjPEqD.s 			page 178


 7784 015d C3000000 		.4byte	0xc3
 7785 0161 02       		.uleb128 0x2
 7786 0162 AC0B0000 		.4byte	.LASF31
 7787 0166 06       		.byte	0x6
 7788 0167 C7       		.byte	0xc7
 7789 0168 C3000000 		.4byte	0xc3
 7790 016c 02       		.uleb128 0x2
 7791 016d F3010000 		.4byte	.LASF32
 7792 0171 06       		.byte	0x6
 7793 0172 DA       		.byte	0xda
 7794 0173 C3000000 		.4byte	0xc3
 7795 0177 07       		.uleb128 0x7
 7796 0178 40       		.byte	0x40
 7797 0179 06       		.byte	0x6
 7798 017a EA       		.byte	0xea
 7799 017b 13020000 		.4byte	0x213
 7800 017f 08       		.uleb128 0x8
 7801 0180 420E0000 		.4byte	.LASF33
 7802 0184 06       		.byte	0x6
 7803 0185 EB       		.byte	0xeb
 7804 0186 56010000 		.4byte	0x156
 7805 018a 00       		.byte	0
 7806 018b 08       		.uleb128 0x8
 7807 018c A7000000 		.4byte	.LASF34
 7808 0190 06       		.byte	0x6
 7809 0191 ED       		.byte	0xed
 7810 0192 61010000 		.4byte	0x161
 7811 0196 01       		.byte	0x1
 7812 0197 08       		.uleb128 0x8
 7813 0198 690A0000 		.4byte	.LASF35
 7814 019c 06       		.byte	0x6
 7815 019d F0       		.byte	0xf0
 7816 019e EF000000 		.4byte	0xef
 7817 01a2 04       		.byte	0x4
 7818 01a3 08       		.uleb128 0x8
 7819 01a4 0B080000 		.4byte	.LASF36
 7820 01a8 06       		.byte	0x6
 7821 01a9 F2       		.byte	0xf2
 7822 01aa EF000000 		.4byte	0xef
 7823 01ae 08       		.byte	0x8
 7824 01af 08       		.uleb128 0x8
 7825 01b0 F4000000 		.4byte	.LASF37
 7826 01b4 06       		.byte	0x6
 7827 01b5 F5       		.byte	0xf5
 7828 01b6 C3000000 		.4byte	0xc3
 7829 01ba 0C       		.byte	0xc
 7830 01bb 08       		.uleb128 0x8
 7831 01bc 9B010000 		.4byte	.LASF38
 7832 01c0 06       		.byte	0x6
 7833 01c1 F7       		.byte	0xf7
 7834 01c2 D9000000 		.4byte	0xd9
 7835 01c6 0E       		.byte	0xe
 7836 01c7 08       		.uleb128 0x8
 7837 01c8 6A0E0000 		.4byte	.LASF39
 7838 01cc 06       		.byte	0x6
 7839 01cd F9       		.byte	0xf9
 7840 01ce 0C010000 		.4byte	0x10c
ARM GAS  C:\Users\ilya\AppData\Local\Temp\ccAjPEqD.s 			page 179


 7841 01d2 10       		.byte	0x10
 7842 01d3 08       		.uleb128 0x8
 7843 01d4 15090000 		.4byte	.LASF40
 7844 01d8 06       		.byte	0x6
 7845 01d9 FC       		.byte	0xfc
 7846 01da E4000000 		.4byte	0xe4
 7847 01de 14       		.byte	0x14
 7848 01df 08       		.uleb128 0x8
 7849 01e0 10020000 		.4byte	.LASF41
 7850 01e4 06       		.byte	0x6
 7851 01e5 FF       		.byte	0xff
 7852 01e6 13020000 		.4byte	0x213
 7853 01ea 18       		.byte	0x18
 7854 01eb 09       		.uleb128 0x9
 7855 01ec 02040000 		.4byte	.LASF42
 7856 01f0 06       		.byte	0x6
 7857 01f1 0101     		.2byte	0x101
 7858 01f3 13020000 		.4byte	0x213
 7859 01f7 1E       		.byte	0x1e
 7860 01f8 09       		.uleb128 0x9
 7861 01f9 6B080000 		.4byte	.LASF43
 7862 01fd 06       		.byte	0x6
 7863 01fe 0401     		.2byte	0x104
 7864 0200 23020000 		.4byte	0x223
 7865 0204 24       		.byte	0x24
 7866 0205 09       		.uleb128 0x9
 7867 0206 D2030000 		.4byte	.LASF44
 7868 020a 06       		.byte	0x6
 7869 020b 0701     		.2byte	0x107
 7870 020d C3000000 		.4byte	0xc3
 7871 0211 3C       		.byte	0x3c
 7872 0212 00       		.byte	0
 7873 0213 05       		.uleb128 0x5
 7874 0214 C3000000 		.4byte	0xc3
 7875 0218 23020000 		.4byte	0x223
 7876 021c 06       		.uleb128 0x6
 7877 021d 3D010000 		.4byte	0x13d
 7878 0221 05       		.byte	0x5
 7879 0222 00       		.byte	0
 7880 0223 05       		.uleb128 0x5
 7881 0224 0C010000 		.4byte	0x10c
 7882 0228 33020000 		.4byte	0x233
 7883 022c 06       		.uleb128 0x6
 7884 022d 3D010000 		.4byte	0x13d
 7885 0231 05       		.byte	0x5
 7886 0232 00       		.byte	0
 7887 0233 0A       		.uleb128 0xa
 7888 0234 F4050000 		.4byte	.LASF45
 7889 0238 06       		.byte	0x6
 7890 0239 0901     		.2byte	0x109
 7891 023b 77010000 		.4byte	0x177
 7892 023f 0A       		.uleb128 0xa
 7893 0240 AB0D0000 		.4byte	.LASF46
 7894 0244 06       		.byte	0x6
 7895 0245 1101     		.2byte	0x111
 7896 0247 C3000000 		.4byte	0xc3
 7897 024b 0B       		.uleb128 0xb
ARM GAS  C:\Users\ilya\AppData\Local\Temp\ccAjPEqD.s 			page 180


 7898 024c 08       		.byte	0x8
 7899 024d 06       		.byte	0x6
 7900 024e 2701     		.2byte	0x127
 7901 0250 6F020000 		.4byte	0x26f
 7902 0254 09       		.uleb128 0x9
 7903 0255 8F060000 		.4byte	.LASF47
 7904 0259 06       		.byte	0x6
 7905 025a 2801     		.2byte	0x128
 7906 025c E4000000 		.4byte	0xe4
 7907 0260 00       		.byte	0
 7908 0261 09       		.uleb128 0x9
 7909 0262 230D0000 		.4byte	.LASF48
 7910 0266 06       		.byte	0x6
 7911 0267 2A01     		.2byte	0x12a
 7912 0269 E4000000 		.4byte	0xe4
 7913 026d 04       		.byte	0x4
 7914 026e 00       		.byte	0
 7915 026f 0A       		.uleb128 0xa
 7916 0270 C40D0000 		.4byte	.LASF49
 7917 0274 06       		.byte	0x6
 7918 0275 2C01     		.2byte	0x12c
 7919 0277 4B020000 		.4byte	0x24b
 7920 027b 0B       		.uleb128 0xb
 7921 027c 1C       		.byte	0x1c
 7922 027d 06       		.byte	0x6
 7923 027e 3201     		.2byte	0x132
 7924 0280 07030000 		.4byte	0x307
 7925 0284 09       		.uleb128 0x9
 7926 0285 9C170000 		.4byte	.LASF50
 7927 0289 06       		.byte	0x6
 7928 028a 3301     		.2byte	0x133
 7929 028c EF000000 		.4byte	0xef
 7930 0290 00       		.byte	0
 7931 0291 09       		.uleb128 0x9
 7932 0292 F0090000 		.4byte	.LASF51
 7933 0296 06       		.byte	0x6
 7934 0297 3401     		.2byte	0x134
 7935 0299 EF000000 		.4byte	0xef
 7936 029d 04       		.byte	0x4
 7937 029e 09       		.uleb128 0x9
 7938 029f 28160000 		.4byte	.LASF52
 7939 02a3 06       		.byte	0x6
 7940 02a4 3901     		.2byte	0x139
 7941 02a6 D9000000 		.4byte	0xd9
 7942 02aa 08       		.byte	0x8
 7943 02ab 09       		.uleb128 0x9
 7944 02ac 34040000 		.4byte	.LASF53
 7945 02b0 06       		.byte	0x6
 7946 02b1 3B01     		.2byte	0x13b
 7947 02b3 D9000000 		.4byte	0xd9
 7948 02b7 0A       		.byte	0xa
 7949 02b8 09       		.uleb128 0x9
 7950 02b9 79000000 		.4byte	.LASF54
 7951 02bd 06       		.byte	0x6
 7952 02be 4001     		.2byte	0x140
 7953 02c0 0C010000 		.4byte	0x10c
 7954 02c4 0C       		.byte	0xc
ARM GAS  C:\Users\ilya\AppData\Local\Temp\ccAjPEqD.s 			page 181


 7955 02c5 09       		.uleb128 0x9
 7956 02c6 2E020000 		.4byte	.LASF55
 7957 02ca 06       		.byte	0x6
 7958 02cb 4401     		.2byte	0x144
 7959 02cd 0C010000 		.4byte	0x10c
 7960 02d1 10       		.byte	0x10
 7961 02d2 09       		.uleb128 0x9
 7962 02d3 BB070000 		.4byte	.LASF56
 7963 02d7 06       		.byte	0x6
 7964 02d8 4901     		.2byte	0x149
 7965 02da D9000000 		.4byte	0xd9
 7966 02de 14       		.byte	0x14
 7967 02df 09       		.uleb128 0x9
 7968 02e0 F3100000 		.4byte	.LASF57
 7969 02e4 06       		.byte	0x6
 7970 02e5 4D01     		.2byte	0x14d
 7971 02e7 C3000000 		.4byte	0xc3
 7972 02eb 16       		.byte	0x16
 7973 02ec 09       		.uleb128 0x9
 7974 02ed A1160000 		.4byte	.LASF58
 7975 02f1 06       		.byte	0x6
 7976 02f2 5001     		.2byte	0x150
 7977 02f4 C3000000 		.4byte	0xc3
 7978 02f8 17       		.byte	0x17
 7979 02f9 09       		.uleb128 0x9
 7980 02fa D60B0000 		.4byte	.LASF59
 7981 02fe 06       		.byte	0x6
 7982 02ff 5301     		.2byte	0x153
 7983 0301 C3000000 		.4byte	0xc3
 7984 0305 18       		.byte	0x18
 7985 0306 00       		.byte	0
 7986 0307 0A       		.uleb128 0xa
 7987 0308 CC0E0000 		.4byte	.LASF60
 7988 030c 06       		.byte	0x6
 7989 030d 5701     		.2byte	0x157
 7990 030f 7B020000 		.4byte	0x27b
 7991 0313 0B       		.uleb128 0xb
 7992 0314 68       		.byte	0x68
 7993 0315 06       		.byte	0x6
 7994 0316 6001     		.2byte	0x160
 7995 0318 6B030000 		.4byte	0x36b
 7996 031c 09       		.uleb128 0x9
 7997 031d 5D080000 		.4byte	.LASF61
 7998 0321 06       		.byte	0x6
 7999 0322 6201     		.2byte	0x162
 8000 0324 6B030000 		.4byte	0x36b
 8001 0328 00       		.byte	0
 8002 0329 09       		.uleb128 0x9
 8003 032a 7B050000 		.4byte	.LASF62
 8004 032e 06       		.byte	0x6
 8005 032f 6401     		.2byte	0x164
 8006 0331 C3000000 		.4byte	0xc3
 8007 0335 60       		.byte	0x60
 8008 0336 09       		.uleb128 0x9
 8009 0337 E20B0000 		.4byte	.LASF63
 8010 033b 06       		.byte	0x6
 8011 033c 6601     		.2byte	0x166
ARM GAS  C:\Users\ilya\AppData\Local\Temp\ccAjPEqD.s 			page 182


 8012 033e C3000000 		.4byte	0xc3
 8013 0342 61       		.byte	0x61
 8014 0343 09       		.uleb128 0x9
 8015 0344 FA0A0000 		.4byte	.LASF64
 8016 0348 06       		.byte	0x6
 8017 0349 6701     		.2byte	0x167
 8018 034b C3000000 		.4byte	0xc3
 8019 034f 62       		.byte	0x62
 8020 0350 09       		.uleb128 0x9
 8021 0351 5F130000 		.4byte	.LASF65
 8022 0355 06       		.byte	0x6
 8023 0356 6801     		.2byte	0x168
 8024 0358 C3000000 		.4byte	0xc3
 8025 035c 63       		.byte	0x63
 8026 035d 09       		.uleb128 0x9
 8027 035e 22020000 		.4byte	.LASF66
 8028 0362 06       		.byte	0x6
 8029 0363 6B01     		.2byte	0x16b
 8030 0365 17010000 		.4byte	0x117
 8031 0369 64       		.byte	0x64
 8032 036a 00       		.byte	0
 8033 036b 05       		.uleb128 0x5
 8034 036c EF000000 		.4byte	0xef
 8035 0370 7B030000 		.4byte	0x37b
 8036 0374 06       		.uleb128 0x6
 8037 0375 3D010000 		.4byte	0x13d
 8038 0379 17       		.byte	0x17
 8039 037a 00       		.byte	0
 8040 037b 0A       		.uleb128 0xa
 8041 037c BD170000 		.4byte	.LASF67
 8042 0380 06       		.byte	0x6
 8043 0381 6E01     		.2byte	0x16e
 8044 0383 13030000 		.4byte	0x313
 8045 0387 0B       		.uleb128 0xb
 8046 0388 0C       		.byte	0xc
 8047 0389 06       		.byte	0x6
 8048 038a 7601     		.2byte	0x176
 8049 038c AB030000 		.4byte	0x3ab
 8050 0390 09       		.uleb128 0x9
 8051 0391 5B070000 		.4byte	.LASF68
 8052 0395 06       		.byte	0x6
 8053 0396 7701     		.2byte	0x177
 8054 0398 13020000 		.4byte	0x213
 8055 039c 00       		.byte	0
 8056 039d 09       		.uleb128 0x9
 8057 039e 82110000 		.4byte	.LASF69
 8058 03a2 06       		.byte	0x6
 8059 03a3 7901     		.2byte	0x179
 8060 03a5 13020000 		.4byte	0x213
 8061 03a9 06       		.byte	0x6
 8062 03aa 00       		.byte	0
 8063 03ab 0A       		.uleb128 0xa
 8064 03ac 200B0000 		.4byte	.LASF70
 8065 03b0 06       		.byte	0x6
 8066 03b1 7B01     		.2byte	0x17b
 8067 03b3 87030000 		.4byte	0x387
 8068 03b7 0B       		.uleb128 0xb
ARM GAS  C:\Users\ilya\AppData\Local\Temp\ccAjPEqD.s 			page 183


 8069 03b8 50       		.byte	0x50
 8070 03b9 06       		.byte	0x6
 8071 03ba 7D01     		.2byte	0x17d
 8072 03bc C5040000 		.4byte	0x4c5
 8073 03c0 09       		.uleb128 0x9
 8074 03c1 EF060000 		.4byte	.LASF71
 8075 03c5 06       		.byte	0x6
 8076 03c6 7E01     		.2byte	0x17e
 8077 03c8 0C010000 		.4byte	0x10c
 8078 03cc 00       		.byte	0
 8079 03cd 09       		.uleb128 0x9
 8080 03ce BD160000 		.4byte	.LASF72
 8081 03d2 06       		.byte	0x6
 8082 03d3 8001     		.2byte	0x180
 8083 03d5 D9000000 		.4byte	0xd9
 8084 03d9 04       		.byte	0x4
 8085 03da 09       		.uleb128 0x9
 8086 03db B8140000 		.4byte	.LASF73
 8087 03df 06       		.byte	0x6
 8088 03e0 8301     		.2byte	0x183
 8089 03e2 22010000 		.4byte	0x122
 8090 03e6 06       		.byte	0x6
 8091 03e7 09       		.uleb128 0x9
 8092 03e8 CA100000 		.4byte	.LASF74
 8093 03ec 06       		.byte	0x6
 8094 03ed 8601     		.2byte	0x186
 8095 03ef EF000000 		.4byte	0xef
 8096 03f3 08       		.byte	0x8
 8097 03f4 09       		.uleb128 0x9
 8098 03f5 AC130000 		.4byte	.LASF75
 8099 03f9 06       		.byte	0x6
 8100 03fa 8801     		.2byte	0x188
 8101 03fc C3000000 		.4byte	0xc3
 8102 0400 0C       		.byte	0xc
 8103 0401 09       		.uleb128 0x9
 8104 0402 6C130000 		.4byte	.LASF76
 8105 0406 06       		.byte	0x6
 8106 0407 8A01     		.2byte	0x18a
 8107 0409 EF000000 		.4byte	0xef
 8108 040d 10       		.byte	0x10
 8109 040e 09       		.uleb128 0x9
 8110 040f 1C010000 		.4byte	.LASF77
 8111 0413 06       		.byte	0x6
 8112 0414 8C01     		.2byte	0x18c
 8113 0416 C3000000 		.4byte	0xc3
 8114 041a 14       		.byte	0x14
 8115 041b 09       		.uleb128 0x9
 8116 041c 7D160000 		.4byte	.LASF78
 8117 0420 06       		.byte	0x6
 8118 0421 8F01     		.2byte	0x18f
 8119 0423 D9000000 		.4byte	0xd9
 8120 0427 16       		.byte	0x16
 8121 0428 09       		.uleb128 0x9
 8122 0429 70090000 		.4byte	.LASF79
 8123 042d 06       		.byte	0x6
 8124 042e 9101     		.2byte	0x191
 8125 0430 D9000000 		.4byte	0xd9
ARM GAS  C:\Users\ilya\AppData\Local\Temp\ccAjPEqD.s 			page 184


 8126 0434 18       		.byte	0x18
 8127 0435 09       		.uleb128 0x9
 8128 0436 31130000 		.4byte	.LASF80
 8129 043a 06       		.byte	0x6
 8130 043b 9401     		.2byte	0x194
 8131 043d D9000000 		.4byte	0xd9
 8132 0441 1A       		.byte	0x1a
 8133 0442 09       		.uleb128 0x9
 8134 0443 520A0000 		.4byte	.LASF81
 8135 0447 06       		.byte	0x6
 8136 0448 9901     		.2byte	0x199
 8137 044a C3000000 		.4byte	0xc3
 8138 044e 1C       		.byte	0x1c
 8139 044f 09       		.uleb128 0x9
 8140 0450 54080000 		.4byte	.LASF82
 8141 0454 06       		.byte	0x6
 8142 0455 9B01     		.2byte	0x19b
 8143 0457 C3000000 		.4byte	0xc3
 8144 045b 1D       		.byte	0x1d
 8145 045c 09       		.uleb128 0x9
 8146 045d 52040000 		.4byte	.LASF83
 8147 0461 06       		.byte	0x6
 8148 0462 9C01     		.2byte	0x19c
 8149 0464 C3000000 		.4byte	0xc3
 8150 0468 1E       		.byte	0x1e
 8151 0469 09       		.uleb128 0x9
 8152 046a 06020000 		.4byte	.LASF84
 8153 046e 06       		.byte	0x6
 8154 046f 9D01     		.2byte	0x19d
 8155 0471 2D010000 		.4byte	0x12d
 8156 0475 1F       		.byte	0x1f
 8157 0476 09       		.uleb128 0x9
 8158 0477 2E080000 		.4byte	.LASF85
 8159 047b 06       		.byte	0x6
 8160 047c 9F01     		.2byte	0x19f
 8161 047e C3000000 		.4byte	0xc3
 8162 0482 3F       		.byte	0x3f
 8163 0483 09       		.uleb128 0x9
 8164 0484 AF0F0000 		.4byte	.LASF86
 8165 0488 06       		.byte	0x6
 8166 0489 A001     		.2byte	0x1a0
 8167 048b C3000000 		.4byte	0xc3
 8168 048f 40       		.byte	0x40
 8169 0490 09       		.uleb128 0x9
 8170 0491 430C0000 		.4byte	.LASF87
 8171 0495 06       		.byte	0x6
 8172 0496 A101     		.2byte	0x1a1
 8173 0498 C3000000 		.4byte	0xc3
 8174 049c 41       		.byte	0x41
 8175 049d 09       		.uleb128 0x9
 8176 049e 0B100000 		.4byte	.LASF88
 8177 04a2 06       		.byte	0x6
 8178 04a3 A201     		.2byte	0x1a2
 8179 04a5 EF000000 		.4byte	0xef
 8180 04a9 44       		.byte	0x44
 8181 04aa 09       		.uleb128 0x9
 8182 04ab 8E000000 		.4byte	.LASF89
ARM GAS  C:\Users\ilya\AppData\Local\Temp\ccAjPEqD.s 			page 185


 8183 04af 06       		.byte	0x6
 8184 04b0 A301     		.2byte	0x1a3
 8185 04b2 EF000000 		.4byte	0xef
 8186 04b6 48       		.byte	0x48
 8187 04b7 09       		.uleb128 0x9
 8188 04b8 1C180000 		.4byte	.LASF90
 8189 04bc 06       		.byte	0x6
 8190 04bd A401     		.2byte	0x1a4
 8191 04bf 0C010000 		.4byte	0x10c
 8192 04c3 4C       		.byte	0x4c
 8193 04c4 00       		.byte	0
 8194 04c5 0A       		.uleb128 0xa
 8195 04c6 FE040000 		.4byte	.LASF91
 8196 04ca 06       		.byte	0x6
 8197 04cb A701     		.2byte	0x1a7
 8198 04cd B7030000 		.4byte	0x3b7
 8199 04d1 0C       		.uleb128 0xc
 8200 04d2 5C01     		.2byte	0x15c
 8201 04d4 06       		.byte	0x6
 8202 04d5 B101     		.2byte	0x1b1
 8203 04d7 33060000 		.4byte	0x633
 8204 04db 09       		.uleb128 0x9
 8205 04dc E7090000 		.4byte	.LASF92
 8206 04e0 06       		.byte	0x6
 8207 04e1 B201     		.2byte	0x1b2
 8208 04e3 6F020000 		.4byte	0x26f
 8209 04e7 00       		.byte	0
 8210 04e8 09       		.uleb128 0x9
 8211 04e9 7A040000 		.4byte	.LASF93
 8212 04ed 06       		.byte	0x6
 8213 04ee B401     		.2byte	0x1b4
 8214 04f0 E4000000 		.4byte	0xe4
 8215 04f4 08       		.byte	0x8
 8216 04f5 09       		.uleb128 0x9
 8217 04f6 51060000 		.4byte	.LASF94
 8218 04fa 06       		.byte	0x6
 8219 04fb B601     		.2byte	0x1b6
 8220 04fd E4000000 		.4byte	0xe4
 8221 0501 0C       		.byte	0xc
 8222 0502 09       		.uleb128 0x9
 8223 0503 55120000 		.4byte	.LASF95
 8224 0507 06       		.byte	0x6
 8225 0508 B801     		.2byte	0x1b8
 8226 050a 33020000 		.4byte	0x233
 8227 050e 10       		.byte	0x10
 8228 050f 09       		.uleb128 0x9
 8229 0510 B70A0000 		.4byte	.LASF96
 8230 0514 06       		.byte	0x6
 8231 0515 BA01     		.2byte	0x1ba
 8232 0517 07030000 		.4byte	0x307
 8233 051b 50       		.byte	0x50
 8234 051c 09       		.uleb128 0x9
 8235 051d CE150000 		.4byte	.LASF97
 8236 0521 06       		.byte	0x6
 8237 0522 BC01     		.2byte	0x1bc
 8238 0524 7B030000 		.4byte	0x37b
 8239 0528 6C       		.byte	0x6c
ARM GAS  C:\Users\ilya\AppData\Local\Temp\ccAjPEqD.s 			page 186


 8240 0529 09       		.uleb128 0x9
 8241 052a 93120000 		.4byte	.LASF98
 8242 052e 06       		.byte	0x6
 8243 052f BE01     		.2byte	0x1be
 8244 0531 C5040000 		.4byte	0x4c5
 8245 0535 D4       		.byte	0xd4
 8246 0536 0D       		.uleb128 0xd
 8247 0537 02080000 		.4byte	.LASF99
 8248 053b 06       		.byte	0x6
 8249 053c C001     		.2byte	0x1c0
 8250 053e AB030000 		.4byte	0x3ab
 8251 0542 2401     		.2byte	0x124
 8252 0544 0D       		.uleb128 0xd
 8253 0545 350F0000 		.4byte	.LASF100
 8254 0549 06       		.byte	0x6
 8255 054a C201     		.2byte	0x1c2
 8256 054c C3000000 		.4byte	0xc3
 8257 0550 3001     		.2byte	0x130
 8258 0552 0D       		.uleb128 0xd
 8259 0553 12160000 		.4byte	.LASF101
 8260 0557 06       		.byte	0x6
 8261 0558 C401     		.2byte	0x1c4
 8262 055a C3000000 		.4byte	0xc3
 8263 055e 3101     		.2byte	0x131
 8264 0560 0D       		.uleb128 0xd
 8265 0561 93170000 		.4byte	.LASF102
 8266 0565 06       		.byte	0x6
 8267 0566 C601     		.2byte	0x1c6
 8268 0568 3F020000 		.4byte	0x23f
 8269 056c 3201     		.2byte	0x132
 8270 056e 0D       		.uleb128 0xd
 8271 056f E8030000 		.4byte	.LASF103
 8272 0573 06       		.byte	0x6
 8273 0574 C801     		.2byte	0x1c8
 8274 0576 6C010000 		.4byte	0x16c
 8275 057a 3301     		.2byte	0x133
 8276 057c 0D       		.uleb128 0xd
 8277 057d 7D160000 		.4byte	.LASF78
 8278 0581 06       		.byte	0x6
 8279 0582 CA01     		.2byte	0x1ca
 8280 0584 D9000000 		.4byte	0xd9
 8281 0588 3401     		.2byte	0x134
 8282 058a 0D       		.uleb128 0xd
 8283 058b 70090000 		.4byte	.LASF79
 8284 058f 06       		.byte	0x6
 8285 0590 CC01     		.2byte	0x1cc
 8286 0592 D9000000 		.4byte	0xd9
 8287 0596 3601     		.2byte	0x136
 8288 0598 0D       		.uleb128 0xd
 8289 0599 31130000 		.4byte	.LASF80
 8290 059d 06       		.byte	0x6
 8291 059e CF01     		.2byte	0x1cf
 8292 05a0 D9000000 		.4byte	0xd9
 8293 05a4 3801     		.2byte	0x138
 8294 05a6 0D       		.uleb128 0xd
 8295 05a7 DA090000 		.4byte	.LASF104
 8296 05ab 06       		.byte	0x6
ARM GAS  C:\Users\ilya\AppData\Local\Temp\ccAjPEqD.s 			page 187


 8297 05ac D201     		.2byte	0x1d2
 8298 05ae C3000000 		.4byte	0xc3
 8299 05b2 3A01     		.2byte	0x13a
 8300 05b4 0D       		.uleb128 0xd
 8301 05b5 29060000 		.4byte	.LASF105
 8302 05b9 06       		.byte	0x6
 8303 05ba D401     		.2byte	0x1d4
 8304 05bc D9000000 		.4byte	0xd9
 8305 05c0 3C01     		.2byte	0x13c
 8306 05c2 0D       		.uleb128 0xd
 8307 05c3 5B160000 		.4byte	.LASF106
 8308 05c7 06       		.byte	0x6
 8309 05c8 D601     		.2byte	0x1d6
 8310 05ca 0C010000 		.4byte	0x10c
 8311 05ce 4001     		.2byte	0x140
 8312 05d0 0D       		.uleb128 0xd
 8313 05d1 18100000 		.4byte	.LASF107
 8314 05d5 06       		.byte	0x6
 8315 05d6 D901     		.2byte	0x1d9
 8316 05d8 0C010000 		.4byte	0x10c
 8317 05dc 4401     		.2byte	0x144
 8318 05de 0D       		.uleb128 0xd
 8319 05df A2100000 		.4byte	.LASF108
 8320 05e3 06       		.byte	0x6
 8321 05e4 DB01     		.2byte	0x1db
 8322 05e6 0C010000 		.4byte	0x10c
 8323 05ea 4801     		.2byte	0x148
 8324 05ec 0D       		.uleb128 0xd
 8325 05ed B5120000 		.4byte	.LASF109
 8326 05f1 06       		.byte	0x6
 8327 05f2 DD01     		.2byte	0x1dd
 8328 05f4 33060000 		.4byte	0x633
 8329 05f8 4C01     		.2byte	0x14c
 8330 05fa 0D       		.uleb128 0xd
 8331 05fb 6A070000 		.4byte	.LASF110
 8332 05ff 06       		.byte	0x6
 8333 0600 DF01     		.2byte	0x1df
 8334 0602 C3000000 		.4byte	0xc3
 8335 0606 5001     		.2byte	0x150
 8336 0608 0D       		.uleb128 0xd
 8337 0609 90070000 		.4byte	.LASF111
 8338 060d 06       		.byte	0x6
 8339 060e E101     		.2byte	0x1e1
 8340 0610 D9000000 		.4byte	0xd9
 8341 0614 5201     		.2byte	0x152
 8342 0616 0D       		.uleb128 0xd
 8343 0617 2C090000 		.4byte	.LASF112
 8344 061b 06       		.byte	0x6
 8345 061c E301     		.2byte	0x1e3
 8346 061e D9000000 		.4byte	0xd9
 8347 0622 5401     		.2byte	0x154
 8348 0624 0D       		.uleb128 0xd
 8349 0625 90130000 		.4byte	.LASF113
 8350 0629 06       		.byte	0x6
 8351 062a E501     		.2byte	0x1e5
 8352 062c 0C010000 		.4byte	0x10c
 8353 0630 5801     		.2byte	0x158
ARM GAS  C:\Users\ilya\AppData\Local\Temp\ccAjPEqD.s 			page 188


 8354 0632 00       		.byte	0
 8355 0633 0E       		.uleb128 0xe
 8356 0634 04       		.byte	0x4
 8357 0635 C3000000 		.4byte	0xc3
 8358 0639 0A       		.uleb128 0xa
 8359 063a DB130000 		.4byte	.LASF114
 8360 063e 06       		.byte	0x6
 8361 063f E801     		.2byte	0x1e8
 8362 0641 D1040000 		.4byte	0x4d1
 8363 0645 0A       		.uleb128 0xa
 8364 0646 93150000 		.4byte	.LASF115
 8365 064a 06       		.byte	0x6
 8366 064b FE01     		.2byte	0x1fe
 8367 064d C3000000 		.4byte	0xc3
 8368 0651 0B       		.uleb128 0xb
 8369 0652 05       		.byte	0x5
 8370 0653 06       		.byte	0x6
 8371 0654 0D02     		.2byte	0x20d
 8372 0656 9C060000 		.4byte	0x69c
 8373 065a 09       		.uleb128 0x9
 8374 065b A4080000 		.4byte	.LASF116
 8375 065f 06       		.byte	0x6
 8376 0660 0E02     		.2byte	0x20e
 8377 0662 C3000000 		.4byte	0xc3
 8378 0666 00       		.byte	0
 8379 0667 09       		.uleb128 0x9
 8380 0668 8E160000 		.4byte	.LASF117
 8381 066c 06       		.byte	0x6
 8382 066d 0F02     		.2byte	0x20f
 8383 066f C3000000 		.4byte	0xc3
 8384 0673 01       		.byte	0x1
 8385 0674 09       		.uleb128 0x9
 8386 0675 3D0C0000 		.4byte	.LASF118
 8387 0679 06       		.byte	0x6
 8388 067a 1002     		.2byte	0x210
 8389 067c C3000000 		.4byte	0xc3
 8390 0680 02       		.byte	0x2
 8391 0681 09       		.uleb128 0x9
 8392 0682 0F0C0000 		.4byte	.LASF119
 8393 0686 06       		.byte	0x6
 8394 0687 1102     		.2byte	0x211
 8395 0689 C3000000 		.4byte	0xc3
 8396 068d 03       		.byte	0x3
 8397 068e 09       		.uleb128 0x9
 8398 068f 570C0000 		.4byte	.LASF120
 8399 0693 06       		.byte	0x6
 8400 0694 1202     		.2byte	0x212
 8401 0696 C3000000 		.4byte	0xc3
 8402 069a 04       		.byte	0x4
 8403 069b 00       		.byte	0
 8404 069c 0A       		.uleb128 0xa
 8405 069d E00D0000 		.4byte	.LASF121
 8406 06a1 06       		.byte	0x6
 8407 06a2 1302     		.2byte	0x213
 8408 06a4 51060000 		.4byte	0x651
 8409 06a8 0A       		.uleb128 0xa
 8410 06a9 870E0000 		.4byte	.LASF122
ARM GAS  C:\Users\ilya\AppData\Local\Temp\ccAjPEqD.s 			page 189


 8411 06ad 06       		.byte	0x6
 8412 06ae 1C02     		.2byte	0x21c
 8413 06b0 C3000000 		.4byte	0xc3
 8414 06b4 0E       		.uleb128 0xe
 8415 06b5 04       		.byte	0x4
 8416 06b6 44010000 		.4byte	0x144
 8417 06ba 0F       		.uleb128 0xf
 8418 06bb 6001     		.2byte	0x160
 8419 06bd 07       		.byte	0x7
 8420 06be 3A       		.byte	0x3a
 8421 06bf F7060000 		.4byte	0x6f7
 8422 06c3 08       		.uleb128 0x8
 8423 06c4 E0170000 		.4byte	.LASF123
 8424 06c8 07       		.byte	0x7
 8425 06c9 3B       		.byte	0x3b
 8426 06ca 39060000 		.4byte	0x639
 8427 06ce 00       		.byte	0
 8428 06cf 10       		.uleb128 0x10
 8429 06d0 370E0000 		.4byte	.LASF124
 8430 06d4 07       		.byte	0x7
 8431 06d5 3E       		.byte	0x3e
 8432 06d6 C3000000 		.4byte	0xc3
 8433 06da 5C01     		.2byte	0x15c
 8434 06dc 10       		.uleb128 0x10
 8435 06dd CB110000 		.4byte	.LASF125
 8436 06e1 07       		.byte	0x7
 8437 06e2 3F       		.byte	0x3f
 8438 06e3 C3000000 		.4byte	0xc3
 8439 06e7 5D01     		.2byte	0x15d
 8440 06e9 10       		.uleb128 0x10
 8441 06ea 94080000 		.4byte	.LASF126
 8442 06ee 07       		.byte	0x7
 8443 06ef 40       		.byte	0x40
 8444 06f0 D9000000 		.4byte	0xd9
 8445 06f4 5E01     		.2byte	0x15e
 8446 06f6 00       		.byte	0
 8447 06f7 02       		.uleb128 0x2
 8448 06f8 A0030000 		.4byte	.LASF127
 8449 06fc 07       		.byte	0x7
 8450 06fd 42       		.byte	0x42
 8451 06fe BA060000 		.4byte	0x6ba
 8452 0702 02       		.uleb128 0x2
 8453 0703 9B000000 		.4byte	.LASF128
 8454 0707 07       		.byte	0x7
 8455 0708 49       		.byte	0x49
 8456 0709 0D070000 		.4byte	0x70d
 8457 070d 0E       		.uleb128 0xe
 8458 070e 04       		.byte	0x4
 8459 070f F7060000 		.4byte	0x6f7
 8460 0713 11       		.uleb128 0x11
 8461 0714 25030000 		.4byte	.LASF136
 8462 0718 01       		.byte	0x1
 8463 0719 2C       		.byte	0x2c
 8464 071a 4B010000 		.4byte	0x14b
 8465 071e 00000000 		.4byte	.LFB1
 8466 0722 72000000 		.4byte	.LFE1-.LFB1
 8467 0726 01       		.uleb128 0x1
ARM GAS  C:\Users\ilya\AppData\Local\Temp\ccAjPEqD.s 			page 190


 8468 0727 9C       		.byte	0x9c
 8469 0728 8F070000 		.4byte	0x78f
 8470 072c 12       		.uleb128 0x12
 8471 072d 0D0B0000 		.4byte	.LASF129
 8472 0731 01       		.byte	0x1
 8473 0732 2C       		.byte	0x2c
 8474 0733 33060000 		.4byte	0x633
 8475 0737 02       		.uleb128 0x2
 8476 0738 91       		.byte	0x91
 8477 0739 5C       		.sleb128 -36
 8478 073a 12       		.uleb128 0x12
 8479 073b 1E0D0000 		.4byte	.LASF130
 8480 073f 01       		.byte	0x1
 8481 0740 2C       		.byte	0x2c
 8482 0741 EF000000 		.4byte	0xef
 8483 0745 02       		.uleb128 0x2
 8484 0746 91       		.byte	0x91
 8485 0747 58       		.sleb128 -40
 8486 0748 13       		.uleb128 0x13
 8487 0749 CF010000 		.4byte	.LASF131
 8488 074d 01       		.byte	0x1
 8489 074e 2E       		.byte	0x2e
 8490 074f 4B010000 		.4byte	0x14b
 8491 0753 02       		.uleb128 0x2
 8492 0754 91       		.byte	0x91
 8493 0755 73       		.sleb128 -13
 8494 0756 13       		.uleb128 0x13
 8495 0757 48060000 		.4byte	.LASF132
 8496 075b 01       		.byte	0x1
 8497 075c 2F       		.byte	0x2f
 8498 075d C3000000 		.4byte	0xc3
 8499 0761 02       		.uleb128 0x2
 8500 0762 91       		.byte	0x91
 8501 0763 67       		.sleb128 -25
 8502 0764 13       		.uleb128 0x13
 8503 0765 84070000 		.4byte	.LASF133
 8504 0769 01       		.byte	0x1
 8505 076a 30       		.byte	0x30
 8506 076b EF000000 		.4byte	0xef
 8507 076f 02       		.uleb128 0x2
 8508 0770 91       		.byte	0x91
 8509 0771 68       		.sleb128 -24
 8510 0772 13       		.uleb128 0x13
 8511 0773 480B0000 		.4byte	.LASF134
 8512 0777 01       		.byte	0x1
 8513 0778 31       		.byte	0x31
 8514 0779 EF000000 		.4byte	0xef
 8515 077d 02       		.uleb128 0x2
 8516 077e 91       		.byte	0x91
 8517 077f 6C       		.sleb128 -20
 8518 0780 13       		.uleb128 0x13
 8519 0781 0F060000 		.4byte	.LASF135
 8520 0785 01       		.byte	0x1
 8521 0786 32       		.byte	0x32
 8522 0787 EF000000 		.4byte	0xef
 8523 078b 02       		.uleb128 0x2
 8524 078c 91       		.byte	0x91
ARM GAS  C:\Users\ilya\AppData\Local\Temp\ccAjPEqD.s 			page 191


 8525 078d 74       		.sleb128 -12
 8526 078e 00       		.byte	0
 8527 078f 14       		.uleb128 0x14
 8528 0790 FD160000 		.4byte	.LASF137
 8529 0794 01       		.byte	0x1
 8530 0795 3D       		.byte	0x3d
 8531 0796 4B010000 		.4byte	0x14b
 8532 079a 00000000 		.4byte	.LFB2
 8533 079e 84000000 		.4byte	.LFE2-.LFB2
 8534 07a2 01       		.uleb128 0x1
 8535 07a3 9C       		.byte	0x9c
 8536 07a4 E1070000 		.4byte	0x7e1
 8537 07a8 15       		.uleb128 0x15
 8538 07a9 44657600 		.ascii	"Dev\000"
 8539 07ad 01       		.byte	0x1
 8540 07ae 3D       		.byte	0x3d
 8541 07af 02070000 		.4byte	0x702
 8542 07b3 02       		.uleb128 0x2
 8543 07b4 91       		.byte	0x91
 8544 07b5 5C       		.sleb128 -36
 8545 07b6 13       		.uleb128 0x13
 8546 07b7 CF010000 		.4byte	.LASF131
 8547 07bb 01       		.byte	0x1
 8548 07bc 3F       		.byte	0x3f
 8549 07bd 4B010000 		.4byte	0x14b
 8550 07c1 02       		.uleb128 0x2
 8551 07c2 91       		.byte	0x91
 8552 07c3 6F       		.sleb128 -17
 8553 07c4 13       		.uleb128 0x13
 8554 07c5 6E050000 		.4byte	.LASF138
 8555 07c9 01       		.byte	0x1
 8556 07ca 40       		.byte	0x40
 8557 07cb C3000000 		.4byte	0xc3
 8558 07cf 02       		.uleb128 0x2
 8559 07d0 91       		.byte	0x91
 8560 07d1 67       		.sleb128 -25
 8561 07d2 13       		.uleb128 0x13
 8562 07d3 800B0000 		.4byte	.LASF139
 8563 07d7 01       		.byte	0x1
 8564 07d8 41       		.byte	0x41
 8565 07d9 EF000000 		.4byte	0xef
 8566 07dd 02       		.uleb128 0x2
 8567 07de 91       		.byte	0x91
 8568 07df 68       		.sleb128 -24
 8569 07e0 00       		.byte	0
 8570 07e1 11       		.uleb128 0x11
 8571 07e2 7F100000 		.4byte	.LASF140
 8572 07e6 01       		.byte	0x1
 8573 07e7 5E       		.byte	0x5e
 8574 07e8 C3000000 		.4byte	0xc3
 8575 07ec 00000000 		.4byte	.LFB3
 8576 07f0 32000000 		.4byte	.LFE3-.LFB3
 8577 07f4 01       		.uleb128 0x1
 8578 07f5 9C       		.byte	0x9c
 8579 07f6 17080000 		.4byte	0x817
 8580 07fa 12       		.uleb128 0x12
 8581 07fb 1F000000 		.4byte	.LASF141
ARM GAS  C:\Users\ilya\AppData\Local\Temp\ccAjPEqD.s 			page 192


 8582 07ff 01       		.byte	0x1
 8583 0800 5E       		.byte	0x5e
 8584 0801 C3000000 		.4byte	0xc3
 8585 0805 02       		.uleb128 0x2
 8586 0806 91       		.byte	0x91
 8587 0807 6F       		.sleb128 -17
 8588 0808 13       		.uleb128 0x13
 8589 0809 010E0000 		.4byte	.LASF142
 8590 080d 01       		.byte	0x1
 8591 080e 65       		.byte	0x65
 8592 080f C3000000 		.4byte	0xc3
 8593 0813 02       		.uleb128 0x2
 8594 0814 91       		.byte	0x91
 8595 0815 77       		.sleb128 -9
 8596 0816 00       		.byte	0
 8597 0817 11       		.uleb128 0x11
 8598 0818 28140000 		.4byte	.LASF143
 8599 081c 01       		.byte	0x1
 8600 081d 6C       		.byte	0x6c
 8601 081e C3000000 		.4byte	0xc3
 8602 0822 00000000 		.4byte	.LFB4
 8603 0826 32000000 		.4byte	.LFE4-.LFB4
 8604 082a 01       		.uleb128 0x1
 8605 082b 9C       		.byte	0x9c
 8606 082c 4D080000 		.4byte	0x84d
 8607 0830 12       		.uleb128 0x12
 8608 0831 010E0000 		.4byte	.LASF142
 8609 0835 01       		.byte	0x1
 8610 0836 6C       		.byte	0x6c
 8611 0837 C3000000 		.4byte	0xc3
 8612 083b 02       		.uleb128 0x2
 8613 083c 91       		.byte	0x91
 8614 083d 6F       		.sleb128 -17
 8615 083e 13       		.uleb128 0x13
 8616 083f 1F000000 		.4byte	.LASF141
 8617 0843 01       		.byte	0x1
 8618 0844 73       		.byte	0x73
 8619 0845 C3000000 		.4byte	0xc3
 8620 0849 02       		.uleb128 0x2
 8621 084a 91       		.byte	0x91
 8622 084b 77       		.sleb128 -9
 8623 084c 00       		.byte	0
 8624 084d 11       		.uleb128 0x11
 8625 084e 720D0000 		.4byte	.LASF144
 8626 0852 01       		.byte	0x1
 8627 0853 7B       		.byte	0x7b
 8628 0854 EF000000 		.4byte	0xef
 8629 0858 00000000 		.4byte	.LFB5
 8630 085c 64000000 		.4byte	.LFE5-.LFB5
 8631 0860 01       		.uleb128 0x1
 8632 0861 9C       		.byte	0x9c
 8633 0862 91080000 		.4byte	0x891
 8634 0866 15       		.uleb128 0x15
 8635 0867 6E756D00 		.ascii	"num\000"
 8636 086b 01       		.byte	0x1
 8637 086c 7B       		.byte	0x7b
 8638 086d EF000000 		.4byte	0xef
ARM GAS  C:\Users\ilya\AppData\Local\Temp\ccAjPEqD.s 			page 193


 8639 0871 02       		.uleb128 0x2
 8640 0872 91       		.byte	0x91
 8641 0873 6C       		.sleb128 -20
 8642 0874 16       		.uleb128 0x16
 8643 0875 72657300 		.ascii	"res\000"
 8644 0879 01       		.byte	0x1
 8645 087a 83       		.byte	0x83
 8646 087b EF000000 		.4byte	0xef
 8647 087f 02       		.uleb128 0x2
 8648 0880 91       		.byte	0x91
 8649 0881 74       		.sleb128 -12
 8650 0882 16       		.uleb128 0x16
 8651 0883 62697400 		.ascii	"bit\000"
 8652 0887 01       		.byte	0x1
 8653 0888 84       		.byte	0x84
 8654 0889 EF000000 		.4byte	0xef
 8655 088d 02       		.uleb128 0x2
 8656 088e 91       		.byte	0x91
 8657 088f 70       		.sleb128 -16
 8658 0890 00       		.byte	0
 8659 0891 14       		.uleb128 0x14
 8660 0892 E5170000 		.4byte	.LASF145
 8661 0896 01       		.byte	0x1
 8662 0897 9B       		.byte	0x9b
 8663 0898 EF000000 		.4byte	0xef
 8664 089c 00000000 		.4byte	.LFB6
 8665 08a0 4C000000 		.4byte	.LFE6-.LFB6
 8666 08a4 01       		.uleb128 0x1
 8667 08a5 9C       		.byte	0x9c
 8668 08a6 D1080000 		.4byte	0x8d1
 8669 08aa 15       		.uleb128 0x15
 8670 08ab 6100     		.ascii	"a\000"
 8671 08ad 01       		.byte	0x1
 8672 08ae 9B       		.byte	0x9b
 8673 08af EF000000 		.4byte	0xef
 8674 08b3 02       		.uleb128 0x2
 8675 08b4 91       		.byte	0x91
 8676 08b5 6C       		.sleb128 -20
 8677 08b6 15       		.uleb128 0x15
 8678 08b7 6200     		.ascii	"b\000"
 8679 08b9 01       		.byte	0x1
 8680 08ba 9B       		.byte	0x9b
 8681 08bb EF000000 		.4byte	0xef
 8682 08bf 02       		.uleb128 0x2
 8683 08c0 91       		.byte	0x91
 8684 08c1 68       		.sleb128 -24
 8685 08c2 16       		.uleb128 0x16
 8686 08c3 72657300 		.ascii	"res\000"
 8687 08c7 01       		.byte	0x1
 8688 08c8 A7       		.byte	0xa7
 8689 08c9 EF000000 		.4byte	0xef
 8690 08cd 02       		.uleb128 0x2
 8691 08ce 91       		.byte	0x91
 8692 08cf 74       		.sleb128 -12
 8693 08d0 00       		.byte	0
 8694 08d1 14       		.uleb128 0x14
 8695 08d2 AA080000 		.4byte	.LASF146
ARM GAS  C:\Users\ilya\AppData\Local\Temp\ccAjPEqD.s 			page 194


 8696 08d6 01       		.byte	0x1
 8697 08d7 B2       		.byte	0xb2
 8698 08d8 4B010000 		.4byte	0x14b
 8699 08dc 00000000 		.4byte	.LFB7
 8700 08e0 BC000000 		.4byte	.LFE7-.LFB7
 8701 08e4 01       		.uleb128 0x1
 8702 08e5 9C       		.byte	0x9c
 8703 08e6 23090000 		.4byte	0x923
 8704 08ea 15       		.uleb128 0x15
 8705 08eb 44657600 		.ascii	"Dev\000"
 8706 08ef 01       		.byte	0x1
 8707 08f0 B2       		.byte	0xb2
 8708 08f1 02070000 		.4byte	0x702
 8709 08f5 02       		.uleb128 0x2
 8710 08f6 91       		.byte	0x91
 8711 08f7 5C       		.sleb128 -36
 8712 08f8 13       		.uleb128 0x13
 8713 08f9 CF010000 		.4byte	.LASF131
 8714 08fd 01       		.byte	0x1
 8715 08fe B4       		.byte	0xb4
 8716 08ff 4B010000 		.4byte	0x14b
 8717 0903 02       		.uleb128 0x2
 8718 0904 91       		.byte	0x91
 8719 0905 6F       		.sleb128 -17
 8720 0906 13       		.uleb128 0x13
 8721 0907 42000000 		.4byte	.LASF147
 8722 090b 01       		.byte	0x1
 8723 090c B5       		.byte	0xb5
 8724 090d C3000000 		.4byte	0xc3
 8725 0911 02       		.uleb128 0x2
 8726 0912 91       		.byte	0x91
 8727 0913 67       		.sleb128 -25
 8728 0914 13       		.uleb128 0x13
 8729 0915 800B0000 		.4byte	.LASF139
 8730 0919 01       		.byte	0x1
 8731 091a B6       		.byte	0xb6
 8732 091b EF000000 		.4byte	0xef
 8733 091f 02       		.uleb128 0x2
 8734 0920 91       		.byte	0x91
 8735 0921 68       		.sleb128 -24
 8736 0922 00       		.byte	0
 8737 0923 14       		.uleb128 0x14
 8738 0924 180F0000 		.4byte	.LASF148
 8739 0928 01       		.byte	0x1
 8740 0929 D3       		.byte	0xd3
 8741 092a 4B010000 		.4byte	0x14b
 8742 092e 00000000 		.4byte	.LFB8
 8743 0932 A60B0000 		.4byte	.LFE8-.LFB8
 8744 0936 01       		.uleb128 0x1
 8745 0937 9C       		.byte	0x9c
 8746 0938 740A0000 		.4byte	0xa74
 8747 093c 15       		.uleb128 0x15
 8748 093d 44657600 		.ascii	"Dev\000"
 8749 0941 01       		.byte	0x1
 8750 0942 D3       		.byte	0xd3
 8751 0943 02070000 		.4byte	0x702
 8752 0947 03       		.uleb128 0x3
ARM GAS  C:\Users\ilya\AppData\Local\Temp\ccAjPEqD.s 			page 195


 8753 0948 91       		.byte	0x91
 8754 0949 9C7F     		.sleb128 -100
 8755 094b 12       		.uleb128 0x12
 8756 094c 9B100000 		.4byte	.LASF149
 8757 0950 01       		.byte	0x1
 8758 0951 D3       		.byte	0xd3
 8759 0952 C3000000 		.4byte	0xc3
 8760 0956 03       		.uleb128 0x3
 8761 0957 91       		.byte	0x91
 8762 0958 9B7F     		.sleb128 -101
 8763 095a 13       		.uleb128 0x13
 8764 095b CF010000 		.4byte	.LASF131
 8765 095f 01       		.byte	0x1
 8766 0960 D6       		.byte	0xd6
 8767 0961 4B010000 		.4byte	0x14b
 8768 0965 02       		.uleb128 0x2
 8769 0966 91       		.byte	0x91
 8770 0967 77       		.sleb128 -9
 8771 0968 13       		.uleb128 0x13
 8772 0969 0E130000 		.4byte	.LASF150
 8773 096d 01       		.byte	0x1
 8774 096e D7       		.byte	0xd7
 8775 096f C3000000 		.4byte	0xc3
 8776 0973 02       		.uleb128 0x2
 8777 0974 91       		.byte	0x91
 8778 0975 4F       		.sleb128 -49
 8779 0976 13       		.uleb128 0x13
 8780 0977 62100000 		.4byte	.LASF151
 8781 097b 01       		.byte	0x1
 8782 097c D8       		.byte	0xd8
 8783 097d EF000000 		.4byte	0xef
 8784 0981 02       		.uleb128 0x2
 8785 0982 91       		.byte	0x91
 8786 0983 48       		.sleb128 -56
 8787 0984 13       		.uleb128 0x13
 8788 0985 54080000 		.4byte	.LASF82
 8789 0989 01       		.byte	0x1
 8790 098a D9       		.byte	0xd9
 8791 098b C3000000 		.4byte	0xc3
 8792 098f 02       		.uleb128 0x2
 8793 0990 91       		.byte	0x91
 8794 0991 47       		.sleb128 -57
 8795 0992 13       		.uleb128 0x13
 8796 0993 52040000 		.4byte	.LASF83
 8797 0997 01       		.byte	0x1
 8798 0998 DA       		.byte	0xda
 8799 0999 C3000000 		.4byte	0xc3
 8800 099d 02       		.uleb128 0x2
 8801 099e 91       		.byte	0x91
 8802 099f 46       		.sleb128 -58
 8803 09a0 13       		.uleb128 0x13
 8804 09a1 2E080000 		.4byte	.LASF85
 8805 09a5 01       		.byte	0x1
 8806 09a6 DB       		.byte	0xdb
 8807 09a7 C3000000 		.4byte	0xc3
 8808 09ab 02       		.uleb128 0x2
 8809 09ac 91       		.byte	0x91
ARM GAS  C:\Users\ilya\AppData\Local\Temp\ccAjPEqD.s 			page 196


 8810 09ad 76       		.sleb128 -10
 8811 09ae 13       		.uleb128 0x13
 8812 09af AF0F0000 		.4byte	.LASF86
 8813 09b3 01       		.byte	0x1
 8814 09b4 DC       		.byte	0xdc
 8815 09b5 C3000000 		.4byte	0xc3
 8816 09b9 02       		.uleb128 0x2
 8817 09ba 91       		.byte	0x91
 8818 09bb 75       		.sleb128 -11
 8819 09bc 13       		.uleb128 0x13
 8820 09bd 0B100000 		.4byte	.LASF88
 8821 09c1 01       		.byte	0x1
 8822 09c2 DD       		.byte	0xdd
 8823 09c3 EF000000 		.4byte	0xef
 8824 09c7 02       		.uleb128 0x2
 8825 09c8 91       		.byte	0x91
 8826 09c9 40       		.sleb128 -64
 8827 09ca 13       		.uleb128 0x13
 8828 09cb 8E000000 		.4byte	.LASF89
 8829 09cf 01       		.byte	0x1
 8830 09d0 DE       		.byte	0xde
 8831 09d1 EF000000 		.4byte	0xef
 8832 09d5 03       		.uleb128 0x3
 8833 09d6 91       		.byte	0x91
 8834 09d7 BC7F     		.sleb128 -68
 8835 09d9 13       		.uleb128 0x13
 8836 09da 41080000 		.4byte	.LASF152
 8837 09de 01       		.byte	0x1
 8838 09df DF       		.byte	0xdf
 8839 09e0 EF000000 		.4byte	0xef
 8840 09e4 02       		.uleb128 0x2
 8841 09e5 91       		.byte	0x91
 8842 09e6 60       		.sleb128 -32
 8843 09e7 13       		.uleb128 0x13
 8844 09e8 990D0000 		.4byte	.LASF153
 8845 09ec 01       		.byte	0x1
 8846 09ed E0       		.byte	0xe0
 8847 09ee CE000000 		.4byte	0xce
 8848 09f2 02       		.uleb128 0x2
 8849 09f3 91       		.byte	0x91
 8850 09f4 72       		.sleb128 -14
 8851 09f5 13       		.uleb128 0x13
 8852 09f6 EA070000 		.4byte	.LASF154
 8853 09fa 01       		.byte	0x1
 8854 09fb E1       		.byte	0xe1
 8855 09fc EF000000 		.4byte	0xef
 8856 0a00 02       		.uleb128 0x2
 8857 0a01 91       		.byte	0x91
 8858 0a02 5C       		.sleb128 -36
 8859 0a03 13       		.uleb128 0x13
 8860 0a04 AA0E0000 		.4byte	.LASF155
 8861 0a08 01       		.byte	0x1
 8862 0a09 E2       		.byte	0xe2
 8863 0a0a EF000000 		.4byte	0xef
 8864 0a0e 02       		.uleb128 0x2
 8865 0a0f 91       		.byte	0x91
 8866 0a10 6C       		.sleb128 -20
ARM GAS  C:\Users\ilya\AppData\Local\Temp\ccAjPEqD.s 			page 197


 8867 0a11 13       		.uleb128 0x13
 8868 0a12 5B040000 		.4byte	.LASF156
 8869 0a16 01       		.byte	0x1
 8870 0a17 E3       		.byte	0xe3
 8871 0a18 EF000000 		.4byte	0xef
 8872 0a1c 02       		.uleb128 0x2
 8873 0a1d 91       		.byte	0x91
 8874 0a1e 68       		.sleb128 -24
 8875 0a1f 13       		.uleb128 0x13
 8876 0a20 06020000 		.4byte	.LASF84
 8877 0a24 01       		.byte	0x1
 8878 0a25 E4       		.byte	0xe4
 8879 0a26 740A0000 		.4byte	0xa74
 8880 0a2a 03       		.uleb128 0x3
 8881 0a2b 91       		.byte	0x91
 8882 0a2c A87F     		.sleb128 -88
 8883 0a2e 13       		.uleb128 0x13
 8884 0a2f 120B0000 		.4byte	.LASF157
 8885 0a33 01       		.byte	0x1
 8886 0a34 E5       		.byte	0xe5
 8887 0a35 B4060000 		.4byte	0x6b4
 8888 0a39 02       		.uleb128 0x2
 8889 0a3a 91       		.byte	0x91
 8890 0a3b 50       		.sleb128 -48
 8891 0a3c 13       		.uleb128 0x13
 8892 0a3d 520A0000 		.4byte	.LASF81
 8893 0a41 01       		.byte	0x1
 8894 0a42 E6       		.byte	0xe6
 8895 0a43 C3000000 		.4byte	0xc3
 8896 0a47 02       		.uleb128 0x2
 8897 0a48 91       		.byte	0x91
 8898 0a49 57       		.sleb128 -41
 8899 0a4a 13       		.uleb128 0x13
 8900 0a4b 19070000 		.4byte	.LASF158
 8901 0a4f 01       		.byte	0x1
 8902 0a50 E7       		.byte	0xe7
 8903 0a51 0C010000 		.4byte	0x10c
 8904 0a55 02       		.uleb128 0x2
 8905 0a56 91       		.byte	0x91
 8906 0a57 58       		.sleb128 -40
 8907 0a58 13       		.uleb128 0x13
 8908 0a59 040A0000 		.4byte	.LASF159
 8909 0a5d 01       		.byte	0x1
 8910 0a5e E8       		.byte	0xe8
 8911 0a5f 13020000 		.4byte	0x213
 8912 0a63 03       		.uleb128 0x3
 8913 0a64 91       		.byte	0x91
 8914 0a65 A07F     		.sleb128 -96
 8915 0a67 16       		.uleb128 0x16
 8916 0a68 6900     		.ascii	"i\000"
 8917 0a6a 01       		.byte	0x1
 8918 0a6b E9       		.byte	0xe9
 8919 0a6c AA000000 		.4byte	0xaa
 8920 0a70 02       		.uleb128 0x2
 8921 0a71 91       		.byte	0x91
 8922 0a72 64       		.sleb128 -28
 8923 0a73 00       		.byte	0
ARM GAS  C:\Users\ilya\AppData\Local\Temp\ccAjPEqD.s 			page 198


 8924 0a74 05       		.uleb128 0x5
 8925 0a75 44010000 		.4byte	0x144
 8926 0a79 840A0000 		.4byte	0xa84
 8927 0a7d 06       		.uleb128 0x6
 8928 0a7e 3D010000 		.4byte	0x13d
 8929 0a82 12       		.byte	0x12
 8930 0a83 00       		.byte	0
 8931 0a84 17       		.uleb128 0x17
 8932 0a85 F4140000 		.4byte	.LASF160
 8933 0a89 01       		.byte	0x1
 8934 0a8a DE01     		.2byte	0x1de
 8935 0a8c EF000000 		.4byte	0xef
 8936 0a90 00000000 		.4byte	.LFB9
 8937 0a94 38000000 		.4byte	.LFE9-.LFB9
 8938 0a98 01       		.uleb128 0x1
 8939 0a99 9C       		.byte	0x9c
 8940 0a9a EA0A0000 		.4byte	0xaea
 8941 0a9e 18       		.uleb128 0x18
 8942 0a9f 44657600 		.ascii	"Dev\000"
 8943 0aa3 01       		.byte	0x1
 8944 0aa4 DE01     		.2byte	0x1de
 8945 0aa6 02070000 		.4byte	0x702
 8946 0aaa 02       		.uleb128 0x2
 8947 0aab 91       		.byte	0x91
 8948 0aac 5C       		.sleb128 -36
 8949 0aad 19       		.uleb128 0x19
 8950 0aae 010E0000 		.4byte	.LASF142
 8951 0ab2 01       		.byte	0x1
 8952 0ab3 DE01     		.2byte	0x1de
 8953 0ab5 C3000000 		.4byte	0xc3
 8954 0ab9 02       		.uleb128 0x2
 8955 0aba 91       		.byte	0x91
 8956 0abb 5B       		.sleb128 -37
 8957 0abc 1A       		.uleb128 0x1a
 8958 0abd 6E030000 		.4byte	.LASF161
 8959 0ac1 01       		.byte	0x1
 8960 0ac2 E001     		.2byte	0x1e0
 8961 0ac4 FA000000 		.4byte	0xfa
 8962 0ac8 02       		.uleb128 0x2
 8963 0ac9 91       		.byte	0x91
 8964 0aca 68       		.sleb128 -24
 8965 0acb 1A       		.uleb128 0x1a
 8966 0acc 97040000 		.4byte	.LASF162
 8967 0ad0 01       		.byte	0x1
 8968 0ad1 E101     		.2byte	0x1e1
 8969 0ad3 EF000000 		.4byte	0xef
 8970 0ad7 02       		.uleb128 0x2
 8971 0ad8 91       		.byte	0x91
 8972 0ad9 64       		.sleb128 -28
 8973 0ada 1A       		.uleb128 0x1a
 8974 0adb F2030000 		.4byte	.LASF163
 8975 0adf 01       		.byte	0x1
 8976 0ae0 E201     		.2byte	0x1e2
 8977 0ae2 EF000000 		.4byte	0xef
 8978 0ae6 02       		.uleb128 0x2
 8979 0ae7 91       		.byte	0x91
 8980 0ae8 60       		.sleb128 -32
ARM GAS  C:\Users\ilya\AppData\Local\Temp\ccAjPEqD.s 			page 199


 8981 0ae9 00       		.byte	0
 8982 0aea 17       		.uleb128 0x17
 8983 0aeb FE080000 		.4byte	.LASF164
 8984 0aef 01       		.byte	0x1
 8985 0af0 F301     		.2byte	0x1f3
 8986 0af2 D9000000 		.4byte	0xd9
 8987 0af6 00000000 		.4byte	.LFB10
 8988 0afa 70000000 		.4byte	.LFE10-.LFB10
 8989 0afe 01       		.uleb128 0x1
 8990 0aff 9C       		.byte	0x9c
 8991 0b00 410B0000 		.4byte	0xb41
 8992 0b04 19       		.uleb128 0x19
 8993 0b05 BB150000 		.4byte	.LASF165
 8994 0b09 01       		.byte	0x1
 8995 0b0a F301     		.2byte	0x1f3
 8996 0b0c EF000000 		.4byte	0xef
 8997 0b10 02       		.uleb128 0x2
 8998 0b11 91       		.byte	0x91
 8999 0b12 64       		.sleb128 -28
 9000 0b13 1A       		.uleb128 0x1a
 9001 0b14 7C030000 		.4byte	.LASF166
 9002 0b18 01       		.byte	0x1
 9003 0b19 F901     		.2byte	0x1f9
 9004 0b1b D9000000 		.4byte	0xd9
 9005 0b1f 02       		.uleb128 0x2
 9006 0b20 91       		.byte	0x91
 9007 0b21 76       		.sleb128 -10
 9008 0b22 1A       		.uleb128 0x1a
 9009 0b23 050B0000 		.4byte	.LASF167
 9010 0b27 01       		.byte	0x1
 9011 0b28 FA01     		.2byte	0x1fa
 9012 0b2a EF000000 		.4byte	0xef
 9013 0b2e 02       		.uleb128 0x2
 9014 0b2f 91       		.byte	0x91
 9015 0b30 70       		.sleb128 -16
 9016 0b31 1A       		.uleb128 0x1a
 9017 0b32 00000000 		.4byte	.LASF168
 9018 0b36 01       		.byte	0x1
 9019 0b37 FB01     		.2byte	0x1fb
 9020 0b39 D9000000 		.4byte	0xd9
 9021 0b3d 02       		.uleb128 0x2
 9022 0b3e 91       		.byte	0x91
 9023 0b3f 6E       		.sleb128 -18
 9024 0b40 00       		.byte	0
 9025 0b41 17       		.uleb128 0x17
 9026 0b42 D0160000 		.4byte	.LASF169
 9027 0b46 01       		.byte	0x1
 9028 0b47 0D02     		.2byte	0x20d
 9029 0b49 EF000000 		.4byte	0xef
 9030 0b4d 00000000 		.4byte	.LFB11
 9031 0b51 30000000 		.4byte	.LFE11-.LFB11
 9032 0b55 01       		.uleb128 0x1
 9033 0b56 9C       		.byte	0x9c
 9034 0b57 7A0B0000 		.4byte	0xb7a
 9035 0b5b 19       		.uleb128 0x19
 9036 0b5c 7C030000 		.4byte	.LASF166
 9037 0b60 01       		.byte	0x1
ARM GAS  C:\Users\ilya\AppData\Local\Temp\ccAjPEqD.s 			page 200


 9038 0b61 0D02     		.2byte	0x20d
 9039 0b63 D9000000 		.4byte	0xd9
 9040 0b67 02       		.uleb128 0x2
 9041 0b68 91       		.byte	0x91
 9042 0b69 6E       		.sleb128 -18
 9043 0b6a 1A       		.uleb128 0x1a
 9044 0b6b BB150000 		.4byte	.LASF165
 9045 0b6f 01       		.byte	0x1
 9046 0b70 1302     		.2byte	0x213
 9047 0b72 EF000000 		.4byte	0xef
 9048 0b76 02       		.uleb128 0x2
 9049 0b77 91       		.byte	0x91
 9050 0b78 74       		.sleb128 -12
 9051 0b79 00       		.byte	0
 9052 0b7a 1B       		.uleb128 0x1b
 9053 0b7b D9050000 		.4byte	.LASF170
 9054 0b7f 01       		.byte	0x1
 9055 0b80 1D02     		.2byte	0x21d
 9056 0b82 EF000000 		.4byte	0xef
 9057 0b86 00000000 		.4byte	.LFB12
 9058 0b8a 5E000000 		.4byte	.LFE12-.LFB12
 9059 0b8e 01       		.uleb128 0x1
 9060 0b8f 9C       		.byte	0x9c
 9061 0b90 EF0B0000 		.4byte	0xbef
 9062 0b94 18       		.uleb128 0x18
 9063 0b95 44657600 		.ascii	"Dev\000"
 9064 0b99 01       		.byte	0x1
 9065 0b9a 1D02     		.2byte	0x21d
 9066 0b9c 02070000 		.4byte	0x702
 9067 0ba0 02       		.uleb128 0x2
 9068 0ba1 91       		.byte	0x91
 9069 0ba2 64       		.sleb128 -28
 9070 0ba3 19       		.uleb128 0x19
 9071 0ba4 35070000 		.4byte	.LASF171
 9072 0ba8 01       		.byte	0x1
 9073 0ba9 1E02     		.2byte	0x21e
 9074 0bab EF000000 		.4byte	0xef
 9075 0baf 02       		.uleb128 0x2
 9076 0bb0 91       		.byte	0x91
 9077 0bb1 60       		.sleb128 -32
 9078 0bb2 19       		.uleb128 0x19
 9079 0bb3 010E0000 		.4byte	.LASF142
 9080 0bb7 01       		.byte	0x1
 9081 0bb8 1F02     		.2byte	0x21f
 9082 0bba C3000000 		.4byte	0xc3
 9083 0bbe 02       		.uleb128 0x2
 9084 0bbf 91       		.byte	0x91
 9085 0bc0 5F       		.sleb128 -33
 9086 0bc1 1A       		.uleb128 0x1a
 9087 0bc2 F2030000 		.4byte	.LASF163
 9088 0bc6 01       		.byte	0x1
 9089 0bc7 2102     		.2byte	0x221
 9090 0bc9 EF000000 		.4byte	0xef
 9091 0bcd 02       		.uleb128 0x2
 9092 0bce 91       		.byte	0x91
 9093 0bcf 70       		.sleb128 -16
 9094 0bd0 1A       		.uleb128 0x1a
ARM GAS  C:\Users\ilya\AppData\Local\Temp\ccAjPEqD.s 			page 201


 9095 0bd1 49000000 		.4byte	.LASF172
 9096 0bd5 01       		.byte	0x1
 9097 0bd6 2202     		.2byte	0x222
 9098 0bd8 EF000000 		.4byte	0xef
 9099 0bdc 02       		.uleb128 0x2
 9100 0bdd 91       		.byte	0x91
 9101 0bde 6C       		.sleb128 -20
 9102 0bdf 1A       		.uleb128 0x1a
 9103 0be0 AA040000 		.4byte	.LASF173
 9104 0be4 01       		.byte	0x1
 9105 0be5 2302     		.2byte	0x223
 9106 0be7 EF000000 		.4byte	0xef
 9107 0beb 02       		.uleb128 0x2
 9108 0bec 91       		.byte	0x91
 9109 0bed 74       		.sleb128 -12
 9110 0bee 00       		.byte	0
 9111 0bef 1B       		.uleb128 0x1b
 9112 0bf0 56150000 		.4byte	.LASF174
 9113 0bf4 01       		.byte	0x1
 9114 0bf5 3002     		.2byte	0x230
 9115 0bf7 EF000000 		.4byte	0xef
 9116 0bfb 00000000 		.4byte	.LFB13
 9117 0bff 6A000000 		.4byte	.LFE13-.LFB13
 9118 0c03 01       		.uleb128 0x1
 9119 0c04 9C       		.byte	0x9c
 9120 0c05 640C0000 		.4byte	0xc64
 9121 0c09 18       		.uleb128 0x18
 9122 0c0a 44657600 		.ascii	"Dev\000"
 9123 0c0e 01       		.byte	0x1
 9124 0c0f 3002     		.2byte	0x230
 9125 0c11 02070000 		.4byte	0x702
 9126 0c15 02       		.uleb128 0x2
 9127 0c16 91       		.byte	0x91
 9128 0c17 64       		.sleb128 -28
 9129 0c18 19       		.uleb128 0x19
 9130 0c19 AA040000 		.4byte	.LASF173
 9131 0c1d 01       		.byte	0x1
 9132 0c1e 3102     		.2byte	0x231
 9133 0c20 D9000000 		.4byte	0xd9
 9134 0c24 02       		.uleb128 0x2
 9135 0c25 91       		.byte	0x91
 9136 0c26 62       		.sleb128 -30
 9137 0c27 19       		.uleb128 0x19
 9138 0c28 010E0000 		.4byte	.LASF142
 9139 0c2c 01       		.byte	0x1
 9140 0c2d 3202     		.2byte	0x232
 9141 0c2f C3000000 		.4byte	0xc3
 9142 0c33 02       		.uleb128 0x2
 9143 0c34 91       		.byte	0x91
 9144 0c35 61       		.sleb128 -31
 9145 0c36 1A       		.uleb128 0x1a
 9146 0c37 F2030000 		.4byte	.LASF163
 9147 0c3b 01       		.byte	0x1
 9148 0c3c 3402     		.2byte	0x234
 9149 0c3e EF000000 		.4byte	0xef
 9150 0c42 02       		.uleb128 0x2
 9151 0c43 91       		.byte	0x91
ARM GAS  C:\Users\ilya\AppData\Local\Temp\ccAjPEqD.s 			page 202


 9152 0c44 70       		.sleb128 -16
 9153 0c45 1A       		.uleb128 0x1a
 9154 0c46 49000000 		.4byte	.LASF172
 9155 0c4a 01       		.byte	0x1
 9156 0c4b 3502     		.2byte	0x235
 9157 0c4d EF000000 		.4byte	0xef
 9158 0c51 02       		.uleb128 0x2
 9159 0c52 91       		.byte	0x91
 9160 0c53 6C       		.sleb128 -20
 9161 0c54 1A       		.uleb128 0x1a
 9162 0c55 D1070000 		.4byte	.LASF175
 9163 0c59 01       		.byte	0x1
 9164 0c5a 3602     		.2byte	0x236
 9165 0c5c EF000000 		.4byte	0xef
 9166 0c60 02       		.uleb128 0x2
 9167 0c61 91       		.byte	0x91
 9168 0c62 74       		.sleb128 -12
 9169 0c63 00       		.byte	0
 9170 0c64 1B       		.uleb128 0x1b
 9171 0c65 0B030000 		.4byte	.LASF176
 9172 0c69 01       		.byte	0x1
 9173 0c6a 4202     		.2byte	0x242
 9174 0c6c 4B010000 		.4byte	0x14b
 9175 0c70 00000000 		.4byte	.LFB14
 9176 0c74 62020000 		.4byte	.LFE14-.LFB14
 9177 0c78 01       		.uleb128 0x1
 9178 0c79 9C       		.byte	0x9c
 9179 0c7a 420D0000 		.4byte	0xd42
 9180 0c7e 18       		.uleb128 0x18
 9181 0c7f 44657600 		.ascii	"Dev\000"
 9182 0c83 01       		.byte	0x1
 9183 0c84 4202     		.2byte	0x242
 9184 0c86 02070000 		.4byte	0x702
 9185 0c8a 02       		.uleb128 0x2
 9186 0c8b 91       		.byte	0x91
 9187 0c8c 4C       		.sleb128 -52
 9188 0c8d 19       		.uleb128 0x19
 9189 0c8e 0A070000 		.4byte	.LASF177
 9190 0c92 01       		.byte	0x1
 9191 0c93 4302     		.2byte	0x243
 9192 0c95 A8060000 		.4byte	0x6a8
 9193 0c99 02       		.uleb128 0x2
 9194 0c9a 91       		.byte	0x91
 9195 0c9b 4B       		.sleb128 -53
 9196 0c9c 19       		.uleb128 0x19
 9197 0c9d 25120000 		.4byte	.LASF178
 9198 0ca1 01       		.byte	0x1
 9199 0ca2 4402     		.2byte	0x244
 9200 0ca4 420D0000 		.4byte	0xd42
 9201 0ca8 02       		.uleb128 0x2
 9202 0ca9 91       		.byte	0x91
 9203 0caa 44       		.sleb128 -60
 9204 0cab 1A       		.uleb128 0x1a
 9205 0cac CF010000 		.4byte	.LASF131
 9206 0cb0 01       		.byte	0x1
 9207 0cb1 4602     		.2byte	0x246
 9208 0cb3 4B010000 		.4byte	0x14b
ARM GAS  C:\Users\ilya\AppData\Local\Temp\ccAjPEqD.s 			page 203


 9209 0cb7 02       		.uleb128 0x2
 9210 0cb8 91       		.byte	0x91
 9211 0cb9 6F       		.sleb128 -17
 9212 0cba 1A       		.uleb128 0x1a
 9213 0cbb 54090000 		.4byte	.LASF179
 9214 0cbf 01       		.byte	0x1
 9215 0cc0 4702     		.2byte	0x247
 9216 0cc2 C3000000 		.4byte	0xc3
 9217 0cc6 02       		.uleb128 0x2
 9218 0cc7 91       		.byte	0x91
 9219 0cc8 61       		.sleb128 -31
 9220 0cc9 1A       		.uleb128 0x1a
 9221 0cca 27100000 		.4byte	.LASF180
 9222 0cce 01       		.byte	0x1
 9223 0ccf 4802     		.2byte	0x248
 9224 0cd1 C3000000 		.4byte	0xc3
 9225 0cd5 02       		.uleb128 0x2
 9226 0cd6 91       		.byte	0x91
 9227 0cd7 60       		.sleb128 -32
 9228 0cd8 1A       		.uleb128 0x1a
 9229 0cd9 8C030000 		.4byte	.LASF181
 9230 0cdd 01       		.byte	0x1
 9231 0cde 4902     		.2byte	0x249
 9232 0ce0 EF000000 		.4byte	0xef
 9233 0ce4 02       		.uleb128 0x2
 9234 0ce5 91       		.byte	0x91
 9235 0ce6 68       		.sleb128 -24
 9236 0ce7 1A       		.uleb128 0x1a
 9237 0ce8 08000000 		.4byte	.LASF182
 9238 0cec 01       		.byte	0x1
 9239 0ced 4A02     		.2byte	0x24a
 9240 0cef D9000000 		.4byte	0xd9
 9241 0cf3 02       		.uleb128 0x2
 9242 0cf4 91       		.byte	0x91
 9243 0cf5 5E       		.sleb128 -34
 9244 0cf6 1A       		.uleb128 0x1a
 9245 0cf7 8E0F0000 		.4byte	.LASF183
 9246 0cfb 01       		.byte	0x1
 9247 0cfc 4B02     		.2byte	0x24b
 9248 0cfe D9000000 		.4byte	0xd9
 9249 0d02 02       		.uleb128 0x2
 9250 0d03 91       		.byte	0x91
 9251 0d04 62       		.sleb128 -30
 9252 0d05 1A       		.uleb128 0x1a
 9253 0d06 A60C0000 		.4byte	.LASF184
 9254 0d0a 01       		.byte	0x1
 9255 0d0b 4C02     		.2byte	0x24c
 9256 0d0d D9000000 		.4byte	0xd9
 9257 0d11 02       		.uleb128 0x2
 9258 0d12 91       		.byte	0x91
 9259 0d13 66       		.sleb128 -26
 9260 0d14 1A       		.uleb128 0x1a
 9261 0d15 A6170000 		.4byte	.LASF185
 9262 0d19 01       		.byte	0x1
 9263 0d1a 4D02     		.2byte	0x24d
 9264 0d1c D9000000 		.4byte	0xd9
 9265 0d20 02       		.uleb128 0x2
ARM GAS  C:\Users\ilya\AppData\Local\Temp\ccAjPEqD.s 			page 204


 9266 0d21 91       		.byte	0x91
 9267 0d22 64       		.sleb128 -28
 9268 0d23 1A       		.uleb128 0x1a
 9269 0d24 B5000000 		.4byte	.LASF186
 9270 0d28 01       		.byte	0x1
 9271 0d29 4E02     		.2byte	0x24e
 9272 0d2b D9000000 		.4byte	0xd9
 9273 0d2f 02       		.uleb128 0x2
 9274 0d30 91       		.byte	0x91
 9275 0d31 5C       		.sleb128 -36
 9276 0d32 1A       		.uleb128 0x1a
 9277 0d33 3F150000 		.4byte	.LASF187
 9278 0d37 01       		.byte	0x1
 9279 0d38 4F02     		.2byte	0x24f
 9280 0d3a 9C060000 		.4byte	0x69c
 9281 0d3e 02       		.uleb128 0x2
 9282 0d3f 91       		.byte	0x91
 9283 0d40 54       		.sleb128 -44
 9284 0d41 00       		.byte	0
 9285 0d42 0E       		.uleb128 0xe
 9286 0d43 04       		.byte	0x4
 9287 0d44 EF000000 		.4byte	0xef
 9288 0d48 1B       		.uleb128 0x1b
 9289 0d49 CE000000 		.4byte	.LASF188
 9290 0d4d 01       		.byte	0x1
 9291 0d4e AF02     		.2byte	0x2af
 9292 0d50 4B010000 		.4byte	0x14b
 9293 0d54 00000000 		.4byte	.LFB15
 9294 0d58 9A020000 		.4byte	.LFE15-.LFB15
 9295 0d5c 01       		.uleb128 0x1
 9296 0d5d 9C       		.byte	0x9c
 9297 0d5e 170E0000 		.4byte	0xe17
 9298 0d62 18       		.uleb128 0x18
 9299 0d63 44657600 		.ascii	"Dev\000"
 9300 0d67 01       		.byte	0x1
 9301 0d68 AF02     		.2byte	0x2af
 9302 0d6a 02070000 		.4byte	0x702
 9303 0d6e 02       		.uleb128 0x2
 9304 0d6f 91       		.byte	0x91
 9305 0d70 54       		.sleb128 -44
 9306 0d71 19       		.uleb128 0x19
 9307 0d72 0A070000 		.4byte	.LASF177
 9308 0d76 01       		.byte	0x1
 9309 0d77 B002     		.2byte	0x2b0
 9310 0d79 A8060000 		.4byte	0x6a8
 9311 0d7d 02       		.uleb128 0x2
 9312 0d7e 91       		.byte	0x91
 9313 0d7f 53       		.sleb128 -45
 9314 0d80 19       		.uleb128 0x19
 9315 0d81 FC170000 		.4byte	.LASF189
 9316 0d85 01       		.byte	0x1
 9317 0d86 B102     		.2byte	0x2b1
 9318 0d88 EF000000 		.4byte	0xef
 9319 0d8c 02       		.uleb128 0x2
 9320 0d8d 91       		.byte	0x91
 9321 0d8e 4C       		.sleb128 -52
 9322 0d8f 1A       		.uleb128 0x1a
ARM GAS  C:\Users\ilya\AppData\Local\Temp\ccAjPEqD.s 			page 205


 9323 0d90 CF010000 		.4byte	.LASF131
 9324 0d94 01       		.byte	0x1
 9325 0d95 B302     		.2byte	0x2b3
 9326 0d97 4B010000 		.4byte	0x14b
 9327 0d9b 02       		.uleb128 0x2
 9328 0d9c 91       		.byte	0x91
 9329 0d9d 6F       		.sleb128 -17
 9330 0d9e 1A       		.uleb128 0x1a
 9331 0d9f 54090000 		.4byte	.LASF179
 9332 0da3 01       		.byte	0x1
 9333 0da4 B402     		.2byte	0x2b4
 9334 0da6 C3000000 		.4byte	0xc3
 9335 0daa 02       		.uleb128 0x2
 9336 0dab 91       		.byte	0x91
 9337 0dac 63       		.sleb128 -29
 9338 0dad 1A       		.uleb128 0x1a
 9339 0dae A8070000 		.4byte	.LASF190
 9340 0db2 01       		.byte	0x1
 9341 0db3 B502     		.2byte	0x2b5
 9342 0db5 C3000000 		.4byte	0xc3
 9343 0db9 02       		.uleb128 0x2
 9344 0dba 91       		.byte	0x91
 9345 0dbb 6E       		.sleb128 -18
 9346 0dbc 1A       		.uleb128 0x1a
 9347 0dbd 08000000 		.4byte	.LASF182
 9348 0dc1 01       		.byte	0x1
 9349 0dc2 B602     		.2byte	0x2b6
 9350 0dc4 D9000000 		.4byte	0xd9
 9351 0dc8 02       		.uleb128 0x2
 9352 0dc9 91       		.byte	0x91
 9353 0dca 60       		.sleb128 -32
 9354 0dcb 1A       		.uleb128 0x1a
 9355 0dcc A60C0000 		.4byte	.LASF184
 9356 0dd0 01       		.byte	0x1
 9357 0dd1 B702     		.2byte	0x2b7
 9358 0dd3 D9000000 		.4byte	0xd9
 9359 0dd7 02       		.uleb128 0x2
 9360 0dd8 91       		.byte	0x91
 9361 0dd9 6C       		.sleb128 -20
 9362 0dda 1A       		.uleb128 0x1a
 9363 0ddb E7160000 		.4byte	.LASF191
 9364 0ddf 01       		.byte	0x1
 9365 0de0 B802     		.2byte	0x2b8
 9366 0de2 D9000000 		.4byte	0xd9
 9367 0de6 02       		.uleb128 0x2
 9368 0de7 91       		.byte	0x91
 9369 0de8 64       		.sleb128 -28
 9370 0de9 1A       		.uleb128 0x1a
 9371 0dea A6170000 		.4byte	.LASF185
 9372 0dee 01       		.byte	0x1
 9373 0def B902     		.2byte	0x2b9
 9374 0df1 EF000000 		.4byte	0xef
 9375 0df5 02       		.uleb128 0x2
 9376 0df6 91       		.byte	0x91
 9377 0df7 68       		.sleb128 -24
 9378 0df8 1A       		.uleb128 0x1a
 9379 0df9 B5000000 		.4byte	.LASF186
ARM GAS  C:\Users\ilya\AppData\Local\Temp\ccAjPEqD.s 			page 206


 9380 0dfd 01       		.byte	0x1
 9381 0dfe BA02     		.2byte	0x2ba
 9382 0e00 D9000000 		.4byte	0xd9
 9383 0e04 02       		.uleb128 0x2
 9384 0e05 91       		.byte	0x91
 9385 0e06 66       		.sleb128 -26
 9386 0e07 1A       		.uleb128 0x1a
 9387 0e08 3F150000 		.4byte	.LASF187
 9388 0e0c 01       		.byte	0x1
 9389 0e0d BB02     		.2byte	0x2bb
 9390 0e0f 9C060000 		.4byte	0x69c
 9391 0e13 02       		.uleb128 0x2
 9392 0e14 91       		.byte	0x91
 9393 0e15 58       		.sleb128 -40
 9394 0e16 00       		.byte	0
 9395 0e17 1B       		.uleb128 0x1b
 9396 0e18 EC020000 		.4byte	.LASF192
 9397 0e1c 01       		.byte	0x1
 9398 0e1d 3F03     		.2byte	0x33f
 9399 0e1f 4B010000 		.4byte	0x14b
 9400 0e23 00000000 		.4byte	.LFB16
 9401 0e27 66060000 		.4byte	.LFE16-.LFB16
 9402 0e2b 01       		.uleb128 0x1
 9403 0e2c 9C       		.byte	0x9c
 9404 0e2d 040F0000 		.4byte	0xf04
 9405 0e31 18       		.uleb128 0x18
 9406 0e32 44657600 		.ascii	"Dev\000"
 9407 0e36 01       		.byte	0x1
 9408 0e37 3F03     		.2byte	0x33f
 9409 0e39 02070000 		.4byte	0x702
 9410 0e3d 02       		.uleb128 0x2
 9411 0e3e 91       		.byte	0x91
 9412 0e3f 4C       		.sleb128 -52
 9413 0e40 19       		.uleb128 0x19
 9414 0e41 72110000 		.4byte	.LASF193
 9415 0e45 01       		.byte	0x1
 9416 0e46 4003     		.2byte	0x340
 9417 0e48 45060000 		.4byte	0x645
 9418 0e4c 02       		.uleb128 0x2
 9419 0e4d 91       		.byte	0x91
 9420 0e4e 4B       		.sleb128 -53
 9421 0e4f 19       		.uleb128 0x19
 9422 0e50 8D0A0000 		.4byte	.LASF194
 9423 0e54 01       		.byte	0x1
 9424 0e55 4003     		.2byte	0x340
 9425 0e57 C3000000 		.4byte	0xc3
 9426 0e5b 02       		.uleb128 0x2
 9427 0e5c 91       		.byte	0x91
 9428 0e5d 4A       		.sleb128 -54
 9429 0e5e 1A       		.uleb128 0x1a
 9430 0e5f CF010000 		.4byte	.LASF131
 9431 0e63 01       		.byte	0x1
 9432 0e64 4203     		.2byte	0x342
 9433 0e66 4B010000 		.4byte	0x14b
 9434 0e6a 02       		.uleb128 0x2
 9435 0e6b 91       		.byte	0x91
 9436 0e6c 6F       		.sleb128 -17
ARM GAS  C:\Users\ilya\AppData\Local\Temp\ccAjPEqD.s 			page 207


 9437 0e6d 1A       		.uleb128 0x1a
 9438 0e6e 1F000000 		.4byte	.LASF141
 9439 0e72 01       		.byte	0x1
 9440 0e73 4303     		.2byte	0x343
 9441 0e75 C3000000 		.4byte	0xc3
 9442 0e79 02       		.uleb128 0x2
 9443 0e7a 91       		.byte	0x91
 9444 0e7b 6A       		.sleb128 -22
 9445 0e7c 1A       		.uleb128 0x1a
 9446 0e7d FA110000 		.4byte	.LASF195
 9447 0e81 01       		.byte	0x1
 9448 0e82 4403     		.2byte	0x344
 9449 0e84 C3000000 		.4byte	0xc3
 9450 0e88 02       		.uleb128 0x2
 9451 0e89 91       		.byte	0x91
 9452 0e8a 6E       		.sleb128 -18
 9453 0e8b 1A       		.uleb128 0x1a
 9454 0e8c F90B0000 		.4byte	.LASF196
 9455 0e90 01       		.byte	0x1
 9456 0e91 4503     		.2byte	0x345
 9457 0e93 C3000000 		.4byte	0xc3
 9458 0e97 02       		.uleb128 0x2
 9459 0e98 91       		.byte	0x91
 9460 0e99 6D       		.sleb128 -19
 9461 0e9a 1A       		.uleb128 0x1a
 9462 0e9b 89050000 		.4byte	.LASF197
 9463 0e9f 01       		.byte	0x1
 9464 0ea0 4603     		.2byte	0x346
 9465 0ea2 C3000000 		.4byte	0xc3
 9466 0ea6 02       		.uleb128 0x2
 9467 0ea7 91       		.byte	0x91
 9468 0ea8 6C       		.sleb128 -20
 9469 0ea9 1A       		.uleb128 0x1a
 9470 0eaa D6110000 		.4byte	.LASF198
 9471 0eae 01       		.byte	0x1
 9472 0eaf 4703     		.2byte	0x347
 9473 0eb1 C3000000 		.4byte	0xc3
 9474 0eb5 02       		.uleb128 0x2
 9475 0eb6 91       		.byte	0x91
 9476 0eb7 6B       		.sleb128 -21
 9477 0eb8 1A       		.uleb128 0x1a
 9478 0eb9 690A0000 		.4byte	.LASF35
 9479 0ebd 01       		.byte	0x1
 9480 0ebe 4803     		.2byte	0x348
 9481 0ec0 EF000000 		.4byte	0xef
 9482 0ec4 02       		.uleb128 0x2
 9483 0ec5 91       		.byte	0x91
 9484 0ec6 64       		.sleb128 -28
 9485 0ec7 1A       		.uleb128 0x1a
 9486 0ec8 E0080000 		.4byte	.LASF199
 9487 0ecc 01       		.byte	0x1
 9488 0ecd 4903     		.2byte	0x349
 9489 0ecf EF000000 		.4byte	0xef
 9490 0ed3 02       		.uleb128 0x2
 9491 0ed4 91       		.byte	0x91
 9492 0ed5 60       		.sleb128 -32
 9493 0ed6 1A       		.uleb128 0x1a
ARM GAS  C:\Users\ilya\AppData\Local\Temp\ccAjPEqD.s 			page 208


 9494 0ed7 17110000 		.4byte	.LASF200
 9495 0edb 01       		.byte	0x1
 9496 0edc 4A03     		.2byte	0x34a
 9497 0ede EF000000 		.4byte	0xef
 9498 0ee2 02       		.uleb128 0x2
 9499 0ee3 91       		.byte	0x91
 9500 0ee4 5C       		.sleb128 -36
 9501 0ee5 1A       		.uleb128 0x1a
 9502 0ee6 CE140000 		.4byte	.LASF201
 9503 0eea 01       		.byte	0x1
 9504 0eeb 4B03     		.2byte	0x34b
 9505 0eed EF000000 		.4byte	0xef
 9506 0ef1 02       		.uleb128 0x2
 9507 0ef2 91       		.byte	0x91
 9508 0ef3 58       		.sleb128 -40
 9509 0ef4 1A       		.uleb128 0x1a
 9510 0ef5 6E150000 		.4byte	.LASF202
 9511 0ef9 01       		.byte	0x1
 9512 0efa 4C03     		.2byte	0x34c
 9513 0efc C3000000 		.4byte	0xc3
 9514 0f00 02       		.uleb128 0x2
 9515 0f01 91       		.byte	0x91
 9516 0f02 57       		.sleb128 -41
 9517 0f03 00       		.byte	0
 9518 0f04 1B       		.uleb128 0x1b
 9519 0f05 4F050000 		.4byte	.LASF203
 9520 0f09 01       		.byte	0x1
 9521 0f0a 3804     		.2byte	0x438
 9522 0f0c 4B010000 		.4byte	0x14b
 9523 0f10 00000000 		.4byte	.LFB17
 9524 0f14 92000000 		.4byte	.LFE17-.LFB17
 9525 0f18 01       		.uleb128 0x1
 9526 0f19 9C       		.byte	0x9c
 9527 0f1a 6A0F0000 		.4byte	0xf6a
 9528 0f1e 18       		.uleb128 0x18
 9529 0f1f 44657600 		.ascii	"Dev\000"
 9530 0f23 01       		.byte	0x1
 9531 0f24 3804     		.2byte	0x438
 9532 0f26 02070000 		.4byte	0x702
 9533 0f2a 02       		.uleb128 0x2
 9534 0f2b 91       		.byte	0x91
 9535 0f2c 64       		.sleb128 -28
 9536 0f2d 19       		.uleb128 0x19
 9537 0f2e 72110000 		.4byte	.LASF193
 9538 0f32 01       		.byte	0x1
 9539 0f33 3904     		.2byte	0x439
 9540 0f35 45060000 		.4byte	0x645
 9541 0f39 02       		.uleb128 0x2
 9542 0f3a 91       		.byte	0x91
 9543 0f3b 63       		.sleb128 -29
 9544 0f3c 19       		.uleb128 0x19
 9545 0f3d EC0F0000 		.4byte	.LASF204
 9546 0f41 01       		.byte	0x1
 9547 0f42 3904     		.2byte	0x439
 9548 0f44 33060000 		.4byte	0x633
 9549 0f48 02       		.uleb128 0x2
 9550 0f49 91       		.byte	0x91
ARM GAS  C:\Users\ilya\AppData\Local\Temp\ccAjPEqD.s 			page 209


 9551 0f4a 5C       		.sleb128 -36
 9552 0f4b 1A       		.uleb128 0x1a
 9553 0f4c CF010000 		.4byte	.LASF131
 9554 0f50 01       		.byte	0x1
 9555 0f51 3B04     		.2byte	0x43b
 9556 0f53 4B010000 		.4byte	0x14b
 9557 0f57 02       		.uleb128 0x2
 9558 0f58 91       		.byte	0x91
 9559 0f59 6F       		.sleb128 -17
 9560 0f5a 1A       		.uleb128 0x1a
 9561 0f5b 1F000000 		.4byte	.LASF141
 9562 0f5f 01       		.byte	0x1
 9563 0f60 3C04     		.2byte	0x43c
 9564 0f62 C3000000 		.4byte	0xc3
 9565 0f66 02       		.uleb128 0x2
 9566 0f67 91       		.byte	0x91
 9567 0f68 6E       		.sleb128 -18
 9568 0f69 00       		.byte	0
 9569 0f6a 1B       		.uleb128 0x1b
 9570 0f6b 5F140000 		.4byte	.LASF205
 9571 0f6f 01       		.byte	0x1
 9572 0f70 5604     		.2byte	0x456
 9573 0f72 4B010000 		.4byte	0x14b
 9574 0f76 00000000 		.4byte	.LFB18
 9575 0f7a 2C020000 		.4byte	.LFE18-.LFB18
 9576 0f7e 01       		.uleb128 0x1
 9577 0f7f 9C       		.byte	0x9c
 9578 0f80 7A100000 		.4byte	0x107a
 9579 0f84 18       		.uleb128 0x18
 9580 0f85 44657600 		.ascii	"Dev\000"
 9581 0f89 01       		.byte	0x1
 9582 0f8a 5604     		.2byte	0x456
 9583 0f8c 02070000 		.4byte	0x702
 9584 0f90 03       		.uleb128 0x3
 9585 0f91 91       		.byte	0x91
 9586 0f92 AC7F     		.sleb128 -84
 9587 0f94 19       		.uleb128 0x19
 9588 0f95 690A0000 		.4byte	.LASF35
 9589 0f99 01       		.byte	0x1
 9590 0f9a 5704     		.2byte	0x457
 9591 0f9c EF000000 		.4byte	0xef
 9592 0fa0 03       		.uleb128 0x3
 9593 0fa1 91       		.byte	0x91
 9594 0fa2 A87F     		.sleb128 -88
 9595 0fa4 1A       		.uleb128 0x1a
 9596 0fa5 CF010000 		.4byte	.LASF131
 9597 0fa9 01       		.byte	0x1
 9598 0faa 5904     		.2byte	0x459
 9599 0fac 4B010000 		.4byte	0x14b
 9600 0fb0 02       		.uleb128 0x2
 9601 0fb1 91       		.byte	0x91
 9602 0fb2 6F       		.sleb128 -17
 9603 0fb3 1A       		.uleb128 0x1a
 9604 0fb4 140E0000 		.4byte	.LASF206
 9605 0fb8 01       		.byte	0x1
 9606 0fb9 5A04     		.2byte	0x45a
 9607 0fbb EF000000 		.4byte	0xef
ARM GAS  C:\Users\ilya\AppData\Local\Temp\ccAjPEqD.s 			page 210


 9608 0fbf 02       		.uleb128 0x2
 9609 0fc0 91       		.byte	0x91
 9610 0fc1 68       		.sleb128 -24
 9611 0fc2 1A       		.uleb128 0x1a
 9612 0fc3 3F150000 		.4byte	.LASF187
 9613 0fc7 01       		.byte	0x1
 9614 0fc8 5B04     		.2byte	0x45b
 9615 0fca 9C060000 		.4byte	0x69c
 9616 0fce 03       		.uleb128 0x3
 9617 0fcf 91       		.byte	0x91
 9618 0fd0 BC7F     		.sleb128 -68
 9619 0fd2 1A       		.uleb128 0x1a
 9620 0fd3 DC0A0000 		.4byte	.LASF207
 9621 0fd7 01       		.byte	0x1
 9622 0fd8 5C04     		.2byte	0x45c
 9623 0fda EF000000 		.4byte	0xef
 9624 0fde 03       		.uleb128 0x3
 9625 0fdf 91       		.byte	0x91
 9626 0fe0 B87F     		.sleb128 -72
 9627 0fe2 1A       		.uleb128 0x1a
 9628 0fe3 9F110000 		.4byte	.LASF208
 9629 0fe7 01       		.byte	0x1
 9630 0fe8 5D04     		.2byte	0x45d
 9631 0fea EF000000 		.4byte	0xef
 9632 0fee 02       		.uleb128 0x2
 9633 0fef 91       		.byte	0x91
 9634 0ff0 64       		.sleb128 -28
 9635 0ff1 1A       		.uleb128 0x1a
 9636 0ff2 4D010000 		.4byte	.LASF209
 9637 0ff6 01       		.byte	0x1
 9638 0ff7 5E04     		.2byte	0x45e
 9639 0ff9 EF000000 		.4byte	0xef
 9640 0ffd 02       		.uleb128 0x2
 9641 0ffe 91       		.byte	0x91
 9642 0fff 60       		.sleb128 -32
 9643 1000 1A       		.uleb128 0x1a
 9644 1001 7A150000 		.4byte	.LASF210
 9645 1005 01       		.byte	0x1
 9646 1006 5F04     		.2byte	0x45f
 9647 1008 EF000000 		.4byte	0xef
 9648 100c 02       		.uleb128 0x2
 9649 100d 91       		.byte	0x91
 9650 100e 5C       		.sleb128 -36
 9651 100f 1A       		.uleb128 0x1a
 9652 1010 CE060000 		.4byte	.LASF211
 9653 1014 01       		.byte	0x1
 9654 1015 6004     		.2byte	0x460
 9655 1017 EF000000 		.4byte	0xef
 9656 101b 02       		.uleb128 0x2
 9657 101c 91       		.byte	0x91
 9658 101d 58       		.sleb128 -40
 9659 101e 1A       		.uleb128 0x1a
 9660 101f C2090000 		.4byte	.LASF212
 9661 1023 01       		.byte	0x1
 9662 1024 6104     		.2byte	0x461
 9663 1026 EF000000 		.4byte	0xef
 9664 102a 02       		.uleb128 0x2
ARM GAS  C:\Users\ilya\AppData\Local\Temp\ccAjPEqD.s 			page 211


 9665 102b 91       		.byte	0x91
 9666 102c 54       		.sleb128 -44
 9667 102d 1A       		.uleb128 0x1a
 9668 102e 550D0000 		.4byte	.LASF213
 9669 1032 01       		.byte	0x1
 9670 1033 6204     		.2byte	0x462
 9671 1035 EF000000 		.4byte	0xef
 9672 1039 02       		.uleb128 0x2
 9673 103a 91       		.byte	0x91
 9674 103b 50       		.sleb128 -48
 9675 103c 1A       		.uleb128 0x1a
 9676 103d 1B0A0000 		.4byte	.LASF214
 9677 1041 01       		.byte	0x1
 9678 1042 6304     		.2byte	0x463
 9679 1044 EF000000 		.4byte	0xef
 9680 1048 02       		.uleb128 0x2
 9681 1049 91       		.byte	0x91
 9682 104a 4C       		.sleb128 -52
 9683 104b 1A       		.uleb128 0x1a
 9684 104c 17110000 		.4byte	.LASF200
 9685 1050 01       		.byte	0x1
 9686 1051 6404     		.2byte	0x464
 9687 1053 EF000000 		.4byte	0xef
 9688 1057 03       		.uleb128 0x3
 9689 1058 91       		.byte	0x91
 9690 1059 B47F     		.sleb128 -76
 9691 105b 1A       		.uleb128 0x1a
 9692 105c FA100000 		.4byte	.LASF215
 9693 1060 01       		.byte	0x1
 9694 1061 6504     		.2byte	0x465
 9695 1063 EF000000 		.4byte	0xef
 9696 1067 02       		.uleb128 0x2
 9697 1068 91       		.byte	0x91
 9698 1069 48       		.sleb128 -56
 9699 106a 1A       		.uleb128 0x1a
 9700 106b B90D0000 		.4byte	.LASF216
 9701 106f 01       		.byte	0x1
 9702 1070 6604     		.2byte	0x466
 9703 1072 EF000000 		.4byte	0xef
 9704 1076 02       		.uleb128 0x2
 9705 1077 91       		.byte	0x91
 9706 1078 44       		.sleb128 -60
 9707 1079 00       		.byte	0
 9708 107a 1B       		.uleb128 0x1b
 9709 107b EA0C0000 		.4byte	.LASF217
 9710 107f 01       		.byte	0x1
 9711 1080 EC04     		.2byte	0x4ec
 9712 1082 4B010000 		.4byte	0x14b
 9713 1086 00000000 		.4byte	.LFB19
 9714 108a B4010000 		.4byte	.LFE19-.LFB19
 9715 108e 01       		.uleb128 0x1
 9716 108f 9C       		.byte	0x9c
 9717 1090 6A110000 		.4byte	0x116a
 9718 1094 18       		.uleb128 0x18
 9719 1095 44657600 		.ascii	"Dev\000"
 9720 1099 01       		.byte	0x1
 9721 109a EC04     		.2byte	0x4ec
ARM GAS  C:\Users\ilya\AppData\Local\Temp\ccAjPEqD.s 			page 212


 9722 109c 02070000 		.4byte	0x702
 9723 10a0 03       		.uleb128 0x3
 9724 10a1 91       		.byte	0x91
 9725 10a2 B47F     		.sleb128 -76
 9726 10a4 19       		.uleb128 0x19
 9727 10a5 440F0000 		.4byte	.LASF218
 9728 10a9 01       		.byte	0x1
 9729 10aa ED04     		.2byte	0x4ed
 9730 10ac 420D0000 		.4byte	0xd42
 9731 10b0 03       		.uleb128 0x3
 9732 10b1 91       		.byte	0x91
 9733 10b2 B07F     		.sleb128 -80
 9734 10b4 1A       		.uleb128 0x1a
 9735 10b5 CF010000 		.4byte	.LASF131
 9736 10b9 01       		.byte	0x1
 9737 10ba EF04     		.2byte	0x4ef
 9738 10bc 4B010000 		.4byte	0x14b
 9739 10c0 02       		.uleb128 0x2
 9740 10c1 91       		.byte	0x91
 9741 10c2 6F       		.sleb128 -17
 9742 10c3 1A       		.uleb128 0x1a
 9743 10c4 3F150000 		.4byte	.LASF187
 9744 10c8 01       		.byte	0x1
 9745 10c9 F004     		.2byte	0x4f0
 9746 10cb 9C060000 		.4byte	0x69c
 9747 10cf 02       		.uleb128 0x2
 9748 10d0 91       		.byte	0x91
 9749 10d1 48       		.sleb128 -56
 9750 10d2 1A       		.uleb128 0x1a
 9751 10d3 E0080000 		.4byte	.LASF199
 9752 10d7 01       		.byte	0x1
 9753 10d8 F104     		.2byte	0x4f1
 9754 10da EF000000 		.4byte	0xef
 9755 10de 02       		.uleb128 0x2
 9756 10df 91       		.byte	0x91
 9757 10e0 44       		.sleb128 -60
 9758 10e1 1A       		.uleb128 0x1a
 9759 10e2 DC0A0000 		.4byte	.LASF207
 9760 10e6 01       		.byte	0x1
 9761 10e7 F204     		.2byte	0x4f2
 9762 10e9 EF000000 		.4byte	0xef
 9763 10ed 02       		.uleb128 0x2
 9764 10ee 91       		.byte	0x91
 9765 10ef 40       		.sleb128 -64
 9766 10f0 1A       		.uleb128 0x1a
 9767 10f1 9F110000 		.4byte	.LASF208
 9768 10f5 01       		.byte	0x1
 9769 10f6 F304     		.2byte	0x4f3
 9770 10f8 EF000000 		.4byte	0xef
 9771 10fc 02       		.uleb128 0x2
 9772 10fd 91       		.byte	0x91
 9773 10fe 68       		.sleb128 -24
 9774 10ff 1A       		.uleb128 0x1a
 9775 1100 4D010000 		.4byte	.LASF209
 9776 1104 01       		.byte	0x1
 9777 1105 F404     		.2byte	0x4f4
 9778 1107 EF000000 		.4byte	0xef
ARM GAS  C:\Users\ilya\AppData\Local\Temp\ccAjPEqD.s 			page 213


 9779 110b 02       		.uleb128 0x2
 9780 110c 91       		.byte	0x91
 9781 110d 64       		.sleb128 -28
 9782 110e 1A       		.uleb128 0x1a
 9783 110f 7A150000 		.4byte	.LASF210
 9784 1113 01       		.byte	0x1
 9785 1114 F504     		.2byte	0x4f5
 9786 1116 EF000000 		.4byte	0xef
 9787 111a 02       		.uleb128 0x2
 9788 111b 91       		.byte	0x91
 9789 111c 60       		.sleb128 -32
 9790 111d 1A       		.uleb128 0x1a
 9791 111e CE060000 		.4byte	.LASF211
 9792 1122 01       		.byte	0x1
 9793 1123 F604     		.2byte	0x4f6
 9794 1125 EF000000 		.4byte	0xef
 9795 1129 02       		.uleb128 0x2
 9796 112a 91       		.byte	0x91
 9797 112b 5C       		.sleb128 -36
 9798 112c 1A       		.uleb128 0x1a
 9799 112d C2090000 		.4byte	.LASF212
 9800 1131 01       		.byte	0x1
 9801 1132 F704     		.2byte	0x4f7
 9802 1134 EF000000 		.4byte	0xef
 9803 1138 02       		.uleb128 0x2
 9804 1139 91       		.byte	0x91
 9805 113a 58       		.sleb128 -40
 9806 113b 1A       		.uleb128 0x1a
 9807 113c 550D0000 		.4byte	.LASF213
 9808 1140 01       		.byte	0x1
 9809 1141 F804     		.2byte	0x4f8
 9810 1143 EF000000 		.4byte	0xef
 9811 1147 02       		.uleb128 0x2
 9812 1148 91       		.byte	0x91
 9813 1149 54       		.sleb128 -44
 9814 114a 1A       		.uleb128 0x1a
 9815 114b 1B0A0000 		.4byte	.LASF214
 9816 114f 01       		.byte	0x1
 9817 1150 F904     		.2byte	0x4f9
 9818 1152 EF000000 		.4byte	0xef
 9819 1156 02       		.uleb128 0x2
 9820 1157 91       		.byte	0x91
 9821 1158 50       		.sleb128 -48
 9822 1159 1A       		.uleb128 0x1a
 9823 115a 17110000 		.4byte	.LASF200
 9824 115e 01       		.byte	0x1
 9825 115f FA04     		.2byte	0x4fa
 9826 1161 EF000000 		.4byte	0xef
 9827 1165 03       		.uleb128 0x3
 9828 1166 91       		.byte	0x91
 9829 1167 BC7F     		.sleb128 -68
 9830 1169 00       		.byte	0
 9831 116a 1B       		.uleb128 0x1b
 9832 116b D6010000 		.4byte	.LASF219
 9833 116f 01       		.byte	0x1
 9834 1170 4705     		.2byte	0x547
 9835 1172 4B010000 		.4byte	0x14b
ARM GAS  C:\Users\ilya\AppData\Local\Temp\ccAjPEqD.s 			page 214


 9836 1176 00000000 		.4byte	.LFB20
 9837 117a 68020000 		.4byte	.LFE20-.LFB20
 9838 117e 01       		.uleb128 0x1
 9839 117f 9C       		.byte	0x9c
 9840 1180 37120000 		.4byte	0x1237
 9841 1184 18       		.uleb128 0x18
 9842 1185 44657600 		.ascii	"Dev\000"
 9843 1189 01       		.byte	0x1
 9844 118a 4705     		.2byte	0x547
 9845 118c 02070000 		.4byte	0x702
 9846 1190 02       		.uleb128 0x2
 9847 1191 91       		.byte	0x91
 9848 1192 54       		.sleb128 -44
 9849 1193 19       		.uleb128 0x19
 9850 1194 330B0000 		.4byte	.LASF220
 9851 1198 01       		.byte	0x1
 9852 1199 4805     		.2byte	0x548
 9853 119b 33060000 		.4byte	0x633
 9854 119f 02       		.uleb128 0x2
 9855 11a0 91       		.byte	0x91
 9856 11a1 50       		.sleb128 -48
 9857 11a2 1A       		.uleb128 0x1a
 9858 11a3 CF010000 		.4byte	.LASF131
 9859 11a7 01       		.byte	0x1
 9860 11a8 4A05     		.2byte	0x54a
 9861 11aa 4B010000 		.4byte	0x14b
 9862 11ae 02       		.uleb128 0x2
 9863 11af 91       		.byte	0x91
 9864 11b0 6F       		.sleb128 -17
 9865 11b1 1C       		.uleb128 0x1c
 9866 11b2 6900     		.ascii	"i\000"
 9867 11b4 01       		.byte	0x1
 9868 11b5 4B05     		.2byte	0x54b
 9869 11b7 AA000000 		.4byte	0xaa
 9870 11bb 02       		.uleb128 0x2
 9871 11bc 91       		.byte	0x91
 9872 11bd 68       		.sleb128 -24
 9873 11be 1A       		.uleb128 0x1a
 9874 11bf 4E090000 		.4byte	.LASF221
 9875 11c3 01       		.byte	0x1
 9876 11c4 4C05     		.2byte	0x54c
 9877 11c6 AA000000 		.4byte	0xaa
 9878 11ca 02       		.uleb128 0x2
 9879 11cb 91       		.byte	0x91
 9880 11cc 64       		.sleb128 -28
 9881 11cd 1C       		.uleb128 0x1c
 9882 11ce 6D736200 		.ascii	"msb\000"
 9883 11d2 01       		.byte	0x1
 9884 11d3 4D05     		.2byte	0x54d
 9885 11d5 C3000000 		.4byte	0xc3
 9886 11d9 02       		.uleb128 0x2
 9887 11da 91       		.byte	0x91
 9888 11db 61       		.sleb128 -31
 9889 11dc 1C       		.uleb128 0x1c
 9890 11dd 6C736200 		.ascii	"lsb\000"
 9891 11e1 01       		.byte	0x1
 9892 11e2 4E05     		.2byte	0x54e
ARM GAS  C:\Users\ilya\AppData\Local\Temp\ccAjPEqD.s 			page 215


 9893 11e4 C3000000 		.4byte	0xc3
 9894 11e8 02       		.uleb128 0x2
 9895 11e9 91       		.byte	0x91
 9896 11ea 60       		.sleb128 -32
 9897 11eb 1A       		.uleb128 0x1a
 9898 11ec C2060000 		.4byte	.LASF222
 9899 11f0 01       		.byte	0x1
 9900 11f1 4F05     		.2byte	0x54f
 9901 11f3 C3000000 		.4byte	0xc3
 9902 11f7 02       		.uleb128 0x2
 9903 11f8 91       		.byte	0x91
 9904 11f9 62       		.sleb128 -30
 9905 11fa 1A       		.uleb128 0x1a
 9906 11fb 2E0C0000 		.4byte	.LASF223
 9907 11ff 01       		.byte	0x1
 9908 1200 5005     		.2byte	0x550
 9909 1202 C3000000 		.4byte	0xc3
 9910 1206 02       		.uleb128 0x2
 9911 1207 91       		.byte	0x91
 9912 1208 63       		.sleb128 -29
 9913 1209 1A       		.uleb128 0x1a
 9914 120a B5160000 		.4byte	.LASF224
 9915 120e 01       		.byte	0x1
 9916 120f 5105     		.2byte	0x551
 9917 1211 C3000000 		.4byte	0xc3
 9918 1215 02       		.uleb128 0x2
 9919 1216 91       		.byte	0x91
 9920 1217 5D       		.sleb128 -35
 9921 1218 1A       		.uleb128 0x1a
 9922 1219 640C0000 		.4byte	.LASF225
 9923 121d 01       		.byte	0x1
 9924 121e 5205     		.2byte	0x552
 9925 1220 37120000 		.4byte	0x1237
 9926 1224 02       		.uleb128 0x2
 9927 1225 91       		.byte	0x91
 9928 1226 58       		.sleb128 -40
 9929 1227 1A       		.uleb128 0x1a
 9930 1228 C4110000 		.4byte	.LASF226
 9931 122c 01       		.byte	0x1
 9932 122d 5305     		.2byte	0x553
 9933 122f D9000000 		.4byte	0xd9
 9934 1233 02       		.uleb128 0x2
 9935 1234 91       		.byte	0x91
 9936 1235 5E       		.sleb128 -34
 9937 1236 00       		.byte	0
 9938 1237 05       		.uleb128 0x5
 9939 1238 C3000000 		.4byte	0xc3
 9940 123c 47120000 		.4byte	0x1247
 9941 1240 06       		.uleb128 0x6
 9942 1241 3D010000 		.4byte	0x13d
 9943 1245 03       		.byte	0x3
 9944 1246 00       		.byte	0
 9945 1247 1B       		.uleb128 0x1b
 9946 1248 4D0E0000 		.4byte	.LASF227
 9947 124c 01       		.byte	0x1
 9948 124d 9D05     		.2byte	0x59d
 9949 124f 4B010000 		.4byte	0x14b
ARM GAS  C:\Users\ilya\AppData\Local\Temp\ccAjPEqD.s 			page 216


 9950 1253 00000000 		.4byte	.LFB21
 9951 1257 72000000 		.4byte	.LFE21-.LFB21
 9952 125b 01       		.uleb128 0x1
 9953 125c 9C       		.byte	0x9c
 9954 125d CB120000 		.4byte	0x12cb
 9955 1261 18       		.uleb128 0x18
 9956 1262 44657600 		.ascii	"Dev\000"
 9957 1266 01       		.byte	0x1
 9958 1267 9D05     		.2byte	0x59d
 9959 1269 02070000 		.4byte	0x702
 9960 126d 02       		.uleb128 0x2
 9961 126e 91       		.byte	0x91
 9962 126f 5C       		.sleb128 -36
 9963 1270 19       		.uleb128 0x19
 9964 1271 3A0A0000 		.4byte	.LASF228
 9965 1275 01       		.byte	0x1
 9966 1276 9E05     		.2byte	0x59e
 9967 1278 CB120000 		.4byte	0x12cb
 9968 127c 02       		.uleb128 0x2
 9969 127d 91       		.byte	0x91
 9970 127e 58       		.sleb128 -40
 9971 127f 19       		.uleb128 0x19
 9972 1280 FF130000 		.4byte	.LASF229
 9973 1284 01       		.byte	0x1
 9974 1285 9F05     		.2byte	0x59f
 9975 1287 D1120000 		.4byte	0x12d1
 9976 128b 02       		.uleb128 0x2
 9977 128c 91       		.byte	0x91
 9978 128d 54       		.sleb128 -44
 9979 128e 1A       		.uleb128 0x1a
 9980 128f CF010000 		.4byte	.LASF131
 9981 1293 01       		.byte	0x1
 9982 1294 A105     		.2byte	0x5a1
 9983 1296 4B010000 		.4byte	0x14b
 9984 129a 02       		.uleb128 0x2
 9985 129b 91       		.byte	0x91
 9986 129c 6F       		.sleb128 -17
 9987 129d 1A       		.uleb128 0x1a
 9988 129e 4E020000 		.4byte	.LASF230
 9989 12a2 01       		.byte	0x1
 9990 12a3 A305     		.2byte	0x5a3
 9991 12a5 C3000000 		.4byte	0xc3
 9992 12a9 02       		.uleb128 0x2
 9993 12aa 91       		.byte	0x91
 9994 12ab 63       		.sleb128 -29
 9995 12ac 1A       		.uleb128 0x1a
 9996 12ad ED130000 		.4byte	.LASF231
 9997 12b1 01       		.byte	0x1
 9998 12b2 A405     		.2byte	0x5a4
 9999 12b4 0C010000 		.4byte	0x10c
 10000 12b8 02       		.uleb128 0x2
 10001 12b9 91       		.byte	0x91
 10002 12ba 64       		.sleb128 -28
 10003 12bb 1A       		.uleb128 0x1a
 10004 12bc C7130000 		.4byte	.LASF232
 10005 12c0 01       		.byte	0x1
 10006 12c1 A505     		.2byte	0x5a5
ARM GAS  C:\Users\ilya\AppData\Local\Temp\ccAjPEqD.s 			page 217


 10007 12c3 0C010000 		.4byte	0x10c
 10008 12c7 02       		.uleb128 0x2
 10009 12c8 91       		.byte	0x91
 10010 12c9 68       		.sleb128 -24
 10011 12ca 00       		.byte	0
 10012 12cb 0E       		.uleb128 0xe
 10013 12cc 04       		.byte	0x4
 10014 12cd 07030000 		.4byte	0x307
 10015 12d1 0E       		.uleb128 0xe
 10016 12d2 04       		.byte	0x4
 10017 12d3 0C010000 		.4byte	0x10c
 10018 12d7 1B       		.uleb128 0x1b
 10019 12d8 7A0C0000 		.4byte	.LASF233
 10020 12dc 01       		.byte	0x1
 10021 12dd C105     		.2byte	0x5c1
 10022 12df 4B010000 		.4byte	0x14b
 10023 12e3 00000000 		.4byte	.LFB22
 10024 12e7 5A000000 		.4byte	.LFE22-.LFB22
 10025 12eb 01       		.uleb128 0x1
 10026 12ec 9C       		.byte	0x9c
 10027 12ed 3D130000 		.4byte	0x133d
 10028 12f1 18       		.uleb128 0x18
 10029 12f2 44657600 		.ascii	"Dev\000"
 10030 12f6 01       		.byte	0x1
 10031 12f7 C105     		.2byte	0x5c1
 10032 12f9 02070000 		.4byte	0x702
 10033 12fd 02       		.uleb128 0x2
 10034 12fe 91       		.byte	0x91
 10035 12ff 64       		.sleb128 -28
 10036 1300 19       		.uleb128 0x19
 10037 1301 3A0A0000 		.4byte	.LASF228
 10038 1305 01       		.byte	0x1
 10039 1306 C205     		.2byte	0x5c2
 10040 1308 CB120000 		.4byte	0x12cb
 10041 130c 02       		.uleb128 0x2
 10042 130d 91       		.byte	0x91
 10043 130e 60       		.sleb128 -32
 10044 130f 19       		.uleb128 0x19
 10045 1310 35010000 		.4byte	.LASF234
 10046 1314 01       		.byte	0x1
 10047 1315 C305     		.2byte	0x5c3
 10048 1317 D1120000 		.4byte	0x12d1
 10049 131b 02       		.uleb128 0x2
 10050 131c 91       		.byte	0x91
 10051 131d 5C       		.sleb128 -36
 10052 131e 1A       		.uleb128 0x1a
 10053 131f CF010000 		.4byte	.LASF131
 10054 1323 01       		.byte	0x1
 10055 1324 C505     		.2byte	0x5c5
 10056 1326 4B010000 		.4byte	0x14b
 10057 132a 02       		.uleb128 0x2
 10058 132b 91       		.byte	0x91
 10059 132c 6F       		.sleb128 -17
 10060 132d 1A       		.uleb128 0x1a
 10061 132e ED130000 		.4byte	.LASF231
 10062 1332 01       		.byte	0x1
 10063 1333 C605     		.2byte	0x5c6
ARM GAS  C:\Users\ilya\AppData\Local\Temp\ccAjPEqD.s 			page 218


 10064 1335 0C010000 		.4byte	0x10c
 10065 1339 02       		.uleb128 0x2
 10066 133a 91       		.byte	0x91
 10067 133b 68       		.sleb128 -24
 10068 133c 00       		.byte	0
 10069 133d 1B       		.uleb128 0x1b
 10070 133e 13130000 		.4byte	.LASF235
 10071 1342 01       		.byte	0x1
 10072 1343 D605     		.2byte	0x5d6
 10073 1345 4B010000 		.4byte	0x14b
 10074 1349 00000000 		.4byte	.LFB23
 10075 134d 78020000 		.4byte	.LFE23-.LFB23
 10076 1351 01       		.uleb128 0x1
 10077 1352 9C       		.byte	0x9c
 10078 1353 26150000 		.4byte	0x1526
 10079 1357 18       		.uleb128 0x18
 10080 1358 44657600 		.ascii	"Dev\000"
 10081 135c 01       		.byte	0x1
 10082 135d D705     		.2byte	0x5d7
 10083 135f 02070000 		.4byte	0x702
 10084 1363 03       		.uleb128 0x3
 10085 1364 91       		.byte	0x91
 10086 1365 9C7F     		.sleb128 -100
 10087 1367 19       		.uleb128 0x19
 10088 1368 59030000 		.4byte	.LASF236
 10089 136c 01       		.byte	0x1
 10090 136d D805     		.2byte	0x5d8
 10091 136f 0C010000 		.4byte	0x10c
 10092 1373 03       		.uleb128 0x3
 10093 1374 91       		.byte	0x91
 10094 1375 987F     		.sleb128 -104
 10095 1377 19       		.uleb128 0x19
 10096 1378 35180000 		.4byte	.LASF237
 10097 137c 01       		.byte	0x1
 10098 137d D905     		.2byte	0x5d9
 10099 137f 0C010000 		.4byte	0x10c
 10100 1383 03       		.uleb128 0x3
 10101 1384 91       		.byte	0x91
 10102 1385 947F     		.sleb128 -108
 10103 1387 19       		.uleb128 0x19
 10104 1388 44140000 		.4byte	.LASF238
 10105 138c 01       		.byte	0x1
 10106 138d DA05     		.2byte	0x5da
 10107 138f 0C010000 		.4byte	0x10c
 10108 1393 03       		.uleb128 0x3
 10109 1394 91       		.byte	0x91
 10110 1395 907F     		.sleb128 -112
 10111 1397 19       		.uleb128 0x19
 10112 1398 BF040000 		.4byte	.LASF239
 10113 139c 01       		.byte	0x1
 10114 139d DB05     		.2byte	0x5db
 10115 139f EF000000 		.4byte	0xef
 10116 13a3 02       		.uleb128 0x2
 10117 13a4 91       		.byte	0x91
 10118 13a5 00       		.sleb128 0
 10119 13a6 19       		.uleb128 0x19
 10120 13a7 CF040000 		.4byte	.LASF240
ARM GAS  C:\Users\ilya\AppData\Local\Temp\ccAjPEqD.s 			page 219


 10121 13ab 01       		.byte	0x1
 10122 13ac DC05     		.2byte	0x5dc
 10123 13ae 0C010000 		.4byte	0x10c
 10124 13b2 02       		.uleb128 0x2
 10125 13b3 91       		.byte	0x91
 10126 13b4 04       		.sleb128 4
 10127 13b5 19       		.uleb128 0x19
 10128 13b6 40120000 		.4byte	.LASF241
 10129 13ba 01       		.byte	0x1
 10130 13bb DD05     		.2byte	0x5dd
 10131 13bd EF000000 		.4byte	0xef
 10132 13c1 02       		.uleb128 0x2
 10133 13c2 91       		.byte	0x91
 10134 13c3 08       		.sleb128 8
 10135 13c4 19       		.uleb128 0x19
 10136 13c5 E6060000 		.4byte	.LASF242
 10137 13c9 01       		.byte	0x1
 10138 13ca DE05     		.2byte	0x5de
 10139 13cc 420D0000 		.4byte	0xd42
 10140 13d0 02       		.uleb128 0x2
 10141 13d1 91       		.byte	0x91
 10142 13d2 0C       		.sleb128 12
 10143 13d3 1A       		.uleb128 0x1a
 10144 13d4 EE110000 		.4byte	.LASF243
 10145 13d8 01       		.byte	0x1
 10146 13d9 E005     		.2byte	0x5e0
 10147 13db 26150000 		.4byte	0x1526
 10148 13df 02       		.uleb128 0x2
 10149 13e0 91       		.byte	0x91
 10150 13e1 64       		.sleb128 -28
 10151 13e2 1A       		.uleb128 0x1a
 10152 13e3 BD100000 		.4byte	.LASF244
 10153 13e7 01       		.byte	0x1
 10154 13e8 E105     		.2byte	0x5e1
 10155 13ea 2B150000 		.4byte	0x152b
 10156 13ee 02       		.uleb128 0x2
 10157 13ef 91       		.byte	0x91
 10158 13f0 60       		.sleb128 -32
 10159 13f1 1A       		.uleb128 0x1a
 10160 13f2 480D0000 		.4byte	.LASF245
 10161 13f6 01       		.byte	0x1
 10162 13f7 E205     		.2byte	0x5e2
 10163 13f9 2B150000 		.4byte	0x152b
 10164 13fd 02       		.uleb128 0x2
 10165 13fe 91       		.byte	0x91
 10166 13ff 5C       		.sleb128 -36
 10167 1400 1A       		.uleb128 0x1a
 10168 1401 33110000 		.4byte	.LASF246
 10169 1405 01       		.byte	0x1
 10170 1406 E305     		.2byte	0x5e3
 10171 1408 26150000 		.4byte	0x1526
 10172 140c 02       		.uleb128 0x2
 10173 140d 91       		.byte	0x91
 10174 140e 58       		.sleb128 -40
 10175 140f 1A       		.uleb128 0x1a
 10176 1410 47070000 		.4byte	.LASF247
 10177 1414 01       		.byte	0x1
ARM GAS  C:\Users\ilya\AppData\Local\Temp\ccAjPEqD.s 			page 220


 10178 1415 E405     		.2byte	0x5e4
 10179 1417 26150000 		.4byte	0x1526
 10180 141b 02       		.uleb128 0x2
 10181 141c 91       		.byte	0x91
 10182 141d 54       		.sleb128 -44
 10183 141e 1A       		.uleb128 0x1a
 10184 141f CB0F0000 		.4byte	.LASF248
 10185 1423 01       		.byte	0x1
 10186 1424 E505     		.2byte	0x5e5
 10187 1426 EF000000 		.4byte	0xef
 10188 142a 02       		.uleb128 0x2
 10189 142b 91       		.byte	0x91
 10190 142c 4C       		.sleb128 -52
 10191 142d 1A       		.uleb128 0x1a
 10192 142e EA120000 		.4byte	.LASF249
 10193 1432 01       		.byte	0x1
 10194 1433 E605     		.2byte	0x5e6
 10195 1435 0C010000 		.4byte	0x10c
 10196 1439 02       		.uleb128 0x2
 10197 143a 91       		.byte	0x91
 10198 143b 48       		.sleb128 -56
 10199 143c 1A       		.uleb128 0x1a
 10200 143d 65010000 		.4byte	.LASF250
 10201 1441 01       		.byte	0x1
 10202 1442 E705     		.2byte	0x5e7
 10203 1444 0C010000 		.4byte	0x10c
 10204 1448 03       		.uleb128 0x3
 10205 1449 91       		.byte	0x91
 10206 144a A87F     		.sleb128 -88
 10207 144c 1A       		.uleb128 0x1a
 10208 144d 25170000 		.4byte	.LASF251
 10209 1451 01       		.byte	0x1
 10210 1452 E805     		.2byte	0x5e8
 10211 1454 0C010000 		.4byte	0x10c
 10212 1458 02       		.uleb128 0x2
 10213 1459 91       		.byte	0x91
 10214 145a 74       		.sleb128 -12
 10215 145b 1A       		.uleb128 0x1a
 10216 145c 38170000 		.4byte	.LASF252
 10217 1460 01       		.byte	0x1
 10218 1461 E905     		.2byte	0x5e9
 10219 1463 0C010000 		.4byte	0x10c
 10220 1467 03       		.uleb128 0x3
 10221 1468 91       		.byte	0x91
 10222 1469 BC7F     		.sleb128 -68
 10223 146b 1A       		.uleb128 0x1a
 10224 146c 4B170000 		.4byte	.LASF253
 10225 1470 01       		.byte	0x1
 10226 1471 EA05     		.2byte	0x5ea
 10227 1473 0C010000 		.4byte	0x10c
 10228 1477 02       		.uleb128 0x2
 10229 1478 91       		.byte	0x91
 10230 1479 70       		.sleb128 -16
 10231 147a 1A       		.uleb128 0x1a
 10232 147b 5E170000 		.4byte	.LASF254
 10233 147f 01       		.byte	0x1
 10234 1480 EB05     		.2byte	0x5eb
ARM GAS  C:\Users\ilya\AppData\Local\Temp\ccAjPEqD.s 			page 221


 10235 1482 0C010000 		.4byte	0x10c
 10236 1486 03       		.uleb128 0x3
 10237 1487 91       		.byte	0x91
 10238 1488 AC7F     		.sleb128 -84
 10239 148a 1A       		.uleb128 0x1a
 10240 148b E6140000 		.4byte	.LASF255
 10241 148f 01       		.byte	0x1
 10242 1490 EC05     		.2byte	0x5ec
 10243 1492 0C010000 		.4byte	0x10c
 10244 1496 03       		.uleb128 0x3
 10245 1497 91       		.byte	0x91
 10246 1498 B47F     		.sleb128 -76
 10247 149a 1A       		.uleb128 0x1a
 10248 149b 980C0000 		.4byte	.LASF256
 10249 149f 01       		.byte	0x1
 10250 14a0 ED05     		.2byte	0x5ed
 10251 14a2 0C010000 		.4byte	0x10c
 10252 14a6 03       		.uleb128 0x3
 10253 14a7 91       		.byte	0x91
 10254 14a8 B07F     		.sleb128 -80
 10255 14aa 1A       		.uleb128 0x1a
 10256 14ab AE030000 		.4byte	.LASF257
 10257 14af 01       		.byte	0x1
 10258 14b0 EE05     		.2byte	0x5ee
 10259 14b2 0C010000 		.4byte	0x10c
 10260 14b6 03       		.uleb128 0x3
 10261 14b7 91       		.byte	0x91
 10262 14b8 A47F     		.sleb128 -92
 10263 14ba 1A       		.uleb128 0x1a
 10264 14bb 11150000 		.4byte	.LASF258
 10265 14bf 01       		.byte	0x1
 10266 14c0 EF05     		.2byte	0x5ef
 10267 14c2 0C010000 		.4byte	0x10c
 10268 14c6 02       		.uleb128 0x2
 10269 14c7 91       		.byte	0x91
 10270 14c8 44       		.sleb128 -60
 10271 14c9 1A       		.uleb128 0x1a
 10272 14ca 3A100000 		.4byte	.LASF259
 10273 14ce 01       		.byte	0x1
 10274 14cf F005     		.2byte	0x5f0
 10275 14d1 0C010000 		.4byte	0x10c
 10276 14d5 03       		.uleb128 0x3
 10277 14d6 91       		.byte	0x91
 10278 14d7 A07F     		.sleb128 -96
 10279 14d9 1A       		.uleb128 0x1a
 10280 14da E8000000 		.4byte	.LASF260
 10281 14de 01       		.byte	0x1
 10282 14df F105     		.2byte	0x5f1
 10283 14e1 0C010000 		.4byte	0x10c
 10284 14e5 02       		.uleb128 0x2
 10285 14e6 91       		.byte	0x91
 10286 14e7 6C       		.sleb128 -20
 10287 14e8 1A       		.uleb128 0x1a
 10288 14e9 95160000 		.4byte	.LASF261
 10289 14ed 01       		.byte	0x1
 10290 14ee F205     		.2byte	0x5f2
 10291 14f0 0C010000 		.4byte	0x10c
ARM GAS  C:\Users\ilya\AppData\Local\Temp\ccAjPEqD.s 			page 222


 10292 14f4 02       		.uleb128 0x2
 10293 14f5 91       		.byte	0x91
 10294 14f6 68       		.sleb128 -24
 10295 14f7 1A       		.uleb128 0x1a
 10296 14f8 D4120000 		.4byte	.LASF262
 10297 14fc 01       		.byte	0x1
 10298 14fd F305     		.2byte	0x5f3
 10299 14ff 0C010000 		.4byte	0x10c
 10300 1503 03       		.uleb128 0x3
 10301 1504 91       		.byte	0x91
 10302 1505 B87F     		.sleb128 -72
 10303 1507 1A       		.uleb128 0x1a
 10304 1508 2B150000 		.4byte	.LASF263
 10305 150c 01       		.byte	0x1
 10306 150d F405     		.2byte	0x5f4
 10307 150f EF000000 		.4byte	0xef
 10308 1513 02       		.uleb128 0x2
 10309 1514 91       		.byte	0x91
 10310 1515 40       		.sleb128 -64
 10311 1516 1A       		.uleb128 0x1a
 10312 1517 CF010000 		.4byte	.LASF131
 10313 151b 01       		.byte	0x1
 10314 151c F605     		.2byte	0x5f6
 10315 151e 4B010000 		.4byte	0x14b
 10316 1522 02       		.uleb128 0x2
 10317 1523 91       		.byte	0x91
 10318 1524 53       		.sleb128 -45
 10319 1525 00       		.byte	0
 10320 1526 1D       		.uleb128 0x1d
 10321 1527 EF000000 		.4byte	0xef
 10322 152b 1D       		.uleb128 0x1d
 10323 152c 0C010000 		.4byte	0x10c
 10324 1530 1B       		.uleb128 0x1b
 10325 1531 F6150000 		.4byte	.LASF264
 10326 1535 01       		.byte	0x1
 10327 1536 9606     		.2byte	0x696
 10328 1538 4B010000 		.4byte	0x14b
 10329 153c 00000000 		.4byte	.LFB24
 10330 1540 A4050000 		.4byte	.LFE24-.LFB24
 10331 1544 01       		.uleb128 0x1
 10332 1545 9C       		.byte	0x9c
 10333 1546 3F180000 		.4byte	0x183f
 10334 154a 18       		.uleb128 0x18
 10335 154b 44657600 		.ascii	"Dev\000"
 10336 154f 01       		.byte	0x1
 10337 1550 9606     		.2byte	0x696
 10338 1552 02070000 		.4byte	0x702
 10339 1556 03       		.uleb128 0x3
 10340 1557 91       		.byte	0x91
 10341 1558 BC7E     		.sleb128 -196
 10342 155a 19       		.uleb128 0x19
 10343 155b 3A0A0000 		.4byte	.LASF228
 10344 155f 01       		.byte	0x1
 10345 1560 9706     		.2byte	0x697
 10346 1562 CB120000 		.4byte	0x12cb
 10347 1566 03       		.uleb128 0x3
 10348 1567 91       		.byte	0x91
ARM GAS  C:\Users\ilya\AppData\Local\Temp\ccAjPEqD.s 			page 223


 10349 1568 B87E     		.sleb128 -200
 10350 156a 19       		.uleb128 0x19
 10351 156b 71170000 		.4byte	.LASF265
 10352 156f 01       		.byte	0x1
 10353 1570 9806     		.2byte	0x698
 10354 1572 D1120000 		.4byte	0x12d1
 10355 1576 03       		.uleb128 0x3
 10356 1577 91       		.byte	0x91
 10357 1578 B47E     		.sleb128 -204
 10358 157a 19       		.uleb128 0x19
 10359 157b 37060000 		.4byte	.LASF266
 10360 157f 01       		.byte	0x1
 10361 1580 9906     		.2byte	0x699
 10362 1582 420D0000 		.4byte	0xd42
 10363 1586 03       		.uleb128 0x3
 10364 1587 91       		.byte	0x91
 10365 1588 B07E     		.sleb128 -208
 10366 158a 1A       		.uleb128 0x1a
 10367 158b 31050000 		.4byte	.LASF267
 10368 158f 01       		.byte	0x1
 10369 1590 9C06     		.2byte	0x69c
 10370 1592 26150000 		.4byte	0x1526
 10371 1596 02       		.uleb128 0x2
 10372 1597 91       		.byte	0x91
 10373 1598 40       		.sleb128 -64
 10374 1599 1A       		.uleb128 0x1a
 10375 159a 14040000 		.4byte	.LASF268
 10376 159e 01       		.byte	0x1
 10377 159f 9E06     		.2byte	0x69e
 10378 15a1 26150000 		.4byte	0x1526
 10379 15a5 03       		.uleb128 0x3
 10380 15a6 91       		.byte	0x91
 10381 15a7 BC7F     		.sleb128 -68
 10382 15a9 1A       		.uleb128 0x1a
 10383 15aa C20C0000 		.4byte	.LASF269
 10384 15ae 01       		.byte	0x1
 10385 15af 9F06     		.2byte	0x69f
 10386 15b1 2B150000 		.4byte	0x152b
 10387 15b5 03       		.uleb128 0x3
 10388 15b6 91       		.byte	0x91
 10389 15b7 B87F     		.sleb128 -72
 10390 15b9 1A       		.uleb128 0x1a
 10391 15ba 69160000 		.4byte	.LASF270
 10392 15be 01       		.byte	0x1
 10393 15bf A006     		.2byte	0x6a0
 10394 15c1 26150000 		.4byte	0x1526
 10395 15c5 03       		.uleb128 0x3
 10396 15c6 91       		.byte	0x91
 10397 15c7 B47F     		.sleb128 -76
 10398 15c9 1A       		.uleb128 0x1a
 10399 15ca 87080000 		.4byte	.LASF271
 10400 15ce 01       		.byte	0x1
 10401 15cf A106     		.2byte	0x6a1
 10402 15d1 2B150000 		.4byte	0x152b
 10403 15d5 03       		.uleb128 0x3
 10404 15d6 91       		.byte	0x91
 10405 15d7 B07F     		.sleb128 -80
ARM GAS  C:\Users\ilya\AppData\Local\Temp\ccAjPEqD.s 			page 224


 10406 15d9 1A       		.uleb128 0x1a
 10407 15da 9F0F0000 		.4byte	.LASF272
 10408 15de 01       		.byte	0x1
 10409 15df A206     		.2byte	0x6a2
 10410 15e1 2B150000 		.4byte	0x152b
 10411 15e5 03       		.uleb128 0x3
 10412 15e6 91       		.byte	0x91
 10413 15e7 AC7F     		.sleb128 -84
 10414 15e9 1A       		.uleb128 0x1a
 10415 15ea A20A0000 		.4byte	.LASF273
 10416 15ee 01       		.byte	0x1
 10417 15ef A306     		.2byte	0x6a3
 10418 15f1 2B150000 		.4byte	0x152b
 10419 15f5 03       		.uleb128 0x3
 10420 15f6 91       		.byte	0x91
 10421 15f7 A87F     		.sleb128 -88
 10422 15f9 1A       		.uleb128 0x1a
 10423 15fa CA050000 		.4byte	.LASF274
 10424 15fe 01       		.byte	0x1
 10425 15ff A606     		.2byte	0x6a6
 10426 1601 2B150000 		.4byte	0x152b
 10427 1605 03       		.uleb128 0x3
 10428 1606 91       		.byte	0x91
 10429 1607 A47F     		.sleb128 -92
 10430 1609 1A       		.uleb128 0x1a
 10431 160a 6B100000 		.4byte	.LASF275
 10432 160e 01       		.byte	0x1
 10433 160f A706     		.2byte	0x6a7
 10434 1611 26150000 		.4byte	0x1526
 10435 1615 03       		.uleb128 0x3
 10436 1616 91       		.byte	0x91
 10437 1617 A07F     		.sleb128 -96
 10438 1619 1A       		.uleb128 0x1a
 10439 161a 710B0000 		.4byte	.LASF276
 10440 161e 01       		.byte	0x1
 10441 161f A806     		.2byte	0x6a8
 10442 1621 2B150000 		.4byte	0x152b
 10443 1625 03       		.uleb128 0x3
 10444 1626 91       		.byte	0x91
 10445 1627 9C7F     		.sleb128 -100
 10446 1629 1A       		.uleb128 0x1a
 10447 162a 1D150000 		.4byte	.LASF277
 10448 162e 01       		.byte	0x1
 10449 162f A906     		.2byte	0x6a9
 10450 1631 26150000 		.4byte	0x1526
 10451 1635 03       		.uleb128 0x3
 10452 1636 91       		.byte	0x91
 10453 1637 987F     		.sleb128 -104
 10454 1639 1A       		.uleb128 0x1a
 10455 163a 43100000 		.4byte	.LASF278
 10456 163e 01       		.byte	0x1
 10457 163f AB06     		.2byte	0x6ab
 10458 1641 EF000000 		.4byte	0xef
 10459 1645 02       		.uleb128 0x2
 10460 1646 91       		.byte	0x91
 10461 1647 6C       		.sleb128 -20
 10462 1648 1A       		.uleb128 0x1a
ARM GAS  C:\Users\ilya\AppData\Local\Temp\ccAjPEqD.s 			page 225


 10463 1649 A7060000 		.4byte	.LASF279
 10464 164d 01       		.byte	0x1
 10465 164e AC06     		.2byte	0x6ac
 10466 1650 EF000000 		.4byte	0xef
 10467 1654 02       		.uleb128 0x2
 10468 1655 91       		.byte	0x91
 10469 1656 68       		.sleb128 -24
 10470 1657 1A       		.uleb128 0x1a
 10471 1658 86090000 		.4byte	.LASF280
 10472 165c 01       		.byte	0x1
 10473 165d AD06     		.2byte	0x6ad
 10474 165f EF000000 		.4byte	0xef
 10475 1663 02       		.uleb128 0x2
 10476 1664 91       		.byte	0x91
 10477 1665 64       		.sleb128 -28
 10478 1666 1A       		.uleb128 0x1a
 10479 1667 38160000 		.4byte	.LASF281
 10480 166b 01       		.byte	0x1
 10481 166c AE06     		.2byte	0x6ae
 10482 166e EF000000 		.4byte	0xef
 10483 1672 03       		.uleb128 0x3
 10484 1673 91       		.byte	0x91
 10485 1674 D07E     		.sleb128 -176
 10486 1676 1A       		.uleb128 0x1a
 10487 1677 BF040000 		.4byte	.LASF239
 10488 167b 01       		.byte	0x1
 10489 167c AF06     		.2byte	0x6af
 10490 167e 0C010000 		.4byte	0x10c
 10491 1682 03       		.uleb128 0x3
 10492 1683 91       		.byte	0x91
 10493 1684 F87E     		.sleb128 -136
 10494 1686 1A       		.uleb128 0x1a
 10495 1687 CF040000 		.4byte	.LASF240
 10496 168b 01       		.byte	0x1
 10497 168c B006     		.2byte	0x6b0
 10498 168e 0C010000 		.4byte	0x10c
 10499 1692 02       		.uleb128 0x2
 10500 1693 91       		.byte	0x91
 10501 1694 60       		.sleb128 -32
 10502 1695 1A       		.uleb128 0x1a
 10503 1696 DF040000 		.4byte	.LASF282
 10504 169a 01       		.byte	0x1
 10505 169b B106     		.2byte	0x6b1
 10506 169d 0C010000 		.4byte	0x10c
 10507 16a1 03       		.uleb128 0x3
 10508 16a2 91       		.byte	0x91
 10509 16a3 F47E     		.sleb128 -140
 10510 16a5 1A       		.uleb128 0x1a
 10511 16a6 04130000 		.4byte	.LASF283
 10512 16aa 01       		.byte	0x1
 10513 16ab B206     		.2byte	0x6b2
 10514 16ad 0C010000 		.4byte	0x10c
 10515 16b1 03       		.uleb128 0x3
 10516 16b2 91       		.byte	0x91
 10517 16b3 F07E     		.sleb128 -144
 10518 16b5 1A       		.uleb128 0x1a
 10519 16b6 44140000 		.4byte	.LASF238
ARM GAS  C:\Users\ilya\AppData\Local\Temp\ccAjPEqD.s 			page 226


 10520 16ba 01       		.byte	0x1
 10521 16bb B306     		.2byte	0x6b3
 10522 16bd 0C010000 		.4byte	0x10c
 10523 16c1 02       		.uleb128 0x2
 10524 16c2 91       		.byte	0x91
 10525 16c3 5C       		.sleb128 -36
 10526 16c4 1A       		.uleb128 0x1a
 10527 16c5 25130000 		.4byte	.LASF284
 10528 16c9 01       		.byte	0x1
 10529 16ca B406     		.2byte	0x6b4
 10530 16cc 0C010000 		.4byte	0x10c
 10531 16d0 02       		.uleb128 0x2
 10532 16d1 91       		.byte	0x91
 10533 16d2 58       		.sleb128 -40
 10534 16d3 1A       		.uleb128 0x1a
 10535 16d4 E5100000 		.4byte	.LASF285
 10536 16d8 01       		.byte	0x1
 10537 16d9 B506     		.2byte	0x6b5
 10538 16db 0C010000 		.4byte	0x10c
 10539 16df 02       		.uleb128 0x2
 10540 16e0 91       		.byte	0x91
 10541 16e1 54       		.sleb128 -44
 10542 16e2 1A       		.uleb128 0x1a
 10543 16e3 0C010000 		.4byte	.LASF286
 10544 16e7 01       		.byte	0x1
 10545 16e8 B606     		.2byte	0x6b6
 10546 16ea 0C010000 		.4byte	0x10c
 10547 16ee 03       		.uleb128 0x3
 10548 16ef 91       		.byte	0x91
 10549 16f0 E47E     		.sleb128 -156
 10550 16f2 1A       		.uleb128 0x1a
 10551 16f3 DB0F0000 		.4byte	.LASF287
 10552 16f7 01       		.byte	0x1
 10553 16f8 B706     		.2byte	0x6b7
 10554 16fa 0C010000 		.4byte	0x10c
 10555 16fe 03       		.uleb128 0x3
 10556 16ff 91       		.byte	0x91
 10557 1700 947F     		.sleb128 -108
 10558 1702 1A       		.uleb128 0x1a
 10559 1703 C80A0000 		.4byte	.LASF288
 10560 1707 01       		.byte	0x1
 10561 1708 B806     		.2byte	0x6b8
 10562 170a 0C010000 		.4byte	0x10c
 10563 170e 03       		.uleb128 0x3
 10564 170f 91       		.byte	0x91
 10565 1710 8C7F     		.sleb128 -116
 10566 1712 1A       		.uleb128 0x1a
 10567 1713 AF090000 		.4byte	.LASF289
 10568 1717 01       		.byte	0x1
 10569 1718 B906     		.2byte	0x6b9
 10570 171a 0C010000 		.4byte	0x10c
 10571 171e 03       		.uleb128 0x3
 10572 171f 91       		.byte	0x91
 10573 1720 C47E     		.sleb128 -188
 10574 1722 1A       		.uleb128 0x1a
 10575 1723 80170000 		.4byte	.LASF290
 10576 1727 01       		.byte	0x1
ARM GAS  C:\Users\ilya\AppData\Local\Temp\ccAjPEqD.s 			page 227


 10577 1728 BA06     		.2byte	0x6ba
 10578 172a EF000000 		.4byte	0xef
 10579 172e 02       		.uleb128 0x2
 10580 172f 91       		.byte	0x91
 10581 1730 50       		.sleb128 -48
 10582 1731 1A       		.uleb128 0x1a
 10583 1732 CF010000 		.4byte	.LASF131
 10584 1736 01       		.byte	0x1
 10585 1737 BB06     		.2byte	0x6bb
 10586 1739 4B010000 		.4byte	0x14b
 10587 173d 02       		.uleb128 0x2
 10588 173e 91       		.byte	0x91
 10589 173f 4F       		.sleb128 -49
 10590 1740 1A       		.uleb128 0x1a
 10591 1741 830F0000 		.4byte	.LASF291
 10592 1745 01       		.byte	0x1
 10593 1746 BC06     		.2byte	0x6bc
 10594 1748 0C010000 		.4byte	0x10c
 10595 174c 03       		.uleb128 0x3
 10596 174d 91       		.byte	0x91
 10597 174e EC7E     		.sleb128 -148
 10598 1750 1A       		.uleb128 0x1a
 10599 1751 B9110000 		.4byte	.LASF292
 10600 1755 01       		.byte	0x1
 10601 1756 BD06     		.2byte	0x6bd
 10602 1758 0C010000 		.4byte	0x10c
 10603 175c 03       		.uleb128 0x3
 10604 175d 91       		.byte	0x91
 10605 175e E87E     		.sleb128 -152
 10606 1760 1A       		.uleb128 0x1a
 10607 1761 48040000 		.4byte	.LASF293
 10608 1765 01       		.byte	0x1
 10609 1766 BE06     		.2byte	0x6be
 10610 1768 0C010000 		.4byte	0x10c
 10611 176c 03       		.uleb128 0x3
 10612 176d 91       		.byte	0x91
 10613 176e E07E     		.sleb128 -160
 10614 1770 1A       		.uleb128 0x1a
 10615 1771 4D040000 		.4byte	.LASF294
 10616 1775 01       		.byte	0x1
 10617 1776 BF06     		.2byte	0x6bf
 10618 1778 0C010000 		.4byte	0x10c
 10619 177c 03       		.uleb128 0x3
 10620 177d 91       		.byte	0x91
 10621 177e DC7E     		.sleb128 -164
 10622 1780 1A       		.uleb128 0x1a
 10623 1781 BB0C0000 		.4byte	.LASF295
 10624 1785 01       		.byte	0x1
 10625 1786 C006     		.2byte	0x6c0
 10626 1788 0C010000 		.4byte	0x10c
 10627 178c 03       		.uleb128 0x3
 10628 178d 91       		.byte	0x91
 10629 178e D87E     		.sleb128 -168
 10630 1790 1A       		.uleb128 0x1a
 10631 1791 4B140000 		.4byte	.LASF296
 10632 1795 01       		.byte	0x1
 10633 1796 C106     		.2byte	0x6c1
ARM GAS  C:\Users\ilya\AppData\Local\Temp\ccAjPEqD.s 			page 228


 10634 1798 0C010000 		.4byte	0x10c
 10635 179c 03       		.uleb128 0x3
 10636 179d 91       		.byte	0x91
 10637 179e D47E     		.sleb128 -172
 10638 17a0 1A       		.uleb128 0x1a
 10639 17a1 43090000 		.4byte	.LASF297
 10640 17a5 01       		.byte	0x1
 10641 17a6 C206     		.2byte	0x6c2
 10642 17a8 0C010000 		.4byte	0x10c
 10643 17ac 03       		.uleb128 0x3
 10644 17ad 91       		.byte	0x91
 10645 17ae C87E     		.sleb128 -184
 10646 17b0 1A       		.uleb128 0x1a
 10647 17b1 59030000 		.4byte	.LASF236
 10648 17b5 01       		.byte	0x1
 10649 17b6 C306     		.2byte	0x6c3
 10650 17b8 0C010000 		.4byte	0x10c
 10651 17bc 03       		.uleb128 0x3
 10652 17bd 91       		.byte	0x91
 10653 17be C07E     		.sleb128 -192
 10654 17c0 1A       		.uleb128 0x1a
 10655 17c1 ED0E0000 		.4byte	.LASF298
 10656 17c5 01       		.byte	0x1
 10657 17c6 C406     		.2byte	0x6c4
 10658 17c8 0C010000 		.4byte	0x10c
 10659 17cc 03       		.uleb128 0x3
 10660 17cd 91       		.byte	0x91
 10661 17ce 907F     		.sleb128 -112
 10662 17d0 1A       		.uleb128 0x1a
 10663 17d1 45130000 		.4byte	.LASF299
 10664 17d5 01       		.byte	0x1
 10665 17d6 C506     		.2byte	0x6c5
 10666 17d8 0C010000 		.4byte	0x10c
 10667 17dc 03       		.uleb128 0x3
 10668 17dd 91       		.byte	0x91
 10669 17de CC7E     		.sleb128 -180
 10670 17e0 1A       		.uleb128 0x1a
 10671 17e1 57100000 		.4byte	.LASF300
 10672 17e5 01       		.byte	0x1
 10673 17e6 C606     		.2byte	0x6c6
 10674 17e8 EF000000 		.4byte	0xef
 10675 17ec 02       		.uleb128 0x2
 10676 17ed 91       		.byte	0x91
 10677 17ee 48       		.sleb128 -56
 10678 17ef 1A       		.uleb128 0x1a
 10679 17f0 10120000 		.4byte	.LASF301
 10680 17f4 01       		.byte	0x1
 10681 17f5 C706     		.2byte	0x6c7
 10682 17f7 EF000000 		.4byte	0xef
 10683 17fb 03       		.uleb128 0x3
 10684 17fc 91       		.byte	0x91
 10685 17fd 847F     		.sleb128 -124
 10686 17ff 1A       		.uleb128 0x1a
 10687 1800 860D0000 		.4byte	.LASF302
 10688 1804 01       		.byte	0x1
 10689 1805 C806     		.2byte	0x6c8
 10690 1807 EF000000 		.4byte	0xef
ARM GAS  C:\Users\ilya\AppData\Local\Temp\ccAjPEqD.s 			page 229


 10691 180b 03       		.uleb128 0x3
 10692 180c 91       		.byte	0x91
 10693 180d FC7E     		.sleb128 -132
 10694 180f 1A       		.uleb128 0x1a
 10695 1810 40120000 		.4byte	.LASF241
 10696 1814 01       		.byte	0x1
 10697 1815 C906     		.2byte	0x6c9
 10698 1817 EF000000 		.4byte	0xef
 10699 181b 02       		.uleb128 0x2
 10700 181c 91       		.byte	0x91
 10701 181d 44       		.sleb128 -60
 10702 181e 1A       		.uleb128 0x1a
 10703 181f BD030000 		.4byte	.LASF303
 10704 1823 01       		.byte	0x1
 10705 1824 CA06     		.2byte	0x6ca
 10706 1826 C3000000 		.4byte	0xc3
 10707 182a 03       		.uleb128 0x3
 10708 182b 91       		.byte	0x91
 10709 182c 8B7F     		.sleb128 -117
 10710 182e 1A       		.uleb128 0x1a
 10711 182f BC010000 		.4byte	.LASF304
 10712 1833 01       		.byte	0x1
 10713 1834 CB06     		.2byte	0x6cb
 10714 1836 C3000000 		.4byte	0xc3
 10715 183a 03       		.uleb128 0x3
 10716 183b 91       		.byte	0x91
 10717 183c 837F     		.sleb128 -125
 10718 183e 00       		.byte	0
 10719 183f 1E       		.uleb128 0x1e
 10720 1840 4B110000 		.4byte	.LASF327
 10721 1844 01       		.byte	0x1
 10722 1845 D807     		.2byte	0x7d8
 10723 1847 4B010000 		.4byte	0x14b
 10724 184b 00000000 		.4byte	.LFB25
 10725 184f A0040000 		.4byte	.LFE25-.LFB25
 10726 1853 01       		.uleb128 0x1
 10727 1854 9C       		.byte	0x9c
 10728 1855 18       		.uleb128 0x18
 10729 1856 44657600 		.ascii	"Dev\000"
 10730 185a 01       		.byte	0x1
 10731 185b D807     		.2byte	0x7d8
 10732 185d 02070000 		.4byte	0x702
 10733 1861 03       		.uleb128 0x3
 10734 1862 91       		.byte	0x91
 10735 1863 BC7F     		.sleb128 -68
 10736 1865 19       		.uleb128 0x19
 10737 1866 30000000 		.4byte	.LASF305
 10738 186a 01       		.byte	0x1
 10739 186b D907     		.2byte	0x7d9
 10740 186d C3000000 		.4byte	0xc3
 10741 1871 03       		.uleb128 0x3
 10742 1872 91       		.byte	0x91
 10743 1873 BB7F     		.sleb128 -69
 10744 1875 19       		.uleb128 0x19
 10745 1876 7C080000 		.4byte	.LASF306
 10746 187a 01       		.byte	0x1
 10747 187b DA07     		.2byte	0x7da
ARM GAS  C:\Users\ilya\AppData\Local\Temp\ccAjPEqD.s 			page 230


 10748 187d 0C010000 		.4byte	0x10c
 10749 1881 03       		.uleb128 0x3
 10750 1882 91       		.byte	0x91
 10751 1883 B47F     		.sleb128 -76
 10752 1885 19       		.uleb128 0x19
 10753 1886 BB070000 		.4byte	.LASF56
 10754 188a 01       		.byte	0x1
 10755 188b DB07     		.2byte	0x7db
 10756 188d D9000000 		.4byte	0xd9
 10757 1891 03       		.uleb128 0x3
 10758 1892 91       		.byte	0x91
 10759 1893 B87F     		.sleb128 -72
 10760 1895 19       		.uleb128 0x19
 10761 1896 3A0A0000 		.4byte	.LASF228
 10762 189a 01       		.byte	0x1
 10763 189b DC07     		.2byte	0x7dc
 10764 189d CB120000 		.4byte	0x12cb
 10765 18a1 02       		.uleb128 0x2
 10766 18a2 91       		.byte	0x91
 10767 18a3 00       		.sleb128 0
 10768 18a4 19       		.uleb128 0x19
 10769 18a5 D0080000 		.4byte	.LASF307
 10770 18a9 01       		.byte	0x1
 10771 18aa DD07     		.2byte	0x7dd
 10772 18ac 33060000 		.4byte	0x633
 10773 18b0 02       		.uleb128 0x2
 10774 18b1 91       		.byte	0x91
 10775 18b2 04       		.sleb128 4
 10776 18b3 1A       		.uleb128 0x1a
 10777 18b4 CF010000 		.4byte	.LASF131
 10778 18b8 01       		.byte	0x1
 10779 18b9 DF07     		.2byte	0x7df
 10780 18bb 4B010000 		.4byte	0x14b
 10781 18bf 02       		.uleb128 0x2
 10782 18c0 91       		.byte	0x91
 10783 18c1 6F       		.sleb128 -17
 10784 18c2 1A       		.uleb128 0x1a
 10785 18c3 AC120000 		.4byte	.LASF308
 10786 18c7 01       		.byte	0x1
 10787 18c8 E007     		.2byte	0x7e0
 10788 18ca C3000000 		.4byte	0xc3
 10789 18ce 02       		.uleb128 0x2
 10790 18cf 91       		.byte	0x91
 10791 18d0 6E       		.sleb128 -18
 10792 18d1 1A       		.uleb128 0x1a
 10793 18d2 0D180000 		.4byte	.LASF309
 10794 18d6 01       		.byte	0x1
 10795 18d7 E107     		.2byte	0x7e1
 10796 18d9 C3000000 		.4byte	0xc3
 10797 18dd 02       		.uleb128 0x2
 10798 18de 91       		.byte	0x91
 10799 18df 6D       		.sleb128 -19
 10800 18e0 1A       		.uleb128 0x1a
 10801 18e1 060F0000 		.4byte	.LASF310
 10802 18e5 01       		.byte	0x1
 10803 18e6 E207     		.2byte	0x7e2
 10804 18e8 C3000000 		.4byte	0xc3
ARM GAS  C:\Users\ilya\AppData\Local\Temp\ccAjPEqD.s 			page 231


 10805 18ec 02       		.uleb128 0x2
 10806 18ed 91       		.byte	0x91
 10807 18ee 6C       		.sleb128 -20
 10808 18ef 1A       		.uleb128 0x1a
 10809 18f0 75010000 		.4byte	.LASF311
 10810 18f4 01       		.byte	0x1
 10811 18f5 E307     		.2byte	0x7e3
 10812 18f7 C3000000 		.4byte	0xc3
 10813 18fb 02       		.uleb128 0x2
 10814 18fc 91       		.byte	0x91
 10815 18fd 6B       		.sleb128 -21
 10816 18fe 1A       		.uleb128 0x1a
 10817 18ff 320D0000 		.4byte	.LASF312
 10818 1903 01       		.byte	0x1
 10819 1904 E407     		.2byte	0x7e4
 10820 1906 C3000000 		.4byte	0xc3
 10821 190a 02       		.uleb128 0x2
 10822 190b 91       		.byte	0x91
 10823 190c 5B       		.sleb128 -37
 10824 190d 1A       		.uleb128 0x1a
 10825 190e 870B0000 		.4byte	.LASF313
 10826 1912 01       		.byte	0x1
 10827 1913 E507     		.2byte	0x7e5
 10828 1915 C3000000 		.4byte	0xc3
 10829 1919 02       		.uleb128 0x2
 10830 191a 91       		.byte	0x91
 10831 191b 5A       		.sleb128 -38
 10832 191c 1A       		.uleb128 0x1a
 10833 191d 3B030000 		.4byte	.LASF314
 10834 1921 01       		.byte	0x1
 10835 1922 E607     		.2byte	0x7e6
 10836 1924 C3000000 		.4byte	0xc3
 10837 1928 02       		.uleb128 0x2
 10838 1929 91       		.byte	0x91
 10839 192a 59       		.sleb128 -39
 10840 192b 1A       		.uleb128 0x1a
 10841 192c 93140000 		.4byte	.LASF315
 10842 1930 01       		.byte	0x1
 10843 1931 E707     		.2byte	0x7e7
 10844 1933 C3000000 		.4byte	0xc3
 10845 1937 02       		.uleb128 0x2
 10846 1938 91       		.byte	0x91
 10847 1939 58       		.sleb128 -40
 10848 193a 1A       		.uleb128 0x1a
 10849 193b 5B160000 		.4byte	.LASF106
 10850 193f 01       		.byte	0x1
 10851 1940 E807     		.2byte	0x7e8
 10852 1942 0C010000 		.4byte	0x10c
 10853 1946 02       		.uleb128 0x2
 10854 1947 91       		.byte	0x91
 10855 1948 54       		.sleb128 -44
 10856 1949 1A       		.uleb128 0x1a
 10857 194a 9F090000 		.4byte	.LASF316
 10858 194e 01       		.byte	0x1
 10859 194f E907     		.2byte	0x7e9
 10860 1951 0C010000 		.4byte	0x10c
 10861 1955 02       		.uleb128 0x2
ARM GAS  C:\Users\ilya\AppData\Local\Temp\ccAjPEqD.s 			page 232


 10862 1956 91       		.byte	0x91
 10863 1957 50       		.sleb128 -48
 10864 1958 1A       		.uleb128 0x1a
 10865 1959 C30B0000 		.4byte	.LASF317
 10866 195d 01       		.byte	0x1
 10867 195e EA07     		.2byte	0x7ea
 10868 1960 0C010000 		.4byte	0x10c
 10869 1964 02       		.uleb128 0x2
 10870 1965 91       		.byte	0x91
 10871 1966 4C       		.sleb128 -52
 10872 1967 1A       		.uleb128 0x1a
 10873 1968 690F0000 		.4byte	.LASF318
 10874 196c 01       		.byte	0x1
 10875 196d EB07     		.2byte	0x7eb
 10876 196f 0C010000 		.4byte	0x10c
 10877 1973 02       		.uleb128 0x2
 10878 1974 91       		.byte	0x91
 10879 1975 48       		.sleb128 -56
 10880 1976 1A       		.uleb128 0x1a
 10881 1977 16140000 		.4byte	.LASF319
 10882 197b 01       		.byte	0x1
 10883 197c EC07     		.2byte	0x7ec
 10884 197e 0C010000 		.4byte	0x10c
 10885 1982 02       		.uleb128 0x2
 10886 1983 91       		.byte	0x91
 10887 1984 64       		.sleb128 -28
 10888 1985 1A       		.uleb128 0x1a
 10889 1986 79120000 		.4byte	.LASF320
 10890 198a 01       		.byte	0x1
 10891 198b ED07     		.2byte	0x7ed
 10892 198d C3000000 		.4byte	0xc3
 10893 1991 02       		.uleb128 0x2
 10894 1992 91       		.byte	0x91
 10895 1993 62       		.sleb128 -30
 10896 1994 1A       		.uleb128 0x1a
 10897 1995 B3150000 		.4byte	.LASF321
 10898 1999 01       		.byte	0x1
 10899 199a EE07     		.2byte	0x7ee
 10900 199c D9000000 		.4byte	0xd9
 10901 19a0 02       		.uleb128 0x2
 10902 19a1 91       		.byte	0x91
 10903 19a2 46       		.sleb128 -58
 10904 19a3 1A       		.uleb128 0x1a
 10905 19a4 800D0000 		.4byte	.LASF322
 10906 19a8 01       		.byte	0x1
 10907 19a9 EF07     		.2byte	0x7ef
 10908 19ab C3000000 		.4byte	0xc3
 10909 19af 02       		.uleb128 0x2
 10910 19b0 91       		.byte	0x91
 10911 19b1 63       		.sleb128 -29
 10912 19b2 1A       		.uleb128 0x1a
 10913 19b3 CC120000 		.4byte	.LASF323
 10914 19b7 01       		.byte	0x1
 10915 19b8 F007     		.2byte	0x7f0
 10916 19ba EF000000 		.4byte	0xef
 10917 19be 02       		.uleb128 0x2
 10918 19bf 91       		.byte	0x91
ARM GAS  C:\Users\ilya\AppData\Local\Temp\ccAjPEqD.s 			page 233


 10919 19c0 40       		.sleb128 -64
 10920 19c1 1A       		.uleb128 0x1a
 10921 19c2 A2100000 		.4byte	.LASF108
 10922 19c6 01       		.byte	0x1
 10923 19c7 F107     		.2byte	0x7f1
 10924 19c9 0C010000 		.4byte	0x10c
 10925 19cd 02       		.uleb128 0x2
 10926 19ce 91       		.byte	0x91
 10927 19cf 5C       		.sleb128 -36
 10928 19d0 00       		.byte	0
 10929 19d1 00       		.byte	0
 10930              		.section	.debug_abbrev,"",%progbits
 10931              	.Ldebug_abbrev0:
 10932 0000 01       		.uleb128 0x1
 10933 0001 11       		.uleb128 0x11
 10934 0002 01       		.byte	0x1
 10935 0003 25       		.uleb128 0x25
 10936 0004 0E       		.uleb128 0xe
 10937 0005 13       		.uleb128 0x13
 10938 0006 0B       		.uleb128 0xb
 10939 0007 03       		.uleb128 0x3
 10940 0008 0E       		.uleb128 0xe
 10941 0009 1B       		.uleb128 0x1b
 10942 000a 0E       		.uleb128 0xe
 10943 000b 55       		.uleb128 0x55
 10944 000c 17       		.uleb128 0x17
 10945 000d 11       		.uleb128 0x11
 10946 000e 01       		.uleb128 0x1
 10947 000f 10       		.uleb128 0x10
 10948 0010 17       		.uleb128 0x17
 10949 0011 00       		.byte	0
 10950 0012 00       		.byte	0
 10951 0013 02       		.uleb128 0x2
 10952 0014 16       		.uleb128 0x16
 10953 0015 00       		.byte	0
 10954 0016 03       		.uleb128 0x3
 10955 0017 0E       		.uleb128 0xe
 10956 0018 3A       		.uleb128 0x3a
 10957 0019 0B       		.uleb128 0xb
 10958 001a 3B       		.uleb128 0x3b
 10959 001b 0B       		.uleb128 0xb
 10960 001c 49       		.uleb128 0x49
 10961 001d 13       		.uleb128 0x13
 10962 001e 00       		.byte	0
 10963 001f 00       		.byte	0
 10964 0020 03       		.uleb128 0x3
 10965 0021 24       		.uleb128 0x24
 10966 0022 00       		.byte	0
 10967 0023 0B       		.uleb128 0xb
 10968 0024 0B       		.uleb128 0xb
 10969 0025 3E       		.uleb128 0x3e
 10970 0026 0B       		.uleb128 0xb
 10971 0027 03       		.uleb128 0x3
 10972 0028 0E       		.uleb128 0xe
 10973 0029 00       		.byte	0
 10974 002a 00       		.byte	0
 10975 002b 04       		.uleb128 0x4
ARM GAS  C:\Users\ilya\AppData\Local\Temp\ccAjPEqD.s 			page 234


 10976 002c 24       		.uleb128 0x24
 10977 002d 00       		.byte	0
 10978 002e 0B       		.uleb128 0xb
 10979 002f 0B       		.uleb128 0xb
 10980 0030 3E       		.uleb128 0x3e
 10981 0031 0B       		.uleb128 0xb
 10982 0032 03       		.uleb128 0x3
 10983 0033 08       		.uleb128 0x8
 10984 0034 00       		.byte	0
 10985 0035 00       		.byte	0
 10986 0036 05       		.uleb128 0x5
 10987 0037 01       		.uleb128 0x1
 10988 0038 01       		.byte	0x1
 10989 0039 49       		.uleb128 0x49
 10990 003a 13       		.uleb128 0x13
 10991 003b 01       		.uleb128 0x1
 10992 003c 13       		.uleb128 0x13
 10993 003d 00       		.byte	0
 10994 003e 00       		.byte	0
 10995 003f 06       		.uleb128 0x6
 10996 0040 21       		.uleb128 0x21
 10997 0041 00       		.byte	0
 10998 0042 49       		.uleb128 0x49
 10999 0043 13       		.uleb128 0x13
 11000 0044 2F       		.uleb128 0x2f
 11001 0045 0B       		.uleb128 0xb
 11002 0046 00       		.byte	0
 11003 0047 00       		.byte	0
 11004 0048 07       		.uleb128 0x7
 11005 0049 13       		.uleb128 0x13
 11006 004a 01       		.byte	0x1
 11007 004b 0B       		.uleb128 0xb
 11008 004c 0B       		.uleb128 0xb
 11009 004d 3A       		.uleb128 0x3a
 11010 004e 0B       		.uleb128 0xb
 11011 004f 3B       		.uleb128 0x3b
 11012 0050 0B       		.uleb128 0xb
 11013 0051 01       		.uleb128 0x1
 11014 0052 13       		.uleb128 0x13
 11015 0053 00       		.byte	0
 11016 0054 00       		.byte	0
 11017 0055 08       		.uleb128 0x8
 11018 0056 0D       		.uleb128 0xd
 11019 0057 00       		.byte	0
 11020 0058 03       		.uleb128 0x3
 11021 0059 0E       		.uleb128 0xe
 11022 005a 3A       		.uleb128 0x3a
 11023 005b 0B       		.uleb128 0xb
 11024 005c 3B       		.uleb128 0x3b
 11025 005d 0B       		.uleb128 0xb
 11026 005e 49       		.uleb128 0x49
 11027 005f 13       		.uleb128 0x13
 11028 0060 38       		.uleb128 0x38
 11029 0061 0B       		.uleb128 0xb
 11030 0062 00       		.byte	0
 11031 0063 00       		.byte	0
 11032 0064 09       		.uleb128 0x9
ARM GAS  C:\Users\ilya\AppData\Local\Temp\ccAjPEqD.s 			page 235


 11033 0065 0D       		.uleb128 0xd
 11034 0066 00       		.byte	0
 11035 0067 03       		.uleb128 0x3
 11036 0068 0E       		.uleb128 0xe
 11037 0069 3A       		.uleb128 0x3a
 11038 006a 0B       		.uleb128 0xb
 11039 006b 3B       		.uleb128 0x3b
 11040 006c 05       		.uleb128 0x5
 11041 006d 49       		.uleb128 0x49
 11042 006e 13       		.uleb128 0x13
 11043 006f 38       		.uleb128 0x38
 11044 0070 0B       		.uleb128 0xb
 11045 0071 00       		.byte	0
 11046 0072 00       		.byte	0
 11047 0073 0A       		.uleb128 0xa
 11048 0074 16       		.uleb128 0x16
 11049 0075 00       		.byte	0
 11050 0076 03       		.uleb128 0x3
 11051 0077 0E       		.uleb128 0xe
 11052 0078 3A       		.uleb128 0x3a
 11053 0079 0B       		.uleb128 0xb
 11054 007a 3B       		.uleb128 0x3b
 11055 007b 05       		.uleb128 0x5
 11056 007c 49       		.uleb128 0x49
 11057 007d 13       		.uleb128 0x13
 11058 007e 00       		.byte	0
 11059 007f 00       		.byte	0
 11060 0080 0B       		.uleb128 0xb
 11061 0081 13       		.uleb128 0x13
 11062 0082 01       		.byte	0x1
 11063 0083 0B       		.uleb128 0xb
 11064 0084 0B       		.uleb128 0xb
 11065 0085 3A       		.uleb128 0x3a
 11066 0086 0B       		.uleb128 0xb
 11067 0087 3B       		.uleb128 0x3b
 11068 0088 05       		.uleb128 0x5
 11069 0089 01       		.uleb128 0x1
 11070 008a 13       		.uleb128 0x13
 11071 008b 00       		.byte	0
 11072 008c 00       		.byte	0
 11073 008d 0C       		.uleb128 0xc
 11074 008e 13       		.uleb128 0x13
 11075 008f 01       		.byte	0x1
 11076 0090 0B       		.uleb128 0xb
 11077 0091 05       		.uleb128 0x5
 11078 0092 3A       		.uleb128 0x3a
 11079 0093 0B       		.uleb128 0xb
 11080 0094 3B       		.uleb128 0x3b
 11081 0095 05       		.uleb128 0x5
 11082 0096 01       		.uleb128 0x1
 11083 0097 13       		.uleb128 0x13
 11084 0098 00       		.byte	0
 11085 0099 00       		.byte	0
 11086 009a 0D       		.uleb128 0xd
 11087 009b 0D       		.uleb128 0xd
 11088 009c 00       		.byte	0
 11089 009d 03       		.uleb128 0x3
ARM GAS  C:\Users\ilya\AppData\Local\Temp\ccAjPEqD.s 			page 236


 11090 009e 0E       		.uleb128 0xe
 11091 009f 3A       		.uleb128 0x3a
 11092 00a0 0B       		.uleb128 0xb
 11093 00a1 3B       		.uleb128 0x3b
 11094 00a2 05       		.uleb128 0x5
 11095 00a3 49       		.uleb128 0x49
 11096 00a4 13       		.uleb128 0x13
 11097 00a5 38       		.uleb128 0x38
 11098 00a6 05       		.uleb128 0x5
 11099 00a7 00       		.byte	0
 11100 00a8 00       		.byte	0
 11101 00a9 0E       		.uleb128 0xe
 11102 00aa 0F       		.uleb128 0xf
 11103 00ab 00       		.byte	0
 11104 00ac 0B       		.uleb128 0xb
 11105 00ad 0B       		.uleb128 0xb
 11106 00ae 49       		.uleb128 0x49
 11107 00af 13       		.uleb128 0x13
 11108 00b0 00       		.byte	0
 11109 00b1 00       		.byte	0
 11110 00b2 0F       		.uleb128 0xf
 11111 00b3 13       		.uleb128 0x13
 11112 00b4 01       		.byte	0x1
 11113 00b5 0B       		.uleb128 0xb
 11114 00b6 05       		.uleb128 0x5
 11115 00b7 3A       		.uleb128 0x3a
 11116 00b8 0B       		.uleb128 0xb
 11117 00b9 3B       		.uleb128 0x3b
 11118 00ba 0B       		.uleb128 0xb
 11119 00bb 01       		.uleb128 0x1
 11120 00bc 13       		.uleb128 0x13
 11121 00bd 00       		.byte	0
 11122 00be 00       		.byte	0
 11123 00bf 10       		.uleb128 0x10
 11124 00c0 0D       		.uleb128 0xd
 11125 00c1 00       		.byte	0
 11126 00c2 03       		.uleb128 0x3
 11127 00c3 0E       		.uleb128 0xe
 11128 00c4 3A       		.uleb128 0x3a
 11129 00c5 0B       		.uleb128 0xb
 11130 00c6 3B       		.uleb128 0x3b
 11131 00c7 0B       		.uleb128 0xb
 11132 00c8 49       		.uleb128 0x49
 11133 00c9 13       		.uleb128 0x13
 11134 00ca 38       		.uleb128 0x38
 11135 00cb 05       		.uleb128 0x5
 11136 00cc 00       		.byte	0
 11137 00cd 00       		.byte	0
 11138 00ce 11       		.uleb128 0x11
 11139 00cf 2E       		.uleb128 0x2e
 11140 00d0 01       		.byte	0x1
 11141 00d1 3F       		.uleb128 0x3f
 11142 00d2 19       		.uleb128 0x19
 11143 00d3 03       		.uleb128 0x3
 11144 00d4 0E       		.uleb128 0xe
 11145 00d5 3A       		.uleb128 0x3a
 11146 00d6 0B       		.uleb128 0xb
ARM GAS  C:\Users\ilya\AppData\Local\Temp\ccAjPEqD.s 			page 237


 11147 00d7 3B       		.uleb128 0x3b
 11148 00d8 0B       		.uleb128 0xb
 11149 00d9 27       		.uleb128 0x27
 11150 00da 19       		.uleb128 0x19
 11151 00db 49       		.uleb128 0x49
 11152 00dc 13       		.uleb128 0x13
 11153 00dd 11       		.uleb128 0x11
 11154 00de 01       		.uleb128 0x1
 11155 00df 12       		.uleb128 0x12
 11156 00e0 06       		.uleb128 0x6
 11157 00e1 40       		.uleb128 0x40
 11158 00e2 18       		.uleb128 0x18
 11159 00e3 9742     		.uleb128 0x2117
 11160 00e5 19       		.uleb128 0x19
 11161 00e6 01       		.uleb128 0x1
 11162 00e7 13       		.uleb128 0x13
 11163 00e8 00       		.byte	0
 11164 00e9 00       		.byte	0
 11165 00ea 12       		.uleb128 0x12
 11166 00eb 05       		.uleb128 0x5
 11167 00ec 00       		.byte	0
 11168 00ed 03       		.uleb128 0x3
 11169 00ee 0E       		.uleb128 0xe
 11170 00ef 3A       		.uleb128 0x3a
 11171 00f0 0B       		.uleb128 0xb
 11172 00f1 3B       		.uleb128 0x3b
 11173 00f2 0B       		.uleb128 0xb
 11174 00f3 49       		.uleb128 0x49
 11175 00f4 13       		.uleb128 0x13
 11176 00f5 02       		.uleb128 0x2
 11177 00f6 18       		.uleb128 0x18
 11178 00f7 00       		.byte	0
 11179 00f8 00       		.byte	0
 11180 00f9 13       		.uleb128 0x13
 11181 00fa 34       		.uleb128 0x34
 11182 00fb 00       		.byte	0
 11183 00fc 03       		.uleb128 0x3
 11184 00fd 0E       		.uleb128 0xe
 11185 00fe 3A       		.uleb128 0x3a
 11186 00ff 0B       		.uleb128 0xb
 11187 0100 3B       		.uleb128 0x3b
 11188 0101 0B       		.uleb128 0xb
 11189 0102 49       		.uleb128 0x49
 11190 0103 13       		.uleb128 0x13
 11191 0104 02       		.uleb128 0x2
 11192 0105 18       		.uleb128 0x18
 11193 0106 00       		.byte	0
 11194 0107 00       		.byte	0
 11195 0108 14       		.uleb128 0x14
 11196 0109 2E       		.uleb128 0x2e
 11197 010a 01       		.byte	0x1
 11198 010b 3F       		.uleb128 0x3f
 11199 010c 19       		.uleb128 0x19
 11200 010d 03       		.uleb128 0x3
 11201 010e 0E       		.uleb128 0xe
 11202 010f 3A       		.uleb128 0x3a
 11203 0110 0B       		.uleb128 0xb
ARM GAS  C:\Users\ilya\AppData\Local\Temp\ccAjPEqD.s 			page 238


 11204 0111 3B       		.uleb128 0x3b
 11205 0112 0B       		.uleb128 0xb
 11206 0113 27       		.uleb128 0x27
 11207 0114 19       		.uleb128 0x19
 11208 0115 49       		.uleb128 0x49
 11209 0116 13       		.uleb128 0x13
 11210 0117 11       		.uleb128 0x11
 11211 0118 01       		.uleb128 0x1
 11212 0119 12       		.uleb128 0x12
 11213 011a 06       		.uleb128 0x6
 11214 011b 40       		.uleb128 0x40
 11215 011c 18       		.uleb128 0x18
 11216 011d 9642     		.uleb128 0x2116
 11217 011f 19       		.uleb128 0x19
 11218 0120 01       		.uleb128 0x1
 11219 0121 13       		.uleb128 0x13
 11220 0122 00       		.byte	0
 11221 0123 00       		.byte	0
 11222 0124 15       		.uleb128 0x15
 11223 0125 05       		.uleb128 0x5
 11224 0126 00       		.byte	0
 11225 0127 03       		.uleb128 0x3
 11226 0128 08       		.uleb128 0x8
 11227 0129 3A       		.uleb128 0x3a
 11228 012a 0B       		.uleb128 0xb
 11229 012b 3B       		.uleb128 0x3b
 11230 012c 0B       		.uleb128 0xb
 11231 012d 49       		.uleb128 0x49
 11232 012e 13       		.uleb128 0x13
 11233 012f 02       		.uleb128 0x2
 11234 0130 18       		.uleb128 0x18
 11235 0131 00       		.byte	0
 11236 0132 00       		.byte	0
 11237 0133 16       		.uleb128 0x16
 11238 0134 34       		.uleb128 0x34
 11239 0135 00       		.byte	0
 11240 0136 03       		.uleb128 0x3
 11241 0137 08       		.uleb128 0x8
 11242 0138 3A       		.uleb128 0x3a
 11243 0139 0B       		.uleb128 0xb
 11244 013a 3B       		.uleb128 0x3b
 11245 013b 0B       		.uleb128 0xb
 11246 013c 49       		.uleb128 0x49
 11247 013d 13       		.uleb128 0x13
 11248 013e 02       		.uleb128 0x2
 11249 013f 18       		.uleb128 0x18
 11250 0140 00       		.byte	0
 11251 0141 00       		.byte	0
 11252 0142 17       		.uleb128 0x17
 11253 0143 2E       		.uleb128 0x2e
 11254 0144 01       		.byte	0x1
 11255 0145 3F       		.uleb128 0x3f
 11256 0146 19       		.uleb128 0x19
 11257 0147 03       		.uleb128 0x3
 11258 0148 0E       		.uleb128 0xe
 11259 0149 3A       		.uleb128 0x3a
 11260 014a 0B       		.uleb128 0xb
ARM GAS  C:\Users\ilya\AppData\Local\Temp\ccAjPEqD.s 			page 239


 11261 014b 3B       		.uleb128 0x3b
 11262 014c 05       		.uleb128 0x5
 11263 014d 27       		.uleb128 0x27
 11264 014e 19       		.uleb128 0x19
 11265 014f 49       		.uleb128 0x49
 11266 0150 13       		.uleb128 0x13
 11267 0151 11       		.uleb128 0x11
 11268 0152 01       		.uleb128 0x1
 11269 0153 12       		.uleb128 0x12
 11270 0154 06       		.uleb128 0x6
 11271 0155 40       		.uleb128 0x40
 11272 0156 18       		.uleb128 0x18
 11273 0157 9742     		.uleb128 0x2117
 11274 0159 19       		.uleb128 0x19
 11275 015a 01       		.uleb128 0x1
 11276 015b 13       		.uleb128 0x13
 11277 015c 00       		.byte	0
 11278 015d 00       		.byte	0
 11279 015e 18       		.uleb128 0x18
 11280 015f 05       		.uleb128 0x5
 11281 0160 00       		.byte	0
 11282 0161 03       		.uleb128 0x3
 11283 0162 08       		.uleb128 0x8
 11284 0163 3A       		.uleb128 0x3a
 11285 0164 0B       		.uleb128 0xb
 11286 0165 3B       		.uleb128 0x3b
 11287 0166 05       		.uleb128 0x5
 11288 0167 49       		.uleb128 0x49
 11289 0168 13       		.uleb128 0x13
 11290 0169 02       		.uleb128 0x2
 11291 016a 18       		.uleb128 0x18
 11292 016b 00       		.byte	0
 11293 016c 00       		.byte	0
 11294 016d 19       		.uleb128 0x19
 11295 016e 05       		.uleb128 0x5
 11296 016f 00       		.byte	0
 11297 0170 03       		.uleb128 0x3
 11298 0171 0E       		.uleb128 0xe
 11299 0172 3A       		.uleb128 0x3a
 11300 0173 0B       		.uleb128 0xb
 11301 0174 3B       		.uleb128 0x3b
 11302 0175 05       		.uleb128 0x5
 11303 0176 49       		.uleb128 0x49
 11304 0177 13       		.uleb128 0x13
 11305 0178 02       		.uleb128 0x2
 11306 0179 18       		.uleb128 0x18
 11307 017a 00       		.byte	0
 11308 017b 00       		.byte	0
 11309 017c 1A       		.uleb128 0x1a
 11310 017d 34       		.uleb128 0x34
 11311 017e 00       		.byte	0
 11312 017f 03       		.uleb128 0x3
 11313 0180 0E       		.uleb128 0xe
 11314 0181 3A       		.uleb128 0x3a
 11315 0182 0B       		.uleb128 0xb
 11316 0183 3B       		.uleb128 0x3b
 11317 0184 05       		.uleb128 0x5
ARM GAS  C:\Users\ilya\AppData\Local\Temp\ccAjPEqD.s 			page 240


 11318 0185 49       		.uleb128 0x49
 11319 0186 13       		.uleb128 0x13
 11320 0187 02       		.uleb128 0x2
 11321 0188 18       		.uleb128 0x18
 11322 0189 00       		.byte	0
 11323 018a 00       		.byte	0
 11324 018b 1B       		.uleb128 0x1b
 11325 018c 2E       		.uleb128 0x2e
 11326 018d 01       		.byte	0x1
 11327 018e 3F       		.uleb128 0x3f
 11328 018f 19       		.uleb128 0x19
 11329 0190 03       		.uleb128 0x3
 11330 0191 0E       		.uleb128 0xe
 11331 0192 3A       		.uleb128 0x3a
 11332 0193 0B       		.uleb128 0xb
 11333 0194 3B       		.uleb128 0x3b
 11334 0195 05       		.uleb128 0x5
 11335 0196 27       		.uleb128 0x27
 11336 0197 19       		.uleb128 0x19
 11337 0198 49       		.uleb128 0x49
 11338 0199 13       		.uleb128 0x13
 11339 019a 11       		.uleb128 0x11
 11340 019b 01       		.uleb128 0x1
 11341 019c 12       		.uleb128 0x12
 11342 019d 06       		.uleb128 0x6
 11343 019e 40       		.uleb128 0x40
 11344 019f 18       		.uleb128 0x18
 11345 01a0 9642     		.uleb128 0x2116
 11346 01a2 19       		.uleb128 0x19
 11347 01a3 01       		.uleb128 0x1
 11348 01a4 13       		.uleb128 0x13
 11349 01a5 00       		.byte	0
 11350 01a6 00       		.byte	0
 11351 01a7 1C       		.uleb128 0x1c
 11352 01a8 34       		.uleb128 0x34
 11353 01a9 00       		.byte	0
 11354 01aa 03       		.uleb128 0x3
 11355 01ab 08       		.uleb128 0x8
 11356 01ac 3A       		.uleb128 0x3a
 11357 01ad 0B       		.uleb128 0xb
 11358 01ae 3B       		.uleb128 0x3b
 11359 01af 05       		.uleb128 0x5
 11360 01b0 49       		.uleb128 0x49
 11361 01b1 13       		.uleb128 0x13
 11362 01b2 02       		.uleb128 0x2
 11363 01b3 18       		.uleb128 0x18
 11364 01b4 00       		.byte	0
 11365 01b5 00       		.byte	0
 11366 01b6 1D       		.uleb128 0x1d
 11367 01b7 26       		.uleb128 0x26
 11368 01b8 00       		.byte	0
 11369 01b9 49       		.uleb128 0x49
 11370 01ba 13       		.uleb128 0x13
 11371 01bb 00       		.byte	0
 11372 01bc 00       		.byte	0
 11373 01bd 1E       		.uleb128 0x1e
 11374 01be 2E       		.uleb128 0x2e
ARM GAS  C:\Users\ilya\AppData\Local\Temp\ccAjPEqD.s 			page 241


 11375 01bf 01       		.byte	0x1
 11376 01c0 3F       		.uleb128 0x3f
 11377 01c1 19       		.uleb128 0x19
 11378 01c2 03       		.uleb128 0x3
 11379 01c3 0E       		.uleb128 0xe
 11380 01c4 3A       		.uleb128 0x3a
 11381 01c5 0B       		.uleb128 0xb
 11382 01c6 3B       		.uleb128 0x3b
 11383 01c7 05       		.uleb128 0x5
 11384 01c8 27       		.uleb128 0x27
 11385 01c9 19       		.uleb128 0x19
 11386 01ca 49       		.uleb128 0x49
 11387 01cb 13       		.uleb128 0x13
 11388 01cc 11       		.uleb128 0x11
 11389 01cd 01       		.uleb128 0x1
 11390 01ce 12       		.uleb128 0x12
 11391 01cf 06       		.uleb128 0x6
 11392 01d0 40       		.uleb128 0x40
 11393 01d1 18       		.uleb128 0x18
 11394 01d2 9642     		.uleb128 0x2116
 11395 01d4 19       		.uleb128 0x19
 11396 01d5 00       		.byte	0
 11397 01d6 00       		.byte	0
 11398 01d7 00       		.byte	0
 11399              		.section	.debug_aranges,"",%progbits
 11400 0000 DC000000 		.4byte	0xdc
 11401 0004 0200     		.2byte	0x2
 11402 0006 00000000 		.4byte	.Ldebug_info0
 11403 000a 04       		.byte	0x4
 11404 000b 00       		.byte	0
 11405 000c 0000     		.2byte	0
 11406 000e 0000     		.2byte	0
 11407 0010 00000000 		.4byte	.LFB1
 11408 0014 72000000 		.4byte	.LFE1-.LFB1
 11409 0018 00000000 		.4byte	.LFB2
 11410 001c 84000000 		.4byte	.LFE2-.LFB2
 11411 0020 00000000 		.4byte	.LFB3
 11412 0024 32000000 		.4byte	.LFE3-.LFB3
 11413 0028 00000000 		.4byte	.LFB4
 11414 002c 32000000 		.4byte	.LFE4-.LFB4
 11415 0030 00000000 		.4byte	.LFB5
 11416 0034 64000000 		.4byte	.LFE5-.LFB5
 11417 0038 00000000 		.4byte	.LFB6
 11418 003c 4C000000 		.4byte	.LFE6-.LFB6
 11419 0040 00000000 		.4byte	.LFB7
 11420 0044 BC000000 		.4byte	.LFE7-.LFB7
 11421 0048 00000000 		.4byte	.LFB8
 11422 004c A60B0000 		.4byte	.LFE8-.LFB8
 11423 0050 00000000 		.4byte	.LFB9
 11424 0054 38000000 		.4byte	.LFE9-.LFB9
 11425 0058 00000000 		.4byte	.LFB10
 11426 005c 70000000 		.4byte	.LFE10-.LFB10
 11427 0060 00000000 		.4byte	.LFB11
 11428 0064 30000000 		.4byte	.LFE11-.LFB11
 11429 0068 00000000 		.4byte	.LFB12
 11430 006c 5E000000 		.4byte	.LFE12-.LFB12
 11431 0070 00000000 		.4byte	.LFB13
ARM GAS  C:\Users\ilya\AppData\Local\Temp\ccAjPEqD.s 			page 242


 11432 0074 6A000000 		.4byte	.LFE13-.LFB13
 11433 0078 00000000 		.4byte	.LFB14
 11434 007c 62020000 		.4byte	.LFE14-.LFB14
 11435 0080 00000000 		.4byte	.LFB15
 11436 0084 9A020000 		.4byte	.LFE15-.LFB15
 11437 0088 00000000 		.4byte	.LFB16
 11438 008c 66060000 		.4byte	.LFE16-.LFB16
 11439 0090 00000000 		.4byte	.LFB17
 11440 0094 92000000 		.4byte	.LFE17-.LFB17
 11441 0098 00000000 		.4byte	.LFB18
 11442 009c 2C020000 		.4byte	.LFE18-.LFB18
 11443 00a0 00000000 		.4byte	.LFB19
 11444 00a4 B4010000 		.4byte	.LFE19-.LFB19
 11445 00a8 00000000 		.4byte	.LFB20
 11446 00ac 68020000 		.4byte	.LFE20-.LFB20
 11447 00b0 00000000 		.4byte	.LFB21
 11448 00b4 72000000 		.4byte	.LFE21-.LFB21
 11449 00b8 00000000 		.4byte	.LFB22
 11450 00bc 5A000000 		.4byte	.LFE22-.LFB22
 11451 00c0 00000000 		.4byte	.LFB23
 11452 00c4 78020000 		.4byte	.LFE23-.LFB23
 11453 00c8 00000000 		.4byte	.LFB24
 11454 00cc A4050000 		.4byte	.LFE24-.LFB24
 11455 00d0 00000000 		.4byte	.LFB25
 11456 00d4 A0040000 		.4byte	.LFE25-.LFB25
 11457 00d8 00000000 		.4byte	0
 11458 00dc 00000000 		.4byte	0
 11459              		.section	.debug_ranges,"",%progbits
 11460              	.Ldebug_ranges0:
 11461 0000 00000000 		.4byte	.LFB1
 11462 0004 72000000 		.4byte	.LFE1
 11463 0008 00000000 		.4byte	.LFB2
 11464 000c 84000000 		.4byte	.LFE2
 11465 0010 00000000 		.4byte	.LFB3
 11466 0014 32000000 		.4byte	.LFE3
 11467 0018 00000000 		.4byte	.LFB4
 11468 001c 32000000 		.4byte	.LFE4
 11469 0020 00000000 		.4byte	.LFB5
 11470 0024 64000000 		.4byte	.LFE5
 11471 0028 00000000 		.4byte	.LFB6
 11472 002c 4C000000 		.4byte	.LFE6
 11473 0030 00000000 		.4byte	.LFB7
 11474 0034 BC000000 		.4byte	.LFE7
 11475 0038 00000000 		.4byte	.LFB8
 11476 003c A60B0000 		.4byte	.LFE8
 11477 0040 00000000 		.4byte	.LFB9
 11478 0044 38000000 		.4byte	.LFE9
 11479 0048 00000000 		.4byte	.LFB10
 11480 004c 70000000 		.4byte	.LFE10
 11481 0050 00000000 		.4byte	.LFB11
 11482 0054 30000000 		.4byte	.LFE11
 11483 0058 00000000 		.4byte	.LFB12
 11484 005c 5E000000 		.4byte	.LFE12
 11485 0060 00000000 		.4byte	.LFB13
 11486 0064 6A000000 		.4byte	.LFE13
 11487 0068 00000000 		.4byte	.LFB14
 11488 006c 62020000 		.4byte	.LFE14
ARM GAS  C:\Users\ilya\AppData\Local\Temp\ccAjPEqD.s 			page 243


 11489 0070 00000000 		.4byte	.LFB15
 11490 0074 9A020000 		.4byte	.LFE15
 11491 0078 00000000 		.4byte	.LFB16
 11492 007c 66060000 		.4byte	.LFE16
 11493 0080 00000000 		.4byte	.LFB17
 11494 0084 92000000 		.4byte	.LFE17
 11495 0088 00000000 		.4byte	.LFB18
 11496 008c 2C020000 		.4byte	.LFE18
 11497 0090 00000000 		.4byte	.LFB19
 11498 0094 B4010000 		.4byte	.LFE19
 11499 0098 00000000 		.4byte	.LFB20
 11500 009c 68020000 		.4byte	.LFE20
 11501 00a0 00000000 		.4byte	.LFB21
 11502 00a4 72000000 		.4byte	.LFE21
 11503 00a8 00000000 		.4byte	.LFB22
 11504 00ac 5A000000 		.4byte	.LFE22
 11505 00b0 00000000 		.4byte	.LFB23
 11506 00b4 78020000 		.4byte	.LFE23
 11507 00b8 00000000 		.4byte	.LFB24
 11508 00bc A4050000 		.4byte	.LFE24
 11509 00c0 00000000 		.4byte	.LFB25
 11510 00c4 A0040000 		.4byte	.LFE25
 11511 00c8 00000000 		.4byte	0
 11512 00cc 00000000 		.4byte	0
 11513              		.section	.debug_line,"",%progbits
 11514              	.Ldebug_line0:
 11515 0000 3E080000 		.section	.debug_str,"MS",%progbits,1
 11515      0200A301 
 11515      00000201 
 11515      FB0E0D00 
 11515      01010101 
 11516              	.LASF168:
 11517 0000 6D735F62 		.ascii	"ms_byte\000"
 11517      79746500 
 11518              	.LASF182:
 11519 0008 50726552 		.ascii	"PreRangeEncodedTimeOut\000"
 11519      616E6765 
 11519      456E636F 
 11519      64656454 
 11519      696D654F 
 11520              	.LASF141:
 11521 001f 76637365 		.ascii	"vcsel_period_reg\000"
 11521      6C5F7065 
 11521      72696F64 
 11521      5F726567 
 11521      00
 11522              	.LASF305:
 11523 0030 44657669 		.ascii	"DeviceRangeStatus\000"
 11523      63655261 
 11523      6E676553 
 11523      74617475 
 11523      7300
 11524              	.LASF147:
 11525 0042 7374726F 		.ascii	"strobe\000"
 11525      626500
 11526              	.LASF172:
 11527 0049 6D616372 		.ascii	"macro_period_ns\000"
ARM GAS  C:\Users\ilya\AppData\Local\Temp\ccAjPEqD.s 			page 244


 11527      6F5F7065 
 11527      72696F64 
 11527      5F6E7300 
 11528              	.LASF325:
 11529 0059 4170695C 		.ascii	"Api\\core\\src\\vl53l0x_api_core.c\000"
 11529      636F7265 
 11529      5C737263 
 11529      5C766C35 
 11529      336C3078 
 11530              	.LASF54:
 11531 0079 5369676E 		.ascii	"SignalRateRtnMegaCps\000"
 11531      616C5261 
 11531      74655274 
 11531      6E4D6567 
 11531      61437073 
 11532              	.LASF89:
 11533 008e 50617274 		.ascii	"PartUIDLower\000"
 11533      5549444C 
 11533      6F776572 
 11533      00
 11534              	.LASF128:
 11535 009b 564C3533 		.ascii	"VL53L0X_DEV\000"
 11535      4C30585F 
 11535      44455600 
 11536              	.LASF34:
 11537 00a7 48697374 		.ascii	"HistogramMode\000"
 11537      6F677261 
 11537      6D4D6F64 
 11537      6500
 11538              	.LASF186:
 11539 00b5 46696E61 		.ascii	"FinalRangeEncodedTimeOut\000"
 11539      6C52616E 
 11539      6765456E 
 11539      636F6465 
 11539      6454696D 
 11540              	.LASF188:
 11541 00ce 7365745F 		.ascii	"set_sequence_step_timeout\000"
 11541      73657175 
 11541      656E6365 
 11541      5F737465 
 11541      705F7469 
 11542              	.LASF260:
 11543 00e8 646D6178 		.ascii	"dmaxAmbient\000"
 11543      416D6269 
 11543      656E7400 
 11544              	.LASF37:
 11545 00f4 5854616C 		.ascii	"XTalkCompensationEnable\000"
 11545      6B436F6D 
 11545      70656E73 
 11545      6174696F 
 11545      6E456E61 
 11546              	.LASF286:
 11547 010c 7854616C 		.ascii	"xTalkCorrection\000"
 11547      6B436F72 
 11547      72656374 
 11547      696F6E00 
 11548              	.LASF77:
ARM GAS  C:\Users\ilya\AppData\Local\Temp\ccAjPEqD.s 			page 245


 11549 011c 50726552 		.ascii	"PreRangeVcselPulsePeriod\000"
 11549      616E6765 
 11549      56637365 
 11549      6C50756C 
 11549      73655065 
 11550              	.LASF234:
 11551 0135 70746F74 		.ascii	"ptotal_signal_rate_mcps\000"
 11551      616C5F73 
 11551      69676E61 
 11551      6C5F7261 
 11551      74655F6D 
 11552              	.LASF209:
 11553 014d 456E644F 		.ascii	"EndOverheadMicroSeconds\000"
 11553      76657268 
 11553      6561644D 
 11553      6963726F 
 11553      5365636F 
 11554              	.LASF250:
 11555 0165 6D696E53 		.ascii	"minSignalNeeded\000"
 11555      69676E61 
 11555      6C4E6565 
 11555      64656400 
 11556              	.LASF311:
 11557 0175 52616E67 		.ascii	"RangeIgnoreThresholdflag\000"
 11557      6549676E 
 11557      6F726554 
 11557      68726573 
 11557      686F6C64 
 11558              	.LASF15:
 11559 018e 756E7369 		.ascii	"unsigned int\000"
 11559      676E6564 
 11559      20696E74 
 11559      00
 11560              	.LASF38:
 11561 019b 5854616C 		.ascii	"XTalkCompensationRangeMilliMeter\000"
 11561      6B436F6D 
 11561      70656E73 
 11561      6174696F 
 11561      6E52616E 
 11562              	.LASF304:
 11563 01bc 70726552 		.ascii	"preRangeVcselPCLKS\000"
 11563      616E6765 
 11563      56637365 
 11563      6C50434C 
 11563      4B5300
 11564              	.LASF131:
 11565 01cf 53746174 		.ascii	"Status\000"
 11565      757300
 11566              	.LASF219:
 11567 01d6 564C3533 		.ascii	"VL53L0X_load_tuning_settings\000"
 11567      4C30585F 
 11567      6C6F6164 
 11567      5F74756E 
 11567      696E675F 
 11568              	.LASF32:
 11569 01f3 564C3533 		.ascii	"VL53L0X_PowerModes\000"
 11569      4C30585F 
ARM GAS  C:\Users\ilya\AppData\Local\Temp\ccAjPEqD.s 			page 246


 11569      506F7765 
 11569      724D6F64 
 11569      657300
 11570              	.LASF84:
 11571 0206 50726F64 		.ascii	"ProductId\000"
 11571      75637449 
 11571      6400
 11572              	.LASF41:
 11573 0210 4C696D69 		.ascii	"LimitChecksEnable\000"
 11573      74436865 
 11573      636B7345 
 11573      6E61626C 
 11573      6500
 11574              	.LASF66:
 11575 0222 4572726F 		.ascii	"ErrorStatus\000"
 11575      72537461 
 11575      74757300 
 11576              	.LASF55:
 11577 022e 416D6269 		.ascii	"AmbientRateRtnMegaCps\000"
 11577      656E7452 
 11577      61746552 
 11577      746E4D65 
 11577      67614370 
 11578              	.LASF8:
 11579 0244 5F5F696E 		.ascii	"__int32_t\000"
 11579      7433325F 
 11579      7400
 11580              	.LASF230:
 11581 024e 7874616C 		.ascii	"xtalkCompEnable\000"
 11581      6B436F6D 
 11581      70456E61 
 11581      626C6500 
 11582              	.LASF324:
 11583 025e 474E5520 		.ascii	"GNU C11 5.4.1 20160609 (release) [ARM/embedded-5-br"
 11583      43313120 
 11583      352E342E 
 11583      31203230 
 11583      31363036 
 11584 0291 616E6368 		.ascii	"anch revision 237715] -mcpu=cortex-m0 -mthumb -g -O"
 11584      20726576 
 11584      6973696F 
 11584      6E203233 
 11584      37373135 
 11585 02c4 30202D66 		.ascii	"0 -ffunction-sections -ffat-lto-objects\000"
 11585      66756E63 
 11585      74696F6E 
 11585      2D736563 
 11585      74696F6E 
 11586              	.LASF192:
 11587 02ec 564C3533 		.ascii	"VL53L0X_set_vcsel_pulse_period\000"
 11587      4C30585F 
 11587      7365745F 
 11587      76637365 
 11587      6C5F7075 
 11588              	.LASF176:
 11589 030b 6765745F 		.ascii	"get_sequence_step_timeout\000"
 11589      73657175 
ARM GAS  C:\Users\ilya\AppData\Local\Temp\ccAjPEqD.s 			page 247


 11589      656E6365 
 11589      5F737465 
 11589      705F7469 
 11590              	.LASF136:
 11591 0325 564C3533 		.ascii	"VL53L0X_reverse_bytes\000"
 11591      4C30585F 
 11591      72657665 
 11591      7273655F 
 11591      62797465 
 11592              	.LASF314:
 11593 033b 5369676E 		.ascii	"SignalRefClipLimitCheckEnable\000"
 11593      616C5265 
 11593      66436C69 
 11593      704C696D 
 11593      69744368 
 11594              	.LASF236:
 11595 0359 746F7461 		.ascii	"totalSignalRate_mcps\000"
 11595      6C536967 
 11595      6E616C52 
 11595      6174655F 
 11595      6D637073 
 11596              	.LASF161:
 11597 036e 504C4C5F 		.ascii	"PLL_period_ps\000"
 11597      70657269 
 11597      6F645F70 
 11597      7300
 11598              	.LASF166:
 11599 037c 656E636F 		.ascii	"encoded_timeout\000"
 11599      6465645F 
 11599      74696D65 
 11599      6F757400 
 11600              	.LASF181:
 11601 038c 54696D65 		.ascii	"TimeoutMicroSeconds\000"
 11601      6F75744D 
 11601      6963726F 
 11601      5365636F 
 11601      6E647300 
 11602              	.LASF127:
 11603 03a0 564C3533 		.ascii	"VL53L0X_Dev_t\000"
 11603      4C30585F 
 11603      4465765F 
 11603      7400
 11604              	.LASF257:
 11605 03ae 7369676E 		.ascii	"signalLimitTmp\000"
 11605      616C4C69 
 11605      6D697454 
 11605      6D7000
 11606              	.LASF303:
 11607 03bd 66696E61 		.ascii	"finalRangeVcselPCLKS\000"
 11607      6C52616E 
 11607      67655663 
 11607      73656C50 
 11607      434C4B53 
 11608              	.LASF44:
 11609 03d2 57726170 		.ascii	"WrapAroundCheckEnable\000"
 11609      41726F75 
 11609      6E644368 
ARM GAS  C:\Users\ilya\AppData\Local\Temp\ccAjPEqD.s 			page 248


 11609      65636B45 
 11609      6E61626C 
 11610              	.LASF103:
 11611 03e8 506F7765 		.ascii	"PowerMode\000"
 11611      724D6F64 
 11611      6500
 11612              	.LASF163:
 11613 03f2 6D616372 		.ascii	"macro_period_ps\000"
 11613      6F5F7065 
 11613      72696F64 
 11613      5F707300 
 11614              	.LASF42:
 11615 0402 4C696D69 		.ascii	"LimitChecksStatus\000"
 11615      74436865 
 11615      636B7353 
 11615      74617475 
 11615      7300
 11616              	.LASF268:
 11617 0414 63416D62 		.ascii	"cAmbientEffectiveWidth_centi_ns\000"
 11617      69656E74 
 11617      45666665 
 11617      63746976 
 11617      65576964 
 11618              	.LASF53:
 11619 0434 52616E67 		.ascii	"RangeDMaxMilliMeter\000"
 11619      65444D61 
 11619      784D696C 
 11619      6C694D65 
 11619      74657200 
 11620              	.LASF293:
 11621 0448 73717231 		.ascii	"sqr1\000"
 11621      00
 11622              	.LASF294:
 11623 044d 73717232 		.ascii	"sqr2\000"
 11623      00
 11624              	.LASF83:
 11625 0452 52657669 		.ascii	"Revision\000"
 11625      73696F6E 
 11625      00
 11626              	.LASF156:
 11627 045b 5369676E 		.ascii	"SignalRateMeasFixed1104_400_mm\000"
 11627      616C5261 
 11627      74654D65 
 11627      61734669 
 11627      78656431 
 11628              	.LASF93:
 11629 047a 50617274 		.ascii	"Part2PartOffsetNVMMicroMeter\000"
 11629      32506172 
 11629      744F6666 
 11629      7365744E 
 11629      564D4D69 
 11630              	.LASF162:
 11631 0497 6D616372 		.ascii	"macro_period_vclks\000"
 11631      6F5F7065 
 11631      72696F64 
 11631      5F76636C 
 11631      6B7300
ARM GAS  C:\Users\ilya\AppData\Local\Temp\ccAjPEqD.s 			page 249


 11632              	.LASF173:
 11633 04aa 74696D65 		.ascii	"timeout_period_mclks\000"
 11633      6F75745F 
 11633      70657269 
 11633      6F645F6D 
 11633      636C6B73 
 11634              	.LASF239:
 11635 04bf 7369676D 		.ascii	"sigmaEstimateP1\000"
 11635      61457374 
 11635      696D6174 
 11635      65503100 
 11636              	.LASF240:
 11637 04cf 7369676D 		.ascii	"sigmaEstimateP2\000"
 11637      61457374 
 11637      696D6174 
 11637      65503200 
 11638              	.LASF282:
 11639 04df 7369676D 		.ascii	"sigmaEstimateP3\000"
 11639      61457374 
 11639      696D6174 
 11639      65503300 
 11640              	.LASF24:
 11641 04ef 46697850 		.ascii	"FixPoint1616_t\000"
 11641      6F696E74 
 11641      31363136 
 11641      5F7400
 11642              	.LASF91:
 11643 04fe 564C3533 		.ascii	"VL53L0X_DeviceSpecificParameters_t\000"
 11643      4C30585F 
 11643      44657669 
 11643      63655370 
 11643      65636966 
 11644              	.LASF21:
 11645 0521 75696E74 		.ascii	"uint32_t\000"
 11645      33325F74 
 11645      00
 11646              	.LASF16:
 11647 052a 696E7438 		.ascii	"int8_t\000"
 11647      5F7400
 11648              	.LASF267:
 11649 0531 6350756C 		.ascii	"cPulseEffectiveWidth_centi_ns\000"
 11649      73654566 
 11649      66656374 
 11649      69766557 
 11649      69647468 
 11650              	.LASF203:
 11651 054f 564C3533 		.ascii	"VL53L0X_get_vcsel_pulse_period\000"
 11651      4C30585F 
 11651      6765745F 
 11651      76637365 
 11651      6C5F7075 
 11652              	.LASF138:
 11653 056e 4E657744 		.ascii	"NewDataReady\000"
 11653      61746152 
 11653      65616479 
 11653      00
 11654              	.LASF62:
ARM GAS  C:\Users\ilya\AppData\Local\Temp\ccAjPEqD.s 			page 250


 11655 057b 48697374 		.ascii	"HistogramType\000"
 11655      6F677261 
 11655      6D547970 
 11655      6500
 11656              	.LASF197:
 11657 0589 4D696E46 		.ascii	"MinFinalVcselPeriodPCLK\000"
 11657      696E616C 
 11657      56637365 
 11657      6C506572 
 11657      696F6450 
 11658              	.LASF326:
 11659 05a1 433A5C70 		.ascii	"C:\\psoc\\chamonix\\fixed\\Fixed\\fixed.cydsn\000"
 11659      736F635C 
 11659      6368616D 
 11659      6F6E6978 
 11659      5C666978 
 11660              	.LASF274:
 11661 05ca 63544F46 		.ascii	"cTOF_per_mm_ps\000"
 11661      5F706572 
 11661      5F6D6D5F 
 11661      707300
 11662              	.LASF170:
 11663 05d9 564C3533 		.ascii	"VL53L0X_calc_timeout_mclks\000"
 11663      4C30585F 
 11663      63616C63 
 11663      5F74696D 
 11663      656F7574 
 11664              	.LASF45:
 11665 05f4 564C3533 		.ascii	"VL53L0X_DeviceParameters_t\000"
 11665      4C30585F 
 11665      44657669 
 11665      63655061 
 11665      72616D65 
 11666              	.LASF135:
 11667 060f 696E6465 		.ascii	"index\000"
 11667      7800
 11668              	.LASF25:
 11669 0615 564C3533 		.ascii	"VL53L0X_DeviceError\000"
 11669      4C30585F 
 11669      44657669 
 11669      63654572 
 11669      726F7200 
 11670              	.LASF105:
 11671 0629 74617267 		.ascii	"targetRefRate\000"
 11671      65745265 
 11671      66526174 
 11671      6500
 11672              	.LASF266:
 11673 0637 70446D61 		.ascii	"pDmax_mm\000"
 11673      785F6D6D 
 11673      00
 11674              	.LASF18:
 11675 0640 696E7431 		.ascii	"int16_t\000"
 11675      365F7400 
 11676              	.LASF132:
 11677 0648 74656D70 		.ascii	"tempData\000"
 11677      44617461 
ARM GAS  C:\Users\ilya\AppData\Local\Temp\ccAjPEqD.s 			page 251


 11677      00
 11678              	.LASF94:
 11679 0651 50617274 		.ascii	"Part2PartOffsetAdjustmentNVMMicroMeter\000"
 11679      32506172 
 11679      744F6666 
 11679      73657441 
 11679      646A7573 
 11680              	.LASF14:
 11681 0678 6C6F6E67 		.ascii	"long long unsigned int\000"
 11681      206C6F6E 
 11681      6720756E 
 11681      7369676E 
 11681      65642069 
 11682              	.LASF47:
 11683 068f 416D6254 		.ascii	"AmbTuningWindowFactor_K\000"
 11683      756E696E 
 11683      6757696E 
 11683      646F7746 
 11683      6163746F 
 11684              	.LASF279:
 11685 06a7 66696E61 		.ascii	"finalRangeTimeoutMicroSecs\000"
 11685      6C52616E 
 11685      67655469 
 11685      6D656F75 
 11685      744D6963 
 11686              	.LASF222:
 11687 06c2 53656C65 		.ascii	"SelectParam\000"
 11687      63745061 
 11687      72616D00 
 11688              	.LASF211:
 11689 06ce 5463634F 		.ascii	"TccOverheadMicroSeconds\000"
 11689      76657268 
 11689      6561644D 
 11689      6963726F 
 11689      5365636F 
 11690              	.LASF242:
 11691 06e6 70646D61 		.ascii	"pdmax_mm\000"
 11691      785F6D6D 
 11691      00
 11692              	.LASF71:
 11693 06ef 4F736346 		.ascii	"OscFrequencyMHz\000"
 11693      72657175 
 11693      656E6379 
 11693      4D487A00 
 11694              	.LASF6:
 11695 06ff 5F5F7569 		.ascii	"__uint16_t\000"
 11695      6E743136 
 11695      5F7400
 11696              	.LASF177:
 11697 070a 53657175 		.ascii	"SequenceStepId\000"
 11697      656E6365 
 11697      53746570 
 11697      496400
 11698              	.LASF158:
 11699 0719 5369676E 		.ascii	"SignalRateMeasFixed400mmFix\000"
 11699      616C5261 
 11699      74654D65 
ARM GAS  C:\Users\ilya\AppData\Local\Temp\ccAjPEqD.s 			page 252


 11699      61734669 
 11699      78656434 
 11700              	.LASF171:
 11701 0735 74696D65 		.ascii	"timeout_period_us\000"
 11701      6F75745F 
 11701      70657269 
 11701      6F645F75 
 11701      7300
 11702              	.LASF247:
 11703 0747 63416D62 		.ascii	"cAmbEffWidthDMax_ns\000"
 11703      45666657 
 11703      69647468 
 11703      444D6178 
 11703      5F6E7300 
 11704              	.LASF68:
 11705 075b 52656653 		.ascii	"RefSpadEnables\000"
 11705      70616445 
 11705      6E61626C 
 11705      657300
 11706              	.LASF110:
 11707 076a 55736549 		.ascii	"UseInternalTuningSettings\000"
 11707      6E746572 
 11707      6E616C54 
 11707      756E696E 
 11707      67536574 
 11708              	.LASF133:
 11709 0784 6D697272 		.ascii	"mirrorIndex\000"
 11709      6F72496E 
 11709      64657800 
 11710              	.LASF111:
 11711 0790 4C696E65 		.ascii	"LinearityCorrectiveGain\000"
 11711      61726974 
 11711      79436F72 
 11711      72656374 
 11711      69766547 
 11712              	.LASF190:
 11713 07a8 4D737263 		.ascii	"MsrcEncodedTimeOut\000"
 11713      456E636F 
 11713      64656454 
 11713      696D654F 
 11713      757400
 11714              	.LASF56:
 11715 07bb 45666665 		.ascii	"EffectiveSpadRtnCount\000"
 11715      63746976 
 11715      65537061 
 11715      6452746E 
 11715      436F756E 
 11716              	.LASF175:
 11717 07d1 61637475 		.ascii	"actual_timeout_period_us\000"
 11717      616C5F74 
 11717      696D656F 
 11717      75745F70 
 11717      6572696F 
 11718              	.LASF154:
 11719 07ea 44697374 		.ascii	"DistMeasTgtFixed1104_mm\000"
 11719      4D656173 
 11719      54677446 
ARM GAS  C:\Users\ilya\AppData\Local\Temp\ccAjPEqD.s 			page 253


 11719      69786564 
 11719      31313034 
 11720              	.LASF99:
 11721 0802 53706164 		.ascii	"SpadData\000"
 11721      44617461 
 11721      00
 11722              	.LASF36:
 11723 080b 496E7465 		.ascii	"InterMeasurementPeriodMilliSeconds\000"
 11723      724D6561 
 11723      73757265 
 11723      6D656E74 
 11723      50657269 
 11724              	.LASF85:
 11725 082e 52656665 		.ascii	"ReferenceSpadCount\000"
 11725      72656E63 
 11725      65537061 
 11725      64436F75 
 11725      6E7400
 11726              	.LASF152:
 11727 0841 4F666673 		.ascii	"OffsetFixed1104_mm\000"
 11727      65744669 
 11727      78656431 
 11727      3130345F 
 11727      6D6D00
 11728              	.LASF82:
 11729 0854 4D6F6475 		.ascii	"ModuleId\000"
 11729      6C654964 
 11729      00
 11730              	.LASF61:
 11731 085d 48697374 		.ascii	"HistogramData\000"
 11731      6F677261 
 11731      6D446174 
 11731      6100
 11732              	.LASF43:
 11733 086b 4C696D69 		.ascii	"LimitChecksValue\000"
 11733      74436865 
 11733      636B7356 
 11733      616C7565 
 11733      00
 11734              	.LASF306:
 11735 087c 5369676E 		.ascii	"SignalRate\000"
 11735      616C5261 
 11735      746500
 11736              	.LASF271:
 11737 0887 63536967 		.ascii	"cSigmaEstMax\000"
 11737      6D614573 
 11737      744D6178 
 11737      00
 11738              	.LASF126:
 11739 0894 636F6D6D 		.ascii	"comms_speed_khz\000"
 11739      735F7370 
 11739      6565645F 
 11739      6B687A00 
 11740              	.LASF116:
 11741 08a4 5463634F 		.ascii	"TccOn\000"
 11741      6E00
 11742              	.LASF146:
ARM GAS  C:\Users\ilya\AppData\Local\Temp\ccAjPEqD.s 			page 254


 11743 08aa 564C3533 		.ascii	"VL53L0X_device_read_strobe\000"
 11743      4C30585F 
 11743      64657669 
 11743      63655F72 
 11743      6561645F 
 11744              	.LASF13:
 11745 08c5 5F5F7569 		.ascii	"__uint64_t\000"
 11745      6E743634 
 11745      5F7400
 11746              	.LASF307:
 11747 08d0 7050616C 		.ascii	"pPalRangeStatus\000"
 11747      52616E67 
 11747      65537461 
 11747      74757300 
 11748              	.LASF199:
 11749 08e0 46696E61 		.ascii	"FinalRangeTimeoutMicroSeconds\000"
 11749      6C52616E 
 11749      67655469 
 11749      6D656F75 
 11749      744D6963 
 11750              	.LASF164:
 11751 08fe 564C3533 		.ascii	"VL53L0X_encode_timeout\000"
 11751      4C30585F 
 11751      656E636F 
 11751      64655F74 
 11751      696D656F 
 11752              	.LASF40:
 11753 0915 52616E67 		.ascii	"RangeOffsetMicroMeters\000"
 11753      654F6666 
 11753      7365744D 
 11753      6963726F 
 11753      4D657465 
 11754              	.LASF112:
 11755 092c 446D6178 		.ascii	"DmaxCalRangeMilliMeter\000"
 11755      43616C52 
 11755      616E6765 
 11755      4D696C6C 
 11755      694D6574 
 11756              	.LASF297:
 11757 0943 73717274 		.ascii	"sqrtResult\000"
 11757      52657375 
 11757      6C7400
 11758              	.LASF221:
 11759 094e 496E6465 		.ascii	"Index\000"
 11759      7800
 11760              	.LASF179:
 11761 0954 43757272 		.ascii	"CurrentVCSELPulsePeriodPClk\000"
 11761      656E7456 
 11761      4353454C 
 11761      50756C73 
 11761      65506572 
 11762              	.LASF79:
 11763 0970 5369676D 		.ascii	"SigmaEstEffPulseWidth\000"
 11763      61457374 
 11763      45666650 
 11763      756C7365 
 11763      57696474 
ARM GAS  C:\Users\ilya\AppData\Local\Temp\ccAjPEqD.s 			page 255


 11764              	.LASF280:
 11765 0986 70726552 		.ascii	"preRangeTimeoutMicroSecs\000"
 11765      616E6765 
 11765      54696D65 
 11765      6F75744D 
 11765      6963726F 
 11766              	.LASF316:
 11767 099f 5369676D 		.ascii	"SigmaLimitValue\000"
 11767      614C696D 
 11767      69745661 
 11767      6C756500 
 11768              	.LASF289:
 11769 09af 7854616C 		.ascii	"xTalkCompRate_mcps\000"
 11769      6B436F6D 
 11769      70526174 
 11769      655F6D63 
 11769      707300
 11770              	.LASF212:
 11771 09c2 4473734F 		.ascii	"DssOverheadMicroSeconds\000"
 11771      76657268 
 11771      6561644D 
 11771      6963726F 
 11771      5365636F 
 11772              	.LASF104:
 11773 09da 53746F70 		.ascii	"StopVariable\000"
 11773      56617269 
 11773      61626C65 
 11773      00
 11774              	.LASF92:
 11775 09e7 444D6178 		.ascii	"DMaxData\000"
 11775      44617461 
 11775      00
 11776              	.LASF51:
 11777 09f0 4D656173 		.ascii	"MeasurementTimeUsec\000"
 11777      7572656D 
 11777      656E7454 
 11777      696D6555 
 11777      73656300 
 11778              	.LASF159:
 11779 0a04 4E766D52 		.ascii	"NvmRefGoodSpadMap\000"
 11779      6566476F 
 11779      6F645370 
 11779      61644D61 
 11779      7000
 11780              	.LASF28:
 11781 0a16 63686172 		.ascii	"char\000"
 11781      00
 11782              	.LASF214:
 11783 0a1b 46696E61 		.ascii	"FinalRangeOverheadMicroSeconds\000"
 11783      6C52616E 
 11783      67654F76 
 11783      65726865 
 11783      61644D69 
 11784              	.LASF228:
 11785 0a3a 7052616E 		.ascii	"pRangingMeasurementData\000"
 11785      67696E67 
 11785      4D656173 
ARM GAS  C:\Users\ilya\AppData\Local\Temp\ccAjPEqD.s 			page 256


 11785      7572656D 
 11785      656E7444 
 11786              	.LASF81:
 11787 0a52 52656164 		.ascii	"ReadDataFromDeviceDone\000"
 11787      44617461 
 11787      46726F6D 
 11787      44657669 
 11787      6365446F 
 11788              	.LASF35:
 11789 0a69 4D656173 		.ascii	"MeasurementTimingBudgetMicroSeconds\000"
 11789      7572656D 
 11789      656E7454 
 11789      696D696E 
 11789      67427564 
 11790              	.LASF194:
 11791 0a8d 56435345 		.ascii	"VCSELPulsePeriodPCLK\000"
 11791      4C50756C 
 11791      73655065 
 11791      72696F64 
 11791      50434C4B 
 11792              	.LASF273:
 11793 0aa2 63416D62 		.ascii	"cAmbToSignalRatioMax\000"
 11793      546F5369 
 11793      676E616C 
 11793      52617469 
 11793      6F4D6178 
 11794              	.LASF96:
 11795 0ab7 4C617374 		.ascii	"LastRangeMeasure\000"
 11795      52616E67 
 11795      654D6561 
 11795      73757265 
 11795      00
 11796              	.LASF288:
 11797 0ac8 7065616B 		.ascii	"peakSignalRate_kcps\000"
 11797      5369676E 
 11797      616C5261 
 11797      74655F6B 
 11797      63707300 
 11798              	.LASF207:
 11799 0adc 4D737263 		.ascii	"MsrcDccTccTimeoutMicroSeconds\000"
 11799      44636354 
 11799      63635469 
 11799      6D656F75 
 11799      744D6963 
 11800              	.LASF64:
 11801 0afa 42756666 		.ascii	"BufferSize\000"
 11801      65725369 
 11801      7A6500
 11802              	.LASF167:
 11803 0b05 6C735F62 		.ascii	"ls_byte\000"
 11803      79746500 
 11804              	.LASF129:
 11805 0b0d 64617461 		.ascii	"data\000"
 11805      00
 11806              	.LASF157:
 11807 0b12 50726F64 		.ascii	"ProductId_tmp\000"
 11807      75637449 
ARM GAS  C:\Users\ilya\AppData\Local\Temp\ccAjPEqD.s 			page 257


 11807      645F746D 
 11807      7000
 11808              	.LASF70:
 11809 0b20 564C3533 		.ascii	"VL53L0X_SpadData_t\000"
 11809      4C30585F 
 11809      53706164 
 11809      44617461 
 11809      5F7400
 11810              	.LASF220:
 11811 0b33 7054756E 		.ascii	"pTuningSettingBuffer\000"
 11811      696E6753 
 11811      65747469 
 11811      6E674275 
 11811      66666572 
 11812              	.LASF134:
 11813 0b48 6D696464 		.ascii	"middle\000"
 11813      6C6500
 11814              	.LASF17:
 11815 0b4f 75696E74 		.ascii	"uint8_t\000"
 11815      385F7400 
 11816              	.LASF26:
 11817 0b57 564C3533 		.ascii	"VL53L0X_GpioFunctionality\000"
 11817      4C30585F 
 11817      4770696F 
 11817      46756E63 
 11817      74696F6E 
 11818              	.LASF276:
 11819 0b71 634D6178 		.ascii	"cMaxXTalk_kcps\000"
 11819      5854616C 
 11819      6B5F6B63 
 11819      707300
 11820              	.LASF139:
 11821 0b80 4C6F6F70 		.ascii	"LoopNb\000"
 11821      4E6200
 11822              	.LASF313:
 11823 0b87 5369676E 		.ascii	"SignalRateFinalRangeLimitCheckEnable\000"
 11823      616C5261 
 11823      74654669 
 11823      6E616C52 
 11823      616E6765 
 11824              	.LASF31:
 11825 0bac 564C3533 		.ascii	"VL53L0X_HistogramModes\000"
 11825      4C30585F 
 11825      48697374 
 11825      6F677261 
 11825      6D4D6F64 
 11826              	.LASF317:
 11827 0bc3 5369676E 		.ascii	"SignalRefClipValue\000"
 11827      616C5265 
 11827      66436C69 
 11827      7056616C 
 11827      756500
 11828              	.LASF59:
 11829 0bd6 52616E67 		.ascii	"RangeStatus\000"
 11829      65537461 
 11829      74757300 
 11830              	.LASF63:
ARM GAS  C:\Users\ilya\AppData\Local\Temp\ccAjPEqD.s 			page 258


 11831 0be2 46697273 		.ascii	"FirstBin\000"
 11831      7442696E 
 11831      00
 11832              	.LASF12:
 11833 0beb 6C6F6E67 		.ascii	"long long int\000"
 11833      206C6F6E 
 11833      6720696E 
 11833      7400
 11834              	.LASF196:
 11835 0bf9 4D617850 		.ascii	"MaxPreVcselPeriodPCLK\000"
 11835      72655663 
 11835      73656C50 
 11835      6572696F 
 11835      6450434C 
 11836              	.LASF119:
 11837 0c0f 50726552 		.ascii	"PreRangeOn\000"
 11837      616E6765 
 11837      4F6E00
 11838              	.LASF30:
 11839 0c1a 564C3533 		.ascii	"VL53L0X_DeviceModes\000"
 11839      4C30585F 
 11839      44657669 
 11839      63654D6F 
 11839      64657300 
 11840              	.LASF223:
 11841 0c2e 4E756D62 		.ascii	"NumberOfWrites\000"
 11841      65724F66 
 11841      57726974 
 11841      657300
 11842              	.LASF118:
 11843 0c3d 4473734F 		.ascii	"DssOn\000"
 11843      6E00
 11844              	.LASF87:
 11845 0c43 52656653 		.ascii	"RefSpadsInitialised\000"
 11845      70616473 
 11845      496E6974 
 11845      69616C69 
 11845      73656400 
 11846              	.LASF120:
 11847 0c57 46696E61 		.ascii	"FinalRangeOn\000"
 11847      6C52616E 
 11847      67654F6E 
 11847      00
 11848              	.LASF225:
 11849 0c64 6C6F6361 		.ascii	"localBuffer\000"
 11849      6C427566 
 11849      66657200 
 11850              	.LASF4:
 11851 0c70 5F5F696E 		.ascii	"__int16_t\000"
 11851      7431365F 
 11851      7400
 11852              	.LASF233:
 11853 0c7a 564C3533 		.ascii	"VL53L0X_get_total_signal_rate\000"
 11853      4C30585F 
 11853      6765745F 
 11853      746F7461 
 11853      6C5F7369 
ARM GAS  C:\Users\ilya\AppData\Local\Temp\ccAjPEqD.s 			page 259


 11854              	.LASF256:
 11855 0c98 7369676D 		.ascii	"sigmaEstSqTmp\000"
 11855      61457374 
 11855      5371546D 
 11855      7000
 11856              	.LASF184:
 11857 0ca6 50726552 		.ascii	"PreRangeTimeOutMClks\000"
 11857      616E6765 
 11857      54696D65 
 11857      4F75744D 
 11857      436C6B73 
 11858              	.LASF295:
 11859 0cbb 73717253 		.ascii	"sqrSum\000"
 11859      756D00
 11860              	.LASF269:
 11861 0cc2 6344666C 		.ascii	"cDfltFinalRangeIntegrationTimeMilliSecs\000"
 11861      7446696E 
 11861      616C5261 
 11861      6E676549 
 11861      6E746567 
 11862              	.LASF217:
 11863 0cea 564C3533 		.ascii	"VL53L0X_get_measurement_timing_budget_micro_seconds"
 11863      4C30585F 
 11863      6765745F 
 11863      6D656173 
 11863      7572656D 
 11864 0d1d 00       		.ascii	"\000"
 11865              	.LASF130:
 11866 0d1e 73697A65 		.ascii	"size\000"
 11866      00
 11867              	.LASF48:
 11868 0d23 52657453 		.ascii	"RetSignalAt0mm\000"
 11868      69676E61 
 11868      6C417430 
 11868      6D6D00
 11869              	.LASF312:
 11870 0d32 5369676D 		.ascii	"SigmaLimitCheckEnable\000"
 11870      614C696D 
 11870      69744368 
 11870      65636B45 
 11870      6E61626C 
 11871              	.LASF245:
 11872 0d48 63536967 		.ascii	"cSigmaEstRef\000"
 11872      6D614573 
 11872      74526566 
 11872      00
 11873              	.LASF213:
 11874 0d55 50726552 		.ascii	"PreRangeOverheadMicroSeconds\000"
 11874      616E6765 
 11874      4F766572 
 11874      68656164 
 11874      4D696372 
 11875              	.LASF144:
 11876 0d72 564C3533 		.ascii	"VL53L0X_isqrt\000"
 11876      4C30585F 
 11876      69737172 
 11876      7400
ARM GAS  C:\Users\ilya\AppData\Local\Temp\ccAjPEqD.s 			page 260


 11877              	.LASF322:
 11878 0d80 54656D70 		.ascii	"Temp8\000"
 11878      3800
 11879              	.LASF302:
 11880 0d86 70726552 		.ascii	"preRangeMacroPCLKS\000"
 11880      616E6765 
 11880      4D616372 
 11880      6F50434C 
 11880      4B5300
 11881              	.LASF153:
 11882 0d99 4F666673 		.ascii	"OffsetMicroMeters\000"
 11882      65744D69 
 11882      63726F4D 
 11882      65746572 
 11882      7300
 11883              	.LASF46:
 11884 0dab 564C3533 		.ascii	"VL53L0X_State\000"
 11884      4C30585F 
 11884      53746174 
 11884      6500
 11885              	.LASF216:
 11886 0db9 53756254 		.ascii	"SubTimeout\000"
 11886      696D656F 
 11886      757400
 11887              	.LASF49:
 11888 0dc4 564C3533 		.ascii	"VL53L0X_DMaxData_t\000"
 11888      4C30585F 
 11888      444D6178 
 11888      44617461 
 11888      5F7400
 11889              	.LASF0:
 11890 0dd7 5F5F696E 		.ascii	"__int8_t\000"
 11890      74385F74 
 11890      00
 11891              	.LASF121:
 11892 0de0 564C3533 		.ascii	"VL53L0X_SchedulerSequenceSteps_t\000"
 11892      4C30585F 
 11892      53636865 
 11892      64756C65 
 11892      72536571 
 11893              	.LASF142:
 11894 0e01 76637365 		.ascii	"vcsel_period_pclks\000"
 11894      6C5F7065 
 11894      72696F64 
 11894      5F70636C 
 11894      6B7300
 11895              	.LASF206:
 11896 0e14 46696E61 		.ascii	"FinalRangeTimingBudgetMicroSeconds\000"
 11896      6C52616E 
 11896      67655469 
 11896      6D696E67 
 11896      42756467 
 11897              	.LASF124:
 11898 0e37 49326344 		.ascii	"I2cDevAddr\000"
 11898      65764164 
 11898      647200
 11899              	.LASF33:
ARM GAS  C:\Users\ilya\AppData\Local\Temp\ccAjPEqD.s 			page 261


 11900 0e42 44657669 		.ascii	"DeviceMode\000"
 11900      63654D6F 
 11900      646500
 11901              	.LASF227:
 11902 0e4d 564C3533 		.ascii	"VL53L0X_get_total_xtalk_rate\000"
 11902      4C30585F 
 11902      6765745F 
 11902      746F7461 
 11902      6C5F7874 
 11903              	.LASF39:
 11904 0e6a 5854616C 		.ascii	"XTalkCompensationRateMegaCps\000"
 11904      6B436F6D 
 11904      70656E73 
 11904      6174696F 
 11904      6E526174 
 11905              	.LASF122:
 11906 0e87 564C3533 		.ascii	"VL53L0X_SequenceStepId\000"
 11906      4C30585F 
 11906      53657175 
 11906      656E6365 
 11906      53746570 
 11907              	.LASF23:
 11908 0e9e 6C6F6E67 		.ascii	"long double\000"
 11908      20646F75 
 11908      626C6500 
 11909              	.LASF155:
 11910 0eaa 44697374 		.ascii	"DistMeasFixed1104_400_mm\000"
 11910      4D656173 
 11910      46697865 
 11910      64313130 
 11910      345F3430 
 11911              	.LASF19:
 11912 0ec3 75696E74 		.ascii	"uint16_t\000"
 11912      31365F74 
 11912      00
 11913              	.LASF60:
 11914 0ecc 564C3533 		.ascii	"VL53L0X_RangingMeasurementData_t\000"
 11914      4C30585F 
 11914      52616E67 
 11914      696E674D 
 11914      65617375 
 11915              	.LASF298:
 11916 0eed 636F7272 		.ascii	"correctedSignalRate_mcps\000"
 11916      65637465 
 11916      64536967 
 11916      6E616C52 
 11916      6174655F 
 11917              	.LASF310:
 11918 0f06 5369676E 		.ascii	"SignalRefClipflag\000"
 11918      616C5265 
 11918      66436C69 
 11918      70666C61 
 11918      6700
 11919              	.LASF148:
 11920 0f18 564C3533 		.ascii	"VL53L0X_get_info_from_device\000"
 11920      4C30585F 
 11920      6765745F 
ARM GAS  C:\Users\ilya\AppData\Local\Temp\ccAjPEqD.s 			page 262


 11920      696E666F 
 11920      5F66726F 
 11921              	.LASF100:
 11922 0f35 53657175 		.ascii	"SequenceConfig\000"
 11922      656E6365 
 11922      436F6E66 
 11922      696700
 11923              	.LASF218:
 11924 0f44 704D6561 		.ascii	"pMeasurementTimingBudgetMicroSeconds\000"
 11924      73757265 
 11924      6D656E74 
 11924      54696D69 
 11924      6E674275 
 11925              	.LASF318:
 11926 0f69 52616E67 		.ascii	"RangeIgnoreThresholdValue\000"
 11926      6549676E 
 11926      6F726554 
 11926      68726573 
 11926      686F6C64 
 11927              	.LASF291:
 11928 0f83 64696666 		.ascii	"diff1_mcps\000"
 11928      315F6D63 
 11928      707300
 11929              	.LASF183:
 11930 0f8e 4D737263 		.ascii	"MsrcTimeOutMClks\000"
 11930      54696D65 
 11930      4F75744D 
 11930      436C6B73 
 11930      00
 11931              	.LASF272:
 11932 0f9f 63536967 		.ascii	"cSigmaEstRtnMax\000"
 11932      6D614573 
 11932      7452746E 
 11932      4D617800 
 11933              	.LASF86:
 11934 0faf 52656665 		.ascii	"ReferenceSpadType\000"
 11934      72656E63 
 11934      65537061 
 11934      64547970 
 11934      6500
 11935              	.LASF5:
 11936 0fc1 73686F72 		.ascii	"short int\000"
 11936      7420696E 
 11936      7400
 11937              	.LASF248:
 11938 0fcb 646D6178 		.ascii	"dmaxCalRange_mm\000"
 11938      43616C52 
 11938      616E6765 
 11938      5F6D6D00 
 11939              	.LASF287:
 11940 0fdb 616D6269 		.ascii	"ambientRate_kcps\000"
 11940      656E7452 
 11940      6174655F 
 11940      6B637073 
 11940      00
 11941              	.LASF204:
 11942 0fec 70564353 		.ascii	"pVCSELPulsePeriodPCLK\000"
ARM GAS  C:\Users\ilya\AppData\Local\Temp\ccAjPEqD.s 			page 263


 11942      454C5075 
 11942      6C736550 
 11942      6572696F 
 11942      6450434C 
 11943              	.LASF9:
 11944 1002 6C6F6E67 		.ascii	"long int\000"
 11944      20696E74 
 11944      00
 11945              	.LASF88:
 11946 100b 50617274 		.ascii	"PartUIDUpper\000"
 11946      55494455 
 11946      70706572 
 11946      00
 11947              	.LASF107:
 11948 1018 5369676E 		.ascii	"SignalEstimate\000"
 11948      616C4573 
 11948      74696D61 
 11948      746500
 11949              	.LASF180:
 11950 1027 456E636F 		.ascii	"EncodedTimeOutByte\000"
 11950      64656454 
 11950      696D654F 
 11950      75744279 
 11950      746500
 11951              	.LASF259:
 11952 103a 646D6178 		.ascii	"dmaxDark\000"
 11952      4461726B 
 11952      00
 11953              	.LASF278:
 11954 1043 76637365 		.ascii	"vcselTotalEventsRtn\000"
 11954      6C546F74 
 11954      616C4576 
 11954      656E7473 
 11954      52746E00 
 11955              	.LASF300:
 11956 1057 76637365 		.ascii	"vcselWidth\000"
 11956      6C576964 
 11956      746800
 11957              	.LASF151:
 11958 1062 546D7044 		.ascii	"TmpDWord\000"
 11958      576F7264 
 11958      00
 11959              	.LASF275:
 11960 106b 63313642 		.ascii	"c16BitRoundingParam\000"
 11960      6974526F 
 11960      756E6469 
 11960      6E675061 
 11960      72616D00 
 11961              	.LASF140:
 11962 107f 564C3533 		.ascii	"VL53L0X_decode_vcsel_period\000"
 11962      4C30585F 
 11962      6465636F 
 11962      64655F76 
 11962      6373656C 
 11963              	.LASF149:
 11964 109b 6F707469 		.ascii	"option\000"
 11964      6F6E00
ARM GAS  C:\Users\ilya\AppData\Local\Temp\ccAjPEqD.s 			page 264


 11965              	.LASF108:
 11966 10a2 4C617374 		.ascii	"LastSignalRefMcps\000"
 11966      5369676E 
 11966      616C5265 
 11966      664D6370 
 11966      7300
 11967              	.LASF22:
 11968 10b4 75696E74 		.ascii	"uint64_t\000"
 11968      36345F74 
 11968      00
 11969              	.LASF244:
 11970 10bd 63536967 		.ascii	"cSignalLimit\000"
 11970      6E616C4C 
 11970      696D6974 
 11970      00
 11971              	.LASF74:
 11972 10ca 46696E61 		.ascii	"FinalRangeTimeoutMicroSecs\000"
 11972      6C52616E 
 11972      67655469 
 11972      6D656F75 
 11972      744D6963 
 11973              	.LASF285:
 11974 10e5 7369676D 		.ascii	"sigmaEstimate\000"
 11974      61457374 
 11974      696D6174 
 11974      6500
 11975              	.LASF57:
 11976 10f3 5A6F6E65 		.ascii	"ZoneId\000"
 11976      496400
 11977              	.LASF215:
 11978 10fa 634D696E 		.ascii	"cMinTimingBudgetMicroSeconds\000"
 11978      54696D69 
 11978      6E674275 
 11978      64676574 
 11978      4D696372 
 11979              	.LASF200:
 11980 1117 50726552 		.ascii	"PreRangeTimeoutMicroSeconds\000"
 11980      616E6765 
 11980      54696D65 
 11980      6F75744D 
 11980      6963726F 
 11981              	.LASF246:
 11982 1133 63416D62 		.ascii	"cAmbEffWidthSigmaEst_ns\000"
 11982      45666657 
 11982      69647468 
 11982      5369676D 
 11982      61457374 
 11983              	.LASF327:
 11984 114b 564C3533 		.ascii	"VL53L0X_get_pal_range_status\000"
 11984      4C30585F 
 11984      6765745F 
 11984      70616C5F 
 11984      72616E67 
 11985              	.LASF1:
 11986 1168 5F5F7569 		.ascii	"__uint8_t\000"
 11986      6E74385F 
 11986      7400
ARM GAS  C:\Users\ilya\AppData\Local\Temp\ccAjPEqD.s 			page 265


 11987              	.LASF193:
 11988 1172 56637365 		.ascii	"VcselPeriodType\000"
 11988      6C506572 
 11988      696F6454 
 11988      79706500 
 11989              	.LASF69:
 11990 1182 52656647 		.ascii	"RefGoodSpadMap\000"
 11990      6F6F6453 
 11990      7061644D 
 11990      617000
 11991              	.LASF29:
 11992 1191 564C3533 		.ascii	"VL53L0X_Error\000"
 11992      4C30585F 
 11992      4572726F 
 11992      7200
 11993              	.LASF208:
 11994 119f 53746172 		.ascii	"StartOverheadMicroSeconds\000"
 11994      744F7665 
 11994      72686561 
 11994      644D6963 
 11994      726F5365 
 11995              	.LASF292:
 11996 11b9 64696666 		.ascii	"diff2_mcps\000"
 11996      325F6D63 
 11996      707300
 11997              	.LASF226:
 11998 11c4 54656D70 		.ascii	"Temp16\000"
 11998      313600
 11999              	.LASF125:
 12000 11cb 636F6D6D 		.ascii	"comms_type\000"
 12000      735F7479 
 12000      706500
 12001              	.LASF198:
 12002 11d6 4D617846 		.ascii	"MaxFinalVcselPeriodPCLK\000"
 12002      696E616C 
 12002      56637365 
 12002      6C506572 
 12002      696F6450 
 12003              	.LASF243:
 12004 11ee 63536967 		.ascii	"cSigmaLimit\000"
 12004      6D614C69 
 12004      6D697400 
 12005              	.LASF195:
 12006 11fa 4D696E50 		.ascii	"MinPreVcselPeriodPCLK\000"
 12006      72655663 
 12006      73656C50 
 12006      6572696F 
 12006      6450434C 
 12007              	.LASF301:
 12008 1210 66696E61 		.ascii	"finalRangeMacroPCLKS\000"
 12008      6C52616E 
 12008      67654D61 
 12008      63726F50 
 12008      434C4B53 
 12009              	.LASF178:
 12010 1225 7054696D 		.ascii	"pTimeOutMicroSecs\000"
 12010      654F7574 
ARM GAS  C:\Users\ilya\AppData\Local\Temp\ccAjPEqD.s 			page 266


 12010      4D696372 
 12010      6F536563 
 12010      7300
 12011              	.LASF27:
 12012 1237 73697A65 		.ascii	"sizetype\000"
 12012      74797065 
 12012      00
 12013              	.LASF241:
 12014 1240 7065616B 		.ascii	"peakVcselDuration_us\000"
 12014      56637365 
 12014      6C447572 
 12014      6174696F 
 12014      6E5F7573 
 12015              	.LASF95:
 12016 1255 43757272 		.ascii	"CurrentParameters\000"
 12016      656E7450 
 12016      6172616D 
 12016      65746572 
 12016      7300
 12017              	.LASF11:
 12018 1267 6C6F6E67 		.ascii	"long unsigned int\000"
 12018      20756E73 
 12018      69676E65 
 12018      6420696E 
 12018      7400
 12019              	.LASF320:
 12020 1279 44657669 		.ascii	"DeviceRangeStatusInternal\000"
 12020      63655261 
 12020      6E676553 
 12020      74617475 
 12020      73496E74 
 12021              	.LASF98:
 12022 1293 44657669 		.ascii	"DeviceSpecificParameters\000"
 12022      63655370 
 12022      65636966 
 12022      69635061 
 12022      72616D65 
 12023              	.LASF308:
 12024 12ac 4E6F6E65 		.ascii	"NoneFlag\000"
 12024      466C6167 
 12024      00
 12025              	.LASF109:
 12026 12b5 7054756E 		.ascii	"pTuningSettingsPointer\000"
 12026      696E6753 
 12026      65747469 
 12026      6E677350 
 12026      6F696E74 
 12027              	.LASF323:
 12028 12cc 446D6178 		.ascii	"Dmax_mm\000"
 12028      5F6D6D00 
 12029              	.LASF262:
 12030 12d4 7369676D 		.ascii	"sigmaEstP2Tmp\000"
 12030      61457374 
 12030      5032546D 
 12030      7000
 12031              	.LASF20:
 12032 12e2 696E7433 		.ascii	"int32_t\000"
ARM GAS  C:\Users\ilya\AppData\Local\Temp\ccAjPEqD.s 			page 267


 12032      325F7400 
 12033              	.LASF249:
 12034 12ea 646D6178 		.ascii	"dmaxCalSignalRateRtn_mcps\000"
 12034      43616C53 
 12034      69676E61 
 12034      6C526174 
 12034      6552746E 
 12035              	.LASF283:
 12036 1304 64656C74 		.ascii	"deltaT_ps\000"
 12036      61545F70 
 12036      7300
 12037              	.LASF150:
 12038 130e 62797465 		.ascii	"byte\000"
 12038      00
 12039              	.LASF235:
 12040 1313 564C3533 		.ascii	"VL53L0X_calc_dmax\000"
 12040      4C30585F 
 12040      63616C63 
 12040      5F646D61 
 12040      7800
 12041              	.LASF284:
 12042 1325 7369676D 		.ascii	"sigmaEstRtn\000"
 12042      61457374 
 12042      52746E00 
 12043              	.LASF80:
 12044 1331 5369676D 		.ascii	"SigmaEstEffAmbWidth\000"
 12044      61457374 
 12044      45666641 
 12044      6D625769 
 12044      64746800 
 12045              	.LASF299:
 12046 1345 7369676D 		.ascii	"sigmaEstRef\000"
 12046      61457374 
 12046      52656600 
 12047              	.LASF3:
 12048 1351 756E7369 		.ascii	"unsigned char\000"
 12048      676E6564 
 12048      20636861 
 12048      7200
 12049              	.LASF65:
 12050 135f 4E756D62 		.ascii	"NumberOfBins\000"
 12050      65724F66 
 12050      42696E73 
 12050      00
 12051              	.LASF76:
 12052 136c 50726552 		.ascii	"PreRangeTimeoutMicroSecs\000"
 12052      616E6765 
 12052      54696D65 
 12052      6F75744D 
 12052      6963726F 
 12053              	.LASF10:
 12054 1385 5F5F7569 		.ascii	"__uint32_t\000"
 12054      6E743332 
 12054      5F7400
 12055              	.LASF113:
 12056 1390 446D6178 		.ascii	"DmaxCalSignalRateRtnMegaCps\000"
 12056      43616C53 
ARM GAS  C:\Users\ilya\AppData\Local\Temp\ccAjPEqD.s 			page 268


 12056      69676E61 
 12056      6C526174 
 12056      6552746E 
 12057              	.LASF75:
 12058 13ac 46696E61 		.ascii	"FinalRangeVcselPulsePeriod\000"
 12058      6C52616E 
 12058      67655663 
 12058      73656C50 
 12058      756C7365 
 12059              	.LASF232:
 12060 13c7 7874616C 		.ascii	"xtalkPerSpadMegaCps\000"
 12060      6B506572 
 12060      53706164 
 12060      4D656761 
 12060      43707300 
 12061              	.LASF114:
 12062 13db 564C3533 		.ascii	"VL53L0X_DevData_t\000"
 12062      4C30585F 
 12062      44657644 
 12062      6174615F 
 12062      7400
 12063              	.LASF231:
 12064 13ed 746F7461 		.ascii	"totalXtalkMegaCps\000"
 12064      6C587461 
 12064      6C6B4D65 
 12064      67614370 
 12064      7300
 12065              	.LASF229:
 12066 13ff 70746F74 		.ascii	"ptotal_xtalk_rate_mcps\000"
 12066      616C5F78 
 12066      74616C6B 
 12066      5F726174 
 12066      655F6D63 
 12067              	.LASF319:
 12068 1416 5369676E 		.ascii	"SignalRatePerSpad\000"
 12068      616C5261 
 12068      74655065 
 12068      72537061 
 12068      6400
 12069              	.LASF143:
 12070 1428 564C3533 		.ascii	"VL53L0X_encode_vcsel_period\000"
 12070      4C30585F 
 12070      656E636F 
 12070      64655F76 
 12070      6373656C 
 12071              	.LASF238:
 12072 1444 70774D75 		.ascii	"pwMult\000"
 12072      6C7400
 12073              	.LASF296:
 12074 144b 73717274 		.ascii	"sqrtResult_centi_ns\000"
 12074      52657375 
 12074      6C745F63 
 12074      656E7469 
 12074      5F6E7300 
 12075              	.LASF205:
 12076 145f 564C3533 		.ascii	"VL53L0X_set_measurement_timing_budget_micro_seconds"
 12076      4C30585F 
ARM GAS  C:\Users\ilya\AppData\Local\Temp\ccAjPEqD.s 			page 269


 12076      7365745F 
 12076      6D656173 
 12076      7572656D 
 12077 1492 00       		.ascii	"\000"
 12078              	.LASF315:
 12079 1493 52616E67 		.ascii	"RangeIgnoreThresholdLimitCheckEnable\000"
 12079      6549676E 
 12079      6F726554 
 12079      68726573 
 12079      686F6C64 
 12080              	.LASF73:
 12081 14b8 50696E30 		.ascii	"Pin0GpioFunctionality\000"
 12081      4770696F 
 12081      46756E63 
 12081      74696F6E 
 12081      616C6974 
 12082              	.LASF201:
 12083 14ce 4D737263 		.ascii	"MsrcTimeoutMicroSeconds\000"
 12083      54696D65 
 12083      6F75744D 
 12083      6963726F 
 12083      5365636F 
 12084              	.LASF255:
 12085 14e6 7369676D 		.ascii	"sigmaLimitTmp\000"
 12085      614C696D 
 12085      6974546D 
 12085      7000
 12086              	.LASF160:
 12087 14f4 564C3533 		.ascii	"VL53L0X_calc_macro_period_ps\000"
 12087      4C30585F 
 12087      63616C63 
 12087      5F6D6163 
 12087      726F5F70 
 12088              	.LASF258:
 12089 1511 5369676E 		.ascii	"SignalAt0mm\000"
 12089      616C4174 
 12089      306D6D00 
 12090              	.LASF277:
 12091 151d 63506C6C 		.ascii	"cPllPeriod_ps\000"
 12091      50657269 
 12091      6F645F70 
 12091      7300
 12092              	.LASF263:
 12093 152b 7369676E 		.ascii	"signalRateTemp_mcps\000"
 12093      616C5261 
 12093      74655465 
 12093      6D705F6D 
 12093      63707300 
 12094              	.LASF187:
 12095 153f 53636865 		.ascii	"SchedulerSequenceSteps\000"
 12095      64756C65 
 12095      72536571 
 12095      75656E63 
 12095      65537465 
 12096              	.LASF174:
 12097 1556 564C3533 		.ascii	"VL53L0X_calc_timeout_us\000"
 12097      4C30585F 
ARM GAS  C:\Users\ilya\AppData\Local\Temp\ccAjPEqD.s 			page 270


 12097      63616C63 
 12097      5F74696D 
 12097      656F7574 
 12098              	.LASF202:
 12099 156e 50686173 		.ascii	"PhaseCalInt\000"
 12099      6543616C 
 12099      496E7400 
 12100              	.LASF210:
 12101 157a 4D737263 		.ascii	"MsrcOverheadMicroSeconds\000"
 12101      4F766572 
 12101      68656164 
 12101      4D696372 
 12101      6F536563 
 12102              	.LASF115:
 12103 1593 564C3533 		.ascii	"VL53L0X_VcselPeriod\000"
 12103      4C30585F 
 12103      56637365 
 12103      6C506572 
 12103      696F6400 
 12104              	.LASF2:
 12105 15a7 7369676E 		.ascii	"signed char\000"
 12105      65642063 
 12105      68617200 
 12106              	.LASF321:
 12107 15b3 746D7057 		.ascii	"tmpWord\000"
 12107      6F726400 
 12108              	.LASF165:
 12109 15bb 74696D65 		.ascii	"timeout_macro_clks\000"
 12109      6F75745F 
 12109      6D616372 
 12109      6F5F636C 
 12109      6B7300
 12110              	.LASF97:
 12111 15ce 4C617374 		.ascii	"LastHistogramMeasure\000"
 12111      48697374 
 12111      6F677261 
 12111      6D4D6561 
 12111      73757265 
 12112              	.LASF7:
 12113 15e3 73686F72 		.ascii	"short unsigned int\000"
 12113      7420756E 
 12113      7369676E 
 12113      65642069 
 12113      6E7400
 12114              	.LASF264:
 12115 15f6 564C3533 		.ascii	"VL53L0X_calc_sigma_estimate\000"
 12115      4C30585F 
 12115      63616C63 
 12115      5F736967 
 12115      6D615F65 
 12116              	.LASF101:
 12117 1612 52616E67 		.ascii	"RangeFractionalEnable\000"
 12117      65467261 
 12117      6374696F 
 12117      6E616C45 
 12117      6E61626C 
 12118              	.LASF52:
ARM GAS  C:\Users\ilya\AppData\Local\Temp\ccAjPEqD.s 			page 271


 12119 1628 52616E67 		.ascii	"RangeMilliMeter\000"
 12119      654D696C 
 12119      6C694D65 
 12119      74657200 
 12120              	.LASF281:
 12121 1638 66696E61 		.ascii	"finalRangeIntegrationTimeMilliSecs\000"
 12121      6C52616E 
 12121      6765496E 
 12121      74656772 
 12121      6174696F 
 12122              	.LASF106:
 12123 165b 5369676D 		.ascii	"SigmaEstimate\000"
 12123      61457374 
 12123      696D6174 
 12123      6500
 12124              	.LASF270:
 12125 1669 63566373 		.ascii	"cVcselPulseWidth_ps\000"
 12125      656C5075 
 12125      6C736557 
 12125      69647468 
 12125      5F707300 
 12126              	.LASF78:
 12127 167d 5369676D 		.ascii	"SigmaEstRefArray\000"
 12127      61457374 
 12127      52656641 
 12127      72726179 
 12127      00
 12128              	.LASF117:
 12129 168e 4D737263 		.ascii	"MsrcOn\000"
 12129      4F6E00
 12130              	.LASF261:
 12131 1695 646D6178 		.ascii	"dmaxDarkTmp\000"
 12131      4461726B 
 12131      546D7000 
 12132              	.LASF58:
 12133 16a1 52616E67 		.ascii	"RangeFractionalPart\000"
 12133      65467261 
 12133      6374696F 
 12133      6E616C50 
 12133      61727400 
 12134              	.LASF224:
 12135 16b5 41646472 		.ascii	"Address\000"
 12135      65737300 
 12136              	.LASF72:
 12137 16bd 4C617374 		.ascii	"LastEncodedTimeout\000"
 12137      456E636F 
 12137      64656454 
 12137      696D656F 
 12137      757400
 12138              	.LASF169:
 12139 16d0 564C3533 		.ascii	"VL53L0X_decode_timeout\000"
 12139      4C30585F 
 12139      6465636F 
 12139      64655F74 
 12139      696D656F 
 12140              	.LASF191:
 12141 16e7 4D737263 		.ascii	"MsrcRangeTimeOutMClks\000"
ARM GAS  C:\Users\ilya\AppData\Local\Temp\ccAjPEqD.s 			page 272


 12141      52616E67 
 12141      6554696D 
 12141      654F7574 
 12141      4D436C6B 
 12142              	.LASF137:
 12143 16fd 564C3533 		.ascii	"VL53L0X_measurement_poll_for_completion\000"
 12143      4C30585F 
 12143      6D656173 
 12143      7572656D 
 12143      656E745F 
 12144              	.LASF251:
 12145 1725 6D696E53 		.ascii	"minSignalNeeded_p1\000"
 12145      69676E61 
 12145      6C4E6565 
 12145      6465645F 
 12145      703100
 12146              	.LASF252:
 12147 1738 6D696E53 		.ascii	"minSignalNeeded_p2\000"
 12147      69676E61 
 12147      6C4E6565 
 12147      6465645F 
 12147      703200
 12148              	.LASF253:
 12149 174b 6D696E53 		.ascii	"minSignalNeeded_p3\000"
 12149      69676E61 
 12149      6C4E6565 
 12149      6465645F 
 12149      703300
 12150              	.LASF254:
 12151 175e 6D696E53 		.ascii	"minSignalNeeded_p4\000"
 12151      69676E61 
 12151      6C4E6565 
 12151      6465645F 
 12151      703400
 12152              	.LASF265:
 12153 1771 70536967 		.ascii	"pSigmaEstimate\000"
 12153      6D614573 
 12153      74696D61 
 12153      746500
 12154              	.LASF290:
 12155 1780 7854616C 		.ascii	"xTalkCompRate_kcps\000"
 12155      6B436F6D 
 12155      70526174 
 12155      655F6B63 
 12155      707300
 12156              	.LASF102:
 12157 1793 50616C53 		.ascii	"PalState\000"
 12157      74617465 
 12157      00
 12158              	.LASF50:
 12159 179c 54696D65 		.ascii	"TimeStamp\000"
 12159      5374616D 
 12159      7000
 12160              	.LASF185:
 12161 17a6 46696E61 		.ascii	"FinalRangeTimeOutMClks\000"
 12161      6C52616E 
 12161      67655469 
ARM GAS  C:\Users\ilya\AppData\Local\Temp\ccAjPEqD.s 			page 273


 12161      6D654F75 
 12161      744D436C 
 12162              	.LASF67:
 12163 17bd 564C3533 		.ascii	"VL53L0X_HistogramMeasurementData_t\000"
 12163      4C30585F 
 12163      48697374 
 12163      6F677261 
 12163      6D4D6561 
 12164              	.LASF123:
 12165 17e0 44617461 		.ascii	"Data\000"
 12165      00
 12166              	.LASF145:
 12167 17e5 564C3533 		.ascii	"VL53L0X_quadrature_sum\000"
 12167      4C30585F 
 12167      71756164 
 12167      72617475 
 12167      72655F73 
 12168              	.LASF189:
 12169 17fc 54696D65 		.ascii	"TimeOutMicroSecs\000"
 12169      4F75744D 
 12169      6963726F 
 12169      53656373 
 12169      00
 12170              	.LASF309:
 12171 180d 5369676D 		.ascii	"SigmaLimitflag\000"
 12171      614C696D 
 12171      6974666C 
 12171      616700
 12172              	.LASF90:
 12173 181c 5369676E 		.ascii	"SignalRateMeasFixed400mm\000"
 12173      616C5261 
 12173      74654D65 
 12173      61734669 
 12173      78656434 
 12174              	.LASF237:
 12175 1835 746F7461 		.ascii	"totalCorrSignalRate_mcps\000"
 12175      6C436F72 
 12175      72536967 
 12175      6E616C52 
 12175      6174655F 
 12176              		.ident	"GCC: (GNU Tools for ARM Embedded Processors) 5.4.1 20160609 (release) [ARM/embedded-5-bran
