ARM GAS  C:\Users\ilya\AppData\Local\Temp\ccWKU7si.s 			page 1


   1              		.syntax unified
   2              		.cpu cortex-m0
   3              		.fpu softvfp
   4              		.eabi_attribute 20, 1
   5              		.eabi_attribute 21, 1
   6              		.eabi_attribute 23, 3
   7              		.eabi_attribute 24, 1
   8              		.eabi_attribute 25, 1
   9              		.eabi_attribute 26, 1
  10              		.eabi_attribute 30, 6
  11              		.eabi_attribute 34, 0
  12              		.eabi_attribute 18, 4
  13              		.thumb
  14              		.syntax unified
  15              		.file	"vl53l0x_api_calibration.c"
  16              		.text
  17              	.Ltext0:
  18              		.cfi_sections	.debug_frame
  19              		.global	refArrayQuadrants
  20              		.data
  21              		.align	2
  22              		.type	refArrayQuadrants, %object
  23              		.size	refArrayQuadrants, 16
  24              	refArrayQuadrants:
  25 0000 0A000000 		.word	10
  26 0004 05000000 		.word	5
  27 0008 00000000 		.word	0
  28 000c 05000000 		.word	5
  29              		.global	__aeabi_uidiv
  30              		.section	.text.VL53L0X_perform_xtalk_calibration,"ax",%progbits
  31              		.align	2
  32              		.global	VL53L0X_perform_xtalk_calibration
  33              		.code	16
  34              		.thumb_func
  35              		.type	VL53L0X_perform_xtalk_calibration, %function
  36              	VL53L0X_perform_xtalk_calibration:
  37              	.LFB1:
  38              		.file 1 "Api\\core\\src\\vl53l0x_api_calibration.c"
   1:Api\core\src/vl53l0x_api_calibration.c **** /*******************************************************************************
   2:Api\core\src/vl53l0x_api_calibration.c ****  Copyright © 2016, STMicroelectronics International N.V.
   3:Api\core\src/vl53l0x_api_calibration.c ****  All rights reserved.
   4:Api\core\src/vl53l0x_api_calibration.c **** 
   5:Api\core\src/vl53l0x_api_calibration.c ****  Redistribution and use in source and binary forms, with or without
   6:Api\core\src/vl53l0x_api_calibration.c ****  modification, are permitted provided that the following conditions are met:
   7:Api\core\src/vl53l0x_api_calibration.c ****  * Redistributions of source code must retain the above copyright
   8:Api\core\src/vl53l0x_api_calibration.c ****  notice, this list of conditions and the following disclaimer.
   9:Api\core\src/vl53l0x_api_calibration.c ****  * Redistributions in binary form must reproduce the above copyright
  10:Api\core\src/vl53l0x_api_calibration.c ****  notice, this list of conditions and the following disclaimer in the
  11:Api\core\src/vl53l0x_api_calibration.c ****  documentation and/or other materials provided with the distribution.
  12:Api\core\src/vl53l0x_api_calibration.c ****  * Neither the name of STMicroelectronics nor the
  13:Api\core\src/vl53l0x_api_calibration.c ****  names of its contributors may be used to endorse or promote products
  14:Api\core\src/vl53l0x_api_calibration.c ****  derived from this software without specific prior written permission.
  15:Api\core\src/vl53l0x_api_calibration.c **** 
  16:Api\core\src/vl53l0x_api_calibration.c ****  THIS SOFTWARE IS PROVIDED BY THE COPYRIGHT HOLDERS AND CONTRIBUTORS "AS IS" AND
  17:Api\core\src/vl53l0x_api_calibration.c ****  ANY EXPRESS OR IMPLIED WARRANTIES, INCLUDING, BUT NOT LIMITED TO, THE IMPLIED
  18:Api\core\src/vl53l0x_api_calibration.c ****  WARRANTIES OF MERCHANTABILITY, FITNESS FOR A PARTICULAR PURPOSE, AND
  19:Api\core\src/vl53l0x_api_calibration.c ****  NON-INFRINGEMENT OF INTELLECTUAL PROPERTY RIGHTS ARE DISCLAIMED.
ARM GAS  C:\Users\ilya\AppData\Local\Temp\ccWKU7si.s 			page 2


  20:Api\core\src/vl53l0x_api_calibration.c ****  IN NO EVENT SHALL STMICROELECTRONICS INTERNATIONAL N.V. BE LIABLE FOR ANY
  21:Api\core\src/vl53l0x_api_calibration.c ****  DIRECT, INDIRECT, INCIDENTAL, SPECIAL, EXEMPLARY, OR CONSEQUENTIAL DAMAGES
  22:Api\core\src/vl53l0x_api_calibration.c ****  (INCLUDING, BUT NOT LIMITED TO, PROCUREMENT OF SUBSTITUTE GOODS OR SERVICES;
  23:Api\core\src/vl53l0x_api_calibration.c ****  LOSS OF USE, DATA, OR PROFITS; OR BUSINESS INTERRUPTION) HOWEVER CAUSED AND
  24:Api\core\src/vl53l0x_api_calibration.c ****  ON ANY THEORY OF LIABILITY, WHETHER IN CONTRACT, STRICT LIABILITY, OR TORT
  25:Api\core\src/vl53l0x_api_calibration.c ****  (INCLUDING NEGLIGENCE OR OTHERWISE) ARISING IN ANY WAY OUT OF THE USE OF THIS
  26:Api\core\src/vl53l0x_api_calibration.c ****  SOFTWARE, EVEN IF ADVISED OF THE POSSIBILITY OF SUCH DAMAGE.
  27:Api\core\src/vl53l0x_api_calibration.c ****  ******************************************************************************/
  28:Api\core\src/vl53l0x_api_calibration.c **** 
  29:Api\core\src/vl53l0x_api_calibration.c **** #include "vl53l0x_api.h"
  30:Api\core\src/vl53l0x_api_calibration.c **** #include "vl53l0x_api_core.h"
  31:Api\core\src/vl53l0x_api_calibration.c **** #include "vl53l0x_api_calibration.h"
  32:Api\core\src/vl53l0x_api_calibration.c **** 
  33:Api\core\src/vl53l0x_api_calibration.c **** #ifndef __KERNEL__
  34:Api\core\src/vl53l0x_api_calibration.c **** #include <stdlib.h>
  35:Api\core\src/vl53l0x_api_calibration.c **** #endif
  36:Api\core\src/vl53l0x_api_calibration.c **** 
  37:Api\core\src/vl53l0x_api_calibration.c **** #define LOG_FUNCTION_START(fmt, ...) \
  38:Api\core\src/vl53l0x_api_calibration.c **** 	_LOG_FUNCTION_START(TRACE_MODULE_API, fmt, ##__VA_ARGS__)
  39:Api\core\src/vl53l0x_api_calibration.c **** #define LOG_FUNCTION_END(status, ...) \
  40:Api\core\src/vl53l0x_api_calibration.c **** 	_LOG_FUNCTION_END(TRACE_MODULE_API, status, ##__VA_ARGS__)
  41:Api\core\src/vl53l0x_api_calibration.c **** #define LOG_FUNCTION_END_FMT(status, fmt, ...) \
  42:Api\core\src/vl53l0x_api_calibration.c **** 	_LOG_FUNCTION_END_FMT(TRACE_MODULE_API, status, fmt, ##__VA_ARGS__)
  43:Api\core\src/vl53l0x_api_calibration.c **** 
  44:Api\core\src/vl53l0x_api_calibration.c **** #define REF_ARRAY_SPAD_0  0
  45:Api\core\src/vl53l0x_api_calibration.c **** #define REF_ARRAY_SPAD_5  5
  46:Api\core\src/vl53l0x_api_calibration.c **** #define REF_ARRAY_SPAD_10 10
  47:Api\core\src/vl53l0x_api_calibration.c **** 
  48:Api\core\src/vl53l0x_api_calibration.c **** uint32_t refArrayQuadrants[4] = {REF_ARRAY_SPAD_10, REF_ARRAY_SPAD_5,
  49:Api\core\src/vl53l0x_api_calibration.c **** 		REF_ARRAY_SPAD_0, REF_ARRAY_SPAD_5 };
  50:Api\core\src/vl53l0x_api_calibration.c **** 
  51:Api\core\src/vl53l0x_api_calibration.c **** VL53L0X_Error VL53L0X_perform_xtalk_calibration(VL53L0X_DEV Dev,
  52:Api\core\src/vl53l0x_api_calibration.c **** 			FixPoint1616_t XTalkCalDistance,
  53:Api\core\src/vl53l0x_api_calibration.c **** 			FixPoint1616_t *pXTalkCompensationRateMegaCps)
  54:Api\core\src/vl53l0x_api_calibration.c **** {
  39              		.loc 1 54 0
  40              		.cfi_startproc
  41              		@ args = 0, pretend = 0, frame = 96
  42              		@ frame_needed = 1, uses_anonymous_args = 0
  43 0000 90B5     		push	{r4, r7, lr}
  44              		.cfi_def_cfa_offset 12
  45              		.cfi_offset 4, -12
  46              		.cfi_offset 7, -8
  47              		.cfi_offset 14, -4
  48 0002 99B0     		sub	sp, sp, #100
  49              		.cfi_def_cfa_offset 112
  50 0004 00AF     		add	r7, sp, #0
  51              		.cfi_def_cfa_register 7
  52 0006 F860     		str	r0, [r7, #12]
  53 0008 B960     		str	r1, [r7, #8]
  54 000a 7A60     		str	r2, [r7, #4]
  55:Api\core\src/vl53l0x_api_calibration.c **** 	VL53L0X_Error Status = VL53L0X_ERROR_NONE;
  55              		.loc 1 55 0
  56 000c 5F23     		movs	r3, #95
  57 000e FB18     		adds	r3, r7, r3
  58 0010 0022     		movs	r2, #0
  59 0012 1A70     		strb	r2, [r3]
ARM GAS  C:\Users\ilya\AppData\Local\Temp\ccWKU7si.s 			page 3


  56:Api\core\src/vl53l0x_api_calibration.c **** 	uint16_t sum_ranging = 0;
  60              		.loc 1 56 0
  61 0014 5C23     		movs	r3, #92
  62 0016 FB18     		adds	r3, r7, r3
  63 0018 0022     		movs	r2, #0
  64 001a 1A80     		strh	r2, [r3]
  57:Api\core\src/vl53l0x_api_calibration.c **** 	uint16_t sum_spads = 0;
  65              		.loc 1 57 0
  66 001c 5A23     		movs	r3, #90
  67 001e FB18     		adds	r3, r7, r3
  68 0020 0022     		movs	r2, #0
  69 0022 1A80     		strh	r2, [r3]
  58:Api\core\src/vl53l0x_api_calibration.c **** 	FixPoint1616_t sum_signalRate = 0;
  70              		.loc 1 58 0
  71 0024 0023     		movs	r3, #0
  72 0026 7B65     		str	r3, [r7, #84]
  59:Api\core\src/vl53l0x_api_calibration.c **** 	FixPoint1616_t total_count = 0;
  73              		.loc 1 59 0
  74 0028 0023     		movs	r3, #0
  75 002a 3B65     		str	r3, [r7, #80]
  60:Api\core\src/vl53l0x_api_calibration.c **** 	uint8_t xtalk_meas = 0;
  76              		.loc 1 60 0
  77 002c 4F23     		movs	r3, #79
  78 002e FB18     		adds	r3, r7, r3
  79 0030 0022     		movs	r2, #0
  80 0032 1A70     		strb	r2, [r3]
  61:Api\core\src/vl53l0x_api_calibration.c **** 	VL53L0X_RangingMeasurementData_t RangingMeasurementData;
  62:Api\core\src/vl53l0x_api_calibration.c **** 	FixPoint1616_t xTalkStoredMeanSignalRate;
  63:Api\core\src/vl53l0x_api_calibration.c **** 	FixPoint1616_t xTalkStoredMeanRange;
  64:Api\core\src/vl53l0x_api_calibration.c **** 	FixPoint1616_t xTalkStoredMeanRtnSpads;
  65:Api\core\src/vl53l0x_api_calibration.c **** 	uint32_t signalXTalkTotalPerSpad;
  66:Api\core\src/vl53l0x_api_calibration.c **** 	uint32_t xTalkStoredMeanRtnSpadsAsInt;
  67:Api\core\src/vl53l0x_api_calibration.c **** 	uint32_t xTalkCalDistanceAsInt;
  68:Api\core\src/vl53l0x_api_calibration.c **** 	FixPoint1616_t XTalkCompensationRateMegaCps;
  69:Api\core\src/vl53l0x_api_calibration.c **** 
  70:Api\core\src/vl53l0x_api_calibration.c **** 	if (XTalkCalDistance <= 0)
  81              		.loc 1 70 0
  82 0034 BB68     		ldr	r3, [r7, #8]
  83 0036 002B     		cmp	r3, #0
  84 0038 03D1     		bne	.L2
  71:Api\core\src/vl53l0x_api_calibration.c **** 		Status = VL53L0X_ERROR_INVALID_PARAMS;
  85              		.loc 1 71 0
  86 003a 5F23     		movs	r3, #95
  87 003c FB18     		adds	r3, r7, r3
  88 003e FC22     		movs	r2, #252
  89 0040 1A70     		strb	r2, [r3]
  90              	.L2:
  72:Api\core\src/vl53l0x_api_calibration.c **** 
  73:Api\core\src/vl53l0x_api_calibration.c **** 	/* Disable the XTalk compensation */
  74:Api\core\src/vl53l0x_api_calibration.c **** 	if (Status == VL53L0X_ERROR_NONE)
  91              		.loc 1 74 0
  92 0042 5F23     		movs	r3, #95
  93 0044 FB18     		adds	r3, r7, r3
  94 0046 1B78     		ldrb	r3, [r3]
  95 0048 5BB2     		sxtb	r3, r3
  96 004a 002B     		cmp	r3, #0
  97 004c 08D1     		bne	.L3
ARM GAS  C:\Users\ilya\AppData\Local\Temp\ccWKU7si.s 			page 4


  75:Api\core\src/vl53l0x_api_calibration.c **** 		Status = VL53L0X_SetXTalkCompensationEnable(Dev, 0);
  98              		.loc 1 75 0
  99 004e 5F23     		movs	r3, #95
 100 0050 FC18     		adds	r4, r7, r3
 101 0052 FB68     		ldr	r3, [r7, #12]
 102 0054 0021     		movs	r1, #0
 103 0056 1800     		movs	r0, r3
 104 0058 FFF7FEFF 		bl	VL53L0X_SetXTalkCompensationEnable
 105 005c 0300     		movs	r3, r0
 106 005e 2370     		strb	r3, [r4]
 107              	.L3:
  76:Api\core\src/vl53l0x_api_calibration.c **** 
  77:Api\core\src/vl53l0x_api_calibration.c **** 	/* Disable the RIT */
  78:Api\core\src/vl53l0x_api_calibration.c **** 	if (Status == VL53L0X_ERROR_NONE) {
 108              		.loc 1 78 0
 109 0060 5F23     		movs	r3, #95
 110 0062 FB18     		adds	r3, r7, r3
 111 0064 1B78     		ldrb	r3, [r3]
 112 0066 5BB2     		sxtb	r3, r3
 113 0068 002B     		cmp	r3, #0
 114 006a 09D1     		bne	.L4
  79:Api\core\src/vl53l0x_api_calibration.c **** 		Status = VL53L0X_SetLimitCheckEnable(Dev,
 115              		.loc 1 79 0
 116 006c 5F23     		movs	r3, #95
 117 006e FC18     		adds	r4, r7, r3
 118 0070 FB68     		ldr	r3, [r7, #12]
 119 0072 0022     		movs	r2, #0
 120 0074 0321     		movs	r1, #3
 121 0076 1800     		movs	r0, r3
 122 0078 FFF7FEFF 		bl	VL53L0X_SetLimitCheckEnable
 123 007c 0300     		movs	r3, r0
 124 007e 2370     		strb	r3, [r4]
 125              	.L4:
  80:Api\core\src/vl53l0x_api_calibration.c **** 				VL53L0X_CHECKENABLE_RANGE_IGNORE_THRESHOLD, 0);
  81:Api\core\src/vl53l0x_api_calibration.c **** 	}
  82:Api\core\src/vl53l0x_api_calibration.c **** 
  83:Api\core\src/vl53l0x_api_calibration.c **** 	/* Perform 50 measurements and compute the averages */
  84:Api\core\src/vl53l0x_api_calibration.c **** 	if (Status == VL53L0X_ERROR_NONE) {
 126              		.loc 1 84 0
 127 0080 5F23     		movs	r3, #95
 128 0082 FB18     		adds	r3, r7, r3
 129 0084 1B78     		ldrb	r3, [r3]
 130 0086 5BB2     		sxtb	r3, r3
 131 0088 002B     		cmp	r3, #0
 132 008a 5AD1     		bne	.L5
  85:Api\core\src/vl53l0x_api_calibration.c **** 		sum_ranging = 0;
 133              		.loc 1 85 0
 134 008c 5C23     		movs	r3, #92
 135 008e FB18     		adds	r3, r7, r3
 136 0090 0022     		movs	r2, #0
 137 0092 1A80     		strh	r2, [r3]
  86:Api\core\src/vl53l0x_api_calibration.c **** 		sum_spads = 0;
 138              		.loc 1 86 0
 139 0094 5A23     		movs	r3, #90
 140 0096 FB18     		adds	r3, r7, r3
 141 0098 0022     		movs	r2, #0
 142 009a 1A80     		strh	r2, [r3]
ARM GAS  C:\Users\ilya\AppData\Local\Temp\ccWKU7si.s 			page 5


  87:Api\core\src/vl53l0x_api_calibration.c **** 		sum_signalRate = 0;
 143              		.loc 1 87 0
 144 009c 0023     		movs	r3, #0
 145 009e 7B65     		str	r3, [r7, #84]
  88:Api\core\src/vl53l0x_api_calibration.c **** 		total_count = 0;
 146              		.loc 1 88 0
 147 00a0 0023     		movs	r3, #0
 148 00a2 3B65     		str	r3, [r7, #80]
  89:Api\core\src/vl53l0x_api_calibration.c **** 		for (xtalk_meas = 0; xtalk_meas < 50; xtalk_meas++) {
 149              		.loc 1 89 0
 150 00a4 4F23     		movs	r3, #79
 151 00a6 FB18     		adds	r3, r7, r3
 152 00a8 0022     		movs	r2, #0
 153 00aa 1A70     		strb	r2, [r3]
 154 00ac 3BE0     		b	.L6
 155              	.L10:
  90:Api\core\src/vl53l0x_api_calibration.c **** 			Status = VL53L0X_PerformSingleRangingMeasurement(Dev,
 156              		.loc 1 90 0
 157 00ae 5F23     		movs	r3, #95
 158 00b0 FC18     		adds	r4, r7, r3
 159 00b2 1423     		movs	r3, #20
 160 00b4 FA18     		adds	r2, r7, r3
 161 00b6 FB68     		ldr	r3, [r7, #12]
 162 00b8 1100     		movs	r1, r2
 163 00ba 1800     		movs	r0, r3
 164 00bc FFF7FEFF 		bl	VL53L0X_PerformSingleRangingMeasurement
 165 00c0 0300     		movs	r3, r0
 166 00c2 2370     		strb	r3, [r4]
  91:Api\core\src/vl53l0x_api_calibration.c **** 				&RangingMeasurementData);
  92:Api\core\src/vl53l0x_api_calibration.c **** 
  93:Api\core\src/vl53l0x_api_calibration.c **** 			if (Status != VL53L0X_ERROR_NONE)
 167              		.loc 1 93 0
 168 00c4 5F23     		movs	r3, #95
 169 00c6 FB18     		adds	r3, r7, r3
 170 00c8 1B78     		ldrb	r3, [r3]
 171 00ca 5BB2     		sxtb	r3, r3
 172 00cc 002B     		cmp	r3, #0
 173 00ce 30D1     		bne	.L17
  94:Api\core\src/vl53l0x_api_calibration.c **** 				break;
  95:Api\core\src/vl53l0x_api_calibration.c **** 
  96:Api\core\src/vl53l0x_api_calibration.c **** 			/* The range is valid when RangeStatus = 0 */
  97:Api\core\src/vl53l0x_api_calibration.c **** 			if (RangingMeasurementData.RangeStatus == 0) {
 174              		.loc 1 97 0
 175 00d0 1423     		movs	r3, #20
 176 00d2 FB18     		adds	r3, r7, r3
 177 00d4 1B7E     		ldrb	r3, [r3, #24]
 178 00d6 002B     		cmp	r3, #0
 179 00d8 1ED1     		bne	.L9
  98:Api\core\src/vl53l0x_api_calibration.c **** 				sum_ranging = sum_ranging +
  99:Api\core\src/vl53l0x_api_calibration.c **** 					RangingMeasurementData.RangeMilliMeter;
 180              		.loc 1 99 0
 181 00da 1423     		movs	r3, #20
 182 00dc FB18     		adds	r3, r7, r3
 183 00de 1989     		ldrh	r1, [r3, #8]
  98:Api\core\src/vl53l0x_api_calibration.c **** 				sum_ranging = sum_ranging +
 184              		.loc 1 98 0
 185 00e0 5C23     		movs	r3, #92
ARM GAS  C:\Users\ilya\AppData\Local\Temp\ccWKU7si.s 			page 6


 186 00e2 FB18     		adds	r3, r7, r3
 187 00e4 5C22     		movs	r2, #92
 188 00e6 BA18     		adds	r2, r7, r2
 189 00e8 1288     		ldrh	r2, [r2]
 190 00ea 8A18     		adds	r2, r1, r2
 191 00ec 1A80     		strh	r2, [r3]
 100:Api\core\src/vl53l0x_api_calibration.c **** 				sum_signalRate = sum_signalRate +
 101:Api\core\src/vl53l0x_api_calibration.c **** 				RangingMeasurementData.SignalRateRtnMegaCps;
 192              		.loc 1 101 0
 193 00ee 1423     		movs	r3, #20
 194 00f0 FB18     		adds	r3, r7, r3
 195 00f2 DB68     		ldr	r3, [r3, #12]
 100:Api\core\src/vl53l0x_api_calibration.c **** 				sum_signalRate = sum_signalRate +
 196              		.loc 1 100 0
 197 00f4 7A6D     		ldr	r2, [r7, #84]
 198 00f6 D318     		adds	r3, r2, r3
 199 00f8 7B65     		str	r3, [r7, #84]
 102:Api\core\src/vl53l0x_api_calibration.c **** 				sum_spads = sum_spads +
 103:Api\core\src/vl53l0x_api_calibration.c **** 				RangingMeasurementData.EffectiveSpadRtnCount
 200              		.loc 1 103 0
 201 00fa 1423     		movs	r3, #20
 202 00fc FB18     		adds	r3, r7, r3
 203 00fe 9B8A     		ldrh	r3, [r3, #20]
 102:Api\core\src/vl53l0x_api_calibration.c **** 				sum_spads = sum_spads +
 204              		.loc 1 102 0
 205 0100 1B0A     		lsrs	r3, r3, #8
 206 0102 99B2     		uxth	r1, r3
 207 0104 5A23     		movs	r3, #90
 208 0106 FB18     		adds	r3, r7, r3
 209 0108 5A22     		movs	r2, #90
 210 010a BA18     		adds	r2, r7, r2
 211 010c 1288     		ldrh	r2, [r2]
 212 010e 8A18     		adds	r2, r1, r2
 213 0110 1A80     		strh	r2, [r3]
 104:Api\core\src/vl53l0x_api_calibration.c **** 					/ 256;
 105:Api\core\src/vl53l0x_api_calibration.c **** 				total_count = total_count + 1;
 214              		.loc 1 105 0
 215 0112 3B6D     		ldr	r3, [r7, #80]
 216 0114 0133     		adds	r3, r3, #1
 217 0116 3B65     		str	r3, [r7, #80]
 218              	.L9:
  89:Api\core\src/vl53l0x_api_calibration.c **** 			Status = VL53L0X_PerformSingleRangingMeasurement(Dev,
 219              		.loc 1 89 0 discriminator 2
 220 0118 4F23     		movs	r3, #79
 221 011a FB18     		adds	r3, r7, r3
 222 011c 1A78     		ldrb	r2, [r3]
 223 011e 4F23     		movs	r3, #79
 224 0120 FB18     		adds	r3, r7, r3
 225 0122 0132     		adds	r2, r2, #1
 226 0124 1A70     		strb	r2, [r3]
 227              	.L6:
  89:Api\core\src/vl53l0x_api_calibration.c **** 			Status = VL53L0X_PerformSingleRangingMeasurement(Dev,
 228              		.loc 1 89 0 is_stmt 0 discriminator 1
 229 0126 4F23     		movs	r3, #79
 230 0128 FB18     		adds	r3, r7, r3
 231 012a 1B78     		ldrb	r3, [r3]
 232 012c 312B     		cmp	r3, #49
ARM GAS  C:\Users\ilya\AppData\Local\Temp\ccWKU7si.s 			page 7


 233 012e BED9     		bls	.L10
 234 0130 00E0     		b	.L8
 235              	.L17:
  94:Api\core\src/vl53l0x_api_calibration.c **** 
 236              		.loc 1 94 0 is_stmt 1
 237 0132 C046     		nop
 238              	.L8:
 106:Api\core\src/vl53l0x_api_calibration.c **** 			}
 107:Api\core\src/vl53l0x_api_calibration.c **** 		}
 108:Api\core\src/vl53l0x_api_calibration.c **** 
 109:Api\core\src/vl53l0x_api_calibration.c **** 		/* no valid values found */
 110:Api\core\src/vl53l0x_api_calibration.c **** 		if (total_count == 0)
 239              		.loc 1 110 0
 240 0134 3B6D     		ldr	r3, [r7, #80]
 241 0136 002B     		cmp	r3, #0
 242 0138 03D1     		bne	.L5
 111:Api\core\src/vl53l0x_api_calibration.c **** 			Status = VL53L0X_ERROR_RANGE_ERROR;
 243              		.loc 1 111 0
 244 013a 5F23     		movs	r3, #95
 245 013c FB18     		adds	r3, r7, r3
 246 013e FA22     		movs	r2, #250
 247 0140 1A70     		strb	r2, [r3]
 248              	.L5:
 112:Api\core\src/vl53l0x_api_calibration.c **** 
 113:Api\core\src/vl53l0x_api_calibration.c **** 	}
 114:Api\core\src/vl53l0x_api_calibration.c **** 
 115:Api\core\src/vl53l0x_api_calibration.c **** 
 116:Api\core\src/vl53l0x_api_calibration.c **** 	if (Status == VL53L0X_ERROR_NONE) {
 249              		.loc 1 116 0
 250 0142 5F23     		movs	r3, #95
 251 0144 FB18     		adds	r3, r7, r3
 252 0146 1B78     		ldrb	r3, [r3]
 253 0148 5BB2     		sxtb	r3, r3
 254 014a 002B     		cmp	r3, #0
 255 014c 00D0     		beq	.LCB193
 256 014e 76E0     		b	.L11	@long jump
 257              	.LCB193:
 117:Api\core\src/vl53l0x_api_calibration.c **** 		/* FixPoint1616_t / uint16_t = FixPoint1616_t */
 118:Api\core\src/vl53l0x_api_calibration.c **** 		xTalkStoredMeanSignalRate = sum_signalRate / total_count;
 258              		.loc 1 118 0
 259 0150 396D     		ldr	r1, [r7, #80]
 260 0152 786D     		ldr	r0, [r7, #84]
 261 0154 FFF7FEFF 		bl	__aeabi_uidiv
 262 0158 0300     		movs	r3, r0
 263 015a 7B64     		str	r3, [r7, #68]
 119:Api\core\src/vl53l0x_api_calibration.c **** 		xTalkStoredMeanRange = (FixPoint1616_t)((uint32_t)(
 120:Api\core\src/vl53l0x_api_calibration.c **** 			sum_ranging << 16) / total_count);
 264              		.loc 1 120 0
 265 015c 5C23     		movs	r3, #92
 266 015e FB18     		adds	r3, r7, r3
 267 0160 1B88     		ldrh	r3, [r3]
 268 0162 1B04     		lsls	r3, r3, #16
 119:Api\core\src/vl53l0x_api_calibration.c **** 		xTalkStoredMeanRange = (FixPoint1616_t)((uint32_t)(
 269              		.loc 1 119 0
 270 0164 396D     		ldr	r1, [r7, #80]
 271 0166 1800     		movs	r0, r3
 272 0168 FFF7FEFF 		bl	__aeabi_uidiv
ARM GAS  C:\Users\ilya\AppData\Local\Temp\ccWKU7si.s 			page 8


 273 016c 0300     		movs	r3, r0
 274 016e 3B64     		str	r3, [r7, #64]
 121:Api\core\src/vl53l0x_api_calibration.c **** 		xTalkStoredMeanRtnSpads = (FixPoint1616_t)((uint32_t)(
 122:Api\core\src/vl53l0x_api_calibration.c **** 			sum_spads << 16) / total_count);
 275              		.loc 1 122 0
 276 0170 5A23     		movs	r3, #90
 277 0172 FB18     		adds	r3, r7, r3
 278 0174 1B88     		ldrh	r3, [r3]
 279 0176 1B04     		lsls	r3, r3, #16
 121:Api\core\src/vl53l0x_api_calibration.c **** 		xTalkStoredMeanRtnSpads = (FixPoint1616_t)((uint32_t)(
 280              		.loc 1 121 0
 281 0178 396D     		ldr	r1, [r7, #80]
 282 017a 1800     		movs	r0, r3
 283 017c FFF7FEFF 		bl	__aeabi_uidiv
 284 0180 0300     		movs	r3, r0
 285 0182 FB63     		str	r3, [r7, #60]
 123:Api\core\src/vl53l0x_api_calibration.c **** 
 124:Api\core\src/vl53l0x_api_calibration.c **** 		/* Round Mean Spads to Whole Number.
 125:Api\core\src/vl53l0x_api_calibration.c **** 		 * Typically the calculated mean SPAD count is a whole number
 126:Api\core\src/vl53l0x_api_calibration.c **** 		 * or very close to a whole
 127:Api\core\src/vl53l0x_api_calibration.c **** 		 * number, therefore any truncation will not result in a
 128:Api\core\src/vl53l0x_api_calibration.c **** 		 * significant loss in accuracy.
 129:Api\core\src/vl53l0x_api_calibration.c **** 		 * Also, for a grey target at a typical distance of around
 130:Api\core\src/vl53l0x_api_calibration.c **** 		 * 400mm, around 220 SPADs will
 131:Api\core\src/vl53l0x_api_calibration.c **** 		 * be enabled, therefore, any truncation will result in a loss
 132:Api\core\src/vl53l0x_api_calibration.c **** 		 * of accuracy of less than
 133:Api\core\src/vl53l0x_api_calibration.c **** 		 * 0.5%.
 134:Api\core\src/vl53l0x_api_calibration.c **** 		 */
 135:Api\core\src/vl53l0x_api_calibration.c **** 		xTalkStoredMeanRtnSpadsAsInt = (xTalkStoredMeanRtnSpads +
 286              		.loc 1 135 0
 287 0184 FB6B     		ldr	r3, [r7, #60]
 288 0186 8022     		movs	r2, #128
 289 0188 1202     		lsls	r2, r2, #8
 290 018a 9446     		mov	ip, r2
 291 018c 6344     		add	r3, r3, ip
 292 018e 1B0C     		lsrs	r3, r3, #16
 293 0190 BB63     		str	r3, [r7, #56]
 136:Api\core\src/vl53l0x_api_calibration.c **** 			0x8000) >> 16;
 137:Api\core\src/vl53l0x_api_calibration.c **** 
 138:Api\core\src/vl53l0x_api_calibration.c **** 		/* Round Cal Distance to Whole Number.
 139:Api\core\src/vl53l0x_api_calibration.c **** 		 * Note that the cal distance is in mm, therefore no resolution
 140:Api\core\src/vl53l0x_api_calibration.c **** 		 * is lost.*/
 141:Api\core\src/vl53l0x_api_calibration.c **** 		 xTalkCalDistanceAsInt = (XTalkCalDistance + 0x8000) >> 16;
 294              		.loc 1 141 0
 295 0192 BB68     		ldr	r3, [r7, #8]
 296 0194 8022     		movs	r2, #128
 297 0196 1202     		lsls	r2, r2, #8
 298 0198 9446     		mov	ip, r2
 299 019a 6344     		add	r3, r3, ip
 300 019c 1B0C     		lsrs	r3, r3, #16
 301 019e 7B63     		str	r3, [r7, #52]
 142:Api\core\src/vl53l0x_api_calibration.c **** 
 143:Api\core\src/vl53l0x_api_calibration.c **** 		if (xTalkStoredMeanRtnSpadsAsInt == 0 ||
 302              		.loc 1 143 0
 303 01a0 BB6B     		ldr	r3, [r7, #56]
 304 01a2 002B     		cmp	r3, #0
 305 01a4 06D0     		beq	.L12
ARM GAS  C:\Users\ilya\AppData\Local\Temp\ccWKU7si.s 			page 9


 306              		.loc 1 143 0 is_stmt 0 discriminator 1
 307 01a6 7B6B     		ldr	r3, [r7, #52]
 308 01a8 002B     		cmp	r3, #0
 309 01aa 03D0     		beq	.L12
 144:Api\core\src/vl53l0x_api_calibration.c **** 		   xTalkCalDistanceAsInt == 0 ||
 310              		.loc 1 144 0 is_stmt 1
 311 01ac 3A6C     		ldr	r2, [r7, #64]
 312 01ae BB68     		ldr	r3, [r7, #8]
 313 01b0 9A42     		cmp	r2, r3
 314 01b2 02D3     		bcc	.L13
 315              	.L12:
 145:Api\core\src/vl53l0x_api_calibration.c **** 		   xTalkStoredMeanRange >= XTalkCalDistance) {
 146:Api\core\src/vl53l0x_api_calibration.c **** 			XTalkCompensationRateMegaCps = 0;
 316              		.loc 1 146 0
 317 01b4 0023     		movs	r3, #0
 318 01b6 BB64     		str	r3, [r7, #72]
 319 01b8 1FE0     		b	.L14
 320              	.L13:
 147:Api\core\src/vl53l0x_api_calibration.c **** 		} else {
 148:Api\core\src/vl53l0x_api_calibration.c **** 			/* Round Cal Distance to Whole Number.
 149:Api\core\src/vl53l0x_api_calibration.c **** 			   Note that the cal distance is in mm, therefore no
 150:Api\core\src/vl53l0x_api_calibration.c **** 			   resolution is lost.*/
 151:Api\core\src/vl53l0x_api_calibration.c **** 			xTalkCalDistanceAsInt = (XTalkCalDistance +
 321              		.loc 1 151 0
 322 01ba BB68     		ldr	r3, [r7, #8]
 323 01bc 8022     		movs	r2, #128
 324 01be 1202     		lsls	r2, r2, #8
 325 01c0 9446     		mov	ip, r2
 326 01c2 6344     		add	r3, r3, ip
 327 01c4 1B0C     		lsrs	r3, r3, #16
 328 01c6 7B63     		str	r3, [r7, #52]
 152:Api\core\src/vl53l0x_api_calibration.c **** 				0x8000) >> 16;
 153:Api\core\src/vl53l0x_api_calibration.c **** 
 154:Api\core\src/vl53l0x_api_calibration.c **** 			/* Apply division by mean spad count early in the
 155:Api\core\src/vl53l0x_api_calibration.c **** 			 * calculation to keep the numbers small.
 156:Api\core\src/vl53l0x_api_calibration.c **** 			 * This ensures we can maintain a 32bit calculation.
 157:Api\core\src/vl53l0x_api_calibration.c **** 			 * Fixed1616 / int := Fixed1616 */
 158:Api\core\src/vl53l0x_api_calibration.c **** 			signalXTalkTotalPerSpad = (xTalkStoredMeanSignalRate) /
 329              		.loc 1 158 0
 330 01c8 B96B     		ldr	r1, [r7, #56]
 331 01ca 786C     		ldr	r0, [r7, #68]
 332 01cc FFF7FEFF 		bl	__aeabi_uidiv
 333 01d0 0300     		movs	r3, r0
 334 01d2 3B63     		str	r3, [r7, #48]
 159:Api\core\src/vl53l0x_api_calibration.c **** 				xTalkStoredMeanRtnSpadsAsInt;
 160:Api\core\src/vl53l0x_api_calibration.c **** 
 161:Api\core\src/vl53l0x_api_calibration.c **** 			/* Complete the calculation for total Signal XTalk per
 162:Api\core\src/vl53l0x_api_calibration.c **** 			 * SPAD
 163:Api\core\src/vl53l0x_api_calibration.c **** 			 * Fixed1616 * (Fixed1616 - Fixed1616/int) :=
 164:Api\core\src/vl53l0x_api_calibration.c **** 			 * (2^16 * Fixed1616)
 165:Api\core\src/vl53l0x_api_calibration.c **** 			 */
 166:Api\core\src/vl53l0x_api_calibration.c **** 			signalXTalkTotalPerSpad *= ((1 << 16) -
 167:Api\core\src/vl53l0x_api_calibration.c **** 				(xTalkStoredMeanRange / xTalkCalDistanceAsInt));
 335              		.loc 1 167 0
 336 01d4 796B     		ldr	r1, [r7, #52]
 337 01d6 386C     		ldr	r0, [r7, #64]
 338 01d8 FFF7FEFF 		bl	__aeabi_uidiv
ARM GAS  C:\Users\ilya\AppData\Local\Temp\ccWKU7si.s 			page 10


 339 01dc 0300     		movs	r3, r0
 340 01de 1A00     		movs	r2, r3
 166:Api\core\src/vl53l0x_api_calibration.c **** 				(xTalkStoredMeanRange / xTalkCalDistanceAsInt));
 341              		.loc 1 166 0
 342 01e0 8023     		movs	r3, #128
 343 01e2 5B02     		lsls	r3, r3, #9
 344 01e4 9A1A     		subs	r2, r3, r2
 345 01e6 3B6B     		ldr	r3, [r7, #48]
 346 01e8 5343     		muls	r3, r2
 347 01ea 3B63     		str	r3, [r7, #48]
 168:Api\core\src/vl53l0x_api_calibration.c **** 
 169:Api\core\src/vl53l0x_api_calibration.c **** 			/* Round from 2^16 * Fixed1616, to Fixed1616. */
 170:Api\core\src/vl53l0x_api_calibration.c **** 			XTalkCompensationRateMegaCps = (signalXTalkTotalPerSpad
 171:Api\core\src/vl53l0x_api_calibration.c **** 				+ 0x8000) >> 16;
 348              		.loc 1 171 0
 349 01ec 3B6B     		ldr	r3, [r7, #48]
 350 01ee 8022     		movs	r2, #128
 351 01f0 1202     		lsls	r2, r2, #8
 352 01f2 9446     		mov	ip, r2
 353 01f4 6344     		add	r3, r3, ip
 170:Api\core\src/vl53l0x_api_calibration.c **** 				+ 0x8000) >> 16;
 354              		.loc 1 170 0
 355 01f6 1B0C     		lsrs	r3, r3, #16
 356 01f8 BB64     		str	r3, [r7, #72]
 357              	.L14:
 172:Api\core\src/vl53l0x_api_calibration.c **** 		}
 173:Api\core\src/vl53l0x_api_calibration.c **** 
 174:Api\core\src/vl53l0x_api_calibration.c **** 		*pXTalkCompensationRateMegaCps = XTalkCompensationRateMegaCps;
 358              		.loc 1 174 0
 359 01fa 7B68     		ldr	r3, [r7, #4]
 360 01fc BA6C     		ldr	r2, [r7, #72]
 361 01fe 1A60     		str	r2, [r3]
 175:Api\core\src/vl53l0x_api_calibration.c **** 
 176:Api\core\src/vl53l0x_api_calibration.c **** 		/* Enable the XTalk compensation */
 177:Api\core\src/vl53l0x_api_calibration.c **** 		if (Status == VL53L0X_ERROR_NONE)
 362              		.loc 1 177 0
 363 0200 5F23     		movs	r3, #95
 364 0202 FB18     		adds	r3, r7, r3
 365 0204 1B78     		ldrb	r3, [r3]
 366 0206 5BB2     		sxtb	r3, r3
 367 0208 002B     		cmp	r3, #0
 368 020a 08D1     		bne	.L15
 178:Api\core\src/vl53l0x_api_calibration.c **** 			Status = VL53L0X_SetXTalkCompensationEnable(Dev, 1);
 369              		.loc 1 178 0
 370 020c 5F23     		movs	r3, #95
 371 020e FC18     		adds	r4, r7, r3
 372 0210 FB68     		ldr	r3, [r7, #12]
 373 0212 0121     		movs	r1, #1
 374 0214 1800     		movs	r0, r3
 375 0216 FFF7FEFF 		bl	VL53L0X_SetXTalkCompensationEnable
 376 021a 0300     		movs	r3, r0
 377 021c 2370     		strb	r3, [r4]
 378              	.L15:
 179:Api\core\src/vl53l0x_api_calibration.c **** 
 180:Api\core\src/vl53l0x_api_calibration.c **** 		/* Enable the XTalk compensation */
 181:Api\core\src/vl53l0x_api_calibration.c **** 		if (Status == VL53L0X_ERROR_NONE)
 379              		.loc 1 181 0
ARM GAS  C:\Users\ilya\AppData\Local\Temp\ccWKU7si.s 			page 11


 380 021e 5F23     		movs	r3, #95
 381 0220 FB18     		adds	r3, r7, r3
 382 0222 1B78     		ldrb	r3, [r3]
 383 0224 5BB2     		sxtb	r3, r3
 384 0226 002B     		cmp	r3, #0
 385 0228 09D1     		bne	.L11
 182:Api\core\src/vl53l0x_api_calibration.c **** 			Status = VL53L0X_SetXTalkCompensationRateMegaCps(Dev,
 386              		.loc 1 182 0
 387 022a 5F23     		movs	r3, #95
 388 022c FC18     		adds	r4, r7, r3
 389 022e BA6C     		ldr	r2, [r7, #72]
 390 0230 FB68     		ldr	r3, [r7, #12]
 391 0232 1100     		movs	r1, r2
 392 0234 1800     		movs	r0, r3
 393 0236 FFF7FEFF 		bl	VL53L0X_SetXTalkCompensationRateMegaCps
 394 023a 0300     		movs	r3, r0
 395 023c 2370     		strb	r3, [r4]
 396              	.L11:
 183:Api\core\src/vl53l0x_api_calibration.c **** 					XTalkCompensationRateMegaCps);
 184:Api\core\src/vl53l0x_api_calibration.c **** 
 185:Api\core\src/vl53l0x_api_calibration.c **** 	}
 186:Api\core\src/vl53l0x_api_calibration.c **** 
 187:Api\core\src/vl53l0x_api_calibration.c **** 	return Status;
 397              		.loc 1 187 0
 398 023e 5F23     		movs	r3, #95
 399 0240 FB18     		adds	r3, r7, r3
 400 0242 1B78     		ldrb	r3, [r3]
 401 0244 5BB2     		sxtb	r3, r3
 188:Api\core\src/vl53l0x_api_calibration.c **** }
 402              		.loc 1 188 0
 403 0246 1800     		movs	r0, r3
 404 0248 BD46     		mov	sp, r7
 405 024a 19B0     		add	sp, sp, #100
 406              		@ sp needed
 407 024c 90BD     		pop	{r4, r7, pc}
 408              		.cfi_endproc
 409              	.LFE1:
 410              		.size	VL53L0X_perform_xtalk_calibration, .-VL53L0X_perform_xtalk_calibration
 411 024e C046     		.section	.text.VL53L0X_perform_offset_calibration,"ax",%progbits
 412              		.align	2
 413              		.global	VL53L0X_perform_offset_calibration
 414              		.code	16
 415              		.thumb_func
 416              		.type	VL53L0X_perform_offset_calibration, %function
 417              	VL53L0X_perform_offset_calibration:
 418              	.LFB2:
 189:Api\core\src/vl53l0x_api_calibration.c **** 
 190:Api\core\src/vl53l0x_api_calibration.c **** VL53L0X_Error VL53L0X_perform_offset_calibration(VL53L0X_DEV Dev,
 191:Api\core\src/vl53l0x_api_calibration.c **** 			FixPoint1616_t CalDistanceMilliMeter,
 192:Api\core\src/vl53l0x_api_calibration.c **** 			int32_t *pOffsetMicroMeter)
 193:Api\core\src/vl53l0x_api_calibration.c **** {
 419              		.loc 1 193 0
 420              		.cfi_startproc
 421              		@ args = 0, pretend = 0, frame = 72
 422              		@ frame_needed = 1, uses_anonymous_args = 0
 423 0000 90B5     		push	{r4, r7, lr}
 424              		.cfi_def_cfa_offset 12
ARM GAS  C:\Users\ilya\AppData\Local\Temp\ccWKU7si.s 			page 12


 425              		.cfi_offset 4, -12
 426              		.cfi_offset 7, -8
 427              		.cfi_offset 14, -4
 428 0002 93B0     		sub	sp, sp, #76
 429              		.cfi_def_cfa_offset 88
 430 0004 00AF     		add	r7, sp, #0
 431              		.cfi_def_cfa_register 7
 432 0006 F860     		str	r0, [r7, #12]
 433 0008 B960     		str	r1, [r7, #8]
 434 000a 7A60     		str	r2, [r7, #4]
 194:Api\core\src/vl53l0x_api_calibration.c **** 	VL53L0X_Error Status = VL53L0X_ERROR_NONE;
 435              		.loc 1 194 0
 436 000c 4723     		movs	r3, #71
 437 000e FB18     		adds	r3, r7, r3
 438 0010 0022     		movs	r2, #0
 439 0012 1A70     		strb	r2, [r3]
 195:Api\core\src/vl53l0x_api_calibration.c **** 	uint16_t sum_ranging = 0;
 440              		.loc 1 195 0
 441 0014 4423     		movs	r3, #68
 442 0016 FB18     		adds	r3, r7, r3
 443 0018 0022     		movs	r2, #0
 444 001a 1A80     		strh	r2, [r3]
 196:Api\core\src/vl53l0x_api_calibration.c **** 	FixPoint1616_t total_count = 0;
 445              		.loc 1 196 0
 446 001c 0023     		movs	r3, #0
 447 001e 3B64     		str	r3, [r7, #64]
 197:Api\core\src/vl53l0x_api_calibration.c **** 	VL53L0X_RangingMeasurementData_t RangingMeasurementData;
 198:Api\core\src/vl53l0x_api_calibration.c **** 	FixPoint1616_t StoredMeanRange;
 199:Api\core\src/vl53l0x_api_calibration.c **** 	uint32_t StoredMeanRangeAsInt;
 200:Api\core\src/vl53l0x_api_calibration.c **** 	uint32_t CalDistanceAsInt_mm;
 201:Api\core\src/vl53l0x_api_calibration.c **** 	uint8_t SequenceStepEnabled;
 202:Api\core\src/vl53l0x_api_calibration.c **** 	int meas = 0;
 448              		.loc 1 202 0
 449 0020 0023     		movs	r3, #0
 450 0022 FB63     		str	r3, [r7, #60]
 203:Api\core\src/vl53l0x_api_calibration.c **** 
 204:Api\core\src/vl53l0x_api_calibration.c **** 	if (CalDistanceMilliMeter <= 0)
 451              		.loc 1 204 0
 452 0024 BB68     		ldr	r3, [r7, #8]
 453 0026 002B     		cmp	r3, #0
 454 0028 03D1     		bne	.L19
 205:Api\core\src/vl53l0x_api_calibration.c **** 		Status = VL53L0X_ERROR_INVALID_PARAMS;
 455              		.loc 1 205 0
 456 002a 4723     		movs	r3, #71
 457 002c FB18     		adds	r3, r7, r3
 458 002e FC22     		movs	r2, #252
 459 0030 1A70     		strb	r2, [r3]
 460              	.L19:
 206:Api\core\src/vl53l0x_api_calibration.c **** 
 207:Api\core\src/vl53l0x_api_calibration.c **** 	if (Status == VL53L0X_ERROR_NONE)
 461              		.loc 1 207 0
 462 0032 4723     		movs	r3, #71
 463 0034 FB18     		adds	r3, r7, r3
 464 0036 1B78     		ldrb	r3, [r3]
 465 0038 5BB2     		sxtb	r3, r3
 466 003a 002B     		cmp	r3, #0
 467 003c 08D1     		bne	.L20
ARM GAS  C:\Users\ilya\AppData\Local\Temp\ccWKU7si.s 			page 13


 208:Api\core\src/vl53l0x_api_calibration.c **** 		Status = VL53L0X_SetOffsetCalibrationDataMicroMeter(Dev, 0);
 468              		.loc 1 208 0
 469 003e 4723     		movs	r3, #71
 470 0040 FC18     		adds	r4, r7, r3
 471 0042 FB68     		ldr	r3, [r7, #12]
 472 0044 0021     		movs	r1, #0
 473 0046 1800     		movs	r0, r3
 474 0048 FFF7FEFF 		bl	VL53L0X_SetOffsetCalibrationDataMicroMeter
 475 004c 0300     		movs	r3, r0
 476 004e 2370     		strb	r3, [r4]
 477              	.L20:
 209:Api\core\src/vl53l0x_api_calibration.c **** 
 210:Api\core\src/vl53l0x_api_calibration.c **** 
 211:Api\core\src/vl53l0x_api_calibration.c **** 	/* Get the value of the TCC */
 212:Api\core\src/vl53l0x_api_calibration.c **** 	if (Status == VL53L0X_ERROR_NONE)
 478              		.loc 1 212 0
 479 0050 4723     		movs	r3, #71
 480 0052 FB18     		adds	r3, r7, r3
 481 0054 1B78     		ldrb	r3, [r3]
 482 0056 5BB2     		sxtb	r3, r3
 483 0058 002B     		cmp	r3, #0
 484 005a 0AD1     		bne	.L21
 213:Api\core\src/vl53l0x_api_calibration.c **** 		Status = VL53L0X_GetSequenceStepEnable(Dev,
 485              		.loc 1 213 0
 486 005c 4723     		movs	r3, #71
 487 005e FC18     		adds	r4, r7, r3
 488 0060 1323     		movs	r3, #19
 489 0062 FA18     		adds	r2, r7, r3
 490 0064 FB68     		ldr	r3, [r7, #12]
 491 0066 0021     		movs	r1, #0
 492 0068 1800     		movs	r0, r3
 493 006a FFF7FEFF 		bl	VL53L0X_GetSequenceStepEnable
 494 006e 0300     		movs	r3, r0
 495 0070 2370     		strb	r3, [r4]
 496              	.L21:
 214:Api\core\src/vl53l0x_api_calibration.c **** 				VL53L0X_SEQUENCESTEP_TCC, &SequenceStepEnabled);
 215:Api\core\src/vl53l0x_api_calibration.c **** 
 216:Api\core\src/vl53l0x_api_calibration.c **** 
 217:Api\core\src/vl53l0x_api_calibration.c **** 	/* Disable the TCC */
 218:Api\core\src/vl53l0x_api_calibration.c **** 	if (Status == VL53L0X_ERROR_NONE)
 497              		.loc 1 218 0
 498 0072 4723     		movs	r3, #71
 499 0074 FB18     		adds	r3, r7, r3
 500 0076 1B78     		ldrb	r3, [r3]
 501 0078 5BB2     		sxtb	r3, r3
 502 007a 002B     		cmp	r3, #0
 503 007c 09D1     		bne	.L22
 219:Api\core\src/vl53l0x_api_calibration.c **** 		Status = VL53L0X_SetSequenceStepEnable(Dev,
 504              		.loc 1 219 0
 505 007e 4723     		movs	r3, #71
 506 0080 FC18     		adds	r4, r7, r3
 507 0082 FB68     		ldr	r3, [r7, #12]
 508 0084 0022     		movs	r2, #0
 509 0086 0021     		movs	r1, #0
 510 0088 1800     		movs	r0, r3
 511 008a FFF7FEFF 		bl	VL53L0X_SetSequenceStepEnable
 512 008e 0300     		movs	r3, r0
ARM GAS  C:\Users\ilya\AppData\Local\Temp\ccWKU7si.s 			page 14


 513 0090 2370     		strb	r3, [r4]
 514              	.L22:
 220:Api\core\src/vl53l0x_api_calibration.c **** 				VL53L0X_SEQUENCESTEP_TCC, 0);
 221:Api\core\src/vl53l0x_api_calibration.c **** 
 222:Api\core\src/vl53l0x_api_calibration.c **** 
 223:Api\core\src/vl53l0x_api_calibration.c **** 	/* Disable the RIT */
 224:Api\core\src/vl53l0x_api_calibration.c **** 	if (Status == VL53L0X_ERROR_NONE)
 515              		.loc 1 224 0
 516 0092 4723     		movs	r3, #71
 517 0094 FB18     		adds	r3, r7, r3
 518 0096 1B78     		ldrb	r3, [r3]
 519 0098 5BB2     		sxtb	r3, r3
 520 009a 002B     		cmp	r3, #0
 521 009c 09D1     		bne	.L23
 225:Api\core\src/vl53l0x_api_calibration.c **** 		Status = VL53L0X_SetLimitCheckEnable(Dev,
 522              		.loc 1 225 0
 523 009e 4723     		movs	r3, #71
 524 00a0 FC18     		adds	r4, r7, r3
 525 00a2 FB68     		ldr	r3, [r7, #12]
 526 00a4 0022     		movs	r2, #0
 527 00a6 0321     		movs	r1, #3
 528 00a8 1800     		movs	r0, r3
 529 00aa FFF7FEFF 		bl	VL53L0X_SetLimitCheckEnable
 530 00ae 0300     		movs	r3, r0
 531 00b0 2370     		strb	r3, [r4]
 532              	.L23:
 226:Api\core\src/vl53l0x_api_calibration.c **** 				VL53L0X_CHECKENABLE_RANGE_IGNORE_THRESHOLD, 0);
 227:Api\core\src/vl53l0x_api_calibration.c **** 
 228:Api\core\src/vl53l0x_api_calibration.c **** 	/* Perform 50 measurements and compute the averages */
 229:Api\core\src/vl53l0x_api_calibration.c **** 	if (Status == VL53L0X_ERROR_NONE) {
 533              		.loc 1 229 0
 534 00b2 4723     		movs	r3, #71
 535 00b4 FB18     		adds	r3, r7, r3
 536 00b6 1B78     		ldrb	r3, [r3]
 537 00b8 5BB2     		sxtb	r3, r3
 538 00ba 002B     		cmp	r3, #0
 539 00bc 3AD1     		bne	.L24
 230:Api\core\src/vl53l0x_api_calibration.c **** 		sum_ranging = 0;
 540              		.loc 1 230 0
 541 00be 4423     		movs	r3, #68
 542 00c0 FB18     		adds	r3, r7, r3
 543 00c2 0022     		movs	r2, #0
 544 00c4 1A80     		strh	r2, [r3]
 231:Api\core\src/vl53l0x_api_calibration.c **** 		total_count = 0;
 545              		.loc 1 231 0
 546 00c6 0023     		movs	r3, #0
 547 00c8 3B64     		str	r3, [r7, #64]
 232:Api\core\src/vl53l0x_api_calibration.c **** 		for (meas = 0; meas < 50; meas++) {
 548              		.loc 1 232 0
 549 00ca 0023     		movs	r3, #0
 550 00cc FB63     		str	r3, [r7, #60]
 551 00ce 25E0     		b	.L25
 552              	.L29:
 233:Api\core\src/vl53l0x_api_calibration.c **** 			Status = VL53L0X_PerformSingleRangingMeasurement(Dev,
 553              		.loc 1 233 0
 554 00d0 4723     		movs	r3, #71
 555 00d2 FC18     		adds	r4, r7, r3
ARM GAS  C:\Users\ilya\AppData\Local\Temp\ccWKU7si.s 			page 15


 556 00d4 1423     		movs	r3, #20
 557 00d6 FA18     		adds	r2, r7, r3
 558 00d8 FB68     		ldr	r3, [r7, #12]
 559 00da 1100     		movs	r1, r2
 560 00dc 1800     		movs	r0, r3
 561 00de FFF7FEFF 		bl	VL53L0X_PerformSingleRangingMeasurement
 562 00e2 0300     		movs	r3, r0
 563 00e4 2370     		strb	r3, [r4]
 234:Api\core\src/vl53l0x_api_calibration.c **** 					&RangingMeasurementData);
 235:Api\core\src/vl53l0x_api_calibration.c **** 
 236:Api\core\src/vl53l0x_api_calibration.c **** 			if (Status != VL53L0X_ERROR_NONE)
 564              		.loc 1 236 0
 565 00e6 4723     		movs	r3, #71
 566 00e8 FB18     		adds	r3, r7, r3
 567 00ea 1B78     		ldrb	r3, [r3]
 568 00ec 5BB2     		sxtb	r3, r3
 569 00ee 002B     		cmp	r3, #0
 570 00f0 18D1     		bne	.L33
 237:Api\core\src/vl53l0x_api_calibration.c **** 				break;
 238:Api\core\src/vl53l0x_api_calibration.c **** 
 239:Api\core\src/vl53l0x_api_calibration.c **** 			/* The range is valid when RangeStatus = 0 */
 240:Api\core\src/vl53l0x_api_calibration.c **** 			if (RangingMeasurementData.RangeStatus == 0) {
 571              		.loc 1 240 0
 572 00f2 1423     		movs	r3, #20
 573 00f4 FB18     		adds	r3, r7, r3
 574 00f6 1B7E     		ldrb	r3, [r3, #24]
 575 00f8 002B     		cmp	r3, #0
 576 00fa 0CD1     		bne	.L28
 241:Api\core\src/vl53l0x_api_calibration.c **** 				sum_ranging = sum_ranging +
 242:Api\core\src/vl53l0x_api_calibration.c **** 					RangingMeasurementData.RangeMilliMeter;
 577              		.loc 1 242 0
 578 00fc 1423     		movs	r3, #20
 579 00fe FB18     		adds	r3, r7, r3
 580 0100 1989     		ldrh	r1, [r3, #8]
 241:Api\core\src/vl53l0x_api_calibration.c **** 				sum_ranging = sum_ranging +
 581              		.loc 1 241 0
 582 0102 4423     		movs	r3, #68
 583 0104 FB18     		adds	r3, r7, r3
 584 0106 4422     		movs	r2, #68
 585 0108 BA18     		adds	r2, r7, r2
 586 010a 1288     		ldrh	r2, [r2]
 587 010c 8A18     		adds	r2, r1, r2
 588 010e 1A80     		strh	r2, [r3]
 243:Api\core\src/vl53l0x_api_calibration.c **** 				total_count = total_count + 1;
 589              		.loc 1 243 0
 590 0110 3B6C     		ldr	r3, [r7, #64]
 591 0112 0133     		adds	r3, r3, #1
 592 0114 3B64     		str	r3, [r7, #64]
 593              	.L28:
 232:Api\core\src/vl53l0x_api_calibration.c **** 			Status = VL53L0X_PerformSingleRangingMeasurement(Dev,
 594              		.loc 1 232 0 discriminator 2
 595 0116 FB6B     		ldr	r3, [r7, #60]
 596 0118 0133     		adds	r3, r3, #1
 597 011a FB63     		str	r3, [r7, #60]
 598              	.L25:
 232:Api\core\src/vl53l0x_api_calibration.c **** 			Status = VL53L0X_PerformSingleRangingMeasurement(Dev,
 599              		.loc 1 232 0 is_stmt 0 discriminator 1
ARM GAS  C:\Users\ilya\AppData\Local\Temp\ccWKU7si.s 			page 16


 600 011c FB6B     		ldr	r3, [r7, #60]
 601 011e 312B     		cmp	r3, #49
 602 0120 D6DD     		ble	.L29
 603 0122 00E0     		b	.L27
 604              	.L33:
 237:Api\core\src/vl53l0x_api_calibration.c **** 
 605              		.loc 1 237 0 is_stmt 1
 606 0124 C046     		nop
 607              	.L27:
 244:Api\core\src/vl53l0x_api_calibration.c **** 			}
 245:Api\core\src/vl53l0x_api_calibration.c **** 		}
 246:Api\core\src/vl53l0x_api_calibration.c **** 
 247:Api\core\src/vl53l0x_api_calibration.c **** 		/* no valid values found */
 248:Api\core\src/vl53l0x_api_calibration.c **** 		if (total_count == 0)
 608              		.loc 1 248 0
 609 0126 3B6C     		ldr	r3, [r7, #64]
 610 0128 002B     		cmp	r3, #0
 611 012a 03D1     		bne	.L24
 249:Api\core\src/vl53l0x_api_calibration.c **** 			Status = VL53L0X_ERROR_RANGE_ERROR;
 612              		.loc 1 249 0
 613 012c 4723     		movs	r3, #71
 614 012e FB18     		adds	r3, r7, r3
 615 0130 FA22     		movs	r2, #250
 616 0132 1A70     		strb	r2, [r3]
 617              	.L24:
 250:Api\core\src/vl53l0x_api_calibration.c **** 	}
 251:Api\core\src/vl53l0x_api_calibration.c **** 
 252:Api\core\src/vl53l0x_api_calibration.c **** 
 253:Api\core\src/vl53l0x_api_calibration.c **** 	if (Status == VL53L0X_ERROR_NONE) {
 618              		.loc 1 253 0
 619 0134 4723     		movs	r3, #71
 620 0136 FB18     		adds	r3, r7, r3
 621 0138 1B78     		ldrb	r3, [r3]
 622 013a 5BB2     		sxtb	r3, r3
 623 013c 002B     		cmp	r3, #0
 624 013e 35D1     		bne	.L30
 254:Api\core\src/vl53l0x_api_calibration.c **** 		/* FixPoint1616_t / uint16_t = FixPoint1616_t */
 255:Api\core\src/vl53l0x_api_calibration.c **** 		StoredMeanRange = (FixPoint1616_t)((uint32_t)(sum_ranging << 16)
 625              		.loc 1 255 0
 626 0140 4423     		movs	r3, #68
 627 0142 FB18     		adds	r3, r7, r3
 628 0144 1B88     		ldrh	r3, [r3]
 629 0146 1B04     		lsls	r3, r3, #16
 630 0148 396C     		ldr	r1, [r7, #64]
 631 014a 1800     		movs	r0, r3
 632 014c FFF7FEFF 		bl	__aeabi_uidiv
 633 0150 0300     		movs	r3, r0
 634 0152 BB63     		str	r3, [r7, #56]
 256:Api\core\src/vl53l0x_api_calibration.c **** 			/ total_count);
 257:Api\core\src/vl53l0x_api_calibration.c **** 
 258:Api\core\src/vl53l0x_api_calibration.c **** 		StoredMeanRangeAsInt = (StoredMeanRange + 0x8000) >> 16;
 635              		.loc 1 258 0
 636 0154 BB6B     		ldr	r3, [r7, #56]
 637 0156 8022     		movs	r2, #128
 638 0158 1202     		lsls	r2, r2, #8
 639 015a 9446     		mov	ip, r2
 640 015c 6344     		add	r3, r3, ip
ARM GAS  C:\Users\ilya\AppData\Local\Temp\ccWKU7si.s 			page 17


 641 015e 1B0C     		lsrs	r3, r3, #16
 642 0160 7B63     		str	r3, [r7, #52]
 259:Api\core\src/vl53l0x_api_calibration.c **** 
 260:Api\core\src/vl53l0x_api_calibration.c **** 		/* Round Cal Distance to Whole Number.
 261:Api\core\src/vl53l0x_api_calibration.c **** 		 * Note that the cal distance is in mm, therefore no resolution
 262:Api\core\src/vl53l0x_api_calibration.c **** 		 * is lost.*/
 263:Api\core\src/vl53l0x_api_calibration.c **** 		 CalDistanceAsInt_mm = (CalDistanceMilliMeter + 0x8000) >> 16;
 643              		.loc 1 263 0
 644 0162 BB68     		ldr	r3, [r7, #8]
 645 0164 8022     		movs	r2, #128
 646 0166 1202     		lsls	r2, r2, #8
 647 0168 9446     		mov	ip, r2
 648 016a 6344     		add	r3, r3, ip
 649 016c 1B0C     		lsrs	r3, r3, #16
 650 016e 3B63     		str	r3, [r7, #48]
 264:Api\core\src/vl53l0x_api_calibration.c **** 
 265:Api\core\src/vl53l0x_api_calibration.c **** 		 *pOffsetMicroMeter = (CalDistanceAsInt_mm -
 651              		.loc 1 265 0
 652 0170 3A6B     		ldr	r2, [r7, #48]
 653 0172 7B6B     		ldr	r3, [r7, #52]
 654 0174 D31A     		subs	r3, r2, r3
 266:Api\core\src/vl53l0x_api_calibration.c **** 				 StoredMeanRangeAsInt) * 1000;
 655              		.loc 1 266 0
 656 0176 FA22     		movs	r2, #250
 657 0178 9200     		lsls	r2, r2, #2
 658 017a 5343     		muls	r3, r2
 265:Api\core\src/vl53l0x_api_calibration.c **** 				 StoredMeanRangeAsInt) * 1000;
 659              		.loc 1 265 0
 660 017c 1A00     		movs	r2, r3
 661 017e 7B68     		ldr	r3, [r7, #4]
 662 0180 1A60     		str	r2, [r3]
 267:Api\core\src/vl53l0x_api_calibration.c **** 
 268:Api\core\src/vl53l0x_api_calibration.c **** 		/* Apply the calculated offset */
 269:Api\core\src/vl53l0x_api_calibration.c **** 		if (Status == VL53L0X_ERROR_NONE) {
 663              		.loc 1 269 0
 664 0182 4723     		movs	r3, #71
 665 0184 FB18     		adds	r3, r7, r3
 666 0186 1B78     		ldrb	r3, [r3]
 667 0188 5BB2     		sxtb	r3, r3
 668 018a 002B     		cmp	r3, #0
 669 018c 0ED1     		bne	.L30
 270:Api\core\src/vl53l0x_api_calibration.c **** 			VL53L0X_SETPARAMETERFIELD(Dev, RangeOffsetMicroMeters,
 670              		.loc 1 270 0
 671 018e 7B68     		ldr	r3, [r7, #4]
 672 0190 1A68     		ldr	r2, [r3]
 673 0192 FB68     		ldr	r3, [r7, #12]
 674 0194 5A62     		str	r2, [r3, #36]
 271:Api\core\src/vl53l0x_api_calibration.c **** 					*pOffsetMicroMeter);
 272:Api\core\src/vl53l0x_api_calibration.c **** 			Status = VL53L0X_SetOffsetCalibrationDataMicroMeter(Dev,
 675              		.loc 1 272 0
 676 0196 7B68     		ldr	r3, [r7, #4]
 677 0198 1A68     		ldr	r2, [r3]
 678 019a 4723     		movs	r3, #71
 679 019c FC18     		adds	r4, r7, r3
 680 019e FB68     		ldr	r3, [r7, #12]
 681 01a0 1100     		movs	r1, r2
 682 01a2 1800     		movs	r0, r3
ARM GAS  C:\Users\ilya\AppData\Local\Temp\ccWKU7si.s 			page 18


 683 01a4 FFF7FEFF 		bl	VL53L0X_SetOffsetCalibrationDataMicroMeter
 684 01a8 0300     		movs	r3, r0
 685 01aa 2370     		strb	r3, [r4]
 686              	.L30:
 273:Api\core\src/vl53l0x_api_calibration.c **** 					*pOffsetMicroMeter);
 274:Api\core\src/vl53l0x_api_calibration.c **** 		}
 275:Api\core\src/vl53l0x_api_calibration.c **** 
 276:Api\core\src/vl53l0x_api_calibration.c **** 	}
 277:Api\core\src/vl53l0x_api_calibration.c **** 
 278:Api\core\src/vl53l0x_api_calibration.c **** 	/* Restore the TCC */
 279:Api\core\src/vl53l0x_api_calibration.c **** 	if (Status == VL53L0X_ERROR_NONE) {
 687              		.loc 1 279 0
 688 01ac 4723     		movs	r3, #71
 689 01ae FB18     		adds	r3, r7, r3
 690 01b0 1B78     		ldrb	r3, [r3]
 691 01b2 5BB2     		sxtb	r3, r3
 692 01b4 002B     		cmp	r3, #0
 693 01b6 0ED1     		bne	.L31
 280:Api\core\src/vl53l0x_api_calibration.c **** 		if (SequenceStepEnabled != 0)
 694              		.loc 1 280 0
 695 01b8 1323     		movs	r3, #19
 696 01ba FB18     		adds	r3, r7, r3
 697 01bc 1B78     		ldrb	r3, [r3]
 698 01be 002B     		cmp	r3, #0
 699 01c0 09D0     		beq	.L31
 281:Api\core\src/vl53l0x_api_calibration.c **** 			Status = VL53L0X_SetSequenceStepEnable(Dev,
 700              		.loc 1 281 0
 701 01c2 4723     		movs	r3, #71
 702 01c4 FC18     		adds	r4, r7, r3
 703 01c6 FB68     		ldr	r3, [r7, #12]
 704 01c8 0122     		movs	r2, #1
 705 01ca 0021     		movs	r1, #0
 706 01cc 1800     		movs	r0, r3
 707 01ce FFF7FEFF 		bl	VL53L0X_SetSequenceStepEnable
 708 01d2 0300     		movs	r3, r0
 709 01d4 2370     		strb	r3, [r4]
 710              	.L31:
 282:Api\core\src/vl53l0x_api_calibration.c **** 					VL53L0X_SEQUENCESTEP_TCC, 1);
 283:Api\core\src/vl53l0x_api_calibration.c **** 	}
 284:Api\core\src/vl53l0x_api_calibration.c **** 
 285:Api\core\src/vl53l0x_api_calibration.c **** 	return Status;
 711              		.loc 1 285 0
 712 01d6 4723     		movs	r3, #71
 713 01d8 FB18     		adds	r3, r7, r3
 714 01da 1B78     		ldrb	r3, [r3]
 715 01dc 5BB2     		sxtb	r3, r3
 286:Api\core\src/vl53l0x_api_calibration.c **** }
 716              		.loc 1 286 0
 717 01de 1800     		movs	r0, r3
 718 01e0 BD46     		mov	sp, r7
 719 01e2 13B0     		add	sp, sp, #76
 720              		@ sp needed
 721 01e4 90BD     		pop	{r4, r7, pc}
 722              		.cfi_endproc
 723              	.LFE2:
 724              		.size	VL53L0X_perform_offset_calibration, .-VL53L0X_perform_offset_calibration
 725              		.global	__aeabi_idiv
ARM GAS  C:\Users\ilya\AppData\Local\Temp\ccWKU7si.s 			page 19


 726 01e6 C046     		.section	.text.VL53L0X_set_offset_calibration_data_micro_meter,"ax",%progbits
 727              		.align	2
 728              		.global	VL53L0X_set_offset_calibration_data_micro_meter
 729              		.code	16
 730              		.thumb_func
 731              		.type	VL53L0X_set_offset_calibration_data_micro_meter, %function
 732              	VL53L0X_set_offset_calibration_data_micro_meter:
 733              	.LFB3:
 287:Api\core\src/vl53l0x_api_calibration.c **** 
 288:Api\core\src/vl53l0x_api_calibration.c **** 
 289:Api\core\src/vl53l0x_api_calibration.c **** VL53L0X_Error VL53L0X_set_offset_calibration_data_micro_meter(VL53L0X_DEV Dev,
 290:Api\core\src/vl53l0x_api_calibration.c **** 		int32_t OffsetCalibrationDataMicroMeter)
 291:Api\core\src/vl53l0x_api_calibration.c **** {
 734              		.loc 1 291 0
 735              		.cfi_startproc
 736              		@ args = 0, pretend = 0, frame = 32
 737              		@ frame_needed = 1, uses_anonymous_args = 0
 738 0000 90B5     		push	{r4, r7, lr}
 739              		.cfi_def_cfa_offset 12
 740              		.cfi_offset 4, -12
 741              		.cfi_offset 7, -8
 742              		.cfi_offset 14, -4
 743 0002 89B0     		sub	sp, sp, #36
 744              		.cfi_def_cfa_offset 48
 745 0004 00AF     		add	r7, sp, #0
 746              		.cfi_def_cfa_register 7
 747 0006 7860     		str	r0, [r7, #4]
 748 0008 3960     		str	r1, [r7]
 292:Api\core\src/vl53l0x_api_calibration.c **** 	VL53L0X_Error Status = VL53L0X_ERROR_NONE;
 749              		.loc 1 292 0
 750 000a 1B23     		movs	r3, #27
 751 000c FB18     		adds	r3, r7, r3
 752 000e 0022     		movs	r2, #0
 753 0010 1A70     		strb	r2, [r3]
 293:Api\core\src/vl53l0x_api_calibration.c **** 	int32_t cMaxOffsetMicroMeter = 511000;
 754              		.loc 1 293 0
 755 0012 204B     		ldr	r3, .L40
 756 0014 7B61     		str	r3, [r7, #20]
 294:Api\core\src/vl53l0x_api_calibration.c **** 	int32_t cMinOffsetMicroMeter = -512000;
 757              		.loc 1 294 0
 758 0016 204B     		ldr	r3, .L40+4
 759 0018 3B61     		str	r3, [r7, #16]
 295:Api\core\src/vl53l0x_api_calibration.c **** 	int16_t cOffsetRange = 4096;
 760              		.loc 1 295 0
 761 001a 0E23     		movs	r3, #14
 762 001c FB18     		adds	r3, r7, r3
 763 001e 8022     		movs	r2, #128
 764 0020 5201     		lsls	r2, r2, #5
 765 0022 1A80     		strh	r2, [r3]
 296:Api\core\src/vl53l0x_api_calibration.c **** 	uint32_t encodedOffsetVal;
 297:Api\core\src/vl53l0x_api_calibration.c **** 
 298:Api\core\src/vl53l0x_api_calibration.c **** 	LOG_FUNCTION_START("");
 299:Api\core\src/vl53l0x_api_calibration.c **** 
 300:Api\core\src/vl53l0x_api_calibration.c **** 	if (OffsetCalibrationDataMicroMeter > cMaxOffsetMicroMeter)
 766              		.loc 1 300 0
 767 0024 3A68     		ldr	r2, [r7]
 768 0026 7B69     		ldr	r3, [r7, #20]
ARM GAS  C:\Users\ilya\AppData\Local\Temp\ccWKU7si.s 			page 20


 769 0028 9A42     		cmp	r2, r3
 770 002a 02DD     		ble	.L35
 301:Api\core\src/vl53l0x_api_calibration.c **** 		OffsetCalibrationDataMicroMeter = cMaxOffsetMicroMeter;
 771              		.loc 1 301 0
 772 002c 7B69     		ldr	r3, [r7, #20]
 773 002e 3B60     		str	r3, [r7]
 774 0030 05E0     		b	.L36
 775              	.L35:
 302:Api\core\src/vl53l0x_api_calibration.c **** 	else if (OffsetCalibrationDataMicroMeter < cMinOffsetMicroMeter)
 776              		.loc 1 302 0
 777 0032 3A68     		ldr	r2, [r7]
 778 0034 3B69     		ldr	r3, [r7, #16]
 779 0036 9A42     		cmp	r2, r3
 780 0038 01DA     		bge	.L36
 303:Api\core\src/vl53l0x_api_calibration.c **** 		OffsetCalibrationDataMicroMeter = cMinOffsetMicroMeter;
 781              		.loc 1 303 0
 782 003a 3B69     		ldr	r3, [r7, #16]
 783 003c 3B60     		str	r3, [r7]
 784              	.L36:
 304:Api\core\src/vl53l0x_api_calibration.c **** 
 305:Api\core\src/vl53l0x_api_calibration.c **** 	/* The offset register is 10.2 format and units are mm
 306:Api\core\src/vl53l0x_api_calibration.c **** 	 * therefore conversion is applied by a division of
 307:Api\core\src/vl53l0x_api_calibration.c **** 	 * 250.
 308:Api\core\src/vl53l0x_api_calibration.c **** 	 */
 309:Api\core\src/vl53l0x_api_calibration.c **** 	if (OffsetCalibrationDataMicroMeter >= 0) {
 785              		.loc 1 309 0
 786 003e 3B68     		ldr	r3, [r7]
 787 0040 002B     		cmp	r3, #0
 788 0042 07DB     		blt	.L37
 310:Api\core\src/vl53l0x_api_calibration.c **** 		encodedOffsetVal =
 311:Api\core\src/vl53l0x_api_calibration.c **** 			OffsetCalibrationDataMicroMeter/250;
 789              		.loc 1 311 0
 790 0044 3B68     		ldr	r3, [r7]
 791 0046 FA21     		movs	r1, #250
 792 0048 1800     		movs	r0, r3
 793 004a FFF7FEFF 		bl	__aeabi_idiv
 794 004e 0300     		movs	r3, r0
 310:Api\core\src/vl53l0x_api_calibration.c **** 		encodedOffsetVal =
 795              		.loc 1 310 0
 796 0050 FB61     		str	r3, [r7, #28]
 797 0052 0BE0     		b	.L38
 798              	.L37:
 312:Api\core\src/vl53l0x_api_calibration.c **** 	} else {
 313:Api\core\src/vl53l0x_api_calibration.c **** 		encodedOffsetVal =
 314:Api\core\src/vl53l0x_api_calibration.c **** 			cOffsetRange +
 799              		.loc 1 314 0
 800 0054 0E23     		movs	r3, #14
 801 0056 FB18     		adds	r3, r7, r3
 802 0058 0024     		movs	r4, #0
 803 005a 1C5F     		ldrsh	r4, [r3, r4]
 315:Api\core\src/vl53l0x_api_calibration.c **** 			OffsetCalibrationDataMicroMeter/250;
 804              		.loc 1 315 0
 805 005c 3B68     		ldr	r3, [r7]
 806 005e FA21     		movs	r1, #250
 807 0060 1800     		movs	r0, r3
 808 0062 FFF7FEFF 		bl	__aeabi_idiv
 809 0066 0300     		movs	r3, r0
ARM GAS  C:\Users\ilya\AppData\Local\Temp\ccWKU7si.s 			page 21


 314:Api\core\src/vl53l0x_api_calibration.c **** 			OffsetCalibrationDataMicroMeter/250;
 810              		.loc 1 314 0
 811 0068 E318     		adds	r3, r4, r3
 313:Api\core\src/vl53l0x_api_calibration.c **** 			cOffsetRange +
 812              		.loc 1 313 0
 813 006a FB61     		str	r3, [r7, #28]
 814              	.L38:
 316:Api\core\src/vl53l0x_api_calibration.c **** 	}
 317:Api\core\src/vl53l0x_api_calibration.c **** 
 318:Api\core\src/vl53l0x_api_calibration.c **** 	Status = VL53L0X_WrWord(Dev,
 815              		.loc 1 318 0
 816 006c FB69     		ldr	r3, [r7, #28]
 817 006e 9AB2     		uxth	r2, r3
 818 0070 1B23     		movs	r3, #27
 819 0072 FC18     		adds	r4, r7, r3
 820 0074 7B68     		ldr	r3, [r7, #4]
 821 0076 2821     		movs	r1, #40
 822 0078 1800     		movs	r0, r3
 823 007a FFF7FEFF 		bl	VL53L0X_WrWord
 824 007e 0300     		movs	r3, r0
 825 0080 2370     		strb	r3, [r4]
 319:Api\core\src/vl53l0x_api_calibration.c **** 		VL53L0X_REG_ALGO_PART_TO_PART_RANGE_OFFSET_MM,
 320:Api\core\src/vl53l0x_api_calibration.c **** 		encodedOffsetVal);
 321:Api\core\src/vl53l0x_api_calibration.c **** 
 322:Api\core\src/vl53l0x_api_calibration.c **** 	LOG_FUNCTION_END(Status);
 323:Api\core\src/vl53l0x_api_calibration.c **** 	return Status;
 826              		.loc 1 323 0
 827 0082 1B23     		movs	r3, #27
 828 0084 FB18     		adds	r3, r7, r3
 829 0086 1B78     		ldrb	r3, [r3]
 830 0088 5BB2     		sxtb	r3, r3
 324:Api\core\src/vl53l0x_api_calibration.c **** }
 831              		.loc 1 324 0
 832 008a 1800     		movs	r0, r3
 833 008c BD46     		mov	sp, r7
 834 008e 09B0     		add	sp, sp, #36
 835              		@ sp needed
 836 0090 90BD     		pop	{r4, r7, pc}
 837              	.L41:
 838 0092 C046     		.align	2
 839              	.L40:
 840 0094 18CC0700 		.word	511000
 841 0098 0030F8FF 		.word	-512000
 842              		.cfi_endproc
 843              	.LFE3:
 844              		.size	VL53L0X_set_offset_calibration_data_micro_meter, .-VL53L0X_set_offset_calibration_data_micro
 845              		.section	.text.VL53L0X_get_offset_calibration_data_micro_meter,"ax",%progbits
 846              		.align	2
 847              		.global	VL53L0X_get_offset_calibration_data_micro_meter
 848              		.code	16
 849              		.thumb_func
 850              		.type	VL53L0X_get_offset_calibration_data_micro_meter, %function
 851              	VL53L0X_get_offset_calibration_data_micro_meter:
 852              	.LFB4:
 325:Api\core\src/vl53l0x_api_calibration.c **** 
 326:Api\core\src/vl53l0x_api_calibration.c **** VL53L0X_Error VL53L0X_get_offset_calibration_data_micro_meter(VL53L0X_DEV Dev,
 327:Api\core\src/vl53l0x_api_calibration.c **** 		int32_t *pOffsetCalibrationDataMicroMeter)
ARM GAS  C:\Users\ilya\AppData\Local\Temp\ccWKU7si.s 			page 22


 328:Api\core\src/vl53l0x_api_calibration.c **** {
 853              		.loc 1 328 0
 854              		.cfi_startproc
 855              		@ args = 0, pretend = 0, frame = 16
 856              		@ frame_needed = 1, uses_anonymous_args = 0
 857 0000 90B5     		push	{r4, r7, lr}
 858              		.cfi_def_cfa_offset 12
 859              		.cfi_offset 4, -12
 860              		.cfi_offset 7, -8
 861              		.cfi_offset 14, -4
 862 0002 85B0     		sub	sp, sp, #20
 863              		.cfi_def_cfa_offset 32
 864 0004 00AF     		add	r7, sp, #0
 865              		.cfi_def_cfa_register 7
 866 0006 7860     		str	r0, [r7, #4]
 867 0008 3960     		str	r1, [r7]
 329:Api\core\src/vl53l0x_api_calibration.c **** 	VL53L0X_Error Status = VL53L0X_ERROR_NONE;
 868              		.loc 1 329 0
 869 000a 0F23     		movs	r3, #15
 870 000c FB18     		adds	r3, r7, r3
 871 000e 0022     		movs	r2, #0
 872 0010 1A70     		strb	r2, [r3]
 330:Api\core\src/vl53l0x_api_calibration.c **** 	uint16_t RangeOffsetRegister;
 331:Api\core\src/vl53l0x_api_calibration.c **** 	int16_t cMaxOffset = 2047;
 873              		.loc 1 331 0
 874 0012 0C23     		movs	r3, #12
 875 0014 FB18     		adds	r3, r7, r3
 876 0016 254A     		ldr	r2, .L46
 877 0018 1A80     		strh	r2, [r3]
 332:Api\core\src/vl53l0x_api_calibration.c **** 	int16_t cOffsetRange = 4096;
 878              		.loc 1 332 0
 879 001a 0A23     		movs	r3, #10
 880 001c FB18     		adds	r3, r7, r3
 881 001e 8022     		movs	r2, #128
 882 0020 5201     		lsls	r2, r2, #5
 883 0022 1A80     		strh	r2, [r3]
 333:Api\core\src/vl53l0x_api_calibration.c **** 
 334:Api\core\src/vl53l0x_api_calibration.c **** 	/* Note that offset has 10.2 format */
 335:Api\core\src/vl53l0x_api_calibration.c **** 
 336:Api\core\src/vl53l0x_api_calibration.c **** 	Status = VL53L0X_RdWord(Dev,
 884              		.loc 1 336 0
 885 0024 0F23     		movs	r3, #15
 886 0026 FC18     		adds	r4, r7, r3
 887 0028 0823     		movs	r3, #8
 888 002a FA18     		adds	r2, r7, r3
 889 002c 7B68     		ldr	r3, [r7, #4]
 890 002e 2821     		movs	r1, #40
 891 0030 1800     		movs	r0, r3
 892 0032 FFF7FEFF 		bl	VL53L0X_RdWord
 893 0036 0300     		movs	r3, r0
 894 0038 2370     		strb	r3, [r4]
 337:Api\core\src/vl53l0x_api_calibration.c **** 				VL53L0X_REG_ALGO_PART_TO_PART_RANGE_OFFSET_MM,
 338:Api\core\src/vl53l0x_api_calibration.c **** 				&RangeOffsetRegister);
 339:Api\core\src/vl53l0x_api_calibration.c **** 
 340:Api\core\src/vl53l0x_api_calibration.c **** 	if (Status == VL53L0X_ERROR_NONE) {
 895              		.loc 1 340 0
 896 003a 0F23     		movs	r3, #15
ARM GAS  C:\Users\ilya\AppData\Local\Temp\ccWKU7si.s 			page 23


 897 003c FB18     		adds	r3, r7, r3
 898 003e 1B78     		ldrb	r3, [r3]
 899 0040 5BB2     		sxtb	r3, r3
 900 0042 002B     		cmp	r3, #0
 901 0044 2AD1     		bne	.L43
 341:Api\core\src/vl53l0x_api_calibration.c **** 		RangeOffsetRegister = (RangeOffsetRegister & 0x0fff);
 902              		.loc 1 341 0
 903 0046 0823     		movs	r3, #8
 904 0048 FB18     		adds	r3, r7, r3
 905 004a 1B88     		ldrh	r3, [r3]
 906 004c 1B05     		lsls	r3, r3, #20
 907 004e 1B0D     		lsrs	r3, r3, #20
 908 0050 9AB2     		uxth	r2, r3
 909 0052 0823     		movs	r3, #8
 910 0054 FB18     		adds	r3, r7, r3
 911 0056 1A80     		strh	r2, [r3]
 342:Api\core\src/vl53l0x_api_calibration.c **** 
 343:Api\core\src/vl53l0x_api_calibration.c **** 		/* Apply 12 bit 2's compliment conversion */
 344:Api\core\src/vl53l0x_api_calibration.c **** 		if (RangeOffsetRegister > cMaxOffset)
 912              		.loc 1 344 0
 913 0058 0823     		movs	r3, #8
 914 005a FB18     		adds	r3, r7, r3
 915 005c 1B88     		ldrh	r3, [r3]
 916 005e 1A00     		movs	r2, r3
 917 0060 0C23     		movs	r3, #12
 918 0062 FB18     		adds	r3, r7, r3
 919 0064 0021     		movs	r1, #0
 920 0066 5B5E     		ldrsh	r3, [r3, r1]
 921 0068 9A42     		cmp	r2, r3
 922 006a 0EDD     		ble	.L44
 345:Api\core\src/vl53l0x_api_calibration.c **** 			*pOffsetCalibrationDataMicroMeter =
 346:Api\core\src/vl53l0x_api_calibration.c **** 				(int16_t)(RangeOffsetRegister - cOffsetRange)
 923              		.loc 1 346 0
 924 006c 0823     		movs	r3, #8
 925 006e FB18     		adds	r3, r7, r3
 926 0070 1A88     		ldrh	r2, [r3]
 927 0072 0A23     		movs	r3, #10
 928 0074 FB18     		adds	r3, r7, r3
 929 0076 1B88     		ldrh	r3, [r3]
 930 0078 D31A     		subs	r3, r2, r3
 931 007a 9BB2     		uxth	r3, r3
 932 007c 1BB2     		sxth	r3, r3
 345:Api\core\src/vl53l0x_api_calibration.c **** 			*pOffsetCalibrationDataMicroMeter =
 933              		.loc 1 345 0
 934 007e 1A00     		movs	r2, r3
 347:Api\core\src/vl53l0x_api_calibration.c **** 					* 250;
 935              		.loc 1 347 0
 936 0080 FA23     		movs	r3, #250
 937 0082 5A43     		muls	r2, r3
 345:Api\core\src/vl53l0x_api_calibration.c **** 			*pOffsetCalibrationDataMicroMeter =
 938              		.loc 1 345 0
 939 0084 3B68     		ldr	r3, [r7]
 940 0086 1A60     		str	r2, [r3]
 941 0088 08E0     		b	.L43
 942              	.L44:
 348:Api\core\src/vl53l0x_api_calibration.c **** 		else
 349:Api\core\src/vl53l0x_api_calibration.c **** 			*pOffsetCalibrationDataMicroMeter =
ARM GAS  C:\Users\ilya\AppData\Local\Temp\ccWKU7si.s 			page 24


 350:Api\core\src/vl53l0x_api_calibration.c **** 				(int16_t)RangeOffsetRegister * 250;
 943              		.loc 1 350 0
 944 008a 0823     		movs	r3, #8
 945 008c FB18     		adds	r3, r7, r3
 946 008e 1B88     		ldrh	r3, [r3]
 947 0090 1BB2     		sxth	r3, r3
 349:Api\core\src/vl53l0x_api_calibration.c **** 				(int16_t)RangeOffsetRegister * 250;
 948              		.loc 1 349 0
 949 0092 1A00     		movs	r2, r3
 950              		.loc 1 350 0
 951 0094 FA23     		movs	r3, #250
 952 0096 5A43     		muls	r2, r3
 349:Api\core\src/vl53l0x_api_calibration.c **** 				(int16_t)RangeOffsetRegister * 250;
 953              		.loc 1 349 0
 954 0098 3B68     		ldr	r3, [r7]
 955 009a 1A60     		str	r2, [r3]
 956              	.L43:
 351:Api\core\src/vl53l0x_api_calibration.c **** 
 352:Api\core\src/vl53l0x_api_calibration.c **** 	}
 353:Api\core\src/vl53l0x_api_calibration.c **** 
 354:Api\core\src/vl53l0x_api_calibration.c **** 	return Status;
 957              		.loc 1 354 0
 958 009c 0F23     		movs	r3, #15
 959 009e FB18     		adds	r3, r7, r3
 960 00a0 1B78     		ldrb	r3, [r3]
 961 00a2 5BB2     		sxtb	r3, r3
 355:Api\core\src/vl53l0x_api_calibration.c **** }
 962              		.loc 1 355 0
 963 00a4 1800     		movs	r0, r3
 964 00a6 BD46     		mov	sp, r7
 965 00a8 05B0     		add	sp, sp, #20
 966              		@ sp needed
 967 00aa 90BD     		pop	{r4, r7, pc}
 968              	.L47:
 969              		.align	2
 970              	.L46:
 971 00ac FF070000 		.word	2047
 972              		.cfi_endproc
 973              	.LFE4:
 974              		.size	VL53L0X_get_offset_calibration_data_micro_meter, .-VL53L0X_get_offset_calibration_data_micro
 975              		.section	.text.VL53L0X_apply_offset_adjustment,"ax",%progbits
 976              		.align	2
 977              		.global	VL53L0X_apply_offset_adjustment
 978              		.code	16
 979              		.thumb_func
 980              		.type	VL53L0X_apply_offset_adjustment, %function
 981              	VL53L0X_apply_offset_adjustment:
 982              	.LFB5:
 356:Api\core\src/vl53l0x_api_calibration.c **** 
 357:Api\core\src/vl53l0x_api_calibration.c **** 
 358:Api\core\src/vl53l0x_api_calibration.c **** VL53L0X_Error VL53L0X_apply_offset_adjustment(VL53L0X_DEV Dev)
 359:Api\core\src/vl53l0x_api_calibration.c **** {
 983              		.loc 1 359 0
 984              		.cfi_startproc
 985              		@ args = 0, pretend = 0, frame = 24
 986              		@ frame_needed = 1, uses_anonymous_args = 0
 987 0000 90B5     		push	{r4, r7, lr}
ARM GAS  C:\Users\ilya\AppData\Local\Temp\ccWKU7si.s 			page 25


 988              		.cfi_def_cfa_offset 12
 989              		.cfi_offset 4, -12
 990              		.cfi_offset 7, -8
 991              		.cfi_offset 14, -4
 992 0002 87B0     		sub	sp, sp, #28
 993              		.cfi_def_cfa_offset 40
 994 0004 00AF     		add	r7, sp, #0
 995              		.cfi_def_cfa_register 7
 996 0006 7860     		str	r0, [r7, #4]
 360:Api\core\src/vl53l0x_api_calibration.c **** 	VL53L0X_Error Status = VL53L0X_ERROR_NONE;
 997              		.loc 1 360 0
 998 0008 1723     		movs	r3, #23
 999 000a FB18     		adds	r3, r7, r3
 1000 000c 0022     		movs	r2, #0
 1001 000e 1A70     		strb	r2, [r3]
 361:Api\core\src/vl53l0x_api_calibration.c **** 	int32_t CorrectedOffsetMicroMeters;
 362:Api\core\src/vl53l0x_api_calibration.c **** 	int32_t CurrentOffsetMicroMeters;
 363:Api\core\src/vl53l0x_api_calibration.c **** 
 364:Api\core\src/vl53l0x_api_calibration.c **** 	/* if we run on this function we can read all the NVM info
 365:Api\core\src/vl53l0x_api_calibration.c **** 	 * used by the API */
 366:Api\core\src/vl53l0x_api_calibration.c **** 	Status = VL53L0X_get_info_from_device(Dev, 7);
 1002              		.loc 1 366 0
 1003 0010 1723     		movs	r3, #23
 1004 0012 FC18     		adds	r4, r7, r3
 1005 0014 7B68     		ldr	r3, [r7, #4]
 1006 0016 0721     		movs	r1, #7
 1007 0018 1800     		movs	r0, r3
 1008 001a FFF7FEFF 		bl	VL53L0X_get_info_from_device
 1009 001e 0300     		movs	r3, r0
 1010 0020 2370     		strb	r3, [r4]
 367:Api\core\src/vl53l0x_api_calibration.c **** 
 368:Api\core\src/vl53l0x_api_calibration.c **** 	/* Read back current device offset */
 369:Api\core\src/vl53l0x_api_calibration.c **** 	if (Status == VL53L0X_ERROR_NONE) {
 1011              		.loc 1 369 0
 1012 0022 1723     		movs	r3, #23
 1013 0024 FB18     		adds	r3, r7, r3
 1014 0026 1B78     		ldrb	r3, [r3]
 1015 0028 5BB2     		sxtb	r3, r3
 1016 002a 002B     		cmp	r3, #0
 1017 002c 0AD1     		bne	.L49
 370:Api\core\src/vl53l0x_api_calibration.c **** 		Status = VL53L0X_GetOffsetCalibrationDataMicroMeter(Dev,
 1018              		.loc 1 370 0
 1019 002e 1723     		movs	r3, #23
 1020 0030 FC18     		adds	r4, r7, r3
 1021 0032 0C23     		movs	r3, #12
 1022 0034 FA18     		adds	r2, r7, r3
 1023 0036 7B68     		ldr	r3, [r7, #4]
 1024 0038 1100     		movs	r1, r2
 1025 003a 1800     		movs	r0, r3
 1026 003c FFF7FEFF 		bl	VL53L0X_GetOffsetCalibrationDataMicroMeter
 1027 0040 0300     		movs	r3, r0
 1028 0042 2370     		strb	r3, [r4]
 1029              	.L49:
 371:Api\core\src/vl53l0x_api_calibration.c **** 					&CurrentOffsetMicroMeters);
 372:Api\core\src/vl53l0x_api_calibration.c **** 	}
 373:Api\core\src/vl53l0x_api_calibration.c **** 
 374:Api\core\src/vl53l0x_api_calibration.c **** 	/* Apply Offset Adjustment derived from 400mm measurements */
ARM GAS  C:\Users\ilya\AppData\Local\Temp\ccWKU7si.s 			page 26


 375:Api\core\src/vl53l0x_api_calibration.c **** 	if (Status == VL53L0X_ERROR_NONE) {
 1030              		.loc 1 375 0
 1031 0044 1723     		movs	r3, #23
 1032 0046 FB18     		adds	r3, r7, r3
 1033 0048 1B78     		ldrb	r3, [r3]
 1034 004a 5BB2     		sxtb	r3, r3
 1035 004c 002B     		cmp	r3, #0
 1036 004e 1AD1     		bne	.L50
 376:Api\core\src/vl53l0x_api_calibration.c **** 
 377:Api\core\src/vl53l0x_api_calibration.c **** 		/* Store initial device offset */
 378:Api\core\src/vl53l0x_api_calibration.c **** 		PALDevDataSet(Dev, Part2PartOffsetNVMMicroMeter,
 1037              		.loc 1 378 0
 1038 0050 FA68     		ldr	r2, [r7, #12]
 1039 0052 7B68     		ldr	r3, [r7, #4]
 1040 0054 9A60     		str	r2, [r3, #8]
 379:Api\core\src/vl53l0x_api_calibration.c **** 			CurrentOffsetMicroMeters);
 380:Api\core\src/vl53l0x_api_calibration.c **** 
 381:Api\core\src/vl53l0x_api_calibration.c **** 		CorrectedOffsetMicroMeters = CurrentOffsetMicroMeters +
 382:Api\core\src/vl53l0x_api_calibration.c **** 			(int32_t)PALDevDataGet(Dev,
 1041              		.loc 1 382 0
 1042 0056 7B68     		ldr	r3, [r7, #4]
 1043 0058 DA68     		ldr	r2, [r3, #12]
 381:Api\core\src/vl53l0x_api_calibration.c **** 			(int32_t)PALDevDataGet(Dev,
 1044              		.loc 1 381 0
 1045 005a FB68     		ldr	r3, [r7, #12]
 1046 005c D318     		adds	r3, r2, r3
 1047 005e 3B61     		str	r3, [r7, #16]
 383:Api\core\src/vl53l0x_api_calibration.c **** 				Part2PartOffsetAdjustmentNVMMicroMeter);
 384:Api\core\src/vl53l0x_api_calibration.c **** 
 385:Api\core\src/vl53l0x_api_calibration.c **** 		Status = VL53L0X_SetOffsetCalibrationDataMicroMeter(Dev,
 1048              		.loc 1 385 0
 1049 0060 1723     		movs	r3, #23
 1050 0062 FC18     		adds	r4, r7, r3
 1051 0064 3A69     		ldr	r2, [r7, #16]
 1052 0066 7B68     		ldr	r3, [r7, #4]
 1053 0068 1100     		movs	r1, r2
 1054 006a 1800     		movs	r0, r3
 1055 006c FFF7FEFF 		bl	VL53L0X_SetOffsetCalibrationDataMicroMeter
 1056 0070 0300     		movs	r3, r0
 1057 0072 2370     		strb	r3, [r4]
 386:Api\core\src/vl53l0x_api_calibration.c **** 					CorrectedOffsetMicroMeters);
 387:Api\core\src/vl53l0x_api_calibration.c **** 
 388:Api\core\src/vl53l0x_api_calibration.c **** 		/* store current, adjusted offset */
 389:Api\core\src/vl53l0x_api_calibration.c **** 		if (Status == VL53L0X_ERROR_NONE) {
 1058              		.loc 1 389 0
 1059 0074 1723     		movs	r3, #23
 1060 0076 FB18     		adds	r3, r7, r3
 1061 0078 1B78     		ldrb	r3, [r3]
 1062 007a 5BB2     		sxtb	r3, r3
 1063 007c 002B     		cmp	r3, #0
 1064 007e 02D1     		bne	.L50
 390:Api\core\src/vl53l0x_api_calibration.c **** 			VL53L0X_SETPARAMETERFIELD(Dev, RangeOffsetMicroMeters,
 1065              		.loc 1 390 0
 1066 0080 7B68     		ldr	r3, [r7, #4]
 1067 0082 3A69     		ldr	r2, [r7, #16]
 1068 0084 5A62     		str	r2, [r3, #36]
 1069              	.L50:
ARM GAS  C:\Users\ilya\AppData\Local\Temp\ccWKU7si.s 			page 27


 391:Api\core\src/vl53l0x_api_calibration.c **** 					CorrectedOffsetMicroMeters);
 392:Api\core\src/vl53l0x_api_calibration.c **** 		}
 393:Api\core\src/vl53l0x_api_calibration.c **** 	}
 394:Api\core\src/vl53l0x_api_calibration.c **** 
 395:Api\core\src/vl53l0x_api_calibration.c **** 	return Status;
 1070              		.loc 1 395 0
 1071 0086 1723     		movs	r3, #23
 1072 0088 FB18     		adds	r3, r7, r3
 1073 008a 1B78     		ldrb	r3, [r3]
 1074 008c 5BB2     		sxtb	r3, r3
 396:Api\core\src/vl53l0x_api_calibration.c **** }
 1075              		.loc 1 396 0
 1076 008e 1800     		movs	r0, r3
 1077 0090 BD46     		mov	sp, r7
 1078 0092 07B0     		add	sp, sp, #28
 1079              		@ sp needed
 1080 0094 90BD     		pop	{r4, r7, pc}
 1081              		.cfi_endproc
 1082              	.LFE5:
 1083              		.size	VL53L0X_apply_offset_adjustment, .-VL53L0X_apply_offset_adjustment
 1084              		.global	__aeabi_uidivmod
 1085 0096 C046     		.section	.text.get_next_good_spad,"ax",%progbits
 1086              		.align	2
 1087              		.global	get_next_good_spad
 1088              		.code	16
 1089              		.thumb_func
 1090              		.type	get_next_good_spad, %function
 1091              	get_next_good_spad:
 1092              	.LFB6:
 397:Api\core\src/vl53l0x_api_calibration.c **** 
 398:Api\core\src/vl53l0x_api_calibration.c **** void get_next_good_spad(uint8_t goodSpadArray[], uint32_t size,
 399:Api\core\src/vl53l0x_api_calibration.c **** 			uint32_t curr, int32_t *next)
 400:Api\core\src/vl53l0x_api_calibration.c **** {
 1093              		.loc 1 400 0
 1094              		.cfi_startproc
 1095              		@ args = 0, pretend = 0, frame = 40
 1096              		@ frame_needed = 1, uses_anonymous_args = 0
 1097 0000 80B5     		push	{r7, lr}
 1098              		.cfi_def_cfa_offset 8
 1099              		.cfi_offset 7, -8
 1100              		.cfi_offset 14, -4
 1101 0002 8AB0     		sub	sp, sp, #40
 1102              		.cfi_def_cfa_offset 48
 1103 0004 00AF     		add	r7, sp, #0
 1104              		.cfi_def_cfa_register 7
 1105 0006 F860     		str	r0, [r7, #12]
 1106 0008 B960     		str	r1, [r7, #8]
 1107 000a 7A60     		str	r2, [r7, #4]
 1108 000c 3B60     		str	r3, [r7]
 401:Api\core\src/vl53l0x_api_calibration.c **** 	uint32_t startIndex;
 402:Api\core\src/vl53l0x_api_calibration.c **** 	uint32_t fineOffset;
 403:Api\core\src/vl53l0x_api_calibration.c **** 	uint32_t cSpadsPerByte = 8;
 1109              		.loc 1 403 0
 1110 000e 0823     		movs	r3, #8
 1111 0010 BB61     		str	r3, [r7, #24]
 404:Api\core\src/vl53l0x_api_calibration.c **** 	uint32_t coarseIndex;
 405:Api\core\src/vl53l0x_api_calibration.c **** 	uint32_t fineIndex;
ARM GAS  C:\Users\ilya\AppData\Local\Temp\ccWKU7si.s 			page 28


 406:Api\core\src/vl53l0x_api_calibration.c **** 	uint8_t dataByte;
 407:Api\core\src/vl53l0x_api_calibration.c **** 	uint8_t success = 0;
 1112              		.loc 1 407 0
 1113 0012 1E23     		movs	r3, #30
 1114 0014 FB18     		adds	r3, r7, r3
 1115 0016 0022     		movs	r2, #0
 1116 0018 1A70     		strb	r2, [r3]
 408:Api\core\src/vl53l0x_api_calibration.c **** 
 409:Api\core\src/vl53l0x_api_calibration.c **** 	/*
 410:Api\core\src/vl53l0x_api_calibration.c **** 	 * Starting with the current good spad, loop through the array to find
 411:Api\core\src/vl53l0x_api_calibration.c **** 	 * the next. i.e. the next bit set in the sequence.
 412:Api\core\src/vl53l0x_api_calibration.c **** 	 *
 413:Api\core\src/vl53l0x_api_calibration.c **** 	 * The coarse index is the byte index of the array and the fine index is
 414:Api\core\src/vl53l0x_api_calibration.c **** 	 * the index of the bit within each byte.
 415:Api\core\src/vl53l0x_api_calibration.c **** 	 */
 416:Api\core\src/vl53l0x_api_calibration.c **** 
 417:Api\core\src/vl53l0x_api_calibration.c **** 	*next = -1;
 1117              		.loc 1 417 0
 1118 001a 3B68     		ldr	r3, [r7]
 1119 001c 0122     		movs	r2, #1
 1120 001e 5242     		rsbs	r2, r2, #0
 1121 0020 1A60     		str	r2, [r3]
 418:Api\core\src/vl53l0x_api_calibration.c **** 
 419:Api\core\src/vl53l0x_api_calibration.c **** 	startIndex = curr / cSpadsPerByte;
 1122              		.loc 1 419 0
 1123 0022 B969     		ldr	r1, [r7, #24]
 1124 0024 7868     		ldr	r0, [r7, #4]
 1125 0026 FFF7FEFF 		bl	__aeabi_uidiv
 1126 002a 0300     		movs	r3, r0
 1127 002c 7B61     		str	r3, [r7, #20]
 420:Api\core\src/vl53l0x_api_calibration.c **** 	fineOffset = curr % cSpadsPerByte;
 1128              		.loc 1 420 0
 1129 002e 7B68     		ldr	r3, [r7, #4]
 1130 0030 B969     		ldr	r1, [r7, #24]
 1131 0032 1800     		movs	r0, r3
 1132 0034 FFF7FEFF 		bl	__aeabi_uidivmod
 1133 0038 0B00     		movs	r3, r1
 1134 003a 3B61     		str	r3, [r7, #16]
 421:Api\core\src/vl53l0x_api_calibration.c **** 
 422:Api\core\src/vl53l0x_api_calibration.c **** 	for (coarseIndex = startIndex; ((coarseIndex < size) && !success);
 1135              		.loc 1 422 0
 1136 003c 7B69     		ldr	r3, [r7, #20]
 1137 003e 7B62     		str	r3, [r7, #36]
 1138 0040 3BE0     		b	.L53
 1139              	.L60:
 423:Api\core\src/vl53l0x_api_calibration.c **** 				coarseIndex++) {
 424:Api\core\src/vl53l0x_api_calibration.c **** 		fineIndex = 0;
 1140              		.loc 1 424 0
 1141 0042 0023     		movs	r3, #0
 1142 0044 3B62     		str	r3, [r7, #32]
 425:Api\core\src/vl53l0x_api_calibration.c **** 		dataByte = goodSpadArray[coarseIndex];
 1143              		.loc 1 425 0
 1144 0046 FA68     		ldr	r2, [r7, #12]
 1145 0048 7B6A     		ldr	r3, [r7, #36]
 1146 004a D218     		adds	r2, r2, r3
 1147 004c 1F23     		movs	r3, #31
 1148 004e FB18     		adds	r3, r7, r3
ARM GAS  C:\Users\ilya\AppData\Local\Temp\ccWKU7si.s 			page 29


 1149 0050 1278     		ldrb	r2, [r2]
 1150 0052 1A70     		strb	r2, [r3]
 426:Api\core\src/vl53l0x_api_calibration.c **** 
 427:Api\core\src/vl53l0x_api_calibration.c **** 		if (coarseIndex == startIndex) {
 1151              		.loc 1 427 0
 1152 0054 7A6A     		ldr	r2, [r7, #36]
 1153 0056 7B69     		ldr	r3, [r7, #20]
 1154 0058 9A42     		cmp	r2, r3
 1155 005a 27D1     		bne	.L55
 428:Api\core\src/vl53l0x_api_calibration.c **** 			/* locate the bit position of the provided current
 429:Api\core\src/vl53l0x_api_calibration.c **** 			 * spad bit before iterating */
 430:Api\core\src/vl53l0x_api_calibration.c **** 			dataByte >>= fineOffset;
 1156              		.loc 1 430 0
 1157 005c 1F23     		movs	r3, #31
 1158 005e FB18     		adds	r3, r7, r3
 1159 0060 1A78     		ldrb	r2, [r3]
 1160 0062 3B69     		ldr	r3, [r7, #16]
 1161 0064 1A41     		asrs	r2, r2, r3
 1162 0066 1F23     		movs	r3, #31
 1163 0068 FB18     		adds	r3, r7, r3
 1164 006a 1A70     		strb	r2, [r3]
 431:Api\core\src/vl53l0x_api_calibration.c **** 			fineIndex = fineOffset;
 1165              		.loc 1 431 0
 1166 006c 3B69     		ldr	r3, [r7, #16]
 1167 006e 3B62     		str	r3, [r7, #32]
 432:Api\core\src/vl53l0x_api_calibration.c **** 		}
 433:Api\core\src/vl53l0x_api_calibration.c **** 
 434:Api\core\src/vl53l0x_api_calibration.c **** 		while (fineIndex < cSpadsPerByte) {
 1168              		.loc 1 434 0
 1169 0070 1CE0     		b	.L55
 1170              	.L58:
 435:Api\core\src/vl53l0x_api_calibration.c **** 			if ((dataByte & 0x1) == 1) {
 1171              		.loc 1 435 0
 1172 0072 1F23     		movs	r3, #31
 1173 0074 FB18     		adds	r3, r7, r3
 1174 0076 1B78     		ldrb	r3, [r3]
 1175 0078 0122     		movs	r2, #1
 1176 007a 1340     		ands	r3, r2
 1177 007c 0CD0     		beq	.L56
 436:Api\core\src/vl53l0x_api_calibration.c **** 				success = 1;
 1178              		.loc 1 436 0
 1179 007e 1E23     		movs	r3, #30
 1180 0080 FB18     		adds	r3, r7, r3
 1181 0082 0122     		movs	r2, #1
 1182 0084 1A70     		strb	r2, [r3]
 437:Api\core\src/vl53l0x_api_calibration.c **** 				*next = coarseIndex * cSpadsPerByte + fineIndex;
 1183              		.loc 1 437 0
 1184 0086 7B6A     		ldr	r3, [r7, #36]
 1185 0088 BA69     		ldr	r2, [r7, #24]
 1186 008a 5A43     		muls	r2, r3
 1187 008c 3B6A     		ldr	r3, [r7, #32]
 1188 008e D318     		adds	r3, r2, r3
 1189 0090 1A00     		movs	r2, r3
 1190 0092 3B68     		ldr	r3, [r7]
 1191 0094 1A60     		str	r2, [r3]
 438:Api\core\src/vl53l0x_api_calibration.c **** 				break;
 1192              		.loc 1 438 0
ARM GAS  C:\Users\ilya\AppData\Local\Temp\ccWKU7si.s 			page 30


 1193 0096 0DE0     		b	.L57
 1194              	.L56:
 439:Api\core\src/vl53l0x_api_calibration.c **** 			}
 440:Api\core\src/vl53l0x_api_calibration.c **** 			dataByte >>= 1;
 1195              		.loc 1 440 0
 1196 0098 1F23     		movs	r3, #31
 1197 009a FB18     		adds	r3, r7, r3
 1198 009c 1F22     		movs	r2, #31
 1199 009e BA18     		adds	r2, r7, r2
 1200 00a0 1278     		ldrb	r2, [r2]
 1201 00a2 5208     		lsrs	r2, r2, #1
 1202 00a4 1A70     		strb	r2, [r3]
 441:Api\core\src/vl53l0x_api_calibration.c **** 			fineIndex++;
 1203              		.loc 1 441 0
 1204 00a6 3B6A     		ldr	r3, [r7, #32]
 1205 00a8 0133     		adds	r3, r3, #1
 1206 00aa 3B62     		str	r3, [r7, #32]
 1207              	.L55:
 434:Api\core\src/vl53l0x_api_calibration.c **** 			if ((dataByte & 0x1) == 1) {
 1208              		.loc 1 434 0
 1209 00ac 3A6A     		ldr	r2, [r7, #32]
 1210 00ae BB69     		ldr	r3, [r7, #24]
 1211 00b0 9A42     		cmp	r2, r3
 1212 00b2 DED3     		bcc	.L58
 1213              	.L57:
 423:Api\core\src/vl53l0x_api_calibration.c **** 		fineIndex = 0;
 1214              		.loc 1 423 0
 1215 00b4 7B6A     		ldr	r3, [r7, #36]
 1216 00b6 0133     		adds	r3, r3, #1
 1217 00b8 7B62     		str	r3, [r7, #36]
 1218              	.L53:
 422:Api\core\src/vl53l0x_api_calibration.c **** 				coarseIndex++) {
 1219              		.loc 1 422 0 discriminator 1
 1220 00ba 7A6A     		ldr	r2, [r7, #36]
 1221 00bc BB68     		ldr	r3, [r7, #8]
 1222 00be 9A42     		cmp	r2, r3
 1223 00c0 04D2     		bcs	.L61
 422:Api\core\src/vl53l0x_api_calibration.c **** 				coarseIndex++) {
 1224              		.loc 1 422 0 is_stmt 0 discriminator 2
 1225 00c2 1E23     		movs	r3, #30
 1226 00c4 FB18     		adds	r3, r7, r3
 1227 00c6 1B78     		ldrb	r3, [r3]
 1228 00c8 002B     		cmp	r3, #0
 1229 00ca BAD0     		beq	.L60
 1230              	.L61:
 442:Api\core\src/vl53l0x_api_calibration.c **** 		}
 443:Api\core\src/vl53l0x_api_calibration.c **** 	}
 444:Api\core\src/vl53l0x_api_calibration.c **** }
 1231              		.loc 1 444 0 is_stmt 1
 1232 00cc C046     		nop
 1233 00ce BD46     		mov	sp, r7
 1234 00d0 0AB0     		add	sp, sp, #40
 1235              		@ sp needed
 1236 00d2 80BD     		pop	{r7, pc}
 1237              		.cfi_endproc
 1238              	.LFE6:
 1239              		.size	get_next_good_spad, .-get_next_good_spad
ARM GAS  C:\Users\ilya\AppData\Local\Temp\ccWKU7si.s 			page 31


 1240              		.section	.text.is_aperture,"ax",%progbits
 1241              		.align	2
 1242              		.global	is_aperture
 1243              		.code	16
 1244              		.thumb_func
 1245              		.type	is_aperture, %function
 1246              	is_aperture:
 1247              	.LFB7:
 445:Api\core\src/vl53l0x_api_calibration.c **** 
 446:Api\core\src/vl53l0x_api_calibration.c **** 
 447:Api\core\src/vl53l0x_api_calibration.c **** uint8_t is_aperture(uint32_t spadIndex)
 448:Api\core\src/vl53l0x_api_calibration.c **** {
 1248              		.loc 1 448 0
 1249              		.cfi_startproc
 1250              		@ args = 0, pretend = 0, frame = 16
 1251              		@ frame_needed = 1, uses_anonymous_args = 0
 1252 0000 80B5     		push	{r7, lr}
 1253              		.cfi_def_cfa_offset 8
 1254              		.cfi_offset 7, -8
 1255              		.cfi_offset 14, -4
 1256 0002 84B0     		sub	sp, sp, #16
 1257              		.cfi_def_cfa_offset 24
 1258 0004 00AF     		add	r7, sp, #0
 1259              		.cfi_def_cfa_register 7
 1260 0006 7860     		str	r0, [r7, #4]
 449:Api\core\src/vl53l0x_api_calibration.c **** 	/*
 450:Api\core\src/vl53l0x_api_calibration.c **** 	 * This function reports if a given spad index is an aperture SPAD by
 451:Api\core\src/vl53l0x_api_calibration.c **** 	 * deriving the quadrant.
 452:Api\core\src/vl53l0x_api_calibration.c **** 	 */
 453:Api\core\src/vl53l0x_api_calibration.c **** 	uint32_t quadrant;
 454:Api\core\src/vl53l0x_api_calibration.c **** 	uint8_t isAperture = 1;
 1261              		.loc 1 454 0
 1262 0008 0F23     		movs	r3, #15
 1263 000a FB18     		adds	r3, r7, r3
 1264 000c 0122     		movs	r2, #1
 1265 000e 1A70     		strb	r2, [r3]
 455:Api\core\src/vl53l0x_api_calibration.c **** 	quadrant = spadIndex >> 6;
 1266              		.loc 1 455 0
 1267 0010 7B68     		ldr	r3, [r7, #4]
 1268 0012 9B09     		lsrs	r3, r3, #6
 1269 0014 BB60     		str	r3, [r7, #8]
 456:Api\core\src/vl53l0x_api_calibration.c **** 	if (refArrayQuadrants[quadrant] == REF_ARRAY_SPAD_0)
 1270              		.loc 1 456 0
 1271 0016 084B     		ldr	r3, .L65
 1272 0018 BA68     		ldr	r2, [r7, #8]
 1273 001a 9200     		lsls	r2, r2, #2
 1274 001c D358     		ldr	r3, [r2, r3]
 1275 001e 002B     		cmp	r3, #0
 1276 0020 03D1     		bne	.L63
 457:Api\core\src/vl53l0x_api_calibration.c **** 		isAperture = 0;
 1277              		.loc 1 457 0
 1278 0022 0F23     		movs	r3, #15
 1279 0024 FB18     		adds	r3, r7, r3
 1280 0026 0022     		movs	r2, #0
 1281 0028 1A70     		strb	r2, [r3]
 1282              	.L63:
 458:Api\core\src/vl53l0x_api_calibration.c **** 
ARM GAS  C:\Users\ilya\AppData\Local\Temp\ccWKU7si.s 			page 32


 459:Api\core\src/vl53l0x_api_calibration.c **** 	return isAperture;
 1283              		.loc 1 459 0
 1284 002a 0F23     		movs	r3, #15
 1285 002c FB18     		adds	r3, r7, r3
 1286 002e 1B78     		ldrb	r3, [r3]
 460:Api\core\src/vl53l0x_api_calibration.c **** }
 1287              		.loc 1 460 0
 1288 0030 1800     		movs	r0, r3
 1289 0032 BD46     		mov	sp, r7
 1290 0034 04B0     		add	sp, sp, #16
 1291              		@ sp needed
 1292 0036 80BD     		pop	{r7, pc}
 1293              	.L66:
 1294              		.align	2
 1295              	.L65:
 1296 0038 00000000 		.word	refArrayQuadrants
 1297              		.cfi_endproc
 1298              	.LFE7:
 1299              		.size	is_aperture, .-is_aperture
 1300              		.section	.text.enable_spad_bit,"ax",%progbits
 1301              		.align	2
 1302              		.global	enable_spad_bit
 1303              		.code	16
 1304              		.thumb_func
 1305              		.type	enable_spad_bit, %function
 1306              	enable_spad_bit:
 1307              	.LFB8:
 461:Api\core\src/vl53l0x_api_calibration.c **** 
 462:Api\core\src/vl53l0x_api_calibration.c **** 
 463:Api\core\src/vl53l0x_api_calibration.c **** VL53L0X_Error enable_spad_bit(uint8_t spadArray[], uint32_t size,
 464:Api\core\src/vl53l0x_api_calibration.c **** 	uint32_t spadIndex)
 465:Api\core\src/vl53l0x_api_calibration.c **** {
 1308              		.loc 1 465 0
 1309              		.cfi_startproc
 1310              		@ args = 0, pretend = 0, frame = 32
 1311              		@ frame_needed = 1, uses_anonymous_args = 0
 1312 0000 80B5     		push	{r7, lr}
 1313              		.cfi_def_cfa_offset 8
 1314              		.cfi_offset 7, -8
 1315              		.cfi_offset 14, -4
 1316 0002 88B0     		sub	sp, sp, #32
 1317              		.cfi_def_cfa_offset 40
 1318 0004 00AF     		add	r7, sp, #0
 1319              		.cfi_def_cfa_register 7
 1320 0006 F860     		str	r0, [r7, #12]
 1321 0008 B960     		str	r1, [r7, #8]
 1322 000a 7A60     		str	r2, [r7, #4]
 466:Api\core\src/vl53l0x_api_calibration.c **** 	VL53L0X_Error status = VL53L0X_ERROR_NONE;
 1323              		.loc 1 466 0
 1324 000c 1F23     		movs	r3, #31
 1325 000e FB18     		adds	r3, r7, r3
 1326 0010 0022     		movs	r2, #0
 1327 0012 1A70     		strb	r2, [r3]
 467:Api\core\src/vl53l0x_api_calibration.c **** 	uint32_t cSpadsPerByte = 8;
 1328              		.loc 1 467 0
 1329 0014 0823     		movs	r3, #8
 1330 0016 BB61     		str	r3, [r7, #24]
ARM GAS  C:\Users\ilya\AppData\Local\Temp\ccWKU7si.s 			page 33


 468:Api\core\src/vl53l0x_api_calibration.c **** 	uint32_t coarseIndex;
 469:Api\core\src/vl53l0x_api_calibration.c **** 	uint32_t fineIndex;
 470:Api\core\src/vl53l0x_api_calibration.c **** 
 471:Api\core\src/vl53l0x_api_calibration.c **** 	coarseIndex = spadIndex / cSpadsPerByte;
 1331              		.loc 1 471 0
 1332 0018 B969     		ldr	r1, [r7, #24]
 1333 001a 7868     		ldr	r0, [r7, #4]
 1334 001c FFF7FEFF 		bl	__aeabi_uidiv
 1335 0020 0300     		movs	r3, r0
 1336 0022 7B61     		str	r3, [r7, #20]
 472:Api\core\src/vl53l0x_api_calibration.c **** 	fineIndex = spadIndex % cSpadsPerByte;
 1337              		.loc 1 472 0
 1338 0024 7B68     		ldr	r3, [r7, #4]
 1339 0026 B969     		ldr	r1, [r7, #24]
 1340 0028 1800     		movs	r0, r3
 1341 002a FFF7FEFF 		bl	__aeabi_uidivmod
 1342 002e 0B00     		movs	r3, r1
 1343 0030 3B61     		str	r3, [r7, #16]
 473:Api\core\src/vl53l0x_api_calibration.c **** 	if (coarseIndex >= size)
 1344              		.loc 1 473 0
 1345 0032 7A69     		ldr	r2, [r7, #20]
 1346 0034 BB68     		ldr	r3, [r7, #8]
 1347 0036 9A42     		cmp	r2, r3
 1348 0038 04D3     		bcc	.L68
 474:Api\core\src/vl53l0x_api_calibration.c **** 		status = VL53L0X_ERROR_REF_SPAD_INIT;
 1349              		.loc 1 474 0
 1350 003a 1F23     		movs	r3, #31
 1351 003c FB18     		adds	r3, r7, r3
 1352 003e CE22     		movs	r2, #206
 1353 0040 1A70     		strb	r2, [r3]
 1354 0042 10E0     		b	.L69
 1355              	.L68:
 475:Api\core\src/vl53l0x_api_calibration.c **** 	else
 476:Api\core\src/vl53l0x_api_calibration.c **** 		spadArray[coarseIndex] |= (1 << fineIndex);
 1356              		.loc 1 476 0
 1357 0044 FA68     		ldr	r2, [r7, #12]
 1358 0046 7B69     		ldr	r3, [r7, #20]
 1359 0048 D318     		adds	r3, r2, r3
 1360 004a F968     		ldr	r1, [r7, #12]
 1361 004c 7A69     		ldr	r2, [r7, #20]
 1362 004e 8A18     		adds	r2, r1, r2
 1363 0050 1278     		ldrb	r2, [r2]
 1364 0052 51B2     		sxtb	r1, r2
 1365 0054 0120     		movs	r0, #1
 1366 0056 3A69     		ldr	r2, [r7, #16]
 1367 0058 9040     		lsls	r0, r0, r2
 1368 005a 0200     		movs	r2, r0
 1369 005c 52B2     		sxtb	r2, r2
 1370 005e 0A43     		orrs	r2, r1
 1371 0060 52B2     		sxtb	r2, r2
 1372 0062 D2B2     		uxtb	r2, r2
 1373 0064 1A70     		strb	r2, [r3]
 1374              	.L69:
 477:Api\core\src/vl53l0x_api_calibration.c **** 
 478:Api\core\src/vl53l0x_api_calibration.c **** 	return status;
 1375              		.loc 1 478 0
 1376 0066 1F23     		movs	r3, #31
ARM GAS  C:\Users\ilya\AppData\Local\Temp\ccWKU7si.s 			page 34


 1377 0068 FB18     		adds	r3, r7, r3
 1378 006a 1B78     		ldrb	r3, [r3]
 1379 006c 5BB2     		sxtb	r3, r3
 479:Api\core\src/vl53l0x_api_calibration.c **** }
 1380              		.loc 1 479 0
 1381 006e 1800     		movs	r0, r3
 1382 0070 BD46     		mov	sp, r7
 1383 0072 08B0     		add	sp, sp, #32
 1384              		@ sp needed
 1385 0074 80BD     		pop	{r7, pc}
 1386              		.cfi_endproc
 1387              	.LFE8:
 1388              		.size	enable_spad_bit, .-enable_spad_bit
 1389 0076 C046     		.section	.text.count_enabled_spads,"ax",%progbits
 1390              		.align	2
 1391              		.global	count_enabled_spads
 1392              		.code	16
 1393              		.thumb_func
 1394              		.type	count_enabled_spads, %function
 1395              	count_enabled_spads:
 1396              	.LFB9:
 480:Api\core\src/vl53l0x_api_calibration.c **** 
 481:Api\core\src/vl53l0x_api_calibration.c **** VL53L0X_Error count_enabled_spads(uint8_t spadArray[],
 482:Api\core\src/vl53l0x_api_calibration.c **** 		uint32_t byteCount, uint32_t maxSpads,
 483:Api\core\src/vl53l0x_api_calibration.c **** 		uint32_t *pTotalSpadsEnabled, uint8_t *pIsAperture)
 484:Api\core\src/vl53l0x_api_calibration.c **** {
 1397              		.loc 1 484 0
 1398              		.cfi_startproc
 1399              		@ args = 4, pretend = 0, frame = 48
 1400              		@ frame_needed = 1, uses_anonymous_args = 0
 1401 0000 80B5     		push	{r7, lr}
 1402              		.cfi_def_cfa_offset 8
 1403              		.cfi_offset 7, -8
 1404              		.cfi_offset 14, -4
 1405 0002 8CB0     		sub	sp, sp, #48
 1406              		.cfi_def_cfa_offset 56
 1407 0004 00AF     		add	r7, sp, #0
 1408              		.cfi_def_cfa_register 7
 1409 0006 F860     		str	r0, [r7, #12]
 1410 0008 B960     		str	r1, [r7, #8]
 1411 000a 7A60     		str	r2, [r7, #4]
 1412 000c 3B60     		str	r3, [r7]
 485:Api\core\src/vl53l0x_api_calibration.c **** 	VL53L0X_Error status = VL53L0X_ERROR_NONE;
 1413              		.loc 1 485 0
 1414 000e 2F23     		movs	r3, #47
 1415 0010 FB18     		adds	r3, r7, r3
 1416 0012 0022     		movs	r2, #0
 1417 0014 1A70     		strb	r2, [r3]
 486:Api\core\src/vl53l0x_api_calibration.c **** 	uint32_t cSpadsPerByte = 8;
 1418              		.loc 1 486 0
 1419 0016 0823     		movs	r3, #8
 1420 0018 FB61     		str	r3, [r7, #28]
 487:Api\core\src/vl53l0x_api_calibration.c **** 	uint32_t lastByte;
 488:Api\core\src/vl53l0x_api_calibration.c **** 	uint32_t lastBit;
 489:Api\core\src/vl53l0x_api_calibration.c **** 	uint32_t byteIndex = 0;
 1421              		.loc 1 489 0
 1422 001a 0023     		movs	r3, #0
ARM GAS  C:\Users\ilya\AppData\Local\Temp\ccWKU7si.s 			page 35


 1423 001c BB62     		str	r3, [r7, #40]
 490:Api\core\src/vl53l0x_api_calibration.c **** 	uint32_t bitIndex = 0;
 1424              		.loc 1 490 0
 1425 001e 0023     		movs	r3, #0
 1426 0020 7B62     		str	r3, [r7, #36]
 491:Api\core\src/vl53l0x_api_calibration.c **** 	uint8_t tempByte;
 492:Api\core\src/vl53l0x_api_calibration.c **** 	uint8_t spadTypeIdentified = 0;
 1427              		.loc 1 492 0
 1428 0022 2223     		movs	r3, #34
 1429 0024 FB18     		adds	r3, r7, r3
 1430 0026 0022     		movs	r2, #0
 1431 0028 1A70     		strb	r2, [r3]
 493:Api\core\src/vl53l0x_api_calibration.c **** 
 494:Api\core\src/vl53l0x_api_calibration.c **** 	/* The entire array will not be used for spads, therefore the last
 495:Api\core\src/vl53l0x_api_calibration.c **** 	 * byte and last bit is determined from the max spads value.
 496:Api\core\src/vl53l0x_api_calibration.c **** 	 */
 497:Api\core\src/vl53l0x_api_calibration.c **** 
 498:Api\core\src/vl53l0x_api_calibration.c **** 	lastByte = maxSpads / cSpadsPerByte;
 1432              		.loc 1 498 0
 1433 002a F969     		ldr	r1, [r7, #28]
 1434 002c 7868     		ldr	r0, [r7, #4]
 1435 002e FFF7FEFF 		bl	__aeabi_uidiv
 1436 0032 0300     		movs	r3, r0
 1437 0034 BB61     		str	r3, [r7, #24]
 499:Api\core\src/vl53l0x_api_calibration.c **** 	lastBit = maxSpads % cSpadsPerByte;
 1438              		.loc 1 499 0
 1439 0036 7B68     		ldr	r3, [r7, #4]
 1440 0038 F969     		ldr	r1, [r7, #28]
 1441 003a 1800     		movs	r0, r3
 1442 003c FFF7FEFF 		bl	__aeabi_uidivmod
 1443 0040 0B00     		movs	r3, r1
 1444 0042 7B61     		str	r3, [r7, #20]
 500:Api\core\src/vl53l0x_api_calibration.c **** 
 501:Api\core\src/vl53l0x_api_calibration.c **** 	/* Check that the max spads value does not exceed the array bounds. */
 502:Api\core\src/vl53l0x_api_calibration.c **** 	if (lastByte >= byteCount)
 1445              		.loc 1 502 0
 1446 0044 BA69     		ldr	r2, [r7, #24]
 1447 0046 BB68     		ldr	r3, [r7, #8]
 1448 0048 9A42     		cmp	r2, r3
 1449 004a 03D3     		bcc	.L72
 503:Api\core\src/vl53l0x_api_calibration.c **** 		status = VL53L0X_ERROR_REF_SPAD_INIT;
 1450              		.loc 1 503 0
 1451 004c 2F23     		movs	r3, #47
 1452 004e FB18     		adds	r3, r7, r3
 1453 0050 CE22     		movs	r2, #206
 1454 0052 1A70     		strb	r2, [r3]
 1455              	.L72:
 504:Api\core\src/vl53l0x_api_calibration.c **** 
 505:Api\core\src/vl53l0x_api_calibration.c **** 	*pTotalSpadsEnabled = 0;
 1456              		.loc 1 505 0
 1457 0054 3B68     		ldr	r3, [r7]
 1458 0056 0022     		movs	r2, #0
 1459 0058 1A60     		str	r2, [r3]
 506:Api\core\src/vl53l0x_api_calibration.c **** 
 507:Api\core\src/vl53l0x_api_calibration.c **** 	/* Count the bits enabled in the whole bytes */
 508:Api\core\src/vl53l0x_api_calibration.c **** 	for (byteIndex = 0; byteIndex <= (lastByte - 1); byteIndex++) {
 1460              		.loc 1 508 0
ARM GAS  C:\Users\ilya\AppData\Local\Temp\ccWKU7si.s 			page 36


 1461 005a 0023     		movs	r3, #0
 1462 005c BB62     		str	r3, [r7, #40]
 1463 005e 3AE0     		b	.L73
 1464              	.L78:
 509:Api\core\src/vl53l0x_api_calibration.c **** 		tempByte = spadArray[byteIndex];
 1465              		.loc 1 509 0
 1466 0060 FA68     		ldr	r2, [r7, #12]
 1467 0062 BB6A     		ldr	r3, [r7, #40]
 1468 0064 D218     		adds	r2, r2, r3
 1469 0066 2323     		movs	r3, #35
 1470 0068 FB18     		adds	r3, r7, r3
 1471 006a 1278     		ldrb	r2, [r2]
 1472 006c 1A70     		strb	r2, [r3]
 510:Api\core\src/vl53l0x_api_calibration.c **** 
 511:Api\core\src/vl53l0x_api_calibration.c **** 		for (bitIndex = 0; bitIndex <= cSpadsPerByte; bitIndex++) {
 1473              		.loc 1 511 0
 1474 006e 0023     		movs	r3, #0
 1475 0070 7B62     		str	r3, [r7, #36]
 1476 0072 29E0     		b	.L74
 1477              	.L77:
 512:Api\core\src/vl53l0x_api_calibration.c **** 			if ((tempByte & 0x01) == 1) {
 1478              		.loc 1 512 0
 1479 0074 2323     		movs	r3, #35
 1480 0076 FB18     		adds	r3, r7, r3
 1481 0078 1B78     		ldrb	r3, [r3]
 1482 007a 0122     		movs	r2, #1
 1483 007c 1340     		ands	r3, r2
 1484 007e 19D0     		beq	.L75
 513:Api\core\src/vl53l0x_api_calibration.c **** 				(*pTotalSpadsEnabled)++;
 1485              		.loc 1 513 0
 1486 0080 3B68     		ldr	r3, [r7]
 1487 0082 1B68     		ldr	r3, [r3]
 1488 0084 5A1C     		adds	r2, r3, #1
 1489 0086 3B68     		ldr	r3, [r7]
 1490 0088 1A60     		str	r2, [r3]
 514:Api\core\src/vl53l0x_api_calibration.c **** 
 515:Api\core\src/vl53l0x_api_calibration.c **** 				if (!spadTypeIdentified) {
 1491              		.loc 1 515 0
 1492 008a 2223     		movs	r3, #34
 1493 008c FB18     		adds	r3, r7, r3
 1494 008e 1B78     		ldrb	r3, [r3]
 1495 0090 002B     		cmp	r3, #0
 1496 0092 0FD1     		bne	.L75
 516:Api\core\src/vl53l0x_api_calibration.c **** 					*pIsAperture = 1;
 1497              		.loc 1 516 0
 1498 0094 BB6B     		ldr	r3, [r7, #56]
 1499 0096 0122     		movs	r2, #1
 1500 0098 1A70     		strb	r2, [r3]
 517:Api\core\src/vl53l0x_api_calibration.c **** 					if ((byteIndex < 2) && (bitIndex < 4))
 1501              		.loc 1 517 0
 1502 009a BB6A     		ldr	r3, [r7, #40]
 1503 009c 012B     		cmp	r3, #1
 1504 009e 05D8     		bhi	.L76
 1505              		.loc 1 517 0 is_stmt 0 discriminator 1
 1506 00a0 7B6A     		ldr	r3, [r7, #36]
 1507 00a2 032B     		cmp	r3, #3
 1508 00a4 02D8     		bhi	.L76
ARM GAS  C:\Users\ilya\AppData\Local\Temp\ccWKU7si.s 			page 37


 518:Api\core\src/vl53l0x_api_calibration.c **** 							*pIsAperture = 0;
 1509              		.loc 1 518 0 is_stmt 1
 1510 00a6 BB6B     		ldr	r3, [r7, #56]
 1511 00a8 0022     		movs	r2, #0
 1512 00aa 1A70     		strb	r2, [r3]
 1513              	.L76:
 519:Api\core\src/vl53l0x_api_calibration.c **** 					spadTypeIdentified = 1;
 1514              		.loc 1 519 0
 1515 00ac 2223     		movs	r3, #34
 1516 00ae FB18     		adds	r3, r7, r3
 1517 00b0 0122     		movs	r2, #1
 1518 00b2 1A70     		strb	r2, [r3]
 1519              	.L75:
 520:Api\core\src/vl53l0x_api_calibration.c **** 				}
 521:Api\core\src/vl53l0x_api_calibration.c **** 			}
 522:Api\core\src/vl53l0x_api_calibration.c **** 			tempByte >>= 1;
 1520              		.loc 1 522 0 discriminator 2
 1521 00b4 2323     		movs	r3, #35
 1522 00b6 FB18     		adds	r3, r7, r3
 1523 00b8 2322     		movs	r2, #35
 1524 00ba BA18     		adds	r2, r7, r2
 1525 00bc 1278     		ldrb	r2, [r2]
 1526 00be 5208     		lsrs	r2, r2, #1
 1527 00c0 1A70     		strb	r2, [r3]
 511:Api\core\src/vl53l0x_api_calibration.c **** 			if ((tempByte & 0x01) == 1) {
 1528              		.loc 1 511 0 discriminator 2
 1529 00c2 7B6A     		ldr	r3, [r7, #36]
 1530 00c4 0133     		adds	r3, r3, #1
 1531 00c6 7B62     		str	r3, [r7, #36]
 1532              	.L74:
 511:Api\core\src/vl53l0x_api_calibration.c **** 			if ((tempByte & 0x01) == 1) {
 1533              		.loc 1 511 0 is_stmt 0 discriminator 1
 1534 00c8 7A6A     		ldr	r2, [r7, #36]
 1535 00ca FB69     		ldr	r3, [r7, #28]
 1536 00cc 9A42     		cmp	r2, r3
 1537 00ce D1D9     		bls	.L77
 508:Api\core\src/vl53l0x_api_calibration.c **** 		tempByte = spadArray[byteIndex];
 1538              		.loc 1 508 0 is_stmt 1 discriminator 2
 1539 00d0 BB6A     		ldr	r3, [r7, #40]
 1540 00d2 0133     		adds	r3, r3, #1
 1541 00d4 BB62     		str	r3, [r7, #40]
 1542              	.L73:
 508:Api\core\src/vl53l0x_api_calibration.c **** 		tempByte = spadArray[byteIndex];
 1543              		.loc 1 508 0 is_stmt 0 discriminator 1
 1544 00d6 BB69     		ldr	r3, [r7, #24]
 1545 00d8 5A1E     		subs	r2, r3, #1
 1546 00da BB6A     		ldr	r3, [r7, #40]
 1547 00dc 9A42     		cmp	r2, r3
 1548 00de BFD2     		bcs	.L78
 523:Api\core\src/vl53l0x_api_calibration.c **** 		}
 524:Api\core\src/vl53l0x_api_calibration.c **** 	}
 525:Api\core\src/vl53l0x_api_calibration.c **** 
 526:Api\core\src/vl53l0x_api_calibration.c **** 	/* Count the number of bits enabled in the last byte accounting
 527:Api\core\src/vl53l0x_api_calibration.c **** 	 * for the fact that not all bits in the byte may be used.
 528:Api\core\src/vl53l0x_api_calibration.c **** 	 */
 529:Api\core\src/vl53l0x_api_calibration.c **** 	tempByte = spadArray[lastByte];
 1549              		.loc 1 529 0 is_stmt 1
ARM GAS  C:\Users\ilya\AppData\Local\Temp\ccWKU7si.s 			page 38


 1550 00e0 FA68     		ldr	r2, [r7, #12]
 1551 00e2 BB69     		ldr	r3, [r7, #24]
 1552 00e4 D218     		adds	r2, r2, r3
 1553 00e6 2323     		movs	r3, #35
 1554 00e8 FB18     		adds	r3, r7, r3
 1555 00ea 1278     		ldrb	r2, [r2]
 1556 00ec 1A70     		strb	r2, [r3]
 530:Api\core\src/vl53l0x_api_calibration.c **** 
 531:Api\core\src/vl53l0x_api_calibration.c **** 	for (bitIndex = 0; bitIndex <= lastBit; bitIndex++) {
 1557              		.loc 1 531 0
 1558 00ee 0023     		movs	r3, #0
 1559 00f0 7B62     		str	r3, [r7, #36]
 1560 00f2 0DE0     		b	.L79
 1561              	.L81:
 532:Api\core\src/vl53l0x_api_calibration.c **** 		if ((tempByte & 0x01) == 1)
 1562              		.loc 1 532 0
 1563 00f4 2323     		movs	r3, #35
 1564 00f6 FB18     		adds	r3, r7, r3
 1565 00f8 1B78     		ldrb	r3, [r3]
 1566 00fa 0122     		movs	r2, #1
 1567 00fc 1340     		ands	r3, r2
 1568 00fe 04D0     		beq	.L80
 533:Api\core\src/vl53l0x_api_calibration.c **** 			(*pTotalSpadsEnabled)++;
 1569              		.loc 1 533 0
 1570 0100 3B68     		ldr	r3, [r7]
 1571 0102 1B68     		ldr	r3, [r3]
 1572 0104 5A1C     		adds	r2, r3, #1
 1573 0106 3B68     		ldr	r3, [r7]
 1574 0108 1A60     		str	r2, [r3]
 1575              	.L80:
 531:Api\core\src/vl53l0x_api_calibration.c **** 		if ((tempByte & 0x01) == 1)
 1576              		.loc 1 531 0 discriminator 2
 1577 010a 7B6A     		ldr	r3, [r7, #36]
 1578 010c 0133     		adds	r3, r3, #1
 1579 010e 7B62     		str	r3, [r7, #36]
 1580              	.L79:
 531:Api\core\src/vl53l0x_api_calibration.c **** 		if ((tempByte & 0x01) == 1)
 1581              		.loc 1 531 0 is_stmt 0 discriminator 1
 1582 0110 7A6A     		ldr	r2, [r7, #36]
 1583 0112 7B69     		ldr	r3, [r7, #20]
 1584 0114 9A42     		cmp	r2, r3
 1585 0116 EDD9     		bls	.L81
 534:Api\core\src/vl53l0x_api_calibration.c **** 	}
 535:Api\core\src/vl53l0x_api_calibration.c **** 
 536:Api\core\src/vl53l0x_api_calibration.c **** 	return status;
 1586              		.loc 1 536 0 is_stmt 1
 1587 0118 2F23     		movs	r3, #47
 1588 011a FB18     		adds	r3, r7, r3
 1589 011c 1B78     		ldrb	r3, [r3]
 1590 011e 5BB2     		sxtb	r3, r3
 537:Api\core\src/vl53l0x_api_calibration.c **** }
 1591              		.loc 1 537 0
 1592 0120 1800     		movs	r0, r3
 1593 0122 BD46     		mov	sp, r7
 1594 0124 0CB0     		add	sp, sp, #48
 1595              		@ sp needed
 1596 0126 80BD     		pop	{r7, pc}
ARM GAS  C:\Users\ilya\AppData\Local\Temp\ccWKU7si.s 			page 39


 1597              		.cfi_endproc
 1598              	.LFE9:
 1599              		.size	count_enabled_spads, .-count_enabled_spads
 1600              		.section	.text.set_ref_spad_map,"ax",%progbits
 1601              		.align	2
 1602              		.global	set_ref_spad_map
 1603              		.code	16
 1604              		.thumb_func
 1605              		.type	set_ref_spad_map, %function
 1606              	set_ref_spad_map:
 1607              	.LFB10:
 538:Api\core\src/vl53l0x_api_calibration.c **** 
 539:Api\core\src/vl53l0x_api_calibration.c **** VL53L0X_Error set_ref_spad_map(VL53L0X_DEV Dev, uint8_t *refSpadArray)
 540:Api\core\src/vl53l0x_api_calibration.c **** {
 1608              		.loc 1 540 0
 1609              		.cfi_startproc
 1610              		@ args = 0, pretend = 0, frame = 16
 1611              		@ frame_needed = 1, uses_anonymous_args = 0
 1612 0000 90B5     		push	{r4, r7, lr}
 1613              		.cfi_def_cfa_offset 12
 1614              		.cfi_offset 4, -12
 1615              		.cfi_offset 7, -8
 1616              		.cfi_offset 14, -4
 1617 0002 85B0     		sub	sp, sp, #20
 1618              		.cfi_def_cfa_offset 32
 1619 0004 00AF     		add	r7, sp, #0
 1620              		.cfi_def_cfa_register 7
 1621 0006 7860     		str	r0, [r7, #4]
 1622 0008 3960     		str	r1, [r7]
 541:Api\core\src/vl53l0x_api_calibration.c **** 	VL53L0X_Error status = VL53L0X_WriteMulti(Dev,
 1623              		.loc 1 541 0
 1624 000a 0F23     		movs	r3, #15
 1625 000c FC18     		adds	r4, r7, r3
 1626 000e 3A68     		ldr	r2, [r7]
 1627 0010 7868     		ldr	r0, [r7, #4]
 1628 0012 0623     		movs	r3, #6
 1629 0014 B021     		movs	r1, #176
 1630 0016 FFF7FEFF 		bl	VL53L0X_WriteMulti
 1631 001a 0300     		movs	r3, r0
 1632 001c 2370     		strb	r3, [r4]
 542:Api\core\src/vl53l0x_api_calibration.c **** 				VL53L0X_REG_GLOBAL_CONFIG_SPAD_ENABLES_REF_0,
 543:Api\core\src/vl53l0x_api_calibration.c **** 				refSpadArray, 6);
 544:Api\core\src/vl53l0x_api_calibration.c **** 	return status;
 1633              		.loc 1 544 0
 1634 001e 0F23     		movs	r3, #15
 1635 0020 FB18     		adds	r3, r7, r3
 1636 0022 1B78     		ldrb	r3, [r3]
 1637 0024 5BB2     		sxtb	r3, r3
 545:Api\core\src/vl53l0x_api_calibration.c **** }
 1638              		.loc 1 545 0
 1639 0026 1800     		movs	r0, r3
 1640 0028 BD46     		mov	sp, r7
 1641 002a 05B0     		add	sp, sp, #20
 1642              		@ sp needed
 1643 002c 90BD     		pop	{r4, r7, pc}
 1644              		.cfi_endproc
 1645              	.LFE10:
ARM GAS  C:\Users\ilya\AppData\Local\Temp\ccWKU7si.s 			page 40


 1646              		.size	set_ref_spad_map, .-set_ref_spad_map
 1647 002e C046     		.section	.text.get_ref_spad_map,"ax",%progbits
 1648              		.align	2
 1649              		.global	get_ref_spad_map
 1650              		.code	16
 1651              		.thumb_func
 1652              		.type	get_ref_spad_map, %function
 1653              	get_ref_spad_map:
 1654              	.LFB11:
 546:Api\core\src/vl53l0x_api_calibration.c **** 
 547:Api\core\src/vl53l0x_api_calibration.c **** VL53L0X_Error get_ref_spad_map(VL53L0X_DEV Dev, uint8_t *refSpadArray)
 548:Api\core\src/vl53l0x_api_calibration.c **** {
 1655              		.loc 1 548 0
 1656              		.cfi_startproc
 1657              		@ args = 0, pretend = 0, frame = 16
 1658              		@ frame_needed = 1, uses_anonymous_args = 0
 1659 0000 90B5     		push	{r4, r7, lr}
 1660              		.cfi_def_cfa_offset 12
 1661              		.cfi_offset 4, -12
 1662              		.cfi_offset 7, -8
 1663              		.cfi_offset 14, -4
 1664 0002 85B0     		sub	sp, sp, #20
 1665              		.cfi_def_cfa_offset 32
 1666 0004 00AF     		add	r7, sp, #0
 1667              		.cfi_def_cfa_register 7
 1668 0006 7860     		str	r0, [r7, #4]
 1669 0008 3960     		str	r1, [r7]
 549:Api\core\src/vl53l0x_api_calibration.c **** 	VL53L0X_Error status = VL53L0X_ReadMulti(Dev,
 1670              		.loc 1 549 0
 1671 000a 0F23     		movs	r3, #15
 1672 000c FC18     		adds	r4, r7, r3
 1673 000e 3A68     		ldr	r2, [r7]
 1674 0010 7868     		ldr	r0, [r7, #4]
 1675 0012 0623     		movs	r3, #6
 1676 0014 B021     		movs	r1, #176
 1677 0016 FFF7FEFF 		bl	VL53L0X_ReadMulti
 1678 001a 0300     		movs	r3, r0
 1679 001c 2370     		strb	r3, [r4]
 550:Api\core\src/vl53l0x_api_calibration.c **** 				VL53L0X_REG_GLOBAL_CONFIG_SPAD_ENABLES_REF_0,
 551:Api\core\src/vl53l0x_api_calibration.c **** 				refSpadArray,
 552:Api\core\src/vl53l0x_api_calibration.c **** 				6);
 553:Api\core\src/vl53l0x_api_calibration.c **** 	return status;
 1680              		.loc 1 553 0
 1681 001e 0F23     		movs	r3, #15
 1682 0020 FB18     		adds	r3, r7, r3
 1683 0022 1B78     		ldrb	r3, [r3]
 1684 0024 5BB2     		sxtb	r3, r3
 554:Api\core\src/vl53l0x_api_calibration.c **** }
 1685              		.loc 1 554 0
 1686 0026 1800     		movs	r0, r3
 1687 0028 BD46     		mov	sp, r7
 1688 002a 05B0     		add	sp, sp, #20
 1689              		@ sp needed
 1690 002c 90BD     		pop	{r4, r7, pc}
 1691              		.cfi_endproc
 1692              	.LFE11:
 1693              		.size	get_ref_spad_map, .-get_ref_spad_map
ARM GAS  C:\Users\ilya\AppData\Local\Temp\ccWKU7si.s 			page 41


 1694 002e C046     		.section	.text.enable_ref_spads,"ax",%progbits
 1695              		.align	2
 1696              		.global	enable_ref_spads
 1697              		.code	16
 1698              		.thumb_func
 1699              		.type	enable_ref_spads, %function
 1700              	enable_ref_spads:
 1701              	.LFB12:
 555:Api\core\src/vl53l0x_api_calibration.c **** 
 556:Api\core\src/vl53l0x_api_calibration.c **** VL53L0X_Error enable_ref_spads(VL53L0X_DEV Dev,
 557:Api\core\src/vl53l0x_api_calibration.c **** 				uint8_t apertureSpads,
 558:Api\core\src/vl53l0x_api_calibration.c **** 				uint8_t goodSpadArray[],
 559:Api\core\src/vl53l0x_api_calibration.c **** 				uint8_t spadArray[],
 560:Api\core\src/vl53l0x_api_calibration.c **** 				uint32_t size,
 561:Api\core\src/vl53l0x_api_calibration.c **** 				uint32_t start,
 562:Api\core\src/vl53l0x_api_calibration.c **** 				uint32_t offset,
 563:Api\core\src/vl53l0x_api_calibration.c **** 				uint32_t spadCount,
 564:Api\core\src/vl53l0x_api_calibration.c **** 				uint32_t *lastSpad)
 565:Api\core\src/vl53l0x_api_calibration.c **** {
 1702              		.loc 1 565 0
 1703              		.cfi_startproc
 1704              		@ args = 20, pretend = 0, frame = 48
 1705              		@ frame_needed = 1, uses_anonymous_args = 0
 1706 0000 90B5     		push	{r4, r7, lr}
 1707              		.cfi_def_cfa_offset 12
 1708              		.cfi_offset 4, -12
 1709              		.cfi_offset 7, -8
 1710              		.cfi_offset 14, -4
 1711 0002 8DB0     		sub	sp, sp, #52
 1712              		.cfi_def_cfa_offset 64
 1713 0004 00AF     		add	r7, sp, #0
 1714              		.cfi_def_cfa_register 7
 1715 0006 F860     		str	r0, [r7, #12]
 1716 0008 7A60     		str	r2, [r7, #4]
 1717 000a 3B60     		str	r3, [r7]
 1718 000c 0B23     		movs	r3, #11
 1719 000e FB18     		adds	r3, r7, r3
 1720 0010 0A1C     		adds	r2, r1, #0
 1721 0012 1A70     		strb	r2, [r3]
 566:Api\core\src/vl53l0x_api_calibration.c **** 	VL53L0X_Error status = VL53L0X_ERROR_NONE;
 1722              		.loc 1 566 0
 1723 0014 2F23     		movs	r3, #47
 1724 0016 FB18     		adds	r3, r7, r3
 1725 0018 0022     		movs	r2, #0
 1726 001a 1A70     		strb	r2, [r3]
 567:Api\core\src/vl53l0x_api_calibration.c **** 	uint32_t index;
 568:Api\core\src/vl53l0x_api_calibration.c **** 	uint32_t i;
 569:Api\core\src/vl53l0x_api_calibration.c **** 	int32_t nextGoodSpad = offset;
 1727              		.loc 1 569 0
 1728 001c BB6C     		ldr	r3, [r7, #72]
 1729 001e FB61     		str	r3, [r7, #28]
 570:Api\core\src/vl53l0x_api_calibration.c **** 	uint32_t currentSpad;
 571:Api\core\src/vl53l0x_api_calibration.c **** 	uint8_t checkSpadArray[6];
 572:Api\core\src/vl53l0x_api_calibration.c **** 
 573:Api\core\src/vl53l0x_api_calibration.c **** 	/*
 574:Api\core\src/vl53l0x_api_calibration.c **** 	 * This function takes in a spad array which may or may not have SPADS
 575:Api\core\src/vl53l0x_api_calibration.c **** 	 * already enabled and appends from a given offset a requested number
ARM GAS  C:\Users\ilya\AppData\Local\Temp\ccWKU7si.s 			page 42


 576:Api\core\src/vl53l0x_api_calibration.c **** 	 * of new SPAD enables. The 'good spad map' is applied to
 577:Api\core\src/vl53l0x_api_calibration.c **** 	 * determine the next SPADs to enable.
 578:Api\core\src/vl53l0x_api_calibration.c **** 	 *
 579:Api\core\src/vl53l0x_api_calibration.c **** 	 * This function applies to only aperture or only non-aperture spads.
 580:Api\core\src/vl53l0x_api_calibration.c **** 	 * Checks are performed to ensure this.
 581:Api\core\src/vl53l0x_api_calibration.c **** 	 */
 582:Api\core\src/vl53l0x_api_calibration.c **** 
 583:Api\core\src/vl53l0x_api_calibration.c **** 	currentSpad = offset;
 1730              		.loc 1 583 0
 1731 0020 BB6C     		ldr	r3, [r7, #72]
 1732 0022 3B62     		str	r3, [r7, #32]
 584:Api\core\src/vl53l0x_api_calibration.c **** 	for (index = 0; index < spadCount; index++) {
 1733              		.loc 1 584 0
 1734 0024 0023     		movs	r3, #0
 1735 0026 BB62     		str	r3, [r7, #40]
 1736 0028 2FE0     		b	.L88
 1737              	.L92:
 585:Api\core\src/vl53l0x_api_calibration.c **** 		get_next_good_spad(goodSpadArray, size, currentSpad,
 1738              		.loc 1 585 0
 1739 002a 1C23     		movs	r3, #28
 1740 002c FB18     		adds	r3, r7, r3
 1741 002e 3A6A     		ldr	r2, [r7, #32]
 1742 0030 396C     		ldr	r1, [r7, #64]
 1743 0032 7868     		ldr	r0, [r7, #4]
 1744 0034 FFF7FEFF 		bl	get_next_good_spad
 586:Api\core\src/vl53l0x_api_calibration.c **** 			&nextGoodSpad);
 587:Api\core\src/vl53l0x_api_calibration.c **** 
 588:Api\core\src/vl53l0x_api_calibration.c **** 		if (nextGoodSpad == -1) {
 1745              		.loc 1 588 0
 1746 0038 FB69     		ldr	r3, [r7, #28]
 1747 003a 0133     		adds	r3, r3, #1
 1748 003c 04D1     		bne	.L89
 589:Api\core\src/vl53l0x_api_calibration.c **** 			status = VL53L0X_ERROR_REF_SPAD_INIT;
 1749              		.loc 1 589 0
 1750 003e 2F23     		movs	r3, #47
 1751 0040 FB18     		adds	r3, r7, r3
 1752 0042 CE22     		movs	r2, #206
 1753 0044 1A70     		strb	r2, [r3]
 590:Api\core\src/vl53l0x_api_calibration.c **** 			break;
 1754              		.loc 1 590 0
 1755 0046 24E0     		b	.L90
 1756              	.L89:
 591:Api\core\src/vl53l0x_api_calibration.c **** 		}
 592:Api\core\src/vl53l0x_api_calibration.c **** 
 593:Api\core\src/vl53l0x_api_calibration.c **** 		/* Confirm that the next good SPAD is non-aperture */
 594:Api\core\src/vl53l0x_api_calibration.c **** 		if (is_aperture(start + nextGoodSpad) != apertureSpads) {
 1757              		.loc 1 594 0
 1758 0048 FB69     		ldr	r3, [r7, #28]
 1759 004a 1A00     		movs	r2, r3
 1760 004c 7B6C     		ldr	r3, [r7, #68]
 1761 004e D318     		adds	r3, r2, r3
 1762 0050 1800     		movs	r0, r3
 1763 0052 FFF7FEFF 		bl	is_aperture
 1764 0056 0300     		movs	r3, r0
 1765 0058 1A00     		movs	r2, r3
 1766 005a 0B23     		movs	r3, #11
 1767 005c FB18     		adds	r3, r7, r3
ARM GAS  C:\Users\ilya\AppData\Local\Temp\ccWKU7si.s 			page 43


 1768 005e 1B78     		ldrb	r3, [r3]
 1769 0060 9342     		cmp	r3, r2
 1770 0062 04D0     		beq	.L91
 595:Api\core\src/vl53l0x_api_calibration.c **** 			/* if we can't get the required number of good aperture
 596:Api\core\src/vl53l0x_api_calibration.c **** 			 * spads from the current quadrant then this is an error
 597:Api\core\src/vl53l0x_api_calibration.c **** 			 */
 598:Api\core\src/vl53l0x_api_calibration.c **** 			status = VL53L0X_ERROR_REF_SPAD_INIT;
 1771              		.loc 1 598 0
 1772 0064 2F23     		movs	r3, #47
 1773 0066 FB18     		adds	r3, r7, r3
 1774 0068 CE22     		movs	r2, #206
 1775 006a 1A70     		strb	r2, [r3]
 599:Api\core\src/vl53l0x_api_calibration.c **** 			break;
 1776              		.loc 1 599 0
 1777 006c 11E0     		b	.L90
 1778              	.L91:
 600:Api\core\src/vl53l0x_api_calibration.c **** 		}
 601:Api\core\src/vl53l0x_api_calibration.c **** 		currentSpad = (uint32_t)nextGoodSpad;
 1779              		.loc 1 601 0 discriminator 2
 1780 006e FB69     		ldr	r3, [r7, #28]
 1781 0070 3B62     		str	r3, [r7, #32]
 602:Api\core\src/vl53l0x_api_calibration.c **** 		enable_spad_bit(spadArray, size, currentSpad);
 1782              		.loc 1 602 0 discriminator 2
 1783 0072 3A6A     		ldr	r2, [r7, #32]
 1784 0074 396C     		ldr	r1, [r7, #64]
 1785 0076 3B68     		ldr	r3, [r7]
 1786 0078 1800     		movs	r0, r3
 1787 007a FFF7FEFF 		bl	enable_spad_bit
 603:Api\core\src/vl53l0x_api_calibration.c **** 		currentSpad++;
 1788              		.loc 1 603 0 discriminator 2
 1789 007e 3B6A     		ldr	r3, [r7, #32]
 1790 0080 0133     		adds	r3, r3, #1
 1791 0082 3B62     		str	r3, [r7, #32]
 584:Api\core\src/vl53l0x_api_calibration.c **** 		get_next_good_spad(goodSpadArray, size, currentSpad,
 1792              		.loc 1 584 0 discriminator 2
 1793 0084 BB6A     		ldr	r3, [r7, #40]
 1794 0086 0133     		adds	r3, r3, #1
 1795 0088 BB62     		str	r3, [r7, #40]
 1796              	.L88:
 584:Api\core\src/vl53l0x_api_calibration.c **** 		get_next_good_spad(goodSpadArray, size, currentSpad,
 1797              		.loc 1 584 0 is_stmt 0 discriminator 1
 1798 008a BA6A     		ldr	r2, [r7, #40]
 1799 008c FB6C     		ldr	r3, [r7, #76]
 1800 008e 9A42     		cmp	r2, r3
 1801 0090 CBD3     		bcc	.L92
 1802              	.L90:
 604:Api\core\src/vl53l0x_api_calibration.c **** 	}
 605:Api\core\src/vl53l0x_api_calibration.c **** 	*lastSpad = currentSpad;
 1803              		.loc 1 605 0 is_stmt 1
 1804 0092 3B6D     		ldr	r3, [r7, #80]
 1805 0094 3A6A     		ldr	r2, [r7, #32]
 1806 0096 1A60     		str	r2, [r3]
 606:Api\core\src/vl53l0x_api_calibration.c **** 
 607:Api\core\src/vl53l0x_api_calibration.c **** 	if (status == VL53L0X_ERROR_NONE)
 1807              		.loc 1 607 0
 1808 0098 2F23     		movs	r3, #47
 1809 009a FB18     		adds	r3, r7, r3
ARM GAS  C:\Users\ilya\AppData\Local\Temp\ccWKU7si.s 			page 44


 1810 009c 1B78     		ldrb	r3, [r3]
 1811 009e 5BB2     		sxtb	r3, r3
 1812 00a0 002B     		cmp	r3, #0
 1813 00a2 09D1     		bne	.L93
 608:Api\core\src/vl53l0x_api_calibration.c **** 		status = set_ref_spad_map(Dev, spadArray);
 1814              		.loc 1 608 0
 1815 00a4 2F23     		movs	r3, #47
 1816 00a6 FC18     		adds	r4, r7, r3
 1817 00a8 3A68     		ldr	r2, [r7]
 1818 00aa FB68     		ldr	r3, [r7, #12]
 1819 00ac 1100     		movs	r1, r2
 1820 00ae 1800     		movs	r0, r3
 1821 00b0 FFF7FEFF 		bl	set_ref_spad_map
 1822 00b4 0300     		movs	r3, r0
 1823 00b6 2370     		strb	r3, [r4]
 1824              	.L93:
 609:Api\core\src/vl53l0x_api_calibration.c **** 
 610:Api\core\src/vl53l0x_api_calibration.c **** 
 611:Api\core\src/vl53l0x_api_calibration.c **** 	if (status == VL53L0X_ERROR_NONE) {
 1825              		.loc 1 611 0
 1826 00b8 2F23     		movs	r3, #47
 1827 00ba FB18     		adds	r3, r7, r3
 1828 00bc 1B78     		ldrb	r3, [r3]
 1829 00be 5BB2     		sxtb	r3, r3
 1830 00c0 002B     		cmp	r3, #0
 1831 00c2 24D1     		bne	.L94
 612:Api\core\src/vl53l0x_api_calibration.c **** 		status = get_ref_spad_map(Dev, checkSpadArray);
 1832              		.loc 1 612 0
 1833 00c4 2F23     		movs	r3, #47
 1834 00c6 FC18     		adds	r4, r7, r3
 1835 00c8 1423     		movs	r3, #20
 1836 00ca FA18     		adds	r2, r7, r3
 1837 00cc FB68     		ldr	r3, [r7, #12]
 1838 00ce 1100     		movs	r1, r2
 1839 00d0 1800     		movs	r0, r3
 1840 00d2 FFF7FEFF 		bl	get_ref_spad_map
 1841 00d6 0300     		movs	r3, r0
 1842 00d8 2370     		strb	r3, [r4]
 613:Api\core\src/vl53l0x_api_calibration.c **** 
 614:Api\core\src/vl53l0x_api_calibration.c **** 		i = 0;
 1843              		.loc 1 614 0
 1844 00da 0023     		movs	r3, #0
 1845 00dc 7B62     		str	r3, [r7, #36]
 615:Api\core\src/vl53l0x_api_calibration.c **** 
 616:Api\core\src/vl53l0x_api_calibration.c **** 		/* Compare spad maps. If not equal report error. */
 617:Api\core\src/vl53l0x_api_calibration.c **** 		while (i < size) {
 1846              		.loc 1 617 0
 1847 00de 12E0     		b	.L95
 1848              	.L97:
 618:Api\core\src/vl53l0x_api_calibration.c **** 			if (spadArray[i] != checkSpadArray[i]) {
 1849              		.loc 1 618 0
 1850 00e0 3A68     		ldr	r2, [r7]
 1851 00e2 7B6A     		ldr	r3, [r7, #36]
 1852 00e4 D318     		adds	r3, r2, r3
 1853 00e6 1A78     		ldrb	r2, [r3]
 1854 00e8 1423     		movs	r3, #20
 1855 00ea F918     		adds	r1, r7, r3
ARM GAS  C:\Users\ilya\AppData\Local\Temp\ccWKU7si.s 			page 45


 1856 00ec 7B6A     		ldr	r3, [r7, #36]
 1857 00ee CB18     		adds	r3, r1, r3
 1858 00f0 1B78     		ldrb	r3, [r3]
 1859 00f2 9A42     		cmp	r2, r3
 1860 00f4 04D0     		beq	.L96
 619:Api\core\src/vl53l0x_api_calibration.c **** 				status = VL53L0X_ERROR_REF_SPAD_INIT;
 1861              		.loc 1 619 0
 1862 00f6 2F23     		movs	r3, #47
 1863 00f8 FB18     		adds	r3, r7, r3
 1864 00fa CE22     		movs	r2, #206
 1865 00fc 1A70     		strb	r2, [r3]
 620:Api\core\src/vl53l0x_api_calibration.c **** 				break;
 1866              		.loc 1 620 0
 1867 00fe 06E0     		b	.L94
 1868              	.L96:
 621:Api\core\src/vl53l0x_api_calibration.c **** 			}
 622:Api\core\src/vl53l0x_api_calibration.c **** 			i++;
 1869              		.loc 1 622 0
 1870 0100 7B6A     		ldr	r3, [r7, #36]
 1871 0102 0133     		adds	r3, r3, #1
 1872 0104 7B62     		str	r3, [r7, #36]
 1873              	.L95:
 617:Api\core\src/vl53l0x_api_calibration.c **** 			if (spadArray[i] != checkSpadArray[i]) {
 1874              		.loc 1 617 0
 1875 0106 7A6A     		ldr	r2, [r7, #36]
 1876 0108 3B6C     		ldr	r3, [r7, #64]
 1877 010a 9A42     		cmp	r2, r3
 1878 010c E8D3     		bcc	.L97
 1879              	.L94:
 623:Api\core\src/vl53l0x_api_calibration.c **** 		}
 624:Api\core\src/vl53l0x_api_calibration.c **** 	}
 625:Api\core\src/vl53l0x_api_calibration.c **** 	return status;
 1880              		.loc 1 625 0
 1881 010e 2F23     		movs	r3, #47
 1882 0110 FB18     		adds	r3, r7, r3
 1883 0112 1B78     		ldrb	r3, [r3]
 1884 0114 5BB2     		sxtb	r3, r3
 626:Api\core\src/vl53l0x_api_calibration.c **** }
 1885              		.loc 1 626 0
 1886 0116 1800     		movs	r0, r3
 1887 0118 BD46     		mov	sp, r7
 1888 011a 0DB0     		add	sp, sp, #52
 1889              		@ sp needed
 1890 011c 90BD     		pop	{r4, r7, pc}
 1891              		.cfi_endproc
 1892              	.LFE12:
 1893              		.size	enable_ref_spads, .-enable_ref_spads
 1894              		.section	.text.perform_ref_signal_measurement,"ax",%progbits
 1895              		.align	2
 1896              		.global	perform_ref_signal_measurement
 1897              		.code	16
 1898              		.thumb_func
 1899              		.type	perform_ref_signal_measurement, %function
 1900              	perform_ref_signal_measurement:
 1901              	.LFB13:
 627:Api\core\src/vl53l0x_api_calibration.c **** 
 628:Api\core\src/vl53l0x_api_calibration.c **** 
ARM GAS  C:\Users\ilya\AppData\Local\Temp\ccWKU7si.s 			page 46


 629:Api\core\src/vl53l0x_api_calibration.c **** VL53L0X_Error perform_ref_signal_measurement(VL53L0X_DEV Dev,
 630:Api\core\src/vl53l0x_api_calibration.c **** 		uint16_t *refSignalRate)
 631:Api\core\src/vl53l0x_api_calibration.c **** {
 1902              		.loc 1 631 0
 1903              		.cfi_startproc
 1904              		@ args = 0, pretend = 0, frame = 40
 1905              		@ frame_needed = 1, uses_anonymous_args = 0
 1906 0000 90B5     		push	{r4, r7, lr}
 1907              		.cfi_def_cfa_offset 12
 1908              		.cfi_offset 4, -12
 1909              		.cfi_offset 7, -8
 1910              		.cfi_offset 14, -4
 1911 0002 8BB0     		sub	sp, sp, #44
 1912              		.cfi_def_cfa_offset 56
 1913 0004 00AF     		add	r7, sp, #0
 1914              		.cfi_def_cfa_register 7
 1915 0006 7860     		str	r0, [r7, #4]
 1916 0008 3960     		str	r1, [r7]
 632:Api\core\src/vl53l0x_api_calibration.c **** 	VL53L0X_Error status = VL53L0X_ERROR_NONE;
 1917              		.loc 1 632 0
 1918 000a 2723     		movs	r3, #39
 1919 000c FB18     		adds	r3, r7, r3
 1920 000e 0022     		movs	r2, #0
 1921 0010 1A70     		strb	r2, [r3]
 633:Api\core\src/vl53l0x_api_calibration.c **** 	VL53L0X_RangingMeasurementData_t rangingMeasurementData;
 634:Api\core\src/vl53l0x_api_calibration.c **** 
 635:Api\core\src/vl53l0x_api_calibration.c **** 	uint8_t SequenceConfig = 0;
 1922              		.loc 1 635 0
 1923 0012 2623     		movs	r3, #38
 1924 0014 FB18     		adds	r3, r7, r3
 1925 0016 0022     		movs	r2, #0
 1926 0018 1A70     		strb	r2, [r3]
 636:Api\core\src/vl53l0x_api_calibration.c **** 
 637:Api\core\src/vl53l0x_api_calibration.c **** 	/* store the value of the sequence config,
 638:Api\core\src/vl53l0x_api_calibration.c **** 	 * this will be reset before the end of the function
 639:Api\core\src/vl53l0x_api_calibration.c **** 	 */
 640:Api\core\src/vl53l0x_api_calibration.c **** 
 641:Api\core\src/vl53l0x_api_calibration.c **** 	SequenceConfig = PALDevDataGet(Dev, SequenceConfig);
 1927              		.loc 1 641 0
 1928 001a 2623     		movs	r3, #38
 1929 001c FB18     		adds	r3, r7, r3
 1930 001e 7968     		ldr	r1, [r7, #4]
 1931 0020 9822     		movs	r2, #152
 1932 0022 5200     		lsls	r2, r2, #1
 1933 0024 8A5C     		ldrb	r2, [r1, r2]
 1934 0026 1A70     		strb	r2, [r3]
 642:Api\core\src/vl53l0x_api_calibration.c **** 
 643:Api\core\src/vl53l0x_api_calibration.c **** 	/*
 644:Api\core\src/vl53l0x_api_calibration.c **** 	 * This function performs a reference signal rate measurement.
 645:Api\core\src/vl53l0x_api_calibration.c **** 	 */
 646:Api\core\src/vl53l0x_api_calibration.c **** 	if (status == VL53L0X_ERROR_NONE)
 1935              		.loc 1 646 0
 1936 0028 2723     		movs	r3, #39
 1937 002a FB18     		adds	r3, r7, r3
 1938 002c 1B78     		ldrb	r3, [r3]
 1939 002e 5BB2     		sxtb	r3, r3
 1940 0030 002B     		cmp	r3, #0
ARM GAS  C:\Users\ilya\AppData\Local\Temp\ccWKU7si.s 			page 47


 1941 0032 09D1     		bne	.L100
 647:Api\core\src/vl53l0x_api_calibration.c **** 		status = VL53L0X_WrByte(Dev,
 1942              		.loc 1 647 0
 1943 0034 2723     		movs	r3, #39
 1944 0036 FC18     		adds	r4, r7, r3
 1945 0038 7B68     		ldr	r3, [r7, #4]
 1946 003a C022     		movs	r2, #192
 1947 003c 0121     		movs	r1, #1
 1948 003e 1800     		movs	r0, r3
 1949 0040 FFF7FEFF 		bl	VL53L0X_WrByte
 1950 0044 0300     		movs	r3, r0
 1951 0046 2370     		strb	r3, [r4]
 1952              	.L100:
 648:Api\core\src/vl53l0x_api_calibration.c **** 			VL53L0X_REG_SYSTEM_SEQUENCE_CONFIG, 0xC0);
 649:Api\core\src/vl53l0x_api_calibration.c **** 
 650:Api\core\src/vl53l0x_api_calibration.c **** 	if (status == VL53L0X_ERROR_NONE)
 1953              		.loc 1 650 0
 1954 0048 2723     		movs	r3, #39
 1955 004a FB18     		adds	r3, r7, r3
 1956 004c 1B78     		ldrb	r3, [r3]
 1957 004e 5BB2     		sxtb	r3, r3
 1958 0050 002B     		cmp	r3, #0
 1959 0052 0AD1     		bne	.L101
 651:Api\core\src/vl53l0x_api_calibration.c **** 		status = VL53L0X_PerformSingleRangingMeasurement(Dev,
 1960              		.loc 1 651 0
 1961 0054 2723     		movs	r3, #39
 1962 0056 FC18     		adds	r4, r7, r3
 1963 0058 0823     		movs	r3, #8
 1964 005a FA18     		adds	r2, r7, r3
 1965 005c 7B68     		ldr	r3, [r7, #4]
 1966 005e 1100     		movs	r1, r2
 1967 0060 1800     		movs	r0, r3
 1968 0062 FFF7FEFF 		bl	VL53L0X_PerformSingleRangingMeasurement
 1969 0066 0300     		movs	r3, r0
 1970 0068 2370     		strb	r3, [r4]
 1971              	.L101:
 652:Api\core\src/vl53l0x_api_calibration.c **** 				&rangingMeasurementData);
 653:Api\core\src/vl53l0x_api_calibration.c **** 
 654:Api\core\src/vl53l0x_api_calibration.c **** 	if (status == VL53L0X_ERROR_NONE)
 1972              		.loc 1 654 0
 1973 006a 2723     		movs	r3, #39
 1974 006c FB18     		adds	r3, r7, r3
 1975 006e 1B78     		ldrb	r3, [r3]
 1976 0070 5BB2     		sxtb	r3, r3
 1977 0072 002B     		cmp	r3, #0
 1978 0074 09D1     		bne	.L102
 655:Api\core\src/vl53l0x_api_calibration.c **** 		status = VL53L0X_WrByte(Dev, 0xFF, 0x01);
 1979              		.loc 1 655 0
 1980 0076 2723     		movs	r3, #39
 1981 0078 FC18     		adds	r4, r7, r3
 1982 007a 7B68     		ldr	r3, [r7, #4]
 1983 007c 0122     		movs	r2, #1
 1984 007e FF21     		movs	r1, #255
 1985 0080 1800     		movs	r0, r3
 1986 0082 FFF7FEFF 		bl	VL53L0X_WrByte
 1987 0086 0300     		movs	r3, r0
 1988 0088 2370     		strb	r3, [r4]
ARM GAS  C:\Users\ilya\AppData\Local\Temp\ccWKU7si.s 			page 48


 1989              	.L102:
 656:Api\core\src/vl53l0x_api_calibration.c **** 
 657:Api\core\src/vl53l0x_api_calibration.c **** 	if (status == VL53L0X_ERROR_NONE)
 1990              		.loc 1 657 0
 1991 008a 2723     		movs	r3, #39
 1992 008c FB18     		adds	r3, r7, r3
 1993 008e 1B78     		ldrb	r3, [r3]
 1994 0090 5BB2     		sxtb	r3, r3
 1995 0092 002B     		cmp	r3, #0
 1996 0094 09D1     		bne	.L103
 658:Api\core\src/vl53l0x_api_calibration.c **** 		status = VL53L0X_RdWord(Dev,
 1997              		.loc 1 658 0
 1998 0096 2723     		movs	r3, #39
 1999 0098 FC18     		adds	r4, r7, r3
 2000 009a 3A68     		ldr	r2, [r7]
 2001 009c 7B68     		ldr	r3, [r7, #4]
 2002 009e B621     		movs	r1, #182
 2003 00a0 1800     		movs	r0, r3
 2004 00a2 FFF7FEFF 		bl	VL53L0X_RdWord
 2005 00a6 0300     		movs	r3, r0
 2006 00a8 2370     		strb	r3, [r4]
 2007              	.L103:
 659:Api\core\src/vl53l0x_api_calibration.c **** 			VL53L0X_REG_RESULT_PEAK_SIGNAL_RATE_REF,
 660:Api\core\src/vl53l0x_api_calibration.c **** 			refSignalRate);
 661:Api\core\src/vl53l0x_api_calibration.c **** 
 662:Api\core\src/vl53l0x_api_calibration.c **** 	if (status == VL53L0X_ERROR_NONE)
 2008              		.loc 1 662 0
 2009 00aa 2723     		movs	r3, #39
 2010 00ac FB18     		adds	r3, r7, r3
 2011 00ae 1B78     		ldrb	r3, [r3]
 2012 00b0 5BB2     		sxtb	r3, r3
 2013 00b2 002B     		cmp	r3, #0
 2014 00b4 09D1     		bne	.L104
 663:Api\core\src/vl53l0x_api_calibration.c **** 		status = VL53L0X_WrByte(Dev, 0xFF, 0x00);
 2015              		.loc 1 663 0
 2016 00b6 2723     		movs	r3, #39
 2017 00b8 FC18     		adds	r4, r7, r3
 2018 00ba 7B68     		ldr	r3, [r7, #4]
 2019 00bc 0022     		movs	r2, #0
 2020 00be FF21     		movs	r1, #255
 2021 00c0 1800     		movs	r0, r3
 2022 00c2 FFF7FEFF 		bl	VL53L0X_WrByte
 2023 00c6 0300     		movs	r3, r0
 2024 00c8 2370     		strb	r3, [r4]
 2025              	.L104:
 664:Api\core\src/vl53l0x_api_calibration.c **** 
 665:Api\core\src/vl53l0x_api_calibration.c **** 	if (status == VL53L0X_ERROR_NONE) {
 2026              		.loc 1 665 0
 2027 00ca 2723     		movs	r3, #39
 2028 00cc FB18     		adds	r3, r7, r3
 2029 00ce 1B78     		ldrb	r3, [r3]
 2030 00d0 5BB2     		sxtb	r3, r3
 2031 00d2 002B     		cmp	r3, #0
 2032 00d4 18D1     		bne	.L105
 666:Api\core\src/vl53l0x_api_calibration.c **** 		/* restore the previous Sequence Config */
 667:Api\core\src/vl53l0x_api_calibration.c **** 		status = VL53L0X_WrByte(Dev, VL53L0X_REG_SYSTEM_SEQUENCE_CONFIG,
 2033              		.loc 1 667 0
ARM GAS  C:\Users\ilya\AppData\Local\Temp\ccWKU7si.s 			page 49


 2034 00d6 2723     		movs	r3, #39
 2035 00d8 FC18     		adds	r4, r7, r3
 2036 00da 2623     		movs	r3, #38
 2037 00dc FB18     		adds	r3, r7, r3
 2038 00de 1A78     		ldrb	r2, [r3]
 2039 00e0 7B68     		ldr	r3, [r7, #4]
 2040 00e2 0121     		movs	r1, #1
 2041 00e4 1800     		movs	r0, r3
 2042 00e6 FFF7FEFF 		bl	VL53L0X_WrByte
 2043 00ea 0300     		movs	r3, r0
 2044 00ec 2370     		strb	r3, [r4]
 668:Api\core\src/vl53l0x_api_calibration.c **** 				SequenceConfig);
 669:Api\core\src/vl53l0x_api_calibration.c **** 		if (status == VL53L0X_ERROR_NONE)
 2045              		.loc 1 669 0
 2046 00ee 2723     		movs	r3, #39
 2047 00f0 FB18     		adds	r3, r7, r3
 2048 00f2 1B78     		ldrb	r3, [r3]
 2049 00f4 5BB2     		sxtb	r3, r3
 2050 00f6 002B     		cmp	r3, #0
 2051 00f8 06D1     		bne	.L105
 670:Api\core\src/vl53l0x_api_calibration.c **** 			PALDevDataSet(Dev, SequenceConfig, SequenceConfig);
 2052              		.loc 1 670 0
 2053 00fa 7A68     		ldr	r2, [r7, #4]
 2054 00fc 2623     		movs	r3, #38
 2055 00fe F918     		adds	r1, r7, r3
 2056 0100 9823     		movs	r3, #152
 2057 0102 5B00     		lsls	r3, r3, #1
 2058 0104 0978     		ldrb	r1, [r1]
 2059 0106 D154     		strb	r1, [r2, r3]
 2060              	.L105:
 671:Api\core\src/vl53l0x_api_calibration.c **** 	}
 672:Api\core\src/vl53l0x_api_calibration.c **** 
 673:Api\core\src/vl53l0x_api_calibration.c **** 	return status;
 2061              		.loc 1 673 0
 2062 0108 2723     		movs	r3, #39
 2063 010a FB18     		adds	r3, r7, r3
 2064 010c 1B78     		ldrb	r3, [r3]
 2065 010e 5BB2     		sxtb	r3, r3
 674:Api\core\src/vl53l0x_api_calibration.c **** }
 2066              		.loc 1 674 0
 2067 0110 1800     		movs	r0, r3
 2068 0112 BD46     		mov	sp, r7
 2069 0114 0BB0     		add	sp, sp, #44
 2070              		@ sp needed
 2071 0116 90BD     		pop	{r4, r7, pc}
 2072              		.cfi_endproc
 2073              	.LFE13:
 2074              		.size	perform_ref_signal_measurement, .-perform_ref_signal_measurement
 2075              		.section	.text.VL53L0X_perform_ref_spad_management,"ax",%progbits
 2076              		.align	2
 2077              		.global	VL53L0X_perform_ref_spad_management
 2078              		.code	16
 2079              		.thumb_func
 2080              		.type	VL53L0X_perform_ref_spad_management, %function
 2081              	VL53L0X_perform_ref_spad_management:
 2082              	.LFB14:
 675:Api\core\src/vl53l0x_api_calibration.c **** 
ARM GAS  C:\Users\ilya\AppData\Local\Temp\ccWKU7si.s 			page 50


 676:Api\core\src/vl53l0x_api_calibration.c **** VL53L0X_Error VL53L0X_perform_ref_spad_management(VL53L0X_DEV Dev,
 677:Api\core\src/vl53l0x_api_calibration.c **** 				uint32_t *refSpadCount,
 678:Api\core\src/vl53l0x_api_calibration.c **** 				uint8_t *isApertureSpads)
 679:Api\core\src/vl53l0x_api_calibration.c **** {
 2083              		.loc 1 679 0
 2084              		.cfi_startproc
 2085              		@ args = 0, pretend = 0, frame = 88
 2086              		@ frame_needed = 1, uses_anonymous_args = 0
 2087 0000 F0B5     		push	{r4, r5, r6, r7, lr}
 2088              		.cfi_def_cfa_offset 20
 2089              		.cfi_offset 4, -20
 2090              		.cfi_offset 5, -16
 2091              		.cfi_offset 6, -12
 2092              		.cfi_offset 7, -8
 2093              		.cfi_offset 14, -4
 2094 0002 9DB0     		sub	sp, sp, #116
 2095              		.cfi_def_cfa_offset 136
 2096 0004 06AF     		add	r7, sp, #24
 2097              		.cfi_def_cfa 7, 112
 2098 0006 F860     		str	r0, [r7, #12]
 2099 0008 B960     		str	r1, [r7, #8]
 2100 000a 7A60     		str	r2, [r7, #4]
 680:Api\core\src/vl53l0x_api_calibration.c **** 	VL53L0X_Error Status = VL53L0X_ERROR_NONE;
 2101              		.loc 1 680 0
 2102 000c 5723     		movs	r3, #87
 2103 000e FB18     		adds	r3, r7, r3
 2104 0010 0022     		movs	r2, #0
 2105 0012 1A70     		strb	r2, [r3]
 681:Api\core\src/vl53l0x_api_calibration.c **** 	uint8_t lastSpadArray[6];
 682:Api\core\src/vl53l0x_api_calibration.c **** 	uint8_t startSelect = 0xB4;
 2106              		.loc 1 682 0
 2107 0014 3A23     		movs	r3, #58
 2108 0016 FB18     		adds	r3, r7, r3
 2109 0018 B422     		movs	r2, #180
 2110 001a 1A70     		strb	r2, [r3]
 683:Api\core\src/vl53l0x_api_calibration.c **** 	uint32_t minimumSpadCount = 3;
 2111              		.loc 1 683 0
 2112 001c 0323     		movs	r3, #3
 2113 001e 7B63     		str	r3, [r7, #52]
 684:Api\core\src/vl53l0x_api_calibration.c **** 	uint32_t maxSpadCount = 44;
 2114              		.loc 1 684 0
 2115 0020 2C23     		movs	r3, #44
 2116 0022 3B63     		str	r3, [r7, #48]
 685:Api\core\src/vl53l0x_api_calibration.c **** 	uint32_t currentSpadIndex = 0;
 2117              		.loc 1 685 0
 2118 0024 0023     		movs	r3, #0
 2119 0026 3B65     		str	r3, [r7, #80]
 686:Api\core\src/vl53l0x_api_calibration.c **** 	uint32_t lastSpadIndex = 0;
 2120              		.loc 1 686 0
 2121 0028 0023     		movs	r3, #0
 2122 002a BB61     		str	r3, [r7, #24]
 687:Api\core\src/vl53l0x_api_calibration.c **** 	int32_t nextGoodSpad = 0;
 2123              		.loc 1 687 0
 2124 002c 0023     		movs	r3, #0
 2125 002e 7B61     		str	r3, [r7, #20]
 688:Api\core\src/vl53l0x_api_calibration.c **** 	uint16_t targetRefRate = 0x0A00; /* 20 MCPS in 9:7 format */
 2126              		.loc 1 688 0
ARM GAS  C:\Users\ilya\AppData\Local\Temp\ccWKU7si.s 			page 51


 2127 0030 2E23     		movs	r3, #46
 2128 0032 FB18     		adds	r3, r7, r3
 2129 0034 A022     		movs	r2, #160
 2130 0036 1201     		lsls	r2, r2, #4
 2131 0038 1A80     		strh	r2, [r3]
 689:Api\core\src/vl53l0x_api_calibration.c **** 	uint16_t peakSignalRateRef;
 690:Api\core\src/vl53l0x_api_calibration.c **** 	uint32_t needAptSpads = 0;
 2132              		.loc 1 690 0
 2133 003a 0023     		movs	r3, #0
 2134 003c FB64     		str	r3, [r7, #76]
 691:Api\core\src/vl53l0x_api_calibration.c **** 	uint32_t index = 0;
 2135              		.loc 1 691 0
 2136 003e 0023     		movs	r3, #0
 2137 0040 BB64     		str	r3, [r7, #72]
 692:Api\core\src/vl53l0x_api_calibration.c **** 	uint32_t spadArraySize = 6;
 2138              		.loc 1 692 0
 2139 0042 0623     		movs	r3, #6
 2140 0044 BB62     		str	r3, [r7, #40]
 693:Api\core\src/vl53l0x_api_calibration.c **** 	uint32_t signalRateDiff = 0;
 2141              		.loc 1 693 0
 2142 0046 0023     		movs	r3, #0
 2143 0048 7B62     		str	r3, [r7, #36]
 694:Api\core\src/vl53l0x_api_calibration.c **** 	uint32_t lastSignalRateDiff = 0;
 2144              		.loc 1 694 0
 2145 004a 0023     		movs	r3, #0
 2146 004c 7B64     		str	r3, [r7, #68]
 695:Api\core\src/vl53l0x_api_calibration.c **** 	uint8_t complete = 0;
 2147              		.loc 1 695 0
 2148 004e 4323     		movs	r3, #67
 2149 0050 FB18     		adds	r3, r7, r3
 2150 0052 0022     		movs	r2, #0
 2151 0054 1A70     		strb	r2, [r3]
 696:Api\core\src/vl53l0x_api_calibration.c **** 	uint8_t VhvSettings = 0;
 2152              		.loc 1 696 0
 2153 0056 1123     		movs	r3, #17
 2154 0058 FB18     		adds	r3, r7, r3
 2155 005a 0022     		movs	r2, #0
 2156 005c 1A70     		strb	r2, [r3]
 697:Api\core\src/vl53l0x_api_calibration.c **** 	uint8_t PhaseCal = 0;
 2157              		.loc 1 697 0
 2158 005e 1023     		movs	r3, #16
 2159 0060 FB18     		adds	r3, r7, r3
 2160 0062 0022     		movs	r2, #0
 2161 0064 1A70     		strb	r2, [r3]
 698:Api\core\src/vl53l0x_api_calibration.c **** 	uint32_t refSpadCount_int = 0;
 2162              		.loc 1 698 0
 2163 0066 0023     		movs	r3, #0
 2164 0068 FB63     		str	r3, [r7, #60]
 699:Api\core\src/vl53l0x_api_calibration.c **** 	uint8_t	 isApertureSpads_int = 0;
 2165              		.loc 1 699 0
 2166 006a 3B23     		movs	r3, #59
 2167 006c FB18     		adds	r3, r7, r3
 2168 006e 0022     		movs	r2, #0
 2169 0070 1A70     		strb	r2, [r3]
 700:Api\core\src/vl53l0x_api_calibration.c **** 
 701:Api\core\src/vl53l0x_api_calibration.c **** 	/*
 702:Api\core\src/vl53l0x_api_calibration.c **** 	 * The reference SPAD initialization procedure determines the minimum
ARM GAS  C:\Users\ilya\AppData\Local\Temp\ccWKU7si.s 			page 52


 703:Api\core\src/vl53l0x_api_calibration.c **** 	 * amount of reference spads to be enables to achieve a target reference
 704:Api\core\src/vl53l0x_api_calibration.c **** 	 * signal rate and should be performed once during initialization.
 705:Api\core\src/vl53l0x_api_calibration.c **** 	 *
 706:Api\core\src/vl53l0x_api_calibration.c **** 	 * Either aperture or non-aperture spads are applied but never both.
 707:Api\core\src/vl53l0x_api_calibration.c **** 	 * Firstly non-aperture spads are set, begining with 5 spads, and
 708:Api\core\src/vl53l0x_api_calibration.c **** 	 * increased one spad at a time until the closest measurement to the
 709:Api\core\src/vl53l0x_api_calibration.c **** 	 * target rate is achieved.
 710:Api\core\src/vl53l0x_api_calibration.c **** 	 *
 711:Api\core\src/vl53l0x_api_calibration.c **** 	 * If the target rate is exceeded when 5 non-aperture spads are enabled,
 712:Api\core\src/vl53l0x_api_calibration.c **** 	 * initialization is performed instead with aperture spads.
 713:Api\core\src/vl53l0x_api_calibration.c **** 	 *
 714:Api\core\src/vl53l0x_api_calibration.c **** 	 * When setting spads, a 'Good Spad Map' is applied.
 715:Api\core\src/vl53l0x_api_calibration.c **** 	 *
 716:Api\core\src/vl53l0x_api_calibration.c **** 	 * This procedure operates within a SPAD window of interest of a maximum
 717:Api\core\src/vl53l0x_api_calibration.c **** 	 * 44 spads.
 718:Api\core\src/vl53l0x_api_calibration.c **** 	 * The start point is currently fixed to 180, which lies towards the end
 719:Api\core\src/vl53l0x_api_calibration.c **** 	 * of the non-aperture quadrant and runs in to the adjacent aperture
 720:Api\core\src/vl53l0x_api_calibration.c **** 	 * quadrant.
 721:Api\core\src/vl53l0x_api_calibration.c **** 	 */
 722:Api\core\src/vl53l0x_api_calibration.c **** 
 723:Api\core\src/vl53l0x_api_calibration.c **** 
 724:Api\core\src/vl53l0x_api_calibration.c **** 	targetRefRate = PALDevDataGet(Dev, targetRefRate);
 2170              		.loc 1 724 0
 2171 0072 2E23     		movs	r3, #46
 2172 0074 FB18     		adds	r3, r7, r3
 2173 0076 F968     		ldr	r1, [r7, #12]
 2174 0078 9E22     		movs	r2, #158
 2175 007a 5200     		lsls	r2, r2, #1
 2176 007c 8A5A     		ldrh	r2, [r1, r2]
 2177 007e 1A80     		strh	r2, [r3]
 725:Api\core\src/vl53l0x_api_calibration.c **** 
 726:Api\core\src/vl53l0x_api_calibration.c **** 	/*
 727:Api\core\src/vl53l0x_api_calibration.c **** 	 * Initialize Spad arrays.
 728:Api\core\src/vl53l0x_api_calibration.c **** 	 * Currently the good spad map is initialised to 'All good'.
 729:Api\core\src/vl53l0x_api_calibration.c **** 	 * This is a short term implementation. The good spad map will be
 730:Api\core\src/vl53l0x_api_calibration.c **** 	 * provided as an input.
 731:Api\core\src/vl53l0x_api_calibration.c **** 	 * Note that there are 6 bytes. Only the first 44 bits will be used to
 732:Api\core\src/vl53l0x_api_calibration.c **** 	 * represent spads.
 733:Api\core\src/vl53l0x_api_calibration.c **** 	 */
 734:Api\core\src/vl53l0x_api_calibration.c **** 	for (index = 0; index < spadArraySize; index++)
 2178              		.loc 1 734 0
 2179 0080 0023     		movs	r3, #0
 2180 0082 BB64     		str	r3, [r7, #72]
 2181 0084 0AE0     		b	.L108
 2182              	.L109:
 735:Api\core\src/vl53l0x_api_calibration.c **** 		Dev->Data.SpadData.RefSpadEnables[index] = 0;
 2183              		.loc 1 735 0 discriminator 3
 2184 0086 F968     		ldr	r1, [r7, #12]
 2185 0088 9223     		movs	r3, #146
 2186 008a 5B00     		lsls	r3, r3, #1
 2187 008c BA6C     		ldr	r2, [r7, #72]
 2188 008e 8A18     		adds	r2, r1, r2
 2189 0090 D318     		adds	r3, r2, r3
 2190 0092 0022     		movs	r2, #0
 2191 0094 1A70     		strb	r2, [r3]
 734:Api\core\src/vl53l0x_api_calibration.c **** 		Dev->Data.SpadData.RefSpadEnables[index] = 0;
 2192              		.loc 1 734 0 discriminator 3
ARM GAS  C:\Users\ilya\AppData\Local\Temp\ccWKU7si.s 			page 53


 2193 0096 BB6C     		ldr	r3, [r7, #72]
 2194 0098 0133     		adds	r3, r3, #1
 2195 009a BB64     		str	r3, [r7, #72]
 2196              	.L108:
 734:Api\core\src/vl53l0x_api_calibration.c **** 		Dev->Data.SpadData.RefSpadEnables[index] = 0;
 2197              		.loc 1 734 0 is_stmt 0 discriminator 1
 2198 009c BA6C     		ldr	r2, [r7, #72]
 2199 009e BB6A     		ldr	r3, [r7, #40]
 2200 00a0 9A42     		cmp	r2, r3
 2201 00a2 F0D3     		bcc	.L109
 736:Api\core\src/vl53l0x_api_calibration.c **** 
 737:Api\core\src/vl53l0x_api_calibration.c **** 
 738:Api\core\src/vl53l0x_api_calibration.c **** 	Status = VL53L0X_WrByte(Dev, 0xFF, 0x01);
 2202              		.loc 1 738 0 is_stmt 1
 2203 00a4 5723     		movs	r3, #87
 2204 00a6 FC18     		adds	r4, r7, r3
 2205 00a8 FB68     		ldr	r3, [r7, #12]
 2206 00aa 0122     		movs	r2, #1
 2207 00ac FF21     		movs	r1, #255
 2208 00ae 1800     		movs	r0, r3
 2209 00b0 FFF7FEFF 		bl	VL53L0X_WrByte
 2210 00b4 0300     		movs	r3, r0
 2211 00b6 2370     		strb	r3, [r4]
 739:Api\core\src/vl53l0x_api_calibration.c **** 
 740:Api\core\src/vl53l0x_api_calibration.c **** 	if (Status == VL53L0X_ERROR_NONE)
 2212              		.loc 1 740 0
 2213 00b8 5723     		movs	r3, #87
 2214 00ba FB18     		adds	r3, r7, r3
 2215 00bc 1B78     		ldrb	r3, [r3]
 2216 00be 5BB2     		sxtb	r3, r3
 2217 00c0 002B     		cmp	r3, #0
 2218 00c2 09D1     		bne	.L110
 741:Api\core\src/vl53l0x_api_calibration.c **** 		Status = VL53L0X_WrByte(Dev,
 2219              		.loc 1 741 0
 2220 00c4 5723     		movs	r3, #87
 2221 00c6 FC18     		adds	r4, r7, r3
 2222 00c8 FB68     		ldr	r3, [r7, #12]
 2223 00ca 0022     		movs	r2, #0
 2224 00cc 4F21     		movs	r1, #79
 2225 00ce 1800     		movs	r0, r3
 2226 00d0 FFF7FEFF 		bl	VL53L0X_WrByte
 2227 00d4 0300     		movs	r3, r0
 2228 00d6 2370     		strb	r3, [r4]
 2229              	.L110:
 742:Api\core\src/vl53l0x_api_calibration.c **** 			VL53L0X_REG_DYNAMIC_SPAD_REF_EN_START_OFFSET, 0x00);
 743:Api\core\src/vl53l0x_api_calibration.c **** 
 744:Api\core\src/vl53l0x_api_calibration.c **** 	if (Status == VL53L0X_ERROR_NONE)
 2230              		.loc 1 744 0
 2231 00d8 5723     		movs	r3, #87
 2232 00da FB18     		adds	r3, r7, r3
 2233 00dc 1B78     		ldrb	r3, [r3]
 2234 00de 5BB2     		sxtb	r3, r3
 2235 00e0 002B     		cmp	r3, #0
 2236 00e2 09D1     		bne	.L111
 745:Api\core\src/vl53l0x_api_calibration.c **** 		Status = VL53L0X_WrByte(Dev,
 2237              		.loc 1 745 0
 2238 00e4 5723     		movs	r3, #87
ARM GAS  C:\Users\ilya\AppData\Local\Temp\ccWKU7si.s 			page 54


 2239 00e6 FC18     		adds	r4, r7, r3
 2240 00e8 FB68     		ldr	r3, [r7, #12]
 2241 00ea 2C22     		movs	r2, #44
 2242 00ec 4E21     		movs	r1, #78
 2243 00ee 1800     		movs	r0, r3
 2244 00f0 FFF7FEFF 		bl	VL53L0X_WrByte
 2245 00f4 0300     		movs	r3, r0
 2246 00f6 2370     		strb	r3, [r4]
 2247              	.L111:
 746:Api\core\src/vl53l0x_api_calibration.c **** 			VL53L0X_REG_DYNAMIC_SPAD_NUM_REQUESTED_REF_SPAD, 0x2C);
 747:Api\core\src/vl53l0x_api_calibration.c **** 
 748:Api\core\src/vl53l0x_api_calibration.c **** 	if (Status == VL53L0X_ERROR_NONE)
 2248              		.loc 1 748 0
 2249 00f8 5723     		movs	r3, #87
 2250 00fa FB18     		adds	r3, r7, r3
 2251 00fc 1B78     		ldrb	r3, [r3]
 2252 00fe 5BB2     		sxtb	r3, r3
 2253 0100 002B     		cmp	r3, #0
 2254 0102 09D1     		bne	.L112
 749:Api\core\src/vl53l0x_api_calibration.c **** 		Status = VL53L0X_WrByte(Dev, 0xFF, 0x00);
 2255              		.loc 1 749 0
 2256 0104 5723     		movs	r3, #87
 2257 0106 FC18     		adds	r4, r7, r3
 2258 0108 FB68     		ldr	r3, [r7, #12]
 2259 010a 0022     		movs	r2, #0
 2260 010c FF21     		movs	r1, #255
 2261 010e 1800     		movs	r0, r3
 2262 0110 FFF7FEFF 		bl	VL53L0X_WrByte
 2263 0114 0300     		movs	r3, r0
 2264 0116 2370     		strb	r3, [r4]
 2265              	.L112:
 750:Api\core\src/vl53l0x_api_calibration.c **** 
 751:Api\core\src/vl53l0x_api_calibration.c **** 	if (Status == VL53L0X_ERROR_NONE)
 2266              		.loc 1 751 0
 2267 0118 5723     		movs	r3, #87
 2268 011a FB18     		adds	r3, r7, r3
 2269 011c 1B78     		ldrb	r3, [r3]
 2270 011e 5BB2     		sxtb	r3, r3
 2271 0120 002B     		cmp	r3, #0
 2272 0122 0BD1     		bne	.L113
 752:Api\core\src/vl53l0x_api_calibration.c **** 		Status = VL53L0X_WrByte(Dev,
 2273              		.loc 1 752 0
 2274 0124 5723     		movs	r3, #87
 2275 0126 FC18     		adds	r4, r7, r3
 2276 0128 3A23     		movs	r3, #58
 2277 012a FB18     		adds	r3, r7, r3
 2278 012c 1A78     		ldrb	r2, [r3]
 2279 012e FB68     		ldr	r3, [r7, #12]
 2280 0130 B621     		movs	r1, #182
 2281 0132 1800     		movs	r0, r3
 2282 0134 FFF7FEFF 		bl	VL53L0X_WrByte
 2283 0138 0300     		movs	r3, r0
 2284 013a 2370     		strb	r3, [r4]
 2285              	.L113:
 753:Api\core\src/vl53l0x_api_calibration.c **** 			VL53L0X_REG_GLOBAL_CONFIG_REF_EN_START_SELECT,
 754:Api\core\src/vl53l0x_api_calibration.c **** 			startSelect);
 755:Api\core\src/vl53l0x_api_calibration.c **** 
ARM GAS  C:\Users\ilya\AppData\Local\Temp\ccWKU7si.s 			page 55


 756:Api\core\src/vl53l0x_api_calibration.c **** 
 757:Api\core\src/vl53l0x_api_calibration.c **** 	if (Status == VL53L0X_ERROR_NONE)
 2286              		.loc 1 757 0
 2287 013c 5723     		movs	r3, #87
 2288 013e FB18     		adds	r3, r7, r3
 2289 0140 1B78     		ldrb	r3, [r3]
 2290 0142 5BB2     		sxtb	r3, r3
 2291 0144 002B     		cmp	r3, #0
 2292 0146 09D1     		bne	.L114
 758:Api\core\src/vl53l0x_api_calibration.c **** 		Status = VL53L0X_WrByte(Dev,
 2293              		.loc 1 758 0
 2294 0148 5723     		movs	r3, #87
 2295 014a FC18     		adds	r4, r7, r3
 2296 014c FB68     		ldr	r3, [r7, #12]
 2297 014e 0022     		movs	r2, #0
 2298 0150 8021     		movs	r1, #128
 2299 0152 1800     		movs	r0, r3
 2300 0154 FFF7FEFF 		bl	VL53L0X_WrByte
 2301 0158 0300     		movs	r3, r0
 2302 015a 2370     		strb	r3, [r4]
 2303              	.L114:
 759:Api\core\src/vl53l0x_api_calibration.c **** 				VL53L0X_REG_POWER_MANAGEMENT_GO1_POWER_FORCE, 0);
 760:Api\core\src/vl53l0x_api_calibration.c **** 
 761:Api\core\src/vl53l0x_api_calibration.c **** 	/* Perform ref calibration */
 762:Api\core\src/vl53l0x_api_calibration.c **** 	if (Status == VL53L0X_ERROR_NONE)
 2304              		.loc 1 762 0
 2305 015c 5723     		movs	r3, #87
 2306 015e FB18     		adds	r3, r7, r3
 2307 0160 1B78     		ldrb	r3, [r3]
 2308 0162 5BB2     		sxtb	r3, r3
 2309 0164 002B     		cmp	r3, #0
 2310 0166 0BD1     		bne	.L115
 763:Api\core\src/vl53l0x_api_calibration.c **** 		Status = VL53L0X_perform_ref_calibration(Dev, &VhvSettings,
 2311              		.loc 1 763 0
 2312 0168 5723     		movs	r3, #87
 2313 016a FC18     		adds	r4, r7, r3
 2314 016c 1023     		movs	r3, #16
 2315 016e FA18     		adds	r2, r7, r3
 2316 0170 1123     		movs	r3, #17
 2317 0172 F918     		adds	r1, r7, r3
 2318 0174 F868     		ldr	r0, [r7, #12]
 2319 0176 0023     		movs	r3, #0
 2320 0178 FFF7FEFF 		bl	VL53L0X_perform_ref_calibration
 2321 017c 0300     		movs	r3, r0
 2322 017e 2370     		strb	r3, [r4]
 2323              	.L115:
 764:Api\core\src/vl53l0x_api_calibration.c **** 			&PhaseCal, 0);
 765:Api\core\src/vl53l0x_api_calibration.c **** 
 766:Api\core\src/vl53l0x_api_calibration.c **** 	if (Status == VL53L0X_ERROR_NONE) {
 2324              		.loc 1 766 0
 2325 0180 5723     		movs	r3, #87
 2326 0182 FB18     		adds	r3, r7, r3
 2327 0184 1B78     		ldrb	r3, [r3]
 2328 0186 5BB2     		sxtb	r3, r3
 2329 0188 002B     		cmp	r3, #0
 2330 018a 25D1     		bne	.L116
 767:Api\core\src/vl53l0x_api_calibration.c **** 		/* Enable Minimum NON-APERTURE Spads */
ARM GAS  C:\Users\ilya\AppData\Local\Temp\ccWKU7si.s 			page 56


 768:Api\core\src/vl53l0x_api_calibration.c **** 		currentSpadIndex = 0;
 2331              		.loc 1 768 0
 2332 018c 0023     		movs	r3, #0
 2333 018e 3B65     		str	r3, [r7, #80]
 769:Api\core\src/vl53l0x_api_calibration.c **** 		lastSpadIndex = currentSpadIndex;
 2334              		.loc 1 769 0
 2335 0190 3B6D     		ldr	r3, [r7, #80]
 2336 0192 BB61     		str	r3, [r7, #24]
 770:Api\core\src/vl53l0x_api_calibration.c **** 		needAptSpads = 0;
 2337              		.loc 1 770 0
 2338 0194 0023     		movs	r3, #0
 2339 0196 FB64     		str	r3, [r7, #76]
 771:Api\core\src/vl53l0x_api_calibration.c **** 		Status = enable_ref_spads(Dev,
 2340              		.loc 1 771 0
 2341 0198 FB6C     		ldr	r3, [r7, #76]
 2342 019a D9B2     		uxtb	r1, r3
 772:Api\core\src/vl53l0x_api_calibration.c **** 					needAptSpads,
 773:Api\core\src/vl53l0x_api_calibration.c **** 					Dev->Data.SpadData.RefGoodSpadMap,
 2343              		.loc 1 773 0
 2344 019c FB68     		ldr	r3, [r7, #12]
 2345 019e 2B33     		adds	r3, r3, #43
 2346 01a0 FF33     		adds	r3, r3, #255
 2347 01a2 1D00     		movs	r5, r3
 774:Api\core\src/vl53l0x_api_calibration.c **** 					Dev->Data.SpadData.RefSpadEnables,
 2348              		.loc 1 774 0
 2349 01a4 FB68     		ldr	r3, [r7, #12]
 2350 01a6 2533     		adds	r3, r3, #37
 2351 01a8 FF33     		adds	r3, r3, #255
 2352 01aa 1E00     		movs	r6, r3
 771:Api\core\src/vl53l0x_api_calibration.c **** 		Status = enable_ref_spads(Dev,
 2353              		.loc 1 771 0
 2354 01ac 3A23     		movs	r3, #58
 2355 01ae FB18     		adds	r3, r7, r3
 2356 01b0 1B78     		ldrb	r3, [r3]
 2357 01b2 5722     		movs	r2, #87
 2358 01b4 BC18     		adds	r4, r7, r2
 2359 01b6 F868     		ldr	r0, [r7, #12]
 2360 01b8 1822     		movs	r2, #24
 2361 01ba BA18     		adds	r2, r7, r2
 2362 01bc 0492     		str	r2, [sp, #16]
 2363 01be 7A6B     		ldr	r2, [r7, #52]
 2364 01c0 0392     		str	r2, [sp, #12]
 2365 01c2 3A6D     		ldr	r2, [r7, #80]
 2366 01c4 0292     		str	r2, [sp, #8]
 2367 01c6 0193     		str	r3, [sp, #4]
 2368 01c8 BB6A     		ldr	r3, [r7, #40]
 2369 01ca 0093     		str	r3, [sp]
 2370 01cc 3300     		movs	r3, r6
 2371 01ce 2A00     		movs	r2, r5
 2372 01d0 FFF7FEFF 		bl	enable_ref_spads
 2373 01d4 0300     		movs	r3, r0
 2374 01d6 2370     		strb	r3, [r4]
 2375              	.L116:
 775:Api\core\src/vl53l0x_api_calibration.c **** 					spadArraySize,
 776:Api\core\src/vl53l0x_api_calibration.c **** 					startSelect,
 777:Api\core\src/vl53l0x_api_calibration.c **** 					currentSpadIndex,
 778:Api\core\src/vl53l0x_api_calibration.c **** 					minimumSpadCount,
ARM GAS  C:\Users\ilya\AppData\Local\Temp\ccWKU7si.s 			page 57


 779:Api\core\src/vl53l0x_api_calibration.c **** 					&lastSpadIndex);
 780:Api\core\src/vl53l0x_api_calibration.c **** 	}
 781:Api\core\src/vl53l0x_api_calibration.c **** 
 782:Api\core\src/vl53l0x_api_calibration.c **** 	if (Status == VL53L0X_ERROR_NONE) {
 2376              		.loc 1 782 0
 2377 01d8 5723     		movs	r3, #87
 2378 01da FB18     		adds	r3, r7, r3
 2379 01dc 1B78     		ldrb	r3, [r3]
 2380 01de 5BB2     		sxtb	r3, r3
 2381 01e0 002B     		cmp	r3, #0
 2382 01e2 00D0     		beq	.LCB2064
 2383 01e4 8DE0     		b	.L117	@long jump
 2384              	.LCB2064:
 783:Api\core\src/vl53l0x_api_calibration.c **** 		currentSpadIndex = lastSpadIndex;
 2385              		.loc 1 783 0
 2386 01e6 BB69     		ldr	r3, [r7, #24]
 2387 01e8 3B65     		str	r3, [r7, #80]
 784:Api\core\src/vl53l0x_api_calibration.c **** 
 785:Api\core\src/vl53l0x_api_calibration.c **** 		Status = perform_ref_signal_measurement(Dev,
 2388              		.loc 1 785 0
 2389 01ea 5723     		movs	r3, #87
 2390 01ec FC18     		adds	r4, r7, r3
 2391 01ee 1223     		movs	r3, #18
 2392 01f0 FA18     		adds	r2, r7, r3
 2393 01f2 FB68     		ldr	r3, [r7, #12]
 2394 01f4 1100     		movs	r1, r2
 2395 01f6 1800     		movs	r0, r3
 2396 01f8 FFF7FEFF 		bl	perform_ref_signal_measurement
 2397 01fc 0300     		movs	r3, r0
 2398 01fe 2370     		strb	r3, [r4]
 786:Api\core\src/vl53l0x_api_calibration.c **** 			&peakSignalRateRef);
 787:Api\core\src/vl53l0x_api_calibration.c **** 		if ((Status == VL53L0X_ERROR_NONE) &&
 2399              		.loc 1 787 0
 2400 0200 5723     		movs	r3, #87
 2401 0202 FB18     		adds	r3, r7, r3
 2402 0204 1B78     		ldrb	r3, [r3]
 2403 0206 5BB2     		sxtb	r3, r3
 2404 0208 002B     		cmp	r3, #0
 2405 020a 00D0     		beq	.LCB2082
 2406 020c 75E0     		b	.L118	@long jump
 2407              	.LCB2082:
 788:Api\core\src/vl53l0x_api_calibration.c **** 			(peakSignalRateRef > targetRefRate)) {
 2408              		.loc 1 788 0 discriminator 1
 2409 020e 1223     		movs	r3, #18
 2410 0210 FB18     		adds	r3, r7, r3
 2411 0212 1B88     		ldrh	r3, [r3]
 787:Api\core\src/vl53l0x_api_calibration.c **** 			(peakSignalRateRef > targetRefRate)) {
 2412              		.loc 1 787 0 discriminator 1
 2413 0214 2E22     		movs	r2, #46
 2414 0216 BA18     		adds	r2, r7, r2
 2415 0218 1288     		ldrh	r2, [r2]
 2416 021a 9A42     		cmp	r2, r3
 2417 021c 6DD2     		bcs	.L118
 789:Api\core\src/vl53l0x_api_calibration.c **** 			/* Signal rate measurement too high,
 790:Api\core\src/vl53l0x_api_calibration.c **** 			 * switch to APERTURE SPADs */
 791:Api\core\src/vl53l0x_api_calibration.c **** 
 792:Api\core\src/vl53l0x_api_calibration.c **** 			for (index = 0; index < spadArraySize; index++)
ARM GAS  C:\Users\ilya\AppData\Local\Temp\ccWKU7si.s 			page 58


 2418              		.loc 1 792 0
 2419 021e 0023     		movs	r3, #0
 2420 0220 BB64     		str	r3, [r7, #72]
 2421 0222 0AE0     		b	.L119
 2422              	.L120:
 793:Api\core\src/vl53l0x_api_calibration.c **** 				Dev->Data.SpadData.RefSpadEnables[index] = 0;
 2423              		.loc 1 793 0 discriminator 3
 2424 0224 F968     		ldr	r1, [r7, #12]
 2425 0226 9223     		movs	r3, #146
 2426 0228 5B00     		lsls	r3, r3, #1
 2427 022a BA6C     		ldr	r2, [r7, #72]
 2428 022c 8A18     		adds	r2, r1, r2
 2429 022e D318     		adds	r3, r2, r3
 2430 0230 0022     		movs	r2, #0
 2431 0232 1A70     		strb	r2, [r3]
 792:Api\core\src/vl53l0x_api_calibration.c **** 				Dev->Data.SpadData.RefSpadEnables[index] = 0;
 2432              		.loc 1 792 0 discriminator 3
 2433 0234 BB6C     		ldr	r3, [r7, #72]
 2434 0236 0133     		adds	r3, r3, #1
 2435 0238 BB64     		str	r3, [r7, #72]
 2436              	.L119:
 792:Api\core\src/vl53l0x_api_calibration.c **** 				Dev->Data.SpadData.RefSpadEnables[index] = 0;
 2437              		.loc 1 792 0 is_stmt 0 discriminator 1
 2438 023a BA6C     		ldr	r2, [r7, #72]
 2439 023c BB6A     		ldr	r3, [r7, #40]
 2440 023e 9A42     		cmp	r2, r3
 2441 0240 F0D3     		bcc	.L120
 794:Api\core\src/vl53l0x_api_calibration.c **** 
 795:Api\core\src/vl53l0x_api_calibration.c **** 
 796:Api\core\src/vl53l0x_api_calibration.c **** 			/* Increment to the first APERTURE spad */
 797:Api\core\src/vl53l0x_api_calibration.c **** 			while ((is_aperture(startSelect + currentSpadIndex)
 2442              		.loc 1 797 0 is_stmt 1
 2443 0242 02E0     		b	.L121
 2444              	.L123:
 798:Api\core\src/vl53l0x_api_calibration.c **** 				== 0) && (currentSpadIndex < maxSpadCount)) {
 799:Api\core\src/vl53l0x_api_calibration.c **** 				currentSpadIndex++;
 2445              		.loc 1 799 0
 2446 0244 3B6D     		ldr	r3, [r7, #80]
 2447 0246 0133     		adds	r3, r3, #1
 2448 0248 3B65     		str	r3, [r7, #80]
 2449              	.L121:
 797:Api\core\src/vl53l0x_api_calibration.c **** 				== 0) && (currentSpadIndex < maxSpadCount)) {
 2450              		.loc 1 797 0
 2451 024a 3A23     		movs	r3, #58
 2452 024c FB18     		adds	r3, r7, r3
 2453 024e 1A78     		ldrb	r2, [r3]
 2454 0250 3B6D     		ldr	r3, [r7, #80]
 2455 0252 D318     		adds	r3, r2, r3
 2456 0254 1800     		movs	r0, r3
 2457 0256 FFF7FEFF 		bl	is_aperture
 2458 025a 031E     		subs	r3, r0, #0
 2459 025c 03D1     		bne	.L122
 798:Api\core\src/vl53l0x_api_calibration.c **** 				== 0) && (currentSpadIndex < maxSpadCount)) {
 2460              		.loc 1 798 0
 2461 025e 3A6D     		ldr	r2, [r7, #80]
 2462 0260 3B6B     		ldr	r3, [r7, #48]
 2463 0262 9A42     		cmp	r2, r3
ARM GAS  C:\Users\ilya\AppData\Local\Temp\ccWKU7si.s 			page 59


 2464 0264 EED3     		bcc	.L123
 2465              	.L122:
 800:Api\core\src/vl53l0x_api_calibration.c **** 			}
 801:Api\core\src/vl53l0x_api_calibration.c **** 
 802:Api\core\src/vl53l0x_api_calibration.c **** 			needAptSpads = 1;
 2466              		.loc 1 802 0
 2467 0266 0123     		movs	r3, #1
 2468 0268 FB64     		str	r3, [r7, #76]
 803:Api\core\src/vl53l0x_api_calibration.c **** 
 804:Api\core\src/vl53l0x_api_calibration.c **** 			Status = enable_ref_spads(Dev,
 2469              		.loc 1 804 0
 2470 026a FB6C     		ldr	r3, [r7, #76]
 2471 026c D9B2     		uxtb	r1, r3
 805:Api\core\src/vl53l0x_api_calibration.c **** 					needAptSpads,
 806:Api\core\src/vl53l0x_api_calibration.c **** 					Dev->Data.SpadData.RefGoodSpadMap,
 2472              		.loc 1 806 0
 2473 026e FB68     		ldr	r3, [r7, #12]
 2474 0270 2B33     		adds	r3, r3, #43
 2475 0272 FF33     		adds	r3, r3, #255
 2476 0274 1D00     		movs	r5, r3
 807:Api\core\src/vl53l0x_api_calibration.c **** 					Dev->Data.SpadData.RefSpadEnables,
 2477              		.loc 1 807 0
 2478 0276 FB68     		ldr	r3, [r7, #12]
 2479 0278 2533     		adds	r3, r3, #37
 2480 027a FF33     		adds	r3, r3, #255
 2481 027c 1E00     		movs	r6, r3
 804:Api\core\src/vl53l0x_api_calibration.c **** 					needAptSpads,
 2482              		.loc 1 804 0
 2483 027e 3A23     		movs	r3, #58
 2484 0280 FB18     		adds	r3, r7, r3
 2485 0282 1B78     		ldrb	r3, [r3]
 2486 0284 5722     		movs	r2, #87
 2487 0286 BC18     		adds	r4, r7, r2
 2488 0288 F868     		ldr	r0, [r7, #12]
 2489 028a 1822     		movs	r2, #24
 2490 028c BA18     		adds	r2, r7, r2
 2491 028e 0492     		str	r2, [sp, #16]
 2492 0290 7A6B     		ldr	r2, [r7, #52]
 2493 0292 0392     		str	r2, [sp, #12]
 2494 0294 3A6D     		ldr	r2, [r7, #80]
 2495 0296 0292     		str	r2, [sp, #8]
 2496 0298 0193     		str	r3, [sp, #4]
 2497 029a BB6A     		ldr	r3, [r7, #40]
 2498 029c 0093     		str	r3, [sp]
 2499 029e 3300     		movs	r3, r6
 2500 02a0 2A00     		movs	r2, r5
 2501 02a2 FFF7FEFF 		bl	enable_ref_spads
 2502 02a6 0300     		movs	r3, r0
 2503 02a8 2370     		strb	r3, [r4]
 808:Api\core\src/vl53l0x_api_calibration.c **** 					spadArraySize,
 809:Api\core\src/vl53l0x_api_calibration.c **** 					startSelect,
 810:Api\core\src/vl53l0x_api_calibration.c **** 					currentSpadIndex,
 811:Api\core\src/vl53l0x_api_calibration.c **** 					minimumSpadCount,
 812:Api\core\src/vl53l0x_api_calibration.c **** 					&lastSpadIndex);
 813:Api\core\src/vl53l0x_api_calibration.c **** 
 814:Api\core\src/vl53l0x_api_calibration.c **** 			if (Status == VL53L0X_ERROR_NONE) {
 2504              		.loc 1 814 0
ARM GAS  C:\Users\ilya\AppData\Local\Temp\ccWKU7si.s 			page 60


 2505 02aa 5723     		movs	r3, #87
 2506 02ac FB18     		adds	r3, r7, r3
 2507 02ae 1B78     		ldrb	r3, [r3]
 2508 02b0 5BB2     		sxtb	r3, r3
 2509 02b2 002B     		cmp	r3, #0
 2510 02b4 24D1     		bne	.L137
 815:Api\core\src/vl53l0x_api_calibration.c **** 				currentSpadIndex = lastSpadIndex;
 2511              		.loc 1 815 0
 2512 02b6 BB69     		ldr	r3, [r7, #24]
 2513 02b8 3B65     		str	r3, [r7, #80]
 816:Api\core\src/vl53l0x_api_calibration.c **** 				Status = perform_ref_signal_measurement(Dev,
 2514              		.loc 1 816 0
 2515 02ba 5723     		movs	r3, #87
 2516 02bc FC18     		adds	r4, r7, r3
 2517 02be 1223     		movs	r3, #18
 2518 02c0 FA18     		adds	r2, r7, r3
 2519 02c2 FB68     		ldr	r3, [r7, #12]
 2520 02c4 1100     		movs	r1, r2
 2521 02c6 1800     		movs	r0, r3
 2522 02c8 FFF7FEFF 		bl	perform_ref_signal_measurement
 2523 02cc 0300     		movs	r3, r0
 2524 02ce 2370     		strb	r3, [r4]
 817:Api\core\src/vl53l0x_api_calibration.c **** 						&peakSignalRateRef);
 818:Api\core\src/vl53l0x_api_calibration.c **** 
 819:Api\core\src/vl53l0x_api_calibration.c **** 				if ((Status == VL53L0X_ERROR_NONE) &&
 2525              		.loc 1 819 0
 2526 02d0 5723     		movs	r3, #87
 2527 02d2 FB18     		adds	r3, r7, r3
 2528 02d4 1B78     		ldrb	r3, [r3]
 2529 02d6 5BB2     		sxtb	r3, r3
 2530 02d8 002B     		cmp	r3, #0
 2531 02da 11D1     		bne	.L137
 820:Api\core\src/vl53l0x_api_calibration.c **** 					(peakSignalRateRef > targetRefRate)) {
 2532              		.loc 1 820 0 discriminator 1
 2533 02dc 1223     		movs	r3, #18
 2534 02de FB18     		adds	r3, r7, r3
 2535 02e0 1B88     		ldrh	r3, [r3]
 819:Api\core\src/vl53l0x_api_calibration.c **** 					(peakSignalRateRef > targetRefRate)) {
 2536              		.loc 1 819 0 discriminator 1
 2537 02e2 2E22     		movs	r2, #46
 2538 02e4 BA18     		adds	r2, r7, r2
 2539 02e6 1288     		ldrh	r2, [r2]
 2540 02e8 9A42     		cmp	r2, r3
 2541 02ea 09D2     		bcs	.L137
 821:Api\core\src/vl53l0x_api_calibration.c **** 					/* Signal rate still too high after
 822:Api\core\src/vl53l0x_api_calibration.c **** 					 * setting the minimum number of
 823:Api\core\src/vl53l0x_api_calibration.c **** 					 * APERTURE spads. Can do no more
 824:Api\core\src/vl53l0x_api_calibration.c **** 					 * therefore set the min number of
 825:Api\core\src/vl53l0x_api_calibration.c **** 					 * aperture spads as the result.
 826:Api\core\src/vl53l0x_api_calibration.c **** 					 */
 827:Api\core\src/vl53l0x_api_calibration.c **** 					isApertureSpads_int = 1;
 2542              		.loc 1 827 0
 2543 02ec 3B23     		movs	r3, #59
 2544 02ee FB18     		adds	r3, r7, r3
 2545 02f0 0122     		movs	r2, #1
 2546 02f2 1A70     		strb	r2, [r3]
 828:Api\core\src/vl53l0x_api_calibration.c **** 					refSpadCount_int = minimumSpadCount;
ARM GAS  C:\Users\ilya\AppData\Local\Temp\ccWKU7si.s 			page 61


 2547              		.loc 1 828 0
 2548 02f4 7B6B     		ldr	r3, [r7, #52]
 2549 02f6 FB63     		str	r3, [r7, #60]
 814:Api\core\src/vl53l0x_api_calibration.c **** 				currentSpadIndex = lastSpadIndex;
 2550              		.loc 1 814 0
 2551 02f8 02E0     		b	.L137
 2552              	.L118:
 829:Api\core\src/vl53l0x_api_calibration.c **** 				}
 830:Api\core\src/vl53l0x_api_calibration.c **** 			}
 831:Api\core\src/vl53l0x_api_calibration.c **** 		} else {
 832:Api\core\src/vl53l0x_api_calibration.c **** 			needAptSpads = 0;
 2553              		.loc 1 832 0
 2554 02fa 0023     		movs	r3, #0
 2555 02fc FB64     		str	r3, [r7, #76]
 2556 02fe 00E0     		b	.L117
 2557              	.L137:
 814:Api\core\src/vl53l0x_api_calibration.c **** 				currentSpadIndex = lastSpadIndex;
 2558              		.loc 1 814 0
 2559 0300 C046     		nop
 2560              	.L117:
 833:Api\core\src/vl53l0x_api_calibration.c **** 		}
 834:Api\core\src/vl53l0x_api_calibration.c **** 	}
 835:Api\core\src/vl53l0x_api_calibration.c **** 
 836:Api\core\src/vl53l0x_api_calibration.c **** 	if ((Status == VL53L0X_ERROR_NONE) &&
 2561              		.loc 1 836 0
 2562 0302 5723     		movs	r3, #87
 2563 0304 FB18     		adds	r3, r7, r3
 2564 0306 1B78     		ldrb	r3, [r3]
 2565 0308 5BB2     		sxtb	r3, r3
 2566 030a 002B     		cmp	r3, #0
 2567 030c 00D0     		beq	.LCB2227
 2568 030e DBE0     		b	.L125	@long jump
 2569              	.LCB2227:
 837:Api\core\src/vl53l0x_api_calibration.c **** 		(peakSignalRateRef < targetRefRate)) {
 2570              		.loc 1 837 0 discriminator 1
 2571 0310 1223     		movs	r3, #18
 2572 0312 FB18     		adds	r3, r7, r3
 2573 0314 1B88     		ldrh	r3, [r3]
 836:Api\core\src/vl53l0x_api_calibration.c **** 		(peakSignalRateRef < targetRefRate)) {
 2574              		.loc 1 836 0 discriminator 1
 2575 0316 2E22     		movs	r2, #46
 2576 0318 BA18     		adds	r2, r7, r2
 2577 031a 1288     		ldrh	r2, [r2]
 2578 031c 9A42     		cmp	r2, r3
 2579 031e 00D8     		bhi	.LCB2235
 2580 0320 D2E0     		b	.L125	@long jump
 2581              	.LCB2235:
 838:Api\core\src/vl53l0x_api_calibration.c **** 		/* At this point, the minimum number of either aperture
 839:Api\core\src/vl53l0x_api_calibration.c **** 		 * or non-aperture spads have been set. Proceed to add
 840:Api\core\src/vl53l0x_api_calibration.c **** 		 * spads and perform measurements until the target
 841:Api\core\src/vl53l0x_api_calibration.c **** 		 * reference is reached.
 842:Api\core\src/vl53l0x_api_calibration.c **** 		 */
 843:Api\core\src/vl53l0x_api_calibration.c **** 		isApertureSpads_int = needAptSpads;
 2582              		.loc 1 843 0
 2583 0322 3B23     		movs	r3, #59
 2584 0324 FB18     		adds	r3, r7, r3
 2585 0326 FA6C     		ldr	r2, [r7, #76]
ARM GAS  C:\Users\ilya\AppData\Local\Temp\ccWKU7si.s 			page 62


 2586 0328 1A70     		strb	r2, [r3]
 844:Api\core\src/vl53l0x_api_calibration.c **** 		refSpadCount_int	= minimumSpadCount;
 2587              		.loc 1 844 0
 2588 032a 7B6B     		ldr	r3, [r7, #52]
 2589 032c FB63     		str	r3, [r7, #60]
 845:Api\core\src/vl53l0x_api_calibration.c **** 
 846:Api\core\src/vl53l0x_api_calibration.c **** 		memcpy(lastSpadArray, Dev->Data.SpadData.RefSpadEnables,
 2590              		.loc 1 846 0
 2591 032e FB68     		ldr	r3, [r7, #12]
 2592 0330 2533     		adds	r3, r3, #37
 2593 0332 FF33     		adds	r3, r3, #255
 2594 0334 1900     		movs	r1, r3
 2595 0336 BA6A     		ldr	r2, [r7, #40]
 2596 0338 1C23     		movs	r3, #28
 2597 033a FB18     		adds	r3, r7, r3
 2598 033c 1800     		movs	r0, r3
 2599 033e FFF7FEFF 		bl	memcpy
 847:Api\core\src/vl53l0x_api_calibration.c **** 				spadArraySize);
 848:Api\core\src/vl53l0x_api_calibration.c **** 		lastSignalRateDiff = abs(peakSignalRateRef -
 2600              		.loc 1 848 0
 2601 0342 1223     		movs	r3, #18
 2602 0344 FB18     		adds	r3, r7, r3
 2603 0346 1B88     		ldrh	r3, [r3]
 2604 0348 1A00     		movs	r2, r3
 2605 034a 2E23     		movs	r3, #46
 2606 034c FB18     		adds	r3, r7, r3
 2607 034e 1B88     		ldrh	r3, [r3]
 2608 0350 D31A     		subs	r3, r2, r3
 2609 0352 DA17     		asrs	r2, r3, #31
 2610 0354 9B18     		adds	r3, r3, r2
 2611 0356 5340     		eors	r3, r2
 2612 0358 7B64     		str	r3, [r7, #68]
 849:Api\core\src/vl53l0x_api_calibration.c **** 			targetRefRate);
 850:Api\core\src/vl53l0x_api_calibration.c **** 		complete = 0;
 2613              		.loc 1 850 0
 2614 035a 4323     		movs	r3, #67
 2615 035c FB18     		adds	r3, r7, r3
 2616 035e 0022     		movs	r2, #0
 2617 0360 1A70     		strb	r2, [r3]
 851:Api\core\src/vl53l0x_api_calibration.c **** 
 852:Api\core\src/vl53l0x_api_calibration.c **** 		while (!complete) {
 2618              		.loc 1 852 0
 2619 0362 A7E0     		b	.L126
 2620              	.L134:
 853:Api\core\src/vl53l0x_api_calibration.c **** 			get_next_good_spad(
 854:Api\core\src/vl53l0x_api_calibration.c **** 				Dev->Data.SpadData.RefGoodSpadMap,
 2621              		.loc 1 854 0
 2622 0364 FB68     		ldr	r3, [r7, #12]
 2623 0366 2B33     		adds	r3, r3, #43
 2624 0368 FF33     		adds	r3, r3, #255
 2625 036a 1800     		movs	r0, r3
 853:Api\core\src/vl53l0x_api_calibration.c **** 			get_next_good_spad(
 2626              		.loc 1 853 0
 2627 036c 1423     		movs	r3, #20
 2628 036e FB18     		adds	r3, r7, r3
 2629 0370 3A6D     		ldr	r2, [r7, #80]
 2630 0372 B96A     		ldr	r1, [r7, #40]
ARM GAS  C:\Users\ilya\AppData\Local\Temp\ccWKU7si.s 			page 63


 2631 0374 FFF7FEFF 		bl	get_next_good_spad
 855:Api\core\src/vl53l0x_api_calibration.c **** 				spadArraySize, currentSpadIndex,
 856:Api\core\src/vl53l0x_api_calibration.c **** 				&nextGoodSpad);
 857:Api\core\src/vl53l0x_api_calibration.c **** 
 858:Api\core\src/vl53l0x_api_calibration.c **** 			if (nextGoodSpad == -1) {
 2632              		.loc 1 858 0
 2633 0378 7B69     		ldr	r3, [r7, #20]
 2634 037a 0133     		adds	r3, r3, #1
 2635 037c 04D1     		bne	.L127
 859:Api\core\src/vl53l0x_api_calibration.c **** 				Status = VL53L0X_ERROR_REF_SPAD_INIT;
 2636              		.loc 1 859 0
 2637 037e 5723     		movs	r3, #87
 2638 0380 FB18     		adds	r3, r7, r3
 2639 0382 CE22     		movs	r2, #206
 2640 0384 1A70     		strb	r2, [r3]
 860:Api\core\src/vl53l0x_api_calibration.c **** 				break;
 2641              		.loc 1 860 0
 2642 0386 9FE0     		b	.L125
 2643              	.L127:
 861:Api\core\src/vl53l0x_api_calibration.c **** 			}
 862:Api\core\src/vl53l0x_api_calibration.c **** 
 863:Api\core\src/vl53l0x_api_calibration.c **** 			/* Cannot combine Aperture and Non-Aperture spads, so
 864:Api\core\src/vl53l0x_api_calibration.c **** 			 * ensure the current spad is of the correct type.
 865:Api\core\src/vl53l0x_api_calibration.c **** 			 */
 866:Api\core\src/vl53l0x_api_calibration.c **** 			if (is_aperture((uint32_t)startSelect + nextGoodSpad) !=
 2644              		.loc 1 866 0
 2645 0388 3A23     		movs	r3, #58
 2646 038a FB18     		adds	r3, r7, r3
 2647 038c 1B78     		ldrb	r3, [r3]
 2648 038e 7A69     		ldr	r2, [r7, #20]
 2649 0390 9B18     		adds	r3, r3, r2
 2650 0392 1800     		movs	r0, r3
 2651 0394 FFF7FEFF 		bl	is_aperture
 2652 0398 0300     		movs	r3, r0
 2653 039a 1A00     		movs	r2, r3
 2654 039c FB6C     		ldr	r3, [r7, #76]
 2655 039e 9A42     		cmp	r2, r3
 2656 03a0 04D0     		beq	.L128
 867:Api\core\src/vl53l0x_api_calibration.c **** 					needAptSpads) {
 868:Api\core\src/vl53l0x_api_calibration.c **** 				/* At this point we have enabled the maximum
 869:Api\core\src/vl53l0x_api_calibration.c **** 				 * number of Aperture spads.
 870:Api\core\src/vl53l0x_api_calibration.c **** 				 */
 871:Api\core\src/vl53l0x_api_calibration.c **** 				complete = 1;
 2657              		.loc 1 871 0
 2658 03a2 4323     		movs	r3, #67
 2659 03a4 FB18     		adds	r3, r7, r3
 2660 03a6 0122     		movs	r2, #1
 2661 03a8 1A70     		strb	r2, [r3]
 872:Api\core\src/vl53l0x_api_calibration.c **** 				break;
 2662              		.loc 1 872 0
 2663 03aa 8DE0     		b	.L125
 2664              	.L128:
 873:Api\core\src/vl53l0x_api_calibration.c **** 			}
 874:Api\core\src/vl53l0x_api_calibration.c **** 
 875:Api\core\src/vl53l0x_api_calibration.c **** 			(refSpadCount_int)++;
 2665              		.loc 1 875 0
 2666 03ac FB6B     		ldr	r3, [r7, #60]
ARM GAS  C:\Users\ilya\AppData\Local\Temp\ccWKU7si.s 			page 64


 2667 03ae 0133     		adds	r3, r3, #1
 2668 03b0 FB63     		str	r3, [r7, #60]
 876:Api\core\src/vl53l0x_api_calibration.c **** 
 877:Api\core\src/vl53l0x_api_calibration.c **** 			currentSpadIndex = nextGoodSpad;
 2669              		.loc 1 877 0
 2670 03b2 7B69     		ldr	r3, [r7, #20]
 2671 03b4 3B65     		str	r3, [r7, #80]
 878:Api\core\src/vl53l0x_api_calibration.c **** 			Status = enable_spad_bit(
 879:Api\core\src/vl53l0x_api_calibration.c **** 					Dev->Data.SpadData.RefSpadEnables,
 2672              		.loc 1 879 0
 2673 03b6 FB68     		ldr	r3, [r7, #12]
 2674 03b8 2533     		adds	r3, r3, #37
 2675 03ba FF33     		adds	r3, r3, #255
 878:Api\core\src/vl53l0x_api_calibration.c **** 			Status = enable_spad_bit(
 2676              		.loc 1 878 0
 2677 03bc 5722     		movs	r2, #87
 2678 03be BC18     		adds	r4, r7, r2
 2679 03c0 3A6D     		ldr	r2, [r7, #80]
 2680 03c2 B96A     		ldr	r1, [r7, #40]
 2681 03c4 1800     		movs	r0, r3
 2682 03c6 FFF7FEFF 		bl	enable_spad_bit
 2683 03ca 0300     		movs	r3, r0
 2684 03cc 2370     		strb	r3, [r4]
 880:Api\core\src/vl53l0x_api_calibration.c **** 					spadArraySize, currentSpadIndex);
 881:Api\core\src/vl53l0x_api_calibration.c **** 
 882:Api\core\src/vl53l0x_api_calibration.c **** 			if (Status == VL53L0X_ERROR_NONE) {
 2685              		.loc 1 882 0
 2686 03ce 5723     		movs	r3, #87
 2687 03d0 FB18     		adds	r3, r7, r3
 2688 03d2 1B78     		ldrb	r3, [r3]
 2689 03d4 5BB2     		sxtb	r3, r3
 2690 03d6 002B     		cmp	r3, #0
 2691 03d8 0FD1     		bne	.L129
 883:Api\core\src/vl53l0x_api_calibration.c **** 				currentSpadIndex++;
 2692              		.loc 1 883 0
 2693 03da 3B6D     		ldr	r3, [r7, #80]
 2694 03dc 0133     		adds	r3, r3, #1
 2695 03de 3B65     		str	r3, [r7, #80]
 884:Api\core\src/vl53l0x_api_calibration.c **** 				/* Proceed to apply the additional spad and
 885:Api\core\src/vl53l0x_api_calibration.c **** 				 * perform measurement. */
 886:Api\core\src/vl53l0x_api_calibration.c **** 				Status = set_ref_spad_map(Dev,
 887:Api\core\src/vl53l0x_api_calibration.c **** 					Dev->Data.SpadData.RefSpadEnables);
 2696              		.loc 1 887 0
 2697 03e0 FB68     		ldr	r3, [r7, #12]
 2698 03e2 2533     		adds	r3, r3, #37
 2699 03e4 FF33     		adds	r3, r3, #255
 2700 03e6 1A00     		movs	r2, r3
 886:Api\core\src/vl53l0x_api_calibration.c **** 					Dev->Data.SpadData.RefSpadEnables);
 2701              		.loc 1 886 0
 2702 03e8 5723     		movs	r3, #87
 2703 03ea FC18     		adds	r4, r7, r3
 2704 03ec FB68     		ldr	r3, [r7, #12]
 2705 03ee 1100     		movs	r1, r2
 2706 03f0 1800     		movs	r0, r3
 2707 03f2 FFF7FEFF 		bl	set_ref_spad_map
 2708 03f6 0300     		movs	r3, r0
 2709 03f8 2370     		strb	r3, [r4]
ARM GAS  C:\Users\ilya\AppData\Local\Temp\ccWKU7si.s 			page 65


 2710              	.L129:
 888:Api\core\src/vl53l0x_api_calibration.c **** 			}
 889:Api\core\src/vl53l0x_api_calibration.c **** 
 890:Api\core\src/vl53l0x_api_calibration.c **** 			if (Status != VL53L0X_ERROR_NONE)
 2711              		.loc 1 890 0
 2712 03fa 5723     		movs	r3, #87
 2713 03fc FB18     		adds	r3, r7, r3
 2714 03fe 1B78     		ldrb	r3, [r3]
 2715 0400 5BB2     		sxtb	r3, r3
 2716 0402 002B     		cmp	r3, #0
 2717 0404 5DD1     		bne	.L138
 891:Api\core\src/vl53l0x_api_calibration.c **** 				break;
 892:Api\core\src/vl53l0x_api_calibration.c **** 
 893:Api\core\src/vl53l0x_api_calibration.c **** 			Status = perform_ref_signal_measurement(Dev,
 2718              		.loc 1 893 0
 2719 0406 5723     		movs	r3, #87
 2720 0408 FC18     		adds	r4, r7, r3
 2721 040a 1223     		movs	r3, #18
 2722 040c FA18     		adds	r2, r7, r3
 2723 040e FB68     		ldr	r3, [r7, #12]
 2724 0410 1100     		movs	r1, r2
 2725 0412 1800     		movs	r0, r3
 2726 0414 FFF7FEFF 		bl	perform_ref_signal_measurement
 2727 0418 0300     		movs	r3, r0
 2728 041a 2370     		strb	r3, [r4]
 894:Api\core\src/vl53l0x_api_calibration.c **** 					&peakSignalRateRef);
 895:Api\core\src/vl53l0x_api_calibration.c **** 
 896:Api\core\src/vl53l0x_api_calibration.c **** 			if (Status != VL53L0X_ERROR_NONE)
 2729              		.loc 1 896 0
 2730 041c 5723     		movs	r3, #87
 2731 041e FB18     		adds	r3, r7, r3
 2732 0420 1B78     		ldrb	r3, [r3]
 2733 0422 5BB2     		sxtb	r3, r3
 2734 0424 002B     		cmp	r3, #0
 2735 0426 4ED1     		bne	.L139
 897:Api\core\src/vl53l0x_api_calibration.c **** 				break;
 898:Api\core\src/vl53l0x_api_calibration.c **** 
 899:Api\core\src/vl53l0x_api_calibration.c **** 			signalRateDiff = abs(peakSignalRateRef - targetRefRate);
 2736              		.loc 1 899 0
 2737 0428 1223     		movs	r3, #18
 2738 042a FB18     		adds	r3, r7, r3
 2739 042c 1B88     		ldrh	r3, [r3]
 2740 042e 1A00     		movs	r2, r3
 2741 0430 2E23     		movs	r3, #46
 2742 0432 FB18     		adds	r3, r7, r3
 2743 0434 1B88     		ldrh	r3, [r3]
 2744 0436 D31A     		subs	r3, r2, r3
 2745 0438 DA17     		asrs	r2, r3, #31
 2746 043a 9B18     		adds	r3, r3, r2
 2747 043c 5340     		eors	r3, r2
 2748 043e 7B62     		str	r3, [r7, #36]
 900:Api\core\src/vl53l0x_api_calibration.c **** 
 901:Api\core\src/vl53l0x_api_calibration.c **** 			if (peakSignalRateRef > targetRefRate) {
 2749              		.loc 1 901 0
 2750 0440 1223     		movs	r3, #18
 2751 0442 FB18     		adds	r3, r7, r3
 2752 0444 1B88     		ldrh	r3, [r3]
ARM GAS  C:\Users\ilya\AppData\Local\Temp\ccWKU7si.s 			page 66


 2753 0446 2E22     		movs	r2, #46
 2754 0448 BA18     		adds	r2, r7, r2
 2755 044a 1288     		ldrh	r2, [r2]
 2756 044c 9A42     		cmp	r2, r3
 2757 044e 1FD2     		bcs	.L132
 902:Api\core\src/vl53l0x_api_calibration.c **** 				/* Select the spad map that provides the
 903:Api\core\src/vl53l0x_api_calibration.c **** 				 * measurement closest to the target rate,
 904:Api\core\src/vl53l0x_api_calibration.c **** 				 * either above or below it.
 905:Api\core\src/vl53l0x_api_calibration.c **** 				 */
 906:Api\core\src/vl53l0x_api_calibration.c **** 				if (signalRateDiff > lastSignalRateDiff) {
 2758              		.loc 1 906 0
 2759 0450 7A6A     		ldr	r2, [r7, #36]
 2760 0452 7B6C     		ldr	r3, [r7, #68]
 2761 0454 9A42     		cmp	r2, r3
 2762 0456 16D9     		bls	.L133
 907:Api\core\src/vl53l0x_api_calibration.c **** 					/* Previous spad map produced a closer
 908:Api\core\src/vl53l0x_api_calibration.c **** 					 * measurement, so choose this. */
 909:Api\core\src/vl53l0x_api_calibration.c **** 					Status = set_ref_spad_map(Dev,
 2763              		.loc 1 909 0
 2764 0458 5723     		movs	r3, #87
 2765 045a FC18     		adds	r4, r7, r3
 2766 045c 1C23     		movs	r3, #28
 2767 045e FA18     		adds	r2, r7, r3
 2768 0460 FB68     		ldr	r3, [r7, #12]
 2769 0462 1100     		movs	r1, r2
 2770 0464 1800     		movs	r0, r3
 2771 0466 FFF7FEFF 		bl	set_ref_spad_map
 2772 046a 0300     		movs	r3, r0
 2773 046c 2370     		strb	r3, [r4]
 910:Api\core\src/vl53l0x_api_calibration.c **** 							lastSpadArray);
 911:Api\core\src/vl53l0x_api_calibration.c **** 					memcpy(
 912:Api\core\src/vl53l0x_api_calibration.c **** 					Dev->Data.SpadData.RefSpadEnables,
 2774              		.loc 1 912 0
 2775 046e FB68     		ldr	r3, [r7, #12]
 2776 0470 2533     		adds	r3, r3, #37
 2777 0472 FF33     		adds	r3, r3, #255
 911:Api\core\src/vl53l0x_api_calibration.c **** 					Dev->Data.SpadData.RefSpadEnables,
 2778              		.loc 1 911 0
 2779 0474 BA6A     		ldr	r2, [r7, #40]
 2780 0476 1C21     		movs	r1, #28
 2781 0478 7918     		adds	r1, r7, r1
 2782 047a 1800     		movs	r0, r3
 2783 047c FFF7FEFF 		bl	memcpy
 913:Api\core\src/vl53l0x_api_calibration.c **** 					lastSpadArray, spadArraySize);
 914:Api\core\src/vl53l0x_api_calibration.c **** 
 915:Api\core\src/vl53l0x_api_calibration.c **** 					(refSpadCount_int)--;
 2784              		.loc 1 915 0
 2785 0480 FB6B     		ldr	r3, [r7, #60]
 2786 0482 013B     		subs	r3, r3, #1
 2787 0484 FB63     		str	r3, [r7, #60]
 2788              	.L133:
 916:Api\core\src/vl53l0x_api_calibration.c **** 				}
 917:Api\core\src/vl53l0x_api_calibration.c **** 				complete = 1;
 2789              		.loc 1 917 0
 2790 0486 4323     		movs	r3, #67
 2791 0488 FB18     		adds	r3, r7, r3
 2792 048a 0122     		movs	r2, #1
ARM GAS  C:\Users\ilya\AppData\Local\Temp\ccWKU7si.s 			page 67


 2793 048c 1A70     		strb	r2, [r3]
 2794 048e 11E0     		b	.L126
 2795              	.L132:
 918:Api\core\src/vl53l0x_api_calibration.c **** 			} else {
 919:Api\core\src/vl53l0x_api_calibration.c **** 				/* Continue to add spads */
 920:Api\core\src/vl53l0x_api_calibration.c **** 				lastSignalRateDiff = signalRateDiff;
 2796              		.loc 1 920 0
 2797 0490 7B6A     		ldr	r3, [r7, #36]
 2798 0492 7B64     		str	r3, [r7, #68]
 921:Api\core\src/vl53l0x_api_calibration.c **** 				memcpy(lastSpadArray,
 922:Api\core\src/vl53l0x_api_calibration.c **** 					Dev->Data.SpadData.RefSpadEnables,
 2799              		.loc 1 922 0
 2800 0494 FB68     		ldr	r3, [r7, #12]
 2801 0496 2533     		adds	r3, r3, #37
 2802 0498 FF33     		adds	r3, r3, #255
 2803 049a 1900     		movs	r1, r3
 921:Api\core\src/vl53l0x_api_calibration.c **** 				memcpy(lastSpadArray,
 2804              		.loc 1 921 0
 2805 049c BA6A     		ldr	r2, [r7, #40]
 2806 049e 1C23     		movs	r3, #28
 2807 04a0 FB18     		adds	r3, r7, r3
 2808 04a2 1800     		movs	r0, r3
 2809 04a4 FFF7FEFF 		bl	memcpy
 2810 04a8 4323     		movs	r3, #67
 2811 04aa FB18     		adds	r3, r7, r3
 2812 04ac 4322     		movs	r2, #67
 2813 04ae BA18     		adds	r2, r7, r2
 2814 04b0 1278     		ldrb	r2, [r2]
 2815 04b2 1A70     		strb	r2, [r3]
 2816              	.L126:
 852:Api\core\src/vl53l0x_api_calibration.c **** 			get_next_good_spad(
 2817              		.loc 1 852 0
 2818 04b4 4323     		movs	r3, #67
 2819 04b6 FB18     		adds	r3, r7, r3
 2820 04b8 1B78     		ldrb	r3, [r3]
 2821 04ba 002B     		cmp	r3, #0
 2822 04bc 00D1     		bne	.LCB2450
 2823 04be 51E7     		b	.L134	@long jump
 2824              	.LCB2450:
 2825 04c0 02E0     		b	.L125
 2826              	.L138:
 891:Api\core\src/vl53l0x_api_calibration.c **** 
 2827              		.loc 1 891 0
 2828 04c2 C046     		nop
 2829 04c4 00E0     		b	.L125
 2830              	.L139:
 897:Api\core\src/vl53l0x_api_calibration.c **** 
 2831              		.loc 1 897 0
 2832 04c6 C046     		nop
 2833              	.L125:
 923:Api\core\src/vl53l0x_api_calibration.c **** 					spadArraySize);
 924:Api\core\src/vl53l0x_api_calibration.c **** 			}
 925:Api\core\src/vl53l0x_api_calibration.c **** 
 926:Api\core\src/vl53l0x_api_calibration.c **** 		} /* while */
 927:Api\core\src/vl53l0x_api_calibration.c **** 	}
 928:Api\core\src/vl53l0x_api_calibration.c **** 
 929:Api\core\src/vl53l0x_api_calibration.c **** 	if (Status == VL53L0X_ERROR_NONE) {
ARM GAS  C:\Users\ilya\AppData\Local\Temp\ccWKU7si.s 			page 68


 2834              		.loc 1 929 0
 2835 04c8 5723     		movs	r3, #87
 2836 04ca FB18     		adds	r3, r7, r3
 2837 04cc 1B78     		ldrb	r3, [r3]
 2838 04ce 5BB2     		sxtb	r3, r3
 2839 04d0 002B     		cmp	r3, #0
 2840 04d2 19D1     		bne	.L135
 930:Api\core\src/vl53l0x_api_calibration.c **** 		*refSpadCount = refSpadCount_int;
 2841              		.loc 1 930 0
 2842 04d4 BB68     		ldr	r3, [r7, #8]
 2843 04d6 FA6B     		ldr	r2, [r7, #60]
 2844 04d8 1A60     		str	r2, [r3]
 931:Api\core\src/vl53l0x_api_calibration.c **** 		*isApertureSpads = isApertureSpads_int;
 2845              		.loc 1 931 0
 2846 04da 7B68     		ldr	r3, [r7, #4]
 2847 04dc 3B22     		movs	r2, #59
 2848 04de BA18     		adds	r2, r7, r2
 2849 04e0 1278     		ldrb	r2, [r2]
 2850 04e2 1A70     		strb	r2, [r3]
 932:Api\core\src/vl53l0x_api_calibration.c **** 
 933:Api\core\src/vl53l0x_api_calibration.c **** 		VL53L0X_SETDEVICESPECIFICPARAMETER(Dev, RefSpadsInitialised, 1);
 2851              		.loc 1 933 0
 2852 04e4 FA68     		ldr	r2, [r7, #12]
 2853 04e6 1623     		movs	r3, #22
 2854 04e8 FF33     		adds	r3, r3, #255
 2855 04ea 0121     		movs	r1, #1
 2856 04ec D154     		strb	r1, [r2, r3]
 934:Api\core\src/vl53l0x_api_calibration.c **** 		VL53L0X_SETDEVICESPECIFICPARAMETER(Dev,
 2857              		.loc 1 934 0
 2858 04ee BB68     		ldr	r3, [r7, #8]
 2859 04f0 1B68     		ldr	r3, [r3]
 2860 04f2 D9B2     		uxtb	r1, r3
 2861 04f4 FA68     		ldr	r2, [r7, #12]
 2862 04f6 1423     		movs	r3, #20
 2863 04f8 FF33     		adds	r3, r3, #255
 2864 04fa D154     		strb	r1, [r2, r3]
 935:Api\core\src/vl53l0x_api_calibration.c **** 			ReferenceSpadCount, (uint8_t)(*refSpadCount));
 936:Api\core\src/vl53l0x_api_calibration.c **** 		VL53L0X_SETDEVICESPECIFICPARAMETER(Dev,
 2865              		.loc 1 936 0
 2866 04fc 7B68     		ldr	r3, [r7, #4]
 2867 04fe 1978     		ldrb	r1, [r3]
 2868 0500 FA68     		ldr	r2, [r7, #12]
 2869 0502 8A23     		movs	r3, #138
 2870 0504 5B00     		lsls	r3, r3, #1
 2871 0506 D154     		strb	r1, [r2, r3]
 2872              	.L135:
 937:Api\core\src/vl53l0x_api_calibration.c **** 			ReferenceSpadType, *isApertureSpads);
 938:Api\core\src/vl53l0x_api_calibration.c **** 	}
 939:Api\core\src/vl53l0x_api_calibration.c **** 
 940:Api\core\src/vl53l0x_api_calibration.c **** 	return Status;
 2873              		.loc 1 940 0
 2874 0508 5723     		movs	r3, #87
 2875 050a FB18     		adds	r3, r7, r3
 2876 050c 1B78     		ldrb	r3, [r3]
 2877 050e 5BB2     		sxtb	r3, r3
 941:Api\core\src/vl53l0x_api_calibration.c **** }
 2878              		.loc 1 941 0
ARM GAS  C:\Users\ilya\AppData\Local\Temp\ccWKU7si.s 			page 69


 2879 0510 1800     		movs	r0, r3
 2880 0512 BD46     		mov	sp, r7
 2881 0514 17B0     		add	sp, sp, #92
 2882              		@ sp needed
 2883 0516 F0BD     		pop	{r4, r5, r6, r7, pc}
 2884              		.cfi_endproc
 2885              	.LFE14:
 2886              		.size	VL53L0X_perform_ref_spad_management, .-VL53L0X_perform_ref_spad_management
 2887              		.section	.text.VL53L0X_set_reference_spads,"ax",%progbits
 2888              		.align	2
 2889              		.global	VL53L0X_set_reference_spads
 2890              		.code	16
 2891              		.thumb_func
 2892              		.type	VL53L0X_set_reference_spads, %function
 2893              	VL53L0X_set_reference_spads:
 2894              	.LFB15:
 942:Api\core\src/vl53l0x_api_calibration.c **** 
 943:Api\core\src/vl53l0x_api_calibration.c **** VL53L0X_Error VL53L0X_set_reference_spads(VL53L0X_DEV Dev,
 944:Api\core\src/vl53l0x_api_calibration.c **** 				 uint32_t count, uint8_t isApertureSpads)
 945:Api\core\src/vl53l0x_api_calibration.c **** {
 2895              		.loc 1 945 0
 2896              		.cfi_startproc
 2897              		@ args = 0, pretend = 0, frame = 48
 2898              		@ frame_needed = 1, uses_anonymous_args = 0
 2899 0000 F0B5     		push	{r4, r5, r6, r7, lr}
 2900              		.cfi_def_cfa_offset 20
 2901              		.cfi_offset 4, -20
 2902              		.cfi_offset 5, -16
 2903              		.cfi_offset 6, -12
 2904              		.cfi_offset 7, -8
 2905              		.cfi_offset 14, -4
 2906 0002 93B0     		sub	sp, sp, #76
 2907              		.cfi_def_cfa_offset 96
 2908 0004 06AF     		add	r7, sp, #24
 2909              		.cfi_def_cfa 7, 72
 2910 0006 F860     		str	r0, [r7, #12]
 2911 0008 B960     		str	r1, [r7, #8]
 2912 000a FB1D     		adds	r3, r7, #7
 2913 000c 1A70     		strb	r2, [r3]
 946:Api\core\src/vl53l0x_api_calibration.c **** 	VL53L0X_Error Status = VL53L0X_ERROR_NONE;
 2914              		.loc 1 946 0
 2915 000e 2F23     		movs	r3, #47
 2916 0010 FB18     		adds	r3, r7, r3
 2917 0012 0022     		movs	r2, #0
 2918 0014 1A70     		strb	r2, [r3]
 947:Api\core\src/vl53l0x_api_calibration.c **** 	uint32_t currentSpadIndex = 0;
 2919              		.loc 1 947 0
 2920 0016 0023     		movs	r3, #0
 2921 0018 BB62     		str	r3, [r7, #40]
 948:Api\core\src/vl53l0x_api_calibration.c **** 	uint8_t startSelect = 0xB4;
 2922              		.loc 1 948 0
 2923 001a 2323     		movs	r3, #35
 2924 001c FB18     		adds	r3, r7, r3
 2925 001e B422     		movs	r2, #180
 2926 0020 1A70     		strb	r2, [r3]
 949:Api\core\src/vl53l0x_api_calibration.c **** 	uint32_t spadArraySize = 6;
 2927              		.loc 1 949 0
ARM GAS  C:\Users\ilya\AppData\Local\Temp\ccWKU7si.s 			page 70


 2928 0022 0623     		movs	r3, #6
 2929 0024 FB61     		str	r3, [r7, #28]
 950:Api\core\src/vl53l0x_api_calibration.c **** 	uint32_t maxSpadCount = 44;
 2930              		.loc 1 950 0
 2931 0026 2C23     		movs	r3, #44
 2932 0028 BB61     		str	r3, [r7, #24]
 951:Api\core\src/vl53l0x_api_calibration.c **** 	uint32_t lastSpadIndex;
 952:Api\core\src/vl53l0x_api_calibration.c **** 	uint32_t index;
 953:Api\core\src/vl53l0x_api_calibration.c **** 
 954:Api\core\src/vl53l0x_api_calibration.c **** 	/*
 955:Api\core\src/vl53l0x_api_calibration.c **** 	 * This function applies a requested number of reference spads, either
 956:Api\core\src/vl53l0x_api_calibration.c **** 	 * aperture or
 957:Api\core\src/vl53l0x_api_calibration.c **** 	 * non-aperture, as requested.
 958:Api\core\src/vl53l0x_api_calibration.c **** 	 * The good spad map will be applied.
 959:Api\core\src/vl53l0x_api_calibration.c **** 	 */
 960:Api\core\src/vl53l0x_api_calibration.c **** 
 961:Api\core\src/vl53l0x_api_calibration.c **** 	Status = VL53L0X_WrByte(Dev, 0xFF, 0x01);
 2933              		.loc 1 961 0
 2934 002a 2F23     		movs	r3, #47
 2935 002c FC18     		adds	r4, r7, r3
 2936 002e FB68     		ldr	r3, [r7, #12]
 2937 0030 0122     		movs	r2, #1
 2938 0032 FF21     		movs	r1, #255
 2939 0034 1800     		movs	r0, r3
 2940 0036 FFF7FEFF 		bl	VL53L0X_WrByte
 2941 003a 0300     		movs	r3, r0
 2942 003c 2370     		strb	r3, [r4]
 962:Api\core\src/vl53l0x_api_calibration.c **** 
 963:Api\core\src/vl53l0x_api_calibration.c **** 	if (Status == VL53L0X_ERROR_NONE)
 2943              		.loc 1 963 0
 2944 003e 2F23     		movs	r3, #47
 2945 0040 FB18     		adds	r3, r7, r3
 2946 0042 1B78     		ldrb	r3, [r3]
 2947 0044 5BB2     		sxtb	r3, r3
 2948 0046 002B     		cmp	r3, #0
 2949 0048 09D1     		bne	.L141
 964:Api\core\src/vl53l0x_api_calibration.c **** 		Status = VL53L0X_WrByte(Dev,
 2950              		.loc 1 964 0
 2951 004a 2F23     		movs	r3, #47
 2952 004c FC18     		adds	r4, r7, r3
 2953 004e FB68     		ldr	r3, [r7, #12]
 2954 0050 0022     		movs	r2, #0
 2955 0052 4F21     		movs	r1, #79
 2956 0054 1800     		movs	r0, r3
 2957 0056 FFF7FEFF 		bl	VL53L0X_WrByte
 2958 005a 0300     		movs	r3, r0
 2959 005c 2370     		strb	r3, [r4]
 2960              	.L141:
 965:Api\core\src/vl53l0x_api_calibration.c **** 			VL53L0X_REG_DYNAMIC_SPAD_REF_EN_START_OFFSET, 0x00);
 966:Api\core\src/vl53l0x_api_calibration.c **** 
 967:Api\core\src/vl53l0x_api_calibration.c **** 	if (Status == VL53L0X_ERROR_NONE)
 2961              		.loc 1 967 0
 2962 005e 2F23     		movs	r3, #47
 2963 0060 FB18     		adds	r3, r7, r3
 2964 0062 1B78     		ldrb	r3, [r3]
 2965 0064 5BB2     		sxtb	r3, r3
 2966 0066 002B     		cmp	r3, #0
ARM GAS  C:\Users\ilya\AppData\Local\Temp\ccWKU7si.s 			page 71


 2967 0068 09D1     		bne	.L142
 968:Api\core\src/vl53l0x_api_calibration.c **** 		Status = VL53L0X_WrByte(Dev,
 2968              		.loc 1 968 0
 2969 006a 2F23     		movs	r3, #47
 2970 006c FC18     		adds	r4, r7, r3
 2971 006e FB68     		ldr	r3, [r7, #12]
 2972 0070 2C22     		movs	r2, #44
 2973 0072 4E21     		movs	r1, #78
 2974 0074 1800     		movs	r0, r3
 2975 0076 FFF7FEFF 		bl	VL53L0X_WrByte
 2976 007a 0300     		movs	r3, r0
 2977 007c 2370     		strb	r3, [r4]
 2978              	.L142:
 969:Api\core\src/vl53l0x_api_calibration.c **** 			VL53L0X_REG_DYNAMIC_SPAD_NUM_REQUESTED_REF_SPAD, 0x2C);
 970:Api\core\src/vl53l0x_api_calibration.c **** 
 971:Api\core\src/vl53l0x_api_calibration.c **** 	if (Status == VL53L0X_ERROR_NONE)
 2979              		.loc 1 971 0
 2980 007e 2F23     		movs	r3, #47
 2981 0080 FB18     		adds	r3, r7, r3
 2982 0082 1B78     		ldrb	r3, [r3]
 2983 0084 5BB2     		sxtb	r3, r3
 2984 0086 002B     		cmp	r3, #0
 2985 0088 09D1     		bne	.L143
 972:Api\core\src/vl53l0x_api_calibration.c **** 		Status = VL53L0X_WrByte(Dev, 0xFF, 0x00);
 2986              		.loc 1 972 0
 2987 008a 2F23     		movs	r3, #47
 2988 008c FC18     		adds	r4, r7, r3
 2989 008e FB68     		ldr	r3, [r7, #12]
 2990 0090 0022     		movs	r2, #0
 2991 0092 FF21     		movs	r1, #255
 2992 0094 1800     		movs	r0, r3
 2993 0096 FFF7FEFF 		bl	VL53L0X_WrByte
 2994 009a 0300     		movs	r3, r0
 2995 009c 2370     		strb	r3, [r4]
 2996              	.L143:
 973:Api\core\src/vl53l0x_api_calibration.c **** 
 974:Api\core\src/vl53l0x_api_calibration.c **** 	if (Status == VL53L0X_ERROR_NONE)
 2997              		.loc 1 974 0
 2998 009e 2F23     		movs	r3, #47
 2999 00a0 FB18     		adds	r3, r7, r3
 3000 00a2 1B78     		ldrb	r3, [r3]
 3001 00a4 5BB2     		sxtb	r3, r3
 3002 00a6 002B     		cmp	r3, #0
 3003 00a8 0BD1     		bne	.L144
 975:Api\core\src/vl53l0x_api_calibration.c **** 		Status = VL53L0X_WrByte(Dev,
 3004              		.loc 1 975 0
 3005 00aa 2F23     		movs	r3, #47
 3006 00ac FC18     		adds	r4, r7, r3
 3007 00ae 2323     		movs	r3, #35
 3008 00b0 FB18     		adds	r3, r7, r3
 3009 00b2 1A78     		ldrb	r2, [r3]
 3010 00b4 FB68     		ldr	r3, [r7, #12]
 3011 00b6 B621     		movs	r1, #182
 3012 00b8 1800     		movs	r0, r3
 3013 00ba FFF7FEFF 		bl	VL53L0X_WrByte
 3014 00be 0300     		movs	r3, r0
 3015 00c0 2370     		strb	r3, [r4]
ARM GAS  C:\Users\ilya\AppData\Local\Temp\ccWKU7si.s 			page 72


 3016              	.L144:
 976:Api\core\src/vl53l0x_api_calibration.c **** 			VL53L0X_REG_GLOBAL_CONFIG_REF_EN_START_SELECT,
 977:Api\core\src/vl53l0x_api_calibration.c **** 			startSelect);
 978:Api\core\src/vl53l0x_api_calibration.c **** 
 979:Api\core\src/vl53l0x_api_calibration.c **** 	for (index = 0; index < spadArraySize; index++)
 3017              		.loc 1 979 0
 3018 00c2 0023     		movs	r3, #0
 3019 00c4 7B62     		str	r3, [r7, #36]
 3020 00c6 0AE0     		b	.L145
 3021              	.L146:
 980:Api\core\src/vl53l0x_api_calibration.c **** 		Dev->Data.SpadData.RefSpadEnables[index] = 0;
 3022              		.loc 1 980 0 discriminator 3
 3023 00c8 F968     		ldr	r1, [r7, #12]
 3024 00ca 9223     		movs	r3, #146
 3025 00cc 5B00     		lsls	r3, r3, #1
 3026 00ce 7A6A     		ldr	r2, [r7, #36]
 3027 00d0 8A18     		adds	r2, r1, r2
 3028 00d2 D318     		adds	r3, r2, r3
 3029 00d4 0022     		movs	r2, #0
 3030 00d6 1A70     		strb	r2, [r3]
 979:Api\core\src/vl53l0x_api_calibration.c **** 		Dev->Data.SpadData.RefSpadEnables[index] = 0;
 3031              		.loc 1 979 0 discriminator 3
 3032 00d8 7B6A     		ldr	r3, [r7, #36]
 3033 00da 0133     		adds	r3, r3, #1
 3034 00dc 7B62     		str	r3, [r7, #36]
 3035              	.L145:
 979:Api\core\src/vl53l0x_api_calibration.c **** 		Dev->Data.SpadData.RefSpadEnables[index] = 0;
 3036              		.loc 1 979 0 is_stmt 0 discriminator 1
 3037 00de 7A6A     		ldr	r2, [r7, #36]
 3038 00e0 FB69     		ldr	r3, [r7, #28]
 3039 00e2 9A42     		cmp	r2, r3
 3040 00e4 F0D3     		bcc	.L146
 981:Api\core\src/vl53l0x_api_calibration.c **** 
 982:Api\core\src/vl53l0x_api_calibration.c **** 	if (isApertureSpads) {
 3041              		.loc 1 982 0 is_stmt 1
 3042 00e6 FB1D     		adds	r3, r7, #7
 3043 00e8 1B78     		ldrb	r3, [r3]
 3044 00ea 002B     		cmp	r3, #0
 3045 00ec 11D0     		beq	.L147
 983:Api\core\src/vl53l0x_api_calibration.c **** 		/* Increment to the first APERTURE spad */
 984:Api\core\src/vl53l0x_api_calibration.c **** 		while ((is_aperture(startSelect + currentSpadIndex) == 0) &&
 3046              		.loc 1 984 0
 3047 00ee 02E0     		b	.L148
 3048              	.L149:
 985:Api\core\src/vl53l0x_api_calibration.c **** 			  (currentSpadIndex < maxSpadCount)) {
 986:Api\core\src/vl53l0x_api_calibration.c **** 			currentSpadIndex++;
 3049              		.loc 1 986 0
 3050 00f0 BB6A     		ldr	r3, [r7, #40]
 3051 00f2 0133     		adds	r3, r3, #1
 3052 00f4 BB62     		str	r3, [r7, #40]
 3053              	.L148:
 984:Api\core\src/vl53l0x_api_calibration.c **** 			  (currentSpadIndex < maxSpadCount)) {
 3054              		.loc 1 984 0
 3055 00f6 2323     		movs	r3, #35
 3056 00f8 FB18     		adds	r3, r7, r3
 3057 00fa 1A78     		ldrb	r2, [r3]
 3058 00fc BB6A     		ldr	r3, [r7, #40]
ARM GAS  C:\Users\ilya\AppData\Local\Temp\ccWKU7si.s 			page 73


 3059 00fe D318     		adds	r3, r2, r3
 3060 0100 1800     		movs	r0, r3
 3061 0102 FFF7FEFF 		bl	is_aperture
 3062 0106 031E     		subs	r3, r0, #0
 3063 0108 03D1     		bne	.L147
 984:Api\core\src/vl53l0x_api_calibration.c **** 			  (currentSpadIndex < maxSpadCount)) {
 3064              		.loc 1 984 0 is_stmt 0 discriminator 1
 3065 010a BA6A     		ldr	r2, [r7, #40]
 3066 010c BB69     		ldr	r3, [r7, #24]
 3067 010e 9A42     		cmp	r2, r3
 3068 0110 EED3     		bcc	.L149
 3069              	.L147:
 987:Api\core\src/vl53l0x_api_calibration.c **** 		}
 988:Api\core\src/vl53l0x_api_calibration.c **** 	}
 989:Api\core\src/vl53l0x_api_calibration.c **** 	Status = enable_ref_spads(Dev,
 990:Api\core\src/vl53l0x_api_calibration.c **** 				isApertureSpads,
 991:Api\core\src/vl53l0x_api_calibration.c **** 				Dev->Data.SpadData.RefGoodSpadMap,
 3070              		.loc 1 991 0 is_stmt 1
 3071 0112 FB68     		ldr	r3, [r7, #12]
 3072 0114 2B33     		adds	r3, r3, #43
 3073 0116 FF33     		adds	r3, r3, #255
 3074 0118 1D00     		movs	r5, r3
 992:Api\core\src/vl53l0x_api_calibration.c **** 				Dev->Data.SpadData.RefSpadEnables,
 3075              		.loc 1 992 0
 3076 011a FB68     		ldr	r3, [r7, #12]
 3077 011c 2533     		adds	r3, r3, #37
 3078 011e FF33     		adds	r3, r3, #255
 3079 0120 1E00     		movs	r6, r3
 989:Api\core\src/vl53l0x_api_calibration.c **** 				isApertureSpads,
 3080              		.loc 1 989 0
 3081 0122 2323     		movs	r3, #35
 3082 0124 FB18     		adds	r3, r7, r3
 3083 0126 1B78     		ldrb	r3, [r3]
 3084 0128 2F22     		movs	r2, #47
 3085 012a BC18     		adds	r4, r7, r2
 3086 012c FA1D     		adds	r2, r7, #7
 3087 012e 1178     		ldrb	r1, [r2]
 3088 0130 F868     		ldr	r0, [r7, #12]
 3089 0132 1422     		movs	r2, #20
 3090 0134 BA18     		adds	r2, r7, r2
 3091 0136 0492     		str	r2, [sp, #16]
 3092 0138 BA68     		ldr	r2, [r7, #8]
 3093 013a 0392     		str	r2, [sp, #12]
 3094 013c BA6A     		ldr	r2, [r7, #40]
 3095 013e 0292     		str	r2, [sp, #8]
 3096 0140 0193     		str	r3, [sp, #4]
 3097 0142 FB69     		ldr	r3, [r7, #28]
 3098 0144 0093     		str	r3, [sp]
 3099 0146 3300     		movs	r3, r6
 3100 0148 2A00     		movs	r2, r5
 3101 014a FFF7FEFF 		bl	enable_ref_spads
 3102 014e 0300     		movs	r3, r0
 3103 0150 2370     		strb	r3, [r4]
 993:Api\core\src/vl53l0x_api_calibration.c **** 				spadArraySize,
 994:Api\core\src/vl53l0x_api_calibration.c **** 				startSelect,
 995:Api\core\src/vl53l0x_api_calibration.c **** 				currentSpadIndex,
 996:Api\core\src/vl53l0x_api_calibration.c **** 				count,
ARM GAS  C:\Users\ilya\AppData\Local\Temp\ccWKU7si.s 			page 74


 997:Api\core\src/vl53l0x_api_calibration.c **** 				&lastSpadIndex);
 998:Api\core\src/vl53l0x_api_calibration.c **** 
 999:Api\core\src/vl53l0x_api_calibration.c **** 	if (Status == VL53L0X_ERROR_NONE) {
 3104              		.loc 1 999 0
 3105 0152 2F23     		movs	r3, #47
 3106 0154 FB18     		adds	r3, r7, r3
 3107 0156 1B78     		ldrb	r3, [r3]
 3108 0158 5BB2     		sxtb	r3, r3
 3109 015a 002B     		cmp	r3, #0
 3110 015c 10D1     		bne	.L150
1000:Api\core\src/vl53l0x_api_calibration.c **** 		VL53L0X_SETDEVICESPECIFICPARAMETER(Dev, RefSpadsInitialised, 1);
 3111              		.loc 1 1000 0
 3112 015e FA68     		ldr	r2, [r7, #12]
 3113 0160 1623     		movs	r3, #22
 3114 0162 FF33     		adds	r3, r3, #255
 3115 0164 0121     		movs	r1, #1
 3116 0166 D154     		strb	r1, [r2, r3]
1001:Api\core\src/vl53l0x_api_calibration.c **** 		VL53L0X_SETDEVICESPECIFICPARAMETER(Dev,
 3117              		.loc 1 1001 0
 3118 0168 BB68     		ldr	r3, [r7, #8]
 3119 016a D9B2     		uxtb	r1, r3
 3120 016c FA68     		ldr	r2, [r7, #12]
 3121 016e 1423     		movs	r3, #20
 3122 0170 FF33     		adds	r3, r3, #255
 3123 0172 D154     		strb	r1, [r2, r3]
1002:Api\core\src/vl53l0x_api_calibration.c **** 			ReferenceSpadCount, (uint8_t)(count));
1003:Api\core\src/vl53l0x_api_calibration.c **** 		VL53L0X_SETDEVICESPECIFICPARAMETER(Dev,
 3124              		.loc 1 1003 0
 3125 0174 FA68     		ldr	r2, [r7, #12]
 3126 0176 F91D     		adds	r1, r7, #7
 3127 0178 8A23     		movs	r3, #138
 3128 017a 5B00     		lsls	r3, r3, #1
 3129 017c 0978     		ldrb	r1, [r1]
 3130 017e D154     		strb	r1, [r2, r3]
 3131              	.L150:
1004:Api\core\src/vl53l0x_api_calibration.c **** 			ReferenceSpadType, isApertureSpads);
1005:Api\core\src/vl53l0x_api_calibration.c **** 	}
1006:Api\core\src/vl53l0x_api_calibration.c **** 
1007:Api\core\src/vl53l0x_api_calibration.c **** 	return Status;
 3132              		.loc 1 1007 0
 3133 0180 2F23     		movs	r3, #47
 3134 0182 FB18     		adds	r3, r7, r3
 3135 0184 1B78     		ldrb	r3, [r3]
 3136 0186 5BB2     		sxtb	r3, r3
1008:Api\core\src/vl53l0x_api_calibration.c **** }
 3137              		.loc 1 1008 0
 3138 0188 1800     		movs	r0, r3
 3139 018a BD46     		mov	sp, r7
 3140 018c 0DB0     		add	sp, sp, #52
 3141              		@ sp needed
 3142 018e F0BD     		pop	{r4, r5, r6, r7, pc}
 3143              		.cfi_endproc
 3144              	.LFE15:
 3145              		.size	VL53L0X_set_reference_spads, .-VL53L0X_set_reference_spads
 3146              		.section	.text.VL53L0X_get_reference_spads,"ax",%progbits
 3147              		.align	2
 3148              		.global	VL53L0X_get_reference_spads
ARM GAS  C:\Users\ilya\AppData\Local\Temp\ccWKU7si.s 			page 75


 3149              		.code	16
 3150              		.thumb_func
 3151              		.type	VL53L0X_get_reference_spads, %function
 3152              	VL53L0X_get_reference_spads:
 3153              	.LFB16:
1009:Api\core\src/vl53l0x_api_calibration.c **** 
1010:Api\core\src/vl53l0x_api_calibration.c **** VL53L0X_Error VL53L0X_get_reference_spads(VL53L0X_DEV Dev,
1011:Api\core\src/vl53l0x_api_calibration.c **** 			uint32_t *pSpadCount, uint8_t *pIsApertureSpads)
1012:Api\core\src/vl53l0x_api_calibration.c **** {
 3154              		.loc 1 1012 0
 3155              		.cfi_startproc
 3156              		@ args = 0, pretend = 0, frame = 48
 3157              		@ frame_needed = 1, uses_anonymous_args = 0
 3158 0000 B0B5     		push	{r4, r5, r7, lr}
 3159              		.cfi_def_cfa_offset 16
 3160              		.cfi_offset 4, -16
 3161              		.cfi_offset 5, -12
 3162              		.cfi_offset 7, -8
 3163              		.cfi_offset 14, -4
 3164 0002 8EB0     		sub	sp, sp, #56
 3165              		.cfi_def_cfa_offset 72
 3166 0004 02AF     		add	r7, sp, #8
 3167              		.cfi_def_cfa 7, 64
 3168 0006 F860     		str	r0, [r7, #12]
 3169 0008 B960     		str	r1, [r7, #8]
 3170 000a 7A60     		str	r2, [r7, #4]
1013:Api\core\src/vl53l0x_api_calibration.c **** 	VL53L0X_Error Status = VL53L0X_ERROR_NONE;
 3171              		.loc 1 1013 0
 3172 000c 2F23     		movs	r3, #47
 3173 000e FB18     		adds	r3, r7, r3
 3174 0010 0022     		movs	r2, #0
 3175 0012 1A70     		strb	r2, [r3]
1014:Api\core\src/vl53l0x_api_calibration.c **** 	uint8_t refSpadsInitialised;
1015:Api\core\src/vl53l0x_api_calibration.c **** 	uint8_t refSpadArray[6];
1016:Api\core\src/vl53l0x_api_calibration.c **** 	uint32_t cMaxSpadCount = 44;
 3176              		.loc 1 1016 0
 3177 0014 2C23     		movs	r3, #44
 3178 0016 BB62     		str	r3, [r7, #40]
1017:Api\core\src/vl53l0x_api_calibration.c **** 	uint32_t cSpadArraySize = 6;
 3179              		.loc 1 1017 0
 3180 0018 0623     		movs	r3, #6
 3181 001a 7B62     		str	r3, [r7, #36]
1018:Api\core\src/vl53l0x_api_calibration.c **** 	uint32_t spadsEnabled;
1019:Api\core\src/vl53l0x_api_calibration.c **** 	uint8_t isApertureSpads = 0;
 3182              		.loc 1 1019 0
 3183 001c 1723     		movs	r3, #23
 3184 001e FB18     		adds	r3, r7, r3
 3185 0020 0022     		movs	r2, #0
 3186 0022 1A70     		strb	r2, [r3]
1020:Api\core\src/vl53l0x_api_calibration.c **** 
1021:Api\core\src/vl53l0x_api_calibration.c **** 	refSpadsInitialised = VL53L0X_GETDEVICESPECIFICPARAMETER(Dev,
 3187              		.loc 1 1021 0
 3188 0024 2323     		movs	r3, #35
 3189 0026 FB18     		adds	r3, r7, r3
 3190 0028 F968     		ldr	r1, [r7, #12]
 3191 002a 1622     		movs	r2, #22
 3192 002c FF32     		adds	r2, r2, #255
ARM GAS  C:\Users\ilya\AppData\Local\Temp\ccWKU7si.s 			page 76


 3193 002e 8A5C     		ldrb	r2, [r1, r2]
 3194 0030 1A70     		strb	r2, [r3]
1022:Api\core\src/vl53l0x_api_calibration.c **** 					RefSpadsInitialised);
1023:Api\core\src/vl53l0x_api_calibration.c **** 
1024:Api\core\src/vl53l0x_api_calibration.c **** 	if (refSpadsInitialised == 1) {
 3195              		.loc 1 1024 0
 3196 0032 2323     		movs	r3, #35
 3197 0034 FB18     		adds	r3, r7, r3
 3198 0036 1B78     		ldrb	r3, [r3]
 3199 0038 012B     		cmp	r3, #1
 3200 003a 0DD1     		bne	.L153
1025:Api\core\src/vl53l0x_api_calibration.c **** 
1026:Api\core\src/vl53l0x_api_calibration.c **** 		*pSpadCount = (uint32_t)VL53L0X_GETDEVICESPECIFICPARAMETER(Dev,
 3201              		.loc 1 1026 0
 3202 003c FA68     		ldr	r2, [r7, #12]
 3203 003e 1423     		movs	r3, #20
 3204 0040 FF33     		adds	r3, r3, #255
 3205 0042 D35C     		ldrb	r3, [r2, r3]
 3206 0044 1A00     		movs	r2, r3
 3207 0046 BB68     		ldr	r3, [r7, #8]
 3208 0048 1A60     		str	r2, [r3]
1027:Api\core\src/vl53l0x_api_calibration.c **** 			ReferenceSpadCount);
1028:Api\core\src/vl53l0x_api_calibration.c **** 		*pIsApertureSpads = VL53L0X_GETDEVICESPECIFICPARAMETER(Dev,
 3209              		.loc 1 1028 0
 3210 004a FA68     		ldr	r2, [r7, #12]
 3211 004c 8A23     		movs	r3, #138
 3212 004e 5B00     		lsls	r3, r3, #1
 3213 0050 D25C     		ldrb	r2, [r2, r3]
 3214 0052 7B68     		ldr	r3, [r7, #4]
 3215 0054 1A70     		strb	r2, [r3]
 3216 0056 40E0     		b	.L154
 3217              	.L153:
1029:Api\core\src/vl53l0x_api_calibration.c **** 			ReferenceSpadType);
1030:Api\core\src/vl53l0x_api_calibration.c **** 	} else {
1031:Api\core\src/vl53l0x_api_calibration.c **** 
1032:Api\core\src/vl53l0x_api_calibration.c **** 		/* obtain spad info from device.*/
1033:Api\core\src/vl53l0x_api_calibration.c **** 		Status = get_ref_spad_map(Dev, refSpadArray);
 3218              		.loc 1 1033 0
 3219 0058 2F23     		movs	r3, #47
 3220 005a FC18     		adds	r4, r7, r3
 3221 005c 1C23     		movs	r3, #28
 3222 005e FA18     		adds	r2, r7, r3
 3223 0060 FB68     		ldr	r3, [r7, #12]
 3224 0062 1100     		movs	r1, r2
 3225 0064 1800     		movs	r0, r3
 3226 0066 FFF7FEFF 		bl	get_ref_spad_map
 3227 006a 0300     		movs	r3, r0
 3228 006c 2370     		strb	r3, [r4]
1034:Api\core\src/vl53l0x_api_calibration.c **** 
1035:Api\core\src/vl53l0x_api_calibration.c **** 		if (Status == VL53L0X_ERROR_NONE) {
 3229              		.loc 1 1035 0
 3230 006e 2F23     		movs	r3, #47
 3231 0070 FB18     		adds	r3, r7, r3
 3232 0072 1B78     		ldrb	r3, [r3]
 3233 0074 5BB2     		sxtb	r3, r3
 3234 0076 002B     		cmp	r3, #0
 3235 0078 2FD1     		bne	.L154
ARM GAS  C:\Users\ilya\AppData\Local\Temp\ccWKU7si.s 			page 77


1036:Api\core\src/vl53l0x_api_calibration.c **** 			/* count enabled spads within spad map array and
1037:Api\core\src/vl53l0x_api_calibration.c **** 			 * determine if Aperture or Non-Aperture.
1038:Api\core\src/vl53l0x_api_calibration.c **** 			 */
1039:Api\core\src/vl53l0x_api_calibration.c **** 			Status = count_enabled_spads(refSpadArray,
 3236              		.loc 1 1039 0
 3237 007a 2F23     		movs	r3, #47
 3238 007c FC18     		adds	r4, r7, r3
 3239 007e 1823     		movs	r3, #24
 3240 0080 FD18     		adds	r5, r7, r3
 3241 0082 BA6A     		ldr	r2, [r7, #40]
 3242 0084 796A     		ldr	r1, [r7, #36]
 3243 0086 1C23     		movs	r3, #28
 3244 0088 F818     		adds	r0, r7, r3
 3245 008a 1723     		movs	r3, #23
 3246 008c FB18     		adds	r3, r7, r3
 3247 008e 0093     		str	r3, [sp]
 3248 0090 2B00     		movs	r3, r5
 3249 0092 FFF7FEFF 		bl	count_enabled_spads
 3250 0096 0300     		movs	r3, r0
 3251 0098 2370     		strb	r3, [r4]
1040:Api\core\src/vl53l0x_api_calibration.c **** 							cSpadArraySize,
1041:Api\core\src/vl53l0x_api_calibration.c **** 							cMaxSpadCount,
1042:Api\core\src/vl53l0x_api_calibration.c **** 							&spadsEnabled,
1043:Api\core\src/vl53l0x_api_calibration.c **** 							&isApertureSpads);
1044:Api\core\src/vl53l0x_api_calibration.c **** 
1045:Api\core\src/vl53l0x_api_calibration.c **** 			if (Status == VL53L0X_ERROR_NONE) {
 3252              		.loc 1 1045 0
 3253 009a 2F23     		movs	r3, #47
 3254 009c FB18     		adds	r3, r7, r3
 3255 009e 1B78     		ldrb	r3, [r3]
 3256 00a0 5BB2     		sxtb	r3, r3
 3257 00a2 002B     		cmp	r3, #0
 3258 00a4 19D1     		bne	.L154
1046:Api\core\src/vl53l0x_api_calibration.c **** 
1047:Api\core\src/vl53l0x_api_calibration.c **** 				*pSpadCount = spadsEnabled;
 3259              		.loc 1 1047 0
 3260 00a6 BA69     		ldr	r2, [r7, #24]
 3261 00a8 BB68     		ldr	r3, [r7, #8]
 3262 00aa 1A60     		str	r2, [r3]
1048:Api\core\src/vl53l0x_api_calibration.c **** 				*pIsApertureSpads = isApertureSpads;
 3263              		.loc 1 1048 0
 3264 00ac 1723     		movs	r3, #23
 3265 00ae FB18     		adds	r3, r7, r3
 3266 00b0 1A78     		ldrb	r2, [r3]
 3267 00b2 7B68     		ldr	r3, [r7, #4]
 3268 00b4 1A70     		strb	r2, [r3]
1049:Api\core\src/vl53l0x_api_calibration.c **** 
1050:Api\core\src/vl53l0x_api_calibration.c **** 				VL53L0X_SETDEVICESPECIFICPARAMETER(Dev,
 3269              		.loc 1 1050 0
 3270 00b6 FA68     		ldr	r2, [r7, #12]
 3271 00b8 1623     		movs	r3, #22
 3272 00ba FF33     		adds	r3, r3, #255
 3273 00bc 0121     		movs	r1, #1
 3274 00be D154     		strb	r1, [r2, r3]
1051:Api\core\src/vl53l0x_api_calibration.c **** 					RefSpadsInitialised, 1);
1052:Api\core\src/vl53l0x_api_calibration.c **** 				VL53L0X_SETDEVICESPECIFICPARAMETER(Dev,
 3275              		.loc 1 1052 0
ARM GAS  C:\Users\ilya\AppData\Local\Temp\ccWKU7si.s 			page 78


 3276 00c0 BB69     		ldr	r3, [r7, #24]
 3277 00c2 D9B2     		uxtb	r1, r3
 3278 00c4 FA68     		ldr	r2, [r7, #12]
 3279 00c6 1423     		movs	r3, #20
 3280 00c8 FF33     		adds	r3, r3, #255
 3281 00ca D154     		strb	r1, [r2, r3]
1053:Api\core\src/vl53l0x_api_calibration.c **** 					ReferenceSpadCount,
1054:Api\core\src/vl53l0x_api_calibration.c **** 					(uint8_t)spadsEnabled);
1055:Api\core\src/vl53l0x_api_calibration.c **** 				VL53L0X_SETDEVICESPECIFICPARAMETER(Dev,
 3282              		.loc 1 1055 0
 3283 00cc 1723     		movs	r3, #23
 3284 00ce FB18     		adds	r3, r7, r3
 3285 00d0 1978     		ldrb	r1, [r3]
 3286 00d2 FA68     		ldr	r2, [r7, #12]
 3287 00d4 8A23     		movs	r3, #138
 3288 00d6 5B00     		lsls	r3, r3, #1
 3289 00d8 D154     		strb	r1, [r2, r3]
 3290              	.L154:
1056:Api\core\src/vl53l0x_api_calibration.c **** 					ReferenceSpadType, isApertureSpads);
1057:Api\core\src/vl53l0x_api_calibration.c **** 			}
1058:Api\core\src/vl53l0x_api_calibration.c **** 		}
1059:Api\core\src/vl53l0x_api_calibration.c **** 	}
1060:Api\core\src/vl53l0x_api_calibration.c **** 
1061:Api\core\src/vl53l0x_api_calibration.c **** 	return Status;
 3291              		.loc 1 1061 0
 3292 00da 2F23     		movs	r3, #47
 3293 00dc FB18     		adds	r3, r7, r3
 3294 00de 1B78     		ldrb	r3, [r3]
 3295 00e0 5BB2     		sxtb	r3, r3
1062:Api\core\src/vl53l0x_api_calibration.c **** }
 3296              		.loc 1 1062 0
 3297 00e2 1800     		movs	r0, r3
 3298 00e4 BD46     		mov	sp, r7
 3299 00e6 0CB0     		add	sp, sp, #48
 3300              		@ sp needed
 3301 00e8 B0BD     		pop	{r4, r5, r7, pc}
 3302              		.cfi_endproc
 3303              	.LFE16:
 3304              		.size	VL53L0X_get_reference_spads, .-VL53L0X_get_reference_spads
 3305 00ea C046     		.section	.text.VL53L0X_perform_single_ref_calibration,"ax",%progbits
 3306              		.align	2
 3307              		.global	VL53L0X_perform_single_ref_calibration
 3308              		.code	16
 3309              		.thumb_func
 3310              		.type	VL53L0X_perform_single_ref_calibration, %function
 3311              	VL53L0X_perform_single_ref_calibration:
 3312              	.LFB17:
1063:Api\core\src/vl53l0x_api_calibration.c **** 
1064:Api\core\src/vl53l0x_api_calibration.c **** 
1065:Api\core\src/vl53l0x_api_calibration.c **** VL53L0X_Error VL53L0X_perform_single_ref_calibration(VL53L0X_DEV Dev,
1066:Api\core\src/vl53l0x_api_calibration.c **** 		uint8_t vhv_init_byte)
1067:Api\core\src/vl53l0x_api_calibration.c **** {
 3313              		.loc 1 1067 0
 3314              		.cfi_startproc
 3315              		@ args = 0, pretend = 0, frame = 16
 3316              		@ frame_needed = 1, uses_anonymous_args = 0
 3317 0000 90B5     		push	{r4, r7, lr}
ARM GAS  C:\Users\ilya\AppData\Local\Temp\ccWKU7si.s 			page 79


 3318              		.cfi_def_cfa_offset 12
 3319              		.cfi_offset 4, -12
 3320              		.cfi_offset 7, -8
 3321              		.cfi_offset 14, -4
 3322 0002 85B0     		sub	sp, sp, #20
 3323              		.cfi_def_cfa_offset 32
 3324 0004 00AF     		add	r7, sp, #0
 3325              		.cfi_def_cfa_register 7
 3326 0006 7860     		str	r0, [r7, #4]
 3327 0008 0A00     		movs	r2, r1
 3328 000a FB1C     		adds	r3, r7, #3
 3329 000c 1A70     		strb	r2, [r3]
1068:Api\core\src/vl53l0x_api_calibration.c **** 	VL53L0X_Error Status = VL53L0X_ERROR_NONE;
 3330              		.loc 1 1068 0
 3331 000e 0F23     		movs	r3, #15
 3332 0010 FB18     		adds	r3, r7, r3
 3333 0012 0022     		movs	r2, #0
 3334 0014 1A70     		strb	r2, [r3]
1069:Api\core\src/vl53l0x_api_calibration.c **** 
1070:Api\core\src/vl53l0x_api_calibration.c **** 	if (Status == VL53L0X_ERROR_NONE)
 3335              		.loc 1 1070 0
 3336 0016 0F23     		movs	r3, #15
 3337 0018 FB18     		adds	r3, r7, r3
 3338 001a 1B78     		ldrb	r3, [r3]
 3339 001c 5BB2     		sxtb	r3, r3
 3340 001e 002B     		cmp	r3, #0
 3341 0020 0DD1     		bne	.L157
1071:Api\core\src/vl53l0x_api_calibration.c **** 		Status = VL53L0X_WrByte(Dev, VL53L0X_REG_SYSRANGE_START,
 3342              		.loc 1 1071 0
 3343 0022 FB1C     		adds	r3, r7, #3
 3344 0024 1B78     		ldrb	r3, [r3]
 3345 0026 0122     		movs	r2, #1
 3346 0028 1343     		orrs	r3, r2
 3347 002a DAB2     		uxtb	r2, r3
 3348 002c 0F23     		movs	r3, #15
 3349 002e FC18     		adds	r4, r7, r3
 3350 0030 7B68     		ldr	r3, [r7, #4]
 3351 0032 0021     		movs	r1, #0
 3352 0034 1800     		movs	r0, r3
 3353 0036 FFF7FEFF 		bl	VL53L0X_WrByte
 3354 003a 0300     		movs	r3, r0
 3355 003c 2370     		strb	r3, [r4]
 3356              	.L157:
1072:Api\core\src/vl53l0x_api_calibration.c **** 				VL53L0X_REG_SYSRANGE_MODE_START_STOP |
1073:Api\core\src/vl53l0x_api_calibration.c **** 				vhv_init_byte);
1074:Api\core\src/vl53l0x_api_calibration.c **** 
1075:Api\core\src/vl53l0x_api_calibration.c **** 	if (Status == VL53L0X_ERROR_NONE)
 3357              		.loc 1 1075 0
 3358 003e 0F23     		movs	r3, #15
 3359 0040 FB18     		adds	r3, r7, r3
 3360 0042 1B78     		ldrb	r3, [r3]
 3361 0044 5BB2     		sxtb	r3, r3
 3362 0046 002B     		cmp	r3, #0
 3363 0048 07D1     		bne	.L158
1076:Api\core\src/vl53l0x_api_calibration.c **** 		Status = VL53L0X_measurement_poll_for_completion(Dev);
 3364              		.loc 1 1076 0
 3365 004a 0F23     		movs	r3, #15
ARM GAS  C:\Users\ilya\AppData\Local\Temp\ccWKU7si.s 			page 80


 3366 004c FC18     		adds	r4, r7, r3
 3367 004e 7B68     		ldr	r3, [r7, #4]
 3368 0050 1800     		movs	r0, r3
 3369 0052 FFF7FEFF 		bl	VL53L0X_measurement_poll_for_completion
 3370 0056 0300     		movs	r3, r0
 3371 0058 2370     		strb	r3, [r4]
 3372              	.L158:
1077:Api\core\src/vl53l0x_api_calibration.c **** 
1078:Api\core\src/vl53l0x_api_calibration.c **** 	if (Status == VL53L0X_ERROR_NONE)
 3373              		.loc 1 1078 0
 3374 005a 0F23     		movs	r3, #15
 3375 005c FB18     		adds	r3, r7, r3
 3376 005e 1B78     		ldrb	r3, [r3]
 3377 0060 5BB2     		sxtb	r3, r3
 3378 0062 002B     		cmp	r3, #0
 3379 0064 08D1     		bne	.L159
1079:Api\core\src/vl53l0x_api_calibration.c **** 		Status = VL53L0X_ClearInterruptMask(Dev, 0);
 3380              		.loc 1 1079 0
 3381 0066 0F23     		movs	r3, #15
 3382 0068 FC18     		adds	r4, r7, r3
 3383 006a 7B68     		ldr	r3, [r7, #4]
 3384 006c 0021     		movs	r1, #0
 3385 006e 1800     		movs	r0, r3
 3386 0070 FFF7FEFF 		bl	VL53L0X_ClearInterruptMask
 3387 0074 0300     		movs	r3, r0
 3388 0076 2370     		strb	r3, [r4]
 3389              	.L159:
1080:Api\core\src/vl53l0x_api_calibration.c **** 
1081:Api\core\src/vl53l0x_api_calibration.c **** 	if (Status == VL53L0X_ERROR_NONE)
 3390              		.loc 1 1081 0
 3391 0078 0F23     		movs	r3, #15
 3392 007a FB18     		adds	r3, r7, r3
 3393 007c 1B78     		ldrb	r3, [r3]
 3394 007e 5BB2     		sxtb	r3, r3
 3395 0080 002B     		cmp	r3, #0
 3396 0082 09D1     		bne	.L160
1082:Api\core\src/vl53l0x_api_calibration.c **** 		Status = VL53L0X_WrByte(Dev, VL53L0X_REG_SYSRANGE_START, 0x00);
 3397              		.loc 1 1082 0
 3398 0084 0F23     		movs	r3, #15
 3399 0086 FC18     		adds	r4, r7, r3
 3400 0088 7B68     		ldr	r3, [r7, #4]
 3401 008a 0022     		movs	r2, #0
 3402 008c 0021     		movs	r1, #0
 3403 008e 1800     		movs	r0, r3
 3404 0090 FFF7FEFF 		bl	VL53L0X_WrByte
 3405 0094 0300     		movs	r3, r0
 3406 0096 2370     		strb	r3, [r4]
 3407              	.L160:
1083:Api\core\src/vl53l0x_api_calibration.c **** 
1084:Api\core\src/vl53l0x_api_calibration.c **** 	return Status;
 3408              		.loc 1 1084 0
 3409 0098 0F23     		movs	r3, #15
 3410 009a FB18     		adds	r3, r7, r3
 3411 009c 1B78     		ldrb	r3, [r3]
 3412 009e 5BB2     		sxtb	r3, r3
1085:Api\core\src/vl53l0x_api_calibration.c **** }
 3413              		.loc 1 1085 0
ARM GAS  C:\Users\ilya\AppData\Local\Temp\ccWKU7si.s 			page 81


 3414 00a0 1800     		movs	r0, r3
 3415 00a2 BD46     		mov	sp, r7
 3416 00a4 05B0     		add	sp, sp, #20
 3417              		@ sp needed
 3418 00a6 90BD     		pop	{r4, r7, pc}
 3419              		.cfi_endproc
 3420              	.LFE17:
 3421              		.size	VL53L0X_perform_single_ref_calibration, .-VL53L0X_perform_single_ref_calibration
 3422              		.section	.text.VL53L0X_ref_calibration_io,"ax",%progbits
 3423              		.align	2
 3424              		.global	VL53L0X_ref_calibration_io
 3425              		.code	16
 3426              		.thumb_func
 3427              		.type	VL53L0X_ref_calibration_io, %function
 3428              	VL53L0X_ref_calibration_io:
 3429              	.LFB18:
1086:Api\core\src/vl53l0x_api_calibration.c **** 
1087:Api\core\src/vl53l0x_api_calibration.c **** 
1088:Api\core\src/vl53l0x_api_calibration.c **** VL53L0X_Error VL53L0X_ref_calibration_io(VL53L0X_DEV Dev, uint8_t read_not_write,
1089:Api\core\src/vl53l0x_api_calibration.c **** 	uint8_t VhvSettings, uint8_t PhaseCal,
1090:Api\core\src/vl53l0x_api_calibration.c **** 	uint8_t *pVhvSettings, uint8_t *pPhaseCal,
1091:Api\core\src/vl53l0x_api_calibration.c **** 	const uint8_t vhv_enable, const uint8_t phase_enable)
1092:Api\core\src/vl53l0x_api_calibration.c **** {
 3430              		.loc 1 1092 0
 3431              		.cfi_startproc
 3432              		@ args = 16, pretend = 0, frame = 16
 3433              		@ frame_needed = 1, uses_anonymous_args = 0
 3434 0000 90B5     		push	{r4, r7, lr}
 3435              		.cfi_def_cfa_offset 12
 3436              		.cfi_offset 4, -12
 3437              		.cfi_offset 7, -8
 3438              		.cfi_offset 14, -4
 3439 0002 85B0     		sub	sp, sp, #20
 3440              		.cfi_def_cfa_offset 32
 3441 0004 00AF     		add	r7, sp, #0
 3442              		.cfi_def_cfa_register 7
 3443 0006 7860     		str	r0, [r7, #4]
 3444 0008 0C00     		movs	r4, r1
 3445 000a 1000     		movs	r0, r2
 3446 000c 1900     		movs	r1, r3
 3447 000e FB1C     		adds	r3, r7, #3
 3448 0010 221C     		adds	r2, r4, #0
 3449 0012 1A70     		strb	r2, [r3]
 3450 0014 BB1C     		adds	r3, r7, #2
 3451 0016 021C     		adds	r2, r0, #0
 3452 0018 1A70     		strb	r2, [r3]
 3453 001a 7B1C     		adds	r3, r7, #1
 3454 001c 0A1C     		adds	r2, r1, #0
 3455 001e 1A70     		strb	r2, [r3]
1093:Api\core\src/vl53l0x_api_calibration.c **** 	VL53L0X_Error Status = VL53L0X_ERROR_NONE;
 3456              		.loc 1 1093 0
 3457 0020 0F23     		movs	r3, #15
 3458 0022 FB18     		adds	r3, r7, r3
 3459 0024 0022     		movs	r2, #0
 3460 0026 1A70     		strb	r2, [r3]
1094:Api\core\src/vl53l0x_api_calibration.c **** 	uint8_t PhaseCalint = 0;
 3461              		.loc 1 1094 0
ARM GAS  C:\Users\ilya\AppData\Local\Temp\ccWKU7si.s 			page 82


 3462 0028 0E23     		movs	r3, #14
 3463 002a FB18     		adds	r3, r7, r3
 3464 002c 0022     		movs	r2, #0
 3465 002e 1A70     		strb	r2, [r3]
1095:Api\core\src/vl53l0x_api_calibration.c **** 
1096:Api\core\src/vl53l0x_api_calibration.c **** 	/* Read VHV from device */
1097:Api\core\src/vl53l0x_api_calibration.c **** 	Status |= VL53L0X_WrByte(Dev, 0xFF, 0x01);
 3466              		.loc 1 1097 0
 3467 0030 7B68     		ldr	r3, [r7, #4]
 3468 0032 0122     		movs	r2, #1
 3469 0034 FF21     		movs	r1, #255
 3470 0036 1800     		movs	r0, r3
 3471 0038 FFF7FEFF 		bl	VL53L0X_WrByte
 3472 003c 0300     		movs	r3, r0
 3473 003e 1900     		movs	r1, r3
 3474 0040 0F23     		movs	r3, #15
 3475 0042 FB18     		adds	r3, r7, r3
 3476 0044 0F22     		movs	r2, #15
 3477 0046 BA18     		adds	r2, r7, r2
 3478 0048 1278     		ldrb	r2, [r2]
 3479 004a 0A43     		orrs	r2, r1
 3480 004c 1A70     		strb	r2, [r3]
1098:Api\core\src/vl53l0x_api_calibration.c **** 	Status |= VL53L0X_WrByte(Dev, 0x00, 0x00);
 3481              		.loc 1 1098 0
 3482 004e 7B68     		ldr	r3, [r7, #4]
 3483 0050 0022     		movs	r2, #0
 3484 0052 0021     		movs	r1, #0
 3485 0054 1800     		movs	r0, r3
 3486 0056 FFF7FEFF 		bl	VL53L0X_WrByte
 3487 005a 0300     		movs	r3, r0
 3488 005c 1900     		movs	r1, r3
 3489 005e 0F23     		movs	r3, #15
 3490 0060 FB18     		adds	r3, r7, r3
 3491 0062 0F22     		movs	r2, #15
 3492 0064 BA18     		adds	r2, r7, r2
 3493 0066 1278     		ldrb	r2, [r2]
 3494 0068 0A43     		orrs	r2, r1
 3495 006a 1A70     		strb	r2, [r3]
1099:Api\core\src/vl53l0x_api_calibration.c **** 	Status |= VL53L0X_WrByte(Dev, 0xFF, 0x00);
 3496              		.loc 1 1099 0
 3497 006c 7B68     		ldr	r3, [r7, #4]
 3498 006e 0022     		movs	r2, #0
 3499 0070 FF21     		movs	r1, #255
 3500 0072 1800     		movs	r0, r3
 3501 0074 FFF7FEFF 		bl	VL53L0X_WrByte
 3502 0078 0300     		movs	r3, r0
 3503 007a 1900     		movs	r1, r3
 3504 007c 0F23     		movs	r3, #15
 3505 007e FB18     		adds	r3, r7, r3
 3506 0080 0F22     		movs	r2, #15
 3507 0082 BA18     		adds	r2, r7, r2
 3508 0084 1278     		ldrb	r2, [r2]
 3509 0086 0A43     		orrs	r2, r1
 3510 0088 1A70     		strb	r2, [r3]
1100:Api\core\src/vl53l0x_api_calibration.c **** 
1101:Api\core\src/vl53l0x_api_calibration.c **** 	if (read_not_write) {
 3511              		.loc 1 1101 0
ARM GAS  C:\Users\ilya\AppData\Local\Temp\ccWKU7si.s 			page 83


 3512 008a FB1C     		adds	r3, r7, #3
 3513 008c 1B78     		ldrb	r3, [r3]
 3514 008e 002B     		cmp	r3, #0
 3515 0090 29D0     		beq	.L163
1102:Api\core\src/vl53l0x_api_calibration.c **** 		if (vhv_enable)
 3516              		.loc 1 1102 0
 3517 0092 2823     		movs	r3, #40
 3518 0094 FB18     		adds	r3, r7, r3
 3519 0096 1B78     		ldrb	r3, [r3]
 3520 0098 002B     		cmp	r3, #0
 3521 009a 0ED0     		beq	.L164
1103:Api\core\src/vl53l0x_api_calibration.c **** 			Status |= VL53L0X_RdByte(Dev, 0xCB, pVhvSettings);
 3522              		.loc 1 1103 0
 3523 009c 3A6A     		ldr	r2, [r7, #32]
 3524 009e 7B68     		ldr	r3, [r7, #4]
 3525 00a0 CB21     		movs	r1, #203
 3526 00a2 1800     		movs	r0, r3
 3527 00a4 FFF7FEFF 		bl	VL53L0X_RdByte
 3528 00a8 0300     		movs	r3, r0
 3529 00aa 1900     		movs	r1, r3
 3530 00ac 0F23     		movs	r3, #15
 3531 00ae FB18     		adds	r3, r7, r3
 3532 00b0 0F22     		movs	r2, #15
 3533 00b2 BA18     		adds	r2, r7, r2
 3534 00b4 1278     		ldrb	r2, [r2]
 3535 00b6 0A43     		orrs	r2, r1
 3536 00b8 1A70     		strb	r2, [r3]
 3537              	.L164:
1104:Api\core\src/vl53l0x_api_calibration.c **** 		if (phase_enable)
 3538              		.loc 1 1104 0
 3539 00ba 2C23     		movs	r3, #44
 3540 00bc FB18     		adds	r3, r7, r3
 3541 00be 1B78     		ldrb	r3, [r3]
 3542 00c0 002B     		cmp	r3, #0
 3543 00c2 3AD0     		beq	.L166
1105:Api\core\src/vl53l0x_api_calibration.c **** 			Status |= VL53L0X_RdByte(Dev, 0xEE, &PhaseCalint);
 3544              		.loc 1 1105 0
 3545 00c4 0E23     		movs	r3, #14
 3546 00c6 FA18     		adds	r2, r7, r3
 3547 00c8 7B68     		ldr	r3, [r7, #4]
 3548 00ca EE21     		movs	r1, #238
 3549 00cc 1800     		movs	r0, r3
 3550 00ce FFF7FEFF 		bl	VL53L0X_RdByte
 3551 00d2 0300     		movs	r3, r0
 3552 00d4 1900     		movs	r1, r3
 3553 00d6 0F23     		movs	r3, #15
 3554 00d8 FB18     		adds	r3, r7, r3
 3555 00da 0F22     		movs	r2, #15
 3556 00dc BA18     		adds	r2, r7, r2
 3557 00de 1278     		ldrb	r2, [r2]
 3558 00e0 0A43     		orrs	r2, r1
 3559 00e2 1A70     		strb	r2, [r3]
 3560 00e4 29E0     		b	.L166
 3561              	.L163:
1106:Api\core\src/vl53l0x_api_calibration.c **** 	} else {
1107:Api\core\src/vl53l0x_api_calibration.c **** 		if (vhv_enable)
 3562              		.loc 1 1107 0
ARM GAS  C:\Users\ilya\AppData\Local\Temp\ccWKU7si.s 			page 84


 3563 00e6 2823     		movs	r3, #40
 3564 00e8 FB18     		adds	r3, r7, r3
 3565 00ea 1B78     		ldrb	r3, [r3]
 3566 00ec 002B     		cmp	r3, #0
 3567 00ee 0FD0     		beq	.L167
1108:Api\core\src/vl53l0x_api_calibration.c **** 			Status |= VL53L0X_WrByte(Dev, 0xCB, VhvSettings);
 3568              		.loc 1 1108 0
 3569 00f0 BB1C     		adds	r3, r7, #2
 3570 00f2 1A78     		ldrb	r2, [r3]
 3571 00f4 7B68     		ldr	r3, [r7, #4]
 3572 00f6 CB21     		movs	r1, #203
 3573 00f8 1800     		movs	r0, r3
 3574 00fa FFF7FEFF 		bl	VL53L0X_WrByte
 3575 00fe 0300     		movs	r3, r0
 3576 0100 1900     		movs	r1, r3
 3577 0102 0F23     		movs	r3, #15
 3578 0104 FB18     		adds	r3, r7, r3
 3579 0106 0F22     		movs	r2, #15
 3580 0108 BA18     		adds	r2, r7, r2
 3581 010a 1278     		ldrb	r2, [r2]
 3582 010c 0A43     		orrs	r2, r1
 3583 010e 1A70     		strb	r2, [r3]
 3584              	.L167:
1109:Api\core\src/vl53l0x_api_calibration.c **** 		if (phase_enable)
 3585              		.loc 1 1109 0
 3586 0110 2C23     		movs	r3, #44
 3587 0112 FB18     		adds	r3, r7, r3
 3588 0114 1B78     		ldrb	r3, [r3]
 3589 0116 002B     		cmp	r3, #0
 3590 0118 0FD0     		beq	.L166
1110:Api\core\src/vl53l0x_api_calibration.c **** 			Status |= VL53L0X_UpdateByte(Dev, 0xEE, 0x80, PhaseCal);
 3591              		.loc 1 1110 0
 3592 011a 7B1C     		adds	r3, r7, #1
 3593 011c 1B78     		ldrb	r3, [r3]
 3594 011e 7868     		ldr	r0, [r7, #4]
 3595 0120 8022     		movs	r2, #128
 3596 0122 EE21     		movs	r1, #238
 3597 0124 FFF7FEFF 		bl	VL53L0X_UpdateByte
 3598 0128 0300     		movs	r3, r0
 3599 012a 1900     		movs	r1, r3
 3600 012c 0F23     		movs	r3, #15
 3601 012e FB18     		adds	r3, r7, r3
 3602 0130 0F22     		movs	r2, #15
 3603 0132 BA18     		adds	r2, r7, r2
 3604 0134 1278     		ldrb	r2, [r2]
 3605 0136 0A43     		orrs	r2, r1
 3606 0138 1A70     		strb	r2, [r3]
 3607              	.L166:
1111:Api\core\src/vl53l0x_api_calibration.c **** 	}
1112:Api\core\src/vl53l0x_api_calibration.c **** 
1113:Api\core\src/vl53l0x_api_calibration.c **** 	Status |= VL53L0X_WrByte(Dev, 0xFF, 0x01);
 3608              		.loc 1 1113 0
 3609 013a 7B68     		ldr	r3, [r7, #4]
 3610 013c 0122     		movs	r2, #1
 3611 013e FF21     		movs	r1, #255
 3612 0140 1800     		movs	r0, r3
 3613 0142 FFF7FEFF 		bl	VL53L0X_WrByte
ARM GAS  C:\Users\ilya\AppData\Local\Temp\ccWKU7si.s 			page 85


 3614 0146 0300     		movs	r3, r0
 3615 0148 1900     		movs	r1, r3
 3616 014a 0F23     		movs	r3, #15
 3617 014c FB18     		adds	r3, r7, r3
 3618 014e 0F22     		movs	r2, #15
 3619 0150 BA18     		adds	r2, r7, r2
 3620 0152 1278     		ldrb	r2, [r2]
 3621 0154 0A43     		orrs	r2, r1
 3622 0156 1A70     		strb	r2, [r3]
1114:Api\core\src/vl53l0x_api_calibration.c **** 	Status |= VL53L0X_WrByte(Dev, 0x00, 0x01);
 3623              		.loc 1 1114 0
 3624 0158 7B68     		ldr	r3, [r7, #4]
 3625 015a 0122     		movs	r2, #1
 3626 015c 0021     		movs	r1, #0
 3627 015e 1800     		movs	r0, r3
 3628 0160 FFF7FEFF 		bl	VL53L0X_WrByte
 3629 0164 0300     		movs	r3, r0
 3630 0166 1900     		movs	r1, r3
 3631 0168 0F23     		movs	r3, #15
 3632 016a FB18     		adds	r3, r7, r3
 3633 016c 0F22     		movs	r2, #15
 3634 016e BA18     		adds	r2, r7, r2
 3635 0170 1278     		ldrb	r2, [r2]
 3636 0172 0A43     		orrs	r2, r1
 3637 0174 1A70     		strb	r2, [r3]
1115:Api\core\src/vl53l0x_api_calibration.c **** 	Status |= VL53L0X_WrByte(Dev, 0xFF, 0x00);
 3638              		.loc 1 1115 0
 3639 0176 7B68     		ldr	r3, [r7, #4]
 3640 0178 0022     		movs	r2, #0
 3641 017a FF21     		movs	r1, #255
 3642 017c 1800     		movs	r0, r3
 3643 017e FFF7FEFF 		bl	VL53L0X_WrByte
 3644 0182 0300     		movs	r3, r0
 3645 0184 1900     		movs	r1, r3
 3646 0186 0F23     		movs	r3, #15
 3647 0188 FB18     		adds	r3, r7, r3
 3648 018a 0F22     		movs	r2, #15
 3649 018c BA18     		adds	r2, r7, r2
 3650 018e 1278     		ldrb	r2, [r2]
 3651 0190 0A43     		orrs	r2, r1
 3652 0192 1A70     		strb	r2, [r3]
1116:Api\core\src/vl53l0x_api_calibration.c **** 
1117:Api\core\src/vl53l0x_api_calibration.c **** 	*pPhaseCal = (uint8_t)(PhaseCalint&0xEF);
 3653              		.loc 1 1117 0
 3654 0194 0E23     		movs	r3, #14
 3655 0196 FB18     		adds	r3, r7, r3
 3656 0198 1B78     		ldrb	r3, [r3]
 3657 019a 1022     		movs	r2, #16
 3658 019c 9343     		bics	r3, r2
 3659 019e DAB2     		uxtb	r2, r3
 3660 01a0 7B6A     		ldr	r3, [r7, #36]
 3661 01a2 1A70     		strb	r2, [r3]
1118:Api\core\src/vl53l0x_api_calibration.c **** 
1119:Api\core\src/vl53l0x_api_calibration.c **** 	return Status;
 3662              		.loc 1 1119 0
 3663 01a4 0F23     		movs	r3, #15
 3664 01a6 FB18     		adds	r3, r7, r3
ARM GAS  C:\Users\ilya\AppData\Local\Temp\ccWKU7si.s 			page 86


 3665 01a8 1B78     		ldrb	r3, [r3]
 3666 01aa 5BB2     		sxtb	r3, r3
1120:Api\core\src/vl53l0x_api_calibration.c **** }
 3667              		.loc 1 1120 0
 3668 01ac 1800     		movs	r0, r3
 3669 01ae BD46     		mov	sp, r7
 3670 01b0 05B0     		add	sp, sp, #20
 3671              		@ sp needed
 3672 01b2 90BD     		pop	{r4, r7, pc}
 3673              		.cfi_endproc
 3674              	.LFE18:
 3675              		.size	VL53L0X_ref_calibration_io, .-VL53L0X_ref_calibration_io
 3676              		.section	.text.VL53L0X_perform_vhv_calibration,"ax",%progbits
 3677              		.align	2
 3678              		.global	VL53L0X_perform_vhv_calibration
 3679              		.code	16
 3680              		.thumb_func
 3681              		.type	VL53L0X_perform_vhv_calibration, %function
 3682              	VL53L0X_perform_vhv_calibration:
 3683              	.LFB19:
1121:Api\core\src/vl53l0x_api_calibration.c **** 
1122:Api\core\src/vl53l0x_api_calibration.c **** 
1123:Api\core\src/vl53l0x_api_calibration.c **** VL53L0X_Error VL53L0X_perform_vhv_calibration(VL53L0X_DEV Dev,
1124:Api\core\src/vl53l0x_api_calibration.c **** 	uint8_t *pVhvSettings, const uint8_t get_data_enable,
1125:Api\core\src/vl53l0x_api_calibration.c **** 	const uint8_t restore_config)
1126:Api\core\src/vl53l0x_api_calibration.c **** {
 3684              		.loc 1 1126 0
 3685              		.cfi_startproc
 3686              		@ args = 0, pretend = 0, frame = 24
 3687              		@ frame_needed = 1, uses_anonymous_args = 0
 3688 0000 90B5     		push	{r4, r7, lr}
 3689              		.cfi_def_cfa_offset 12
 3690              		.cfi_offset 4, -12
 3691              		.cfi_offset 7, -8
 3692              		.cfi_offset 14, -4
 3693 0002 8BB0     		sub	sp, sp, #44
 3694              		.cfi_def_cfa_offset 56
 3695 0004 04AF     		add	r7, sp, #16
 3696              		.cfi_def_cfa 7, 40
 3697 0006 F860     		str	r0, [r7, #12]
 3698 0008 B960     		str	r1, [r7, #8]
 3699 000a 1900     		movs	r1, r3
 3700 000c FB1D     		adds	r3, r7, #7
 3701 000e 1A70     		strb	r2, [r3]
 3702 0010 BB1D     		adds	r3, r7, #6
 3703 0012 0A1C     		adds	r2, r1, #0
 3704 0014 1A70     		strb	r2, [r3]
1127:Api\core\src/vl53l0x_api_calibration.c **** 	VL53L0X_Error Status = VL53L0X_ERROR_NONE;
 3705              		.loc 1 1127 0
 3706 0016 1723     		movs	r3, #23
 3707 0018 FB18     		adds	r3, r7, r3
 3708 001a 0022     		movs	r2, #0
 3709 001c 1A70     		strb	r2, [r3]
1128:Api\core\src/vl53l0x_api_calibration.c **** 	uint8_t SequenceConfig = 0;
 3710              		.loc 1 1128 0
 3711 001e 1623     		movs	r3, #22
 3712 0020 FB18     		adds	r3, r7, r3
ARM GAS  C:\Users\ilya\AppData\Local\Temp\ccWKU7si.s 			page 87


 3713 0022 0022     		movs	r2, #0
 3714 0024 1A70     		strb	r2, [r3]
1129:Api\core\src/vl53l0x_api_calibration.c **** 	uint8_t VhvSettings = 0;
 3715              		.loc 1 1129 0
 3716 0026 1523     		movs	r3, #21
 3717 0028 FB18     		adds	r3, r7, r3
 3718 002a 0022     		movs	r2, #0
 3719 002c 1A70     		strb	r2, [r3]
1130:Api\core\src/vl53l0x_api_calibration.c **** 	uint8_t PhaseCal = 0;
 3720              		.loc 1 1130 0
 3721 002e 1423     		movs	r3, #20
 3722 0030 FB18     		adds	r3, r7, r3
 3723 0032 0022     		movs	r2, #0
 3724 0034 1A70     		strb	r2, [r3]
1131:Api\core\src/vl53l0x_api_calibration.c **** 	uint8_t PhaseCalInt = 0;
 3725              		.loc 1 1131 0
 3726 0036 1323     		movs	r3, #19
 3727 0038 FB18     		adds	r3, r7, r3
 3728 003a 0022     		movs	r2, #0
 3729 003c 1A70     		strb	r2, [r3]
1132:Api\core\src/vl53l0x_api_calibration.c **** 
1133:Api\core\src/vl53l0x_api_calibration.c **** 	/* store the value of the sequence config,
1134:Api\core\src/vl53l0x_api_calibration.c **** 	 * this will be reset before the end of the function
1135:Api\core\src/vl53l0x_api_calibration.c **** 	 */
1136:Api\core\src/vl53l0x_api_calibration.c **** 
1137:Api\core\src/vl53l0x_api_calibration.c **** 	if (restore_config)
 3730              		.loc 1 1137 0
 3731 003e BB1D     		adds	r3, r7, #6
 3732 0040 1B78     		ldrb	r3, [r3]
 3733 0042 002B     		cmp	r3, #0
 3734 0044 06D0     		beq	.L170
1138:Api\core\src/vl53l0x_api_calibration.c **** 		SequenceConfig = PALDevDataGet(Dev, SequenceConfig);
 3735              		.loc 1 1138 0
 3736 0046 1623     		movs	r3, #22
 3737 0048 FB18     		adds	r3, r7, r3
 3738 004a F968     		ldr	r1, [r7, #12]
 3739 004c 9822     		movs	r2, #152
 3740 004e 5200     		lsls	r2, r2, #1
 3741 0050 8A5C     		ldrb	r2, [r1, r2]
 3742 0052 1A70     		strb	r2, [r3]
 3743              	.L170:
1139:Api\core\src/vl53l0x_api_calibration.c **** 
1140:Api\core\src/vl53l0x_api_calibration.c **** 	/* Run VHV */
1141:Api\core\src/vl53l0x_api_calibration.c **** 	Status = VL53L0X_WrByte(Dev, VL53L0X_REG_SYSTEM_SEQUENCE_CONFIG, 0x01);
 3744              		.loc 1 1141 0
 3745 0054 1723     		movs	r3, #23
 3746 0056 FC18     		adds	r4, r7, r3
 3747 0058 FB68     		ldr	r3, [r7, #12]
 3748 005a 0122     		movs	r2, #1
 3749 005c 0121     		movs	r1, #1
 3750 005e 1800     		movs	r0, r3
 3751 0060 FFF7FEFF 		bl	VL53L0X_WrByte
 3752 0064 0300     		movs	r3, r0
 3753 0066 2370     		strb	r3, [r4]
1142:Api\core\src/vl53l0x_api_calibration.c **** 
1143:Api\core\src/vl53l0x_api_calibration.c **** 	if (Status == VL53L0X_ERROR_NONE)
 3754              		.loc 1 1143 0
ARM GAS  C:\Users\ilya\AppData\Local\Temp\ccWKU7si.s 			page 88


 3755 0068 1723     		movs	r3, #23
 3756 006a FB18     		adds	r3, r7, r3
 3757 006c 1B78     		ldrb	r3, [r3]
 3758 006e 5BB2     		sxtb	r3, r3
 3759 0070 002B     		cmp	r3, #0
 3760 0072 08D1     		bne	.L171
1144:Api\core\src/vl53l0x_api_calibration.c **** 		Status = VL53L0X_perform_single_ref_calibration(Dev, 0x40);
 3761              		.loc 1 1144 0
 3762 0074 1723     		movs	r3, #23
 3763 0076 FC18     		adds	r4, r7, r3
 3764 0078 FB68     		ldr	r3, [r7, #12]
 3765 007a 4021     		movs	r1, #64
 3766 007c 1800     		movs	r0, r3
 3767 007e FFF7FEFF 		bl	VL53L0X_perform_single_ref_calibration
 3768 0082 0300     		movs	r3, r0
 3769 0084 2370     		strb	r3, [r4]
 3770              	.L171:
1145:Api\core\src/vl53l0x_api_calibration.c **** 
1146:Api\core\src/vl53l0x_api_calibration.c **** 	/* Read VHV from device */
1147:Api\core\src/vl53l0x_api_calibration.c **** 	if ((Status == VL53L0X_ERROR_NONE) && (get_data_enable == 1)) {
 3771              		.loc 1 1147 0
 3772 0086 1723     		movs	r3, #23
 3773 0088 FB18     		adds	r3, r7, r3
 3774 008a 1B78     		ldrb	r3, [r3]
 3775 008c 5BB2     		sxtb	r3, r3
 3776 008e 002B     		cmp	r3, #0
 3777 0090 1CD1     		bne	.L172
 3778              		.loc 1 1147 0 is_stmt 0 discriminator 1
 3779 0092 FB1D     		adds	r3, r7, #7
 3780 0094 1B78     		ldrb	r3, [r3]
 3781 0096 012B     		cmp	r3, #1
 3782 0098 18D1     		bne	.L172
1148:Api\core\src/vl53l0x_api_calibration.c **** 		Status = VL53L0X_ref_calibration_io(Dev, 1,
 3783              		.loc 1 1148 0 is_stmt 1
 3784 009a 1723     		movs	r3, #23
 3785 009c FC18     		adds	r4, r7, r3
 3786 009e 1423     		movs	r3, #20
 3787 00a0 FB18     		adds	r3, r7, r3
 3788 00a2 1978     		ldrb	r1, [r3]
 3789 00a4 1523     		movs	r3, #21
 3790 00a6 FB18     		adds	r3, r7, r3
 3791 00a8 1A78     		ldrb	r2, [r3]
 3792 00aa F868     		ldr	r0, [r7, #12]
 3793 00ac 0023     		movs	r3, #0
 3794 00ae 0393     		str	r3, [sp, #12]
 3795 00b0 0123     		movs	r3, #1
 3796 00b2 0293     		str	r3, [sp, #8]
 3797 00b4 1323     		movs	r3, #19
 3798 00b6 FB18     		adds	r3, r7, r3
 3799 00b8 0193     		str	r3, [sp, #4]
 3800 00ba BB68     		ldr	r3, [r7, #8]
 3801 00bc 0093     		str	r3, [sp]
 3802 00be 0B00     		movs	r3, r1
 3803 00c0 0121     		movs	r1, #1
 3804 00c2 FFF7FEFF 		bl	VL53L0X_ref_calibration_io
 3805 00c6 0300     		movs	r3, r0
 3806 00c8 2370     		strb	r3, [r4]
ARM GAS  C:\Users\ilya\AppData\Local\Temp\ccWKU7si.s 			page 89


 3807 00ca 02E0     		b	.L173
 3808              	.L172:
1149:Api\core\src/vl53l0x_api_calibration.c **** 			VhvSettings, PhaseCal, /* Not used here */
1150:Api\core\src/vl53l0x_api_calibration.c **** 			pVhvSettings, &PhaseCalInt,
1151:Api\core\src/vl53l0x_api_calibration.c **** 			1, 0);
1152:Api\core\src/vl53l0x_api_calibration.c **** 	} else
1153:Api\core\src/vl53l0x_api_calibration.c **** 		*pVhvSettings = 0;
 3809              		.loc 1 1153 0
 3810 00cc BB68     		ldr	r3, [r7, #8]
 3811 00ce 0022     		movs	r2, #0
 3812 00d0 1A70     		strb	r2, [r3]
 3813              	.L173:
1154:Api\core\src/vl53l0x_api_calibration.c **** 
1155:Api\core\src/vl53l0x_api_calibration.c **** 
1156:Api\core\src/vl53l0x_api_calibration.c **** 	if ((Status == VL53L0X_ERROR_NONE) && restore_config) {
 3814              		.loc 1 1156 0
 3815 00d2 1723     		movs	r3, #23
 3816 00d4 FB18     		adds	r3, r7, r3
 3817 00d6 1B78     		ldrb	r3, [r3]
 3818 00d8 5BB2     		sxtb	r3, r3
 3819 00da 002B     		cmp	r3, #0
 3820 00dc 1CD1     		bne	.L174
 3821              		.loc 1 1156 0 is_stmt 0 discriminator 1
 3822 00de BB1D     		adds	r3, r7, #6
 3823 00e0 1B78     		ldrb	r3, [r3]
 3824 00e2 002B     		cmp	r3, #0
 3825 00e4 18D0     		beq	.L174
1157:Api\core\src/vl53l0x_api_calibration.c **** 		/* restore the previous Sequence Config */
1158:Api\core\src/vl53l0x_api_calibration.c **** 		Status = VL53L0X_WrByte(Dev, VL53L0X_REG_SYSTEM_SEQUENCE_CONFIG,
 3826              		.loc 1 1158 0 is_stmt 1
 3827 00e6 1723     		movs	r3, #23
 3828 00e8 FC18     		adds	r4, r7, r3
 3829 00ea 1623     		movs	r3, #22
 3830 00ec FB18     		adds	r3, r7, r3
 3831 00ee 1A78     		ldrb	r2, [r3]
 3832 00f0 FB68     		ldr	r3, [r7, #12]
 3833 00f2 0121     		movs	r1, #1
 3834 00f4 1800     		movs	r0, r3
 3835 00f6 FFF7FEFF 		bl	VL53L0X_WrByte
 3836 00fa 0300     		movs	r3, r0
 3837 00fc 2370     		strb	r3, [r4]
1159:Api\core\src/vl53l0x_api_calibration.c **** 				SequenceConfig);
1160:Api\core\src/vl53l0x_api_calibration.c **** 		if (Status == VL53L0X_ERROR_NONE)
 3838              		.loc 1 1160 0
 3839 00fe 1723     		movs	r3, #23
 3840 0100 FB18     		adds	r3, r7, r3
 3841 0102 1B78     		ldrb	r3, [r3]
 3842 0104 5BB2     		sxtb	r3, r3
 3843 0106 002B     		cmp	r3, #0
 3844 0108 06D1     		bne	.L174
1161:Api\core\src/vl53l0x_api_calibration.c **** 			PALDevDataSet(Dev, SequenceConfig, SequenceConfig);
 3845              		.loc 1 1161 0
 3846 010a FA68     		ldr	r2, [r7, #12]
 3847 010c 1623     		movs	r3, #22
 3848 010e F918     		adds	r1, r7, r3
 3849 0110 9823     		movs	r3, #152
 3850 0112 5B00     		lsls	r3, r3, #1
ARM GAS  C:\Users\ilya\AppData\Local\Temp\ccWKU7si.s 			page 90


 3851 0114 0978     		ldrb	r1, [r1]
 3852 0116 D154     		strb	r1, [r2, r3]
 3853              	.L174:
1162:Api\core\src/vl53l0x_api_calibration.c **** 
1163:Api\core\src/vl53l0x_api_calibration.c **** 	}
1164:Api\core\src/vl53l0x_api_calibration.c **** 
1165:Api\core\src/vl53l0x_api_calibration.c **** 	return Status;
 3854              		.loc 1 1165 0
 3855 0118 1723     		movs	r3, #23
 3856 011a FB18     		adds	r3, r7, r3
 3857 011c 1B78     		ldrb	r3, [r3]
 3858 011e 5BB2     		sxtb	r3, r3
1166:Api\core\src/vl53l0x_api_calibration.c **** }
 3859              		.loc 1 1166 0
 3860 0120 1800     		movs	r0, r3
 3861 0122 BD46     		mov	sp, r7
 3862 0124 07B0     		add	sp, sp, #28
 3863              		@ sp needed
 3864 0126 90BD     		pop	{r4, r7, pc}
 3865              		.cfi_endproc
 3866              	.LFE19:
 3867              		.size	VL53L0X_perform_vhv_calibration, .-VL53L0X_perform_vhv_calibration
 3868              		.section	.text.VL53L0X_perform_phase_calibration,"ax",%progbits
 3869              		.align	2
 3870              		.global	VL53L0X_perform_phase_calibration
 3871              		.code	16
 3872              		.thumb_func
 3873              		.type	VL53L0X_perform_phase_calibration, %function
 3874              	VL53L0X_perform_phase_calibration:
 3875              	.LFB20:
1167:Api\core\src/vl53l0x_api_calibration.c **** 
1168:Api\core\src/vl53l0x_api_calibration.c **** VL53L0X_Error VL53L0X_perform_phase_calibration(VL53L0X_DEV Dev,
1169:Api\core\src/vl53l0x_api_calibration.c **** 	uint8_t *pPhaseCal, const uint8_t get_data_enable,
1170:Api\core\src/vl53l0x_api_calibration.c **** 	const uint8_t restore_config)
1171:Api\core\src/vl53l0x_api_calibration.c **** {
 3876              		.loc 1 1171 0
 3877              		.cfi_startproc
 3878              		@ args = 0, pretend = 0, frame = 24
 3879              		@ frame_needed = 1, uses_anonymous_args = 0
 3880 0000 90B5     		push	{r4, r7, lr}
 3881              		.cfi_def_cfa_offset 12
 3882              		.cfi_offset 4, -12
 3883              		.cfi_offset 7, -8
 3884              		.cfi_offset 14, -4
