ARM GAS  C:\Users\ilya\AppData\Local\Temp\ccWKU7si.s 			page 1


   1              		.syntax unified
   2              		.cpu cortex-m0
   3              		.fpu softvfp
   4              		.eabi_attribute 20, 1
   5              		.eabi_attribute 21, 1
   6              		.eabi_attribute 23, 3
   7              		.eabi_attribute 24, 1
   8              		.eabi_attribute 25, 1
   9              		.eabi_attribute 26, 1
  10              		.eabi_attribute 30, 6
  11              		.eabi_attribute 34, 0
  12              		.eabi_attribute 18, 4
  13              		.thumb
  14              		.syntax unified
  15              		.file	"vl53l0x_api_calibration.c"
  16              		.text
  17              	.Ltext0:
  18              		.cfi_sections	.debug_frame
  19              		.global	refArrayQuadrants
  20              		.data
  21              		.align	2
  22              		.type	refArrayQuadrants, %object
  23              		.size	refArrayQuadrants, 16
  24              	refArrayQuadrants:
  25 0000 0A000000 		.word	10
  26 0004 05000000 		.word	5
  27 0008 00000000 		.word	0
  28 000c 05000000 		.word	5
  29              		.global	__aeabi_uidiv
  30              		.section	.text.VL53L0X_perform_xtalk_calibration,"ax",%progbits
  31              		.align	2
  32              		.global	VL53L0X_perform_xtalk_calibration
  33              		.code	16
  34              		.thumb_func
  35              		.type	VL53L0X_perform_xtalk_calibration, %function
  36              	VL53L0X_perform_xtalk_calibration:
  37              	.LFB1:
  38              		.file 1 "Api\\core\\src\\vl53l0x_api_calibration.c"
   1:Api\core\src/vl53l0x_api_calibration.c **** /*******************************************************************************
   2:Api\core\src/vl53l0x_api_calibration.c ****  Copyright © 2016, STMicroelectronics International N.V.
   3:Api\core\src/vl53l0x_api_calibration.c ****  All rights reserved.
   4:Api\core\src/vl53l0x_api_calibration.c **** 
   5:Api\core\src/vl53l0x_api_calibration.c ****  Redistribution and use in source and binary forms, with or without
   6:Api\core\src/vl53l0x_api_calibration.c ****  modification, are permitted provided that the following conditions are met:
   7:Api\core\src/vl53l0x_api_calibration.c ****  * Redistributions of source code must retain the above copyright
   8:Api\core\src/vl53l0x_api_calibration.c ****  notice, this list of conditions and the following disclaimer.
   9:Api\core\src/vl53l0x_api_calibration.c ****  * Redistributions in binary form must reproduce the above copyright
  10:Api\core\src/vl53l0x_api_calibration.c ****  notice, this list of conditions and the following disclaimer in the
  11:Api\core\src/vl53l0x_api_calibration.c ****  documentation and/or other materials provided with the distribution.
  12:Api\core\src/vl53l0x_api_calibration.c ****  * Neither the name of STMicroelectronics nor the
  13:Api\core\src/vl53l0x_api_calibration.c ****  names of its contributors may be used to endorse or promote products
  14:Api\core\src/vl53l0x_api_calibration.c ****  derived from this software without specific prior written permission.
  15:Api\core\src/vl53l0x_api_calibration.c **** 
  16:Api\core\src/vl53l0x_api_calibration.c ****  THIS SOFTWARE IS PROVIDED BY THE COPYRIGHT HOLDERS AND CONTRIBUTORS "AS IS" AND
  17:Api\core\src/vl53l0x_api_calibration.c ****  ANY EXPRESS OR IMPLIED WARRANTIES, INCLUDING, BUT NOT LIMITED TO, THE IMPLIED
  18:Api\core\src/vl53l0x_api_calibration.c ****  WARRANTIES OF MERCHANTABILITY, FITNESS FOR A PARTICULAR PURPOSE, AND
  19:Api\core\src/vl53l0x_api_calibration.c ****  NON-INFRINGEMENT OF INTELLECTUAL PROPERTY RIGHTS ARE DISCLAIMED.
ARM GAS  C:\Users\ilya\AppData\Local\Temp\ccWKU7si.s 			page 2


  20:Api\core\src/vl53l0x_api_calibration.c ****  IN NO EVENT SHALL STMICROELECTRONICS INTERNATIONAL N.V. BE LIABLE FOR ANY
  21:Api\core\src/vl53l0x_api_calibration.c ****  DIRECT, INDIRECT, INCIDENTAL, SPECIAL, EXEMPLARY, OR CONSEQUENTIAL DAMAGES
  22:Api\core\src/vl53l0x_api_calibration.c ****  (INCLUDING, BUT NOT LIMITED TO, PROCUREMENT OF SUBSTITUTE GOODS OR SERVICES;
  23:Api\core\src/vl53l0x_api_calibration.c ****  LOSS OF USE, DATA, OR PROFITS; OR BUSINESS INTERRUPTION) HOWEVER CAUSED AND
  24:Api\core\src/vl53l0x_api_calibration.c ****  ON ANY THEORY OF LIABILITY, WHETHER IN CONTRACT, STRICT LIABILITY, OR TORT
  25:Api\core\src/vl53l0x_api_calibration.c ****  (INCLUDING NEGLIGENCE OR OTHERWISE) ARISING IN ANY WAY OUT OF THE USE OF THIS
  26:Api\core\src/vl53l0x_api_calibration.c ****  SOFTWARE, EVEN IF ADVISED OF THE POSSIBILITY OF SUCH DAMAGE.
  27:Api\core\src/vl53l0x_api_calibration.c ****  ******************************************************************************/
  28:Api\core\src/vl53l0x_api_calibration.c **** 
  29:Api\core\src/vl53l0x_api_calibration.c **** #include "vl53l0x_api.h"
  30:Api\core\src/vl53l0x_api_calibration.c **** #include "vl53l0x_api_core.h"
  31:Api\core\src/vl53l0x_api_calibration.c **** #include "vl53l0x_api_calibration.h"
  32:Api\core\src/vl53l0x_api_calibration.c **** 
  33:Api\core\src/vl53l0x_api_calibration.c **** #ifndef __KERNEL__
  34:Api\core\src/vl53l0x_api_calibration.c **** #include <stdlib.h>
  35:Api\core\src/vl53l0x_api_calibration.c **** #endif
  36:Api\core\src/vl53l0x_api_calibration.c **** 
  37:Api\core\src/vl53l0x_api_calibration.c **** #define LOG_FUNCTION_START(fmt, ...) \
  38:Api\core\src/vl53l0x_api_calibration.c **** 	_LOG_FUNCTION_START(TRACE_MODULE_API, fmt, ##__VA_ARGS__)
  39:Api\core\src/vl53l0x_api_calibration.c **** #define LOG_FUNCTION_END(status, ...) \
  40:Api\core\src/vl53l0x_api_calibration.c **** 	_LOG_FUNCTION_END(TRACE_MODULE_API, status, ##__VA_ARGS__)
  41:Api\core\src/vl53l0x_api_calibration.c **** #define LOG_FUNCTION_END_FMT(status, fmt, ...) \
  42:Api\core\src/vl53l0x_api_calibration.c **** 	_LOG_FUNCTION_END_FMT(TRACE_MODULE_API, status, fmt, ##__VA_ARGS__)
  43:Api\core\src/vl53l0x_api_calibration.c **** 
  44:Api\core\src/vl53l0x_api_calibration.c **** #define REF_ARRAY_SPAD_0  0
  45:Api\core\src/vl53l0x_api_calibration.c **** #define REF_ARRAY_SPAD_5  5
  46:Api\core\src/vl53l0x_api_calibration.c **** #define REF_ARRAY_SPAD_10 10
  47:Api\core\src/vl53l0x_api_calibration.c **** 
  48:Api\core\src/vl53l0x_api_calibration.c **** uint32_t refArrayQuadrants[4] = {REF_ARRAY_SPAD_10, REF_ARRAY_SPAD_5,
  49:Api\core\src/vl53l0x_api_calibration.c **** 		REF_ARRAY_SPAD_0, REF_ARRAY_SPAD_5 };
  50:Api\core\src/vl53l0x_api_calibration.c **** 
  51:Api\core\src/vl53l0x_api_calibration.c **** VL53L0X_Error VL53L0X_perform_xtalk_calibration(VL53L0X_DEV Dev,
  52:Api\core\src/vl53l0x_api_calibration.c **** 			FixPoint1616_t XTalkCalDistance,
  53:Api\core\src/vl53l0x_api_calibration.c **** 			FixPoint1616_t *pXTalkCompensationRateMegaCps)
  54:Api\core\src/vl53l0x_api_calibration.c **** {
  39              		.loc 1 54 0
  40              		.cfi_startproc
  41              		@ args = 0, pretend = 0, frame = 96
  42              		@ frame_needed = 1, uses_anonymous_args = 0
  43 0000 90B5     		push	{r4, r7, lr}
  44              		.cfi_def_cfa_offset 12
  45              		.cfi_offset 4, -12
  46              		.cfi_offset 7, -8
  47              		.cfi_offset 14, -4
  48 0002 99B0     		sub	sp, sp, #100
  49              		.cfi_def_cfa_offset 112
  50 0004 00AF     		add	r7, sp, #0
  51              		.cfi_def_cfa_register 7
  52 0006 F860     		str	r0, [r7, #12]
  53 0008 B960     		str	r1, [r7, #8]
  54 000a 7A60     		str	r2, [r7, #4]
  55:Api\core\src/vl53l0x_api_calibration.c **** 	VL53L0X_Error Status = VL53L0X_ERROR_NONE;
  55              		.loc 1 55 0
  56 000c 5F23     		movs	r3, #95
  57 000e FB18     		adds	r3, r7, r3
  58 0010 0022     		movs	r2, #0
  59 0012 1A70     		strb	r2, [r3]
ARM GAS  C:\Users\ilya\AppData\Local\Temp\ccWKU7si.s 			page 3


  56:Api\core\src/vl53l0x_api_calibration.c **** 	uint16_t sum_ranging = 0;
  60              		.loc 1 56 0
  61 0014 5C23     		movs	r3, #92
  62 0016 FB18     		adds	r3, r7, r3
  63 0018 0022     		movs	r2, #0
  64 001a 1A80     		strh	r2, [r3]
  57:Api\core\src/vl53l0x_api_calibration.c **** 	uint16_t sum_spads = 0;
  65              		.loc 1 57 0
  66 001c 5A23     		movs	r3, #90
  67 001e FB18     		adds	r3, r7, r3
  68 0020 0022     		movs	r2, #0
  69 0022 1A80     		strh	r2, [r3]
  58:Api\core\src/vl53l0x_api_calibration.c **** 	FixPoint1616_t sum_signalRate = 0;
  70              		.loc 1 58 0
  71 0024 0023     		movs	r3, #0
  72 0026 7B65     		str	r3, [r7, #84]
  59:Api\core\src/vl53l0x_api_calibration.c **** 	FixPoint1616_t total_count = 0;
  73              		.loc 1 59 0
  74 0028 0023     		movs	r3, #0
  75 002a 3B65     		str	r3, [r7, #80]
  60:Api\core\src/vl53l0x_api_calibration.c **** 	uint8_t xtalk_meas = 0;
  76              		.loc 1 60 0
  77 002c 4F23     		movs	r3, #79
  78 002e FB18     		adds	r3, r7, r3
  79 0030 0022     		movs	r2, #0
  80 0032 1A70     		strb	r2, [r3]
  61:Api\core\src/vl53l0x_api_calibration.c **** 	VL53L0X_RangingMeasurementData_t RangingMeasurementData;
  62:Api\core\src/vl53l0x_api_calibration.c **** 	FixPoint1616_t xTalkStoredMeanSignalRate;
  63:Api\core\src/vl53l0x_api_calibration.c **** 	FixPoint1616_t xTalkStoredMeanRange;
  64:Api\core\src/vl53l0x_api_calibration.c **** 	FixPoint1616_t xTalkStoredMeanRtnSpads;
  65:Api\core\src/vl53l0x_api_calibration.c **** 	uint32_t signalXTalkTotalPerSpad;
  66:Api\core\src/vl53l0x_api_calibration.c **** 	uint32_t xTalkStoredMeanRtnSpadsAsInt;
  67:Api\core\src/vl53l0x_api_calibration.c **** 	uint32_t xTalkCalDistanceAsInt;
  68:Api\core\src/vl53l0x_api_calibration.c **** 	FixPoint1616_t XTalkCompensationRateMegaCps;
  69:Api\core\src/vl53l0x_api_calibration.c **** 
  70:Api\core\src/vl53l0x_api_calibration.c **** 	if (XTalkCalDistance <= 0)
  81              		.loc 1 70 0
  82 0034 BB68     		ldr	r3, [r7, #8]
  83 0036 002B     		cmp	r3, #0
  84 0038 03D1     		bne	.L2
  71:Api\core\src/vl53l0x_api_calibration.c **** 		Status = VL53L0X_ERROR_INVALID_PARAMS;
  85              		.loc 1 71 0
  86 003a 5F23     		movs	r3, #95
  87 003c FB18     		adds	r3, r7, r3
  88 003e FC22     		movs	r2, #252
  89 0040 1A70     		strb	r2, [r3]
  90              	.L2:
  72:Api\core\src/vl53l0x_api_calibration.c **** 
  73:Api\core\src/vl53l0x_api_calibration.c **** 	/* Disable the XTalk compensation */
  74:Api\core\src/vl53l0x_api_calibration.c **** 	if (Status == VL53L0X_ERROR_NONE)
  91              		.loc 1 74 0
  92 0042 5F23     		movs	r3, #95
  93 0044 FB18     		adds	r3, r7, r3
  94 0046 1B78     		ldrb	r3, [r3]
  95 0048 5BB2     		sxtb	r3, r3
  96 004a 002B     		cmp	r3, #0
  97 004c 08D1     		bne	.L3
ARM GAS  C:\Users\ilya\AppData\Local\Temp\ccWKU7si.s 			page 4


  75:Api\core\src/vl53l0x_api_calibration.c **** 		Status = VL53L0X_SetXTalkCompensationEnable(Dev, 0);
  98              		.loc 1 75 0
  99 004e 5F23     		movs	r3, #95
 100 0050 FC18     		adds	r4, r7, r3
 101 0052 FB68     		ldr	r3, [r7, #12]
 102 0054 0021     		movs	r1, #0
 103 0056 1800     		movs	r0, r3
 104 0058 FFF7FEFF 		bl	VL53L0X_SetXTalkCompensationEnable
 105 005c 0300     		movs	r3, r0
 106 005e 2370     		strb	r3, [r4]
 107              	.L3:
  76:Api\core\src/vl53l0x_api_calibration.c **** 
  77:Api\core\src/vl53l0x_api_calibration.c **** 	/* Disable the RIT */
  78:Api\core\src/vl53l0x_api_calibration.c **** 	if (Status == VL53L0X_ERROR_NONE) {
 108              		.loc 1 78 0
 109 0060 5F23     		movs	r3, #95
 110 0062 FB18     		adds	r3, r7, r3
 111 0064 1B78     		ldrb	r3, [r3]
 112 0066 5BB2     		sxtb	r3, r3
 113 0068 002B     		cmp	r3, #0
 114 006a 09D1     		bne	.L4
  79:Api\core\src/vl53l0x_api_calibration.c **** 		Status = VL53L0X_SetLimitCheckEnable(Dev,
 115              		.loc 1 79 0
 116 006c 5F23     		movs	r3, #95
 117 006e FC18     		adds	r4, r7, r3
 118 0070 FB68     		ldr	r3, [r7, #12]
 119 0072 0022     		movs	r2, #0
 120 0074 0321     		movs	r1, #3
 121 0076 1800     		movs	r0, r3
 122 0078 FFF7FEFF 		bl	VL53L0X_SetLimitCheckEnable
 123 007c 0300     		movs	r3, r0
 124 007e 2370     		strb	r3, [r4]
 125              	.L4:
  80:Api\core\src/vl53l0x_api_calibration.c **** 				VL53L0X_CHECKENABLE_RANGE_IGNORE_THRESHOLD, 0);
  81:Api\core\src/vl53l0x_api_calibration.c **** 	}
  82:Api\core\src/vl53l0x_api_calibration.c **** 
  83:Api\core\src/vl53l0x_api_calibration.c **** 	/* Perform 50 measurements and compute the averages */
  84:Api\core\src/vl53l0x_api_calibration.c **** 	if (Status == VL53L0X_ERROR_NONE) {
 126              		.loc 1 84 0
 127 0080 5F23     		movs	r3, #95
 128 0082 FB18     		adds	r3, r7, r3
 129 0084 1B78     		ldrb	r3, [r3]
 130 0086 5BB2     		sxtb	r3, r3
 131 0088 002B     		cmp	r3, #0
 132 008a 5AD1     		bne	.L5
  85:Api\core\src/vl53l0x_api_calibration.c **** 		sum_ranging = 0;
 133              		.loc 1 85 0
 134 008c 5C23     		movs	r3, #92
 135 008e FB18     		adds	r3, r7, r3
 136 0090 0022     		movs	r2, #0
 137 0092 1A80     		strh	r2, [r3]
  86:Api\core\src/vl53l0x_api_calibration.c **** 		sum_spads = 0;
 138              		.loc 1 86 0
 139 0094 5A23     		movs	r3, #90
 140 0096 FB18     		adds	r3, r7, r3
 141 0098 0022     		movs	r2, #0
 142 009a 1A80     		strh	r2, [r3]
ARM GAS  C:\Users\ilya\AppData\Local\Temp\ccWKU7si.s 			page 5


  87:Api\core\src/vl53l0x_api_calibration.c **** 		sum_signalRate = 0;
 143              		.loc 1 87 0
 144 009c 0023     		movs	r3, #0
 145 009e 7B65     		str	r3, [r7, #84]
  88:Api\core\src/vl53l0x_api_calibration.c **** 		total_count = 0;
 146              		.loc 1 88 0
 147 00a0 0023     		movs	r3, #0
 148 00a2 3B65     		str	r3, [r7, #80]
  89:Api\core\src/vl53l0x_api_calibration.c **** 		for (xtalk_meas = 0; xtalk_meas < 50; xtalk_meas++) {
 149              		.loc 1 89 0
 150 00a4 4F23     		movs	r3, #79
 151 00a6 FB18     		adds	r3, r7, r3
 152 00a8 0022     		movs	r2, #0
 153 00aa 1A70     		strb	r2, [r3]
 154 00ac 3BE0     		b	.L6
 155              	.L10:
  90:Api\core\src/vl53l0x_api_calibration.c **** 			Status = VL53L0X_PerformSingleRangingMeasurement(Dev,
 156              		.loc 1 90 0
 157 00ae 5F23     		movs	r3, #95
 158 00b0 FC18     		adds	r4, r7, r3
 159 00b2 1423     		movs	r3, #20
 160 00b4 FA18     		adds	r2, r7, r3
 161 00b6 FB68     		ldr	r3, [r7, #12]
 162 00b8 1100     		movs	r1, r2
 163 00ba 1800     		movs	r0, r3
 164 00bc FFF7FEFF 		bl	VL53L0X_PerformSingleRangingMeasurement
 165 00c0 0300     		movs	r3, r0
 166 00c2 2370     		strb	r3, [r4]
  91:Api\core\src/vl53l0x_api_calibration.c **** 				&RangingMeasurementData);
  92:Api\core\src/vl53l0x_api_calibration.c **** 
  93:Api\core\src/vl53l0x_api_calibration.c **** 			if (Status != VL53L0X_ERROR_NONE)
 167              		.loc 1 93 0
 168 00c4 5F23     		movs	r3, #95
 169 00c6 FB18     		adds	r3, r7, r3
 170 00c8 1B78     		ldrb	r3, [r3]
 171 00ca 5BB2     		sxtb	r3, r3
 172 00cc 002B     		cmp	r3, #0
 173 00ce 30D1     		bne	.L17
  94:Api\core\src/vl53l0x_api_calibration.c **** 				break;
  95:Api\core\src/vl53l0x_api_calibration.c **** 
  96:Api\core\src/vl53l0x_api_calibration.c **** 			/* The range is valid when RangeStatus = 0 */
  97:Api\core\src/vl53l0x_api_calibration.c **** 			if (RangingMeasurementData.RangeStatus == 0) {
 174              		.loc 1 97 0
 175 00d0 1423     		movs	r3, #20
 176 00d2 FB18     		adds	r3, r7, r3
 177 00d4 1B7E     		ldrb	r3, [r3, #24]
 178 00d6 002B     		cmp	r3, #0
 179 00d8 1ED1     		bne	.L9
  98:Api\core\src/vl53l0x_api_calibration.c **** 				sum_ranging = sum_ranging +
  99:Api\core\src/vl53l0x_api_calibration.c **** 					RangingMeasurementData.RangeMilliMeter;
 180              		.loc 1 99 0
 181 00da 1423     		movs	r3, #20
 182 00dc FB18     		adds	r3, r7, r3
 183 00de 1989     		ldrh	r1, [r3, #8]
  98:Api\core\src/vl53l0x_api_calibration.c **** 				sum_ranging = sum_ranging +
 184              		.loc 1 98 0
 185 00e0 5C23     		movs	r3, #92
ARM GAS  C:\Users\ilya\AppData\Local\Temp\ccWKU7si.s 			page 6


 186 00e2 FB18     		adds	r3, r7, r3
 187 00e4 5C22     		movs	r2, #92
 188 00e6 BA18     		adds	r2, r7, r2
 189 00e8 1288     		ldrh	r2, [r2]
 190 00ea 8A18     		adds	r2, r1, r2
 191 00ec 1A80     		strh	r2, [r3]
 100:Api\core\src/vl53l0x_api_calibration.c **** 				sum_signalRate = sum_signalRate +
 101:Api\core\src/vl53l0x_api_calibration.c **** 				RangingMeasurementData.SignalRateRtnMegaCps;
 192              		.loc 1 101 0
 193 00ee 1423     		movs	r3, #20
 194 00f0 FB18     		adds	r3, r7, r3
 195 00f2 DB68     		ldr	r3, [r3, #12]
 100:Api\core\src/vl53l0x_api_calibration.c **** 				sum_signalRate = sum_signalRate +
 196              		.loc 1 100 0
 197 00f4 7A6D     		ldr	r2, [r7, #84]
 198 00f6 D318     		adds	r3, r2, r3
 199 00f8 7B65     		str	r3, [r7, #84]
 102:Api\core\src/vl53l0x_api_calibration.c **** 				sum_spads = sum_spads +
 103:Api\core\src/vl53l0x_api_calibration.c **** 				RangingMeasurementData.EffectiveSpadRtnCount
 200              		.loc 1 103 0
 201 00fa 1423     		movs	r3, #20
 202 00fc FB18     		adds	r3, r7, r3
 203 00fe 9B8A     		ldrh	r3, [r3, #20]
 102:Api\core\src/vl53l0x_api_calibration.c **** 				sum_spads = sum_spads +
 204              		.loc 1 102 0
 205 0100 1B0A     		lsrs	r3, r3, #8
 206 0102 99B2     		uxth	r1, r3
 207 0104 5A23     		movs	r3, #90
 208 0106 FB18     		adds	r3, r7, r3
 209 0108 5A22     		movs	r2, #90
 210 010a BA18     		adds	r2, r7, r2
 211 010c 1288     		ldrh	r2, [r2]
 212 010e 8A18     		adds	r2, r1, r2
 213 0110 1A80     		strh	r2, [r3]
 104:Api\core\src/vl53l0x_api_calibration.c **** 					/ 256;
 105:Api\core\src/vl53l0x_api_calibration.c **** 				total_count = total_count + 1;
 214              		.loc 1 105 0
 215 0112 3B6D     		ldr	r3, [r7, #80]
 216 0114 0133     		adds	r3, r3, #1
 217 0116 3B65     		str	r3, [r7, #80]
 218              	.L9:
  89:Api\core\src/vl53l0x_api_calibration.c **** 			Status = VL53L0X_PerformSingleRangingMeasurement(Dev,
 219              		.loc 1 89 0 discriminator 2
 220 0118 4F23     		movs	r3, #79
 221 011a FB18     		adds	r3, r7, r3
 222 011c 1A78     		ldrb	r2, [r3]
 223 011e 4F23     		movs	r3, #79
 224 0120 FB18     		adds	r3, r7, r3
 225 0122 0132     		adds	r2, r2, #1
 226 0124 1A70     		strb	r2, [r3]
 227              	.L6:
  89:Api\core\src/vl53l0x_api_calibration.c **** 			Status = VL53L0X_PerformSingleRangingMeasurement(Dev,
 228              		.loc 1 89 0 is_stmt 0 discriminator 1
 229 0126 4F23     		movs	r3, #79
 230 0128 FB18     		adds	r3, r7, r3
 231 012a 1B78     		ldrb	r3, [r3]
 232 012c 312B     		cmp	r3, #49
ARM GAS  C:\Users\ilya\AppData\Local\Temp\ccWKU7si.s 			page 7


 233 012e BED9     		bls	.L10
 234 0130 00E0     		b	.L8
 235              	.L17:
  94:Api\core\src/vl53l0x_api_calibration.c **** 
 236              		.loc 1 94 0 is_stmt 1
 237 0132 C046     		nop
 238              	.L8:
 106:Api\core\src/vl53l0x_api_calibration.c **** 			}
 107:Api\core\src/vl53l0x_api_calibration.c **** 		}
 108:Api\core\src/vl53l0x_api_calibration.c **** 
 109:Api\core\src/vl53l0x_api_calibration.c **** 		/* no valid values found */
 110:Api\core\src/vl53l0x_api_calibration.c **** 		if (total_count == 0)
 239              		.loc 1 110 0
 240 0134 3B6D     		ldr	r3, [r7, #80]
 241 0136 002B     		cmp	r3, #0
 242 0138 03D1     		bne	.L5
 111:Api\core\src/vl53l0x_api_calibration.c **** 			Status = VL53L0X_ERROR_RANGE_ERROR;
 243              		.loc 1 111 0
 244 013a 5F23     		movs	r3, #95
 245 013c FB18     		adds	r3, r7, r3
 246 013e FA22     		movs	r2, #250
 247 0140 1A70     		strb	r2, [r3]
 248              	.L5:
 112:Api\core\src/vl53l0x_api_calibration.c **** 
 113:Api\core\src/vl53l0x_api_calibration.c **** 	}
 114:Api\core\src/vl53l0x_api_calibration.c **** 
 115:Api\core\src/vl53l0x_api_calibration.c **** 
 116:Api\core\src/vl53l0x_api_calibration.c **** 	if (Status == VL53L0X_ERROR_NONE) {
 249              		.loc 1 116 0
 250 0142 5F23     		movs	r3, #95
 251 0144 FB18     		adds	r3, r7, r3
 252 0146 1B78     		ldrb	r3, [r3]
 253 0148 5BB2     		sxtb	r3, r3
 254 014a 002B     		cmp	r3, #0
 255 014c 00D0     		beq	.LCB193
 256 014e 76E0     		b	.L11	@long jump
 257              	.LCB193:
 117:Api\core\src/vl53l0x_api_calibration.c **** 		/* FixPoint1616_t / uint16_t = FixPoint1616_t */
 118:Api\core\src/vl53l0x_api_calibration.c **** 		xTalkStoredMeanSignalRate = sum_signalRate / total_count;
 258              		.loc 1 118 0
 259 0150 396D     		ldr	r1, [r7, #80]
 260 0152 786D     		ldr	r0, [r7, #84]
 261 0154 FFF7FEFF 		bl	__aeabi_uidiv
 262 0158 0300     		movs	r3, r0
 263 015a 7B64     		str	r3, [r7, #68]
 119:Api\core\src/vl53l0x_api_calibration.c **** 		xTalkStoredMeanRange = (FixPoint1616_t)((uint32_t)(
 120:Api\core\src/vl53l0x_api_calibration.c **** 			sum_ranging << 16) / total_count);
 264              		.loc 1 120 0
 265 015c 5C23     		movs	r3, #92
 266 015e FB18     		adds	r3, r7, r3
 267 0160 1B88     		ldrh	r3, [r3]
 268 0162 1B04     		lsls	r3, r3, #16
 119:Api\core\src/vl53l0x_api_calibration.c **** 		xTalkStoredMeanRange = (FixPoint1616_t)((uint32_t)(
 269              		.loc 1 119 0
 270 0164 396D     		ldr	r1, [r7, #80]
 271 0166 1800     		movs	r0, r3
 272 0168 FFF7FEFF 		bl	__aeabi_uidiv
ARM GAS  C:\Users\ilya\AppData\Local\Temp\ccWKU7si.s 			page 8


 273 016c 0300     		movs	r3, r0
 274 016e 3B64     		str	r3, [r7, #64]
 121:Api\core\src/vl53l0x_api_calibration.c **** 		xTalkStoredMeanRtnSpads = (FixPoint1616_t)((uint32_t)(
 122:Api\core\src/vl53l0x_api_calibration.c **** 			sum_spads << 16) / total_count);
 275              		.loc 1 122 0
 276 0170 5A23     		movs	r3, #90
 277 0172 FB18     		adds	r3, r7, r3
 278 0174 1B88     		ldrh	r3, [r3]
 279 0176 1B04     		lsls	r3, r3, #16
 121:Api\core\src/vl53l0x_api_calibration.c **** 		xTalkStoredMeanRtnSpads = (FixPoint1616_t)((uint32_t)(
 280              		.loc 1 121 0
 281 0178 396D     		ldr	r1, [r7, #80]
 282 017a 1800     		movs	r0, r3
 283 017c FFF7FEFF 		bl	__aeabi_uidiv
 284 0180 0300     		movs	r3, r0
 285 0182 FB63     		str	r3, [r7, #60]
 123:Api\core\src/vl53l0x_api_calibration.c **** 
 124:Api\core\src/vl53l0x_api_calibration.c **** 		/* Round Mean Spads to Whole Number.
 125:Api\core\src/vl53l0x_api_calibration.c **** 		 * Typically the calculated mean SPAD count is a whole number
 126:Api\core\src/vl53l0x_api_calibration.c **** 		 * or very close to a whole
 127:Api\core\src/vl53l0x_api_calibration.c **** 		 * number, therefore any truncation will not result in a
 128:Api\core\src/vl53l0x_api_calibration.c **** 		 * significant loss in accuracy.
 129:Api\core\src/vl53l0x_api_calibration.c **** 		 * Also, for a grey target at a typical distance of around
 130:Api\core\src/vl53l0x_api_calibration.c **** 		 * 400mm, around 220 SPADs will
 131:Api\core\src/vl53l0x_api_calibration.c **** 		 * be enabled, therefore, any truncation will result in a loss
 132:Api\core\src/vl53l0x_api_calibration.c **** 		 * of accuracy of less than
 133:Api\core\src/vl53l0x_api_calibration.c **** 		 * 0.5%.
 134:Api\core\src/vl53l0x_api_calibration.c **** 		 */
 135:Api\core\src/vl53l0x_api_calibration.c **** 		xTalkStoredMeanRtnSpadsAsInt = (xTalkStoredMeanRtnSpads +
 286              		.loc 1 135 0
 287 0184 FB6B     		ldr	r3, [r7, #60]
 288 0186 8022     		movs	r2, #128
 289 0188 1202     		lsls	r2, r2, #8
 290 018a 9446     		mov	ip, r2
 291 018c 6344     		add	r3, r3, ip
 292 018e 1B0C     		lsrs	r3, r3, #16
 293 0190 BB63     		str	r3, [r7, #56]
 136:Api\core\src/vl53l0x_api_calibration.c **** 			0x8000) >> 16;
 137:Api\core\src/vl53l0x_api_calibration.c **** 
 138:Api\core\src/vl53l0x_api_calibration.c **** 		/* Round Cal Distance to Whole Number.
 139:Api\core\src/vl53l0x_api_calibration.c **** 		 * Note that the cal distance is in mm, therefore no resolution
 140:Api\core\src/vl53l0x_api_calibration.c **** 		 * is lost.*/
 141:Api\core\src/vl53l0x_api_calibration.c **** 		 xTalkCalDistanceAsInt = (XTalkCalDistance + 0x8000) >> 16;
 294              		.loc 1 141 0
 295 0192 BB68     		ldr	r3, [r7, #8]
 296 0194 8022     		movs	r2, #128
 297 0196 1202     		lsls	r2, r2, #8
 298 0198 9446     		mov	ip, r2
 299 019a 6344     		add	r3, r3, ip
 300 019c 1B0C     		lsrs	r3, r3, #16
 301 019e 7B63     		str	r3, [r7, #52]
 142:Api\core\src/vl53l0x_api_calibration.c **** 
 143:Api\core\src/vl53l0x_api_calibration.c **** 		if (xTalkStoredMeanRtnSpadsAsInt == 0 ||
 302              		.loc 1 143 0
 303 01a0 BB6B     		ldr	r3, [r7, #56]
 304 01a2 002B     		cmp	r3, #0
 305 01a4 06D0     		beq	.L12
ARM GAS  C:\Users\ilya\AppData\Local\Temp\ccWKU7si.s 			page 9


 306              		.loc 1 143 0 is_stmt 0 discriminator 1
 307 01a6 7B6B     		ldr	r3, [r7, #52]
 308 01a8 002B     		cmp	r3, #0
 309 01aa 03D0     		beq	.L12
 144:Api\core\src/vl53l0x_api_calibration.c **** 		   xTalkCalDistanceAsInt == 0 ||
 310              		.loc 1 144 0 is_stmt 1
 311 01ac 3A6C     		ldr	r2, [r7, #64]
 312 01ae BB68     		ldr	r3, [r7, #8]
 313 01b0 9A42     		cmp	r2, r3
 314 01b2 02D3     		bcc	.L13
 315              	.L12:
 145:Api\core\src/vl53l0x_api_calibration.c **** 		   xTalkStoredMeanRange >= XTalkCalDistance) {
 146:Api\core\src/vl53l0x_api_calibration.c **** 			XTalkCompensationRateMegaCps = 0;
 316              		.loc 1 146 0
 317 01b4 0023     		movs	r3, #0
 318 01b6 BB64     		str	r3, [r7, #72]
 319 01b8 1FE0     		b	.L14
 320              	.L13:
 147:Api\core\src/vl53l0x_api_calibration.c **** 		} else {
 148:Api\core\src/vl53l0x_api_calibration.c **** 			/* Round Cal Distance to Whole Number.
 149:Api\core\src/vl53l0x_api_calibration.c **** 			   Note that the cal distance is in mm, therefore no
 150:Api\core\src/vl53l0x_api_calibration.c **** 			   resolution is lost.*/
 151:Api\core\src/vl53l0x_api_calibration.c **** 			xTalkCalDistanceAsInt = (XTalkCalDistance +
 321              		.loc 1 151 0
 322 01ba BB68     		ldr	r3, [r7, #8]
 323 01bc 8022     		movs	r2, #128
 324 01be 1202     		lsls	r2, r2, #8
 325 01c0 9446     		mov	ip, r2
 326 01c2 6344     		add	r3, r3, ip
 327 01c4 1B0C     		lsrs	r3, r3, #16
 328 01c6 7B63     		str	r3, [r7, #52]
 152:Api\core\src/vl53l0x_api_calibration.c **** 				0x8000) >> 16;
 153:Api\core\src/vl53l0x_api_calibration.c **** 
 154:Api\core\src/vl53l0x_api_calibration.c **** 			/* Apply division by mean spad count early in the
 155:Api\core\src/vl53l0x_api_calibration.c **** 			 * calculation to keep the numbers small.
 156:Api\core\src/vl53l0x_api_calibration.c **** 			 * This ensures we can maintain a 32bit calculation.
 157:Api\core\src/vl53l0x_api_calibration.c **** 			 * Fixed1616 / int := Fixed1616 */
 158:Api\core\src/vl53l0x_api_calibration.c **** 			signalXTalkTotalPerSpad = (xTalkStoredMeanSignalRate) /
 329              		.loc 1 158 0
 330 01c8 B96B     		ldr	r1, [r7, #56]
 331 01ca 786C     		ldr	r0, [r7, #68]
 332 01cc FFF7FEFF 		bl	__aeabi_uidiv
 333 01d0 0300     		movs	r3, r0
 334 01d2 3B63     		str	r3, [r7, #48]
 159:Api\core\src/vl53l0x_api_calibration.c **** 				xTalkStoredMeanRtnSpadsAsInt;
 160:Api\core\src/vl53l0x_api_calibration.c **** 
 161:Api\core\src/vl53l0x_api_calibration.c **** 			/* Complete the calculation for total Signal XTalk per
 162:Api\core\src/vl53l0x_api_calibration.c **** 			 * SPAD
 163:Api\core\src/vl53l0x_api_calibration.c **** 			 * Fixed1616 * (Fixed1616 - Fixed1616/int) :=
 164:Api\core\src/vl53l0x_api_calibration.c **** 			 * (2^16 * Fixed1616)
 165:Api\core\src/vl53l0x_api_calibration.c **** 			 */
 166:Api\core\src/vl53l0x_api_calibration.c **** 			signalXTalkTotalPerSpad *= ((1 << 16) -
 167:Api\core\src/vl53l0x_api_calibration.c **** 				(xTalkStoredMeanRange / xTalkCalDistanceAsInt));
 335              		.loc 1 167 0
 336 01d4 796B     		ldr	r1, [r7, #52]
 337 01d6 386C     		ldr	r0, [r7, #64]
 338 01d8 FFF7FEFF 		bl	__aeabi_uidiv
ARM GAS  C:\Users\ilya\AppData\Local\Temp\ccWKU7si.s 			page 10


 339 01dc 0300     		movs	r3, r0
 340 01de 1A00     		movs	r2, r3
 166:Api\core\src/vl53l0x_api_calibration.c **** 				(xTalkStoredMeanRange / xTalkCalDistanceAsInt));
 341              		.loc 1 166 0
 342 01e0 8023     		movs	r3, #128
 343 01e2 5B02     		lsls	r3, r3, #9
 344 01e4 9A1A     		subs	r2, r3, r2
 345 01e6 3B6B     		ldr	r3, [r7, #48]
 346 01e8 5343     		muls	r3, r2
 347 01ea 3B63     		str	r3, [r7, #48]
 168:Api\core\src/vl53l0x_api_calibration.c **** 
 169:Api\core\src/vl53l0x_api_calibration.c **** 			/* Round from 2^16 * Fixed1616, to Fixed1616. */
 170:Api\core\src/vl53l0x_api_calibration.c **** 			XTalkCompensationRateMegaCps = (signalXTalkTotalPerSpad
 171:Api\core\src/vl53l0x_api_calibration.c **** 				+ 0x8000) >> 16;
 348              		.loc 1 171 0
 349 01ec 3B6B     		ldr	r3, [r7, #48]
 350 01ee 8022     		movs	r2, #128
 351 01f0 1202     		lsls	r2, r2, #8
 352 01f2 9446     		mov	ip, r2
 353 01f4 6344     		add	r3, r3, ip
 170:Api\core\src/vl53l0x_api_calibration.c **** 				+ 0x8000) >> 16;
 354              		.loc 1 170 0
 355 01f6 1B0C     		lsrs	r3, r3, #16
 356 01f8 BB64     		str	r3, [r7, #72]
 357              	.L14:
 172:Api\core\src/vl53l0x_api_calibration.c **** 		}
 173:Api\core\src/vl53l0x_api_calibration.c **** 
 174:Api\core\src/vl53l0x_api_calibration.c **** 		*pXTalkCompensationRateMegaCps = XTalkCompensationRateMegaCps;
 358              		.loc 1 174 0
 359 01fa 7B68     		ldr	r3, [r7, #4]
 360 01fc BA6C     		ldr	r2, [r7, #72]
 361 01fe 1A60     		str	r2, [r3]
 175:Api\core\src/vl53l0x_api_calibration.c **** 
 176:Api\core\src/vl53l0x_api_calibration.c **** 		/* Enable the XTalk compensation */
 177:Api\core\src/vl53l0x_api_calibration.c **** 		if (Status == VL53L0X_ERROR_NONE)
 362              		.loc 1 177 0
 363 0200 5F23     		movs	r3, #95
 364 0202 FB18     		adds	r3, r7, r3
 365 0204 1B78     		ldrb	r3, [r3]
 366 0206 5BB2     		sxtb	r3, r3
 367 0208 002B     		cmp	r3, #0
 368 020a 08D1     		bne	.L15
 178:Api\core\src/vl53l0x_api_calibration.c **** 			Status = VL53L0X_SetXTalkCompensationEnable(Dev, 1);
 369              		.loc 1 178 0
 370 020c 5F23     		movs	r3, #95
 371 020e FC18     		adds	r4, r7, r3
 372 0210 FB68     		ldr	r3, [r7, #12]
 373 0212 0121     		movs	r1, #1
 374 0214 1800     		movs	r0, r3
 375 0216 FFF7FEFF 		bl	VL53L0X_SetXTalkCompensationEnable
 376 021a 0300     		movs	r3, r0
 377 021c 2370     		strb	r3, [r4]
 378              	.L15:
 179:Api\core\src/vl53l0x_api_calibration.c **** 
 180:Api\core\src/vl53l0x_api_calibration.c **** 		/* Enable the XTalk compensation */
 181:Api\core\src/vl53l0x_api_calibration.c **** 		if (Status == VL53L0X_ERROR_NONE)
 379              		.loc 1 181 0
ARM GAS  C:\Users\ilya\AppData\Local\Temp\ccWKU7si.s 			page 11


 380 021e 5F23     		movs	r3, #95
 381 0220 FB18     		adds	r3, r7, r3
 382 0222 1B78     		ldrb	r3, [r3]
 383 0224 5BB2     		sxtb	r3, r3
 384 0226 002B     		cmp	r3, #0
 385 0228 09D1     		bne	.L11
 182:Api\core\src/vl53l0x_api_calibration.c **** 			Status = VL53L0X_SetXTalkCompensationRateMegaCps(Dev,
 386              		.loc 1 182 0
 387 022a 5F23     		movs	r3, #95
 388 022c FC18     		adds	r4, r7, r3
 389 022e BA6C     		ldr	r2, [r7, #72]
 390 0230 FB68     		ldr	r3, [r7, #12]
 391 0232 1100     		movs	r1, r2
 392 0234 1800     		movs	r0, r3
 393 0236 FFF7FEFF 		bl	VL53L0X_SetXTalkCompensationRateMegaCps
 394 023a 0300     		movs	r3, r0
 395 023c 2370     		strb	r3, [r4]
 396              	.L11:
 183:Api\core\src/vl53l0x_api_calibration.c **** 					XTalkCompensationRateMegaCps);
 184:Api\core\src/vl53l0x_api_calibration.c **** 
 185:Api\core\src/vl53l0x_api_calibration.c **** 	}
 186:Api\core\src/vl53l0x_api_calibration.c **** 
 187:Api\core\src/vl53l0x_api_calibration.c **** 	return Status;
 397              		.loc 1 187 0
 398 023e 5F23     		movs	r3, #95
 399 0240 FB18     		adds	r3, r7, r3
 400 0242 1B78     		ldrb	r3, [r3]
 401 0244 5BB2     		sxtb	r3, r3
 188:Api\core\src/vl53l0x_api_calibration.c **** }
 402              		.loc 1 188 0
 403 0246 1800     		movs	r0, r3
 404 0248 BD46     		mov	sp, r7
 405 024a 19B0     		add	sp, sp, #100
 406              		@ sp needed
 407 024c 90BD     		pop	{r4, r7, pc}
 408              		.cfi_endproc
 409              	.LFE1:
 410              		.size	VL53L0X_perform_xtalk_calibration, .-VL53L0X_perform_xtalk_calibration
 411 024e C046     		.section	.text.VL53L0X_perform_offset_calibration,"ax",%progbits
 412              		.align	2
 413              		.global	VL53L0X_perform_offset_calibration
 414              		.code	16
 415              		.thumb_func
 416              		.type	VL53L0X_perform_offset_calibration, %function
 417              	VL53L0X_perform_offset_calibration:
 418              	.LFB2:
 189:Api\core\src/vl53l0x_api_calibration.c **** 
 190:Api\core\src/vl53l0x_api_calibration.c **** VL53L0X_Error VL53L0X_perform_offset_calibration(VL53L0X_DEV Dev,
 191:Api\core\src/vl53l0x_api_calibration.c **** 			FixPoint1616_t CalDistanceMilliMeter,
 192:Api\core\src/vl53l0x_api_calibration.c **** 			int32_t *pOffsetMicroMeter)
 193:Api\core\src/vl53l0x_api_calibration.c **** {
 419              		.loc 1 193 0
 420              		.cfi_startproc
 421              		@ args = 0, pretend = 0, frame = 72
 422              		@ frame_needed = 1, uses_anonymous_args = 0
 423 0000 90B5     		push	{r4, r7, lr}
 424              		.cfi_def_cfa_offset 12
ARM GAS  C:\Users\ilya\AppData\Local\Temp\ccWKU7si.s 			page 12


 425              		.cfi_offset 4, -12
 426              		.cfi_offset 7, -8
 427              		.cfi_offset 14, -4
 428 0002 93B0     		sub	sp, sp, #76
 429              		.cfi_def_cfa_offset 88
 430 0004 00AF     		add	r7, sp, #0
 431              		.cfi_def_cfa_register 7
 432 0006 F860     		str	r0, [r7, #12]
 433 0008 B960     		str	r1, [r7, #8]
 434 000a 7A60     		str	r2, [r7, #4]
 194:Api\core\src/vl53l0x_api_calibration.c **** 	VL53L0X_Error Status = VL53L0X_ERROR_NONE;
 435              		.loc 1 194 0
 436 000c 4723     		movs	r3, #71
 437 000e FB18     		adds	r3, r7, r3
 438 0010 0022     		movs	r2, #0
 439 0012 1A70     		strb	r2, [r3]
 195:Api\core\src/vl53l0x_api_calibration.c **** 	uint16_t sum_ranging = 0;
 440              		.loc 1 195 0
 441 0014 4423     		movs	r3, #68
 442 0016 FB18     		adds	r3, r7, r3
 443 0018 0022     		movs	r2, #0
 444 001a 1A80     		strh	r2, [r3]
 196:Api\core\src/vl53l0x_api_calibration.c **** 	FixPoint1616_t total_count = 0;
 445              		.loc 1 196 0
 446 001c 0023     		movs	r3, #0
 447 001e 3B64     		str	r3, [r7, #64]
 197:Api\core\src/vl53l0x_api_calibration.c **** 	VL53L0X_RangingMeasurementData_t RangingMeasurementData;
 198:Api\core\src/vl53l0x_api_calibration.c **** 	FixPoint1616_t StoredMeanRange;
 199:Api\core\src/vl53l0x_api_calibration.c **** 	uint32_t StoredMeanRangeAsInt;
 200:Api\core\src/vl53l0x_api_calibration.c **** 	uint32_t CalDistanceAsInt_mm;
 201:Api\core\src/vl53l0x_api_calibration.c **** 	uint8_t SequenceStepEnabled;
 202:Api\core\src/vl53l0x_api_calibration.c **** 	int meas = 0;
 448              		.loc 1 202 0
 449 0020 0023     		movs	r3, #0
 450 0022 FB63     		str	r3, [r7, #60]
 203:Api\core\src/vl53l0x_api_calibration.c **** 
 204:Api\core\src/vl53l0x_api_calibration.c **** 	if (CalDistanceMilliMeter <= 0)
 451              		.loc 1 204 0
 452 0024 BB68     		ldr	r3, [r7, #8]
 453 0026 002B     		cmp	r3, #0
 454 0028 03D1     		bne	.L19
 205:Api\core\src/vl53l0x_api_calibration.c **** 		Status = VL53L0X_ERROR_INVALID_PARAMS;
 455              		.loc 1 205 0
 456 002a 4723     		movs	r3, #71
 457 002c FB18     		adds	r3, r7, r3
 458 002e FC22     		movs	r2, #252
 459 0030 1A70     		strb	r2, [r3]
 460              	.L19:
 206:Api\core\src/vl53l0x_api_calibration.c **** 
 207:Api\core\src/vl53l0x_api_calibration.c **** 	if (Status == VL53L0X_ERROR_NONE)
 461              		.loc 1 207 0
 462 0032 4723     		movs	r3, #71
 463 0034 FB18     		adds	r3, r7, r3
 464 0036 1B78     		ldrb	r3, [r3]
 465 0038 5BB2     		sxtb	r3, r3
 466 003a 002B     		cmp	r3, #0
 467 003c 08D1     		bne	.L20
ARM GAS  C:\Users\ilya\AppData\Local\Temp\ccWKU7si.s 			page 13


 208:Api\core\src/vl53l0x_api_calibration.c **** 		Status = VL53L0X_SetOffsetCalibrationDataMicroMeter(Dev, 0);
 468              		.loc 1 208 0
 469 003e 4723     		movs	r3, #71
 470 0040 FC18     		adds	r4, r7, r3
 471 0042 FB68     		ldr	r3, [r7, #12]
 472 0044 0021     		movs	r1, #0
 473 0046 1800     		movs	r0, r3
 474 0048 FFF7FEFF 		bl	VL53L0X_SetOffsetCalibrationDataMicroMeter
 475 004c 0300     		movs	r3, r0
 476 004e 2370     		strb	r3, [r4]
 477              	.L20:
 209:Api\core\src/vl53l0x_api_calibration.c **** 
 210:Api\core\src/vl53l0x_api_calibration.c **** 
 211:Api\core\src/vl53l0x_api_calibration.c **** 	/* Get the value of the TCC */
 212:Api\core\src/vl53l0x_api_calibration.c **** 	if (Status == VL53L0X_ERROR_NONE)
 478              		.loc 1 212 0
 479 0050 4723     		movs	r3, #71
 480 0052 FB18     		adds	r3, r7, r3
 481 0054 1B78     		ldrb	r3, [r3]
 482 0056 5BB2     		sxtb	r3, r3
 483 0058 002B     		cmp	r3, #0
 484 005a 0AD1     		bne	.L21
 213:Api\core\src/vl53l0x_api_calibration.c **** 		Status = VL53L0X_GetSequenceStepEnable(Dev,
 485              		.loc 1 213 0
 486 005c 4723     		movs	r3, #71
 487 005e FC18     		adds	r4, r7, r3
 488 0060 1323     		movs	r3, #19
 489 0062 FA18     		adds	r2, r7, r3
 490 0064 FB68     		ldr	r3, [r7, #12]
 491 0066 0021     		movs	r1, #0
 492 0068 1800     		movs	r0, r3
 493 006a FFF7FEFF 		bl	VL53L0X_GetSequenceStepEnable
 494 006e 0300     		movs	r3, r0
 495 0070 2370     		strb	r3, [r4]
 496              	.L21:
 214:Api\core\src/vl53l0x_api_calibration.c **** 				VL53L0X_SEQUENCESTEP_TCC, &SequenceStepEnabled);
 215:Api\core\src/vl53l0x_api_calibration.c **** 
 216:Api\core\src/vl53l0x_api_calibration.c **** 
 217:Api\core\src/vl53l0x_api_calibration.c **** 	/* Disable the TCC */
 218:Api\core\src/vl53l0x_api_calibration.c **** 	if (Status == VL53L0X_ERROR_NONE)
 497              		.loc 1 218 0
 498 0072 4723     		movs	r3, #71
 499 0074 FB18     		adds	r3, r7, r3
 500 0076 1B78     		ldrb	r3, [r3]
 501 0078 5BB2     		sxtb	r3, r3
 502 007a 002B     		cmp	r3, #0
 503 007c 09D1     		bne	.L22
 219:Api\core\src/vl53l0x_api_calibration.c **** 		Status = VL53L0X_SetSequenceStepEnable(Dev,
 504              		.loc 1 219 0
 505 007e 4723     		movs	r3, #71
 506 0080 FC18     		adds	r4, r7, r3
 507 0082 FB68     		ldr	r3, [r7, #12]
 508 0084 0022     		movs	r2, #0
 509 0086 0021     		movs	r1, #0
 510 0088 1800     		movs	r0, r3
 511 008a FFF7FEFF 		bl	VL53L0X_SetSequenceStepEnable
 512 008e 0300     		movs	r3, r0
ARM GAS  C:\Users\ilya\AppData\Local\Temp\ccWKU7si.s 			page 14


 513 0090 2370     		strb	r3, [r4]
 514              	.L22:
 220:Api\core\src/vl53l0x_api_calibration.c **** 				VL53L0X_SEQUENCESTEP_TCC, 0);
 221:Api\core\src/vl53l0x_api_calibration.c **** 
 222:Api\core\src/vl53l0x_api_calibration.c **** 
 223:Api\core\src/vl53l0x_api_calibration.c **** 	/* Disable the RIT */
 224:Api\core\src/vl53l0x_api_calibration.c **** 	if (Status == VL53L0X_ERROR_NONE)
 515              		.loc 1 224 0
 516 0092 4723     		movs	r3, #71
 517 0094 FB18     		adds	r3, r7, r3
 518 0096 1B78     		ldrb	r3, [r3]
 519 0098 5BB2     		sxtb	r3, r3
 520 009a 002B     		cmp	r3, #0
 521 009c 09D1     		bne	.L23
 225:Api\core\src/vl53l0x_api_calibration.c **** 		Status = VL53L0X_SetLimitCheckEnable(Dev,
 522              		.loc 1 225 0
 523 009e 4723     		movs	r3, #71
 524 00a0 FC18     		adds	r4, r7, r3
 525 00a2 FB68     		ldr	r3, [r7, #12]
 526 00a4 0022     		movs	r2, #0
 527 00a6 0321     		movs	r1, #3
 528 00a8 1800     		movs	r0, r3
 529 00aa FFF7FEFF 		bl	VL53L0X_SetLimitCheckEnable
 530 00ae 0300     		movs	r3, r0
 531 00b0 2370     		strb	r3, [r4]
 532              	.L23:
 226:Api\core\src/vl53l0x_api_calibration.c **** 				VL53L0X_CHECKENABLE_RANGE_IGNORE_THRESHOLD, 0);
 227:Api\core\src/vl53l0x_api_calibration.c **** 
 228:Api\core\src/vl53l0x_api_calibration.c **** 	/* Perform 50 measurements and compute the averages */
 229:Api\core\src/vl53l0x_api_calibration.c **** 	if (Status == VL53L0X_ERROR_NONE) {
 533              		.loc 1 229 0
 534 00b2 4723     		movs	r3, #71
 535 00b4 FB18     		adds	r3, r7, r3
 536 00b6 1B78     		ldrb	r3, [r3]
 537 00b8 5BB2     		sxtb	r3, r3
 538 00ba 002B     		cmp	r3, #0
 539 00bc 3AD1     		bne	.L24
 230:Api\core\src/vl53l0x_api_calibration.c **** 		sum_ranging = 0;
 540              		.loc 1 230 0
 541 00be 4423     		movs	r3, #68
 542 00c0 FB18     		adds	r3, r7, r3
 543 00c2 0022     		movs	r2, #0
 544 00c4 1A80     		strh	r2, [r3]
 231:Api\core\src/vl53l0x_api_calibration.c **** 		total_count = 0;
 545              		.loc 1 231 0
 546 00c6 0023     		movs	r3, #0
 547 00c8 3B64     		str	r3, [r7, #64]
 232:Api\core\src/vl53l0x_api_calibration.c **** 		for (meas = 0; meas < 50; meas++) {
 548              		.loc 1 232 0
 549 00ca 0023     		movs	r3, #0
 550 00cc FB63     		str	r3, [r7, #60]
 551 00ce 25E0     		b	.L25
 552              	.L29:
 233:Api\core\src/vl53l0x_api_calibration.c **** 			Status = VL53L0X_PerformSingleRangingMeasurement(Dev,
 553              		.loc 1 233 0
 554 00d0 4723     		movs	r3, #71
 555 00d2 FC18     		adds	r4, r7, r3
ARM GAS  C:\Users\ilya\AppData\Local\Temp\ccWKU7si.s 			page 15


 556 00d4 1423     		movs	r3, #20
 557 00d6 FA18     		adds	r2, r7, r3
 558 00d8 FB68     		ldr	r3, [r7, #12]
 559 00da 1100     		movs	r1, r2
 560 00dc 1800     		movs	r0, r3
 561 00de FFF7FEFF 		bl	VL53L0X_PerformSingleRangingMeasurement
 562 00e2 0300     		movs	r3, r0
 563 00e4 2370     		strb	r3, [r4]
 234:Api\core\src/vl53l0x_api_calibration.c **** 					&RangingMeasurementData);
 235:Api\core\src/vl53l0x_api_calibration.c **** 
 236:Api\core\src/vl53l0x_api_calibration.c **** 			if (Status != VL53L0X_ERROR_NONE)
 564              		.loc 1 236 0
 565 00e6 4723     		movs	r3, #71
 566 00e8 FB18     		adds	r3, r7, r3
 567 00ea 1B78     		ldrb	r3, [r3]
 568 00ec 5BB2     		sxtb	r3, r3
 569 00ee 002B     		cmp	r3, #0
 570 00f0 18D1     		bne	.L33
 237:Api\core\src/vl53l0x_api_calibration.c **** 				break;
 238:Api\core\src/vl53l0x_api_calibration.c **** 
 239:Api\core\src/vl53l0x_api_calibration.c **** 			/* The range is valid when RangeStatus = 0 */
 240:Api\core\src/vl53l0x_api_calibration.c **** 			if (RangingMeasurementData.RangeStatus == 0) {
 571              		.loc 1 240 0
 572 00f2 1423     		movs	r3, #20
 573 00f4 FB18     		adds	r3, r7, r3
 574 00f6 1B7E     		ldrb	r3, [r3, #24]
 575 00f8 002B     		cmp	r3, #0
 576 00fa 0CD1     		bne	.L28
 241:Api\core\src/vl53l0x_api_calibration.c **** 				sum_ranging = sum_ranging +
 242:Api\core\src/vl53l0x_api_calibration.c **** 					RangingMeasurementData.RangeMilliMeter;
 577              		.loc 1 242 0
 578 00fc 1423     		movs	r3, #20
 579 00fe FB18     		adds	r3, r7, r3
 580 0100 1989     		ldrh	r1, [r3, #8]
 241:Api\core\src/vl53l0x_api_calibration.c **** 				sum_ranging = sum_ranging +
 581              		.loc 1 241 0
 582 0102 4423     		movs	r3, #68
 583 0104 FB18     		adds	r3, r7, r3
 584 0106 4422     		movs	r2, #68
 585 0108 BA18     		adds	r2, r7, r2
 586 010a 1288     		ldrh	r2, [r2]
 587 010c 8A18     		adds	r2, r1, r2
 588 010e 1A80     		strh	r2, [r3]
 243:Api\core\src/vl53l0x_api_calibration.c **** 				total_count = total_count + 1;
 589              		.loc 1 243 0
 590 0110 3B6C     		ldr	r3, [r7, #64]
 591 0112 0133     		adds	r3, r3, #1
 592 0114 3B64     		str	r3, [r7, #64]
 593              	.L28:
 232:Api\core\src/vl53l0x_api_calibration.c **** 			Status = VL53L0X_PerformSingleRangingMeasurement(Dev,
 594              		.loc 1 232 0 discriminator 2
 595 0116 FB6B     		ldr	r3, [r7, #60]
 596 0118 0133     		adds	r3, r3, #1
 597 011a FB63     		str	r3, [r7, #60]
 598              	.L25:
 232:Api\core\src/vl53l0x_api_calibration.c **** 			Status = VL53L0X_PerformSingleRangingMeasurement(Dev,
 599              		.loc 1 232 0 is_stmt 0 discriminator 1
ARM GAS  C:\Users\ilya\AppData\Local\Temp\ccWKU7si.s 			page 16


 600 011c FB6B     		ldr	r3, [r7, #60]
 601 011e 312B     		cmp	r3, #49
 602 0120 D6DD     		ble	.L29
 603 0122 00E0     		b	.L27
 604              	.L33:
 237:Api\core\src/vl53l0x_api_calibration.c **** 
 605              		.loc 1 237 0 is_stmt 1
 606 0124 C046     		nop
 607              	.L27:
 244:Api\core\src/vl53l0x_api_calibration.c **** 			}
 245:Api\core\src/vl53l0x_api_calibration.c **** 		}
 246:Api\core\src/vl53l0x_api_calibration.c **** 
 247:Api\core\src/vl53l0x_api_calibration.c **** 		/* no valid values found */
 248:Api\core\src/vl53l0x_api_calibration.c **** 		if (total_count == 0)
 608              		.loc 1 248 0
 609 0126 3B6C     		ldr	r3, [r7, #64]
 610 0128 002B     		cmp	r3, #0
 611 012a 03D1     		bne	.L24
 249:Api\core\src/vl53l0x_api_calibration.c **** 			Status = VL53L0X_ERROR_RANGE_ERROR;
 612              		.loc 1 249 0
 613 012c 4723     		movs	r3, #71
 614 012e FB18     		adds	r3, r7, r3
 615 0130 FA22     		movs	r2, #250
 616 0132 1A70     		strb	r2, [r3]
 617              	.L24:
 250:Api\core\src/vl53l0x_api_calibration.c **** 	}
 251:Api\core\src/vl53l0x_api_calibration.c **** 
 252:Api\core\src/vl53l0x_api_calibration.c **** 
 253:Api\core\src/vl53l0x_api_calibration.c **** 	if (Status == VL53L0X_ERROR_NONE) {
 618              		.loc 1 253 0
 619 0134 4723     		movs	r3, #71
 620 0136 FB18     		adds	r3, r7, r3
 621 0138 1B78     		ldrb	r3, [r3]
 622 013a 5BB2     		sxtb	r3, r3
 623 013c 002B     		cmp	r3, #0
 624 013e 35D1     		bne	.L30
 254:Api\core\src/vl53l0x_api_calibration.c **** 		/* FixPoint1616_t / uint16_t = FixPoint1616_t */
 255:Api\core\src/vl53l0x_api_calibration.c **** 		StoredMeanRange = (FixPoint1616_t)((uint32_t)(sum_ranging << 16)
 625              		.loc 1 255 0
 626 0140 4423     		movs	r3, #68
 627 0142 FB18     		adds	r3, r7, r3
 628 0144 1B88     		ldrh	r3, [r3]
 629 0146 1B04     		lsls	r3, r3, #16
 630 0148 396C     		ldr	r1, [r7, #64]
 631 014a 1800     		movs	r0, r3
 632 014c FFF7FEFF 		bl	__aeabi_uidiv
 633 0150 0300     		movs	r3, r0
 634 0152 BB63     		str	r3, [r7, #56]
 256:Api\core\src/vl53l0x_api_calibration.c **** 			/ total_count);
 257:Api\core\src/vl53l0x_api_calibration.c **** 
 258:Api\core\src/vl53l0x_api_calibration.c **** 		StoredMeanRangeAsInt = (StoredMeanRange + 0x8000) >> 16;
 635              		.loc 1 258 0
 636 0154 BB6B     		ldr	r3, [r7, #56]
 637 0156 8022     		movs	r2, #128
 638 0158 1202     		lsls	r2, r2, #8
 639 015a 9446     		mov	ip, r2
 640 015c 6344     		add	r3, r3, ip
ARM GAS  C:\Users\ilya\AppData\Local\Temp\ccWKU7si.s 			page 17


 641 015e 1B0C     		lsrs	r3, r3, #16
 642 0160 7B63     		str	r3, [r7, #52]
 259:Api\core\src/vl53l0x_api_calibration.c **** 
 260:Api\core\src/vl53l0x_api_calibration.c **** 		/* Round Cal Distance to Whole Number.
 261:Api\core\src/vl53l0x_api_calibration.c **** 		 * Note that the cal distance is in mm, therefore no resolution
 262:Api\core\src/vl53l0x_api_calibration.c **** 		 * is lost.*/
 263:Api\core\src/vl53l0x_api_calibration.c **** 		 CalDistanceAsInt_mm = (CalDistanceMilliMeter + 0x8000) >> 16;
 643              		.loc 1 263 0
 644 0162 BB68     		ldr	r3, [r7, #8]
 645 0164 8022     		movs	r2, #128
 646 0166 1202     		lsls	r2, r2, #8
 647 0168 9446     		mov	ip, r2
 648 016a 6344     		add	r3, r3, ip
 649 016c 1B0C     		lsrs	r3, r3, #16
 650 016e 3B63     		str	r3, [r7, #48]
 264:Api\core\src/vl53l0x_api_calibration.c **** 
 265:Api\core\src/vl53l0x_api_calibration.c **** 		 *pOffsetMicroMeter = (CalDistanceAsInt_mm -
 651              		.loc 1 265 0
 652 0170 3A6B     		ldr	r2, [r7, #48]
 653 0172 7B6B     		ldr	r3, [r7, #52]
 654 0174 D31A     		subs	r3, r2, r3
 266:Api\core\src/vl53l0x_api_calibration.c **** 				 StoredMeanRangeAsInt) * 1000;
 655              		.loc 1 266 0
 656 0176 FA22     		movs	r2, #250
 657 0178 9200     		lsls	r2, r2, #2
 658 017a 5343     		muls	r3, r2
 265:Api\core\src/vl53l0x_api_calibration.c **** 				 StoredMeanRangeAsInt) * 1000;
 659              		.loc 1 265 0
 660 017c 1A00     		movs	r2, r3
 661 017e 7B68     		ldr	r3, [r7, #4]
 662 0180 1A60     		str	r2, [r3]
 267:Api\core\src/vl53l0x_api_calibration.c **** 
 268:Api\core\src/vl53l0x_api_calibration.c **** 		/* Apply the calculated offset */
 269:Api\core\src/vl53l0x_api_calibration.c **** 		if (Status == VL53L0X_ERROR_NONE) {
 663              		.loc 1 269 0
 664 0182 4723     		movs	r3, #71
 665 0184 FB18     		adds	r3, r7, r3
 666 0186 1B78     		ldrb	r3, [r3]
 667 0188 5BB2     		sxtb	r3, r3
 668 018a 002B     		cmp	r3, #0
 669 018c 0ED1     		bne	.L30
 270:Api\core\src/vl53l0x_api_calibration.c **** 			VL53L0X_SETPARAMETERFIELD(Dev, RangeOffsetMicroMeters,
 670              		.loc 1 270 0
 671 018e 7B68     		ldr	r3, [r7, #4]
 672 0190 1A68     		ldr	r2, [r3]
 673 0192 FB68     		ldr	r3, [r7, #12]
 674 0194 5A62     		str	r2, [r3, #36]
 271:Api\core\src/vl53l0x_api_calibration.c **** 					*pOffsetMicroMeter);
 272:Api\core\src/vl53l0x_api_calibration.c **** 			Status = VL53L0X_SetOffsetCalibrationDataMicroMeter(Dev,
 675              		.loc 1 272 0
 676 0196 7B68     		ldr	r3, [r7, #4]
 677 0198 1A68     		ldr	r2, [r3]
 678 019a 4723     		movs	r3, #71
 679 019c FC18     		adds	r4, r7, r3
 680 019e FB68     		ldr	r3, [r7, #12]
 681 01a0 1100     		movs	r1, r2
 682 01a2 1800     		movs	r0, r3
ARM GAS  C:\Users\ilya\AppData\Local\Temp\ccWKU7si.s 			page 18


 683 01a4 FFF7FEFF 		bl	VL53L0X_SetOffsetCalibrationDataMicroMeter
 684 01a8 0300     		movs	r3, r0
 685 01aa 2370     		strb	r3, [r4]
 686              	.L30:
 273:Api\core\src/vl53l0x_api_calibration.c **** 					*pOffsetMicroMeter);
 274:Api\core\src/vl53l0x_api_calibration.c **** 		}
 275:Api\core\src/vl53l0x_api_calibration.c **** 
 276:Api\core\src/vl53l0x_api_calibration.c **** 	}
 277:Api\core\src/vl53l0x_api_calibration.c **** 
 278:Api\core\src/vl53l0x_api_calibration.c **** 	/* Restore the TCC */
 279:Api\core\src/vl53l0x_api_calibration.c **** 	if (Status == VL53L0X_ERROR_NONE) {
 687              		.loc 1 279 0
 688 01ac 4723     		movs	r3, #71
 689 01ae FB18     		adds	r3, r7, r3
 690 01b0 1B78     		ldrb	r3, [r3]
 691 01b2 5BB2     		sxtb	r3, r3
 692 01b4 002B     		cmp	r3, #0
 693 01b6 0ED1     		bne	.L31
 280:Api\core\src/vl53l0x_api_calibration.c **** 		if (SequenceStepEnabled != 0)
 694              		.loc 1 280 0
 695 01b8 1323     		movs	r3, #19
 696 01ba FB18     		adds	r3, r7, r3
 697 01bc 1B78     		ldrb	r3, [r3]
 698 01be 002B     		cmp	r3, #0
 699 01c0 09D0     		beq	.L31
 281:Api\core\src/vl53l0x_api_calibration.c **** 			Status = VL53L0X_SetSequenceStepEnable(Dev,
 700              		.loc 1 281 0
 701 01c2 4723     		movs	r3, #71
 702 01c4 FC18     		adds	r4, r7, r3
 703 01c6 FB68     		ldr	r3, [r7, #12]
 704 01c8 0122     		movs	r2, #1
 705 01ca 0021     		movs	r1, #0
 706 01cc 1800     		movs	r0, r3
 707 01ce FFF7FEFF 		bl	VL53L0X_SetSequenceStepEnable
 708 01d2 0300     		movs	r3, r0
 709 01d4 2370     		strb	r3, [r4]
 710              	.L31:
 282:Api\core\src/vl53l0x_api_calibration.c **** 					VL53L0X_SEQUENCESTEP_TCC, 1);
 283:Api\core\src/vl53l0x_api_calibration.c **** 	}
 284:Api\core\src/vl53l0x_api_calibration.c **** 
 285:Api\core\src/vl53l0x_api_calibration.c **** 	return Status;
 711              		.loc 1 285 0
 712 01d6 4723     		movs	r3, #71
 713 01d8 FB18     		adds	r3, r7, r3
 714 01da 1B78     		ldrb	r3, [r3]
 715 01dc 5BB2     		sxtb	r3, r3
 286:Api\core\src/vl53l0x_api_calibration.c **** }
 716              		.loc 1 286 0
 717 01de 1800     		movs	r0, r3
 718 01e0 BD46     		mov	sp, r7
 719 01e2 13B0     		add	sp, sp, #76
 720              		@ sp needed
 721 01e4 90BD     		pop	{r4, r7, pc}
 722              		.cfi_endproc
 723              	.LFE2:
 724              		.size	VL53L0X_perform_offset_calibration, .-VL53L0X_perform_offset_calibration
 725              		.global	__aeabi_idiv
ARM GAS  C:\Users\ilya\AppData\Local\Temp\ccWKU7si.s 			page 19


 726 01e6 C046     		.section	.text.VL53L0X_set_offset_calibration_data_micro_meter,"ax",%progbits
 727              		.align	2
 728              		.global	VL53L0X_set_offset_calibration_data_micro_meter
 729              		.code	16
 730              		.thumb_func
 731              		.type	VL53L0X_set_offset_calibration_data_micro_meter, %function
 732              	VL53L0X_set_offset_calibration_data_micro_meter:
 733              	.LFB3:
 287:Api\core\src/vl53l0x_api_calibration.c **** 
 288:Api\core\src/vl53l0x_api_calibration.c **** 
 289:Api\core\src/vl53l0x_api_calibration.c **** VL53L0X_Error VL53L0X_set_offset_calibration_data_micro_meter(VL53L0X_DEV Dev,
 290:Api\core\src/vl53l0x_api_calibration.c **** 		int32_t OffsetCalibrationDataMicroMeter)
 291:Api\core\src/vl53l0x_api_calibration.c **** {
 734              		.loc 1 291 0
 735              		.cfi_startproc
 736              		@ args = 0, pretend = 0, frame = 32
 737              		@ frame_needed = 1, uses_anonymous_args = 0
 738 0000 90B5     		push	{r4, r7, lr}
 739              		.cfi_def_cfa_offset 12
 740              		.cfi_offset 4, -12
 741              		.cfi_offset 7, -8
 742              		.cfi_offset 14, -4
 743 0002 89B0     		sub	sp, sp, #36
 744              		.cfi_def_cfa_offset 48
 745 0004 00AF     		add	r7, sp, #0
 746              		.cfi_def_cfa_register 7
 747 0006 7860     		str	r0, [r7, #4]
 748 0008 3960     		str	r1, [r7]
 292:Api\core\src/vl53l0x_api_calibration.c **** 	VL53L0X_Error Status = VL53L0X_ERROR_NONE;
 749              		.loc 1 292 0
 750 000a 1B23     		movs	r3, #27
 751 000c FB18     		adds	r3, r7, r3
 752 000e 0022     		movs	r2, #0
 753 0010 1A70     		strb	r2, [r3]
 293:Api\core\src/vl53l0x_api_calibration.c **** 	int32_t cMaxOffsetMicroMeter = 511000;
 754              		.loc 1 293 0
 755 0012 204B     		ldr	r3, .L40
 756 0014 7B61     		str	r3, [r7, #20]
 294:Api\core\src/vl53l0x_api_calibration.c **** 	int32_t cMinOffsetMicroMeter = -512000;
 757              		.loc 1 294 0
 758 0016 204B     		ldr	r3, .L40+4
 759 0018 3B61     		str	r3, [r7, #16]
 295:Api\core\src/vl53l0x_api_calibration.c **** 	int16_t cOffsetRange = 4096;
 760              		.loc 1 295 0
 761 001a 0E23     		movs	r3, #14
 762 001c FB18     		adds	r3, r7, r3
 763 001e 8022     		movs	r2, #128
 764 0020 5201     		lsls	r2, r2, #5
 765 0022 1A80     		strh	r2, [r3]
 296:Api\core\src/vl53l0x_api_calibration.c **** 	uint32_t encodedOffsetVal;
 297:Api\core\src/vl53l0x_api_calibration.c **** 
 298:Api\core\src/vl53l0x_api_calibration.c **** 	LOG_FUNCTION_START("");
 299:Api\core\src/vl53l0x_api_calibration.c **** 
 300:Api\core\src/vl53l0x_api_calibration.c **** 	if (OffsetCalibrationDataMicroMeter > cMaxOffsetMicroMeter)
 766              		.loc 1 300 0
 767 0024 3A68     		ldr	r2, [r7]
 768 0026 7B69     		ldr	r3, [r7, #20]
ARM GAS  C:\Users\ilya\AppData\Local\Temp\ccWKU7si.s 			page 20


 769 0028 9A42     		cmp	r2, r3
 770 002a 02DD     		ble	.L35
 301:Api\core\src/vl53l0x_api_calibration.c **** 		OffsetCalibrationDataMicroMeter = cMaxOffsetMicroMeter;
 771              		.loc 1 301 0
 772 002c 7B69     		ldr	r3, [r7, #20]
 773 002e 3B60     		str	r3, [r7]
 774 0030 05E0     		b	.L36
 775              	.L35:
 302:Api\core\src/vl53l0x_api_calibration.c **** 	else if (OffsetCalibrationDataMicroMeter < cMinOffsetMicroMeter)
 776              		.loc 1 302 0
 777 0032 3A68     		ldr	r2, [r7]
 778 0034 3B69     		ldr	r3, [r7, #16]
 779 0036 9A42     		cmp	r2, r3
 780 0038 01DA     		bge	.L36
 303:Api\core\src/vl53l0x_api_calibration.c **** 		OffsetCalibrationDataMicroMeter = cMinOffsetMicroMeter;
 781              		.loc 1 303 0
 782 003a 3B69     		ldr	r3, [r7, #16]
 783 003c 3B60     		str	r3, [r7]
 784              	.L36:
 304:Api\core\src/vl53l0x_api_calibration.c **** 
 305:Api\core\src/vl53l0x_api_calibration.c **** 	/* The offset register is 10.2 format and units are mm
 306:Api\core\src/vl53l0x_api_calibration.c **** 	 * therefore conversion is applied by a division of
 307:Api\core\src/vl53l0x_api_calibration.c **** 	 * 250.
 308:Api\core\src/vl53l0x_api_calibration.c **** 	 */
 309:Api\core\src/vl53l0x_api_calibration.c **** 	if (OffsetCalibrationDataMicroMeter >= 0) {
 785              		.loc 1 309 0
 786 003e 3B68     		ldr	r3, [r7]
 787 0040 002B     		cmp	r3, #0
 788 0042 07DB     		blt	.L37
 310:Api\core\src/vl53l0x_api_calibration.c **** 		encodedOffsetVal =
 311:Api\core\src/vl53l0x_api_calibration.c **** 			OffsetCalibrationDataMicroMeter/250;
 789              		.loc 1 311 0
 790 0044 3B68     		ldr	r3, [r7]
 791 0046 FA21     		movs	r1, #250
 792 0048 1800     		movs	r0, r3
 793 004a FFF7FEFF 		bl	__aeabi_idiv
 794 004e 0300     		movs	r3, r0
 310:Api\core\src/vl53l0x_api_calibration.c **** 		encodedOffsetVal =
 795              		.loc 1 310 0
 796 0050 FB61     		str	r3, [r7, #28]
 797 0052 0BE0     		b	.L38
 798              	.L37:
 312:Api\core\src/vl53l0x_api_calibration.c **** 	} else {
 313:Api\core\src/vl53l0x_api_calibration.c **** 		encodedOffsetVal =
 314:Api\core\src/vl53l0x_api_calibration.c **** 			cOffsetRange +
 799              		.loc 1 314 0
 800 0054 0E23     		movs	r3, #14
 801 0056 FB18     		adds	r3, r7, r3
 802 0058 0024     		movs	r4, #0
 803 005a 1C5F     		ldrsh	r4, [r3, r4]
 315:Api\core\src/vl53l0x_api_calibration.c **** 			OffsetCalibrationDataMicroMeter/250;
 804              		.loc 1 315 0
 805 005c 3B68     		ldr	r3, [r7]
 806 005e FA21     		movs	r1, #250
 807 0060 1800     		movs	r0, r3
 808 0062 FFF7FEFF 		bl	__aeabi_idiv
 809 0066 0300     		movs	r3, r0
ARM GAS  C:\Users\ilya\AppData\Local\Temp\ccWKU7si.s 			page 21


 314:Api\core\src/vl53l0x_api_calibration.c **** 			OffsetCalibrationDataMicroMeter/250;
 810              		.loc 1 314 0
 811 0068 E318     		adds	r3, r4, r3
 313:Api\core\src/vl53l0x_api_calibration.c **** 			cOffsetRange +
 812              		.loc 1 313 0
 813 006a FB61     		str	r3, [r7, #28]
 814              	.L38:
 316:Api\core\src/vl53l0x_api_calibration.c **** 	}
 317:Api\core\src/vl53l0x_api_calibration.c **** 
 318:Api\core\src/vl53l0x_api_calibration.c **** 	Status = VL53L0X_WrWord(Dev,
 815              		.loc 1 318 0
 816 006c FB69     		ldr	r3, [r7, #28]
 817 006e 9AB2     		uxth	r2, r3
 818 0070 1B23     		movs	r3, #27
 819 0072 FC18     		adds	r4, r7, r3
 820 0074 7B68     		ldr	r3, [r7, #4]
 821 0076 2821     		movs	r1, #40
 822 0078 1800     		movs	r0, r3
 823 007a FFF7FEFF 		bl	VL53L0X_WrWord
 824 007e 0300     		movs	r3, r0
 825 0080 2370     		strb	r3, [r4]
 319:Api\core\src/vl53l0x_api_calibration.c **** 		VL53L0X_REG_ALGO_PART_TO_PART_RANGE_OFFSET_MM,
 320:Api\core\src/vl53l0x_api_calibration.c **** 		encodedOffsetVal);
 321:Api\core\src/vl53l0x_api_calibration.c **** 
 322:Api\core\src/vl53l0x_api_calibration.c **** 	LOG_FUNCTION_END(Status);
 323:Api\core\src/vl53l0x_api_calibration.c **** 	return Status;
 826              		.loc 1 323 0
 827 0082 1B23     		movs	r3, #27
 828 0084 FB18     		adds	r3, r7, r3
 829 0086 1B78     		ldrb	r3, [r3]
 830 0088 5BB2     		sxtb	r3, r3
 324:Api\core\src/vl53l0x_api_calibration.c **** }
 831              		.loc 1 324 0
 832 008a 1800     		movs	r0, r3
 833 008c BD46     		mov	sp, r7
 834 008e 09B0     		add	sp, sp, #36
 835              		@ sp needed
 836 0090 90BD     		pop	{r4, r7, pc}
 837              	.L41:
 838 0092 C046     		.align	2
 839              	.L40:
 840 0094 18CC0700 		.word	511000
 841 0098 0030F8FF 		.word	-512000
 842              		.cfi_endproc
 843              	.LFE3:
 844              		.size	VL53L0X_set_offset_calibration_data_micro_meter, .-VL53L0X_set_offset_calibration_data_micro
 845              		.section	.text.VL53L0X_get_offset_calibration_data_micro_meter,"ax",%progbits
 846              		.align	2
 847              		.global	VL53L0X_get_offset_calibration_data_micro_meter
 848              		.code	16
 849              		.thumb_func
 850              		.type	VL53L0X_get_offset_calibration_data_micro_meter, %function
 851              	VL53L0X_get_offset_calibration_data_micro_meter:
 852              	.LFB4:
 325:Api\core\src/vl53l0x_api_calibration.c **** 
 326:Api\core\src/vl53l0x_api_calibration.c **** VL53L0X_Error VL53L0X_get_offset_calibration_data_micro_meter(VL53L0X_DEV Dev,
 327:Api\core\src/vl53l0x_api_calibration.c **** 		int32_t *pOffsetCalibrationDataMicroMeter)
ARM GAS  C:\Users\ilya\AppData\Local\Temp\ccWKU7si.s 			page 22


 328:Api\core\src/vl53l0x_api_calibration.c **** {
 853              		.loc 1 328 0
 854              		.cfi_startproc
 855              		@ args = 0, pretend = 0, frame = 16
 856              		@ frame_needed = 1, uses_anonymous_args = 0
 857 0000 90B5     		push	{r4, r7, lr}
 858              		.cfi_def_cfa_offset 12
 859              		.cfi_offset 4, -12
 860              		.cfi_offset 7, -8
 861              		.cfi_offset 14, -4
 862 0002 85B0     		sub	sp, sp, #20
 863              		.cfi_def_cfa_offset 32
 864 0004 00AF     		add	r7, sp, #0
 865              		.cfi_def_cfa_register 7
 866 0006 7860     		str	r0, [r7, #4]
 867 0008 3960     		str	r1, [r7]
 329:Api\core\src/vl53l0x_api_calibration.c **** 	VL53L0X_Error Status = VL53L0X_ERROR_NONE;
 868              		.loc 1 329 0
 869 000a 0F23     		movs	r3, #15
 870 000c FB18     		adds	r3, r7, r3
 871 000e 0022     		movs	r2, #0
 872 0010 1A70     		strb	r2, [r3]
 330:Api\core\src/vl53l0x_api_calibration.c **** 	uint16_t RangeOffsetRegister;
 331:Api\core\src/vl53l0x_api_calibration.c **** 	int16_t cMaxOffset = 2047;
 873              		.loc 1 331 0
 874 0012 0C23     		movs	r3, #12
 875 0014 FB18     		adds	r3, r7, r3
 876 0016 254A     		ldr	r2, .L46
 877 0018 1A80     		strh	r2, [r3]
 332:Api\core\src/vl53l0x_api_calibration.c **** 	int16_t cOffsetRange = 4096;
 878              		.loc 1 332 0
 879 001a 0A23     		movs	r3, #10
 880 001c FB18     		adds	r3, r7, r3
 881 001e 8022     		movs	r2, #128
 882 0020 5201     		lsls	r2, r2, #5
 883 0022 1A80     		strh	r2, [r3]
 333:Api\core\src/vl53l0x_api_calibration.c **** 
 334:Api\core\src/vl53l0x_api_calibration.c **** 	/* Note that offset has 10.2 format */
 335:Api\core\src/vl53l0x_api_calibration.c **** 
 336:Api\core\src/vl53l0x_api_calibration.c **** 	Status = VL53L0X_RdWord(Dev,
 884              		.loc 1 336 0
 885 0024 0F23     		movs	r3, #15
 886 0026 FC18     		adds	r4, r7, r3
 887 0028 0823     		movs	r3, #8
 888 002a FA18     		adds	r2, r7, r3
 889 002c 7B68     		ldr	r3, [r7, #4]
 890 002e 2821     		movs	r1, #40
 891 0030 1800     		movs	r0, r3
 892 0032 FFF7FEFF 		bl	VL53L0X_RdWord
 893 0036 0300     		movs	r3, r0
 894 0038 2370     		strb	r3, [r4]
 337:Api\core\src/vl53l0x_api_calibration.c **** 				VL53L0X_REG_ALGO_PART_TO_PART_RANGE_OFFSET_MM,
 338:Api\core\src/vl53l0x_api_calibration.c **** 				&RangeOffsetRegister);
 339:Api\core\src/vl53l0x_api_calibration.c **** 
 340:Api\core\src/vl53l0x_api_calibration.c **** 	if (Status == VL53L0X_ERROR_NONE) {
 895              		.loc 1 340 0
 896 003a 0F23     		movs	r3, #15
ARM GAS  C:\Users\ilya\AppData\Local\Temp\ccWKU7si.s 			page 23


 897 003c FB18     		adds	r3, r7, r3
 898 003e 1B78     		ldrb	r3, [r3]
 899 0040 5BB2     		sxtb	r3, r3
 900 0042 002B     		cmp	r3, #0
 901 0044 2AD1     		bne	.L43
 341:Api\core\src/vl53l0x_api_calibration.c **** 		RangeOffsetRegister = (RangeOffsetRegister & 0x0fff);
 902              		.loc 1 341 0
 903 0046 0823     		movs	r3, #8
 904 0048 FB18     		adds	r3, r7, r3
 905 004a 1B88     		ldrh	r3, [r3]
 906 004c 1B05     		lsls	r3, r3, #20
 907 004e 1B0D     		lsrs	r3, r3, #20
 908 0050 9AB2     		uxth	r2, r3
 909 0052 0823     		movs	r3, #8
 910 0054 FB18     		adds	r3, r7, r3
 911 0056 1A80     		strh	r2, [r3]
 342:Api\core\src/vl53l0x_api_calibration.c **** 
 343:Api\core\src/vl53l0x_api_calibration.c **** 		/* Apply 12 bit 2's compliment conversion */
 344:Api\core\src/vl53l0x_api_calibration.c **** 		if (RangeOffsetRegister > cMaxOffset)
 912              		.loc 1 344 0
 913 0058 0823     		movs	r3, #8
 914 005a FB18     		adds	r3, r7, r3
 915 005c 1B88     		ldrh	r3, [r3]
 916 005e 1A00     		movs	r2, r3
 917 0060 0C23     		movs	r3, #12
 918 0062 FB18     		adds	r3, r7, r3
 919 0064 0021     		movs	r1, #0
 920 0066 5B5E     		ldrsh	r3, [r3, r1]
 921 0068 9A42     		cmp	r2, r3
 922 006a 0EDD     		ble	.L44
 345:Api\core\src/vl53l0x_api_calibration.c **** 			*pOffsetCalibrationDataMicroMeter =
 346:Api\core\src/vl53l0x_api_calibration.c **** 				(int16_t)(RangeOffsetRegister - cOffsetRange)
 923              		.loc 1 346 0
 924 006c 0823     		movs	r3, #8
 925 006e FB18     		adds	r3, r7, r3
 926 0070 1A88     		ldrh	r2, [r3]
 927 0072 0A23     		movs	r3, #10
 928 0074 FB18     		adds	r3, r7, r3
 929 0076 1B88     		ldrh	r3, [r3]
 930 0078 D31A     		subs	r3, r2, r3
 931 007a 9BB2     		uxth	r3, r3
 932 007c 1BB2     		sxth	r3, r3
 345:Api\core\src/vl53l0x_api_calibration.c **** 			*pOffsetCalibrationDataMicroMeter =
 933              		.loc 1 345 0
 934 007e 1A00     		movs	r2, r3
 347:Api\core\src/vl53l0x_api_calibration.c **** 					* 250;
 935              		.loc 1 347 0
 936 0080 FA23     		movs	r3, #250
 937 0082 5A43     		muls	r2, r3
 345:Api\core\src/vl53l0x_api_calibration.c **** 			*pOffsetCalibrationDataMicroMeter =
 938              		.loc 1 345 0
 939 0084 3B68     		ldr	r3, [r7]
 940 0086 1A60     		str	r2, [r3]
 941 0088 08E0     		b	.L43
 942              	.L44:
 348:Api\core\src/vl53l0x_api_calibration.c **** 		else
 349:Api\core\src/vl53l0x_api_calibration.c **** 			*pOffsetCalibrationDataMicroMeter =
ARM GAS  C:\Users\ilya\AppData\Local\Temp\ccWKU7si.s 			page 24


 350:Api\core\src/vl53l0x_api_calibration.c **** 				(int16_t)RangeOffsetRegister * 250;
 943              		.loc 1 350 0
 944 008a 0823     		movs	r3, #8
 945 008c FB18     		adds	r3, r7, r3
 946 008e 1B88     		ldrh	r3, [r3]
 947 0090 1BB2     		sxth	r3, r3
 349:Api\core\src/vl53l0x_api_calibration.c **** 				(int16_t)RangeOffsetRegister * 250;
 948              		.loc 1 349 0
 949 0092 1A00     		movs	r2, r3
 950              		.loc 1 350 0
 951 0094 FA23     		movs	r3, #250
 952 0096 5A43     		muls	r2, r3
 349:Api\core\src/vl53l0x_api_calibration.c **** 				(int16_t)RangeOffsetRegister * 250;
 953              		.loc 1 349 0
 954 0098 3B68     		ldr	r3, [r7]
 955 009a 1A60     		str	r2, [r3]
 956              	.L43:
 351:Api\core\src/vl53l0x_api_calibration.c **** 
 352:Api\core\src/vl53l0x_api_calibration.c **** 	}
 353:Api\core\src/vl53l0x_api_calibration.c **** 
 354:Api\core\src/vl53l0x_api_calibration.c **** 	return Status;
 957              		.loc 1 354 0
 958 009c 0F23     		movs	r3, #15
 959 009e FB18     		adds	r3, r7, r3
 960 00a0 1B78     		ldrb	r3, [r3]
 961 00a2 5BB2     		sxtb	r3, r3
 355:Api\core\src/vl53l0x_api_calibration.c **** }
 962              		.loc 1 355 0
 963 00a4 1800     		movs	r0, r3
 964 00a6 BD46     		mov	sp, r7
 965 00a8 05B0     		add	sp, sp, #20
 966              		@ sp needed
 967 00aa 90BD     		pop	{r4, r7, pc}
 968              	.L47:
 969              		.align	2
 970              	.L46:
 971 00ac FF070000 		.word	2047
 972              		.cfi_endproc
 973              	.LFE4:
 974              		.size	VL53L0X_get_offset_calibration_data_micro_meter, .-VL53L0X_get_offset_calibration_data_micro
 975              		.section	.text.VL53L0X_apply_offset_adjustment,"ax",%progbits
 976              		.align	2
 977              		.global	VL53L0X_apply_offset_adjustment
 978              		.code	16
 979              		.thumb_func
 980              		.type	VL53L0X_apply_offset_adjustment, %function
 981              	VL53L0X_apply_offset_adjustment:
 982              	.LFB5:
 356:Api\core\src/vl53l0x_api_calibration.c **** 
 357:Api\core\src/vl53l0x_api_calibration.c **** 
 358:Api\core\src/vl53l0x_api_calibration.c **** VL53L0X_Error VL53L0X_apply_offset_adjustment(VL53L0X_DEV Dev)
 359:Api\core\src/vl53l0x_api_calibration.c **** {
 983              		.loc 1 359 0
 984              		.cfi_startproc
 985              		@ args = 0, pretend = 0, frame = 24
 986              		@ frame_needed = 1, uses_anonymous_args = 0
 987 0000 90B5     		push	{r4, r7, lr}
ARM GAS  C:\Users\ilya\AppData\Local\Temp\ccWKU7si.s 			page 25


 988              		.cfi_def_cfa_offset 12
 989              		.cfi_offset 4, -12
 990              		.cfi_offset 7, -8
 991              		.cfi_offset 14, -4
 992 0002 87B0     		sub	sp, sp, #28
 993              		.cfi_def_cfa_offset 40
 994 0004 00AF     		add	r7, sp, #0
 995              		.cfi_def_cfa_register 7
 996 0006 7860     		str	r0, [r7, #4]
 360:Api\core\src/vl53l0x_api_calibration.c **** 	VL53L0X_Error Status = VL53L0X_ERROR_NONE;
 997              		.loc 1 360 0
 998 0008 1723     		movs	r3, #23
 999 000a FB18     		adds	r3, r7, r3
 1000 000c 0022     		movs	r2, #0
 1001 000e 1A70     		strb	r2, [r3]
 361:Api\core\src/vl53l0x_api_calibration.c **** 	int32_t CorrectedOffsetMicroMeters;
 362:Api\core\src/vl53l0x_api_calibration.c **** 	int32_t CurrentOffsetMicroMeters;
 363:Api\core\src/vl53l0x_api_calibration.c **** 
 364:Api\core\src/vl53l0x_api_calibration.c **** 	/* if we run on this function we can read all the NVM info
 365:Api\core\src/vl53l0x_api_calibration.c **** 	 * used by the API */
 366:Api\core\src/vl53l0x_api_calibration.c **** 	Status = VL53L0X_get_info_from_device(Dev, 7);
 1002              		.loc 1 366 0
 1003 0010 1723     		movs	r3, #23
 1004 0012 FC18     		adds	r4, r7, r3
 1005 0014 7B68     		ldr	r3, [r7, #4]
 1006 0016 0721     		movs	r1, #7
 1007 0018 1800     		movs	r0, r3
 1008 001a FFF7FEFF 		bl	VL53L0X_get_info_from_device
 1009 001e 0300     		movs	r3, r0
 1010 0020 2370     		strb	r3, [r4]
 367:Api\core\src/vl53l0x_api_calibration.c **** 
 368:Api\core\src/vl53l0x_api_calibration.c **** 	/* Read back current device offset */
 369:Api\core\src/vl53l0x_api_calibration.c **** 	if (Status == VL53L0X_ERROR_NONE) {
 1011              		.loc 1 369 0
 1012 0022 1723     		movs	r3, #23
 1013 0024 FB18     		adds	r3, r7, r3
 1014 0026 1B78     		ldrb	r3, [r3]
 1015 0028 5BB2     		sxtb	r3, r3
 1016 002a 002B     		cmp	r3, #0
 1017 002c 0AD1     		bne	.L49
 370:Api\core\src/vl53l0x_api_calibration.c **** 		Status = VL53L0X_GetOffsetCalibrationDataMicroMeter(Dev,
 1018              		.loc 1 370 0
 1019 002e 1723     		movs	r3, #23
 1020 0030 FC18     		adds	r4, r7, r3
 1021 0032 0C23     		movs	r3, #12
 1022 0034 FA18     		adds	r2, r7, r3
 1023 0036 7B68     		ldr	r3, [r7, #4]
 1024 0038 1100     		movs	r1, r2
 1025 003a 1800     		movs	r0, r3
 1026 003c FFF7FEFF 		bl	VL53L0X_GetOffsetCalibrationDataMicroMeter
 1027 0040 0300     		movs	r3, r0
 1028 0042 2370     		strb	r3, [r4]
 1029              	.L49:
 371:Api\core\src/vl53l0x_api_calibration.c **** 					&CurrentOffsetMicroMeters);
 372:Api\core\src/vl53l0x_api_calibration.c **** 	}
 373:Api\core\src/vl53l0x_api_calibration.c **** 
 374:Api\core\src/vl53l0x_api_calibration.c **** 	/* Apply Offset Adjustment derived from 400mm measurements */
ARM GAS  C:\Users\ilya\AppData\Local\Temp\ccWKU7si.s 			page 26


 375:Api\core\src/vl53l0x_api_calibration.c **** 	if (Status == VL53L0X_ERROR_NONE) {
 1030              		.loc 1 375 0
 1031 0044 1723     		movs	r3, #23
 1032 0046 FB18     		adds	r3, r7, r3
 1033 0048 1B78     		ldrb	r3, [r3]
 1034 004a 5BB2     		sxtb	r3, r3
 1035 004c 002B     		cmp	r3, #0
 1036 004e 1AD1     		bne	.L50
 376:Api\core\src/vl53l0x_api_calibration.c **** 
 377:Api\core\src/vl53l0x_api_calibration.c **** 		/* Store initial device offset */
 378:Api\core\src/vl53l0x_api_calibration.c **** 		PALDevDataSet(Dev, Part2PartOffsetNVMMicroMeter,
 1037              		.loc 1 378 0
 1038 0050 FA68     		ldr	r2, [r7, #12]
 1039 0052 7B68     		ldr	r3, [r7, #4]
 1040 0054 9A60     		str	r2, [r3, #8]
 379:Api\core\src/vl53l0x_api_calibration.c **** 			CurrentOffsetMicroMeters);
 380:Api\core\src/vl53l0x_api_calibration.c **** 
 381:Api\core\src/vl53l0x_api_calibration.c **** 		CorrectedOffsetMicroMeters = CurrentOffsetMicroMeters +
 382:Api\core\src/vl53l0x_api_calibration.c **** 			(int32_t)PALDevDataGet(Dev,
 1041              		.loc 1 382 0
 1042 0056 7B68     		ldr	r3, [r7, #4]
 1043 0058 DA68     		ldr	r2, [r3, #12]
 381:Api\core\src/vl53l0x_api_calibration.c **** 			(int32_t)PALDevDataGet(Dev,
 1044              		.loc 1 381 0
 1045 005a FB68     		ldr	r3, [r7, #12]
 1046 005c D318     		adds	r3, r2, r3
 1047 005e 3B61     		str	r3, [r7, #16]
 383:Api\core\src/vl53l0x_api_calibration.c **** 				Part2PartOffsetAdjustmentNVMMicroMeter);
 384:Api\core\src/vl53l0x_api_calibration.c **** 
 385:Api\core\src/vl53l0x_api_calibration.c **** 		Status = VL53L0X_SetOffsetCalibrationDataMicroMeter(Dev,
 1048              		.loc 1 385 0
 1049 0060 1723     		movs	r3, #23
 1050 0062 FC18     		adds	r4, r7, r3
 1051 0064 3A69     		ldr	r2, [r7, #16]
 1052 0066 7B68     		ldr	r3, [r7, #4]
 1053 0068 1100     		movs	r1, r2
 1054 006a 1800     		movs	r0, r3
 1055 006c FFF7FEFF 		bl	VL53L0X_SetOffsetCalibrationDataMicroMeter
 1056 0070 0300     		movs	r3, r0
 1057 0072 2370     		strb	r3, [r4]
 386:Api\core\src/vl53l0x_api_calibration.c **** 					CorrectedOffsetMicroMeters);
 387:Api\core\src/vl53l0x_api_calibration.c **** 
 388:Api\core\src/vl53l0x_api_calibration.c **** 		/* store current, adjusted offset */
 389:Api\core\src/vl53l0x_api_calibration.c **** 		if (Status == VL53L0X_ERROR_NONE) {
 1058              		.loc 1 389 0
 1059 0074 1723     		movs	r3, #23
 1060 0076 FB18     		adds	r3, r7, r3
 1061 0078 1B78     		ldrb	r3, [r3]
 1062 007a 5BB2     		sxtb	r3, r3
 1063 007c 002B     		cmp	r3, #0
 1064 007e 02D1     		bne	.L50
 390:Api\core\src/vl53l0x_api_calibration.c **** 			VL53L0X_SETPARAMETERFIELD(Dev, RangeOffsetMicroMeters,
 1065              		.loc 1 390 0
 1066 0080 7B68     		ldr	r3, [r7, #4]
 1067 0082 3A69     		ldr	r2, [r7, #16]
 1068 0084 5A62     		str	r2, [r3, #36]
 1069              	.L50:
ARM GAS  C:\Users\ilya\AppData\Local\Temp\ccWKU7si.s 			page 27


 391:Api\core\src/vl53l0x_api_calibration.c **** 					CorrectedOffsetMicroMeters);
 392:Api\core\src/vl53l0x_api_calibration.c **** 		}
 393:Api\core\src/vl53l0x_api_calibration.c **** 	}
 394:Api\core\src/vl53l0x_api_calibration.c **** 
 395:Api\core\src/vl53l0x_api_calibration.c **** 	return Status;
 1070              		.loc 1 395 0
 1071 0086 1723     		movs	r3, #23
 1072 0088 FB18     		adds	r3, r7, r3
 1073 008a 1B78     		ldrb	r3, [r3]
 1074 008c 5BB2     		sxtb	r3, r3
 396:Api\core\src/vl53l0x_api_calibration.c **** }
 1075              		.loc 1 396 0
 1076 008e 1800     		movs	r0, r3
 1077 0090 BD46     		mov	sp, r7
 1078 0092 07B0     		add	sp, sp, #28
 1079              		@ sp needed
 1080 0094 90BD     		pop	{r4, r7, pc}
 1081              		.cfi_endproc
 1082              	.LFE5:
 1083              		.size	VL53L0X_apply_offset_adjustment, .-VL53L0X_apply_offset_adjustment
 1084              		.global	__aeabi_uidivmod
 1085 0096 C046     		.section	.text.get_next_good_spad,"ax",%progbits
 1086              		.align	2
 1087              		.global	get_next_good_spad
 1088              		.code	16
 1089              		.thumb_func
 1090              		.type	get_next_good_spad, %function
 1091              	get_next_good_spad:
 1092              	.LFB6:
 397:Api\core\src/vl53l0x_api_calibration.c **** 
 398:Api\core\src/vl53l0x_api_calibration.c **** void get_next_good_spad(uint8_t goodSpadArray[], uint32_t size,
 399:Api\core\src/vl53l0x_api_calibration.c **** 			uint32_t curr, int32_t *next)
 400:Api\core\src/vl53l0x_api_calibration.c **** {
 1093              		.loc 1 400 0
 1094              		.cfi_startproc
 1095              		@ args = 0, pretend = 0, frame = 40
 1096              		@ frame_needed = 1, uses_anonymous_args = 0
 1097 0000 80B5     		push	{r7, lr}
 1098              		.cfi_def_cfa_offset 8
 1099              		.cfi_offset 7, -8
 1100              		.cfi_offset 14, -4
 1101 0002 8AB0     		sub	sp, sp, #40
 1102              		.cfi_def_cfa_offset 48
 1103 0004 00AF     		add	r7, sp, #0
 1104              		.cfi_def_cfa_register 7
 1105 0006 F860     		str	r0, [r7, #12]
 1106 0008 B960     		str	r1, [r7, #8]
 1107 000a 7A60     		str	r2, [r7, #4]
 1108 000c 3B60     		str	r3, [r7]
 401:Api\core\src/vl53l0x_api_calibration.c **** 	uint32_t startIndex;
 402:Api\core\src/vl53l0x_api_calibration.c **** 	uint32_t fineOffset;
 403:Api\core\src/vl53l0x_api_calibration.c **** 	uint32_t cSpadsPerByte = 8;
 1109              		.loc 1 403 0
 1110 000e 0823     		movs	r3, #8
 1111 0010 BB61     		str	r3, [r7, #24]
 404:Api\core\src/vl53l0x_api_calibration.c **** 	uint32_t coarseIndex;
 405:Api\core\src/vl53l0x_api_calibration.c **** 	uint32_t fineIndex;
ARM GAS  C:\Users\ilya\AppData\Local\Temp\ccWKU7si.s 			page 28


 406:Api\core\src/vl53l0x_api_calibration.c **** 	uint8_t dataByte;
 407:Api\core\src/vl53l0x_api_calibration.c **** 	uint8_t success = 0;
 1112              		.loc 1 407 0
 1113 0012 1E23     		movs	r3, #30
 1114 0014 FB18     		adds	r3, r7, r3
 1115 0016 0022     		movs	r2, #0
 1116 0018 1A70     		strb	r2, [r3]
 408:Api\core\src/vl53l0x_api_calibration.c **** 
 409:Api\core\src/vl53l0x_api_calibration.c **** 	/*
 410:Api\core\src/vl53l0x_api_calibration.c **** 	 * Starting with the current good spad, loop through the array to find
 411:Api\core\src/vl53l0x_api_calibration.c **** 	 * the next. i.e. the next bit set in the sequence.
 412:Api\core\src/vl53l0x_api_calibration.c **** 	 *
 413:Api\core\src/vl53l0x_api_calibration.c **** 	 * The coarse index is the byte index of the array and the fine index is
 414:Api\core\src/vl53l0x_api_calibration.c **** 	 * the index of the bit within each byte.
 415:Api\core\src/vl53l0x_api_calibration.c **** 	 */
 416:Api\core\src/vl53l0x_api_calibration.c **** 
 417:Api\core\src/vl53l0x_api_calibration.c **** 	*next = -1;
 1117              		.loc 1 417 0
 1118 001a 3B68     		ldr	r3, [r7]
 1119 001c 0122     		movs	r2, #1
 1120 001e 5242     		rsbs	r2, r2, #0
 1121 0020 1A60     		str	r2, [r3]
 418:Api\core\src/vl53l0x_api_calibration.c **** 
 419:Api\core\src/vl53l0x_api_calibration.c **** 	startIndex = curr / cSpadsPerByte;
 1122              		.loc 1 419 0
 1123 0022 B969     		ldr	r1, [r7, #24]
 1124 0024 7868     		ldr	r0, [r7, #4]
 1125 0026 FFF7FEFF 		bl	__aeabi_uidiv
 1126 002a 0300     		movs	r3, r0
 1127 002c 7B61     		str	r3, [r7, #20]
 420:Api\core\src/vl53l0x_api_calibration.c **** 	fineOffset = curr % cSpadsPerByte;
 1128              		.loc 1 420 0
 1129 002e 7B68     		ldr	r3, [r7, #4]
 1130 0030 B969     		ldr	r1, [r7, #24]
 1131 0032 1800     		movs	r0, r3
 1132 0034 FFF7FEFF 		bl	__aeabi_uidivmod
 1133 0038 0B00     		movs	r3, r1
 1134 003a 3B61     		str	r3, [r7, #16]
 421:Api\core\src/vl53l0x_api_calibration.c **** 
 422:Api\core\src/vl53l0x_api_calibration.c **** 	for (coarseIndex = startIndex; ((coarseIndex < size) && !success);
 1135              		.loc 1 422 0
 1136 003c 7B69     		ldr	r3, [r7, #20]
 1137 003e 7B62     		str	r3, [r7, #36]
 1138 0040 3BE0     		b	.L53
 1139              	.L60:
 423:Api\core\src/vl53l0x_api_calibration.c **** 				coarseIndex++) {
 424:Api\core\src/vl53l0x_api_calibration.c **** 		fineIndex = 0;
 1140              		.loc 1 424 0
 1141 0042 0023     		movs	r3, #0
 1142 0044 3B62     		str	r3, [r7, #32]
 425:Api\core\src/vl53l0x_api_calibration.c **** 		dataByte = goodSpadArray[coarseIndex];
 1143              		.loc 1 425 0
 1144 0046 FA68     		ldr	r2, [r7, #12]
 1145 0048 7B6A     		ldr	r3, [r7, #36]
 1146 004a D218     		adds	r2, r2, r3
 1147 004c 1F23     		movs	r3, #31
 1148 004e FB18     		adds	r3, r7, r3
ARM GAS  C:\Users\ilya\AppData\Local\Temp\ccWKU7si.s 			page 29


 1149 0050 1278     		ldrb	r2, [r2]
 1150 0052 1A70     		strb	r2, [r3]
 426:Api\core\src/vl53l0x_api_calibration.c **** 
 427:Api\core\src/vl53l0x_api_calibration.c **** 		if (coarseIndex == startIndex) {
 1151              		.loc 1 427 0
 1152 0054 7A6A     		ldr	r2, [r7, #36]
 1153 0056 7B69     		ldr	r3, [r7, #20]
 1154 0058 9A42     		cmp	r2, r3
 1155 005a 27D1     		bne	.L55
 428:Api\core\src/vl53l0x_api_calibration.c **** 			/* locate the bit position of the provided current
 429:Api\core\src/vl53l0x_api_calibration.c **** 			 * spad bit before iterating */
 430:Api\core\src/vl53l0x_api_calibration.c **** 			dataByte >>= fineOffset;
 1156              		.loc 1 430 0
 1157 005c 1F23     		movs	r3, #31
 1158 005e FB18     		adds	r3, r7, r3
 1159 0060 1A78     		ldrb	r2, [r3]
 1160 0062 3B69     		ldr	r3, [r7, #16]
 1161 0064 1A41     		asrs	r2, r2, r3
 1162 0066 1F23     		movs	r3, #31
 1163 0068 FB18     		adds	r3, r7, r3
 1164 006a 1A70     		strb	r2, [r3]
 431:Api\core\src/vl53l0x_api_calibration.c **** 			fineIndex = fineOffset;
 1165              		.loc 1 431 0
 1166 006c 3B69     		ldr	r3, [r7, #16]
 1167 006e 3B62     		str	r3, [r7, #32]
 432:Api\core\src/vl53l0x_api_calibration.c **** 		}
 433:Api\core\src/vl53l0x_api_calibration.c **** 
 434:Api\core\src/vl53l0x_api_calibration.c **** 		while (fineIndex < cSpadsPerByte) {
 1168              		.loc 1 434 0
 1169 0070 1CE0     		b	.L55
 1170              	.L58:
 435:Api\core\src/vl53l0x_api_calibration.c **** 			if ((dataByte & 0x1) == 1) {
 1171              		.loc 1 435 0
 1172 0072 1F23     		movs	r3, #31
 1173 0074 FB18     		adds	r3, r7, r3
 1174 0076 1B78     		ldrb	r3, [r3]
 1175 0078 0122     		movs	r2, #1
 1176 007a 1340     		ands	r3, r2
 1177 007c 0CD0     		beq	.L56
 436:Api\core\src/vl53l0x_api_calibration.c **** 				success = 1;
 1178              		.loc 1 436 0
 1179 007e 1E23     		movs	r3, #30
 1180 0080 FB18     		adds	r3, r7, r3
 1181 0082 0122     		movs	r2, #1
 1182 0084 1A70     		strb	r2, [r3]
 437:Api\core\src/vl53l0x_api_calibration.c **** 				*next = coarseIndex * cSpadsPerByte + fineIndex;
 1183              		.loc 1 437 0
 1184 0086 7B6A     		ldr	r3, [r7, #36]
 1185 0088 BA69     		ldr	r2, [r7, #24]
 1186 008a 5A43     		muls	r2, r3
 1187 008c 3B6A     		ldr	r3, [r7, #32]
 1188 008e D318     		adds	r3, r2, r3
 1189 0090 1A00     		movs	r2, r3
 1190 0092 3B68     		ldr	r3, [r7]
 1191 0094 1A60     		str	r2, [r3]
 438:Api\core\src/vl53l0x_api_calibration.c **** 				break;
 1192              		.loc 1 438 0
ARM GAS  C:\Users\ilya\AppData\Local\Temp\ccWKU7si.s 			page 30


 1193 0096 0DE0     		b	.L57
 1194              	.L56:
 439:Api\core\src/vl53l0x_api_calibration.c **** 			}
 440:Api\core\src/vl53l0x_api_calibration.c **** 			dataByte >>= 1;
 1195              		.loc 1 440 0
 1196 0098 1F23     		movs	r3, #31
 1197 009a FB18     		adds	r3, r7, r3
 1198 009c 1F22     		movs	r2, #31
 1199 009e BA18     		adds	r2, r7, r2
 1200 00a0 1278     		ldrb	r2, [r2]
 1201 00a2 5208     		lsrs	r2, r2, #1
 1202 00a4 1A70     		strb	r2, [r3]
 441:Api\core\src/vl53l0x_api_calibration.c **** 			fineIndex++;
 1203              		.loc 1 441 0
 1204 00a6 3B6A     		ldr	r3, [r7, #32]
 1205 00a8 0133     		adds	r3, r3, #1
 1206 00aa 3B62     		str	r3, [r7, #32]
 1207              	.L55:
 434:Api\core\src/vl53l0x_api_calibration.c **** 			if ((dataByte & 0x1) == 1) {
 1208              		.loc 1 434 0
 1209 00ac 3A6A     		ldr	r2, [r7, #32]
 1210 00ae BB69     		ldr	r3, [r7, #24]
 1211 00b0 9A42     		cmp	r2, r3
 1212 00b2 DED3     		bcc	.L58
 1213              	.L57:
 423:Api\core\src/vl53l0x_api_calibration.c **** 		fineIndex = 0;
 1214              		.loc 1 423 0
 1215 00b4 7B6A     		ldr	r3, [r7, #36]
 1216 00b6 0133     		adds	r3, r3, #1
 1217 00b8 7B62     		str	r3, [r7, #36]
 1218              	.L53:
 422:Api\core\src/vl53l0x_api_calibration.c **** 				coarseIndex++) {
 1219              		.loc 1 422 0 discriminator 1
 1220 00ba 7A6A     		ldr	r2, [r7, #36]
 1221 00bc BB68     		ldr	r3, [r7, #8]
 1222 00be 9A42     		cmp	r2, r3
 1223 00c0 04D2     		bcs	.L61
 422:Api\core\src/vl53l0x_api_calibration.c **** 				coarseIndex++) {
 1224              		.loc 1 422 0 is_stmt 0 discriminator 2
 1225 00c2 1E23     		movs	r3, #30
 1226 00c4 FB18     		adds	r3, r7, r3
 1227 00c6 1B78     		ldrb	r3, [r3]
 1228 00c8 002B     		cmp	r3, #0
 1229 00ca BAD0     		beq	.L60
 1230              	.L61:
 442:Api\core\src/vl53l0x_api_calibration.c **** 		}
 443:Api\core\src/vl53l0x_api_calibration.c **** 	}
 444:Api\core\src/vl53l0x_api_calibration.c **** }
 1231              		.loc 1 444 0 is_stmt 1
 1232 00cc C046     		nop
 1233 00ce BD46     		mov	sp, r7
 1234 00d0 0AB0     		add	sp, sp, #40
 1235              		@ sp needed
 1236 00d2 80BD     		pop	{r7, pc}
 1237              		.cfi_endproc
 1238              	.LFE6:
 1239              		.size	get_next_good_spad, .-get_next_good_spad
ARM GAS  C:\Users\ilya\AppData\Local\Temp\ccWKU7si.s 			page 31


 1240              		.section	.text.is_aperture,"ax",%progbits
 1241              		.align	2
 1242              		.global	is_aperture
 1243              		.code	16
 1244              		.thumb_func
 1245              		.type	is_aperture, %function
 1246              	is_aperture:
 1247              	.LFB7:
 445:Api\core\src/vl53l0x_api_calibration.c **** 
 446:Api\core\src/vl53l0x_api_calibration.c **** 
 447:Api\core\src/vl53l0x_api_calibration.c **** uint8_t is_aperture(uint32_t spadIndex)
 448:Api\core\src/vl53l0x_api_calibration.c **** {
 1248              		.loc 1 448 0
 1249              		.cfi_startproc
 1250              		@ args = 0, pretend = 0, frame = 16
 1251              		@ frame_needed = 1, uses_anonymous_args = 0
 1252 0000 80B5     		push	{r7, lr}
 1253              		.cfi_def_cfa_offset 8
 1254              		.cfi_offset 7, -8
 1255              		.cfi_offset 14, -4
 1256 0002 84B0     		sub	sp, sp, #16
 1257              		.cfi_def_cfa_offset 24
 1258 0004 00AF     		add	r7, sp, #0
 1259              		.cfi_def_cfa_register 7
 1260 0006 7860     		str	r0, [r7, #4]
 449:Api\core\src/vl53l0x_api_calibration.c **** 	/*
 450:Api\core\src/vl53l0x_api_calibration.c **** 	 * This function reports if a given spad index is an aperture SPAD by
 451:Api\core\src/vl53l0x_api_calibration.c **** 	 * deriving the quadrant.
 452:Api\core\src/vl53l0x_api_calibration.c **** 	 */
 453:Api\core\src/vl53l0x_api_calibration.c **** 	uint32_t quadrant;
 454:Api\core\src/vl53l0x_api_calibration.c **** 	uint8_t isAperture = 1;
 1261              		.loc 1 454 0
 1262 0008 0F23     		movs	r3, #15
 1263 000a FB18     		adds	r3, r7, r3
 1264 000c 0122     		movs	r2, #1
 1265 000e 1A70     		strb	r2, [r3]
 455:Api\core\src/vl53l0x_api_calibration.c **** 	quadrant = spadIndex >> 6;
 1266              		.loc 1 455 0
 1267 0010 7B68     		ldr	r3, [r7, #4]
 1268 0012 9B09     		lsrs	r3, r3, #6
 1269 0014 BB60     		str	r3, [r7, #8]
 456:Api\core\src/vl53l0x_api_calibration.c **** 	if (refArrayQuadrants[quadrant] == REF_ARRAY_SPAD_0)
 1270              		.loc 1 456 0
 1271 0016 084B     		ldr	r3, .L65
 1272 0018 BA68     		ldr	r2, [r7, #8]
 1273 001a 9200     		lsls	r2, r2, #2
 1274 001c D358     		ldr	r3, [r2, r3]
 1275 001e 002B     		cmp	r3, #0
 1276 0020 03D1     		bne	.L63
 457:Api\core\src/vl53l0x_api_calibration.c **** 		isAperture = 0;
 1277              		.loc 1 457 0
 1278 0022 0F23     		movs	r3, #15
 1279 0024 FB18     		adds	r3, r7, r3
 1280 0026 0022     		movs	r2, #0
 1281 0028 1A70     		strb	r2, [r3]
 1282              	.L63:
 458:Api\core\src/vl53l0x_api_calibration.c **** 
ARM GAS  C:\Users\ilya\AppData\Local\Temp\ccWKU7si.s 			page 32


 459:Api\core\src/vl53l0x_api_calibration.c **** 	return isAperture;
 1283              		.loc 1 459 0
 1284 002a 0F23     		movs	r3, #15
 1285 002c FB18     		adds	r3, r7, r3
 1286 002e 1B78     		ldrb	r3, [r3]
 460:Api\core\src/vl53l0x_api_calibration.c **** }
 1287              		.loc 1 460 0
 1288 0030 1800     		movs	r0, r3
 1289 0032 BD46     		mov	sp, r7
 1290 0034 04B0     		add	sp, sp, #16
 1291              		@ sp needed
 1292 0036 80BD     		pop	{r7, pc}
 1293              	.L66:
 1294              		.align	2
 1295              	.L65:
 1296 0038 00000000 		.word	refArrayQuadrants
 1297              		.cfi_endproc
 1298              	.LFE7:
 1299              		.size	is_aperture, .-is_aperture
 1300              		.section	.text.enable_spad_bit,"ax",%progbits
 1301              		.align	2
 1302              		.global	enable_spad_bit
 1303              		.code	16
 1304              		.thumb_func
 1305              		.type	enable_spad_bit, %function
 1306              	enable_spad_bit:
 1307              	.LFB8:
 461:Api\core\src/vl53l0x_api_calibration.c **** 
 462:Api\core\src/vl53l0x_api_calibration.c **** 
 463:Api\core\src/vl53l0x_api_calibration.c **** VL53L0X_Error enable_spad_bit(uint8_t spadArray[], uint32_t size,
 464:Api\core\src/vl53l0x_api_calibration.c **** 	uint32_t spadIndex)
 465:Api\core\src/vl53l0x_api_calibration.c **** {
 1308              		.loc 1 465 0
 1309              		.cfi_startproc
 1310              		@ args = 0, pretend = 0, frame = 32
 1311              		@ frame_needed = 1, uses_anonymous_args = 0
 1312 0000 80B5     		push	{r7, lr}
 1313              		.cfi_def_cfa_offset 8
 1314              		.cfi_offset 7, -8
 1315              		.cfi_offset 14, -4
 1316 0002 88B0     		sub	sp, sp, #32
 1317              		.cfi_def_cfa_offset 40
 1318 0004 00AF     		add	r7, sp, #0
 1319              		.cfi_def_cfa_register 7
 1320 0006 F860     		str	r0, [r7, #12]
 1321 0008 B960     		str	r1, [r7, #8]
 1322 000a 7A60     		str	r2, [r7, #4]
 466:Api\core\src/vl53l0x_api_calibration.c **** 	VL53L0X_Error status = VL53L0X_ERROR_NONE;
 1323              		.loc 1 466 0
 1324 000c 1F23     		movs	r3, #31
 1325 000e FB18     		adds	r3, r7, r3
 1326 0010 0022     		movs	r2, #0
 1327 0012 1A70     		strb	r2, [r3]
 467:Api\core\src/vl53l0x_api_calibration.c **** 	uint32_t cSpadsPerByte = 8;
 1328              		.loc 1 467 0
 1329 0014 0823     		movs	r3, #8
 1330 0016 BB61     		str	r3, [r7, #24]
ARM GAS  C:\Users\ilya\AppData\Local\Temp\ccWKU7si.s 			page 33


 468:Api\core\src/vl53l0x_api_calibration.c **** 	uint32_t coarseIndex;
 469:Api\core\src/vl53l0x_api_calibration.c **** 	uint32_t fineIndex;
 470:Api\core\src/vl53l0x_api_calibration.c **** 
 471:Api\core\src/vl53l0x_api_calibration.c **** 	coarseIndex = spadIndex / cSpadsPerByte;
 1331              		.loc 1 471 0
 1332 0018 B969     		ldr	r1, [r7, #24]
 1333 001a 7868     		ldr	r0, [r7, #4]
 1334 001c FFF7FEFF 		bl	__aeabi_uidiv
 1335 0020 0300     		movs	r3, r0
 1336 0022 7B61     		str	r3, [r7, #20]
 472:Api\core\src/vl53l0x_api_calibration.c **** 	fineIndex = spadIndex % cSpadsPerByte;
 1337              		.loc 1 472 0
 1338 0024 7B68     		ldr	r3, [r7, #4]
 1339 0026 B969     		ldr	r1, [r7, #24]
 1340 0028 1800     		movs	r0, r3
 1341 002a FFF7FEFF 		bl	__aeabi_uidivmod
 1342 002e 0B00     		movs	r3, r1
 1343 0030 3B61     		str	r3, [r7, #16]
 473:Api\core\src/vl53l0x_api_calibration.c **** 	if (coarseIndex >= size)
 1344              		.loc 1 473 0
 1345 0032 7A69     		ldr	r2, [r7, #20]
 1346 0034 BB68     		ldr	r3, [r7, #8]
 1347 0036 9A42     		cmp	r2, r3
 1348 0038 04D3     		bcc	.L68
 474:Api\core\src/vl53l0x_api_calibration.c **** 		status = VL53L0X_ERROR_REF_SPAD_INIT;
 1349              		.loc 1 474 0
 1350 003a 1F23     		movs	r3, #31
 1351 003c FB18     		adds	r3, r7, r3
 1352 003e CE22     		movs	r2, #206
 1353 0040 1A70     		strb	r2, [r3]
 1354 0042 10E0     		b	.L69
 1355              	.L68:
 475:Api\core\src/vl53l0x_api_calibration.c **** 	else
 476:Api\core\src/vl53l0x_api_calibration.c **** 		spadArray[coarseIndex] |= (1 << fineIndex);
 1356              		.loc 1 476 0
 1357 0044 FA68     		ldr	r2, [r7, #12]
 1358 0046 7B69     		ldr	r3, [r7, #20]
 1359 0048 D318     		adds	r3, r2, r3
 1360 004a F968     		ldr	r1, [r7, #12]
 1361 004c 7A69     		ldr	r2, [r7, #20]
 1362 004e 8A18     		adds	r2, r1, r2
 1363 0050 1278     		ldrb	r2, [r2]
 1364 0052 51B2     		sxtb	r1, r2
 1365 0054 0120     		movs	r0, #1
 1366 0056 3A69     		ldr	r2, [r7, #16]
 1367 0058 9040     		lsls	r0, r0, r2
 1368 005a 0200     		movs	r2, r0
 1369 005c 52B2     		sxtb	r2, r2
 1370 005e 0A43     		orrs	r2, r1
 1371 0060 52B2     		sxtb	r2, r2
 1372 0062 D2B2     		uxtb	r2, r2
 1373 0064 1A70     		strb	r2, [r3]
 1374              	.L69:
 477:Api\core\src/vl53l0x_api_calibration.c **** 
 478:Api\core\src/vl53l0x_api_calibration.c **** 	return status;
 1375              		.loc 1 478 0
 1376 0066 1F23     		movs	r3, #31
ARM GAS  C:\Users\ilya\AppData\Local\Temp\ccWKU7si.s 			page 34


 1377 0068 FB18     		adds	r3, r7, r3
 1378 006a 1B78     		ldrb	r3, [r3]
 1379 006c 5BB2     		sxtb	r3, r3
 479:Api\core\src/vl53l0x_api_calibration.c **** }
 1380              		.loc 1 479 0
 1381 006e 1800     		movs	r0, r3
 1382 0070 BD46     		mov	sp, r7
 1383 0072 08B0     		add	sp, sp, #32
 1384              		@ sp needed
 1385 0074 80BD     		pop	{r7, pc}
 1386              		.cfi_endproc
 1387              	.LFE8:
 1388              		.size	enable_spad_bit, .-enable_spad_bit
 1389 0076 C046     		.section	.text.count_enabled_spads,"ax",%progbits
 1390              		.align	2
 1391              		.global	count_enabled_spads
 1392              		.code	16
 1393              		.thumb_func
 1394              		.type	count_enabled_spads, %function
 1395              	count_enabled_spads:
 1396              	.LFB9:
 480:Api\core\src/vl53l0x_api_calibration.c **** 
 481:Api\core\src/vl53l0x_api_calibration.c **** VL53L0X_Error count_enabled_spads(uint8_t spadArray[],
 482:Api\core\src/vl53l0x_api_calibration.c **** 		uint32_t byteCount, uint32_t maxSpads,
 483:Api\core\src/vl53l0x_api_calibration.c **** 		uint32_t *pTotalSpadsEnabled, uint8_t *pIsAperture)
 484:Api\core\src/vl53l0x_api_calibration.c **** {
 1397              		.loc 1 484 0
 1398              		.cfi_startproc
 1399              		@ args = 4, pretend = 0, frame = 48
 1400              		@ frame_needed = 1, uses_anonymous_args = 0
 1401 0000 80B5     		push	{r7, lr}
 1402              		.cfi_def_cfa_offset 8
 1403              		.cfi_offset 7, -8
 1404              		.cfi_offset 14, -4
 1405 0002 8CB0     		sub	sp, sp, #48
 1406              		.cfi_def_cfa_offset 56
 1407 0004 00AF     		add	r7, sp, #0
 1408              		.cfi_def_cfa_register 7
 1409 0006 F860     		str	r0, [r7, #12]
 1410 0008 B960     		str	r1, [r7, #8]
 1411 000a 7A60     		str	r2, [r7, #4]
 1412 000c 3B60     		str	r3, [r7]
 485:Api\core\src/vl53l0x_api_calibration.c **** 	VL53L0X_Error status = VL53L0X_ERROR_NONE;
 1413              		.loc 1 485 0
 1414 000e 2F23     		movs	r3, #47
 1415 0010 FB18     		adds	r3, r7, r3
 1416 0012 0022     		movs	r2, #0
 1417 0014 1A70     		strb	r2, [r3]
 486:Api\core\src/vl53l0x_api_calibration.c **** 	uint32_t cSpadsPerByte = 8;
 1418              		.loc 1 486 0
 1419 0016 0823     		movs	r3, #8
 1420 0018 FB61     		str	r3, [r7, #28]
 487:Api\core\src/vl53l0x_api_calibration.c **** 	uint32_t lastByte;
 488:Api\core\src/vl53l0x_api_calibration.c **** 	uint32_t lastBit;
 489:Api\core\src/vl53l0x_api_calibration.c **** 	uint32_t byteIndex = 0;
 1421              		.loc 1 489 0
 1422 001a 0023     		movs	r3, #0
ARM GAS  C:\Users\ilya\AppData\Local\Temp\ccWKU7si.s 			page 35


 1423 001c BB62     		str	r3, [r7, #40]
 490:Api\core\src/vl53l0x_api_calibration.c **** 	uint32_t bitIndex = 0;
 1424              		.loc 1 490 0
 1425 001e 0023     		movs	r3, #0
 1426 0020 7B62     		str	r3, [r7, #36]
 491:Api\core\src/vl53l0x_api_calibration.c **** 	uint8_t tempByte;
 492:Api\core\src/vl53l0x_api_calibration.c **** 	uint8_t spadTypeIdentified = 0;
 1427              		.loc 1 492 0
 1428 0022 2223     		movs	r3, #34
 1429 0024 FB18     		adds	r3, r7, r3
 1430 0026 0022     		movs	r2, #0
 1431 0028 1A70     		strb	r2, [r3]
 493:Api\core\src/vl53l0x_api_calibration.c **** 
 494:Api\core\src/vl53l0x_api_calibration.c **** 	/* The entire array will not be used for spads, therefore the last
 495:Api\core\src/vl53l0x_api_calibration.c **** 	 * byte and last bit is determined from the max spads value.
 496:Api\core\src/vl53l0x_api_calibration.c **** 	 */
 497:Api\core\src/vl53l0x_api_calibration.c **** 
 498:Api\core\src/vl53l0x_api_calibration.c **** 	lastByte = maxSpads / cSpadsPerByte;
 1432              		.loc 1 498 0
 1433 002a F969     		ldr	r1, [r7, #28]
 1434 002c 7868     		ldr	r0, [r7, #4]
 1435 002e FFF7FEFF 		bl	__aeabi_uidiv
 1436 0032 0300     		movs	r3, r0
 1437 0034 BB61     		str	r3, [r7, #24]
 499:Api\core\src/vl53l0x_api_calibration.c **** 	lastBit = maxSpads % cSpadsPerByte;
 1438              		.loc 1 499 0
 1439 0036 7B68     		ldr	r3, [r7, #4]
 1440 0038 F969     		ldr	r1, [r7, #28]
 1441 003a 1800     		movs	r0, r3
 1442 003c FFF7FEFF 		bl	__aeabi_uidivmod
 1443 0040 0B00     		movs	r3, r1
 1444 0042 7B61     		str	r3, [r7, #20]
 500:Api\core\src/vl53l0x_api_calibration.c **** 
 501:Api\core\src/vl53l0x_api_calibration.c **** 	/* Check that the max spads value does not exceed the array bounds. */
 502:Api\core\src/vl53l0x_api_calibration.c **** 	if (lastByte >= byteCount)
 1445              		.loc 1 502 0
 1446 0044 BA69     		ldr	r2, [r7, #24]
 1447 0046 BB68     		ldr	r3, [r7, #8]
 1448 0048 9A42     		cmp	r2, r3
 1449 004a 03D3     		bcc	.L72
 503:Api\core\src/vl53l0x_api_calibration.c **** 		status = VL53L0X_ERROR_REF_SPAD_INIT;
 1450              		.loc 1 503 0
 1451 004c 2F23     		movs	r3, #47
 1452 004e FB18     		adds	r3, r7, r3
 1453 0050 CE22     		movs	r2, #206
 1454 0052 1A70     		strb	r2, [r3]
 1455              	.L72:
 504:Api\core\src/vl53l0x_api_calibration.c **** 
 505:Api\core\src/vl53l0x_api_calibration.c **** 	*pTotalSpadsEnabled = 0;
 1456              		.loc 1 505 0
 1457 0054 3B68     		ldr	r3, [r7]
 1458 0056 0022     		movs	r2, #0
 1459 0058 1A60     		str	r2, [r3]
 506:Api\core\src/vl53l0x_api_calibration.c **** 
 507:Api\core\src/vl53l0x_api_calibration.c **** 	/* Count the bits enabled in the whole bytes */
 508:Api\core\src/vl53l0x_api_calibration.c **** 	for (byteIndex = 0; byteIndex <= (lastByte - 1); byteIndex++) {
 1460              		.loc 1 508 0
ARM GAS  C:\Users\ilya\AppData\Local\Temp\ccWKU7si.s 			page 36


 1461 005a 0023     		movs	r3, #0
 1462 005c BB62     		str	r3, [r7, #40]
 1463 005e 3AE0     		b	.L73
 1464              	.L78:
 509:Api\core\src/vl53l0x_api_calibration.c **** 		tempByte = spadArray[byteIndex];
 1465              		.loc 1 509 0
 1466 0060 FA68     		ldr	r2, [r7, #12]
 1467 0062 BB6A     		ldr	r3, [r7, #40]
 1468 0064 D218     		adds	r2, r2, r3
 1469 0066 2323     		movs	r3, #35
 1470 0068 FB18     		adds	r3, r7, r3
 1471 006a 1278     		ldrb	r2, [r2]
 1472 006c 1A70     		strb	r2, [r3]
 510:Api\core\src/vl53l0x_api_calibration.c **** 
 511:Api\core\src/vl53l0x_api_calibration.c **** 		for (bitIndex = 0; bitIndex <= cSpadsPerByte; bitIndex++) {
 1473              		.loc 1 511 0
 1474 006e 0023     		movs	r3, #0
 1475 0070 7B62     		str	r3, [r7, #36]
 1476 0072 29E0     		b	.L74
 1477              	.L77:
 512:Api\core\src/vl53l0x_api_calibration.c **** 			if ((tempByte & 0x01) == 1) {
 1478              		.loc 1 512 0
 1479 0074 2323     		movs	r3, #35
 1480 0076 FB18     		adds	r3, r7, r3
 1481 0078 1B78     		ldrb	r3, [r3]
 1482 007a 0122     		movs	r2, #1
 1483 007c 1340     		ands	r3, r2
 1484 007e 19D0     		beq	.L75
 513:Api\core\src/vl53l0x_api_calibration.c **** 				(*pTotalSpadsEnabled)++;
 1485              		.loc 1 513 0
 1486 0080 3B68     		ldr	r3, [r7]
 1487 0082 1B68     		ldr	r3, [r3]
 1488 0084 5A1C     		adds	r2, r3, #1
 1489 0086 3B68     		ldr	r3, [r7]
 1490 0088 1A60     		str	r2, [r3]
 514:Api\core\src/vl53l0x_api_calibration.c **** 
 515:Api\core\src/vl53l0x_api_calibration.c **** 				if (!spadTypeIdentified) {
 1491              		.loc 1 515 0
 1492 008a 2223     		movs	r3, #34
 1493 008c FB18     		adds	r3, r7, r3
 1494 008e 1B78     		ldrb	r3, [r3]
 1495 0090 002B     		cmp	r3, #0
 1496 0092 0FD1     		bne	.L75
 516:Api\core\src/vl53l0x_api_calibration.c **** 					*pIsAperture = 1;
 1497              		.loc 1 516 0
 1498 0094 BB6B     		ldr	r3, [r7, #56]
 1499 0096 0122     		movs	r2, #1
 1500 0098 1A70     		strb	r2, [r3]
 517:Api\core\src/vl53l0x_api_calibration.c **** 					if ((byteIndex < 2) && (bitIndex < 4))
 1501              		.loc 1 517 0
 1502 009a BB6A     		ldr	r3, [r7, #40]
 1503 009c 012B     		cmp	r3, #1
 1504 009e 05D8     		bhi	.L76
 1505              		.loc 1 517 0 is_stmt 0 discriminator 1
 1506 00a0 7B6A     		ldr	r3, [r7, #36]
 1507 00a2 032B     		cmp	r3, #3
 1508 00a4 02D8     		bhi	.L76
ARM GAS  C:\Users\ilya\AppData\Local\Temp\ccWKU7si.s 			page 37


 518:Api\core\src/vl53l0x_api_calibration.c **** 							*pIsAperture = 0;
 1509              		.loc 1 518 0 is_stmt 1
 1510 00a6 BB6B     		ldr	r3, [r7, #56]
 1511 00a8 0022     		movs	r2, #0
 1512 00aa 1A70     		strb	r2, [r3]
 1513              	.L76:
 519:Api\core\src/vl53l0x_api_calibration.c **** 					spadTypeIdentified = 1;
 1514              		.loc 1 519 0
 1515 00ac 2223     		movs	r3, #34
 1516 00ae FB18     		adds	r3, r7, r3
 1517 00b0 0122     		movs	r2, #1
 1518 00b2 1A70     		strb	r2, [r3]
 1519              	.L75:
 520:Api\core\src/vl53l0x_api_calibration.c **** 				}
 521:Api\core\src/vl53l0x_api_calibration.c **** 			}
 522:Api\core\src/vl53l0x_api_calibration.c **** 			tempByte >>= 1;
 1520              		.loc 1 522 0 discriminator 2
 1521 00b4 2323     		movs	r3, #35
 1522 00b6 FB18     		adds	r3, r7, r3
 1523 00b8 2322     		movs	r2, #35
 1524 00ba BA18     		adds	r2, r7, r2
 1525 00bc 1278     		ldrb	r2, [r2]
 1526 00be 5208     		lsrs	r2, r2, #1
 1527 00c0 1A70     		strb	r2, [r3]
 511:Api\core\src/vl53l0x_api_calibration.c **** 			if ((tempByte & 0x01) == 1) {
 1528              		.loc 1 511 0 discriminator 2
 1529 00c2 7B6A     		ldr	r3, [r7, #36]
 1530 00c4 0133     		adds	r3, r3, #1
 1531 00c6 7B62     		str	r3, [r7, #36]
 1532              	.L74:
 511:Api\core\src/vl53l0x_api_calibration.c **** 			if ((tempByte & 0x01) == 1) {
 1533              		.loc 1 511 0 is_stmt 0 discriminator 1
 1534 00c8 7A6A     		ldr	r2, [r7, #36]
 1535 00ca FB69     		ldr	r3, [r7, #28]
 1536 00cc 9A42     		cmp	r2, r3
 1537 00ce D1D9     		bls	.L77
 508:Api\core\src/vl53l0x_api_calibration.c **** 		tempByte = spadArray[byteIndex];
 1538              		.loc 1 508 0 is_stmt 1 discriminator 2
 1539 00d0 BB6A     		ldr	r3, [r7, #40]
 1540 00d2 0133     		adds	r3, r3, #1
 1541 00d4 BB62     		str	r3, [r7, #40]
 1542              	.L73:
 508:Api\core\src/vl53l0x_api_calibration.c **** 		tempByte = spadArray[byteIndex];
 1543              		.loc 1 508 0 is_stmt 0 discriminator 1
 1544 00d6 BB69     		ldr	r3, [r7, #24]
 1545 00d8 5A1E     		subs	r2, r3, #1
 1546 00da BB6A     		ldr	r3, [r7, #40]
 1547 00dc 9A42     		cmp	r2, r3
 1548 00de BFD2     		bcs	.L78
 523:Api\core\src/vl53l0x_api_calibration.c **** 		}
 524:Api\core\src/vl53l0x_api_calibration.c **** 	}
 525:Api\core\src/vl53l0x_api_calibration.c **** 
 526:Api\core\src/vl53l0x_api_calibration.c **** 	/* Count the number of bits enabled in the last byte accounting
 527:Api\core\src/vl53l0x_api_calibration.c **** 	 * for the fact that not all bits in the byte may be used.
 528:Api\core\src/vl53l0x_api_calibration.c **** 	 */
 529:Api\core\src/vl53l0x_api_calibration.c **** 	tempByte = spadArray[lastByte];
 1549              		.loc 1 529 0 is_stmt 1
ARM GAS  C:\Users\ilya\AppData\Local\Temp\ccWKU7si.s 			page 38


 1550 00e0 FA68     		ldr	r2, [r7, #12]
 1551 00e2 BB69     		ldr	r3, [r7, #24]
 1552 00e4 D218     		adds	r2, r2, r3
 1553 00e6 2323     		movs	r3, #35
 1554 00e8 FB18     		adds	r3, r7, r3
 1555 00ea 1278     		ldrb	r2, [r2]
 1556 00ec 1A70     		strb	r2, [r3]
 530:Api\core\src/vl53l0x_api_calibration.c **** 
 531:Api\core\src/vl53l0x_api_calibration.c **** 	for (bitIndex = 0; bitIndex <= lastBit; bitIndex++) {
 1557              		.loc 1 531 0
 1558 00ee 0023     		movs	r3, #0
 1559 00f0 7B62     		str	r3, [r7, #36]
 1560 00f2 0DE0     		b	.L79
 1561              	.L81:
 532:Api\core\src/vl53l0x_api_calibration.c **** 		if ((tempByte & 0x01) == 1)
 1562              		.loc 1 532 0
 1563 00f4 2323     		movs	r3, #35
 1564 00f6 FB18     		adds	r3, r7, r3
 1565 00f8 1B78     		ldrb	r3, [r3]
 1566 00fa 0122     		movs	r2, #1
 1567 00fc 1340     		ands	r3, r2
 1568 00fe 04D0     		beq	.L80
 533:Api\core\src/vl53l0x_api_calibration.c **** 			(*pTotalSpadsEnabled)++;
 1569              		.loc 1 533 0
 1570 0100 3B68     		ldr	r3, [r7]
 1571 0102 1B68     		ldr	r3, [r3]
 1572 0104 5A1C     		adds	r2, r3, #1
 1573 0106 3B68     		ldr	r3, [r7]
 1574 0108 1A60     		str	r2, [r3]
 1575              	.L80:
 531:Api\core\src/vl53l0x_api_calibration.c **** 		if ((tempByte & 0x01) == 1)
 1576              		.loc 1 531 0 discriminator 2
 1577 010a 7B6A     		ldr	r3, [r7, #36]
 1578 010c 0133     		adds	r3, r3, #1
 1579 010e 7B62     		str	r3, [r7, #36]
 1580              	.L79:
 531:Api\core\src/vl53l0x_api_calibration.c **** 		if ((tempByte & 0x01) == 1)
 1581              		.loc 1 531 0 is_stmt 0 discriminator 1
 1582 0110 7A6A     		ldr	r2, [r7, #36]
 1583 0112 7B69     		ldr	r3, [r7, #20]
 1584 0114 9A42     		cmp	r2, r3
 1585 0116 EDD9     		bls	.L81
 534:Api\core\src/vl53l0x_api_calibration.c **** 	}
 535:Api\core\src/vl53l0x_api_calibration.c **** 
 536:Api\core\src/vl53l0x_api_calibration.c **** 	return status;
 1586              		.loc 1 536 0 is_stmt 1
 1587 0118 2F23     		movs	r3, #47
 1588 011a FB18     		adds	r3, r7, r3
 1589 011c 1B78     		ldrb	r3, [r3]
 1590 011e 5BB2     		sxtb	r3, r3
 537:Api\core\src/vl53l0x_api_calibration.c **** }
 1591              		.loc 1 537 0
 1592 0120 1800     		movs	r0, r3
 1593 0122 BD46     		mov	sp, r7
 1594 0124 0CB0     		add	sp, sp, #48
 1595              		@ sp needed
 1596 0126 80BD     		pop	{r7, pc}
ARM GAS  C:\Users\ilya\AppData\Local\Temp\ccWKU7si.s 			page 39


 1597              		.cfi_endproc
 1598              	.LFE9:
 1599              		.size	count_enabled_spads, .-count_enabled_spads
 1600              		.section	.text.set_ref_spad_map,"ax",%progbits
 1601              		.align	2
 1602              		.global	set_ref_spad_map
 1603              		.code	16
 1604              		.thumb_func
 1605              		.type	set_ref_spad_map, %function
 1606              	set_ref_spad_map:
 1607              	.LFB10:
 538:Api\core\src/vl53l0x_api_calibration.c **** 
 539:Api\core\src/vl53l0x_api_calibration.c **** VL53L0X_Error set_ref_spad_map(VL53L0X_DEV Dev, uint8_t *refSpadArray)
 540:Api\core\src/vl53l0x_api_calibration.c **** {
 1608              		.loc 1 540 0
 1609              		.cfi_startproc
 1610              		@ args = 0, pretend = 0, frame = 16
 1611              		@ frame_needed = 1, uses_anonymous_args = 0
 1612 0000 90B5     		push	{r4, r7, lr}
 1613              		.cfi_def_cfa_offset 12
 1614              		.cfi_offset 4, -12
 1615              		.cfi_offset 7, -8
 1616              		.cfi_offset 14, -4
 1617 0002 85B0     		sub	sp, sp, #20
 1618              		.cfi_def_cfa_offset 32
 1619 0004 00AF     		add	r7, sp, #0
 1620              		.cfi_def_cfa_register 7
 1621 0006 7860     		str	r0, [r7, #4]
 1622 0008 3960     		str	r1, [r7]
 541:Api\core\src/vl53l0x_api_calibration.c **** 	VL53L0X_Error status = VL53L0X_WriteMulti(Dev,
 1623              		.loc 1 541 0
 1624 000a 0F23     		movs	r3, #15
 1625 000c FC18     		adds	r4, r7, r3
 1626 000e 3A68     		ldr	r2, [r7]
 1627 0010 7868     		ldr	r0, [r7, #4]
 1628 0012 0623     		movs	r3, #6
 1629 0014 B021     		movs	r1, #176
 1630 0016 FFF7FEFF 		bl	VL53L0X_WriteMulti
 1631 001a 0300     		movs	r3, r0
 1632 001c 2370     		strb	r3, [r4]
 542:Api\core\src/vl53l0x_api_calibration.c **** 				VL53L0X_REG_GLOBAL_CONFIG_SPAD_ENABLES_REF_0,
 543:Api\core\src/vl53l0x_api_calibration.c **** 				refSpadArray, 6);
 544:Api\core\src/vl53l0x_api_calibration.c **** 	return status;
 1633              		.loc 1 544 0
 1634 001e 0F23     		movs	r3, #15
 1635 0020 FB18     		adds	r3, r7, r3
 1636 0022 1B78     		ldrb	r3, [r3]
 1637 0024 5BB2     		sxtb	r3, r3
 545:Api\core\src/vl53l0x_api_calibration.c **** }
 1638              		.loc 1 545 0
 1639 0026 1800     		movs	r0, r3
 1640 0028 BD46     		mov	sp, r7
 1641 002a 05B0     		add	sp, sp, #20
 1642              		@ sp needed
 1643 002c 90BD     		pop	{r4, r7, pc}
 1644              		.cfi_endproc
 1645              	.LFE10:
ARM GAS  C:\Users\ilya\AppData\Local\Temp\ccWKU7si.s 			page 40


 1646              		.size	set_ref_spad_map, .-set_ref_spad_map
 1647 002e C046     		.section	.text.get_ref_spad_map,"ax",%progbits
 1648              		.align	2
 1649              		.global	get_ref_spad_map
 1650              		.code	16
 1651              		.thumb_func
 1652              		.type	get_ref_spad_map, %function
 1653              	get_ref_spad_map:
 1654              	.LFB11:
 546:Api\core\src/vl53l0x_api_calibration.c **** 
 547:Api\core\src/vl53l0x_api_calibration.c **** VL53L0X_Error get_ref_spad_map(VL53L0X_DEV Dev, uint8_t *refSpadArray)
 548:Api\core\src/vl53l0x_api_calibration.c **** {
 1655              		.loc 1 548 0
 1656              		.cfi_startproc
 1657              		@ args = 0, pretend = 0, frame = 16
 1658              		@ frame_needed = 1, uses_anonymous_args = 0
 1659 0000 90B5     		push	{r4, r7, lr}
 1660              		.cfi_def_cfa_offset 12
 1661              		.cfi_offset 4, -12
 1662              		.cfi_offset 7, -8
 1663              		.cfi_offset 14, -4
 1664 0002 85B0     		sub	sp, sp, #20
 1665              		.cfi_def_cfa_offset 32
 1666 0004 00AF     		add	r7, sp, #0
 1667              		.cfi_def_cfa_register 7
 1668 0006 7860     		str	r0, [r7, #4]
 1669 0008 3960     		str	r1, [r7]
 549:Api\core\src/vl53l0x_api_calibration.c **** 	VL53L0X_Error status = VL53L0X_ReadMulti(Dev,
 1670              		.loc 1 549 0
 1671 000a 0F23     		movs	r3, #15
 1672 000c FC18     		adds	r4, r7, r3
 1673 000e 3A68     		ldr	r2, [r7]
 1674 0010 7868     		ldr	r0, [r7, #4]
 1675 0012 0623     		movs	r3, #6
 1676 0014 B021     		movs	r1, #176
 1677 0016 FFF7FEFF 		bl	VL53L0X_ReadMulti
 1678 001a 0300     		movs	r3, r0
 1679 001c 2370     		strb	r3, [r4]
 550:Api\core\src/vl53l0x_api_calibration.c **** 				VL53L0X_REG_GLOBAL_CONFIG_SPAD_ENABLES_REF_0,
 551:Api\core\src/vl53l0x_api_calibration.c **** 				refSpadArray,
 552:Api\core\src/vl53l0x_api_calibration.c **** 				6);
 553:Api\core\src/vl53l0x_api_calibration.c **** 	return status;
 1680              		.loc 1 553 0
 1681 001e 0F23     		movs	r3, #15
 1682 0020 FB18     		adds	r3, r7, r3
 1683 0022 1B78     		ldrb	r3, [r3]
 1684 0024 5BB2     		sxtb	r3, r3
 554:Api\core\src/vl53l0x_api_calibration.c **** }
 1685              		.loc 1 554 0
 1686 0026 1800     		movs	r0, r3
 1687 0028 BD46     		mov	sp, r7
 1688 002a 05B0     		add	sp, sp, #20
 1689              		@ sp needed
 1690 002c 90BD     		pop	{r4, r7, pc}
 1691              		.cfi_endproc
 1692              	.LFE11:
 1693              		.size	get_ref_spad_map, .-get_ref_spad_map
ARM GAS  C:\Users\ilya\AppData\Local\Temp\ccWKU7si.s 			page 41


 1694 002e C046     		.section	.text.enable_ref_spads,"ax",%progbits
 1695              		.align	2
 1696              		.global	enable_ref_spads
 1697              		.code	16
 1698              		.thumb_func
 1699              		.type	enable_ref_spads, %function
 1700              	enable_ref_spads:
 1701              	.LFB12:
 555:Api\core\src/vl53l0x_api_calibration.c **** 
 556:Api\core\src/vl53l0x_api_calibration.c **** VL53L0X_Error enable_ref_spads(VL53L0X_DEV Dev,
 557:Api\core\src/vl53l0x_api_calibration.c **** 				uint8_t apertureSpads,
 558:Api\core\src/vl53l0x_api_calibration.c **** 				uint8_t goodSpadArray[],
 559:Api\core\src/vl53l0x_api_calibration.c **** 				uint8_t spadArray[],
 560:Api\core\src/vl53l0x_api_calibration.c **** 				uint32_t size,
 561:Api\core\src/vl53l0x_api_calibration.c **** 				uint32_t start,
 562:Api\core\src/vl53l0x_api_calibration.c **** 				uint32_t offset,
 563:Api\core\src/vl53l0x_api_calibration.c **** 				uint32_t spadCount,
 564:Api\core\src/vl53l0x_api_calibration.c **** 				uint32_t *lastSpad)
 565:Api\core\src/vl53l0x_api_calibration.c **** {
 1702              		.loc 1 565 0
 1703              		.cfi_startproc
 1704              		@ args = 20, pretend = 0, frame = 48
 1705              		@ frame_needed = 1, uses_anonymous_args = 0
 1706 0000 90B5     		push	{r4, r7, lr}
 1707              		.cfi_def_cfa_offset 12
 1708              		.cfi_offset 4, -12
 1709              		.cfi_offset 7, -8
 1710              		.cfi_offset 14, -4
 1711 0002 8DB0     		sub	sp, sp, #52
 1712              		.cfi_def_cfa_offset 64
 1713 0004 00AF     		add	r7, sp, #0
 1714              		.cfi_def_cfa_register 7
 1715 0006 F860     		str	r0, [r7, #12]
 1716 0008 7A60     		str	r2, [r7, #4]
 1717 000a 3B60     		str	r3, [r7]
 1718 000c 0B23     		movs	r3, #11
 1719 000e FB18     		adds	r3, r7, r3
 1720 0010 0A1C     		adds	r2, r1, #0
 1721 0012 1A70     		strb	r2, [r3]
 566:Api\core\src/vl53l0x_api_calibration.c **** 	VL53L0X_Error status = VL53L0X_ERROR_NONE;
 1722              		.loc 1 566 0
 1723 0014 2F23     		movs	r3, #47
 1724 0016 FB18     		adds	r3, r7, r3
 1725 0018 0022     		movs	r2, #0
 1726 001a 1A70     		strb	r2, [r3]
 567:Api\core\src/vl53l0x_api_calibration.c **** 	uint32_t index;
 568:Api\core\src/vl53l0x_api_calibration.c **** 	uint32_t i;
 569:Api\core\src/vl53l0x_api_calibration.c **** 	int32_t nextGoodSpad = offset;
 1727              		.loc 1 569 0
 1728 001c BB6C     		ldr	r3, [r7, #72]
 1729 001e FB61     		str	r3, [r7, #28]
 570:Api\core\src/vl53l0x_api_calibration.c **** 	uint32_t currentSpad;
 571:Api\core\src/vl53l0x_api_calibration.c **** 	uint8_t checkSpadArray[6];
 572:Api\core\src/vl53l0x_api_calibration.c **** 
 573:Api\core\src/vl53l0x_api_calibration.c **** 	/*
 574:Api\core\src/vl53l0x_api_calibration.c **** 	 * This function takes in a spad array which may or may not have SPADS
 575:Api\core\src/vl53l0x_api_calibration.c **** 	 * already enabled and appends from a given offset a requested number
ARM GAS  C:\Users\ilya\AppData\Local\Temp\ccWKU7si.s 			page 42


 576:Api\core\src/vl53l0x_api_calibration.c **** 	 * of new SPAD enables. The 'good spad map' is applied to
 577:Api\core\src/vl53l0x_api_calibration.c **** 	 * determine the next SPADs to enable.
 578:Api\core\src/vl53l0x_api_calibration.c **** 	 *
 579:Api\core\src/vl53l0x_api_calibration.c **** 	 * This function applies to only aperture or only non-aperture spads.
 580:Api\core\src/vl53l0x_api_calibration.c **** 	 * Checks are performed to ensure this.
 581:Api\core\src/vl53l0x_api_calibration.c **** 	 */
 582:Api\core\src/vl53l0x_api_calibration.c **** 
 583:Api\core\src/vl53l0x_api_calibration.c **** 	currentSpad = offset;
 1730              		.loc 1 583 0
 1731 0020 BB6C     		ldr	r3, [r7, #72]
 1732 0022 3B62     		str	r3, [r7, #32]
 584:Api\core\src/vl53l0x_api_calibration.c **** 	for (index = 0; index < spadCount; index++) {
 1733              		.loc 1 584 0
 1734 0024 0023     		movs	r3, #0
 1735 0026 BB62     		str	r3, [r7, #40]
 1736 0028 2FE0     		b	.L88
 1737              	.L92:
 585:Api\core\src/vl53l0x_api_calibration.c **** 		get_next_good_spad(goodSpadArray, size, currentSpad,
 1738              		.loc 1 585 0
 1739 002a 1C23     		movs	r3, #28
 1740 002c FB18     		adds	r3, r7, r3
 1741 002e 3A6A     		ldr	r2, [r7, #32]
 1742 0030 396C     		ldr	r1, [r7, #64]
 1743 0032 7868     		ldr	r0, [r7, #4]
 1744 0034 FFF7FEFF 		bl	get_next_good_spad
 586:Api\core\src/vl53l0x_api_calibration.c **** 			&nextGoodSpad);
 587:Api\core\src/vl53l0x_api_calibration.c **** 
 588:Api\core\src/vl53l0x_api_calibration.c **** 		if (nextGoodSpad == -1) {
 1745              		.loc 1 588 0
 1746 0038 FB69     		ldr	r3, [r7, #28]
 1747 003a 0133     		adds	r3, r3, #1
 1748 003c 04D1     		bne	.L89
 589:Api\core\src/vl53l0x_api_calibration.c **** 			status = VL53L0X_ERROR_REF_SPAD_INIT;
 1749              		.loc 1 589 0
 1750 003e 2F23     		movs	r3, #47
 1751 0040 FB18     		adds	r3, r7, r3
 1752 0042 CE22     		movs	r2, #206
 1753 0044 1A70     		strb	r2, [r3]
 590:Api\core\src/vl53l0x_api_calibration.c **** 			break;
 1754              		.loc 1 590 0
 1755 0046 24E0     		b	.L90
 1756              	.L89:
 591:Api\core\src/vl53l0x_api_calibration.c **** 		}
 592:Api\core\src/vl53l0x_api_calibration.c **** 
 593:Api\core\src/vl53l0x_api_calibration.c **** 		/* Confirm that the next good SPAD is non-aperture */
 594:Api\core\src/vl53l0x_api_calibration.c **** 		if (is_aperture(start + nextGoodSpad) != apertureSpads) {
 1757              		.loc 1 594 0
 1758 0048 FB69     		ldr	r3, [r7, #28]
 1759 004a 1A00     		movs	r2, r3
 1760 004c 7B6C     		ldr	r3, [r7, #68]
 1761 004e D318     		adds	r3, r2, r3
 1762 0050 1800     		movs	r0, r3
 1763 0052 FFF7FEFF 		bl	is_aperture
 1764 0056 0300     		movs	r3, r0
 1765 0058 1A00     		movs	r2, r3
 1766 005a 0B23     		movs	r3, #11
 1767 005c FB18     		adds	r3, r7, r3
ARM GAS  C:\Users\ilya\AppData\Local\Temp\ccWKU7si.s 			page 43


 1768 005e 1B78     		ldrb	r3, [r3]
 1769 0060 9342     		cmp	r3, r2
 1770 0062 04D0     		beq	.L91
 595:Api\core\src/vl53l0x_api_calibration.c **** 			/* if we can't get the required number of good aperture
 596:Api\core\src/vl53l0x_api_calibration.c **** 			 * spads from the current quadrant then this is an error
 597:Api\core\src/vl53l0x_api_calibration.c **** 			 */
 598:Api\core\src/vl53l0x_api_calibration.c **** 			status = VL53L0X_ERROR_REF_SPAD_INIT;
 1771              		.loc 1 598 0
 1772 0064 2F23     		movs	r3, #47
 1773 0066 FB18     		adds	r3, r7, r3
 1774 0068 CE22     		movs	r2, #206
 1775 006a 1A70     		strb	r2, [r3]
 599:Api\core\src/vl53l0x_api_calibration.c **** 			break;
 1776              		.loc 1 599 0
 1777 006c 11E0     		b	.L90
 1778              	.L91:
 600:Api\core\src/vl53l0x_api_calibration.c **** 		}
 601:Api\core\src/vl53l0x_api_calibration.c **** 		currentSpad = (uint32_t)nextGoodSpad;
 1779              		.loc 1 601 0 discriminator 2
 1780 006e FB69     		ldr	r3, [r7, #28]
 1781 0070 3B62     		str	r3, [r7, #32]
 602:Api\core\src/vl53l0x_api_calibration.c **** 		enable_spad_bit(spadArray, size, currentSpad);
 1782              		.loc 1 602 0 discriminator 2
 1783 0072 3A6A     		ldr	r2, [r7, #32]
 1784 0074 396C     		ldr	r1, [r7, #64]
 1785 0076 3B68     		ldr	r3, [r7]
 1786 0078 1800     		movs	r0, r3
 1787 007a FFF7FEFF 		bl	enable_spad_bit
 603:Api\core\src/vl53l0x_api_calibration.c **** 		currentSpad++;
 1788              		.loc 1 603 0 discriminator 2
 1789 007e 3B6A     		ldr	r3, [r7, #32]
 1790 0080 0133     		adds	r3, r3, #1
 1791 0082 3B62     		str	r3, [r7, #32]
 584:Api\core\src/vl53l0x_api_calibration.c **** 		get_next_good_spad(goodSpadArray, size, currentSpad,
 1792              		.loc 1 584 0 discriminator 2
 1793 0084 BB6A     		ldr	r3, [r7, #40]
 1794 0086 0133     		adds	r3, r3, #1
 1795 0088 BB62     		str	r3, [r7, #40]
 1796              	.L88:
 584:Api\core\src/vl53l0x_api_calibration.c **** 		get_next_good_spad(goodSpadArray, size, currentSpad,
 1797              		.loc 1 584 0 is_stmt 0 discriminator 1
 1798 008a BA6A     		ldr	r2, [r7, #40]
 1799 008c FB6C     		ldr	r3, [r7, #76]
 1800 008e 9A42     		cmp	r2, r3
 1801 0090 CBD3     		bcc	.L92
 1802              	.L90:
 604:Api\core\src/vl53l0x_api_calibration.c **** 	}
 605:Api\core\src/vl53l0x_api_calibration.c **** 	*lastSpad = currentSpad;
 1803              		.loc 1 605 0 is_stmt 1
 1804 0092 3B6D     		ldr	r3, [r7, #80]
 1805 0094 3A6A     		ldr	r2, [r7, #32]
 1806 0096 1A60     		str	r2, [r3]
 606:Api\core\src/vl53l0x_api_calibration.c **** 
 607:Api\core\src/vl53l0x_api_calibration.c **** 	if (status == VL53L0X_ERROR_NONE)
 1807              		.loc 1 607 0
 1808 0098 2F23     		movs	r3, #47
 1809 009a FB18     		adds	r3, r7, r3
ARM GAS  C:\Users\ilya\AppData\Local\Temp\ccWKU7si.s 			page 44


 1810 009c 1B78     		ldrb	r3, [r3]
 1811 009e 5BB2     		sxtb	r3, r3
 1812 00a0 002B     		cmp	r3, #0
 1813 00a2 09D1     		bne	.L93
 608:Api\core\src/vl53l0x_api_calibration.c **** 		status = set_ref_spad_map(Dev, spadArray);
 1814              		.loc 1 608 0
 1815 00a4 2F23     		movs	r3, #47
 1816 00a6 FC18     		adds	r4, r7, r3
 1817 00a8 3A68     		ldr	r2, [r7]
 1818 00aa FB68     		ldr	r3, [r7, #12]
 1819 00ac 1100     		movs	r1, r2
 1820 00ae 1800     		movs	r0, r3
 1821 00b0 FFF7FEFF 		bl	set_ref_spad_map
 1822 00b4 0300     		movs	r3, r0
 1823 00b6 2370     		strb	r3, [r4]
 1824              	.L93:
 609:Api\core\src/vl53l0x_api_calibration.c **** 
 610:Api\core\src/vl53l0x_api_calibration.c **** 
 611:Api\core\src/vl53l0x_api_calibration.c **** 	if (status == VL53L0X_ERROR_NONE) {
 1825              		.loc 1 611 0
 1826 00b8 2F23     		movs	r3, #47
 1827 00ba FB18     		adds	r3, r7, r3
 1828 00bc 1B78     		ldrb	r3, [r3]
 1829 00be 5BB2     		sxtb	r3, r3
 1830 00c0 002B     		cmp	r3, #0
 1831 00c2 24D1     		bne	.L94
 612:Api\core\src/vl53l0x_api_calibration.c **** 		status = get_ref_spad_map(Dev, checkSpadArray);
 1832              		.loc 1 612 0
 1833 00c4 2F23     		movs	r3, #47
 1834 00c6 FC18     		adds	r4, r7, r3
 1835 00c8 1423     		movs	r3, #20
 1836 00ca FA18     		adds	r2, r7, r3
 1837 00cc FB68     		ldr	r3, [r7, #12]
 1838 00ce 1100     		movs	r1, r2
 1839 00d0 1800     		movs	r0, r3
 1840 00d2 FFF7FEFF 		bl	get_ref_spad_map
 1841 00d6 0300     		movs	r3, r0
 1842 00d8 2370     		strb	r3, [r4]
 613:Api\core\src/vl53l0x_api_calibration.c **** 
 614:Api\core\src/vl53l0x_api_calibration.c **** 		i = 0;
 1843              		.loc 1 614 0
 1844 00da 0023     		movs	r3, #0
 1845 00dc 7B62     		str	r3, [r7, #36]
 615:Api\core\src/vl53l0x_api_calibration.c **** 
 616:Api\core\src/vl53l0x_api_calibration.c **** 		/* Compare spad maps. If not equal report error. */
 617:Api\core\src/vl53l0x_api_calibration.c **** 		while (i < size) {
 1846              		.loc 1 617 0
 1847 00de 12E0     		b	.L95
 1848              	.L97:
 618:Api\core\src/vl53l0x_api_calibration.c **** 			if (spadArray[i] != checkSpadArray[i]) {
 1849              		.loc 1 618 0
 1850 00e0 3A68     		ldr	r2, [r7]
 1851 00e2 7B6A     		ldr	r3, [r7, #36]
 1852 00e4 D318     		adds	r3, r2, r3
 1853 00e6 1A78     		ldrb	r2, [r3]
 1854 00e8 1423     		movs	r3, #20
 1855 00ea F918     		adds	r1, r7, r3
ARM GAS  C:\Users\ilya\AppData\Local\Temp\ccWKU7si.s 			page 45


 1856 00ec 7B6A     		ldr	r3, [r7, #36]
 1857 00ee CB18     		adds	r3, r1, r3
 1858 00f0 1B78     		ldrb	r3, [r3]
 1859 00f2 9A42     		cmp	r2, r3
 1860 00f4 04D0     		beq	.L96
 619:Api\core\src/vl53l0x_api_calibration.c **** 				status = VL53L0X_ERROR_REF_SPAD_INIT;
 1861              		.loc 1 619 0
 1862 00f6 2F23     		movs	r3, #47
 1863 00f8 FB18     		adds	r3, r7, r3
 1864 00fa CE22     		movs	r2, #206
 1865 00fc 1A70     		strb	r2, [r3]
 620:Api\core\src/vl53l0x_api_calibration.c **** 				break;
 1866              		.loc 1 620 0
 1867 00fe 06E0     		b	.L94
 1868              	.L96:
 621:Api\core\src/vl53l0x_api_calibration.c **** 			}
 622:Api\core\src/vl53l0x_api_calibration.c **** 			i++;
 1869              		.loc 1 622 0
 1870 0100 7B6A     		ldr	r3, [r7, #36]
 1871 0102 0133     		adds	r3, r3, #1
 1872 0104 7B62     		str	r3, [r7, #36]
 1873              	.L95:
 617:Api\core\src/vl53l0x_api_calibration.c **** 			if (spadArray[i] != checkSpadArray[i]) {
 1874              		.loc 1 617 0
 1875 0106 7A6A     		ldr	r2, [r7, #36]
 1876 0108 3B6C     		ldr	r3, [r7, #64]
 1877 010a 9A42     		cmp	r2, r3
 1878 010c E8D3     		bcc	.L97
 1879              	.L94:
 623:Api\core\src/vl53l0x_api_calibration.c **** 		}
 624:Api\core\src/vl53l0x_api_calibration.c **** 	}
 625:Api\core\src/vl53l0x_api_calibration.c **** 	return status;
 1880              		.loc 1 625 0
 1881 010e 2F23     		movs	r3, #47
 1882 0110 FB18     		adds	r3, r7, r3
 1883 0112 1B78     		ldrb	r3, [r3]
 1884 0114 5BB2     		sxtb	r3, r3
 626:Api\core\src/vl53l0x_api_calibration.c **** }
 1885              		.loc 1 626 0
 1886 0116 1800     		movs	r0, r3
 1887 0118 BD46     		mov	sp, r7
 1888 011a 0DB0     		add	sp, sp, #52
 1889              		@ sp needed
 1890 011c 90BD     		pop	{r4, r7, pc}
 1891              		.cfi_endproc
 1892              	.LFE12:
 1893              		.size	enable_ref_spads, .-enable_ref_spads
 1894              		.section	.text.perform_ref_signal_measurement,"ax",%progbits
 1895              		.align	2
 1896              		.global	perform_ref_signal_measurement
 1897              		.code	16
 1898              		.thumb_func
 1899              		.type	perform_ref_signal_measurement, %function
 1900              	perform_ref_signal_measurement:
 1901              	.LFB13:
 627:Api\core\src/vl53l0x_api_calibration.c **** 
 628:Api\core\src/vl53l0x_api_calibration.c **** 
ARM GAS  C:\Users\ilya\AppData\Local\Temp\ccWKU7si.s 			page 46


 629:Api\core\src/vl53l0x_api_calibration.c **** VL53L0X_Error perform_ref_signal_measurement(VL53L0X_DEV Dev,
 630:Api\core\src/vl53l0x_api_calibration.c **** 		uint16_t *refSignalRate)
 631:Api\core\src/vl53l0x_api_calibration.c **** {
 1902              		.loc 1 631 0
 1903              		.cfi_startproc
 1904              		@ args = 0, pretend = 0, frame = 40
 1905              		@ frame_needed = 1, uses_anonymous_args = 0
 1906 0000 90B5     		push	{r4, r7, lr}
 1907              		.cfi_def_cfa_offset 12
 1908              		.cfi_offset 4, -12
 1909              		.cfi_offset 7, -8
 1910              		.cfi_offset 14, -4
 1911 0002 8BB0     		sub	sp, sp, #44
 1912              		.cfi_def_cfa_offset 56
 1913 0004 00AF     		add	r7, sp, #0
 1914              		.cfi_def_cfa_register 7
 1915 0006 7860     		str	r0, [r7, #4]
 1916 0008 3960     		str	r1, [r7]
 632:Api\core\src/vl53l0x_api_calibration.c **** 	VL53L0X_Error status = VL53L0X_ERROR_NONE;
 1917              		.loc 1 632 0
 1918 000a 2723     		movs	r3, #39
 1919 000c FB18     		adds	r3, r7, r3
 1920 000e 0022     		movs	r2, #0
 1921 0010 1A70     		strb	r2, [r3]
 633:Api\core\src/vl53l0x_api_calibration.c **** 	VL53L0X_RangingMeasurementData_t rangingMeasurementData;
 634:Api\core\src/vl53l0x_api_calibration.c **** 
 635:Api\core\src/vl53l0x_api_calibration.c **** 	uint8_t SequenceConfig = 0;
 1922              		.loc 1 635 0
 1923 0012 2623     		movs	r3, #38
 1924 0014 FB18     		adds	r3, r7, r3
 1925 0016 0022     		movs	r2, #0
 1926 0018 1A70     		strb	r2, [r3]
 636:Api\core\src/vl53l0x_api_calibration.c **** 
 637:Api\core\src/vl53l0x_api_calibration.c **** 	/* store the value of the sequence config,
 638:Api\core\src/vl53l0x_api_calibration.c **** 	 * this will be reset before the end of the function
 639:Api\core\src/vl53l0x_api_calibration.c **** 	 */
 640:Api\core\src/vl53l0x_api_calibration.c **** 
 641:Api\core\src/vl53l0x_api_calibration.c **** 	SequenceConfig = PALDevDataGet(Dev, SequenceConfig);
 1927              		.loc 1 641 0
 1928 001a 2623     		movs	r3, #38
 1929 001c FB18     		adds	r3, r7, r3
 1930 001e 7968     		ldr	r1, [r7, #4]
 1931 0020 9822     		movs	r2, #152
 1932 0022 5200     		lsls	r2, r2, #1
 1933 0024 8A5C     		ldrb	r2, [r1, r2]
 1934 0026 1A70     		strb	r2, [r3]
 642:Api\core\src/vl53l0x_api_calibration.c **** 
 643:Api\core\src/vl53l0x_api_calibration.c **** 	/*
 644:Api\core\src/vl53l0x_api_calibration.c **** 	 * This function performs a reference signal rate measurement.
 645:Api\core\src/vl53l0x_api_calibration.c **** 	 */
 646:Api\core\src/vl53l0x_api_calibration.c **** 	if (status == VL53L0X_ERROR_NONE)
 1935              		.loc 1 646 0
 1936 0028 2723     		movs	r3, #39
 1937 002a FB18     		adds	r3, r7, r3
 1938 002c 1B78     		ldrb	r3, [r3]
 1939 002e 5BB2     		sxtb	r3, r3
 1940 0030 002B     		cmp	r3, #0
ARM GAS  C:\Users\ilya\AppData\Local\Temp\ccWKU7si.s 			page 47


 1941 0032 09D1     		bne	.L100
 647:Api\core\src/vl53l0x_api_calibration.c **** 		status = VL53L0X_WrByte(Dev,
 1942              		.loc 1 647 0
 1943 0034 2723     		movs	r3, #39
 1944 0036 FC18     		adds	r4, r7, r3
 1945 0038 7B68     		ldr	r3, [r7, #4]
 1946 003a C022     		movs	r2, #192
 1947 003c 0121     		movs	r1, #1
 1948 003e 1800     		movs	r0, r3
 1949 0040 FFF7FEFF 		bl	VL53L0X_WrByte
 1950 0044 0300     		movs	r3, r0
 1951 0046 2370     		strb	r3, [r4]
 1952              	.L100:
 648:Api\core\src/vl53l0x_api_calibration.c **** 			VL53L0X_REG_SYSTEM_SEQUENCE_CONFIG, 0xC0);
 649:Api\core\src/vl53l0x_api_calibration.c **** 
 650:Api\core\src/vl53l0x_api_calibration.c **** 	if (status == VL53L0X_ERROR_NONE)
 1953              		.loc 1 650 0
 1954 0048 2723     		movs	r3, #39
 1955 004a FB18     		adds	r3, r7, r3
 1956 004c 1B78     		ldrb	r3, [r3]
 1957 004e 5BB2     		sxtb	r3, r3
 1958 0050 002B     		cmp	r3, #0
 1959 0052 0AD1     		bne	.L101
 651:Api\core\src/vl53l0x_api_calibration.c **** 		status = VL53L0X_PerformSingleRangingMeasurement(Dev,
 1960              		.loc 1 651 0
 1961 0054 2723     		movs	r3, #39
 1962 0056 FC18     		adds	r4, r7, r3
 1963 0058 0823     		movs	r3, #8
 1964 005a FA18     		adds	r2, r7, r3
 1965 005c 7B68     		ldr	r3, [r7, #4]
 1966 005e 1100     		movs	r1, r2
 1967 0060 1800     		movs	r0, r3
 1968 0062 FFF7FEFF 		bl	VL53L0X_PerformSingleRangingMeasurement
 1969 0066 0300     		movs	r3, r0
 1970 0068 2370     		strb	r3, [r4]
 1971              	.L101:
 652:Api\core\src/vl53l0x_api_calibration.c **** 				&rangingMeasurementData);
 653:Api\core\src/vl53l0x_api_calibration.c **** 
 654:Api\core\src/vl53l0x_api_calibration.c **** 	if (status == VL53L0X_ERROR_NONE)
 1972              		.loc 1 654 0
 1973 006a 2723     		movs	r3, #39
 1974 006c FB18     		adds	r3, r7, r3
 1975 006e 1B78     		ldrb	r3, [r3]
 1976 0070 5BB2     		sxtb	r3, r3
 1977 0072 002B     		cmp	r3, #0
 1978 0074 09D1     		bne	.L102
 655:Api\core\src/vl53l0x_api_calibration.c **** 		status = VL53L0X_WrByte(Dev, 0xFF, 0x01);
 1979              		.loc 1 655 0
 1980 0076 2723     		movs	r3, #39
 1981 0078 FC18     		adds	r4, r7, r3
 1982 007a 7B68     		ldr	r3, [r7, #4]
 1983 007c 0122     		movs	r2, #1
 1984 007e FF21     		movs	r1, #255
 1985 0080 1800     		movs	r0, r3
 1986 0082 FFF7FEFF 		bl	VL53L0X_WrByte
 1987 0086 0300     		movs	r3, r0
 1988 0088 2370     		strb	r3, [r4]
ARM GAS  C:\Users\ilya\AppData\Local\Temp\ccWKU7si.s 			page 48


 1989              	.L102:
 656:Api\core\src/vl53l0x_api_calibration.c **** 
 657:Api\core\src/vl53l0x_api_calibration.c **** 	if (status == VL53L0X_ERROR_NONE)
 1990              		.loc 1 657 0
 1991 008a 2723     		movs	r3, #39
 1992 008c FB18     		adds	r3, r7, r3
 1993 008e 1B78     		ldrb	r3, [r3]
 1994 0090 5BB2     		sxtb	r3, r3
 1995 0092 002B     		cmp	r3, #0
 1996 0094 09D1     		bne	.L103
 658:Api\core\src/vl53l0x_api_calibration.c **** 		status = VL53L0X_RdWord(Dev,
 1997              		.loc 1 658 0
 1998 0096 2723     		movs	r3, #39
 1999 0098 FC18     		adds	r4, r7, r3
 2000 009a 3A68     		ldr	r2, [r7]
 2001 009c 7B68     		ldr	r3, [r7, #4]
 2002 009e B621     		movs	r1, #182
 2003 00a0 1800     		movs	r0, r3
 2004 00a2 FFF7FEFF 		bl	VL53L0X_RdWord
 2005 00a6 0300     		movs	r3, r0
 2006 00a8 2370     		strb	r3, [r4]
 2007              	.L103:
 659:Api\core\src/vl53l0x_api_calibration.c **** 			VL53L0X_REG_RESULT_PEAK_SIGNAL_RATE_REF,
 660:Api\core\src/vl53l0x_api_calibration.c **** 			refSignalRate);
 661:Api\core\src/vl53l0x_api_calibration.c **** 
 662:Api\core\src/vl53l0x_api_calibration.c **** 	if (status == VL53L0X_ERROR_NONE)
 2008              		.loc 1 662 0
 2009 00aa 2723     		movs	r3, #39
 2010 00ac FB18     		adds	r3, r7, r3
 2011 00ae 1B78     		ldrb	r3, [r3]
 2012 00b0 5BB2     		sxtb	r3, r3
 2013 00b2 002B     		cmp	r3, #0
 2014 00b4 09D1     		bne	.L104
 663:Api\core\src/vl53l0x_api_calibration.c **** 		status = VL53L0X_WrByte(Dev, 0xFF, 0x00);
 2015              		.loc 1 663 0
 2016 00b6 2723     		movs	r3, #39
 2017 00b8 FC18     		adds	r4, r7, r3
 2018 00ba 7B68     		ldr	r3, [r7, #4]
 2019 00bc 0022     		movs	r2, #0
 2020 00be FF21     		movs	r1, #255
 2021 00c0 1800     		movs	r0, r3
 2022 00c2 FFF7FEFF 		bl	VL53L0X_WrByte
 2023 00c6 0300     		movs	r3, r0
 2024 00c8 2370     		strb	r3, [r4]
 2025              	.L104:
 664:Api\core\src/vl53l0x_api_calibration.c **** 
 665:Api\core\src/vl53l0x_api_calibration.c **** 	if (status == VL53L0X_ERROR_NONE) {
 2026              		.loc 1 665 0
 2027 00ca 2723     		movs	r3, #39
 2028 00cc FB18     		adds	r3, r7, r3
 2029 00ce 1B78     		ldrb	r3, [r3]
 2030 00d0 5BB2     		sxtb	r3, r3
 2031 00d2 002B     		cmp	r3, #0
 2032 00d4 18D1     		bne	.L105
 666:Api\core\src/vl53l0x_api_calibration.c **** 		/* restore the previous Sequence Config */
 667:Api\core\src/vl53l0x_api_calibration.c **** 		status = VL53L0X_WrByte(Dev, VL53L0X_REG_SYSTEM_SEQUENCE_CONFIG,
 2033              		.loc 1 667 0
ARM GAS  C:\Users\ilya\AppData\Local\Temp\ccWKU7si.s 			page 49


 2034 00d6 2723     		movs	r3, #39
 2035 00d8 FC18     		adds	r4, r7, r3
 2036 00da 2623     		movs	r3, #38
 2037 00dc FB18     		adds	r3, r7, r3
 2038 00de 1A78     		ldrb	r2, [r3]
 2039 00e0 7B68     		ldr	r3, [r7, #4]
 2040 00e2 0121     		movs	r1, #1
 2041 00e4 1800     		movs	r0, r3
 2042 00e6 FFF7FEFF 		bl	VL53L0X_WrByte
 2043 00ea 0300     		movs	r3, r0
 2044 00ec 2370     		strb	r3, [r4]
 668:Api\core\src/vl53l0x_api_calibration.c **** 				SequenceConfig);
 669:Api\core\src/vl53l0x_api_calibration.c **** 		if (status == VL53L0X_ERROR_NONE)
 2045              		.loc 1 669 0
 2046 00ee 2723     		movs	r3, #39
 2047 00f0 FB18     		adds	r3, r7, r3
 2048 00f2 1B78     		ldrb	r3, [r3]
 2049 00f4 5BB2     		sxtb	r3, r3
 2050 00f6 002B     		cmp	r3, #0
 2051 00f8 06D1     		bne	.L105
 670:Api\core\src/vl53l0x_api_calibration.c **** 			PALDevDataSet(Dev, SequenceConfig, SequenceConfig);
 2052              		.loc 1 670 0
 2053 00fa 7A68     		ldr	r2, [r7, #4]
 2054 00fc 2623     		movs	r3, #38
 2055 00fe F918     		adds	r1, r7, r3
 2056 0100 9823     		movs	r3, #152
 2057 0102 5B00     		lsls	r3, r3, #1
 2058 0104 0978     		ldrb	r1, [r1]
 2059 0106 D154     		strb	r1, [r2, r3]
 2060              	.L105:
 671:Api\core\src/vl53l0x_api_calibration.c **** 	}
 672:Api\core\src/vl53l0x_api_calibration.c **** 
 673:Api\core\src/vl53l0x_api_calibration.c **** 	return status;
 2061              		.loc 1 673 0
 2062 0108 2723     		movs	r3, #39
 2063 010a FB18     		adds	r3, r7, r3
 2064 010c 1B78     		ldrb	r3, [r3]
 2065 010e 5BB2     		sxtb	r3, r3
 674:Api\core\src/vl53l0x_api_calibration.c **** }
 2066              		.loc 1 674 0
 2067 0110 1800     		movs	r0, r3
 2068 0112 BD46     		mov	sp, r7
 2069 0114 0BB0     		add	sp, sp, #44
 2070              		@ sp needed
 2071 0116 90BD     		pop	{r4, r7, pc}
 2072              		.cfi_endproc
 2073              	.LFE13:
 2074              		.size	perform_ref_signal_measurement, .-perform_ref_signal_measurement
 2075              		.section	.text.VL53L0X_perform_ref_spad_management,"ax",%progbits
 2076              		.align	2
 2077              		.global	VL53L0X_perform_ref_spad_management
 2078              		.code	16
 2079              		.thumb_func
 2080              		.type	VL53L0X_perform_ref_spad_management, %function
 2081              	VL53L0X_perform_ref_spad_management:
 2082              	.LFB14:
 675:Api\core\src/vl53l0x_api_calibration.c **** 
ARM GAS  C:\Users\ilya\AppData\Local\Temp\ccWKU7si.s 			page 50


 676:Api\core\src/vl53l0x_api_calibration.c **** VL53L0X_Error VL53L0X_perform_ref_spad_management(VL53L0X_DEV Dev,
 677:Api\core\src/vl53l0x_api_calibration.c **** 				uint32_t *refSpadCount,
 678:Api\core\src/vl53l0x_api_calibration.c **** 				uint8_t *isApertureSpads)
 679:Api\core\src/vl53l0x_api_calibration.c **** {
 2083              		.loc 1 679 0
 2084              		.cfi_startproc
 2085              		@ args = 0, pretend = 0, frame = 88
 2086              		@ frame_needed = 1, uses_anonymous_args = 0
 2087 0000 F0B5     		push	{r4, r5, r6, r7, lr}
 2088              		.cfi_def_cfa_offset 20
 2089              		.cfi_offset 4, -20
 2090              		.cfi_offset 5, -16
 2091              		.cfi_offset 6, -12
 2092              		.cfi_offset 7, -8
 2093              		.cfi_offset 14, -4
 2094 0002 9DB0     		sub	sp, sp, #116
 2095              		.cfi_def_cfa_offset 136
 2096 0004 06AF     		add	r7, sp, #24
 2097              		.cfi_def_cfa 7, 112
 2098 0006 F860     		str	r0, [r7, #12]
 2099 0008 B960     		str	r1, [r7, #8]
 2100 000a 7A60     		str	r2, [r7, #4]
 680:Api\core\src/vl53l0x_api_calibration.c **** 	VL53L0X_Error Status = VL53L0X_ERROR_NONE;
 2101              		.loc 1 680 0
 2102 000c 5723     		movs	r3, #87
 2103 000e FB18     		adds	r3, r7, r3
 2104 0010 0022     		movs	r2, #0
 2105 0012 1A70     		strb	r2, [r3]
 681:Api\core\src/vl53l0x_api_calibration.c **** 	uint8_t lastSpadArray[6];
 682:Api\core\src/vl53l0x_api_calibration.c **** 	uint8_t startSelect = 0xB4;
 2106              		.loc 1 682 0
 2107 0014 3A23     		movs	r3, #58
 2108 0016 FB18     		adds	r3, r7, r3
 2109 0018 B422     		movs	r2, #180
 2110 001a 1A70     		strb	r2, [r3]
 683:Api\core\src/vl53l0x_api_calibration.c **** 	uint32_t minimumSpadCount = 3;
 2111              		.loc 1 683 0
 2112 001c 0323     		movs	r3, #3
 2113 001e 7B63     		str	r3, [r7, #52]
 684:Api\core\src/vl53l0x_api_calibration.c **** 	uint32_t maxSpadCount = 44;
 2114              		.loc 1 684 0
 2115 0020 2C23     		movs	r3, #44
 2116 0022 3B63     		str	r3, [r7, #48]
 685:Api\core\src/vl53l0x_api_calibration.c **** 	uint32_t currentSpadIndex = 0;
 2117              		.loc 1 685 0
 2118 0024 0023     		movs	r3, #0
 2119 0026 3B65     		str	r3, [r7, #80]
 686:Api\core\src/vl53l0x_api_calibration.c **** 	uint32_t lastSpadIndex = 0;
 2120              		.loc 1 686 0
 2121 0028 0023     		movs	r3, #0
 2122 002a BB61     		str	r3, [r7, #24]
 687:Api\core\src/vl53l0x_api_calibration.c **** 	int32_t nextGoodSpad = 0;
 2123              		.loc 1 687 0
 2124 002c 0023     		movs	r3, #0
 2125 002e 7B61     		str	r3, [r7, #20]
 688:Api\core\src/vl53l0x_api_calibration.c **** 	uint16_t targetRefRate = 0x0A00; /* 20 MCPS in 9:7 format */
 2126              		.loc 1 688 0
ARM GAS  C:\Users\ilya\AppData\Local\Temp\ccWKU7si.s 			page 51


 2127 0030 2E23     		movs	r3, #46
 2128 0032 FB18     		adds	r3, r7, r3
 2129 0034 A022     		movs	r2, #160
 2130 0036 1201     		lsls	r2, r2, #4
 2131 0038 1A80     		strh	r2, [r3]
 689:Api\core\src/vl53l0x_api_calibration.c **** 	uint16_t peakSignalRateRef;
 690:Api\core\src/vl53l0x_api_calibration.c **** 	uint32_t needAptSpads = 0;
 2132              		.loc 1 690 0
 2133 003a 0023     		movs	r3, #0
 2134 003c FB64     		str	r3, [r7, #76]
 691:Api\core\src/vl53l0x_api_calibration.c **** 	uint32_t index = 0;
 2135              		.loc 1 691 0
 2136 003e 0023     		movs	r3, #0
 2137 0040 BB64     		str	r3, [r7, #72]
 692:Api\core\src/vl53l0x_api_calibration.c **** 	uint32_t spadArraySize = 6;
 2138              		.loc 1 692 0
 2139 0042 0623     		movs	r3, #6
 2140 0044 BB62     		str	r3, [r7, #40]
 693:Api\core\src/vl53l0x_api_calibration.c **** 	uint32_t signalRateDiff = 0;
 2141              		.loc 1 693 0
 2142 0046 0023     		movs	r3, #0
 2143 0048 7B62     		str	r3, [r7, #36]
 694:Api\core\src/vl53l0x_api_calibration.c **** 	uint32_t lastSignalRateDiff = 0;
 2144              		.loc 1 694 0
 2145 004a 0023     		movs	r3, #0
 2146 004c 7B64     		str	r3, [r7, #68]
 695:Api\core\src/vl53l0x_api_calibration.c **** 	uint8_t complete = 0;
 2147              		.loc 1 695 0
 2148 004e 4323     		movs	r3, #67
 2149 0050 FB18     		adds	r3, r7, r3
 2150 0052 0022     		movs	r2, #0
 2151 0054 1A70     		strb	r2, [r3]
 696:Api\core\src/vl53l0x_api_calibration.c **** 	uint8_t VhvSettings = 0;
 2152              		.loc 1 696 0
 2153 0056 1123     		movs	r3, #17
 2154 0058 FB18     		adds	r3, r7, r3
 2155 005a 0022     		movs	r2, #0
 2156 005c 1A70     		strb	r2, [r3]
 697:Api\core\src/vl53l0x_api_calibration.c **** 	uint8_t PhaseCal = 0;
 2157              		.loc 1 697 0
 2158 005e 1023     		movs	r3, #16
 2159 0060 FB18     		adds	r3, r7, r3
 2160 0062 0022     		movs	r2, #0
 2161 0064 1A70     		strb	r2, [r3]
 698:Api\core\src/vl53l0x_api_calibration.c **** 	uint32_t refSpadCount_int = 0;
 2162              		.loc 1 698 0
 2163 0066 0023     		movs	r3, #0
 2164 0068 FB63     		str	r3, [r7, #60]
 699:Api\core\src/vl53l0x_api_calibration.c **** 	uint8_t	 isApertureSpads_int = 0;
 2165              		.loc 1 699 0
 2166 006a 3B23     		movs	r3, #59
 2167 006c FB18     		adds	r3, r7, r3
 2168 006e 0022     		movs	r2, #0
 2169 0070 1A70     		strb	r2, [r3]
 700:Api\core\src/vl53l0x_api_calibration.c **** 
 701:Api\core\src/vl53l0x_api_calibration.c **** 	/*
 702:Api\core\src/vl53l0x_api_calibration.c **** 	 * The reference SPAD initialization procedure determines the minimum
ARM GAS  C:\Users\ilya\AppData\Local\Temp\ccWKU7si.s 			page 52


 703:Api\core\src/vl53l0x_api_calibration.c **** 	 * amount of reference spads to be enables to achieve a target reference
 704:Api\core\src/vl53l0x_api_calibration.c **** 	 * signal rate and should be performed once during initialization.
 705:Api\core\src/vl53l0x_api_calibration.c **** 	 *
 706:Api\core\src/vl53l0x_api_calibration.c **** 	 * Either aperture or non-aperture spads are applied but never both.
 707:Api\core\src/vl53l0x_api_calibration.c **** 	 * Firstly non-aperture spads are set, begining with 5 spads, and
 708:Api\core\src/vl53l0x_api_calibration.c **** 	 * increased one spad at a time until the closest measurement to the
 709:Api\core\src/vl53l0x_api_calibration.c **** 	 * target rate is achieved.
 710:Api\core\src/vl53l0x_api_calibration.c **** 	 *
 711:Api\core\src/vl53l0x_api_calibration.c **** 	 * If the target rate is exceeded when 5 non-aperture spads are enabled,
 712:Api\core\src/vl53l0x_api_calibration.c **** 	 * initialization is performed instead with aperture spads.
 713:Api\core\src/vl53l0x_api_calibration.c **** 	 *
 714:Api\core\src/vl53l0x_api_calibration.c **** 	 * When setting spads, a 'Good Spad Map' is applied.
 715:Api\core\src/vl53l0x_api_calibration.c **** 	 *
 716:Api\core\src/vl53l0x_api_calibration.c **** 	 * This procedure operates within a SPAD window of interest of a maximum
 717:Api\core\src/vl53l0x_api_calibration.c **** 	 * 44 spads.
 718:Api\core\src/vl53l0x_api_calibration.c **** 	 * The start point is currently fixed to 180, which lies towards the end
 719:Api\core\src/vl53l0x_api_calibration.c **** 	 * of the non-aperture quadrant and runs in to the adjacent aperture
 720:Api\core\src/vl53l0x_api_calibration.c **** 	 * quadrant.
 721:Api\core\src/vl53l0x_api_calibration.c **** 	 */
 722:Api\core\src/vl53l0x_api_calibration.c **** 
 723:Api\core\src/vl53l0x_api_calibration.c **** 
 724:Api\core\src/vl53l0x_api_calibration.c **** 	targetRefRate = PALDevDataGet(Dev, targetRefRate);
 2170              		.loc 1 724 0
 2171 0072 2E23     		movs	r3, #46
 2172 0074 FB18     		adds	r3, r7, r3
 2173 0076 F968     		ldr	r1, [r7, #12]
 2174 0078 9E22     		movs	r2, #158
 2175 007a 5200     		lsls	r2, r2, #1
 2176 007c 8A5A     		ldrh	r2, [r1, r2]
 2177 007e 1A80     		strh	r2, [r3]
 725:Api\core\src/vl53l0x_api_calibration.c **** 
 726:Api\core\src/vl53l0x_api_calibration.c **** 	/*
 727:Api\core\src/vl53l0x_api_calibration.c **** 	 * Initialize Spad arrays.
 728:Api\core\src/vl53l0x_api_calibration.c **** 	 * Currently the good spad map is initialised to 'All good'.
 729:Api\core\src/vl53l0x_api_calibration.c **** 	 * This is a short term implementation. The good spad map will be
 730:Api\core\src/vl53l0x_api_calibration.c **** 	 * provided as an input.
 731:Api\core\src/vl53l0x_api_calibration.c **** 	 * Note that there are 6 bytes. Only the first 44 bits will be used to
 732:Api\core\src/vl53l0x_api_calibration.c **** 	 * represent spads.
 733:Api\core\src/vl53l0x_api_calibration.c **** 	 */
 734:Api\core\src/vl53l0x_api_calibration.c **** 	for (index = 0; index < spadArraySize; index++)
 2178              		.loc 1 734 0
 2179 0080 0023     		movs	r3, #0
 2180 0082 BB64     		str	r3, [r7, #72]
 2181 0084 0AE0     		b	.L108
 2182              	.L109:
 735:Api\core\src/vl53l0x_api_calibration.c **** 		Dev->Data.SpadData.RefSpadEnables[index] = 0;
 2183              		.loc 1 735 0 discriminator 3
 2184 0086 F968     		ldr	r1, [r7, #12]
 2185 0088 9223     		movs	r3, #146
 2186 008a 5B00     		lsls	r3, r3, #1
 2187 008c BA6C     		ldr	r2, [r7, #72]
 2188 008e 8A18     		adds	r2, r1, r2
 2189 0090 D318     		adds	r3, r2, r3
 2190 0092 0022     		movs	r2, #0
 2191 0094 1A70     		strb	r2, [r3]
 734:Api\core\src/vl53l0x_api_calibration.c **** 		Dev->Data.SpadData.RefSpadEnables[index] = 0;
 2192              		.loc 1 734 0 discriminator 3
ARM GAS  C:\Users\ilya\AppData\Local\Temp\ccWKU7si.s 			page 53


 2193 0096 BB6C     		ldr	r3, [r7, #72]
 2194 0098 0133     		adds	r3, r3, #1
 2195 009a BB64     		str	r3, [r7, #72]
 2196              	.L108:
 734:Api\core\src/vl53l0x_api_calibration.c **** 		Dev->Data.SpadData.RefSpadEnables[index] = 0;
 2197              		.loc 1 734 0 is_stmt 0 discriminator 1
 2198 009c BA6C     		ldr	r2, [r7, #72]
 2199 009e BB6A     		ldr	r3, [r7, #40]
 2200 00a0 9A42     		cmp	r2, r3
 2201 00a2 F0D3     		bcc	.L109
 736:Api\core\src/vl53l0x_api_calibration.c **** 
 737:Api\core\src/vl53l0x_api_calibration.c **** 
 738:Api\core\src/vl53l0x_api_calibration.c **** 	Status = VL53L0X_WrByte(Dev, 0xFF, 0x01);
 2202              		.loc 1 738 0 is_stmt 1
 2203 00a4 5723     		movs	r3, #87
 2204 00a6 FC18     		adds	r4, r7, r3
 2205 00a8 FB68     		ldr	r3, [r7, #12]
 2206 00aa 0122     		movs	r2, #1
 2207 00ac FF21     		movs	r1, #255
 2208 00ae 1800     		movs	r0, r3
 2209 00b0 FFF7FEFF 		bl	VL53L0X_WrByte
 2210 00b4 0300     		movs	r3, r0
 2211 00b6 2370     		strb	r3, [r4]
 739:Api\core\src/vl53l0x_api_calibration.c **** 
 740:Api\core\src/vl53l0x_api_calibration.c **** 	if (Status == VL53L0X_ERROR_NONE)
 2212              		.loc 1 740 0
 2213 00b8 5723     		movs	r3, #87
 2214 00ba FB18     		adds	r3, r7, r3
 2215 00bc 1B78     		ldrb	r3, [r3]
 2216 00be 5BB2     		sxtb	r3, r3
 2217 00c0 002B     		cmp	r3, #0
 2218 00c2 09D1     		bne	.L110
 741:Api\core\src/vl53l0x_api_calibration.c **** 		Status = VL53L0X_WrByte(Dev,
 2219              		.loc 1 741 0
 2220 00c4 5723     		movs	r3, #87
 2221 00c6 FC18     		adds	r4, r7, r3
 2222 00c8 FB68     		ldr	r3, [r7, #12]
 2223 00ca 0022     		movs	r2, #0
 2224 00cc 4F21     		movs	r1, #79
 2225 00ce 1800     		movs	r0, r3
 2226 00d0 FFF7FEFF 		bl	VL53L0X_WrByte
 2227 00d4 0300     		movs	r3, r0
 2228 00d6 2370     		strb	r3, [r4]
 2229              	.L110:
 742:Api\core\src/vl53l0x_api_calibration.c **** 			VL53L0X_REG_DYNAMIC_SPAD_REF_EN_START_OFFSET, 0x00);
 743:Api\core\src/vl53l0x_api_calibration.c **** 
 744:Api\core\src/vl53l0x_api_calibration.c **** 	if (Status == VL53L0X_ERROR_NONE)
 2230              		.loc 1 744 0
 2231 00d8 5723     		movs	r3, #87
 2232 00da FB18     		adds	r3, r7, r3
 2233 00dc 1B78     		ldrb	r3, [r3]
 2234 00de 5BB2     		sxtb	r3, r3
 2235 00e0 002B     		cmp	r3, #0
 2236 00e2 09D1     		bne	.L111
 745:Api\core\src/vl53l0x_api_calibration.c **** 		Status = VL53L0X_WrByte(Dev,
 2237              		.loc 1 745 0
 2238 00e4 5723     		movs	r3, #87
ARM GAS  C:\Users\ilya\AppData\Local\Temp\ccWKU7si.s 			page 54


 2239 00e6 FC18     		adds	r4, r7, r3
 2240 00e8 FB68     		ldr	r3, [r7, #12]
 2241 00ea 2C22     		movs	r2, #44
 2242 00ec 4E21     		movs	r1, #78
 2243 00ee 1800     		movs	r0, r3
 2244 00f0 FFF7FEFF 		bl	VL53L0X_WrByte
 2245 00f4 0300     		movs	r3, r0
 2246 00f6 2370     		strb	r3, [r4]
 2247              	.L111:
 746:Api\core\src/vl53l0x_api_calibration.c **** 			VL53L0X_REG_DYNAMIC_SPAD_NUM_REQUESTED_REF_SPAD, 0x2C);
 747:Api\core\src/vl53l0x_api_calibration.c **** 
 748:Api\core\src/vl53l0x_api_calibration.c **** 	if (Status == VL53L0X_ERROR_NONE)
 2248              		.loc 1 748 0
 2249 00f8 5723     		movs	r3, #87
 2250 00fa FB18     		adds	r3, r7, r3
 2251 00fc 1B78     		ldrb	r3, [r3]
 2252 00fe 5BB2     		sxtb	r3, r3
 2253 0100 002B     		cmp	r3, #0
 2254 0102 09D1     		bne	.L112
 749:Api\core\src/vl53l0x_api_calibration.c **** 		Status = VL53L0X_WrByte(Dev, 0xFF, 0x00);
 2255              		.loc 1 749 0
 2256 0104 5723     		movs	r3, #87
 2257 0106 FC18     		adds	r4, r7, r3
 2258 0108 FB68     		ldr	r3, [r7, #12]
 2259 010a 0022     		movs	r2, #0
 2260 010c FF21     		movs	r1, #255
 2261 010e 1800     		movs	r0, r3
 2262 0110 FFF7FEFF 		bl	VL53L0X_WrByte
 2263 0114 0300     		movs	r3, r0
 2264 0116 2370     		strb	r3, [r4]
 2265              	.L112:
 750:Api\core\src/vl53l0x_api_calibration.c **** 
 751:Api\core\src/vl53l0x_api_calibration.c **** 	if (Status == VL53L0X_ERROR_NONE)
 2266              		.loc 1 751 0
 2267 0118 5723     		movs	r3, #87
 2268 011a FB18     		adds	r3, r7, r3
 2269 011c 1B78     		ldrb	r3, [r3]
 2270 011e 5BB2     		sxtb	r3, r3
 2271 0120 002B     		cmp	r3, #0
 2272 0122 0BD1     		bne	.L113
 752:Api\core\src/vl53l0x_api_calibration.c **** 		Status = VL53L0X_WrByte(Dev,
 2273              		.loc 1 752 0
 2274 0124 5723     		movs	r3, #87
 2275 0126 FC18     		adds	r4, r7, r3
 2276 0128 3A23     		movs	r3, #58
 2277 012a FB18     		adds	r3, r7, r3
 2278 012c 1A78     		ldrb	r2, [r3]
 2279 012e FB68     		ldr	r3, [r7, #12]
 2280 0130 B621     		movs	r1, #182
 2281 0132 1800     		movs	r0, r3
 2282 0134 FFF7FEFF 		bl	VL53L0X_WrByte
 2283 0138 0300     		movs	r3, r0
 2284 013a 2370     		strb	r3, [r4]
 2285              	.L113:
 753:Api\core\src/vl53l0x_api_calibration.c **** 			VL53L0X_REG_GLOBAL_CONFIG_REF_EN_START_SELECT,
 754:Api\core\src/vl53l0x_api_calibration.c **** 			startSelect);
 755:Api\core\src/vl53l0x_api_calibration.c **** 
ARM GAS  C:\Users\ilya\AppData\Local\Temp\ccWKU7si.s 			page 55


 756:Api\core\src/vl53l0x_api_calibration.c **** 
 757:Api\core\src/vl53l0x_api_calibration.c **** 	if (Status == VL53L0X_ERROR_NONE)
 2286              		.loc 1 757 0
 2287 013c 5723     		movs	r3, #87
 2288 013e FB18     		adds	r3, r7, r3
 2289 0140 1B78     		ldrb	r3, [r3]
 2290 0142 5BB2     		sxtb	r3, r3
 2291 0144 002B     		cmp	r3, #0
 2292 0146 09D1     		bne	.L114
 758:Api\core\src/vl53l0x_api_calibration.c **** 		Status = VL53L0X_WrByte(Dev,
 2293              		.loc 1 758 0
 2294 0148 5723     		movs	r3, #87
 2295 014a FC18     		adds	r4, r7, r3
 2296 014c FB68     		ldr	r3, [r7, #12]
 2297 014e 0022     		movs	r2, #0
 2298 0150 8021     		movs	r1, #128
 2299 0152 1800     		movs	r0, r3
 2300 0154 FFF7FEFF 		bl	VL53L0X_WrByte
 2301 0158 0300     		movs	r3, r0
 2302 015a 2370     		strb	r3, [r4]
 2303              	.L114:
 759:Api\core\src/vl53l0x_api_calibration.c **** 				VL53L0X_REG_POWER_MANAGEMENT_GO1_POWER_FORCE, 0);
 760:Api\core\src/vl53l0x_api_calibration.c **** 
 761:Api\core\src/vl53l0x_api_calibration.c **** 	/* Perform ref calibration */
 762:Api\core\src/vl53l0x_api_calibration.c **** 	if (Status == VL53L0X_ERROR_NONE)
 2304              		.loc 1 762 0
 2305 015c 5723     		movs	r3, #87
 2306 015e FB18     		adds	r3, r7, r3
 2307 0160 1B78     		ldrb	r3, [r3]
 2308 0162 5BB2     		sxtb	r3, r3
 2309 0164 002B     		cmp	r3, #0
 2310 0166 0BD1     		bne	.L115
 763:Api\core\src/vl53l0x_api_calibration.c **** 		Status = VL53L0X_perform_ref_calibration(Dev, &VhvSettings,
 2311              		.loc 1 763 0
 2312 0168 5723     		movs	r3, #87
 2313 016a FC18     		adds	r4, r7, r3
 2314 016c 1023     		movs	r3, #16
 2315 016e FA18     		adds	r2, r7, r3
 2316 0170 1123     		movs	r3, #17
 2317 0172 F918     		adds	r1, r7, r3
 2318 0174 F868     		ldr	r0, [r7, #12]
 2319 0176 0023     		movs	r3, #0
 2320 0178 FFF7FEFF 		bl	VL53L0X_perform_ref_calibration
 2321 017c 0300     		movs	r3, r0
 2322 017e 2370     		strb	r3, [r4]
 2323              	.L115:
 764:Api\core\src/vl53l0x_api_calibration.c **** 			&PhaseCal, 0);
 765:Api\core\src/vl53l0x_api_calibration.c **** 
 766:Api\core\src/vl53l0x_api_calibration.c **** 	if (Status == VL53L0X_ERROR_NONE) {
 2324              		.loc 1 766 0
 2325 0180 5723     		movs	r3, #87
 2326 0182 FB18     		adds	r3, r7, r3
 2327 0184 1B78     		ldrb	r3, [r3]
 2328 0186 5BB2     		sxtb	r3, r3
 2329 0188 002B     		cmp	r3, #0
 2330 018a 25D1     		bne	.L116
 767:Api\core\src/vl53l0x_api_calibration.c **** 		/* Enable Minimum NON-APERTURE Spads */
ARM GAS  C:\Users\ilya\AppData\Local\Temp\ccWKU7si.s 			page 56


 768:Api\core\src/vl53l0x_api_calibration.c **** 		currentSpadIndex = 0;
 2331              		.loc 1 768 0
 2332 018c 0023     		movs	r3, #0
 2333 018e 3B65     		str	r3, [r7, #80]
 769:Api\core\src/vl53l0x_api_calibration.c **** 		lastSpadIndex = currentSpadIndex;
 2334              		.loc 1 769 0
 2335 0190 3B6D     		ldr	r3, [r7, #80]
 2336 0192 BB61     		str	r3, [r7, #24]
 770:Api\core\src/vl53l0x_api_calibration.c **** 		needAptSpads = 0;
 2337              		.loc 1 770 0
 2338 0194 0023     		movs	r3, #0
 2339 0196 FB64     		str	r3, [r7, #76]
 771:Api\core\src/vl53l0x_api_calibration.c **** 		Status = enable_ref_spads(Dev,
 2340              		.loc 1 771 0
 2341 0198 FB6C     		ldr	r3, [r7, #76]
 2342 019a D9B2     		uxtb	r1, r3
 772:Api\core\src/vl53l0x_api_calibration.c **** 					needAptSpads,
 773:Api\core\src/vl53l0x_api_calibration.c **** 					Dev->Data.SpadData.RefGoodSpadMap,
 2343              		.loc 1 773 0
 2344 019c FB68     		ldr	r3, [r7, #12]
 2345 019e 2B33     		adds	r3, r3, #43
 2346 01a0 FF33     		adds	r3, r3, #255
 2347 01a2 1D00     		movs	r5, r3
 774:Api\core\src/vl53l0x_api_calibration.c **** 					Dev->Data.SpadData.RefSpadEnables,
 2348              		.loc 1 774 0
 2349 01a4 FB68     		ldr	r3, [r7, #12]
 2350 01a6 2533     		adds	r3, r3, #37
 2351 01a8 FF33     		adds	r3, r3, #255
 2352 01aa 1E00     		movs	r6, r3
 771:Api\core\src/vl53l0x_api_calibration.c **** 		Status = enable_ref_spads(Dev,
 2353              		.loc 1 771 0
 2354 01ac 3A23     		movs	r3, #58
 2355 01ae FB18     		adds	r3, r7, r3
 2356 01b0 1B78     		ldrb	r3, [r3]
 2357 01b2 5722     		movs	r2, #87
 2358 01b4 BC18     		adds	r4, r7, r2
 2359 01b6 F868     		ldr	r0, [r7, #12]
 2360 01b8 1822     		movs	r2, #24
 2361 01ba BA18     		adds	r2, r7, r2
 2362 01bc 0492     		str	r2, [sp, #16]
 2363 01be 7A6B     		ldr	r2, [r7, #52]
 2364 01c0 0392     		str	r2, [sp, #12]
 2365 01c2 3A6D     		ldr	r2, [r7, #80]
 2366 01c4 0292     		str	r2, [sp, #8]
 2367 01c6 0193     		str	r3, [sp, #4]
 2368 01c8 BB6A     		ldr	r3, [r7, #40]
 2369 01ca 0093     		str	r3, [sp]
 2370 01cc 3300     		movs	r3, r6
 2371 01ce 2A00     		movs	r2, r5
 2372 01d0 FFF7FEFF 		bl	enable_ref_spads
 2373 01d4 0300     		movs	r3, r0
 2374 01d6 2370     		strb	r3, [r4]
 2375              	.L116:
 775:Api\core\src/vl53l0x_api_calibration.c **** 					spadArraySize,
 776:Api\core\src/vl53l0x_api_calibration.c **** 					startSelect,
 777:Api\core\src/vl53l0x_api_calibration.c **** 					currentSpadIndex,
 778:Api\core\src/vl53l0x_api_calibration.c **** 					minimumSpadCount,
ARM GAS  C:\Users\ilya\AppData\Local\Temp\ccWKU7si.s 			page 57


 779:Api\core\src/vl53l0x_api_calibration.c **** 					&lastSpadIndex);
 780:Api\core\src/vl53l0x_api_calibration.c **** 	}
 781:Api\core\src/vl53l0x_api_calibration.c **** 
 782:Api\core\src/vl53l0x_api_calibration.c **** 	if (Status == VL53L0X_ERROR_NONE) {
 2376              		.loc 1 782 0
 2377 01d8 5723     		movs	r3, #87
 2378 01da FB18     		adds	r3, r7, r3
 2379 01dc 1B78     		ldrb	r3, [r3]
 2380 01de 5BB2     		sxtb	r3, r3
 2381 01e0 002B     		cmp	r3, #0
 2382 01e2 00D0     		beq	.LCB2064
 2383 01e4 8DE0     		b	.L117	@long jump
 2384              	.LCB2064:
 783:Api\core\src/vl53l0x_api_calibration.c **** 		currentSpadIndex = lastSpadIndex;
 2385              		.loc 1 783 0
 2386 01e6 BB69     		ldr	r3, [r7, #24]
 2387 01e8 3B65     		str	r3, [r7, #80]
 784:Api\core\src/vl53l0x_api_calibration.c **** 
 785:Api\core\src/vl53l0x_api_calibration.c **** 		Status = perform_ref_signal_measurement(Dev,
 2388              		.loc 1 785 0
 2389 01ea 5723     		movs	r3, #87
 2390 01ec FC18     		adds	r4, r7, r3
 2391 01ee 1223     		movs	r3, #18
 2392 01f0 FA18     		adds	r2, r7, r3
 2393 01f2 FB68     		ldr	r3, [r7, #12]
 2394 01f4 1100     		movs	r1, r2
 2395 01f6 1800     		movs	r0, r3
 2396 01f8 FFF7FEFF 		bl	perform_ref_signal_measurement
 2397 01fc 0300     		movs	r3, r0
 2398 01fe 2370     		strb	r3, [r4]
 786:Api\core\src/vl53l0x_api_calibration.c **** 			&peakSignalRateRef);
 787:Api\core\src/vl53l0x_api_calibration.c **** 		if ((Status == VL53L0X_ERROR_NONE) &&
 2399              		.loc 1 787 0
 2400 0200 5723     		movs	r3, #87
 2401 0202 FB18     		adds	r3, r7, r3
 2402 0204 1B78     		ldrb	r3, [r3]
 2403 0206 5BB2     		sxtb	r3, r3
 2404 0208 002B     		cmp	r3, #0
 2405 020a 00D0     		beq	.LCB2082
 2406 020c 75E0     		b	.L118	@long jump
 2407              	.LCB2082:
 788:Api\core\src/vl53l0x_api_calibration.c **** 			(peakSignalRateRef > targetRefRate)) {
 2408              		.loc 1 788 0 discriminator 1
 2409 020e 1223     		movs	r3, #18
 2410 0210 FB18     		adds	r3, r7, r3
 2411 0212 1B88     		ldrh	r3, [r3]
 787:Api\core\src/vl53l0x_api_calibration.c **** 			(peakSignalRateRef > targetRefRate)) {
 2412              		.loc 1 787 0 discriminator 1
 2413 0214 2E22     		movs	r2, #46
 2414 0216 BA18     		adds	r2, r7, r2
 2415 0218 1288     		ldrh	r2, [r2]
 2416 021a 9A42     		cmp	r2, r3
 2417 021c 6DD2     		bcs	.L118
 789:Api\core\src/vl53l0x_api_calibration.c **** 			/* Signal rate measurement too high,
 790:Api\core\src/vl53l0x_api_calibration.c **** 			 * switch to APERTURE SPADs */
 791:Api\core\src/vl53l0x_api_calibration.c **** 
 792:Api\core\src/vl53l0x_api_calibration.c **** 			for (index = 0; index < spadArraySize; index++)
ARM GAS  C:\Users\ilya\AppData\Local\Temp\ccWKU7si.s 			page 58


 2418              		.loc 1 792 0
 2419 021e 0023     		movs	r3, #0
 2420 0220 BB64     		str	r3, [r7, #72]
 2421 0222 0AE0     		b	.L119
 2422              	.L120:
 793:Api\core\src/vl53l0x_api_calibration.c **** 				Dev->Data.SpadData.RefSpadEnables[index] = 0;
 2423              		.loc 1 793 0 discriminator 3
 2424 0224 F968     		ldr	r1, [r7, #12]
 2425 0226 9223     		movs	r3, #146
 2426 0228 5B00     		lsls	r3, r3, #1
 2427 022a BA6C     		ldr	r2, [r7, #72]
 2428 022c 8A18     		adds	r2, r1, r2
 2429 022e D318     		adds	r3, r2, r3
 2430 0230 0022     		movs	r2, #0
 2431 0232 1A70     		strb	r2, [r3]
 792:Api\core\src/vl53l0x_api_calibration.c **** 				Dev->Data.SpadData.RefSpadEnables[index] = 0;
 2432              		.loc 1 792 0 discriminator 3
 2433 0234 BB6C     		ldr	r3, [r7, #72]
 2434 0236 0133     		adds	r3, r3, #1
 2435 0238 BB64     		str	r3, [r7, #72]
 2436              	.L119:
 792:Api\core\src/vl53l0x_api_calibration.c **** 				Dev->Data.SpadData.RefSpadEnables[index] = 0;
 2437              		.loc 1 792 0 is_stmt 0 discriminator 1
 2438 023a BA6C     		ldr	r2, [r7, #72]
 2439 023c BB6A     		ldr	r3, [r7, #40]
 2440 023e 9A42     		cmp	r2, r3
 2441 0240 F0D3     		bcc	.L120
 794:Api\core\src/vl53l0x_api_calibration.c **** 
 795:Api\core\src/vl53l0x_api_calibration.c **** 
 796:Api\core\src/vl53l0x_api_calibration.c **** 			/* Increment to the first APERTURE spad */
 797:Api\core\src/vl53l0x_api_calibration.c **** 			while ((is_aperture(startSelect + currentSpadIndex)
 2442              		.loc 1 797 0 is_stmt 1
 2443 0242 02E0     		b	.L121
 2444              	.L123:
 798:Api\core\src/vl53l0x_api_calibration.c **** 				== 0) && (currentSpadIndex < maxSpadCount)) {
 799:Api\core\src/vl53l0x_api_calibration.c **** 				currentSpadIndex++;
 2445              		.loc 1 799 0
 2446 0244 3B6D     		ldr	r3, [r7, #80]
 2447 0246 0133     		adds	r3, r3, #1
 2448 0248 3B65     		str	r3, [r7, #80]
 2449              	.L121:
 797:Api\core\src/vl53l0x_api_calibration.c **** 				== 0) && (currentSpadIndex < maxSpadCount)) {
 2450              		.loc 1 797 0
 2451 024a 3A23     		movs	r3, #58
 2452 024c FB18     		adds	r3, r7, r3
 2453 024e 1A78     		ldrb	r2, [r3]
 2454 0250 3B6D     		ldr	r3, [r7, #80]
 2455 0252 D318     		adds	r3, r2, r3
 2456 0254 1800     		movs	r0, r3
 2457 0256 FFF7FEFF 		bl	is_aperture
 2458 025a 031E     		subs	r3, r0, #0
 2459 025c 03D1     		bne	.L122
 798:Api\core\src/vl53l0x_api_calibration.c **** 				== 0) && (currentSpadIndex < maxSpadCount)) {
 2460              		.loc 1 798 0
 2461 025e 3A6D     		ldr	r2, [r7, #80]
 2462 0260 3B6B     		ldr	r3, [r7, #48]
 2463 0262 9A42     		cmp	r2, r3
ARM GAS  C:\Users\ilya\AppData\Local\Temp\ccWKU7si.s 			page 59


 2464 0264 EED3     		bcc	.L123
 2465              	.L122:
 800:Api\core\src/vl53l0x_api_calibration.c **** 			}
 801:Api\core\src/vl53l0x_api_calibration.c **** 
 802:Api\core\src/vl53l0x_api_calibration.c **** 			needAptSpads = 1;
 2466              		.loc 1 802 0
 2467 0266 0123     		movs	r3, #1
 2468 0268 FB64     		str	r3, [r7, #76]
 803:Api\core\src/vl53l0x_api_calibration.c **** 
 804:Api\core\src/vl53l0x_api_calibration.c **** 			Status = enable_ref_spads(Dev,
 2469              		.loc 1 804 0
 2470 026a FB6C     		ldr	r3, [r7, #76]
 2471 026c D9B2     		uxtb	r1, r3
 805:Api\core\src/vl53l0x_api_calibration.c **** 					needAptSpads,
 806:Api\core\src/vl53l0x_api_calibration.c **** 					Dev->Data.SpadData.RefGoodSpadMap,
 2472              		.loc 1 806 0
 2473 026e FB68     		ldr	r3, [r7, #12]
 2474 0270 2B33     		adds	r3, r3, #43
 2475 0272 FF33     		adds	r3, r3, #255
 2476 0274 1D00     		movs	r5, r3
 807:Api\core\src/vl53l0x_api_calibration.c **** 					Dev->Data.SpadData.RefSpadEnables,
 2477              		.loc 1 807 0
 2478 0276 FB68     		ldr	r3, [r7, #12]
 2479 0278 2533     		adds	r3, r3, #37
 2480 027a FF33     		adds	r3, r3, #255
 2481 027c 1E00     		movs	r6, r3
 804:Api\core\src/vl53l0x_api_calibration.c **** 					needAptSpads,
 2482              		.loc 1 804 0
 2483 027e 3A23     		movs	r3, #58
 2484 0280 FB18     		adds	r3, r7, r3
 2485 0282 1B78     		ldrb	r3, [r3]
 2486 0284 5722     		movs	r2, #87
 2487 0286 BC18     		adds	r4, r7, r2
 2488 0288 F868     		ldr	r0, [r7, #12]
 2489 028a 1822     		movs	r2, #24
 2490 028c BA18     		adds	r2, r7, r2
 2491 028e 0492     		str	r2, [sp, #16]
 2492 0290 7A6B     		ldr	r2, [r7, #52]
 2493 0292 0392     		str	r2, [sp, #12]
 2494 0294 3A6D     		ldr	r2, [r7, #80]
 2495 0296 0292     		str	r2, [sp, #8]
 2496 0298 0193     		str	r3, [sp, #4]
 2497 029a BB6A     		ldr	r3, [r7, #40]
 2498 029c 0093     		str	r3, [sp]
 2499 029e 3300     		movs	r3, r6
 2500 02a0 2A00     		movs	r2, r5
 2501 02a2 FFF7FEFF 		bl	enable_ref_spads
 2502 02a6 0300     		movs	r3, r0
 2503 02a8 2370     		strb	r3, [r4]
 808:Api\core\src/vl53l0x_api_calibration.c **** 					spadArraySize,
 809:Api\core\src/vl53l0x_api_calibration.c **** 					startSelect,
 810:Api\core\src/vl53l0x_api_calibration.c **** 					currentSpadIndex,
 811:Api\core\src/vl53l0x_api_calibration.c **** 					minimumSpadCount,
 812:Api\core\src/vl53l0x_api_calibration.c **** 					&lastSpadIndex);
 813:Api\core\src/vl53l0x_api_calibration.c **** 
 814:Api\core\src/vl53l0x_api_calibration.c **** 			if (Status == VL53L0X_ERROR_NONE) {
 2504              		.loc 1 814 0
ARM GAS  C:\Users\ilya\AppData\Local\Temp\ccWKU7si.s 			page 60


 2505 02aa 5723     		movs	r3, #87
 2506 02ac FB18     		adds	r3, r7, r3
 2507 02ae 1B78     		ldrb	r3, [r3]
 2508 02b0 5BB2     		sxtb	r3, r3
 2509 02b2 002B     		cmp	r3, #0
 2510 02b4 24D1     		bne	.L137
 815:Api\core\src/vl53l0x_api_calibration.c **** 				currentSpadIndex = lastSpadIndex;
 2511              		.loc 1 815 0
 2512 02b6 BB69     		ldr	r3, [r7, #24]
 2513 02b8 3B65     		str	r3, [r7, #80]
 816:Api\core\src/vl53l0x_api_calibration.c **** 				Status = perform_ref_signal_measurement(Dev,
 2514              		.loc 1 816 0
 2515 02ba 5723     		movs	r3, #87
 2516 02bc FC18     		adds	r4, r7, r3
 2517 02be 1223     		movs	r3, #18
 2518 02c0 FA18     		adds	r2, r7, r3
 2519 02c2 FB68     		ldr	r3, [r7, #12]
 2520 02c4 1100     		movs	r1, r2
 2521 02c6 1800     		movs	r0, r3
 2522 02c8 FFF7FEFF 		bl	perform_ref_signal_measurement
 2523 02cc 0300     		movs	r3, r0
 2524 02ce 2370     		strb	r3, [r4]
 817:Api\core\src/vl53l0x_api_calibration.c **** 						&peakSignalRateRef);
 818:Api\core\src/vl53l0x_api_calibration.c **** 
 819:Api\core\src/vl53l0x_api_calibration.c **** 				if ((Status == VL53L0X_ERROR_NONE) &&
 2525              		.loc 1 819 0
 2526 02d0 5723     		movs	r3, #87
 2527 02d2 FB18     		adds	r3, r7, r3
 2528 02d4 1B78     		ldrb	r3, [r3]
 2529 02d6 5BB2     		sxtb	r3, r3
 2530 02d8 002B     		cmp	r3, #0
 2531 02da 11D1     		bne	.L137
 820:Api\core\src/vl53l0x_api_calibration.c **** 					(peakSignalRateRef > targetRefRate)) {
 2532              		.loc 1 820 0 discriminator 1
 2533 02dc 1223     		movs	r3, #18
 2534 02de FB18     		adds	r3, r7, r3
 2535 02e0 1B88     		ldrh	r3, [r3]
 819:Api\core\src/vl53l0x_api_calibration.c **** 					(peakSignalRateRef > targetRefRate)) {
 2536              		.loc 1 819 0 discriminator 1
 2537 02e2 2E22     		movs	r2, #46
 2538 02e4 BA18     		adds	r2, r7, r2
 2539 02e6 1288     		ldrh	r2, [r2]
 2540 02e8 9A42     		cmp	r2, r3
 2541 02ea 09D2     		bcs	.L137
 821:Api\core\src/vl53l0x_api_calibration.c **** 					/* Signal rate still too high after
 822:Api\core\src/vl53l0x_api_calibration.c **** 					 * setting the minimum number of
 823:Api\core\src/vl53l0x_api_calibration.c **** 					 * APERTURE spads. Can do no more
 824:Api\core\src/vl53l0x_api_calibration.c **** 					 * therefore set the min number of
 825:Api\core\src/vl53l0x_api_calibration.c **** 					 * aperture spads as the result.
 826:Api\core\src/vl53l0x_api_calibration.c **** 					 */
 827:Api\core\src/vl53l0x_api_calibration.c **** 					isApertureSpads_int = 1;
 2542              		.loc 1 827 0
 2543 02ec 3B23     		movs	r3, #59
 2544 02ee FB18     		adds	r3, r7, r3
 2545 02f0 0122     		movs	r2, #1
 2546 02f2 1A70     		strb	r2, [r3]
 828:Api\core\src/vl53l0x_api_calibration.c **** 					refSpadCount_int = minimumSpadCount;
ARM GAS  C:\Users\ilya\AppData\Local\Temp\ccWKU7si.s 			page 61


 2547              		.loc 1 828 0
 2548 02f4 7B6B     		ldr	r3, [r7, #52]
 2549 02f6 FB63     		str	r3, [r7, #60]
 814:Api\core\src/vl53l0x_api_calibration.c **** 				currentSpadIndex = lastSpadIndex;
 2550              		.loc 1 814 0
 2551 02f8 02E0     		b	.L137
 2552              	.L118:
 829:Api\core\src/vl53l0x_api_calibration.c **** 				}
 830:Api\core\src/vl53l0x_api_calibration.c **** 			}
 831:Api\core\src/vl53l0x_api_calibration.c **** 		} else {
 832:Api\core\src/vl53l0x_api_calibration.c **** 			needAptSpads = 0;
 2553              		.loc 1 832 0
 2554 02fa 0023     		movs	r3, #0
 2555 02fc FB64     		str	r3, [r7, #76]
 2556 02fe 00E0     		b	.L117
 2557              	.L137:
 814:Api\core\src/vl53l0x_api_calibration.c **** 				currentSpadIndex = lastSpadIndex;
 2558              		.loc 1 814 0
 2559 0300 C046     		nop
 2560              	.L117:
 833:Api\core\src/vl53l0x_api_calibration.c **** 		}
 834:Api\core\src/vl53l0x_api_calibration.c **** 	}
 835:Api\core\src/vl53l0x_api_calibration.c **** 
 836:Api\core\src/vl53l0x_api_calibration.c **** 	if ((Status == VL53L0X_ERROR_NONE) &&
 2561              		.loc 1 836 0
 2562 0302 5723     		movs	r3, #87
 2563 0304 FB18     		adds	r3, r7, r3
 2564 0306 1B78     		ldrb	r3, [r3]
 2565 0308 5BB2     		sxtb	r3, r3
 2566 030a 002B     		cmp	r3, #0
 2567 030c 00D0     		beq	.LCB2227
 2568 030e DBE0     		b	.L125	@long jump
 2569              	.LCB2227:
 837:Api\core\src/vl53l0x_api_calibration.c **** 		(peakSignalRateRef < targetRefRate)) {
 2570              		.loc 1 837 0 discriminator 1
 2571 0310 1223     		movs	r3, #18
 2572 0312 FB18     		adds	r3, r7, r3
 2573 0314 1B88     		ldrh	r3, [r3]
 836:Api\core\src/vl53l0x_api_calibration.c **** 		(peakSignalRateRef < targetRefRate)) {
 2574              		.loc 1 836 0 discriminator 1
 2575 0316 2E22     		movs	r2, #46
 2576 0318 BA18     		adds	r2, r7, r2
 2577 031a 1288     		ldrh	r2, [r2]
 2578 031c 9A42     		cmp	r2, r3
 2579 031e 00D8     		bhi	.LCB2235
 2580 0320 D2E0     		b	.L125	@long jump
 2581              	.LCB2235:
 838:Api\core\src/vl53l0x_api_calibration.c **** 		/* At this point, the minimum number of either aperture
 839:Api\core\src/vl53l0x_api_calibration.c **** 		 * or non-aperture spads have been set. Proceed to add
 840:Api\core\src/vl53l0x_api_calibration.c **** 		 * spads and perform measurements until the target
 841:Api\core\src/vl53l0x_api_calibration.c **** 		 * reference is reached.
 842:Api\core\src/vl53l0x_api_calibration.c **** 		 */
 843:Api\core\src/vl53l0x_api_calibration.c **** 		isApertureSpads_int = needAptSpads;
 2582              		.loc 1 843 0
 2583 0322 3B23     		movs	r3, #59
 2584 0324 FB18     		adds	r3, r7, r3
 2585 0326 FA6C     		ldr	r2, [r7, #76]
ARM GAS  C:\Users\ilya\AppData\Local\Temp\ccWKU7si.s 			page 62


 2586 0328 1A70     		strb	r2, [r3]
 844:Api\core\src/vl53l0x_api_calibration.c **** 		refSpadCount_int	= minimumSpadCount;
 2587              		.loc 1 844 0
 2588 032a 7B6B     		ldr	r3, [r7, #52]
 2589 032c FB63     		str	r3, [r7, #60]
 845:Api\core\src/vl53l0x_api_calibration.c **** 
 846:Api\core\src/vl53l0x_api_calibration.c **** 		memcpy(lastSpadArray, Dev->Data.SpadData.RefSpadEnables,
 2590              		.loc 1 846 0
 2591 032e FB68     		ldr	r3, [r7, #12]
 2592 0330 2533     		adds	r3, r3, #37
 2593 0332 FF33     		adds	r3, r3, #255
 2594 0334 1900     		movs	r1, r3
 2595 0336 BA6A     		ldr	r2, [r7, #40]
 2596 0338 1C23     		movs	r3, #28
 2597 033a FB18     		adds	r3, r7, r3
 2598 033c 1800     		movs	r0, r3
 2599 033e FFF7FEFF 		bl	memcpy
 847:Api\core\src/vl53l0x_api_calibration.c **** 				spadArraySize);
 848:Api\core\src/vl53l0x_api_calibration.c **** 		lastSignalRateDiff = abs(peakSignalRateRef -
 2600              		.loc 1 848 0
 2601 0342 1223     		movs	r3, #18
 2602 0344 FB18     		adds	r3, r7, r3
 2603 0346 1B88     		ldrh	r3, [r3]
 2604 0348 1A00     		movs	r2, r3
 2605 034a 2E23     		movs	r3, #46
 2606 034c FB18     		adds	r3, r7, r3
 2607 034e 1B88     		ldrh	r3, [r3]
 2608 0350 D31A     		subs	r3, r2, r3
 2609 0352 DA17     		asrs	r2, r3, #31
 2610 0354 9B18     		adds	r3, r3, r2
 2611 0356 5340     		eors	r3, r2
 2612 0358 7B64     		str	r3, [r7, #68]
 849:Api\core\src/vl53l0x_api_calibration.c **** 			targetRefRate);
 850:Api\core\src/vl53l0x_api_calibration.c **** 		complete = 0;
 2613              		.loc 1 850 0
 2614 035a 4323     		movs	r3, #67
 2615 035c FB18     		adds	r3, r7, r3
 2616 035e 0022     		movs	r2, #0
 2617 0360 1A70     		strb	r2, [r3]
 851:Api\core\src/vl53l0x_api_calibration.c **** 
 852:Api\core\src/vl53l0x_api_calibration.c **** 		while (!complete) {
 2618              		.loc 1 852 0
 2619 0362 A7E0     		b	.L126
 2620              	.L134:
 853:Api\core\src/vl53l0x_api_calibration.c **** 			get_next_good_spad(
 854:Api\core\src/vl53l0x_api_calibration.c **** 				Dev->Data.SpadData.RefGoodSpadMap,
 2621              		.loc 1 854 0
 2622 0364 FB68     		ldr	r3, [r7, #12]
 2623 0366 2B33     		adds	r3, r3, #43
 2624 0368 FF33     		adds	r3, r3, #255
 2625 036a 1800     		movs	r0, r3
 853:Api\core\src/vl53l0x_api_calibration.c **** 			get_next_good_spad(
 2626              		.loc 1 853 0
 2627 036c 1423     		movs	r3, #20
 2628 036e FB18     		adds	r3, r7, r3
 2629 0370 3A6D     		ldr	r2, [r7, #80]
 2630 0372 B96A     		ldr	r1, [r7, #40]
ARM GAS  C:\Users\ilya\AppData\Local\Temp\ccWKU7si.s 			page 63


 2631 0374 FFF7FEFF 		bl	get_next_good_spad
 855:Api\core\src/vl53l0x_api_calibration.c **** 				spadArraySize, currentSpadIndex,
 856:Api\core\src/vl53l0x_api_calibration.c **** 				&nextGoodSpad);
 857:Api\core\src/vl53l0x_api_calibration.c **** 
 858:Api\core\src/vl53l0x_api_calibration.c **** 			if (nextGoodSpad == -1) {
 2632              		.loc 1 858 0
 2633 0378 7B69     		ldr	r3, [r7, #20]
 2634 037a 0133     		adds	r3, r3, #1
 2635 037c 04D1     		bne	.L127
 859:Api\core\src/vl53l0x_api_calibration.c **** 				Status = VL53L0X_ERROR_REF_SPAD_INIT;
 2636              		.loc 1 859 0
 2637 037e 5723     		movs	r3, #87
 2638 0380 FB18     		adds	r3, r7, r3
 2639 0382 CE22     		movs	r2, #206
 2640 0384 1A70     		strb	r2, [r3]
 860:Api\core\src/vl53l0x_api_calibration.c **** 				break;
 2641              		.loc 1 860 0
 2642 0386 9FE0     		b	.L125
 2643              	.L127:
 861:Api\core\src/vl53l0x_api_calibration.c **** 			}
 862:Api\core\src/vl53l0x_api_calibration.c **** 
 863:Api\core\src/vl53l0x_api_calibration.c **** 			/* Cannot combine Aperture and Non-Aperture spads, so
 864:Api\core\src/vl53l0x_api_calibration.c **** 			 * ensure the current spad is of the correct type.
 865:Api\core\src/vl53l0x_api_calibration.c **** 			 */
 866:Api\core\src/vl53l0x_api_calibration.c **** 			if (is_aperture((uint32_t)startSelect + nextGoodSpad) !=
 2644              		.loc 1 866 0
 2645 0388 3A23     		movs	r3, #58
 2646 038a FB18     		adds	r3, r7, r3
 2647 038c 1B78     		ldrb	r3, [r3]
 2648 038e 7A69     		ldr	r2, [r7, #20]
 2649 0390 9B18     		adds	r3, r3, r2
 2650 0392 1800     		movs	r0, r3
 2651 0394 FFF7FEFF 		bl	is_aperture
 2652 0398 0300     		movs	r3, r0
 2653 039a 1A00     		movs	r2, r3
 2654 039c FB6C     		ldr	r3, [r7, #76]
 2655 039e 9A42     		cmp	r2, r3
 2656 03a0 04D0     		beq	.L128
 867:Api\core\src/vl53l0x_api_calibration.c **** 					needAptSpads) {
 868:Api\core\src/vl53l0x_api_calibration.c **** 				/* At this point we have enabled the maximum
 869:Api\core\src/vl53l0x_api_calibration.c **** 				 * number of Aperture spads.
 870:Api\core\src/vl53l0x_api_calibration.c **** 				 */
 871:Api\core\src/vl53l0x_api_calibration.c **** 				complete = 1;
 2657              		.loc 1 871 0
 2658 03a2 4323     		movs	r3, #67
 2659 03a4 FB18     		adds	r3, r7, r3
 2660 03a6 0122     		movs	r2, #1
 2661 03a8 1A70     		strb	r2, [r3]
 872:Api\core\src/vl53l0x_api_calibration.c **** 				break;
 2662              		.loc 1 872 0
 2663 03aa 8DE0     		b	.L125
 2664              	.L128:
 873:Api\core\src/vl53l0x_api_calibration.c **** 			}
 874:Api\core\src/vl53l0x_api_calibration.c **** 
 875:Api\core\src/vl53l0x_api_calibration.c **** 			(refSpadCount_int)++;
 2665              		.loc 1 875 0
 2666 03ac FB6B     		ldr	r3, [r7, #60]
ARM GAS  C:\Users\ilya\AppData\Local\Temp\ccWKU7si.s 			page 64


 2667 03ae 0133     		adds	r3, r3, #1
 2668 03b0 FB63     		str	r3, [r7, #60]
 876:Api\core\src/vl53l0x_api_calibration.c **** 
 877:Api\core\src/vl53l0x_api_calibration.c **** 			currentSpadIndex = nextGoodSpad;
 2669              		.loc 1 877 0
 2670 03b2 7B69     		ldr	r3, [r7, #20]
 2671 03b4 3B65     		str	r3, [r7, #80]
 878:Api\core\src/vl53l0x_api_calibration.c **** 			Status = enable_spad_bit(
 879:Api\core\src/vl53l0x_api_calibration.c **** 					Dev->Data.SpadData.RefSpadEnables,
 2672              		.loc 1 879 0
 2673 03b6 FB68     		ldr	r3, [r7, #12]
 2674 03b8 2533     		adds	r3, r3, #37
 2675 03ba FF33     		adds	r3, r3, #255
 878:Api\core\src/vl53l0x_api_calibration.c **** 			Status = enable_spad_bit(
 2676              		.loc 1 878 0
 2677 03bc 5722     		movs	r2, #87
 2678 03be BC18     		adds	r4, r7, r2
 2679 03c0 3A6D     		ldr	r2, [r7, #80]
 2680 03c2 B96A     		ldr	r1, [r7, #40]
 2681 03c4 1800     		movs	r0, r3
 2682 03c6 FFF7FEFF 		bl	enable_spad_bit
 2683 03ca 0300     		movs	r3, r0
 2684 03cc 2370     		strb	r3, [r4]
 880:Api\core\src/vl53l0x_api_calibration.c **** 					spadArraySize, currentSpadIndex);
 881:Api\core\src/vl53l0x_api_calibration.c **** 
 882:Api\core\src/vl53l0x_api_calibration.c **** 			if (Status == VL53L0X_ERROR_NONE) {
 2685              		.loc 1 882 0
 2686 03ce 5723     		movs	r3, #87
 2687 03d0 FB18     		adds	r3, r7, r3
 2688 03d2 1B78     		ldrb	r3, [r3]
 2689 03d4 5BB2     		sxtb	r3, r3
 2690 03d6 002B     		cmp	r3, #0
 2691 03d8 0FD1     		bne	.L129
 883:Api\core\src/vl53l0x_api_calibration.c **** 				currentSpadIndex++;
 2692              		.loc 1 883 0
 2693 03da 3B6D     		ldr	r3, [r7, #80]
 2694 03dc 0133     		adds	r3, r3, #1
 2695 03de 3B65     		str	r3, [r7, #80]
 884:Api\core\src/vl53l0x_api_calibration.c **** 				/* Proceed to apply the additional spad and
 885:Api\core\src/vl53l0x_api_calibration.c **** 				 * perform measurement. */
 886:Api\core\src/vl53l0x_api_calibration.c **** 				Status = set_ref_spad_map(Dev,
 887:Api\core\src/vl53l0x_api_calibration.c **** 					Dev->Data.SpadData.RefSpadEnables);
 2696              		.loc 1 887 0
 2697 03e0 FB68     		ldr	r3, [r7, #12]
 2698 03e2 2533     		adds	r3, r3, #37
 2699 03e4 FF33     		adds	r3, r3, #255
 2700 03e6 1A00     		movs	r2, r3
 886:Api\core\src/vl53l0x_api_calibration.c **** 					Dev->Data.SpadData.RefSpadEnables);
 2701              		.loc 1 886 0
 2702 03e8 5723     		movs	r3, #87
 2703 03ea FC18     		adds	r4, r7, r3
 2704 03ec FB68     		ldr	r3, [r7, #12]
 2705 03ee 1100     		movs	r1, r2
 2706 03f0 1800     		movs	r0, r3
 2707 03f2 FFF7FEFF 		bl	set_ref_spad_map
 2708 03f6 0300     		movs	r3, r0
 2709 03f8 2370     		strb	r3, [r4]
ARM GAS  C:\Users\ilya\AppData\Local\Temp\ccWKU7si.s 			page 65


 2710              	.L129:
 888:Api\core\src/vl53l0x_api_calibration.c **** 			}
 889:Api\core\src/vl53l0x_api_calibration.c **** 
 890:Api\core\src/vl53l0x_api_calibration.c **** 			if (Status != VL53L0X_ERROR_NONE)
 2711              		.loc 1 890 0
 2712 03fa 5723     		movs	r3, #87
 2713 03fc FB18     		adds	r3, r7, r3
 2714 03fe 1B78     		ldrb	r3, [r3]
 2715 0400 5BB2     		sxtb	r3, r3
 2716 0402 002B     		cmp	r3, #0
 2717 0404 5DD1     		bne	.L138
 891:Api\core\src/vl53l0x_api_calibration.c **** 				break;
 892:Api\core\src/vl53l0x_api_calibration.c **** 
 893:Api\core\src/vl53l0x_api_calibration.c **** 			Status = perform_ref_signal_measurement(Dev,
 2718              		.loc 1 893 0
 2719 0406 5723     		movs	r3, #87
 2720 0408 FC18     		adds	r4, r7, r3
 2721 040a 1223     		movs	r3, #18
 2722 040c FA18     		adds	r2, r7, r3
 2723 040e FB68     		ldr	r3, [r7, #12]
 2724 0410 1100     		movs	r1, r2
 2725 0412 1800     		movs	r0, r3
 2726 0414 FFF7FEFF 		bl	perform_ref_signal_measurement
 2727 0418 0300     		movs	r3, r0
 2728 041a 2370     		strb	r3, [r4]
 894:Api\core\src/vl53l0x_api_calibration.c **** 					&peakSignalRateRef);
 895:Api\core\src/vl53l0x_api_calibration.c **** 
 896:Api\core\src/vl53l0x_api_calibration.c **** 			if (Status != VL53L0X_ERROR_NONE)
 2729              		.loc 1 896 0
 2730 041c 5723     		movs	r3, #87
 2731 041e FB18     		adds	r3, r7, r3
 2732 0420 1B78     		ldrb	r3, [r3]
 2733 0422 5BB2     		sxtb	r3, r3
 2734 0424 002B     		cmp	r3, #0
 2735 0426 4ED1     		bne	.L139
 897:Api\core\src/vl53l0x_api_calibration.c **** 				break;
 898:Api\core\src/vl53l0x_api_calibration.c **** 
 899:Api\core\src/vl53l0x_api_calibration.c **** 			signalRateDiff = abs(peakSignalRateRef - targetRefRate);
 2736              		.loc 1 899 0
 2737 0428 1223     		movs	r3, #18
 2738 042a FB18     		adds	r3, r7, r3
 2739 042c 1B88     		ldrh	r3, [r3]
 2740 042e 1A00     		movs	r2, r3
 2741 0430 2E23     		movs	r3, #46
 2742 0432 FB18     		adds	r3, r7, r3
 2743 0434 1B88     		ldrh	r3, [r3]
 2744 0436 D31A     		subs	r3, r2, r3
 2745 0438 DA17     		asrs	r2, r3, #31
 2746 043a 9B18     		adds	r3, r3, r2
 2747 043c 5340     		eors	r3, r2
 2748 043e 7B62     		str	r3, [r7, #36]
 900:Api\core\src/vl53l0x_api_calibration.c **** 
 901:Api\core\src/vl53l0x_api_calibration.c **** 			if (peakSignalRateRef > targetRefRate) {
 2749              		.loc 1 901 0
 2750 0440 1223     		movs	r3, #18
 2751 0442 FB18     		adds	r3, r7, r3
 2752 0444 1B88     		ldrh	r3, [r3]
ARM GAS  C:\Users\ilya\AppData\Local\Temp\ccWKU7si.s 			page 66


 2753 0446 2E22     		movs	r2, #46
 2754 0448 BA18     		adds	r2, r7, r2
 2755 044a 1288     		ldrh	r2, [r2]
 2756 044c 9A42     		cmp	r2, r3
 2757 044e 1FD2     		bcs	.L132
 902:Api\core\src/vl53l0x_api_calibration.c **** 				/* Select the spad map that provides the
 903:Api\core\src/vl53l0x_api_calibration.c **** 				 * measurement closest to the target rate,
 904:Api\core\src/vl53l0x_api_calibration.c **** 				 * either above or below it.
 905:Api\core\src/vl53l0x_api_calibration.c **** 				 */
 906:Api\core\src/vl53l0x_api_calibration.c **** 				if (signalRateDiff > lastSignalRateDiff) {
 2758              		.loc 1 906 0
 2759 0450 7A6A     		ldr	r2, [r7, #36]
 2760 0452 7B6C     		ldr	r3, [r7, #68]
 2761 0454 9A42     		cmp	r2, r3
 2762 0456 16D9     		bls	.L133
 907:Api\core\src/vl53l0x_api_calibration.c **** 					/* Previous spad map produced a closer
 908:Api\core\src/vl53l0x_api_calibration.c **** 					 * measurement, so choose this. */
 909:Api\core\src/vl53l0x_api_calibration.c **** 					Status = set_ref_spad_map(Dev,
 2763              		.loc 1 909 0
 2764 0458 5723     		movs	r3, #87
 2765 045a FC18     		adds	r4, r7, r3
 2766 045c 1C23     		movs	r3, #28
 2767 045e FA18     		adds	r2, r7, r3
 2768 0460 FB68     		ldr	r3, [r7, #12]
 2769 0462 1100     		movs	r1, r2
 2770 0464 1800     		movs	r0, r3
 2771 0466 FFF7FEFF 		bl	set_ref_spad_map
 2772 046a 0300     		movs	r3, r0
 2773 046c 2370     		strb	r3, [r4]
 910:Api\core\src/vl53l0x_api_calibration.c **** 							lastSpadArray);
 911:Api\core\src/vl53l0x_api_calibration.c **** 					memcpy(
 912:Api\core\src/vl53l0x_api_calibration.c **** 					Dev->Data.SpadData.RefSpadEnables,
 2774              		.loc 1 912 0
 2775 046e FB68     		ldr	r3, [r7, #12]
 2776 0470 2533     		adds	r3, r3, #37
 2777 0472 FF33     		adds	r3, r3, #255
 911:Api\core\src/vl53l0x_api_calibration.c **** 					Dev->Data.SpadData.RefSpadEnables,
 2778              		.loc 1 911 0
 2779 0474 BA6A     		ldr	r2, [r7, #40]
 2780 0476 1C21     		movs	r1, #28
 2781 0478 7918     		adds	r1, r7, r1
 2782 047a 1800     		movs	r0, r3
 2783 047c FFF7FEFF 		bl	memcpy
 913:Api\core\src/vl53l0x_api_calibration.c **** 					lastSpadArray, spadArraySize);
 914:Api\core\src/vl53l0x_api_calibration.c **** 
 915:Api\core\src/vl53l0x_api_calibration.c **** 					(refSpadCount_int)--;
 2784              		.loc 1 915 0
 2785 0480 FB6B     		ldr	r3, [r7, #60]
 2786 0482 013B     		subs	r3, r3, #1
 2787 0484 FB63     		str	r3, [r7, #60]
 2788              	.L133:
 916:Api\core\src/vl53l0x_api_calibration.c **** 				}
 917:Api\core\src/vl53l0x_api_calibration.c **** 				complete = 1;
 2789              		.loc 1 917 0
 2790 0486 4323     		movs	r3, #67
 2791 0488 FB18     		adds	r3, r7, r3
 2792 048a 0122     		movs	r2, #1
ARM GAS  C:\Users\ilya\AppData\Local\Temp\ccWKU7si.s 			page 67


 2793 048c 1A70     		strb	r2, [r3]
 2794 048e 11E0     		b	.L126
 2795              	.L132:
 918:Api\core\src/vl53l0x_api_calibration.c **** 			} else {
 919:Api\core\src/vl53l0x_api_calibration.c **** 				/* Continue to add spads */
 920:Api\core\src/vl53l0x_api_calibration.c **** 				lastSignalRateDiff = signalRateDiff;
 2796              		.loc 1 920 0
 2797 0490 7B6A     		ldr	r3, [r7, #36]
 2798 0492 7B64     		str	r3, [r7, #68]
 921:Api\core\src/vl53l0x_api_calibration.c **** 				memcpy(lastSpadArray,
 922:Api\core\src/vl53l0x_api_calibration.c **** 					Dev->Data.SpadData.RefSpadEnables,
 2799              		.loc 1 922 0
 2800 0494 FB68     		ldr	r3, [r7, #12]
 2801 0496 2533     		adds	r3, r3, #37
 2802 0498 FF33     		adds	r3, r3, #255
 2803 049a 1900     		movs	r1, r3
 921:Api\core\src/vl53l0x_api_calibration.c **** 				memcpy(lastSpadArray,
 2804              		.loc 1 921 0
 2805 049c BA6A     		ldr	r2, [r7, #40]
 2806 049e 1C23     		movs	r3, #28
 2807 04a0 FB18     		adds	r3, r7, r3
 2808 04a2 1800     		movs	r0, r3
 2809 04a4 FFF7FEFF 		bl	memcpy
 2810 04a8 4323     		movs	r3, #67
 2811 04aa FB18     		adds	r3, r7, r3
 2812 04ac 4322     		movs	r2, #67
 2813 04ae BA18     		adds	r2, r7, r2
 2814 04b0 1278     		ldrb	r2, [r2]
 2815 04b2 1A70     		strb	r2, [r3]
 2816              	.L126:
 852:Api\core\src/vl53l0x_api_calibration.c **** 			get_next_good_spad(
 2817              		.loc 1 852 0
 2818 04b4 4323     		movs	r3, #67
 2819 04b6 FB18     		adds	r3, r7, r3
 2820 04b8 1B78     		ldrb	r3, [r3]
 2821 04ba 002B     		cmp	r3, #0
 2822 04bc 00D1     		bne	.LCB2450
 2823 04be 51E7     		b	.L134	@long jump
 2824              	.LCB2450:
 2825 04c0 02E0     		b	.L125
 2826              	.L138:
 891:Api\core\src/vl53l0x_api_calibration.c **** 
 2827              		.loc 1 891 0
 2828 04c2 C046     		nop
 2829 04c4 00E0     		b	.L125
 2830              	.L139:
 897:Api\core\src/vl53l0x_api_calibration.c **** 
 2831              		.loc 1 897 0
 2832 04c6 C046     		nop
 2833              	.L125:
 923:Api\core\src/vl53l0x_api_calibration.c **** 					spadArraySize);
 924:Api\core\src/vl53l0x_api_calibration.c **** 			}
 925:Api\core\src/vl53l0x_api_calibration.c **** 
 926:Api\core\src/vl53l0x_api_calibration.c **** 		} /* while */
 927:Api\core\src/vl53l0x_api_calibration.c **** 	}
 928:Api\core\src/vl53l0x_api_calibration.c **** 
 929:Api\core\src/vl53l0x_api_calibration.c **** 	if (Status == VL53L0X_ERROR_NONE) {
ARM GAS  C:\Users\ilya\AppData\Local\Temp\ccWKU7si.s 			page 68


 2834              		.loc 1 929 0
 2835 04c8 5723     		movs	r3, #87
 2836 04ca FB18     		adds	r3, r7, r3
 2837 04cc 1B78     		ldrb	r3, [r3]
 2838 04ce 5BB2     		sxtb	r3, r3
 2839 04d0 002B     		cmp	r3, #0
 2840 04d2 19D1     		bne	.L135
 930:Api\core\src/vl53l0x_api_calibration.c **** 		*refSpadCount = refSpadCount_int;
 2841              		.loc 1 930 0
 2842 04d4 BB68     		ldr	r3, [r7, #8]
 2843 04d6 FA6B     		ldr	r2, [r7, #60]
 2844 04d8 1A60     		str	r2, [r3]
 931:Api\core\src/vl53l0x_api_calibration.c **** 		*isApertureSpads = isApertureSpads_int;
 2845              		.loc 1 931 0
 2846 04da 7B68     		ldr	r3, [r7, #4]
 2847 04dc 3B22     		movs	r2, #59
 2848 04de BA18     		adds	r2, r7, r2
 2849 04e0 1278     		ldrb	r2, [r2]
 2850 04e2 1A70     		strb	r2, [r3]
 932:Api\core\src/vl53l0x_api_calibration.c **** 
 933:Api\core\src/vl53l0x_api_calibration.c **** 		VL53L0X_SETDEVICESPECIFICPARAMETER(Dev, RefSpadsInitialised, 1);
 2851              		.loc 1 933 0
 2852 04e4 FA68     		ldr	r2, [r7, #12]
 2853 04e6 1623     		movs	r3, #22
 2854 04e8 FF33     		adds	r3, r3, #255
 2855 04ea 0121     		movs	r1, #1
 2856 04ec D154     		strb	r1, [r2, r3]
 934:Api\core\src/vl53l0x_api_calibration.c **** 		VL53L0X_SETDEVICESPECIFICPARAMETER(Dev,
 2857              		.loc 1 934 0
 2858 04ee BB68     		ldr	r3, [r7, #8]
 2859 04f0 1B68     		ldr	r3, [r3]
 2860 04f2 D9B2     		uxtb	r1, r3
 2861 04f4 FA68     		ldr	r2, [r7, #12]
 2862 04f6 1423     		movs	r3, #20
 2863 04f8 FF33     		adds	r3, r3, #255
 2864 04fa D154     		strb	r1, [r2, r3]
 935:Api\core\src/vl53l0x_api_calibration.c **** 			ReferenceSpadCount, (uint8_t)(*refSpadCount));
 936:Api\core\src/vl53l0x_api_calibration.c **** 		VL53L0X_SETDEVICESPECIFICPARAMETER(Dev,
 2865              		.loc 1 936 0
 2866 04fc 7B68     		ldr	r3, [r7, #4]
 2867 04fe 1978     		ldrb	r1, [r3]
 2868 0500 FA68     		ldr	r2, [r7, #12]
 2869 0502 8A23     		movs	r3, #138
 2870 0504 5B00     		lsls	r3, r3, #1
 2871 0506 D154     		strb	r1, [r2, r3]
 2872              	.L135:
 937:Api\core\src/vl53l0x_api_calibration.c **** 			ReferenceSpadType, *isApertureSpads);
 938:Api\core\src/vl53l0x_api_calibration.c **** 	}
 939:Api\core\src/vl53l0x_api_calibration.c **** 
 940:Api\core\src/vl53l0x_api_calibration.c **** 	return Status;
 2873              		.loc 1 940 0
 2874 0508 5723     		movs	r3, #87
 2875 050a FB18     		adds	r3, r7, r3
 2876 050c 1B78     		ldrb	r3, [r3]
 2877 050e 5BB2     		sxtb	r3, r3
 941:Api\core\src/vl53l0x_api_calibration.c **** }
 2878              		.loc 1 941 0
ARM GAS  C:\Users\ilya\AppData\Local\Temp\ccWKU7si.s 			page 69


 2879 0510 1800     		movs	r0, r3
 2880 0512 BD46     		mov	sp, r7
 2881 0514 17B0     		add	sp, sp, #92
 2882              		@ sp needed
 2883 0516 F0BD     		pop	{r4, r5, r6, r7, pc}
 2884              		.cfi_endproc
 2885              	.LFE14:
 2886              		.size	VL53L0X_perform_ref_spad_management, .-VL53L0X_perform_ref_spad_management
 2887              		.section	.text.VL53L0X_set_reference_spads,"ax",%progbits
 2888              		.align	2
 2889              		.global	VL53L0X_set_reference_spads
 2890              		.code	16
 2891              		.thumb_func
 2892              		.type	VL53L0X_set_reference_spads, %function
 2893              	VL53L0X_set_reference_spads:
 2894              	.LFB15:
 942:Api\core\src/vl53l0x_api_calibration.c **** 
 943:Api\core\src/vl53l0x_api_calibration.c **** VL53L0X_Error VL53L0X_set_reference_spads(VL53L0X_DEV Dev,
 944:Api\core\src/vl53l0x_api_calibration.c **** 				 uint32_t count, uint8_t isApertureSpads)
 945:Api\core\src/vl53l0x_api_calibration.c **** {
 2895              		.loc 1 945 0
 2896              		.cfi_startproc
 2897              		@ args = 0, pretend = 0, frame = 48
 2898              		@ frame_needed = 1, uses_anonymous_args = 0
 2899 0000 F0B5     		push	{r4, r5, r6, r7, lr}
 2900              		.cfi_def_cfa_offset 20
 2901              		.cfi_offset 4, -20
 2902              		.cfi_offset 5, -16
 2903              		.cfi_offset 6, -12
 2904              		.cfi_offset 7, -8
 2905              		.cfi_offset 14, -4
 2906 0002 93B0     		sub	sp, sp, #76
 2907              		.cfi_def_cfa_offset 96
 2908 0004 06AF     		add	r7, sp, #24
 2909              		.cfi_def_cfa 7, 72
 2910 0006 F860     		str	r0, [r7, #12]
 2911 0008 B960     		str	r1, [r7, #8]
 2912 000a FB1D     		adds	r3, r7, #7
 2913 000c 1A70     		strb	r2, [r3]
 946:Api\core\src/vl53l0x_api_calibration.c **** 	VL53L0X_Error Status = VL53L0X_ERROR_NONE;
 2914              		.loc 1 946 0
 2915 000e 2F23     		movs	r3, #47
 2916 0010 FB18     		adds	r3, r7, r3
 2917 0012 0022     		movs	r2, #0
 2918 0014 1A70     		strb	r2, [r3]
 947:Api\core\src/vl53l0x_api_calibration.c **** 	uint32_t currentSpadIndex = 0;
 2919              		.loc 1 947 0
 2920 0016 0023     		movs	r3, #0
 2921 0018 BB62     		str	r3, [r7, #40]
 948:Api\core\src/vl53l0x_api_calibration.c **** 	uint8_t startSelect = 0xB4;
 2922              		.loc 1 948 0
 2923 001a 2323     		movs	r3, #35
 2924 001c FB18     		adds	r3, r7, r3
 2925 001e B422     		movs	r2, #180
 2926 0020 1A70     		strb	r2, [r3]
 949:Api\core\src/vl53l0x_api_calibration.c **** 	uint32_t spadArraySize = 6;
 2927              		.loc 1 949 0
ARM GAS  C:\Users\ilya\AppData\Local\Temp\ccWKU7si.s 			page 70


 2928 0022 0623     		movs	r3, #6
 2929 0024 FB61     		str	r3, [r7, #28]
 950:Api\core\src/vl53l0x_api_calibration.c **** 	uint32_t maxSpadCount = 44;
 2930              		.loc 1 950 0
 2931 0026 2C23     		movs	r3, #44
 2932 0028 BB61     		str	r3, [r7, #24]
 951:Api\core\src/vl53l0x_api_calibration.c **** 	uint32_t lastSpadIndex;
 952:Api\core\src/vl53l0x_api_calibration.c **** 	uint32_t index;
 953:Api\core\src/vl53l0x_api_calibration.c **** 
 954:Api\core\src/vl53l0x_api_calibration.c **** 	/*
 955:Api\core\src/vl53l0x_api_calibration.c **** 	 * This function applies a requested number of reference spads, either
 956:Api\core\src/vl53l0x_api_calibration.c **** 	 * aperture or
 957:Api\core\src/vl53l0x_api_calibration.c **** 	 * non-aperture, as requested.
 958:Api\core\src/vl53l0x_api_calibration.c **** 	 * The good spad map will be applied.
 959:Api\core\src/vl53l0x_api_calibration.c **** 	 */
 960:Api\core\src/vl53l0x_api_calibration.c **** 
 961:Api\core\src/vl53l0x_api_calibration.c **** 	Status = VL53L0X_WrByte(Dev, 0xFF, 0x01);
 2933              		.loc 1 961 0
 2934 002a 2F23     		movs	r3, #47
 2935 002c FC18     		adds	r4, r7, r3
 2936 002e FB68     		ldr	r3, [r7, #12]
 2937 0030 0122     		movs	r2, #1
 2938 0032 FF21     		movs	r1, #255
 2939 0034 1800     		movs	r0, r3
 2940 0036 FFF7FEFF 		bl	VL53L0X_WrByte
 2941 003a 0300     		movs	r3, r0
 2942 003c 2370     		strb	r3, [r4]
 962:Api\core\src/vl53l0x_api_calibration.c **** 
 963:Api\core\src/vl53l0x_api_calibration.c **** 	if (Status == VL53L0X_ERROR_NONE)
 2943              		.loc 1 963 0
 2944 003e 2F23     		movs	r3, #47
 2945 0040 FB18     		adds	r3, r7, r3
 2946 0042 1B78     		ldrb	r3, [r3]
 2947 0044 5BB2     		sxtb	r3, r3
 2948 0046 002B     		cmp	r3, #0
 2949 0048 09D1     		bne	.L141
 964:Api\core\src/vl53l0x_api_calibration.c **** 		Status = VL53L0X_WrByte(Dev,
 2950              		.loc 1 964 0
 2951 004a 2F23     		movs	r3, #47
 2952 004c FC18     		adds	r4, r7, r3
 2953 004e FB68     		ldr	r3, [r7, #12]
 2954 0050 0022     		movs	r2, #0
 2955 0052 4F21     		movs	r1, #79
 2956 0054 1800     		movs	r0, r3
 2957 0056 FFF7FEFF 		bl	VL53L0X_WrByte
 2958 005a 0300     		movs	r3, r0
 2959 005c 2370     		strb	r3, [r4]
 2960              	.L141:
 965:Api\core\src/vl53l0x_api_calibration.c **** 			VL53L0X_REG_DYNAMIC_SPAD_REF_EN_START_OFFSET, 0x00);
 966:Api\core\src/vl53l0x_api_calibration.c **** 
 967:Api\core\src/vl53l0x_api_calibration.c **** 	if (Status == VL53L0X_ERROR_NONE)
 2961              		.loc 1 967 0
 2962 005e 2F23     		movs	r3, #47
 2963 0060 FB18     		adds	r3, r7, r3
 2964 0062 1B78     		ldrb	r3, [r3]
 2965 0064 5BB2     		sxtb	r3, r3
 2966 0066 002B     		cmp	r3, #0
ARM GAS  C:\Users\ilya\AppData\Local\Temp\ccWKU7si.s 			page 71


 2967 0068 09D1     		bne	.L142
 968:Api\core\src/vl53l0x_api_calibration.c **** 		Status = VL53L0X_WrByte(Dev,
 2968              		.loc 1 968 0
 2969 006a 2F23     		movs	r3, #47
 2970 006c FC18     		adds	r4, r7, r3
 2971 006e FB68     		ldr	r3, [r7, #12]
 2972 0070 2C22     		movs	r2, #44
 2973 0072 4E21     		movs	r1, #78
 2974 0074 1800     		movs	r0, r3
 2975 0076 FFF7FEFF 		bl	VL53L0X_WrByte
 2976 007a 0300     		movs	r3, r0
 2977 007c 2370     		strb	r3, [r4]
 2978              	.L142:
 969:Api\core\src/vl53l0x_api_calibration.c **** 			VL53L0X_REG_DYNAMIC_SPAD_NUM_REQUESTED_REF_SPAD, 0x2C);
 970:Api\core\src/vl53l0x_api_calibration.c **** 
 971:Api\core\src/vl53l0x_api_calibration.c **** 	if (Status == VL53L0X_ERROR_NONE)
 2979              		.loc 1 971 0
 2980 007e 2F23     		movs	r3, #47
 2981 0080 FB18     		adds	r3, r7, r3
 2982 0082 1B78     		ldrb	r3, [r3]
 2983 0084 5BB2     		sxtb	r3, r3
 2984 0086 002B     		cmp	r3, #0
 2985 0088 09D1     		bne	.L143
 972:Api\core\src/vl53l0x_api_calibration.c **** 		Status = VL53L0X_WrByte(Dev, 0xFF, 0x00);
 2986              		.loc 1 972 0
 2987 008a 2F23     		movs	r3, #47
 2988 008c FC18     		adds	r4, r7, r3
 2989 008e FB68     		ldr	r3, [r7, #12]
 2990 0090 0022     		movs	r2, #0
 2991 0092 FF21     		movs	r1, #255
 2992 0094 1800     		movs	r0, r3
 2993 0096 FFF7FEFF 		bl	VL53L0X_WrByte
 2994 009a 0300     		movs	r3, r0
 2995 009c 2370     		strb	r3, [r4]
 2996              	.L143:
 973:Api\core\src/vl53l0x_api_calibration.c **** 
 974:Api\core\src/vl53l0x_api_calibration.c **** 	if (Status == VL53L0X_ERROR_NONE)
 2997              		.loc 1 974 0
 2998 009e 2F23     		movs	r3, #47
 2999 00a0 FB18     		adds	r3, r7, r3
 3000 00a2 1B78     		ldrb	r3, [r3]
 3001 00a4 5BB2     		sxtb	r3, r3
 3002 00a6 002B     		cmp	r3, #0
 3003 00a8 0BD1     		bne	.L144
 975:Api\core\src/vl53l0x_api_calibration.c **** 		Status = VL53L0X_WrByte(Dev,
 3004              		.loc 1 975 0
 3005 00aa 2F23     		movs	r3, #47
 3006 00ac FC18     		adds	r4, r7, r3
 3007 00ae 2323     		movs	r3, #35
 3008 00b0 FB18     		adds	r3, r7, r3
 3009 00b2 1A78     		ldrb	r2, [r3]
 3010 00b4 FB68     		ldr	r3, [r7, #12]
 3011 00b6 B621     		movs	r1, #182
 3012 00b8 1800     		movs	r0, r3
 3013 00ba FFF7FEFF 		bl	VL53L0X_WrByte
 3014 00be 0300     		movs	r3, r0
 3015 00c0 2370     		strb	r3, [r4]
ARM GAS  C:\Users\ilya\AppData\Local\Temp\ccWKU7si.s 			page 72


 3016              	.L144:
 976:Api\core\src/vl53l0x_api_calibration.c **** 			VL53L0X_REG_GLOBAL_CONFIG_REF_EN_START_SELECT,
 977:Api\core\src/vl53l0x_api_calibration.c **** 			startSelect);
 978:Api\core\src/vl53l0x_api_calibration.c **** 
 979:Api\core\src/vl53l0x_api_calibration.c **** 	for (index = 0; index < spadArraySize; index++)
 3017              		.loc 1 979 0
 3018 00c2 0023     		movs	r3, #0
 3019 00c4 7B62     		str	r3, [r7, #36]
 3020 00c6 0AE0     		b	.L145
 3021              	.L146:
 980:Api\core\src/vl53l0x_api_calibration.c **** 		Dev->Data.SpadData.RefSpadEnables[index] = 0;
 3022              		.loc 1 980 0 discriminator 3
 3023 00c8 F968     		ldr	r1, [r7, #12]
 3024 00ca 9223     		movs	r3, #146
 3025 00cc 5B00     		lsls	r3, r3, #1
 3026 00ce 7A6A     		ldr	r2, [r7, #36]
 3027 00d0 8A18     		adds	r2, r1, r2
 3028 00d2 D318     		adds	r3, r2, r3
 3029 00d4 0022     		movs	r2, #0
 3030 00d6 1A70     		strb	r2, [r3]
 979:Api\core\src/vl53l0x_api_calibration.c **** 		Dev->Data.SpadData.RefSpadEnables[index] = 0;
 3031              		.loc 1 979 0 discriminator 3
 3032 00d8 7B6A     		ldr	r3, [r7, #36]
 3033 00da 0133     		adds	r3, r3, #1
 3034 00dc 7B62     		str	r3, [r7, #36]
 3035              	.L145:
 979:Api\core\src/vl53l0x_api_calibration.c **** 		Dev->Data.SpadData.RefSpadEnables[index] = 0;
 3036              		.loc 1 979 0 is_stmt 0 discriminator 1
 3037 00de 7A6A     		ldr	r2, [r7, #36]
 3038 00e0 FB69     		ldr	r3, [r7, #28]
 3039 00e2 9A42     		cmp	r2, r3
 3040 00e4 F0D3     		bcc	.L146
 981:Api\core\src/vl53l0x_api_calibration.c **** 
 982:Api\core\src/vl53l0x_api_calibration.c **** 	if (isApertureSpads) {
 3041              		.loc 1 982 0 is_stmt 1
 3042 00e6 FB1D     		adds	r3, r7, #7
 3043 00e8 1B78     		ldrb	r3, [r3]
 3044 00ea 002B     		cmp	r3, #0
 3045 00ec 11D0     		beq	.L147
 983:Api\core\src/vl53l0x_api_calibration.c **** 		/* Increment to the first APERTURE spad */
 984:Api\core\src/vl53l0x_api_calibration.c **** 		while ((is_aperture(startSelect + currentSpadIndex) == 0) &&
 3046              		.loc 1 984 0
 3047 00ee 02E0     		b	.L148
 3048              	.L149:
 985:Api\core\src/vl53l0x_api_calibration.c **** 			  (currentSpadIndex < maxSpadCount)) {
 986:Api\core\src/vl53l0x_api_calibration.c **** 			currentSpadIndex++;
 3049              		.loc 1 986 0
 3050 00f0 BB6A     		ldr	r3, [r7, #40]
 3051 00f2 0133     		adds	r3, r3, #1
 3052 00f4 BB62     		str	r3, [r7, #40]
 3053              	.L148:
 984:Api\core\src/vl53l0x_api_calibration.c **** 			  (currentSpadIndex < maxSpadCount)) {
 3054              		.loc 1 984 0
 3055 00f6 2323     		movs	r3, #35
 3056 00f8 FB18     		adds	r3, r7, r3
 3057 00fa 1A78     		ldrb	r2, [r3]
 3058 00fc BB6A     		ldr	r3, [r7, #40]
ARM GAS  C:\Users\ilya\AppData\Local\Temp\ccWKU7si.s 			page 73


 3059 00fe D318     		adds	r3, r2, r3
 3060 0100 1800     		movs	r0, r3
 3061 0102 FFF7FEFF 		bl	is_aperture
 3062 0106 031E     		subs	r3, r0, #0
 3063 0108 03D1     		bne	.L147
 984:Api\core\src/vl53l0x_api_calibration.c **** 			  (currentSpadIndex < maxSpadCount)) {
 3064              		.loc 1 984 0 is_stmt 0 discriminator 1
 3065 010a BA6A     		ldr	r2, [r7, #40]
 3066 010c BB69     		ldr	r3, [r7, #24]
 3067 010e 9A42     		cmp	r2, r3
 3068 0110 EED3     		bcc	.L149
 3069              	.L147:
 987:Api\core\src/vl53l0x_api_calibration.c **** 		}
 988:Api\core\src/vl53l0x_api_calibration.c **** 	}
 989:Api\core\src/vl53l0x_api_calibration.c **** 	Status = enable_ref_spads(Dev,
 990:Api\core\src/vl53l0x_api_calibration.c **** 				isApertureSpads,
 991:Api\core\src/vl53l0x_api_calibration.c **** 				Dev->Data.SpadData.RefGoodSpadMap,
 3070              		.loc 1 991 0 is_stmt 1
 3071 0112 FB68     		ldr	r3, [r7, #12]
 3072 0114 2B33     		adds	r3, r3, #43
 3073 0116 FF33     		adds	r3, r3, #255
 3074 0118 1D00     		movs	r5, r3
 992:Api\core\src/vl53l0x_api_calibration.c **** 				Dev->Data.SpadData.RefSpadEnables,
 3075              		.loc 1 992 0
 3076 011a FB68     		ldr	r3, [r7, #12]
 3077 011c 2533     		adds	r3, r3, #37
 3078 011e FF33     		adds	r3, r3, #255
 3079 0120 1E00     		movs	r6, r3
 989:Api\core\src/vl53l0x_api_calibration.c **** 				isApertureSpads,
 3080              		.loc 1 989 0
 3081 0122 2323     		movs	r3, #35
 3082 0124 FB18     		adds	r3, r7, r3
 3083 0126 1B78     		ldrb	r3, [r3]
 3084 0128 2F22     		movs	r2, #47
 3085 012a BC18     		adds	r4, r7, r2
 3086 012c FA1D     		adds	r2, r7, #7
 3087 012e 1178     		ldrb	r1, [r2]
 3088 0130 F868     		ldr	r0, [r7, #12]
 3089 0132 1422     		movs	r2, #20
 3090 0134 BA18     		adds	r2, r7, r2
 3091 0136 0492     		str	r2, [sp, #16]
 3092 0138 BA68     		ldr	r2, [r7, #8]
 3093 013a 0392     		str	r2, [sp, #12]
 3094 013c BA6A     		ldr	r2, [r7, #40]
 3095 013e 0292     		str	r2, [sp, #8]
 3096 0140 0193     		str	r3, [sp, #4]
 3097 0142 FB69     		ldr	r3, [r7, #28]
 3098 0144 0093     		str	r3, [sp]
 3099 0146 3300     		movs	r3, r6
 3100 0148 2A00     		movs	r2, r5
 3101 014a FFF7FEFF 		bl	enable_ref_spads
 3102 014e 0300     		movs	r3, r0
 3103 0150 2370     		strb	r3, [r4]
 993:Api\core\src/vl53l0x_api_calibration.c **** 				spadArraySize,
 994:Api\core\src/vl53l0x_api_calibration.c **** 				startSelect,
 995:Api\core\src/vl53l0x_api_calibration.c **** 				currentSpadIndex,
 996:Api\core\src/vl53l0x_api_calibration.c **** 				count,
ARM GAS  C:\Users\ilya\AppData\Local\Temp\ccWKU7si.s 			page 74


 997:Api\core\src/vl53l0x_api_calibration.c **** 				&lastSpadIndex);
 998:Api\core\src/vl53l0x_api_calibration.c **** 
 999:Api\core\src/vl53l0x_api_calibration.c **** 	if (Status == VL53L0X_ERROR_NONE) {
 3104              		.loc 1 999 0
 3105 0152 2F23     		movs	r3, #47
 3106 0154 FB18     		adds	r3, r7, r3
 3107 0156 1B78     		ldrb	r3, [r3]
 3108 0158 5BB2     		sxtb	r3, r3
 3109 015a 002B     		cmp	r3, #0
 3110 015c 10D1     		bne	.L150
1000:Api\core\src/vl53l0x_api_calibration.c **** 		VL53L0X_SETDEVICESPECIFICPARAMETER(Dev, RefSpadsInitialised, 1);
 3111              		.loc 1 1000 0
 3112 015e FA68     		ldr	r2, [r7, #12]
 3113 0160 1623     		movs	r3, #22
 3114 0162 FF33     		adds	r3, r3, #255
 3115 0164 0121     		movs	r1, #1
 3116 0166 D154     		strb	r1, [r2, r3]
1001:Api\core\src/vl53l0x_api_calibration.c **** 		VL53L0X_SETDEVICESPECIFICPARAMETER(Dev,
 3117              		.loc 1 1001 0
 3118 0168 BB68     		ldr	r3, [r7, #8]
 3119 016a D9B2     		uxtb	r1, r3
 3120 016c FA68     		ldr	r2, [r7, #12]
 3121 016e 1423     		movs	r3, #20
 3122 0170 FF33     		adds	r3, r3, #255
 3123 0172 D154     		strb	r1, [r2, r3]
1002:Api\core\src/vl53l0x_api_calibration.c **** 			ReferenceSpadCount, (uint8_t)(count));
1003:Api\core\src/vl53l0x_api_calibration.c **** 		VL53L0X_SETDEVICESPECIFICPARAMETER(Dev,
 3124              		.loc 1 1003 0
 3125 0174 FA68     		ldr	r2, [r7, #12]
 3126 0176 F91D     		adds	r1, r7, #7
 3127 0178 8A23     		movs	r3, #138
 3128 017a 5B00     		lsls	r3, r3, #1
 3129 017c 0978     		ldrb	r1, [r1]
 3130 017e D154     		strb	r1, [r2, r3]
 3131              	.L150:
1004:Api\core\src/vl53l0x_api_calibration.c **** 			ReferenceSpadType, isApertureSpads);
1005:Api\core\src/vl53l0x_api_calibration.c **** 	}
1006:Api\core\src/vl53l0x_api_calibration.c **** 
1007:Api\core\src/vl53l0x_api_calibration.c **** 	return Status;
 3132              		.loc 1 1007 0
 3133 0180 2F23     		movs	r3, #47
 3134 0182 FB18     		adds	r3, r7, r3
 3135 0184 1B78     		ldrb	r3, [r3]
 3136 0186 5BB2     		sxtb	r3, r3
1008:Api\core\src/vl53l0x_api_calibration.c **** }
 3137              		.loc 1 1008 0
 3138 0188 1800     		movs	r0, r3
 3139 018a BD46     		mov	sp, r7
 3140 018c 0DB0     		add	sp, sp, #52
 3141              		@ sp needed
 3142 018e F0BD     		pop	{r4, r5, r6, r7, pc}
 3143              		.cfi_endproc
 3144              	.LFE15:
 3145              		.size	VL53L0X_set_reference_spads, .-VL53L0X_set_reference_spads
 3146              		.section	.text.VL53L0X_get_reference_spads,"ax",%progbits
 3147              		.align	2
 3148              		.global	VL53L0X_get_reference_spads
ARM GAS  C:\Users\ilya\AppData\Local\Temp\ccWKU7si.s 			page 75


 3149              		.code	16
 3150              		.thumb_func
 3151              		.type	VL53L0X_get_reference_spads, %function
 3152              	VL53L0X_get_reference_spads:
 3153              	.LFB16:
1009:Api\core\src/vl53l0x_api_calibration.c **** 
1010:Api\core\src/vl53l0x_api_calibration.c **** VL53L0X_Error VL53L0X_get_reference_spads(VL53L0X_DEV Dev,
1011:Api\core\src/vl53l0x_api_calibration.c **** 			uint32_t *pSpadCount, uint8_t *pIsApertureSpads)
1012:Api\core\src/vl53l0x_api_calibration.c **** {
 3154              		.loc 1 1012 0
 3155              		.cfi_startproc
 3156              		@ args = 0, pretend = 0, frame = 48
 3157              		@ frame_needed = 1, uses_anonymous_args = 0
 3158 0000 B0B5     		push	{r4, r5, r7, lr}
 3159              		.cfi_def_cfa_offset 16
 3160              		.cfi_offset 4, -16
 3161              		.cfi_offset 5, -12
 3162              		.cfi_offset 7, -8
 3163              		.cfi_offset 14, -4
 3164 0002 8EB0     		sub	sp, sp, #56
 3165              		.cfi_def_cfa_offset 72
 3166 0004 02AF     		add	r7, sp, #8
 3167              		.cfi_def_cfa 7, 64
 3168 0006 F860     		str	r0, [r7, #12]
 3169 0008 B960     		str	r1, [r7, #8]
 3170 000a 7A60     		str	r2, [r7, #4]
1013:Api\core\src/vl53l0x_api_calibration.c **** 	VL53L0X_Error Status = VL53L0X_ERROR_NONE;
 3171              		.loc 1 1013 0
 3172 000c 2F23     		movs	r3, #47
 3173 000e FB18     		adds	r3, r7, r3
 3174 0010 0022     		movs	r2, #0
 3175 0012 1A70     		strb	r2, [r3]
1014:Api\core\src/vl53l0x_api_calibration.c **** 	uint8_t refSpadsInitialised;
1015:Api\core\src/vl53l0x_api_calibration.c **** 	uint8_t refSpadArray[6];
1016:Api\core\src/vl53l0x_api_calibration.c **** 	uint32_t cMaxSpadCount = 44;
 3176              		.loc 1 1016 0
 3177 0014 2C23     		movs	r3, #44
 3178 0016 BB62     		str	r3, [r7, #40]
1017:Api\core\src/vl53l0x_api_calibration.c **** 	uint32_t cSpadArraySize = 6;
 3179              		.loc 1 1017 0
 3180 0018 0623     		movs	r3, #6
 3181 001a 7B62     		str	r3, [r7, #36]
1018:Api\core\src/vl53l0x_api_calibration.c **** 	uint32_t spadsEnabled;
1019:Api\core\src/vl53l0x_api_calibration.c **** 	uint8_t isApertureSpads = 0;
 3182              		.loc 1 1019 0
 3183 001c 1723     		movs	r3, #23
 3184 001e FB18     		adds	r3, r7, r3
 3185 0020 0022     		movs	r2, #0
 3186 0022 1A70     		strb	r2, [r3]
1020:Api\core\src/vl53l0x_api_calibration.c **** 
1021:Api\core\src/vl53l0x_api_calibration.c **** 	refSpadsInitialised = VL53L0X_GETDEVICESPECIFICPARAMETER(Dev,
 3187              		.loc 1 1021 0
 3188 0024 2323     		movs	r3, #35
 3189 0026 FB18     		adds	r3, r7, r3
 3190 0028 F968     		ldr	r1, [r7, #12]
 3191 002a 1622     		movs	r2, #22
 3192 002c FF32     		adds	r2, r2, #255
ARM GAS  C:\Users\ilya\AppData\Local\Temp\ccWKU7si.s 			page 76


 3193 002e 8A5C     		ldrb	r2, [r1, r2]
 3194 0030 1A70     		strb	r2, [r3]
1022:Api\core\src/vl53l0x_api_calibration.c **** 					RefSpadsInitialised);
1023:Api\core\src/vl53l0x_api_calibration.c **** 
1024:Api\core\src/vl53l0x_api_calibration.c **** 	if (refSpadsInitialised == 1) {
 3195              		.loc 1 1024 0
 3196 0032 2323     		movs	r3, #35
 3197 0034 FB18     		adds	r3, r7, r3
 3198 0036 1B78     		ldrb	r3, [r3]
 3199 0038 012B     		cmp	r3, #1
 3200 003a 0DD1     		bne	.L153
1025:Api\core\src/vl53l0x_api_calibration.c **** 
1026:Api\core\src/vl53l0x_api_calibration.c **** 		*pSpadCount = (uint32_t)VL53L0X_GETDEVICESPECIFICPARAMETER(Dev,
 3201              		.loc 1 1026 0
 3202 003c FA68     		ldr	r2, [r7, #12]
 3203 003e 1423     		movs	r3, #20
 3204 0040 FF33     		adds	r3, r3, #255
 3205 0042 D35C     		ldrb	r3, [r2, r3]
 3206 0044 1A00     		movs	r2, r3
 3207 0046 BB68     		ldr	r3, [r7, #8]
 3208 0048 1A60     		str	r2, [r3]
1027:Api\core\src/vl53l0x_api_calibration.c **** 			ReferenceSpadCount);
1028:Api\core\src/vl53l0x_api_calibration.c **** 		*pIsApertureSpads = VL53L0X_GETDEVICESPECIFICPARAMETER(Dev,
 3209              		.loc 1 1028 0
 3210 004a FA68     		ldr	r2, [r7, #12]
 3211 004c 8A23     		movs	r3, #138
 3212 004e 5B00     		lsls	r3, r3, #1
 3213 0050 D25C     		ldrb	r2, [r2, r3]
 3214 0052 7B68     		ldr	r3, [r7, #4]
 3215 0054 1A70     		strb	r2, [r3]
 3216 0056 40E0     		b	.L154
 3217              	.L153:
1029:Api\core\src/vl53l0x_api_calibration.c **** 			ReferenceSpadType);
1030:Api\core\src/vl53l0x_api_calibration.c **** 	} else {
1031:Api\core\src/vl53l0x_api_calibration.c **** 
1032:Api\core\src/vl53l0x_api_calibration.c **** 		/* obtain spad info from device.*/
1033:Api\core\src/vl53l0x_api_calibration.c **** 		Status = get_ref_spad_map(Dev, refSpadArray);
 3218              		.loc 1 1033 0
 3219 0058 2F23     		movs	r3, #47
 3220 005a FC18     		adds	r4, r7, r3
 3221 005c 1C23     		movs	r3, #28
 3222 005e FA18     		adds	r2, r7, r3
 3223 0060 FB68     		ldr	r3, [r7, #12]
 3224 0062 1100     		movs	r1, r2
 3225 0064 1800     		movs	r0, r3
 3226 0066 FFF7FEFF 		bl	get_ref_spad_map
 3227 006a 0300     		movs	r3, r0
 3228 006c 2370     		strb	r3, [r4]
1034:Api\core\src/vl53l0x_api_calibration.c **** 
1035:Api\core\src/vl53l0x_api_calibration.c **** 		if (Status == VL53L0X_ERROR_NONE) {
 3229              		.loc 1 1035 0
 3230 006e 2F23     		movs	r3, #47
 3231 0070 FB18     		adds	r3, r7, r3
 3232 0072 1B78     		ldrb	r3, [r3]
 3233 0074 5BB2     		sxtb	r3, r3
 3234 0076 002B     		cmp	r3, #0
 3235 0078 2FD1     		bne	.L154
ARM GAS  C:\Users\ilya\AppData\Local\Temp\ccWKU7si.s 			page 77


1036:Api\core\src/vl53l0x_api_calibration.c **** 			/* count enabled spads within spad map array and
1037:Api\core\src/vl53l0x_api_calibration.c **** 			 * determine if Aperture or Non-Aperture.
1038:Api\core\src/vl53l0x_api_calibration.c **** 			 */
1039:Api\core\src/vl53l0x_api_calibration.c **** 			Status = count_enabled_spads(refSpadArray,
 3236              		.loc 1 1039 0
 3237 007a 2F23     		movs	r3, #47
 3238 007c FC18     		adds	r4, r7, r3
 3239 007e 1823     		movs	r3, #24
 3240 0080 FD18     		adds	r5, r7, r3
 3241 0082 BA6A     		ldr	r2, [r7, #40]
 3242 0084 796A     		ldr	r1, [r7, #36]
 3243 0086 1C23     		movs	r3, #28
 3244 0088 F818     		adds	r0, r7, r3
 3245 008a 1723     		movs	r3, #23
 3246 008c FB18     		adds	r3, r7, r3
 3247 008e 0093     		str	r3, [sp]
 3248 0090 2B00     		movs	r3, r5
 3249 0092 FFF7FEFF 		bl	count_enabled_spads
 3250 0096 0300     		movs	r3, r0
 3251 0098 2370     		strb	r3, [r4]
1040:Api\core\src/vl53l0x_api_calibration.c **** 							cSpadArraySize,
1041:Api\core\src/vl53l0x_api_calibration.c **** 							cMaxSpadCount,
1042:Api\core\src/vl53l0x_api_calibration.c **** 							&spadsEnabled,
1043:Api\core\src/vl53l0x_api_calibration.c **** 							&isApertureSpads);
1044:Api\core\src/vl53l0x_api_calibration.c **** 
1045:Api\core\src/vl53l0x_api_calibration.c **** 			if (Status == VL53L0X_ERROR_NONE) {
 3252              		.loc 1 1045 0
 3253 009a 2F23     		movs	r3, #47
 3254 009c FB18     		adds	r3, r7, r3
 3255 009e 1B78     		ldrb	r3, [r3]
 3256 00a0 5BB2     		sxtb	r3, r3
 3257 00a2 002B     		cmp	r3, #0
 3258 00a4 19D1     		bne	.L154
1046:Api\core\src/vl53l0x_api_calibration.c **** 
1047:Api\core\src/vl53l0x_api_calibration.c **** 				*pSpadCount = spadsEnabled;
 3259              		.loc 1 1047 0
 3260 00a6 BA69     		ldr	r2, [r7, #24]
 3261 00a8 BB68     		ldr	r3, [r7, #8]
 3262 00aa 1A60     		str	r2, [r3]
1048:Api\core\src/vl53l0x_api_calibration.c **** 				*pIsApertureSpads = isApertureSpads;
 3263              		.loc 1 1048 0
 3264 00ac 1723     		movs	r3, #23
 3265 00ae FB18     		adds	r3, r7, r3
 3266 00b0 1A78     		ldrb	r2, [r3]
 3267 00b2 7B68     		ldr	r3, [r7, #4]
 3268 00b4 1A70     		strb	r2, [r3]
1049:Api\core\src/vl53l0x_api_calibration.c **** 
1050:Api\core\src/vl53l0x_api_calibration.c **** 				VL53L0X_SETDEVICESPECIFICPARAMETER(Dev,
 3269              		.loc 1 1050 0
 3270 00b6 FA68     		ldr	r2, [r7, #12]
 3271 00b8 1623     		movs	r3, #22
 3272 00ba FF33     		adds	r3, r3, #255
 3273 00bc 0121     		movs	r1, #1
 3274 00be D154     		strb	r1, [r2, r3]
1051:Api\core\src/vl53l0x_api_calibration.c **** 					RefSpadsInitialised, 1);
1052:Api\core\src/vl53l0x_api_calibration.c **** 				VL53L0X_SETDEVICESPECIFICPARAMETER(Dev,
 3275              		.loc 1 1052 0
ARM GAS  C:\Users\ilya\AppData\Local\Temp\ccWKU7si.s 			page 78


 3276 00c0 BB69     		ldr	r3, [r7, #24]
 3277 00c2 D9B2     		uxtb	r1, r3
 3278 00c4 FA68     		ldr	r2, [r7, #12]
 3279 00c6 1423     		movs	r3, #20
 3280 00c8 FF33     		adds	r3, r3, #255
 3281 00ca D154     		strb	r1, [r2, r3]
1053:Api\core\src/vl53l0x_api_calibration.c **** 					ReferenceSpadCount,
1054:Api\core\src/vl53l0x_api_calibration.c **** 					(uint8_t)spadsEnabled);
1055:Api\core\src/vl53l0x_api_calibration.c **** 				VL53L0X_SETDEVICESPECIFICPARAMETER(Dev,
 3282              		.loc 1 1055 0
 3283 00cc 1723     		movs	r3, #23
 3284 00ce FB18     		adds	r3, r7, r3
 3285 00d0 1978     		ldrb	r1, [r3]
 3286 00d2 FA68     		ldr	r2, [r7, #12]
 3287 00d4 8A23     		movs	r3, #138
 3288 00d6 5B00     		lsls	r3, r3, #1
 3289 00d8 D154     		strb	r1, [r2, r3]
 3290              	.L154:
1056:Api\core\src/vl53l0x_api_calibration.c **** 					ReferenceSpadType, isApertureSpads);
1057:Api\core\src/vl53l0x_api_calibration.c **** 			}
1058:Api\core\src/vl53l0x_api_calibration.c **** 		}
1059:Api\core\src/vl53l0x_api_calibration.c **** 	}
1060:Api\core\src/vl53l0x_api_calibration.c **** 
1061:Api\core\src/vl53l0x_api_calibration.c **** 	return Status;
 3291              		.loc 1 1061 0
 3292 00da 2F23     		movs	r3, #47
 3293 00dc FB18     		adds	r3, r7, r3
 3294 00de 1B78     		ldrb	r3, [r3]
 3295 00e0 5BB2     		sxtb	r3, r3
1062:Api\core\src/vl53l0x_api_calibration.c **** }
 3296              		.loc 1 1062 0
 3297 00e2 1800     		movs	r0, r3
 3298 00e4 BD46     		mov	sp, r7
 3299 00e6 0CB0     		add	sp, sp, #48
 3300              		@ sp needed
 3301 00e8 B0BD     		pop	{r4, r5, r7, pc}
 3302              		.cfi_endproc
 3303              	.LFE16:
 3304              		.size	VL53L0X_get_reference_spads, .-VL53L0X_get_reference_spads
 3305 00ea C046     		.section	.text.VL53L0X_perform_single_ref_calibration,"ax",%progbits
 3306              		.align	2
 3307              		.global	VL53L0X_perform_single_ref_calibration
 3308              		.code	16
 3309              		.thumb_func
 3310              		.type	VL53L0X_perform_single_ref_calibration, %function
 3311              	VL53L0X_perform_single_ref_calibration:
 3312              	.LFB17:
1063:Api\core\src/vl53l0x_api_calibration.c **** 
1064:Api\core\src/vl53l0x_api_calibration.c **** 
1065:Api\core\src/vl53l0x_api_calibration.c **** VL53L0X_Error VL53L0X_perform_single_ref_calibration(VL53L0X_DEV Dev,
1066:Api\core\src/vl53l0x_api_calibration.c **** 		uint8_t vhv_init_byte)
1067:Api\core\src/vl53l0x_api_calibration.c **** {
 3313              		.loc 1 1067 0
 3314              		.cfi_startproc
 3315              		@ args = 0, pretend = 0, frame = 16
 3316              		@ frame_needed = 1, uses_anonymous_args = 0
 3317 0000 90B5     		push	{r4, r7, lr}
ARM GAS  C:\Users\ilya\AppData\Local\Temp\ccWKU7si.s 			page 79


 3318              		.cfi_def_cfa_offset 12
 3319              		.cfi_offset 4, -12
 3320              		.cfi_offset 7, -8
 3321              		.cfi_offset 14, -4
 3322 0002 85B0     		sub	sp, sp, #20
 3323              		.cfi_def_cfa_offset 32
 3324 0004 00AF     		add	r7, sp, #0
 3325              		.cfi_def_cfa_register 7
 3326 0006 7860     		str	r0, [r7, #4]
 3327 0008 0A00     		movs	r2, r1
 3328 000a FB1C     		adds	r3, r7, #3
 3329 000c 1A70     		strb	r2, [r3]
1068:Api\core\src/vl53l0x_api_calibration.c **** 	VL53L0X_Error Status = VL53L0X_ERROR_NONE;
 3330              		.loc 1 1068 0
 3331 000e 0F23     		movs	r3, #15
 3332 0010 FB18     		adds	r3, r7, r3
 3333 0012 0022     		movs	r2, #0
 3334 0014 1A70     		strb	r2, [r3]
1069:Api\core\src/vl53l0x_api_calibration.c **** 
1070:Api\core\src/vl53l0x_api_calibration.c **** 	if (Status == VL53L0X_ERROR_NONE)
 3335              		.loc 1 1070 0
 3336 0016 0F23     		movs	r3, #15
 3337 0018 FB18     		adds	r3, r7, r3
 3338 001a 1B78     		ldrb	r3, [r3]
 3339 001c 5BB2     		sxtb	r3, r3
 3340 001e 002B     		cmp	r3, #0
 3341 0020 0DD1     		bne	.L157
1071:Api\core\src/vl53l0x_api_calibration.c **** 		Status = VL53L0X_WrByte(Dev, VL53L0X_REG_SYSRANGE_START,
 3342              		.loc 1 1071 0
 3343 0022 FB1C     		adds	r3, r7, #3
 3344 0024 1B78     		ldrb	r3, [r3]
 3345 0026 0122     		movs	r2, #1
 3346 0028 1343     		orrs	r3, r2
 3347 002a DAB2     		uxtb	r2, r3
 3348 002c 0F23     		movs	r3, #15
 3349 002e FC18     		adds	r4, r7, r3
 3350 0030 7B68     		ldr	r3, [r7, #4]
 3351 0032 0021     		movs	r1, #0
 3352 0034 1800     		movs	r0, r3
 3353 0036 FFF7FEFF 		bl	VL53L0X_WrByte
 3354 003a 0300     		movs	r3, r0
 3355 003c 2370     		strb	r3, [r4]
 3356              	.L157:
1072:Api\core\src/vl53l0x_api_calibration.c **** 				VL53L0X_REG_SYSRANGE_MODE_START_STOP |
1073:Api\core\src/vl53l0x_api_calibration.c **** 				vhv_init_byte);
1074:Api\core\src/vl53l0x_api_calibration.c **** 
1075:Api\core\src/vl53l0x_api_calibration.c **** 	if (Status == VL53L0X_ERROR_NONE)
 3357              		.loc 1 1075 0
 3358 003e 0F23     		movs	r3, #15
 3359 0040 FB18     		adds	r3, r7, r3
 3360 0042 1B78     		ldrb	r3, [r3]
 3361 0044 5BB2     		sxtb	r3, r3
 3362 0046 002B     		cmp	r3, #0
 3363 0048 07D1     		bne	.L158
1076:Api\core\src/vl53l0x_api_calibration.c **** 		Status = VL53L0X_measurement_poll_for_completion(Dev);
 3364              		.loc 1 1076 0
 3365 004a 0F23     		movs	r3, #15
ARM GAS  C:\Users\ilya\AppData\Local\Temp\ccWKU7si.s 			page 80


 3366 004c FC18     		adds	r4, r7, r3
 3367 004e 7B68     		ldr	r3, [r7, #4]
 3368 0050 1800     		movs	r0, r3
 3369 0052 FFF7FEFF 		bl	VL53L0X_measurement_poll_for_completion
 3370 0056 0300     		movs	r3, r0
 3371 0058 2370     		strb	r3, [r4]
 3372              	.L158:
1077:Api\core\src/vl53l0x_api_calibration.c **** 
1078:Api\core\src/vl53l0x_api_calibration.c **** 	if (Status == VL53L0X_ERROR_NONE)
 3373              		.loc 1 1078 0
 3374 005a 0F23     		movs	r3, #15
 3375 005c FB18     		adds	r3, r7, r3
 3376 005e 1B78     		ldrb	r3, [r3]
 3377 0060 5BB2     		sxtb	r3, r3
 3378 0062 002B     		cmp	r3, #0
 3379 0064 08D1     		bne	.L159
1079:Api\core\src/vl53l0x_api_calibration.c **** 		Status = VL53L0X_ClearInterruptMask(Dev, 0);
 3380              		.loc 1 1079 0
 3381 0066 0F23     		movs	r3, #15
 3382 0068 FC18     		adds	r4, r7, r3
 3383 006a 7B68     		ldr	r3, [r7, #4]
 3384 006c 0021     		movs	r1, #0
 3385 006e 1800     		movs	r0, r3
 3386 0070 FFF7FEFF 		bl	VL53L0X_ClearInterruptMask
 3387 0074 0300     		movs	r3, r0
 3388 0076 2370     		strb	r3, [r4]
 3389              	.L159:
1080:Api\core\src/vl53l0x_api_calibration.c **** 
1081:Api\core\src/vl53l0x_api_calibration.c **** 	if (Status == VL53L0X_ERROR_NONE)
 3390              		.loc 1 1081 0
 3391 0078 0F23     		movs	r3, #15
 3392 007a FB18     		adds	r3, r7, r3
 3393 007c 1B78     		ldrb	r3, [r3]
 3394 007e 5BB2     		sxtb	r3, r3
 3395 0080 002B     		cmp	r3, #0
 3396 0082 09D1     		bne	.L160
1082:Api\core\src/vl53l0x_api_calibration.c **** 		Status = VL53L0X_WrByte(Dev, VL53L0X_REG_SYSRANGE_START, 0x00);
 3397              		.loc 1 1082 0
 3398 0084 0F23     		movs	r3, #15
 3399 0086 FC18     		adds	r4, r7, r3
 3400 0088 7B68     		ldr	r3, [r7, #4]
 3401 008a 0022     		movs	r2, #0
 3402 008c 0021     		movs	r1, #0
 3403 008e 1800     		movs	r0, r3
 3404 0090 FFF7FEFF 		bl	VL53L0X_WrByte
 3405 0094 0300     		movs	r3, r0
 3406 0096 2370     		strb	r3, [r4]
 3407              	.L160:
1083:Api\core\src/vl53l0x_api_calibration.c **** 
1084:Api\core\src/vl53l0x_api_calibration.c **** 	return Status;
 3408              		.loc 1 1084 0
 3409 0098 0F23     		movs	r3, #15
 3410 009a FB18     		adds	r3, r7, r3
 3411 009c 1B78     		ldrb	r3, [r3]
 3412 009e 5BB2     		sxtb	r3, r3
1085:Api\core\src/vl53l0x_api_calibration.c **** }
 3413              		.loc 1 1085 0
ARM GAS  C:\Users\ilya\AppData\Local\Temp\ccWKU7si.s 			page 81


 3414 00a0 1800     		movs	r0, r3
 3415 00a2 BD46     		mov	sp, r7
 3416 00a4 05B0     		add	sp, sp, #20
 3417              		@ sp needed
 3418 00a6 90BD     		pop	{r4, r7, pc}
 3419              		.cfi_endproc
 3420              	.LFE17:
 3421              		.size	VL53L0X_perform_single_ref_calibration, .-VL53L0X_perform_single_ref_calibration
 3422              		.section	.text.VL53L0X_ref_calibration_io,"ax",%progbits
 3423              		.align	2
 3424              		.global	VL53L0X_ref_calibration_io
 3425              		.code	16
 3426              		.thumb_func
 3427              		.type	VL53L0X_ref_calibration_io, %function
 3428              	VL53L0X_ref_calibration_io:
 3429              	.LFB18:
1086:Api\core\src/vl53l0x_api_calibration.c **** 
1087:Api\core\src/vl53l0x_api_calibration.c **** 
1088:Api\core\src/vl53l0x_api_calibration.c **** VL53L0X_Error VL53L0X_ref_calibration_io(VL53L0X_DEV Dev, uint8_t read_not_write,
1089:Api\core\src/vl53l0x_api_calibration.c **** 	uint8_t VhvSettings, uint8_t PhaseCal,
1090:Api\core\src/vl53l0x_api_calibration.c **** 	uint8_t *pVhvSettings, uint8_t *pPhaseCal,
1091:Api\core\src/vl53l0x_api_calibration.c **** 	const uint8_t vhv_enable, const uint8_t phase_enable)
1092:Api\core\src/vl53l0x_api_calibration.c **** {
 3430              		.loc 1 1092 0
 3431              		.cfi_startproc
 3432              		@ args = 16, pretend = 0, frame = 16
 3433              		@ frame_needed = 1, uses_anonymous_args = 0
 3434 0000 90B5     		push	{r4, r7, lr}
 3435              		.cfi_def_cfa_offset 12
 3436              		.cfi_offset 4, -12
 3437              		.cfi_offset 7, -8
 3438              		.cfi_offset 14, -4
 3439 0002 85B0     		sub	sp, sp, #20
 3440              		.cfi_def_cfa_offset 32
 3441 0004 00AF     		add	r7, sp, #0
 3442              		.cfi_def_cfa_register 7
 3443 0006 7860     		str	r0, [r7, #4]
 3444 0008 0C00     		movs	r4, r1
 3445 000a 1000     		movs	r0, r2
 3446 000c 1900     		movs	r1, r3
 3447 000e FB1C     		adds	r3, r7, #3
 3448 0010 221C     		adds	r2, r4, #0
 3449 0012 1A70     		strb	r2, [r3]
 3450 0014 BB1C     		adds	r3, r7, #2
 3451 0016 021C     		adds	r2, r0, #0
 3452 0018 1A70     		strb	r2, [r3]
 3453 001a 7B1C     		adds	r3, r7, #1
 3454 001c 0A1C     		adds	r2, r1, #0
 3455 001e 1A70     		strb	r2, [r3]
1093:Api\core\src/vl53l0x_api_calibration.c **** 	VL53L0X_Error Status = VL53L0X_ERROR_NONE;
 3456              		.loc 1 1093 0
 3457 0020 0F23     		movs	r3, #15
 3458 0022 FB18     		adds	r3, r7, r3
 3459 0024 0022     		movs	r2, #0
 3460 0026 1A70     		strb	r2, [r3]
1094:Api\core\src/vl53l0x_api_calibration.c **** 	uint8_t PhaseCalint = 0;
 3461              		.loc 1 1094 0
ARM GAS  C:\Users\ilya\AppData\Local\Temp\ccWKU7si.s 			page 82


 3462 0028 0E23     		movs	r3, #14
 3463 002a FB18     		adds	r3, r7, r3
 3464 002c 0022     		movs	r2, #0
 3465 002e 1A70     		strb	r2, [r3]
1095:Api\core\src/vl53l0x_api_calibration.c **** 
1096:Api\core\src/vl53l0x_api_calibration.c **** 	/* Read VHV from device */
1097:Api\core\src/vl53l0x_api_calibration.c **** 	Status |= VL53L0X_WrByte(Dev, 0xFF, 0x01);
 3466              		.loc 1 1097 0
 3467 0030 7B68     		ldr	r3, [r7, #4]
 3468 0032 0122     		movs	r2, #1
 3469 0034 FF21     		movs	r1, #255
 3470 0036 1800     		movs	r0, r3
 3471 0038 FFF7FEFF 		bl	VL53L0X_WrByte
 3472 003c 0300     		movs	r3, r0
 3473 003e 1900     		movs	r1, r3
 3474 0040 0F23     		movs	r3, #15
 3475 0042 FB18     		adds	r3, r7, r3
 3476 0044 0F22     		movs	r2, #15
 3477 0046 BA18     		adds	r2, r7, r2
 3478 0048 1278     		ldrb	r2, [r2]
 3479 004a 0A43     		orrs	r2, r1
 3480 004c 1A70     		strb	r2, [r3]
1098:Api\core\src/vl53l0x_api_calibration.c **** 	Status |= VL53L0X_WrByte(Dev, 0x00, 0x00);
 3481              		.loc 1 1098 0
 3482 004e 7B68     		ldr	r3, [r7, #4]
 3483 0050 0022     		movs	r2, #0
 3484 0052 0021     		movs	r1, #0
 3485 0054 1800     		movs	r0, r3
 3486 0056 FFF7FEFF 		bl	VL53L0X_WrByte
 3487 005a 0300     		movs	r3, r0
 3488 005c 1900     		movs	r1, r3
 3489 005e 0F23     		movs	r3, #15
 3490 0060 FB18     		adds	r3, r7, r3
 3491 0062 0F22     		movs	r2, #15
 3492 0064 BA18     		adds	r2, r7, r2
 3493 0066 1278     		ldrb	r2, [r2]
 3494 0068 0A43     		orrs	r2, r1
 3495 006a 1A70     		strb	r2, [r3]
1099:Api\core\src/vl53l0x_api_calibration.c **** 	Status |= VL53L0X_WrByte(Dev, 0xFF, 0x00);
 3496              		.loc 1 1099 0
 3497 006c 7B68     		ldr	r3, [r7, #4]
 3498 006e 0022     		movs	r2, #0
 3499 0070 FF21     		movs	r1, #255
 3500 0072 1800     		movs	r0, r3
 3501 0074 FFF7FEFF 		bl	VL53L0X_WrByte
 3502 0078 0300     		movs	r3, r0
 3503 007a 1900     		movs	r1, r3
 3504 007c 0F23     		movs	r3, #15
 3505 007e FB18     		adds	r3, r7, r3
 3506 0080 0F22     		movs	r2, #15
 3507 0082 BA18     		adds	r2, r7, r2
 3508 0084 1278     		ldrb	r2, [r2]
 3509 0086 0A43     		orrs	r2, r1
 3510 0088 1A70     		strb	r2, [r3]
1100:Api\core\src/vl53l0x_api_calibration.c **** 
1101:Api\core\src/vl53l0x_api_calibration.c **** 	if (read_not_write) {
 3511              		.loc 1 1101 0
ARM GAS  C:\Users\ilya\AppData\Local\Temp\ccWKU7si.s 			page 83


 3512 008a FB1C     		adds	r3, r7, #3
 3513 008c 1B78     		ldrb	r3, [r3]
 3514 008e 002B     		cmp	r3, #0
 3515 0090 29D0     		beq	.L163
1102:Api\core\src/vl53l0x_api_calibration.c **** 		if (vhv_enable)
 3516              		.loc 1 1102 0
 3517 0092 2823     		movs	r3, #40
 3518 0094 FB18     		adds	r3, r7, r3
 3519 0096 1B78     		ldrb	r3, [r3]
 3520 0098 002B     		cmp	r3, #0
 3521 009a 0ED0     		beq	.L164
1103:Api\core\src/vl53l0x_api_calibration.c **** 			Status |= VL53L0X_RdByte(Dev, 0xCB, pVhvSettings);
 3522              		.loc 1 1103 0
 3523 009c 3A6A     		ldr	r2, [r7, #32]
 3524 009e 7B68     		ldr	r3, [r7, #4]
 3525 00a0 CB21     		movs	r1, #203
 3526 00a2 1800     		movs	r0, r3
 3527 00a4 FFF7FEFF 		bl	VL53L0X_RdByte
 3528 00a8 0300     		movs	r3, r0
 3529 00aa 1900     		movs	r1, r3
 3530 00ac 0F23     		movs	r3, #15
 3531 00ae FB18     		adds	r3, r7, r3
 3532 00b0 0F22     		movs	r2, #15
 3533 00b2 BA18     		adds	r2, r7, r2
 3534 00b4 1278     		ldrb	r2, [r2]
 3535 00b6 0A43     		orrs	r2, r1
 3536 00b8 1A70     		strb	r2, [r3]
 3537              	.L164:
1104:Api\core\src/vl53l0x_api_calibration.c **** 		if (phase_enable)
 3538              		.loc 1 1104 0
 3539 00ba 2C23     		movs	r3, #44
 3540 00bc FB18     		adds	r3, r7, r3
 3541 00be 1B78     		ldrb	r3, [r3]
 3542 00c0 002B     		cmp	r3, #0
 3543 00c2 3AD0     		beq	.L166
1105:Api\core\src/vl53l0x_api_calibration.c **** 			Status |= VL53L0X_RdByte(Dev, 0xEE, &PhaseCalint);
 3544              		.loc 1 1105 0
 3545 00c4 0E23     		movs	r3, #14
 3546 00c6 FA18     		adds	r2, r7, r3
 3547 00c8 7B68     		ldr	r3, [r7, #4]
 3548 00ca EE21     		movs	r1, #238
 3549 00cc 1800     		movs	r0, r3
 3550 00ce FFF7FEFF 		bl	VL53L0X_RdByte
 3551 00d2 0300     		movs	r3, r0
 3552 00d4 1900     		movs	r1, r3
 3553 00d6 0F23     		movs	r3, #15
 3554 00d8 FB18     		adds	r3, r7, r3
 3555 00da 0F22     		movs	r2, #15
 3556 00dc BA18     		adds	r2, r7, r2
 3557 00de 1278     		ldrb	r2, [r2]
 3558 00e0 0A43     		orrs	r2, r1
 3559 00e2 1A70     		strb	r2, [r3]
 3560 00e4 29E0     		b	.L166
 3561              	.L163:
1106:Api\core\src/vl53l0x_api_calibration.c **** 	} else {
1107:Api\core\src/vl53l0x_api_calibration.c **** 		if (vhv_enable)
 3562              		.loc 1 1107 0
ARM GAS  C:\Users\ilya\AppData\Local\Temp\ccWKU7si.s 			page 84


 3563 00e6 2823     		movs	r3, #40
 3564 00e8 FB18     		adds	r3, r7, r3
 3565 00ea 1B78     		ldrb	r3, [r3]
 3566 00ec 002B     		cmp	r3, #0
 3567 00ee 0FD0     		beq	.L167
1108:Api\core\src/vl53l0x_api_calibration.c **** 			Status |= VL53L0X_WrByte(Dev, 0xCB, VhvSettings);
 3568              		.loc 1 1108 0
 3569 00f0 BB1C     		adds	r3, r7, #2
 3570 00f2 1A78     		ldrb	r2, [r3]
 3571 00f4 7B68     		ldr	r3, [r7, #4]
 3572 00f6 CB21     		movs	r1, #203
 3573 00f8 1800     		movs	r0, r3
 3574 00fa FFF7FEFF 		bl	VL53L0X_WrByte
 3575 00fe 0300     		movs	r3, r0
 3576 0100 1900     		movs	r1, r3
 3577 0102 0F23     		movs	r3, #15
 3578 0104 FB18     		adds	r3, r7, r3
 3579 0106 0F22     		movs	r2, #15
 3580 0108 BA18     		adds	r2, r7, r2
 3581 010a 1278     		ldrb	r2, [r2]
 3582 010c 0A43     		orrs	r2, r1
 3583 010e 1A70     		strb	r2, [r3]
 3584              	.L167:
1109:Api\core\src/vl53l0x_api_calibration.c **** 		if (phase_enable)
 3585              		.loc 1 1109 0
 3586 0110 2C23     		movs	r3, #44
 3587 0112 FB18     		adds	r3, r7, r3
 3588 0114 1B78     		ldrb	r3, [r3]
 3589 0116 002B     		cmp	r3, #0
 3590 0118 0FD0     		beq	.L166
1110:Api\core\src/vl53l0x_api_calibration.c **** 			Status |= VL53L0X_UpdateByte(Dev, 0xEE, 0x80, PhaseCal);
 3591              		.loc 1 1110 0
 3592 011a 7B1C     		adds	r3, r7, #1
 3593 011c 1B78     		ldrb	r3, [r3]
 3594 011e 7868     		ldr	r0, [r7, #4]
 3595 0120 8022     		movs	r2, #128
 3596 0122 EE21     		movs	r1, #238
 3597 0124 FFF7FEFF 		bl	VL53L0X_UpdateByte
 3598 0128 0300     		movs	r3, r0
 3599 012a 1900     		movs	r1, r3
 3600 012c 0F23     		movs	r3, #15
 3601 012e FB18     		adds	r3, r7, r3
 3602 0130 0F22     		movs	r2, #15
 3603 0132 BA18     		adds	r2, r7, r2
 3604 0134 1278     		ldrb	r2, [r2]
 3605 0136 0A43     		orrs	r2, r1
 3606 0138 1A70     		strb	r2, [r3]
 3607              	.L166:
1111:Api\core\src/vl53l0x_api_calibration.c **** 	}
1112:Api\core\src/vl53l0x_api_calibration.c **** 
1113:Api\core\src/vl53l0x_api_calibration.c **** 	Status |= VL53L0X_WrByte(Dev, 0xFF, 0x01);
 3608              		.loc 1 1113 0
 3609 013a 7B68     		ldr	r3, [r7, #4]
 3610 013c 0122     		movs	r2, #1
 3611 013e FF21     		movs	r1, #255
 3612 0140 1800     		movs	r0, r3
 3613 0142 FFF7FEFF 		bl	VL53L0X_WrByte
ARM GAS  C:\Users\ilya\AppData\Local\Temp\ccWKU7si.s 			page 85


 3614 0146 0300     		movs	r3, r0
 3615 0148 1900     		movs	r1, r3
 3616 014a 0F23     		movs	r3, #15
 3617 014c FB18     		adds	r3, r7, r3
 3618 014e 0F22     		movs	r2, #15
 3619 0150 BA18     		adds	r2, r7, r2
 3620 0152 1278     		ldrb	r2, [r2]
 3621 0154 0A43     		orrs	r2, r1
 3622 0156 1A70     		strb	r2, [r3]
1114:Api\core\src/vl53l0x_api_calibration.c **** 	Status |= VL53L0X_WrByte(Dev, 0x00, 0x01);
 3623              		.loc 1 1114 0
 3624 0158 7B68     		ldr	r3, [r7, #4]
 3625 015a 0122     		movs	r2, #1
 3626 015c 0021     		movs	r1, #0
 3627 015e 1800     		movs	r0, r3
 3628 0160 FFF7FEFF 		bl	VL53L0X_WrByte
 3629 0164 0300     		movs	r3, r0
 3630 0166 1900     		movs	r1, r3
 3631 0168 0F23     		movs	r3, #15
 3632 016a FB18     		adds	r3, r7, r3
 3633 016c 0F22     		movs	r2, #15
 3634 016e BA18     		adds	r2, r7, r2
 3635 0170 1278     		ldrb	r2, [r2]
 3636 0172 0A43     		orrs	r2, r1
 3637 0174 1A70     		strb	r2, [r3]
1115:Api\core\src/vl53l0x_api_calibration.c **** 	Status |= VL53L0X_WrByte(Dev, 0xFF, 0x00);
 3638              		.loc 1 1115 0
 3639 0176 7B68     		ldr	r3, [r7, #4]
 3640 0178 0022     		movs	r2, #0
 3641 017a FF21     		movs	r1, #255
 3642 017c 1800     		movs	r0, r3
 3643 017e FFF7FEFF 		bl	VL53L0X_WrByte
 3644 0182 0300     		movs	r3, r0
 3645 0184 1900     		movs	r1, r3
 3646 0186 0F23     		movs	r3, #15
 3647 0188 FB18     		adds	r3, r7, r3
 3648 018a 0F22     		movs	r2, #15
 3649 018c BA18     		adds	r2, r7, r2
 3650 018e 1278     		ldrb	r2, [r2]
 3651 0190 0A43     		orrs	r2, r1
 3652 0192 1A70     		strb	r2, [r3]
1116:Api\core\src/vl53l0x_api_calibration.c **** 
1117:Api\core\src/vl53l0x_api_calibration.c **** 	*pPhaseCal = (uint8_t)(PhaseCalint&0xEF);
 3653              		.loc 1 1117 0
 3654 0194 0E23     		movs	r3, #14
 3655 0196 FB18     		adds	r3, r7, r3
 3656 0198 1B78     		ldrb	r3, [r3]
 3657 019a 1022     		movs	r2, #16
 3658 019c 9343     		bics	r3, r2
 3659 019e DAB2     		uxtb	r2, r3
 3660 01a0 7B6A     		ldr	r3, [r7, #36]
 3661 01a2 1A70     		strb	r2, [r3]
1118:Api\core\src/vl53l0x_api_calibration.c **** 
1119:Api\core\src/vl53l0x_api_calibration.c **** 	return Status;
 3662              		.loc 1 1119 0
 3663 01a4 0F23     		movs	r3, #15
 3664 01a6 FB18     		adds	r3, r7, r3
ARM GAS  C:\Users\ilya\AppData\Local\Temp\ccWKU7si.s 			page 86


 3665 01a8 1B78     		ldrb	r3, [r3]
 3666 01aa 5BB2     		sxtb	r3, r3
1120:Api\core\src/vl53l0x_api_calibration.c **** }
 3667              		.loc 1 1120 0
 3668 01ac 1800     		movs	r0, r3
 3669 01ae BD46     		mov	sp, r7
 3670 01b0 05B0     		add	sp, sp, #20
 3671              		@ sp needed
 3672 01b2 90BD     		pop	{r4, r7, pc}
 3673              		.cfi_endproc
 3674              	.LFE18:
 3675              		.size	VL53L0X_ref_calibration_io, .-VL53L0X_ref_calibration_io
 3676              		.section	.text.VL53L0X_perform_vhv_calibration,"ax",%progbits
 3677              		.align	2
 3678              		.global	VL53L0X_perform_vhv_calibration
 3679              		.code	16
 3680              		.thumb_func
 3681              		.type	VL53L0X_perform_vhv_calibration, %function
 3682              	VL53L0X_perform_vhv_calibration:
 3683              	.LFB19:
1121:Api\core\src/vl53l0x_api_calibration.c **** 
1122:Api\core\src/vl53l0x_api_calibration.c **** 
1123:Api\core\src/vl53l0x_api_calibration.c **** VL53L0X_Error VL53L0X_perform_vhv_calibration(VL53L0X_DEV Dev,
1124:Api\core\src/vl53l0x_api_calibration.c **** 	uint8_t *pVhvSettings, const uint8_t get_data_enable,
1125:Api\core\src/vl53l0x_api_calibration.c **** 	const uint8_t restore_config)
1126:Api\core\src/vl53l0x_api_calibration.c **** {
 3684              		.loc 1 1126 0
 3685              		.cfi_startproc
 3686              		@ args = 0, pretend = 0, frame = 24
 3687              		@ frame_needed = 1, uses_anonymous_args = 0
 3688 0000 90B5     		push	{r4, r7, lr}
 3689              		.cfi_def_cfa_offset 12
 3690              		.cfi_offset 4, -12
 3691              		.cfi_offset 7, -8
 3692              		.cfi_offset 14, -4
 3693 0002 8BB0     		sub	sp, sp, #44
 3694              		.cfi_def_cfa_offset 56
 3695 0004 04AF     		add	r7, sp, #16
 3696              		.cfi_def_cfa 7, 40
 3697 0006 F860     		str	r0, [r7, #12]
 3698 0008 B960     		str	r1, [r7, #8]
 3699 000a 1900     		movs	r1, r3
 3700 000c FB1D     		adds	r3, r7, #7
 3701 000e 1A70     		strb	r2, [r3]
 3702 0010 BB1D     		adds	r3, r7, #6
 3703 0012 0A1C     		adds	r2, r1, #0
 3704 0014 1A70     		strb	r2, [r3]
1127:Api\core\src/vl53l0x_api_calibration.c **** 	VL53L0X_Error Status = VL53L0X_ERROR_NONE;
 3705              		.loc 1 1127 0
 3706 0016 1723     		movs	r3, #23
 3707 0018 FB18     		adds	r3, r7, r3
 3708 001a 0022     		movs	r2, #0
 3709 001c 1A70     		strb	r2, [r3]
1128:Api\core\src/vl53l0x_api_calibration.c **** 	uint8_t SequenceConfig = 0;
 3710              		.loc 1 1128 0
 3711 001e 1623     		movs	r3, #22
 3712 0020 FB18     		adds	r3, r7, r3
ARM GAS  C:\Users\ilya\AppData\Local\Temp\ccWKU7si.s 			page 87


 3713 0022 0022     		movs	r2, #0
 3714 0024 1A70     		strb	r2, [r3]
1129:Api\core\src/vl53l0x_api_calibration.c **** 	uint8_t VhvSettings = 0;
 3715              		.loc 1 1129 0
 3716 0026 1523     		movs	r3, #21
 3717 0028 FB18     		adds	r3, r7, r3
 3718 002a 0022     		movs	r2, #0
 3719 002c 1A70     		strb	r2, [r3]
1130:Api\core\src/vl53l0x_api_calibration.c **** 	uint8_t PhaseCal = 0;
 3720              		.loc 1 1130 0
 3721 002e 1423     		movs	r3, #20
 3722 0030 FB18     		adds	r3, r7, r3
 3723 0032 0022     		movs	r2, #0
 3724 0034 1A70     		strb	r2, [r3]
1131:Api\core\src/vl53l0x_api_calibration.c **** 	uint8_t PhaseCalInt = 0;
 3725              		.loc 1 1131 0
 3726 0036 1323     		movs	r3, #19
 3727 0038 FB18     		adds	r3, r7, r3
 3728 003a 0022     		movs	r2, #0
 3729 003c 1A70     		strb	r2, [r3]
1132:Api\core\src/vl53l0x_api_calibration.c **** 
1133:Api\core\src/vl53l0x_api_calibration.c **** 	/* store the value of the sequence config,
1134:Api\core\src/vl53l0x_api_calibration.c **** 	 * this will be reset before the end of the function
1135:Api\core\src/vl53l0x_api_calibration.c **** 	 */
1136:Api\core\src/vl53l0x_api_calibration.c **** 
1137:Api\core\src/vl53l0x_api_calibration.c **** 	if (restore_config)
 3730              		.loc 1 1137 0
 3731 003e BB1D     		adds	r3, r7, #6
 3732 0040 1B78     		ldrb	r3, [r3]
 3733 0042 002B     		cmp	r3, #0
 3734 0044 06D0     		beq	.L170
1138:Api\core\src/vl53l0x_api_calibration.c **** 		SequenceConfig = PALDevDataGet(Dev, SequenceConfig);
 3735              		.loc 1 1138 0
 3736 0046 1623     		movs	r3, #22
 3737 0048 FB18     		adds	r3, r7, r3
 3738 004a F968     		ldr	r1, [r7, #12]
 3739 004c 9822     		movs	r2, #152
 3740 004e 5200     		lsls	r2, r2, #1
 3741 0050 8A5C     		ldrb	r2, [r1, r2]
 3742 0052 1A70     		strb	r2, [r3]
 3743              	.L170:
1139:Api\core\src/vl53l0x_api_calibration.c **** 
1140:Api\core\src/vl53l0x_api_calibration.c **** 	/* Run VHV */
1141:Api\core\src/vl53l0x_api_calibration.c **** 	Status = VL53L0X_WrByte(Dev, VL53L0X_REG_SYSTEM_SEQUENCE_CONFIG, 0x01);
 3744              		.loc 1 1141 0
 3745 0054 1723     		movs	r3, #23
 3746 0056 FC18     		adds	r4, r7, r3
 3747 0058 FB68     		ldr	r3, [r7, #12]
 3748 005a 0122     		movs	r2, #1
 3749 005c 0121     		movs	r1, #1
 3750 005e 1800     		movs	r0, r3
 3751 0060 FFF7FEFF 		bl	VL53L0X_WrByte
 3752 0064 0300     		movs	r3, r0
 3753 0066 2370     		strb	r3, [r4]
1142:Api\core\src/vl53l0x_api_calibration.c **** 
1143:Api\core\src/vl53l0x_api_calibration.c **** 	if (Status == VL53L0X_ERROR_NONE)
 3754              		.loc 1 1143 0
ARM GAS  C:\Users\ilya\AppData\Local\Temp\ccWKU7si.s 			page 88


 3755 0068 1723     		movs	r3, #23
 3756 006a FB18     		adds	r3, r7, r3
 3757 006c 1B78     		ldrb	r3, [r3]
 3758 006e 5BB2     		sxtb	r3, r3
 3759 0070 002B     		cmp	r3, #0
 3760 0072 08D1     		bne	.L171
1144:Api\core\src/vl53l0x_api_calibration.c **** 		Status = VL53L0X_perform_single_ref_calibration(Dev, 0x40);
 3761              		.loc 1 1144 0
 3762 0074 1723     		movs	r3, #23
 3763 0076 FC18     		adds	r4, r7, r3
 3764 0078 FB68     		ldr	r3, [r7, #12]
 3765 007a 4021     		movs	r1, #64
 3766 007c 1800     		movs	r0, r3
 3767 007e FFF7FEFF 		bl	VL53L0X_perform_single_ref_calibration
 3768 0082 0300     		movs	r3, r0
 3769 0084 2370     		strb	r3, [r4]
 3770              	.L171:
1145:Api\core\src/vl53l0x_api_calibration.c **** 
1146:Api\core\src/vl53l0x_api_calibration.c **** 	/* Read VHV from device */
1147:Api\core\src/vl53l0x_api_calibration.c **** 	if ((Status == VL53L0X_ERROR_NONE) && (get_data_enable == 1)) {
 3771              		.loc 1 1147 0
 3772 0086 1723     		movs	r3, #23
 3773 0088 FB18     		adds	r3, r7, r3
 3774 008a 1B78     		ldrb	r3, [r3]
 3775 008c 5BB2     		sxtb	r3, r3
 3776 008e 002B     		cmp	r3, #0
 3777 0090 1CD1     		bne	.L172
 3778              		.loc 1 1147 0 is_stmt 0 discriminator 1
 3779 0092 FB1D     		adds	r3, r7, #7
 3780 0094 1B78     		ldrb	r3, [r3]
 3781 0096 012B     		cmp	r3, #1
 3782 0098 18D1     		bne	.L172
1148:Api\core\src/vl53l0x_api_calibration.c **** 		Status = VL53L0X_ref_calibration_io(Dev, 1,
 3783              		.loc 1 1148 0 is_stmt 1
 3784 009a 1723     		movs	r3, #23
 3785 009c FC18     		adds	r4, r7, r3
 3786 009e 1423     		movs	r3, #20
 3787 00a0 FB18     		adds	r3, r7, r3
 3788 00a2 1978     		ldrb	r1, [r3]
 3789 00a4 1523     		movs	r3, #21
 3790 00a6 FB18     		adds	r3, r7, r3
 3791 00a8 1A78     		ldrb	r2, [r3]
 3792 00aa F868     		ldr	r0, [r7, #12]
 3793 00ac 0023     		movs	r3, #0
 3794 00ae 0393     		str	r3, [sp, #12]
 3795 00b0 0123     		movs	r3, #1
 3796 00b2 0293     		str	r3, [sp, #8]
 3797 00b4 1323     		movs	r3, #19
 3798 00b6 FB18     		adds	r3, r7, r3
 3799 00b8 0193     		str	r3, [sp, #4]
 3800 00ba BB68     		ldr	r3, [r7, #8]
 3801 00bc 0093     		str	r3, [sp]
 3802 00be 0B00     		movs	r3, r1
 3803 00c0 0121     		movs	r1, #1
 3804 00c2 FFF7FEFF 		bl	VL53L0X_ref_calibration_io
 3805 00c6 0300     		movs	r3, r0
 3806 00c8 2370     		strb	r3, [r4]
ARM GAS  C:\Users\ilya\AppData\Local\Temp\ccWKU7si.s 			page 89


 3807 00ca 02E0     		b	.L173
 3808              	.L172:
1149:Api\core\src/vl53l0x_api_calibration.c **** 			VhvSettings, PhaseCal, /* Not used here */
1150:Api\core\src/vl53l0x_api_calibration.c **** 			pVhvSettings, &PhaseCalInt,
1151:Api\core\src/vl53l0x_api_calibration.c **** 			1, 0);
1152:Api\core\src/vl53l0x_api_calibration.c **** 	} else
1153:Api\core\src/vl53l0x_api_calibration.c **** 		*pVhvSettings = 0;
 3809              		.loc 1 1153 0
 3810 00cc BB68     		ldr	r3, [r7, #8]
 3811 00ce 0022     		movs	r2, #0
 3812 00d0 1A70     		strb	r2, [r3]
 3813              	.L173:
1154:Api\core\src/vl53l0x_api_calibration.c **** 
1155:Api\core\src/vl53l0x_api_calibration.c **** 
1156:Api\core\src/vl53l0x_api_calibration.c **** 	if ((Status == VL53L0X_ERROR_NONE) && restore_config) {
 3814              		.loc 1 1156 0
 3815 00d2 1723     		movs	r3, #23
 3816 00d4 FB18     		adds	r3, r7, r3
 3817 00d6 1B78     		ldrb	r3, [r3]
 3818 00d8 5BB2     		sxtb	r3, r3
 3819 00da 002B     		cmp	r3, #0
 3820 00dc 1CD1     		bne	.L174
 3821              		.loc 1 1156 0 is_stmt 0 discriminator 1
 3822 00de BB1D     		adds	r3, r7, #6
 3823 00e0 1B78     		ldrb	r3, [r3]
 3824 00e2 002B     		cmp	r3, #0
 3825 00e4 18D0     		beq	.L174
1157:Api\core\src/vl53l0x_api_calibration.c **** 		/* restore the previous Sequence Config */
1158:Api\core\src/vl53l0x_api_calibration.c **** 		Status = VL53L0X_WrByte(Dev, VL53L0X_REG_SYSTEM_SEQUENCE_CONFIG,
 3826              		.loc 1 1158 0 is_stmt 1
 3827 00e6 1723     		movs	r3, #23
 3828 00e8 FC18     		adds	r4, r7, r3
 3829 00ea 1623     		movs	r3, #22
 3830 00ec FB18     		adds	r3, r7, r3
 3831 00ee 1A78     		ldrb	r2, [r3]
 3832 00f0 FB68     		ldr	r3, [r7, #12]
 3833 00f2 0121     		movs	r1, #1
 3834 00f4 1800     		movs	r0, r3
 3835 00f6 FFF7FEFF 		bl	VL53L0X_WrByte
 3836 00fa 0300     		movs	r3, r0
 3837 00fc 2370     		strb	r3, [r4]
1159:Api\core\src/vl53l0x_api_calibration.c **** 				SequenceConfig);
1160:Api\core\src/vl53l0x_api_calibration.c **** 		if (Status == VL53L0X_ERROR_NONE)
 3838              		.loc 1 1160 0
 3839 00fe 1723     		movs	r3, #23
 3840 0100 FB18     		adds	r3, r7, r3
 3841 0102 1B78     		ldrb	r3, [r3]
 3842 0104 5BB2     		sxtb	r3, r3
 3843 0106 002B     		cmp	r3, #0
 3844 0108 06D1     		bne	.L174
1161:Api\core\src/vl53l0x_api_calibration.c **** 			PALDevDataSet(Dev, SequenceConfig, SequenceConfig);
 3845              		.loc 1 1161 0
 3846 010a FA68     		ldr	r2, [r7, #12]
 3847 010c 1623     		movs	r3, #22
 3848 010e F918     		adds	r1, r7, r3
 3849 0110 9823     		movs	r3, #152
 3850 0112 5B00     		lsls	r3, r3, #1
ARM GAS  C:\Users\ilya\AppData\Local\Temp\ccWKU7si.s 			page 90


 3851 0114 0978     		ldrb	r1, [r1]
 3852 0116 D154     		strb	r1, [r2, r3]
 3853              	.L174:
1162:Api\core\src/vl53l0x_api_calibration.c **** 
1163:Api\core\src/vl53l0x_api_calibration.c **** 	}
1164:Api\core\src/vl53l0x_api_calibration.c **** 
1165:Api\core\src/vl53l0x_api_calibration.c **** 	return Status;
 3854              		.loc 1 1165 0
 3855 0118 1723     		movs	r3, #23
 3856 011a FB18     		adds	r3, r7, r3
 3857 011c 1B78     		ldrb	r3, [r3]
 3858 011e 5BB2     		sxtb	r3, r3
1166:Api\core\src/vl53l0x_api_calibration.c **** }
 3859              		.loc 1 1166 0
 3860 0120 1800     		movs	r0, r3
 3861 0122 BD46     		mov	sp, r7
 3862 0124 07B0     		add	sp, sp, #28
 3863              		@ sp needed
 3864 0126 90BD     		pop	{r4, r7, pc}
 3865              		.cfi_endproc
 3866              	.LFE19:
 3867              		.size	VL53L0X_perform_vhv_calibration, .-VL53L0X_perform_vhv_calibration
 3868              		.section	.text.VL53L0X_perform_phase_calibration,"ax",%progbits
 3869              		.align	2
 3870              		.global	VL53L0X_perform_phase_calibration
 3871              		.code	16
 3872              		.thumb_func
 3873              		.type	VL53L0X_perform_phase_calibration, %function
 3874              	VL53L0X_perform_phase_calibration:
 3875              	.LFB20:
1167:Api\core\src/vl53l0x_api_calibration.c **** 
1168:Api\core\src/vl53l0x_api_calibration.c **** VL53L0X_Error VL53L0X_perform_phase_calibration(VL53L0X_DEV Dev,
1169:Api\core\src/vl53l0x_api_calibration.c **** 	uint8_t *pPhaseCal, const uint8_t get_data_enable,
1170:Api\core\src/vl53l0x_api_calibration.c **** 	const uint8_t restore_config)
1171:Api\core\src/vl53l0x_api_calibration.c **** {
 3876              		.loc 1 1171 0
 3877              		.cfi_startproc
 3878              		@ args = 0, pretend = 0, frame = 24
 3879              		@ frame_needed = 1, uses_anonymous_args = 0
 3880 0000 90B5     		push	{r4, r7, lr}
 3881              		.cfi_def_cfa_offset 12
 3882              		.cfi_offset 4, -12
 3883              		.cfi_offset 7, -8
 3884              		.cfi_offset 14, -4
 3885 0002 8BB0     		sub	sp, sp, #44
 3886              		.cfi_def_cfa_offset 56
 3887 0004 04AF     		add	r7, sp, #16
 3888              		.cfi_def_cfa 7, 40
 3889 0006 F860     		str	r0, [r7, #12]
 3890 0008 B960     		str	r1, [r7, #8]
 3891 000a 1900     		movs	r1, r3
 3892 000c FB1D     		adds	r3, r7, #7
 3893 000e 1A70     		strb	r2, [r3]
 3894 0010 BB1D     		adds	r3, r7, #6
 3895 0012 0A1C     		adds	r2, r1, #0
 3896 0014 1A70     		strb	r2, [r3]
1172:Api\core\src/vl53l0x_api_calibration.c **** 	VL53L0X_Error Status = VL53L0X_ERROR_NONE;
ARM GAS  C:\Users\ilya\AppData\Local\Temp\ccWKU7si.s 			page 91


 3897              		.loc 1 1172 0
 3898 0016 1723     		movs	r3, #23
 3899 0018 FB18     		adds	r3, r7, r3
 3900 001a 0022     		movs	r2, #0
 3901 001c 1A70     		strb	r2, [r3]
1173:Api\core\src/vl53l0x_api_calibration.c **** 	uint8_t SequenceConfig = 0;
 3902              		.loc 1 1173 0
 3903 001e 1623     		movs	r3, #22
 3904 0020 FB18     		adds	r3, r7, r3
 3905 0022 0022     		movs	r2, #0
 3906 0024 1A70     		strb	r2, [r3]
1174:Api\core\src/vl53l0x_api_calibration.c **** 	uint8_t VhvSettings = 0;
 3907              		.loc 1 1174 0
 3908 0026 1523     		movs	r3, #21
 3909 0028 FB18     		adds	r3, r7, r3
 3910 002a 0022     		movs	r2, #0
 3911 002c 1A70     		strb	r2, [r3]
1175:Api\core\src/vl53l0x_api_calibration.c **** 	uint8_t PhaseCal = 0;
 3912              		.loc 1 1175 0
 3913 002e 1423     		movs	r3, #20
 3914 0030 FB18     		adds	r3, r7, r3
 3915 0032 0022     		movs	r2, #0
 3916 0034 1A70     		strb	r2, [r3]
1176:Api\core\src/vl53l0x_api_calibration.c **** 	uint8_t VhvSettingsint;
1177:Api\core\src/vl53l0x_api_calibration.c **** 
1178:Api\core\src/vl53l0x_api_calibration.c **** 	/* store the value of the sequence config,
1179:Api\core\src/vl53l0x_api_calibration.c **** 	 * this will be reset before the end of the function
1180:Api\core\src/vl53l0x_api_calibration.c **** 	 */
1181:Api\core\src/vl53l0x_api_calibration.c **** 
1182:Api\core\src/vl53l0x_api_calibration.c **** 	if (restore_config)
 3917              		.loc 1 1182 0
 3918 0036 BB1D     		adds	r3, r7, #6
 3919 0038 1B78     		ldrb	r3, [r3]
 3920 003a 002B     		cmp	r3, #0
 3921 003c 06D0     		beq	.L177
1183:Api\core\src/vl53l0x_api_calibration.c **** 		SequenceConfig = PALDevDataGet(Dev, SequenceConfig);
 3922              		.loc 1 1183 0
 3923 003e 1623     		movs	r3, #22
 3924 0040 FB18     		adds	r3, r7, r3
 3925 0042 F968     		ldr	r1, [r7, #12]
 3926 0044 9822     		movs	r2, #152
 3927 0046 5200     		lsls	r2, r2, #1
 3928 0048 8A5C     		ldrb	r2, [r1, r2]
 3929 004a 1A70     		strb	r2, [r3]
 3930              	.L177:
1184:Api\core\src/vl53l0x_api_calibration.c **** 
1185:Api\core\src/vl53l0x_api_calibration.c **** 	/* Run PhaseCal */
1186:Api\core\src/vl53l0x_api_calibration.c **** 	Status = VL53L0X_WrByte(Dev, VL53L0X_REG_SYSTEM_SEQUENCE_CONFIG, 0x02);
 3931              		.loc 1 1186 0
 3932 004c 1723     		movs	r3, #23
 3933 004e FC18     		adds	r4, r7, r3
 3934 0050 FB68     		ldr	r3, [r7, #12]
 3935 0052 0222     		movs	r2, #2
 3936 0054 0121     		movs	r1, #1
 3937 0056 1800     		movs	r0, r3
 3938 0058 FFF7FEFF 		bl	VL53L0X_WrByte
 3939 005c 0300     		movs	r3, r0
ARM GAS  C:\Users\ilya\AppData\Local\Temp\ccWKU7si.s 			page 92


 3940 005e 2370     		strb	r3, [r4]
1187:Api\core\src/vl53l0x_api_calibration.c **** 
1188:Api\core\src/vl53l0x_api_calibration.c **** 	if (Status == VL53L0X_ERROR_NONE)
 3941              		.loc 1 1188 0
 3942 0060 1723     		movs	r3, #23
 3943 0062 FB18     		adds	r3, r7, r3
 3944 0064 1B78     		ldrb	r3, [r3]
 3945 0066 5BB2     		sxtb	r3, r3
 3946 0068 002B     		cmp	r3, #0
 3947 006a 08D1     		bne	.L178
1189:Api\core\src/vl53l0x_api_calibration.c **** 		Status = VL53L0X_perform_single_ref_calibration(Dev, 0x0);
 3948              		.loc 1 1189 0
 3949 006c 1723     		movs	r3, #23
 3950 006e FC18     		adds	r4, r7, r3
 3951 0070 FB68     		ldr	r3, [r7, #12]
 3952 0072 0021     		movs	r1, #0
 3953 0074 1800     		movs	r0, r3
 3954 0076 FFF7FEFF 		bl	VL53L0X_perform_single_ref_calibration
 3955 007a 0300     		movs	r3, r0
 3956 007c 2370     		strb	r3, [r4]
 3957              	.L178:
1190:Api\core\src/vl53l0x_api_calibration.c **** 
1191:Api\core\src/vl53l0x_api_calibration.c **** 	/* Read PhaseCal from device */
1192:Api\core\src/vl53l0x_api_calibration.c **** 	if ((Status == VL53L0X_ERROR_NONE) && (get_data_enable == 1)) {
 3958              		.loc 1 1192 0
 3959 007e 1723     		movs	r3, #23
 3960 0080 FB18     		adds	r3, r7, r3
 3961 0082 1B78     		ldrb	r3, [r3]
 3962 0084 5BB2     		sxtb	r3, r3
 3963 0086 002B     		cmp	r3, #0
 3964 0088 1CD1     		bne	.L179
 3965              		.loc 1 1192 0 is_stmt 0 discriminator 1
 3966 008a FB1D     		adds	r3, r7, #7
 3967 008c 1B78     		ldrb	r3, [r3]
 3968 008e 012B     		cmp	r3, #1
 3969 0090 18D1     		bne	.L179
1193:Api\core\src/vl53l0x_api_calibration.c **** 		Status = VL53L0X_ref_calibration_io(Dev, 1,
 3970              		.loc 1 1193 0 is_stmt 1
 3971 0092 1723     		movs	r3, #23
 3972 0094 FC18     		adds	r4, r7, r3
 3973 0096 1423     		movs	r3, #20
 3974 0098 FB18     		adds	r3, r7, r3
 3975 009a 1978     		ldrb	r1, [r3]
 3976 009c 1523     		movs	r3, #21
 3977 009e FB18     		adds	r3, r7, r3
 3978 00a0 1A78     		ldrb	r2, [r3]
 3979 00a2 F868     		ldr	r0, [r7, #12]
 3980 00a4 0123     		movs	r3, #1
 3981 00a6 0393     		str	r3, [sp, #12]
 3982 00a8 0023     		movs	r3, #0
 3983 00aa 0293     		str	r3, [sp, #8]
 3984 00ac BB68     		ldr	r3, [r7, #8]
 3985 00ae 0193     		str	r3, [sp, #4]
 3986 00b0 1323     		movs	r3, #19
 3987 00b2 FB18     		adds	r3, r7, r3
 3988 00b4 0093     		str	r3, [sp]
 3989 00b6 0B00     		movs	r3, r1
ARM GAS  C:\Users\ilya\AppData\Local\Temp\ccWKU7si.s 			page 93


 3990 00b8 0121     		movs	r1, #1
 3991 00ba FFF7FEFF 		bl	VL53L0X_ref_calibration_io
 3992 00be 0300     		movs	r3, r0
 3993 00c0 2370     		strb	r3, [r4]
 3994 00c2 02E0     		b	.L180
 3995              	.L179:
1194:Api\core\src/vl53l0x_api_calibration.c **** 			VhvSettings, PhaseCal, /* Not used here */
1195:Api\core\src/vl53l0x_api_calibration.c **** 			&VhvSettingsint, pPhaseCal,
1196:Api\core\src/vl53l0x_api_calibration.c **** 			0, 1);
1197:Api\core\src/vl53l0x_api_calibration.c **** 	} else
1198:Api\core\src/vl53l0x_api_calibration.c **** 		*pPhaseCal = 0;
 3996              		.loc 1 1198 0
 3997 00c4 BB68     		ldr	r3, [r7, #8]
 3998 00c6 0022     		movs	r2, #0
 3999 00c8 1A70     		strb	r2, [r3]
 4000              	.L180:
1199:Api\core\src/vl53l0x_api_calibration.c **** 
1200:Api\core\src/vl53l0x_api_calibration.c **** 
1201:Api\core\src/vl53l0x_api_calibration.c **** 	if ((Status == VL53L0X_ERROR_NONE) && restore_config) {
 4001              		.loc 1 1201 0
 4002 00ca 1723     		movs	r3, #23
 4003 00cc FB18     		adds	r3, r7, r3
 4004 00ce 1B78     		ldrb	r3, [r3]
 4005 00d0 5BB2     		sxtb	r3, r3
 4006 00d2 002B     		cmp	r3, #0
 4007 00d4 1CD1     		bne	.L181
 4008              		.loc 1 1201 0 is_stmt 0 discriminator 1
 4009 00d6 BB1D     		adds	r3, r7, #6
 4010 00d8 1B78     		ldrb	r3, [r3]
 4011 00da 002B     		cmp	r3, #0
 4012 00dc 18D0     		beq	.L181
1202:Api\core\src/vl53l0x_api_calibration.c **** 		/* restore the previous Sequence Config */
1203:Api\core\src/vl53l0x_api_calibration.c **** 		Status = VL53L0X_WrByte(Dev, VL53L0X_REG_SYSTEM_SEQUENCE_CONFIG,
 4013              		.loc 1 1203 0 is_stmt 1
 4014 00de 1723     		movs	r3, #23
 4015 00e0 FC18     		adds	r4, r7, r3
 4016 00e2 1623     		movs	r3, #22
 4017 00e4 FB18     		adds	r3, r7, r3
 4018 00e6 1A78     		ldrb	r2, [r3]
 4019 00e8 FB68     		ldr	r3, [r7, #12]
 4020 00ea 0121     		movs	r1, #1
 4021 00ec 1800     		movs	r0, r3
 4022 00ee FFF7FEFF 		bl	VL53L0X_WrByte
 4023 00f2 0300     		movs	r3, r0
 4024 00f4 2370     		strb	r3, [r4]
1204:Api\core\src/vl53l0x_api_calibration.c **** 				SequenceConfig);
1205:Api\core\src/vl53l0x_api_calibration.c **** 		if (Status == VL53L0X_ERROR_NONE)
 4025              		.loc 1 1205 0
 4026 00f6 1723     		movs	r3, #23
 4027 00f8 FB18     		adds	r3, r7, r3
 4028 00fa 1B78     		ldrb	r3, [r3]
 4029 00fc 5BB2     		sxtb	r3, r3
 4030 00fe 002B     		cmp	r3, #0
 4031 0100 06D1     		bne	.L181
1206:Api\core\src/vl53l0x_api_calibration.c **** 			PALDevDataSet(Dev, SequenceConfig, SequenceConfig);
 4032              		.loc 1 1206 0
 4033 0102 FA68     		ldr	r2, [r7, #12]
ARM GAS  C:\Users\ilya\AppData\Local\Temp\ccWKU7si.s 			page 94


 4034 0104 1623     		movs	r3, #22
 4035 0106 F918     		adds	r1, r7, r3
 4036 0108 9823     		movs	r3, #152
 4037 010a 5B00     		lsls	r3, r3, #1
 4038 010c 0978     		ldrb	r1, [r1]
 4039 010e D154     		strb	r1, [r2, r3]
 4040              	.L181:
1207:Api\core\src/vl53l0x_api_calibration.c **** 
1208:Api\core\src/vl53l0x_api_calibration.c **** 	}
1209:Api\core\src/vl53l0x_api_calibration.c **** 
1210:Api\core\src/vl53l0x_api_calibration.c **** 	return Status;
 4041              		.loc 1 1210 0
 4042 0110 1723     		movs	r3, #23
 4043 0112 FB18     		adds	r3, r7, r3
 4044 0114 1B78     		ldrb	r3, [r3]
 4045 0116 5BB2     		sxtb	r3, r3
1211:Api\core\src/vl53l0x_api_calibration.c **** }
 4046              		.loc 1 1211 0
 4047 0118 1800     		movs	r0, r3
 4048 011a BD46     		mov	sp, r7
 4049 011c 07B0     		add	sp, sp, #28
 4050              		@ sp needed
 4051 011e 90BD     		pop	{r4, r7, pc}
 4052              		.cfi_endproc
 4053              	.LFE20:
 4054              		.size	VL53L0X_perform_phase_calibration, .-VL53L0X_perform_phase_calibration
 4055              		.section	.text.VL53L0X_perform_ref_calibration,"ax",%progbits
 4056              		.align	2
 4057              		.global	VL53L0X_perform_ref_calibration
 4058              		.code	16
 4059              		.thumb_func
 4060              		.type	VL53L0X_perform_ref_calibration, %function
 4061              	VL53L0X_perform_ref_calibration:
 4062              	.LFB21:
1212:Api\core\src/vl53l0x_api_calibration.c **** 
1213:Api\core\src/vl53l0x_api_calibration.c **** VL53L0X_Error VL53L0X_perform_ref_calibration(VL53L0X_DEV Dev,
1214:Api\core\src/vl53l0x_api_calibration.c **** 	uint8_t *pVhvSettings, uint8_t *pPhaseCal, uint8_t get_data_enable)
1215:Api\core\src/vl53l0x_api_calibration.c **** {
 4063              		.loc 1 1215 0
 4064              		.cfi_startproc
 4065              		@ args = 0, pretend = 0, frame = 24
 4066              		@ frame_needed = 1, uses_anonymous_args = 0
 4067 0000 90B5     		push	{r4, r7, lr}
 4068              		.cfi_def_cfa_offset 12
 4069              		.cfi_offset 4, -12
 4070              		.cfi_offset 7, -8
 4071              		.cfi_offset 14, -4
 4072 0002 87B0     		sub	sp, sp, #28
 4073              		.cfi_def_cfa_offset 40
 4074 0004 00AF     		add	r7, sp, #0
 4075              		.cfi_def_cfa_register 7
 4076 0006 F860     		str	r0, [r7, #12]
 4077 0008 B960     		str	r1, [r7, #8]
 4078 000a 7A60     		str	r2, [r7, #4]
 4079 000c 1A00     		movs	r2, r3
 4080 000e FB1C     		adds	r3, r7, #3
 4081 0010 1A70     		strb	r2, [r3]
ARM GAS  C:\Users\ilya\AppData\Local\Temp\ccWKU7si.s 			page 95


1216:Api\core\src/vl53l0x_api_calibration.c **** 	VL53L0X_Error Status = VL53L0X_ERROR_NONE;
 4082              		.loc 1 1216 0
 4083 0012 1723     		movs	r3, #23
 4084 0014 FB18     		adds	r3, r7, r3
 4085 0016 0022     		movs	r2, #0
 4086 0018 1A70     		strb	r2, [r3]
1217:Api\core\src/vl53l0x_api_calibration.c **** 	uint8_t SequenceConfig = 0;
 4087              		.loc 1 1217 0
 4088 001a 1623     		movs	r3, #22
 4089 001c FB18     		adds	r3, r7, r3
 4090 001e 0022     		movs	r2, #0
 4091 0020 1A70     		strb	r2, [r3]
1218:Api\core\src/vl53l0x_api_calibration.c **** 
1219:Api\core\src/vl53l0x_api_calibration.c **** 	/* store the value of the sequence config,
1220:Api\core\src/vl53l0x_api_calibration.c **** 	 * this will be reset before the end of the function
1221:Api\core\src/vl53l0x_api_calibration.c **** 	 */
1222:Api\core\src/vl53l0x_api_calibration.c **** 
1223:Api\core\src/vl53l0x_api_calibration.c **** 	SequenceConfig = PALDevDataGet(Dev, SequenceConfig);
 4092              		.loc 1 1223 0
 4093 0022 1623     		movs	r3, #22
 4094 0024 FB18     		adds	r3, r7, r3
 4095 0026 F968     		ldr	r1, [r7, #12]
 4096 0028 9822     		movs	r2, #152
 4097 002a 5200     		lsls	r2, r2, #1
 4098 002c 8A5C     		ldrb	r2, [r1, r2]
 4099 002e 1A70     		strb	r2, [r3]
1224:Api\core\src/vl53l0x_api_calibration.c **** 
1225:Api\core\src/vl53l0x_api_calibration.c **** 	/* In the following function we don't save the config to optimize
1226:Api\core\src/vl53l0x_api_calibration.c **** 	 * writes on device. Config is saved and restored only once. */
1227:Api\core\src/vl53l0x_api_calibration.c **** 	Status = VL53L0X_perform_vhv_calibration(
 4100              		.loc 1 1227 0
 4101 0030 1723     		movs	r3, #23
 4102 0032 FC18     		adds	r4, r7, r3
 4103 0034 FB1C     		adds	r3, r7, #3
 4104 0036 1A78     		ldrb	r2, [r3]
 4105 0038 B968     		ldr	r1, [r7, #8]
 4106 003a F868     		ldr	r0, [r7, #12]
 4107 003c 0023     		movs	r3, #0
 4108 003e FFF7FEFF 		bl	VL53L0X_perform_vhv_calibration
 4109 0042 0300     		movs	r3, r0
 4110 0044 2370     		strb	r3, [r4]
1228:Api\core\src/vl53l0x_api_calibration.c **** 			Dev, pVhvSettings, get_data_enable, 0);
1229:Api\core\src/vl53l0x_api_calibration.c **** 
1230:Api\core\src/vl53l0x_api_calibration.c **** 
1231:Api\core\src/vl53l0x_api_calibration.c **** 	if (Status == VL53L0X_ERROR_NONE)
 4111              		.loc 1 1231 0
 4112 0046 1723     		movs	r3, #23
 4113 0048 FB18     		adds	r3, r7, r3
 4114 004a 1B78     		ldrb	r3, [r3]
 4115 004c 5BB2     		sxtb	r3, r3
 4116 004e 002B     		cmp	r3, #0
 4117 0050 0AD1     		bne	.L184
1232:Api\core\src/vl53l0x_api_calibration.c **** 		Status = VL53L0X_perform_phase_calibration(
 4118              		.loc 1 1232 0
 4119 0052 1723     		movs	r3, #23
 4120 0054 FC18     		adds	r4, r7, r3
 4121 0056 FB1C     		adds	r3, r7, #3
ARM GAS  C:\Users\ilya\AppData\Local\Temp\ccWKU7si.s 			page 96


 4122 0058 1A78     		ldrb	r2, [r3]
 4123 005a 7968     		ldr	r1, [r7, #4]
 4124 005c F868     		ldr	r0, [r7, #12]
 4125 005e 0023     		movs	r3, #0
 4126 0060 FFF7FEFF 		bl	VL53L0X_perform_phase_calibration
 4127 0064 0300     		movs	r3, r0
 4128 0066 2370     		strb	r3, [r4]
 4129              	.L184:
1233:Api\core\src/vl53l0x_api_calibration.c **** 			Dev, pPhaseCal, get_data_enable, 0);
1234:Api\core\src/vl53l0x_api_calibration.c **** 
1235:Api\core\src/vl53l0x_api_calibration.c **** 
1236:Api\core\src/vl53l0x_api_calibration.c **** 	if (Status == VL53L0X_ERROR_NONE) {
 4130              		.loc 1 1236 0
 4131 0068 1723     		movs	r3, #23
 4132 006a FB18     		adds	r3, r7, r3
 4133 006c 1B78     		ldrb	r3, [r3]
 4134 006e 5BB2     		sxtb	r3, r3
 4135 0070 002B     		cmp	r3, #0
 4136 0072 18D1     		bne	.L185
1237:Api\core\src/vl53l0x_api_calibration.c **** 		/* restore the previous Sequence Config */
1238:Api\core\src/vl53l0x_api_calibration.c **** 		Status = VL53L0X_WrByte(Dev, VL53L0X_REG_SYSTEM_SEQUENCE_CONFIG,
 4137              		.loc 1 1238 0
 4138 0074 1723     		movs	r3, #23
 4139 0076 FC18     		adds	r4, r7, r3
 4140 0078 1623     		movs	r3, #22
 4141 007a FB18     		adds	r3, r7, r3
 4142 007c 1A78     		ldrb	r2, [r3]
 4143 007e FB68     		ldr	r3, [r7, #12]
 4144 0080 0121     		movs	r1, #1
 4145 0082 1800     		movs	r0, r3
 4146 0084 FFF7FEFF 		bl	VL53L0X_WrByte
 4147 0088 0300     		movs	r3, r0
 4148 008a 2370     		strb	r3, [r4]
1239:Api\core\src/vl53l0x_api_calibration.c **** 				SequenceConfig);
1240:Api\core\src/vl53l0x_api_calibration.c **** 		if (Status == VL53L0X_ERROR_NONE)
 4149              		.loc 1 1240 0
 4150 008c 1723     		movs	r3, #23
 4151 008e FB18     		adds	r3, r7, r3
 4152 0090 1B78     		ldrb	r3, [r3]
 4153 0092 5BB2     		sxtb	r3, r3
 4154 0094 002B     		cmp	r3, #0
 4155 0096 06D1     		bne	.L185
1241:Api\core\src/vl53l0x_api_calibration.c **** 			PALDevDataSet(Dev, SequenceConfig, SequenceConfig);
 4156              		.loc 1 1241 0
 4157 0098 FA68     		ldr	r2, [r7, #12]
 4158 009a 1623     		movs	r3, #22
 4159 009c F918     		adds	r1, r7, r3
 4160 009e 9823     		movs	r3, #152
 4161 00a0 5B00     		lsls	r3, r3, #1
 4162 00a2 0978     		ldrb	r1, [r1]
 4163 00a4 D154     		strb	r1, [r2, r3]
 4164              	.L185:
1242:Api\core\src/vl53l0x_api_calibration.c **** 
1243:Api\core\src/vl53l0x_api_calibration.c **** 	}
1244:Api\core\src/vl53l0x_api_calibration.c **** 
1245:Api\core\src/vl53l0x_api_calibration.c **** 	return Status;
 4165              		.loc 1 1245 0
ARM GAS  C:\Users\ilya\AppData\Local\Temp\ccWKU7si.s 			page 97


 4166 00a6 1723     		movs	r3, #23
 4167 00a8 FB18     		adds	r3, r7, r3
 4168 00aa 1B78     		ldrb	r3, [r3]
 4169 00ac 5BB2     		sxtb	r3, r3
1246:Api\core\src/vl53l0x_api_calibration.c **** }
 4170              		.loc 1 1246 0
 4171 00ae 1800     		movs	r0, r3
 4172 00b0 BD46     		mov	sp, r7
 4173 00b2 07B0     		add	sp, sp, #28
 4174              		@ sp needed
 4175 00b4 90BD     		pop	{r4, r7, pc}
 4176              		.cfi_endproc
 4177              	.LFE21:
 4178              		.size	VL53L0X_perform_ref_calibration, .-VL53L0X_perform_ref_calibration
 4179 00b6 C046     		.section	.text.VL53L0X_set_ref_calibration,"ax",%progbits
 4180              		.align	2
 4181              		.global	VL53L0X_set_ref_calibration
 4182              		.code	16
 4183              		.thumb_func
 4184              		.type	VL53L0X_set_ref_calibration, %function
 4185              	VL53L0X_set_ref_calibration:
 4186              	.LFB22:
1247:Api\core\src/vl53l0x_api_calibration.c **** 
1248:Api\core\src/vl53l0x_api_calibration.c **** VL53L0X_Error VL53L0X_set_ref_calibration(VL53L0X_DEV Dev,
1249:Api\core\src/vl53l0x_api_calibration.c **** 		uint8_t VhvSettings, uint8_t PhaseCal)
1250:Api\core\src/vl53l0x_api_calibration.c **** {
 4187              		.loc 1 1250 0
 4188              		.cfi_startproc
 4189              		@ args = 0, pretend = 0, frame = 16
 4190              		@ frame_needed = 1, uses_anonymous_args = 0
 4191 0000 90B5     		push	{r4, r7, lr}
 4192              		.cfi_def_cfa_offset 12
 4193              		.cfi_offset 4, -12
 4194              		.cfi_offset 7, -8
 4195              		.cfi_offset 14, -4
 4196 0002 89B0     		sub	sp, sp, #36
 4197              		.cfi_def_cfa_offset 48
 4198 0004 04AF     		add	r7, sp, #16
 4199              		.cfi_def_cfa 7, 32
 4200 0006 7860     		str	r0, [r7, #4]
 4201 0008 0800     		movs	r0, r1
 4202 000a 1100     		movs	r1, r2
 4203 000c FB1C     		adds	r3, r7, #3
 4204 000e 021C     		adds	r2, r0, #0
 4205 0010 1A70     		strb	r2, [r3]
 4206 0012 BB1C     		adds	r3, r7, #2
 4207 0014 0A1C     		adds	r2, r1, #0
 4208 0016 1A70     		strb	r2, [r3]
1251:Api\core\src/vl53l0x_api_calibration.c **** 	VL53L0X_Error Status = VL53L0X_ERROR_NONE;
 4209              		.loc 1 1251 0
 4210 0018 0F23     		movs	r3, #15
 4211 001a FB18     		adds	r3, r7, r3
 4212 001c 0022     		movs	r2, #0
 4213 001e 1A70     		strb	r2, [r3]
1252:Api\core\src/vl53l0x_api_calibration.c **** 	uint8_t pVhvSettings;
1253:Api\core\src/vl53l0x_api_calibration.c **** 	uint8_t pPhaseCal;
1254:Api\core\src/vl53l0x_api_calibration.c **** 
ARM GAS  C:\Users\ilya\AppData\Local\Temp\ccWKU7si.s 			page 98


1255:Api\core\src/vl53l0x_api_calibration.c **** 	Status = VL53L0X_ref_calibration_io(Dev, 0,
 4214              		.loc 1 1255 0
 4215 0020 0F23     		movs	r3, #15
 4216 0022 FC18     		adds	r4, r7, r3
 4217 0024 BB1C     		adds	r3, r7, #2
 4218 0026 1978     		ldrb	r1, [r3]
 4219 0028 FB1C     		adds	r3, r7, #3
 4220 002a 1A78     		ldrb	r2, [r3]
 4221 002c 7868     		ldr	r0, [r7, #4]
 4222 002e 0123     		movs	r3, #1
 4223 0030 0393     		str	r3, [sp, #12]
 4224 0032 0123     		movs	r3, #1
 4225 0034 0293     		str	r3, [sp, #8]
 4226 0036 0D23     		movs	r3, #13
 4227 0038 FB18     		adds	r3, r7, r3
 4228 003a 0193     		str	r3, [sp, #4]
 4229 003c 0E23     		movs	r3, #14
 4230 003e FB18     		adds	r3, r7, r3
 4231 0040 0093     		str	r3, [sp]
 4232 0042 0B00     		movs	r3, r1
 4233 0044 0021     		movs	r1, #0
 4234 0046 FFF7FEFF 		bl	VL53L0X_ref_calibration_io
 4235 004a 0300     		movs	r3, r0
 4236 004c 2370     		strb	r3, [r4]
1256:Api\core\src/vl53l0x_api_calibration.c **** 		VhvSettings, PhaseCal,
1257:Api\core\src/vl53l0x_api_calibration.c **** 		&pVhvSettings, &pPhaseCal,
1258:Api\core\src/vl53l0x_api_calibration.c **** 		1, 1);
1259:Api\core\src/vl53l0x_api_calibration.c **** 
1260:Api\core\src/vl53l0x_api_calibration.c **** 	return Status;
 4237              		.loc 1 1260 0
 4238 004e 0F23     		movs	r3, #15
 4239 0050 FB18     		adds	r3, r7, r3
 4240 0052 1B78     		ldrb	r3, [r3]
 4241 0054 5BB2     		sxtb	r3, r3
1261:Api\core\src/vl53l0x_api_calibration.c **** }
 4242              		.loc 1 1261 0
 4243 0056 1800     		movs	r0, r3
 4244 0058 BD46     		mov	sp, r7
 4245 005a 05B0     		add	sp, sp, #20
 4246              		@ sp needed
 4247 005c 90BD     		pop	{r4, r7, pc}
 4248              		.cfi_endproc
 4249              	.LFE22:
 4250              		.size	VL53L0X_set_ref_calibration, .-VL53L0X_set_ref_calibration
 4251 005e C046     		.section	.text.VL53L0X_get_ref_calibration,"ax",%progbits
 4252              		.align	2
 4253              		.global	VL53L0X_get_ref_calibration
 4254              		.code	16
 4255              		.thumb_func
 4256              		.type	VL53L0X_get_ref_calibration, %function
 4257              	VL53L0X_get_ref_calibration:
 4258              	.LFB23:
1262:Api\core\src/vl53l0x_api_calibration.c **** 
1263:Api\core\src/vl53l0x_api_calibration.c **** VL53L0X_Error VL53L0X_get_ref_calibration(VL53L0X_DEV Dev,
1264:Api\core\src/vl53l0x_api_calibration.c **** 		uint8_t *pVhvSettings, uint8_t *pPhaseCal)
1265:Api\core\src/vl53l0x_api_calibration.c **** {
 4259              		.loc 1 1265 0
ARM GAS  C:\Users\ilya\AppData\Local\Temp\ccWKU7si.s 			page 99


 4260              		.cfi_startproc
 4261              		@ args = 0, pretend = 0, frame = 24
 4262              		@ frame_needed = 1, uses_anonymous_args = 0
 4263 0000 90B5     		push	{r4, r7, lr}
 4264              		.cfi_def_cfa_offset 12
 4265              		.cfi_offset 4, -12
 4266              		.cfi_offset 7, -8
 4267              		.cfi_offset 14, -4
 4268 0002 8BB0     		sub	sp, sp, #44
 4269              		.cfi_def_cfa_offset 56
 4270 0004 04AF     		add	r7, sp, #16
 4271              		.cfi_def_cfa 7, 40
 4272 0006 F860     		str	r0, [r7, #12]
 4273 0008 B960     		str	r1, [r7, #8]
 4274 000a 7A60     		str	r2, [r7, #4]
1266:Api\core\src/vl53l0x_api_calibration.c **** 	VL53L0X_Error Status = VL53L0X_ERROR_NONE;
 4275              		.loc 1 1266 0
 4276 000c 1723     		movs	r3, #23
 4277 000e FB18     		adds	r3, r7, r3
 4278 0010 0022     		movs	r2, #0
 4279 0012 1A70     		strb	r2, [r3]
1267:Api\core\src/vl53l0x_api_calibration.c **** 	uint8_t VhvSettings = 0;
 4280              		.loc 1 1267 0
 4281 0014 1623     		movs	r3, #22
 4282 0016 FB18     		adds	r3, r7, r3
 4283 0018 0022     		movs	r2, #0
 4284 001a 1A70     		strb	r2, [r3]
1268:Api\core\src/vl53l0x_api_calibration.c **** 	uint8_t PhaseCal = 0;
 4285              		.loc 1 1268 0
 4286 001c 1523     		movs	r3, #21
 4287 001e FB18     		adds	r3, r7, r3
 4288 0020 0022     		movs	r2, #0
 4289 0022 1A70     		strb	r2, [r3]
1269:Api\core\src/vl53l0x_api_calibration.c **** 
1270:Api\core\src/vl53l0x_api_calibration.c **** 	Status = VL53L0X_ref_calibration_io(Dev, 1,
 4290              		.loc 1 1270 0
 4291 0024 1723     		movs	r3, #23
 4292 0026 FC18     		adds	r4, r7, r3
 4293 0028 1523     		movs	r3, #21
 4294 002a FB18     		adds	r3, r7, r3
 4295 002c 1978     		ldrb	r1, [r3]
 4296 002e 1623     		movs	r3, #22
 4297 0030 FB18     		adds	r3, r7, r3
 4298 0032 1A78     		ldrb	r2, [r3]
 4299 0034 F868     		ldr	r0, [r7, #12]
 4300 0036 0123     		movs	r3, #1
 4301 0038 0393     		str	r3, [sp, #12]
 4302 003a 0123     		movs	r3, #1
 4303 003c 0293     		str	r3, [sp, #8]
 4304 003e 7B68     		ldr	r3, [r7, #4]
 4305 0040 0193     		str	r3, [sp, #4]
 4306 0042 BB68     		ldr	r3, [r7, #8]
 4307 0044 0093     		str	r3, [sp]
 4308 0046 0B00     		movs	r3, r1
 4309 0048 0121     		movs	r1, #1
 4310 004a FFF7FEFF 		bl	VL53L0X_ref_calibration_io
 4311 004e 0300     		movs	r3, r0
ARM GAS  C:\Users\ilya\AppData\Local\Temp\ccWKU7si.s 			page 100


 4312 0050 2370     		strb	r3, [r4]
1271:Api\core\src/vl53l0x_api_calibration.c **** 		VhvSettings, PhaseCal,
1272:Api\core\src/vl53l0x_api_calibration.c **** 		pVhvSettings, pPhaseCal,
1273:Api\core\src/vl53l0x_api_calibration.c **** 		1, 1);
1274:Api\core\src/vl53l0x_api_calibration.c **** 
1275:Api\core\src/vl53l0x_api_calibration.c **** 	return Status;
 4313              		.loc 1 1275 0
 4314 0052 1723     		movs	r3, #23
 4315 0054 FB18     		adds	r3, r7, r3
 4316 0056 1B78     		ldrb	r3, [r3]
 4317 0058 5BB2     		sxtb	r3, r3
1276:Api\core\src/vl53l0x_api_calibration.c **** }
 4318              		.loc 1 1276 0
 4319 005a 1800     		movs	r0, r3
 4320 005c BD46     		mov	sp, r7
 4321 005e 07B0     		add	sp, sp, #28
 4322              		@ sp needed
 4323 0060 90BD     		pop	{r4, r7, pc}
 4324              		.cfi_endproc
 4325              	.LFE23:
 4326              		.size	VL53L0X_get_ref_calibration, .-VL53L0X_get_ref_calibration
 4327 0062 C046     		.text
 4328              	.Letext0:
 4329              		.file 2 "c:\\program files (x86)\\cypress\\psoc creator\\4.2\\psoc creator\\import\\gnu\\arm\\5.4.
 4330              		.file 3 "c:\\program files (x86)\\cypress\\psoc creator\\4.2\\psoc creator\\import\\gnu\\arm\\5.4.
 4331              		.file 4 ".\\Api\\platform\\inc/vl53l0x_types.h"
 4332              		.file 5 ".\\Api\\core\\inc/vl53l0x_device.h"
 4333              		.file 6 ".\\Api\\core\\inc/vl53l0x_def.h"
 4334              		.file 7 ".\\Api\\platform\\inc/vl53l0x_platform.h"
 4335              		.section	.debug_info,"",%progbits
 4336              	.Ldebug_info0:
 4337 0000 C7140000 		.4byte	0x14c7
 4338 0004 0400     		.2byte	0x4
 4339 0006 00000000 		.4byte	.Ldebug_abbrev0
 4340 000a 04       		.byte	0x4
 4341 000b 01       		.uleb128 0x1
 4342 000c 5F020000 		.4byte	.LASF248
 4343 0010 0C       		.byte	0xc
 4344 0011 4A010000 		.4byte	.LASF249
 4345 0015 94040000 		.4byte	.LASF250
 4346 0019 00000000 		.4byte	.Ldebug_ranges0+0
 4347 001d 00000000 		.4byte	0
 4348 0021 00000000 		.4byte	.Ldebug_line0
 4349 0025 02       		.uleb128 0x2
 4350 0026 AB0B0000 		.4byte	.LASF0
 4351 002a 02       		.byte	0x2
 4352 002b 1B       		.byte	0x1b
 4353 002c 30000000 		.4byte	0x30
 4354 0030 03       		.uleb128 0x3
 4355 0031 01       		.byte	0x1
 4356 0032 06       		.byte	0x6
 4357 0033 EF0F0000 		.4byte	.LASF2
 4358 0037 02       		.uleb128 0x2
 4359 0038 740D0000 		.4byte	.LASF1
 4360 003c 02       		.byte	0x2
 4361 003d 1D       		.byte	0x1d
 4362 003e 42000000 		.4byte	0x42
ARM GAS  C:\Users\ilya\AppData\Local\Temp\ccWKU7si.s 			page 101


 4363 0042 03       		.uleb128 0x3
 4364 0043 01       		.byte	0x1
 4365 0044 08       		.byte	0x8
 4366 0045 AB0E0000 		.4byte	.LASF3
 4367 0049 02       		.uleb128 0x2
 4368 004a 4E0A0000 		.4byte	.LASF4
 4369 004e 02       		.byte	0x2
 4370 004f 29       		.byte	0x29
 4371 0050 54000000 		.4byte	0x54
 4372 0054 03       		.uleb128 0x3
 4373 0055 02       		.byte	0x2
 4374 0056 05       		.byte	0x5
 4375 0057 B20C0000 		.4byte	.LASF5
 4376 005b 02       		.uleb128 0x2
 4377 005c E4050000 		.4byte	.LASF6
 4378 0060 02       		.byte	0x2
 4379 0061 2B       		.byte	0x2b
 4380 0062 66000000 		.4byte	0x66
 4381 0066 03       		.uleb128 0x3
 4382 0067 02       		.byte	0x2
 4383 0068 07       		.byte	0x7
 4384 0069 10100000 		.4byte	.LASF7
 4385 006d 02       		.uleb128 0x2
 4386 006e 18020000 		.4byte	.LASF8
 4387 0072 02       		.byte	0x2
 4388 0073 3F       		.byte	0x3f
 4389 0074 78000000 		.4byte	0x78
 4390 0078 03       		.uleb128 0x3
 4391 0079 04       		.byte	0x4
 4392 007a 05       		.byte	0x5
 4393 007b D80C0000 		.4byte	.LASF9
 4394 007f 02       		.uleb128 0x2
 4395 0080 DF0E0000 		.4byte	.LASF10
 4396 0084 02       		.byte	0x2
 4397 0085 41       		.byte	0x41
 4398 0086 8A000000 		.4byte	0x8a
 4399 008a 03       		.uleb128 0x3
 4400 008b 04       		.byte	0x4
 4401 008c 07       		.byte	0x7
 4402 008d 120E0000 		.4byte	.LASF11
 4403 0091 03       		.uleb128 0x3
 4404 0092 08       		.byte	0x8
 4405 0093 05       		.byte	0x5
 4406 0094 7E090000 		.4byte	.LASF12
 4407 0098 03       		.uleb128 0x3
 4408 0099 08       		.byte	0x8
 4409 009a 07       		.byte	0x7
 4410 009b 73050000 		.4byte	.LASF13
 4411 009f 04       		.uleb128 0x4
 4412 00a0 04       		.byte	0x4
 4413 00a1 05       		.byte	0x5
 4414 00a2 696E7400 		.ascii	"int\000"
 4415 00a6 03       		.uleb128 0x3
 4416 00a7 04       		.byte	0x4
 4417 00a8 07       		.byte	0x7
 4418 00a9 71010000 		.4byte	.LASF14
 4419 00ad 02       		.uleb128 0x2
ARM GAS  C:\Users\ilya\AppData\Local\Temp\ccWKU7si.s 			page 102


 4420 00ae 7F040000 		.4byte	.LASF15
 4421 00b2 03       		.byte	0x3
 4422 00b3 14       		.byte	0x14
 4423 00b4 25000000 		.4byte	0x25
 4424 00b8 02       		.uleb128 0x2
 4425 00b9 CE080000 		.4byte	.LASF16
 4426 00bd 03       		.byte	0x3
 4427 00be 18       		.byte	0x18
 4428 00bf 37000000 		.4byte	0x37
 4429 00c3 02       		.uleb128 0x2
 4430 00c4 14050000 		.4byte	.LASF17
 4431 00c8 03       		.byte	0x3
 4432 00c9 20       		.byte	0x20
 4433 00ca 49000000 		.4byte	0x49
 4434 00ce 02       		.uleb128 0x2
 4435 00cf 210C0000 		.4byte	.LASF18
 4436 00d3 03       		.byte	0x3
 4437 00d4 24       		.byte	0x24
 4438 00d5 5B000000 		.4byte	0x5b
 4439 00d9 02       		.uleb128 0x2
 4440 00da 600E0000 		.4byte	.LASF19
 4441 00de 03       		.byte	0x3
 4442 00df 2C       		.byte	0x2c
 4443 00e0 6D000000 		.4byte	0x6d
 4444 00e4 02       		.uleb128 0x2
 4445 00e5 76040000 		.4byte	.LASF20
 4446 00e9 03       		.byte	0x3
 4447 00ea 30       		.byte	0x30
 4448 00eb 7F000000 		.4byte	0x7f
 4449 00ef 03       		.uleb128 0x3
 4450 00f0 08       		.byte	0x8
 4451 00f1 04       		.byte	0x4
 4452 00f2 060C0000 		.4byte	.LASF21
 4453 00f6 02       		.uleb128 0x2
 4454 00f7 44040000 		.4byte	.LASF22
 4455 00fb 04       		.byte	0x4
 4456 00fc 6D       		.byte	0x6d
 4457 00fd E4000000 		.4byte	0xe4
 4458 0101 02       		.uleb128 0x2
 4459 0102 F2040000 		.4byte	.LASF23
 4460 0106 05       		.byte	0x5
 4461 0107 36       		.byte	0x36
 4462 0108 B8000000 		.4byte	0xb8
 4463 010c 02       		.uleb128 0x2
 4464 010d DD080000 		.4byte	.LASF24
 4465 0111 05       		.byte	0x5
 4466 0112 64       		.byte	0x64
 4467 0113 B8000000 		.4byte	0xb8
 4468 0117 05       		.uleb128 0x5
 4469 0118 2E010000 		.4byte	0x12e
 4470 011c 27010000 		.4byte	0x127
 4471 0120 06       		.uleb128 0x6
 4472 0121 27010000 		.4byte	0x127
 4473 0125 1F       		.byte	0x1f
 4474 0126 00       		.byte	0
 4475 0127 03       		.uleb128 0x3
 4476 0128 04       		.byte	0x4
ARM GAS  C:\Users\ilya\AppData\Local\Temp\ccWKU7si.s 			page 103


 4477 0129 07       		.byte	0x7
 4478 012a ED0D0000 		.4byte	.LASF25
 4479 012e 03       		.uleb128 0x3
 4480 012f 01       		.byte	0x1
 4481 0130 08       		.byte	0x8
 4482 0131 15080000 		.4byte	.LASF26
 4483 0135 02       		.uleb128 0x2
 4484 0136 BC0D0000 		.4byte	.LASF27
 4485 013a 06       		.byte	0x6
 4486 013b 83       		.byte	0x83
 4487 013c AD000000 		.4byte	0xad
 4488 0140 02       		.uleb128 0x2
 4489 0141 BE090000 		.4byte	.LASF28
 4490 0145 06       		.byte	0x6
 4491 0146 B5       		.byte	0xb5
 4492 0147 B8000000 		.4byte	0xb8
 4493 014b 02       		.uleb128 0x2
 4494 014c 3D090000 		.4byte	.LASF29
 4495 0150 06       		.byte	0x6
 4496 0151 C7       		.byte	0xc7
 4497 0152 B8000000 		.4byte	0xb8
 4498 0156 02       		.uleb128 0x2
 4499 0157 BA010000 		.4byte	.LASF30
 4500 015b 06       		.byte	0x6
 4501 015c DA       		.byte	0xda
 4502 015d B8000000 		.4byte	0xb8
 4503 0161 07       		.uleb128 0x7
 4504 0162 40       		.byte	0x40
 4505 0163 06       		.byte	0x6
 4506 0164 EA       		.byte	0xea
 4507 0165 FD010000 		.4byte	0x1fd
 4508 0169 08       		.uleb128 0x8
 4509 016a DE0B0000 		.4byte	.LASF31
 4510 016e 06       		.byte	0x6
 4511 016f EB       		.byte	0xeb
 4512 0170 40010000 		.4byte	0x140
 4513 0174 00       		.byte	0
 4514 0175 08       		.uleb128 0x8
 4515 0176 83000000 		.4byte	.LASF32
 4516 017a 06       		.byte	0x6
 4517 017b ED       		.byte	0xed
 4518 017c 4B010000 		.4byte	0x14b
 4519 0180 01       		.byte	0x1
 4520 0181 08       		.uleb128 0x8
 4521 0182 3E080000 		.4byte	.LASF33
 4522 0186 06       		.byte	0x6
 4523 0187 F0       		.byte	0xf0
 4524 0188 E4000000 		.4byte	0xe4
 4525 018c 04       		.byte	0x4
 4526 018d 08       		.uleb128 0x8
 4527 018e AA060000 		.4byte	.LASF34
 4528 0192 06       		.byte	0x6
 4529 0193 F2       		.byte	0xf2
 4530 0194 E4000000 		.4byte	0xe4
 4531 0198 08       		.byte	0x8
 4532 0199 08       		.uleb128 0x8
 4533 019a C4000000 		.4byte	.LASF35
ARM GAS  C:\Users\ilya\AppData\Local\Temp\ccWKU7si.s 			page 104


 4534 019e 06       		.byte	0x6
 4535 019f F5       		.byte	0xf5
 4536 01a0 B8000000 		.4byte	0xb8
 4537 01a4 0C       		.byte	0xc
 4538 01a5 08       		.uleb128 0x8
 4539 01a6 7E010000 		.4byte	.LASF36
 4540 01aa 06       		.byte	0x6
 4541 01ab F7       		.byte	0xf7
 4542 01ac CE000000 		.4byte	0xce
 4543 01b0 0E       		.byte	0xe
 4544 01b1 08       		.uleb128 0x8
 4545 01b2 E90B0000 		.4byte	.LASF37
 4546 01b6 06       		.byte	0x6
 4547 01b7 F9       		.byte	0xf9
 4548 01b8 F6000000 		.4byte	0xf6
 4549 01bc 10       		.byte	0x10
 4550 01bd 08       		.uleb128 0x8
 4551 01be 44070000 		.4byte	.LASF38
 4552 01c2 06       		.byte	0x6
 4553 01c3 FC       		.byte	0xfc
 4554 01c4 D9000000 		.4byte	0xd9
 4555 01c8 14       		.byte	0x14
 4556 01c9 08       		.uleb128 0x8
 4557 01ca E4010000 		.4byte	.LASF39
 4558 01ce 06       		.byte	0x6
 4559 01cf FF       		.byte	0xff
 4560 01d0 FD010000 		.4byte	0x1fd
 4561 01d4 18       		.byte	0x18
 4562 01d5 09       		.uleb128 0x9
 4563 01d6 B3030000 		.4byte	.LASF40
 4564 01da 06       		.byte	0x6
 4565 01db 0101     		.2byte	0x101
 4566 01dd FD010000 		.4byte	0x1fd
 4567 01e1 1E       		.byte	0x1e
 4568 01e2 09       		.uleb128 0x9
 4569 01e3 07070000 		.4byte	.LASF41
 4570 01e7 06       		.byte	0x6
 4571 01e8 0401     		.2byte	0x104
 4572 01ea 0D020000 		.4byte	0x20d
 4573 01ee 24       		.byte	0x24
 4574 01ef 09       		.uleb128 0x9
 4575 01f0 82030000 		.4byte	.LASF42
 4576 01f4 06       		.byte	0x6
 4577 01f5 0701     		.2byte	0x107
 4578 01f7 B8000000 		.4byte	0xb8
 4579 01fb 3C       		.byte	0x3c
 4580 01fc 00       		.byte	0
 4581 01fd 05       		.uleb128 0x5
 4582 01fe B8000000 		.4byte	0xb8
 4583 0202 0D020000 		.4byte	0x20d
 4584 0206 06       		.uleb128 0x6
 4585 0207 27010000 		.4byte	0x127
 4586 020b 05       		.byte	0x5
 4587 020c 00       		.byte	0
 4588 020d 05       		.uleb128 0x5
 4589 020e F6000000 		.4byte	0xf6
 4590 0212 1D020000 		.4byte	0x21d
ARM GAS  C:\Users\ilya\AppData\Local\Temp\ccWKU7si.s 			page 105


 4591 0216 06       		.uleb128 0x6
 4592 0217 27010000 		.4byte	0x127
 4593 021b 05       		.byte	0x5
 4594 021c 00       		.byte	0
 4595 021d 0A       		.uleb128 0xa
 4596 021e CB040000 		.4byte	.LASF43
 4597 0222 06       		.byte	0x6
 4598 0223 0901     		.2byte	0x109
 4599 0225 61010000 		.4byte	0x161
 4600 0229 0A       		.uleb128 0xa
 4601 022a 8A0B0000 		.4byte	.LASF44
 4602 022e 06       		.byte	0x6
 4603 022f 1101     		.2byte	0x111
 4604 0231 B8000000 		.4byte	0xb8
 4605 0235 0B       		.uleb128 0xb
 4606 0236 08       		.byte	0x8
 4607 0237 06       		.byte	0x6
 4608 0238 2701     		.2byte	0x127
 4609 023a 59020000 		.4byte	0x259
 4610 023e 09       		.uleb128 0x9
 4611 023f 8A050000 		.4byte	.LASF45
 4612 0243 06       		.byte	0x6
 4613 0244 2801     		.2byte	0x128
 4614 0246 D9000000 		.4byte	0xd9
 4615 024a 00       		.byte	0
 4616 024b 09       		.uleb128 0x9
 4617 024c 7E0A0000 		.4byte	.LASF46
 4618 0250 06       		.byte	0x6
 4619 0251 2A01     		.2byte	0x12a
 4620 0253 D9000000 		.4byte	0xd9
 4621 0257 04       		.byte	0x4
 4622 0258 00       		.byte	0
 4623 0259 0A       		.uleb128 0xa
 4624 025a 980B0000 		.4byte	.LASF47
 4625 025e 06       		.byte	0x6
 4626 025f 2C01     		.2byte	0x12c
 4627 0261 35020000 		.4byte	0x235
 4628 0265 0B       		.uleb128 0xb
 4629 0266 1C       		.byte	0x1c
 4630 0267 06       		.byte	0x6
 4631 0268 3201     		.2byte	0x132
 4632 026a F1020000 		.4byte	0x2f1
 4633 026e 09       		.uleb128 0x9
 4634 026f 16110000 		.4byte	.LASF48
 4635 0273 06       		.byte	0x6
 4636 0274 3301     		.2byte	0x133
 4637 0276 E4000000 		.4byte	0xe4
 4638 027a 00       		.byte	0
 4639 027b 09       		.uleb128 0x9
 4640 027c F8070000 		.4byte	.LASF49
 4641 0280 06       		.byte	0x6
 4642 0281 3401     		.2byte	0x134
 4643 0283 E4000000 		.4byte	0xe4
 4644 0287 04       		.byte	0x4
 4645 0288 09       		.uleb128 0x9
 4646 0289 56100000 		.4byte	.LASF50
 4647 028d 06       		.byte	0x6
ARM GAS  C:\Users\ilya\AppData\Local\Temp\ccWKU7si.s 			page 106


 4648 028e 3901     		.2byte	0x139
 4649 0290 CE000000 		.4byte	0xce
 4650 0294 08       		.byte	0x8
 4651 0295 09       		.uleb128 0x9
 4652 0296 C5030000 		.4byte	.LASF51
 4653 029a 06       		.byte	0x6
 4654 029b 3B01     		.2byte	0x13b
 4655 029d CE000000 		.4byte	0xce
 4656 02a1 0A       		.byte	0xa
 4657 02a2 09       		.uleb128 0x9
 4658 02a3 4C000000 		.4byte	.LASF52
 4659 02a7 06       		.byte	0x6
 4660 02a8 4001     		.2byte	0x140
 4661 02aa F6000000 		.4byte	0xf6
 4662 02ae 0C       		.byte	0xc
 4663 02af 09       		.uleb128 0x9
 4664 02b0 02020000 		.4byte	.LASF53
 4665 02b4 06       		.byte	0x6
 4666 02b5 4401     		.2byte	0x144
 4667 02b7 F6000000 		.4byte	0xf6
 4668 02bb 10       		.byte	0x10
 4669 02bc 09       		.uleb128 0x9
 4670 02bd 70060000 		.4byte	.LASF54
 4671 02c1 06       		.byte	0x6
 4672 02c2 4901     		.2byte	0x149
 4673 02c4 CE000000 		.4byte	0xce
 4674 02c8 14       		.byte	0x14
 4675 02c9 09       		.uleb128 0x9
 4676 02ca 4F0D0000 		.4byte	.LASF55
 4677 02ce 06       		.byte	0x6
 4678 02cf 4D01     		.2byte	0x14d
 4679 02d1 B8000000 		.4byte	0xb8
 4680 02d5 16       		.byte	0x16
 4681 02d6 09       		.uleb128 0x9
 4682 02d7 A9100000 		.4byte	.LASF56
 4683 02db 06       		.byte	0x6
 4684 02dc 5001     		.2byte	0x150
 4685 02de B8000000 		.4byte	0xb8
 4686 02e2 17       		.byte	0x17
 4687 02e3 09       		.uleb128 0x9
 4688 02e4 69090000 		.4byte	.LASF57
 4689 02e8 06       		.byte	0x6
 4690 02e9 5301     		.2byte	0x153
 4691 02eb B8000000 		.4byte	0xb8
 4692 02ef 18       		.byte	0x18
 4693 02f0 00       		.byte	0
 4694 02f1 0A       		.uleb128 0xa
 4695 02f2 2A0C0000 		.4byte	.LASF58
 4696 02f6 06       		.byte	0x6
 4697 02f7 5701     		.2byte	0x157
 4698 02f9 65020000 		.4byte	0x265
 4699 02fd 0B       		.uleb128 0xb
 4700 02fe 68       		.byte	0x68
 4701 02ff 06       		.byte	0x6
 4702 0300 6001     		.2byte	0x160
 4703 0302 55030000 		.4byte	0x355
 4704 0306 09       		.uleb128 0x9
ARM GAS  C:\Users\ilya\AppData\Local\Temp\ccWKU7si.s 			page 107


 4705 0307 F9060000 		.4byte	.LASF59
 4706 030b 06       		.byte	0x6
 4707 030c 6201     		.2byte	0x162
 4708 030e 55030000 		.4byte	0x355
 4709 0312 00       		.byte	0
 4710 0313 09       		.uleb128 0x9
 4711 0314 86040000 		.4byte	.LASF60
 4712 0318 06       		.byte	0x6
 4713 0319 6401     		.2byte	0x164
 4714 031b B8000000 		.4byte	0xb8
 4715 031f 60       		.byte	0x60
 4716 0320 09       		.uleb128 0x9
 4717 0321 75090000 		.4byte	.LASF61
 4718 0325 06       		.byte	0x6
 4719 0326 6601     		.2byte	0x166
 4720 0328 B8000000 		.4byte	0xb8
 4721 032c 61       		.byte	0x61
 4722 032d 09       		.uleb128 0x9
 4723 032e 84080000 		.4byte	.LASF62
 4724 0332 06       		.byte	0x6
 4725 0333 6701     		.2byte	0x167
 4726 0335 B8000000 		.4byte	0xb8
 4727 0339 62       		.byte	0x62
 4728 033a 09       		.uleb128 0x9
 4729 033b B90E0000 		.4byte	.LASF63
 4730 033f 06       		.byte	0x6
 4731 0340 6801     		.2byte	0x168
 4732 0342 B8000000 		.4byte	0xb8
 4733 0346 63       		.byte	0x63
 4734 0347 09       		.uleb128 0x9
 4735 0348 F6010000 		.4byte	.LASF64
 4736 034c 06       		.byte	0x6
 4737 034d 6B01     		.2byte	0x16b
 4738 034f 01010000 		.4byte	0x101
 4739 0353 64       		.byte	0x64
 4740 0354 00       		.byte	0
 4741 0355 05       		.uleb128 0x5
 4742 0356 E4000000 		.4byte	0xe4
 4743 035a 65030000 		.4byte	0x365
 4744 035e 06       		.uleb128 0x6
 4745 035f 27010000 		.4byte	0x127
 4746 0363 17       		.byte	0x17
 4747 0364 00       		.byte	0
 4748 0365 0A       		.uleb128 0xa
 4749 0366 20110000 		.4byte	.LASF65
 4750 036a 06       		.byte	0x6
 4751 036b 6E01     		.2byte	0x16e
 4752 036d FD020000 		.4byte	0x2fd
 4753 0371 0B       		.uleb128 0xb
 4754 0372 0C       		.byte	0xc
 4755 0373 06       		.byte	0x6
 4756 0374 7601     		.2byte	0x176
 4757 0376 95030000 		.4byte	0x395
 4758 037a 09       		.uleb128 0x9
 4759 037b 14060000 		.4byte	.LASF66
 4760 037f 06       		.byte	0x6
 4761 0380 7701     		.2byte	0x177
ARM GAS  C:\Users\ilya\AppData\Local\Temp\ccWKU7si.s 			page 108


 4762 0382 FD010000 		.4byte	0x1fd
 4763 0386 00       		.byte	0
 4764 0387 09       		.uleb128 0x9
 4765 0388 A50D0000 		.4byte	.LASF67
 4766 038c 06       		.byte	0x6
 4767 038d 7901     		.2byte	0x179
 4768 038f FD010000 		.4byte	0x1fd
 4769 0393 06       		.byte	0x6
 4770 0394 00       		.byte	0
 4771 0395 0A       		.uleb128 0xa
 4772 0396 BB080000 		.4byte	.LASF68
 4773 039a 06       		.byte	0x6
 4774 039b 7B01     		.2byte	0x17b
 4775 039d 71030000 		.4byte	0x371
 4776 03a1 0B       		.uleb128 0xb
 4777 03a2 50       		.byte	0x50
 4778 03a3 06       		.byte	0x6
 4779 03a4 7D01     		.2byte	0x17d
 4780 03a6 AF040000 		.4byte	0x4af
 4781 03aa 09       		.uleb128 0x9
 4782 03ab CB050000 		.4byte	.LASF69
 4783 03af 06       		.byte	0x6
 4784 03b0 7E01     		.2byte	0x17e
 4785 03b2 F6000000 		.4byte	0xf6
 4786 03b6 00       		.byte	0
 4787 03b7 09       		.uleb128 0x9
 4788 03b8 D4100000 		.4byte	.LASF70
 4789 03bc 06       		.byte	0x6
 4790 03bd 8001     		.2byte	0x180
 4791 03bf CE000000 		.4byte	0xce
 4792 03c3 04       		.byte	0x4
 4793 03c4 09       		.uleb128 0x9
 4794 03c5 8A0F0000 		.4byte	.LASF71
 4795 03c9 06       		.byte	0x6
 4796 03ca 8301     		.2byte	0x183
 4797 03cc 0C010000 		.4byte	0x10c
 4798 03d0 06       		.byte	0x6
 4799 03d1 09       		.uleb128 0x9
 4800 03d2 340D0000 		.4byte	.LASF72
 4801 03d6 06       		.byte	0x6
 4802 03d7 8601     		.2byte	0x186
 4803 03d9 E4000000 		.4byte	0xe4
 4804 03dd 08       		.byte	0x8
 4805 03de 09       		.uleb128 0x9
 4806 03df 060F0000 		.4byte	.LASF73
 4807 03e3 06       		.byte	0x6
 4808 03e4 8801     		.2byte	0x188
 4809 03e6 B8000000 		.4byte	0xb8
 4810 03ea 0C       		.byte	0xc
 4811 03eb 09       		.uleb128 0x9
 4812 03ec C60E0000 		.4byte	.LASF74
 4813 03f0 06       		.byte	0x6
 4814 03f1 8A01     		.2byte	0x18a
 4815 03f3 E4000000 		.4byte	0xe4
 4816 03f7 10       		.byte	0x10
 4817 03f8 09       		.uleb128 0x9
 4818 03f9 DC000000 		.4byte	.LASF75
ARM GAS  C:\Users\ilya\AppData\Local\Temp\ccWKU7si.s 			page 109


 4819 03fd 06       		.byte	0x6
 4820 03fe 8C01     		.2byte	0x18c
 4821 0400 B8000000 		.4byte	0xb8
 4822 0404 14       		.byte	0x14
 4823 0405 09       		.uleb128 0x9
 4824 0406 98100000 		.4byte	.LASF76
 4825 040a 06       		.byte	0x6
 4826 040b 8F01     		.2byte	0x18f
 4827 040d CE000000 		.4byte	0xce
 4828 0411 16       		.byte	0x16
 4829 0412 09       		.uleb128 0x9
 4830 0413 B1070000 		.4byte	.LASF77
 4831 0417 06       		.byte	0x6
 4832 0418 9101     		.2byte	0x191
 4833 041a CE000000 		.4byte	0xce
 4834 041e 18       		.byte	0x18
 4835 041f 09       		.uleb128 0x9
 4836 0420 680E0000 		.4byte	.LASF78
 4837 0424 06       		.byte	0x6
 4838 0425 9401     		.2byte	0x194
 4839 0427 CE000000 		.4byte	0xce
 4840 042b 1A       		.byte	0x1a
 4841 042c 09       		.uleb128 0x9
 4842 042d 27080000 		.4byte	.LASF79
 4843 0431 06       		.byte	0x6
 4844 0432 9901     		.2byte	0x199
 4845 0434 B8000000 		.4byte	0xb8
 4846 0438 1C       		.byte	0x1c
 4847 0439 09       		.uleb128 0x9
 4848 043a F0060000 		.4byte	.LASF80
 4849 043e 06       		.byte	0x6
 4850 043f 9B01     		.2byte	0x19b
 4851 0441 B8000000 		.4byte	0xb8
 4852 0445 1D       		.byte	0x1d
 4853 0446 09       		.uleb128 0x9
 4854 0447 FB030000 		.4byte	.LASF81
 4855 044b 06       		.byte	0x6
 4856 044c 9C01     		.2byte	0x19c
 4857 044e B8000000 		.4byte	0xb8
 4858 0452 1E       		.byte	0x1e
 4859 0453 09       		.uleb128 0x9
 4860 0454 CD010000 		.4byte	.LASF82
 4861 0458 06       		.byte	0x6
 4862 0459 9D01     		.2byte	0x19d
 4863 045b 17010000 		.4byte	0x117
 4864 045f 1F       		.byte	0x1f
 4865 0460 09       		.uleb128 0x9
 4866 0461 CD060000 		.4byte	.LASF83
 4867 0465 06       		.byte	0x6
 4868 0466 9F01     		.2byte	0x19f
 4869 0468 B8000000 		.4byte	0xb8
 4870 046c 3F       		.byte	0x3f
 4871 046d 09       		.uleb128 0x9
 4872 046e 3A000000 		.4byte	.LASF84
 4873 0472 06       		.byte	0x6
 4874 0473 A001     		.2byte	0x1a0
 4875 0475 B8000000 		.4byte	0xb8
ARM GAS  C:\Users\ilya\AppData\Local\Temp\ccWKU7si.s 			page 110


 4876 0479 40       		.byte	0x40
 4877 047a 09       		.uleb128 0x9
 4878 047b 060A0000 		.4byte	.LASF85
 4879 047f 06       		.byte	0x6
 4880 0480 A101     		.2byte	0x1a1
 4881 0482 B8000000 		.4byte	0xb8
 4882 0486 41       		.byte	0x41
 4883 0487 09       		.uleb128 0x9
 4884 0488 E10C0000 		.4byte	.LASF86
 4885 048c 06       		.byte	0x6
 4886 048d A201     		.2byte	0x1a2
 4887 048f E4000000 		.4byte	0xe4
 4888 0493 44       		.byte	0x44
 4889 0494 09       		.uleb128 0x9
 4890 0495 6A000000 		.4byte	.LASF87
 4891 0499 06       		.byte	0x6
 4892 049a A301     		.2byte	0x1a3
 4893 049c E4000000 		.4byte	0xe4
 4894 04a0 48       		.byte	0x48
 4895 04a1 09       		.uleb128 0x9
 4896 04a2 6F110000 		.4byte	.LASF88
 4897 04a6 06       		.byte	0x6
 4898 04a7 A401     		.2byte	0x1a4
 4899 04a9 F6000000 		.4byte	0xf6
 4900 04ad 4C       		.byte	0x4c
 4901 04ae 00       		.byte	0
 4902 04af 0A       		.uleb128 0xa
 4903 04b0 53040000 		.4byte	.LASF89
 4904 04b4 06       		.byte	0x6
 4905 04b5 A701     		.2byte	0x1a7
 4906 04b7 A1030000 		.4byte	0x3a1
 4907 04bb 0C       		.uleb128 0xc
 4908 04bc 5C01     		.2byte	0x15c
 4909 04be 06       		.byte	0x6
 4910 04bf B101     		.2byte	0x1b1
 4911 04c1 1D060000 		.4byte	0x61d
 4912 04c5 09       		.uleb128 0x9
 4913 04c6 EF070000 		.4byte	.LASF90
 4914 04ca 06       		.byte	0x6
 4915 04cb B201     		.2byte	0x1b2
 4916 04cd 59020000 		.4byte	0x259
 4917 04d1 00       		.byte	0
 4918 04d2 09       		.uleb128 0x9
 4919 04d3 13040000 		.4byte	.LASF91
 4920 04d7 06       		.byte	0x6
 4921 04d8 B401     		.2byte	0x1b4
 4922 04da D9000000 		.4byte	0xd9
 4923 04de 08       		.byte	0x8
 4924 04df 09       		.uleb128 0x9
 4925 04e0 4C050000 		.4byte	.LASF92
 4926 04e4 06       		.byte	0x6
 4927 04e5 B601     		.2byte	0x1b6
 4928 04e7 D9000000 		.4byte	0xd9
 4929 04eb 0C       		.byte	0xc
 4930 04ec 09       		.uleb128 0x9
 4931 04ed 000E0000 		.4byte	.LASF93
 4932 04f1 06       		.byte	0x6
ARM GAS  C:\Users\ilya\AppData\Local\Temp\ccWKU7si.s 			page 111


 4933 04f2 B801     		.2byte	0x1b8
 4934 04f4 1D020000 		.4byte	0x21d
 4935 04f8 10       		.byte	0x10
 4936 04f9 09       		.uleb128 0x9
 4937 04fa 62080000 		.4byte	.LASF94
 4938 04fe 06       		.byte	0x6
 4939 04ff BA01     		.2byte	0x1ba
 4940 0501 F1020000 		.4byte	0x2f1
 4941 0505 50       		.byte	0x50
 4942 0506 09       		.uleb128 0x9
 4943 0507 FB0F0000 		.4byte	.LASF95
 4944 050b 06       		.byte	0x6
 4945 050c BC01     		.2byte	0x1bc
 4946 050e 65030000 		.4byte	0x365
 4947 0512 6C       		.byte	0x6c
 4948 0513 09       		.uleb128 0x9
 4949 0514 300E0000 		.4byte	.LASF96
 4950 0518 06       		.byte	0x6
 4951 0519 BE01     		.2byte	0x1be
 4952 051b AF040000 		.4byte	0x4af
 4953 051f D4       		.byte	0xd4
 4954 0520 0D       		.uleb128 0xd
 4955 0521 9A060000 		.4byte	.LASF97
 4956 0525 06       		.byte	0x6
 4957 0526 C001     		.2byte	0x1c0
 4958 0528 95030000 		.4byte	0x395
 4959 052c 2401     		.2byte	0x124
 4960 052e 0D       		.uleb128 0xd
 4961 052f 670C0000 		.4byte	.LASF98
 4962 0533 06       		.byte	0x6
 4963 0534 C201     		.2byte	0x1c2
 4964 0536 B8000000 		.4byte	0xb8
 4965 053a 3001     		.2byte	0x130
 4966 053c 0D       		.uleb128 0xd
 4967 053d 23100000 		.4byte	.LASF99
 4968 0541 06       		.byte	0x6
 4969 0542 C401     		.2byte	0x1c4
 4970 0544 B8000000 		.4byte	0xb8
 4971 0548 3101     		.2byte	0x131
 4972 054a 0D       		.uleb128 0xd
 4973 054b 0D110000 		.4byte	.LASF100
 4974 054f 06       		.byte	0x6
 4975 0550 C601     		.2byte	0x1c6
 4976 0552 29020000 		.4byte	0x229
 4977 0556 3201     		.2byte	0x132
 4978 0558 0D       		.uleb128 0xd
 4979 0559 98030000 		.4byte	.LASF101
 4980 055d 06       		.byte	0x6
 4981 055e C801     		.2byte	0x1c8
 4982 0560 56010000 		.4byte	0x156
 4983 0564 3301     		.2byte	0x133
 4984 0566 0D       		.uleb128 0xd
 4985 0567 98100000 		.4byte	.LASF76
 4986 056b 06       		.byte	0x6
 4987 056c CA01     		.2byte	0x1ca
 4988 056e CE000000 		.4byte	0xce
 4989 0572 3401     		.2byte	0x134
ARM GAS  C:\Users\ilya\AppData\Local\Temp\ccWKU7si.s 			page 112


 4990 0574 0D       		.uleb128 0xd
 4991 0575 B1070000 		.4byte	.LASF77
 4992 0579 06       		.byte	0x6
 4993 057a CC01     		.2byte	0x1cc
 4994 057c CE000000 		.4byte	0xce
 4995 0580 3601     		.2byte	0x136
 4996 0582 0D       		.uleb128 0xd
 4997 0583 680E0000 		.4byte	.LASF78
 4998 0587 06       		.byte	0x6
 4999 0588 CF01     		.2byte	0x1cf
 5000 058a CE000000 		.4byte	0xce
 5001 058e 3801     		.2byte	0x138
 5002 0590 0D       		.uleb128 0xd
 5003 0591 D8070000 		.4byte	.LASF102
 5004 0595 06       		.byte	0x6
 5005 0596 D201     		.2byte	0x1d2
 5006 0598 B8000000 		.4byte	0xb8
 5007 059c 3A01     		.2byte	0x13a
 5008 059e 0D       		.uleb128 0xd
 5009 059f 06050000 		.4byte	.LASF103
 5010 05a3 06       		.byte	0x6
 5011 05a4 D401     		.2byte	0x1d4
 5012 05a6 CE000000 		.4byte	0xce
 5013 05aa 3C01     		.2byte	0x13c
 5014 05ac 0D       		.uleb128 0xd
 5015 05ad 8A100000 		.4byte	.LASF104
 5016 05b1 06       		.byte	0x6
 5017 05b2 D601     		.2byte	0x1d6
 5018 05b4 F6000000 		.4byte	0xf6
 5019 05b8 4001     		.2byte	0x140
 5020 05ba 0D       		.uleb128 0xd
 5021 05bb EE0C0000 		.4byte	.LASF105
 5022 05bf 06       		.byte	0x6
 5023 05c0 D901     		.2byte	0x1d9
 5024 05c2 F6000000 		.4byte	0xf6
 5025 05c6 4401     		.2byte	0x144
 5026 05c8 0D       		.uleb128 0xd
 5027 05c9 220D0000 		.4byte	.LASF106
 5028 05cd 06       		.byte	0x6
 5029 05ce DB01     		.2byte	0x1db
 5030 05d0 F6000000 		.4byte	0xf6
 5031 05d4 4801     		.2byte	0x148
 5032 05d6 0D       		.uleb128 0xd
 5033 05d7 490E0000 		.4byte	.LASF107
 5034 05db 06       		.byte	0x6
 5035 05dc DD01     		.2byte	0x1dd
 5036 05de 1D060000 		.4byte	0x61d
 5037 05e2 4C01     		.2byte	0x14c
 5038 05e4 0D       		.uleb128 0xd
 5039 05e5 2F060000 		.4byte	.LASF108
 5040 05e9 06       		.byte	0x6
 5041 05ea DF01     		.2byte	0x1df
 5042 05ec B8000000 		.4byte	0xb8
 5043 05f0 5001     		.2byte	0x150
 5044 05f2 0D       		.uleb128 0xd
 5045 05f3 58060000 		.4byte	.LASF109
 5046 05f7 06       		.byte	0x6
ARM GAS  C:\Users\ilya\AppData\Local\Temp\ccWKU7si.s 			page 113


 5047 05f8 E101     		.2byte	0x1e1
 5048 05fa CE000000 		.4byte	0xce
 5049 05fe 5201     		.2byte	0x152
 5050 0600 0D       		.uleb128 0xd
 5051 0601 86070000 		.4byte	.LASF110
 5052 0605 06       		.byte	0x6
 5053 0606 E301     		.2byte	0x1e3
 5054 0608 CE000000 		.4byte	0xce
 5055 060c 5401     		.2byte	0x154
 5056 060e 0D       		.uleb128 0xd
 5057 060f EA0E0000 		.4byte	.LASF111
 5058 0613 06       		.byte	0x6
 5059 0614 E501     		.2byte	0x1e5
 5060 0616 F6000000 		.4byte	0xf6
 5061 061a 5801     		.2byte	0x158
 5062 061c 00       		.byte	0
 5063 061d 0E       		.uleb128 0xe
 5064 061e 04       		.byte	0x4
 5065 061f B8000000 		.4byte	0xb8
 5066 0623 0A       		.uleb128 0xa
 5067 0624 210F0000 		.4byte	.LASF112
 5068 0628 06       		.byte	0x6
 5069 0629 E801     		.2byte	0x1e8
 5070 062b BB040000 		.4byte	0x4bb
 5071 062f 0A       		.uleb128 0xa
 5072 0630 DB0F0000 		.4byte	.LASF113
 5073 0634 06       		.byte	0x6
 5074 0635 FE01     		.2byte	0x1fe
 5075 0637 B8000000 		.4byte	0xb8
 5076 063b 0F       		.uleb128 0xf
 5077 063c 6001     		.2byte	0x160
 5078 063e 07       		.byte	0x7
 5079 063f 3A       		.byte	0x3a
 5080 0640 78060000 		.4byte	0x678
 5081 0644 08       		.uleb128 0x8
 5082 0645 43110000 		.4byte	.LASF114
 5083 0649 07       		.byte	0x7
 5084 064a 3B       		.byte	0x3b
 5085 064b 23060000 		.4byte	0x623
 5086 064f 00       		.byte	0
 5087 0650 10       		.uleb128 0x10
 5088 0651 D30B0000 		.4byte	.LASF115
 5089 0655 07       		.byte	0x7
 5090 0656 3E       		.byte	0x3e
 5091 0657 B8000000 		.4byte	0xb8
 5092 065b 5C01     		.2byte	0x15c
 5093 065d 10       		.uleb128 0x10
 5094 065e CA0D0000 		.4byte	.LASF116
 5095 0662 07       		.byte	0x7
 5096 0663 3F       		.byte	0x3f
 5097 0664 B8000000 		.4byte	0xb8
 5098 0668 5D01     		.2byte	0x15d
 5099 066a 10       		.uleb128 0x10
 5100 066b 18070000 		.4byte	.LASF117
 5101 066f 07       		.byte	0x7
 5102 0670 40       		.byte	0x40
 5103 0671 CE000000 		.4byte	0xce
ARM GAS  C:\Users\ilya\AppData\Local\Temp\ccWKU7si.s 			page 114


 5104 0675 5E01     		.2byte	0x15e
 5105 0677 00       		.byte	0
 5106 0678 02       		.uleb128 0x2
 5107 0679 74030000 		.4byte	.LASF118
 5108 067d 07       		.byte	0x7
 5109 067e 42       		.byte	0x42
 5110 067f 3B060000 		.4byte	0x63b
 5111 0683 02       		.uleb128 0x2
 5112 0684 77000000 		.4byte	.LASF119
 5113 0688 07       		.byte	0x7
 5114 0689 49       		.byte	0x49
 5115 068a 8E060000 		.4byte	0x68e
 5116 068e 0E       		.uleb128 0xe
 5117 068f 04       		.byte	0x4
 5118 0690 78060000 		.4byte	0x678
 5119 0694 11       		.uleb128 0x11
 5120 0695 4D110000 		.4byte	.LASF135
 5121 0699 01       		.byte	0x1
 5122 069a 33       		.byte	0x33
 5123 069b 35010000 		.4byte	0x135
 5124 069f 00000000 		.4byte	.LFB1
 5125 06a3 4E020000 		.4byte	.LFE1-.LFB1
 5126 06a7 01       		.uleb128 0x1
 5127 06a8 9C       		.byte	0x9c
 5128 06a9 A0070000 		.4byte	0x7a0
 5129 06ad 12       		.uleb128 0x12
 5130 06ae 44657600 		.ascii	"Dev\000"
 5131 06b2 01       		.byte	0x1
 5132 06b3 33       		.byte	0x33
 5133 06b4 83060000 		.4byte	0x683
 5134 06b8 03       		.uleb128 0x3
 5135 06b9 91       		.byte	0x91
 5136 06ba 9C7F     		.sleb128 -100
 5137 06bc 13       		.uleb128 0x13
 5138 06bd 22020000 		.4byte	.LASF120
 5139 06c1 01       		.byte	0x1
 5140 06c2 34       		.byte	0x34
 5141 06c3 F6000000 		.4byte	0xf6
 5142 06c7 03       		.uleb128 0x3
 5143 06c8 91       		.byte	0x91
 5144 06c9 987F     		.sleb128 -104
 5145 06cb 13       		.uleb128 0x13
 5146 06cc E8090000 		.4byte	.LASF121
 5147 06d0 01       		.byte	0x1
 5148 06d1 35       		.byte	0x35
 5149 06d2 A0070000 		.4byte	0x7a0
 5150 06d6 03       		.uleb128 0x3
 5151 06d7 91       		.byte	0x91
 5152 06d8 947F     		.sleb128 -108
 5153 06da 14       		.uleb128 0x14
 5154 06db A4010000 		.4byte	.LASF122
 5155 06df 01       		.byte	0x1
 5156 06e0 37       		.byte	0x37
 5157 06e1 35010000 		.4byte	0x135
 5158 06e5 02       		.uleb128 0x2
 5159 06e6 91       		.byte	0x91
 5160 06e7 6F       		.sleb128 -17
ARM GAS  C:\Users\ilya\AppData\Local\Temp\ccWKU7si.s 			page 115


 5161 06e8 14       		.uleb128 0x14
 5162 06e9 160D0000 		.4byte	.LASF123
 5163 06ed 01       		.byte	0x1
 5164 06ee 38       		.byte	0x38
 5165 06ef CE000000 		.4byte	0xce
 5166 06f3 02       		.uleb128 0x2
 5167 06f4 91       		.byte	0x91
 5168 06f5 6C       		.sleb128 -20
 5169 06f6 14       		.uleb128 0x14
 5170 06f7 54090000 		.4byte	.LASF124
 5171 06fb 01       		.byte	0x1
 5172 06fc 39       		.byte	0x39
 5173 06fd CE000000 		.4byte	0xce
 5174 0701 02       		.uleb128 0x2
 5175 0702 91       		.byte	0x91
 5176 0703 6A       		.sleb128 -22
 5177 0704 14       		.uleb128 0x14
 5178 0705 120C0000 		.4byte	.LASF125
 5179 0709 01       		.byte	0x1
 5180 070a 3A       		.byte	0x3a
 5181 070b F6000000 		.4byte	0xf6
 5182 070f 02       		.uleb128 0x2
 5183 0710 91       		.byte	0x91
 5184 0711 64       		.sleb128 -28
 5185 0712 14       		.uleb128 0x14
 5186 0713 420A0000 		.4byte	.LASF126
 5187 0717 01       		.byte	0x1
 5188 0718 3B       		.byte	0x3b
 5189 0719 F6000000 		.4byte	0xf6
 5190 071d 02       		.uleb128 0x2
 5191 071e 91       		.byte	0x91
 5192 071f 60       		.sleb128 -32
 5193 0720 14       		.uleb128 0x14
 5194 0721 5E090000 		.4byte	.LASF127
 5195 0725 01       		.byte	0x1
 5196 0726 3C       		.byte	0x3c
 5197 0727 B8000000 		.4byte	0xb8
 5198 072b 02       		.uleb128 0x2
 5199 072c 91       		.byte	0x91
 5200 072d 5F       		.sleb128 -33
 5201 072e 14       		.uleb128 0x14
 5202 072f 1A0A0000 		.4byte	.LASF128
 5203 0733 01       		.byte	0x1
 5204 0734 3D       		.byte	0x3d
 5205 0735 F1020000 		.4byte	0x2f1
 5206 0739 03       		.uleb128 0x3
 5207 073a 91       		.byte	0x91
 5208 073b A47F     		.sleb128 -92
 5209 073d 14       		.uleb128 0x14
 5210 073e 45020000 		.4byte	.LASF129
 5211 0742 01       		.byte	0x1
 5212 0743 3E       		.byte	0x3e
 5213 0744 F6000000 		.4byte	0xf6
 5214 0748 02       		.uleb128 0x2
 5215 0749 91       		.byte	0x91
 5216 074a 54       		.sleb128 -44
 5217 074b 14       		.uleb128 0x14
ARM GAS  C:\Users\ilya\AppData\Local\Temp\ccWKU7si.s 			page 116


 5218 074c 91000000 		.4byte	.LASF130
 5219 0750 01       		.byte	0x1
 5220 0751 3F       		.byte	0x3f
 5221 0752 F6000000 		.4byte	0xf6
 5222 0756 02       		.uleb128 0x2
 5223 0757 91       		.byte	0x91
 5224 0758 50       		.sleb128 -48
 5225 0759 14       		.uleb128 0x14
 5226 075a D50D0000 		.4byte	.LASF131
 5227 075e 01       		.byte	0x1
 5228 075f 40       		.byte	0x40
 5229 0760 F6000000 		.4byte	0xf6
 5230 0764 02       		.uleb128 0x2
 5231 0765 91       		.byte	0x91
 5232 0766 4C       		.sleb128 -52
 5233 0767 14       		.uleb128 0x14
 5234 0768 22000000 		.4byte	.LASF132
 5235 076c 01       		.byte	0x1
 5236 076d 41       		.byte	0x41
 5237 076e E4000000 		.4byte	0xe4
 5238 0772 02       		.uleb128 0x2
 5239 0773 91       		.byte	0x91
 5240 0774 40       		.sleb128 -64
 5241 0775 14       		.uleb128 0x14
 5242 0776 39100000 		.4byte	.LASF133
 5243 077a 01       		.byte	0x1
 5244 077b 42       		.byte	0x42
 5245 077c E4000000 		.4byte	0xe4
 5246 0780 02       		.uleb128 0x2
 5247 0781 91       		.byte	0x91
 5248 0782 48       		.sleb128 -56
 5249 0783 14       		.uleb128 0x14
 5250 0784 D2090000 		.4byte	.LASF134
 5251 0788 01       		.byte	0x1
 5252 0789 43       		.byte	0x43
 5253 078a E4000000 		.4byte	0xe4
 5254 078e 02       		.uleb128 0x2
 5255 078f 91       		.byte	0x91
 5256 0790 44       		.sleb128 -60
 5257 0791 14       		.uleb128 0x14
 5258 0792 E90B0000 		.4byte	.LASF37
 5259 0796 01       		.byte	0x1
 5260 0797 44       		.byte	0x44
 5261 0798 F6000000 		.4byte	0xf6
 5262 079c 02       		.uleb128 0x2
 5263 079d 91       		.byte	0x91
 5264 079e 58       		.sleb128 -40
 5265 079f 00       		.byte	0
 5266 07a0 0E       		.uleb128 0xe
 5267 07a1 04       		.byte	0x4
 5268 07a2 F6000000 		.4byte	0xf6
 5269 07a6 11       		.uleb128 0x11
 5270 07a7 16010000 		.4byte	.LASF136
 5271 07ab 01       		.byte	0x1
 5272 07ac BE       		.byte	0xbe
 5273 07ad 35010000 		.4byte	0x135
 5274 07b1 00000000 		.4byte	.LFB2
ARM GAS  C:\Users\ilya\AppData\Local\Temp\ccWKU7si.s 			page 117


 5275 07b5 E6010000 		.4byte	.LFE2-.LFB2
 5276 07b9 01       		.uleb128 0x1
 5277 07ba 9C       		.byte	0x9c
 5278 07bb 6D080000 		.4byte	0x86d
 5279 07bf 12       		.uleb128 0x12
 5280 07c0 44657600 		.ascii	"Dev\000"
 5281 07c4 01       		.byte	0x1
 5282 07c5 BE       		.byte	0xbe
 5283 07c6 83060000 		.4byte	0x683
 5284 07ca 03       		.uleb128 0x3
 5285 07cb 91       		.byte	0x91
 5286 07cc B47F     		.sleb128 -76
 5287 07ce 13       		.uleb128 0x13
 5288 07cf E5030000 		.4byte	.LASF137
 5289 07d3 01       		.byte	0x1
 5290 07d4 BF       		.byte	0xbf
 5291 07d5 F6000000 		.4byte	0xf6
 5292 07d9 03       		.uleb128 0x3
 5293 07da 91       		.byte	0x91
 5294 07db B07F     		.sleb128 -80
 5295 07dd 13       		.uleb128 0x13
 5296 07de 33020000 		.4byte	.LASF138
 5297 07e2 01       		.byte	0x1
 5298 07e3 C0       		.byte	0xc0
 5299 07e4 6D080000 		.4byte	0x86d
 5300 07e8 03       		.uleb128 0x3
 5301 07e9 91       		.byte	0x91
 5302 07ea AC7F     		.sleb128 -84
 5303 07ec 14       		.uleb128 0x14
 5304 07ed A4010000 		.4byte	.LASF122
 5305 07f1 01       		.byte	0x1
 5306 07f2 C2       		.byte	0xc2
 5307 07f3 35010000 		.4byte	0x135
 5308 07f7 02       		.uleb128 0x2
 5309 07f8 91       		.byte	0x91
 5310 07f9 6F       		.sleb128 -17
 5311 07fa 14       		.uleb128 0x14
 5312 07fb 160D0000 		.4byte	.LASF123
 5313 07ff 01       		.byte	0x1
 5314 0800 C3       		.byte	0xc3
 5315 0801 CE000000 		.4byte	0xce
 5316 0805 02       		.uleb128 0x2
 5317 0806 91       		.byte	0x91
 5318 0807 6C       		.sleb128 -20
 5319 0808 14       		.uleb128 0x14
 5320 0809 420A0000 		.4byte	.LASF126
 5321 080d 01       		.byte	0x1
 5322 080e C4       		.byte	0xc4
 5323 080f F6000000 		.4byte	0xf6
 5324 0813 02       		.uleb128 0x2
 5325 0814 91       		.byte	0x91
 5326 0815 68       		.sleb128 -24
 5327 0816 14       		.uleb128 0x14
 5328 0817 1A0A0000 		.4byte	.LASF128
 5329 081b 01       		.byte	0x1
 5330 081c C5       		.byte	0xc5
 5331 081d F1020000 		.4byte	0x2f1
ARM GAS  C:\Users\ilya\AppData\Local\Temp\ccWKU7si.s 			page 118


 5332 0821 03       		.uleb128 0x3
 5333 0822 91       		.byte	0x91
 5334 0823 BC7F     		.sleb128 -68
 5335 0825 14       		.uleb128 0x14
 5336 0826 E0060000 		.4byte	.LASF139
 5337 082a 01       		.byte	0x1
 5338 082b C6       		.byte	0xc6
 5339 082c F6000000 		.4byte	0xf6
 5340 0830 02       		.uleb128 0x2
 5341 0831 91       		.byte	0x91
 5342 0832 60       		.sleb128 -32
 5343 0833 14       		.uleb128 0x14
 5344 0834 AF000000 		.4byte	.LASF140
 5345 0838 01       		.byte	0x1
 5346 0839 C7       		.byte	0xc7
 5347 083a E4000000 		.4byte	0xe4
 5348 083e 02       		.uleb128 0x2
 5349 083f 91       		.byte	0x91
 5350 0840 5C       		.sleb128 -36
 5351 0841 14       		.uleb128 0x14
 5352 0842 580A0000 		.4byte	.LASF141
 5353 0846 01       		.byte	0x1
 5354 0847 C8       		.byte	0xc8
 5355 0848 E4000000 		.4byte	0xe4
 5356 084c 02       		.uleb128 0x2
 5357 084d 91       		.byte	0x91
 5358 084e 58       		.sleb128 -40
 5359 084f 14       		.uleb128 0x14
 5360 0850 1C050000 		.4byte	.LASF142
 5361 0854 01       		.byte	0x1
 5362 0855 C9       		.byte	0xc9
 5363 0856 B8000000 		.4byte	0xb8
 5364 085a 03       		.uleb128 0x3
 5365 085b 91       		.byte	0x91
 5366 085c BB7F     		.sleb128 -69
 5367 085e 14       		.uleb128 0x14
 5368 085f 48110000 		.4byte	.LASF143
 5369 0863 01       		.byte	0x1
 5370 0864 CA       		.byte	0xca
 5371 0865 9F000000 		.4byte	0x9f
 5372 0869 02       		.uleb128 0x2
 5373 086a 91       		.byte	0x91
 5374 086b 64       		.sleb128 -28
 5375 086c 00       		.byte	0
 5376 086d 0E       		.uleb128 0xe
 5377 086e 04       		.byte	0x4
 5378 086f D9000000 		.4byte	0xd9
 5379 0873 15       		.uleb128 0x15
 5380 0874 0E030000 		.4byte	.LASF144
 5381 0878 01       		.byte	0x1
 5382 0879 2101     		.2byte	0x121
 5383 087b 35010000 		.4byte	0x135
 5384 087f 00000000 		.4byte	.LFB3
 5385 0883 9C000000 		.4byte	.LFE3-.LFB3
 5386 0887 01       		.uleb128 0x1
 5387 0888 9C       		.byte	0x9c
 5388 0889 F7080000 		.4byte	0x8f7
ARM GAS  C:\Users\ilya\AppData\Local\Temp\ccWKU7si.s 			page 119


 5389 088d 16       		.uleb128 0x16
 5390 088e 44657600 		.ascii	"Dev\000"
 5391 0892 01       		.byte	0x1
 5392 0893 2101     		.2byte	0x121
 5393 0895 83060000 		.4byte	0x683
 5394 0899 02       		.uleb128 0x2
 5395 089a 91       		.byte	0x91
 5396 089b 54       		.sleb128 -44
 5397 089c 17       		.uleb128 0x17
 5398 089d 08090000 		.4byte	.LASF145
 5399 08a1 01       		.byte	0x1
 5400 08a2 2201     		.2byte	0x122
 5401 08a4 D9000000 		.4byte	0xd9
 5402 08a8 02       		.uleb128 0x2
 5403 08a9 91       		.byte	0x91
 5404 08aa 50       		.sleb128 -48
 5405 08ab 18       		.uleb128 0x18
 5406 08ac A4010000 		.4byte	.LASF122
 5407 08b0 01       		.byte	0x1
 5408 08b1 2401     		.2byte	0x124
 5409 08b3 35010000 		.4byte	0x135
 5410 08b7 02       		.uleb128 0x2
 5411 08b8 91       		.byte	0x91
 5412 08b9 6B       		.sleb128 -21
 5413 08ba 18       		.uleb128 0x18
 5414 08bb 8D0A0000 		.4byte	.LASF146
 5415 08bf 01       		.byte	0x1
 5416 08c0 2501     		.2byte	0x125
 5417 08c2 D9000000 		.4byte	0xd9
 5418 08c6 02       		.uleb128 0x2
 5419 08c7 91       		.byte	0x91
 5420 08c8 64       		.sleb128 -28
 5421 08c9 18       		.uleb128 0x18
 5422 08ca 28090000 		.4byte	.LASF147
 5423 08ce 01       		.byte	0x1
 5424 08cf 2601     		.2byte	0x126
 5425 08d1 D9000000 		.4byte	0xd9
 5426 08d5 02       		.uleb128 0x2
 5427 08d6 91       		.byte	0x91
 5428 08d7 60       		.sleb128 -32
 5429 08d8 18       		.uleb128 0x18
 5430 08d9 A00F0000 		.4byte	.LASF148
 5431 08dd 01       		.byte	0x1
 5432 08de 2701     		.2byte	0x127
 5433 08e0 C3000000 		.4byte	0xc3
 5434 08e4 02       		.uleb128 0x2
 5435 08e5 91       		.byte	0x91
 5436 08e6 5E       		.sleb128 -34
 5437 08e7 18       		.uleb128 0x18
 5438 08e8 AA080000 		.4byte	.LASF149
 5439 08ec 01       		.byte	0x1
 5440 08ed 2801     		.2byte	0x128
 5441 08ef E4000000 		.4byte	0xe4
 5442 08f3 02       		.uleb128 0x2
 5443 08f4 91       		.byte	0x91
 5444 08f5 6C       		.sleb128 -20
 5445 08f6 00       		.byte	0
ARM GAS  C:\Users\ilya\AppData\Local\Temp\ccWKU7si.s 			page 120


 5446 08f7 15       		.uleb128 0x15
 5447 08f8 DB0A0000 		.4byte	.LASF150
 5448 08fc 01       		.byte	0x1
 5449 08fd 4601     		.2byte	0x146
 5450 08ff 35010000 		.4byte	0x135
 5451 0903 00000000 		.4byte	.LFB4
 5452 0907 B0000000 		.4byte	.LFE4-.LFB4
 5453 090b 01       		.uleb128 0x1
 5454 090c 9C       		.byte	0x9c
 5455 090d 6C090000 		.4byte	0x96c
 5456 0911 16       		.uleb128 0x16
 5457 0912 44657600 		.ascii	"Dev\000"
 5458 0916 01       		.byte	0x1
 5459 0917 4601     		.2byte	0x146
 5460 0919 83060000 		.4byte	0x683
 5461 091d 02       		.uleb128 0x2
 5462 091e 91       		.byte	0x91
 5463 091f 64       		.sleb128 -28
 5464 0920 17       		.uleb128 0x17
 5465 0921 F5000000 		.4byte	.LASF151
 5466 0925 01       		.byte	0x1
 5467 0926 4701     		.2byte	0x147
 5468 0928 6D080000 		.4byte	0x86d
 5469 092c 02       		.uleb128 0x2
 5470 092d 91       		.byte	0x91
 5471 092e 60       		.sleb128 -32
 5472 092f 18       		.uleb128 0x18
 5473 0930 A4010000 		.4byte	.LASF122
 5474 0934 01       		.byte	0x1
 5475 0935 4901     		.2byte	0x149
 5476 0937 35010000 		.4byte	0x135
 5477 093b 02       		.uleb128 0x2
 5478 093c 91       		.byte	0x91
 5479 093d 6F       		.sleb128 -17
 5480 093e 18       		.uleb128 0x18
 5481 093f AA090000 		.4byte	.LASF152
 5482 0943 01       		.byte	0x1
 5483 0944 4A01     		.2byte	0x14a
 5484 0946 CE000000 		.4byte	0xce
 5485 094a 02       		.uleb128 0x2
 5486 094b 91       		.byte	0x91
 5487 094c 68       		.sleb128 -24
 5488 094d 18       		.uleb128 0x18
 5489 094e A6070000 		.4byte	.LASF153
 5490 0952 01       		.byte	0x1
 5491 0953 4B01     		.2byte	0x14b
 5492 0955 C3000000 		.4byte	0xc3
 5493 0959 02       		.uleb128 0x2
 5494 095a 91       		.byte	0x91
 5495 095b 6C       		.sleb128 -20
 5496 095c 18       		.uleb128 0x18
 5497 095d A00F0000 		.4byte	.LASF148
 5498 0961 01       		.byte	0x1
 5499 0962 4C01     		.2byte	0x14c
 5500 0964 C3000000 		.4byte	0xc3
 5501 0968 02       		.uleb128 0x2
 5502 0969 91       		.byte	0x91
ARM GAS  C:\Users\ilya\AppData\Local\Temp\ccWKU7si.s 			page 121


 5503 096a 6A       		.sleb128 -22
 5504 096b 00       		.byte	0
 5505 096c 15       		.uleb128 0x15
 5506 096d 66070000 		.4byte	.LASF154
 5507 0971 01       		.byte	0x1
 5508 0972 6601     		.2byte	0x166
 5509 0974 35010000 		.4byte	0x135
 5510 0978 00000000 		.4byte	.LFB5
 5511 097c 96000000 		.4byte	.LFE5-.LFB5
 5512 0980 01       		.uleb128 0x1
 5513 0981 9C       		.byte	0x9c
 5514 0982 C3090000 		.4byte	0x9c3
 5515 0986 16       		.uleb128 0x16
 5516 0987 44657600 		.ascii	"Dev\000"
 5517 098b 01       		.byte	0x1
 5518 098c 6601     		.2byte	0x166
 5519 098e 83060000 		.4byte	0x683
 5520 0992 02       		.uleb128 0x2
 5521 0993 91       		.byte	0x91
 5522 0994 5C       		.sleb128 -36
 5523 0995 18       		.uleb128 0x18
 5524 0996 A4010000 		.4byte	.LASF122
 5525 099a 01       		.byte	0x1
 5526 099b 6801     		.2byte	0x168
 5527 099d 35010000 		.4byte	0x135
 5528 09a1 02       		.uleb128 0x2
 5529 09a2 91       		.byte	0x91
 5530 09a3 6F       		.sleb128 -17
 5531 09a4 18       		.uleb128 0x18
 5532 09a5 310B0000 		.4byte	.LASF155
 5533 09a9 01       		.byte	0x1
 5534 09aa 6901     		.2byte	0x169
 5535 09ac D9000000 		.4byte	0xd9
 5536 09b0 02       		.uleb128 0x2
 5537 09b1 91       		.byte	0x91
 5538 09b2 68       		.sleb128 -24
 5539 09b3 18       		.uleb128 0x18
 5540 09b4 FD0C0000 		.4byte	.LASF156
 5541 09b8 01       		.byte	0x1
 5542 09b9 6A01     		.2byte	0x16a
 5543 09bb D9000000 		.4byte	0xd9
 5544 09bf 02       		.uleb128 0x2
 5545 09c0 91       		.byte	0x91
 5546 09c1 64       		.sleb128 -28
 5547 09c2 00       		.byte	0
 5548 09c3 19       		.uleb128 0x19
 5549 09c4 66100000 		.4byte	.LASF251
 5550 09c8 01       		.byte	0x1
 5551 09c9 8E01     		.2byte	0x18e
 5552 09cb 00000000 		.4byte	.LFB6
 5553 09cf D4000000 		.4byte	.LFE6-.LFB6
 5554 09d3 01       		.uleb128 0x1
 5555 09d4 9C       		.byte	0x9c
 5556 09d5 7F0A0000 		.4byte	0xa7f
 5557 09d9 17       		.uleb128 0x17
 5558 09da BC0C0000 		.4byte	.LASF157
 5559 09de 01       		.byte	0x1
ARM GAS  C:\Users\ilya\AppData\Local\Temp\ccWKU7si.s 			page 122


 5560 09df 8E01     		.2byte	0x18e
 5561 09e1 1D060000 		.4byte	0x61d
 5562 09e5 02       		.uleb128 0x2
 5563 09e6 91       		.byte	0x91
 5564 09e7 5C       		.sleb128 -36
 5565 09e8 17       		.uleb128 0x17
 5566 09e9 6C0A0000 		.4byte	.LASF158
 5567 09ed 01       		.byte	0x1
 5568 09ee 8E01     		.2byte	0x18e
 5569 09f0 E4000000 		.4byte	0xe4
 5570 09f4 02       		.uleb128 0x2
 5571 09f5 91       		.byte	0x91
 5572 09f6 58       		.sleb128 -40
 5573 09f7 17       		.uleb128 0x17
 5574 09f8 D30C0000 		.4byte	.LASF159
 5575 09fc 01       		.byte	0x1
 5576 09fd 8F01     		.2byte	0x18f
 5577 09ff E4000000 		.4byte	0xe4
 5578 0a03 02       		.uleb128 0x2
 5579 0a04 91       		.byte	0x91
 5580 0a05 54       		.sleb128 -44
 5581 0a06 17       		.uleb128 0x17
 5582 0a07 9F010000 		.4byte	.LASF160
 5583 0a0b 01       		.byte	0x1
 5584 0a0c 8F01     		.2byte	0x18f
 5585 0a0e 6D080000 		.4byte	0x86d
 5586 0a12 02       		.uleb128 0x2
 5587 0a13 91       		.byte	0x91
 5588 0a14 50       		.sleb128 -48
 5589 0a15 18       		.uleb128 0x18
 5590 0a16 FD050000 		.4byte	.LASF161
 5591 0a1a 01       		.byte	0x1
 5592 0a1b 9101     		.2byte	0x191
 5593 0a1d E4000000 		.4byte	0xe4
 5594 0a21 02       		.uleb128 0x2
 5595 0a22 91       		.byte	0x91
 5596 0a23 64       		.sleb128 -28
 5597 0a24 18       		.uleb128 0x18
 5598 0a25 B2050000 		.4byte	.LASF162
 5599 0a29 01       		.byte	0x1
 5600 0a2a 9201     		.2byte	0x192
 5601 0a2c E4000000 		.4byte	0xe4
 5602 0a30 02       		.uleb128 0x2
 5603 0a31 91       		.byte	0x91
 5604 0a32 60       		.sleb128 -32
 5605 0a33 18       		.uleb128 0x18
 5606 0a34 EF050000 		.4byte	.LASF163
 5607 0a38 01       		.byte	0x1
 5608 0a39 9301     		.2byte	0x193
 5609 0a3b E4000000 		.4byte	0xe4
 5610 0a3f 02       		.uleb128 0x2
 5611 0a40 91       		.byte	0x91
 5612 0a41 68       		.sleb128 -24
 5613 0a42 18       		.uleb128 0x18
 5614 0a43 B60F0000 		.4byte	.LASF164
 5615 0a47 01       		.byte	0x1
 5616 0a48 9401     		.2byte	0x194
ARM GAS  C:\Users\ilya\AppData\Local\Temp\ccWKU7si.s 			page 123


 5617 0a4a E4000000 		.4byte	0xe4
 5618 0a4e 02       		.uleb128 0x2
 5619 0a4f 91       		.byte	0x91
 5620 0a50 74       		.sleb128 -12
 5621 0a51 18       		.uleb128 0x18
 5622 0a52 E5070000 		.4byte	.LASF165
 5623 0a56 01       		.byte	0x1
 5624 0a57 9501     		.2byte	0x195
 5625 0a59 E4000000 		.4byte	0xe4
 5626 0a5d 02       		.uleb128 0x2
 5627 0a5e 91       		.byte	0x91
 5628 0a5f 70       		.sleb128 -16
 5629 0a60 18       		.uleb128 0x18
 5630 0a61 A6000000 		.4byte	.LASF166
 5631 0a65 01       		.byte	0x1
 5632 0a66 9601     		.2byte	0x196
 5633 0a68 B8000000 		.4byte	0xb8
 5634 0a6c 02       		.uleb128 0x2
 5635 0a6d 91       		.byte	0x91
 5636 0a6e 6F       		.sleb128 -17
 5637 0a6f 18       		.uleb128 0x18
 5638 0a70 B40D0000 		.4byte	.LASF167
 5639 0a74 01       		.byte	0x1
 5640 0a75 9701     		.2byte	0x197
 5641 0a77 B8000000 		.4byte	0xb8
 5642 0a7b 02       		.uleb128 0x2
 5643 0a7c 91       		.byte	0x91
 5644 0a7d 6E       		.sleb128 -18
 5645 0a7e 00       		.byte	0
 5646 0a7f 1A       		.uleb128 0x1a
 5647 0a80 08060000 		.4byte	.LASF168
 5648 0a84 01       		.byte	0x1
 5649 0a85 BF01     		.2byte	0x1bf
 5650 0a87 B8000000 		.4byte	0xb8
 5651 0a8b 00000000 		.4byte	.LFB7
 5652 0a8f 3C000000 		.4byte	.LFE7-.LFB7
 5653 0a93 01       		.uleb128 0x1
 5654 0a94 9C       		.byte	0x9c
 5655 0a95 C70A0000 		.4byte	0xac7
 5656 0a99 17       		.uleb128 0x17
 5657 0a9a F60D0000 		.4byte	.LASF169
 5658 0a9e 01       		.byte	0x1
 5659 0a9f BF01     		.2byte	0x1bf
 5660 0aa1 E4000000 		.4byte	0xe4
 5661 0aa5 02       		.uleb128 0x2
 5662 0aa6 91       		.byte	0x91
 5663 0aa7 6C       		.sleb128 -20
 5664 0aa8 18       		.uleb128 0x18
 5665 0aa9 4C030000 		.4byte	.LASF170
 5666 0aad 01       		.byte	0x1
 5667 0aae C501     		.2byte	0x1c5
 5668 0ab0 E4000000 		.4byte	0xe4
 5669 0ab4 02       		.uleb128 0x2
 5670 0ab5 91       		.byte	0x91
 5671 0ab6 70       		.sleb128 -16
 5672 0ab7 18       		.uleb128 0x18
 5673 0ab8 9F090000 		.4byte	.LASF171
ARM GAS  C:\Users\ilya\AppData\Local\Temp\ccWKU7si.s 			page 124


 5674 0abc 01       		.byte	0x1
 5675 0abd C601     		.2byte	0x1c6
 5676 0abf B8000000 		.4byte	0xb8
 5677 0ac3 02       		.uleb128 0x2
 5678 0ac4 91       		.byte	0x91
 5679 0ac5 77       		.sleb128 -9
 5680 0ac6 00       		.byte	0
 5681 0ac7 15       		.uleb128 0x15
 5682 0ac8 A2050000 		.4byte	.LASF172
 5683 0acc 01       		.byte	0x1
 5684 0acd CF01     		.2byte	0x1cf
 5685 0acf 35010000 		.4byte	0x135
 5686 0ad3 00000000 		.4byte	.LFB8
 5687 0ad7 76000000 		.4byte	.LFE8-.LFB8
 5688 0adb 01       		.uleb128 0x1
 5689 0adc 9C       		.byte	0x9c
 5690 0add 4B0B0000 		.4byte	0xb4b
 5691 0ae1 17       		.uleb128 0x17
 5692 0ae2 30040000 		.4byte	.LASF173
 5693 0ae6 01       		.byte	0x1
 5694 0ae7 CF01     		.2byte	0x1cf
 5695 0ae9 1D060000 		.4byte	0x61d
 5696 0aed 02       		.uleb128 0x2
 5697 0aee 91       		.byte	0x91
 5698 0aef 64       		.sleb128 -28
 5699 0af0 17       		.uleb128 0x17
 5700 0af1 6C0A0000 		.4byte	.LASF158
 5701 0af5 01       		.byte	0x1
 5702 0af6 CF01     		.2byte	0x1cf
 5703 0af8 E4000000 		.4byte	0xe4
 5704 0afc 02       		.uleb128 0x2
 5705 0afd 91       		.byte	0x91
 5706 0afe 60       		.sleb128 -32
 5707 0aff 17       		.uleb128 0x17
 5708 0b00 F60D0000 		.4byte	.LASF169
 5709 0b04 01       		.byte	0x1
 5710 0b05 D001     		.2byte	0x1d0
 5711 0b07 E4000000 		.4byte	0xe4
 5712 0b0b 02       		.uleb128 0x2
 5713 0b0c 91       		.byte	0x91
 5714 0b0d 5C       		.sleb128 -36
 5715 0b0e 18       		.uleb128 0x18
 5716 0b0f D6080000 		.4byte	.LASF174
 5717 0b13 01       		.byte	0x1
 5718 0b14 D201     		.2byte	0x1d2
 5719 0b16 35010000 		.4byte	0x135
 5720 0b1a 02       		.uleb128 0x2
 5721 0b1b 91       		.byte	0x91
 5722 0b1c 77       		.sleb128 -9
 5723 0b1d 18       		.uleb128 0x18
 5724 0b1e EF050000 		.4byte	.LASF163
 5725 0b22 01       		.byte	0x1
 5726 0b23 D301     		.2byte	0x1d3
 5727 0b25 E4000000 		.4byte	0xe4
 5728 0b29 02       		.uleb128 0x2
 5729 0b2a 91       		.byte	0x91
 5730 0b2b 70       		.sleb128 -16
ARM GAS  C:\Users\ilya\AppData\Local\Temp\ccWKU7si.s 			page 125


 5731 0b2c 18       		.uleb128 0x18
 5732 0b2d B60F0000 		.4byte	.LASF164
 5733 0b31 01       		.byte	0x1
 5734 0b32 D401     		.2byte	0x1d4
 5735 0b34 E4000000 		.4byte	0xe4
 5736 0b38 02       		.uleb128 0x2
 5737 0b39 91       		.byte	0x91
 5738 0b3a 6C       		.sleb128 -20
 5739 0b3b 18       		.uleb128 0x18
 5740 0b3c E5070000 		.4byte	.LASF165
 5741 0b40 01       		.byte	0x1
 5742 0b41 D501     		.2byte	0x1d5
 5743 0b43 E4000000 		.4byte	0xe4
 5744 0b47 02       		.uleb128 0x2
 5745 0b48 91       		.byte	0x91
 5746 0b49 68       		.sleb128 -24
 5747 0b4a 00       		.byte	0
 5748 0b4b 15       		.uleb128 0x15
 5749 0b4c ED020000 		.4byte	.LASF175
 5750 0b50 01       		.byte	0x1
 5751 0b51 E101     		.2byte	0x1e1
 5752 0b53 35010000 		.4byte	0x135
 5753 0b57 00000000 		.4byte	.LFB9
 5754 0b5b 28010000 		.4byte	.LFE9-.LFB9
 5755 0b5f 01       		.uleb128 0x1
 5756 0b60 9C       		.byte	0x9c
 5757 0b61 290C0000 		.4byte	0xc29
 5758 0b65 17       		.uleb128 0x17
 5759 0b66 30040000 		.4byte	.LASF173
 5760 0b6a 01       		.byte	0x1
 5761 0b6b E101     		.2byte	0x1e1
 5762 0b6d 1D060000 		.4byte	0x61d
 5763 0b71 02       		.uleb128 0x2
 5764 0b72 91       		.byte	0x91
 5765 0b73 54       		.sleb128 -44
 5766 0b74 17       		.uleb128 0x17
 5767 0b75 86060000 		.4byte	.LASF176
 5768 0b79 01       		.byte	0x1
 5769 0b7a E201     		.2byte	0x1e2
 5770 0b7c E4000000 		.4byte	0xe4
 5771 0b80 02       		.uleb128 0x2
 5772 0b81 91       		.byte	0x91
 5773 0b82 50       		.sleb128 -48
 5774 0b83 17       		.uleb128 0x17
 5775 0b84 0C080000 		.4byte	.LASF177
 5776 0b88 01       		.byte	0x1
 5777 0b89 E201     		.2byte	0x1e2
 5778 0b8b E4000000 		.4byte	0xe4
 5779 0b8f 02       		.uleb128 0x2
 5780 0b90 91       		.byte	0x91
 5781 0b91 4C       		.sleb128 -52
 5782 0b92 17       		.uleb128 0x17
 5783 0b93 980E0000 		.4byte	.LASF178
 5784 0b97 01       		.byte	0x1
 5785 0b98 E301     		.2byte	0x1e3
 5786 0b9a 290C0000 		.4byte	0xc29
 5787 0b9e 02       		.uleb128 0x2
ARM GAS  C:\Users\ilya\AppData\Local\Temp\ccWKU7si.s 			page 126


 5788 0b9f 91       		.byte	0x91
 5789 0ba0 48       		.sleb128 -56
 5790 0ba1 17       		.uleb128 0x17
 5791 0ba2 D9030000 		.4byte	.LASF179
 5792 0ba6 01       		.byte	0x1
 5793 0ba7 E301     		.2byte	0x1e3
 5794 0ba9 1D060000 		.4byte	0x61d
 5795 0bad 02       		.uleb128 0x2
 5796 0bae 91       		.byte	0x91
 5797 0baf 00       		.sleb128 0
 5798 0bb0 18       		.uleb128 0x18
 5799 0bb1 D6080000 		.4byte	.LASF174
 5800 0bb5 01       		.byte	0x1
 5801 0bb6 E501     		.2byte	0x1e5
 5802 0bb8 35010000 		.4byte	0x135
 5803 0bbc 02       		.uleb128 0x2
 5804 0bbd 91       		.byte	0x91
 5805 0bbe 77       		.sleb128 -9
 5806 0bbf 18       		.uleb128 0x18
 5807 0bc0 EF050000 		.4byte	.LASF163
 5808 0bc4 01       		.byte	0x1
 5809 0bc5 E601     		.2byte	0x1e6
 5810 0bc7 E4000000 		.4byte	0xe4
 5811 0bcb 02       		.uleb128 0x2
 5812 0bcc 91       		.byte	0x91
 5813 0bcd 64       		.sleb128 -28
 5814 0bce 18       		.uleb128 0x18
 5815 0bcf CA0C0000 		.4byte	.LASF180
 5816 0bd3 01       		.byte	0x1
 5817 0bd4 E701     		.2byte	0x1e7
 5818 0bd6 E4000000 		.4byte	0xe4
 5819 0bda 02       		.uleb128 0x2
 5820 0bdb 91       		.byte	0x91
 5821 0bdc 60       		.sleb128 -32
 5822 0bdd 18       		.uleb128 0x18
 5823 0bde 00090000 		.4byte	.LASF181
 5824 0be2 01       		.byte	0x1
 5825 0be3 E801     		.2byte	0x1e8
 5826 0be5 E4000000 		.4byte	0xe4
 5827 0be9 02       		.uleb128 0x2
 5828 0bea 91       		.byte	0x91
 5829 0beb 5C       		.sleb128 -36
 5830 0bec 18       		.uleb128 0x18
 5831 0bed 90060000 		.4byte	.LASF182
 5832 0bf1 01       		.byte	0x1
 5833 0bf2 E901     		.2byte	0x1e9
 5834 0bf4 E4000000 		.4byte	0xe4
 5835 0bf8 02       		.uleb128 0x2
 5836 0bf9 91       		.byte	0x91
 5837 0bfa 70       		.sleb128 -16
 5838 0bfb 18       		.uleb128 0x18
 5839 0bfc DB050000 		.4byte	.LASF183
 5840 0c00 01       		.byte	0x1
 5841 0c01 EA01     		.2byte	0x1ea
 5842 0c03 E4000000 		.4byte	0xe4
 5843 0c07 02       		.uleb128 0x2
 5844 0c08 91       		.byte	0x91
ARM GAS  C:\Users\ilya\AppData\Local\Temp\ccWKU7si.s 			page 127


 5845 0c09 6C       		.sleb128 -20
 5846 0c0a 18       		.uleb128 0x18
 5847 0c0b 61000000 		.4byte	.LASF184
 5848 0c0f 01       		.byte	0x1
 5849 0c10 EB01     		.2byte	0x1eb
 5850 0c12 B8000000 		.4byte	0xb8
 5851 0c16 02       		.uleb128 0x2
 5852 0c17 91       		.byte	0x91
 5853 0c18 6B       		.sleb128 -21
 5854 0c19 18       		.uleb128 0x18
 5855 0c1a 8C090000 		.4byte	.LASF185
 5856 0c1e 01       		.byte	0x1
 5857 0c1f EC01     		.2byte	0x1ec
 5858 0c21 B8000000 		.4byte	0xb8
 5859 0c25 02       		.uleb128 0x2
 5860 0c26 91       		.byte	0x91
 5861 0c27 6A       		.sleb128 -22
 5862 0c28 00       		.byte	0
 5863 0c29 0E       		.uleb128 0xe
 5864 0c2a 04       		.byte	0x4
 5865 0c2b E4000000 		.4byte	0xe4
 5866 0c2f 15       		.uleb128 0x15
 5867 0c30 79100000 		.4byte	.LASF186
 5868 0c34 01       		.byte	0x1
 5869 0c35 1B02     		.2byte	0x21b
 5870 0c37 35010000 		.4byte	0x135
 5871 0c3b 00000000 		.4byte	.LFB10
 5872 0c3f 2E000000 		.4byte	.LFE10-.LFB10
 5873 0c43 01       		.uleb128 0x1
 5874 0c44 9C       		.byte	0x9c
 5875 0c45 770C0000 		.4byte	0xc77
 5876 0c49 16       		.uleb128 0x16
 5877 0c4a 44657600 		.ascii	"Dev\000"
 5878 0c4e 01       		.byte	0x1
 5879 0c4f 1B02     		.2byte	0x21b
 5880 0c51 83060000 		.4byte	0x683
 5881 0c55 02       		.uleb128 0x2
 5882 0c56 91       		.byte	0x91
 5883 0c57 64       		.sleb128 -28
 5884 0c58 17       		.uleb128 0x17
 5885 0c59 710A0000 		.4byte	.LASF187
 5886 0c5d 01       		.byte	0x1
 5887 0c5e 1B02     		.2byte	0x21b
 5888 0c60 1D060000 		.4byte	0x61d
 5889 0c64 02       		.uleb128 0x2
 5890 0c65 91       		.byte	0x91
 5891 0c66 60       		.sleb128 -32
 5892 0c67 18       		.uleb128 0x18
 5893 0c68 D6080000 		.4byte	.LASF174
 5894 0c6c 01       		.byte	0x1
 5895 0c6d 1D02     		.2byte	0x21d
 5896 0c6f 35010000 		.4byte	0x135
 5897 0c73 02       		.uleb128 0x2
 5898 0c74 91       		.byte	0x91
 5899 0c75 6F       		.sleb128 -17
 5900 0c76 00       		.byte	0
 5901 0c77 15       		.uleb128 0x15
ARM GAS  C:\Users\ilya\AppData\Local\Temp\ccWKU7si.s 			page 128


 5902 0c78 310A0000 		.4byte	.LASF188
 5903 0c7c 01       		.byte	0x1
 5904 0c7d 2302     		.2byte	0x223
 5905 0c7f 35010000 		.4byte	0x135
 5906 0c83 00000000 		.4byte	.LFB11
 5907 0c87 2E000000 		.4byte	.LFE11-.LFB11
 5908 0c8b 01       		.uleb128 0x1
 5909 0c8c 9C       		.byte	0x9c
 5910 0c8d BF0C0000 		.4byte	0xcbf
 5911 0c91 16       		.uleb128 0x16
 5912 0c92 44657600 		.ascii	"Dev\000"
 5913 0c96 01       		.byte	0x1
 5914 0c97 2302     		.2byte	0x223
 5915 0c99 83060000 		.4byte	0x683
 5916 0c9d 02       		.uleb128 0x2
 5917 0c9e 91       		.byte	0x91
 5918 0c9f 64       		.sleb128 -28
 5919 0ca0 17       		.uleb128 0x17
 5920 0ca1 710A0000 		.4byte	.LASF187
 5921 0ca5 01       		.byte	0x1
 5922 0ca6 2302     		.2byte	0x223
 5923 0ca8 1D060000 		.4byte	0x61d
 5924 0cac 02       		.uleb128 0x2
 5925 0cad 91       		.byte	0x91
 5926 0cae 60       		.sleb128 -32
 5927 0caf 18       		.uleb128 0x18
 5928 0cb0 D6080000 		.4byte	.LASF174
 5929 0cb4 01       		.byte	0x1
 5930 0cb5 2502     		.2byte	0x225
 5931 0cb7 35010000 		.4byte	0x135
 5932 0cbb 02       		.uleb128 0x2
 5933 0cbc 91       		.byte	0x91
 5934 0cbd 6F       		.sleb128 -17
 5935 0cbe 00       		.byte	0
 5936 0cbf 15       		.uleb128 0x15
 5937 0cc0 A10C0000 		.4byte	.LASF189
 5938 0cc4 01       		.byte	0x1
 5939 0cc5 2C02     		.2byte	0x22c
 5940 0cc7 35010000 		.4byte	0x135
 5941 0ccb 00000000 		.4byte	.LFB12
 5942 0ccf 1E010000 		.4byte	.LFE12-.LFB12
 5943 0cd3 01       		.uleb128 0x1
 5944 0cd4 9C       		.byte	0x9c
 5945 0cd5 B90D0000 		.4byte	0xdb9
 5946 0cd9 16       		.uleb128 0x16
 5947 0cda 44657600 		.ascii	"Dev\000"
 5948 0cde 01       		.byte	0x1
 5949 0cdf 2C02     		.2byte	0x22c
 5950 0ce1 83060000 		.4byte	0x683
 5951 0ce5 02       		.uleb128 0x2
 5952 0ce6 91       		.byte	0x91
 5953 0ce7 4C       		.sleb128 -52
 5954 0ce8 17       		.uleb128 0x17
 5955 0ce9 8F080000 		.4byte	.LASF190
 5956 0ced 01       		.byte	0x1
 5957 0cee 2D02     		.2byte	0x22d
 5958 0cf0 B8000000 		.4byte	0xb8
ARM GAS  C:\Users\ilya\AppData\Local\Temp\ccWKU7si.s 			page 129


 5959 0cf4 02       		.uleb128 0x2
 5960 0cf5 91       		.byte	0x91
 5961 0cf6 4B       		.sleb128 -53
 5962 0cf7 17       		.uleb128 0x17
 5963 0cf8 BC0C0000 		.4byte	.LASF157
 5964 0cfc 01       		.byte	0x1
 5965 0cfd 2E02     		.2byte	0x22e
 5966 0cff 1D060000 		.4byte	0x61d
 5967 0d03 02       		.uleb128 0x2
 5968 0d04 91       		.byte	0x91
 5969 0d05 44       		.sleb128 -60
 5970 0d06 17       		.uleb128 0x17
 5971 0d07 30040000 		.4byte	.LASF173
 5972 0d0b 01       		.byte	0x1
 5973 0d0c 2F02     		.2byte	0x22f
 5974 0d0e 1D060000 		.4byte	0x61d
 5975 0d12 02       		.uleb128 0x2
 5976 0d13 91       		.byte	0x91
 5977 0d14 40       		.sleb128 -64
 5978 0d15 17       		.uleb128 0x17
 5979 0d16 6C0A0000 		.4byte	.LASF158
 5980 0d1a 01       		.byte	0x1
 5981 0d1b 3002     		.2byte	0x230
 5982 0d1d E4000000 		.4byte	0xe4
 5983 0d21 02       		.uleb128 0x2
 5984 0d22 91       		.byte	0x91
 5985 0d23 00       		.sleb128 0
 5986 0d24 17       		.uleb128 0x17
 5987 0d25 2B0B0000 		.4byte	.LASF191
 5988 0d29 01       		.byte	0x1
 5989 0d2a 3102     		.2byte	0x231
 5990 0d2c E4000000 		.4byte	0xe4
 5991 0d30 02       		.uleb128 0x2
 5992 0d31 91       		.byte	0x91
 5993 0d32 04       		.sleb128 4
 5994 0d33 17       		.uleb128 0x17
 5995 0d34 A3060000 		.4byte	.LASF192
 5996 0d38 01       		.byte	0x1
 5997 0d39 3202     		.2byte	0x232
 5998 0d3b E4000000 		.4byte	0xe4
 5999 0d3f 02       		.uleb128 0x2
 6000 0d40 91       		.byte	0x91
 6001 0d41 08       		.sleb128 8
 6002 0d42 17       		.uleb128 0x17
 6003 0d43 03110000 		.4byte	.LASF193
 6004 0d47 01       		.byte	0x1
 6005 0d48 3302     		.2byte	0x233
 6006 0d4a E4000000 		.4byte	0xe4
 6007 0d4e 02       		.uleb128 0x2
 6008 0d4f 91       		.byte	0x91
 6009 0d50 0C       		.sleb128 12
 6010 0d51 17       		.uleb128 0x17
 6011 0d52 AD0F0000 		.4byte	.LASF194
 6012 0d56 01       		.byte	0x1
 6013 0d57 3402     		.2byte	0x234
 6014 0d59 290C0000 		.4byte	0xc29
 6015 0d5d 02       		.uleb128 0x2
ARM GAS  C:\Users\ilya\AppData\Local\Temp\ccWKU7si.s 			page 130


 6016 0d5e 91       		.byte	0x91
 6017 0d5f 10       		.sleb128 16
 6018 0d60 18       		.uleb128 0x18
 6019 0d61 D6080000 		.4byte	.LASF174
 6020 0d65 01       		.byte	0x1
 6021 0d66 3602     		.2byte	0x236
 6022 0d68 35010000 		.4byte	0x135
 6023 0d6c 02       		.uleb128 0x2
 6024 0d6d 91       		.byte	0x91
 6025 0d6e 6F       		.sleb128 -17
 6026 0d6f 18       		.uleb128 0x18
 6027 0d70 EC040000 		.4byte	.LASF195
 6028 0d74 01       		.byte	0x1
 6029 0d75 3702     		.2byte	0x237
 6030 0d77 E4000000 		.4byte	0xe4
 6031 0d7b 02       		.uleb128 0x2
 6032 0d7c 91       		.byte	0x91
 6033 0d7d 68       		.sleb128 -24
 6034 0d7e 1B       		.uleb128 0x1b
 6035 0d7f 6900     		.ascii	"i\000"
 6036 0d81 01       		.byte	0x1
 6037 0d82 3802     		.2byte	0x238
 6038 0d84 E4000000 		.4byte	0xe4
 6039 0d88 02       		.uleb128 0x2
 6040 0d89 91       		.byte	0x91
 6041 0d8a 64       		.sleb128 -28
 6042 0d8b 18       		.uleb128 0x18
 6043 0d8c 8B0E0000 		.4byte	.LASF196
 6044 0d90 01       		.byte	0x1
 6045 0d91 3902     		.2byte	0x239
 6046 0d93 D9000000 		.4byte	0xd9
 6047 0d97 02       		.uleb128 0x2
 6048 0d98 91       		.byte	0x91
 6049 0d99 5C       		.sleb128 -36
 6050 0d9a 18       		.uleb128 0x18
 6051 0d9b 240E0000 		.4byte	.LASF197
 6052 0d9f 01       		.byte	0x1
 6053 0da0 3A02     		.2byte	0x23a
 6054 0da2 E4000000 		.4byte	0xe4
 6055 0da6 02       		.uleb128 0x2
 6056 0da7 91       		.byte	0x91
 6057 0da8 60       		.sleb128 -32
 6058 0da9 18       		.uleb128 0x18
 6059 0daa 7C0E0000 		.4byte	.LASF198
 6060 0dae 01       		.byte	0x1
 6061 0daf 3B02     		.2byte	0x23b
 6062 0db1 FD010000 		.4byte	0x1fd
 6063 0db5 02       		.uleb128 0x2
 6064 0db6 91       		.byte	0x91
 6065 0db7 54       		.sleb128 -44
 6066 0db8 00       		.byte	0
 6067 0db9 15       		.uleb128 0x15
 6068 0dba 55030000 		.4byte	.LASF199
 6069 0dbe 01       		.byte	0x1
 6070 0dbf 7502     		.2byte	0x275
 6071 0dc1 35010000 		.4byte	0x135
 6072 0dc5 00000000 		.4byte	.LFB13
ARM GAS  C:\Users\ilya\AppData\Local\Temp\ccWKU7si.s 			page 131


 6073 0dc9 18010000 		.4byte	.LFE13-.LFB13
 6074 0dcd 01       		.uleb128 0x1
 6075 0dce 9C       		.byte	0x9c
 6076 0dcf 1F0E0000 		.4byte	0xe1f
 6077 0dd3 16       		.uleb128 0x16
 6078 0dd4 44657600 		.ascii	"Dev\000"
 6079 0dd8 01       		.byte	0x1
 6080 0dd9 7502     		.2byte	0x275
 6081 0ddb 83060000 		.4byte	0x683
 6082 0ddf 02       		.uleb128 0x2
 6083 0de0 91       		.byte	0x91
 6084 0de1 4C       		.sleb128 -52
 6085 0de2 17       		.uleb128 0x17
 6086 0de3 4C0B0000 		.4byte	.LASF200
 6087 0de7 01       		.byte	0x1
 6088 0de8 7602     		.2byte	0x276
 6089 0dea 1F0E0000 		.4byte	0xe1f
 6090 0dee 02       		.uleb128 0x2
 6091 0def 91       		.byte	0x91
 6092 0df0 48       		.sleb128 -56
 6093 0df1 18       		.uleb128 0x18
 6094 0df2 D6080000 		.4byte	.LASF174
 6095 0df6 01       		.byte	0x1
 6096 0df7 7802     		.2byte	0x278
 6097 0df9 35010000 		.4byte	0x135
 6098 0dfd 02       		.uleb128 0x2
 6099 0dfe 91       		.byte	0x91
 6100 0dff 6F       		.sleb128 -17
 6101 0e00 18       		.uleb128 0x18
 6102 0e01 BD100000 		.4byte	.LASF201
 6103 0e05 01       		.byte	0x1
 6104 0e06 7902     		.2byte	0x279
 6105 0e08 F1020000 		.4byte	0x2f1
 6106 0e0c 02       		.uleb128 0x2
 6107 0e0d 91       		.byte	0x91
 6108 0e0e 50       		.sleb128 -48
 6109 0e0f 18       		.uleb128 0x18
 6110 0e10 670C0000 		.4byte	.LASF98
 6111 0e14 01       		.byte	0x1
 6112 0e15 7B02     		.2byte	0x27b
 6113 0e17 B8000000 		.4byte	0xb8
 6114 0e1b 02       		.uleb128 0x2
 6115 0e1c 91       		.byte	0x91
 6116 0e1d 6E       		.sleb128 -18
 6117 0e1e 00       		.byte	0
 6118 0e1f 0E       		.uleb128 0xe
 6119 0e20 04       		.byte	0x4
 6120 0e21 CE000000 		.4byte	0xce
 6121 0e25 15       		.uleb128 0x15
 6122 0e26 5A0B0000 		.4byte	.LASF202
 6123 0e2a 01       		.byte	0x1
 6124 0e2b A402     		.2byte	0x2a4
 6125 0e2d 35010000 		.4byte	0x135
 6126 0e31 00000000 		.4byte	.LFB14
 6127 0e35 18050000 		.4byte	.LFE14-.LFB14
 6128 0e39 01       		.uleb128 0x1
 6129 0e3a 9C       		.byte	0x9c
ARM GAS  C:\Users\ilya\AppData\Local\Temp\ccWKU7si.s 			page 132


 6130 0e3b A50F0000 		.4byte	0xfa5
 6131 0e3f 16       		.uleb128 0x16
 6132 0e40 44657600 		.ascii	"Dev\000"
 6133 0e44 01       		.byte	0x1
 6134 0e45 A402     		.2byte	0x2a4
 6135 0e47 83060000 		.4byte	0x683
 6136 0e4b 03       		.uleb128 0x3
 6137 0e4c 91       		.byte	0x91
 6138 0e4d 9C7F     		.sleb128 -100
 6139 0e4f 17       		.uleb128 0x17
 6140 0e50 9D080000 		.4byte	.LASF203
 6141 0e54 01       		.byte	0x1
 6142 0e55 A502     		.2byte	0x2a5
 6143 0e57 290C0000 		.4byte	0xc29
 6144 0e5b 03       		.uleb128 0x3
 6145 0e5c 91       		.byte	0x91
 6146 0e5d 987F     		.sleb128 -104
 6147 0e5f 17       		.uleb128 0x17
 6148 0e60 C30B0000 		.4byte	.LASF204
 6149 0e64 01       		.byte	0x1
 6150 0e65 A602     		.2byte	0x2a6
 6151 0e67 1D060000 		.4byte	0x61d
 6152 0e6b 03       		.uleb128 0x3
 6153 0e6c 91       		.byte	0x91
 6154 0e6d 947F     		.sleb128 -108
 6155 0e6f 18       		.uleb128 0x18
 6156 0e70 A4010000 		.4byte	.LASF122
 6157 0e74 01       		.byte	0x1
 6158 0e75 A802     		.2byte	0x2a8
 6159 0e77 35010000 		.4byte	0x135
 6160 0e7b 02       		.uleb128 0x2
 6161 0e7c 91       		.byte	0x91
 6162 0e7d 67       		.sleb128 -25
 6163 0e7e 18       		.uleb128 0x18
 6164 0e7f BD050000 		.4byte	.LASF205
 6165 0e83 01       		.byte	0x1
 6166 0e84 A902     		.2byte	0x2a9
 6167 0e86 FD010000 		.4byte	0x1fd
 6168 0e8a 03       		.uleb128 0x3
 6169 0e8b 91       		.byte	0x91
 6170 0e8c AC7F     		.sleb128 -84
 6171 0e8e 18       		.uleb128 0x18
 6172 0e8f 23060000 		.4byte	.LASF206
 6173 0e93 01       		.byte	0x1
 6174 0e94 AA02     		.2byte	0x2aa
 6175 0e96 B8000000 		.4byte	0xb8
 6176 0e9a 02       		.uleb128 0x2
 6177 0e9b 91       		.byte	0x91
 6178 0e9c 4A       		.sleb128 -54
 6179 0e9d 18       		.uleb128 0x18
 6180 0e9e A2030000 		.4byte	.LASF207
 6181 0ea2 01       		.byte	0x1
 6182 0ea3 AB02     		.2byte	0x2ab
 6183 0ea5 E4000000 		.4byte	0xe4
 6184 0ea9 02       		.uleb128 0x2
 6185 0eaa 91       		.byte	0x91
 6186 0eab 44       		.sleb128 -60
ARM GAS  C:\Users\ilya\AppData\Local\Temp\ccWKU7si.s 			page 133


 6187 0eac 18       		.uleb128 0x18
 6188 0ead 890C0000 		.4byte	.LASF208
 6189 0eb1 01       		.byte	0x1
 6190 0eb2 AC02     		.2byte	0x2ac
 6191 0eb4 E4000000 		.4byte	0xe4
 6192 0eb8 02       		.uleb128 0x2
 6193 0eb9 91       		.byte	0x91
 6194 0eba 40       		.sleb128 -64
 6195 0ebb 18       		.uleb128 0x18
 6196 0ebc 39010000 		.4byte	.LASF209
 6197 0ec0 01       		.byte	0x1
 6198 0ec1 AD02     		.2byte	0x2ad
 6199 0ec3 E4000000 		.4byte	0xe4
 6200 0ec7 02       		.uleb128 0x2
 6201 0ec8 91       		.byte	0x91
 6202 0ec9 60       		.sleb128 -32
 6203 0eca 18       		.uleb128 0x18
 6204 0ecb 7C0F0000 		.4byte	.LASF210
 6205 0ecf 01       		.byte	0x1
 6206 0ed0 AE02     		.2byte	0x2ae
 6207 0ed2 E4000000 		.4byte	0xe4
 6208 0ed6 03       		.uleb128 0x3
 6209 0ed7 91       		.byte	0x91
 6210 0ed8 A87F     		.sleb128 -88
 6211 0eda 18       		.uleb128 0x18
 6212 0edb 8B0E0000 		.4byte	.LASF196
 6213 0edf 01       		.byte	0x1
 6214 0ee0 AF02     		.2byte	0x2af
 6215 0ee2 D9000000 		.4byte	0xd9
 6216 0ee6 03       		.uleb128 0x3
 6217 0ee7 91       		.byte	0x91
 6218 0ee8 A47F     		.sleb128 -92
 6219 0eea 18       		.uleb128 0x18
 6220 0eeb 06050000 		.4byte	.LASF103
 6221 0eef 01       		.byte	0x1
 6222 0ef0 B002     		.2byte	0x2b0
 6223 0ef2 CE000000 		.4byte	0xce
 6224 0ef6 03       		.uleb128 0x3
 6225 0ef7 91       		.byte	0x91
 6226 0ef8 BE7F     		.sleb128 -66
 6227 0efa 18       		.uleb128 0x18
 6228 0efb 420F0000 		.4byte	.LASF211
 6229 0eff 01       		.byte	0x1
 6230 0f00 B102     		.2byte	0x2b1
 6231 0f02 CE000000 		.4byte	0xce
 6232 0f06 03       		.uleb128 0x3
 6233 0f07 91       		.byte	0x91
 6234 0f08 A27F     		.sleb128 -94
 6235 0f0a 18       		.uleb128 0x18
 6236 0f0b 01030000 		.4byte	.LASF212
 6237 0f0f 01       		.byte	0x1
 6238 0f10 B202     		.2byte	0x2b2
 6239 0f12 E4000000 		.4byte	0xe4
 6240 0f16 02       		.uleb128 0x2
 6241 0f17 91       		.byte	0x91
 6242 0f18 5C       		.sleb128 -36
 6243 0f19 18       		.uleb128 0x18
ARM GAS  C:\Users\ilya\AppData\Local\Temp\ccWKU7si.s 			page 134


 6244 0f1a EC040000 		.4byte	.LASF195
 6245 0f1e 01       		.byte	0x1
 6246 0f1f B302     		.2byte	0x2b3
 6247 0f21 E4000000 		.4byte	0xe4
 6248 0f25 02       		.uleb128 0x2
 6249 0f26 91       		.byte	0x91
 6250 0f27 58       		.sleb128 -40
 6251 0f28 18       		.uleb128 0x18
 6252 0f29 3E030000 		.4byte	.LASF213
 6253 0f2d 01       		.byte	0x1
 6254 0f2e B402     		.2byte	0x2b4
 6255 0f30 E4000000 		.4byte	0xe4
 6256 0f34 03       		.uleb128 0x3
 6257 0f35 91       		.byte	0x91
 6258 0f36 B87F     		.sleb128 -72
 6259 0f38 18       		.uleb128 0x18
 6260 0f39 330F0000 		.4byte	.LASF214
 6261 0f3d 01       		.byte	0x1
 6262 0f3e B502     		.2byte	0x2b5
 6263 0f40 E4000000 		.4byte	0xe4
 6264 0f44 03       		.uleb128 0x3
 6265 0f45 91       		.byte	0x91
 6266 0f46 B47F     		.sleb128 -76
 6267 0f48 18       		.uleb128 0x18
 6268 0f49 760C0000 		.4byte	.LASF215
 6269 0f4d 01       		.byte	0x1
 6270 0f4e B602     		.2byte	0x2b6
 6271 0f50 E4000000 		.4byte	0xe4
 6272 0f54 02       		.uleb128 0x2
 6273 0f55 91       		.byte	0x91
 6274 0f56 54       		.sleb128 -44
 6275 0f57 18       		.uleb128 0x18
 6276 0f58 9D070000 		.4byte	.LASF216
 6277 0f5c 01       		.byte	0x1
 6278 0f5d B702     		.2byte	0x2b7
 6279 0f5f B8000000 		.4byte	0xb8
 6280 0f63 02       		.uleb128 0x2
 6281 0f64 91       		.byte	0x91
 6282 0f65 53       		.sleb128 -45
 6283 0f66 18       		.uleb128 0x18
 6284 0f67 7E0D0000 		.4byte	.LASF217
 6285 0f6b 01       		.byte	0x1
 6286 0f6c B802     		.2byte	0x2b8
 6287 0f6e B8000000 		.4byte	0xb8
 6288 0f72 03       		.uleb128 0x3
 6289 0f73 91       		.byte	0x91
 6290 0f74 A17F     		.sleb128 -95
 6291 0f76 18       		.uleb128 0x18
 6292 0f77 F7080000 		.4byte	.LASF218
 6293 0f7b 01       		.byte	0x1
 6294 0f7c B902     		.2byte	0x2b9
 6295 0f7e B8000000 		.4byte	0xb8
 6296 0f82 03       		.uleb128 0x3
 6297 0f83 91       		.byte	0x91
 6298 0f84 A07F     		.sleb128 -96
 6299 0f86 18       		.uleb128 0x18
 6300 0f87 73080000 		.4byte	.LASF219
ARM GAS  C:\Users\ilya\AppData\Local\Temp\ccWKU7si.s 			page 135


 6301 0f8b 01       		.byte	0x1
 6302 0f8c BA02     		.2byte	0x2ba
 6303 0f8e E4000000 		.4byte	0xe4
 6304 0f92 02       		.uleb128 0x2
 6305 0f93 91       		.byte	0x91
 6306 0f94 4C       		.sleb128 -52
 6307 0f95 18       		.uleb128 0x18
 6308 0f96 680F0000 		.4byte	.LASF220
 6309 0f9a 01       		.byte	0x1
 6310 0f9b BB02     		.2byte	0x2bb
 6311 0f9d B8000000 		.4byte	0xb8
 6312 0fa1 02       		.uleb128 0x2
 6313 0fa2 91       		.byte	0x91
 6314 0fa3 4B       		.sleb128 -53
 6315 0fa4 00       		.byte	0
 6316 0fa5 15       		.uleb128 0x15
 6317 0fa6 30050000 		.4byte	.LASF221
 6318 0faa 01       		.byte	0x1
 6319 0fab AF03     		.2byte	0x3af
 6320 0fad 35010000 		.4byte	0x135
 6321 0fb1 00000000 		.4byte	.LFB15
 6322 0fb5 90010000 		.4byte	.LFE15-.LFB15
 6323 0fb9 01       		.uleb128 0x1
 6324 0fba 9C       		.byte	0x9c
 6325 0fbb 57100000 		.4byte	0x1057
 6326 0fbf 16       		.uleb128 0x16
 6327 0fc0 44657600 		.ascii	"Dev\000"
 6328 0fc4 01       		.byte	0x1
 6329 0fc5 AF03     		.2byte	0x3af
 6330 0fc7 83060000 		.4byte	0x683
 6331 0fcb 02       		.uleb128 0x2
 6332 0fcc 91       		.byte	0x91
 6333 0fcd 44       		.sleb128 -60
 6334 0fce 17       		.uleb128 0x17
 6335 0fcf E6040000 		.4byte	.LASF222
 6336 0fd3 01       		.byte	0x1
 6337 0fd4 B003     		.2byte	0x3b0
 6338 0fd6 E4000000 		.4byte	0xe4
 6339 0fda 02       		.uleb128 0x2
 6340 0fdb 91       		.byte	0x91
 6341 0fdc 40       		.sleb128 -64
 6342 0fdd 17       		.uleb128 0x17
 6343 0fde C30B0000 		.4byte	.LASF204
 6344 0fe2 01       		.byte	0x1
 6345 0fe3 B003     		.2byte	0x3b0
 6346 0fe5 B8000000 		.4byte	0xb8
 6347 0fe9 03       		.uleb128 0x3
 6348 0fea 91       		.byte	0x91
 6349 0feb BF7F     		.sleb128 -65
 6350 0fed 18       		.uleb128 0x18
 6351 0fee A4010000 		.4byte	.LASF122
 6352 0ff2 01       		.byte	0x1
 6353 0ff3 B203     		.2byte	0x3b2
 6354 0ff5 35010000 		.4byte	0x135
 6355 0ff9 02       		.uleb128 0x2
 6356 0ffa 91       		.byte	0x91
 6357 0ffb 67       		.sleb128 -25
ARM GAS  C:\Users\ilya\AppData\Local\Temp\ccWKU7si.s 			page 136


 6358 0ffc 18       		.uleb128 0x18
 6359 0ffd 39010000 		.4byte	.LASF209
 6360 1001 01       		.byte	0x1
 6361 1002 B303     		.2byte	0x3b3
 6362 1004 E4000000 		.4byte	0xe4
 6363 1008 02       		.uleb128 0x2
 6364 1009 91       		.byte	0x91
 6365 100a 60       		.sleb128 -32
 6366 100b 18       		.uleb128 0x18
 6367 100c 23060000 		.4byte	.LASF206
 6368 1010 01       		.byte	0x1
 6369 1011 B403     		.2byte	0x3b4
 6370 1013 B8000000 		.4byte	0xb8
 6371 1017 02       		.uleb128 0x2
 6372 1018 91       		.byte	0x91
 6373 1019 5B       		.sleb128 -37
 6374 101a 18       		.uleb128 0x18
 6375 101b 3E030000 		.4byte	.LASF213
 6376 101f 01       		.byte	0x1
 6377 1020 B503     		.2byte	0x3b5
 6378 1022 E4000000 		.4byte	0xe4
 6379 1026 02       		.uleb128 0x2
 6380 1027 91       		.byte	0x91
 6381 1028 54       		.sleb128 -44
 6382 1029 18       		.uleb128 0x18
 6383 102a 890C0000 		.4byte	.LASF208
 6384 102e 01       		.byte	0x1
 6385 102f B603     		.2byte	0x3b6
 6386 1031 E4000000 		.4byte	0xe4
 6387 1035 02       		.uleb128 0x2
 6388 1036 91       		.byte	0x91
 6389 1037 50       		.sleb128 -48
 6390 1038 18       		.uleb128 0x18
 6391 1039 7C0F0000 		.4byte	.LASF210
 6392 103d 01       		.byte	0x1
 6393 103e B703     		.2byte	0x3b7
 6394 1040 E4000000 		.4byte	0xe4
 6395 1044 02       		.uleb128 0x2
 6396 1045 91       		.byte	0x91
 6397 1046 4C       		.sleb128 -52
 6398 1047 18       		.uleb128 0x18
 6399 1048 EC040000 		.4byte	.LASF195
 6400 104c 01       		.byte	0x1
 6401 104d B803     		.2byte	0x3b8
 6402 104f E4000000 		.4byte	0xe4
 6403 1053 02       		.uleb128 0x2
 6404 1054 91       		.byte	0x91
 6405 1055 5C       		.sleb128 -36
 6406 1056 00       		.byte	0
 6407 1057 15       		.uleb128 0x15
 6408 1058 E7100000 		.4byte	.LASF223
 6409 105c 01       		.byte	0x1
 6410 105d F203     		.2byte	0x3f2
 6411 105f 35010000 		.4byte	0x135
 6412 1063 00000000 		.4byte	.LFB16
 6413 1067 EA000000 		.4byte	.LFE16-.LFB16
 6414 106b 01       		.uleb128 0x1
ARM GAS  C:\Users\ilya\AppData\Local\Temp\ccWKU7si.s 			page 137


 6415 106c 9C       		.byte	0x9c
 6416 106d 08110000 		.4byte	0x1108
 6417 1071 16       		.uleb128 0x16
 6418 1072 44657600 		.ascii	"Dev\000"
 6419 1076 01       		.byte	0x1
 6420 1077 F203     		.2byte	0x3f2
 6421 1079 83060000 		.4byte	0x683
 6422 107d 02       		.uleb128 0x2
 6423 107e 91       		.byte	0x91
 6424 107f 4C       		.sleb128 -52
 6425 1080 17       		.uleb128 0x17
 6426 1081 5B070000 		.4byte	.LASF224
 6427 1085 01       		.byte	0x1
 6428 1086 F303     		.2byte	0x3f3
 6429 1088 290C0000 		.4byte	0xc29
 6430 108c 02       		.uleb128 0x2
 6431 108d 91       		.byte	0x91
 6432 108e 48       		.sleb128 -56
 6433 108f 17       		.uleb128 0x17
 6434 1090 C7070000 		.4byte	.LASF225
 6435 1094 01       		.byte	0x1
 6436 1095 F303     		.2byte	0x3f3
 6437 1097 1D060000 		.4byte	0x61d
 6438 109b 02       		.uleb128 0x2
 6439 109c 91       		.byte	0x91
 6440 109d 44       		.sleb128 -60
 6441 109e 18       		.uleb128 0x18
 6442 109f A4010000 		.4byte	.LASF122
 6443 10a3 01       		.byte	0x1
 6444 10a4 F503     		.2byte	0x3f5
 6445 10a6 35010000 		.4byte	0x135
 6446 10aa 02       		.uleb128 0x2
 6447 10ab 91       		.byte	0x91
 6448 10ac 6F       		.sleb128 -17
 6449 10ad 18       		.uleb128 0x18
 6450 10ae 540F0000 		.4byte	.LASF226
 6451 10b2 01       		.byte	0x1
 6452 10b3 F603     		.2byte	0x3f6
 6453 10b5 B8000000 		.4byte	0xb8
 6454 10b9 02       		.uleb128 0x2
 6455 10ba 91       		.byte	0x91
 6456 10bb 63       		.sleb128 -29
 6457 10bc 18       		.uleb128 0x18
 6458 10bd 710A0000 		.4byte	.LASF187
 6459 10c1 01       		.byte	0x1
 6460 10c2 F703     		.2byte	0x3f7
 6461 10c4 FD010000 		.4byte	0x1fd
 6462 10c8 02       		.uleb128 0x2
 6463 10c9 91       		.byte	0x91
 6464 10ca 5C       		.sleb128 -36
 6465 10cb 18       		.uleb128 0x18
 6466 10cc 560D0000 		.4byte	.LASF227
 6467 10d0 01       		.byte	0x1
 6468 10d1 F803     		.2byte	0x3f8
 6469 10d3 E4000000 		.4byte	0xe4
 6470 10d7 02       		.uleb128 0x2
 6471 10d8 91       		.byte	0x91
ARM GAS  C:\Users\ilya\AppData\Local\Temp\ccWKU7si.s 			page 138


 6472 10d9 68       		.sleb128 -24
 6473 10da 18       		.uleb128 0x18
 6474 10db B40B0000 		.4byte	.LASF228
 6475 10df 01       		.byte	0x1
 6476 10e0 F903     		.2byte	0x3f9
 6477 10e2 E4000000 		.4byte	0xe4
 6478 10e6 02       		.uleb128 0x2
 6479 10e7 91       		.byte	0x91
 6480 10e8 64       		.sleb128 -28
 6481 10e9 18       		.uleb128 0x18
 6482 10ea CE0F0000 		.4byte	.LASF229
 6483 10ee 01       		.byte	0x1
 6484 10ef FA03     		.2byte	0x3fa
 6485 10f1 E4000000 		.4byte	0xe4
 6486 10f5 02       		.uleb128 0x2
 6487 10f6 91       		.byte	0x91
 6488 10f7 58       		.sleb128 -40
 6489 10f8 18       		.uleb128 0x18
 6490 10f9 C30B0000 		.4byte	.LASF204
 6491 10fd 01       		.byte	0x1
 6492 10fe FB03     		.2byte	0x3fb
 6493 1100 B8000000 		.4byte	0xb8
 6494 1104 02       		.uleb128 0x2
 6495 1105 91       		.byte	0x91
 6496 1106 57       		.sleb128 -41
 6497 1107 00       		.byte	0
 6498 1108 15       		.uleb128 0x15
 6499 1109 A20A0000 		.4byte	.LASF230
 6500 110d 01       		.byte	0x1
 6501 110e 2904     		.2byte	0x429
 6502 1110 35010000 		.4byte	0x135
 6503 1114 00000000 		.4byte	.LFB17
 6504 1118 A8000000 		.4byte	.LFE17-.LFB17
 6505 111c 01       		.uleb128 0x1
 6506 111d 9C       		.byte	0x9c
 6507 111e 50110000 		.4byte	0x1150
 6508 1122 16       		.uleb128 0x16
 6509 1123 44657600 		.ascii	"Dev\000"
 6510 1127 01       		.byte	0x1
 6511 1128 2904     		.2byte	0x429
 6512 112a 83060000 		.4byte	0x683
 6513 112e 02       		.uleb128 0x2
 6514 112f 91       		.byte	0x91
 6515 1130 64       		.sleb128 -28
 6516 1131 17       		.uleb128 0x17
 6517 1132 BD040000 		.4byte	.LASF231
 6518 1136 01       		.byte	0x1
 6519 1137 2A04     		.2byte	0x42a
 6520 1139 B8000000 		.4byte	0xb8
 6521 113d 02       		.uleb128 0x2
 6522 113e 91       		.byte	0x91
 6523 113f 63       		.sleb128 -29
 6524 1140 18       		.uleb128 0x18
 6525 1141 A4010000 		.4byte	.LASF122
 6526 1145 01       		.byte	0x1
 6527 1146 2C04     		.2byte	0x42c
 6528 1148 35010000 		.4byte	0x135
ARM GAS  C:\Users\ilya\AppData\Local\Temp\ccWKU7si.s 			page 139


 6529 114c 02       		.uleb128 0x2
 6530 114d 91       		.byte	0x91
 6531 114e 6F       		.sleb128 -17
 6532 114f 00       		.byte	0
 6533 1150 15       		.uleb128 0x15
 6534 1151 8A0D0000 		.4byte	.LASF232
 6535 1155 01       		.byte	0x1
 6536 1156 4004     		.2byte	0x440
 6537 1158 35010000 		.4byte	0x135
 6538 115c 00000000 		.4byte	.LFB18
 6539 1160 B4010000 		.4byte	.LFE18-.LFB18
 6540 1164 01       		.uleb128 0x1
 6541 1165 9C       		.byte	0x9c
 6542 1166 01120000 		.4byte	0x1201
 6543 116a 16       		.uleb128 0x16
 6544 116b 44657600 		.ascii	"Dev\000"
 6545 116f 01       		.byte	0x1
 6546 1170 4004     		.2byte	0x440
 6547 1172 83060000 		.4byte	0x683
 6548 1176 02       		.uleb128 0x2
 6549 1177 91       		.byte	0x91
 6550 1178 64       		.sleb128 -28
 6551 1179 17       		.uleb128 0x17
 6552 117a AB010000 		.4byte	.LASF233
 6553 117e 01       		.byte	0x1
 6554 117f 4004     		.2byte	0x440
 6555 1181 B8000000 		.4byte	0xb8
 6556 1185 02       		.uleb128 0x2
 6557 1186 91       		.byte	0x91
 6558 1187 63       		.sleb128 -29
 6559 1188 17       		.uleb128 0x17
 6560 1189 7E0D0000 		.4byte	.LASF217
 6561 118d 01       		.byte	0x1
 6562 118e 4104     		.2byte	0x441
 6563 1190 B8000000 		.4byte	0xb8
 6564 1194 02       		.uleb128 0x2
 6565 1195 91       		.byte	0x91
 6566 1196 62       		.sleb128 -30
 6567 1197 17       		.uleb128 0x17
 6568 1198 F7080000 		.4byte	.LASF218
 6569 119c 01       		.byte	0x1
 6570 119d 4104     		.2byte	0x441
 6571 119f B8000000 		.4byte	0xb8
 6572 11a3 02       		.uleb128 0x2
 6573 11a4 91       		.byte	0x91
 6574 11a5 61       		.sleb128 -31
 6575 11a6 17       		.uleb128 0x17
 6576 11a7 1A080000 		.4byte	.LASF234
 6577 11ab 01       		.byte	0x1
 6578 11ac 4204     		.2byte	0x442
 6579 11ae 1D060000 		.4byte	0x61d
 6580 11b2 02       		.uleb128 0x2
 6581 11b3 91       		.byte	0x91
 6582 11b4 00       		.sleb128 0
 6583 11b5 17       		.uleb128 0x17
 6584 11b6 3A040000 		.4byte	.LASF235
 6585 11ba 01       		.byte	0x1
ARM GAS  C:\Users\ilya\AppData\Local\Temp\ccWKU7si.s 			page 140


 6586 11bb 4204     		.2byte	0x442
 6587 11bd 1D060000 		.4byte	0x61d
 6588 11c1 02       		.uleb128 0x2
 6589 11c2 91       		.byte	0x91
 6590 11c3 04       		.sleb128 4
 6591 11c4 17       		.uleb128 0x17
 6592 11c5 960C0000 		.4byte	.LASF236
 6593 11c9 01       		.byte	0x1
 6594 11ca 4304     		.2byte	0x443
 6595 11cc 01120000 		.4byte	0x1201
 6596 11d0 02       		.uleb128 0x2
 6597 11d1 91       		.byte	0x91
 6598 11d2 08       		.sleb128 8
 6599 11d3 17       		.uleb128 0x17
 6600 11d4 D7010000 		.4byte	.LASF237
 6601 11d8 01       		.byte	0x1
 6602 11d9 4304     		.2byte	0x443
 6603 11db 01120000 		.4byte	0x1201
 6604 11df 02       		.uleb128 0x2
 6605 11e0 91       		.byte	0x91
 6606 11e1 0C       		.sleb128 12
 6607 11e2 18       		.uleb128 0x18
 6608 11e3 A4010000 		.4byte	.LASF122
 6609 11e7 01       		.byte	0x1
 6610 11e8 4504     		.2byte	0x445
 6611 11ea 35010000 		.4byte	0x135
 6612 11ee 02       		.uleb128 0x2
 6613 11ef 91       		.byte	0x91
 6614 11f0 6F       		.sleb128 -17
 6615 11f1 18       		.uleb128 0x18
 6616 11f2 7E0B0000 		.4byte	.LASF238
 6617 11f6 01       		.byte	0x1
 6618 11f7 4604     		.2byte	0x446
 6619 11f9 B8000000 		.4byte	0xb8
 6620 11fd 02       		.uleb128 0x2
 6621 11fe 91       		.byte	0x91
 6622 11ff 6E       		.sleb128 -18
 6623 1200 00       		.byte	0
 6624 1201 1C       		.uleb128 0x1c
 6625 1202 B8000000 		.4byte	0xb8
 6626 1206 15       		.uleb128 0x15
 6627 1207 0B0B0000 		.4byte	.LASF239
 6628 120b 01       		.byte	0x1
 6629 120c 6304     		.2byte	0x463
 6630 120e 35010000 		.4byte	0x135
 6631 1212 00000000 		.4byte	.LFB19
 6632 1216 28010000 		.4byte	.LFE19-.LFB19
 6633 121a 01       		.uleb128 0x1
 6634 121b 9C       		.byte	0x9c
 6635 121c A8120000 		.4byte	0x12a8
 6636 1220 16       		.uleb128 0x16
 6637 1221 44657600 		.ascii	"Dev\000"
 6638 1225 01       		.byte	0x1
 6639 1226 6304     		.2byte	0x463
 6640 1228 83060000 		.4byte	0x683
 6641 122c 02       		.uleb128 0x2
 6642 122d 91       		.byte	0x91
ARM GAS  C:\Users\ilya\AppData\Local\Temp\ccWKU7si.s 			page 141


 6643 122e 64       		.sleb128 -28
 6644 122f 17       		.uleb128 0x17
 6645 1230 1A080000 		.4byte	.LASF234
 6646 1234 01       		.byte	0x1
 6647 1235 6404     		.2byte	0x464
 6648 1237 1D060000 		.4byte	0x61d
 6649 123b 02       		.uleb128 0x2
 6650 123c 91       		.byte	0x91
 6651 123d 60       		.sleb128 -32
 6652 123e 17       		.uleb128 0x17
 6653 123f 640D0000 		.4byte	.LASF240
 6654 1243 01       		.byte	0x1
 6655 1244 6404     		.2byte	0x464
 6656 1246 01120000 		.4byte	0x1201
 6657 124a 02       		.uleb128 0x2
 6658 124b 91       		.byte	0x91
 6659 124c 5F       		.sleb128 -33
 6660 124d 17       		.uleb128 0x17
 6661 124e 49060000 		.4byte	.LASF241
 6662 1252 01       		.byte	0x1
 6663 1253 6504     		.2byte	0x465
 6664 1255 01120000 		.4byte	0x1201
 6665 1259 02       		.uleb128 0x2
 6666 125a 91       		.byte	0x91
 6667 125b 5E       		.sleb128 -34
 6668 125c 18       		.uleb128 0x18
 6669 125d A4010000 		.4byte	.LASF122
 6670 1261 01       		.byte	0x1
 6671 1262 6704     		.2byte	0x467
 6672 1264 35010000 		.4byte	0x135
 6673 1268 02       		.uleb128 0x2
 6674 1269 91       		.byte	0x91
 6675 126a 6F       		.sleb128 -17
 6676 126b 18       		.uleb128 0x18
 6677 126c 670C0000 		.4byte	.LASF98
 6678 1270 01       		.byte	0x1
 6679 1271 6804     		.2byte	0x468
 6680 1273 B8000000 		.4byte	0xb8
 6681 1277 02       		.uleb128 0x2
 6682 1278 91       		.byte	0x91
 6683 1279 6E       		.sleb128 -18
 6684 127a 18       		.uleb128 0x18
 6685 127b 7E0D0000 		.4byte	.LASF217
 6686 127f 01       		.byte	0x1
 6687 1280 6904     		.2byte	0x469
 6688 1282 B8000000 		.4byte	0xb8
 6689 1286 02       		.uleb128 0x2
 6690 1287 91       		.byte	0x91
 6691 1288 6D       		.sleb128 -19
 6692 1289 18       		.uleb128 0x18
 6693 128a F7080000 		.4byte	.LASF218
 6694 128e 01       		.byte	0x1
 6695 128f 6A04     		.2byte	0x46a
 6696 1291 B8000000 		.4byte	0xb8
 6697 1295 02       		.uleb128 0x2
 6698 1296 91       		.byte	0x91
 6699 1297 6C       		.sleb128 -20
ARM GAS  C:\Users\ilya\AppData\Local\Temp\ccWKU7si.s 			page 142


 6700 1298 18       		.uleb128 0x18
 6701 1299 C20F0000 		.4byte	.LASF242
 6702 129d 01       		.byte	0x1
 6703 129e 6B04     		.2byte	0x46b
 6704 12a0 B8000000 		.4byte	0xb8
 6705 12a4 02       		.uleb128 0x2
 6706 12a5 91       		.byte	0x91
 6707 12a6 6B       		.sleb128 -21
 6708 12a7 00       		.byte	0
 6709 12a8 15       		.uleb128 0x15
 6710 12a9 00000000 		.4byte	.LASF243
 6711 12ad 01       		.byte	0x1
 6712 12ae 9004     		.2byte	0x490
 6713 12b0 35010000 		.4byte	0x135
 6714 12b4 00000000 		.4byte	.LFB20
 6715 12b8 20010000 		.4byte	.LFE20-.LFB20
 6716 12bc 01       		.uleb128 0x1
 6717 12bd 9C       		.byte	0x9c
 6718 12be 4A130000 		.4byte	0x134a
 6719 12c2 16       		.uleb128 0x16
 6720 12c3 44657600 		.ascii	"Dev\000"
 6721 12c7 01       		.byte	0x1
 6722 12c8 9004     		.2byte	0x490
 6723 12ca 83060000 		.4byte	0x683
 6724 12ce 02       		.uleb128 0x2
 6725 12cf 91       		.byte	0x91
 6726 12d0 64       		.sleb128 -28
 6727 12d1 17       		.uleb128 0x17
 6728 12d2 3A040000 		.4byte	.LASF235
 6729 12d6 01       		.byte	0x1
 6730 12d7 9104     		.2byte	0x491
 6731 12d9 1D060000 		.4byte	0x61d
 6732 12dd 02       		.uleb128 0x2
 6733 12de 91       		.byte	0x91
 6734 12df 60       		.sleb128 -32
 6735 12e0 17       		.uleb128 0x17
 6736 12e1 640D0000 		.4byte	.LASF240
 6737 12e5 01       		.byte	0x1
 6738 12e6 9104     		.2byte	0x491
 6739 12e8 01120000 		.4byte	0x1201
 6740 12ec 02       		.uleb128 0x2
 6741 12ed 91       		.byte	0x91
 6742 12ee 5F       		.sleb128 -33
 6743 12ef 17       		.uleb128 0x17
 6744 12f0 49060000 		.4byte	.LASF241
 6745 12f4 01       		.byte	0x1
 6746 12f5 9204     		.2byte	0x492
 6747 12f7 01120000 		.4byte	0x1201
 6748 12fb 02       		.uleb128 0x2
 6749 12fc 91       		.byte	0x91
 6750 12fd 5E       		.sleb128 -34
 6751 12fe 18       		.uleb128 0x18
 6752 12ff A4010000 		.4byte	.LASF122
 6753 1303 01       		.byte	0x1
 6754 1304 9404     		.2byte	0x494
 6755 1306 35010000 		.4byte	0x135
 6756 130a 02       		.uleb128 0x2
ARM GAS  C:\Users\ilya\AppData\Local\Temp\ccWKU7si.s 			page 143


 6757 130b 91       		.byte	0x91
 6758 130c 6F       		.sleb128 -17
 6759 130d 18       		.uleb128 0x18
 6760 130e 670C0000 		.4byte	.LASF98
 6761 1312 01       		.byte	0x1
 6762 1313 9504     		.2byte	0x495
 6763 1315 B8000000 		.4byte	0xb8
 6764 1319 02       		.uleb128 0x2
 6765 131a 91       		.byte	0x91
 6766 131b 6E       		.sleb128 -18
 6767 131c 18       		.uleb128 0x18
 6768 131d 7E0D0000 		.4byte	.LASF217
 6769 1321 01       		.byte	0x1
 6770 1322 9604     		.2byte	0x496
 6771 1324 B8000000 		.4byte	0xb8
 6772 1328 02       		.uleb128 0x2
 6773 1329 91       		.byte	0x91
 6774 132a 6D       		.sleb128 -19
 6775 132b 18       		.uleb128 0x18
 6776 132c F7080000 		.4byte	.LASF218
 6777 1330 01       		.byte	0x1
 6778 1331 9704     		.2byte	0x497
 6779 1333 B8000000 		.4byte	0xb8
 6780 1337 02       		.uleb128 0x2
 6781 1338 91       		.byte	0x91
 6782 1339 6C       		.sleb128 -20
 6783 133a 18       		.uleb128 0x18
 6784 133b 04040000 		.4byte	.LASF244
 6785 133f 01       		.byte	0x1
 6786 1340 9804     		.2byte	0x498
 6787 1342 B8000000 		.4byte	0xb8
 6788 1346 02       		.uleb128 0x2
 6789 1347 91       		.byte	0x91
 6790 1348 6B       		.sleb128 -21
 6791 1349 00       		.byte	0
 6792 134a 15       		.uleb128 0x15
 6793 134b 88110000 		.4byte	.LASF245
 6794 134f 01       		.byte	0x1
 6795 1350 BD04     		.2byte	0x4bd
 6796 1352 35010000 		.4byte	0x135
 6797 1356 00000000 		.4byte	.LFB21
 6798 135a B6000000 		.4byte	.LFE21-.LFB21
 6799 135e 01       		.uleb128 0x1
 6800 135f 9C       		.byte	0x9c
 6801 1360 BF130000 		.4byte	0x13bf
 6802 1364 16       		.uleb128 0x16
 6803 1365 44657600 		.ascii	"Dev\000"
 6804 1369 01       		.byte	0x1
 6805 136a BD04     		.2byte	0x4bd
 6806 136c 83060000 		.4byte	0x683
 6807 1370 02       		.uleb128 0x2
 6808 1371 91       		.byte	0x91
 6809 1372 64       		.sleb128 -28
 6810 1373 17       		.uleb128 0x17
 6811 1374 1A080000 		.4byte	.LASF234
 6812 1378 01       		.byte	0x1
 6813 1379 BE04     		.2byte	0x4be
ARM GAS  C:\Users\ilya\AppData\Local\Temp\ccWKU7si.s 			page 144


 6814 137b 1D060000 		.4byte	0x61d
 6815 137f 02       		.uleb128 0x2
 6816 1380 91       		.byte	0x91
 6817 1381 60       		.sleb128 -32
 6818 1382 17       		.uleb128 0x17
 6819 1383 3A040000 		.4byte	.LASF235
 6820 1387 01       		.byte	0x1
 6821 1388 BE04     		.2byte	0x4be
 6822 138a 1D060000 		.4byte	0x61d
 6823 138e 02       		.uleb128 0x2
 6824 138f 91       		.byte	0x91
 6825 1390 5C       		.sleb128 -36
 6826 1391 17       		.uleb128 0x17
 6827 1392 640D0000 		.4byte	.LASF240
 6828 1396 01       		.byte	0x1
 6829 1397 BE04     		.2byte	0x4be
 6830 1399 B8000000 		.4byte	0xb8
 6831 139d 02       		.uleb128 0x2
 6832 139e 91       		.byte	0x91
 6833 139f 5B       		.sleb128 -37
 6834 13a0 18       		.uleb128 0x18
 6835 13a1 A4010000 		.4byte	.LASF122
 6836 13a5 01       		.byte	0x1
 6837 13a6 C004     		.2byte	0x4c0
 6838 13a8 35010000 		.4byte	0x135
 6839 13ac 02       		.uleb128 0x2
 6840 13ad 91       		.byte	0x91
 6841 13ae 6F       		.sleb128 -17
 6842 13af 18       		.uleb128 0x18
 6843 13b0 670C0000 		.4byte	.LASF98
 6844 13b4 01       		.byte	0x1
 6845 13b5 C104     		.2byte	0x4c1
 6846 13b7 B8000000 		.4byte	0xb8
 6847 13bb 02       		.uleb128 0x2
 6848 13bc 91       		.byte	0x91
 6849 13bd 6E       		.sleb128 -18
 6850 13be 00       		.byte	0
 6851 13bf 15       		.uleb128 0x15
 6852 13c0 4B0C0000 		.4byte	.LASF246
 6853 13c4 01       		.byte	0x1
 6854 13c5 E004     		.2byte	0x4e0
 6855 13c7 35010000 		.4byte	0x135
 6856 13cb 00000000 		.4byte	.LFB22
 6857 13cf 5E000000 		.4byte	.LFE22-.LFB22
 6858 13d3 01       		.uleb128 0x1
 6859 13d4 9C       		.byte	0x9c
 6860 13d5 34140000 		.4byte	0x1434
 6861 13d9 16       		.uleb128 0x16
 6862 13da 44657600 		.ascii	"Dev\000"
 6863 13de 01       		.byte	0x1
 6864 13df E004     		.2byte	0x4e0
 6865 13e1 83060000 		.4byte	0x683
 6866 13e5 02       		.uleb128 0x2
 6867 13e6 91       		.byte	0x91
 6868 13e7 64       		.sleb128 -28
 6869 13e8 17       		.uleb128 0x17
 6870 13e9 7E0D0000 		.4byte	.LASF217
ARM GAS  C:\Users\ilya\AppData\Local\Temp\ccWKU7si.s 			page 145


 6871 13ed 01       		.byte	0x1
 6872 13ee E104     		.2byte	0x4e1
 6873 13f0 B8000000 		.4byte	0xb8
 6874 13f4 02       		.uleb128 0x2
 6875 13f5 91       		.byte	0x91
 6876 13f6 63       		.sleb128 -29
 6877 13f7 17       		.uleb128 0x17
 6878 13f8 F7080000 		.4byte	.LASF218
 6879 13fc 01       		.byte	0x1
 6880 13fd E104     		.2byte	0x4e1
 6881 13ff B8000000 		.4byte	0xb8
 6882 1403 02       		.uleb128 0x2
 6883 1404 91       		.byte	0x91
 6884 1405 62       		.sleb128 -30
 6885 1406 18       		.uleb128 0x18
 6886 1407 A4010000 		.4byte	.LASF122
 6887 140b 01       		.byte	0x1
 6888 140c E304     		.2byte	0x4e3
 6889 140e 35010000 		.4byte	0x135
 6890 1412 02       		.uleb128 0x2
 6891 1413 91       		.byte	0x91
 6892 1414 6F       		.sleb128 -17
 6893 1415 18       		.uleb128 0x18
 6894 1416 1A080000 		.4byte	.LASF234
 6895 141a 01       		.byte	0x1
 6896 141b E404     		.2byte	0x4e4
 6897 141d B8000000 		.4byte	0xb8
 6898 1421 02       		.uleb128 0x2
 6899 1422 91       		.byte	0x91
 6900 1423 6E       		.sleb128 -18
 6901 1424 18       		.uleb128 0x18
 6902 1425 3A040000 		.4byte	.LASF235
 6903 1429 01       		.byte	0x1
 6904 142a E504     		.2byte	0x4e5
 6905 142c B8000000 		.4byte	0xb8
 6906 1430 02       		.uleb128 0x2
 6907 1431 91       		.byte	0x91
 6908 1432 6D       		.sleb128 -19
 6909 1433 00       		.byte	0
 6910 1434 15       		.uleb128 0x15
 6911 1435 28070000 		.4byte	.LASF247
 6912 1439 01       		.byte	0x1
 6913 143a EF04     		.2byte	0x4ef
 6914 143c 35010000 		.4byte	0x135
 6915 1440 00000000 		.4byte	.LFB23
 6916 1444 62000000 		.4byte	.LFE23-.LFB23
 6917 1448 01       		.uleb128 0x1
 6918 1449 9C       		.byte	0x9c
 6919 144a A9140000 		.4byte	0x14a9
 6920 144e 16       		.uleb128 0x16
 6921 144f 44657600 		.ascii	"Dev\000"
 6922 1453 01       		.byte	0x1
 6923 1454 EF04     		.2byte	0x4ef
 6924 1456 83060000 		.4byte	0x683
 6925 145a 02       		.uleb128 0x2
 6926 145b 91       		.byte	0x91
 6927 145c 64       		.sleb128 -28
ARM GAS  C:\Users\ilya\AppData\Local\Temp\ccWKU7si.s 			page 146


 6928 145d 17       		.uleb128 0x17
 6929 145e 1A080000 		.4byte	.LASF234
 6930 1462 01       		.byte	0x1
 6931 1463 F004     		.2byte	0x4f0
 6932 1465 1D060000 		.4byte	0x61d
 6933 1469 02       		.uleb128 0x2
 6934 146a 91       		.byte	0x91
 6935 146b 60       		.sleb128 -32
 6936 146c 17       		.uleb128 0x17
 6937 146d 3A040000 		.4byte	.LASF235
 6938 1471 01       		.byte	0x1
 6939 1472 F004     		.2byte	0x4f0
 6940 1474 1D060000 		.4byte	0x61d
 6941 1478 02       		.uleb128 0x2
 6942 1479 91       		.byte	0x91
 6943 147a 5C       		.sleb128 -36
 6944 147b 18       		.uleb128 0x18
 6945 147c A4010000 		.4byte	.LASF122
 6946 1480 01       		.byte	0x1
 6947 1481 F204     		.2byte	0x4f2
 6948 1483 35010000 		.4byte	0x135
 6949 1487 02       		.uleb128 0x2
 6950 1488 91       		.byte	0x91
 6951 1489 6F       		.sleb128 -17
 6952 148a 18       		.uleb128 0x18
 6953 148b 7E0D0000 		.4byte	.LASF217
 6954 148f 01       		.byte	0x1
 6955 1490 F304     		.2byte	0x4f3
 6956 1492 B8000000 		.4byte	0xb8
 6957 1496 02       		.uleb128 0x2
 6958 1497 91       		.byte	0x91
 6959 1498 6E       		.sleb128 -18
 6960 1499 18       		.uleb128 0x18
 6961 149a F7080000 		.4byte	.LASF218
 6962 149e 01       		.byte	0x1
 6963 149f F404     		.2byte	0x4f4
 6964 14a1 B8000000 		.4byte	0xb8
 6965 14a5 02       		.uleb128 0x2
 6966 14a6 91       		.byte	0x91
 6967 14a7 6D       		.sleb128 -19
 6968 14a8 00       		.byte	0
 6969 14a9 05       		.uleb128 0x5
 6970 14aa E4000000 		.4byte	0xe4
 6971 14ae B9140000 		.4byte	0x14b9
 6972 14b2 06       		.uleb128 0x6
 6973 14b3 27010000 		.4byte	0x127
 6974 14b7 03       		.byte	0x3
 6975 14b8 00       		.byte	0
 6976 14b9 1D       		.uleb128 0x1d
 6977 14ba C90A0000 		.4byte	.LASF252
 6978 14be 01       		.byte	0x1
 6979 14bf 30       		.byte	0x30
 6980 14c0 A9140000 		.4byte	0x14a9
 6981 14c4 05       		.uleb128 0x5
 6982 14c5 03       		.byte	0x3
 6983 14c6 00000000 		.4byte	refArrayQuadrants
 6984 14ca 00       		.byte	0
ARM GAS  C:\Users\ilya\AppData\Local\Temp\ccWKU7si.s 			page 147


 6985              		.section	.debug_abbrev,"",%progbits
 6986              	.Ldebug_abbrev0:
 6987 0000 01       		.uleb128 0x1
 6988 0001 11       		.uleb128 0x11
 6989 0002 01       		.byte	0x1
 6990 0003 25       		.uleb128 0x25
 6991 0004 0E       		.uleb128 0xe
 6992 0005 13       		.uleb128 0x13
 6993 0006 0B       		.uleb128 0xb
 6994 0007 03       		.uleb128 0x3
 6995 0008 0E       		.uleb128 0xe
 6996 0009 1B       		.uleb128 0x1b
 6997 000a 0E       		.uleb128 0xe
 6998 000b 55       		.uleb128 0x55
 6999 000c 17       		.uleb128 0x17
 7000 000d 11       		.uleb128 0x11
 7001 000e 01       		.uleb128 0x1
 7002 000f 10       		.uleb128 0x10
 7003 0010 17       		.uleb128 0x17
 7004 0011 00       		.byte	0
 7005 0012 00       		.byte	0
 7006 0013 02       		.uleb128 0x2
 7007 0014 16       		.uleb128 0x16
 7008 0015 00       		.byte	0
 7009 0016 03       		.uleb128 0x3
 7010 0017 0E       		.uleb128 0xe
 7011 0018 3A       		.uleb128 0x3a
 7012 0019 0B       		.uleb128 0xb
 7013 001a 3B       		.uleb128 0x3b
 7014 001b 0B       		.uleb128 0xb
 7015 001c 49       		.uleb128 0x49
 7016 001d 13       		.uleb128 0x13
 7017 001e 00       		.byte	0
 7018 001f 00       		.byte	0
 7019 0020 03       		.uleb128 0x3
 7020 0021 24       		.uleb128 0x24
 7021 0022 00       		.byte	0
 7022 0023 0B       		.uleb128 0xb
 7023 0024 0B       		.uleb128 0xb
 7024 0025 3E       		.uleb128 0x3e
 7025 0026 0B       		.uleb128 0xb
 7026 0027 03       		.uleb128 0x3
 7027 0028 0E       		.uleb128 0xe
 7028 0029 00       		.byte	0
 7029 002a 00       		.byte	0
 7030 002b 04       		.uleb128 0x4
 7031 002c 24       		.uleb128 0x24
 7032 002d 00       		.byte	0
 7033 002e 0B       		.uleb128 0xb
 7034 002f 0B       		.uleb128 0xb
 7035 0030 3E       		.uleb128 0x3e
 7036 0031 0B       		.uleb128 0xb
 7037 0032 03       		.uleb128 0x3
 7038 0033 08       		.uleb128 0x8
 7039 0034 00       		.byte	0
 7040 0035 00       		.byte	0
 7041 0036 05       		.uleb128 0x5
ARM GAS  C:\Users\ilya\AppData\Local\Temp\ccWKU7si.s 			page 148


 7042 0037 01       		.uleb128 0x1
 7043 0038 01       		.byte	0x1
 7044 0039 49       		.uleb128 0x49
 7045 003a 13       		.uleb128 0x13
 7046 003b 01       		.uleb128 0x1
 7047 003c 13       		.uleb128 0x13
 7048 003d 00       		.byte	0
 7049 003e 00       		.byte	0
 7050 003f 06       		.uleb128 0x6
 7051 0040 21       		.uleb128 0x21
 7052 0041 00       		.byte	0
 7053 0042 49       		.uleb128 0x49
 7054 0043 13       		.uleb128 0x13
 7055 0044 2F       		.uleb128 0x2f
 7056 0045 0B       		.uleb128 0xb
 7057 0046 00       		.byte	0
 7058 0047 00       		.byte	0
 7059 0048 07       		.uleb128 0x7
 7060 0049 13       		.uleb128 0x13
 7061 004a 01       		.byte	0x1
 7062 004b 0B       		.uleb128 0xb
 7063 004c 0B       		.uleb128 0xb
 7064 004d 3A       		.uleb128 0x3a
 7065 004e 0B       		.uleb128 0xb
 7066 004f 3B       		.uleb128 0x3b
 7067 0050 0B       		.uleb128 0xb
 7068 0051 01       		.uleb128 0x1
 7069 0052 13       		.uleb128 0x13
 7070 0053 00       		.byte	0
 7071 0054 00       		.byte	0
 7072 0055 08       		.uleb128 0x8
 7073 0056 0D       		.uleb128 0xd
 7074 0057 00       		.byte	0
 7075 0058 03       		.uleb128 0x3
 7076 0059 0E       		.uleb128 0xe
 7077 005a 3A       		.uleb128 0x3a
 7078 005b 0B       		.uleb128 0xb
 7079 005c 3B       		.uleb128 0x3b
 7080 005d 0B       		.uleb128 0xb
 7081 005e 49       		.uleb128 0x49
 7082 005f 13       		.uleb128 0x13
 7083 0060 38       		.uleb128 0x38
 7084 0061 0B       		.uleb128 0xb
 7085 0062 00       		.byte	0
 7086 0063 00       		.byte	0
 7087 0064 09       		.uleb128 0x9
 7088 0065 0D       		.uleb128 0xd
 7089 0066 00       		.byte	0
 7090 0067 03       		.uleb128 0x3
 7091 0068 0E       		.uleb128 0xe
 7092 0069 3A       		.uleb128 0x3a
 7093 006a 0B       		.uleb128 0xb
 7094 006b 3B       		.uleb128 0x3b
 7095 006c 05       		.uleb128 0x5
 7096 006d 49       		.uleb128 0x49
 7097 006e 13       		.uleb128 0x13
 7098 006f 38       		.uleb128 0x38
ARM GAS  C:\Users\ilya\AppData\Local\Temp\ccWKU7si.s 			page 149


 7099 0070 0B       		.uleb128 0xb
 7100 0071 00       		.byte	0
 7101 0072 00       		.byte	0
 7102 0073 0A       		.uleb128 0xa
 7103 0074 16       		.uleb128 0x16
 7104 0075 00       		.byte	0
 7105 0076 03       		.uleb128 0x3
 7106 0077 0E       		.uleb128 0xe
 7107 0078 3A       		.uleb128 0x3a
 7108 0079 0B       		.uleb128 0xb
 7109 007a 3B       		.uleb128 0x3b
 7110 007b 05       		.uleb128 0x5
 7111 007c 49       		.uleb128 0x49
 7112 007d 13       		.uleb128 0x13
 7113 007e 00       		.byte	0
 7114 007f 00       		.byte	0
 7115 0080 0B       		.uleb128 0xb
 7116 0081 13       		.uleb128 0x13
 7117 0082 01       		.byte	0x1
 7118 0083 0B       		.uleb128 0xb
 7119 0084 0B       		.uleb128 0xb
 7120 0085 3A       		.uleb128 0x3a
 7121 0086 0B       		.uleb128 0xb
 7122 0087 3B       		.uleb128 0x3b
 7123 0088 05       		.uleb128 0x5
 7124 0089 01       		.uleb128 0x1
 7125 008a 13       		.uleb128 0x13
 7126 008b 00       		.byte	0
 7127 008c 00       		.byte	0
 7128 008d 0C       		.uleb128 0xc
 7129 008e 13       		.uleb128 0x13
 7130 008f 01       		.byte	0x1
 7131 0090 0B       		.uleb128 0xb
 7132 0091 05       		.uleb128 0x5
 7133 0092 3A       		.uleb128 0x3a
 7134 0093 0B       		.uleb128 0xb
 7135 0094 3B       		.uleb128 0x3b
 7136 0095 05       		.uleb128 0x5
 7137 0096 01       		.uleb128 0x1
 7138 0097 13       		.uleb128 0x13
 7139 0098 00       		.byte	0
 7140 0099 00       		.byte	0
 7141 009a 0D       		.uleb128 0xd
 7142 009b 0D       		.uleb128 0xd
 7143 009c 00       		.byte	0
 7144 009d 03       		.uleb128 0x3
 7145 009e 0E       		.uleb128 0xe
 7146 009f 3A       		.uleb128 0x3a
 7147 00a0 0B       		.uleb128 0xb
 7148 00a1 3B       		.uleb128 0x3b
 7149 00a2 05       		.uleb128 0x5
 7150 00a3 49       		.uleb128 0x49
 7151 00a4 13       		.uleb128 0x13
 7152 00a5 38       		.uleb128 0x38
 7153 00a6 05       		.uleb128 0x5
 7154 00a7 00       		.byte	0
 7155 00a8 00       		.byte	0
ARM GAS  C:\Users\ilya\AppData\Local\Temp\ccWKU7si.s 			page 150


 7156 00a9 0E       		.uleb128 0xe
 7157 00aa 0F       		.uleb128 0xf
 7158 00ab 00       		.byte	0
 7159 00ac 0B       		.uleb128 0xb
 7160 00ad 0B       		.uleb128 0xb
 7161 00ae 49       		.uleb128 0x49
 7162 00af 13       		.uleb128 0x13
 7163 00b0 00       		.byte	0
 7164 00b1 00       		.byte	0
 7165 00b2 0F       		.uleb128 0xf
 7166 00b3 13       		.uleb128 0x13
 7167 00b4 01       		.byte	0x1
 7168 00b5 0B       		.uleb128 0xb
 7169 00b6 05       		.uleb128 0x5
 7170 00b7 3A       		.uleb128 0x3a
 7171 00b8 0B       		.uleb128 0xb
 7172 00b9 3B       		.uleb128 0x3b
 7173 00ba 0B       		.uleb128 0xb
 7174 00bb 01       		.uleb128 0x1
 7175 00bc 13       		.uleb128 0x13
 7176 00bd 00       		.byte	0
 7177 00be 00       		.byte	0
 7178 00bf 10       		.uleb128 0x10
 7179 00c0 0D       		.uleb128 0xd
 7180 00c1 00       		.byte	0
 7181 00c2 03       		.uleb128 0x3
 7182 00c3 0E       		.uleb128 0xe
 7183 00c4 3A       		.uleb128 0x3a
 7184 00c5 0B       		.uleb128 0xb
 7185 00c6 3B       		.uleb128 0x3b
 7186 00c7 0B       		.uleb128 0xb
 7187 00c8 49       		.uleb128 0x49
 7188 00c9 13       		.uleb128 0x13
 7189 00ca 38       		.uleb128 0x38
 7190 00cb 05       		.uleb128 0x5
 7191 00cc 00       		.byte	0
 7192 00cd 00       		.byte	0
 7193 00ce 11       		.uleb128 0x11
 7194 00cf 2E       		.uleb128 0x2e
 7195 00d0 01       		.byte	0x1
 7196 00d1 3F       		.uleb128 0x3f
 7197 00d2 19       		.uleb128 0x19
 7198 00d3 03       		.uleb128 0x3
 7199 00d4 0E       		.uleb128 0xe
 7200 00d5 3A       		.uleb128 0x3a
 7201 00d6 0B       		.uleb128 0xb
 7202 00d7 3B       		.uleb128 0x3b
 7203 00d8 0B       		.uleb128 0xb
 7204 00d9 27       		.uleb128 0x27
 7205 00da 19       		.uleb128 0x19
 7206 00db 49       		.uleb128 0x49
 7207 00dc 13       		.uleb128 0x13
 7208 00dd 11       		.uleb128 0x11
 7209 00de 01       		.uleb128 0x1
 7210 00df 12       		.uleb128 0x12
 7211 00e0 06       		.uleb128 0x6
 7212 00e1 40       		.uleb128 0x40
ARM GAS  C:\Users\ilya\AppData\Local\Temp\ccWKU7si.s 			page 151


 7213 00e2 18       		.uleb128 0x18
 7214 00e3 9642     		.uleb128 0x2116
 7215 00e5 19       		.uleb128 0x19
 7216 00e6 01       		.uleb128 0x1
 7217 00e7 13       		.uleb128 0x13
 7218 00e8 00       		.byte	0
 7219 00e9 00       		.byte	0
 7220 00ea 12       		.uleb128 0x12
 7221 00eb 05       		.uleb128 0x5
 7222 00ec 00       		.byte	0
 7223 00ed 03       		.uleb128 0x3
 7224 00ee 08       		.uleb128 0x8
 7225 00ef 3A       		.uleb128 0x3a
 7226 00f0 0B       		.uleb128 0xb
 7227 00f1 3B       		.uleb128 0x3b
 7228 00f2 0B       		.uleb128 0xb
 7229 00f3 49       		.uleb128 0x49
 7230 00f4 13       		.uleb128 0x13
 7231 00f5 02       		.uleb128 0x2
 7232 00f6 18       		.uleb128 0x18
 7233 00f7 00       		.byte	0
 7234 00f8 00       		.byte	0
 7235 00f9 13       		.uleb128 0x13
 7236 00fa 05       		.uleb128 0x5
 7237 00fb 00       		.byte	0
 7238 00fc 03       		.uleb128 0x3
 7239 00fd 0E       		.uleb128 0xe
 7240 00fe 3A       		.uleb128 0x3a
 7241 00ff 0B       		.uleb128 0xb
 7242 0100 3B       		.uleb128 0x3b
 7243 0101 0B       		.uleb128 0xb
 7244 0102 49       		.uleb128 0x49
 7245 0103 13       		.uleb128 0x13
 7246 0104 02       		.uleb128 0x2
 7247 0105 18       		.uleb128 0x18
 7248 0106 00       		.byte	0
 7249 0107 00       		.byte	0
 7250 0108 14       		.uleb128 0x14
 7251 0109 34       		.uleb128 0x34
 7252 010a 00       		.byte	0
 7253 010b 03       		.uleb128 0x3
 7254 010c 0E       		.uleb128 0xe
 7255 010d 3A       		.uleb128 0x3a
 7256 010e 0B       		.uleb128 0xb
 7257 010f 3B       		.uleb128 0x3b
 7258 0110 0B       		.uleb128 0xb
 7259 0111 49       		.uleb128 0x49
 7260 0112 13       		.uleb128 0x13
 7261 0113 02       		.uleb128 0x2
 7262 0114 18       		.uleb128 0x18
 7263 0115 00       		.byte	0
 7264 0116 00       		.byte	0
 7265 0117 15       		.uleb128 0x15
 7266 0118 2E       		.uleb128 0x2e
 7267 0119 01       		.byte	0x1
 7268 011a 3F       		.uleb128 0x3f
 7269 011b 19       		.uleb128 0x19
ARM GAS  C:\Users\ilya\AppData\Local\Temp\ccWKU7si.s 			page 152


 7270 011c 03       		.uleb128 0x3
 7271 011d 0E       		.uleb128 0xe
 7272 011e 3A       		.uleb128 0x3a
 7273 011f 0B       		.uleb128 0xb
 7274 0120 3B       		.uleb128 0x3b
 7275 0121 05       		.uleb128 0x5
 7276 0122 27       		.uleb128 0x27
 7277 0123 19       		.uleb128 0x19
 7278 0124 49       		.uleb128 0x49
 7279 0125 13       		.uleb128 0x13
 7280 0126 11       		.uleb128 0x11
 7281 0127 01       		.uleb128 0x1
 7282 0128 12       		.uleb128 0x12
 7283 0129 06       		.uleb128 0x6
 7284 012a 40       		.uleb128 0x40
 7285 012b 18       		.uleb128 0x18
 7286 012c 9642     		.uleb128 0x2116
 7287 012e 19       		.uleb128 0x19
 7288 012f 01       		.uleb128 0x1
 7289 0130 13       		.uleb128 0x13
 7290 0131 00       		.byte	0
 7291 0132 00       		.byte	0
 7292 0133 16       		.uleb128 0x16
 7293 0134 05       		.uleb128 0x5
 7294 0135 00       		.byte	0
 7295 0136 03       		.uleb128 0x3
 7296 0137 08       		.uleb128 0x8
 7297 0138 3A       		.uleb128 0x3a
 7298 0139 0B       		.uleb128 0xb
 7299 013a 3B       		.uleb128 0x3b
 7300 013b 05       		.uleb128 0x5
 7301 013c 49       		.uleb128 0x49
 7302 013d 13       		.uleb128 0x13
 7303 013e 02       		.uleb128 0x2
 7304 013f 18       		.uleb128 0x18
 7305 0140 00       		.byte	0
 7306 0141 00       		.byte	0
 7307 0142 17       		.uleb128 0x17
 7308 0143 05       		.uleb128 0x5
 7309 0144 00       		.byte	0
 7310 0145 03       		.uleb128 0x3
 7311 0146 0E       		.uleb128 0xe
 7312 0147 3A       		.uleb128 0x3a
 7313 0148 0B       		.uleb128 0xb
 7314 0149 3B       		.uleb128 0x3b
 7315 014a 05       		.uleb128 0x5
 7316 014b 49       		.uleb128 0x49
 7317 014c 13       		.uleb128 0x13
 7318 014d 02       		.uleb128 0x2
 7319 014e 18       		.uleb128 0x18
 7320 014f 00       		.byte	0
 7321 0150 00       		.byte	0
 7322 0151 18       		.uleb128 0x18
 7323 0152 34       		.uleb128 0x34
 7324 0153 00       		.byte	0
 7325 0154 03       		.uleb128 0x3
 7326 0155 0E       		.uleb128 0xe
ARM GAS  C:\Users\ilya\AppData\Local\Temp\ccWKU7si.s 			page 153


 7327 0156 3A       		.uleb128 0x3a
 7328 0157 0B       		.uleb128 0xb
 7329 0158 3B       		.uleb128 0x3b
 7330 0159 05       		.uleb128 0x5
 7331 015a 49       		.uleb128 0x49
 7332 015b 13       		.uleb128 0x13
 7333 015c 02       		.uleb128 0x2
 7334 015d 18       		.uleb128 0x18
 7335 015e 00       		.byte	0
 7336 015f 00       		.byte	0
 7337 0160 19       		.uleb128 0x19
 7338 0161 2E       		.uleb128 0x2e
 7339 0162 01       		.byte	0x1
 7340 0163 3F       		.uleb128 0x3f
 7341 0164 19       		.uleb128 0x19
 7342 0165 03       		.uleb128 0x3
 7343 0166 0E       		.uleb128 0xe
 7344 0167 3A       		.uleb128 0x3a
 7345 0168 0B       		.uleb128 0xb
 7346 0169 3B       		.uleb128 0x3b
 7347 016a 05       		.uleb128 0x5
 7348 016b 27       		.uleb128 0x27
 7349 016c 19       		.uleb128 0x19
 7350 016d 11       		.uleb128 0x11
 7351 016e 01       		.uleb128 0x1
 7352 016f 12       		.uleb128 0x12
 7353 0170 06       		.uleb128 0x6
 7354 0171 40       		.uleb128 0x40
 7355 0172 18       		.uleb128 0x18
 7356 0173 9642     		.uleb128 0x2116
 7357 0175 19       		.uleb128 0x19
 7358 0176 01       		.uleb128 0x1
 7359 0177 13       		.uleb128 0x13
 7360 0178 00       		.byte	0
 7361 0179 00       		.byte	0
 7362 017a 1A       		.uleb128 0x1a
 7363 017b 2E       		.uleb128 0x2e
 7364 017c 01       		.byte	0x1
 7365 017d 3F       		.uleb128 0x3f
 7366 017e 19       		.uleb128 0x19
 7367 017f 03       		.uleb128 0x3
 7368 0180 0E       		.uleb128 0xe
 7369 0181 3A       		.uleb128 0x3a
 7370 0182 0B       		.uleb128 0xb
 7371 0183 3B       		.uleb128 0x3b
 7372 0184 05       		.uleb128 0x5
 7373 0185 27       		.uleb128 0x27
 7374 0186 19       		.uleb128 0x19
 7375 0187 49       		.uleb128 0x49
 7376 0188 13       		.uleb128 0x13
 7377 0189 11       		.uleb128 0x11
 7378 018a 01       		.uleb128 0x1
 7379 018b 12       		.uleb128 0x12
 7380 018c 06       		.uleb128 0x6
 7381 018d 40       		.uleb128 0x40
 7382 018e 18       		.uleb128 0x18
 7383 018f 9742     		.uleb128 0x2117
ARM GAS  C:\Users\ilya\AppData\Local\Temp\ccWKU7si.s 			page 154


 7384 0191 19       		.uleb128 0x19
 7385 0192 01       		.uleb128 0x1
 7386 0193 13       		.uleb128 0x13
 7387 0194 00       		.byte	0
 7388 0195 00       		.byte	0
 7389 0196 1B       		.uleb128 0x1b
 7390 0197 34       		.uleb128 0x34
 7391 0198 00       		.byte	0
 7392 0199 03       		.uleb128 0x3
 7393 019a 08       		.uleb128 0x8
 7394 019b 3A       		.uleb128 0x3a
 7395 019c 0B       		.uleb128 0xb
 7396 019d 3B       		.uleb128 0x3b
 7397 019e 05       		.uleb128 0x5
 7398 019f 49       		.uleb128 0x49
 7399 01a0 13       		.uleb128 0x13
 7400 01a1 02       		.uleb128 0x2
 7401 01a2 18       		.uleb128 0x18
 7402 01a3 00       		.byte	0
 7403 01a4 00       		.byte	0
 7404 01a5 1C       		.uleb128 0x1c
 7405 01a6 26       		.uleb128 0x26
 7406 01a7 00       		.byte	0
 7407 01a8 49       		.uleb128 0x49
 7408 01a9 13       		.uleb128 0x13
 7409 01aa 00       		.byte	0
 7410 01ab 00       		.byte	0
 7411 01ac 1D       		.uleb128 0x1d
 7412 01ad 34       		.uleb128 0x34
 7413 01ae 00       		.byte	0
 7414 01af 03       		.uleb128 0x3
 7415 01b0 0E       		.uleb128 0xe
 7416 01b1 3A       		.uleb128 0x3a
 7417 01b2 0B       		.uleb128 0xb
 7418 01b3 3B       		.uleb128 0x3b
 7419 01b4 0B       		.uleb128 0xb
 7420 01b5 49       		.uleb128 0x49
 7421 01b6 13       		.uleb128 0x13
 7422 01b7 3F       		.uleb128 0x3f
 7423 01b8 19       		.uleb128 0x19
 7424 01b9 02       		.uleb128 0x2
 7425 01ba 18       		.uleb128 0x18
 7426 01bb 00       		.byte	0
 7427 01bc 00       		.byte	0
 7428 01bd 00       		.byte	0
 7429              		.section	.debug_aranges,"",%progbits
 7430 0000 CC000000 		.4byte	0xcc
 7431 0004 0200     		.2byte	0x2
 7432 0006 00000000 		.4byte	.Ldebug_info0
 7433 000a 04       		.byte	0x4
 7434 000b 00       		.byte	0
 7435 000c 0000     		.2byte	0
 7436 000e 0000     		.2byte	0
 7437 0010 00000000 		.4byte	.LFB1
 7438 0014 4E020000 		.4byte	.LFE1-.LFB1
 7439 0018 00000000 		.4byte	.LFB2
 7440 001c E6010000 		.4byte	.LFE2-.LFB2
ARM GAS  C:\Users\ilya\AppData\Local\Temp\ccWKU7si.s 			page 155


 7441 0020 00000000 		.4byte	.LFB3
 7442 0024 9C000000 		.4byte	.LFE3-.LFB3
 7443 0028 00000000 		.4byte	.LFB4
 7444 002c B0000000 		.4byte	.LFE4-.LFB4
 7445 0030 00000000 		.4byte	.LFB5
 7446 0034 96000000 		.4byte	.LFE5-.LFB5
 7447 0038 00000000 		.4byte	.LFB6
 7448 003c D4000000 		.4byte	.LFE6-.LFB6
 7449 0040 00000000 		.4byte	.LFB7
 7450 0044 3C000000 		.4byte	.LFE7-.LFB7
 7451 0048 00000000 		.4byte	.LFB8
 7452 004c 76000000 		.4byte	.LFE8-.LFB8
 7453 0050 00000000 		.4byte	.LFB9
 7454 0054 28010000 		.4byte	.LFE9-.LFB9
 7455 0058 00000000 		.4byte	.LFB10
 7456 005c 2E000000 		.4byte	.LFE10-.LFB10
 7457 0060 00000000 		.4byte	.LFB11
 7458 0064 2E000000 		.4byte	.LFE11-.LFB11
 7459 0068 00000000 		.4byte	.LFB12
 7460 006c 1E010000 		.4byte	.LFE12-.LFB12
 7461 0070 00000000 		.4byte	.LFB13
 7462 0074 18010000 		.4byte	.LFE13-.LFB13
 7463 0078 00000000 		.4byte	.LFB14
 7464 007c 18050000 		.4byte	.LFE14-.LFB14
 7465 0080 00000000 		.4byte	.LFB15
 7466 0084 90010000 		.4byte	.LFE15-.LFB15
 7467 0088 00000000 		.4byte	.LFB16
 7468 008c EA000000 		.4byte	.LFE16-.LFB16
 7469 0090 00000000 		.4byte	.LFB17
 7470 0094 A8000000 		.4byte	.LFE17-.LFB17
 7471 0098 00000000 		.4byte	.LFB18
 7472 009c B4010000 		.4byte	.LFE18-.LFB18
 7473 00a0 00000000 		.4byte	.LFB19
 7474 00a4 28010000 		.4byte	.LFE19-.LFB19
 7475 00a8 00000000 		.4byte	.LFB20
 7476 00ac 20010000 		.4byte	.LFE20-.LFB20
 7477 00b0 00000000 		.4byte	.LFB21
 7478 00b4 B6000000 		.4byte	.LFE21-.LFB21
 7479 00b8 00000000 		.4byte	.LFB22
 7480 00bc 5E000000 		.4byte	.LFE22-.LFB22
 7481 00c0 00000000 		.4byte	.LFB23
 7482 00c4 62000000 		.4byte	.LFE23-.LFB23
 7483 00c8 00000000 		.4byte	0
 7484 00cc 00000000 		.4byte	0
 7485              		.section	.debug_ranges,"",%progbits
 7486              	.Ldebug_ranges0:
 7487 0000 00000000 		.4byte	.LFB1
 7488 0004 4E020000 		.4byte	.LFE1
 7489 0008 00000000 		.4byte	.LFB2
 7490 000c E6010000 		.4byte	.LFE2
 7491 0010 00000000 		.4byte	.LFB3
 7492 0014 9C000000 		.4byte	.LFE3
 7493 0018 00000000 		.4byte	.LFB4
 7494 001c B0000000 		.4byte	.LFE4
 7495 0020 00000000 		.4byte	.LFB5
 7496 0024 96000000 		.4byte	.LFE5
 7497 0028 00000000 		.4byte	.LFB6
ARM GAS  C:\Users\ilya\AppData\Local\Temp\ccWKU7si.s 			page 156


 7498 002c D4000000 		.4byte	.LFE6
 7499 0030 00000000 		.4byte	.LFB7
 7500 0034 3C000000 		.4byte	.LFE7
 7501 0038 00000000 		.4byte	.LFB8
 7502 003c 76000000 		.4byte	.LFE8
 7503 0040 00000000 		.4byte	.LFB9
 7504 0044 28010000 		.4byte	.LFE9
 7505 0048 00000000 		.4byte	.LFB10
 7506 004c 2E000000 		.4byte	.LFE10
 7507 0050 00000000 		.4byte	.LFB11
 7508 0054 2E000000 		.4byte	.LFE11
 7509 0058 00000000 		.4byte	.LFB12
 7510 005c 1E010000 		.4byte	.LFE12
 7511 0060 00000000 		.4byte	.LFB13
 7512 0064 18010000 		.4byte	.LFE13
 7513 0068 00000000 		.4byte	.LFB14
 7514 006c 18050000 		.4byte	.LFE14
 7515 0070 00000000 		.4byte	.LFB15
 7516 0074 90010000 		.4byte	.LFE15
 7517 0078 00000000 		.4byte	.LFB16
 7518 007c EA000000 		.4byte	.LFE16
 7519 0080 00000000 		.4byte	.LFB17
 7520 0084 A8000000 		.4byte	.LFE17
 7521 0088 00000000 		.4byte	.LFB18
 7522 008c B4010000 		.4byte	.LFE18
 7523 0090 00000000 		.4byte	.LFB19
 7524 0094 28010000 		.4byte	.LFE19
 7525 0098 00000000 		.4byte	.LFB20
 7526 009c 20010000 		.4byte	.LFE20
 7527 00a0 00000000 		.4byte	.LFB21
 7528 00a4 B6000000 		.4byte	.LFE21
 7529 00a8 00000000 		.4byte	.LFB22
 7530 00ac 5E000000 		.4byte	.LFE22
 7531 00b0 00000000 		.4byte	.LFB23
 7532 00b4 62000000 		.4byte	.LFE23
 7533 00b8 00000000 		.4byte	0
 7534 00bc 00000000 		.4byte	0
 7535              		.section	.debug_line,"",%progbits
 7536              	.Ldebug_line0:
 7537 0000 47060000 		.section	.debug_str,"MS",%progbits,1
 7537      0200AA01 
 7537      00000201 
 7537      FB0E0D00 
 7537      01010101 
 7538              	.LASF243:
 7539 0000 564C3533 		.ascii	"VL53L0X_perform_phase_calibration\000"
 7539      4C30585F 
 7539      70657266 
 7539      6F726D5F 
 7539      70686173 
 7540              	.LASF132:
 7541 0022 7369676E 		.ascii	"signalXTalkTotalPerSpad\000"
 7541      616C5854 
 7541      616C6B54 
 7541      6F74616C 
 7541      50657253 
 7542              	.LASF84:
ARM GAS  C:\Users\ilya\AppData\Local\Temp\ccWKU7si.s 			page 157


 7543 003a 52656665 		.ascii	"ReferenceSpadType\000"
 7543      72656E63 
 7543      65537061 
 7543      64547970 
 7543      6500
 7544              	.LASF52:
 7545 004c 5369676E 		.ascii	"SignalRateRtnMegaCps\000"
 7545      616C5261 
 7545      74655274 
 7545      6E4D6567 
 7545      61437073 
 7546              	.LASF184:
 7547 0061 74656D70 		.ascii	"tempByte\000"
 7547      42797465 
 7547      00
 7548              	.LASF87:
 7549 006a 50617274 		.ascii	"PartUIDLower\000"
 7549      5549444C 
 7549      6F776572 
 7549      00
 7550              	.LASF119:
 7551 0077 564C3533 		.ascii	"VL53L0X_DEV\000"
 7551      4C30585F 
 7551      44455600 
 7552              	.LASF32:
 7553 0083 48697374 		.ascii	"HistogramMode\000"
 7553      6F677261 
 7553      6D4D6F64 
 7553      6500
 7554              	.LASF130:
 7555 0091 7854616C 		.ascii	"xTalkStoredMeanRange\000"
 7555      6B53746F 
 7555      7265644D 
 7555      65616E52 
 7555      616E6765 
 7556              	.LASF166:
 7557 00a6 64617461 		.ascii	"dataByte\000"
 7557      42797465 
 7557      00
 7558              	.LASF140:
 7559 00af 53746F72 		.ascii	"StoredMeanRangeAsInt\000"
 7559      65644D65 
 7559      616E5261 
 7559      6E676541 
 7559      73496E74 
 7560              	.LASF35:
 7561 00c4 5854616C 		.ascii	"XTalkCompensationEnable\000"
 7561      6B436F6D 
 7561      70656E73 
 7561      6174696F 
 7561      6E456E61 
 7562              	.LASF75:
 7563 00dc 50726552 		.ascii	"PreRangeVcselPulsePeriod\000"
 7563      616E6765 
 7563      56637365 
 7563      6C50756C 
 7563      73655065 
ARM GAS  C:\Users\ilya\AppData\Local\Temp\ccWKU7si.s 			page 158


 7564              	.LASF151:
 7565 00f5 704F6666 		.ascii	"pOffsetCalibrationDataMicroMeter\000"
 7565      73657443 
 7565      616C6962 
 7565      72617469 
 7565      6F6E4461 
 7566              	.LASF136:
 7567 0116 564C3533 		.ascii	"VL53L0X_perform_offset_calibration\000"
 7567      4C30585F 
 7567      70657266 
 7567      6F726D5F 
 7567      6F666673 
 7568              	.LASF209:
 7569 0139 63757272 		.ascii	"currentSpadIndex\000"
 7569      656E7453 
 7569      70616449 
 7569      6E646578 
 7569      00
 7570              	.LASF249:
 7571 014a 4170695C 		.ascii	"Api\\core\\src\\vl53l0x_api_calibration.c\000"
 7571      636F7265 
 7571      5C737263 
 7571      5C766C35 
 7571      336C3078 
 7572              	.LASF14:
 7573 0171 756E7369 		.ascii	"unsigned int\000"
 7573      676E6564 
 7573      20696E74 
 7573      00
 7574              	.LASF36:
 7575 017e 5854616C 		.ascii	"XTalkCompensationRangeMilliMeter\000"
 7575      6B436F6D 
 7575      70656E73 
 7575      6174696F 
 7575      6E52616E 
 7576              	.LASF160:
 7577 019f 6E657874 		.ascii	"next\000"
 7577      00
 7578              	.LASF122:
 7579 01a4 53746174 		.ascii	"Status\000"
 7579      757300
 7580              	.LASF233:
 7581 01ab 72656164 		.ascii	"read_not_write\000"
 7581      5F6E6F74 
 7581      5F777269 
 7581      746500
 7582              	.LASF30:
 7583 01ba 564C3533 		.ascii	"VL53L0X_PowerModes\000"
 7583      4C30585F 
 7583      506F7765 
 7583      724D6F64 
 7583      657300
 7584              	.LASF82:
 7585 01cd 50726F64 		.ascii	"ProductId\000"
 7585      75637449 
 7585      6400
 7586              	.LASF237:
ARM GAS  C:\Users\ilya\AppData\Local\Temp\ccWKU7si.s 			page 159


 7587 01d7 70686173 		.ascii	"phase_enable\000"
 7587      655F656E 
 7587      61626C65 
 7587      00
 7588              	.LASF39:
 7589 01e4 4C696D69 		.ascii	"LimitChecksEnable\000"
 7589      74436865 
 7589      636B7345 
 7589      6E61626C 
 7589      6500
 7590              	.LASF64:
 7591 01f6 4572726F 		.ascii	"ErrorStatus\000"
 7591      72537461 
 7591      74757300 
 7592              	.LASF53:
 7593 0202 416D6269 		.ascii	"AmbientRateRtnMegaCps\000"
 7593      656E7452 
 7593      61746552 
 7593      746E4D65 
 7593      67614370 
 7594              	.LASF8:
 7595 0218 5F5F696E 		.ascii	"__int32_t\000"
 7595      7433325F 
 7595      7400
 7596              	.LASF120:
 7597 0222 5854616C 		.ascii	"XTalkCalDistance\000"
 7597      6B43616C 
 7597      44697374 
 7597      616E6365 
 7597      00
 7598              	.LASF138:
 7599 0233 704F6666 		.ascii	"pOffsetMicroMeter\000"
 7599      7365744D 
 7599      6963726F 
 7599      4D657465 
 7599      7200
 7600              	.LASF129:
 7601 0245 7854616C 		.ascii	"xTalkStoredMeanSignalRate\000"
 7601      6B53746F 
 7601      7265644D 
 7601      65616E53 
 7601      69676E61 
 7602              	.LASF248:
 7603 025f 474E5520 		.ascii	"GNU C11 5.4.1 20160609 (release) [ARM/embedded-5-br"
 7603      43313120 
 7603      352E342E 
 7603      31203230 
 7603      31363036 
 7604 0292 616E6368 		.ascii	"anch revision 237715] -mcpu=cortex-m0 -mthumb -g -O"
 7604      20726576 
 7604      6973696F 
 7604      6E203233 
 7604      37373135 
 7605 02c5 30202D66 		.ascii	"0 -ffunction-sections -ffat-lto-objects\000"
 7605      66756E63 
 7605      74696F6E 
 7605      2D736563 
ARM GAS  C:\Users\ilya\AppData\Local\Temp\ccWKU7si.s 			page 160


 7605      74696F6E 
 7606              	.LASF175:
 7607 02ed 636F756E 		.ascii	"count_enabled_spads\000"
 7607      745F656E 
 7607      61626C65 
 7607      645F7370 
 7607      61647300 
 7608              	.LASF212:
 7609 0301 6E656564 		.ascii	"needAptSpads\000"
 7609      41707453 
 7609      70616473 
 7609      00
 7610              	.LASF144:
 7611 030e 564C3533 		.ascii	"VL53L0X_set_offset_calibration_data_micro_meter\000"
 7611      4C30585F 
 7611      7365745F 
 7611      6F666673 
 7611      65745F63 
 7612              	.LASF213:
 7613 033e 73706164 		.ascii	"spadArraySize\000"
 7613      41727261 
 7613      7953697A 
 7613      6500
 7614              	.LASF170:
 7615 034c 71756164 		.ascii	"quadrant\000"
 7615      72616E74 
 7615      00
 7616              	.LASF199:
 7617 0355 70657266 		.ascii	"perform_ref_signal_measurement\000"
 7617      6F726D5F 
 7617      7265665F 
 7617      7369676E 
 7617      616C5F6D 
 7618              	.LASF118:
 7619 0374 564C3533 		.ascii	"VL53L0X_Dev_t\000"
 7619      4C30585F 
 7619      4465765F 
 7619      7400
 7620              	.LASF42:
 7621 0382 57726170 		.ascii	"WrapAroundCheckEnable\000"
 7621      41726F75 
 7621      6E644368 
 7621      65636B45 
 7621      6E61626C 
 7622              	.LASF101:
 7623 0398 506F7765 		.ascii	"PowerMode\000"
 7623      724D6F64 
 7623      6500
 7624              	.LASF207:
 7625 03a2 6D696E69 		.ascii	"minimumSpadCount\000"
 7625      6D756D53 
 7625      70616443 
 7625      6F756E74 
 7625      00
 7626              	.LASF40:
 7627 03b3 4C696D69 		.ascii	"LimitChecksStatus\000"
 7627      74436865 
ARM GAS  C:\Users\ilya\AppData\Local\Temp\ccWKU7si.s 			page 161


 7627      636B7353 
 7627      74617475 
 7627      7300
 7628              	.LASF51:
 7629 03c5 52616E67 		.ascii	"RangeDMaxMilliMeter\000"
 7629      65444D61 
 7629      784D696C 
 7629      6C694D65 
 7629      74657200 
 7630              	.LASF179:
 7631 03d9 70497341 		.ascii	"pIsAperture\000"
 7631      70657274 
 7631      75726500 
 7632              	.LASF137:
 7633 03e5 43616C44 		.ascii	"CalDistanceMilliMeter\000"
 7633      69737461 
 7633      6E63654D 
 7633      696C6C69 
 7633      4D657465 
 7634              	.LASF81:
 7635 03fb 52657669 		.ascii	"Revision\000"
 7635      73696F6E 
 7635      00
 7636              	.LASF244:
 7637 0404 56687653 		.ascii	"VhvSettingsint\000"
 7637      65747469 
 7637      6E677369 
 7637      6E7400
 7638              	.LASF91:
 7639 0413 50617274 		.ascii	"Part2PartOffsetNVMMicroMeter\000"
 7639      32506172 
 7639      744F6666 
 7639      7365744E 
 7639      564D4D69 
 7640              	.LASF173:
 7641 0430 73706164 		.ascii	"spadArray\000"
 7641      41727261 
 7641      7900
 7642              	.LASF235:
 7643 043a 70506861 		.ascii	"pPhaseCal\000"
 7643      73654361 
 7643      6C00
 7644              	.LASF22:
 7645 0444 46697850 		.ascii	"FixPoint1616_t\000"
 7645      6F696E74 
 7645      31363136 
 7645      5F7400
 7646              	.LASF89:
 7647 0453 564C3533 		.ascii	"VL53L0X_DeviceSpecificParameters_t\000"
 7647      4C30585F 
 7647      44657669 
 7647      63655370 
 7647      65636966 
 7648              	.LASF20:
 7649 0476 75696E74 		.ascii	"uint32_t\000"
 7649      33325F74 
 7649      00
ARM GAS  C:\Users\ilya\AppData\Local\Temp\ccWKU7si.s 			page 162


 7650              	.LASF15:
 7651 047f 696E7438 		.ascii	"int8_t\000"
 7651      5F7400
 7652              	.LASF60:
 7653 0486 48697374 		.ascii	"HistogramType\000"
 7653      6F677261 
 7653      6D547970 
 7653      6500
 7654              	.LASF250:
 7655 0494 433A5C70 		.ascii	"C:\\psoc\\chamonix\\fixed\\Fixed\\fixed.cydsn\000"
 7655      736F635C 
 7655      6368616D 
 7655      6F6E6978 
 7655      5C666978 
 7656              	.LASF231:
 7657 04bd 7668765F 		.ascii	"vhv_init_byte\000"
 7657      696E6974 
 7657      5F627974 
 7657      6500
 7658              	.LASF43:
 7659 04cb 564C3533 		.ascii	"VL53L0X_DeviceParameters_t\000"
 7659      4C30585F 
 7659      44657669 
 7659      63655061 
 7659      72616D65 
 7660              	.LASF222:
 7661 04e6 636F756E 		.ascii	"count\000"
 7661      7400
 7662              	.LASF195:
 7663 04ec 696E6465 		.ascii	"index\000"
 7663      7800
 7664              	.LASF23:
 7665 04f2 564C3533 		.ascii	"VL53L0X_DeviceError\000"
 7665      4C30585F 
 7665      44657669 
 7665      63654572 
 7665      726F7200 
 7666              	.LASF103:
 7667 0506 74617267 		.ascii	"targetRefRate\000"
 7667      65745265 
 7667      66526174 
 7667      6500
 7668              	.LASF17:
 7669 0514 696E7431 		.ascii	"int16_t\000"
 7669      365F7400 
 7670              	.LASF142:
 7671 051c 53657175 		.ascii	"SequenceStepEnabled\000"
 7671      656E6365 
 7671      53746570 
 7671      456E6162 
 7671      6C656400 
 7672              	.LASF221:
 7673 0530 564C3533 		.ascii	"VL53L0X_set_reference_spads\000"
 7673      4C30585F 
 7673      7365745F 
 7673      72656665 
 7673      72656E63 
ARM GAS  C:\Users\ilya\AppData\Local\Temp\ccWKU7si.s 			page 163


 7674              	.LASF92:
 7675 054c 50617274 		.ascii	"Part2PartOffsetAdjustmentNVMMicroMeter\000"
 7675      32506172 
 7675      744F6666 
 7675      73657441 
 7675      646A7573 
 7676              	.LASF13:
 7677 0573 6C6F6E67 		.ascii	"long long unsigned int\000"
 7677      206C6F6E 
 7677      6720756E 
 7677      7369676E 
 7677      65642069 
 7678              	.LASF45:
 7679 058a 416D6254 		.ascii	"AmbTuningWindowFactor_K\000"
 7679      756E696E 
 7679      6757696E 
 7679      646F7746 
 7679      6163746F 
 7680              	.LASF172:
 7681 05a2 656E6162 		.ascii	"enable_spad_bit\000"
 7681      6C655F73 
 7681      7061645F 
 7681      62697400 
 7682              	.LASF162:
 7683 05b2 66696E65 		.ascii	"fineOffset\000"
 7683      4F666673 
 7683      657400
 7684              	.LASF205:
 7685 05bd 6C617374 		.ascii	"lastSpadArray\000"
 7685      53706164 
 7685      41727261 
 7685      7900
 7686              	.LASF69:
 7687 05cb 4F736346 		.ascii	"OscFrequencyMHz\000"
 7687      72657175 
 7687      656E6379 
 7687      4D487A00 
 7688              	.LASF183:
 7689 05db 62697449 		.ascii	"bitIndex\000"
 7689      6E646578 
 7689      00
 7690              	.LASF6:
 7691 05e4 5F5F7569 		.ascii	"__uint16_t\000"
 7691      6E743136 
 7691      5F7400
 7692              	.LASF163:
 7693 05ef 63537061 		.ascii	"cSpadsPerByte\000"
 7693      64735065 
 7693      72427974 
 7693      6500
 7694              	.LASF161:
 7695 05fd 73746172 		.ascii	"startIndex\000"
 7695      74496E64 
 7695      657800
 7696              	.LASF168:
 7697 0608 69735F61 		.ascii	"is_aperture\000"
 7697      70657274 
ARM GAS  C:\Users\ilya\AppData\Local\Temp\ccWKU7si.s 			page 164


 7697      75726500 
 7698              	.LASF66:
 7699 0614 52656653 		.ascii	"RefSpadEnables\000"
 7699      70616445 
 7699      6E61626C 
 7699      657300
 7700              	.LASF206:
 7701 0623 73746172 		.ascii	"startSelect\000"
 7701      7453656C 
 7701      65637400 
 7702              	.LASF108:
 7703 062f 55736549 		.ascii	"UseInternalTuningSettings\000"
 7703      6E746572 
 7703      6E616C54 
 7703      756E696E 
 7703      67536574 
 7704              	.LASF241:
 7705 0649 72657374 		.ascii	"restore_config\000"
 7705      6F72655F 
 7705      636F6E66 
 7705      696700
 7706              	.LASF109:
 7707 0658 4C696E65 		.ascii	"LinearityCorrectiveGain\000"
 7707      61726974 
 7707      79436F72 
 7707      72656374 
 7707      69766547 
 7708              	.LASF54:
 7709 0670 45666665 		.ascii	"EffectiveSpadRtnCount\000"
 7709      63746976 
 7709      65537061 
 7709      6452746E 
 7709      436F756E 
 7710              	.LASF176:
 7711 0686 62797465 		.ascii	"byteCount\000"
 7711      436F756E 
 7711      7400
 7712              	.LASF182:
 7713 0690 62797465 		.ascii	"byteIndex\000"
 7713      496E6465 
 7713      7800
 7714              	.LASF97:
 7715 069a 53706164 		.ascii	"SpadData\000"
 7715      44617461 
 7715      00
 7716              	.LASF192:
 7717 06a3 6F666673 		.ascii	"offset\000"
 7717      657400
 7718              	.LASF34:
 7719 06aa 496E7465 		.ascii	"InterMeasurementPeriodMilliSeconds\000"
 7719      724D6561 
 7719      73757265 
 7719      6D656E74 
 7719      50657269 
 7720              	.LASF83:
 7721 06cd 52656665 		.ascii	"ReferenceSpadCount\000"
 7721      72656E63 
ARM GAS  C:\Users\ilya\AppData\Local\Temp\ccWKU7si.s 			page 165


 7721      65537061 
 7721      64436F75 
 7721      6E7400
 7722              	.LASF139:
 7723 06e0 53746F72 		.ascii	"StoredMeanRange\000"
 7723      65644D65 
 7723      616E5261 
 7723      6E676500 
 7724              	.LASF80:
 7725 06f0 4D6F6475 		.ascii	"ModuleId\000"
 7725      6C654964 
 7725      00
 7726              	.LASF59:
 7727 06f9 48697374 		.ascii	"HistogramData\000"
 7727      6F677261 
 7727      6D446174 
 7727      6100
 7728              	.LASF41:
 7729 0707 4C696D69 		.ascii	"LimitChecksValue\000"
 7729      74436865 
 7729      636B7356 
 7729      616C7565 
 7729      00
 7730              	.LASF117:
 7731 0718 636F6D6D 		.ascii	"comms_speed_khz\000"
 7731      735F7370 
 7731      6565645F 
 7731      6B687A00 
 7732              	.LASF247:
 7733 0728 564C3533 		.ascii	"VL53L0X_get_ref_calibration\000"
 7733      4C30585F 
 7733      6765745F 
 7733      7265665F 
 7733      63616C69 
 7734              	.LASF38:
 7735 0744 52616E67 		.ascii	"RangeOffsetMicroMeters\000"
 7735      654F6666 
 7735      7365744D 
 7735      6963726F 
 7735      4D657465 
 7736              	.LASF224:
 7737 075b 70537061 		.ascii	"pSpadCount\000"
 7737      64436F75 
 7737      6E7400
 7738              	.LASF154:
 7739 0766 564C3533 		.ascii	"VL53L0X_apply_offset_adjustment\000"
 7739      4C30585F 
 7739      6170706C 
 7739      795F6F66 
 7739      66736574 
 7740              	.LASF110:
 7741 0786 446D6178 		.ascii	"DmaxCalRangeMilliMeter\000"
 7741      43616C52 
 7741      616E6765 
 7741      4D696C6C 
 7741      694D6574 
 7742              	.LASF216:
ARM GAS  C:\Users\ilya\AppData\Local\Temp\ccWKU7si.s 			page 166


 7743 079d 636F6D70 		.ascii	"complete\000"
 7743      6C657465 
 7743      00
 7744              	.LASF153:
 7745 07a6 634D6178 		.ascii	"cMaxOffset\000"
 7745      4F666673 
 7745      657400
 7746              	.LASF77:
 7747 07b1 5369676D 		.ascii	"SigmaEstEffPulseWidth\000"
 7747      61457374 
 7747      45666650 
 7747      756C7365 
 7747      57696474 
 7748              	.LASF225:
 7749 07c7 70497341 		.ascii	"pIsApertureSpads\000"
 7749      70657274 
 7749      75726553 
 7749      70616473 
 7749      00
 7750              	.LASF102:
 7751 07d8 53746F70 		.ascii	"StopVariable\000"
 7751      56617269 
 7751      61626C65 
 7751      00
 7752              	.LASF165:
 7753 07e5 66696E65 		.ascii	"fineIndex\000"
 7753      496E6465 
 7753      7800
 7754              	.LASF90:
 7755 07ef 444D6178 		.ascii	"DMaxData\000"
 7755      44617461 
 7755      00
 7756              	.LASF49:
 7757 07f8 4D656173 		.ascii	"MeasurementTimeUsec\000"
 7757      7572656D 
 7757      656E7454 
 7757      696D6555 
 7757      73656300 
 7758              	.LASF177:
 7759 080c 6D617853 		.ascii	"maxSpads\000"
 7759      70616473 
 7759      00
 7760              	.LASF26:
 7761 0815 63686172 		.ascii	"char\000"
 7761      00
 7762              	.LASF234:
 7763 081a 70566876 		.ascii	"pVhvSettings\000"
 7763      53657474 
 7763      696E6773 
 7763      00
 7764              	.LASF79:
 7765 0827 52656164 		.ascii	"ReadDataFromDeviceDone\000"
 7765      44617461 
 7765      46726F6D 
 7765      44657669 
 7765      6365446F 
 7766              	.LASF33:
ARM GAS  C:\Users\ilya\AppData\Local\Temp\ccWKU7si.s 			page 167


 7767 083e 4D656173 		.ascii	"MeasurementTimingBudgetMicroSeconds\000"
 7767      7572656D 
 7767      656E7454 
 7767      696D696E 
 7767      67427564 
 7768              	.LASF94:
 7769 0862 4C617374 		.ascii	"LastRangeMeasure\000"
 7769      52616E67 
 7769      654D6561 
 7769      73757265 
 7769      00
 7770              	.LASF219:
 7771 0873 72656653 		.ascii	"refSpadCount_int\000"
 7771      70616443 
 7771      6F756E74 
 7771      5F696E74 
 7771      00
 7772              	.LASF62:
 7773 0884 42756666 		.ascii	"BufferSize\000"
 7773      65725369 
 7773      7A6500
 7774              	.LASF190:
 7775 088f 61706572 		.ascii	"apertureSpads\000"
 7775      74757265 
 7775      53706164 
 7775      7300
 7776              	.LASF203:
 7777 089d 72656653 		.ascii	"refSpadCount\000"
 7777      70616443 
 7777      6F756E74 
 7777      00
 7778              	.LASF149:
 7779 08aa 656E636F 		.ascii	"encodedOffsetVal\000"
 7779      6465644F 
 7779      66667365 
 7779      7456616C 
 7779      00
 7780              	.LASF68:
 7781 08bb 564C3533 		.ascii	"VL53L0X_SpadData_t\000"
 7781      4C30585F 
 7781      53706164 
 7781      44617461 
 7781      5F7400
 7782              	.LASF16:
 7783 08ce 75696E74 		.ascii	"uint8_t\000"
 7783      385F7400 
 7784              	.LASF174:
 7785 08d6 73746174 		.ascii	"status\000"
 7785      757300
 7786              	.LASF24:
 7787 08dd 564C3533 		.ascii	"VL53L0X_GpioFunctionality\000"
 7787      4C30585F 
 7787      4770696F 
 7787      46756E63 
 7787      74696F6E 
 7788              	.LASF218:
 7789 08f7 50686173 		.ascii	"PhaseCal\000"
ARM GAS  C:\Users\ilya\AppData\Local\Temp\ccWKU7si.s 			page 168


 7789      6543616C 
 7789      00
 7790              	.LASF181:
 7791 0900 6C617374 		.ascii	"lastBit\000"
 7791      42697400 
 7792              	.LASF145:
 7793 0908 4F666673 		.ascii	"OffsetCalibrationDataMicroMeter\000"
 7793      65744361 
 7793      6C696272 
 7793      6174696F 
 7793      6E446174 
 7794              	.LASF147:
 7795 0928 634D696E 		.ascii	"cMinOffsetMicroMeter\000"
 7795      4F666673 
 7795      65744D69 
 7795      63726F4D 
 7795      65746572 
 7796              	.LASF29:
 7797 093d 564C3533 		.ascii	"VL53L0X_HistogramModes\000"
 7797      4C30585F 
 7797      48697374 
 7797      6F677261 
 7797      6D4D6F64 
 7798              	.LASF124:
 7799 0954 73756D5F 		.ascii	"sum_spads\000"
 7799      73706164 
 7799      7300
 7800              	.LASF127:
 7801 095e 7874616C 		.ascii	"xtalk_meas\000"
 7801      6B5F6D65 
 7801      617300
 7802              	.LASF57:
 7803 0969 52616E67 		.ascii	"RangeStatus\000"
 7803      65537461 
 7803      74757300 
 7804              	.LASF61:
 7805 0975 46697273 		.ascii	"FirstBin\000"
 7805      7442696E 
 7805      00
 7806              	.LASF12:
 7807 097e 6C6F6E67 		.ascii	"long long int\000"
 7807      206C6F6E 
 7807      6720696E 
 7807      7400
 7808              	.LASF185:
 7809 098c 73706164 		.ascii	"spadTypeIdentified\000"
 7809      54797065 
 7809      4964656E 
 7809      74696669 
 7809      656400
 7810              	.LASF171:
 7811 099f 69734170 		.ascii	"isAperture\000"
 7811      65727475 
 7811      726500
 7812              	.LASF152:
 7813 09aa 52616E67 		.ascii	"RangeOffsetRegister\000"
 7813      654F6666 
ARM GAS  C:\Users\ilya\AppData\Local\Temp\ccWKU7si.s 			page 169


 7813      73657452 
 7813      65676973 
 7813      74657200 
 7814              	.LASF28:
 7815 09be 564C3533 		.ascii	"VL53L0X_DeviceModes\000"
 7815      4C30585F 
 7815      44657669 
 7815      63654D6F 
 7815      64657300 
 7816              	.LASF134:
 7817 09d2 7854616C 		.ascii	"xTalkCalDistanceAsInt\000"
 7817      6B43616C 
 7817      44697374 
 7817      616E6365 
 7817      4173496E 
 7818              	.LASF121:
 7819 09e8 70585461 		.ascii	"pXTalkCompensationRateMegaCps\000"
 7819      6C6B436F 
 7819      6D70656E 
 7819      73617469 
 7819      6F6E5261 
 7820              	.LASF85:
 7821 0a06 52656653 		.ascii	"RefSpadsInitialised\000"
 7821      70616473 
 7821      496E6974 
 7821      69616C69 
 7821      73656400 
 7822              	.LASF128:
 7823 0a1a 52616E67 		.ascii	"RangingMeasurementData\000"
 7823      696E674D 
 7823      65617375 
 7823      72656D65 
 7823      6E744461 
 7824              	.LASF188:
 7825 0a31 6765745F 		.ascii	"get_ref_spad_map\000"
 7825      7265665F 
 7825      73706164 
 7825      5F6D6170 
 7825      00
 7826              	.LASF126:
 7827 0a42 746F7461 		.ascii	"total_count\000"
 7827      6C5F636F 
 7827      756E7400 
 7828              	.LASF4:
 7829 0a4e 5F5F696E 		.ascii	"__int16_t\000"
 7829      7431365F 
 7829      7400
 7830              	.LASF141:
 7831 0a58 43616C44 		.ascii	"CalDistanceAsInt_mm\000"
 7831      69737461 
 7831      6E636541 
 7831      73496E74 
 7831      5F6D6D00 
 7832              	.LASF158:
 7833 0a6c 73697A65 		.ascii	"size\000"
 7833      00
 7834              	.LASF187:
ARM GAS  C:\Users\ilya\AppData\Local\Temp\ccWKU7si.s 			page 170


 7835 0a71 72656653 		.ascii	"refSpadArray\000"
 7835      70616441 
 7835      72726179 
 7835      00
 7836              	.LASF46:
 7837 0a7e 52657453 		.ascii	"RetSignalAt0mm\000"
 7837      69676E61 
 7837      6C417430 
 7837      6D6D00
 7838              	.LASF146:
 7839 0a8d 634D6178 		.ascii	"cMaxOffsetMicroMeter\000"
 7839      4F666673 
 7839      65744D69 
 7839      63726F4D 
 7839      65746572 
 7840              	.LASF230:
 7841 0aa2 564C3533 		.ascii	"VL53L0X_perform_single_ref_calibration\000"
 7841      4C30585F 
 7841      70657266 
 7841      6F726D5F 
 7841      73696E67 
 7842              	.LASF252:
 7843 0ac9 72656641 		.ascii	"refArrayQuadrants\000"
 7843      72726179 
 7843      51756164 
 7843      72616E74 
 7843      7300
 7844              	.LASF150:
 7845 0adb 564C3533 		.ascii	"VL53L0X_get_offset_calibration_data_micro_meter\000"
 7845      4C30585F 
 7845      6765745F 
 7845      6F666673 
 7845      65745F63 
 7846              	.LASF239:
 7847 0b0b 564C3533 		.ascii	"VL53L0X_perform_vhv_calibration\000"
 7847      4C30585F 
 7847      70657266 
 7847      6F726D5F 
 7847      7668765F 
 7848              	.LASF191:
 7849 0b2b 73746172 		.ascii	"start\000"
 7849      7400
 7850              	.LASF155:
 7851 0b31 436F7272 		.ascii	"CorrectedOffsetMicroMeters\000"
 7851      65637465 
 7851      644F6666 
 7851      7365744D 
 7851      6963726F 
 7852              	.LASF200:
 7853 0b4c 72656653 		.ascii	"refSignalRate\000"
 7853      69676E61 
 7853      6C526174 
 7853      6500
 7854              	.LASF202:
 7855 0b5a 564C3533 		.ascii	"VL53L0X_perform_ref_spad_management\000"
 7855      4C30585F 
 7855      70657266 
ARM GAS  C:\Users\ilya\AppData\Local\Temp\ccWKU7si.s 			page 171


 7855      6F726D5F 
 7855      7265665F 
 7856              	.LASF238:
 7857 0b7e 50686173 		.ascii	"PhaseCalint\000"
 7857      6543616C 
 7857      696E7400 
 7858              	.LASF44:
 7859 0b8a 564C3533 		.ascii	"VL53L0X_State\000"
 7859      4C30585F 
 7859      53746174 
 7859      6500
 7860              	.LASF47:
 7861 0b98 564C3533 		.ascii	"VL53L0X_DMaxData_t\000"
 7861      4C30585F 
 7861      444D6178 
 7861      44617461 
 7861      5F7400
 7862              	.LASF0:
 7863 0bab 5F5F696E 		.ascii	"__int8_t\000"
 7863      74385F74 
 7863      00
 7864              	.LASF228:
 7865 0bb4 63537061 		.ascii	"cSpadArraySize\000"
 7865      64417272 
 7865      61795369 
 7865      7A6500
 7866              	.LASF204:
 7867 0bc3 69734170 		.ascii	"isApertureSpads\000"
 7867      65727475 
 7867      72655370 
 7867      61647300 
 7868              	.LASF115:
 7869 0bd3 49326344 		.ascii	"I2cDevAddr\000"
 7869      65764164 
 7869      647200
 7870              	.LASF31:
 7871 0bde 44657669 		.ascii	"DeviceMode\000"
 7871      63654D6F 
 7871      646500
 7872              	.LASF37:
 7873 0be9 5854616C 		.ascii	"XTalkCompensationRateMegaCps\000"
 7873      6B436F6D 
 7873      70656E73 
 7873      6174696F 
 7873      6E526174 
 7874              	.LASF21:
 7875 0c06 6C6F6E67 		.ascii	"long double\000"
 7875      20646F75 
 7875      626C6500 
 7876              	.LASF125:
 7877 0c12 73756D5F 		.ascii	"sum_signalRate\000"
 7877      7369676E 
 7877      616C5261 
 7877      746500
 7878              	.LASF18:
 7879 0c21 75696E74 		.ascii	"uint16_t\000"
 7879      31365F74 
ARM GAS  C:\Users\ilya\AppData\Local\Temp\ccWKU7si.s 			page 172


 7879      00
 7880              	.LASF58:
 7881 0c2a 564C3533 		.ascii	"VL53L0X_RangingMeasurementData_t\000"
 7881      4C30585F 
 7881      52616E67 
 7881      696E674D 
 7881      65617375 
 7882              	.LASF246:
 7883 0c4b 564C3533 		.ascii	"VL53L0X_set_ref_calibration\000"
 7883      4C30585F 
 7883      7365745F 
 7883      7265665F 
 7883      63616C69 
 7884              	.LASF98:
 7885 0c67 53657175 		.ascii	"SequenceConfig\000"
 7885      656E6365 
 7885      436F6E66 
 7885      696700
 7886              	.LASF215:
 7887 0c76 6C617374 		.ascii	"lastSignalRateDiff\000"
 7887      5369676E 
 7887      616C5261 
 7887      74654469 
 7887      666600
 7888              	.LASF208:
 7889 0c89 6D617853 		.ascii	"maxSpadCount\000"
 7889      70616443 
 7889      6F756E74 
 7889      00
 7890              	.LASF236:
 7891 0c96 7668765F 		.ascii	"vhv_enable\000"
 7891      656E6162 
 7891      6C6500
 7892              	.LASF189:
 7893 0ca1 656E6162 		.ascii	"enable_ref_spads\000"
 7893      6C655F72 
 7893      65665F73 
 7893      70616473 
 7893      00
 7894              	.LASF5:
 7895 0cb2 73686F72 		.ascii	"short int\000"
 7895      7420696E 
 7895      7400
 7896              	.LASF157:
 7897 0cbc 676F6F64 		.ascii	"goodSpadArray\000"
 7897      53706164 
 7897      41727261 
 7897      7900
 7898              	.LASF180:
 7899 0cca 6C617374 		.ascii	"lastByte\000"
 7899      42797465 
 7899      00
 7900              	.LASF159:
 7901 0cd3 63757272 		.ascii	"curr\000"
 7901      00
 7902              	.LASF9:
 7903 0cd8 6C6F6E67 		.ascii	"long int\000"
ARM GAS  C:\Users\ilya\AppData\Local\Temp\ccWKU7si.s 			page 173


 7903      20696E74 
 7903      00
 7904              	.LASF86:
 7905 0ce1 50617274 		.ascii	"PartUIDUpper\000"
 7905      55494455 
 7905      70706572 
 7905      00
 7906              	.LASF105:
 7907 0cee 5369676E 		.ascii	"SignalEstimate\000"
 7907      616C4573 
 7907      74696D61 
 7907      746500
 7908              	.LASF156:
 7909 0cfd 43757272 		.ascii	"CurrentOffsetMicroMeters\000"
 7909      656E744F 
 7909      66667365 
 7909      744D6963 
 7909      726F4D65 
 7910              	.LASF123:
 7911 0d16 73756D5F 		.ascii	"sum_ranging\000"
 7911      72616E67 
 7911      696E6700 
 7912              	.LASF106:
 7913 0d22 4C617374 		.ascii	"LastSignalRefMcps\000"
 7913      5369676E 
 7913      616C5265 
 7913      664D6370 
 7913      7300
 7914              	.LASF72:
 7915 0d34 46696E61 		.ascii	"FinalRangeTimeoutMicroSecs\000"
 7915      6C52616E 
 7915      67655469 
 7915      6D656F75 
 7915      744D6963 
 7916              	.LASF55:
 7917 0d4f 5A6F6E65 		.ascii	"ZoneId\000"
 7917      496400
 7918              	.LASF227:
 7919 0d56 634D6178 		.ascii	"cMaxSpadCount\000"
 7919      53706164 
 7919      436F756E 
 7919      7400
 7920              	.LASF240:
 7921 0d64 6765745F 		.ascii	"get_data_enable\000"
 7921      64617461 
 7921      5F656E61 
 7921      626C6500 
 7922              	.LASF1:
 7923 0d74 5F5F7569 		.ascii	"__uint8_t\000"
 7923      6E74385F 
 7923      7400
 7924              	.LASF217:
 7925 0d7e 56687653 		.ascii	"VhvSettings\000"
 7925      65747469 
 7925      6E677300 
 7926              	.LASF232:
 7927 0d8a 564C3533 		.ascii	"VL53L0X_ref_calibration_io\000"
ARM GAS  C:\Users\ilya\AppData\Local\Temp\ccWKU7si.s 			page 174


 7927      4C30585F 
 7927      7265665F 
 7927      63616C69 
 7927      62726174 
 7928              	.LASF67:
 7929 0da5 52656647 		.ascii	"RefGoodSpadMap\000"
 7929      6F6F6453 
 7929      7061644D 
 7929      617000
 7930              	.LASF167:
 7931 0db4 73756363 		.ascii	"success\000"
 7931      65737300 
 7932              	.LASF27:
 7933 0dbc 564C3533 		.ascii	"VL53L0X_Error\000"
 7933      4C30585F 
 7933      4572726F 
 7933      7200
 7934              	.LASF116:
 7935 0dca 636F6D6D 		.ascii	"comms_type\000"
 7935      735F7479 
 7935      706500
 7936              	.LASF131:
 7937 0dd5 7854616C 		.ascii	"xTalkStoredMeanRtnSpads\000"
 7937      6B53746F 
 7937      7265644D 
 7937      65616E52 
 7937      746E5370 
 7938              	.LASF25:
 7939 0ded 73697A65 		.ascii	"sizetype\000"
 7939      74797065 
 7939      00
 7940              	.LASF169:
 7941 0df6 73706164 		.ascii	"spadIndex\000"
 7941      496E6465 
 7941      7800
 7942              	.LASF93:
 7943 0e00 43757272 		.ascii	"CurrentParameters\000"
 7943      656E7450 
 7943      6172616D 
 7943      65746572 
 7943      7300
 7944              	.LASF11:
 7945 0e12 6C6F6E67 		.ascii	"long unsigned int\000"
 7945      20756E73 
 7945      69676E65 
 7945      6420696E 
 7945      7400
 7946              	.LASF197:
 7947 0e24 63757272 		.ascii	"currentSpad\000"
 7947      656E7453 
 7947      70616400 
 7948              	.LASF96:
 7949 0e30 44657669 		.ascii	"DeviceSpecificParameters\000"
 7949      63655370 
 7949      65636966 
 7949      69635061 
 7949      72616D65 
ARM GAS  C:\Users\ilya\AppData\Local\Temp\ccWKU7si.s 			page 175


 7950              	.LASF107:
 7951 0e49 7054756E 		.ascii	"pTuningSettingsPointer\000"
 7951      696E6753 
 7951      65747469 
 7951      6E677350 
 7951      6F696E74 
 7952              	.LASF19:
 7953 0e60 696E7433 		.ascii	"int32_t\000"
 7953      325F7400 
 7954              	.LASF78:
 7955 0e68 5369676D 		.ascii	"SigmaEstEffAmbWidth\000"
 7955      61457374 
 7955      45666641 
 7955      6D625769 
 7955      64746800 
 7956              	.LASF198:
 7957 0e7c 63686563 		.ascii	"checkSpadArray\000"
 7957      6B537061 
 7957      64417272 
 7957      617900
 7958              	.LASF196:
 7959 0e8b 6E657874 		.ascii	"nextGoodSpad\000"
 7959      476F6F64 
 7959      53706164 
 7959      00
 7960              	.LASF178:
 7961 0e98 70546F74 		.ascii	"pTotalSpadsEnabled\000"
 7961      616C5370 
 7961      61647345 
 7961      6E61626C 
 7961      656400
 7962              	.LASF3:
 7963 0eab 756E7369 		.ascii	"unsigned char\000"
 7963      676E6564 
 7963      20636861 
 7963      7200
 7964              	.LASF63:
 7965 0eb9 4E756D62 		.ascii	"NumberOfBins\000"
 7965      65724F66 
 7965      42696E73 
 7965      00
 7966              	.LASF74:
 7967 0ec6 50726552 		.ascii	"PreRangeTimeoutMicroSecs\000"
 7967      616E6765 
 7967      54696D65 
 7967      6F75744D 
 7967      6963726F 
 7968              	.LASF10:
 7969 0edf 5F5F7569 		.ascii	"__uint32_t\000"
 7969      6E743332 
 7969      5F7400
 7970              	.LASF111:
 7971 0eea 446D6178 		.ascii	"DmaxCalSignalRateRtnMegaCps\000"
 7971      43616C53 
 7971      69676E61 
 7971      6C526174 
 7971      6552746E 
ARM GAS  C:\Users\ilya\AppData\Local\Temp\ccWKU7si.s 			page 176


 7972              	.LASF73:
 7973 0f06 46696E61 		.ascii	"FinalRangeVcselPulsePeriod\000"
 7973      6C52616E 
 7973      67655663 
 7973      73656C50 
 7973      756C7365 
 7974              	.LASF112:
 7975 0f21 564C3533 		.ascii	"VL53L0X_DevData_t\000"
 7975      4C30585F 
 7975      44657644 
 7975      6174615F 
 7975      7400
 7976              	.LASF214:
 7977 0f33 7369676E 		.ascii	"signalRateDiff\000"
 7977      616C5261 
 7977      74654469 
 7977      666600
 7978              	.LASF211:
 7979 0f42 7065616B 		.ascii	"peakSignalRateRef\000"
 7979      5369676E 
 7979      616C5261 
 7979      74655265 
 7979      6600
 7980              	.LASF226:
 7981 0f54 72656653 		.ascii	"refSpadsInitialised\000"
 7981      70616473 
 7981      496E6974 
 7981      69616C69 
 7981      73656400 
 7982              	.LASF220:
 7983 0f68 69734170 		.ascii	"isApertureSpads_int\000"
 7983      65727475 
 7983      72655370 
 7983      6164735F 
 7983      696E7400 
 7984              	.LASF210:
 7985 0f7c 6C617374 		.ascii	"lastSpadIndex\000"
 7985      53706164 
 7985      496E6465 
 7985      7800
 7986              	.LASF71:
 7987 0f8a 50696E30 		.ascii	"Pin0GpioFunctionality\000"
 7987      4770696F 
 7987      46756E63 
 7987      74696F6E 
 7987      616C6974 
 7988              	.LASF148:
 7989 0fa0 634F6666 		.ascii	"cOffsetRange\000"
 7989      73657452 
 7989      616E6765 
 7989      00
 7990              	.LASF194:
 7991 0fad 6C617374 		.ascii	"lastSpad\000"
 7991      53706164 
 7991      00
 7992              	.LASF164:
 7993 0fb6 636F6172 		.ascii	"coarseIndex\000"
ARM GAS  C:\Users\ilya\AppData\Local\Temp\ccWKU7si.s 			page 177


 7993      7365496E 
 7993      64657800 
 7994              	.LASF242:
 7995 0fc2 50686173 		.ascii	"PhaseCalInt\000"
 7995      6543616C 
 7995      496E7400 
 7996              	.LASF229:
 7997 0fce 73706164 		.ascii	"spadsEnabled\000"
 7997      73456E61 
 7997      626C6564 
 7997      00
 7998              	.LASF113:
 7999 0fdb 564C3533 		.ascii	"VL53L0X_VcselPeriod\000"
 7999      4C30585F 
 7999      56637365 
 7999      6C506572 
 7999      696F6400 
 8000              	.LASF2:
 8001 0fef 7369676E 		.ascii	"signed char\000"
 8001      65642063 
 8001      68617200 
 8002              	.LASF95:
 8003 0ffb 4C617374 		.ascii	"LastHistogramMeasure\000"
 8003      48697374 
 8003      6F677261 
 8003      6D4D6561 
 8003      73757265 
 8004              	.LASF7:
 8005 1010 73686F72 		.ascii	"short unsigned int\000"
 8005      7420756E 
 8005      7369676E 
 8005      65642069 
 8005      6E7400
 8006              	.LASF99:
 8007 1023 52616E67 		.ascii	"RangeFractionalEnable\000"
 8007      65467261 
 8007      6374696F 
 8007      6E616C45 
 8007      6E61626C 
 8008              	.LASF133:
 8009 1039 7854616C 		.ascii	"xTalkStoredMeanRtnSpadsAsInt\000"
 8009      6B53746F 
 8009      7265644D 
 8009      65616E52 
 8009      746E5370 
 8010              	.LASF50:
 8011 1056 52616E67 		.ascii	"RangeMilliMeter\000"
 8011      654D696C 
 8011      6C694D65 
 8011      74657200 
 8012              	.LASF251:
 8013 1066 6765745F 		.ascii	"get_next_good_spad\000"
 8013      6E657874 
 8013      5F676F6F 
 8013      645F7370 
 8013      616400
 8014              	.LASF186:
ARM GAS  C:\Users\ilya\AppData\Local\Temp\ccWKU7si.s 			page 178


 8015 1079 7365745F 		.ascii	"set_ref_spad_map\000"
 8015      7265665F 
 8015      73706164 
 8015      5F6D6170 
 8015      00
 8016              	.LASF104:
 8017 108a 5369676D 		.ascii	"SigmaEstimate\000"
 8017      61457374 
 8017      696D6174 
 8017      6500
 8018              	.LASF76:
 8019 1098 5369676D 		.ascii	"SigmaEstRefArray\000"
 8019      61457374 
 8019      52656641 
 8019      72726179 
 8019      00
 8020              	.LASF56:
 8021 10a9 52616E67 		.ascii	"RangeFractionalPart\000"
 8021      65467261 
 8021      6374696F 
 8021      6E616C50 
 8021      61727400 
 8022              	.LASF201:
 8023 10bd 72616E67 		.ascii	"rangingMeasurementData\000"
 8023      696E674D 
 8023      65617375 
 8023      72656D65 
 8023      6E744461 
 8024              	.LASF70:
 8025 10d4 4C617374 		.ascii	"LastEncodedTimeout\000"
 8025      456E636F 
 8025      64656454 
 8025      696D656F 
 8025      757400
 8026              	.LASF223:
 8027 10e7 564C3533 		.ascii	"VL53L0X_get_reference_spads\000"
 8027      4C30585F 
 8027      6765745F 
 8027      72656665 
 8027      72656E63 
 8028              	.LASF193:
 8029 1103 73706164 		.ascii	"spadCount\000"
 8029      436F756E 
 8029      7400
 8030              	.LASF100:
 8031 110d 50616C53 		.ascii	"PalState\000"
 8031      74617465 
 8031      00
 8032              	.LASF48:
 8033 1116 54696D65 		.ascii	"TimeStamp\000"
 8033      5374616D 
 8033      7000
 8034              	.LASF65:
 8035 1120 564C3533 		.ascii	"VL53L0X_HistogramMeasurementData_t\000"
 8035      4C30585F 
 8035      48697374 
 8035      6F677261 
ARM GAS  C:\Users\ilya\AppData\Local\Temp\ccWKU7si.s 			page 179


 8035      6D4D6561 
 8036              	.LASF114:
 8037 1143 44617461 		.ascii	"Data\000"
 8037      00
 8038              	.LASF143:
 8039 1148 6D656173 		.ascii	"meas\000"
 8039      00
 8040              	.LASF135:
 8041 114d 564C3533 		.ascii	"VL53L0X_perform_xtalk_calibration\000"
 8041      4C30585F 
 8041      70657266 
 8041      6F726D5F 
 8041      7874616C 
 8042              	.LASF88:
 8043 116f 5369676E 		.ascii	"SignalRateMeasFixed400mm\000"
 8043      616C5261 
 8043      74654D65 
 8043      61734669 
 8043      78656434 
 8044              	.LASF245:
 8045 1188 564C3533 		.ascii	"VL53L0X_perform_ref_calibration\000"
 8045      4C30585F 
 8045      70657266 
 8045      6F726D5F 
 8045      7265665F 
 8046              		.ident	"GCC: (GNU Tools for ARM Embedded Processors) 5.4.1 20160609 (release) [ARM/embedded-5-bran
