ARM GAS  C:\Users\Yiquing\AppData\Local\Temp\ccj3mRr7.s 			page 1


   1              		.syntax unified
   2              		.cpu cortex-m3
   3              		.fpu softvfp
   4              		.eabi_attribute 20, 1
   5              		.eabi_attribute 21, 1
   6              		.eabi_attribute 23, 3
   7              		.eabi_attribute 24, 1
   8              		.eabi_attribute 25, 1
   9              		.eabi_attribute 26, 1
  10              		.eabi_attribute 30, 6
  11              		.eabi_attribute 34, 1
  12              		.eabi_attribute 18, 4
  13              		.thumb
  14              		.file	"inout.c"
  15              		.text
  16              	.Ltext0:
  17              		.cfi_sections	.debug_frame
  18              		.comm	s,40,4
  19              		.comm	currentAccessType,1,1
  20              		.comm	old,1,1
  21              		.comm	TAMPERCR_POLARITY,4,4
  22              		.comm	card_ack,4,4
  23              		.comm	card_in_buf,4,4
  24              		.comm	got_pulse,1,1
  25              		.comm	f2f_pulsewidth,4,4
  26              		.comm	timeout_cnt,4,4
  27              		.comm	activate_f2ftimer,1,1
  28              		.section	.text.SetHardwareVals,"ax",%progbits
  29              		.align	2
  30              		.global	SetHardwareVals
  31              		.thumb
  32              		.thumb_func
  33              		.type	SetHardwareVals, %function
  34              	SetHardwareVals:
  35              	.LFB63:
  36              		.file 1 ".\\inout.c"
   1:.\inout.c     **** /* ========================================
   2:.\inout.c     ****  *
   3:.\inout.c     ****  * Copyright YOUR COMPANY, THE YEAR
   4:.\inout.c     ****  * All Rights Reserved
   5:.\inout.c     ****  * UNPUBLISHED, LICENSED SOFTWARE.
   6:.\inout.c     ****  *
   7:.\inout.c     ****  * CONFIDENTIAL AND PROPRIETARY INFORMATION
   8:.\inout.c     ****  * WHICH IS THE PROPERTY OF your company.
   9:.\inout.c     ****  *
  10:.\inout.c     ****  * ========================================
  11:.\inout.c     **** */
  12:.\inout.c     **** 
  13:.\inout.c     **** // GRI 1-13-2015 - Revised for 3.1.1;  TAMPER_OUT must not be set in SetHardwareVals - has been mov
  14:.\inout.c     **** // GRI 2-04-2015 - Revised for 3.1.5;  Extensive revision to input signal checker to add debounce/n
  15:.\inout.c     **** 
  16:.\inout.c     **** #include <project.h>
  17:.\inout.c     **** #include "system.h"
  18:.\inout.c     **** #include "i2cuart.h"
  19:.\inout.c     **** 
  20:.\inout.c     **** //int pwr_cnt;
  21:.\inout.c     **** 
ARM GAS  C:\Users\Yiquing\AppData\Local\Temp\ccj3mRr7.s 			page 2


  22:.\inout.c     **** // this function reads the current settings from the file register 
  23:.\inout.c     **** // and configures the outputs accordingly
  24:.\inout.c     **** void  SetHardwareVals(int val)
  25:.\inout.c     **** {
  37              		.loc 1 25 0
  38              		.cfi_startproc
  39              		@ args = 0, pretend = 0, frame = 8
  40              		@ frame_needed = 1, uses_anonymous_args = 0
  41 0000 80B5     		push	{r7, lr}
  42              		.cfi_def_cfa_offset 8
  43              		.cfi_offset 7, -8
  44              		.cfi_offset 14, -4
  45 0002 82B0     		sub	sp, sp, #8
  46              		.cfi_def_cfa_offset 16
  47 0004 00AF     		add	r7, sp, #0
  48              		.cfi_def_cfa_register 7
  49 0006 7860     		str	r0, [r7, #4]
  26:.\inout.c     ****     // 1 - low ; 0 - high
  27:.\inout.c     **** 
  28:.\inout.c     ****     if((val&LED_OUT_RED) == LED_OUT_RED) 
  50              		.loc 1 28 0
  51 0008 7B68     		ldr	r3, [r7, #4]
  52 000a 03F00103 		and	r3, r3, #1
  53 000e 002B     		cmp	r3, #0
  54 0010 03D0     		beq	.L2
  29:.\inout.c     **** 	    LEDR_OUT_Write(1);
  55              		.loc 1 29 0
  56 0012 0120     		movs	r0, #1
  57 0014 FFF7FEFF 		bl	LEDR_OUT_Write
  58 0018 02E0     		b	.L3
  59              	.L2:
  30:.\inout.c     ****     else
  31:.\inout.c     ****         LEDR_OUT_Write(0);
  60              		.loc 1 31 0
  61 001a 0020     		movs	r0, #0
  62 001c FFF7FEFF 		bl	LEDR_OUT_Write
  63              	.L3:
  32:.\inout.c     ****         
  33:.\inout.c     ****     if((val&LED_OUT_GRN) == LED_OUT_GRN) 
  64              		.loc 1 33 0
  65 0020 7B68     		ldr	r3, [r7, #4]
  66 0022 03F00203 		and	r3, r3, #2
  67 0026 002B     		cmp	r3, #0
  68 0028 03D0     		beq	.L4
  34:.\inout.c     **** 	    LEDG_OUT_Write(1);
  69              		.loc 1 34 0
  70 002a 0120     		movs	r0, #1
  71 002c FFF7FEFF 		bl	LEDG_OUT_Write
  72 0030 02E0     		b	.L5
  73              	.L4:
  35:.\inout.c     ****     else
  36:.\inout.c     ****         LEDG_OUT_Write(0);
  74              		.loc 1 36 0
  75 0032 0020     		movs	r0, #0
  76 0034 FFF7FEFF 		bl	LEDG_OUT_Write
  77              	.L5:
  37:.\inout.c     ****         
ARM GAS  C:\Users\Yiquing\AppData\Local\Temp\ccj3mRr7.s 			page 3


  38:.\inout.c     **** 	 if((val&SOUNDER_OUT) == SOUNDER_OUT) 
  78              		.loc 1 38 0
  79 0038 7B68     		ldr	r3, [r7, #4]
  80 003a 03F00403 		and	r3, r3, #4
  81 003e 002B     		cmp	r3, #0
  82 0040 03D0     		beq	.L6
  39:.\inout.c     **** 	    SOUND_OUT_Write(1);
  83              		.loc 1 39 0
  84 0042 0120     		movs	r0, #1
  85 0044 FFF7FEFF 		bl	SOUND_OUT_Write
  86 0048 02E0     		b	.L7
  87              	.L6:
  40:.\inout.c     ****     else
  41:.\inout.c     ****         SOUND_OUT_Write(0);
  88              		.loc 1 41 0
  89 004a 0020     		movs	r0, #0
  90 004c FFF7FEFF 		bl	SOUND_OUT_Write
  91              	.L7:
  42:.\inout.c     **** 
  43:.\inout.c     ****     // TAMPER_OUT logic is now moved to HandleInputs.  (GRI 1-13-15, 2-3-15)
  44:.\inout.c     ****     // TAMPER_POL is incoming webconfig polarity bit for CR tamper.
  45:.\inout.c     ****     if((val&TAMPERCR_POL) == TAMPERCR_POL)  
  92              		.loc 1 45 0
  93 0050 7B68     		ldr	r3, [r7, #4]
  94 0052 03F00803 		and	r3, r3, #8
  95 0056 002B     		cmp	r3, #0
  96 0058 03D0     		beq	.L8
  46:.\inout.c     ****         TAMPERCR_POLARITY = 1;
  97              		.loc 1 46 0
  98 005a 114B     		ldr	r3, .L14
  99 005c 0122     		movs	r2, #1
 100 005e 1A60     		str	r2, [r3]
 101 0060 02E0     		b	.L9
 102              	.L8:
  47:.\inout.c     ****    else
  48:.\inout.c     ****         TAMPERCR_POLARITY = 0;
 103              		.loc 1 48 0
 104 0062 0F4B     		ldr	r3, .L14
 105 0064 0022     		movs	r2, #0
 106 0066 1A60     		str	r2, [r3]
 107              	.L9:
  49:.\inout.c     ****                 
  50:.\inout.c     ****     if((val&RELAY_1_OUT) == RELAY_1_OUT) 
 108              		.loc 1 50 0
 109 0068 7B68     		ldr	r3, [r7, #4]
 110 006a 03F01003 		and	r3, r3, #16
 111 006e 002B     		cmp	r3, #0
 112 0070 03D0     		beq	.L10
  51:.\inout.c     ****         RELAY_A_Write(1);
 113              		.loc 1 51 0
 114 0072 0120     		movs	r0, #1
 115 0074 FFF7FEFF 		bl	RELAY_A_Write
 116 0078 02E0     		b	.L11
 117              	.L10:
  52:.\inout.c     ****     else
  53:.\inout.c     ****         RELAY_A_Write(0);
 118              		.loc 1 53 0
ARM GAS  C:\Users\Yiquing\AppData\Local\Temp\ccj3mRr7.s 			page 4


 119 007a 0020     		movs	r0, #0
 120 007c FFF7FEFF 		bl	RELAY_A_Write
 121              	.L11:
  54:.\inout.c     ****         
  55:.\inout.c     ****     if((val&RELAY_2_OUT) == RELAY_2_OUT) 
 122              		.loc 1 55 0
 123 0080 7B68     		ldr	r3, [r7, #4]
 124 0082 03F02003 		and	r3, r3, #32
 125 0086 002B     		cmp	r3, #0
 126 0088 03D0     		beq	.L12
  56:.\inout.c     ****         RELAY_B_Write(1);
 127              		.loc 1 56 0
 128 008a 0120     		movs	r0, #1
 129 008c FFF7FEFF 		bl	RELAY_B_Write
 130 0090 02E0     		b	.L1
 131              	.L12:
  57:.\inout.c     ****     else
  58:.\inout.c     ****         RELAY_B_Write(0);
 132              		.loc 1 58 0
 133 0092 0020     		movs	r0, #0
 134 0094 FFF7FEFF 		bl	RELAY_B_Write
 135              	.L1:
  59:.\inout.c     **** 	
  60:.\inout.c     **** 
  61:.\inout.c     **** } 
 136              		.loc 1 61 0
 137 0098 0837     		adds	r7, r7, #8
 138 009a BD46     		mov	sp, r7
 139              		@ sp needed
 140 009c 80BD     		pop	{r7, pc}
 141              	.L15:
 142 009e 00BF     		.align	2
 143              	.L14:
 144 00a0 00000000 		.word	TAMPERCR_POLARITY
 145              		.cfi_endproc
 146              	.LFE63:
 147              		.size	SetHardwareVals, .-SetHardwareVals
 148              		.section	.text.GetHardwareVals,"ax",%progbits
 149              		.align	2
 150              		.global	GetHardwareVals
 151              		.thumb
 152              		.thumb_func
 153              		.type	GetHardwareVals, %function
 154              	GetHardwareVals:
 155              	.LFB64:
  62:.\inout.c     **** 
  63:.\inout.c     **** 
  64:.\inout.c     **** 
  65:.\inout.c     **** uint8 GetHardwareVals()
  66:.\inout.c     **** {
 156              		.loc 1 66 0
 157              		.cfi_startproc
 158              		@ args = 0, pretend = 0, frame = 8
 159              		@ frame_needed = 1, uses_anonymous_args = 0
 160 0000 80B5     		push	{r7, lr}
 161              		.cfi_def_cfa_offset 8
 162              		.cfi_offset 7, -8
ARM GAS  C:\Users\Yiquing\AppData\Local\Temp\ccj3mRr7.s 			page 5


 163              		.cfi_offset 14, -4
 164 0002 82B0     		sub	sp, sp, #8
 165              		.cfi_def_cfa_offset 16
 166 0004 00AF     		add	r7, sp, #0
 167              		.cfi_def_cfa_register 7
  67:.\inout.c     **** 	uint8 val = 0;
 168              		.loc 1 67 0
 169 0006 0023     		movs	r3, #0
 170 0008 FB71     		strb	r3, [r7, #7]
  68:.\inout.c     **** 	
  69:.\inout.c     **** 	if (LEDR_IN_Read() == 1)
 171              		.loc 1 69 0
 172 000a FFF7FEFF 		bl	LEDR_IN_Read
 173 000e 0346     		mov	r3, r0
 174 0010 012B     		cmp	r3, #1
 175 0012 04D1     		bne	.L17
  70:.\inout.c     **** 	    val |= LED_IN_RED;
 176              		.loc 1 70 0
 177 0014 FB79     		ldrb	r3, [r7, #7]
 178 0016 43F00103 		orr	r3, r3, #1
 179 001a FB71     		strb	r3, [r7, #7]
 180 001c 03E0     		b	.L18
 181              	.L17:
  71:.\inout.c     ****     else
  72:.\inout.c     ****         val &= ~LED_IN_RED;
 182              		.loc 1 72 0
 183 001e FB79     		ldrb	r3, [r7, #7]
 184 0020 23F00103 		bic	r3, r3, #1
 185 0024 FB71     		strb	r3, [r7, #7]
 186              	.L18:
  73:.\inout.c     ****     
  74:.\inout.c     **** 	if (LEDG_IN_Read() == 1)
 187              		.loc 1 74 0
 188 0026 FFF7FEFF 		bl	LEDG_IN_Read
 189 002a 0346     		mov	r3, r0
 190 002c 012B     		cmp	r3, #1
 191 002e 04D1     		bne	.L19
  75:.\inout.c     **** 	    val |= LED_IN_GRN;
 192              		.loc 1 75 0
 193 0030 FB79     		ldrb	r3, [r7, #7]
 194 0032 43F00203 		orr	r3, r3, #2
 195 0036 FB71     		strb	r3, [r7, #7]
 196 0038 03E0     		b	.L20
 197              	.L19:
  76:.\inout.c     ****     else
  77:.\inout.c     ****        val &= ~LED_IN_GRN; 
 198              		.loc 1 77 0
 199 003a FB79     		ldrb	r3, [r7, #7]
 200 003c 23F00203 		bic	r3, r3, #2
 201 0040 FB71     		strb	r3, [r7, #7]
 202              	.L20:
  78:.\inout.c     **** 
  79:.\inout.c     **** 	if (SOUND_IN_Read() == 1)
 203              		.loc 1 79 0
 204 0042 FFF7FEFF 		bl	SOUND_IN_Read
 205 0046 0346     		mov	r3, r0
 206 0048 012B     		cmp	r3, #1
ARM GAS  C:\Users\Yiquing\AppData\Local\Temp\ccj3mRr7.s 			page 6


 207 004a 04D1     		bne	.L21
  80:.\inout.c     **** 	   val |= SOUNDER_IN;
 208              		.loc 1 80 0
 209 004c FB79     		ldrb	r3, [r7, #7]
 210 004e 43F00403 		orr	r3, r3, #4
 211 0052 FB71     		strb	r3, [r7, #7]
 212 0054 03E0     		b	.L22
 213              	.L21:
  81:.\inout.c     ****     else
  82:.\inout.c     ****        val &= ~SOUNDER_IN;
 214              		.loc 1 82 0
 215 0056 FB79     		ldrb	r3, [r7, #7]
 216 0058 23F00403 		bic	r3, r3, #4
 217 005c FB71     		strb	r3, [r7, #7]
 218              	.L22:
  83:.\inout.c     ****     
  84:.\inout.c     ****     if (TAMPER_IN_Read() == 1)   // Tamper coming from Card Reader
 219              		.loc 1 84 0
 220 005e FFF7FEFF 		bl	TAMPER_IN_Read
 221 0062 0346     		mov	r3, r0
 222 0064 012B     		cmp	r3, #1
 223 0066 04D1     		bne	.L23
  85:.\inout.c     **** 	    val |= TAMPERCR_IN;   //set register bit to 1
 224              		.loc 1 85 0
 225 0068 FB79     		ldrb	r3, [r7, #7]
 226 006a 43F00803 		orr	r3, r3, #8
 227 006e FB71     		strb	r3, [r7, #7]
 228 0070 03E0     		b	.L24
 229              	.L23:
  86:.\inout.c     ****     else
  87:.\inout.c     ****         val &= ~TAMPERCR_IN;  //set register bit to 0
 230              		.loc 1 87 0
 231 0072 FB79     		ldrb	r3, [r7, #7]
 232 0074 23F00803 		bic	r3, r3, #8
 233 0078 FB71     		strb	r3, [r7, #7]
 234              	.L24:
  88:.\inout.c     ****    
  89:.\inout.c     ****     if(REED_1_Read() == 1)  // Reed Switch 1 - local ICM tamper
 235              		.loc 1 89 0
 236 007a FFF7FEFF 		bl	REED_1_Read
 237 007e 0346     		mov	r3, r0
 238 0080 012B     		cmp	r3, #1
 239 0082 04D1     		bne	.L25
  90:.\inout.c     ****       val |= REED_1_IN;
 240              		.loc 1 90 0
 241 0084 FB79     		ldrb	r3, [r7, #7]
 242 0086 43F01003 		orr	r3, r3, #16
 243 008a FB71     		strb	r3, [r7, #7]
 244 008c 03E0     		b	.L26
 245              	.L25:
  91:.\inout.c     ****     else
  92:.\inout.c     ****       val &= ~REED_1_IN;
 246              		.loc 1 92 0
 247 008e FB79     		ldrb	r3, [r7, #7]
 248 0090 23F01003 		bic	r3, r3, #16
 249 0094 FB71     		strb	r3, [r7, #7]
 250              	.L26:
ARM GAS  C:\Users\Yiquing\AppData\Local\Temp\ccj3mRr7.s 			page 7


  93:.\inout.c     **** /*    
  94:.\inout.c     ****     if (REED_2_Read() == 1) // Reed Switch 2 - local ICM tamper  *** THIS SECTION DEFEATED DUE TO I
  95:.\inout.c     ****       val |= REED_2_IN;
  96:.\inout.c     ****     else 
  97:.\inout.c     ****       val &= ~REED_2_IN;
  98:.\inout.c     **** */
  99:.\inout.c     ****       val |= REED_2_IN; // REED_2 is always set to 1 while defeated - remove this when re-enabled
 251              		.loc 1 99 0
 252 0096 FB79     		ldrb	r3, [r7, #7]
 253 0098 43F02003 		orr	r3, r3, #32
 254 009c FB71     		strb	r3, [r7, #7]
 100:.\inout.c     ****     
 101:.\inout.c     ****     
 102:.\inout.c     ****     if (buttonReleased){
 255              		.loc 1 102 0
 256 009e 2A4B     		ldr	r3, .L33
 257 00a0 1B78     		ldrb	r3, [r3]	@ zero_extendqisi2
 258 00a2 002B     		cmp	r3, #0
 259 00a4 47D0     		beq	.L27
 103:.\inout.c     ****         buttonReleased = 0;
 260              		.loc 1 103 0
 261 00a6 284B     		ldr	r3, .L33
 262 00a8 0022     		movs	r2, #0
 263 00aa 1A70     		strb	r2, [r3]
 104:.\inout.c     ****         if(buttonDuration < FCTRYRST_TIME_MS){ //less than 5 seconds
 264              		.loc 1 104 0
 265 00ac 274B     		ldr	r3, .L33+4
 266 00ae 1A68     		ldr	r2, [r3]
 267 00b0 41F28733 		movw	r3, #4999
 268 00b4 9A42     		cmp	r2, r3
 269 00b6 08DC     		bgt	.L28
 105:.\inout.c     ****             val |= 0x40; 
 270              		.loc 1 105 0
 271 00b8 FB79     		ldrb	r3, [r7, #7]
 272 00ba 43F04003 		orr	r3, r3, #64
 273 00be FB71     		strb	r3, [r7, #7]
 106:.\inout.c     ****             MyI2C_Regs.factory_reset = 0;
 274              		.loc 1 106 0
 275 00c0 234B     		ldr	r3, .L33+8
 276 00c2 0022     		movs	r2, #0
 277 00c4 83F84220 		strb	r2, [r3, #66]
 278 00c8 39E0     		b	.L31
 279              	.L28:
 107:.\inout.c     ****         }else if(buttonDuration >=FCTRYRST_TIME_MS && buttonDuration < RSTR_TIME_MS){ //5~45 second
 280              		.loc 1 107 0
 281 00ca 204B     		ldr	r3, .L33+4
 282 00cc 1A68     		ldr	r2, [r3]
 283 00ce 41F28733 		movw	r3, #4999
 284 00d2 9A42     		cmp	r2, r3
 285 00d4 17DD     		ble	.L30
 286              		.loc 1 107 0 is_stmt 0 discriminator 1
 287 00d6 1D4B     		ldr	r3, .L33+4
 288 00d8 1A68     		ldr	r2, [r3]
 289 00da 4AF6C773 		movw	r3, #44999
 290 00de 9A42     		cmp	r2, r3
 291 00e0 11DC     		bgt	.L30
 108:.\inout.c     ****             LED_RED_Write(0);
ARM GAS  C:\Users\Yiquing\AppData\Local\Temp\ccj3mRr7.s 			page 8


 292              		.loc 1 108 0 is_stmt 1
 293 00e2 0020     		movs	r0, #0
 294 00e4 FFF7FEFF 		bl	LED_RED_Write
 109:.\inout.c     ****             LED_GRN_Write(0);
 295              		.loc 1 109 0
 296 00e8 0020     		movs	r0, #0
 297 00ea FFF7FEFF 		bl	LED_GRN_Write
 110:.\inout.c     ****             LED_YEL_Write(0);
 298              		.loc 1 110 0
 299 00ee 0020     		movs	r0, #0
 300 00f0 FFF7FEFF 		bl	LED_YEL_Write
 111:.\inout.c     ****             val &= 0xBF;  // active reset initiated
 301              		.loc 1 111 0
 302 00f4 FB79     		ldrb	r3, [r7, #7]
 303 00f6 23F04003 		bic	r3, r3, #64
 304 00fa FB71     		strb	r3, [r7, #7]
 112:.\inout.c     ****             MyI2C_Regs.factory_reset = FACRST_CODE;
 305              		.loc 1 112 0
 306 00fc 144B     		ldr	r3, .L33+8
 307 00fe 0F22     		movs	r2, #15
 308 0100 83F84220 		strb	r2, [r3, #66]
 309 0104 1BE0     		b	.L31
 310              	.L30:
 113:.\inout.c     ****         }else if(buttonDuration>=RSTR_TIME_MS){ //45 or more seconds
 311              		.loc 1 113 0
 312 0106 114B     		ldr	r3, .L33+4
 313 0108 1A68     		ldr	r2, [r3]
 314 010a 4AF6C773 		movw	r3, #44999
 315 010e 9A42     		cmp	r2, r3
 316 0110 15DD     		ble	.L31
 114:.\inout.c     ****             LED_RED_Write(0);
 317              		.loc 1 114 0
 318 0112 0020     		movs	r0, #0
 319 0114 FFF7FEFF 		bl	LED_RED_Write
 115:.\inout.c     ****             LED_GRN_Write(0);
 320              		.loc 1 115 0
 321 0118 0020     		movs	r0, #0
 322 011a FFF7FEFF 		bl	LED_GRN_Write
 116:.\inout.c     ****             LED_YEL_Write(0);
 323              		.loc 1 116 0
 324 011e 0020     		movs	r0, #0
 325 0120 FFF7FEFF 		bl	LED_YEL_Write
 117:.\inout.c     ****             val &= 0xBF;  // 
 326              		.loc 1 117 0
 327 0124 FB79     		ldrb	r3, [r7, #7]
 328 0126 23F04003 		bic	r3, r3, #64
 329 012a FB71     		strb	r3, [r7, #7]
 118:.\inout.c     ****             MyI2C_Regs.factory_reset = RESTRE_CODE;
 330              		.loc 1 118 0
 331 012c 084B     		ldr	r3, .L33+8
 332 012e 9922     		movs	r2, #153
 333 0130 83F84220 		strb	r2, [r3, #66]
 334 0134 03E0     		b	.L31
 335              	.L27:
 119:.\inout.c     ****         }
 120:.\inout.c     ****     }else{
 121:.\inout.c     ****         val |= 0x40;
ARM GAS  C:\Users\Yiquing\AppData\Local\Temp\ccj3mRr7.s 			page 9


 336              		.loc 1 121 0
 337 0136 FB79     		ldrb	r3, [r7, #7]
 338 0138 43F04003 		orr	r3, r3, #64
 339 013c FB71     		strb	r3, [r7, #7]
 340              	.L31:
 122:.\inout.c     ****     }
 123:.\inout.c     **** /*    if (SW_Rst_Read() == 0) // factory reset switch
 124:.\inout.c     ****     {  
 125:.\inout.c     ****       if(pwr_cnt >= 5000)   // switch must be held 'on' for 5 seconds
 126:.\inout.c     ****       {
 127:.\inout.c     ****           LED_RED_Write(0);
 128:.\inout.c     ****           LED_GRN_Write(0);
 129:.\inout.c     ****           LED_YEL_Write(0);
 130:.\inout.c     ****           val &= 0xBF;  // active reset initiated
 131:.\inout.c     ****           MyI2C_Regs.factory_reset = 1;
 132:.\inout.c     ****       }
 133:.\inout.c     ****       else
 134:.\inout.c     ****       {
 135:.\inout.c     ****           pwr_cnt++;
 136:.\inout.c     ****           val |= 0x40; 
 137:.\inout.c     ****           MyI2C_Regs.factory_reset = 0;
 138:.\inout.c     ****       }
 139:.\inout.c     ****     }
 140:.\inout.c     ****     else
 141:.\inout.c     ****     {
 142:.\inout.c     ****        pwr_cnt = 0;
 143:.\inout.c     ****        val |= 0x40;
 144:.\inout.c     ****        MyI2C_Regs.factory_reset = 0;
 145:.\inout.c     ****     }
 146:.\inout.c     ****     
 147:.\inout.c     ****     //val = 0;  //turn off - debug only 
 148:.\inout.c     **** */
 149:.\inout.c     ****     return val;
 341              		.loc 1 149 0
 342 013e FB79     		ldrb	r3, [r7, #7]	@ zero_extendqisi2
 150:.\inout.c     **** }
 343              		.loc 1 150 0
 344 0140 1846     		mov	r0, r3
 345 0142 0837     		adds	r7, r7, #8
 346 0144 BD46     		mov	sp, r7
 347              		@ sp needed
 348 0146 80BD     		pop	{r7, pc}
 349              	.L34:
 350              		.align	2
 351              	.L33:
 352 0148 00000000 		.word	buttonReleased
 353 014c 00000000 		.word	buttonDuration
 354 0150 00000000 		.word	MyI2C_Regs
 355              		.cfi_endproc
 356              	.LFE64:
 357              		.size	GetHardwareVals, .-GetHardwareVals
 358              		.section	.text.HandleOutputs,"ax",%progbits
 359              		.align	2
 360              		.global	HandleOutputs
 361              		.thumb
 362              		.thumb_func
 363              		.type	HandleOutputs, %function
ARM GAS  C:\Users\Yiquing\AppData\Local\Temp\ccj3mRr7.s 			page 10


 364              	HandleOutputs:
 365              	.LFB65:
 151:.\inout.c     **** 
 152:.\inout.c     **** void  HandleOutputs()   // this executes every 1 ms on Tamper_Timer_ISR_Interrupt
 153:.\inout.c     **** {
 366              		.loc 1 153 0
 367              		.cfi_startproc
 368              		@ args = 0, pretend = 0, frame = 8
 369              		@ frame_needed = 1, uses_anonymous_args = 0
 370 0000 80B5     		push	{r7, lr}
 371              		.cfi_def_cfa_offset 8
 372              		.cfi_offset 7, -8
 373              		.cfi_offset 14, -4
 374 0002 82B0     		sub	sp, sp, #8
 375              		.cfi_def_cfa_offset 16
 376 0004 00AF     		add	r7, sp, #0
 377              		.cfi_def_cfa_register 7
 154:.\inout.c     **** 	char stat = MyI2C_Regs.status_in;
 378              		.loc 1 154 0
 379 0006 134B     		ldr	r3, .L40
 380 0008 5B78     		ldrb	r3, [r3, #1]
 381 000a FB71     		strb	r3, [r7, #7]
 155:.\inout.c     ****     if( stat & 0x01)
 382              		.loc 1 155 0
 383 000c FB79     		ldrb	r3, [r7, #7]	@ zero_extendqisi2
 384 000e 03F00103 		and	r3, r3, #1
 385 0012 002B     		cmp	r3, #0
 386 0014 1BD0     		beq	.L35
 156:.\inout.c     ****     {
 157:.\inout.c     ****         if((stat & 0x2) == 0x2)
 387              		.loc 1 157 0
 388 0016 FB79     		ldrb	r3, [r7, #7]	@ zero_extendqisi2
 389 0018 03F00203 		and	r3, r3, #2
 390 001c 002B     		cmp	r3, #0
 391 001e 04D0     		beq	.L37
 158:.\inout.c     ****            SetHardwareVals(MyI2C_Regs.acs_inputs);
 392              		.loc 1 158 0
 393 0020 0C4B     		ldr	r3, .L40
 394 0022 5B79     		ldrb	r3, [r3, #5]	@ zero_extendqisi2
 395 0024 1846     		mov	r0, r3
 396 0026 FFF7FEFF 		bl	SetHardwareVals
 397              	.L37:
 159:.\inout.c     ****         
 160:.\inout.c     ****         if(stat & 0x04)
 398              		.loc 1 160 0
 399 002a FB79     		ldrb	r3, [r7, #7]	@ zero_extendqisi2
 400 002c 03F00403 		and	r3, r3, #4
 401 0030 002B     		cmp	r3, #0
 402 0032 01D0     		beq	.L38
 161:.\inout.c     ****             SendOSDP();
 403              		.loc 1 161 0
 404 0034 FFF7FEFF 		bl	SendOSDP
 405              	.L38:
 162:.\inout.c     ****             
 163:.\inout.c     ****         if(stat & 0x08)
 406              		.loc 1 163 0
 407 0038 FB79     		ldrb	r3, [r7, #7]	@ zero_extendqisi2
ARM GAS  C:\Users\Yiquing\AppData\Local\Temp\ccj3mRr7.s 			page 11


 408 003a 03F00803 		and	r3, r3, #8
 409 003e 002B     		cmp	r3, #0
 410 0040 02D0     		beq	.L39
 164:.\inout.c     ****             card_ack = 1;    
 411              		.loc 1 164 0
 412 0042 054B     		ldr	r3, .L40+4
 413 0044 0122     		movs	r2, #1
 414 0046 1A60     		str	r2, [r3]
 415              	.L39:
 165:.\inout.c     ****             
 166:.\inout.c     ****         MyI2C_Regs.status_in = 0; 
 416              		.loc 1 166 0
 417 0048 024B     		ldr	r3, .L40
 418 004a 0022     		movs	r2, #0
 419 004c 5A70     		strb	r2, [r3, #1]
 420              	.L35:
 167:.\inout.c     ****     }
 168:.\inout.c     ****    
 169:.\inout.c     ****     
 170:.\inout.c     **** }
 421              		.loc 1 170 0
 422 004e 0837     		adds	r7, r7, #8
 423 0050 BD46     		mov	sp, r7
 424              		@ sp needed
 425 0052 80BD     		pop	{r7, pc}
 426              	.L41:
 427              		.align	2
 428              	.L40:
 429 0054 00000000 		.word	MyI2C_Regs
 430 0058 00000000 		.word	card_ack
 431              		.cfi_endproc
 432              	.LFE65:
 433              		.size	HandleOutputs, .-HandleOutputs
 434              		.section	.text.HandleInputs,"ax",%progbits
 435              		.align	2
 436              		.global	HandleInputs
 437              		.thumb
 438              		.thumb_func
 439              		.type	HandleInputs, %function
 440              	HandleInputs:
 441              	.LFB66:
 171:.\inout.c     **** 
 172:.\inout.c     **** 
 173:.\inout.c     **** void HandleInputs()   // this executes every 1 ms on Tamper_Timer_ISR_Interrupt
 174:.\inout.c     **** {
 442              		.loc 1 174 0
 443              		.cfi_startproc
 444              		@ args = 0, pretend = 0, frame = 8
 445              		@ frame_needed = 1, uses_anonymous_args = 0
 446 0000 80B5     		push	{r7, lr}
 447              		.cfi_def_cfa_offset 8
 448              		.cfi_offset 7, -8
 449              		.cfi_offset 14, -4
 450 0002 82B0     		sub	sp, sp, #8
 451              		.cfi_def_cfa_offset 16
 452 0004 00AF     		add	r7, sp, #0
 453              		.cfi_def_cfa_register 7
ARM GAS  C:\Users\Yiquing\AppData\Local\Temp\ccj3mRr7.s 			page 12


 175:.\inout.c     ****     char current_t1;
 176:.\inout.c     ****     char current_t2;
 177:.\inout.c     ****     
 178:.\inout.c     ****     /* TAMPER OUT signal to ACS Panel  GRI 1-13-15
 179:.\inout.c     ****        this accounts for configuration of tamper input from card reader  GRI 1-13-15 */
 180:.\inout.c     ****     if( (REED_1_Read() == 0)  
 454              		.loc 1 180 0
 455 0006 FFF7FEFF 		bl	REED_1_Read
 456 000a 0346     		mov	r3, r0
 457 000c 002B     		cmp	r3, #0
 458 000e 11D0     		beq	.L43
 181:.\inout.c     ****         /*   || (REED_2_Read() == 0)  // disabled GRI 2-4-15 */
 182:.\inout.c     ****         || ((TAMPER_IN_Read() == 0) && (TAMPERCR_POLARITY == 1)) 
 459              		.loc 1 182 0
 460 0010 FFF7FEFF 		bl	TAMPER_IN_Read
 461 0014 0346     		mov	r3, r0
 462 0016 002B     		cmp	r3, #0
 463 0018 03D1     		bne	.L44
 464              		.loc 1 182 0 is_stmt 0 discriminator 1
 465 001a 284B     		ldr	r3, .L52
 466 001c 1B68     		ldr	r3, [r3]
 467 001e 012B     		cmp	r3, #1
 468 0020 08D0     		beq	.L43
 469              	.L44:
 183:.\inout.c     ****         || ((TAMPER_IN_Read() == 1) && (TAMPERCR_POLARITY == 0)) )  
 470              		.loc 1 183 0 is_stmt 1
 471 0022 FFF7FEFF 		bl	TAMPER_IN_Read
 472 0026 0346     		mov	r3, r0
 473 0028 012B     		cmp	r3, #1
 474 002a 0AD1     		bne	.L45
 475              		.loc 1 183 0 is_stmt 0 discriminator 1
 476 002c 234B     		ldr	r3, .L52
 477 002e 1B68     		ldr	r3, [r3]
 478 0030 002B     		cmp	r3, #0
 479 0032 06D1     		bne	.L45
 480              	.L43:
 184:.\inout.c     ****         
 185:.\inout.c     ****     {
 186:.\inout.c     ****        TAMPER_OUT_Write(0); // TAMPER_OUT to ACS is ACTIVE LOW
 481              		.loc 1 186 0 is_stmt 1
 482 0034 0020     		movs	r0, #0
 483 0036 FFF7FEFF 		bl	TAMPER_OUT_Write
 187:.\inout.c     ****        LED_RED_Write(0); //LED on
 484              		.loc 1 187 0
 485 003a 0020     		movs	r0, #0
 486 003c FFF7FEFF 		bl	LED_RED_Write
 487 0040 05E0     		b	.L46
 488              	.L45:
 188:.\inout.c     ****     }
 189:.\inout.c     ****     else
 190:.\inout.c     ****     {
 191:.\inout.c     ****        TAMPER_OUT_Write(1); // TAMPER_OUT to ACS is INACTIVE HIGH
 489              		.loc 1 191 0
 490 0042 0120     		movs	r0, #1
 491 0044 FFF7FEFF 		bl	TAMPER_OUT_Write
 192:.\inout.c     ****        LED_RED_Write(1); //LED off
 492              		.loc 1 192 0
ARM GAS  C:\Users\Yiquing\AppData\Local\Temp\ccj3mRr7.s 			page 13


 493 0048 0120     		movs	r0, #1
 494 004a FFF7FEFF 		bl	LED_RED_Write
 495              	.L46:
 193:.\inout.c     ****     }
 194:.\inout.c     ****     // Tamper LED matches tamper_out signal status (ICM board only)
 195:.\inout.c     ****     
 196:.\inout.c     ****     
 197:.\inout.c     ****     //This section checks for input signal changes
 198:.\inout.c     **** 
 199:.\inout.c     ****     current_t1 = GetHardwareVals();  // read inputs first time
 496              		.loc 1 199 0
 497 004e FFF7FEFF 		bl	GetHardwareVals
 498 0052 0346     		mov	r3, r0
 499 0054 FB71     		strb	r3, [r7, #7]
 200:.\inout.c     **** 	if (current_t1 != old)  //change occurred?
 500              		.loc 1 200 0
 501 0056 1A4B     		ldr	r3, .L52+4
 502 0058 1B78     		ldrb	r3, [r3]	@ zero_extendqisi2
 503 005a FA79     		ldrb	r2, [r7, #7]	@ zero_extendqisi2
 504 005c 9A42     		cmp	r2, r3
 505 005e 26D0     		beq	.L47
 201:.\inout.c     **** 	{
 202:.\inout.c     ****         CyDelayUs(100); //delay 100us for debounce
 506              		.loc 1 202 0
 507 0060 6420     		movs	r0, #100
 508 0062 FFF7FEFF 		bl	CyDelayUs
 203:.\inout.c     ****         current_t2 = GetHardwareVals();  // read inputs second time
 509              		.loc 1 203 0
 510 0066 FFF7FEFF 		bl	GetHardwareVals
 511 006a 0346     		mov	r3, r0
 512 006c BB71     		strb	r3, [r7, #6]
 204:.\inout.c     ****         
 205:.\inout.c     ****         if (current_t1 == current_t2)    // data is stable?
 513              		.loc 1 205 0
 514 006e FA79     		ldrb	r2, [r7, #7]	@ zero_extendqisi2
 515 0070 BB79     		ldrb	r3, [r7, #6]	@ zero_extendqisi2
 516 0072 9A42     		cmp	r2, r3
 517 0074 0DD1     		bne	.L48
 206:.\inout.c     ****         {   
 207:.\inout.c     ****             // If Data is stable, change the status reg
 208:.\inout.c     ****             
 209:.\inout.c     **** 	        MyI2C_Regs.acs_outputs = current_t2;                //set output reg to MB
 518              		.loc 1 209 0
 519 0076 134B     		ldr	r3, .L52+8
 520 0078 BA79     		ldrb	r2, [r7, #6]
 521 007a 1A71     		strb	r2, [r3, #4]
 210:.\inout.c     ****             old = current_t2;                                   //store latest value
 522              		.loc 1 210 0
 523 007c 104B     		ldr	r3, .L52+4
 524 007e BA79     		ldrb	r2, [r7, #6]
 525 0080 1A70     		strb	r2, [r3]
 211:.\inout.c     **** 	        MyI2C_Regs.status |= (STAT_ACS_IN | STAT_CHANGE);   //indicate change in ACS_IN
 526              		.loc 1 211 0
 527 0082 104B     		ldr	r3, .L52+8
 528 0084 1B78     		ldrb	r3, [r3]	@ zero_extendqisi2
 529 0086 43F00503 		orr	r3, r3, #5
 530 008a DAB2     		uxtb	r2, r3
ARM GAS  C:\Users\Yiquing\AppData\Local\Temp\ccj3mRr7.s 			page 14


 531 008c 0D4B     		ldr	r3, .L52+8
 532 008e 1A70     		strb	r2, [r3]
 533 0090 10E0     		b	.L42
 534              	.L48:
 212:.\inout.c     ****         }
 213:.\inout.c     ****         else // data changed again
 214:.\inout.c     ****         {
 215:.\inout.c     ****             if (current_t2 == old) // did it return to the old value?
 535              		.loc 1 215 0
 536 0092 0B4B     		ldr	r3, .L52+4
 537 0094 1B78     		ldrb	r3, [r3]	@ zero_extendqisi2
 538 0096 BA79     		ldrb	r2, [r7, #6]	@ zero_extendqisi2
 539 0098 9A42     		cmp	r2, r3
 540 009a 03D1     		bne	.L50
 216:.\inout.c     ****             {
 217:.\inout.c     ****                 old = current_t2;  // latest value = same value 
 541              		.loc 1 217 0
 542 009c 084B     		ldr	r3, .L52+4
 543 009e BA79     		ldrb	r2, [r7, #6]
 544 00a0 1A70     		strb	r2, [r3]
 545 00a2 07E0     		b	.L42
 546              	.L50:
 218:.\inout.c     ****             }
 219:.\inout.c     ****             else // yet another new value, holdoff on reporting changes yet
 220:.\inout.c     ****             {
 221:.\inout.c     ****                 old = old; // keep previous value in case there were 2 or more nearly coincident ch
 547              		.loc 1 221 0
 548 00a4 064B     		ldr	r3, .L52+4
 549 00a6 1A78     		ldrb	r2, [r3]	@ zero_extendqisi2
 550 00a8 054B     		ldr	r3, .L52+4
 551 00aa 1A70     		strb	r2, [r3]
 552 00ac 02E0     		b	.L42
 553              	.L47:
 222:.\inout.c     ****             } 
 223:.\inout.c     ****         } 
 224:.\inout.c     **** 	}
 225:.\inout.c     ****     else
 226:.\inout.c     ****     {
 227:.\inout.c     ****         old = current_t1; //store t1 value, no change
 554              		.loc 1 227 0
 555 00ae 044B     		ldr	r3, .L52+4
 556 00b0 FA79     		ldrb	r2, [r7, #7]
 557 00b2 1A70     		strb	r2, [r3]
 558              	.L42:
 228:.\inout.c     ****     }
 229:.\inout.c     **** }
 559              		.loc 1 229 0
 560 00b4 0837     		adds	r7, r7, #8
 561 00b6 BD46     		mov	sp, r7
 562              		@ sp needed
 563 00b8 80BD     		pop	{r7, pc}
 564              	.L53:
 565 00ba 00BF     		.align	2
 566              	.L52:
 567 00bc 00000000 		.word	TAMPERCR_POLARITY
 568 00c0 00000000 		.word	old
 569 00c4 00000000 		.word	MyI2C_Regs
ARM GAS  C:\Users\Yiquing\AppData\Local\Temp\ccj3mRr7.s 			page 15


 570              		.cfi_endproc
 571              	.LFE66:
 572              		.size	HandleInputs, .-HandleInputs
 573              		.text
 574              	.Letext0:
 575              		.file 2 "c:\\program files (x86)\\cypress\\psoc creator\\3.2\\psoc creator\\import\\gnu\\arm\\4.8.
 576              		.file 3 "c:\\program files (x86)\\cypress\\psoc creator\\3.2\\psoc creator\\import\\gnu\\arm\\4.8.
 577              		.file 4 "Generated_Source\\PSoC5/cytypes.h"
 578              		.file 5 ".\\softuart.h"
 579              		.file 6 ".\\system.h"
 580              		.file 7 "Generated_Source\\PSoC5/core_cm3.h"