ARM GAS  C:\Users\Yiquing\AppData\Local\Temp\ccj6BAT4.s 			page 1


   1              		.syntax unified
   2              		.cpu cortex-m3
   3              		.fpu softvfp
   4              		.eabi_attribute 20, 1
   5              		.eabi_attribute 21, 1
   6              		.eabi_attribute 23, 3
   7              		.eabi_attribute 24, 1
   8              		.eabi_attribute 25, 1
   9              		.eabi_attribute 26, 1
  10              		.eabi_attribute 30, 6
  11              		.eabi_attribute 34, 1
  12              		.eabi_attribute 18, 4
  13              		.thumb
  14              		.file	"main.c"
  15              		.text
  16              	.Ltext0:
  17              		.cfi_sections	.debug_frame
  18              		.comm	s,40,4
  19              		.comm	currentAccessType,1,1
  20              		.comm	old,1,1
  21              		.comm	TAMPERCR_POLARITY,4,4
  22              		.comm	card_ack,4,4
  23              		.comm	card_in_buf,4,4
  24              		.comm	got_pulse,1,1
  25              		.comm	f2f_pulsewidth,4,4
  26              		.comm	timeout_cnt,4,4
  27              		.comm	activate_f2ftimer,1,1
  28              		.comm	MyI2C_Regs,256,4
  29              		.section	.text.SetVersion,"ax",%progbits
  30              		.align	2
  31              		.global	SetVersion
  32              		.thumb
  33              		.thumb_func
  34              		.type	SetVersion, %function
  35              	SetVersion:
  36              	.LFB63:
  37              		.file 1 ".\\main.c"
   1:.\main.c      **** /* ========================================
   2:.\main.c      ****  *
   3:.\main.c      ****  * NanoNXT Breakout Board
   4:.\main.c      ****  * Copyright Eyelock.Inc, 2014, 2015
   5:.\main.c      ****  * All Rights Reserved
   6:.\main.c      ****  * UNPUBLISHED, LICENSED SOFTWARE.
   7:.\main.c      ****  * CONFIDENTIAL AND PROPRIETARY INFORMATION
   8:.\main.c      ****  * 
   9:.\main.c      ****  * Version History:
  10:.\main.c      ****  * ================
  11:.\main.c      ****  * 3.0.0 : Ported Nano Breakout board functionality without HID/F2F.
  12:.\main.c      ****  * 3.0.1 : Relay output moved from regular output mode to auxillary output mode
  13:.\main.c      ****  * 3.0.2 : F2F functionality Added.
  14:.\main.c      ****  * 3.0.3 : HID functionality added using SW UART for 26 bit weigand & SW UART tested on PAC comapti
  15:.\main.c      ****  * 3.0.4 : Tamper In is directly routed to Tamper out
  16:.\main.c      ****  * 3.0.5 : Software Reset button functionality added
  17:.\main.c      ****  * 3.0.6 : HID functionality modified to support all types of weigand bit formats. 
  18:.\main.c      ****  * 3.0.7 : Bootloader functionality added.
  19:.\main.c      ****  * 3.0.8 : Reed Tamper Inverted for Beta.
  20:.\main.c      ****  * 3.0.9 : Ported code for ICM 3(PSOC 5).
ARM GAS  C:\Users\Yiquing\AppData\Local\Temp\ccj6BAT4.s 			page 2


  21:.\main.c      ****  * 3.1.0 : Bootloader functionality added to ICM3.
  22:.\main.c      ****  * 3.1.1 : GRI 1-13-15: Tamper signals repaired. Tamper moved to main code block.  Tamper polarity 
  23:.\main.c      ****  * 3.1.2 : GRI 1-28-15: Tamper moved to HandleInputs.  I2C bus clock was corrected to be 100kHz to 
  24:.\main.c      ****  * 3.1.3 : GRI 1-30-15: Removed all "ClearBuffer()" instances.
  25:.\main.c      ****  * 3.1.4 : GRI 2-02-15: Added ACK bit for card reads to prevent hanging after card read. PSoC will 
  26:.\main.c      ****  * 3.1.5 : GRI 2-04-15: Extensive revision to input signal handler to add noise immunity/debounce (
  27:.\main.c      ****  * 3.1.6 : Added F2F card reader functionality
  28:.\main.c      ****  * 3.1.7 : Debouncer added to WD0 && Functionality added to detect pulsewidth in F2F
  29:.\main.c      ****  * 3.1.8 : Added F2F conditionality to turn on timers
  30:.\main.c      ****  * 3.1.9 : Fixed the bootloader bug for PSOC creator 3.1  Use the debug NxtICM3_bootloader for refe
  31:.\main.c      ****  * 3.1.10 : Make F2F pulse timing adaptive to the input signal
  32:.\main.c      **** 
  33:.\main.c      ****  * ========================================
  34:.\main.c      **** */
  35:.\main.c      **** #include <project.h>
  36:.\main.c      **** #include "system.h"
  37:.\main.c      **** #include "wiegand.h"
  38:.\main.c      **** #include "power.h"
  39:.\main.c      **** #include "inout.h"
  40:.\main.c      **** #include "i2cuart.h"
  41:.\main.c      **** 
  42:.\main.c      **** 
  43:.\main.c      **** I2C_Regs MyI2C_Regs;
  44:.\main.c      **** 
  45:.\main.c      **** void SU_Isr(SOFT_UART_STRUCT *s);
  46:.\main.c      ****  
  47:.\main.c      **** 
  48:.\main.c      **** /***********************************
  49:.\main.c      ****     Sets the breakout board version.
  50:.\main.c      **** *************************************/
  51:.\main.c      **** void SetVersion()
  52:.\main.c      **** {
  38              		.loc 1 52 0
  39              		.cfi_startproc
  40              		@ args = 0, pretend = 0, frame = 0
  41              		@ frame_needed = 1, uses_anonymous_args = 0
  42              		@ link register save eliminated.
  43 0000 80B4     		push	{r7}
  44              		.cfi_def_cfa_offset 4
  45              		.cfi_offset 7, -4
  46 0002 00AF     		add	r7, sp, #0
  47              		.cfi_def_cfa_register 7
  53:.\main.c      ****     MyI2C_Regs.hw_version[0] = 0x71;
  48              		.loc 1 53 0
  49 0004 0D4B     		ldr	r3, .L2
  50 0006 7122     		movs	r2, #113
  51 0008 83F84620 		strb	r2, [r3, #70]
  54:.\main.c      ****     MyI2C_Regs.hw_version[1] = 0x42;
  52              		.loc 1 54 0
  53 000c 0B4B     		ldr	r3, .L2
  54 000e 4222     		movs	r2, #66
  55 0010 83F84720 		strb	r2, [r3, #71]
  55:.\main.c      ****     MyI2C_Regs.hw_version[2] = 0x0A;
  56              		.loc 1 55 0
  57 0014 094B     		ldr	r3, .L2
  58 0016 0A22     		movs	r2, #10
  59 0018 83F84820 		strb	r2, [r3, #72]
ARM GAS  C:\Users\Yiquing\AppData\Local\Temp\ccj6BAT4.s 			page 3


  56:.\main.c      ****     
  57:.\main.c      ****     MyI2C_Regs.sw_version[0] = 3;
  60              		.loc 1 57 0
  61 001c 074B     		ldr	r3, .L2
  62 001e 0322     		movs	r2, #3
  63 0020 83F84320 		strb	r2, [r3, #67]
  58:.\main.c      ****     MyI2C_Regs.sw_version[1] = 1;
  64              		.loc 1 58 0
  65 0024 054B     		ldr	r3, .L2
  66 0026 0122     		movs	r2, #1
  67 0028 83F84420 		strb	r2, [r3, #68]
  59:.\main.c      ****     MyI2C_Regs.sw_version[2] = 15;
  68              		.loc 1 59 0
  69 002c 034B     		ldr	r3, .L2
  70 002e 0F22     		movs	r2, #15
  71 0030 83F84520 		strb	r2, [r3, #69]
  60:.\main.c      **** }
  72              		.loc 1 60 0
  73 0034 BD46     		mov	sp, r7
  74              		@ sp needed
  75 0036 5DF8047B 		ldr	r7, [sp], #4
  76 003a 7047     		bx	lr
  77              	.L3:
  78              		.align	2
  79              	.L2:
  80 003c 00000000 		.word	MyI2C_Regs
  81              		.cfi_endproc
  82              	.LFE63:
  83              		.size	SetVersion, .-SetVersion
  84              		.section	.text.TriggerRelay1,"ax",%progbits
  85              		.align	2
  86              		.global	TriggerRelay1
  87              		.thumb
  88              		.thumb_func
  89              		.type	TriggerRelay1, %function
  90              	TriggerRelay1:
  91              	.LFB64:
  61:.\main.c      **** 
  62:.\main.c      **** 
  63:.\main.c      **** /*************************************
  64:.\main.c      ****     Triggers Relay 1 as main output
  65:.\main.c      ****     in msecs. (Functionality not used now)     
  66:.\main.c      **** **************************************/
  67:.\main.c      **** void TriggerRelay1(int waitMSecs)
  68:.\main.c      **** {
  92              		.loc 1 68 0
  93              		.cfi_startproc
  94              		@ args = 0, pretend = 0, frame = 8
  95              		@ frame_needed = 1, uses_anonymous_args = 0
  96 0000 80B5     		push	{r7, lr}
  97              		.cfi_def_cfa_offset 8
  98              		.cfi_offset 7, -8
  99              		.cfi_offset 14, -4
 100 0002 82B0     		sub	sp, sp, #8
 101              		.cfi_def_cfa_offset 16
 102 0004 00AF     		add	r7, sp, #0
 103              		.cfi_def_cfa_register 7
ARM GAS  C:\Users\Yiquing\AppData\Local\Temp\ccj6BAT4.s 			page 4


 104 0006 7860     		str	r0, [r7, #4]
  69:.\main.c      ****     
  70:.\main.c      ****     LED_GRN_Write(0) ;
 105              		.loc 1 70 0
 106 0008 0020     		movs	r0, #0
 107 000a FFF7FEFF 		bl	LED_GRN_Write
  71:.\main.c      ****     LED_YEL_Write(0);
 108              		.loc 1 71 0
 109 000e 0020     		movs	r0, #0
 110 0010 FFF7FEFF 		bl	LED_YEL_Write
  72:.\main.c      **** 	RELAY_A_Write(1);
 111              		.loc 1 72 0
 112 0014 0120     		movs	r0, #1
 113 0016 FFF7FEFF 		bl	RELAY_A_Write
  73:.\main.c      **** 	CyDelay(waitMSecs);
 114              		.loc 1 73 0
 115 001a 7B68     		ldr	r3, [r7, #4]
 116 001c 1846     		mov	r0, r3
 117 001e FFF7FEFF 		bl	CyDelay
  74:.\main.c      **** 	LED_GRN_Write(1) ;
 118              		.loc 1 74 0
 119 0022 0120     		movs	r0, #1
 120 0024 FFF7FEFF 		bl	LED_GRN_Write
  75:.\main.c      ****     LED_YEL_Write(1) ;
 121              		.loc 1 75 0
 122 0028 0120     		movs	r0, #1
 123 002a FFF7FEFF 		bl	LED_YEL_Write
  76:.\main.c      **** 	RELAY_A_Write(0);
 124              		.loc 1 76 0
 125 002e 0020     		movs	r0, #0
 126 0030 FFF7FEFF 		bl	RELAY_A_Write
  77:.\main.c      **** 	
  78:.\main.c      **** }
 127              		.loc 1 78 0
 128 0034 0837     		adds	r7, r7, #8
 129 0036 BD46     		mov	sp, r7
 130              		@ sp needed
 131 0038 80BD     		pop	{r7, pc}
 132              		.cfi_endproc
 133              	.LFE64:
 134              		.size	TriggerRelay1, .-TriggerRelay1
 135 003a 00BF     		.section	.text.TriggerRelay2,"ax",%progbits
 136              		.align	2
 137              		.global	TriggerRelay2
 138              		.thumb
 139              		.thumb_func
 140              		.type	TriggerRelay2, %function
 141              	TriggerRelay2:
 142              	.LFB65:
  79:.\main.c      **** 
  80:.\main.c      **** /*************************************
  81:.\main.c      ****     Triggers Relay 2 as main output
  82:.\main.c      ****     in msecs. (Functionality not used now)     
  83:.\main.c      **** **************************************/
  84:.\main.c      **** 
  85:.\main.c      **** void TriggerRelay2(int waitMSecs)
  86:.\main.c      **** {
ARM GAS  C:\Users\Yiquing\AppData\Local\Temp\ccj6BAT4.s 			page 5


 143              		.loc 1 86 0
 144              		.cfi_startproc
 145              		@ args = 0, pretend = 0, frame = 8
 146              		@ frame_needed = 1, uses_anonymous_args = 0
 147 0000 80B5     		push	{r7, lr}
 148              		.cfi_def_cfa_offset 8
 149              		.cfi_offset 7, -8
 150              		.cfi_offset 14, -4
 151 0002 82B0     		sub	sp, sp, #8
 152              		.cfi_def_cfa_offset 16
 153 0004 00AF     		add	r7, sp, #0
 154              		.cfi_def_cfa_register 7
 155 0006 7860     		str	r0, [r7, #4]
  87:.\main.c      ****     RELAY_B_Write(0);
 156              		.loc 1 87 0
 157 0008 0020     		movs	r0, #0
 158 000a FFF7FEFF 		bl	RELAY_B_Write
  88:.\main.c      ****     LED_GRN_Write(0) ;
 159              		.loc 1 88 0
 160 000e 0020     		movs	r0, #0
 161 0010 FFF7FEFF 		bl	LED_GRN_Write
  89:.\main.c      ****     LED_YEL_Write(0);
 162              		.loc 1 89 0
 163 0014 0020     		movs	r0, #0
 164 0016 FFF7FEFF 		bl	LED_YEL_Write
  90:.\main.c      **** 	RELAY_B_Write(1);
 165              		.loc 1 90 0
 166 001a 0120     		movs	r0, #1
 167 001c FFF7FEFF 		bl	RELAY_B_Write
  91:.\main.c      **** 	CyDelay(waitMSecs);
 168              		.loc 1 91 0
 169 0020 7B68     		ldr	r3, [r7, #4]
 170 0022 1846     		mov	r0, r3
 171 0024 FFF7FEFF 		bl	CyDelay
  92:.\main.c      **** 	LED_GRN_Write(1) ;
 172              		.loc 1 92 0
 173 0028 0120     		movs	r0, #1
 174 002a FFF7FEFF 		bl	LED_GRN_Write
  93:.\main.c      ****     LED_YEL_Write(1) ;
 175              		.loc 1 93 0
 176 002e 0120     		movs	r0, #1
 177 0030 FFF7FEFF 		bl	LED_YEL_Write
  94:.\main.c      **** 	RELAY_B_Write(0);
 178              		.loc 1 94 0
 179 0034 0020     		movs	r0, #0
 180 0036 FFF7FEFF 		bl	RELAY_B_Write
  95:.\main.c      **** 	
  96:.\main.c      **** }
 181              		.loc 1 96 0
 182 003a 0837     		adds	r7, r7, #8
 183 003c BD46     		mov	sp, r7
 184              		@ sp needed
 185 003e 80BD     		pop	{r7, pc}
 186              		.cfi_endproc
 187              	.LFE65:
 188              		.size	TriggerRelay2, .-TriggerRelay2
 189              		.section	.text.SetBuffer,"ax",%progbits
ARM GAS  C:\Users\Yiquing\AppData\Local\Temp\ccj6BAT4.s 			page 6


 190              		.align	2
 191              		.global	SetBuffer
 192              		.thumb
 193              		.thumb_func
 194              		.type	SetBuffer, %function
 195              	SetBuffer:
 196              	.LFB66:
  97:.\main.c      **** 
  98:.\main.c      **** 
  99:.\main.c      **** 
 100:.\main.c      **** /**************************************
 101:.\main.c      ****   Debug Method: To Set I2C data buffer
 102:.\main.c      **** ***************************************/
 103:.\main.c      **** void SetBuffer()
 104:.\main.c      **** {
 197              		.loc 1 104 0
 198              		.cfi_startproc
 199              		@ args = 0, pretend = 0, frame = 0
 200              		@ frame_needed = 1, uses_anonymous_args = 0
 201              		@ link register save eliminated.
 202 0000 80B4     		push	{r7}
 203              		.cfi_def_cfa_offset 4
 204              		.cfi_offset 7, -4
 205 0002 00AF     		add	r7, sp, #0
 206              		.cfi_def_cfa_register 7
 105:.\main.c      ****     MyI2C_Regs.buffer[0] = 0x02;
 207              		.loc 1 105 0
 208 0004 134B     		ldr	r3, .L7
 209 0006 0222     		movs	r2, #2
 210 0008 9A71     		strb	r2, [r3, #6]
 106:.\main.c      ****     MyI2C_Regs.buffer[1] = 0x32;
 211              		.loc 1 106 0
 212 000a 124B     		ldr	r3, .L7
 213 000c 3222     		movs	r2, #50
 214 000e DA71     		strb	r2, [r3, #7]
 107:.\main.c      ****     MyI2C_Regs.buffer[2] = 0x30;
 215              		.loc 1 107 0
 216 0010 104B     		ldr	r3, .L7
 217 0012 3022     		movs	r2, #48
 218 0014 1A72     		strb	r2, [r3, #8]
 108:.\main.c      ****     MyI2C_Regs.buffer[3] = 0x42;
 219              		.loc 1 108 0
 220 0016 0F4B     		ldr	r3, .L7
 221 0018 4222     		movs	r2, #66
 222 001a 5A72     		strb	r2, [r3, #9]
 109:.\main.c      ****     MyI2C_Regs.buffer[4] = 0x35;
 223              		.loc 1 109 0
 224 001c 0D4B     		ldr	r3, .L7
 225 001e 3522     		movs	r2, #53
 226 0020 9A72     		strb	r2, [r3, #10]
 110:.\main.c      ****     MyI2C_Regs.buffer[5] = 0x32;
 227              		.loc 1 110 0
 228 0022 0C4B     		ldr	r3, .L7
 229 0024 3222     		movs	r2, #50
 230 0026 DA72     		strb	r2, [r3, #11]
 111:.\main.c      ****     MyI2C_Regs.buffer[6] = 0x36;
 231              		.loc 1 111 0
ARM GAS  C:\Users\Yiquing\AppData\Local\Temp\ccj6BAT4.s 			page 7


 232 0028 0A4B     		ldr	r3, .L7
 233 002a 3622     		movs	r2, #54
 234 002c 1A73     		strb	r2, [r3, #12]
 112:.\main.c      ****     MyI2C_Regs.buffer[7] = 0x42;
 235              		.loc 1 112 0
 236 002e 094B     		ldr	r3, .L7
 237 0030 4222     		movs	r2, #66
 238 0032 5A73     		strb	r2, [r3, #13]
 113:.\main.c      ****     MyI2C_Regs.buffer[8] = 0x35;
 239              		.loc 1 113 0
 240 0034 074B     		ldr	r3, .L7
 241 0036 3522     		movs	r2, #53
 242 0038 9A73     		strb	r2, [r3, #14]
 114:.\main.c      ****     MyI2C_Regs.buffer[9] = 0x42;
 243              		.loc 1 114 0
 244 003a 064B     		ldr	r3, .L7
 245 003c 4222     		movs	r2, #66
 246 003e DA73     		strb	r2, [r3, #15]
 115:.\main.c      ****     MyI2C_Regs.buffer[10] = 0x31;
 247              		.loc 1 115 0
 248 0040 044B     		ldr	r3, .L7
 249 0042 3122     		movs	r2, #49
 250 0044 1A74     		strb	r2, [r3, #16]
 116:.\main.c      ****     MyI2C_Regs.buffer[11] = 0x77;
 251              		.loc 1 116 0
 252 0046 034B     		ldr	r3, .L7
 253 0048 7722     		movs	r2, #119
 254 004a 5A74     		strb	r2, [r3, #17]
 117:.\main.c      **** 
 118:.\main.c      **** }
 255              		.loc 1 118 0
 256 004c BD46     		mov	sp, r7
 257              		@ sp needed
 258 004e 5DF8047B 		ldr	r7, [sp], #4
 259 0052 7047     		bx	lr
 260              	.L8:
 261              		.align	2
 262              	.L7:
 263 0054 00000000 		.word	MyI2C_Regs
 264              		.cfi_endproc
 265              	.LFE66:
 266              		.size	SetBuffer, .-SetBuffer
 267              		.section	.text.ClearBuffer,"ax",%progbits
 268              		.align	2
 269              		.global	ClearBuffer
 270              		.thumb
 271              		.thumb_func
 272              		.type	ClearBuffer, %function
 273              	ClearBuffer:
 274              	.LFB67:
 119:.\main.c      **** 
 120:.\main.c      **** void ClearBuffer()
 121:.\main.c      **** {
 275              		.loc 1 121 0
 276              		.cfi_startproc
 277              		@ args = 0, pretend = 0, frame = 8
 278              		@ frame_needed = 1, uses_anonymous_args = 0
ARM GAS  C:\Users\Yiquing\AppData\Local\Temp\ccj6BAT4.s 			page 8


 279              		@ link register save eliminated.
 280 0000 80B4     		push	{r7}
 281              		.cfi_def_cfa_offset 4
 282              		.cfi_offset 7, -4
 283 0002 83B0     		sub	sp, sp, #12
 284              		.cfi_def_cfa_offset 16
 285 0004 00AF     		add	r7, sp, #0
 286              		.cfi_def_cfa_register 7
 122:.\main.c      ****     int i;
 123:.\main.c      ****     for(i=0; i < 20; i++)
 287              		.loc 1 123 0
 288 0006 0023     		movs	r3, #0
 289 0008 7B60     		str	r3, [r7, #4]
 290 000a 07E0     		b	.L10
 291              	.L11:
 124:.\main.c      ****       MyI2C_Regs.buffer[i] = 0;
 292              		.loc 1 124 0 discriminator 2
 293 000c 074A     		ldr	r2, .L12
 294 000e 7B68     		ldr	r3, [r7, #4]
 295 0010 1344     		add	r3, r3, r2
 296 0012 0022     		movs	r2, #0
 297 0014 9A71     		strb	r2, [r3, #6]
 123:.\main.c      ****     for(i=0; i < 20; i++)
 298              		.loc 1 123 0 discriminator 2
 299 0016 7B68     		ldr	r3, [r7, #4]
 300 0018 0133     		adds	r3, r3, #1
 301 001a 7B60     		str	r3, [r7, #4]
 302              	.L10:
 123:.\main.c      ****     for(i=0; i < 20; i++)
 303              		.loc 1 123 0 is_stmt 0 discriminator 1
 304 001c 7B68     		ldr	r3, [r7, #4]
 305 001e 132B     		cmp	r3, #19
 306 0020 F4DD     		ble	.L11
 125:.\main.c      **** }
 307              		.loc 1 125 0 is_stmt 1
 308 0022 0C37     		adds	r7, r7, #12
 309 0024 BD46     		mov	sp, r7
 310              		@ sp needed
 311 0026 5DF8047B 		ldr	r7, [sp], #4
 312 002a 7047     		bx	lr
 313              	.L13:
 314              		.align	2
 315              	.L12:
 316 002c 00000000 		.word	MyI2C_Regs
 317              		.cfi_endproc
 318              	.LFE67:
 319              		.size	ClearBuffer, .-ClearBuffer
 320              		.section	.text.SendHID_SP533,"ax",%progbits
 321              		.align	2
 322              		.global	SendHID_SP533
 323              		.thumb
 324              		.thumb_func
 325              		.type	SendHID_SP533, %function
 326              	SendHID_SP533:
 327              	.LFB68:
 126:.\main.c      **** 
 127:.\main.c      **** /***********************************************
ARM GAS  C:\Users\Yiquing\AppData\Local\Temp\ccj6BAT4.s 			page 9


 128:.\main.c      ****             Weigand -HID Protocol
 129:.\main.c      ****   Procedure to send weigand data in serial format
 130:.\main.c      ****   Baud Rate: 57600 Databits: 8 
 131:.\main.c      ****   Stop Bits: 2 Parity: Even 
 132:.\main.c      ****   Bits to transmit : 18 bytes
 133:.\main.c      ****   Zero paddings to the left before the weigand data 
 134:.\main.c      **** 
 135:.\main.c      **** ************************************************/
 136:.\main.c      **** 
 137:.\main.c      **** void SendHID_SP533()
 138:.\main.c      **** {
 328              		.loc 1 138 0
 329              		.cfi_startproc
 330              		@ args = 0, pretend = 0, frame = 0
 331              		@ frame_needed = 1, uses_anonymous_args = 0
 332 0000 80B5     		push	{r7, lr}
 333              		.cfi_def_cfa_offset 8
 334              		.cfi_offset 7, -8
 335              		.cfi_offset 14, -4
 336 0002 00AF     		add	r7, sp, #0
 337              		.cfi_def_cfa_register 7
 139:.\main.c      ****     
 140:.\main.c      ****     Clock_5_SetDividerValue(625); //set the baud rate to default 9600
 338              		.loc 1 140 0
 339 0004 4FF41C70 		mov	r0, #624
 340 0008 0121     		movs	r1, #1
 341 000a FFF7FEFF 		bl	Clock_5_SetDividerRegister
 141:.\main.c      ****     UART_ACS_Init();
 342              		.loc 1 141 0
 343 000e FFF7FEFF 		bl	UART_ACS_Init
 142:.\main.c      ****     CyDelay(20);
 344              		.loc 1 142 0
 345 0012 1420     		movs	r0, #20
 346 0014 FFF7FEFF 		bl	CyDelay
 143:.\main.c      ****     Mode_Sel_ACS_Write(0); //set io chip to RS232
 347              		.loc 1 143 0
 348 0018 0020     		movs	r0, #0
 349 001a FFF7FEFF 		bl	Mode_Sel_ACS_Write
 144:.\main.c      ****     TX_EN_Write(1);
 350              		.loc 1 144 0
 351 001e 0120     		movs	r0, #1
 352 0020 FFF7FEFF 		bl	TX_EN_Write
 145:.\main.c      ****     UART_ACS_LoadTxConfig();
 353              		.loc 1 145 0
 354 0024 FFF7FEFF 		bl	UART_ACS_LoadTxConfig
 146:.\main.c      ****     CyDelay(1); //Driver Output Enable Time, do not reduce. 
 355              		.loc 1 146 0
 356 0028 0120     		movs	r0, #1
 357 002a FFF7FEFF 		bl	CyDelay
 147:.\main.c      ****     UART_ACS_PutArray(MyI2C_Regs.buffer,MyI2C_Regs.data_length/8); 
 358              		.loc 1 147 0
 359 002e 084B     		ldr	r3, .L15
 360 0030 DB78     		ldrb	r3, [r3, #3]	@ zero_extendqisi2
 361 0032 DB08     		lsrs	r3, r3, #3
 362 0034 DBB2     		uxtb	r3, r3
 363 0036 0748     		ldr	r0, .L15+4
 364 0038 1946     		mov	r1, r3
ARM GAS  C:\Users\Yiquing\AppData\Local\Temp\ccj6BAT4.s 			page 10


 365 003a FFF7FEFF 		bl	UART_ACS_PutArray
 148:.\main.c      ****     CyDelay(5); //minmum 4m
 366              		.loc 1 148 0
 367 003e 0520     		movs	r0, #5
 368 0040 FFF7FEFF 		bl	CyDelay
 149:.\main.c      ****     UART_ACS_LoadRxConfig();
 369              		.loc 1 149 0
 370 0044 FFF7FEFF 		bl	UART_ACS_LoadRxConfig
 150:.\main.c      ****     TX_EN_Write(0);
 371              		.loc 1 150 0
 372 0048 0020     		movs	r0, #0
 373 004a FFF7FEFF 		bl	TX_EN_Write
 151:.\main.c      **** 
 152:.\main.c      **** }
 374              		.loc 1 152 0
 375 004e 80BD     		pop	{r7, pc}
 376              	.L16:
 377              		.align	2
 378              	.L15:
 379 0050 00000000 		.word	MyI2C_Regs
 380 0054 06000000 		.word	MyI2C_Regs+6
 381              		.cfi_endproc
 382              	.LFE68:
 383              		.size	SendHID_SP533, .-SendHID_SP533
 384              		.section	.text.SendHID,"ax",%progbits
 385              		.align	2
 386              		.global	SendHID
 387              		.thumb
 388              		.thumb_func
 389              		.type	SendHID, %function
 390              	SendHID:
 391              	.LFB69:
 153:.\main.c      **** 
 154:.\main.c      **** 
 155:.\main.c      **** 
 156:.\main.c      **** void SendHID()
 157:.\main.c      **** {
 392              		.loc 1 157 0
 393              		.cfi_startproc
 394              		@ args = 0, pretend = 0, frame = 48
 395              		@ frame_needed = 1, uses_anonymous_args = 0
 396 0000 80B5     		push	{r7, lr}
 397              		.cfi_def_cfa_offset 8
 398              		.cfi_offset 7, -8
 399              		.cfi_offset 14, -4
 400 0002 8CB0     		sub	sp, sp, #48
 401              		.cfi_def_cfa_offset 56
 402 0004 00AF     		add	r7, sp, #0
 403              		.cfi_def_cfa_register 7
 158:.\main.c      ****     Tamper_Timer_Stop();
 404              		.loc 1 158 0
 405 0006 FFF7FEFF 		bl	Tamper_Timer_Stop
 159:.\main.c      ****     
 160:.\main.c      ****     char serialOut[20];
 161:.\main.c      **** 	char tmp;
 162:.\main.c      **** 	int i,j;
 163:.\main.c      **** 	int padBytes;
ARM GAS  C:\Users\Yiquing\AppData\Local\Temp\ccj6BAT4.s 			page 11


 164:.\main.c      ****     int xbytes;
 165:.\main.c      ****     int ybits;
 166:.\main.c      ****     MyI2C_Regs.data_length = 26;
 406              		.loc 1 166 0
 407 000a 544B     		ldr	r3, .L23
 408 000c 1A22     		movs	r2, #26
 409 000e DA70     		strb	r2, [r3, #3]
 167:.\main.c      ****     xbytes =  MyI2C_Regs.data_length / 8;
 410              		.loc 1 167 0
 411 0010 524B     		ldr	r3, .L23
 412 0012 DB78     		ldrb	r3, [r3, #3]	@ zero_extendqisi2
 413 0014 DB08     		lsrs	r3, r3, #3
 414 0016 DBB2     		uxtb	r3, r3
 415 0018 3B62     		str	r3, [r7, #32]
 168:.\main.c      ****     ybits =   MyI2C_Regs.data_length - (xbytes*8);
 416              		.loc 1 168 0
 417 001a 504B     		ldr	r3, .L23
 418 001c DB78     		ldrb	r3, [r3, #3]	@ zero_extendqisi2
 419 001e 1946     		mov	r1, r3
 420 0020 3A6A     		ldr	r2, [r7, #32]
 421 0022 1346     		mov	r3, r2
 422 0024 5B07     		lsls	r3, r3, #29
 423 0026 9B1A     		subs	r3, r3, r2
 424 0028 DB00     		lsls	r3, r3, #3
 425 002a 0B44     		add	r3, r3, r1
 426 002c FB61     		str	r3, [r7, #28]
 169:.\main.c      ****     padBytes = 18  -  xbytes;
 427              		.loc 1 169 0
 428 002e 3B6A     		ldr	r3, [r7, #32]
 429 0030 C3F11203 		rsb	r3, r3, #18
 430 0034 7B62     		str	r3, [r7, #36]
 170:.\main.c      ****     
 171:.\main.c      ****     if(ybits  >  0)
 431              		.loc 1 171 0
 432 0036 FB69     		ldr	r3, [r7, #28]
 433 0038 002B     		cmp	r3, #0
 434 003a 02DD     		ble	.L18
 172:.\main.c      **** 	   padBytes = padBytes - 1;
 435              		.loc 1 172 0
 436 003c 7B6A     		ldr	r3, [r7, #36]
 437 003e 013B     		subs	r3, r3, #1
 438 0040 7B62     		str	r3, [r7, #36]
 439              	.L18:
 173:.\main.c      ****     
 174:.\main.c      ****     for (i = 0;i < padBytes;i++)
 440              		.loc 1 174 0
 441 0042 0023     		movs	r3, #0
 442 0044 FB62     		str	r3, [r7, #44]
 443 0046 0FE0     		b	.L19
 444              	.L20:
 175:.\main.c      ****     {
 176:.\main.c      ****        serialOut[i] = 0x00;
 445              		.loc 1 176 0 discriminator 2
 446 0048 3A1D     		adds	r2, r7, #4
 447 004a FB6A     		ldr	r3, [r7, #44]
 448 004c 1344     		add	r3, r3, r2
 449 004e 0022     		movs	r2, #0
ARM GAS  C:\Users\Yiquing\AppData\Local\Temp\ccj6BAT4.s 			page 12


 450 0050 1A70     		strb	r2, [r3]
 177:.\main.c      ****        SU_PutChar(&s,serialOut[i]);
 451              		.loc 1 177 0 discriminator 2
 452 0052 3A1D     		adds	r2, r7, #4
 453 0054 FB6A     		ldr	r3, [r7, #44]
 454 0056 1344     		add	r3, r3, r2
 455 0058 1B78     		ldrb	r3, [r3]	@ zero_extendqisi2
 456 005a 4148     		ldr	r0, .L23+4
 457 005c 1946     		mov	r1, r3
 458 005e FFF7FEFF 		bl	SU_PutChar
 174:.\main.c      ****     for (i = 0;i < padBytes;i++)
 459              		.loc 1 174 0 discriminator 2
 460 0062 FB6A     		ldr	r3, [r7, #44]
 461 0064 0133     		adds	r3, r3, #1
 462 0066 FB62     		str	r3, [r7, #44]
 463              	.L19:
 174:.\main.c      ****     for (i = 0;i < padBytes;i++)
 464              		.loc 1 174 0 is_stmt 0 discriminator 1
 465 0068 FA6A     		ldr	r2, [r7, #44]
 466 006a 7B6A     		ldr	r3, [r7, #36]
 467 006c 9A42     		cmp	r2, r3
 468 006e EBDB     		blt	.L20
 178:.\main.c      ****       
 179:.\main.c      ****     }
 180:.\main.c      **** 	
 181:.\main.c      ****     serialOut[14] = 0x01 << ybits;
 469              		.loc 1 181 0 is_stmt 1
 470 0070 0122     		movs	r2, #1
 471 0072 FB69     		ldr	r3, [r7, #28]
 472 0074 02FA03F3 		lsl	r3, r2, r3
 473 0078 DBB2     		uxtb	r3, r3
 474 007a BB74     		strb	r3, [r7, #18]
 182:.\main.c      **** 	tmp = MyI2C_Regs.buffer[0] & (0xFF << (8-ybits));		
 475              		.loc 1 182 0
 476 007c 374B     		ldr	r3, .L23
 477 007e 9B79     		ldrb	r3, [r3, #6]	@ zero_extendqisi2
 478 0080 DAB2     		uxtb	r2, r3
 479 0082 FB69     		ldr	r3, [r7, #28]
 480 0084 C3F10803 		rsb	r3, r3, #8
 481 0088 FF21     		movs	r1, #255
 482 008a 01FA03F3 		lsl	r3, r1, r3
 483 008e DBB2     		uxtb	r3, r3
 484 0090 1340     		ands	r3, r3, r2
 485 0092 DBB2     		uxtb	r3, r3
 486 0094 FB76     		strb	r3, [r7, #27]
 183:.\main.c      ****     tmp = tmp >> (8-ybits);
 487              		.loc 1 183 0
 488 0096 FA7E     		ldrb	r2, [r7, #27]	@ zero_extendqisi2
 489 0098 FB69     		ldr	r3, [r7, #28]
 490 009a C3F10803 		rsb	r3, r3, #8
 491 009e 42FA03F3 		asr	r3, r2, r3
 492 00a2 FB76     		strb	r3, [r7, #27]
 184:.\main.c      **** 	serialOut[i] |= tmp; 
 493              		.loc 1 184 0
 494 00a4 3A1D     		adds	r2, r7, #4
 495 00a6 FB6A     		ldr	r3, [r7, #44]
 496 00a8 1344     		add	r3, r3, r2
ARM GAS  C:\Users\Yiquing\AppData\Local\Temp\ccj6BAT4.s 			page 13


 497 00aa 1A78     		ldrb	r2, [r3]	@ zero_extendqisi2
 498 00ac FB7E     		ldrb	r3, [r7, #27]
 499 00ae 1343     		orrs	r3, r3, r2
 500 00b0 DAB2     		uxtb	r2, r3
 501 00b2 391D     		adds	r1, r7, #4
 502 00b4 FB6A     		ldr	r3, [r7, #44]
 503 00b6 0B44     		add	r3, r3, r1
 504 00b8 1A70     		strb	r2, [r3]
 185:.\main.c      **** 	SU_PutChar(&s,serialOut[i]);
 505              		.loc 1 185 0
 506 00ba 3A1D     		adds	r2, r7, #4
 507 00bc FB6A     		ldr	r3, [r7, #44]
 508 00be 1344     		add	r3, r3, r2
 509 00c0 1B78     		ldrb	r3, [r3]	@ zero_extendqisi2
 510 00c2 2748     		ldr	r0, .L23+4
 511 00c4 1946     		mov	r1, r3
 512 00c6 FFF7FEFF 		bl	SU_PutChar
 186:.\main.c      **** 	i++;
 513              		.loc 1 186 0
 514 00ca FB6A     		ldr	r3, [r7, #44]
 515 00cc 0133     		adds	r3, r3, #1
 516 00ce FB62     		str	r3, [r7, #44]
 187:.\main.c      **** 		
 188:.\main.c      **** 	for (j = 1; j< (18- padBytes); j++)
 517              		.loc 1 188 0
 518 00d0 0123     		movs	r3, #1
 519 00d2 BB62     		str	r3, [r7, #40]
 520 00d4 31E0     		b	.L21
 521              	.L22:
 189:.\main.c      **** 	{
 190:.\main.c      **** 		serialOut[i] = (MyI2C_Regs.buffer[j-1] << ybits );// & (0xFF << ybits);
 522              		.loc 1 190 0 discriminator 2
 523 00d6 BB6A     		ldr	r3, [r7, #40]
 524 00d8 013B     		subs	r3, r3, #1
 525 00da 204A     		ldr	r2, .L23
 526 00dc 1344     		add	r3, r3, r2
 527 00de 9B79     		ldrb	r3, [r3, #6]	@ zero_extendqisi2
 528 00e0 1A46     		mov	r2, r3
 529 00e2 FB69     		ldr	r3, [r7, #28]
 530 00e4 02FA03F3 		lsl	r3, r2, r3
 531 00e8 DAB2     		uxtb	r2, r3
 532 00ea 391D     		adds	r1, r7, #4
 533 00ec FB6A     		ldr	r3, [r7, #44]
 534 00ee 0B44     		add	r3, r3, r1
 535 00f0 1A70     		strb	r2, [r3]
 191:.\main.c      **** 		tmp = (MyI2C_Regs.buffer[j] >> (8-ybits));// & (0xFF >> (8-ybits));
 536              		.loc 1 191 0 discriminator 2
 537 00f2 1A4A     		ldr	r2, .L23
 538 00f4 BB6A     		ldr	r3, [r7, #40]
 539 00f6 1344     		add	r3, r3, r2
 540 00f8 9B79     		ldrb	r3, [r3, #6]	@ zero_extendqisi2
 541 00fa 1A46     		mov	r2, r3
 542 00fc FB69     		ldr	r3, [r7, #28]
 543 00fe C3F10803 		rsb	r3, r3, #8
 544 0102 42FA03F3 		asr	r3, r2, r3
 545 0106 FB76     		strb	r3, [r7, #27]
 192:.\main.c      **** 		serialOut[i] |= tmp;
ARM GAS  C:\Users\Yiquing\AppData\Local\Temp\ccj6BAT4.s 			page 14


 546              		.loc 1 192 0 discriminator 2
 547 0108 3A1D     		adds	r2, r7, #4
 548 010a FB6A     		ldr	r3, [r7, #44]
 549 010c 1344     		add	r3, r3, r2
 550 010e 1A78     		ldrb	r2, [r3]	@ zero_extendqisi2
 551 0110 FB7E     		ldrb	r3, [r7, #27]
 552 0112 1343     		orrs	r3, r3, r2
 553 0114 DAB2     		uxtb	r2, r3
 554 0116 391D     		adds	r1, r7, #4
 555 0118 FB6A     		ldr	r3, [r7, #44]
 556 011a 0B44     		add	r3, r3, r1
 557 011c 1A70     		strb	r2, [r3]
 193:.\main.c      **** 		SU_PutChar(&s,serialOut[i]);
 558              		.loc 1 193 0 discriminator 2
 559 011e 3A1D     		adds	r2, r7, #4
 560 0120 FB6A     		ldr	r3, [r7, #44]
 561 0122 1344     		add	r3, r3, r2
 562 0124 1B78     		ldrb	r3, [r3]	@ zero_extendqisi2
 563 0126 0E48     		ldr	r0, .L23+4
 564 0128 1946     		mov	r1, r3
 565 012a FFF7FEFF 		bl	SU_PutChar
 194:.\main.c      **** 		i++;
 566              		.loc 1 194 0 discriminator 2
 567 012e FB6A     		ldr	r3, [r7, #44]
 568 0130 0133     		adds	r3, r3, #1
 569 0132 FB62     		str	r3, [r7, #44]
 188:.\main.c      **** 	for (j = 1; j< (18- padBytes); j++)
 570              		.loc 1 188 0 discriminator 2
 571 0134 BB6A     		ldr	r3, [r7, #40]
 572 0136 0133     		adds	r3, r3, #1
 573 0138 BB62     		str	r3, [r7, #40]
 574              	.L21:
 188:.\main.c      **** 	for (j = 1; j< (18- padBytes); j++)
 575              		.loc 1 188 0 is_stmt 0 discriminator 1
 576 013a 7B6A     		ldr	r3, [r7, #36]
 577 013c C3F11202 		rsb	r2, r3, #18
 578 0140 BB6A     		ldr	r3, [r7, #40]
 579 0142 9A42     		cmp	r2, r3
 580 0144 C7DC     		bgt	.L22
 195:.\main.c      **** 	}
 196:.\main.c      ****     
 197:.\main.c      ****     Tamper_Timer_Start();    
 581              		.loc 1 197 0 is_stmt 1
 582 0146 FFF7FEFF 		bl	Tamper_Timer_Start
 198:.\main.c      ****     serialOut[i] = 0x00;
 583              		.loc 1 198 0
 584 014a 3A1D     		adds	r2, r7, #4
 585 014c FB6A     		ldr	r3, [r7, #44]
 586 014e 1344     		add	r3, r3, r2
 587 0150 0022     		movs	r2, #0
 588 0152 1A70     		strb	r2, [r3]
 199:.\main.c      **** }
 589              		.loc 1 199 0
 590 0154 3037     		adds	r7, r7, #48
 591 0156 BD46     		mov	sp, r7
 592              		@ sp needed
 593 0158 80BD     		pop	{r7, pc}
ARM GAS  C:\Users\Yiquing\AppData\Local\Temp\ccj6BAT4.s 			page 15


 594              	.L24:
 595 015a 00BF     		.align	2
 596              	.L23:
 597 015c 00000000 		.word	MyI2C_Regs
 598 0160 00000000 		.word	s
 599              		.cfi_endproc
 600              	.LFE69:
 601              		.size	SendHID, .-SendHID
 602              		.section	.text.InitOSDP,"ax",%progbits
 603              		.align	2
 604              		.global	InitOSDP
 605              		.thumb
 606              		.thumb_func
 607              		.type	InitOSDP, %function
 608              	InitOSDP:
 609              	.LFB70:
 200:.\main.c      **** 
 201:.\main.c      **** 
 202:.\main.c      **** void InitOSDP(){
 610              		.loc 1 202 0
 611              		.cfi_startproc
 612              		@ args = 0, pretend = 0, frame = 0
 613              		@ frame_needed = 1, uses_anonymous_args = 0
 614 0000 80B5     		push	{r7, lr}
 615              		.cfi_def_cfa_offset 8
 616              		.cfi_offset 7, -8
 617              		.cfi_offset 14, -4
 618 0002 00AF     		add	r7, sp, #0
 619              		.cfi_def_cfa_register 7
 203:.\main.c      ****     
 204:.\main.c      ****     //initialize the OSDP
 205:.\main.c      ****     Clock_5_SetDividerValue(625); //set the baud rate to default 9600
 620              		.loc 1 205 0
 621 0004 4FF41C70 		mov	r0, #624
 622 0008 0121     		movs	r1, #1
 623 000a FFF7FEFF 		bl	Clock_5_SetDividerRegister
 206:.\main.c      ****     UART_ACS_Start();
 624              		.loc 1 206 0
 625 000e FFF7FEFF 		bl	UART_ACS_Start
 207:.\main.c      ****     ClearOsdpBuffer();
 626              		.loc 1 207 0
 627 0012 FFF7FEFF 		bl	ClearOsdpBuffer
 208:.\main.c      ****     
 209:.\main.c      ****     Clock_6_SetDividerValue(625); //set the baud rate to default 9600
 628              		.loc 1 209 0
 629 0016 4FF41C70 		mov	r0, #624
 630 001a 0121     		movs	r1, #1
 631 001c FFF7FEFF 		bl	Clock_6_SetDividerRegister
 210:.\main.c      ****     UART_READER_Start();
 632              		.loc 1 210 0
 633 0020 FFF7FEFF 		bl	UART_READER_Start
 211:.\main.c      ****     ClearOsdpReaderBuffer();
 634              		.loc 1 211 0
 635 0024 FFF7FEFF 		bl	ClearOsdpReaderBuffer
 212:.\main.c      ****     
 213:.\main.c      ****     isr_keepalive_StartEx(KeepAliveInterruptHandler);
 636              		.loc 1 213 0
ARM GAS  C:\Users\Yiquing\AppData\Local\Temp\ccj6BAT4.s 			page 16


 637 0028 0248     		ldr	r0, .L26
 638 002a FFF7FEFF 		bl	isr_keepalive_StartEx
 214:.\main.c      ****     OSDPReaderTimer_Start();
 639              		.loc 1 214 0
 640 002e FFF7FEFF 		bl	OSDPReaderTimer_Start
 215:.\main.c      ****     
 216:.\main.c      **** }
 641              		.loc 1 216 0
 642 0032 80BD     		pop	{r7, pc}
 643              	.L27:
 644              		.align	2
 645              	.L26:
 646 0034 00000000 		.word	KeepAliveInterruptHandler
 647              		.cfi_endproc
 648              	.LFE70:
 649              		.size	InitOSDP, .-InitOSDP
 650              		.section	.text.HandleCommand,"ax",%progbits
 651              		.align	2
 652              		.global	HandleCommand
 653              		.thumb
 654              		.thumb_func
 655              		.type	HandleCommand, %function
 656              	HandleCommand:
 657              	.LFB71:
 217:.\main.c      **** 
 218:.\main.c      ****  /***********************************************
 219:.\main.c      ****      Debug Code : Software UART for PAC Protocol
 220:.\main.c      ****   ************************************************
 221:.\main.c      ****  void SendPACTest()
 222:.\main.c      **** {
 223:.\main.c      ****       int i,j;
 224:.\main.c      ****     LED_GRN_Write(0);
 225:.\main.c      ****     LED_YEL_Write(1);
 226:.\main.c      ****   
 227:.\main.c      ****     for( i = 0; i < 20; i++)
 228:.\main.c      ****     {
 229:.\main.c      ****         for( j= 0; j < 12 ; j++)
 230:.\main.c      ****         {
 231:.\main.c      ****             char c = MyI2C_Regs.buffer[j];
 232:.\main.c      ****          SU_PutChar(&s,c);
 233:.\main.c      ****         }
 234:.\main.c      ****       
 235:.\main.c      ****     }
 236:.\main.c      **** 
 237:.\main.c      ****     LED_GRN_Write(1);
 238:.\main.c      ****     LED_YEL_Write(1);
 239:.\main.c      **** }
 240:.\main.c      **** 
 241:.\main.c      **** ****************************************************/
 242:.\main.c      **** 
 243:.\main.c      **** 
 244:.\main.c      **** /****************************************
 245:.\main.c      ****    Method to handle commands
 246:.\main.c      ****    coming from device
 247:.\main.c      **** 
 248:.\main.c      **** *****************************************/
 249:.\main.c      **** void HandleCommand()
ARM GAS  C:\Users\Yiquing\AppData\Local\Temp\ccj6BAT4.s 			page 17


 250:.\main.c      **** {
 658              		.loc 1 250 0
 659              		.cfi_startproc
 660              		@ args = 0, pretend = 0, frame = 8
 661              		@ frame_needed = 1, uses_anonymous_args = 0
 662 0000 80B5     		push	{r7, lr}
 663              		.cfi_def_cfa_offset 8
 664              		.cfi_offset 7, -8
 665              		.cfi_offset 14, -4
 666 0002 82B0     		sub	sp, sp, #8
 667              		.cfi_def_cfa_offset 16
 668 0004 00AF     		add	r7, sp, #0
 669              		.cfi_def_cfa_register 7
 251:.\main.c      ****     char cmd;
 252:.\main.c      ****     cmd = MyI2C_Regs.cmd;
 670              		.loc 1 252 0
 671 0006 874B     		ldr	r3, .L55
 672 0008 9B78     		ldrb	r3, [r3, #2]
 673 000a FB71     		strb	r3, [r7, #7]
 253:.\main.c      ****     if (cmd != CMD_BOOTLOAD && cmd != CMD_READ_CARD) MyI2C_Regs.osdp_reader_cmd = OSDP_NONE;
 674              		.loc 1 253 0
 675 000c FB79     		ldrb	r3, [r7, #7]	@ zero_extendqisi2
 676 000e 012B     		cmp	r3, #1
 677 0010 06D0     		beq	.L29
 678              		.loc 1 253 0 is_stmt 0 discriminator 1
 679 0012 FB79     		ldrb	r3, [r7, #7]	@ zero_extendqisi2
 680 0014 022B     		cmp	r3, #2
 681 0016 03D0     		beq	.L29
 682 0018 824B     		ldr	r3, .L55
 683 001a 0022     		movs	r2, #0
 684 001c 83F8CD20 		strb	r2, [r3, #205]
 685              	.L29:
 254:.\main.c      ****     
 255:.\main.c      **** 	switch (cmd)
 686              		.loc 1 255 0 is_stmt 1
 687 0020 FB79     		ldrb	r3, [r7, #7]	@ zero_extendqisi2
 688 0022 013B     		subs	r3, r3, #1
 689 0024 192B     		cmp	r3, #25
 690 0026 00F2F580 		bhi	.L30
 691 002a 01A2     		adr	r2, .L32
 692 002c 52F823F0 		ldr	pc, [r2, r3, lsl #2]
 693              		.p2align 2
 694              	.L32:
 695 0030 99000000 		.word	.L31+1
 696 0034 D3000000 		.word	.L33+1
 697 0038 9F000000 		.word	.L34+1
 698 003c B9000000 		.word	.L35+1
 699 0040 AB010000 		.word	.L36+1
 700 0044 C9010000 		.word	.L37+1
 701 0048 15020000 		.word	.L30+1
 702 004c 15020000 		.word	.L30+1
 703 0050 15020000 		.word	.L30+1
 704 0054 15020000 		.word	.L30+1
 705 0058 15020000 		.word	.L30+1
 706 005c 8D010000 		.word	.L38+1
 707 0060 15020000 		.word	.L30+1
 708 0064 15020000 		.word	.L30+1
ARM GAS  C:\Users\Yiquing\AppData\Local\Temp\ccj6BAT4.s 			page 18


 709 0068 15020000 		.word	.L30+1
 710 006c 15020000 		.word	.L30+1
 711 0070 15020000 		.word	.L30+1
 712 0074 15020000 		.word	.L30+1
 713 0078 15020000 		.word	.L30+1
 714 007c 15020000 		.word	.L30+1
 715 0080 15020000 		.word	.L30+1
 716 0084 15020000 		.word	.L30+1
 717 0088 15020000 		.word	.L30+1
 718 008c 15020000 		.word	.L30+1
 719 0090 15020000 		.word	.L30+1
 720 0094 E7010000 		.word	.L39+1
 721              		.p2align 1
 722              	.L31:
 256:.\main.c      ****     {
 257:.\main.c      ****         case CMD_BOOTLOAD:
 258:.\main.c      ****             BootloadableI2C_Load();  //yqh
 723              		.loc 1 258 0
 724 0098 FFF7FEFF 		bl	BootloadableI2C_Load
 259:.\main.c      ****              break;
 725              		.loc 1 259 0
 726 009c BEE0     		b	.L28
 727              	.L34:
 260:.\main.c      ****         
 261:.\main.c      ****         case CMD_TRIGGER_RELAY1:
 262:.\main.c      **** 		        TriggerRelay1(MyI2C_Regs.data_length*1000); //Trigger relay and wait for x secs
 728              		.loc 1 262 0
 729 009e 614B     		ldr	r3, .L55
 730 00a0 DB78     		ldrb	r3, [r3, #3]	@ zero_extendqisi2
 731 00a2 4FF47A72 		mov	r2, #1000
 732 00a6 02FB03F3 		mul	r3, r2, r3
 733 00aa 1846     		mov	r0, r3
 734 00ac FFF7FEFF 		bl	TriggerRelay1
 263:.\main.c      ****                 MyI2C_Regs.cmd = 0;  
 735              		.loc 1 263 0
 736 00b0 5C4B     		ldr	r3, .L55
 737 00b2 0022     		movs	r2, #0
 738 00b4 9A70     		strb	r2, [r3, #2]
 264:.\main.c      **** 				break;
 739              		.loc 1 264 0
 740 00b6 B1E0     		b	.L28
 741              	.L35:
 265:.\main.c      ****                 
 266:.\main.c      ****         case CMD_TRIGGER_RELAY2:
 267:.\main.c      **** 		        TriggerRelay2(MyI2C_Regs.data_length*1000); //Trigger relay and wait for x secs
 742              		.loc 1 267 0
 743 00b8 5A4B     		ldr	r3, .L55
 744 00ba DB78     		ldrb	r3, [r3, #3]	@ zero_extendqisi2
 745 00bc 4FF47A72 		mov	r2, #1000
 746 00c0 02FB03F3 		mul	r3, r2, r3
 747 00c4 1846     		mov	r0, r3
 748 00c6 FFF7FEFF 		bl	TriggerRelay2
 268:.\main.c      ****                 MyI2C_Regs.cmd = 0;  
 749              		.loc 1 268 0
 750 00ca 564B     		ldr	r3, .L55
 751 00cc 0022     		movs	r2, #0
 752 00ce 9A70     		strb	r2, [r3, #2]
ARM GAS  C:\Users\Yiquing\AppData\Local\Temp\ccj6BAT4.s 			page 19


 269:.\main.c      **** 				break;
 753              		.loc 1 269 0
 754 00d0 A4E0     		b	.L28
 755              	.L33:
 270:.\main.c      ****                 
 271:.\main.c      ****         case CMD_READ_CARD:
 272:.\main.c      ****                 
 273:.\main.c      ****                 if (MyI2C_Regs.osdp_reader_cmd != OSDP_NONE ) break; //goto process osdp message
 756              		.loc 1 273 0
 757 00d2 544B     		ldr	r3, .L55
 758 00d4 93F8CD30 		ldrb	r3, [r3, #205]	@ zero_extendqisi2
 759 00d8 002B     		cmp	r3, #0
 760 00da 00D0     		beq	.L41
 761              		.loc 1 273 0 is_stmt 0 discriminator 1
 762 00dc 9EE0     		b	.L28
 763              	.L41:
 274:.\main.c      ****                 
 275:.\main.c      ****                 if(MyI2C_Regs.data_length >= 26)//Read Weigand
 764              		.loc 1 275 0 is_stmt 1
 765 00de 514B     		ldr	r3, .L55
 766 00e0 DB78     		ldrb	r3, [r3, #3]	@ zero_extendqisi2
 767 00e2 192B     		cmp	r3, #25
 768 00e4 19D9     		bls	.L42
 276:.\main.c      ****                 {
 277:.\main.c      ****                     LED_GRN_Write(1);
 769              		.loc 1 277 0
 770 00e6 0120     		movs	r0, #1
 771 00e8 FFF7FEFF 		bl	LED_GRN_Write
 278:.\main.c      ****                     OptSelect_Write(1);
 772              		.loc 1 278 0
 773 00ec 0120     		movs	r0, #1
 774 00ee FFF7FEFF 		bl	OptSelect_Write
 279:.\main.c      ****                     ClearBuffer(); // added here - GRI 2/2/15
 775              		.loc 1 279 0
 776 00f2 FFF7FEFF 		bl	ClearBuffer
 280:.\main.c      ****                     while(ReadWeigand(MyI2C_Regs.data_length) == 0)
 777              		.loc 1 280 0
 778 00f6 04E0     		b	.L43
 779              	.L45:
 281:.\main.c      ****                     {
 282:.\main.c      ****                         if(MyI2C_Regs.cmd !=CMD_READ_CARD ) 
 780              		.loc 1 282 0
 781 00f8 4A4B     		ldr	r3, .L55
 782 00fa 9B78     		ldrb	r3, [r3, #2]	@ zero_extendqisi2
 783 00fc 022B     		cmp	r3, #2
 784 00fe 00D0     		beq	.L43
 283:.\main.c      ****                             break;
 785              		.loc 1 283 0
 786 0100 07E0     		b	.L44
 787              	.L43:
 280:.\main.c      ****                     while(ReadWeigand(MyI2C_Regs.data_length) == 0)
 788              		.loc 1 280 0 discriminator 1
 789 0102 484B     		ldr	r3, .L55
 790 0104 DB78     		ldrb	r3, [r3, #3]	@ zero_extendqisi2
 791 0106 1846     		mov	r0, r3
 792 0108 FFF7FEFF 		bl	ReadWeigand
 793 010c 0346     		mov	r3, r0
ARM GAS  C:\Users\Yiquing\AppData\Local\Temp\ccj6BAT4.s 			page 20


 794 010e 002B     		cmp	r3, #0
 795 0110 F2D0     		beq	.L45
 796              	.L44:
 284:.\main.c      ****                     };
 285:.\main.c      ****                     
 286:.\main.c      ****                     LED_GRN_Write(0);
 797              		.loc 1 286 0
 798 0112 0020     		movs	r0, #0
 799 0114 FFF7FEFF 		bl	LED_GRN_Write
 800 0118 37E0     		b	.L46
 801              	.L42:
 287:.\main.c      ****                     
 288:.\main.c      ****                 }
 289:.\main.c      ****                 else if(MyI2C_Regs.data_length == 12)//Read PAC
 802              		.loc 1 289 0
 803 011a 424B     		ldr	r3, .L55
 804 011c DB78     		ldrb	r3, [r3, #3]	@ zero_extendqisi2
 805 011e 0C2B     		cmp	r3, #12
 806 0120 19D1     		bne	.L47
 290:.\main.c      ****                 {
 291:.\main.c      ****                     LED_GRN_Write(1);
 807              		.loc 1 291 0
 808 0122 0120     		movs	r0, #1
 809 0124 FFF7FEFF 		bl	LED_GRN_Write
 292:.\main.c      ****                     ClearBuffer(); // added here - GRI 2/2/15
 810              		.loc 1 292 0
 811 0128 FFF7FEFF 		bl	ClearBuffer
 293:.\main.c      ****                     SetupUART(PAC);
 812              		.loc 1 293 0
 813 012c 0C20     		movs	r0, #12
 814 012e FFF7FEFF 		bl	SetupUART
 294:.\main.c      ****                     while(ReadPAC()== 0)
 815              		.loc 1 294 0
 816 0132 04E0     		b	.L48
 817              	.L50:
 295:.\main.c      ****                     {
 296:.\main.c      ****                         if(MyI2C_Regs.cmd !=CMD_READ_CARD )
 818              		.loc 1 296 0
 819 0134 3B4B     		ldr	r3, .L55
 820 0136 9B78     		ldrb	r3, [r3, #2]	@ zero_extendqisi2
 821 0138 022B     		cmp	r3, #2
 822 013a 00D0     		beq	.L48
 297:.\main.c      ****                         break;
 823              		.loc 1 297 0
 824 013c 04E0     		b	.L49
 825              	.L48:
 294:.\main.c      ****                     while(ReadPAC()== 0)
 826              		.loc 1 294 0 discriminator 1
 827 013e FFF7FEFF 		bl	ReadPAC
 828 0142 0346     		mov	r3, r0
 829 0144 002B     		cmp	r3, #0
 830 0146 F5D0     		beq	.L50
 831              	.L49:
 298:.\main.c      ****                     }
 299:.\main.c      ****                     LED_GRN_Write(0);
 832              		.loc 1 299 0
 833 0148 0020     		movs	r0, #0
ARM GAS  C:\Users\Yiquing\AppData\Local\Temp\ccj6BAT4.s 			page 21


 834 014a FFF7FEFF 		bl	LED_GRN_Write
 300:.\main.c      ****                     OptSelect_Write(1);
 835              		.loc 1 300 0
 836 014e 0120     		movs	r0, #1
 837 0150 FFF7FEFF 		bl	OptSelect_Write
 838 0154 19E0     		b	.L46
 839              	.L47:
 301:.\main.c      **** 
 302:.\main.c      ****                 }
 303:.\main.c      ****                 else//Read F2F
 304:.\main.c      ****                 {
 305:.\main.c      ****                     activate_f2ftimer = 1;
 840              		.loc 1 305 0
 841 0156 344B     		ldr	r3, .L55+4
 842 0158 0122     		movs	r2, #1
 843 015a 1A70     		strb	r2, [r3]
 306:.\main.c      **** 
 307:.\main.c      ****                     LED_GRN_Write(1);
 844              		.loc 1 307 0
 845 015c 0120     		movs	r0, #1
 846 015e FFF7FEFF 		bl	LED_GRN_Write
 308:.\main.c      ****                     OptSelect_Write(1);
 847              		.loc 1 308 0
 848 0162 0120     		movs	r0, #1
 849 0164 FFF7FEFF 		bl	OptSelect_Write
 309:.\main.c      ****                     ClearBuffer(); // added here - GRI 2/2/15
 850              		.loc 1 309 0
 851 0168 FFF7FEFF 		bl	ClearBuffer
 310:.\main.c      ****                     while(ReadF2F() == 0)
 852              		.loc 1 310 0
 853 016c 04E0     		b	.L51
 854              	.L53:
 311:.\main.c      ****                     {
 312:.\main.c      ****                         if(MyI2C_Regs.cmd !=CMD_READ_CARD ) 
 855              		.loc 1 312 0
 856 016e 2D4B     		ldr	r3, .L55
 857 0170 9B78     		ldrb	r3, [r3, #2]	@ zero_extendqisi2
 858 0172 022B     		cmp	r3, #2
 859 0174 00D0     		beq	.L51
 313:.\main.c      ****                             break;
 860              		.loc 1 313 0
 861 0176 04E0     		b	.L52
 862              	.L51:
 310:.\main.c      ****                     while(ReadF2F() == 0)
 863              		.loc 1 310 0 discriminator 1
 864 0178 FFF7FEFF 		bl	ReadF2F
 865 017c 0346     		mov	r3, r0
 866 017e 002B     		cmp	r3, #0
 867 0180 F5D0     		beq	.L53
 868              	.L52:
 314:.\main.c      ****                     };
 315:.\main.c      ****                     LED_GRN_Write(0);
 869              		.loc 1 315 0
 870 0182 0020     		movs	r0, #0
 871 0184 FFF7FEFF 		bl	LED_GRN_Write
 316:.\main.c      ****                 }
 317:.\main.c      ****                 break;
ARM GAS  C:\Users\Yiquing\AppData\Local\Temp\ccj6BAT4.s 			page 22


 872              		.loc 1 317 0
 873 0188 48E0     		b	.L28
 874              	.L46:
 875 018a 47E0     		b	.L28
 876              	.L38:
 318:.\main.c      **** 	    
 319:.\main.c      ****         case CMD_SEND_PAC:
 320:.\main.c      ****                 LED_YEL_Write(1);
 877              		.loc 1 320 0
 878 018c 0120     		movs	r0, #1
 879 018e FFF7FEFF 		bl	LED_YEL_Write
 321:.\main.c      ****                 SetupUART(PAC);
 880              		.loc 1 321 0
 881 0192 0C20     		movs	r0, #12
 882 0194 FFF7FEFF 		bl	SetupUART
 322:.\main.c      ****                 SendPAC();
 883              		.loc 1 322 0
 884 0198 FFF7FEFF 		bl	SendPAC
 323:.\main.c      ****                 MyI2C_Regs.cmd = 0;
 885              		.loc 1 323 0
 886 019c 214B     		ldr	r3, .L55
 887 019e 0022     		movs	r2, #0
 888 01a0 9A70     		strb	r2, [r3, #2]
 324:.\main.c      ****                 LED_YEL_Write(0);
 889              		.loc 1 324 0
 890 01a2 0020     		movs	r0, #0
 891 01a4 FFF7FEFF 		bl	LED_YEL_Write
 325:.\main.c      **** 				break;
 892              		.loc 1 325 0
 893 01a8 38E0     		b	.L28
 894              	.L36:
 326:.\main.c      ****                 
 327:.\main.c      ****         case CMD_SEND_F2F:
 328:.\main.c      ****                 LED_YEL_Write(1);
 895              		.loc 1 328 0
 896 01aa 0120     		movs	r0, #1
 897 01ac FFF7FEFF 		bl	LED_YEL_Write
 329:.\main.c      ****                 OptSelect_Write(1);
 898              		.loc 1 329 0
 899 01b0 0120     		movs	r0, #1
 900 01b2 FFF7FEFF 		bl	OptSelect_Write
 330:.\main.c      **** 				SendF2F();
 901              		.loc 1 330 0
 902 01b6 FFF7FEFF 		bl	SendF2F
 331:.\main.c      ****                 MyI2C_Regs.cmd = 0;
 903              		.loc 1 331 0
 904 01ba 1A4B     		ldr	r3, .L55
 905 01bc 0022     		movs	r2, #0
 906 01be 9A70     		strb	r2, [r3, #2]
 332:.\main.c      ****                 LED_YEL_Write(0);
 907              		.loc 1 332 0
 908 01c0 0020     		movs	r0, #0
 909 01c2 FFF7FEFF 		bl	LED_YEL_Write
 333:.\main.c      **** 			    break;        
 910              		.loc 1 333 0
 911 01c6 29E0     		b	.L28
 912              	.L37:
ARM GAS  C:\Users\Yiquing\AppData\Local\Temp\ccj6BAT4.s 			page 23


 334:.\main.c      ****                 
 335:.\main.c      ****         case CMD_SEND_HID:
 336:.\main.c      ****                LED_YEL_Write(1);
 913              		.loc 1 336 0
 914 01c8 0120     		movs	r0, #1
 915 01ca FFF7FEFF 		bl	LED_YEL_Write
 337:.\main.c      ****                OptSelect_Write(1);
 916              		.loc 1 337 0
 917 01ce 0120     		movs	r0, #1
 918 01d0 FFF7FEFF 		bl	OptSelect_Write
 338:.\main.c      **** //               SendHID_SP533();
 339:.\main.c      ****                SendHID();
 919              		.loc 1 339 0
 920 01d4 FFF7FEFF 		bl	SendHID
 340:.\main.c      ****                MyI2C_Regs.cmd = 0;
 921              		.loc 1 340 0
 922 01d8 124B     		ldr	r3, .L55
 923 01da 0022     		movs	r2, #0
 924 01dc 9A70     		strb	r2, [r3, #2]
 341:.\main.c      ****                LED_YEL_Write(0);
 925              		.loc 1 341 0
 926 01de 0020     		movs	r0, #0
 927 01e0 FFF7FEFF 		bl	LED_YEL_Write
 342:.\main.c      **** 			   break;
 928              		.loc 1 342 0
 929 01e4 1AE0     		b	.L28
 930              	.L39:
 343:.\main.c      ****             
 344:.\main.c      ****         case CMD_SEND_WEIGAND:
 345:.\main.c      ****                 if (MyI2C_Regs.data_length){
 931              		.loc 1 345 0
 932 01e6 0F4B     		ldr	r3, .L55
 933 01e8 DB78     		ldrb	r3, [r3, #3]	@ zero_extendqisi2
 934 01ea 002B     		cmp	r3, #0
 935 01ec 11D0     		beq	.L54
 346:.\main.c      ****                     LED_YEL_Write(0);
 936              		.loc 1 346 0
 937 01ee 0020     		movs	r0, #0
 938 01f0 FFF7FEFF 		bl	LED_YEL_Write
 347:.\main.c      ****                     OptSelect_Write(1);
 939              		.loc 1 347 0
 940 01f4 0120     		movs	r0, #1
 941 01f6 FFF7FEFF 		bl	OptSelect_Write
 348:.\main.c      ****     				SendWeigand(MyI2C_Regs.data_length);
 942              		.loc 1 348 0
 943 01fa 0A4B     		ldr	r3, .L55
 944 01fc DB78     		ldrb	r3, [r3, #3]	@ zero_extendqisi2
 945 01fe 1846     		mov	r0, r3
 946 0200 FFF7FEFF 		bl	SendWeigand
 349:.\main.c      ****                     MyI2C_Regs.cmd = 0;
 947              		.loc 1 349 0
 948 0204 074B     		ldr	r3, .L55
 949 0206 0022     		movs	r2, #0
 950 0208 9A70     		strb	r2, [r3, #2]
 350:.\main.c      ****                     LED_YEL_Write(1);
 951              		.loc 1 350 0
 952 020a 0120     		movs	r0, #1
ARM GAS  C:\Users\Yiquing\AppData\Local\Temp\ccj6BAT4.s 			page 24


 953 020c FFF7FEFF 		bl	LED_YEL_Write
 351:.\main.c      ****                 }
 352:.\main.c      **** 				break;  
 954              		.loc 1 352 0
 955 0210 04E0     		b	.L28
 956              	.L54:
 957 0212 03E0     		b	.L28
 958              	.L30:
 353:.\main.c      ****         default:
 354:.\main.c      ****                 LED_RED_Write(0); //error
 959              		.loc 1 354 0
 960 0214 0020     		movs	r0, #0
 961 0216 FFF7FEFF 		bl	LED_RED_Write
 355:.\main.c      ****                 break;
 962              		.loc 1 355 0
 963 021a 00BF     		nop
 964              	.L28:
 356:.\main.c      **** 	}     
 357:.\main.c      **** 	
 358:.\main.c      **** }
 965              		.loc 1 358 0
 966 021c 0837     		adds	r7, r7, #8
 967 021e BD46     		mov	sp, r7
 968              		@ sp needed
 969 0220 80BD     		pop	{r7, pc}
 970              	.L56:
 971 0222 00BF     		.align	2
 972              	.L55:
 973 0224 00000000 		.word	MyI2C_Regs
 974 0228 00000000 		.word	activate_f2ftimer
 975              		.cfi_endproc
 976              	.LFE71:
 977              		.size	HandleCommand, .-HandleCommand
 978              		.section	.text.HandleOSDP,"ax",%progbits
 979              		.align	2
 980              		.global	HandleOSDP
 981              		.thumb
 982              		.thumb_func
 983              		.type	HandleOSDP, %function
 984              	HandleOSDP:
 985              	.LFB72:
 359:.\main.c      **** 
 360:.\main.c      **** 
 361:.\main.c      **** 
 362:.\main.c      **** extern unsigned char keepALive[OSDP_READER_BUFFER_LENGTH];
 363:.\main.c      **** extern unsigned char keepALiveLength;
 364:.\main.c      **** 
 365:.\main.c      **** /****************************************
 366:.\main.c      ****    Method to handle OSDP commands
 367:.\main.c      ****    coming from device
 368:.\main.c      **** 
 369:.\main.c      **** *****************************************/
 370:.\main.c      **** void HandleOSDP()
 371:.\main.c      **** {
 986              		.loc 1 371 0
 987              		.cfi_startproc
 988              		@ args = 0, pretend = 0, frame = 8
ARM GAS  C:\Users\Yiquing\AppData\Local\Temp\ccj6BAT4.s 			page 25


 989              		@ frame_needed = 1, uses_anonymous_args = 0
 990 0000 80B5     		push	{r7, lr}
 991              		.cfi_def_cfa_offset 8
 992              		.cfi_offset 7, -8
 993              		.cfi_offset 14, -4
 994 0002 82B0     		sub	sp, sp, #8
 995              		.cfi_def_cfa_offset 16
 996 0004 00AF     		add	r7, sp, #0
 997              		.cfi_def_cfa_register 7
 372:.\main.c      ****     int i; 
 373:.\main.c      ****     
 374:.\main.c      ****     //Now, Handle the Reader Messages
 375:.\main.c      ****     if (MyI2C_Regs.osdp_reader_cmd != 0){
 998              		.loc 1 375 0
 999 0006 3C4B     		ldr	r3, .L75
 1000 0008 93F8CD30 		ldrb	r3, [r3, #205]	@ zero_extendqisi2
 1001 000c 002B     		cmp	r3, #0
 1002 000e 34D0     		beq	.L58
 376:.\main.c      ****     	switch (MyI2C_Regs.osdp_reader_cmd)
 1003              		.loc 1 376 0
 1004 0010 394B     		ldr	r3, .L75
 1005 0012 93F8CD30 		ldrb	r3, [r3, #205]	@ zero_extendqisi2
 1006 0016 032B     		cmp	r3, #3
 1007 0018 14D8     		bhi	.L59
 1008 001a 01A2     		adr	r2, .L61
 1009 001c 52F823F0 		ldr	pc, [r2, r3, lsl #2]
 1010              		.p2align 2
 1011              	.L61:
 1012 0020 79000000 		.word	.L74+1
 1013 0024 31000000 		.word	.L62+1
 1014 0028 79000000 		.word	.L74+1
 1015 002c 37000000 		.word	.L64+1
 1016              		.p2align 1
 1017              	.L62:
 377:.\main.c      ****         {
 378:.\main.c      ****             case OSDP_NONE:
 379:.\main.c      ****                 break;
 380:.\main.c      ****             case OSDP_SEND:
 381:.\main.c      ****                 SetOSDPKeepALive();
 1018              		.loc 1 381 0
 1019 0030 FFF7FEFF 		bl	SetOSDPKeepALive
 382:.\main.c      ****               break;
 1020              		.loc 1 382 0
 1021 0034 21E0     		b	.L58
 1022              	.L64:
 383:.\main.c      ****             case OSDP_READ:
 384:.\main.c      ****                 break;
 385:.\main.c      ****             case OSDP_RATE:
 386:.\main.c      ****                 SetOSDPReaderSpeed();
 1023              		.loc 1 386 0
 1024 0036 FFF7FEFF 		bl	SetOSDPReaderSpeed
 387:.\main.c      ****                 MyI2C_Regs.osdp_reader_cmd = OSDP_SEND;
 1025              		.loc 1 387 0
 1026 003a 2F4B     		ldr	r3, .L75
 1027 003c 0122     		movs	r2, #1
 1028 003e 83F8CD20 		strb	r2, [r3, #205]
 388:.\main.c      **** //                MyI2C_Regs.osdp_reader_cmd = OSDP_NONE;
ARM GAS  C:\Users\Yiquing\AppData\Local\Temp\ccj6BAT4.s 			page 26


 389:.\main.c      ****                 break;
 1029              		.loc 1 389 0
 1030 0042 1AE0     		b	.L58
 1031              	.L59:
 390:.\main.c      ****             default:
 391:.\main.c      ****                 for (i=0; i<3; i++){
 1032              		.loc 1 391 0
 1033 0044 0023     		movs	r3, #0
 1034 0046 7B60     		str	r3, [r7, #4]
 1035 0048 12E0     		b	.L65
 1036              	.L66:
 392:.\main.c      ****                     LED_RED_Write(0); //error
 1037              		.loc 1 392 0 discriminator 2
 1038 004a 0020     		movs	r0, #0
 1039 004c FFF7FEFF 		bl	LED_RED_Write
 393:.\main.c      ****                     LED_YEL_Write(0);
 1040              		.loc 1 393 0 discriminator 2
 1041 0050 0020     		movs	r0, #0
 1042 0052 FFF7FEFF 		bl	LED_YEL_Write
 394:.\main.c      ****                     CyDelay(500);
 1043              		.loc 1 394 0 discriminator 2
 1044 0056 4FF4FA70 		mov	r0, #500
 1045 005a FFF7FEFF 		bl	CyDelay
 395:.\main.c      ****                     LED_RED_Write(0); //error
 1046              		.loc 1 395 0 discriminator 2
 1047 005e 0020     		movs	r0, #0
 1048 0060 FFF7FEFF 		bl	LED_RED_Write
 396:.\main.c      ****                     LED_YEL_Write(0);
 1049              		.loc 1 396 0 discriminator 2
 1050 0064 0020     		movs	r0, #0
 1051 0066 FFF7FEFF 		bl	LED_YEL_Write
 391:.\main.c      ****                 for (i=0; i<3; i++){
 1052              		.loc 1 391 0 discriminator 2
 1053 006a 7B68     		ldr	r3, [r7, #4]
 1054 006c 0133     		adds	r3, r3, #1
 1055 006e 7B60     		str	r3, [r7, #4]
 1056              	.L65:
 391:.\main.c      ****                 for (i=0; i<3; i++){
 1057              		.loc 1 391 0 is_stmt 0 discriminator 1
 1058 0070 7B68     		ldr	r3, [r7, #4]
 1059 0072 022B     		cmp	r3, #2
 1060 0074 E9DD     		ble	.L66
 1061 0076 00E0     		b	.L58
 1062              	.L74:
 379:.\main.c      ****                 break;
 1063              		.loc 1 379 0 is_stmt 1
 1064 0078 00BF     		nop
 1065              	.L58:
 397:.\main.c      ****                 }
 398:.\main.c      ****         }
 399:.\main.c      ****     }
 400:.\main.c      ****     
 401:.\main.c      ****     // check to see if it need send the reader again
 402:.\main.c      ****     if((OSDPReaderTask >> OSDP_SEND_READER) & 0x01){
 1066              		.loc 1 402 0
 1067 007a 204B     		ldr	r3, .L75+4
 1068 007c 1B78     		ldrb	r3, [r3]	@ zero_extendqisi2
ARM GAS  C:\Users\Yiquing\AppData\Local\Temp\ccj6BAT4.s 			page 27


 1069 007e 9B08     		lsrs	r3, r3, #2
 1070 0080 DBB2     		uxtb	r3, r3
 1071 0082 03F00103 		and	r3, r3, #1
 1072 0086 002B     		cmp	r3, #0
 1073 0088 12D0     		beq	.L67
 403:.\main.c      ****         OSDPReaderTask &= ~(0x01 << OSDP_SEND_READER); //clear flag
 1074              		.loc 1 403 0
 1075 008a 1C4B     		ldr	r3, .L75+4
 1076 008c 1B78     		ldrb	r3, [r3]	@ zero_extendqisi2
 1077 008e 23F00403 		bic	r3, r3, #4
 1078 0092 DAB2     		uxtb	r2, r3
 1079 0094 194B     		ldr	r3, .L75+4
 1080 0096 1A70     		strb	r2, [r3]
 404:.\main.c      ****         if (keepALiveLength > 0){
 1081              		.loc 1 404 0
 1082 0098 194B     		ldr	r3, .L75+8
 1083 009a 1B78     		ldrb	r3, [r3]	@ zero_extendqisi2
 1084 009c 002B     		cmp	r3, #0
 1085 009e 07D0     		beq	.L67
 405:.\main.c      ****              LED_RED_Write(0);
 1086              		.loc 1 405 0
 1087 00a0 0020     		movs	r0, #0
 1088 00a2 FFF7FEFF 		bl	LED_RED_Write
 406:.\main.c      ****             SendOSDPReader();
 1089              		.loc 1 406 0
 1090 00a6 FFF7FEFF 		bl	SendOSDPReader
 407:.\main.c      ****              LED_RED_Write(1);
 1091              		.loc 1 407 0
 1092 00aa 0120     		movs	r0, #1
 1093 00ac FFF7FEFF 		bl	LED_RED_Write
 1094              	.L67:
 408:.\main.c      ****         }
 409:.\main.c      ****     }
 410:.\main.c      ****  
 411:.\main.c      ****     // check if anything comes in
 412:.\main.c      ****     ReadOSDPReader();
 1095              		.loc 1 412 0
 1096 00b0 FFF7FEFF 		bl	ReadOSDPReader
 413:.\main.c      ****     
 414:.\main.c      ****     //Panel Messages
 415:.\main.c      ****     if (MyI2C_Regs.osdp_cmd){
 1097              		.loc 1 415 0
 1098 00b4 104B     		ldr	r3, .L75
 1099 00b6 93F84930 		ldrb	r3, [r3, #73]	@ zero_extendqisi2
 1100 00ba 002B     		cmp	r3, #0
 1101 00bc 16D0     		beq	.L68
 416:.\main.c      ****     	switch (MyI2C_Regs.osdp_cmd)
 1102              		.loc 1 416 0
 1103 00be 0E4B     		ldr	r3, .L75
 1104 00c0 93F84930 		ldrb	r3, [r3, #73]	@ zero_extendqisi2
 1105 00c4 032B     		cmp	r3, #3
 1106 00c6 11D8     		bhi	.L68
 1107 00c8 01A2     		adr	r2, .L70
 1108 00ca 52F823F0 		ldr	pc, [r2, r3, lsl #2]
 1109 00ce 00BF     		.p2align 2
 1110              	.L70:
 1111 00d0 ED000000 		.word	.L68+1
ARM GAS  C:\Users\Yiquing\AppData\Local\Temp\ccj6BAT4.s 			page 28


 1112 00d4 E1000000 		.word	.L71+1
 1113 00d8 ED000000 		.word	.L68+1
 1114 00dc E7000000 		.word	.L73+1
 1115              		.p2align 1
 1116              	.L71:
 417:.\main.c      ****         {
 418:.\main.c      ****             case OSDP_NONE:
 419:.\main.c      ****                  break;
 420:.\main.c      ****             case OSDP_SEND:
 421:.\main.c      ****                 SendOSDP();
 1117              		.loc 1 421 0
 1118 00e0 FFF7FEFF 		bl	SendOSDP
 422:.\main.c      ****                  break;
 1119              		.loc 1 422 0
 1120 00e4 02E0     		b	.L68
 1121              	.L73:
 423:.\main.c      ****             case OSDP_READ:
 424:.\main.c      ****                  break;
 425:.\main.c      ****             case OSDP_RATE:
 426:.\main.c      ****                 SetOSDPRate();
 1122              		.loc 1 426 0
 1123 00e6 FFF7FEFF 		bl	SetOSDPRate
 427:.\main.c      ****                  break;
 1124              		.loc 1 427 0
 1125 00ea 00BF     		nop
 1126              	.L68:
 428:.\main.c      ****             default:;
 429:.\main.c      ****         }
 430:.\main.c      **** //        MyI2C_Regs.osdp_cmd = OSDP_NONE;  //clear completed command
 431:.\main.c      ****     }
 432:.\main.c      ****     
 433:.\main.c      ****     ReadOSDP();
 1127              		.loc 1 433 0
 1128 00ec FFF7FEFF 		bl	ReadOSDP
 434:.\main.c      **** 
 435:.\main.c      **** }
 1129              		.loc 1 435 0
 1130 00f0 0837     		adds	r7, r7, #8
 1131 00f2 BD46     		mov	sp, r7
 1132              		@ sp needed
 1133 00f4 80BD     		pop	{r7, pc}
 1134              	.L76:
 1135 00f6 00BF     		.align	2
 1136              	.L75:
 1137 00f8 00000000 		.word	MyI2C_Regs
 1138 00fc 00000000 		.word	OSDPReaderTask
 1139 0100 00000000 		.word	keepALiveLength
 1140              		.cfi_endproc
 1141              	.LFE72:
 1142              		.size	HandleOSDP, .-HandleOSDP
 1143              		.section	.text.main,"ax",%progbits
 1144              		.align	2
 1145              		.global	main
 1146              		.thumb
 1147              		.thumb_func
 1148              		.type	main, %function
 1149              	main:
ARM GAS  C:\Users\Yiquing\AppData\Local\Temp\ccj6BAT4.s 			page 29


 1150              	.LFB73:
 436:.\main.c      **** 
 437:.\main.c      **** 
 438:.\main.c      **** int main()
 439:.\main.c      **** {
 1151              		.loc 1 439 0
 1152              		.cfi_startproc
 1153              		@ args = 0, pretend = 0, frame = 16
 1154              		@ frame_needed = 1, uses_anonymous_args = 0
 1155 0000 80B5     		push	{r7, lr}
 1156              		.cfi_def_cfa_offset 8
 1157              		.cfi_offset 7, -8
 1158              		.cfi_offset 14, -4
 1159 0002 84B0     		sub	sp, sp, #16
 1160              		.cfi_def_cfa_offset 24
 1161 0004 00AF     		add	r7, sp, #0
 1162              		.cfi_def_cfa_register 7
 440:.\main.c      ****     /* Intializing the variables */
 441:.\main.c      ****     char cmd;
 442:.\main.c      ****     int wait_for_ack; // card read acknowledge
 443:.\main.c      ****     int ack_time_cnt; // counter for acknowledge timeout
 444:.\main.c      ****     
 445:.\main.c      ****     CyGlobalIntEnable;  /* Uncomment this line to enable global interrupts. */
 1163              		.loc 1 445 0
 1164              	@ 445 ".\main.c" 1
 1165 0006 62B6     		CPSIE   i
 1166              	@ 0 "" 2
 446:.\main.c      **** 
 447:.\main.c      **** //    /* Intializing the Timers */
 448:.\main.c      ****     UART_TIMER_Start();
 1167              		.loc 1 448 0
 1168              		.thumb
 1169 0008 FFF7FEFF 		bl	UART_TIMER_Start
 449:.\main.c      **** 	UART_TIMER_ISR_StartEx(UART_TIMER_ISR_Interrupt);
 1170              		.loc 1 449 0
 1171 000c 5248     		ldr	r0, .L85
 1172 000e FFF7FEFF 		bl	UART_TIMER_ISR_StartEx
 450:.\main.c      **** 
 451:.\main.c      ****  
 452:.\main.c      ****     Tamper_Timer_ISR_StartEx(Tamper_Timer_ISR_Interrupt);
 1173              		.loc 1 452 0
 1174 0012 5248     		ldr	r0, .L85+4
 1175 0014 FFF7FEFF 		bl	Tamper_Timer_ISR_StartEx
 453:.\main.c      ****     Tamper_Timer_Start();
 1176              		.loc 1 453 0
 1177 0018 FFF7FEFF 		bl	Tamper_Timer_Start
 454:.\main.c      ****     Timeout_Timer_Isr_StartEx(Timeout_Timer_Isr_Interrupt);
 1178              		.loc 1 454 0
 1179 001c 5048     		ldr	r0, .L85+8
 1180 001e FFF7FEFF 		bl	Timeout_Timer_Isr_StartEx
 455:.\main.c      **** 
 456:.\main.c      ****     /*F2F*/
 457:.\main.c      ****     f2f_pulsewidth = 0;
 1181              		.loc 1 457 0
 1182 0022 504B     		ldr	r3, .L85+12
 1183 0024 0022     		movs	r2, #0
 1184 0026 1A60     		str	r2, [r3]
ARM GAS  C:\Users\Yiquing\AppData\Local\Temp\ccj6BAT4.s 			page 30


 458:.\main.c      ****     isr_F2F_edge_StartEx(isr_F2F_edge_Interrupt);
 1185              		.loc 1 458 0
 1186 0028 4F48     		ldr	r0, .L85+16
 1187 002a FFF7FEFF 		bl	isr_F2F_edge_StartEx
 459:.\main.c      ****     
 460:.\main.c      **** 	/* Starting EZI2C */
 461:.\main.c      **** 	EZI2Cs_Start();
 1188              		.loc 1 461 0
 1189 002e FFF7FEFF 		bl	EZI2Cs_Start
 462:.\main.c      ****     EZI2Cs_SetBuffer1(sizeof(MyI2C_Regs), sizeof(MyI2C_Regs), (volatile uint8 *) &MyI2C_Regs );
 1190              		.loc 1 462 0
 1191 0032 4FF48070 		mov	r0, #256
 1192 0036 4FF48071 		mov	r1, #256
 1193 003a 4C4A     		ldr	r2, .L85+20
 1194 003c FFF7FEFF 		bl	EZI2Cs_SetBuffer1
 463:.\main.c      ****     
 464:.\main.c      ****     /* Starting UART for PAC & HID */
 465:.\main.c      ****     UART_1_Start();
 1195              		.loc 1 465 0
 1196 0040 FFF7FEFF 		bl	UART_1_Start
 466:.\main.c      ****     SU_Start(&s,1,PARITY_EVEN,1);
 1197              		.loc 1 466 0
 1198 0044 4A48     		ldr	r0, .L85+24
 1199 0046 0121     		movs	r1, #1
 1200 0048 0222     		movs	r2, #2
 1201 004a 0123     		movs	r3, #1
 1202 004c FFF7FEFF 		bl	SU_Start
 467:.\main.c      ****     
 468:.\main.c      ****     /* Turning off both LEDS */
 469:.\main.c      ****     LED_GRN_Write(1); // LED for signaling Output
 1203              		.loc 1 469 0
 1204 0050 0120     		movs	r0, #1
 1205 0052 FFF7FEFF 		bl	LED_GRN_Write
 470:.\main.c      ****     LED_YEL_Write(1); // LED for signaling Input
 1206              		.loc 1 470 0
 1207 0056 0120     		movs	r0, #1
 1208 0058 FFF7FEFF 		bl	LED_YEL_Write
 471:.\main.c      ****     LED_RED_Write(1); // turn off tamper LED
 1209              		.loc 1 471 0
 1210 005c 0120     		movs	r0, #1
 1211 005e FFF7FEFF 		bl	LED_RED_Write
 472:.\main.c      ****     
 473:.\main.c      ****     /* Intializing the I2C Reg value */
 474:.\main.c      ****     MyI2C_Regs.cmd =0;
 1212              		.loc 1 474 0
 1213 0062 424B     		ldr	r3, .L85+20
 1214 0064 0022     		movs	r2, #0
 1215 0066 9A70     		strb	r2, [r3, #2]
 475:.\main.c      ****     MyI2C_Regs.status =0;
 1216              		.loc 1 475 0
 1217 0068 404B     		ldr	r3, .L85+20
 1218 006a 0022     		movs	r2, #0
 1219 006c 1A70     		strb	r2, [r3]
 476:.\main.c      ****     MyI2C_Regs.status_in =0;
 1220              		.loc 1 476 0
 1221 006e 3F4B     		ldr	r3, .L85+20
 1222 0070 0022     		movs	r2, #0
ARM GAS  C:\Users\Yiquing\AppData\Local\Temp\ccj6BAT4.s 			page 31


 1223 0072 5A70     		strb	r2, [r3, #1]
 477:.\main.c      ****     MyI2C_Regs.acs_outputs = 0;
 1224              		.loc 1 477 0
 1225 0074 3D4B     		ldr	r3, .L85+20
 1226 0076 0022     		movs	r2, #0
 1227 0078 1A71     		strb	r2, [r3, #4]
 478:.\main.c      ****     MyI2C_Regs.data_length = 0;
 1228              		.loc 1 478 0
 1229 007a 3C4B     		ldr	r3, .L85+20
 1230 007c 0022     		movs	r2, #0
 1231 007e DA70     		strb	r2, [r3, #3]
 479:.\main.c      ****     MyI2C_Regs.factory_reset = 0;
 1232              		.loc 1 479 0
 1233 0080 3A4B     		ldr	r3, .L85+20
 1234 0082 0022     		movs	r2, #0
 1235 0084 83F84220 		strb	r2, [r3, #66]
 480:.\main.c      ****     MyI2C_Regs.osdp_reader_cmd = OSDP_RATE;
 1236              		.loc 1 480 0
 1237 0088 384B     		ldr	r3, .L85+20
 1238 008a 0322     		movs	r2, #3
 1239 008c 83F8CD20 		strb	r2, [r3, #205]
 481:.\main.c      ****     MyI2C_Regs.osdp_reader_rate = 1;   
 1240              		.loc 1 481 0
 1241 0090 364B     		ldr	r3, .L85+20
 1242 0092 0122     		movs	r2, #1
 1243 0094 83F8CF20 		strb	r2, [r3, #207]
 482:.\main.c      ****    
 483:.\main.c      ****     SetHardwareVals(8);  // TAMPER_POL defaulted to 1 (normal config with active tamper = 0)
 1244              		.loc 1 483 0
 1245 0098 0820     		movs	r0, #8
 1246 009a FFF7FEFF 		bl	SetHardwareVals
 484:.\main.c      ****     
 485:.\main.c      ****     SetVersion();
 1247              		.loc 1 485 0
 1248 009e FFF7FEFF 		bl	SetVersion
 486:.\main.c      ****     
 487:.\main.c      ****     // initialize card reader tamper polarity bit:  1=normal
 488:.\main.c      ****     // This is only for TEST and must be set by webconfig/motherboard.
 489:.\main.c      ****     // TAMPERCR_POLARITY = 1;
 490:.\main.c      ****     activate_f2ftimer = 0;
 1249              		.loc 1 490 0
 1250 00a2 344B     		ldr	r3, .L85+28
 1251 00a4 0022     		movs	r2, #0
 1252 00a6 1A70     		strb	r2, [r3]
 491:.\main.c      ****     card_ack = 0;
 1253              		.loc 1 491 0
 1254 00a8 334B     		ldr	r3, .L85+32
 1255 00aa 0022     		movs	r2, #0
 1256 00ac 1A60     		str	r2, [r3]
 492:.\main.c      ****     
 493:.\main.c      ****     InitOSDP();
 1257              		.loc 1 493 0
 1258 00ae FFF7FEFF 		bl	InitOSDP
 494:.\main.c      ****     
 495:.\main.c      ****     /* push button */
 496:.\main.c      ****     buttonPressed=0;
 1259              		.loc 1 496 0
ARM GAS  C:\Users\Yiquing\AppData\Local\Temp\ccj6BAT4.s 			page 32


 1260 00b2 324B     		ldr	r3, .L85+36
 1261 00b4 0022     		movs	r2, #0
 1262 00b6 1A70     		strb	r2, [r3]
 497:.\main.c      ****     buttonReleased=0;
 1263              		.loc 1 497 0
 1264 00b8 314B     		ldr	r3, .L85+40
 1265 00ba 0022     		movs	r2, #0
 1266 00bc 1A70     		strb	r2, [r3]
 498:.\main.c      ****     buttonDuration=0;
 1267              		.loc 1 498 0
 1268 00be 314B     		ldr	r3, .L85+44
 1269 00c0 0022     		movs	r2, #0
 1270 00c2 1A60     		str	r2, [r3]
 499:.\main.c      ****     isr_SW_Rst_Start(); 
 1271              		.loc 1 499 0
 1272 00c4 FFF7FEFF 		bl	isr_SW_Rst_Start
 1273              	.L84:
 500:.\main.c      ****     
 501:.\main.c      **** 
 502:.\main.c      **** /* //yqh debug  
 503:.\main.c      **** MyI2C_Regs.cmd = 2;
 504:.\main.c      **** MyI2C_Regs.data_length = 10; //yqh debug
 505:.\main.c      **** MyI2C_Regs.osdp_reader_data_length=7;
 506:.\main.c      **** MyI2C_Regs.osdp_reader_rate = 1;   
 507:.\main.c      **** MyI2C_Regs.osdp_reader_buffer[0]=0x53;
 508:.\main.c      **** MyI2C_Regs.osdp_reader_buffer[1]=0x00;
 509:.\main.c      **** MyI2C_Regs.osdp_reader_buffer[2]=0x07;
 510:.\main.c      **** MyI2C_Regs.osdp_reader_buffer[3]=0x00;
 511:.\main.c      **** MyI2C_Regs.osdp_reader_buffer[4]=0x03;
 512:.\main.c      **** MyI2C_Regs.osdp_reader_buffer[5]=0x60;
 513:.\main.c      **** MyI2C_Regs.osdp_reader_buffer[6]=0x43;
 514:.\main.c      **** SetOSDPKeepALive();
 515:.\main.c      **** */
 516:.\main.c      ****   
 517:.\main.c      ****     
 518:.\main.c      **** 
 519:.\main.c      ****     while(1)
 520:.\main.c      ****     {
 521:.\main.c      ****     //Infinite While Loop for handling device req
 522:.\main.c      ****         wait_for_ack = 0;
 1274              		.loc 1 522 0
 1275 00c8 0023     		movs	r3, #0
 1276 00ca FB60     		str	r3, [r7, #12]
 523:.\main.c      ****         ack_time_cnt = 0;
 1277              		.loc 1 523 0
 1278 00cc 0023     		movs	r3, #0
 1279 00ce BB60     		str	r3, [r7, #8]
 524:.\main.c      ****         
 525:.\main.c      ****         
 526:.\main.c      ****         cmd = MyI2C_Regs.cmd;   // load command
 1280              		.loc 1 526 0
 1281 00d0 264B     		ldr	r3, .L85+20
 1282 00d2 9B78     		ldrb	r3, [r3, #2]
 1283 00d4 FB71     		strb	r3, [r7, #7]
 527:.\main.c      ****         
 528:.\main.c      ****         if (cmd !=0)  // command exists if register not 0
 1284              		.loc 1 528 0
ARM GAS  C:\Users\Yiquing\AppData\Local\Temp\ccj6BAT4.s 			page 33


 1285 00d6 FB79     		ldrb	r3, [r7, #7]	@ zero_extendqisi2
 1286 00d8 002B     		cmp	r3, #0
 1287 00da 06D0     		beq	.L78
 529:.\main.c      ****         {
 530:.\main.c      ****   		    if (cmd == CMD_READ_CARD) {wait_for_ack = 1;}   // flag to trigger wait for ack from mother
 1288              		.loc 1 530 0
 1289 00dc FB79     		ldrb	r3, [r7, #7]	@ zero_extendqisi2
 1290 00de 022B     		cmp	r3, #2
 1291 00e0 01D1     		bne	.L79
 1292              		.loc 1 530 0 is_stmt 0 discriminator 1
 1293 00e2 0123     		movs	r3, #1
 1294 00e4 FB60     		str	r3, [r7, #12]
 1295              	.L79:
 531:.\main.c      ****             HandleCommand();
 1296              		.loc 1 531 0 is_stmt 1
 1297 00e6 FFF7FEFF 		bl	HandleCommand
 1298              	.L78:
 532:.\main.c      ****         }
 533:.\main.c      ****         
 534:.\main.c      ****         HandleOSDP();
 1299              		.loc 1 534 0
 1300 00ea FFF7FEFF 		bl	HandleOSDP
 535:.\main.c      ****         
 536:.\main.c      ****         if ((wait_for_ack == 1) & (card_in_buf == 1))  // card read requires ack from motherboard
 1301              		.loc 1 536 0
 1302 00ee FB68     		ldr	r3, [r7, #12]
 1303 00f0 012B     		cmp	r3, #1
 1304 00f2 14BF     		ite	ne
 1305 00f4 0023     		movne	r3, #0
 1306 00f6 0123     		moveq	r3, #1
 1307 00f8 DAB2     		uxtb	r2, r3
 1308 00fa 234B     		ldr	r3, .L85+48
 1309 00fc 1B68     		ldr	r3, [r3]
 1310 00fe 012B     		cmp	r3, #1
 1311 0100 14BF     		ite	ne
 1312 0102 0023     		movne	r3, #0
 1313 0104 0123     		moveq	r3, #1
 1314 0106 DBB2     		uxtb	r3, r3
 1315 0108 1340     		ands	r3, r3, r2
 1316 010a DBB2     		uxtb	r3, r3
 1317 010c 002B     		cmp	r3, #0
 1318 010e 1FD0     		beq	.L80
 537:.\main.c      ****         {
 538:.\main.c      ****             
 539:.\main.c      ****             while (card_ack == 0)   // waiting for card read acknowledge here
 1319              		.loc 1 539 0
 1320 0110 15E0     		b	.L81
 1321              	.L83:
 540:.\main.c      ****             {
 541:.\main.c      ****                 CyDelay(10);    //10ms
 1322              		.loc 1 541 0
 1323 0112 0A20     		movs	r0, #10
 1324 0114 FFF7FEFF 		bl	CyDelay
 542:.\main.c      ****                 ack_time_cnt++;  // increment time counter every 10ms while waiting for ack
 1325              		.loc 1 542 0
 1326 0118 BB68     		ldr	r3, [r7, #8]
 1327 011a 0133     		adds	r3, r3, #1
ARM GAS  C:\Users\Yiquing\AppData\Local\Temp\ccj6BAT4.s 			page 34


 1328 011c BB60     		str	r3, [r7, #8]
 543:.\main.c      ****                 if (ack_time_cnt >= 500)    // if 5000 ms, re-notify and break.
 1329              		.loc 1 543 0
 1330 011e BB68     		ldr	r3, [r7, #8]
 1331 0120 B3F5FA7F 		cmp	r3, #500
 1332 0124 0BDB     		blt	.L81
 544:.\main.c      ****                 {
 545:.\main.c      ****                     
 546:.\main.c      ****                     MyI2C_Regs.status |= STAT_CHANGE | STAT_CARD_IN ;   // if timeout, set status b
 1333              		.loc 1 546 0
 1334 0126 114B     		ldr	r3, .L85+20
 1335 0128 1B78     		ldrb	r3, [r3]	@ zero_extendqisi2
 1336 012a 43F00303 		orr	r3, r3, #3
 1337 012e DAB2     		uxtb	r2, r3
 1338 0130 0E4B     		ldr	r3, .L85+20
 1339 0132 1A70     		strb	r2, [r3]
 547:.\main.c      ****                     wait_for_ack = 0;
 1340              		.loc 1 547 0
 1341 0134 0023     		movs	r3, #0
 1342 0136 FB60     		str	r3, [r7, #12]
 548:.\main.c      ****                     ack_time_cnt = 0;
 1343              		.loc 1 548 0
 1344 0138 0023     		movs	r3, #0
 1345 013a BB60     		str	r3, [r7, #8]
 549:.\main.c      ****                     break;
 1346              		.loc 1 549 0
 1347 013c 03E0     		b	.L82
 1348              	.L81:
 539:.\main.c      ****             while (card_ack == 0)   // waiting for card read acknowledge here
 1349              		.loc 1 539 0 discriminator 1
 1350 013e 0E4B     		ldr	r3, .L85+32
 1351 0140 1B68     		ldr	r3, [r3]
 1352 0142 002B     		cmp	r3, #0
 1353 0144 E5D0     		beq	.L83
 1354              	.L82:
 550:.\main.c      ****                 }
 551:.\main.c      ****             }
 552:.\main.c      ****             card_in_buf = 0;
 1355              		.loc 1 552 0
 1356 0146 104B     		ldr	r3, .L85+48
 1357 0148 0022     		movs	r2, #0
 1358 014a 1A60     		str	r2, [r3]
 553:.\main.c      ****             wait_for_ack = 0;
 1359              		.loc 1 553 0
 1360 014c 0023     		movs	r3, #0
 1361 014e FB60     		str	r3, [r7, #12]
 1362              	.L80:
 554:.\main.c      ****         } 
 555:.\main.c      **** 
 556:.\main.c      ****         CyDelay(50);    //up to 50ms Sec delay for sending out signals. 
 1363              		.loc 1 556 0
 1364 0150 3220     		movs	r0, #50
 1365 0152 FFF7FEFF 		bl	CyDelay
 557:.\main.c      ****  
 558:.\main.c      ****     } //while
 1366              		.loc 1 558 0
 1367 0156 B7E7     		b	.L84
ARM GAS  C:\Users\Yiquing\AppData\Local\Temp\ccj6BAT4.s 			page 35


 1368              	.L86:
 1369              		.align	2
 1370              	.L85:
 1371 0158 00000000 		.word	UART_TIMER_ISR_Interrupt
 1372 015c 00000000 		.word	Tamper_Timer_ISR_Interrupt
 1373 0160 00000000 		.word	Timeout_Timer_Isr_Interrupt
 1374 0164 00000000 		.word	f2f_pulsewidth
 1375 0168 00000000 		.word	isr_F2F_edge_Interrupt
 1376 016c 00000000 		.word	MyI2C_Regs
 1377 0170 00000000 		.word	s
 1378 0174 00000000 		.word	activate_f2ftimer
 1379 0178 00000000 		.word	card_ack
 1380 017c 00000000 		.word	buttonPressed
 1381 0180 00000000 		.word	buttonReleased
 1382 0184 00000000 		.word	buttonDuration
 1383 0188 00000000 		.word	card_in_buf
 1384              		.cfi_endproc
 1385              	.LFE73:
 1386              		.size	main, .-main
 1387              		.text
 1388              	.Letext0:
 1389              		.file 2 "c:\\program files (x86)\\cypress\\psoc creator\\3.2\\psoc creator\\import\\gnu\\arm\\4.8.
 1390              		.file 3 "c:\\program files (x86)\\cypress\\psoc creator\\3.2\\psoc creator\\import\\gnu\\arm\\4.8.
 1391              		.file 4 "Generated_Source\\PSoC5/cytypes.h"
 1392              		.file 5 ".\\softuart.h"
 1393              		.file 6 ".\\system.h"
 1394              		.file 7 "Generated_Source\\PSoC5/core_cm3.h"