ARM GAS  C:\Users\Yiquing\AppData\Local\Temp\ccFxov21.s 			page 1


   1              		.syntax unified
   2              		.cpu cortex-m3
   3              		.fpu softvfp
   4              		.eabi_attribute 20, 1
   5              		.eabi_attribute 21, 1
   6              		.eabi_attribute 23, 3
   7              		.eabi_attribute 24, 1
   8              		.eabi_attribute 25, 1
   9              		.eabi_attribute 26, 1
  10              		.eabi_attribute 30, 6
  11              		.eabi_attribute 34, 1
  12              		.eabi_attribute 18, 4
  13              		.thumb
  14              		.file	"soft_uart.c"
  15              		.text
  16              	.Ltext0:
  17              		.cfi_sections	.debug_frame
  18              		.section	.text.SU_Start,"ax",%progbits
  19              		.align	2
  20              		.global	SU_Start
  21              		.thumb
  22              		.thumb_func
  23              		.type	SU_Start, %function
  24              	SU_Start:
  25              	.LFB63:
  26              		.file 1 ".\\soft_uart.c"
   1:.\soft_uart.c **** /* ========================================
   2:.\soft_uart.c ****  *
   3:.\soft_uart.c ****  * Copyright YOUR COMPANY, THE YEAR
   4:.\soft_uart.c ****  * All Rights Reserved
   5:.\soft_uart.c ****  * UNPUBLISHED, LICENSED SOFTWARE.
   6:.\soft_uart.c ****  *
   7:.\soft_uart.c ****  * CONFIDENTIAL AND PROPRIETARY INFORMATION
   8:.\soft_uart.c ****  * WHICH IS THE PROPERTY OF your company.
   9:.\soft_uart.c ****  *
  10:.\soft_uart.c ****  * ========================================
  11:.\soft_uart.c **** */
  12:.\soft_uart.c **** #include <project.h>
  13:.\soft_uart.c **** #include "softuart.h"
  14:.\soft_uart.c **** 
  15:.\soft_uart.c **** 
  16:.\soft_uart.c **** 
  17:.\soft_uart.c **** 
  18:.\soft_uart.c **** void SU_Start(SOFT_UART_STRUCT *s, int baud, int  parity, int stop)
  19:.\soft_uart.c **** {
  27              		.loc 1 19 0
  28              		.cfi_startproc
  29              		@ args = 0, pretend = 0, frame = 16
  30              		@ frame_needed = 1, uses_anonymous_args = 0
  31              		@ link register save eliminated.
  32 0000 80B4     		push	{r7}
  33              		.cfi_def_cfa_offset 4
  34              		.cfi_offset 7, -4
  35 0002 85B0     		sub	sp, sp, #20
  36              		.cfi_def_cfa_offset 24
  37 0004 00AF     		add	r7, sp, #0
  38              		.cfi_def_cfa_register 7
ARM GAS  C:\Users\Yiquing\AppData\Local\Temp\ccFxov21.s 			page 2


  39 0006 F860     		str	r0, [r7, #12]
  40 0008 B960     		str	r1, [r7, #8]
  41 000a 7A60     		str	r2, [r7, #4]
  42 000c 3B60     		str	r3, [r7]
  20:.\soft_uart.c **** 	s->baud = baud;
  43              		.loc 1 20 0
  44 000e FB68     		ldr	r3, [r7, #12]
  45 0010 BA68     		ldr	r2, [r7, #8]
  46 0012 1A60     		str	r2, [r3]
  21:.\soft_uart.c **** 	s->parity = parity;
  47              		.loc 1 21 0
  48 0014 FB68     		ldr	r3, [r7, #12]
  49 0016 7A68     		ldr	r2, [r7, #4]
  50 0018 5A60     		str	r2, [r3, #4]
  22:.\soft_uart.c **** 	s->rx_bits = 0;
  51              		.loc 1 22 0
  52 001a FB68     		ldr	r3, [r7, #12]
  53 001c 0022     		movs	r2, #0
  54 001e DA82     		strh	r2, [r3, #22]	@ movhi
  23:.\soft_uart.c **** 	s->tx_bits = 0;
  55              		.loc 1 23 0
  56 0020 FB68     		ldr	r3, [r7, #12]
  57 0022 0022     		movs	r2, #0
  58 0024 9A82     		strh	r2, [r3, #20]	@ movhi
  24:.\soft_uart.c **** 	s->flags = TX_READY;
  59              		.loc 1 24 0
  60 0026 FB68     		ldr	r3, [r7, #12]
  61 0028 0222     		movs	r2, #2
  62 002a 9A61     		str	r2, [r3, #24]
  25:.\soft_uart.c **** 	s->timer_tx_ctr=0;
  63              		.loc 1 25 0
  64 002c FB68     		ldr	r3, [r7, #12]
  65 002e 0022     		movs	r2, #0
  66 0030 DA61     		str	r2, [r3, #28]
  26:.\soft_uart.c **** 	s->timer_rx_ctr=0;
  67              		.loc 1 26 0
  68 0032 FB68     		ldr	r3, [r7, #12]
  69 0034 0022     		movs	r2, #0
  70 0036 1A62     		str	r2, [r3, #32]
  27:.\soft_uart.c **** 	s->stop_bits =stop;
  71              		.loc 1 27 0
  72 0038 FB68     		ldr	r3, [r7, #12]
  73 003a 3A68     		ldr	r2, [r7]
  74 003c 9A60     		str	r2, [r3, #8]
  28:.\soft_uart.c **** 	s->bits=8;
  75              		.loc 1 28 0
  76 003e FB68     		ldr	r3, [r7, #12]
  77 0040 0822     		movs	r2, #8
  78 0042 DA60     		str	r2, [r3, #12]
  29:.\soft_uart.c **** 
  30:.\soft_uart.c **** }
  79              		.loc 1 30 0
  80 0044 1437     		adds	r7, r7, #20
  81 0046 BD46     		mov	sp, r7
  82              		@ sp needed
  83 0048 5DF8047B 		ldr	r7, [sp], #4
  84 004c 7047     		bx	lr
ARM GAS  C:\Users\Yiquing\AppData\Local\Temp\ccFxov21.s 			page 3


  85              		.cfi_endproc
  86              	.LFE63:
  87              		.size	SU_Start, .-SU_Start
  88 004e 00BF     		.section	.text.SU_Isr,"ax",%progbits
  89              		.align	2
  90              		.global	SU_Isr
  91              		.thumb
  92              		.thumb_func
  93              		.type	SU_Isr, %function
  94              	SU_Isr:
  95              	.LFB64:
  31:.\soft_uart.c **** 
  32:.\soft_uart.c **** 
  33:.\soft_uart.c **** 
  34:.\soft_uart.c **** void SU_Isr(SOFT_UART_STRUCT *s)
  35:.\soft_uart.c **** {
  96              		.loc 1 35 0
  97              		.cfi_startproc
  98              		@ args = 0, pretend = 0, frame = 16
  99              		@ frame_needed = 1, uses_anonymous_args = 0
 100 0000 80B5     		push	{r7, lr}
 101              		.cfi_def_cfa_offset 8
 102              		.cfi_offset 7, -8
 103              		.cfi_offset 14, -4
 104 0002 84B0     		sub	sp, sp, #16
 105              		.cfi_def_cfa_offset 24
 106 0004 00AF     		add	r7, sp, #0
 107              		.cfi_def_cfa_register 7
 108 0006 7860     		str	r0, [r7, #4]
  36:.\soft_uart.c **** 	uint8 rb;
  37:.\soft_uart.c **** 	
  38:.\soft_uart.c **** 	// this is where we tx
  39:.\soft_uart.c **** 	if ( s->tx_bits)
 109              		.loc 1 39 0
 110 0008 7B68     		ldr	r3, [r7, #4]
 111 000a 9B8A     		ldrh	r3, [r3, #20]	@ movhi
 112 000c 9BB2     		uxth	r3, r3
 113 000e 002B     		cmp	r3, #0
 114 0010 37D0     		beq	.L3
  40:.\soft_uart.c **** 	{
  41:.\soft_uart.c **** 		if ( --s->timer_tx_ctr<=0 )
 115              		.loc 1 41 0
 116 0012 7B68     		ldr	r3, [r7, #4]
 117 0014 DB69     		ldr	r3, [r3, #28]
 118 0016 013B     		subs	r3, r3, #1
 119 0018 7A68     		ldr	r2, [r7, #4]
 120 001a D361     		str	r3, [r2, #28]
 121 001c 002B     		cmp	r3, #0
 122 001e 30DC     		bgt	.L3
  42:.\soft_uart.c **** 		{
  43:.\soft_uart.c **** 			if ((s->tx_byte & 0x01) == 0x01)
 123              		.loc 1 43 0
 124 0020 7B68     		ldr	r3, [r7, #4]
 125 0022 5B8A     		ldrh	r3, [r3, #18]	@ movhi
 126 0024 9BB2     		uxth	r3, r3
 127 0026 03F00103 		and	r3, r3, #1
 128 002a 002B     		cmp	r3, #0
ARM GAS  C:\Users\Yiquing\AppData\Local\Temp\ccFxov21.s 			page 4


 129 002c 03D0     		beq	.L4
  44:.\soft_uart.c **** 			{
  45:.\soft_uart.c ****                 OptSelect_Write(2);
 130              		.loc 1 45 0
 131 002e 0220     		movs	r0, #2
 132 0030 FFF7FEFF 		bl	OptSelect_Write
 133 0034 02E0     		b	.L5
 134              	.L4:
  46:.\soft_uart.c **** 			}
  47:.\soft_uart.c **** 			else
  48:.\soft_uart.c **** 			{
  49:.\soft_uart.c ****                 OptSelect_Write(3);
 135              		.loc 1 49 0
 136 0036 0320     		movs	r0, #3
 137 0038 FFF7FEFF 		bl	OptSelect_Write
 138              	.L5:
  50:.\soft_uart.c **** 			}
  51:.\soft_uart.c **** 			s->tx_byte = s->tx_byte >>1;
 139              		.loc 1 51 0
 140 003c 7B68     		ldr	r3, [r7, #4]
 141 003e 5B8A     		ldrh	r3, [r3, #18]	@ movhi
 142 0040 9BB2     		uxth	r3, r3
 143 0042 5B08     		lsrs	r3, r3, #1
 144 0044 9AB2     		uxth	r2, r3
 145 0046 7B68     		ldr	r3, [r7, #4]
 146 0048 5A82     		strh	r2, [r3, #18]	@ movhi
  52:.\soft_uart.c **** 			s->tx_bits--;
 147              		.loc 1 52 0
 148 004a 7B68     		ldr	r3, [r7, #4]
 149 004c 9B8A     		ldrh	r3, [r3, #20]	@ movhi
 150 004e 9BB2     		uxth	r3, r3
 151 0050 013B     		subs	r3, r3, #1
 152 0052 9AB2     		uxth	r2, r3
 153 0054 7B68     		ldr	r3, [r7, #4]
 154 0056 9A82     		strh	r2, [r3, #20]	@ movhi
  53:.\soft_uart.c **** 			if (s->tx_bits)
 155              		.loc 1 53 0
 156 0058 7B68     		ldr	r3, [r7, #4]
 157 005a 9B8A     		ldrh	r3, [r3, #20]	@ movhi
 158 005c 9BB2     		uxth	r3, r3
 159 005e 002B     		cmp	r3, #0
 160 0060 09D0     		beq	.L6
  54:.\soft_uart.c **** 			{
  55:.\soft_uart.c **** 				s->flags &=~TX_READY;
 161              		.loc 1 55 0
 162 0062 7B68     		ldr	r3, [r7, #4]
 163 0064 9B69     		ldr	r3, [r3, #24]
 164 0066 23F00202 		bic	r2, r3, #2
 165 006a 7B68     		ldr	r3, [r7, #4]
 166 006c 9A61     		str	r2, [r3, #24]
  56:.\soft_uart.c **** 				s->timer_tx_ctr = 3;
 167              		.loc 1 56 0
 168 006e 7B68     		ldr	r3, [r7, #4]
 169 0070 0322     		movs	r2, #3
 170 0072 DA61     		str	r2, [r3, #28]
 171 0074 05E0     		b	.L3
 172              	.L6:
ARM GAS  C:\Users\Yiquing\AppData\Local\Temp\ccFxov21.s 			page 5


  57:.\soft_uart.c **** 		    }
  58:.\soft_uart.c **** 			else
  59:.\soft_uart.c **** 			   s->flags |=TX_READY;
 173              		.loc 1 59 0
 174 0076 7B68     		ldr	r3, [r7, #4]
 175 0078 9B69     		ldr	r3, [r3, #24]
 176 007a 43F00202 		orr	r2, r3, #2
 177 007e 7B68     		ldr	r3, [r7, #4]
 178 0080 9A61     		str	r2, [r3, #24]
 179              	.L3:
  60:.\soft_uart.c **** 		}	
  61:.\soft_uart.c **** 	}
  62:.\soft_uart.c **** 
  63:.\soft_uart.c ****     rb = Pin_WD0_Read();
 180              		.loc 1 63 0
 181 0082 FFF7FEFF 		bl	Pin_WD0_Read
 182 0086 0346     		mov	r3, r0
 183 0088 FB73     		strb	r3, [r7, #15]
  64:.\soft_uart.c **** 	if ( s->rx_bits==0)
 184              		.loc 1 64 0
 185 008a 7B68     		ldr	r3, [r7, #4]
 186 008c DB8A     		ldrh	r3, [r3, #22]
 187 008e 002B     		cmp	r3, #0
 188 0090 15D1     		bne	.L7
  65:.\soft_uart.c **** 	{
  66:.\soft_uart.c **** 		if ( rb==0) // we got a start bit
 189              		.loc 1 66 0
 190 0092 FB7B     		ldrb	r3, [r7, #15]	@ zero_extendqisi2
 191 0094 002B     		cmp	r3, #0
 192 0096 60D1     		bne	.L2
  67:.\soft_uart.c **** 		{
  68:.\soft_uart.c **** 			s->timer_rx_ctr = 4;
 193              		.loc 1 68 0
 194 0098 7B68     		ldr	r3, [r7, #4]
 195 009a 0422     		movs	r2, #4
 196 009c 1A62     		str	r2, [r3, #32]
  69:.\soft_uart.c **** 			s->rx_bits = s->bits+s->stop_bits+s->parity;
 197              		.loc 1 69 0
 198 009e 7B68     		ldr	r3, [r7, #4]
 199 00a0 DB68     		ldr	r3, [r3, #12]
 200 00a2 9AB2     		uxth	r2, r3
 201 00a4 7B68     		ldr	r3, [r7, #4]
 202 00a6 9B68     		ldr	r3, [r3, #8]
 203 00a8 9BB2     		uxth	r3, r3
 204 00aa 1344     		add	r3, r3, r2
 205 00ac 9AB2     		uxth	r2, r3
 206 00ae 7B68     		ldr	r3, [r7, #4]
 207 00b0 5B68     		ldr	r3, [r3, #4]
 208 00b2 9BB2     		uxth	r3, r3
 209 00b4 1344     		add	r3, r3, r2
 210 00b6 9AB2     		uxth	r2, r3
 211 00b8 7B68     		ldr	r3, [r7, #4]
 212 00ba DA82     		strh	r2, [r3, #22]	@ movhi
 213 00bc 4DE0     		b	.L2
 214              	.L7:
  70:.\soft_uart.c **** 		}
  71:.\soft_uart.c **** 	}
ARM GAS  C:\Users\Yiquing\AppData\Local\Temp\ccFxov21.s 			page 6


  72:.\soft_uart.c **** 	else
  73:.\soft_uart.c **** 	{
  74:.\soft_uart.c **** 		if ( --s->timer_rx_ctr<=0 )
 215              		.loc 1 74 0
 216 00be 7B68     		ldr	r3, [r7, #4]
 217 00c0 1B6A     		ldr	r3, [r3, #32]
 218 00c2 013B     		subs	r3, r3, #1
 219 00c4 7A68     		ldr	r2, [r7, #4]
 220 00c6 1362     		str	r3, [r2, #32]
 221 00c8 002B     		cmp	r3, #0
 222 00ca 46DC     		bgt	.L2
  75:.\soft_uart.c **** 		{				// rcv
  76:.\soft_uart.c **** 			if ( rb )
 223              		.loc 1 76 0
 224 00cc FB7B     		ldrb	r3, [r7, #15]	@ zero_extendqisi2
 225 00ce 002B     		cmp	r3, #0
 226 00d0 08D0     		beq	.L10
  77:.\soft_uart.c **** 			{	s->rx_byte |= 0x8000;	}
 227              		.loc 1 77 0
 228 00d2 7B68     		ldr	r3, [r7, #4]
 229 00d4 1B8A     		ldrh	r3, [r3, #16]
 230 00d6 6FEA4343 		mvn	r3, r3, lsl #17
 231 00da 6FEA5343 		mvn	r3, r3, lsr #17
 232 00de 9AB2     		uxth	r2, r3
 233 00e0 7B68     		ldr	r3, [r7, #4]
 234 00e2 1A82     		strh	r2, [r3, #16]	@ movhi
 235              	.L10:
  78:.\soft_uart.c ****             
  79:.\soft_uart.c **** 			s->rx_byte >>= 1;
 236              		.loc 1 79 0
 237 00e4 7B68     		ldr	r3, [r7, #4]
 238 00e6 1B8A     		ldrh	r3, [r3, #16]
 239 00e8 5B08     		lsrs	r3, r3, #1
 240 00ea 9AB2     		uxth	r2, r3
 241 00ec 7B68     		ldr	r3, [r7, #4]
 242 00ee 1A82     		strh	r2, [r3, #16]	@ movhi
  80:.\soft_uart.c **** 			s->rx_bits--;
 243              		.loc 1 80 0
 244 00f0 7B68     		ldr	r3, [r7, #4]
 245 00f2 DB8A     		ldrh	r3, [r3, #22]
 246 00f4 013B     		subs	r3, r3, #1
 247 00f6 9AB2     		uxth	r2, r3
 248 00f8 7B68     		ldr	r3, [r7, #4]
 249 00fa DA82     		strh	r2, [r3, #22]	@ movhi
  81:.\soft_uart.c **** 					
  82:.\soft_uart.c **** 			if ( s->rx_bits==0)
 250              		.loc 1 82 0
 251 00fc 7B68     		ldr	r3, [r7, #4]
 252 00fe DB8A     		ldrh	r3, [r3, #22]
 253 0100 002B     		cmp	r3, #0
 254 0102 27D1     		bne	.L11
  83:.\soft_uart.c **** 			{
  84:.\soft_uart.c **** 				s->rx_recv =  (s->rx_byte>>(8-1-s->stop_bits-(s->parity?1:0)))&0xff;
 255              		.loc 1 84 0
 256 0104 7B68     		ldr	r3, [r7, #4]
 257 0106 1B8A     		ldrh	r3, [r3, #16]
 258 0108 1A46     		mov	r2, r3
ARM GAS  C:\Users\Yiquing\AppData\Local\Temp\ccFxov21.s 			page 7


 259 010a 7B68     		ldr	r3, [r7, #4]
 260 010c 9B68     		ldr	r3, [r3, #8]
 261 010e C3F10701 		rsb	r1, r3, #7
 262 0112 7B68     		ldr	r3, [r7, #4]
 263 0114 5B68     		ldr	r3, [r3, #4]
 264 0116 002B     		cmp	r3, #0
 265 0118 0CBF     		ite	eq
 266 011a 0023     		moveq	r3, #0
 267 011c 0123     		movne	r3, #1
 268 011e DBB2     		uxtb	r3, r3
 269 0120 CB1A     		subs	r3, r1, r3
 270 0122 42FA03F3 		asr	r3, r2, r3
 271 0126 DAB2     		uxtb	r2, r3
 272 0128 7B68     		ldr	r3, [r7, #4]
 273 012a 5A62     		str	r2, [r3, #36]
  85:.\soft_uart.c **** 				if (s->flags & RX_BYTE_READY)
 274              		.loc 1 85 0
 275 012c 7B68     		ldr	r3, [r7, #4]
 276 012e 9B69     		ldr	r3, [r3, #24]
 277 0130 03F00103 		and	r3, r3, #1
 278 0134 002B     		cmp	r3, #0
 279 0136 06D0     		beq	.L12
  86:.\soft_uart.c **** 					 s->flags |=RX_OVERFLOW;
 280              		.loc 1 86 0
 281 0138 7B68     		ldr	r3, [r7, #4]
 282 013a 9B69     		ldr	r3, [r3, #24]
 283 013c 43F00402 		orr	r2, r3, #4
 284 0140 7B68     		ldr	r3, [r7, #4]
 285 0142 9A61     		str	r2, [r3, #24]
 286 0144 09E0     		b	.L2
 287              	.L12:
  87:.\soft_uart.c **** 				else
  88:.\soft_uart.c **** 					 s->flags |=RX_BYTE_READY;
 288              		.loc 1 88 0
 289 0146 7B68     		ldr	r3, [r7, #4]
 290 0148 9B69     		ldr	r3, [r3, #24]
 291 014a 43F00102 		orr	r2, r3, #1
 292 014e 7B68     		ldr	r3, [r7, #4]
 293 0150 9A61     		str	r2, [r3, #24]
 294 0152 02E0     		b	.L2
 295              	.L11:
  89:.\soft_uart.c **** 			}
  90:.\soft_uart.c **** 			else
  91:.\soft_uart.c **** 				s->timer_rx_ctr = 3;
 296              		.loc 1 91 0
 297 0154 7B68     		ldr	r3, [r7, #4]
 298 0156 0322     		movs	r2, #3
 299 0158 1A62     		str	r2, [r3, #32]
 300              	.L2:
  92:.\soft_uart.c **** 		}
  93:.\soft_uart.c **** 	}
  94:.\soft_uart.c **** }
 301              		.loc 1 94 0
 302 015a 1037     		adds	r7, r7, #16
 303 015c BD46     		mov	sp, r7
 304              		@ sp needed
 305 015e 80BD     		pop	{r7, pc}
ARM GAS  C:\Users\Yiquing\AppData\Local\Temp\ccFxov21.s 			page 8


 306              		.cfi_endproc
 307              	.LFE64:
 308              		.size	SU_Isr, .-SU_Isr
 309              		.section	.text.getOddParity,"ax",%progbits
 310              		.align	2
 311              		.global	getOddParity
 312              		.thumb
 313              		.thumb_func
 314              		.type	getOddParity, %function
 315              	getOddParity:
 316              	.LFB65:
  95:.\soft_uart.c **** 
  96:.\soft_uart.c **** #define START_BIT 0
  97:.\soft_uart.c **** 
  98:.\soft_uart.c **** unsigned char getOddParity(unsigned char p)
  99:.\soft_uart.c ****   {
 317              		.loc 1 99 0
 318              		.cfi_startproc
 319              		@ args = 0, pretend = 0, frame = 8
 320              		@ frame_needed = 1, uses_anonymous_args = 0
 321              		@ link register save eliminated.
 322 0000 80B4     		push	{r7}
 323              		.cfi_def_cfa_offset 4
 324              		.cfi_offset 7, -4
 325 0002 83B0     		sub	sp, sp, #12
 326              		.cfi_def_cfa_offset 16
 327 0004 00AF     		add	r7, sp, #0
 328              		.cfi_def_cfa_register 7
 329 0006 0346     		mov	r3, r0
 330 0008 FB71     		strb	r3, [r7, #7]
 100:.\soft_uart.c ****       p = p ^ (p >> 4 | p << 4);
 331              		.loc 1 100 0
 332 000a FB79     		ldrb	r3, [r7, #7]	@ zero_extendqisi2
 333 000c 1B09     		lsrs	r3, r3, #4
 334 000e DBB2     		uxtb	r3, r3
 335 0010 DAB2     		uxtb	r2, r3
 336 0012 FB79     		ldrb	r3, [r7, #7]	@ zero_extendqisi2
 337 0014 1B01     		lsls	r3, r3, #4
 338 0016 DBB2     		uxtb	r3, r3
 339 0018 1343     		orrs	r3, r3, r2
 340 001a DAB2     		uxtb	r2, r3
 341 001c FB79     		ldrb	r3, [r7, #7]	@ zero_extendqisi2
 342 001e 5340     		eors	r3, r3, r2
 343 0020 DBB2     		uxtb	r3, r3
 344 0022 FB71     		strb	r3, [r7, #7]
 101:.\soft_uart.c ****       p = p ^ (p >> 2);
 345              		.loc 1 101 0
 346 0024 FB79     		ldrb	r3, [r7, #7]	@ zero_extendqisi2
 347 0026 9B08     		lsrs	r3, r3, #2
 348 0028 DAB2     		uxtb	r2, r3
 349 002a FB79     		ldrb	r3, [r7, #7]
 350 002c 5340     		eors	r3, r3, r2
 351 002e FB71     		strb	r3, [r7, #7]
 102:.\soft_uart.c ****       p = p ^ (p >> 1);
 352              		.loc 1 102 0
 353 0030 FB79     		ldrb	r3, [r7, #7]	@ zero_extendqisi2
 354 0032 5B08     		lsrs	r3, r3, #1
ARM GAS  C:\Users\Yiquing\AppData\Local\Temp\ccFxov21.s 			page 9


 355 0034 DAB2     		uxtb	r2, r3
 356 0036 FB79     		ldrb	r3, [r7, #7]
 357 0038 5340     		eors	r3, r3, r2
 358 003a FB71     		strb	r3, [r7, #7]
 103:.\soft_uart.c ****       return p & 1;
 359              		.loc 1 103 0
 360 003c FB79     		ldrb	r3, [r7, #7]
 361 003e 03F00103 		and	r3, r3, #1
 362 0042 DBB2     		uxtb	r3, r3
 104:.\soft_uart.c ****   }
 363              		.loc 1 104 0
 364 0044 1846     		mov	r0, r3
 365 0046 0C37     		adds	r7, r7, #12
 366 0048 BD46     		mov	sp, r7
 367              		@ sp needed
 368 004a 5DF8047B 		ldr	r7, [sp], #4
 369 004e 7047     		bx	lr
 370              		.cfi_endproc
 371              	.LFE65:
 372              		.size	getOddParity, .-getOddParity
 373              		.section	.text.SU_GetStat,"ax",%progbits
 374              		.align	2
 375              		.global	SU_GetStat
 376              		.thumb
 377              		.thumb_func
 378              		.type	SU_GetStat, %function
 379              	SU_GetStat:
 380              	.LFB66:
 105:.\soft_uart.c **** 
 106:.\soft_uart.c **** int SU_GetStat( SOFT_UART_STRUCT *s)
 107:.\soft_uart.c **** {
 381              		.loc 1 107 0
 382              		.cfi_startproc
 383              		@ args = 0, pretend = 0, frame = 8
 384              		@ frame_needed = 1, uses_anonymous_args = 0
 385              		@ link register save eliminated.
 386 0000 80B4     		push	{r7}
 387              		.cfi_def_cfa_offset 4
 388              		.cfi_offset 7, -4
 389 0002 83B0     		sub	sp, sp, #12
 390              		.cfi_def_cfa_offset 16
 391 0004 00AF     		add	r7, sp, #0
 392              		.cfi_def_cfa_register 7
 393 0006 7860     		str	r0, [r7, #4]
 108:.\soft_uart.c **** 	return s->flags;
 394              		.loc 1 108 0
 395 0008 7B68     		ldr	r3, [r7, #4]
 396 000a 9B69     		ldr	r3, [r3, #24]
 109:.\soft_uart.c **** }
 397              		.loc 1 109 0
 398 000c 1846     		mov	r0, r3
 399 000e 0C37     		adds	r7, r7, #12
 400 0010 BD46     		mov	sp, r7
 401              		@ sp needed
 402 0012 5DF8047B 		ldr	r7, [sp], #4
 403 0016 7047     		bx	lr
 404              		.cfi_endproc
ARM GAS  C:\Users\Yiquing\AppData\Local\Temp\ccFxov21.s 			page 10


 405              	.LFE66:
 406              		.size	SU_GetStat, .-SU_GetStat
 407              		.section	.text.SU_GetChar,"ax",%progbits
 408              		.align	2
 409              		.global	SU_GetChar
 410              		.thumb
 411              		.thumb_func
 412              		.type	SU_GetChar, %function
 413              	SU_GetChar:
 414              	.LFB67:
 110:.\soft_uart.c **** 
 111:.\soft_uart.c **** int SU_GetChar( SOFT_UART_STRUCT *s)
 112:.\soft_uart.c **** {
 415              		.loc 1 112 0
 416              		.cfi_startproc
 417              		@ args = 0, pretend = 0, frame = 16
 418              		@ frame_needed = 1, uses_anonymous_args = 0
 419              		@ link register save eliminated.
 420 0000 80B4     		push	{r7}
 421              		.cfi_def_cfa_offset 4
 422              		.cfi_offset 7, -4
 423 0002 85B0     		sub	sp, sp, #20
 424              		.cfi_def_cfa_offset 24
 425 0004 00AF     		add	r7, sp, #0
 426              		.cfi_def_cfa_register 7
 427 0006 7860     		str	r0, [r7, #4]
 113:.\soft_uart.c **** 	uint8 b;
 114:.\soft_uart.c **** 	b = s->rx_recv;
 428              		.loc 1 114 0
 429 0008 7B68     		ldr	r3, [r7, #4]
 430 000a 5B6A     		ldr	r3, [r3, #36]
 431 000c FB73     		strb	r3, [r7, #15]
 115:.\soft_uart.c **** 		CyGlobalIntDisable;
 432              		.loc 1 115 0
 433              	@ 115 ".\soft_uart.c" 1
 434 000e 72B6     		CPSID   i
 435              	@ 0 "" 2
 116:.\soft_uart.c **** 	s->flags &=~RX_BYTE_READY;
 436              		.loc 1 116 0
 437              		.thumb
 438 0010 7B68     		ldr	r3, [r7, #4]
 439 0012 9B69     		ldr	r3, [r3, #24]
 440 0014 23F00102 		bic	r2, r3, #1
 441 0018 7B68     		ldr	r3, [r7, #4]
 442 001a 9A61     		str	r2, [r3, #24]
 117:.\soft_uart.c **** 	CyGlobalIntEnable;
 443              		.loc 1 117 0
 444              	@ 117 ".\soft_uart.c" 1
 445 001c 62B6     		CPSIE   i
 446              	@ 0 "" 2
 118:.\soft_uart.c **** 	return b;
 447              		.loc 1 118 0
 448              		.thumb
 449 001e FB7B     		ldrb	r3, [r7, #15]	@ zero_extendqisi2
 119:.\soft_uart.c **** }
 450              		.loc 1 119 0
 451 0020 1846     		mov	r0, r3
ARM GAS  C:\Users\Yiquing\AppData\Local\Temp\ccFxov21.s 			page 11


 452 0022 1437     		adds	r7, r7, #20
 453 0024 BD46     		mov	sp, r7
 454              		@ sp needed
 455 0026 5DF8047B 		ldr	r7, [sp], #4
 456 002a 7047     		bx	lr
 457              		.cfi_endproc
 458              	.LFE67:
 459              		.size	SU_GetChar, .-SU_GetChar
 460              		.section	.text.SU_PutChar,"ax",%progbits
 461              		.align	2
 462              		.global	SU_PutChar
 463              		.thumb
 464              		.thumb_func
 465              		.type	SU_PutChar, %function
 466              	SU_PutChar:
 467              	.LFB68:
 120:.\soft_uart.c **** 
 121:.\soft_uart.c **** void SU_PutChar( SOFT_UART_STRUCT *s, int c)
 122:.\soft_uart.c **** {
 468              		.loc 1 122 0
 469              		.cfi_startproc
 470              		@ args = 0, pretend = 0, frame = 16
 471              		@ frame_needed = 1, uses_anonymous_args = 0
 472 0000 80B5     		push	{r7, lr}
 473              		.cfi_def_cfa_offset 8
 474              		.cfi_offset 7, -8
 475              		.cfi_offset 14, -4
 476 0002 84B0     		sub	sp, sp, #16
 477              		.cfi_def_cfa_offset 24
 478 0004 00AF     		add	r7, sp, #0
 479              		.cfi_def_cfa_register 7
 480 0006 7860     		str	r0, [r7, #4]
 481 0008 3960     		str	r1, [r7]
 123:.\soft_uart.c **** 	uint16 data_tosend;
 124:.\soft_uart.c **** 	int parity = 0;
 482              		.loc 1 124 0
 483 000a 0023     		movs	r3, #0
 484 000c BB60     		str	r3, [r7, #8]
 125:.\soft_uart.c **** 	data_tosend = (c<<1) | START_BIT;
 485              		.loc 1 125 0
 486 000e 3B68     		ldr	r3, [r7]
 487 0010 9BB2     		uxth	r3, r3
 488 0012 5B00     		lsls	r3, r3, #1
 489 0014 FB81     		strh	r3, [r7, #14]	@ movhi
 126:.\soft_uart.c **** 	if (s->parity==PARITY_ODD)
 490              		.loc 1 126 0
 491 0016 7B68     		ldr	r3, [r7, #4]
 492 0018 5B68     		ldr	r3, [r3, #4]
 493 001a 012B     		cmp	r3, #1
 494 001c 1FD1     		bne	.L21
 127:.\soft_uart.c **** 	  {
 128:.\soft_uart.c ****         parity = getOddParity(c);
 495              		.loc 1 128 0
 496 001e 3B68     		ldr	r3, [r7]
 497 0020 DBB2     		uxtb	r3, r3
 498 0022 1846     		mov	r0, r3
 499 0024 FFF7FEFF 		bl	getOddParity
ARM GAS  C:\Users\Yiquing\AppData\Local\Temp\ccFxov21.s 			page 12


 500 0028 0346     		mov	r3, r0
 501 002a BB60     		str	r3, [r7, #8]
 129:.\soft_uart.c **** 		data_tosend |= parity ? (0x300 << s->stop_bits) : (0x200 << s->stop_bits);
 502              		.loc 1 129 0
 503 002c BB68     		ldr	r3, [r7, #8]
 504 002e 002B     		cmp	r3, #0
 505 0030 07D0     		beq	.L22
 506              		.loc 1 129 0 is_stmt 0 discriminator 1
 507 0032 7B68     		ldr	r3, [r7, #4]
 508 0034 9B68     		ldr	r3, [r3, #8]
 509 0036 4FF44072 		mov	r2, #768
 510 003a 02FA03F3 		lsl	r3, r2, r3
 511 003e 9BB2     		uxth	r3, r3
 512 0040 06E0     		b	.L23
 513              	.L22:
 514              		.loc 1 129 0 discriminator 2
 515 0042 7B68     		ldr	r3, [r7, #4]
 516 0044 9B68     		ldr	r3, [r3, #8]
 517 0046 4FF40072 		mov	r2, #512
 518 004a 02FA03F3 		lsl	r3, r2, r3
 519 004e 9BB2     		uxth	r3, r3
 520              	.L23:
 521              		.loc 1 129 0 discriminator 1
 522 0050 F989     		ldrh	r1, [r7, #14]
 523 0052 1A46     		mov	r2, r3	@ movhi
 524 0054 0B46     		mov	r3, r1	@ movhi
 525 0056 1343     		orrs	r3, r3, r2
 526 0058 9BB2     		uxth	r3, r3
 527 005a FB81     		strh	r3, [r7, #14]	@ movhi
 528 005c 31E0     		b	.L24
 529              	.L21:
 130:.\soft_uart.c **** 	  }
 131:.\soft_uart.c **** 	else if (s->parity==PARITY_EVEN)
 530              		.loc 1 131 0 is_stmt 1
 531 005e 7B68     		ldr	r3, [r7, #4]
 532 0060 5B68     		ldr	r3, [r3, #4]
 533 0062 022B     		cmp	r3, #2
 534 0064 1FD1     		bne	.L25
 132:.\soft_uart.c **** 	  {
 133:.\soft_uart.c ****          parity = getOddParity(c);
 535              		.loc 1 133 0
 536 0066 3B68     		ldr	r3, [r7]
 537 0068 DBB2     		uxtb	r3, r3
 538 006a 1846     		mov	r0, r3
 539 006c FFF7FEFF 		bl	getOddParity
 540 0070 0346     		mov	r3, r0
 541 0072 BB60     		str	r3, [r7, #8]
 134:.\soft_uart.c **** 		data_tosend |= parity ?  (0x200 << s->stop_bits) : (0x300 << s->stop_bits);
 542              		.loc 1 134 0
 543 0074 BB68     		ldr	r3, [r7, #8]
 544 0076 002B     		cmp	r3, #0
 545 0078 07D0     		beq	.L26
 546              		.loc 1 134 0 is_stmt 0 discriminator 1
 547 007a 7B68     		ldr	r3, [r7, #4]
 548 007c 9B68     		ldr	r3, [r3, #8]
 549 007e 4FF40072 		mov	r2, #512
 550 0082 02FA03F3 		lsl	r3, r2, r3
ARM GAS  C:\Users\Yiquing\AppData\Local\Temp\ccFxov21.s 			page 13


 551 0086 9BB2     		uxth	r3, r3
 552 0088 06E0     		b	.L27
 553              	.L26:
 554              		.loc 1 134 0 discriminator 2
 555 008a 7B68     		ldr	r3, [r7, #4]
 556 008c 9B68     		ldr	r3, [r3, #8]
 557 008e 4FF44072 		mov	r2, #768
 558 0092 02FA03F3 		lsl	r3, r2, r3
 559 0096 9BB2     		uxth	r3, r3
 560              	.L27:
 561 0098 F989     		ldrh	r1, [r7, #14]
 562 009a 1A46     		mov	r2, r3	@ movhi
 563 009c 0B46     		mov	r3, r1	@ movhi
 564 009e 1343     		orrs	r3, r3, r2
 565 00a0 9BB2     		uxth	r3, r3
 566 00a2 FB81     		strh	r3, [r7, #14]	@ movhi
 567 00a4 0DE0     		b	.L24
 568              	.L25:
 135:.\soft_uart.c **** 	  }
 136:.\soft_uart.c **** 	else
 137:.\soft_uart.c **** 		data_tosend |=  1<<(s->bits + s->stop_bits);
 569              		.loc 1 137 0 is_stmt 1
 570 00a6 7B68     		ldr	r3, [r7, #4]
 571 00a8 DA68     		ldr	r2, [r3, #12]
 572 00aa 7B68     		ldr	r3, [r7, #4]
 573 00ac 9B68     		ldr	r3, [r3, #8]
 574 00ae 1344     		add	r3, r3, r2
 575 00b0 0122     		movs	r2, #1
 576 00b2 02FA03F3 		lsl	r3, r2, r3
 577 00b6 9AB2     		uxth	r2, r3
 578 00b8 FB89     		ldrh	r3, [r7, #14]
 579 00ba 1343     		orrs	r3, r3, r2
 580 00bc 9BB2     		uxth	r3, r3
 581 00be FB81     		strh	r3, [r7, #14]	@ movhi
 138:.\soft_uart.c **** 	// wait for it to be ready
 139:.\soft_uart.c **** 	while ((s->flags&TX_READY)==0);
 582              		.loc 1 139 0
 583 00c0 FFE7     		b	.L31
 584              	.L24:
 585              	.L31:
 586 00c2 00BF     		nop
 587              	.L28:
 588              		.loc 1 139 0 is_stmt 0 discriminator 1
 589 00c4 7B68     		ldr	r3, [r7, #4]
 590 00c6 9B69     		ldr	r3, [r3, #24]
 591 00c8 03F00203 		and	r3, r3, #2
 592 00cc 002B     		cmp	r3, #0
 593 00ce F9D0     		beq	.L28
 140:.\soft_uart.c **** 
 141:.\soft_uart.c **** 	CyGlobalIntDisable;
 594              		.loc 1 141 0 is_stmt 1
 595              	@ 141 ".\soft_uart.c" 1
 596 00d0 72B6     		CPSID   i
 597              	@ 0 "" 2
 142:.\soft_uart.c **** 	s->flags &=~TX_READY;
 598              		.loc 1 142 0
 599              		.thumb
ARM GAS  C:\Users\Yiquing\AppData\Local\Temp\ccFxov21.s 			page 14


 600 00d2 7B68     		ldr	r3, [r7, #4]
 601 00d4 9B69     		ldr	r3, [r3, #24]
 602 00d6 23F00202 		bic	r2, r3, #2
 603 00da 7B68     		ldr	r3, [r7, #4]
 604 00dc 9A61     		str	r2, [r3, #24]
 143:.\soft_uart.c **** 	CyGlobalIntEnable;
 605              		.loc 1 143 0
 606              	@ 143 ".\soft_uart.c" 1
 607 00de 62B6     		CPSIE   i
 608              	@ 0 "" 2
 144:.\soft_uart.c **** 	s->tx_byte = data_tosend;
 609              		.loc 1 144 0
 610              		.thumb
 611 00e0 7B68     		ldr	r3, [r7, #4]
 612 00e2 FA89     		ldrh	r2, [r7, #14]	@ movhi
 613 00e4 5A82     		strh	r2, [r3, #18]	@ movhi
 145:.\soft_uart.c **** 	s->timer_tx_ctr = 3;
 614              		.loc 1 145 0
 615 00e6 7B68     		ldr	r3, [r7, #4]
 616 00e8 0322     		movs	r2, #3
 617 00ea DA61     		str	r2, [r3, #28]
 146:.\soft_uart.c ****     if(s->parity != PARITY_NONE)
 618              		.loc 1 146 0
 619 00ec 7B68     		ldr	r3, [r7, #4]
 620 00ee 5B68     		ldr	r3, [r3, #4]
 621 00f0 002B     		cmp	r3, #0
 622 00f2 0CD0     		beq	.L29
 147:.\soft_uart.c ****     	s->tx_bits = s->bits+s->stop_bits+ 2;
 623              		.loc 1 147 0
 624 00f4 7B68     		ldr	r3, [r7, #4]
 625 00f6 DB68     		ldr	r3, [r3, #12]
 626 00f8 9AB2     		uxth	r2, r3
 627 00fa 7B68     		ldr	r3, [r7, #4]
 628 00fc 9B68     		ldr	r3, [r3, #8]
 629 00fe 9BB2     		uxth	r3, r3
 630 0100 1344     		add	r3, r3, r2
 631 0102 9BB2     		uxth	r3, r3
 632 0104 0233     		adds	r3, r3, #2
 633 0106 9AB2     		uxth	r2, r3
 634 0108 7B68     		ldr	r3, [r7, #4]
 635 010a 9A82     		strh	r2, [r3, #20]	@ movhi
 636 010c 0BE0     		b	.L20
 637              	.L29:
 148:.\soft_uart.c ****     else
 149:.\soft_uart.c ****     	s->tx_bits = s->bits+s->stop_bits+ 1;
 638              		.loc 1 149 0
 639 010e 7B68     		ldr	r3, [r7, #4]
 640 0110 DB68     		ldr	r3, [r3, #12]
 641 0112 9AB2     		uxth	r2, r3
 642 0114 7B68     		ldr	r3, [r7, #4]
 643 0116 9B68     		ldr	r3, [r3, #8]
 644 0118 9BB2     		uxth	r3, r3
 645 011a 1344     		add	r3, r3, r2
 646 011c 9BB2     		uxth	r3, r3
 647 011e 0133     		adds	r3, r3, #1
 648 0120 9AB2     		uxth	r2, r3
 649 0122 7B68     		ldr	r3, [r7, #4]
ARM GAS  C:\Users\Yiquing\AppData\Local\Temp\ccFxov21.s 			page 15


 650 0124 9A82     		strh	r2, [r3, #20]	@ movhi
 651              	.L20:
 150:.\soft_uart.c **** 	
 151:.\soft_uart.c **** }
 652              		.loc 1 151 0
 653 0126 1037     		adds	r7, r7, #16
 654 0128 BD46     		mov	sp, r7
 655              		@ sp needed
 656 012a 80BD     		pop	{r7, pc}
 657              		.cfi_endproc
 658              	.LFE68:
 659              		.size	SU_PutChar, .-SU_PutChar
 660              		.text
 661              	.Letext0:
 662              		.file 2 "c:\\program files (x86)\\cypress\\psoc creator\\3.2\\psoc creator\\import\\gnu\\arm\\4.8.
 663              		.file 3 "c:\\program files (x86)\\cypress\\psoc creator\\3.2\\psoc creator\\import\\gnu\\arm\\4.8.
 664              		.file 4 "Generated_Source\\PSoC5/cytypes.h"
 665              		.file 5 ".\\softuart.h"
 666              		.file 6 "Generated_Source\\PSoC5/core_cm3.h"