ARM GAS  C:\Users\yqh\AppData\Local\Temp\ccL4ifMr.s 			page 1


   1              		.syntax unified
   2              		.cpu cortex-m3
   3              		.fpu softvfp
   4              		.eabi_attribute 20, 1
   5              		.eabi_attribute 21, 1
   6              		.eabi_attribute 23, 3
   7              		.eabi_attribute 24, 1
   8              		.eabi_attribute 25, 1
   9              		.eabi_attribute 26, 1
  10              		.eabi_attribute 30, 6
  11              		.eabi_attribute 34, 1
  12              		.eabi_attribute 18, 4
  13              		.thumb
  14              		.file	"UART_ACS_INT.c"
  15              		.text
  16              	.Ltext0:
  17              		.cfi_sections	.debug_frame
  18              		.section	.text.UART_ACS_RXISR,"ax",%progbits
  19              		.align	2
  20              		.global	UART_ACS_RXISR
  21              		.thumb
  22              		.thumb_func
  23              		.type	UART_ACS_RXISR, %function
  24              	UART_ACS_RXISR:
  25              	.LFB0:
  26              		.file 1 ".\\Generated_Source\\PSoC5\\UART_ACS_INT.c"
   1:.\Generated_Source\PSoC5/UART_ACS_INT.c **** /*******************************************************************************
   2:.\Generated_Source\PSoC5/UART_ACS_INT.c **** * File Name: UART_ACSINT.c
   3:.\Generated_Source\PSoC5/UART_ACS_INT.c **** * Version 2.50
   4:.\Generated_Source\PSoC5/UART_ACS_INT.c **** *
   5:.\Generated_Source\PSoC5/UART_ACS_INT.c **** * Description:
   6:.\Generated_Source\PSoC5/UART_ACS_INT.c **** *  This file provides all Interrupt Service functionality of the UART component
   7:.\Generated_Source\PSoC5/UART_ACS_INT.c **** *
   8:.\Generated_Source\PSoC5/UART_ACS_INT.c **** ********************************************************************************
   9:.\Generated_Source\PSoC5/UART_ACS_INT.c **** * Copyright 2008-2015, Cypress Semiconductor Corporation.  All rights reserved.
  10:.\Generated_Source\PSoC5/UART_ACS_INT.c **** * You may use this file only in accordance with the license, terms, conditions,
  11:.\Generated_Source\PSoC5/UART_ACS_INT.c **** * disclaimers, and limitations in the end user license agreement accompanying
  12:.\Generated_Source\PSoC5/UART_ACS_INT.c **** * the software package with which this file was provided.
  13:.\Generated_Source\PSoC5/UART_ACS_INT.c **** *******************************************************************************/
  14:.\Generated_Source\PSoC5/UART_ACS_INT.c **** 
  15:.\Generated_Source\PSoC5/UART_ACS_INT.c **** #include "UART_ACS.h"
  16:.\Generated_Source\PSoC5/UART_ACS_INT.c **** 
  17:.\Generated_Source\PSoC5/UART_ACS_INT.c **** 
  18:.\Generated_Source\PSoC5/UART_ACS_INT.c **** 
  19:.\Generated_Source\PSoC5/UART_ACS_INT.c **** /***************************************
  20:.\Generated_Source\PSoC5/UART_ACS_INT.c **** * Custom Declarations
  21:.\Generated_Source\PSoC5/UART_ACS_INT.c **** ***************************************/
  22:.\Generated_Source\PSoC5/UART_ACS_INT.c **** /* `#START CUSTOM_DECLARATIONS` Place your declaration here */
  23:.\Generated_Source\PSoC5/UART_ACS_INT.c **** 
  24:.\Generated_Source\PSoC5/UART_ACS_INT.c **** /* `#END` */
  25:.\Generated_Source\PSoC5/UART_ACS_INT.c **** 
  26:.\Generated_Source\PSoC5/UART_ACS_INT.c **** #if (UART_ACS_RX_INTERRUPT_ENABLED && (UART_ACS_RX_ENABLED || UART_ACS_HD_ENABLED))
  27:.\Generated_Source\PSoC5/UART_ACS_INT.c ****     /*******************************************************************************
  28:.\Generated_Source\PSoC5/UART_ACS_INT.c ****     * Function Name: UART_ACS_RXISR
  29:.\Generated_Source\PSoC5/UART_ACS_INT.c ****     ********************************************************************************
  30:.\Generated_Source\PSoC5/UART_ACS_INT.c ****     *
  31:.\Generated_Source\PSoC5/UART_ACS_INT.c ****     * Summary:
ARM GAS  C:\Users\yqh\AppData\Local\Temp\ccL4ifMr.s 			page 2


  32:.\Generated_Source\PSoC5/UART_ACS_INT.c ****     *  Interrupt Service Routine for RX portion of the UART
  33:.\Generated_Source\PSoC5/UART_ACS_INT.c ****     *
  34:.\Generated_Source\PSoC5/UART_ACS_INT.c ****     * Parameters:
  35:.\Generated_Source\PSoC5/UART_ACS_INT.c ****     *  None.
  36:.\Generated_Source\PSoC5/UART_ACS_INT.c ****     *
  37:.\Generated_Source\PSoC5/UART_ACS_INT.c ****     * Return:
  38:.\Generated_Source\PSoC5/UART_ACS_INT.c ****     *  None.
  39:.\Generated_Source\PSoC5/UART_ACS_INT.c ****     *
  40:.\Generated_Source\PSoC5/UART_ACS_INT.c ****     * Global Variables:
  41:.\Generated_Source\PSoC5/UART_ACS_INT.c ****     *  UART_ACS_rxBuffer - RAM buffer pointer for save received data.
  42:.\Generated_Source\PSoC5/UART_ACS_INT.c ****     *  UART_ACS_rxBufferWrite - cyclic index for write to rxBuffer,
  43:.\Generated_Source\PSoC5/UART_ACS_INT.c ****     *     increments after each byte saved to buffer.
  44:.\Generated_Source\PSoC5/UART_ACS_INT.c ****     *  UART_ACS_rxBufferRead - cyclic index for read from rxBuffer,
  45:.\Generated_Source\PSoC5/UART_ACS_INT.c ****     *     checked to detect overflow condition.
  46:.\Generated_Source\PSoC5/UART_ACS_INT.c ****     *  UART_ACS_rxBufferOverflow - software overflow flag. Set to one
  47:.\Generated_Source\PSoC5/UART_ACS_INT.c ****     *     when UART_ACS_rxBufferWrite index overtakes
  48:.\Generated_Source\PSoC5/UART_ACS_INT.c ****     *     UART_ACS_rxBufferRead index.
  49:.\Generated_Source\PSoC5/UART_ACS_INT.c ****     *  UART_ACS_rxBufferLoopDetect - additional variable to detect overflow.
  50:.\Generated_Source\PSoC5/UART_ACS_INT.c ****     *     Set to one when UART_ACS_rxBufferWrite is equal to
  51:.\Generated_Source\PSoC5/UART_ACS_INT.c ****     *    UART_ACS_rxBufferRead
  52:.\Generated_Source\PSoC5/UART_ACS_INT.c ****     *  UART_ACS_rxAddressMode - this variable contains the Address mode,
  53:.\Generated_Source\PSoC5/UART_ACS_INT.c ****     *     selected in customizer or set by UART_SetRxAddressMode() API.
  54:.\Generated_Source\PSoC5/UART_ACS_INT.c ****     *  UART_ACS_rxAddressDetected - set to 1 when correct address received,
  55:.\Generated_Source\PSoC5/UART_ACS_INT.c ****     *     and analysed to store following addressed data bytes to the buffer.
  56:.\Generated_Source\PSoC5/UART_ACS_INT.c ****     *     When not correct address received, set to 0 to skip following data bytes.
  57:.\Generated_Source\PSoC5/UART_ACS_INT.c ****     *
  58:.\Generated_Source\PSoC5/UART_ACS_INT.c ****     *******************************************************************************/
  59:.\Generated_Source\PSoC5/UART_ACS_INT.c ****     CY_ISR(UART_ACS_RXISR)
  60:.\Generated_Source\PSoC5/UART_ACS_INT.c ****     {
  27              		.loc 1 60 0
  28              		.cfi_startproc
  29              		@ args = 0, pretend = 0, frame = 8
  30              		@ frame_needed = 1, uses_anonymous_args = 0
  31              		@ link register save eliminated.
  32 0000 80B4     		push	{r7}
  33              		.cfi_def_cfa_offset 4
  34              		.cfi_offset 7, -4
  35 0002 83B0     		sub	sp, sp, #12
  36              		.cfi_def_cfa_offset 16
  37 0004 00AF     		add	r7, sp, #0
  38              		.cfi_def_cfa_register 7
  61:.\Generated_Source\PSoC5/UART_ACS_INT.c ****         uint8 readData;
  62:.\Generated_Source\PSoC5/UART_ACS_INT.c ****         uint8 readStatus;
  63:.\Generated_Source\PSoC5/UART_ACS_INT.c ****         uint8 increment_pointer = 0u;
  39              		.loc 1 63 0
  40 0006 0023     		movs	r3, #0
  41 0008 FB71     		strb	r3, [r7, #7]
  42              	.L6:
  64:.\Generated_Source\PSoC5/UART_ACS_INT.c **** 
  65:.\Generated_Source\PSoC5/UART_ACS_INT.c ****     #if(CY_PSOC3)
  66:.\Generated_Source\PSoC5/UART_ACS_INT.c ****         uint8 int_en;
  67:.\Generated_Source\PSoC5/UART_ACS_INT.c ****     #endif /* (CY_PSOC3) */
  68:.\Generated_Source\PSoC5/UART_ACS_INT.c **** 
  69:.\Generated_Source\PSoC5/UART_ACS_INT.c ****     #ifdef UART_ACS_RXISR_ENTRY_CALLBACK
  70:.\Generated_Source\PSoC5/UART_ACS_INT.c ****         UART_ACS_RXISR_EntryCallback();
  71:.\Generated_Source\PSoC5/UART_ACS_INT.c ****     #endif /* UART_ACS_RXISR_ENTRY_CALLBACK */
  72:.\Generated_Source\PSoC5/UART_ACS_INT.c **** 
ARM GAS  C:\Users\yqh\AppData\Local\Temp\ccL4ifMr.s 			page 3


  73:.\Generated_Source\PSoC5/UART_ACS_INT.c ****         /* User code required at start of ISR */
  74:.\Generated_Source\PSoC5/UART_ACS_INT.c ****         /* `#START UART_ACS_RXISR_START` */
  75:.\Generated_Source\PSoC5/UART_ACS_INT.c **** 
  76:.\Generated_Source\PSoC5/UART_ACS_INT.c ****         /* `#END` */
  77:.\Generated_Source\PSoC5/UART_ACS_INT.c **** 
  78:.\Generated_Source\PSoC5/UART_ACS_INT.c ****     #if(CY_PSOC3)   /* Make sure nested interrupt is enabled */
  79:.\Generated_Source\PSoC5/UART_ACS_INT.c ****         int_en = EA;
  80:.\Generated_Source\PSoC5/UART_ACS_INT.c ****         CyGlobalIntEnable;
  81:.\Generated_Source\PSoC5/UART_ACS_INT.c ****     #endif /* (CY_PSOC3) */
  82:.\Generated_Source\PSoC5/UART_ACS_INT.c **** 
  83:.\Generated_Source\PSoC5/UART_ACS_INT.c ****         do
  84:.\Generated_Source\PSoC5/UART_ACS_INT.c ****         {
  85:.\Generated_Source\PSoC5/UART_ACS_INT.c ****             /* Read receiver status register */
  86:.\Generated_Source\PSoC5/UART_ACS_INT.c ****             readStatus = UART_ACS_RXSTATUS_REG;
  43              		.loc 1 86 0
  44 000a 2B4B     		ldr	r3, .L7
  45 000c 1B78     		ldrb	r3, [r3]
  46 000e BB71     		strb	r3, [r7, #6]
  87:.\Generated_Source\PSoC5/UART_ACS_INT.c ****             /* Copy the same status to readData variable for backward compatibility support 
  88:.\Generated_Source\PSoC5/UART_ACS_INT.c ****             *  of the user code in UART_ACS_RXISR_ERROR` section. 
  89:.\Generated_Source\PSoC5/UART_ACS_INT.c ****             */
  90:.\Generated_Source\PSoC5/UART_ACS_INT.c ****             readData = readStatus;
  47              		.loc 1 90 0
  48 0010 BB79     		ldrb	r3, [r7, #6]
  49 0012 7B71     		strb	r3, [r7, #5]
  91:.\Generated_Source\PSoC5/UART_ACS_INT.c **** 
  92:.\Generated_Source\PSoC5/UART_ACS_INT.c ****             if((readStatus & (UART_ACS_RX_STS_BREAK | 
  93:.\Generated_Source\PSoC5/UART_ACS_INT.c ****                             UART_ACS_RX_STS_PAR_ERROR |
  94:.\Generated_Source\PSoC5/UART_ACS_INT.c ****                             UART_ACS_RX_STS_STOP_ERROR | 
  95:.\Generated_Source\PSoC5/UART_ACS_INT.c ****                             UART_ACS_RX_STS_OVERRUN)) != 0u)
  50              		.loc 1 95 0
  51 0014 BB79     		ldrb	r3, [r7, #6]	@ zero_extendqisi2
  52 0016 03F01E03 		and	r3, r3, #30
  92:.\Generated_Source\PSoC5/UART_ACS_INT.c ****                             UART_ACS_RX_STS_PAR_ERROR |
  53              		.loc 1 92 0
  54 001a 002B     		cmp	r3, #0
  55 001c 0BD0     		beq	.L2
  96:.\Generated_Source\PSoC5/UART_ACS_INT.c ****             {
  97:.\Generated_Source\PSoC5/UART_ACS_INT.c ****                 /* ERROR handling. */
  98:.\Generated_Source\PSoC5/UART_ACS_INT.c ****                 UART_ACS_errorStatus |= readStatus & ( UART_ACS_RX_STS_BREAK | 
  56              		.loc 1 98 0
  57 001e BB79     		ldrb	r3, [r7, #6]	@ zero_extendqisi2
  58 0020 03F01E03 		and	r3, r3, #30
  59 0024 DAB2     		uxtb	r2, r3
  60 0026 254B     		ldr	r3, .L7+4
  61 0028 1B78     		ldrb	r3, [r3]	@ zero_extendqisi2
  62 002a DBB2     		uxtb	r3, r3
  63 002c 1343     		orrs	r3, r3, r2
  64 002e DBB2     		uxtb	r3, r3
  65 0030 DAB2     		uxtb	r2, r3
  66 0032 224B     		ldr	r3, .L7+4
  67 0034 1A70     		strb	r2, [r3]
  68              	.L2:
  99:.\Generated_Source\PSoC5/UART_ACS_INT.c ****                                                             UART_ACS_RX_STS_PAR_ERROR | 
 100:.\Generated_Source\PSoC5/UART_ACS_INT.c ****                                                             UART_ACS_RX_STS_STOP_ERROR | 
 101:.\Generated_Source\PSoC5/UART_ACS_INT.c ****                                                             UART_ACS_RX_STS_OVERRUN);
 102:.\Generated_Source\PSoC5/UART_ACS_INT.c ****                 /* `#START UART_ACS_RXISR_ERROR` */
ARM GAS  C:\Users\yqh\AppData\Local\Temp\ccL4ifMr.s 			page 4


 103:.\Generated_Source\PSoC5/UART_ACS_INT.c **** 
 104:.\Generated_Source\PSoC5/UART_ACS_INT.c ****                 /* `#END` */
 105:.\Generated_Source\PSoC5/UART_ACS_INT.c ****                 
 106:.\Generated_Source\PSoC5/UART_ACS_INT.c ****             #ifdef UART_ACS_RXISR_ERROR_CALLBACK
 107:.\Generated_Source\PSoC5/UART_ACS_INT.c ****                 UART_ACS_RXISR_ERROR_Callback();
 108:.\Generated_Source\PSoC5/UART_ACS_INT.c ****             #endif /* UART_ACS_RXISR_ERROR_CALLBACK */
 109:.\Generated_Source\PSoC5/UART_ACS_INT.c ****             }
 110:.\Generated_Source\PSoC5/UART_ACS_INT.c ****             
 111:.\Generated_Source\PSoC5/UART_ACS_INT.c ****             if((readStatus & UART_ACS_RX_STS_FIFO_NOTEMPTY) != 0u)
  69              		.loc 1 111 0
  70 0036 BB79     		ldrb	r3, [r7, #6]	@ zero_extendqisi2
  71 0038 03F02003 		and	r3, r3, #32
  72 003c 002B     		cmp	r3, #0
  73 003e 30D0     		beq	.L3
 112:.\Generated_Source\PSoC5/UART_ACS_INT.c ****             {
 113:.\Generated_Source\PSoC5/UART_ACS_INT.c ****                 /* Read data from the RX data register */
 114:.\Generated_Source\PSoC5/UART_ACS_INT.c ****                 readData = UART_ACS_RXDATA_REG;
  74              		.loc 1 114 0
  75 0040 1F4B     		ldr	r3, .L7+8
  76 0042 1B78     		ldrb	r3, [r3]
  77 0044 7B71     		strb	r3, [r7, #5]
 115:.\Generated_Source\PSoC5/UART_ACS_INT.c ****             #if (UART_ACS_RXHW_ADDRESS_ENABLED)
 116:.\Generated_Source\PSoC5/UART_ACS_INT.c ****                 if(UART_ACS_rxAddressMode == (uint8)UART_ACS__B_UART__AM_SW_DETECT_TO_BUFFER)
 117:.\Generated_Source\PSoC5/UART_ACS_INT.c ****                 {
 118:.\Generated_Source\PSoC5/UART_ACS_INT.c ****                     if((readStatus & UART_ACS_RX_STS_MRKSPC) != 0u)
 119:.\Generated_Source\PSoC5/UART_ACS_INT.c ****                     {
 120:.\Generated_Source\PSoC5/UART_ACS_INT.c ****                         if ((readStatus & UART_ACS_RX_STS_ADDR_MATCH) != 0u)
 121:.\Generated_Source\PSoC5/UART_ACS_INT.c ****                         {
 122:.\Generated_Source\PSoC5/UART_ACS_INT.c ****                             UART_ACS_rxAddressDetected = 1u;
 123:.\Generated_Source\PSoC5/UART_ACS_INT.c ****                         }
 124:.\Generated_Source\PSoC5/UART_ACS_INT.c ****                         else
 125:.\Generated_Source\PSoC5/UART_ACS_INT.c ****                         {
 126:.\Generated_Source\PSoC5/UART_ACS_INT.c ****                             UART_ACS_rxAddressDetected = 0u;
 127:.\Generated_Source\PSoC5/UART_ACS_INT.c ****                         }
 128:.\Generated_Source\PSoC5/UART_ACS_INT.c ****                     }
 129:.\Generated_Source\PSoC5/UART_ACS_INT.c ****                     if(UART_ACS_rxAddressDetected != 0u)
 130:.\Generated_Source\PSoC5/UART_ACS_INT.c ****                     {   /* Store only addressed data */
 131:.\Generated_Source\PSoC5/UART_ACS_INT.c ****                         UART_ACS_rxBuffer[UART_ACS_rxBufferWrite] = readData;
 132:.\Generated_Source\PSoC5/UART_ACS_INT.c ****                         increment_pointer = 1u;
 133:.\Generated_Source\PSoC5/UART_ACS_INT.c ****                     }
 134:.\Generated_Source\PSoC5/UART_ACS_INT.c ****                 }
 135:.\Generated_Source\PSoC5/UART_ACS_INT.c ****                 else /* Without software addressing */
 136:.\Generated_Source\PSoC5/UART_ACS_INT.c ****                 {
 137:.\Generated_Source\PSoC5/UART_ACS_INT.c ****                     UART_ACS_rxBuffer[UART_ACS_rxBufferWrite] = readData;
 138:.\Generated_Source\PSoC5/UART_ACS_INT.c ****                     increment_pointer = 1u;
 139:.\Generated_Source\PSoC5/UART_ACS_INT.c ****                 }
 140:.\Generated_Source\PSoC5/UART_ACS_INT.c ****             #else  /* Without addressing */
 141:.\Generated_Source\PSoC5/UART_ACS_INT.c ****                 UART_ACS_rxBuffer[UART_ACS_rxBufferWrite] = readData;
  78              		.loc 1 141 0
  79 0046 1F4B     		ldr	r3, .L7+12
  80 0048 1B88     		ldrh	r3, [r3]	@ movhi
  81 004a 9BB2     		uxth	r3, r3
  82 004c 1946     		mov	r1, r3
  83 004e 1E4A     		ldr	r2, .L7+16
  84 0050 7B79     		ldrb	r3, [r7, #5]
  85 0052 5354     		strb	r3, [r2, r1]
 142:.\Generated_Source\PSoC5/UART_ACS_INT.c ****                 increment_pointer = 1u;
ARM GAS  C:\Users\yqh\AppData\Local\Temp\ccL4ifMr.s 			page 5


  86              		.loc 1 142 0
  87 0054 0123     		movs	r3, #1
  88 0056 FB71     		strb	r3, [r7, #7]
 143:.\Generated_Source\PSoC5/UART_ACS_INT.c ****             #endif /* (UART_ACS_RXHW_ADDRESS_ENABLED) */
 144:.\Generated_Source\PSoC5/UART_ACS_INT.c **** 
 145:.\Generated_Source\PSoC5/UART_ACS_INT.c ****                 /* Do not increment buffer pointer when skip not addressed data */
 146:.\Generated_Source\PSoC5/UART_ACS_INT.c ****                 if(increment_pointer != 0u)
  89              		.loc 1 146 0
  90 0058 FB79     		ldrb	r3, [r7, #7]	@ zero_extendqisi2
  91 005a 002B     		cmp	r3, #0
  92 005c 21D0     		beq	.L3
 147:.\Generated_Source\PSoC5/UART_ACS_INT.c ****                 {
 148:.\Generated_Source\PSoC5/UART_ACS_INT.c ****                     if(UART_ACS_rxBufferLoopDetect != 0u)
  93              		.loc 1 148 0
  94 005e 1B4B     		ldr	r3, .L7+20
  95 0060 1B78     		ldrb	r3, [r3]
  96 0062 DBB2     		uxtb	r3, r3
  97 0064 002B     		cmp	r3, #0
  98 0066 02D0     		beq	.L4
 149:.\Generated_Source\PSoC5/UART_ACS_INT.c ****                     {   /* Set Software Buffer status Overflow */
 150:.\Generated_Source\PSoC5/UART_ACS_INT.c ****                         UART_ACS_rxBufferOverflow = 1u;
  99              		.loc 1 150 0
 100 0068 194B     		ldr	r3, .L7+24
 101 006a 0122     		movs	r2, #1
 102 006c 1A70     		strb	r2, [r3]
 103              	.L4:
 151:.\Generated_Source\PSoC5/UART_ACS_INT.c ****                     }
 152:.\Generated_Source\PSoC5/UART_ACS_INT.c ****                     /* Set next pointer. */
 153:.\Generated_Source\PSoC5/UART_ACS_INT.c ****                     UART_ACS_rxBufferWrite++;
 104              		.loc 1 153 0
 105 006e 154B     		ldr	r3, .L7+12
 106 0070 1B88     		ldrh	r3, [r3]	@ movhi
 107 0072 9BB2     		uxth	r3, r3
 108 0074 0133     		adds	r3, r3, #1
 109 0076 9AB2     		uxth	r2, r3
 110 0078 124B     		ldr	r3, .L7+12
 111 007a 1A80     		strh	r2, [r3]	@ movhi
 154:.\Generated_Source\PSoC5/UART_ACS_INT.c **** 
 155:.\Generated_Source\PSoC5/UART_ACS_INT.c ****                     /* Check pointer for a loop condition */
 156:.\Generated_Source\PSoC5/UART_ACS_INT.c ****                     if(UART_ACS_rxBufferWrite >= UART_ACS_RX_BUFFER_SIZE)
 112              		.loc 1 156 0
 113 007c 114B     		ldr	r3, .L7+12
 114 007e 1B88     		ldrh	r3, [r3]	@ movhi
 115 0080 9BB2     		uxth	r3, r3
 116 0082 FF2B     		cmp	r3, #255
 117 0084 02D9     		bls	.L5
 157:.\Generated_Source\PSoC5/UART_ACS_INT.c ****                     {
 158:.\Generated_Source\PSoC5/UART_ACS_INT.c ****                         UART_ACS_rxBufferWrite = 0u;
 118              		.loc 1 158 0
 119 0086 0F4B     		ldr	r3, .L7+12
 120 0088 0022     		movs	r2, #0
 121 008a 1A80     		strh	r2, [r3]	@ movhi
 122              	.L5:
 159:.\Generated_Source\PSoC5/UART_ACS_INT.c ****                     }
 160:.\Generated_Source\PSoC5/UART_ACS_INT.c **** 
 161:.\Generated_Source\PSoC5/UART_ACS_INT.c ****                     /* Detect pre-overload condition and set flag */
 162:.\Generated_Source\PSoC5/UART_ACS_INT.c ****                     if(UART_ACS_rxBufferWrite == UART_ACS_rxBufferRead)
ARM GAS  C:\Users\yqh\AppData\Local\Temp\ccL4ifMr.s 			page 6


 123              		.loc 1 162 0
 124 008c 0D4B     		ldr	r3, .L7+12
 125 008e 1B88     		ldrh	r3, [r3]	@ movhi
 126 0090 9AB2     		uxth	r2, r3
 127 0092 104B     		ldr	r3, .L7+28
 128 0094 1B88     		ldrh	r3, [r3]	@ movhi
 129 0096 9BB2     		uxth	r3, r3
 130 0098 9A42     		cmp	r2, r3
 131 009a 02D1     		bne	.L3
 163:.\Generated_Source\PSoC5/UART_ACS_INT.c ****                     {
 164:.\Generated_Source\PSoC5/UART_ACS_INT.c ****                         UART_ACS_rxBufferLoopDetect = 1u;
 132              		.loc 1 164 0
 133 009c 0B4B     		ldr	r3, .L7+20
 134 009e 0122     		movs	r2, #1
 135 00a0 1A70     		strb	r2, [r3]
 136              	.L3:
 165:.\Generated_Source\PSoC5/UART_ACS_INT.c ****                         /* When Hardware Flow Control selected */
 166:.\Generated_Source\PSoC5/UART_ACS_INT.c ****                         #if (UART_ACS_FLOW_CONTROL != 0u)
 167:.\Generated_Source\PSoC5/UART_ACS_INT.c ****                             /* Disable RX interrupt mask, it is enabled when user read data from th
 168:.\Generated_Source\PSoC5/UART_ACS_INT.c ****                             UART_ACS_RXSTATUS_MASK_REG  &= (uint8)~UART_ACS_RX_STS_FIFO_NOTEMPTY;
 169:.\Generated_Source\PSoC5/UART_ACS_INT.c ****                             CyIntClearPending(UART_ACS_RX_VECT_NUM);
 170:.\Generated_Source\PSoC5/UART_ACS_INT.c ****                             break; /* Break the reading of the FIFO loop, leave the data there for 
 171:.\Generated_Source\PSoC5/UART_ACS_INT.c ****                         #endif /* (UART_ACS_FLOW_CONTROL != 0u) */
 172:.\Generated_Source\PSoC5/UART_ACS_INT.c ****                     }
 173:.\Generated_Source\PSoC5/UART_ACS_INT.c ****                 }
 174:.\Generated_Source\PSoC5/UART_ACS_INT.c ****             }
 175:.\Generated_Source\PSoC5/UART_ACS_INT.c ****         }while((readStatus & UART_ACS_RX_STS_FIFO_NOTEMPTY) != 0u);
 137              		.loc 1 175 0
 138 00a2 BB79     		ldrb	r3, [r7, #6]	@ zero_extendqisi2
 139 00a4 03F02003 		and	r3, r3, #32
 140 00a8 002B     		cmp	r3, #0
 141 00aa AED1     		bne	.L6
 176:.\Generated_Source\PSoC5/UART_ACS_INT.c **** 
 177:.\Generated_Source\PSoC5/UART_ACS_INT.c ****         /* User code required at end of ISR (Optional) */
 178:.\Generated_Source\PSoC5/UART_ACS_INT.c ****         /* `#START UART_ACS_RXISR_END` */
 179:.\Generated_Source\PSoC5/UART_ACS_INT.c **** 
 180:.\Generated_Source\PSoC5/UART_ACS_INT.c ****         /* `#END` */
 181:.\Generated_Source\PSoC5/UART_ACS_INT.c **** 
 182:.\Generated_Source\PSoC5/UART_ACS_INT.c ****     #ifdef UART_ACS_RXISR_EXIT_CALLBACK
 183:.\Generated_Source\PSoC5/UART_ACS_INT.c ****         UART_ACS_RXISR_ExitCallback();
 184:.\Generated_Source\PSoC5/UART_ACS_INT.c ****     #endif /* UART_ACS_RXISR_EXIT_CALLBACK */
 185:.\Generated_Source\PSoC5/UART_ACS_INT.c **** 
 186:.\Generated_Source\PSoC5/UART_ACS_INT.c ****     #if(CY_PSOC3)
 187:.\Generated_Source\PSoC5/UART_ACS_INT.c ****         EA = int_en;
 188:.\Generated_Source\PSoC5/UART_ACS_INT.c ****     #endif /* (CY_PSOC3) */
 189:.\Generated_Source\PSoC5/UART_ACS_INT.c ****     }
 142              		.loc 1 189 0
 143 00ac 0C37     		adds	r7, r7, #12
 144              		.cfi_def_cfa_offset 4
 145 00ae BD46     		mov	sp, r7
 146              		.cfi_def_cfa_register 13
 147              		@ sp needed
 148 00b0 5DF8047B 		ldr	r7, [sp], #4
 149              		.cfi_restore 7
 150              		.cfi_def_cfa_offset 0
 151 00b4 7047     		bx	lr
 152              	.L8:
ARM GAS  C:\Users\yqh\AppData\Local\Temp\ccL4ifMr.s 			page 7


 153 00b6 00BF     		.align	2
 154              	.L7:
 155 00b8 66640040 		.word	1073767526
 156 00bc 00000000 		.word	UART_ACS_errorStatus
 157 00c0 46640040 		.word	1073767494
 158 00c4 00000000 		.word	UART_ACS_rxBufferWrite
 159 00c8 00000000 		.word	UART_ACS_rxBuffer
 160 00cc 00000000 		.word	UART_ACS_rxBufferLoopDetect
 161 00d0 00000000 		.word	UART_ACS_rxBufferOverflow
 162 00d4 00000000 		.word	UART_ACS_rxBufferRead
 163              		.cfi_endproc
 164              	.LFE0:
 165              		.size	UART_ACS_RXISR, .-UART_ACS_RXISR
 166              		.text
 167              	.Letext0:
 168              		.file 2 ".\\Generated_Source\\PSoC5\\cytypes.h"
 169              		.file 3 ".\\Generated_Source\\PSoC5\\UART_ACS.h"