ARM GAS  C:\Users\Yiquing\AppData\Local\Temp\ccsAoMV1.s 			page 1


   1              		.syntax unified
   2              		.cpu cortex-m3
   3              		.fpu softvfp
   4              		.eabi_attribute 20, 1
   5              		.eabi_attribute 21, 1
   6              		.eabi_attribute 23, 3
   7              		.eabi_attribute 24, 1
   8              		.eabi_attribute 25, 1
   9              		.eabi_attribute 26, 1
  10              		.eabi_attribute 30, 4
  11              		.eabi_attribute 34, 1
  12              		.eabi_attribute 18, 4
  13              		.thumb
  14              		.file	"CyLib.c"
  15              		.text
  16              	.Ltext0:
  17              		.cfi_sections	.debug_frame
  18              		.section	.text.CyIMO_SetTrimValue,"ax",%progbits
  19              		.align	1
  20              		.thumb
  21              		.thumb_func
  22              		.type	CyIMO_SetTrimValue, %function
  23              	CyIMO_SetTrimValue:
  24              	.LFB7:
  25              		.file 1 ".\\Generated_Source\\PSoC5\\CyLib.c"
   1:.\Generated_Source\PSoC5/CyLib.c **** /*******************************************************************************
   2:.\Generated_Source\PSoC5/CyLib.c **** * File Name: CyLib.c
   3:.\Generated_Source\PSoC5/CyLib.c **** * Version 5.0
   4:.\Generated_Source\PSoC5/CyLib.c **** *
   5:.\Generated_Source\PSoC5/CyLib.c **** *  Description:
   6:.\Generated_Source\PSoC5/CyLib.c **** *   Provides a system API for the clocking, interrupts and watchdog timer.
   7:.\Generated_Source\PSoC5/CyLib.c **** *
   8:.\Generated_Source\PSoC5/CyLib.c **** *  Note:
   9:.\Generated_Source\PSoC5/CyLib.c **** *   Documentation of the API's in this file is located in the
  10:.\Generated_Source\PSoC5/CyLib.c **** *   System Reference Guide provided with PSoC Creator.
  11:.\Generated_Source\PSoC5/CyLib.c **** *
  12:.\Generated_Source\PSoC5/CyLib.c **** ********************************************************************************
  13:.\Generated_Source\PSoC5/CyLib.c **** * Copyright 2008-2015, Cypress Semiconductor Corporation.  All rights reserved.
  14:.\Generated_Source\PSoC5/CyLib.c **** * You may use this file only in accordance with the license, terms, conditions,
  15:.\Generated_Source\PSoC5/CyLib.c **** * disclaimers, and limitations in the end user license agreement accompanying
  16:.\Generated_Source\PSoC5/CyLib.c **** * the software package with which this file was provided.
  17:.\Generated_Source\PSoC5/CyLib.c **** *******************************************************************************/
  18:.\Generated_Source\PSoC5/CyLib.c **** 
  19:.\Generated_Source\PSoC5/CyLib.c **** #include "CyLib.h"
  20:.\Generated_Source\PSoC5/CyLib.c **** 
  21:.\Generated_Source\PSoC5/CyLib.c **** 
  22:.\Generated_Source\PSoC5/CyLib.c **** /*******************************************************************************
  23:.\Generated_Source\PSoC5/CyLib.c **** * The CyResetStatus variable is used to obtain value of RESET_SR0 register after
  24:.\Generated_Source\PSoC5/CyLib.c **** * a device reset. It is set from initialize_psoc() at the early initialization
  25:.\Generated_Source\PSoC5/CyLib.c **** * stage. In case of IAR EW IDE, initialize_psoc() is executed before the data
  26:.\Generated_Source\PSoC5/CyLib.c **** * sections are initialized. To avoid zeroing, CyResetStatus should be placed
  27:.\Generated_Source\PSoC5/CyLib.c **** * to the .noinit section.
  28:.\Generated_Source\PSoC5/CyLib.c **** *******************************************************************************/
  29:.\Generated_Source\PSoC5/CyLib.c **** CY_NOINIT uint8 CYXDATA CyResetStatus;
  30:.\Generated_Source\PSoC5/CyLib.c **** 
  31:.\Generated_Source\PSoC5/CyLib.c **** 
  32:.\Generated_Source\PSoC5/CyLib.c **** /* Variable Vdda */
ARM GAS  C:\Users\Yiquing\AppData\Local\Temp\ccsAoMV1.s 			page 2


  33:.\Generated_Source\PSoC5/CyLib.c **** #if(CYDEV_VARIABLE_VDDA == 1)
  34:.\Generated_Source\PSoC5/CyLib.c **** 
  35:.\Generated_Source\PSoC5/CyLib.c ****     uint8 CyScPumpEnabled = (uint8)(CYDEV_VDDA_MV < 2700);
  36:.\Generated_Source\PSoC5/CyLib.c **** 
  37:.\Generated_Source\PSoC5/CyLib.c **** #endif  /* (CYDEV_VARIABLE_VDDA == 1) */
  38:.\Generated_Source\PSoC5/CyLib.c **** 
  39:.\Generated_Source\PSoC5/CyLib.c **** 
  40:.\Generated_Source\PSoC5/CyLib.c **** /* Do not use these definitions directly in your application */
  41:.\Generated_Source\PSoC5/CyLib.c **** uint32 cydelay_freq_hz  = BCLK__BUS_CLK__HZ;
  42:.\Generated_Source\PSoC5/CyLib.c **** uint32 cydelay_freq_khz = (BCLK__BUS_CLK__HZ + 999u) / 1000u;
  43:.\Generated_Source\PSoC5/CyLib.c **** uint8  cydelay_freq_mhz = (uint8)((BCLK__BUS_CLK__HZ + 999999u) / 1000000u);
  44:.\Generated_Source\PSoC5/CyLib.c **** uint32 cydelay_32k_ms   = 32768u * ((BCLK__BUS_CLK__HZ + 999u) / 1000u);
  45:.\Generated_Source\PSoC5/CyLib.c **** 
  46:.\Generated_Source\PSoC5/CyLib.c **** 
  47:.\Generated_Source\PSoC5/CyLib.c **** /* Function Prototypes */
  48:.\Generated_Source\PSoC5/CyLib.c **** static uint8 CyUSB_PowerOnCheck(void)  ;
  49:.\Generated_Source\PSoC5/CyLib.c **** static void CyIMO_SetTrimValue(uint8 freq) ;
  50:.\Generated_Source\PSoC5/CyLib.c **** static void CyBusClk_Internal_SetDivider(uint16 divider);
  51:.\Generated_Source\PSoC5/CyLib.c **** 
  52:.\Generated_Source\PSoC5/CyLib.c **** #if(CY_PSOC5)
  53:.\Generated_Source\PSoC5/CyLib.c ****     static cySysTickCallback CySysTickCallbacks[CY_SYS_SYST_NUM_OF_CALLBACKS];
  54:.\Generated_Source\PSoC5/CyLib.c ****     static void CySysTickServiceCallbacks(void);
  55:.\Generated_Source\PSoC5/CyLib.c ****     uint32 CySysTickInitVar = 0u;
  56:.\Generated_Source\PSoC5/CyLib.c **** #endif  /* (CY_PSOC5) */
  57:.\Generated_Source\PSoC5/CyLib.c **** 
  58:.\Generated_Source\PSoC5/CyLib.c **** 
  59:.\Generated_Source\PSoC5/CyLib.c **** /*******************************************************************************
  60:.\Generated_Source\PSoC5/CyLib.c **** * Function Name: CyPLL_OUT_Start
  61:.\Generated_Source\PSoC5/CyLib.c **** ********************************************************************************
  62:.\Generated_Source\PSoC5/CyLib.c **** *
  63:.\Generated_Source\PSoC5/CyLib.c **** * Summary:
  64:.\Generated_Source\PSoC5/CyLib.c **** *   Enables the PLL.  Optionally waits for it to become stable.
  65:.\Generated_Source\PSoC5/CyLib.c **** *   Waits at least 250 us or until it is detected that the PLL is stable.
  66:.\Generated_Source\PSoC5/CyLib.c **** *
  67:.\Generated_Source\PSoC5/CyLib.c **** * Parameters:
  68:.\Generated_Source\PSoC5/CyLib.c **** *   wait:
  69:.\Generated_Source\PSoC5/CyLib.c **** *    0: Return immediately after configuration
  70:.\Generated_Source\PSoC5/CyLib.c **** *    1: Wait for PLL lock or timeout.
  71:.\Generated_Source\PSoC5/CyLib.c **** *
  72:.\Generated_Source\PSoC5/CyLib.c **** * Return:
  73:.\Generated_Source\PSoC5/CyLib.c **** *   Status
  74:.\Generated_Source\PSoC5/CyLib.c **** *    CYRET_SUCCESS - Completed successfully
  75:.\Generated_Source\PSoC5/CyLib.c **** *    CYRET_TIMEOUT - Timeout occurred without detecting a stable clock.
  76:.\Generated_Source\PSoC5/CyLib.c **** *     If the input source of the clock is jittery, then the lock indication
  77:.\Generated_Source\PSoC5/CyLib.c **** *     may not occur.  However, after the timeout has expired the generated PLL
  78:.\Generated_Source\PSoC5/CyLib.c **** *     clock can still be used.
  79:.\Generated_Source\PSoC5/CyLib.c **** *
  80:.\Generated_Source\PSoC5/CyLib.c **** * Side Effects:
  81:.\Generated_Source\PSoC5/CyLib.c **** *  If wait is enabled: This function uses the Fast Time Wheel to time the wait.
  82:.\Generated_Source\PSoC5/CyLib.c **** *  Any other use of the Fast Time Wheel will be stopped during the period of
  83:.\Generated_Source\PSoC5/CyLib.c **** *  this function and then restored. This function also uses the 100 KHz ILO.
  84:.\Generated_Source\PSoC5/CyLib.c **** *  If not enabled, this function will enable the 100 KHz ILO for the period of
  85:.\Generated_Source\PSoC5/CyLib.c **** *  this function.
  86:.\Generated_Source\PSoC5/CyLib.c **** *
  87:.\Generated_Source\PSoC5/CyLib.c **** *  No changes to the setup of the ILO, Fast Time Wheel, Central Time Wheel or
  88:.\Generated_Source\PSoC5/CyLib.c **** *  Once Per Second interrupt may be made by interrupt routines during the period
  89:.\Generated_Source\PSoC5/CyLib.c **** *  of this function execution. The current operation of the ILO, Central Time
ARM GAS  C:\Users\Yiquing\AppData\Local\Temp\ccsAoMV1.s 			page 3


  90:.\Generated_Source\PSoC5/CyLib.c **** *  Wheel and Once Per Second interrupt are maintained during the operation of
  91:.\Generated_Source\PSoC5/CyLib.c **** *  this function provided the reading of the Power Manager Interrupt Status
  92:.\Generated_Source\PSoC5/CyLib.c **** *  Register is only done using the CyPmReadStatus() function.
  93:.\Generated_Source\PSoC5/CyLib.c **** *
  94:.\Generated_Source\PSoC5/CyLib.c **** *******************************************************************************/
  95:.\Generated_Source\PSoC5/CyLib.c **** cystatus CyPLL_OUT_Start(uint8 wait) 
  96:.\Generated_Source\PSoC5/CyLib.c **** {
  97:.\Generated_Source\PSoC5/CyLib.c ****     cystatus status = CYRET_SUCCESS;
  98:.\Generated_Source\PSoC5/CyLib.c **** 
  99:.\Generated_Source\PSoC5/CyLib.c ****     uint8 iloEnableState;
 100:.\Generated_Source\PSoC5/CyLib.c ****     uint8 pmTwCfg0State;
 101:.\Generated_Source\PSoC5/CyLib.c ****     uint8 pmTwCfg2State;
 102:.\Generated_Source\PSoC5/CyLib.c **** 
 103:.\Generated_Source\PSoC5/CyLib.c **** 
 104:.\Generated_Source\PSoC5/CyLib.c ****     /* Enables PLL circuit  */
 105:.\Generated_Source\PSoC5/CyLib.c ****     CY_CLK_PLL_CFG0_REG |= CY_CLK_PLL_ENABLE;
 106:.\Generated_Source\PSoC5/CyLib.c **** 
 107:.\Generated_Source\PSoC5/CyLib.c ****     if(wait != 0u)
 108:.\Generated_Source\PSoC5/CyLib.c ****     {
 109:.\Generated_Source\PSoC5/CyLib.c ****         /* Save 100 KHz ILO, FTW interval, enable and interrupt enable */
 110:.\Generated_Source\PSoC5/CyLib.c ****         iloEnableState = CY_LIB_SLOWCLK_ILO_CR0_REG & CY_LIB_SLOWCLK_ILO_CR0_EN_100KHZ;
 111:.\Generated_Source\PSoC5/CyLib.c ****         pmTwCfg0State = CY_LIB_PM_TW_CFG0_REG;
 112:.\Generated_Source\PSoC5/CyLib.c ****         pmTwCfg2State = CY_LIB_PM_TW_CFG2_REG;
 113:.\Generated_Source\PSoC5/CyLib.c **** 
 114:.\Generated_Source\PSoC5/CyLib.c ****         CyPmFtwSetInterval(CY_CLK_PLL_FTW_INTERVAL);
 115:.\Generated_Source\PSoC5/CyLib.c **** 
 116:.\Generated_Source\PSoC5/CyLib.c ****         status = CYRET_TIMEOUT;
 117:.\Generated_Source\PSoC5/CyLib.c **** 
 118:.\Generated_Source\PSoC5/CyLib.c ****         while(0u == (CY_PM_FTW_INT & CyPmReadStatus(CY_PM_FTW_INT)))
 119:.\Generated_Source\PSoC5/CyLib.c ****         {
 120:.\Generated_Source\PSoC5/CyLib.c ****             /* Wait for interrupt status */
 121:.\Generated_Source\PSoC5/CyLib.c ****             if(0u != (CY_CLK_PLL_SR_REG & CY_CLK_PLL_LOCK_STATUS))
 122:.\Generated_Source\PSoC5/CyLib.c ****             {
 123:.\Generated_Source\PSoC5/CyLib.c ****                 if(0u != (CY_CLK_PLL_SR_REG & CY_CLK_PLL_LOCK_STATUS))
 124:.\Generated_Source\PSoC5/CyLib.c ****                 {
 125:.\Generated_Source\PSoC5/CyLib.c ****                     status = CYRET_SUCCESS;
 126:.\Generated_Source\PSoC5/CyLib.c ****                     break;
 127:.\Generated_Source\PSoC5/CyLib.c ****                 }
 128:.\Generated_Source\PSoC5/CyLib.c ****             }
 129:.\Generated_Source\PSoC5/CyLib.c ****         }
 130:.\Generated_Source\PSoC5/CyLib.c **** 
 131:.\Generated_Source\PSoC5/CyLib.c ****         /* Restore 100 KHz ILO, FTW interval, enable and interrupt enable */
 132:.\Generated_Source\PSoC5/CyLib.c ****         if(0u == iloEnableState)
 133:.\Generated_Source\PSoC5/CyLib.c ****         {
 134:.\Generated_Source\PSoC5/CyLib.c ****             CyILO_Stop100K();
 135:.\Generated_Source\PSoC5/CyLib.c ****         }
 136:.\Generated_Source\PSoC5/CyLib.c **** 
 137:.\Generated_Source\PSoC5/CyLib.c ****         CY_LIB_PM_TW_CFG0_REG = pmTwCfg0State;
 138:.\Generated_Source\PSoC5/CyLib.c ****         CY_LIB_PM_TW_CFG2_REG = pmTwCfg2State;
 139:.\Generated_Source\PSoC5/CyLib.c ****     }
 140:.\Generated_Source\PSoC5/CyLib.c **** 
 141:.\Generated_Source\PSoC5/CyLib.c ****     return(status);
 142:.\Generated_Source\PSoC5/CyLib.c **** }
 143:.\Generated_Source\PSoC5/CyLib.c **** 
 144:.\Generated_Source\PSoC5/CyLib.c **** 
 145:.\Generated_Source\PSoC5/CyLib.c **** /*******************************************************************************
 146:.\Generated_Source\PSoC5/CyLib.c **** * Function Name: CyPLL_OUT_Stop
ARM GAS  C:\Users\Yiquing\AppData\Local\Temp\ccsAoMV1.s 			page 4


 147:.\Generated_Source\PSoC5/CyLib.c **** ********************************************************************************
 148:.\Generated_Source\PSoC5/CyLib.c **** *
 149:.\Generated_Source\PSoC5/CyLib.c **** * Summary:
 150:.\Generated_Source\PSoC5/CyLib.c **** *  Disables the PLL.
 151:.\Generated_Source\PSoC5/CyLib.c **** *
 152:.\Generated_Source\PSoC5/CyLib.c **** * Parameters:
 153:.\Generated_Source\PSoC5/CyLib.c **** *  None
 154:.\Generated_Source\PSoC5/CyLib.c **** *
 155:.\Generated_Source\PSoC5/CyLib.c **** * Return:
 156:.\Generated_Source\PSoC5/CyLib.c **** *  None
 157:.\Generated_Source\PSoC5/CyLib.c **** *
 158:.\Generated_Source\PSoC5/CyLib.c **** *******************************************************************************/
 159:.\Generated_Source\PSoC5/CyLib.c **** void CyPLL_OUT_Stop(void) 
 160:.\Generated_Source\PSoC5/CyLib.c **** {
 161:.\Generated_Source\PSoC5/CyLib.c ****     CY_CLK_PLL_CFG0_REG &= ((uint8)(~CY_CLK_PLL_ENABLE));
 162:.\Generated_Source\PSoC5/CyLib.c **** }
 163:.\Generated_Source\PSoC5/CyLib.c **** 
 164:.\Generated_Source\PSoC5/CyLib.c **** 
 165:.\Generated_Source\PSoC5/CyLib.c **** /*******************************************************************************
 166:.\Generated_Source\PSoC5/CyLib.c **** * Function Name: CyPLL_OUT_SetPQ
 167:.\Generated_Source\PSoC5/CyLib.c **** ********************************************************************************
 168:.\Generated_Source\PSoC5/CyLib.c **** *
 169:.\Generated_Source\PSoC5/CyLib.c **** * Summary:
 170:.\Generated_Source\PSoC5/CyLib.c **** *  Sets the P and Q dividers and the charge pump current.
 171:.\Generated_Source\PSoC5/CyLib.c **** *  The Frequency Out will be P/Q * Frequency In.
 172:.\Generated_Source\PSoC5/CyLib.c **** *  The PLL must be disabled before calling this function.
 173:.\Generated_Source\PSoC5/CyLib.c **** *
 174:.\Generated_Source\PSoC5/CyLib.c **** * Parameters:
 175:.\Generated_Source\PSoC5/CyLib.c **** *  uint8 pDiv:
 176:.\Generated_Source\PSoC5/CyLib.c **** *   Valid range [8 - 255].
 177:.\Generated_Source\PSoC5/CyLib.c **** *
 178:.\Generated_Source\PSoC5/CyLib.c **** *  uint8 qDiv:
 179:.\Generated_Source\PSoC5/CyLib.c **** *   Valid range [1 - 16]. Input Frequency / Q must be in range of 1 to 3 MHz.
 180:.\Generated_Source\PSoC5/CyLib.c **** 
 181:.\Generated_Source\PSoC5/CyLib.c **** *  uint8 current:
 182:.\Generated_Source\PSoC5/CyLib.c **** *   Valid range [1 - 7]. Charge pump current in uA. Refer to the device TRM and
 183:.\Generated_Source\PSoC5/CyLib.c **** *   datasheet for more information.
 184:.\Generated_Source\PSoC5/CyLib.c **** *
 185:.\Generated_Source\PSoC5/CyLib.c **** * Return:
 186:.\Generated_Source\PSoC5/CyLib.c **** *  None
 187:.\Generated_Source\PSoC5/CyLib.c **** *
 188:.\Generated_Source\PSoC5/CyLib.c **** * Side Effects:
 189:.\Generated_Source\PSoC5/CyLib.c **** *  If this function execution results in the CPU clock frequency increasing,
 190:.\Generated_Source\PSoC5/CyLib.c **** *  then the number of clock cycles the cache will wait before it samples data
 191:.\Generated_Source\PSoC5/CyLib.c **** *  coming back from the Flash must be adjusted by calling
 192:.\Generated_Source\PSoC5/CyLib.c **** *  CyFlash_SetWaitCycles() with an appropriate parameter. It can be optionally
 193:.\Generated_Source\PSoC5/CyLib.c **** *  called if the CPU clock frequency is lowered in order to improve the CPU
 194:.\Generated_Source\PSoC5/CyLib.c **** *  performance. See CyFlash_SetWaitCycles() description for more information.
 195:.\Generated_Source\PSoC5/CyLib.c **** *
 196:.\Generated_Source\PSoC5/CyLib.c **** *******************************************************************************/
 197:.\Generated_Source\PSoC5/CyLib.c **** void CyPLL_OUT_SetPQ(uint8 pDiv, uint8 qDiv, uint8 current) 
 198:.\Generated_Source\PSoC5/CyLib.c **** {
 199:.\Generated_Source\PSoC5/CyLib.c ****     /* Halt CPU in debug mode if PLL is enabled */
 200:.\Generated_Source\PSoC5/CyLib.c ****     CYASSERT(0u == (CY_CLK_PLL_CFG0_REG & CY_CLK_PLL_ENABLE));
 201:.\Generated_Source\PSoC5/CyLib.c **** 
 202:.\Generated_Source\PSoC5/CyLib.c ****     if((pDiv    >= CY_CLK_PLL_MIN_P_VALUE  ) &&
 203:.\Generated_Source\PSoC5/CyLib.c ****        (qDiv    <= CY_CLK_PLL_MAX_Q_VALUE  ) && (qDiv    >= CY_CLK_PLL_MIN_Q_VALUE  ) &&
ARM GAS  C:\Users\Yiquing\AppData\Local\Temp\ccsAoMV1.s 			page 5


 204:.\Generated_Source\PSoC5/CyLib.c ****        (current >= CY_CLK_PLL_MIN_CUR_VALUE) && (current <= CY_CLK_PLL_MAX_CUR_VALUE))
 205:.\Generated_Source\PSoC5/CyLib.c ****     {
 206:.\Generated_Source\PSoC5/CyLib.c ****         /* Set new values */
 207:.\Generated_Source\PSoC5/CyLib.c ****         CY_CLK_PLL_P_REG = pDiv;
 208:.\Generated_Source\PSoC5/CyLib.c ****         CY_CLK_PLL_Q_REG = ((uint8)(qDiv - 1u));
 209:.\Generated_Source\PSoC5/CyLib.c ****         CY_CLK_PLL_CFG1_REG = (CY_CLK_PLL_CFG1_REG & CY_CLK_PLL_CURRENT_MASK) |
 210:.\Generated_Source\PSoC5/CyLib.c ****                                 ((uint8)(((uint8)(current - 1u)) << CY_CLK_PLL_CURRENT_POSITION));
 211:.\Generated_Source\PSoC5/CyLib.c ****     }
 212:.\Generated_Source\PSoC5/CyLib.c ****     else
 213:.\Generated_Source\PSoC5/CyLib.c ****     {
 214:.\Generated_Source\PSoC5/CyLib.c ****         /***********************************************************************
 215:.\Generated_Source\PSoC5/CyLib.c ****         * Halt CPU in debug mode if:
 216:.\Generated_Source\PSoC5/CyLib.c ****         * - P divider is less than required
 217:.\Generated_Source\PSoC5/CyLib.c ****         * - Q divider is out of range
 218:.\Generated_Source\PSoC5/CyLib.c ****         * - pump current is out of range
 219:.\Generated_Source\PSoC5/CyLib.c ****         ***********************************************************************/
 220:.\Generated_Source\PSoC5/CyLib.c ****         CYASSERT(0u != 0u);
 221:.\Generated_Source\PSoC5/CyLib.c ****     }
 222:.\Generated_Source\PSoC5/CyLib.c **** 
 223:.\Generated_Source\PSoC5/CyLib.c **** }
 224:.\Generated_Source\PSoC5/CyLib.c **** 
 225:.\Generated_Source\PSoC5/CyLib.c **** 
 226:.\Generated_Source\PSoC5/CyLib.c **** /*******************************************************************************
 227:.\Generated_Source\PSoC5/CyLib.c **** * Function Name: CyPLL_OUT_SetSource
 228:.\Generated_Source\PSoC5/CyLib.c **** ********************************************************************************
 229:.\Generated_Source\PSoC5/CyLib.c **** *
 230:.\Generated_Source\PSoC5/CyLib.c **** * Summary:
 231:.\Generated_Source\PSoC5/CyLib.c **** *  Sets the input clock source to the PLL. The PLL must be disabled before
 232:.\Generated_Source\PSoC5/CyLib.c **** *  calling this function.
 233:.\Generated_Source\PSoC5/CyLib.c **** *
 234:.\Generated_Source\PSoC5/CyLib.c **** * Parameters:
 235:.\Generated_Source\PSoC5/CyLib.c **** *   source: One of the three available PLL clock sources
 236:.\Generated_Source\PSoC5/CyLib.c **** *    CY_PLL_SOURCE_IMO  :   IMO
 237:.\Generated_Source\PSoC5/CyLib.c **** *    CY_PLL_SOURCE_XTAL :   MHz Crystal
 238:.\Generated_Source\PSoC5/CyLib.c **** *    CY_PLL_SOURCE_DSI  :   DSI
 239:.\Generated_Source\PSoC5/CyLib.c **** *
 240:.\Generated_Source\PSoC5/CyLib.c **** * Return:
 241:.\Generated_Source\PSoC5/CyLib.c **** *  None
 242:.\Generated_Source\PSoC5/CyLib.c **** *
 243:.\Generated_Source\PSoC5/CyLib.c **** * Side Effects:
 244:.\Generated_Source\PSoC5/CyLib.c **** *  If this function execution results in the CPU clock frequency increasing,
 245:.\Generated_Source\PSoC5/CyLib.c **** *  then the number of clock cycles the cache will wait before it samples data
 246:.\Generated_Source\PSoC5/CyLib.c **** *  coming back from the3 Flash must be adjusted by calling
 247:.\Generated_Source\PSoC5/CyLib.c **** *  CyFlash_SetWaitCycles() with an appropriate parameter. It can be optionally
 248:.\Generated_Source\PSoC5/CyLib.c **** *  called if the CPU clock frequency is lowered in order to improve the CPU
 249:.\Generated_Source\PSoC5/CyLib.c **** *  performance. See CyFlash_SetWaitCycles() description for more information.
 250:.\Generated_Source\PSoC5/CyLib.c **** *
 251:.\Generated_Source\PSoC5/CyLib.c **** *******************************************************************************/
 252:.\Generated_Source\PSoC5/CyLib.c **** void CyPLL_OUT_SetSource(uint8 source) 
 253:.\Generated_Source\PSoC5/CyLib.c **** {
 254:.\Generated_Source\PSoC5/CyLib.c ****     /* Halt CPU in debug mode if PLL is enabled */
 255:.\Generated_Source\PSoC5/CyLib.c ****     CYASSERT(0u == (CY_CLK_PLL_CFG0_REG & CY_CLK_PLL_ENABLE));
 256:.\Generated_Source\PSoC5/CyLib.c **** 
 257:.\Generated_Source\PSoC5/CyLib.c ****     switch(source)
 258:.\Generated_Source\PSoC5/CyLib.c ****     {
 259:.\Generated_Source\PSoC5/CyLib.c ****         case CY_PLL_SOURCE_IMO:
 260:.\Generated_Source\PSoC5/CyLib.c ****         case CY_PLL_SOURCE_XTAL:
ARM GAS  C:\Users\Yiquing\AppData\Local\Temp\ccsAoMV1.s 			page 6


 261:.\Generated_Source\PSoC5/CyLib.c ****         case CY_PLL_SOURCE_DSI:
 262:.\Generated_Source\PSoC5/CyLib.c ****             CY_LIB_CLKDIST_CR_REG = ((CY_LIB_CLKDIST_CR_REG & CY_LIB_CLKDIST_CR_PLL_SCR_MASK) | sou
 263:.\Generated_Source\PSoC5/CyLib.c ****         break;
 264:.\Generated_Source\PSoC5/CyLib.c **** 
 265:.\Generated_Source\PSoC5/CyLib.c ****         default:
 266:.\Generated_Source\PSoC5/CyLib.c ****             CYASSERT(0u != 0u);
 267:.\Generated_Source\PSoC5/CyLib.c ****         break;
 268:.\Generated_Source\PSoC5/CyLib.c ****     }
 269:.\Generated_Source\PSoC5/CyLib.c **** }
 270:.\Generated_Source\PSoC5/CyLib.c **** 
 271:.\Generated_Source\PSoC5/CyLib.c **** 
 272:.\Generated_Source\PSoC5/CyLib.c **** /*******************************************************************************
 273:.\Generated_Source\PSoC5/CyLib.c **** * Function Name: CyIMO_Start
 274:.\Generated_Source\PSoC5/CyLib.c **** ********************************************************************************
 275:.\Generated_Source\PSoC5/CyLib.c **** *
 276:.\Generated_Source\PSoC5/CyLib.c **** * Summary:
 277:.\Generated_Source\PSoC5/CyLib.c **** *  Enables the IMO. Optionally waits at least 6 us for it to settle.
 278:.\Generated_Source\PSoC5/CyLib.c **** *
 279:.\Generated_Source\PSoC5/CyLib.c **** * Parameters:
 280:.\Generated_Source\PSoC5/CyLib.c **** *  uint8 wait:
 281:.\Generated_Source\PSoC5/CyLib.c **** *   0: Return immediately after configuration
 282:.\Generated_Source\PSoC5/CyLib.c **** *   1: Wait for at least 6 us for the IMO to settle.
 283:.\Generated_Source\PSoC5/CyLib.c **** *
 284:.\Generated_Source\PSoC5/CyLib.c **** * Return:
 285:.\Generated_Source\PSoC5/CyLib.c **** *  None
 286:.\Generated_Source\PSoC5/CyLib.c **** *
 287:.\Generated_Source\PSoC5/CyLib.c **** * Side Effects:
 288:.\Generated_Source\PSoC5/CyLib.c **** *  If wait is enabled: This function uses the Fast Time Wheel to time the wait.
 289:.\Generated_Source\PSoC5/CyLib.c **** *  Any other use of the Fast Time Wheel will be stopped during the period of
 290:.\Generated_Source\PSoC5/CyLib.c **** *  this function and then restored. This function also uses the 100 KHz ILO.
 291:.\Generated_Source\PSoC5/CyLib.c **** *  If not enabled, this function will enable the 100 KHz ILO for the period of
 292:.\Generated_Source\PSoC5/CyLib.c **** *  this function.
 293:.\Generated_Source\PSoC5/CyLib.c **** *
 294:.\Generated_Source\PSoC5/CyLib.c **** *  No changes to the setup of the ILO, Fast Time Wheel, Central Time Wheel or
 295:.\Generated_Source\PSoC5/CyLib.c **** *  Once Per Second interrupt may be made by interrupt routines during the period
 296:.\Generated_Source\PSoC5/CyLib.c **** *  of this function execution. The current operation of the ILO, Central Time
 297:.\Generated_Source\PSoC5/CyLib.c **** *  Wheel and Once Per Second interrupt are maintained during the operation of
 298:.\Generated_Source\PSoC5/CyLib.c **** *  this function provided the reading of the Power Manager Interrupt Status
 299:.\Generated_Source\PSoC5/CyLib.c **** *  Register is only done using the CyPmReadStatus() function.
 300:.\Generated_Source\PSoC5/CyLib.c **** *
 301:.\Generated_Source\PSoC5/CyLib.c **** *******************************************************************************/
 302:.\Generated_Source\PSoC5/CyLib.c **** void CyIMO_Start(uint8 wait) 
 303:.\Generated_Source\PSoC5/CyLib.c **** {
 304:.\Generated_Source\PSoC5/CyLib.c ****     uint8 pmFtwCfg2Reg;
 305:.\Generated_Source\PSoC5/CyLib.c ****     uint8 pmFtwCfg0Reg;
 306:.\Generated_Source\PSoC5/CyLib.c ****     uint8 ilo100KhzEnable;
 307:.\Generated_Source\PSoC5/CyLib.c **** 
 308:.\Generated_Source\PSoC5/CyLib.c **** 
 309:.\Generated_Source\PSoC5/CyLib.c ****     CY_LIB_PM_ACT_CFG0_REG  |= CY_LIB_PM_ACT_CFG0_IMO_EN;
 310:.\Generated_Source\PSoC5/CyLib.c ****     CY_LIB_PM_STBY_CFG0_REG |= CY_LIB_PM_STBY_CFG0_IMO_EN;
 311:.\Generated_Source\PSoC5/CyLib.c **** 
 312:.\Generated_Source\PSoC5/CyLib.c ****     if(0u != wait)
 313:.\Generated_Source\PSoC5/CyLib.c ****     {
 314:.\Generated_Source\PSoC5/CyLib.c ****         /* Need to turn on 100KHz ILO if it happens to not already be running.*/
 315:.\Generated_Source\PSoC5/CyLib.c ****         ilo100KhzEnable = CY_LIB_SLOWCLK_ILO_CR0_REG & CY_LIB_SLOWCLK_ILO_CR0_EN_100KHZ;
 316:.\Generated_Source\PSoC5/CyLib.c ****         pmFtwCfg0Reg = CY_LIB_PM_TW_CFG0_REG;
 317:.\Generated_Source\PSoC5/CyLib.c ****         pmFtwCfg2Reg = CY_LIB_PM_TW_CFG2_REG;
ARM GAS  C:\Users\Yiquing\AppData\Local\Temp\ccsAoMV1.s 			page 7


 318:.\Generated_Source\PSoC5/CyLib.c **** 
 319:.\Generated_Source\PSoC5/CyLib.c ****         CyPmFtwSetInterval(CY_LIB_CLK_IMO_FTW_TIMEOUT);
 320:.\Generated_Source\PSoC5/CyLib.c **** 
 321:.\Generated_Source\PSoC5/CyLib.c ****         while (0u == (CY_PM_FTW_INT & CyPmReadStatus(CY_PM_FTW_INT)))
 322:.\Generated_Source\PSoC5/CyLib.c ****         {
 323:.\Generated_Source\PSoC5/CyLib.c ****             /* Wait for interrupt status */
 324:.\Generated_Source\PSoC5/CyLib.c ****         }
 325:.\Generated_Source\PSoC5/CyLib.c **** 
 326:.\Generated_Source\PSoC5/CyLib.c ****         if(0u == ilo100KhzEnable)
 327:.\Generated_Source\PSoC5/CyLib.c ****         {
 328:.\Generated_Source\PSoC5/CyLib.c ****             CyILO_Stop100K();
 329:.\Generated_Source\PSoC5/CyLib.c ****         }
 330:.\Generated_Source\PSoC5/CyLib.c **** 
 331:.\Generated_Source\PSoC5/CyLib.c ****         CY_LIB_PM_TW_CFG0_REG = pmFtwCfg0Reg;
 332:.\Generated_Source\PSoC5/CyLib.c ****         CY_LIB_PM_TW_CFG2_REG = pmFtwCfg2Reg;
 333:.\Generated_Source\PSoC5/CyLib.c ****     }
 334:.\Generated_Source\PSoC5/CyLib.c **** }
 335:.\Generated_Source\PSoC5/CyLib.c **** 
 336:.\Generated_Source\PSoC5/CyLib.c **** 
 337:.\Generated_Source\PSoC5/CyLib.c **** /*******************************************************************************
 338:.\Generated_Source\PSoC5/CyLib.c **** * Function Name: CyIMO_Stop
 339:.\Generated_Source\PSoC5/CyLib.c **** ********************************************************************************
 340:.\Generated_Source\PSoC5/CyLib.c **** *
 341:.\Generated_Source\PSoC5/CyLib.c **** * Summary:
 342:.\Generated_Source\PSoC5/CyLib.c **** *   Disables the IMO.
 343:.\Generated_Source\PSoC5/CyLib.c **** *
 344:.\Generated_Source\PSoC5/CyLib.c **** * Parameters:
 345:.\Generated_Source\PSoC5/CyLib.c **** *  None
 346:.\Generated_Source\PSoC5/CyLib.c **** *
 347:.\Generated_Source\PSoC5/CyLib.c **** * Return:
 348:.\Generated_Source\PSoC5/CyLib.c **** *  None
 349:.\Generated_Source\PSoC5/CyLib.c **** *
 350:.\Generated_Source\PSoC5/CyLib.c **** *******************************************************************************/
 351:.\Generated_Source\PSoC5/CyLib.c **** void CyIMO_Stop(void) 
 352:.\Generated_Source\PSoC5/CyLib.c **** {
 353:.\Generated_Source\PSoC5/CyLib.c ****     CY_LIB_PM_ACT_CFG0_REG  &= ((uint8) (~CY_LIB_PM_ACT_CFG0_IMO_EN));
 354:.\Generated_Source\PSoC5/CyLib.c ****     CY_LIB_PM_STBY_CFG0_REG &= ((uint8) (~CY_LIB_PM_STBY_CFG0_IMO_EN));
 355:.\Generated_Source\PSoC5/CyLib.c **** }
 356:.\Generated_Source\PSoC5/CyLib.c **** 
 357:.\Generated_Source\PSoC5/CyLib.c **** 
 358:.\Generated_Source\PSoC5/CyLib.c **** /*******************************************************************************
 359:.\Generated_Source\PSoC5/CyLib.c **** * Function Name: CyUSB_PowerOnCheck
 360:.\Generated_Source\PSoC5/CyLib.c **** ********************************************************************************
 361:.\Generated_Source\PSoC5/CyLib.c **** *
 362:.\Generated_Source\PSoC5/CyLib.c **** * Summary:
 363:.\Generated_Source\PSoC5/CyLib.c **** *  Returns the USB power status value. A private function to cy_boot.
 364:.\Generated_Source\PSoC5/CyLib.c **** *
 365:.\Generated_Source\PSoC5/CyLib.c **** * Parameters:
 366:.\Generated_Source\PSoC5/CyLib.c **** *   None
 367:.\Generated_Source\PSoC5/CyLib.c **** *
 368:.\Generated_Source\PSoC5/CyLib.c **** * Return:
 369:.\Generated_Source\PSoC5/CyLib.c **** *   uint8: one if the USB is enabled, 0 if not enabled.
 370:.\Generated_Source\PSoC5/CyLib.c **** *
 371:.\Generated_Source\PSoC5/CyLib.c **** *******************************************************************************/
 372:.\Generated_Source\PSoC5/CyLib.c **** static uint8 CyUSB_PowerOnCheck(void)  
 373:.\Generated_Source\PSoC5/CyLib.c **** {
 374:.\Generated_Source\PSoC5/CyLib.c ****     uint8 poweredOn = 0u;
ARM GAS  C:\Users\Yiquing\AppData\Local\Temp\ccsAoMV1.s 			page 8


 375:.\Generated_Source\PSoC5/CyLib.c **** 
 376:.\Generated_Source\PSoC5/CyLib.c ****     /* Check whether device is in Active or AltActive and if USB is powered on */
 377:.\Generated_Source\PSoC5/CyLib.c ****     if((((CY_PM_MODE_CSR_REG & CY_PM_MODE_CSR_MASK) == CY_PM_MODE_CSR_ACTIVE ) &&
 378:.\Generated_Source\PSoC5/CyLib.c ****        (0u != (CY_LIB_PM_ACT_CFG5_REG & CY_ACT_USB_ENABLED     )))  ||
 379:.\Generated_Source\PSoC5/CyLib.c ****        (((CY_PM_MODE_CSR_REG & CY_PM_MODE_CSR_MASK) == CY_PM_MODE_CSR_ALT_ACT) &&
 380:.\Generated_Source\PSoC5/CyLib.c ****        (0u != (CY_LIB_PM_STBY_CFG5_REG & CY_ALT_ACT_USB_ENABLED))))
 381:.\Generated_Source\PSoC5/CyLib.c ****     {
 382:.\Generated_Source\PSoC5/CyLib.c ****         poweredOn = 1u;
 383:.\Generated_Source\PSoC5/CyLib.c ****     }
 384:.\Generated_Source\PSoC5/CyLib.c **** 
 385:.\Generated_Source\PSoC5/CyLib.c ****     return (poweredOn);
 386:.\Generated_Source\PSoC5/CyLib.c **** }
 387:.\Generated_Source\PSoC5/CyLib.c **** 
 388:.\Generated_Source\PSoC5/CyLib.c **** 
 389:.\Generated_Source\PSoC5/CyLib.c **** /*******************************************************************************
 390:.\Generated_Source\PSoC5/CyLib.c **** * Function Name: CyIMO_SetTrimValue
 391:.\Generated_Source\PSoC5/CyLib.c **** ********************************************************************************
 392:.\Generated_Source\PSoC5/CyLib.c **** *
 393:.\Generated_Source\PSoC5/CyLib.c **** * Summary:
 394:.\Generated_Source\PSoC5/CyLib.c **** *  Sets the IMO factory trim values.
 395:.\Generated_Source\PSoC5/CyLib.c **** *
 396:.\Generated_Source\PSoC5/CyLib.c **** * Parameters:
 397:.\Generated_Source\PSoC5/CyLib.c **** *  uint8 freq - frequency for which trims must be set
 398:.\Generated_Source\PSoC5/CyLib.c **** *
 399:.\Generated_Source\PSoC5/CyLib.c **** * Return:
 400:.\Generated_Source\PSoC5/CyLib.c **** *  None
 401:.\Generated_Source\PSoC5/CyLib.c **** *
 402:.\Generated_Source\PSoC5/CyLib.c **** *******************************************************************************/
 403:.\Generated_Source\PSoC5/CyLib.c **** static void CyIMO_SetTrimValue(uint8 freq) 
 404:.\Generated_Source\PSoC5/CyLib.c **** {
  26              		.loc 1 404 0
  27              		.cfi_startproc
  28              		@ args = 0, pretend = 0, frame = 0
  29              		@ frame_needed = 0, uses_anonymous_args = 0
  30              		@ link register save eliminated.
  31              	.LVL0:
  32              	.LBB14:
  33              	.LBB15:
 377:.\Generated_Source\PSoC5/CyLib.c ****     if((((CY_PM_MODE_CSR_REG & CY_PM_MODE_CSR_MASK) == CY_PM_MODE_CSR_ACTIVE ) &&
  34              		.loc 1 377 0
  35 0000 204B     		ldr	r3, .L19
  36 0002 1A78     		ldrb	r2, [r3]	@ zero_extendqisi2
  37 0004 5107     		lsls	r1, r2, #29
  38 0006 03D1     		bne	.L2
 378:.\Generated_Source\PSoC5/CyLib.c ****        (0u != (CY_LIB_PM_ACT_CFG5_REG & CY_ACT_USB_ENABLED     )))  ||
  39              		.loc 1 378 0
  40 0008 1F4A     		ldr	r2, .L19+4
  41 000a 1278     		ldrb	r2, [r2]	@ zero_extendqisi2
 377:.\Generated_Source\PSoC5/CyLib.c ****     if((((CY_PM_MODE_CSR_REG & CY_PM_MODE_CSR_MASK) == CY_PM_MODE_CSR_ACTIVE ) &&
  42              		.loc 1 377 0
  43 000c D207     		lsls	r2, r2, #31
  44 000e 31D4     		bmi	.L3
  45              	.L2:
 379:.\Generated_Source\PSoC5/CyLib.c ****        (((CY_PM_MODE_CSR_REG & CY_PM_MODE_CSR_MASK) == CY_PM_MODE_CSR_ALT_ACT) &&
  46              		.loc 1 379 0
  47 0010 1B78     		ldrb	r3, [r3]	@ zero_extendqisi2
 378:.\Generated_Source\PSoC5/CyLib.c ****        (0u != (CY_LIB_PM_ACT_CFG5_REG & CY_ACT_USB_ENABLED     )))  ||
ARM GAS  C:\Users\Yiquing\AppData\Local\Temp\ccsAoMV1.s 			page 9


  48              		.loc 1 378 0
  49 0012 03F00703 		and	r3, r3, #7
  50 0016 012B     		cmp	r3, #1
  51 0018 05D1     		bne	.L15
 380:.\Generated_Source\PSoC5/CyLib.c ****        (0u != (CY_LIB_PM_STBY_CFG5_REG & CY_ALT_ACT_USB_ENABLED))))
  52              		.loc 1 380 0
  53 001a 1C4B     		ldr	r3, .L19+8
  54 001c 1B78     		ldrb	r3, [r3]	@ zero_extendqisi2
 379:.\Generated_Source\PSoC5/CyLib.c ****        (((CY_PM_MODE_CSR_REG & CY_PM_MODE_CSR_MASK) == CY_PM_MODE_CSR_ALT_ACT) &&
  55              		.loc 1 379 0
  56 001e 13F00103 		ands	r3, r3, #1
  57 0022 27D1     		bne	.L3
  58 0024 00E0     		b	.L4
  59              	.L15:
 378:.\Generated_Source\PSoC5/CyLib.c ****        (0u != (CY_LIB_PM_ACT_CFG5_REG & CY_ACT_USB_ENABLED     )))  ||
  60              		.loc 1 378 0
  61 0026 0023     		movs	r3, #0
  62              	.LVL1:
  63              	.L4:
  64              	.LBE15:
  65              	.LBE14:
 405:.\Generated_Source\PSoC5/CyLib.c ****     uint8 usbPowerOn = CyUSB_PowerOnCheck();
 406:.\Generated_Source\PSoC5/CyLib.c **** 
 407:.\Generated_Source\PSoC5/CyLib.c ****     /* If USB is powered */
 408:.\Generated_Source\PSoC5/CyLib.c ****     if(usbPowerOn == 1u)
 409:.\Generated_Source\PSoC5/CyLib.c ****     {
 410:.\Generated_Source\PSoC5/CyLib.c ****         /* Unlock USB write */
 411:.\Generated_Source\PSoC5/CyLib.c ****         CY_LIB_USB_CR1_REG &= ((uint8)(~CY_LIB_USB_CLK_EN));
 412:.\Generated_Source\PSoC5/CyLib.c ****     }
 413:.\Generated_Source\PSoC5/CyLib.c ****     switch(freq)
  66              		.loc 1 413 0
  67 0028 0828     		cmp	r0, #8
  68 002a 2AD8     		bhi	.L1
  69 002c DFE800F0 		tbb	[pc, r0]
  70              	.L7:
  71 0030 05       		.byte	(.L6-.L7)/2
  72 0031 07       		.byte	(.L8-.L7)/2
  73 0032 09       		.byte	(.L9-.L7)/2
  74 0033 0B       		.byte	(.L10-.L7)/2
  75 0034 0D       		.byte	(.L11-.L7)/2
  76 0035 0F       		.byte	(.L12-.L7)/2
  77 0036 11       		.byte	(.L13-.L7)/2
  78 0037 29       		.byte	(.L1-.L7)/2
  79 0038 16       		.byte	(.L14-.L7)/2
  80 0039 00       		.p2align 1
  81              	.L6:
 414:.\Generated_Source\PSoC5/CyLib.c ****     {
 415:.\Generated_Source\PSoC5/CyLib.c ****     case CY_IMO_FREQ_3MHZ:
 416:.\Generated_Source\PSoC5/CyLib.c ****         CY_LIB_IMO_TR1_REG = CY_GET_XTND_REG8(CY_LIB_TRIM_IMO_3MHZ_PTR);
  82              		.loc 1 416 0
  83 003a 154B     		ldr	r3, .L19+12
  84 003c 0AE0     		b	.L17
  85              	.L8:
 417:.\Generated_Source\PSoC5/CyLib.c ****         break;
 418:.\Generated_Source\PSoC5/CyLib.c **** 
 419:.\Generated_Source\PSoC5/CyLib.c ****     case CY_IMO_FREQ_6MHZ:
 420:.\Generated_Source\PSoC5/CyLib.c ****         CY_LIB_IMO_TR1_REG = CY_GET_XTND_REG8(CY_LIB_TRIM_IMO_6MHZ_PTR);
ARM GAS  C:\Users\Yiquing\AppData\Local\Temp\ccsAoMV1.s 			page 10


  86              		.loc 1 420 0
  87 003e 154B     		ldr	r3, .L19+16
  88 0040 08E0     		b	.L17
  89              	.L9:
 421:.\Generated_Source\PSoC5/CyLib.c ****         break;
 422:.\Generated_Source\PSoC5/CyLib.c **** 
 423:.\Generated_Source\PSoC5/CyLib.c ****     case CY_IMO_FREQ_12MHZ:
 424:.\Generated_Source\PSoC5/CyLib.c ****         CY_LIB_IMO_TR1_REG = CY_GET_XTND_REG8(CY_LIB_TRIM_IMO_12MHZ_PTR);
  90              		.loc 1 424 0
  91 0042 154B     		ldr	r3, .L19+20
  92 0044 06E0     		b	.L17
  93              	.L10:
 425:.\Generated_Source\PSoC5/CyLib.c ****         break;
 426:.\Generated_Source\PSoC5/CyLib.c **** 
 427:.\Generated_Source\PSoC5/CyLib.c ****     case CY_IMO_FREQ_24MHZ:
 428:.\Generated_Source\PSoC5/CyLib.c ****         CY_LIB_IMO_TR1_REG = CY_GET_XTND_REG8(CY_LIB_TRIM_IMO_24MHZ_PTR);
  94              		.loc 1 428 0
  95 0046 154B     		ldr	r3, .L19+24
  96 0048 04E0     		b	.L17
  97              	.L11:
 429:.\Generated_Source\PSoC5/CyLib.c ****         break;
 430:.\Generated_Source\PSoC5/CyLib.c **** 
 431:.\Generated_Source\PSoC5/CyLib.c ****     case CY_IMO_FREQ_48MHZ:
 432:.\Generated_Source\PSoC5/CyLib.c ****         CY_LIB_IMO_TR1_REG = CY_GET_XTND_REG8(CY_LIB_TRIM_IMO_TR1_PTR);
  98              		.loc 1 432 0
  99 004a 154B     		ldr	r3, .L19+28
 100 004c 02E0     		b	.L17
 101              	.L12:
 433:.\Generated_Source\PSoC5/CyLib.c ****         break;
 434:.\Generated_Source\PSoC5/CyLib.c **** 
 435:.\Generated_Source\PSoC5/CyLib.c ****     case CY_IMO_FREQ_62MHZ:
 436:.\Generated_Source\PSoC5/CyLib.c ****         CY_LIB_IMO_TR1_REG = CY_GET_XTND_REG8(CY_LIB_TRIM_IMO_67MHZ_PTR);
 102              		.loc 1 436 0
 103 004e 154B     		ldr	r3, .L19+32
 104 0050 00E0     		b	.L17
 105              	.L13:
 437:.\Generated_Source\PSoC5/CyLib.c ****         break;
 438:.\Generated_Source\PSoC5/CyLib.c **** 
 439:.\Generated_Source\PSoC5/CyLib.c **** #if(CY_PSOC5)
 440:.\Generated_Source\PSoC5/CyLib.c ****     case CY_IMO_FREQ_74MHZ:
 441:.\Generated_Source\PSoC5/CyLib.c ****         CY_LIB_IMO_TR1_REG = CY_GET_XTND_REG8(CY_LIB_TRIM_IMO_80MHZ_PTR);
 106              		.loc 1 441 0
 107 0052 154B     		ldr	r3, .L19+36
 108              	.L17:
 109 0054 1A78     		ldrb	r2, [r3]	@ zero_extendqisi2
 110 0056 154B     		ldr	r3, .L19+40
 111 0058 D2B2     		uxtb	r2, r2
 112 005a 09E0     		b	.L16
 113              	.L14:
 442:.\Generated_Source\PSoC5/CyLib.c ****         break;
 443:.\Generated_Source\PSoC5/CyLib.c **** #endif  /* (CY_PSOC5) */
 444:.\Generated_Source\PSoC5/CyLib.c **** 
 445:.\Generated_Source\PSoC5/CyLib.c ****     case CY_IMO_FREQ_USB:
 446:.\Generated_Source\PSoC5/CyLib.c ****         CY_LIB_IMO_TR1_REG = CY_GET_XTND_REG8(CY_LIB_TRIM_IMO_USB_PTR);
 114              		.loc 1 446 0
 115 005c 144A     		ldr	r2, .L19+44
 116 005e 1178     		ldrb	r1, [r2]	@ zero_extendqisi2
ARM GAS  C:\Users\Yiquing\AppData\Local\Temp\ccsAoMV1.s 			page 11


 117 0060 124A     		ldr	r2, .L19+40
 118 0062 C9B2     		uxtb	r1, r1
 119 0064 1170     		strb	r1, [r2]
 447:.\Generated_Source\PSoC5/CyLib.c **** 
 448:.\Generated_Source\PSoC5/CyLib.c ****         /* If USB is powered */
 449:.\Generated_Source\PSoC5/CyLib.c ****         if(usbPowerOn == 1u)
 120              		.loc 1 449 0
 121 0066 63B1     		cbz	r3, .L1
 450:.\Generated_Source\PSoC5/CyLib.c ****         {
 451:.\Generated_Source\PSoC5/CyLib.c ****             /* Lock USB Oscillator */
 452:.\Generated_Source\PSoC5/CyLib.c ****             CY_LIB_USB_CR1_REG |= CY_LIB_USB_CLK_EN;
 122              		.loc 1 452 0
 123 0068 124B     		ldr	r3, .L19+48
 124 006a 1A78     		ldrb	r2, [r3]	@ zero_extendqisi2
 125 006c 42F00202 		orr	r2, r2, #2
 126              	.L16:
 127 0070 1A70     		strb	r2, [r3]
 128 0072 7047     		bx	lr
 129              	.LVL2:
 130              	.L3:
 411:.\Generated_Source\PSoC5/CyLib.c ****         CY_LIB_USB_CR1_REG &= ((uint8)(~CY_LIB_USB_CLK_EN));
 131              		.loc 1 411 0
 132 0074 0F4B     		ldr	r3, .L19+48
 133 0076 1A78     		ldrb	r2, [r3]	@ zero_extendqisi2
 134 0078 02F0FD02 		and	r2, r2, #253
 135 007c 1A70     		strb	r2, [r3]
 136 007e 0123     		movs	r3, #1
 137 0080 D2E7     		b	.L4
 138              	.LVL3:
 139              	.L1:
 140 0082 7047     		bx	lr
 141              	.L20:
 142              		.align	2
 143              	.L19:
 144 0084 93430040 		.word	1073759123
 145 0088 A5430040 		.word	1073759141
 146 008c B5430040 		.word	1073759157
 147 0090 08010049 		.word	1224737032
 148 0094 09010049 		.word	1224737033
 149 0098 0A010049 		.word	1224737034
 150 009c 0B010049 		.word	1224737035
 151 00a0 89010049 		.word	1224737161
 152 00a4 0C010049 		.word	1224737036
 153 00a8 0D010049 		.word	1224737037
 154 00ac A1460040 		.word	1073759905
 155 00b0 0F010049 		.word	1224737039
 156 00b4 09600040 		.word	1073766409
 157              		.cfi_endproc
 158              	.LFE7:
 159              		.size	CyIMO_SetTrimValue, .-CyIMO_SetTrimValue
 160              		.section	.text.CyBusClk_Internal_SetDivider,"ax",%progbits
 161              		.align	1
 162              		.thumb
 163              		.thumb_func
 164              		.type	CyBusClk_Internal_SetDivider, %function
 165              	CyBusClk_Internal_SetDivider:
 166              	.LFB14:
ARM GAS  C:\Users\Yiquing\AppData\Local\Temp\ccsAoMV1.s 			page 12


 453:.\Generated_Source\PSoC5/CyLib.c ****         }
 454:.\Generated_Source\PSoC5/CyLib.c ****         break;
 455:.\Generated_Source\PSoC5/CyLib.c **** 
 456:.\Generated_Source\PSoC5/CyLib.c ****     default:
 457:.\Generated_Source\PSoC5/CyLib.c ****             CYASSERT(0u != 0u);
 458:.\Generated_Source\PSoC5/CyLib.c ****         break;
 459:.\Generated_Source\PSoC5/CyLib.c ****     }
 460:.\Generated_Source\PSoC5/CyLib.c **** 
 461:.\Generated_Source\PSoC5/CyLib.c **** }
 462:.\Generated_Source\PSoC5/CyLib.c **** 
 463:.\Generated_Source\PSoC5/CyLib.c **** 
 464:.\Generated_Source\PSoC5/CyLib.c **** /*******************************************************************************
 465:.\Generated_Source\PSoC5/CyLib.c **** * Function Name: CyIMO_SetFreq
 466:.\Generated_Source\PSoC5/CyLib.c **** ********************************************************************************
 467:.\Generated_Source\PSoC5/CyLib.c **** *
 468:.\Generated_Source\PSoC5/CyLib.c **** * Summary:
 469:.\Generated_Source\PSoC5/CyLib.c **** *  Sets the frequency of the IMO. Changes may be made while the IMO is running.
 470:.\Generated_Source\PSoC5/CyLib.c **** *
 471:.\Generated_Source\PSoC5/CyLib.c **** * Parameters:
 472:.\Generated_Source\PSoC5/CyLib.c **** *  freq: Frequency of IMO operation
 473:.\Generated_Source\PSoC5/CyLib.c **** *       CY_IMO_FREQ_3MHZ  to set  3   MHz
 474:.\Generated_Source\PSoC5/CyLib.c **** *       CY_IMO_FREQ_6MHZ  to set  6   MHz
 475:.\Generated_Source\PSoC5/CyLib.c **** *       CY_IMO_FREQ_12MHZ to set 12   MHz
 476:.\Generated_Source\PSoC5/CyLib.c **** *       CY_IMO_FREQ_24MHZ to set 24   MHz
 477:.\Generated_Source\PSoC5/CyLib.c **** *       CY_IMO_FREQ_48MHZ to set 48   MHz
 478:.\Generated_Source\PSoC5/CyLib.c **** *       CY_IMO_FREQ_62MHZ to set 62.6 MHz
 479:.\Generated_Source\PSoC5/CyLib.c **** *       CY_IMO_FREQ_74MHZ to set 74.7 MHz (not applicable for PSoC 3)
 480:.\Generated_Source\PSoC5/CyLib.c **** *       CY_IMO_FREQ_USB   to set 24   MHz (Trimmed for USB operation)
 481:.\Generated_Source\PSoC5/CyLib.c **** *
 482:.\Generated_Source\PSoC5/CyLib.c **** * Return:
 483:.\Generated_Source\PSoC5/CyLib.c **** *  None
 484:.\Generated_Source\PSoC5/CyLib.c **** *
 485:.\Generated_Source\PSoC5/CyLib.c **** * Side Effects:
 486:.\Generated_Source\PSoC5/CyLib.c **** *  If this function execution results in the CPU clock frequency increasing,
 487:.\Generated_Source\PSoC5/CyLib.c **** *  then the number of clock cycles the cache will wait before it samples data
 488:.\Generated_Source\PSoC5/CyLib.c **** *  coming back from the Flash must be adjusted by calling
 489:.\Generated_Source\PSoC5/CyLib.c **** *  CyFlash_SetWaitCycles() with an appropriate parameter. It can be optionally
 490:.\Generated_Source\PSoC5/CyLib.c **** *  called if the CPU clock frequency is lowered in order to improve the CPU
 491:.\Generated_Source\PSoC5/CyLib.c **** *  performance. See CyFlash_SetWaitCycles() description for more information.
 492:.\Generated_Source\PSoC5/CyLib.c **** *
 493:.\Generated_Source\PSoC5/CyLib.c **** *  When the USB setting is chosen, the USB clock locking circuit is enabled.
 494:.\Generated_Source\PSoC5/CyLib.c **** *  Otherwise this circuit is disabled. The USB block must be powered before
 495:.\Generated_Source\PSoC5/CyLib.c **** *  selecting the USB setting.
 496:.\Generated_Source\PSoC5/CyLib.c **** *
 497:.\Generated_Source\PSoC5/CyLib.c **** *******************************************************************************/
 498:.\Generated_Source\PSoC5/CyLib.c **** void CyIMO_SetFreq(uint8 freq) 
 499:.\Generated_Source\PSoC5/CyLib.c **** {
 500:.\Generated_Source\PSoC5/CyLib.c ****     uint8 currentFreq;
 501:.\Generated_Source\PSoC5/CyLib.c ****     uint8 nextFreq;
 502:.\Generated_Source\PSoC5/CyLib.c **** 
 503:.\Generated_Source\PSoC5/CyLib.c ****     /***************************************************************************
 504:.\Generated_Source\PSoC5/CyLib.c ****     * If the IMO frequency is changed,the Trim values must also be set
 505:.\Generated_Source\PSoC5/CyLib.c ****     * accordingly.This requires reading the current frequency. If the new
 506:.\Generated_Source\PSoC5/CyLib.c ****     * frequency is faster, then set a new trim and then change the frequency,
 507:.\Generated_Source\PSoC5/CyLib.c ****     * otherwise change the frequency and then set new trim values.
 508:.\Generated_Source\PSoC5/CyLib.c ****     ***************************************************************************/
 509:.\Generated_Source\PSoC5/CyLib.c **** 
ARM GAS  C:\Users\Yiquing\AppData\Local\Temp\ccsAoMV1.s 			page 13


 510:.\Generated_Source\PSoC5/CyLib.c ****     currentFreq = CY_LIB_FASTCLK_IMO_CR_REG & ((uint8)(~CY_LIB_FASTCLK_IMO_CR_RANGE_MASK));
 511:.\Generated_Source\PSoC5/CyLib.c **** 
 512:.\Generated_Source\PSoC5/CyLib.c ****     /* Check if requested frequency is USB. */
 513:.\Generated_Source\PSoC5/CyLib.c ****     nextFreq = (freq == CY_IMO_FREQ_USB) ? CY_IMO_FREQ_24MHZ : freq;
 514:.\Generated_Source\PSoC5/CyLib.c **** 
 515:.\Generated_Source\PSoC5/CyLib.c ****     switch (currentFreq)
 516:.\Generated_Source\PSoC5/CyLib.c ****     {
 517:.\Generated_Source\PSoC5/CyLib.c ****     case 0u:
 518:.\Generated_Source\PSoC5/CyLib.c ****         currentFreq = CY_IMO_FREQ_12MHZ;
 519:.\Generated_Source\PSoC5/CyLib.c ****         break;
 520:.\Generated_Source\PSoC5/CyLib.c **** 
 521:.\Generated_Source\PSoC5/CyLib.c ****     case 1u:
 522:.\Generated_Source\PSoC5/CyLib.c ****         currentFreq = CY_IMO_FREQ_6MHZ;
 523:.\Generated_Source\PSoC5/CyLib.c ****         break;
 524:.\Generated_Source\PSoC5/CyLib.c **** 
 525:.\Generated_Source\PSoC5/CyLib.c ****     case 2u:
 526:.\Generated_Source\PSoC5/CyLib.c ****         currentFreq = CY_IMO_FREQ_24MHZ;
 527:.\Generated_Source\PSoC5/CyLib.c ****         break;
 528:.\Generated_Source\PSoC5/CyLib.c **** 
 529:.\Generated_Source\PSoC5/CyLib.c ****     case 3u:
 530:.\Generated_Source\PSoC5/CyLib.c ****         currentFreq = CY_IMO_FREQ_3MHZ;
 531:.\Generated_Source\PSoC5/CyLib.c ****         break;
 532:.\Generated_Source\PSoC5/CyLib.c **** 
 533:.\Generated_Source\PSoC5/CyLib.c ****     case 4u:
 534:.\Generated_Source\PSoC5/CyLib.c ****         currentFreq = CY_IMO_FREQ_48MHZ;
 535:.\Generated_Source\PSoC5/CyLib.c ****         break;
 536:.\Generated_Source\PSoC5/CyLib.c **** 
 537:.\Generated_Source\PSoC5/CyLib.c ****     case 5u:
 538:.\Generated_Source\PSoC5/CyLib.c ****         currentFreq = CY_IMO_FREQ_62MHZ;
 539:.\Generated_Source\PSoC5/CyLib.c ****         break;
 540:.\Generated_Source\PSoC5/CyLib.c **** 
 541:.\Generated_Source\PSoC5/CyLib.c **** #if(CY_PSOC5)
 542:.\Generated_Source\PSoC5/CyLib.c ****     case 6u:
 543:.\Generated_Source\PSoC5/CyLib.c ****         currentFreq = CY_IMO_FREQ_74MHZ;
 544:.\Generated_Source\PSoC5/CyLib.c ****         break;
 545:.\Generated_Source\PSoC5/CyLib.c **** #endif  /* (CY_PSOC5) */
 546:.\Generated_Source\PSoC5/CyLib.c **** 
 547:.\Generated_Source\PSoC5/CyLib.c ****     default:
 548:.\Generated_Source\PSoC5/CyLib.c ****         CYASSERT(0u != 0u);
 549:.\Generated_Source\PSoC5/CyLib.c ****         break;
 550:.\Generated_Source\PSoC5/CyLib.c ****     }
 551:.\Generated_Source\PSoC5/CyLib.c **** 
 552:.\Generated_Source\PSoC5/CyLib.c ****     if (nextFreq >= currentFreq)
 553:.\Generated_Source\PSoC5/CyLib.c ****     {
 554:.\Generated_Source\PSoC5/CyLib.c ****         /* Set new trim first */
 555:.\Generated_Source\PSoC5/CyLib.c ****         CyIMO_SetTrimValue(freq);
 556:.\Generated_Source\PSoC5/CyLib.c ****     }
 557:.\Generated_Source\PSoC5/CyLib.c **** 
 558:.\Generated_Source\PSoC5/CyLib.c ****     /* Set usbclk_on bit when using CY_IMO_FREQ_USB, if not clear it */
 559:.\Generated_Source\PSoC5/CyLib.c ****     switch(freq)
 560:.\Generated_Source\PSoC5/CyLib.c ****     {
 561:.\Generated_Source\PSoC5/CyLib.c ****     case CY_IMO_FREQ_3MHZ:
 562:.\Generated_Source\PSoC5/CyLib.c ****         CY_LIB_FASTCLK_IMO_CR_REG = ((CY_LIB_FASTCLK_IMO_CR_REG & CY_LIB_FASTCLK_IMO_CR_RANGE_MASK)
 563:.\Generated_Source\PSoC5/CyLib.c ****             CY_LIB_IMO_3MHZ_VALUE) & ((uint8)(~CY_LIB_IMO_USBCLK_ON_SET));
 564:.\Generated_Source\PSoC5/CyLib.c ****         break;
 565:.\Generated_Source\PSoC5/CyLib.c **** 
 566:.\Generated_Source\PSoC5/CyLib.c ****     case CY_IMO_FREQ_6MHZ:
ARM GAS  C:\Users\Yiquing\AppData\Local\Temp\ccsAoMV1.s 			page 14


 567:.\Generated_Source\PSoC5/CyLib.c ****         CY_LIB_FASTCLK_IMO_CR_REG = ((CY_LIB_FASTCLK_IMO_CR_REG & CY_LIB_FASTCLK_IMO_CR_RANGE_MASK)
 568:.\Generated_Source\PSoC5/CyLib.c ****             CY_LIB_IMO_6MHZ_VALUE) & ((uint8)(~CY_LIB_IMO_USBCLK_ON_SET));
 569:.\Generated_Source\PSoC5/CyLib.c ****         break;
 570:.\Generated_Source\PSoC5/CyLib.c **** 
 571:.\Generated_Source\PSoC5/CyLib.c ****     case CY_IMO_FREQ_12MHZ:
 572:.\Generated_Source\PSoC5/CyLib.c ****         CY_LIB_FASTCLK_IMO_CR_REG = ((CY_LIB_FASTCLK_IMO_CR_REG & CY_LIB_FASTCLK_IMO_CR_RANGE_MASK)
 573:.\Generated_Source\PSoC5/CyLib.c ****             CY_LIB_IMO_12MHZ_VALUE) & ((uint8)(~CY_LIB_IMO_USBCLK_ON_SET));
 574:.\Generated_Source\PSoC5/CyLib.c ****         break;
 575:.\Generated_Source\PSoC5/CyLib.c **** 
 576:.\Generated_Source\PSoC5/CyLib.c ****     case CY_IMO_FREQ_24MHZ:
 577:.\Generated_Source\PSoC5/CyLib.c ****         CY_LIB_FASTCLK_IMO_CR_REG = ((CY_LIB_FASTCLK_IMO_CR_REG & CY_LIB_FASTCLK_IMO_CR_RANGE_MASK)
 578:.\Generated_Source\PSoC5/CyLib.c ****             CY_LIB_IMO_24MHZ_VALUE) & ((uint8)(~CY_LIB_IMO_USBCLK_ON_SET));
 579:.\Generated_Source\PSoC5/CyLib.c ****         break;
 580:.\Generated_Source\PSoC5/CyLib.c **** 
 581:.\Generated_Source\PSoC5/CyLib.c ****     case CY_IMO_FREQ_48MHZ:
 582:.\Generated_Source\PSoC5/CyLib.c ****         CY_LIB_FASTCLK_IMO_CR_REG = ((CY_LIB_FASTCLK_IMO_CR_REG & CY_LIB_FASTCLK_IMO_CR_RANGE_MASK)
 583:.\Generated_Source\PSoC5/CyLib.c ****             CY_LIB_IMO_48MHZ_VALUE) & ((uint8)(~CY_LIB_IMO_USBCLK_ON_SET));
 584:.\Generated_Source\PSoC5/CyLib.c ****         break;
 585:.\Generated_Source\PSoC5/CyLib.c **** 
 586:.\Generated_Source\PSoC5/CyLib.c ****     case CY_IMO_FREQ_62MHZ:
 587:.\Generated_Source\PSoC5/CyLib.c ****         CY_LIB_FASTCLK_IMO_CR_REG = ((CY_LIB_FASTCLK_IMO_CR_REG & CY_LIB_FASTCLK_IMO_CR_RANGE_MASK)
 588:.\Generated_Source\PSoC5/CyLib.c ****             CY_LIB_IMO_62MHZ_VALUE) & ((uint8)(~CY_LIB_IMO_USBCLK_ON_SET));
 589:.\Generated_Source\PSoC5/CyLib.c ****         break;
 590:.\Generated_Source\PSoC5/CyLib.c **** 
 591:.\Generated_Source\PSoC5/CyLib.c **** #if(CY_PSOC5)
 592:.\Generated_Source\PSoC5/CyLib.c ****     case CY_IMO_FREQ_74MHZ:
 593:.\Generated_Source\PSoC5/CyLib.c ****         CY_LIB_FASTCLK_IMO_CR_REG = ((CY_LIB_FASTCLK_IMO_CR_REG & CY_LIB_FASTCLK_IMO_CR_RANGE_MASK)
 594:.\Generated_Source\PSoC5/CyLib.c ****             CY_LIB_IMO_74MHZ_VALUE) & ((uint8)(~CY_LIB_IMO_USBCLK_ON_SET));
 595:.\Generated_Source\PSoC5/CyLib.c ****         break;
 596:.\Generated_Source\PSoC5/CyLib.c **** #endif  /* (CY_PSOC5) */
 597:.\Generated_Source\PSoC5/CyLib.c **** 
 598:.\Generated_Source\PSoC5/CyLib.c ****     case CY_IMO_FREQ_USB:
 599:.\Generated_Source\PSoC5/CyLib.c ****         CY_LIB_FASTCLK_IMO_CR_REG = ((CY_LIB_FASTCLK_IMO_CR_REG & CY_LIB_FASTCLK_IMO_CR_RANGE_MASK)
 600:.\Generated_Source\PSoC5/CyLib.c ****             CY_LIB_IMO_24MHZ_VALUE) | CY_LIB_IMO_USBCLK_ON_SET;
 601:.\Generated_Source\PSoC5/CyLib.c ****         break;
 602:.\Generated_Source\PSoC5/CyLib.c **** 
 603:.\Generated_Source\PSoC5/CyLib.c ****     default:
 604:.\Generated_Source\PSoC5/CyLib.c ****         CYASSERT(0u != 0u);
 605:.\Generated_Source\PSoC5/CyLib.c ****         break;
 606:.\Generated_Source\PSoC5/CyLib.c ****     }
 607:.\Generated_Source\PSoC5/CyLib.c **** 
 608:.\Generated_Source\PSoC5/CyLib.c ****     /* Tu rn onIMO Doubler, if switching to CY_IMO_FREQ_USB */
 609:.\Generated_Source\PSoC5/CyLib.c ****     if (freq == CY_IMO_FREQ_USB)
 610:.\Generated_Source\PSoC5/CyLib.c ****     {
 611:.\Generated_Source\PSoC5/CyLib.c ****         CyIMO_EnableDoubler();
 612:.\Generated_Source\PSoC5/CyLib.c ****     }
 613:.\Generated_Source\PSoC5/CyLib.c ****     else
 614:.\Generated_Source\PSoC5/CyLib.c ****     {
 615:.\Generated_Source\PSoC5/CyLib.c ****         CyIMO_DisableDoubler();
 616:.\Generated_Source\PSoC5/CyLib.c ****     }
 617:.\Generated_Source\PSoC5/CyLib.c **** 
 618:.\Generated_Source\PSoC5/CyLib.c ****     if (nextFreq < currentFreq)
 619:.\Generated_Source\PSoC5/CyLib.c ****     {
 620:.\Generated_Source\PSoC5/CyLib.c ****         /* Set the trim after setting frequency */
 621:.\Generated_Source\PSoC5/CyLib.c ****         CyIMO_SetTrimValue(freq);
 622:.\Generated_Source\PSoC5/CyLib.c ****     }
 623:.\Generated_Source\PSoC5/CyLib.c **** }
ARM GAS  C:\Users\Yiquing\AppData\Local\Temp\ccsAoMV1.s 			page 15


 624:.\Generated_Source\PSoC5/CyLib.c **** 
 625:.\Generated_Source\PSoC5/CyLib.c **** 
 626:.\Generated_Source\PSoC5/CyLib.c **** /*******************************************************************************
 627:.\Generated_Source\PSoC5/CyLib.c **** * Function Name: CyIMO_SetSource
 628:.\Generated_Source\PSoC5/CyLib.c **** ********************************************************************************
 629:.\Generated_Source\PSoC5/CyLib.c **** *
 630:.\Generated_Source\PSoC5/CyLib.c **** * Summary:
 631:.\Generated_Source\PSoC5/CyLib.c **** *  Sets the source of the clock output from the IMO block.
 632:.\Generated_Source\PSoC5/CyLib.c **** *
 633:.\Generated_Source\PSoC5/CyLib.c **** *  The output from the IMO is by default the IMO itself. Optionally the MHz
 634:.\Generated_Source\PSoC5/CyLib.c **** *  Crystal or DSI input can be the source of the IMO output instead.
 635:.\Generated_Source\PSoC5/CyLib.c **** *
 636:.\Generated_Source\PSoC5/CyLib.c **** * Parameters:
 637:.\Generated_Source\PSoC5/CyLib.c **** *   source: CY_IMO_SOURCE_DSI to set the DSI as source.
 638:.\Generated_Source\PSoC5/CyLib.c **** *           CY_IMO_SOURCE_XTAL to set the MHz as source.
 639:.\Generated_Source\PSoC5/CyLib.c **** *           CY_IMO_SOURCE_IMO to set the IMO itself.
 640:.\Generated_Source\PSoC5/CyLib.c **** *
 641:.\Generated_Source\PSoC5/CyLib.c **** * Return:
 642:.\Generated_Source\PSoC5/CyLib.c **** *  None
 643:.\Generated_Source\PSoC5/CyLib.c **** *
 644:.\Generated_Source\PSoC5/CyLib.c **** * Side Effects:
 645:.\Generated_Source\PSoC5/CyLib.c **** *  If this function execution resulted in the CPU clock frequency increasing,
 646:.\Generated_Source\PSoC5/CyLib.c **** *  then the number of clock cycles the cache will wait before it samples data
 647:.\Generated_Source\PSoC5/CyLib.c **** *  coming back from the Flash must be adjusted by calling
 648:.\Generated_Source\PSoC5/CyLib.c **** *  CyFlash_SetWaitCycles() with an appropriate parameter. It can be optionally
 649:.\Generated_Source\PSoC5/CyLib.c **** *  called if the CPU clock frequency is lowered in order to improve the CPU
 650:.\Generated_Source\PSoC5/CyLib.c **** *  performance. See CyFlash_SetWaitCycles() description for more information.
 651:.\Generated_Source\PSoC5/CyLib.c **** *
 652:.\Generated_Source\PSoC5/CyLib.c **** *******************************************************************************/
 653:.\Generated_Source\PSoC5/CyLib.c **** void CyIMO_SetSource(uint8 source) 
 654:.\Generated_Source\PSoC5/CyLib.c **** {
 655:.\Generated_Source\PSoC5/CyLib.c ****     switch(source)
 656:.\Generated_Source\PSoC5/CyLib.c ****     {
 657:.\Generated_Source\PSoC5/CyLib.c ****     case CY_IMO_SOURCE_DSI:
 658:.\Generated_Source\PSoC5/CyLib.c ****         CY_LIB_CLKDIST_CR_REG     &= ((uint8)(~CY_LIB_CLKDIST_CR_IMO2X));
 659:.\Generated_Source\PSoC5/CyLib.c ****         CY_LIB_FASTCLK_IMO_CR_REG |= CY_LIB_FASTCLK_IMO_IMO;
 660:.\Generated_Source\PSoC5/CyLib.c ****         break;
 661:.\Generated_Source\PSoC5/CyLib.c **** 
 662:.\Generated_Source\PSoC5/CyLib.c ****     case CY_IMO_SOURCE_XTAL:
 663:.\Generated_Source\PSoC5/CyLib.c ****         CY_LIB_CLKDIST_CR_REG     |= CY_LIB_CLKDIST_CR_IMO2X;
 664:.\Generated_Source\PSoC5/CyLib.c ****         CY_LIB_FASTCLK_IMO_CR_REG |= CY_LIB_FASTCLK_IMO_IMO;
 665:.\Generated_Source\PSoC5/CyLib.c ****         break;
 666:.\Generated_Source\PSoC5/CyLib.c **** 
 667:.\Generated_Source\PSoC5/CyLib.c ****     case CY_IMO_SOURCE_IMO:
 668:.\Generated_Source\PSoC5/CyLib.c ****         CY_LIB_FASTCLK_IMO_CR_REG &= ((uint8)(~CY_LIB_FASTCLK_IMO_IMO));
 669:.\Generated_Source\PSoC5/CyLib.c ****         break;
 670:.\Generated_Source\PSoC5/CyLib.c **** 
 671:.\Generated_Source\PSoC5/CyLib.c ****     default:
 672:.\Generated_Source\PSoC5/CyLib.c ****         /* Incorrect source value */
 673:.\Generated_Source\PSoC5/CyLib.c ****         CYASSERT(0u != 0u);
 674:.\Generated_Source\PSoC5/CyLib.c ****         break;
 675:.\Generated_Source\PSoC5/CyLib.c ****     }
 676:.\Generated_Source\PSoC5/CyLib.c **** }
 677:.\Generated_Source\PSoC5/CyLib.c **** 
 678:.\Generated_Source\PSoC5/CyLib.c **** 
 679:.\Generated_Source\PSoC5/CyLib.c **** /*******************************************************************************
 680:.\Generated_Source\PSoC5/CyLib.c **** * Function Name: CyIMO_EnableDoubler
ARM GAS  C:\Users\Yiquing\AppData\Local\Temp\ccsAoMV1.s 			page 16


 681:.\Generated_Source\PSoC5/CyLib.c **** ********************************************************************************
 682:.\Generated_Source\PSoC5/CyLib.c **** *
 683:.\Generated_Source\PSoC5/CyLib.c **** * Summary:
 684:.\Generated_Source\PSoC5/CyLib.c **** *  Enables the IMO doubler.  The 2x frequency clock is used to convert a 24 MHz
 685:.\Generated_Source\PSoC5/CyLib.c **** *  input to a 48 MHz output for use by the USB block.
 686:.\Generated_Source\PSoC5/CyLib.c **** *
 687:.\Generated_Source\PSoC5/CyLib.c **** * Parameters:
 688:.\Generated_Source\PSoC5/CyLib.c **** *  None
 689:.\Generated_Source\PSoC5/CyLib.c **** *
 690:.\Generated_Source\PSoC5/CyLib.c **** * Return:
 691:.\Generated_Source\PSoC5/CyLib.c **** *  None
 692:.\Generated_Source\PSoC5/CyLib.c **** *
 693:.\Generated_Source\PSoC5/CyLib.c **** *******************************************************************************/
 694:.\Generated_Source\PSoC5/CyLib.c **** void CyIMO_EnableDoubler(void) 
 695:.\Generated_Source\PSoC5/CyLib.c **** {
 696:.\Generated_Source\PSoC5/CyLib.c ****     /* Set FASTCLK_IMO_CR_PTR regigster's 4th bit */
 697:.\Generated_Source\PSoC5/CyLib.c ****     CY_LIB_FASTCLK_IMO_CR_REG |= CY_LIB_FASTCLK_IMO_DOUBLER;
 698:.\Generated_Source\PSoC5/CyLib.c **** }
 699:.\Generated_Source\PSoC5/CyLib.c **** 
 700:.\Generated_Source\PSoC5/CyLib.c **** 
 701:.\Generated_Source\PSoC5/CyLib.c **** /*******************************************************************************
 702:.\Generated_Source\PSoC5/CyLib.c **** * Function Name: CyIMO_DisableDoubler
 703:.\Generated_Source\PSoC5/CyLib.c **** ********************************************************************************
 704:.\Generated_Source\PSoC5/CyLib.c **** *
 705:.\Generated_Source\PSoC5/CyLib.c **** * Summary:
 706:.\Generated_Source\PSoC5/CyLib.c **** *   Disables the IMO doubler.
 707:.\Generated_Source\PSoC5/CyLib.c **** *
 708:.\Generated_Source\PSoC5/CyLib.c **** * Parameters:
 709:.\Generated_Source\PSoC5/CyLib.c **** *  None
 710:.\Generated_Source\PSoC5/CyLib.c **** *
 711:.\Generated_Source\PSoC5/CyLib.c **** * Return:
 712:.\Generated_Source\PSoC5/CyLib.c **** *  None
 713:.\Generated_Source\PSoC5/CyLib.c **** *
 714:.\Generated_Source\PSoC5/CyLib.c **** *******************************************************************************/
 715:.\Generated_Source\PSoC5/CyLib.c **** void CyIMO_DisableDoubler(void) 
 716:.\Generated_Source\PSoC5/CyLib.c **** {
 717:.\Generated_Source\PSoC5/CyLib.c ****     CY_LIB_FASTCLK_IMO_CR_REG &= ((uint8)(~CY_LIB_FASTCLK_IMO_DOUBLER));
 718:.\Generated_Source\PSoC5/CyLib.c **** }
 719:.\Generated_Source\PSoC5/CyLib.c **** 
 720:.\Generated_Source\PSoC5/CyLib.c **** 
 721:.\Generated_Source\PSoC5/CyLib.c **** /*******************************************************************************
 722:.\Generated_Source\PSoC5/CyLib.c **** * Function Name: CyMasterClk_SetSource
 723:.\Generated_Source\PSoC5/CyLib.c **** ********************************************************************************
 724:.\Generated_Source\PSoC5/CyLib.c **** *
 725:.\Generated_Source\PSoC5/CyLib.c **** * Summary:
 726:.\Generated_Source\PSoC5/CyLib.c **** *  Sets the source of the master clock.
 727:.\Generated_Source\PSoC5/CyLib.c **** *
 728:.\Generated_Source\PSoC5/CyLib.c **** * Parameters:
 729:.\Generated_Source\PSoC5/CyLib.c **** *   source: One of the four available Master clock sources.
 730:.\Generated_Source\PSoC5/CyLib.c **** *     CY_MASTER_SOURCE_IMO
 731:.\Generated_Source\PSoC5/CyLib.c **** *     CY_MASTER_SOURCE_PLL
 732:.\Generated_Source\PSoC5/CyLib.c **** *     CY_MASTER_SOURCE_XTAL
 733:.\Generated_Source\PSoC5/CyLib.c **** *     CY_MASTER_SOURCE_DSI
 734:.\Generated_Source\PSoC5/CyLib.c **** *
 735:.\Generated_Source\PSoC5/CyLib.c **** * Return:
 736:.\Generated_Source\PSoC5/CyLib.c **** *  None
 737:.\Generated_Source\PSoC5/CyLib.c **** *
ARM GAS  C:\Users\Yiquing\AppData\Local\Temp\ccsAoMV1.s 			page 17


 738:.\Generated_Source\PSoC5/CyLib.c **** * Side Effects:
 739:.\Generated_Source\PSoC5/CyLib.c **** *  The current source and the new source must both be running and stable before
 740:.\Generated_Source\PSoC5/CyLib.c **** *  calling this function.
 741:.\Generated_Source\PSoC5/CyLib.c **** *
 742:.\Generated_Source\PSoC5/CyLib.c **** *  If this function execution resulted in the CPU clock frequency increasing,
 743:.\Generated_Source\PSoC5/CyLib.c **** *  then the number of clock cycles the cache will wait before it samples data
 744:.\Generated_Source\PSoC5/CyLib.c **** *  coming back from the Flash must be adjusted by calling
 745:.\Generated_Source\PSoC5/CyLib.c **** *  CyFlash_SetWaitCycles() with an appropriate parameter. It can be optionally
 746:.\Generated_Source\PSoC5/CyLib.c **** *  called if the CPU clock frequency is lowered in order to improve the CPU
 747:.\Generated_Source\PSoC5/CyLib.c **** *  performance. See CyFlash_SetWaitCycles() description for more information.
 748:.\Generated_Source\PSoC5/CyLib.c **** *
 749:.\Generated_Source\PSoC5/CyLib.c **** *******************************************************************************/
 750:.\Generated_Source\PSoC5/CyLib.c **** void CyMasterClk_SetSource(uint8 source) 
 751:.\Generated_Source\PSoC5/CyLib.c **** {
 752:.\Generated_Source\PSoC5/CyLib.c ****     CY_LIB_CLKDIST_MSTR1_REG = (CY_LIB_CLKDIST_MSTR1_REG & MASTER_CLK_SRC_CLEAR) |
 753:.\Generated_Source\PSoC5/CyLib.c ****                                 (source & ((uint8)(~MASTER_CLK_SRC_CLEAR)));
 754:.\Generated_Source\PSoC5/CyLib.c **** }
 755:.\Generated_Source\PSoC5/CyLib.c **** 
 756:.\Generated_Source\PSoC5/CyLib.c **** 
 757:.\Generated_Source\PSoC5/CyLib.c **** /*******************************************************************************
 758:.\Generated_Source\PSoC5/CyLib.c **** * Function Name: CyMasterClk_SetDivider
 759:.\Generated_Source\PSoC5/CyLib.c **** ********************************************************************************
 760:.\Generated_Source\PSoC5/CyLib.c **** *
 761:.\Generated_Source\PSoC5/CyLib.c **** * Summary:
 762:.\Generated_Source\PSoC5/CyLib.c **** *  Sets the divider value used to generate Master Clock.
 763:.\Generated_Source\PSoC5/CyLib.c **** *
 764:.\Generated_Source\PSoC5/CyLib.c **** * Parameters:
 765:.\Generated_Source\PSoC5/CyLib.c **** *  uint8 divider:
 766:.\Generated_Source\PSoC5/CyLib.c **** *   The valid range is [0-255]. The clock will be divided by this value + 1.
 767:.\Generated_Source\PSoC5/CyLib.c **** *   For example to divide this parameter by two should be set to 1.
 768:.\Generated_Source\PSoC5/CyLib.c **** *
 769:.\Generated_Source\PSoC5/CyLib.c **** * Return:
 770:.\Generated_Source\PSoC5/CyLib.c **** *  None
 771:.\Generated_Source\PSoC5/CyLib.c **** *
 772:.\Generated_Source\PSoC5/CyLib.c **** * Side Effects:
 773:.\Generated_Source\PSoC5/CyLib.c **** *  If this function execution resulted in the CPU clock frequency increasing,
 774:.\Generated_Source\PSoC5/CyLib.c **** *  then the number of clock cycles the cache will wait before it samples data
 775:.\Generated_Source\PSoC5/CyLib.c **** *  coming back from the Flash must be adjusted by calling
 776:.\Generated_Source\PSoC5/CyLib.c **** *  CyFlash_SetWaitCycles() with an appropriate parameter. It can be optionally
 777:.\Generated_Source\PSoC5/CyLib.c **** *  called if the CPU clock frequency is lowered in order to improve the CPU
 778:.\Generated_Source\PSoC5/CyLib.c **** *  performance. See CyFlash_SetWaitCycles() description for more information.
 779:.\Generated_Source\PSoC5/CyLib.c **** *
 780:.\Generated_Source\PSoC5/CyLib.c **** *  When changing the Master or Bus clock divider value from div-by-n to div-by-1
 781:.\Generated_Source\PSoC5/CyLib.c **** *  the first clock cycle output after the div-by-1 can be up to 4 ns shorter
 782:.\Generated_Source\PSoC5/CyLib.c **** *  than the final/expected div-by-1 period.
 783:.\Generated_Source\PSoC5/CyLib.c **** *
 784:.\Generated_Source\PSoC5/CyLib.c **** *******************************************************************************/
 785:.\Generated_Source\PSoC5/CyLib.c **** void CyMasterClk_SetDivider(uint8 divider) 
 786:.\Generated_Source\PSoC5/CyLib.c **** {
 787:.\Generated_Source\PSoC5/CyLib.c ****     CY_LIB_CLKDIST_MSTR0_REG = divider;
 788:.\Generated_Source\PSoC5/CyLib.c **** }
 789:.\Generated_Source\PSoC5/CyLib.c **** 
 790:.\Generated_Source\PSoC5/CyLib.c **** 
 791:.\Generated_Source\PSoC5/CyLib.c **** /*******************************************************************************
 792:.\Generated_Source\PSoC5/CyLib.c **** * Function Name: CyBusClk_Internal_SetDivider
 793:.\Generated_Source\PSoC5/CyLib.c **** ********************************************************************************
 794:.\Generated_Source\PSoC5/CyLib.c **** *
ARM GAS  C:\Users\Yiquing\AppData\Local\Temp\ccsAoMV1.s 			page 18


 795:.\Generated_Source\PSoC5/CyLib.c **** * Summary:
 796:.\Generated_Source\PSoC5/CyLib.c **** *  The function used by CyBusClk_SetDivider(). For internal use only.
 797:.\Generated_Source\PSoC5/CyLib.c **** *
 798:.\Generated_Source\PSoC5/CyLib.c **** * Parameters:
 799:.\Generated_Source\PSoC5/CyLib.c **** *   divider: Valid range [0-65535].
 800:.\Generated_Source\PSoC5/CyLib.c **** *   The clock will be divided by this value + 1.
 801:.\Generated_Source\PSoC5/CyLib.c **** *   For example, to divide this parameter by two should be set to 1.
 802:.\Generated_Source\PSoC5/CyLib.c **** *
 803:.\Generated_Source\PSoC5/CyLib.c **** * Return:
 804:.\Generated_Source\PSoC5/CyLib.c **** *  None
 805:.\Generated_Source\PSoC5/CyLib.c **** *
 806:.\Generated_Source\PSoC5/CyLib.c **** *******************************************************************************/
 807:.\Generated_Source\PSoC5/CyLib.c **** static void CyBusClk_Internal_SetDivider(uint16 divider)
 808:.\Generated_Source\PSoC5/CyLib.c **** {
 167              		.loc 1 808 0
 168              		.cfi_startproc
 169              		@ args = 0, pretend = 0, frame = 0
 170              		@ frame_needed = 0, uses_anonymous_args = 0
 171              		@ link register save eliminated.
 172              	.LVL4:
 809:.\Generated_Source\PSoC5/CyLib.c ****     /* Mask bits to enable shadow loads  */
 810:.\Generated_Source\PSoC5/CyLib.c ****     CY_LIB_CLKDIST_AMASK_REG &= CY_LIB_CLKDIST_AMASK_MASK;
 173              		.loc 1 810 0
 174 0000 0D4B     		ldr	r3, .L22
 175 0002 1A78     		ldrb	r2, [r3]	@ zero_extendqisi2
 176 0004 02F0F002 		and	r2, r2, #240
 177 0008 1A70     		strb	r2, [r3]
 811:.\Generated_Source\PSoC5/CyLib.c ****     CY_LIB_CLKDIST_DMASK_REG  = CY_LIB_CLKDIST_DMASK_MASK;
 178              		.loc 1 811 0
 179 000a 0022     		movs	r2, #0
 180 000c 03F8042C 		strb	r2, [r3, #-4]
 812:.\Generated_Source\PSoC5/CyLib.c **** 
 813:.\Generated_Source\PSoC5/CyLib.c ****     /* Enable mask bits to enable shadow loads */
 814:.\Generated_Source\PSoC5/CyLib.c ****     CY_LIB_CLKDIST_BCFG2_REG |= CY_LIB_CLKDIST_BCFG2_MASK;
 181              		.loc 1 814 0
 182 0010 13F80C2C 		ldrb	r2, [r3, #-12]	@ zero_extendqisi2
 183 0014 42F08002 		orr	r2, r2, #128
 184 0018 03F80C2C 		strb	r2, [r3, #-12]
 815:.\Generated_Source\PSoC5/CyLib.c **** 
 816:.\Generated_Source\PSoC5/CyLib.c ****     /* Update Shadow Divider Value Register with new divider */
 817:.\Generated_Source\PSoC5/CyLib.c ****     CY_LIB_CLKDIST_WRK_LSB_REG = LO8(divider);
 185              		.loc 1 817 0
 186 001c C2B2     		uxtb	r2, r0
 818:.\Generated_Source\PSoC5/CyLib.c ****     CY_LIB_CLKDIST_WRK_MSB_REG = HI8(divider);
 187              		.loc 1 818 0
 188 001e 000A     		lsrs	r0, r0, #8
 189              	.LVL5:
 817:.\Generated_Source\PSoC5/CyLib.c ****     CY_LIB_CLKDIST_WRK_LSB_REG = LO8(divider);
 190              		.loc 1 817 0
 191 0020 03F8122C 		strb	r2, [r3, #-18]
 192              		.loc 1 818 0
 193 0024 03F8110C 		strb	r0, [r3, #-17]
 819:.\Generated_Source\PSoC5/CyLib.c **** 
 820:.\Generated_Source\PSoC5/CyLib.c **** 
 821:.\Generated_Source\PSoC5/CyLib.c ****     /***************************************************************************
 822:.\Generated_Source\PSoC5/CyLib.c ****     * Copy shadow value defined in Shadow Divider Value Register
 823:.\Generated_Source\PSoC5/CyLib.c ****     * (CY_LIB_CLKDIST_WRK_LSB_REG and CY_LIB_CLKDIST_WRK_MSB_REG) to all
ARM GAS  C:\Users\Yiquing\AppData\Local\Temp\ccsAoMV1.s 			page 19


 824:.\Generated_Source\PSoC5/CyLib.c ****     * dividers selected in Analog and Digital Clock Mask Registers
 825:.\Generated_Source\PSoC5/CyLib.c ****     * (CY_LIB_CLKDIST_AMASK_REG and CY_LIB_CLKDIST_DMASK_REG).
 826:.\Generated_Source\PSoC5/CyLib.c ****     ***************************************************************************/
 827:.\Generated_Source\PSoC5/CyLib.c ****     CY_LIB_CLKDIST_LD_REG |= CY_LIB_CLKDIST_LD_LOAD;
 194              		.loc 1 827 0
 195 0028 13F8132C 		ldrb	r2, [r3, #-19]	@ zero_extendqisi2
 196 002c 42F00102 		orr	r2, r2, #1
 197 0030 03F8132C 		strb	r2, [r3, #-19]
 198 0034 7047     		bx	lr
 199              	.L23:
 200 0036 00BF     		.align	2
 201              	.L22:
 202 0038 14400040 		.word	1073758228
 203              		.cfi_endproc
 204              	.LFE14:
 205              		.size	CyBusClk_Internal_SetDivider, .-CyBusClk_Internal_SetDivider
 206              		.section	.text.CyPLL_OUT_Stop,"ax",%progbits
 207              		.align	1
 208              		.global	CyPLL_OUT_Stop
 209              		.thumb
 210              		.thumb_func
 211              		.type	CyPLL_OUT_Stop, %function
 212              	CyPLL_OUT_Stop:
 213              	.LFB1:
 160:.\Generated_Source\PSoC5/CyLib.c **** {
 214              		.loc 1 160 0
 215              		.cfi_startproc
 216              		@ args = 0, pretend = 0, frame = 0
 217              		@ frame_needed = 0, uses_anonymous_args = 0
 218              		@ link register save eliminated.
 161:.\Generated_Source\PSoC5/CyLib.c ****     CY_CLK_PLL_CFG0_REG &= ((uint8)(~CY_CLK_PLL_ENABLE));
 219              		.loc 1 161 0
 220 0000 024B     		ldr	r3, .L25
 221 0002 1A78     		ldrb	r2, [r3]	@ zero_extendqisi2
 222 0004 02F0FE02 		and	r2, r2, #254
 223 0008 1A70     		strb	r2, [r3]
 224 000a 7047     		bx	lr
 225              	.L26:
 226              		.align	2
 227              	.L25:
 228 000c 20420040 		.word	1073758752
 229              		.cfi_endproc
 230              	.LFE1:
 231              		.size	CyPLL_OUT_Stop, .-CyPLL_OUT_Stop
 232              		.section	.text.CyPLL_OUT_SetPQ,"ax",%progbits
 233              		.align	1
 234              		.global	CyPLL_OUT_SetPQ
 235              		.thumb
 236              		.thumb_func
 237              		.type	CyPLL_OUT_SetPQ, %function
 238              	CyPLL_OUT_SetPQ:
 239              	.LFB2:
 198:.\Generated_Source\PSoC5/CyLib.c **** {
 240              		.loc 1 198 0
 241              		.cfi_startproc
 242              		@ args = 0, pretend = 0, frame = 0
 243              		@ frame_needed = 0, uses_anonymous_args = 0
ARM GAS  C:\Users\Yiquing\AppData\Local\Temp\ccsAoMV1.s 			page 20


 244              		@ link register save eliminated.
 245              	.LVL6:
 202:.\Generated_Source\PSoC5/CyLib.c ****     if((pDiv    >= CY_CLK_PLL_MIN_P_VALUE  ) &&
 246              		.loc 1 202 0
 247 0000 0728     		cmp	r0, #7
 248 0002 13D9     		bls	.L27
 203:.\Generated_Source\PSoC5/CyLib.c ****        (qDiv    <= CY_CLK_PLL_MAX_Q_VALUE  ) && (qDiv    >= CY_CLK_PLL_MIN_Q_VALUE  ) &&
 249              		.loc 1 203 0
 250 0004 0139     		subs	r1, r1, #1
 251              	.LVL7:
 252 0006 C9B2     		uxtb	r1, r1
 253 0008 0F29     		cmp	r1, #15
 254 000a 0FD8     		bhi	.L27
 203:.\Generated_Source\PSoC5/CyLib.c ****        (qDiv    <= CY_CLK_PLL_MAX_Q_VALUE  ) && (qDiv    >= CY_CLK_PLL_MIN_Q_VALUE  ) &&
 255              		.loc 1 203 0 is_stmt 0 discriminator 1
 256 000c 013A     		subs	r2, r2, #1
 257              	.LVL8:
 258 000e D2B2     		uxtb	r2, r2
 259 0010 062A     		cmp	r2, #6
 260 0012 0BD8     		bhi	.L27
 207:.\Generated_Source\PSoC5/CyLib.c ****         CY_CLK_PLL_P_REG = pDiv;
 261              		.loc 1 207 0 is_stmt 1
 262 0014 064B     		ldr	r3, .L29
 263 0016 1870     		strb	r0, [r3]
 208:.\Generated_Source\PSoC5/CyLib.c ****         CY_CLK_PLL_Q_REG = ((uint8)(qDiv - 1u));
 264              		.loc 1 208 0
 265 0018 5970     		strb	r1, [r3, #1]
 209:.\Generated_Source\PSoC5/CyLib.c ****         CY_CLK_PLL_CFG1_REG = (CY_CLK_PLL_CFG1_REG & CY_CLK_PLL_CURRENT_MASK) |
 266              		.loc 1 209 0
 267 001a 13F8011C 		ldrb	r1, [r3, #-1]	@ zero_extendqisi2
 268 001e 01F08F01 		and	r1, r1, #143
 269 0022 41EA0212 		orr	r2, r1, r2, lsl #4
 270 0026 D2B2     		uxtb	r2, r2
 271 0028 03F8012C 		strb	r2, [r3, #-1]
 272              	.L27:
 273 002c 7047     		bx	lr
 274              	.L30:
 275 002e 00BF     		.align	2
 276              	.L29:
 277 0030 22420040 		.word	1073758754
 278              		.cfi_endproc
 279              	.LFE2:
 280              		.size	CyPLL_OUT_SetPQ, .-CyPLL_OUT_SetPQ
 281              		.section	.text.CyPLL_OUT_SetSource,"ax",%progbits
 282              		.align	1
 283              		.global	CyPLL_OUT_SetSource
 284              		.thumb
 285              		.thumb_func
 286              		.type	CyPLL_OUT_SetSource, %function
 287              	CyPLL_OUT_SetSource:
 288              	.LFB3:
 253:.\Generated_Source\PSoC5/CyLib.c **** {
 289              		.loc 1 253 0
 290              		.cfi_startproc
 291              		@ args = 0, pretend = 0, frame = 0
 292              		@ frame_needed = 0, uses_anonymous_args = 0
 293              		@ link register save eliminated.
ARM GAS  C:\Users\Yiquing\AppData\Local\Temp\ccsAoMV1.s 			page 21


 294              	.LVL9:
 257:.\Generated_Source\PSoC5/CyLib.c ****     switch(source)
 295              		.loc 1 257 0
 296 0000 0228     		cmp	r0, #2
 297 0002 06D8     		bhi	.L31
 262:.\Generated_Source\PSoC5/CyLib.c ****             CY_LIB_CLKDIST_CR_REG = ((CY_LIB_CLKDIST_CR_REG & CY_LIB_CLKDIST_CR_PLL_SCR_MASK) | sou
 298              		.loc 1 262 0
 299 0004 4FF04023 		mov	r3, #1073758208
 300 0008 1A78     		ldrb	r2, [r3]	@ zero_extendqisi2
 301 000a 02F0FC02 		and	r2, r2, #252
 302 000e 1043     		orrs	r0, r0, r2
 303              	.LVL10:
 304 0010 1870     		strb	r0, [r3]
 305              	.L31:
 306 0012 7047     		bx	lr
 307              		.cfi_endproc
 308              	.LFE3:
 309              		.size	CyPLL_OUT_SetSource, .-CyPLL_OUT_SetSource
 310              		.section	.text.CyIMO_Stop,"ax",%progbits
 311              		.align	1
 312              		.global	CyIMO_Stop
 313              		.thumb
 314              		.thumb_func
 315              		.type	CyIMO_Stop, %function
 316              	CyIMO_Stop:
 317              	.LFB5:
 352:.\Generated_Source\PSoC5/CyLib.c **** {
 318              		.loc 1 352 0
 319              		.cfi_startproc
 320              		@ args = 0, pretend = 0, frame = 0
 321              		@ frame_needed = 0, uses_anonymous_args = 0
 322              		@ link register save eliminated.
 353:.\Generated_Source\PSoC5/CyLib.c ****     CY_LIB_PM_ACT_CFG0_REG  &= ((uint8) (~CY_LIB_PM_ACT_CFG0_IMO_EN));
 323              		.loc 1 353 0
 324 0000 044B     		ldr	r3, .L35
 325 0002 1A78     		ldrb	r2, [r3]	@ zero_extendqisi2
 326 0004 02F0EF02 		and	r2, r2, #239
 327 0008 1A70     		strb	r2, [r3]
 354:.\Generated_Source\PSoC5/CyLib.c ****     CY_LIB_PM_STBY_CFG0_REG &= ((uint8) (~CY_LIB_PM_STBY_CFG0_IMO_EN));
 328              		.loc 1 354 0
 329 000a 1A7C     		ldrb	r2, [r3, #16]	@ zero_extendqisi2
 330 000c 02F0EF02 		and	r2, r2, #239
 331 0010 1A74     		strb	r2, [r3, #16]
 332 0012 7047     		bx	lr
 333              	.L36:
 334              		.align	2
 335              	.L35:
 336 0014 A0430040 		.word	1073759136
 337              		.cfi_endproc
 338              	.LFE5:
 339              		.size	CyIMO_Stop, .-CyIMO_Stop
 340              		.section	.text.CyIMO_SetSource,"ax",%progbits
 341              		.align	1
 342              		.global	CyIMO_SetSource
 343              		.thumb
 344              		.thumb_func
 345              		.type	CyIMO_SetSource, %function
ARM GAS  C:\Users\Yiquing\AppData\Local\Temp\ccsAoMV1.s 			page 22


 346              	CyIMO_SetSource:
 347              	.LFB9:
 654:.\Generated_Source\PSoC5/CyLib.c **** {
 348              		.loc 1 654 0
 349              		.cfi_startproc
 350              		@ args = 0, pretend = 0, frame = 0
 351              		@ frame_needed = 0, uses_anonymous_args = 0
 352              		@ link register save eliminated.
 353              	.LVL11:
 655:.\Generated_Source\PSoC5/CyLib.c ****     switch(source)
 354              		.loc 1 655 0
 355 0000 0128     		cmp	r0, #1
 356 0002 08D0     		beq	.L39
 357 0004 14D3     		bcc	.L40
 358 0006 0228     		cmp	r0, #2
 359 0008 17D1     		bne	.L37
 658:.\Generated_Source\PSoC5/CyLib.c ****         CY_LIB_CLKDIST_CR_REG     &= ((uint8)(~CY_LIB_CLKDIST_CR_IMO2X));
 360              		.loc 1 658 0
 361 000a 4FF04023 		mov	r3, #1073758208
 362 000e 1A78     		ldrb	r2, [r3]	@ zero_extendqisi2
 363 0010 02F0BF02 		and	r2, r2, #191
 364 0014 04E0     		b	.L42
 365              	.L39:
 663:.\Generated_Source\PSoC5/CyLib.c ****         CY_LIB_CLKDIST_CR_REG     |= CY_LIB_CLKDIST_CR_IMO2X;
 366              		.loc 1 663 0
 367 0016 4FF04023 		mov	r3, #1073758208
 368 001a 1A78     		ldrb	r2, [r3]	@ zero_extendqisi2
 369 001c 42F04002 		orr	r2, r2, #64
 370              	.L42:
 371 0020 1A70     		strb	r2, [r3]
 664:.\Generated_Source\PSoC5/CyLib.c ****         CY_LIB_FASTCLK_IMO_CR_REG |= CY_LIB_FASTCLK_IMO_IMO;
 372              		.loc 1 664 0
 373 0022 93F80022 		ldrb	r2, [r3, #512]	@ zero_extendqisi2
 374 0026 42F02002 		orr	r2, r2, #32
 375 002a 83F80022 		strb	r2, [r3, #512]
 665:.\Generated_Source\PSoC5/CyLib.c ****         break;
 376              		.loc 1 665 0
 377 002e 7047     		bx	lr
 378              	.L40:
 668:.\Generated_Source\PSoC5/CyLib.c ****         CY_LIB_FASTCLK_IMO_CR_REG &= ((uint8)(~CY_LIB_FASTCLK_IMO_IMO));
 379              		.loc 1 668 0
 380 0030 024B     		ldr	r3, .L43
 381 0032 1A78     		ldrb	r2, [r3]	@ zero_extendqisi2
 382 0034 02F0DF02 		and	r2, r2, #223
 383 0038 1A70     		strb	r2, [r3]
 384              	.L37:
 385 003a 7047     		bx	lr
 386              	.L44:
 387              		.align	2
 388              	.L43:
 389 003c 00420040 		.word	1073758720
 390              		.cfi_endproc
 391              	.LFE9:
 392              		.size	CyIMO_SetSource, .-CyIMO_SetSource
 393              		.section	.text.CyIMO_EnableDoubler,"ax",%progbits
 394              		.align	1
 395              		.global	CyIMO_EnableDoubler
ARM GAS  C:\Users\Yiquing\AppData\Local\Temp\ccsAoMV1.s 			page 23


 396              		.thumb
 397              		.thumb_func
 398              		.type	CyIMO_EnableDoubler, %function
 399              	CyIMO_EnableDoubler:
 400              	.LFB10:
 695:.\Generated_Source\PSoC5/CyLib.c **** {
 401              		.loc 1 695 0
 402              		.cfi_startproc
 403              		@ args = 0, pretend = 0, frame = 0
 404              		@ frame_needed = 0, uses_anonymous_args = 0
 405              		@ link register save eliminated.
 697:.\Generated_Source\PSoC5/CyLib.c ****     CY_LIB_FASTCLK_IMO_CR_REG |= CY_LIB_FASTCLK_IMO_DOUBLER;
 406              		.loc 1 697 0
 407 0000 024B     		ldr	r3, .L46
 408 0002 1A78     		ldrb	r2, [r3]	@ zero_extendqisi2
 409 0004 42F01002 		orr	r2, r2, #16
 410 0008 1A70     		strb	r2, [r3]
 411 000a 7047     		bx	lr
 412              	.L47:
 413              		.align	2
 414              	.L46:
 415 000c 00420040 		.word	1073758720
 416              		.cfi_endproc
 417              	.LFE10:
 418              		.size	CyIMO_EnableDoubler, .-CyIMO_EnableDoubler
 419              		.section	.text.CyIMO_DisableDoubler,"ax",%progbits
 420              		.align	1
 421              		.global	CyIMO_DisableDoubler
 422              		.thumb
 423              		.thumb_func
 424              		.type	CyIMO_DisableDoubler, %function
 425              	CyIMO_DisableDoubler:
 426              	.LFB11:
 716:.\Generated_Source\PSoC5/CyLib.c **** {
 427              		.loc 1 716 0
 428              		.cfi_startproc
 429              		@ args = 0, pretend = 0, frame = 0
 430              		@ frame_needed = 0, uses_anonymous_args = 0
 431              		@ link register save eliminated.
 717:.\Generated_Source\PSoC5/CyLib.c ****     CY_LIB_FASTCLK_IMO_CR_REG &= ((uint8)(~CY_LIB_FASTCLK_IMO_DOUBLER));
 432              		.loc 1 717 0
 433 0000 024B     		ldr	r3, .L49
 434 0002 1A78     		ldrb	r2, [r3]	@ zero_extendqisi2
 435 0004 02F0EF02 		and	r2, r2, #239
 436 0008 1A70     		strb	r2, [r3]
 437 000a 7047     		bx	lr
 438              	.L50:
 439              		.align	2
 440              	.L49:
 441 000c 00420040 		.word	1073758720
 442              		.cfi_endproc
 443              	.LFE11:
 444              		.size	CyIMO_DisableDoubler, .-CyIMO_DisableDoubler
 445              		.section	.text.CyIMO_SetFreq,"ax",%progbits
 446              		.align	1
 447              		.global	CyIMO_SetFreq
 448              		.thumb
ARM GAS  C:\Users\Yiquing\AppData\Local\Temp\ccsAoMV1.s 			page 24


 449              		.thumb_func
 450              		.type	CyIMO_SetFreq, %function
 451              	CyIMO_SetFreq:
 452              	.LFB8:
 499:.\Generated_Source\PSoC5/CyLib.c **** {
 453              		.loc 1 499 0
 454              		.cfi_startproc
 455              		@ args = 0, pretend = 0, frame = 0
 456              		@ frame_needed = 0, uses_anonymous_args = 0
 457              	.LVL12:
 458 0000 70B5     		push	{r4, r5, r6, lr}
 459              		.cfi_def_cfa_offset 16
 460              		.cfi_offset 4, -16
 461              		.cfi_offset 5, -12
 462              		.cfi_offset 6, -8
 463              		.cfi_offset 14, -4
 510:.\Generated_Source\PSoC5/CyLib.c ****     currentFreq = CY_LIB_FASTCLK_IMO_CR_REG & ((uint8)(~CY_LIB_FASTCLK_IMO_CR_RANGE_MASK));
 464              		.loc 1 510 0
 465 0002 344B     		ldr	r3, .L76
 513:.\Generated_Source\PSoC5/CyLib.c ****     nextFreq = (freq == CY_IMO_FREQ_USB) ? CY_IMO_FREQ_24MHZ : freq;
 466              		.loc 1 513 0
 467 0004 0828     		cmp	r0, #8
 510:.\Generated_Source\PSoC5/CyLib.c ****     currentFreq = CY_LIB_FASTCLK_IMO_CR_REG & ((uint8)(~CY_LIB_FASTCLK_IMO_CR_RANGE_MASK));
 468              		.loc 1 510 0
 469 0006 1C78     		ldrb	r4, [r3]	@ zero_extendqisi2
 513:.\Generated_Source\PSoC5/CyLib.c ****     nextFreq = (freq == CY_IMO_FREQ_USB) ? CY_IMO_FREQ_24MHZ : freq;
 470              		.loc 1 513 0
 471 0008 14BF     		ite	ne
 472 000a 0646     		movne	r6, r0
 473 000c 0326     		moveq	r6, #3
 510:.\Generated_Source\PSoC5/CyLib.c ****     currentFreq = CY_LIB_FASTCLK_IMO_CR_REG & ((uint8)(~CY_LIB_FASTCLK_IMO_CR_RANGE_MASK));
 474              		.loc 1 510 0
 475 000e 04F00704 		and	r4, r4, #7
 476              	.LVL13:
 515:.\Generated_Source\PSoC5/CyLib.c ****     switch (currentFreq)
 477              		.loc 1 515 0
 478 0012 022C     		cmp	r4, #2
 499:.\Generated_Source\PSoC5/CyLib.c **** {
 479              		.loc 1 499 0
 480 0014 0546     		mov	r5, r0
 515:.\Generated_Source\PSoC5/CyLib.c ****     switch (currentFreq)
 481              		.loc 1 515 0
 482 0016 05D0     		beq	.L54
 515:.\Generated_Source\PSoC5/CyLib.c ****     switch (currentFreq)
 483              		.loc 1 515 0 is_stmt 0 discriminator 3
 484 0018 032C     		cmp	r4, #3
 485 001a 07D0     		beq	.L74
 518:.\Generated_Source\PSoC5/CyLib.c ****         currentFreq = CY_IMO_FREQ_12MHZ;
 486              		.loc 1 518 0 is_stmt 1 discriminator 3
 487 001c 002C     		cmp	r4, #0
 488 001e 08BF     		it	eq
 489 0020 0224     		moveq	r4, #2
 490              	.LVL14:
 491 0022 00E0     		b	.L53
 492              	.LVL15:
 493              	.L54:
 526:.\Generated_Source\PSoC5/CyLib.c ****         currentFreq = CY_IMO_FREQ_24MHZ;
ARM GAS  C:\Users\Yiquing\AppData\Local\Temp\ccsAoMV1.s 			page 25


 494              		.loc 1 526 0
 495 0024 0324     		movs	r4, #3
 496              	.LVL16:
 497              	.L53:
 552:.\Generated_Source\PSoC5/CyLib.c ****     if (nextFreq >= currentFreq)
 498              		.loc 1 552 0
 499 0026 A642     		cmp	r6, r4
 500 0028 04D3     		bcc	.L57
 501 002a 00E0     		b	.L55
 502              	.L74:
 530:.\Generated_Source\PSoC5/CyLib.c ****         currentFreq = CY_IMO_FREQ_3MHZ;
 503              		.loc 1 530 0
 504 002c 0024     		movs	r4, #0
 505              	.LVL17:
 506              	.L55:
 555:.\Generated_Source\PSoC5/CyLib.c ****         CyIMO_SetTrimValue(freq);
 507              		.loc 1 555 0
 508 002e 2846     		mov	r0, r5
 509              	.LVL18:
 510 0030 FFF7FEFF 		bl	CyIMO_SetTrimValue
 511              	.LVL19:
 512              	.L57:
 559:.\Generated_Source\PSoC5/CyLib.c ****     switch(freq)
 513              		.loc 1 559 0
 514 0034 082D     		cmp	r5, #8
 515 0036 3ED8     		bhi	.L58
 516 0038 DFE805F0 		tbb	[pc, r5]
 517              	.L60:
 518 003c 05       		.byte	(.L59-.L60)/2
 519 003d 0C       		.byte	(.L61-.L60)/2
 520 003e 13       		.byte	(.L62-.L60)/2
 521 003f 18       		.byte	(.L63-.L60)/2
 522 0040 1F       		.byte	(.L64-.L60)/2
 523 0041 26       		.byte	(.L65-.L60)/2
 524 0042 2D       		.byte	(.L66-.L60)/2
 525 0043 3D       		.byte	(.L58-.L60)/2
 526 0044 35       		.byte	(.L67-.L60)/2
 527 0045 00       		.p2align 1
 528              	.L59:
 562:.\Generated_Source\PSoC5/CyLib.c ****         CY_LIB_FASTCLK_IMO_CR_REG = ((CY_LIB_FASTCLK_IMO_CR_REG & CY_LIB_FASTCLK_IMO_CR_RANGE_MASK)
 529              		.loc 1 562 0
 530 0046 234B     		ldr	r3, .L76
 531 0048 1A78     		ldrb	r2, [r3]	@ zero_extendqisi2
 532 004a 02F0B802 		and	r2, r2, #184
 533 004e 42F00302 		orr	r2, r2, #3
 534 0052 26E0     		b	.L75
 535              	.L61:
 567:.\Generated_Source\PSoC5/CyLib.c ****         CY_LIB_FASTCLK_IMO_CR_REG = ((CY_LIB_FASTCLK_IMO_CR_REG & CY_LIB_FASTCLK_IMO_CR_RANGE_MASK)
 536              		.loc 1 567 0
 537 0054 1F4B     		ldr	r3, .L76
 538 0056 1A78     		ldrb	r2, [r3]	@ zero_extendqisi2
 539 0058 02F0B802 		and	r2, r2, #184
 540 005c 42F00102 		orr	r2, r2, #1
 541 0060 1FE0     		b	.L75
 542              	.L62:
 572:.\Generated_Source\PSoC5/CyLib.c ****         CY_LIB_FASTCLK_IMO_CR_REG = ((CY_LIB_FASTCLK_IMO_CR_REG & CY_LIB_FASTCLK_IMO_CR_RANGE_MASK)
 543              		.loc 1 572 0
ARM GAS  C:\Users\Yiquing\AppData\Local\Temp\ccsAoMV1.s 			page 26


 544 0062 1C4B     		ldr	r3, .L76
 545 0064 1A78     		ldrb	r2, [r3]	@ zero_extendqisi2
 546 0066 02F0B802 		and	r2, r2, #184
 547 006a 1AE0     		b	.L75
 548              	.L63:
 577:.\Generated_Source\PSoC5/CyLib.c ****         CY_LIB_FASTCLK_IMO_CR_REG = ((CY_LIB_FASTCLK_IMO_CR_REG & CY_LIB_FASTCLK_IMO_CR_RANGE_MASK)
 549              		.loc 1 577 0
 550 006c 194B     		ldr	r3, .L76
 551 006e 1A78     		ldrb	r2, [r3]	@ zero_extendqisi2
 552 0070 02F0B802 		and	r2, r2, #184
 553 0074 42F00202 		orr	r2, r2, #2
 554 0078 13E0     		b	.L75
 555              	.L64:
 582:.\Generated_Source\PSoC5/CyLib.c ****         CY_LIB_FASTCLK_IMO_CR_REG = ((CY_LIB_FASTCLK_IMO_CR_REG & CY_LIB_FASTCLK_IMO_CR_RANGE_MASK)
 556              		.loc 1 582 0
 557 007a 164B     		ldr	r3, .L76
 558 007c 1A78     		ldrb	r2, [r3]	@ zero_extendqisi2
 559 007e 02F0B802 		and	r2, r2, #184
 560 0082 42F00402 		orr	r2, r2, #4
 561 0086 0CE0     		b	.L75
 562              	.L65:
 587:.\Generated_Source\PSoC5/CyLib.c ****         CY_LIB_FASTCLK_IMO_CR_REG = ((CY_LIB_FASTCLK_IMO_CR_REG & CY_LIB_FASTCLK_IMO_CR_RANGE_MASK)
 563              		.loc 1 587 0
 564 0088 124B     		ldr	r3, .L76
 565 008a 1A78     		ldrb	r2, [r3]	@ zero_extendqisi2
 566 008c 02F0B802 		and	r2, r2, #184
 567 0090 42F00502 		orr	r2, r2, #5
 568 0094 05E0     		b	.L75
 569              	.L66:
 593:.\Generated_Source\PSoC5/CyLib.c ****         CY_LIB_FASTCLK_IMO_CR_REG = ((CY_LIB_FASTCLK_IMO_CR_REG & CY_LIB_FASTCLK_IMO_CR_RANGE_MASK)
 570              		.loc 1 593 0
 571 0096 0F4B     		ldr	r3, .L76
 572 0098 1A78     		ldrb	r2, [r3]	@ zero_extendqisi2
 573 009a 02F0B802 		and	r2, r2, #184
 574 009e 42F00602 		orr	r2, r2, #6
 575              	.L75:
 576 00a2 1A70     		strb	r2, [r3]
 595:.\Generated_Source\PSoC5/CyLib.c ****         break;
 577              		.loc 1 595 0
 578 00a4 0CE0     		b	.L70
 579              	.L67:
 599:.\Generated_Source\PSoC5/CyLib.c ****         CY_LIB_FASTCLK_IMO_CR_REG = ((CY_LIB_FASTCLK_IMO_CR_REG & CY_LIB_FASTCLK_IMO_CR_RANGE_MASK)
 580              		.loc 1 599 0
 581 00a6 0B4B     		ldr	r3, .L76
 582 00a8 1A78     		ldrb	r2, [r3]	@ zero_extendqisi2
 583 00aa 02F0B802 		and	r2, r2, #184
 584 00ae 42F04202 		orr	r2, r2, #66
 585 00b2 1A70     		strb	r2, [r3]
 586 00b4 01E0     		b	.L69
 587              	.L58:
 609:.\Generated_Source\PSoC5/CyLib.c ****     if (freq == CY_IMO_FREQ_USB)
 588              		.loc 1 609 0
 589 00b6 082D     		cmp	r5, #8
 590 00b8 02D1     		bne	.L70
 591              	.L69:
 611:.\Generated_Source\PSoC5/CyLib.c ****         CyIMO_EnableDoubler();
 592              		.loc 1 611 0
ARM GAS  C:\Users\Yiquing\AppData\Local\Temp\ccsAoMV1.s 			page 27


 593 00ba FFF7FEFF 		bl	CyIMO_EnableDoubler
 594              	.LVL20:
 595 00be 01E0     		b	.L71
 596              	.L70:
 615:.\Generated_Source\PSoC5/CyLib.c ****         CyIMO_DisableDoubler();
 597              		.loc 1 615 0
 598 00c0 FFF7FEFF 		bl	CyIMO_DisableDoubler
 599              	.LVL21:
 600              	.L71:
 618:.\Generated_Source\PSoC5/CyLib.c ****     if (nextFreq < currentFreq)
 601              		.loc 1 618 0
 602 00c4 A642     		cmp	r6, r4
 603 00c6 04D2     		bcs	.L51
 621:.\Generated_Source\PSoC5/CyLib.c ****         CyIMO_SetTrimValue(freq);
 604              		.loc 1 621 0
 605 00c8 2846     		mov	r0, r5
 623:.\Generated_Source\PSoC5/CyLib.c **** }
 606              		.loc 1 623 0
 607 00ca BDE87040 		pop	{r4, r5, r6, lr}
 608              	.LVL22:
 621:.\Generated_Source\PSoC5/CyLib.c ****         CyIMO_SetTrimValue(freq);
 609              		.loc 1 621 0
 610 00ce FFF7FEBF 		b	CyIMO_SetTrimValue
 611              	.LVL23:
 612              	.L51:
 613 00d2 70BD     		pop	{r4, r5, r6, pc}
 614              	.LVL24:
 615              	.L77:
 616              		.align	2
 617              	.L76:
 618 00d4 00420040 		.word	1073758720
 619              		.cfi_endproc
 620              	.LFE8:
 621              		.size	CyIMO_SetFreq, .-CyIMO_SetFreq
 622              		.section	.text.CyMasterClk_SetSource,"ax",%progbits
 623              		.align	1
 624              		.global	CyMasterClk_SetSource
 625              		.thumb
 626              		.thumb_func
 627              		.type	CyMasterClk_SetSource, %function
 628              	CyMasterClk_SetSource:
 629              	.LFB12:
 751:.\Generated_Source\PSoC5/CyLib.c **** {
 630              		.loc 1 751 0
 631              		.cfi_startproc
 632              		@ args = 0, pretend = 0, frame = 0
 633              		@ frame_needed = 0, uses_anonymous_args = 0
 634              		@ link register save eliminated.
 635              	.LVL25:
 752:.\Generated_Source\PSoC5/CyLib.c ****     CY_LIB_CLKDIST_MSTR1_REG = (CY_LIB_CLKDIST_MSTR1_REG & MASTER_CLK_SRC_CLEAR) |
 636              		.loc 1 752 0
 637 0000 044B     		ldr	r3, .L79
 638 0002 00F00300 		and	r0, r0, #3
 639              	.LVL26:
 640 0006 1A78     		ldrb	r2, [r3]	@ zero_extendqisi2
 641 0008 02F0FC02 		and	r2, r2, #252
 642 000c 0243     		orrs	r2, r2, r0
ARM GAS  C:\Users\Yiquing\AppData\Local\Temp\ccsAoMV1.s 			page 28


 643 000e 1A70     		strb	r2, [r3]
 644 0010 7047     		bx	lr
 645              	.L80:
 646 0012 00BF     		.align	2
 647              	.L79:
 648 0014 05400040 		.word	1073758213
 649              		.cfi_endproc
 650              	.LFE12:
 651              		.size	CyMasterClk_SetSource, .-CyMasterClk_SetSource
 652              		.section	.text.CyMasterClk_SetDivider,"ax",%progbits
 653              		.align	1
 654              		.global	CyMasterClk_SetDivider
 655              		.thumb
 656              		.thumb_func
 657              		.type	CyMasterClk_SetDivider, %function
 658              	CyMasterClk_SetDivider:
 659              	.LFB13:
 786:.\Generated_Source\PSoC5/CyLib.c **** {
 660              		.loc 1 786 0
 661              		.cfi_startproc
 662              		@ args = 0, pretend = 0, frame = 0
 663              		@ frame_needed = 0, uses_anonymous_args = 0
 664              		@ link register save eliminated.
 665              	.LVL27:
 787:.\Generated_Source\PSoC5/CyLib.c ****     CY_LIB_CLKDIST_MSTR0_REG = divider;
 666              		.loc 1 787 0
 667 0000 014B     		ldr	r3, .L82
 668 0002 1870     		strb	r0, [r3]
 669 0004 7047     		bx	lr
 670              	.L83:
 671 0006 00BF     		.align	2
 672              	.L82:
 673 0008 04400040 		.word	1073758212
 674              		.cfi_endproc
 675              	.LFE13:
 676              		.size	CyMasterClk_SetDivider, .-CyMasterClk_SetDivider
 677              		.section	.text.CyBusClk_SetDivider,"ax",%progbits
 678              		.align	1
 679              		.global	CyBusClk_SetDivider
 680              		.thumb
 681              		.thumb_func
 682              		.type	CyBusClk_SetDivider, %function
 683              	CyBusClk_SetDivider:
 684              	.LFB15:
 828:.\Generated_Source\PSoC5/CyLib.c **** }
 829:.\Generated_Source\PSoC5/CyLib.c **** 
 830:.\Generated_Source\PSoC5/CyLib.c **** 
 831:.\Generated_Source\PSoC5/CyLib.c **** /*******************************************************************************
 832:.\Generated_Source\PSoC5/CyLib.c **** * Function Name: CyBusClk_SetDivider
 833:.\Generated_Source\PSoC5/CyLib.c **** ********************************************************************************
 834:.\Generated_Source\PSoC5/CyLib.c **** *
 835:.\Generated_Source\PSoC5/CyLib.c **** * Summary:
 836:.\Generated_Source\PSoC5/CyLib.c **** *  Sets the divider value used to generate the Bus Clock.
 837:.\Generated_Source\PSoC5/CyLib.c **** *
 838:.\Generated_Source\PSoC5/CyLib.c **** * Parameters:
 839:.\Generated_Source\PSoC5/CyLib.c **** *  divider: Valid range [0-65535]. The clock will be divided by this value + 1.
 840:.\Generated_Source\PSoC5/CyLib.c **** *  For example, to divide this parameter by two should be set to 1.
ARM GAS  C:\Users\Yiquing\AppData\Local\Temp\ccsAoMV1.s 			page 29


 841:.\Generated_Source\PSoC5/CyLib.c **** *
 842:.\Generated_Source\PSoC5/CyLib.c **** * Return:
 843:.\Generated_Source\PSoC5/CyLib.c **** *  None
 844:.\Generated_Source\PSoC5/CyLib.c **** *
 845:.\Generated_Source\PSoC5/CyLib.c **** * Side Effects:
 846:.\Generated_Source\PSoC5/CyLib.c **** *  If this function execution resulted in the CPU clock frequency increasing,
 847:.\Generated_Source\PSoC5/CyLib.c **** *  then the number of clock cycles the cache will wait before it samples data
 848:.\Generated_Source\PSoC5/CyLib.c **** *  coming back from the Flash must be adjusted by calling
 849:.\Generated_Source\PSoC5/CyLib.c **** *  CyFlash_SetWaitCycles() with an appropriate parameter. It can be optionally
 850:.\Generated_Source\PSoC5/CyLib.c **** *  called if the CPU clock frequency is lowered in order to improve the CPU
 851:.\Generated_Source\PSoC5/CyLib.c **** *  performance. See CyFlash_SetWaitCycles() description for more information.
 852:.\Generated_Source\PSoC5/CyLib.c **** *
 853:.\Generated_Source\PSoC5/CyLib.c **** *******************************************************************************/
 854:.\Generated_Source\PSoC5/CyLib.c **** void CyBusClk_SetDivider(uint16 divider) 
 855:.\Generated_Source\PSoC5/CyLib.c **** {
 685              		.loc 1 855 0
 686              		.cfi_startproc
 687              		@ args = 0, pretend = 0, frame = 0
 688              		@ frame_needed = 0, uses_anonymous_args = 0
 689              	.LVL28:
 690 0000 F8B5     		push	{r3, r4, r5, r6, r7, lr}
 691              		.cfi_def_cfa_offset 24
 692              		.cfi_offset 3, -24
 693              		.cfi_offset 4, -20
 694              		.cfi_offset 5, -16
 695              		.cfi_offset 6, -12
 696              		.cfi_offset 7, -8
 697              		.cfi_offset 14, -4
 698              		.loc 1 855 0
 699 0002 0446     		mov	r4, r0
 856:.\Generated_Source\PSoC5/CyLib.c ****     uint8  masterClkDiv;
 857:.\Generated_Source\PSoC5/CyLib.c ****     uint16 busClkDiv;
 858:.\Generated_Source\PSoC5/CyLib.c ****     uint8 interruptState;
 859:.\Generated_Source\PSoC5/CyLib.c **** 
 860:.\Generated_Source\PSoC5/CyLib.c ****     interruptState = CyEnterCriticalSection();
 700              		.loc 1 860 0
 701 0004 FFF7FEFF 		bl	CyEnterCriticalSection
 702              	.LVL29:
 861:.\Generated_Source\PSoC5/CyLib.c **** 
 862:.\Generated_Source\PSoC5/CyLib.c ****     /* Work around to set bus clock divider value */
 863:.\Generated_Source\PSoC5/CyLib.c ****     busClkDiv = (uint16)((uint16)CY_LIB_CLKDIST_BCFG_MSB_REG << 8u);
 703              		.loc 1 863 0
 704 0008 164B     		ldr	r3, .L94
 860:.\Generated_Source\PSoC5/CyLib.c ****     interruptState = CyEnterCriticalSection();
 705              		.loc 1 860 0
 706 000a 0746     		mov	r7, r0
 707              	.LVL30:
 708              		.loc 1 863 0
 709 000c 1A78     		ldrb	r2, [r3]	@ zero_extendqisi2
 864:.\Generated_Source\PSoC5/CyLib.c ****     busClkDiv |= CY_LIB_CLKDIST_BCFG_LSB_REG;
 710              		.loc 1 864 0
 711 000e 013B     		subs	r3, r3, #1
 712 0010 1B78     		ldrb	r3, [r3]	@ zero_extendqisi2
 863:.\Generated_Source\PSoC5/CyLib.c ****     busClkDiv = (uint16)((uint16)CY_LIB_CLKDIST_BCFG_MSB_REG << 8u);
 713              		.loc 1 863 0
 714 0012 D2B2     		uxtb	r2, r2
 715              	.LVL31:
ARM GAS  C:\Users\Yiquing\AppData\Local\Temp\ccsAoMV1.s 			page 30


 716              		.loc 1 864 0
 717 0014 DBB2     		uxtb	r3, r3
 718              	.LVL32:
 865:.\Generated_Source\PSoC5/CyLib.c **** 
 866:.\Generated_Source\PSoC5/CyLib.c ****     if ((divider == 0u) || (busClkDiv == 0u))
 719              		.loc 1 866 0
 720 0016 14B1     		cbz	r4, .L85
 721              		.loc 1 866 0 is_stmt 0 discriminator 1
 722 0018 53EA0223 		orrs	r3, r3, r2, lsl #8
 723              	.LVL33:
 724 001c 1AD1     		bne	.L86
 725              	.L85:
 867:.\Generated_Source\PSoC5/CyLib.c ****     {
 868:.\Generated_Source\PSoC5/CyLib.c ****         /* Save away master clock divider value */
 869:.\Generated_Source\PSoC5/CyLib.c ****         masterClkDiv = CY_LIB_CLKDIST_MSTR0_REG;
 726              		.loc 1 869 0 is_stmt 1
 727 001e 124B     		ldr	r3, .L94+4
 728 0020 124D     		ldr	r5, .L94+8
 729 0022 1E78     		ldrb	r6, [r3]	@ zero_extendqisi2
 730 0024 F6B2     		uxtb	r6, r6
 731              	.LVL34:
 870:.\Generated_Source\PSoC5/CyLib.c **** 
 871:.\Generated_Source\PSoC5/CyLib.c ****         if (masterClkDiv < CY_LIB_CLKDIST_MASTERCLK_DIV)
 732              		.loc 1 871 0
 733 0026 062E     		cmp	r6, #6
 734              	.LVL35:
 735              	.LBB16:
 736              	.LBB17:
 787:.\Generated_Source\PSoC5/CyLib.c ****     CY_LIB_CLKDIST_MSTR0_REG = divider;
 737              		.loc 1 787 0
 738 0028 9CBF     		itt	ls
 739 002a 0722     		movls	r2, #7
 740 002c 1A70     		strbls	r2, [r3]
 741              	.LBE17:
 742              	.LBE16:
 872:.\Generated_Source\PSoC5/CyLib.c ****         {
 873:.\Generated_Source\PSoC5/CyLib.c ****             /* Set master clock divider to 7 */
 874:.\Generated_Source\PSoC5/CyLib.c ****             CyMasterClk_SetDivider(CY_LIB_CLKDIST_MASTERCLK_DIV);
 875:.\Generated_Source\PSoC5/CyLib.c ****         }
 876:.\Generated_Source\PSoC5/CyLib.c **** 
 877:.\Generated_Source\PSoC5/CyLib.c ****         if (divider == 0u)
 743              		.loc 1 877 0
 744 002e 3CB9     		cbnz	r4, .L88
 878:.\Generated_Source\PSoC5/CyLib.c ****         {
 879:.\Generated_Source\PSoC5/CyLib.c ****             /* Set SSS bit and divider register desired value */
 880:.\Generated_Source\PSoC5/CyLib.c ****             CY_LIB_CLKDIST_BCFG2_REG |= CY_LIB_CLKDIST_BCFG2_SSS;
 745              		.loc 1 880 0
 746 0030 2B78     		ldrb	r3, [r5]	@ zero_extendqisi2
 881:.\Generated_Source\PSoC5/CyLib.c ****             CyBusClk_Internal_SetDivider(divider);
 747              		.loc 1 881 0
 748 0032 2046     		mov	r0, r4
 749              	.LVL36:
 880:.\Generated_Source\PSoC5/CyLib.c ****             CY_LIB_CLKDIST_BCFG2_REG |= CY_LIB_CLKDIST_BCFG2_SSS;
 750              		.loc 1 880 0
 751 0034 43F04003 		orr	r3, r3, #64
 752 0038 2B70     		strb	r3, [r5]
 753              		.loc 1 881 0
ARM GAS  C:\Users\Yiquing\AppData\Local\Temp\ccsAoMV1.s 			page 31


 754 003a FFF7FEFF 		bl	CyBusClk_Internal_SetDivider
 755              	.LVL37:
 756 003e 06E0     		b	.L89
 757              	.LVL38:
 758              	.L88:
 882:.\Generated_Source\PSoC5/CyLib.c ****         }
 883:.\Generated_Source\PSoC5/CyLib.c ****         else
 884:.\Generated_Source\PSoC5/CyLib.c ****         {
 885:.\Generated_Source\PSoC5/CyLib.c ****             CyBusClk_Internal_SetDivider(divider);
 759              		.loc 1 885 0
 760 0040 2046     		mov	r0, r4
 761              	.LVL39:
 762 0042 FFF7FEFF 		bl	CyBusClk_Internal_SetDivider
 763              	.LVL40:
 886:.\Generated_Source\PSoC5/CyLib.c ****             CY_LIB_CLKDIST_BCFG2_REG &= ((uint8)(~CY_LIB_CLKDIST_BCFG2_SSS));
 764              		.loc 1 886 0
 765 0046 2B78     		ldrb	r3, [r5]	@ zero_extendqisi2
 766 0048 03F0BF03 		and	r3, r3, #191
 767 004c 2B70     		strb	r3, [r5]
 768              	.L89:
 769              	.LVL41:
 770              	.LBB18:
 771              	.LBB19:
 787:.\Generated_Source\PSoC5/CyLib.c ****     CY_LIB_CLKDIST_MSTR0_REG = divider;
 772              		.loc 1 787 0
 773 004e 064B     		ldr	r3, .L94+4
 774 0050 1E70     		strb	r6, [r3]
 775 0052 02E0     		b	.L90
 776              	.LVL42:
 777              	.L86:
 778              	.LBE19:
 779              	.LBE18:
 887:.\Generated_Source\PSoC5/CyLib.c ****         }
 888:.\Generated_Source\PSoC5/CyLib.c **** 
 889:.\Generated_Source\PSoC5/CyLib.c ****         /* Restore master clock */
 890:.\Generated_Source\PSoC5/CyLib.c ****         CyMasterClk_SetDivider(masterClkDiv);
 891:.\Generated_Source\PSoC5/CyLib.c ****     }
 892:.\Generated_Source\PSoC5/CyLib.c ****     else
 893:.\Generated_Source\PSoC5/CyLib.c ****     {
 894:.\Generated_Source\PSoC5/CyLib.c ****         CyBusClk_Internal_SetDivider(divider);
 780              		.loc 1 894 0
 781 0054 2046     		mov	r0, r4
 782              	.LVL43:
 783 0056 FFF7FEFF 		bl	CyBusClk_Internal_SetDivider
 784              	.LVL44:
 785              	.L90:
 895:.\Generated_Source\PSoC5/CyLib.c ****     }
 896:.\Generated_Source\PSoC5/CyLib.c **** 
 897:.\Generated_Source\PSoC5/CyLib.c ****     CyExitCriticalSection(interruptState);
 786              		.loc 1 897 0
 787 005a 3846     		mov	r0, r7
 898:.\Generated_Source\PSoC5/CyLib.c **** }
 788              		.loc 1 898 0
 789 005c BDE8F840 		pop	{r3, r4, r5, r6, r7, lr}
 790              	.LVL45:
 897:.\Generated_Source\PSoC5/CyLib.c ****     CyExitCriticalSection(interruptState);
 791              		.loc 1 897 0
ARM GAS  C:\Users\Yiquing\AppData\Local\Temp\ccsAoMV1.s 			page 32


 792 0060 FFF7FEBF 		b	CyExitCriticalSection
 793              	.LVL46:
 794              	.L95:
 795              		.align	2
 796              	.L94:
 797 0064 07400040 		.word	1073758215
 798 0068 04400040 		.word	1073758212
 799 006c 08400040 		.word	1073758216
 800              		.cfi_endproc
 801              	.LFE15:
 802              		.size	CyBusClk_SetDivider, .-CyBusClk_SetDivider
 803              		.section	.text.CyUsbClk_SetSource,"ax",%progbits
 804              		.align	1
 805              		.global	CyUsbClk_SetSource
 806              		.thumb
 807              		.thumb_func
 808              		.type	CyUsbClk_SetSource, %function
 809              	CyUsbClk_SetSource:
 810              	.LFB16:
 899:.\Generated_Source\PSoC5/CyLib.c **** 
 900:.\Generated_Source\PSoC5/CyLib.c **** 
 901:.\Generated_Source\PSoC5/CyLib.c **** #if(CY_PSOC3)
 902:.\Generated_Source\PSoC5/CyLib.c **** 
 903:.\Generated_Source\PSoC5/CyLib.c ****     /*******************************************************************************
 904:.\Generated_Source\PSoC5/CyLib.c ****     * Function Name: CyCpuClk_SetDivider
 905:.\Generated_Source\PSoC5/CyLib.c ****     ********************************************************************************
 906:.\Generated_Source\PSoC5/CyLib.c ****     *
 907:.\Generated_Source\PSoC5/CyLib.c ****     * Summary:
 908:.\Generated_Source\PSoC5/CyLib.c ****     *  Sets the divider value used to generate the CPU Clock. Only applicable for
 909:.\Generated_Source\PSoC5/CyLib.c ****     *  PSoC 3 parts.
 910:.\Generated_Source\PSoC5/CyLib.c ****     *
 911:.\Generated_Source\PSoC5/CyLib.c ****     * Parameters:
 912:.\Generated_Source\PSoC5/CyLib.c ****     *  divider: Valid range [0-15]. The clock will be divided by this value + 1.
 913:.\Generated_Source\PSoC5/CyLib.c ****     *  For example, to divide this parameter by two should be set to 1.
 914:.\Generated_Source\PSoC5/CyLib.c ****     *
 915:.\Generated_Source\PSoC5/CyLib.c ****     * Return:
 916:.\Generated_Source\PSoC5/CyLib.c ****     *  None
 917:.\Generated_Source\PSoC5/CyLib.c ****     *
 918:.\Generated_Source\PSoC5/CyLib.c ****     * Side Effects:
 919:.\Generated_Source\PSoC5/CyLib.c ****     *  If this function execution resulted in the CPU clock frequency increasing,
 920:.\Generated_Source\PSoC5/CyLib.c ****     *  then the number of clock cycles the cache will wait before it samples data
 921:.\Generated_Source\PSoC5/CyLib.c ****     *  coming back from the Flash must be adjusted by calling
 922:.\Generated_Source\PSoC5/CyLib.c ****     *  CyFlash_SetWaitCycles() with an appropriate parameter. It can be optionally
 923:.\Generated_Source\PSoC5/CyLib.c ****     *  called if the CPU clock frequency is lowered in order to improve the CPU
 924:.\Generated_Source\PSoC5/CyLib.c ****     *  performance. See CyFlash_SetWaitCycles() description for more information.
 925:.\Generated_Source\PSoC5/CyLib.c ****     *
 926:.\Generated_Source\PSoC5/CyLib.c ****     *******************************************************************************/
 927:.\Generated_Source\PSoC5/CyLib.c ****     void CyCpuClk_SetDivider(uint8 divider) 
 928:.\Generated_Source\PSoC5/CyLib.c ****     {
 929:.\Generated_Source\PSoC5/CyLib.c ****             CY_LIB_CLKDIST_MSTR1_REG = (CY_LIB_CLKDIST_MSTR1_REG & CY_LIB_CLKDIST_MSTR1_DIV_MASK) |
 930:.\Generated_Source\PSoC5/CyLib.c ****                                 ((uint8)(divider << CY_LIB_CLKDIST_DIV_POSITION));
 931:.\Generated_Source\PSoC5/CyLib.c ****     }
 932:.\Generated_Source\PSoC5/CyLib.c **** 
 933:.\Generated_Source\PSoC5/CyLib.c **** #endif /* (CY_PSOC3) */
 934:.\Generated_Source\PSoC5/CyLib.c **** 
 935:.\Generated_Source\PSoC5/CyLib.c **** 
 936:.\Generated_Source\PSoC5/CyLib.c **** /*******************************************************************************
ARM GAS  C:\Users\Yiquing\AppData\Local\Temp\ccsAoMV1.s 			page 33


 937:.\Generated_Source\PSoC5/CyLib.c **** * Function Name: CyUsbClk_SetSource
 938:.\Generated_Source\PSoC5/CyLib.c **** ********************************************************************************
 939:.\Generated_Source\PSoC5/CyLib.c **** *
 940:.\Generated_Source\PSoC5/CyLib.c **** * Summary:
 941:.\Generated_Source\PSoC5/CyLib.c **** *  Sets the source of the USB clock.
 942:.\Generated_Source\PSoC5/CyLib.c **** *
 943:.\Generated_Source\PSoC5/CyLib.c **** * Parameters:
 944:.\Generated_Source\PSoC5/CyLib.c **** *  source: One of the four available USB clock sources
 945:.\Generated_Source\PSoC5/CyLib.c **** *    CY_LIB_USB_CLK_IMO2X     - IMO 2x
 946:.\Generated_Source\PSoC5/CyLib.c **** *    CY_LIB_USB_CLK_IMO       - IMO
 947:.\Generated_Source\PSoC5/CyLib.c **** *    CY_LIB_USB_CLK_PLL       - PLL
 948:.\Generated_Source\PSoC5/CyLib.c **** *    CY_LIB_USB_CLK_DSI       - DSI
 949:.\Generated_Source\PSoC5/CyLib.c **** *
 950:.\Generated_Source\PSoC5/CyLib.c **** * Return:
 951:.\Generated_Source\PSoC5/CyLib.c **** *  None
 952:.\Generated_Source\PSoC5/CyLib.c **** *
 953:.\Generated_Source\PSoC5/CyLib.c **** *******************************************************************************/
 954:.\Generated_Source\PSoC5/CyLib.c **** void CyUsbClk_SetSource(uint8 source) 
 955:.\Generated_Source\PSoC5/CyLib.c **** {
 811              		.loc 1 955 0
 812              		.cfi_startproc
 813              		@ args = 0, pretend = 0, frame = 0
 814              		@ frame_needed = 0, uses_anonymous_args = 0
 815              		@ link register save eliminated.
 816              	.LVL47:
 956:.\Generated_Source\PSoC5/CyLib.c ****     CY_LIB_CLKDIST_UCFG_REG = (CY_LIB_CLKDIST_UCFG_REG & ((uint8)(~CY_LIB_CLKDIST_UCFG_SRC_SEL_MASK
 817              		.loc 1 956 0
 818 0000 044B     		ldr	r3, .L97
 819 0002 00F00300 		and	r0, r0, #3
 820              	.LVL48:
 821 0006 1A78     		ldrb	r2, [r3]	@ zero_extendqisi2
 822 0008 02F0FC02 		and	r2, r2, #252
 823 000c 0243     		orrs	r2, r2, r0
 824 000e 1A70     		strb	r2, [r3]
 825 0010 7047     		bx	lr
 826              	.L98:
 827 0012 00BF     		.align	2
 828              	.L97:
 829 0014 09400040 		.word	1073758217
 830              		.cfi_endproc
 831              	.LFE16:
 832              		.size	CyUsbClk_SetSource, .-CyUsbClk_SetSource
 833              		.section	.text.CyILO_Start1K,"ax",%progbits
 834              		.align	1
 835              		.global	CyILO_Start1K
 836              		.thumb
 837              		.thumb_func
 838              		.type	CyILO_Start1K, %function
 839              	CyILO_Start1K:
 840              	.LFB17:
 957:.\Generated_Source\PSoC5/CyLib.c ****                         (CY_LIB_CLKDIST_UCFG_SRC_SEL_MASK & source);
 958:.\Generated_Source\PSoC5/CyLib.c **** }
 959:.\Generated_Source\PSoC5/CyLib.c **** 
 960:.\Generated_Source\PSoC5/CyLib.c **** 
 961:.\Generated_Source\PSoC5/CyLib.c **** /*******************************************************************************
 962:.\Generated_Source\PSoC5/CyLib.c **** * Function Name: CyILO_Start1K
 963:.\Generated_Source\PSoC5/CyLib.c **** ********************************************************************************
ARM GAS  C:\Users\Yiquing\AppData\Local\Temp\ccsAoMV1.s 			page 34


 964:.\Generated_Source\PSoC5/CyLib.c **** *
 965:.\Generated_Source\PSoC5/CyLib.c **** * Summary:
 966:.\Generated_Source\PSoC5/CyLib.c **** *  Enables the ILO 1 KHz oscillator.
 967:.\Generated_Source\PSoC5/CyLib.c **** *
 968:.\Generated_Source\PSoC5/CyLib.c **** *  Note The ILO 1 KHz oscillator is always enabled by default, regardless of the
 969:.\Generated_Source\PSoC5/CyLib.c **** *  selection in the Clock Editor. Therefore, this API is only needed if the
 970:.\Generated_Source\PSoC5/CyLib.c **** *  oscillator was turned off manually.
 971:.\Generated_Source\PSoC5/CyLib.c **** *
 972:.\Generated_Source\PSoC5/CyLib.c **** * Parameters:
 973:.\Generated_Source\PSoC5/CyLib.c **** *  None
 974:.\Generated_Source\PSoC5/CyLib.c **** *
 975:.\Generated_Source\PSoC5/CyLib.c **** * Return:
 976:.\Generated_Source\PSoC5/CyLib.c **** *  None
 977:.\Generated_Source\PSoC5/CyLib.c **** *
 978:.\Generated_Source\PSoC5/CyLib.c **** *******************************************************************************/
 979:.\Generated_Source\PSoC5/CyLib.c **** void CyILO_Start1K(void) 
 980:.\Generated_Source\PSoC5/CyLib.c **** {
 841              		.loc 1 980 0
 842              		.cfi_startproc
 843              		@ args = 0, pretend = 0, frame = 0
 844              		@ frame_needed = 0, uses_anonymous_args = 0
 845              		@ link register save eliminated.
 981:.\Generated_Source\PSoC5/CyLib.c ****     /* Set bit 1 of ILO RS */
 982:.\Generated_Source\PSoC5/CyLib.c ****     CY_LIB_SLOWCLK_ILO_CR0_REG |= CY_LIB_SLOWCLK_ILO_CR0_EN_1KHZ;
 846              		.loc 1 982 0
 847 0000 024B     		ldr	r3, .L100
 848 0002 1A78     		ldrb	r2, [r3]	@ zero_extendqisi2
 849 0004 42F00202 		orr	r2, r2, #2
 850 0008 1A70     		strb	r2, [r3]
 851 000a 7047     		bx	lr
 852              	.L101:
 853              		.align	2
 854              	.L100:
 855 000c 00430040 		.word	1073758976
 856              		.cfi_endproc
 857              	.LFE17:
 858              		.size	CyILO_Start1K, .-CyILO_Start1K
 859              		.section	.text.CyILO_Stop1K,"ax",%progbits
 860              		.align	1
 861              		.global	CyILO_Stop1K
 862              		.thumb
 863              		.thumb_func
 864              		.type	CyILO_Stop1K, %function
 865              	CyILO_Stop1K:
 866              	.LFB18:
 983:.\Generated_Source\PSoC5/CyLib.c **** }
 984:.\Generated_Source\PSoC5/CyLib.c **** 
 985:.\Generated_Source\PSoC5/CyLib.c **** 
 986:.\Generated_Source\PSoC5/CyLib.c **** /*******************************************************************************
 987:.\Generated_Source\PSoC5/CyLib.c **** * Function Name: CyILO_Stop1K
 988:.\Generated_Source\PSoC5/CyLib.c **** ********************************************************************************
 989:.\Generated_Source\PSoC5/CyLib.c **** *
 990:.\Generated_Source\PSoC5/CyLib.c **** * Summary:
 991:.\Generated_Source\PSoC5/CyLib.c **** *  Disables the ILO 1 KHz oscillator.
 992:.\Generated_Source\PSoC5/CyLib.c **** *
 993:.\Generated_Source\PSoC5/CyLib.c **** *  Note The ILO 1 KHz oscillator must be enabled if the Sleep or Hibernate low
 994:.\Generated_Source\PSoC5/CyLib.c **** *  power mode APIs are expected to be used. For more information, refer to the
ARM GAS  C:\Users\Yiquing\AppData\Local\Temp\ccsAoMV1.s 			page 35


 995:.\Generated_Source\PSoC5/CyLib.c **** *  Power Management section of this document.
 996:.\Generated_Source\PSoC5/CyLib.c **** *
 997:.\Generated_Source\PSoC5/CyLib.c **** * Parameters:
 998:.\Generated_Source\PSoC5/CyLib.c **** *  None
 999:.\Generated_Source\PSoC5/CyLib.c **** *
1000:.\Generated_Source\PSoC5/CyLib.c **** * Return:
1001:.\Generated_Source\PSoC5/CyLib.c **** *  None
1002:.\Generated_Source\PSoC5/CyLib.c **** *
1003:.\Generated_Source\PSoC5/CyLib.c **** * Side Effects:
1004:.\Generated_Source\PSoC5/CyLib.c **** *  PSoC5: Stopping the ILO 1 kHz could break the active WDT functionality.
1005:.\Generated_Source\PSoC5/CyLib.c **** *
1006:.\Generated_Source\PSoC5/CyLib.c **** *******************************************************************************/
1007:.\Generated_Source\PSoC5/CyLib.c **** void CyILO_Stop1K(void) 
1008:.\Generated_Source\PSoC5/CyLib.c **** {
 867              		.loc 1 1008 0
 868              		.cfi_startproc
 869              		@ args = 0, pretend = 0, frame = 0
 870              		@ frame_needed = 0, uses_anonymous_args = 0
 871              		@ link register save eliminated.
1009:.\Generated_Source\PSoC5/CyLib.c ****     /* Clear bit 1 of ILO RS */
1010:.\Generated_Source\PSoC5/CyLib.c ****     CY_LIB_SLOWCLK_ILO_CR0_REG &= ((uint8)(~CY_LIB_SLOWCLK_ILO_CR0_EN_1KHZ));
 872              		.loc 1 1010 0
 873 0000 024B     		ldr	r3, .L103
 874 0002 1A78     		ldrb	r2, [r3]	@ zero_extendqisi2
 875 0004 02F0FD02 		and	r2, r2, #253
 876 0008 1A70     		strb	r2, [r3]
 877 000a 7047     		bx	lr
 878              	.L104:
 879              		.align	2
 880              	.L103:
 881 000c 00430040 		.word	1073758976
 882              		.cfi_endproc
 883              	.LFE18:
 884              		.size	CyILO_Stop1K, .-CyILO_Stop1K
 885              		.section	.text.CyILO_Start100K,"ax",%progbits
 886              		.align	1
 887              		.global	CyILO_Start100K
 888              		.thumb
 889              		.thumb_func
 890              		.type	CyILO_Start100K, %function
 891              	CyILO_Start100K:
 892              	.LFB19:
1011:.\Generated_Source\PSoC5/CyLib.c **** }
1012:.\Generated_Source\PSoC5/CyLib.c **** 
1013:.\Generated_Source\PSoC5/CyLib.c **** 
1014:.\Generated_Source\PSoC5/CyLib.c **** /*******************************************************************************
1015:.\Generated_Source\PSoC5/CyLib.c **** * Function Name: CyILO_Start100K
1016:.\Generated_Source\PSoC5/CyLib.c **** ********************************************************************************
1017:.\Generated_Source\PSoC5/CyLib.c **** *
1018:.\Generated_Source\PSoC5/CyLib.c **** * Summary:
1019:.\Generated_Source\PSoC5/CyLib.c **** *  Enables the ILO 100 KHz oscillator.
1020:.\Generated_Source\PSoC5/CyLib.c **** *
1021:.\Generated_Source\PSoC5/CyLib.c **** * Parameters:
1022:.\Generated_Source\PSoC5/CyLib.c **** *  None
1023:.\Generated_Source\PSoC5/CyLib.c **** *
1024:.\Generated_Source\PSoC5/CyLib.c **** * Return:
1025:.\Generated_Source\PSoC5/CyLib.c **** *  None
ARM GAS  C:\Users\Yiquing\AppData\Local\Temp\ccsAoMV1.s 			page 36


1026:.\Generated_Source\PSoC5/CyLib.c **** *
1027:.\Generated_Source\PSoC5/CyLib.c **** *******************************************************************************/
1028:.\Generated_Source\PSoC5/CyLib.c **** void CyILO_Start100K(void) 
1029:.\Generated_Source\PSoC5/CyLib.c **** {
 893              		.loc 1 1029 0
 894              		.cfi_startproc
 895              		@ args = 0, pretend = 0, frame = 0
 896              		@ frame_needed = 0, uses_anonymous_args = 0
 897              		@ link register save eliminated.
1030:.\Generated_Source\PSoC5/CyLib.c ****     CY_LIB_SLOWCLK_ILO_CR0_REG |= CY_LIB_SLOWCLK_ILO_CR0_EN_100KHZ;
 898              		.loc 1 1030 0
 899 0000 024B     		ldr	r3, .L106
 900 0002 1A78     		ldrb	r2, [r3]	@ zero_extendqisi2
 901 0004 42F00402 		orr	r2, r2, #4
 902 0008 1A70     		strb	r2, [r3]
 903 000a 7047     		bx	lr
 904              	.L107:
 905              		.align	2
 906              	.L106:
 907 000c 00430040 		.word	1073758976
 908              		.cfi_endproc
 909              	.LFE19:
 910              		.size	CyILO_Start100K, .-CyILO_Start100K
 911              		.section	.text.CyILO_Stop100K,"ax",%progbits
 912              		.align	1
 913              		.global	CyILO_Stop100K
 914              		.thumb
 915              		.thumb_func
 916              		.type	CyILO_Stop100K, %function
 917              	CyILO_Stop100K:
 918              	.LFB20:
1031:.\Generated_Source\PSoC5/CyLib.c **** }
1032:.\Generated_Source\PSoC5/CyLib.c **** 
1033:.\Generated_Source\PSoC5/CyLib.c **** 
1034:.\Generated_Source\PSoC5/CyLib.c **** /*******************************************************************************
1035:.\Generated_Source\PSoC5/CyLib.c **** * Function Name: CyILO_Stop100K
1036:.\Generated_Source\PSoC5/CyLib.c **** ********************************************************************************
1037:.\Generated_Source\PSoC5/CyLib.c **** *
1038:.\Generated_Source\PSoC5/CyLib.c **** * Summary:
1039:.\Generated_Source\PSoC5/CyLib.c **** *  Disables the ILO 100 KHz oscillator.
1040:.\Generated_Source\PSoC5/CyLib.c **** *
1041:.\Generated_Source\PSoC5/CyLib.c **** * Parameters:
1042:.\Generated_Source\PSoC5/CyLib.c **** *  None
1043:.\Generated_Source\PSoC5/CyLib.c **** *
1044:.\Generated_Source\PSoC5/CyLib.c **** * Return:
1045:.\Generated_Source\PSoC5/CyLib.c **** *  None
1046:.\Generated_Source\PSoC5/CyLib.c **** *
1047:.\Generated_Source\PSoC5/CyLib.c **** *******************************************************************************/
1048:.\Generated_Source\PSoC5/CyLib.c **** void CyILO_Stop100K(void) 
1049:.\Generated_Source\PSoC5/CyLib.c **** {
 919              		.loc 1 1049 0
 920              		.cfi_startproc
 921              		@ args = 0, pretend = 0, frame = 0
 922              		@ frame_needed = 0, uses_anonymous_args = 0
 923              		@ link register save eliminated.
1050:.\Generated_Source\PSoC5/CyLib.c ****     CY_LIB_SLOWCLK_ILO_CR0_REG &= ((uint8)(~CY_LIB_SLOWCLK_ILO_CR0_EN_100KHZ));
 924              		.loc 1 1050 0
ARM GAS  C:\Users\Yiquing\AppData\Local\Temp\ccsAoMV1.s 			page 37


 925 0000 024B     		ldr	r3, .L109
 926 0002 1A78     		ldrb	r2, [r3]	@ zero_extendqisi2
 927 0004 02F0FB02 		and	r2, r2, #251
 928 0008 1A70     		strb	r2, [r3]
 929 000a 7047     		bx	lr
 930              	.L110:
 931              		.align	2
 932              	.L109:
 933 000c 00430040 		.word	1073758976
 934              		.cfi_endproc
 935              	.LFE20:
 936              		.size	CyILO_Stop100K, .-CyILO_Stop100K
 937              		.section	.text.CyPLL_OUT_Start,"ax",%progbits
 938              		.align	1
 939              		.global	CyPLL_OUT_Start
 940              		.thumb
 941              		.thumb_func
 942              		.type	CyPLL_OUT_Start, %function
 943              	CyPLL_OUT_Start:
 944              	.LFB0:
  96:.\Generated_Source\PSoC5/CyLib.c **** {
 945              		.loc 1 96 0
 946              		.cfi_startproc
 947              		@ args = 0, pretend = 0, frame = 0
 948              		@ frame_needed = 0, uses_anonymous_args = 0
 949              	.LVL49:
 950 0000 2DE9F041 		push	{r4, r5, r6, r7, r8, lr}
 951              		.cfi_def_cfa_offset 24
 952              		.cfi_offset 4, -24
 953              		.cfi_offset 5, -20
 954              		.cfi_offset 6, -16
 955              		.cfi_offset 7, -12
 956              		.cfi_offset 8, -8
 957              		.cfi_offset 14, -4
 105:.\Generated_Source\PSoC5/CyLib.c ****     CY_CLK_PLL_CFG0_REG |= CY_CLK_PLL_ENABLE;
 958              		.loc 1 105 0
 959 0004 194B     		ldr	r3, .L124
 960 0006 1A78     		ldrb	r2, [r3]	@ zero_extendqisi2
 961 0008 42F00102 		orr	r2, r2, #1
 962 000c 1A70     		strb	r2, [r3]
 107:.\Generated_Source\PSoC5/CyLib.c ****     if(wait != 0u)
 963              		.loc 1 107 0
 964 000e 40B3     		cbz	r0, .L118
 112:.\Generated_Source\PSoC5/CyLib.c ****         pmTwCfg2State = CY_LIB_PM_TW_CFG2_REG;
 965              		.loc 1 112 0
 966 0010 174C     		ldr	r4, .L124+4
 114:.\Generated_Source\PSoC5/CyLib.c ****         CyPmFtwSetInterval(CY_CLK_PLL_FTW_INTERVAL);
 967              		.loc 1 114 0
 968 0012 1820     		movs	r0, #24
 969              	.LVL50:
 110:.\Generated_Source\PSoC5/CyLib.c ****         iloEnableState = CY_LIB_SLOWCLK_ILO_CR0_REG & CY_LIB_SLOWCLK_ILO_CR0_EN_100KHZ;
 970              		.loc 1 110 0
 971 0014 93F8E080 		ldrb	r8, [r3, #224]	@ zero_extendqisi2
 111:.\Generated_Source\PSoC5/CyLib.c ****         pmTwCfg0State = CY_LIB_PM_TW_CFG0_REG;
 972              		.loc 1 111 0
 973 0018 93F86071 		ldrb	r7, [r3, #352]	@ zero_extendqisi2
 112:.\Generated_Source\PSoC5/CyLib.c ****         pmTwCfg2State = CY_LIB_PM_TW_CFG2_REG;
ARM GAS  C:\Users\Yiquing\AppData\Local\Temp\ccsAoMV1.s 			page 38


 974              		.loc 1 112 0
 975 001c 2678     		ldrb	r6, [r4]	@ zero_extendqisi2
 114:.\Generated_Source\PSoC5/CyLib.c ****         CyPmFtwSetInterval(CY_CLK_PLL_FTW_INTERVAL);
 976              		.loc 1 114 0
 977 001e FFF7FEFF 		bl	CyPmFtwSetInterval
 978              	.LVL51:
 110:.\Generated_Source\PSoC5/CyLib.c ****         iloEnableState = CY_LIB_SLOWCLK_ILO_CR0_REG & CY_LIB_SLOWCLK_ILO_CR0_EN_100KHZ;
 979              		.loc 1 110 0
 980 0022 08F00408 		and	r8, r8, #4
 981 0026 5FFA88F8 		uxtb	r8, r8
 982              	.LVL52:
 111:.\Generated_Source\PSoC5/CyLib.c ****         pmTwCfg0State = CY_LIB_PM_TW_CFG0_REG;
 983              		.loc 1 111 0
 984 002a FFB2     		uxtb	r7, r7
 985              	.LVL53:
 112:.\Generated_Source\PSoC5/CyLib.c ****         pmTwCfg2State = CY_LIB_PM_TW_CFG2_REG;
 986              		.loc 1 112 0
 987 002c F6B2     		uxtb	r6, r6
 988              	.LVL54:
 989 002e 2546     		mov	r5, r4
 990              	.L113:
 118:.\Generated_Source\PSoC5/CyLib.c ****         while(0u == (CY_PM_FTW_INT & CyPmReadStatus(CY_PM_FTW_INT)))
 991              		.loc 1 118 0 discriminator 1
 992 0030 0120     		movs	r0, #1
 993 0032 FFF7FEFF 		bl	CyPmReadStatus
 994              	.LVL55:
 995 0036 10F00100 		ands	r0, r0, #1
 996 003a 08D1     		bne	.L123
 121:.\Generated_Source\PSoC5/CyLib.c ****             if(0u != (CY_CLK_PLL_SR_REG & CY_CLK_PLL_LOCK_STATUS))
 997              		.loc 1 121 0
 998 003c 0D4B     		ldr	r3, .L124+8
 999 003e 1A78     		ldrb	r2, [r3]	@ zero_extendqisi2
 1000 0040 D207     		lsls	r2, r2, #31
 1001 0042 F5D5     		bpl	.L113
 123:.\Generated_Source\PSoC5/CyLib.c ****                 if(0u != (CY_CLK_PLL_SR_REG & CY_CLK_PLL_LOCK_STATUS))
 1002              		.loc 1 123 0
 1003 0044 1B78     		ldrb	r3, [r3]	@ zero_extendqisi2
 1004 0046 DB07     		lsls	r3, r3, #31
 1005 0048 F2D5     		bpl	.L113
 125:.\Generated_Source\PSoC5/CyLib.c ****                     status = CYRET_SUCCESS;
 1006              		.loc 1 125 0
 1007 004a 0446     		mov	r4, r0
 1008 004c 00E0     		b	.L115
 1009              	.L123:
 116:.\Generated_Source\PSoC5/CyLib.c ****         status = CYRET_TIMEOUT;
 1010              		.loc 1 116 0
 1011 004e 1024     		movs	r4, #16
 1012              	.L115:
 1013              	.LVL56:
 132:.\Generated_Source\PSoC5/CyLib.c ****         if(0u == iloEnableState)
 1014              		.loc 1 132 0
 1015 0050 B8F1000F 		cmp	r8, #0
 1016 0054 01D1     		bne	.L117
 134:.\Generated_Source\PSoC5/CyLib.c ****             CyILO_Stop100K();
 1017              		.loc 1 134 0
 1018 0056 FFF7FEFF 		bl	CyILO_Stop100K
 1019              	.LVL57:
ARM GAS  C:\Users\Yiquing\AppData\Local\Temp\ccsAoMV1.s 			page 39


 1020              	.L117:
 137:.\Generated_Source\PSoC5/CyLib.c ****         CY_LIB_PM_TW_CFG0_REG = pmTwCfg0State;
 1021              		.loc 1 137 0
 1022 005a 074B     		ldr	r3, .L124+12
 1023 005c 1F70     		strb	r7, [r3]
 138:.\Generated_Source\PSoC5/CyLib.c ****         CY_LIB_PM_TW_CFG2_REG = pmTwCfg2State;
 1024              		.loc 1 138 0
 1025 005e 2E70     		strb	r6, [r5]
 1026 0060 00E0     		b	.L112
 1027              	.LVL58:
 1028              	.L118:
  97:.\Generated_Source\PSoC5/CyLib.c ****     cystatus status = CYRET_SUCCESS;
 1029              		.loc 1 97 0
 1030 0062 0446     		mov	r4, r0
 1031              	.LVL59:
 1032              	.L112:
 142:.\Generated_Source\PSoC5/CyLib.c **** }
 1033              		.loc 1 142 0
 1034 0064 2046     		mov	r0, r4
 1035 0066 BDE8F081 		pop	{r4, r5, r6, r7, r8, pc}
 1036              	.LVL60:
 1037              	.L125:
 1038 006a 00BF     		.align	2
 1039              	.L124:
 1040 006c 20420040 		.word	1073758752
 1041 0070 82430040 		.word	1073759106
 1042 0074 25420040 		.word	1073758757
 1043 0078 80430040 		.word	1073759104
 1044              		.cfi_endproc
 1045              	.LFE0:
 1046              		.size	CyPLL_OUT_Start, .-CyPLL_OUT_Start
 1047              		.section	.text.CyIMO_Start,"ax",%progbits
 1048              		.align	1
 1049              		.global	CyIMO_Start
 1050              		.thumb
 1051              		.thumb_func
 1052              		.type	CyIMO_Start, %function
 1053              	CyIMO_Start:
 1054              	.LFB4:
 303:.\Generated_Source\PSoC5/CyLib.c **** {
 1055              		.loc 1 303 0
 1056              		.cfi_startproc
 1057              		@ args = 0, pretend = 0, frame = 0
 1058              		@ frame_needed = 0, uses_anonymous_args = 0
 1059              	.LVL61:
 1060 0000 F8B5     		push	{r3, r4, r5, r6, r7, lr}
 1061              		.cfi_def_cfa_offset 24
 1062              		.cfi_offset 3, -24
 1063              		.cfi_offset 4, -20
 1064              		.cfi_offset 5, -16
 1065              		.cfi_offset 6, -12
 1066              		.cfi_offset 7, -8
 1067              		.cfi_offset 14, -4
 309:.\Generated_Source\PSoC5/CyLib.c ****     CY_LIB_PM_ACT_CFG0_REG  |= CY_LIB_PM_ACT_CFG0_IMO_EN;
 1068              		.loc 1 309 0
 1069 0002 134B     		ldr	r3, .L134
 1070 0004 1A78     		ldrb	r2, [r3]	@ zero_extendqisi2
ARM GAS  C:\Users\Yiquing\AppData\Local\Temp\ccsAoMV1.s 			page 40


 310:.\Generated_Source\PSoC5/CyLib.c ****     CY_LIB_PM_STBY_CFG0_REG |= CY_LIB_PM_STBY_CFG0_IMO_EN;
 1071              		.loc 1 310 0
 1072 0006 1033     		adds	r3, r3, #16
 309:.\Generated_Source\PSoC5/CyLib.c ****     CY_LIB_PM_ACT_CFG0_REG  |= CY_LIB_PM_ACT_CFG0_IMO_EN;
 1073              		.loc 1 309 0
 1074 0008 42F01002 		orr	r2, r2, #16
 1075 000c 03F8102C 		strb	r2, [r3, #-16]
 310:.\Generated_Source\PSoC5/CyLib.c ****     CY_LIB_PM_STBY_CFG0_REG |= CY_LIB_PM_STBY_CFG0_IMO_EN;
 1076              		.loc 1 310 0
 1077 0010 1A78     		ldrb	r2, [r3]	@ zero_extendqisi2
 1078 0012 42F01002 		orr	r2, r2, #16
 1079 0016 1A70     		strb	r2, [r3]
 312:.\Generated_Source\PSoC5/CyLib.c ****     if(0u != wait)
 1080              		.loc 1 312 0
 1081 0018 C0B1     		cbz	r0, .L126
 317:.\Generated_Source\PSoC5/CyLib.c ****         pmFtwCfg2Reg = CY_LIB_PM_TW_CFG2_REG;
 1082              		.loc 1 317 0
 1083 001a 0E4C     		ldr	r4, .L134+4
 315:.\Generated_Source\PSoC5/CyLib.c ****         ilo100KhzEnable = CY_LIB_SLOWCLK_ILO_CR0_REG & CY_LIB_SLOWCLK_ILO_CR0_EN_100KHZ;
 1084              		.loc 1 315 0
 1085 001c 13F8B07C 		ldrb	r7, [r3, #-176]	@ zero_extendqisi2
 316:.\Generated_Source\PSoC5/CyLib.c ****         pmFtwCfg0Reg = CY_LIB_PM_TW_CFG0_REG;
 1086              		.loc 1 316 0
 1087 0020 13F8306C 		ldrb	r6, [r3, #-48]	@ zero_extendqisi2
 317:.\Generated_Source\PSoC5/CyLib.c ****         pmFtwCfg2Reg = CY_LIB_PM_TW_CFG2_REG;
 1088              		.loc 1 317 0
 1089 0024 2578     		ldrb	r5, [r4]	@ zero_extendqisi2
 315:.\Generated_Source\PSoC5/CyLib.c ****         ilo100KhzEnable = CY_LIB_SLOWCLK_ILO_CR0_REG & CY_LIB_SLOWCLK_ILO_CR0_EN_100KHZ;
 1090              		.loc 1 315 0
 1091 0026 07F00407 		and	r7, r7, #4
 319:.\Generated_Source\PSoC5/CyLib.c ****         CyPmFtwSetInterval(CY_LIB_CLK_IMO_FTW_TIMEOUT);
 1092              		.loc 1 319 0
 1093 002a 0020     		movs	r0, #0
 1094              	.LVL62:
 315:.\Generated_Source\PSoC5/CyLib.c ****         ilo100KhzEnable = CY_LIB_SLOWCLK_ILO_CR0_REG & CY_LIB_SLOWCLK_ILO_CR0_EN_100KHZ;
 1095              		.loc 1 315 0
 1096 002c FFB2     		uxtb	r7, r7
 1097              	.LVL63:
 316:.\Generated_Source\PSoC5/CyLib.c ****         pmFtwCfg0Reg = CY_LIB_PM_TW_CFG0_REG;
 1098              		.loc 1 316 0
 1099 002e F6B2     		uxtb	r6, r6
 1100              	.LVL64:
 317:.\Generated_Source\PSoC5/CyLib.c ****         pmFtwCfg2Reg = CY_LIB_PM_TW_CFG2_REG;
 1101              		.loc 1 317 0
 1102 0030 EDB2     		uxtb	r5, r5
 1103              	.LVL65:
 319:.\Generated_Source\PSoC5/CyLib.c ****         CyPmFtwSetInterval(CY_LIB_CLK_IMO_FTW_TIMEOUT);
 1104              		.loc 1 319 0
 1105 0032 FFF7FEFF 		bl	CyPmFtwSetInterval
 1106              	.LVL66:
 1107              	.L129:
 321:.\Generated_Source\PSoC5/CyLib.c ****         while (0u == (CY_PM_FTW_INT & CyPmReadStatus(CY_PM_FTW_INT)))
 1108              		.loc 1 321 0 discriminator 1
 1109 0036 0120     		movs	r0, #1
 1110 0038 FFF7FEFF 		bl	CyPmReadStatus
 1111              	.LVL67:
 1112 003c C307     		lsls	r3, r0, #31
ARM GAS  C:\Users\Yiquing\AppData\Local\Temp\ccsAoMV1.s 			page 41


 1113 003e FAD5     		bpl	.L129
 326:.\Generated_Source\PSoC5/CyLib.c ****         if(0u == ilo100KhzEnable)
 1114              		.loc 1 326 0
 1115 0040 0FB9     		cbnz	r7, .L130
 328:.\Generated_Source\PSoC5/CyLib.c ****             CyILO_Stop100K();
 1116              		.loc 1 328 0
 1117 0042 FFF7FEFF 		bl	CyILO_Stop100K
 1118              	.LVL68:
 1119              	.L130:
 331:.\Generated_Source\PSoC5/CyLib.c ****         CY_LIB_PM_TW_CFG0_REG = pmFtwCfg0Reg;
 1120              		.loc 1 331 0
 1121 0046 044B     		ldr	r3, .L134+8
 1122 0048 1E70     		strb	r6, [r3]
 332:.\Generated_Source\PSoC5/CyLib.c ****         CY_LIB_PM_TW_CFG2_REG = pmFtwCfg2Reg;
 1123              		.loc 1 332 0
 1124 004a 2570     		strb	r5, [r4]
 1125              	.LVL69:
 1126              	.L126:
 1127 004c F8BD     		pop	{r3, r4, r5, r6, r7, pc}
 1128              	.L135:
 1129 004e 00BF     		.align	2
 1130              	.L134:
 1131 0050 A0430040 		.word	1073759136
 1132 0054 82430040 		.word	1073759106
 1133 0058 80430040 		.word	1073759104
 1134              		.cfi_endproc
 1135              	.LFE4:
 1136              		.size	CyIMO_Start, .-CyIMO_Start
 1137              		.section	.text.CyILO_Enable33K,"ax",%progbits
 1138              		.align	1
 1139              		.global	CyILO_Enable33K
 1140              		.thumb
 1141              		.thumb_func
 1142              		.type	CyILO_Enable33K, %function
 1143              	CyILO_Enable33K:
 1144              	.LFB21:
1051:.\Generated_Source\PSoC5/CyLib.c **** }
1052:.\Generated_Source\PSoC5/CyLib.c **** 
1053:.\Generated_Source\PSoC5/CyLib.c **** 
1054:.\Generated_Source\PSoC5/CyLib.c **** /*******************************************************************************
1055:.\Generated_Source\PSoC5/CyLib.c **** * Function Name: CyILO_Enable33K
1056:.\Generated_Source\PSoC5/CyLib.c **** ********************************************************************************
1057:.\Generated_Source\PSoC5/CyLib.c **** *
1058:.\Generated_Source\PSoC5/CyLib.c **** * Summary:
1059:.\Generated_Source\PSoC5/CyLib.c **** *  Enables the ILO 33 KHz divider.
1060:.\Generated_Source\PSoC5/CyLib.c **** *
1061:.\Generated_Source\PSoC5/CyLib.c **** *  Note that the 33 KHz clock is generated from the 100 KHz oscillator,
1062:.\Generated_Source\PSoC5/CyLib.c **** *  so it must also be running in order to generate the 33 KHz output.
1063:.\Generated_Source\PSoC5/CyLib.c **** *
1064:.\Generated_Source\PSoC5/CyLib.c **** * Parameters:
1065:.\Generated_Source\PSoC5/CyLib.c **** *  None
1066:.\Generated_Source\PSoC5/CyLib.c **** *
1067:.\Generated_Source\PSoC5/CyLib.c **** * Return:
1068:.\Generated_Source\PSoC5/CyLib.c **** *  None
1069:.\Generated_Source\PSoC5/CyLib.c **** *
1070:.\Generated_Source\PSoC5/CyLib.c **** *******************************************************************************/
1071:.\Generated_Source\PSoC5/CyLib.c **** void CyILO_Enable33K(void) 
ARM GAS  C:\Users\Yiquing\AppData\Local\Temp\ccsAoMV1.s 			page 42


1072:.\Generated_Source\PSoC5/CyLib.c **** {
 1145              		.loc 1 1072 0
 1146              		.cfi_startproc
 1147              		@ args = 0, pretend = 0, frame = 0
 1148              		@ frame_needed = 0, uses_anonymous_args = 0
 1149              		@ link register save eliminated.
1073:.\Generated_Source\PSoC5/CyLib.c ****     /* Set bit 5 of ILO RS */
1074:.\Generated_Source\PSoC5/CyLib.c ****     CY_LIB_SLOWCLK_ILO_CR0_REG |= CY_LIB_SLOWCLK_ILO_CR0_EN_33KHZ;
 1150              		.loc 1 1074 0
 1151 0000 024B     		ldr	r3, .L137
 1152 0002 1A78     		ldrb	r2, [r3]	@ zero_extendqisi2
 1153 0004 42F02002 		orr	r2, r2, #32
 1154 0008 1A70     		strb	r2, [r3]
 1155 000a 7047     		bx	lr
 1156              	.L138:
 1157              		.align	2
 1158              	.L137:
 1159 000c 00430040 		.word	1073758976
 1160              		.cfi_endproc
 1161              	.LFE21:
 1162              		.size	CyILO_Enable33K, .-CyILO_Enable33K
 1163              		.section	.text.CyILO_Disable33K,"ax",%progbits
 1164              		.align	1
 1165              		.global	CyILO_Disable33K
 1166              		.thumb
 1167              		.thumb_func
 1168              		.type	CyILO_Disable33K, %function
 1169              	CyILO_Disable33K:
 1170              	.LFB22:
1075:.\Generated_Source\PSoC5/CyLib.c **** }
1076:.\Generated_Source\PSoC5/CyLib.c **** 
1077:.\Generated_Source\PSoC5/CyLib.c **** 
1078:.\Generated_Source\PSoC5/CyLib.c **** /*******************************************************************************
1079:.\Generated_Source\PSoC5/CyLib.c **** * Function Name: CyILO_Disable33K
1080:.\Generated_Source\PSoC5/CyLib.c **** ********************************************************************************
1081:.\Generated_Source\PSoC5/CyLib.c **** *
1082:.\Generated_Source\PSoC5/CyLib.c **** * Summary:
1083:.\Generated_Source\PSoC5/CyLib.c **** *  Disables the ILO 33 KHz divider.
1084:.\Generated_Source\PSoC5/CyLib.c **** *
1085:.\Generated_Source\PSoC5/CyLib.c **** *  Note that the 33 KHz clock is generated from the 100 KHz oscillator, but this
1086:.\Generated_Source\PSoC5/CyLib.c **** *  API does not disable the 100 KHz clock.
1087:.\Generated_Source\PSoC5/CyLib.c **** *
1088:.\Generated_Source\PSoC5/CyLib.c **** * Parameters:
1089:.\Generated_Source\PSoC5/CyLib.c **** *  None
1090:.\Generated_Source\PSoC5/CyLib.c **** *
1091:.\Generated_Source\PSoC5/CyLib.c **** * Return:
1092:.\Generated_Source\PSoC5/CyLib.c **** *  None
1093:.\Generated_Source\PSoC5/CyLib.c **** *
1094:.\Generated_Source\PSoC5/CyLib.c **** *******************************************************************************/
1095:.\Generated_Source\PSoC5/CyLib.c **** void CyILO_Disable33K(void) 
1096:.\Generated_Source\PSoC5/CyLib.c **** {
 1171              		.loc 1 1096 0
 1172              		.cfi_startproc
 1173              		@ args = 0, pretend = 0, frame = 0
 1174              		@ frame_needed = 0, uses_anonymous_args = 0
 1175              		@ link register save eliminated.
1097:.\Generated_Source\PSoC5/CyLib.c ****     CY_LIB_SLOWCLK_ILO_CR0_REG &= ((uint8)(~CY_LIB_SLOWCLK_ILO_CR0_EN_33KHZ));
ARM GAS  C:\Users\Yiquing\AppData\Local\Temp\ccsAoMV1.s 			page 43


 1176              		.loc 1 1097 0
 1177 0000 024B     		ldr	r3, .L140
 1178 0002 1A78     		ldrb	r2, [r3]	@ zero_extendqisi2
 1179 0004 02F0DF02 		and	r2, r2, #223
 1180 0008 1A70     		strb	r2, [r3]
 1181 000a 7047     		bx	lr
 1182              	.L141:
 1183              		.align	2
 1184              	.L140:
 1185 000c 00430040 		.word	1073758976
 1186              		.cfi_endproc
 1187              	.LFE22:
 1188              		.size	CyILO_Disable33K, .-CyILO_Disable33K
 1189              		.section	.text.CyILO_SetSource,"ax",%progbits
 1190              		.align	1
 1191              		.global	CyILO_SetSource
 1192              		.thumb
 1193              		.thumb_func
 1194              		.type	CyILO_SetSource, %function
 1195              	CyILO_SetSource:
 1196              	.LFB23:
1098:.\Generated_Source\PSoC5/CyLib.c **** }
1099:.\Generated_Source\PSoC5/CyLib.c **** 
1100:.\Generated_Source\PSoC5/CyLib.c **** 
1101:.\Generated_Source\PSoC5/CyLib.c **** /*******************************************************************************
1102:.\Generated_Source\PSoC5/CyLib.c **** * Function Name: CyILO_SetSource
1103:.\Generated_Source\PSoC5/CyLib.c **** ********************************************************************************
1104:.\Generated_Source\PSoC5/CyLib.c **** *
1105:.\Generated_Source\PSoC5/CyLib.c **** * Summary:
1106:.\Generated_Source\PSoC5/CyLib.c **** *  Sets the source of the clock output from the ILO block.
1107:.\Generated_Source\PSoC5/CyLib.c **** *
1108:.\Generated_Source\PSoC5/CyLib.c **** * Parameters:
1109:.\Generated_Source\PSoC5/CyLib.c **** *  source: One of the three available ILO output sources
1110:.\Generated_Source\PSoC5/CyLib.c **** *       Value        Define                Source
1111:.\Generated_Source\PSoC5/CyLib.c **** *       0            CY_ILO_SOURCE_100K    ILO 100 KHz
1112:.\Generated_Source\PSoC5/CyLib.c **** *       1            CY_ILO_SOURCE_33K     ILO 33 KHz
1113:.\Generated_Source\PSoC5/CyLib.c **** *       2            CY_ILO_SOURCE_1K      ILO 1 KHz
1114:.\Generated_Source\PSoC5/CyLib.c **** *
1115:.\Generated_Source\PSoC5/CyLib.c **** * Return:
1116:.\Generated_Source\PSoC5/CyLib.c **** *  None
1117:.\Generated_Source\PSoC5/CyLib.c **** *
1118:.\Generated_Source\PSoC5/CyLib.c **** *******************************************************************************/
1119:.\Generated_Source\PSoC5/CyLib.c **** void CyILO_SetSource(uint8 source) 
1120:.\Generated_Source\PSoC5/CyLib.c **** {
 1197              		.loc 1 1120 0
 1198              		.cfi_startproc
 1199              		@ args = 0, pretend = 0, frame = 0
 1200              		@ frame_needed = 0, uses_anonymous_args = 0
 1201              		@ link register save eliminated.
 1202              	.LVL70:
1121:.\Generated_Source\PSoC5/CyLib.c ****     CY_LIB_CLKDIST_CR_REG = (CY_LIB_CLKDIST_CR_REG & CY_ILO_SOURCE_BITS_CLEAR) |
 1203              		.loc 1 1121 0
 1204 0000 4FF04023 		mov	r3, #1073758208
 1205 0004 1A78     		ldrb	r2, [r3]	@ zero_extendqisi2
1122:.\Generated_Source\PSoC5/CyLib.c ****                     (((uint8) (source << 2u)) & ((uint8)(~CY_ILO_SOURCE_BITS_CLEAR)));
 1206              		.loc 1 1122 0
 1207 0006 8000     		lsls	r0, r0, #2
ARM GAS  C:\Users\Yiquing\AppData\Local\Temp\ccsAoMV1.s 			page 44


 1208              	.LVL71:
1121:.\Generated_Source\PSoC5/CyLib.c ****     CY_LIB_CLKDIST_CR_REG = (CY_LIB_CLKDIST_CR_REG & CY_ILO_SOURCE_BITS_CLEAR) |
 1209              		.loc 1 1121 0
 1210 0008 00F00C00 		and	r0, r0, #12
 1211 000c 02F0F302 		and	r2, r2, #243
 1212 0010 0243     		orrs	r2, r2, r0
 1213 0012 1A70     		strb	r2, [r3]
 1214 0014 7047     		bx	lr
 1215              		.cfi_endproc
 1216              	.LFE23:
 1217              		.size	CyILO_SetSource, .-CyILO_SetSource
 1218              		.section	.text.CyILO_SetPowerMode,"ax",%progbits
 1219              		.align	1
 1220              		.global	CyILO_SetPowerMode
 1221              		.thumb
 1222              		.thumb_func
 1223              		.type	CyILO_SetPowerMode, %function
 1224              	CyILO_SetPowerMode:
 1225              	.LFB24:
1123:.\Generated_Source\PSoC5/CyLib.c **** }
1124:.\Generated_Source\PSoC5/CyLib.c **** 
1125:.\Generated_Source\PSoC5/CyLib.c **** 
1126:.\Generated_Source\PSoC5/CyLib.c **** /*******************************************************************************
1127:.\Generated_Source\PSoC5/CyLib.c **** * Function Name: CyILO_SetPowerMode
1128:.\Generated_Source\PSoC5/CyLib.c **** ********************************************************************************
1129:.\Generated_Source\PSoC5/CyLib.c **** *
1130:.\Generated_Source\PSoC5/CyLib.c **** * Summary:
1131:.\Generated_Source\PSoC5/CyLib.c **** *  Sets the power mode used by the ILO during power down. Allows for lower power
1132:.\Generated_Source\PSoC5/CyLib.c **** *  down power usage resulting in a slower startup time.
1133:.\Generated_Source\PSoC5/CyLib.c **** *
1134:.\Generated_Source\PSoC5/CyLib.c **** * Parameters:
1135:.\Generated_Source\PSoC5/CyLib.c **** *  uint8 mode
1136:.\Generated_Source\PSoC5/CyLib.c **** *   CY_ILO_FAST_START - Faster start-up, internal bias left on when powered down
1137:.\Generated_Source\PSoC5/CyLib.c **** *   CY_ILO_SLOW_START - Slower start-up, internal bias off when powered down
1138:.\Generated_Source\PSoC5/CyLib.c **** *
1139:.\Generated_Source\PSoC5/CyLib.c **** * Return:
1140:.\Generated_Source\PSoC5/CyLib.c **** *   Prevous power mode state.
1141:.\Generated_Source\PSoC5/CyLib.c **** *
1142:.\Generated_Source\PSoC5/CyLib.c **** *******************************************************************************/
1143:.\Generated_Source\PSoC5/CyLib.c **** uint8 CyILO_SetPowerMode(uint8 mode) 
1144:.\Generated_Source\PSoC5/CyLib.c **** {
 1226              		.loc 1 1144 0
 1227              		.cfi_startproc
 1228              		@ args = 0, pretend = 0, frame = 0
 1229              		@ frame_needed = 0, uses_anonymous_args = 0
 1230              		@ link register save eliminated.
 1231              	.LVL72:
1145:.\Generated_Source\PSoC5/CyLib.c ****     uint8 state;
1146:.\Generated_Source\PSoC5/CyLib.c **** 
1147:.\Generated_Source\PSoC5/CyLib.c ****     /* Get current state. */
1148:.\Generated_Source\PSoC5/CyLib.c ****     state = CY_LIB_SLOWCLK_ILO_CR0_REG;
 1232              		.loc 1 1148 0
 1233 0000 064A     		ldr	r2, .L147
 1234 0002 1378     		ldrb	r3, [r2]	@ zero_extendqisi2
 1235 0004 DBB2     		uxtb	r3, r3
 1236              	.LVL73:
1149:.\Generated_Source\PSoC5/CyLib.c **** 
ARM GAS  C:\Users\Yiquing\AppData\Local\Temp\ccsAoMV1.s 			page 45


1150:.\Generated_Source\PSoC5/CyLib.c ****     /* Set the oscillator power mode. */
1151:.\Generated_Source\PSoC5/CyLib.c ****     if(mode != CY_ILO_FAST_START)
 1237              		.loc 1 1151 0
 1238 0006 10B1     		cbz	r0, .L144
1152:.\Generated_Source\PSoC5/CyLib.c ****     {
1153:.\Generated_Source\PSoC5/CyLib.c ****         CY_LIB_SLOWCLK_ILO_CR0_REG = (state | CY_ILO_CONTROL_PD_MODE);
 1239              		.loc 1 1153 0
 1240 0008 43F01001 		orr	r1, r3, #16
 1241 000c 01E0     		b	.L146
 1242              	.L144:
1154:.\Generated_Source\PSoC5/CyLib.c ****     }
1155:.\Generated_Source\PSoC5/CyLib.c ****     else
1156:.\Generated_Source\PSoC5/CyLib.c ****     {
1157:.\Generated_Source\PSoC5/CyLib.c ****         CY_LIB_SLOWCLK_ILO_CR0_REG = (state & ((uint8)(~CY_ILO_CONTROL_PD_MODE)));
 1243              		.loc 1 1157 0
 1244 000e 03F0EF01 		and	r1, r3, #239
 1245              	.L146:
 1246 0012 1170     		strb	r1, [r2]
1158:.\Generated_Source\PSoC5/CyLib.c ****     }
1159:.\Generated_Source\PSoC5/CyLib.c **** 
1160:.\Generated_Source\PSoC5/CyLib.c ****     /* Return old mode. */
1161:.\Generated_Source\PSoC5/CyLib.c ****     return ((state & CY_ILO_CONTROL_PD_MODE) >> CY_ILO_CONTROL_PD_POSITION);
1162:.\Generated_Source\PSoC5/CyLib.c **** }
 1247              		.loc 1 1162 0
 1248 0014 C3F30010 		ubfx	r0, r3, #4, #1
 1249              	.LVL74:
 1250 0018 7047     		bx	lr
 1251              	.L148:
 1252 001a 00BF     		.align	2
 1253              	.L147:
 1254 001c 00430040 		.word	1073758976
 1255              		.cfi_endproc
 1256              	.LFE24:
 1257              		.size	CyILO_SetPowerMode, .-CyILO_SetPowerMode
 1258              		.section	.text.CyXTAL_32KHZ_Stop,"ax",%progbits
 1259              		.align	1
 1260              		.global	CyXTAL_32KHZ_Stop
 1261              		.thumb
 1262              		.thumb_func
 1263              		.type	CyXTAL_32KHZ_Stop, %function
 1264              	CyXTAL_32KHZ_Stop:
 1265              	.LFB26:
1163:.\Generated_Source\PSoC5/CyLib.c **** 
1164:.\Generated_Source\PSoC5/CyLib.c **** 
1165:.\Generated_Source\PSoC5/CyLib.c **** /*******************************************************************************
1166:.\Generated_Source\PSoC5/CyLib.c **** * Function Name: CyXTAL_32KHZ_Start
1167:.\Generated_Source\PSoC5/CyLib.c **** ********************************************************************************
1168:.\Generated_Source\PSoC5/CyLib.c **** *
1169:.\Generated_Source\PSoC5/CyLib.c **** * Summary:
1170:.\Generated_Source\PSoC5/CyLib.c **** *  Enables the 32 KHz Crystal Oscillator.
1171:.\Generated_Source\PSoC5/CyLib.c **** *
1172:.\Generated_Source\PSoC5/CyLib.c **** * Parameters:
1173:.\Generated_Source\PSoC5/CyLib.c **** *  None
1174:.\Generated_Source\PSoC5/CyLib.c **** *
1175:.\Generated_Source\PSoC5/CyLib.c **** * Return:
1176:.\Generated_Source\PSoC5/CyLib.c **** *  None
1177:.\Generated_Source\PSoC5/CyLib.c **** *
ARM GAS  C:\Users\Yiquing\AppData\Local\Temp\ccsAoMV1.s 			page 46


1178:.\Generated_Source\PSoC5/CyLib.c **** *******************************************************************************/
1179:.\Generated_Source\PSoC5/CyLib.c **** void CyXTAL_32KHZ_Start(void) 
1180:.\Generated_Source\PSoC5/CyLib.c **** {
1181:.\Generated_Source\PSoC5/CyLib.c ****     volatile uint16 i;
1182:.\Generated_Source\PSoC5/CyLib.c **** 
1183:.\Generated_Source\PSoC5/CyLib.c ****     CY_CLK_XTAL32_TST_REG = CY_CLK_XTAL32_TST_DEFAULT;
1184:.\Generated_Source\PSoC5/CyLib.c ****     CY_CLK_XTAL32_TR_REG  = CY_CLK_XTAL32_TR_STARTUP;
1185:.\Generated_Source\PSoC5/CyLib.c ****     CY_CLK_XTAL32_CFG_REG = (CY_CLK_XTAL32_CFG_REG & ((uint8)(~CY_CLK_XTAL32_CFG_LP_MASK))) |
1186:.\Generated_Source\PSoC5/CyLib.c ****                                 CY_CLK_XTAL32_CFG_LP_DEFAULT;
1187:.\Generated_Source\PSoC5/CyLib.c **** 
1188:.\Generated_Source\PSoC5/CyLib.c ****     #if(CY_PSOC3)
1189:.\Generated_Source\PSoC5/CyLib.c ****         CY_CLK_XTAL32_CR_REG |= CY_CLK_XTAL32_CR_PDBEN;
1190:.\Generated_Source\PSoC5/CyLib.c ****     #endif  /* (CY_PSOC3) */
1191:.\Generated_Source\PSoC5/CyLib.c **** 
1192:.\Generated_Source\PSoC5/CyLib.c ****     /* Enable operation of 32K Crystal Oscillator */
1193:.\Generated_Source\PSoC5/CyLib.c ****     CY_CLK_XTAL32_CR_REG |= CY_CLK_XTAL32_CR_EN;
1194:.\Generated_Source\PSoC5/CyLib.c **** 
1195:.\Generated_Source\PSoC5/CyLib.c ****     for (i = 1000u; i > 0u; i--)
1196:.\Generated_Source\PSoC5/CyLib.c ****     {
1197:.\Generated_Source\PSoC5/CyLib.c ****         if(0u != (CyXTAL_32KHZ_ReadStatus() & CY_XTAL32K_ANA_STAT))
1198:.\Generated_Source\PSoC5/CyLib.c ****         {
1199:.\Generated_Source\PSoC5/CyLib.c ****             /* Ready - switch to high power mode */
1200:.\Generated_Source\PSoC5/CyLib.c ****             (void) CyXTAL_32KHZ_SetPowerMode(0u);
1201:.\Generated_Source\PSoC5/CyLib.c **** 
1202:.\Generated_Source\PSoC5/CyLib.c ****             break;
1203:.\Generated_Source\PSoC5/CyLib.c ****         }
1204:.\Generated_Source\PSoC5/CyLib.c ****         CyDelayUs(1u);
1205:.\Generated_Source\PSoC5/CyLib.c ****     }
1206:.\Generated_Source\PSoC5/CyLib.c **** }
1207:.\Generated_Source\PSoC5/CyLib.c **** 
1208:.\Generated_Source\PSoC5/CyLib.c **** 
1209:.\Generated_Source\PSoC5/CyLib.c **** /*******************************************************************************
1210:.\Generated_Source\PSoC5/CyLib.c **** * Function Name: CyXTAL_32KHZ_Stop
1211:.\Generated_Source\PSoC5/CyLib.c **** ********************************************************************************
1212:.\Generated_Source\PSoC5/CyLib.c **** *
1213:.\Generated_Source\PSoC5/CyLib.c **** * Summary:
1214:.\Generated_Source\PSoC5/CyLib.c **** *  Disables the 32KHz Crystal Oscillator.
1215:.\Generated_Source\PSoC5/CyLib.c **** *
1216:.\Generated_Source\PSoC5/CyLib.c **** * Parameters:
1217:.\Generated_Source\PSoC5/CyLib.c **** *  None
1218:.\Generated_Source\PSoC5/CyLib.c **** *
1219:.\Generated_Source\PSoC5/CyLib.c **** * Return:
1220:.\Generated_Source\PSoC5/CyLib.c **** *  None
1221:.\Generated_Source\PSoC5/CyLib.c **** *
1222:.\Generated_Source\PSoC5/CyLib.c **** *******************************************************************************/
1223:.\Generated_Source\PSoC5/CyLib.c **** void CyXTAL_32KHZ_Stop(void) 
1224:.\Generated_Source\PSoC5/CyLib.c **** {
 1266              		.loc 1 1224 0
 1267              		.cfi_startproc
 1268              		@ args = 0, pretend = 0, frame = 0
 1269              		@ frame_needed = 0, uses_anonymous_args = 0
 1270              		@ link register save eliminated.
1225:.\Generated_Source\PSoC5/CyLib.c ****     CY_CLK_XTAL32_TST_REG  = CY_CLK_XTAL32_TST_DEFAULT;
 1271              		.loc 1 1225 0
 1272 0000 094B     		ldr	r3, .L150
 1273 0002 F322     		movs	r2, #243
 1274 0004 1A70     		strb	r2, [r3]
ARM GAS  C:\Users\Yiquing\AppData\Local\Temp\ccsAoMV1.s 			page 47


1226:.\Generated_Source\PSoC5/CyLib.c ****     CY_CLK_XTAL32_TR_REG   = CY_CLK_XTAL32_TR_POWERDOWN;
 1275              		.loc 1 1226 0
 1276 0006 0022     		movs	r2, #0
 1277 0008 83F88E23 		strb	r2, [r3, #910]
1227:.\Generated_Source\PSoC5/CyLib.c ****     CY_CLK_XTAL32_CFG_REG = (CY_CLK_XTAL32_CFG_REG & ((uint8)(~CY_CLK_XTAL32_CFG_LP_MASK))) |
 1278              		.loc 1 1227 0
 1279 000c 013B     		subs	r3, r3, #1
 1280 000e 1A78     		ldrb	r2, [r3]	@ zero_extendqisi2
 1281 0010 02F0F302 		and	r2, r2, #243
 1282 0014 42F00402 		orr	r2, r2, #4
 1283 0018 1A70     		strb	r2, [r3]
1228:.\Generated_Source\PSoC5/CyLib.c ****                              CY_CLK_XTAL32_CFG_LP_DEFAULT;
1229:.\Generated_Source\PSoC5/CyLib.c ****     CY_CLK_XTAL32_CR_REG &= ((uint8)(~(CY_CLK_XTAL32_CR_EN | CY_CLK_XTAL32_CR_LPM)));
 1284              		.loc 1 1229 0
 1285 001a 13F8012C 		ldrb	r2, [r3, #-1]	@ zero_extendqisi2
 1286 001e 02F0FC02 		and	r2, r2, #252
 1287 0022 03F8012C 		strb	r2, [r3, #-1]
 1288 0026 7047     		bx	lr
 1289              	.L151:
 1290              		.align	2
 1291              	.L150:
 1292 0028 0A430040 		.word	1073758986
 1293              		.cfi_endproc
 1294              	.LFE26:
 1295              		.size	CyXTAL_32KHZ_Stop, .-CyXTAL_32KHZ_Stop
 1296              		.section	.text.CyXTAL_32KHZ_ReadStatus,"ax",%progbits
 1297              		.align	1
 1298              		.global	CyXTAL_32KHZ_ReadStatus
 1299              		.thumb
 1300              		.thumb_func
 1301              		.type	CyXTAL_32KHZ_ReadStatus, %function
 1302              	CyXTAL_32KHZ_ReadStatus:
 1303              	.LFB27:
1230:.\Generated_Source\PSoC5/CyLib.c **** 
1231:.\Generated_Source\PSoC5/CyLib.c ****     #if(CY_PSOC3)
1232:.\Generated_Source\PSoC5/CyLib.c ****         CY_CLK_XTAL32_CR_REG &= ((uint8)(~CY_CLK_XTAL32_CR_PDBEN));
1233:.\Generated_Source\PSoC5/CyLib.c ****     #endif  /* (CY_PSOC3) */
1234:.\Generated_Source\PSoC5/CyLib.c **** }
1235:.\Generated_Source\PSoC5/CyLib.c **** 
1236:.\Generated_Source\PSoC5/CyLib.c **** 
1237:.\Generated_Source\PSoC5/CyLib.c **** /*******************************************************************************
1238:.\Generated_Source\PSoC5/CyLib.c **** * Function Name: CyXTAL_32KHZ_ReadStatus
1239:.\Generated_Source\PSoC5/CyLib.c **** ********************************************************************************
1240:.\Generated_Source\PSoC5/CyLib.c **** *
1241:.\Generated_Source\PSoC5/CyLib.c **** * Summary:
1242:.\Generated_Source\PSoC5/CyLib.c **** *  Returns status of the 32 KHz oscillator.
1243:.\Generated_Source\PSoC5/CyLib.c **** *
1244:.\Generated_Source\PSoC5/CyLib.c **** * Parameters:
1245:.\Generated_Source\PSoC5/CyLib.c **** *  None
1246:.\Generated_Source\PSoC5/CyLib.c **** *
1247:.\Generated_Source\PSoC5/CyLib.c **** * Return:
1248:.\Generated_Source\PSoC5/CyLib.c **** *  Value     Define                    Source
1249:.\Generated_Source\PSoC5/CyLib.c **** *  20        CY_XTAL32K_ANA_STAT       Analog measurement
1250:.\Generated_Source\PSoC5/CyLib.c **** *                                       1: Stable
1251:.\Generated_Source\PSoC5/CyLib.c **** *                                       0: Not stable
1252:.\Generated_Source\PSoC5/CyLib.c **** *
1253:.\Generated_Source\PSoC5/CyLib.c **** *******************************************************************************/
ARM GAS  C:\Users\Yiquing\AppData\Local\Temp\ccsAoMV1.s 			page 48


1254:.\Generated_Source\PSoC5/CyLib.c **** uint8 CyXTAL_32KHZ_ReadStatus(void) 
1255:.\Generated_Source\PSoC5/CyLib.c **** {
 1304              		.loc 1 1255 0
 1305              		.cfi_startproc
 1306              		@ args = 0, pretend = 0, frame = 0
 1307              		@ frame_needed = 0, uses_anonymous_args = 0
 1308              		@ link register save eliminated.
1256:.\Generated_Source\PSoC5/CyLib.c ****     return(CY_CLK_XTAL32_CR_REG & CY_XTAL32K_ANA_STAT);
 1309              		.loc 1 1256 0
 1310 0000 024B     		ldr	r3, .L153
 1311 0002 1878     		ldrb	r0, [r3]	@ zero_extendqisi2
1257:.\Generated_Source\PSoC5/CyLib.c **** }
 1312              		.loc 1 1257 0
 1313 0004 00F02000 		and	r0, r0, #32
 1314 0008 7047     		bx	lr
 1315              	.L154:
 1316 000a 00BF     		.align	2
 1317              	.L153:
 1318 000c 08430040 		.word	1073758984
 1319              		.cfi_endproc
 1320              	.LFE27:
 1321              		.size	CyXTAL_32KHZ_ReadStatus, .-CyXTAL_32KHZ_ReadStatus
 1322              		.section	.text.CyXTAL_Start,"ax",%progbits
 1323              		.align	1
 1324              		.global	CyXTAL_Start
 1325              		.thumb
 1326              		.thumb_func
 1327              		.type	CyXTAL_Start, %function
 1328              	CyXTAL_Start:
 1329              	.LFB29:
1258:.\Generated_Source\PSoC5/CyLib.c **** 
1259:.\Generated_Source\PSoC5/CyLib.c **** 
1260:.\Generated_Source\PSoC5/CyLib.c **** /*******************************************************************************
1261:.\Generated_Source\PSoC5/CyLib.c **** * Function Name: CyXTAL_32KHZ_SetPowerMode
1262:.\Generated_Source\PSoC5/CyLib.c **** ********************************************************************************
1263:.\Generated_Source\PSoC5/CyLib.c **** *
1264:.\Generated_Source\PSoC5/CyLib.c **** * Summary:
1265:.\Generated_Source\PSoC5/CyLib.c **** *  Sets the power mode for the 32 KHz oscillator used during the sleep mode.
1266:.\Generated_Source\PSoC5/CyLib.c **** *  Allows for lower power during sleep when there are fewer sources of noise.
1267:.\Generated_Source\PSoC5/CyLib.c **** *  During the active mode the oscillator is always run in the high power mode.
1268:.\Generated_Source\PSoC5/CyLib.c **** *
1269:.\Generated_Source\PSoC5/CyLib.c **** * Parameters:
1270:.\Generated_Source\PSoC5/CyLib.c **** *  uint8 mode
1271:.\Generated_Source\PSoC5/CyLib.c **** *       0: High power mode
1272:.\Generated_Source\PSoC5/CyLib.c **** *       1: Low power mode during sleep
1273:.\Generated_Source\PSoC5/CyLib.c **** *
1274:.\Generated_Source\PSoC5/CyLib.c **** * Return:
1275:.\Generated_Source\PSoC5/CyLib.c **** *  Previous power mode.
1276:.\Generated_Source\PSoC5/CyLib.c **** *
1277:.\Generated_Source\PSoC5/CyLib.c **** *******************************************************************************/
1278:.\Generated_Source\PSoC5/CyLib.c **** uint8 CyXTAL_32KHZ_SetPowerMode(uint8 mode) 
1279:.\Generated_Source\PSoC5/CyLib.c **** {
1280:.\Generated_Source\PSoC5/CyLib.c ****     uint8 state = (0u != (CY_CLK_XTAL32_CR_REG & CY_CLK_XTAL32_CR_LPM)) ? 1u : 0u;
1281:.\Generated_Source\PSoC5/CyLib.c **** 
1282:.\Generated_Source\PSoC5/CyLib.c ****     CY_CLK_XTAL32_TST_REG = CY_CLK_XTAL32_TST_DEFAULT;
1283:.\Generated_Source\PSoC5/CyLib.c **** 
1284:.\Generated_Source\PSoC5/CyLib.c ****     if(1u == mode)
ARM GAS  C:\Users\Yiquing\AppData\Local\Temp\ccsAoMV1.s 			page 49


1285:.\Generated_Source\PSoC5/CyLib.c ****     {
1286:.\Generated_Source\PSoC5/CyLib.c ****         /* Low power mode during Sleep */
1287:.\Generated_Source\PSoC5/CyLib.c ****         CY_CLK_XTAL32_TR_REG  = CY_CLK_XTAL32_TR_LOW_POWER;
1288:.\Generated_Source\PSoC5/CyLib.c ****         CyDelayUs(10u);
1289:.\Generated_Source\PSoC5/CyLib.c ****         CY_CLK_XTAL32_CFG_REG = (CY_CLK_XTAL32_CFG_REG & ((uint8)(~CY_CLK_XTAL32_CFG_LP_MASK))) |
1290:.\Generated_Source\PSoC5/CyLib.c ****                                 CY_CLK_XTAL32_CFG_LP_LOWPOWER;
1291:.\Generated_Source\PSoC5/CyLib.c ****         CyDelayUs(20u);
1292:.\Generated_Source\PSoC5/CyLib.c ****         CY_CLK_XTAL32_CR_REG |= CY_CLK_XTAL32_CR_LPM;
1293:.\Generated_Source\PSoC5/CyLib.c ****     }
1294:.\Generated_Source\PSoC5/CyLib.c ****     else
1295:.\Generated_Source\PSoC5/CyLib.c ****     {
1296:.\Generated_Source\PSoC5/CyLib.c ****         /* High power mode */
1297:.\Generated_Source\PSoC5/CyLib.c ****         CY_CLK_XTAL32_TR_REG  = CY_CLK_XTAL32_TR_HIGH_POWER;
1298:.\Generated_Source\PSoC5/CyLib.c ****         CyDelayUs(10u);
1299:.\Generated_Source\PSoC5/CyLib.c ****         CY_CLK_XTAL32_CFG_REG = (CY_CLK_XTAL32_CFG_REG & ((uint8)(~CY_CLK_XTAL32_CFG_LP_MASK))) |
1300:.\Generated_Source\PSoC5/CyLib.c ****                                 CY_CLK_XTAL32_CFG_LP_DEFAULT;
1301:.\Generated_Source\PSoC5/CyLib.c ****         CY_CLK_XTAL32_CR_REG &= ((uint8)(~CY_CLK_XTAL32_CR_LPM));
1302:.\Generated_Source\PSoC5/CyLib.c ****     }
1303:.\Generated_Source\PSoC5/CyLib.c **** 
1304:.\Generated_Source\PSoC5/CyLib.c ****     return(state);
1305:.\Generated_Source\PSoC5/CyLib.c **** }
1306:.\Generated_Source\PSoC5/CyLib.c **** 
1307:.\Generated_Source\PSoC5/CyLib.c **** 
1308:.\Generated_Source\PSoC5/CyLib.c **** /*******************************************************************************
1309:.\Generated_Source\PSoC5/CyLib.c **** * Function Name: CyXTAL_Start
1310:.\Generated_Source\PSoC5/CyLib.c **** ********************************************************************************
1311:.\Generated_Source\PSoC5/CyLib.c **** *
1312:.\Generated_Source\PSoC5/CyLib.c **** * Summary:
1313:.\Generated_Source\PSoC5/CyLib.c **** *  Enables the megahertz crystal.
1314:.\Generated_Source\PSoC5/CyLib.c **** *
1315:.\Generated_Source\PSoC5/CyLib.c **** *  PSoC 3:
1316:.\Generated_Source\PSoC5/CyLib.c **** *  Waits until the XERR bit is low (no error) for a millisecond or until the
1317:.\Generated_Source\PSoC5/CyLib.c **** *  number of milliseconds specified by the wait parameter has expired.
1318:.\Generated_Source\PSoC5/CyLib.c **** *
1319:.\Generated_Source\PSoC5/CyLib.c **** * Parameters:
1320:.\Generated_Source\PSoC5/CyLib.c **** *   wait: Valid range [0-255].
1321:.\Generated_Source\PSoC5/CyLib.c **** *   This is the timeout value in milliseconds.
1322:.\Generated_Source\PSoC5/CyLib.c **** *   The appropriate value is crystal specific.
1323:.\Generated_Source\PSoC5/CyLib.c **** *
1324:.\Generated_Source\PSoC5/CyLib.c **** * Return:
1325:.\Generated_Source\PSoC5/CyLib.c **** *   CYRET_SUCCESS - Completed successfully
1326:.\Generated_Source\PSoC5/CyLib.c **** *   CYRET_TIMEOUT - Timeout occurred without detecting a low value on XERR.
1327:.\Generated_Source\PSoC5/CyLib.c **** *
1328:.\Generated_Source\PSoC5/CyLib.c **** * Side Effects and Restrictions:
1329:.\Generated_Source\PSoC5/CyLib.c **** *  If wait is enabled (non-zero wait). Uses the Fast Timewheel to time the wait.
1330:.\Generated_Source\PSoC5/CyLib.c **** *  Any other use of the Fast Timewheel (FTW) will be stopped during the period
1331:.\Generated_Source\PSoC5/CyLib.c **** *  of this function and then restored.
1332:.\Generated_Source\PSoC5/CyLib.c **** *
1333:.\Generated_Source\PSoC5/CyLib.c **** *  Uses the 100KHz ILO.  If not enabled, this function will enable the 100KHz
1334:.\Generated_Source\PSoC5/CyLib.c **** *  ILO for the period of this function. No changes to the setup of the ILO,
1335:.\Generated_Source\PSoC5/CyLib.c **** *  Fast Timewheel, Central Timewheel or Once Per Second interrupt may be made
1336:.\Generated_Source\PSoC5/CyLib.c **** *  by interrupt routines during the period of this function.
1337:.\Generated_Source\PSoC5/CyLib.c **** *
1338:.\Generated_Source\PSoC5/CyLib.c **** *  The current operation of the ILO, Central Timewheel and Once Per Second
1339:.\Generated_Source\PSoC5/CyLib.c **** *  interrupt are maintained during the operation of this function provided the
1340:.\Generated_Source\PSoC5/CyLib.c **** *  reading of the Power Manager Interrupt Status Register is only done using the
1341:.\Generated_Source\PSoC5/CyLib.c **** *  CyPmReadStatus() function.
ARM GAS  C:\Users\Yiquing\AppData\Local\Temp\ccsAoMV1.s 			page 50


1342:.\Generated_Source\PSoC5/CyLib.c **** *
1343:.\Generated_Source\PSoC5/CyLib.c **** *******************************************************************************/
1344:.\Generated_Source\PSoC5/CyLib.c **** cystatus CyXTAL_Start(uint8 wait) 
1345:.\Generated_Source\PSoC5/CyLib.c **** {
 1330              		.loc 1 1345 0
 1331              		.cfi_startproc
 1332              		@ args = 0, pretend = 0, frame = 8
 1333              		@ frame_needed = 0, uses_anonymous_args = 0
 1334              	.LVL75:
 1335 0000 2DE9F743 		push	{r0, r1, r2, r4, r5, r6, r7, r8, r9, lr}
 1336              		.cfi_def_cfa_offset 40
 1337              		.cfi_offset 0, -40
 1338              		.cfi_offset 1, -36
 1339              		.cfi_offset 2, -32
 1340              		.cfi_offset 4, -28
 1341              		.cfi_offset 5, -24
 1342              		.cfi_offset 6, -20
 1343              		.cfi_offset 7, -16
 1344              		.cfi_offset 8, -12
 1345              		.cfi_offset 9, -8
 1346              		.cfi_offset 14, -4
1346:.\Generated_Source\PSoC5/CyLib.c ****     cystatus status = CYRET_SUCCESS;
1347:.\Generated_Source\PSoC5/CyLib.c ****     volatile uint8  timeout = wait;
1348:.\Generated_Source\PSoC5/CyLib.c ****     volatile uint8 count;
1349:.\Generated_Source\PSoC5/CyLib.c ****     uint8 iloEnableState;
1350:.\Generated_Source\PSoC5/CyLib.c ****     uint8 pmTwCfg0Tmp;
1351:.\Generated_Source\PSoC5/CyLib.c ****     uint8 pmTwCfg2Tmp;
1352:.\Generated_Source\PSoC5/CyLib.c **** 
1353:.\Generated_Source\PSoC5/CyLib.c **** 
1354:.\Generated_Source\PSoC5/CyLib.c ****     /* Enables MHz crystal oscillator circuit  */
1355:.\Generated_Source\PSoC5/CyLib.c ****     CY_CLK_XMHZ_CSR_REG |= CY_CLK_XMHZ_CSR_ENABLE;
 1347              		.loc 1 1355 0
 1348 0004 244B     		ldr	r3, .L170
1347:.\Generated_Source\PSoC5/CyLib.c ****     volatile uint8  timeout = wait;
 1349              		.loc 1 1347 0
 1350 0006 8DF80600 		strb	r0, [sp, #6]
 1351              		.loc 1 1355 0
 1352 000a 1A78     		ldrb	r2, [r3]	@ zero_extendqisi2
 1353 000c 1D46     		mov	r5, r3
 1354 000e 42F00102 		orr	r2, r2, #1
 1355 0012 1A70     		strb	r2, [r3]
1356:.\Generated_Source\PSoC5/CyLib.c **** 
1357:.\Generated_Source\PSoC5/CyLib.c **** 
1358:.\Generated_Source\PSoC5/CyLib.c ****     if(wait > 0u)
 1356              		.loc 1 1358 0
 1357 0014 0028     		cmp	r0, #0
 1358 0016 39D0     		beq	.L165
1359:.\Generated_Source\PSoC5/CyLib.c ****     {
1360:.\Generated_Source\PSoC5/CyLib.c ****         /* Save 100 KHz ILO, FTW interval, enable and interrupt enable */
1361:.\Generated_Source\PSoC5/CyLib.c ****         iloEnableState = CY_LIB_SLOWCLK_ILO_CR0_REG;
1362:.\Generated_Source\PSoC5/CyLib.c ****         pmTwCfg0Tmp = CY_LIB_PM_TW_CFG0_REG;
1363:.\Generated_Source\PSoC5/CyLib.c ****         pmTwCfg2Tmp = CY_LIB_PM_TW_CFG2_REG;
 1359              		.loc 1 1363 0
 1360 0018 204C     		ldr	r4, .L170+4
1364:.\Generated_Source\PSoC5/CyLib.c **** 
1365:.\Generated_Source\PSoC5/CyLib.c ****         /* Set 250 us interval */
1366:.\Generated_Source\PSoC5/CyLib.c ****         CyPmFtwSetInterval(CY_CLK_XMHZ_FTW_INTERVAL);
ARM GAS  C:\Users\Yiquing\AppData\Local\Temp\ccsAoMV1.s 			page 51


 1361              		.loc 1 1366 0
 1362 001a 1820     		movs	r0, #24
 1363              	.LVL76:
1361:.\Generated_Source\PSoC5/CyLib.c ****         iloEnableState = CY_LIB_SLOWCLK_ILO_CR0_REG;
 1364              		.loc 1 1361 0
 1365 001c 93F8F090 		ldrb	r9, [r3, #240]	@ zero_extendqisi2
1362:.\Generated_Source\PSoC5/CyLib.c ****         pmTwCfg0Tmp = CY_LIB_PM_TW_CFG0_REG;
 1366              		.loc 1 1362 0
 1367 0020 93F87081 		ldrb	r8, [r3, #368]	@ zero_extendqisi2
1363:.\Generated_Source\PSoC5/CyLib.c ****         pmTwCfg2Tmp = CY_LIB_PM_TW_CFG2_REG;
 1368              		.loc 1 1363 0
 1369 0024 2778     		ldrb	r7, [r4]	@ zero_extendqisi2
 1370              		.loc 1 1366 0
 1371 0026 FFF7FEFF 		bl	CyPmFtwSetInterval
 1372              	.LVL77:
1361:.\Generated_Source\PSoC5/CyLib.c ****         iloEnableState = CY_LIB_SLOWCLK_ILO_CR0_REG;
 1373              		.loc 1 1361 0
 1374 002a 5FFA89F9 		uxtb	r9, r9
 1375              	.LVL78:
1362:.\Generated_Source\PSoC5/CyLib.c ****         pmTwCfg0Tmp = CY_LIB_PM_TW_CFG0_REG;
 1376              		.loc 1 1362 0
 1377 002e 5FFA88F8 		uxtb	r8, r8
 1378              	.LVL79:
1363:.\Generated_Source\PSoC5/CyLib.c ****         pmTwCfg2Tmp = CY_LIB_PM_TW_CFG2_REG;
 1379              		.loc 1 1363 0
 1380 0032 FFB2     		uxtb	r7, r7
 1381              	.LVL80:
 1382 0034 2646     		mov	r6, r4
 1383              	.L157:
1367:.\Generated_Source\PSoC5/CyLib.c ****         status = CYRET_TIMEOUT;
1368:.\Generated_Source\PSoC5/CyLib.c **** 
1369:.\Generated_Source\PSoC5/CyLib.c **** 
1370:.\Generated_Source\PSoC5/CyLib.c ****         for( ; timeout > 0u; timeout--)
 1384              		.loc 1 1370 0 discriminator 1
 1385 0036 9DF80630 		ldrb	r3, [sp, #6]	@ zero_extendqisi2
 1386 003a E3B1     		cbz	r3, .L168
1371:.\Generated_Source\PSoC5/CyLib.c ****         {
1372:.\Generated_Source\PSoC5/CyLib.c ****             /* Read XERR bit to clear it */
1373:.\Generated_Source\PSoC5/CyLib.c ****             (void) CY_CLK_XMHZ_CSR_REG;
 1387              		.loc 1 1373 0
 1388 003c 2B78     		ldrb	r3, [r5]	@ zero_extendqisi2
1374:.\Generated_Source\PSoC5/CyLib.c **** 
1375:.\Generated_Source\PSoC5/CyLib.c ****             /* Wait for 1 millisecond - 4 x 250 us */
1376:.\Generated_Source\PSoC5/CyLib.c ****             for(count = 4u; count > 0u; count--)
 1389              		.loc 1 1376 0
 1390 003e 0423     		movs	r3, #4
 1391              	.L167:
 1392 0040 8DF80730 		strb	r3, [sp, #7]
 1393 0044 9DF80730 		ldrb	r3, [sp, #7]	@ zero_extendqisi2
 1394 0048 03F0FF04 		and	r4, r3, #255
 1395 004c 4BB1     		cbz	r3, .L169
 1396              	.L160:
1377:.\Generated_Source\PSoC5/CyLib.c ****             {
1378:.\Generated_Source\PSoC5/CyLib.c ****                 while(0u == (CY_PM_FTW_INT & CyPmReadStatus(CY_PM_FTW_INT)))
 1397              		.loc 1 1378 0
 1398 004e 0120     		movs	r0, #1
 1399 0050 FFF7FEFF 		bl	CyPmReadStatus
ARM GAS  C:\Users\Yiquing\AppData\Local\Temp\ccsAoMV1.s 			page 52


 1400              	.LVL81:
 1401 0054 C207     		lsls	r2, r0, #31
 1402 0056 FAD5     		bpl	.L160
1376:.\Generated_Source\PSoC5/CyLib.c ****             for(count = 4u; count > 0u; count--)
 1403              		.loc 1 1376 0
 1404 0058 9DF80730 		ldrb	r3, [sp, #7]	@ zero_extendqisi2
 1405 005c 013B     		subs	r3, r3, #1
 1406 005e DBB2     		uxtb	r3, r3
 1407 0060 EEE7     		b	.L167
 1408              	.L169:
1379:.\Generated_Source\PSoC5/CyLib.c ****                 {
1380:.\Generated_Source\PSoC5/CyLib.c ****                     /* Wait for FTW interrupt event */
1381:.\Generated_Source\PSoC5/CyLib.c ****                 }
1382:.\Generated_Source\PSoC5/CyLib.c ****             }
1383:.\Generated_Source\PSoC5/CyLib.c **** 
1384:.\Generated_Source\PSoC5/CyLib.c **** 
1385:.\Generated_Source\PSoC5/CyLib.c ****             /*******************************************************************
1386:.\Generated_Source\PSoC5/CyLib.c ****             * High output indicates an oscillator failure.
1387:.\Generated_Source\PSoC5/CyLib.c ****             * Only can be used after a start-up interval (1 ms) is completed.
1388:.\Generated_Source\PSoC5/CyLib.c ****             *******************************************************************/
1389:.\Generated_Source\PSoC5/CyLib.c ****             if(0u == (CY_CLK_XMHZ_CSR_REG & CY_CLK_XMHZ_CSR_XERR))
 1409              		.loc 1 1389 0
 1410 0062 2B78     		ldrb	r3, [r5]	@ zero_extendqisi2
 1411 0064 1B06     		lsls	r3, r3, #24
 1412 0066 07D5     		bpl	.L162
1370:.\Generated_Source\PSoC5/CyLib.c ****         for( ; timeout > 0u; timeout--)
 1413              		.loc 1 1370 0
 1414 0068 9DF80630 		ldrb	r3, [sp, #6]	@ zero_extendqisi2
 1415 006c 013B     		subs	r3, r3, #1
 1416 006e DBB2     		uxtb	r3, r3
 1417 0070 8DF80630 		strb	r3, [sp, #6]
 1418 0074 DFE7     		b	.L157
 1419              	.L168:
1367:.\Generated_Source\PSoC5/CyLib.c ****         status = CYRET_TIMEOUT;
 1420              		.loc 1 1367 0
 1421 0076 1024     		movs	r4, #16
 1422              	.L162:
 1423              	.LVL82:
1390:.\Generated_Source\PSoC5/CyLib.c ****             {
1391:.\Generated_Source\PSoC5/CyLib.c ****                 status = CYRET_SUCCESS;
1392:.\Generated_Source\PSoC5/CyLib.c ****                 break;
1393:.\Generated_Source\PSoC5/CyLib.c ****             }
1394:.\Generated_Source\PSoC5/CyLib.c ****         }
1395:.\Generated_Source\PSoC5/CyLib.c **** 
1396:.\Generated_Source\PSoC5/CyLib.c **** 
1397:.\Generated_Source\PSoC5/CyLib.c ****         /* Restore 100 KHz ILO, FTW interval, enable and interrupt enable */
1398:.\Generated_Source\PSoC5/CyLib.c ****         if(0u == (iloEnableState & CY_LIB_SLOWCLK_ILO_CR0_EN_100KHZ))
 1424              		.loc 1 1398 0
 1425 0078 19F0040F 		tst	r9, #4
 1426 007c 01D1     		bne	.L164
1399:.\Generated_Source\PSoC5/CyLib.c ****         {
1400:.\Generated_Source\PSoC5/CyLib.c ****             CyILO_Stop100K();
 1427              		.loc 1 1400 0
 1428 007e FFF7FEFF 		bl	CyILO_Stop100K
 1429              	.LVL83:
 1430              	.L164:
1401:.\Generated_Source\PSoC5/CyLib.c ****         }
ARM GAS  C:\Users\Yiquing\AppData\Local\Temp\ccsAoMV1.s 			page 53


1402:.\Generated_Source\PSoC5/CyLib.c ****         CY_LIB_PM_TW_CFG0_REG = pmTwCfg0Tmp;
 1431              		.loc 1 1402 0
 1432 0082 074B     		ldr	r3, .L170+8
 1433 0084 83F80080 		strb	r8, [r3]
1403:.\Generated_Source\PSoC5/CyLib.c ****         CY_LIB_PM_TW_CFG2_REG = pmTwCfg2Tmp;
 1434              		.loc 1 1403 0
 1435 0088 3770     		strb	r7, [r6]
 1436 008a 00E0     		b	.L156
 1437              	.LVL84:
 1438              	.L165:
1346:.\Generated_Source\PSoC5/CyLib.c ****     cystatus status = CYRET_SUCCESS;
 1439              		.loc 1 1346 0
 1440 008c 0446     		mov	r4, r0
 1441              	.LVL85:
 1442              	.L156:
1404:.\Generated_Source\PSoC5/CyLib.c ****     }
1405:.\Generated_Source\PSoC5/CyLib.c **** 
1406:.\Generated_Source\PSoC5/CyLib.c ****     return(status);
1407:.\Generated_Source\PSoC5/CyLib.c **** }
 1443              		.loc 1 1407 0
 1444 008e 2046     		mov	r0, r4
 1445 0090 03B0     		add	sp, sp, #12
 1446              		@ sp needed
 1447 0092 BDE8F083 		pop	{r4, r5, r6, r7, r8, r9, pc}
 1448              	.LVL86:
 1449              	.L171:
 1450 0096 00BF     		.align	2
 1451              	.L170:
 1452 0098 10420040 		.word	1073758736
 1453 009c 82430040 		.word	1073759106
 1454 00a0 80430040 		.word	1073759104
 1455              		.cfi_endproc
 1456              	.LFE29:
 1457              		.size	CyXTAL_Start, .-CyXTAL_Start
 1458              		.section	.text.CyXTAL_Stop,"ax",%progbits
 1459              		.align	1
 1460              		.global	CyXTAL_Stop
 1461              		.thumb
 1462              		.thumb_func
 1463              		.type	CyXTAL_Stop, %function
 1464              	CyXTAL_Stop:
 1465              	.LFB30:
1408:.\Generated_Source\PSoC5/CyLib.c **** 
1409:.\Generated_Source\PSoC5/CyLib.c **** 
1410:.\Generated_Source\PSoC5/CyLib.c **** /*******************************************************************************
1411:.\Generated_Source\PSoC5/CyLib.c **** * Function Name: CyXTAL_Stop
1412:.\Generated_Source\PSoC5/CyLib.c **** ********************************************************************************
1413:.\Generated_Source\PSoC5/CyLib.c **** *
1414:.\Generated_Source\PSoC5/CyLib.c **** * Summary:
1415:.\Generated_Source\PSoC5/CyLib.c **** *  Disables the megahertz crystal oscillator.
1416:.\Generated_Source\PSoC5/CyLib.c **** *
1417:.\Generated_Source\PSoC5/CyLib.c **** * Parameters:
1418:.\Generated_Source\PSoC5/CyLib.c **** *  None
1419:.\Generated_Source\PSoC5/CyLib.c **** *
1420:.\Generated_Source\PSoC5/CyLib.c **** * Return:
1421:.\Generated_Source\PSoC5/CyLib.c **** *  None
1422:.\Generated_Source\PSoC5/CyLib.c **** *
ARM GAS  C:\Users\Yiquing\AppData\Local\Temp\ccsAoMV1.s 			page 54


1423:.\Generated_Source\PSoC5/CyLib.c **** *******************************************************************************/
1424:.\Generated_Source\PSoC5/CyLib.c **** void CyXTAL_Stop(void) 
1425:.\Generated_Source\PSoC5/CyLib.c **** {
 1466              		.loc 1 1425 0
 1467              		.cfi_startproc
 1468              		@ args = 0, pretend = 0, frame = 0
 1469              		@ frame_needed = 0, uses_anonymous_args = 0
 1470              		@ link register save eliminated.
1426:.\Generated_Source\PSoC5/CyLib.c ****     /* Disable oscillator. */
1427:.\Generated_Source\PSoC5/CyLib.c ****     FASTCLK_XMHZ_CSR &= ((uint8)(~XMHZ_CONTROL_ENABLE));
 1471              		.loc 1 1427 0
 1472 0000 024B     		ldr	r3, .L173
 1473 0002 1A78     		ldrb	r2, [r3]	@ zero_extendqisi2
 1474 0004 02F0FE02 		and	r2, r2, #254
 1475 0008 1A70     		strb	r2, [r3]
 1476 000a 7047     		bx	lr
 1477              	.L174:
 1478              		.align	2
 1479              	.L173:
 1480 000c 10420040 		.word	1073758736
 1481              		.cfi_endproc
 1482              	.LFE30:
 1483              		.size	CyXTAL_Stop, .-CyXTAL_Stop
 1484              		.section	.text.CyXTAL_EnableErrStatus,"ax",%progbits
 1485              		.align	1
 1486              		.global	CyXTAL_EnableErrStatus
 1487              		.thumb
 1488              		.thumb_func
 1489              		.type	CyXTAL_EnableErrStatus, %function
 1490              	CyXTAL_EnableErrStatus:
 1491              	.LFB31:
1428:.\Generated_Source\PSoC5/CyLib.c **** }
1429:.\Generated_Source\PSoC5/CyLib.c **** 
1430:.\Generated_Source\PSoC5/CyLib.c **** 
1431:.\Generated_Source\PSoC5/CyLib.c **** /*******************************************************************************
1432:.\Generated_Source\PSoC5/CyLib.c **** * Function Name: CyXTAL_EnableErrStatus
1433:.\Generated_Source\PSoC5/CyLib.c **** ********************************************************************************
1434:.\Generated_Source\PSoC5/CyLib.c **** *
1435:.\Generated_Source\PSoC5/CyLib.c **** * Summary:
1436:.\Generated_Source\PSoC5/CyLib.c **** *  Enables the generation of the XERR status bit for the megahertz crystal.
1437:.\Generated_Source\PSoC5/CyLib.c **** *  This function is not available for PSoC5.
1438:.\Generated_Source\PSoC5/CyLib.c **** *
1439:.\Generated_Source\PSoC5/CyLib.c **** * Parameters:
1440:.\Generated_Source\PSoC5/CyLib.c **** *  None
1441:.\Generated_Source\PSoC5/CyLib.c **** *
1442:.\Generated_Source\PSoC5/CyLib.c **** * Return:
1443:.\Generated_Source\PSoC5/CyLib.c **** *  None
1444:.\Generated_Source\PSoC5/CyLib.c **** *
1445:.\Generated_Source\PSoC5/CyLib.c **** *******************************************************************************/
1446:.\Generated_Source\PSoC5/CyLib.c **** void CyXTAL_EnableErrStatus(void) 
1447:.\Generated_Source\PSoC5/CyLib.c **** {
 1492              		.loc 1 1447 0
 1493              		.cfi_startproc
 1494              		@ args = 0, pretend = 0, frame = 0
 1495              		@ frame_needed = 0, uses_anonymous_args = 0
 1496              		@ link register save eliminated.
1448:.\Generated_Source\PSoC5/CyLib.c ****     /* If oscillator has insufficient amplitude, XERR bit will be high. */
ARM GAS  C:\Users\Yiquing\AppData\Local\Temp\ccsAoMV1.s 			page 55


1449:.\Generated_Source\PSoC5/CyLib.c ****     CY_CLK_XMHZ_CSR_REG &= ((uint8)(~CY_CLK_XMHZ_CSR_XFB));
 1497              		.loc 1 1449 0
 1498 0000 024B     		ldr	r3, .L176
 1499 0002 1A78     		ldrb	r2, [r3]	@ zero_extendqisi2
 1500 0004 02F0FB02 		and	r2, r2, #251
 1501 0008 1A70     		strb	r2, [r3]
 1502 000a 7047     		bx	lr
 1503              	.L177:
 1504              		.align	2
 1505              	.L176:
 1506 000c 10420040 		.word	1073758736
 1507              		.cfi_endproc
 1508              	.LFE31:
 1509              		.size	CyXTAL_EnableErrStatus, .-CyXTAL_EnableErrStatus
 1510              		.section	.text.CyXTAL_DisableErrStatus,"ax",%progbits
 1511              		.align	1
 1512              		.global	CyXTAL_DisableErrStatus
 1513              		.thumb
 1514              		.thumb_func
 1515              		.type	CyXTAL_DisableErrStatus, %function
 1516              	CyXTAL_DisableErrStatus:
 1517              	.LFB32:
1450:.\Generated_Source\PSoC5/CyLib.c **** }
1451:.\Generated_Source\PSoC5/CyLib.c **** 
1452:.\Generated_Source\PSoC5/CyLib.c **** 
1453:.\Generated_Source\PSoC5/CyLib.c **** /*******************************************************************************
1454:.\Generated_Source\PSoC5/CyLib.c **** * Function Name: CyXTAL_DisableErrStatus
1455:.\Generated_Source\PSoC5/CyLib.c **** ********************************************************************************
1456:.\Generated_Source\PSoC5/CyLib.c **** *
1457:.\Generated_Source\PSoC5/CyLib.c **** * Summary:
1458:.\Generated_Source\PSoC5/CyLib.c **** *  Disables the generation of the XERR status bit for the megahertz crystal.
1459:.\Generated_Source\PSoC5/CyLib.c **** *  This function is not available for PSoC5.
1460:.\Generated_Source\PSoC5/CyLib.c **** *
1461:.\Generated_Source\PSoC5/CyLib.c **** * Parameters:
1462:.\Generated_Source\PSoC5/CyLib.c **** *  None
1463:.\Generated_Source\PSoC5/CyLib.c **** *
1464:.\Generated_Source\PSoC5/CyLib.c **** * Return:
1465:.\Generated_Source\PSoC5/CyLib.c **** *  None
1466:.\Generated_Source\PSoC5/CyLib.c **** *
1467:.\Generated_Source\PSoC5/CyLib.c **** *******************************************************************************/
1468:.\Generated_Source\PSoC5/CyLib.c **** void CyXTAL_DisableErrStatus(void) 
1469:.\Generated_Source\PSoC5/CyLib.c **** {
 1518              		.loc 1 1469 0
 1519              		.cfi_startproc
 1520              		@ args = 0, pretend = 0, frame = 0
 1521              		@ frame_needed = 0, uses_anonymous_args = 0
 1522              		@ link register save eliminated.
1470:.\Generated_Source\PSoC5/CyLib.c ****     /* If oscillator has insufficient amplitude, XERR bit will be high. */
1471:.\Generated_Source\PSoC5/CyLib.c ****     CY_CLK_XMHZ_CSR_REG |= CY_CLK_XMHZ_CSR_XFB;
 1523              		.loc 1 1471 0
 1524 0000 024B     		ldr	r3, .L179
 1525 0002 1A78     		ldrb	r2, [r3]	@ zero_extendqisi2
 1526 0004 42F00402 		orr	r2, r2, #4
 1527 0008 1A70     		strb	r2, [r3]
 1528 000a 7047     		bx	lr
 1529              	.L180:
 1530              		.align	2
ARM GAS  C:\Users\Yiquing\AppData\Local\Temp\ccsAoMV1.s 			page 56


 1531              	.L179:
 1532 000c 10420040 		.word	1073758736
 1533              		.cfi_endproc
 1534              	.LFE32:
 1535              		.size	CyXTAL_DisableErrStatus, .-CyXTAL_DisableErrStatus
 1536              		.section	.text.CyXTAL_ReadStatus,"ax",%progbits
 1537              		.align	1
 1538              		.global	CyXTAL_ReadStatus
 1539              		.thumb
 1540              		.thumb_func
 1541              		.type	CyXTAL_ReadStatus, %function
 1542              	CyXTAL_ReadStatus:
 1543              	.LFB33:
1472:.\Generated_Source\PSoC5/CyLib.c **** }
1473:.\Generated_Source\PSoC5/CyLib.c **** 
1474:.\Generated_Source\PSoC5/CyLib.c **** 
1475:.\Generated_Source\PSoC5/CyLib.c **** /*******************************************************************************
1476:.\Generated_Source\PSoC5/CyLib.c **** * Function Name: CyXTAL_ReadStatus
1477:.\Generated_Source\PSoC5/CyLib.c **** ********************************************************************************
1478:.\Generated_Source\PSoC5/CyLib.c **** *
1479:.\Generated_Source\PSoC5/CyLib.c **** * Summary:
1480:.\Generated_Source\PSoC5/CyLib.c **** *  Reads the XERR status bit for the megahertz crystal. This status bit is a
1481:.\Generated_Source\PSoC5/CyLib.c **** *  sticky, clear on read. This function is not available for PSoC5.
1482:.\Generated_Source\PSoC5/CyLib.c **** *
1483:.\Generated_Source\PSoC5/CyLib.c **** * Parameters:
1484:.\Generated_Source\PSoC5/CyLib.c **** *  None
1485:.\Generated_Source\PSoC5/CyLib.c **** *
1486:.\Generated_Source\PSoC5/CyLib.c **** * Return:
1487:.\Generated_Source\PSoC5/CyLib.c **** *   Status
1488:.\Generated_Source\PSoC5/CyLib.c **** *    0: No error
1489:.\Generated_Source\PSoC5/CyLib.c **** *    1: Error
1490:.\Generated_Source\PSoC5/CyLib.c **** *
1491:.\Generated_Source\PSoC5/CyLib.c **** *******************************************************************************/
1492:.\Generated_Source\PSoC5/CyLib.c **** uint8 CyXTAL_ReadStatus(void) 
1493:.\Generated_Source\PSoC5/CyLib.c **** {
 1544              		.loc 1 1493 0
 1545              		.cfi_startproc
 1546              		@ args = 0, pretend = 0, frame = 0
 1547              		@ frame_needed = 0, uses_anonymous_args = 0
 1548              		@ link register save eliminated.
1494:.\Generated_Source\PSoC5/CyLib.c ****     /***************************************************************************
1495:.\Generated_Source\PSoC5/CyLib.c ****     * High output indicates an oscillator failure. Only use this after a start-up
1496:.\Generated_Source\PSoC5/CyLib.c ****     * interval is completed. This can be used for the status and failure recovery.
1497:.\Generated_Source\PSoC5/CyLib.c ****     ***************************************************************************/
1498:.\Generated_Source\PSoC5/CyLib.c ****     return((0u != (CY_CLK_XMHZ_CSR_REG & CY_CLK_XMHZ_CSR_XERR)) ? 1u : 0u);
 1549              		.loc 1 1498 0
 1550 0000 014B     		ldr	r3, .L182
 1551 0002 1878     		ldrb	r0, [r3]	@ zero_extendqisi2
1499:.\Generated_Source\PSoC5/CyLib.c **** }
 1552              		.loc 1 1499 0
 1553 0004 C009     		lsrs	r0, r0, #7
 1554 0006 7047     		bx	lr
 1555              	.L183:
 1556              		.align	2
 1557              	.L182:
 1558 0008 10420040 		.word	1073758736
 1559              		.cfi_endproc
ARM GAS  C:\Users\Yiquing\AppData\Local\Temp\ccsAoMV1.s 			page 57


 1560              	.LFE33:
 1561              		.size	CyXTAL_ReadStatus, .-CyXTAL_ReadStatus
 1562              		.section	.text.CyXTAL_EnableFaultRecovery,"ax",%progbits
 1563              		.align	1
 1564              		.global	CyXTAL_EnableFaultRecovery
 1565              		.thumb
 1566              		.thumb_func
 1567              		.type	CyXTAL_EnableFaultRecovery, %function
 1568              	CyXTAL_EnableFaultRecovery:
 1569              	.LFB34:
1500:.\Generated_Source\PSoC5/CyLib.c **** 
1501:.\Generated_Source\PSoC5/CyLib.c **** 
1502:.\Generated_Source\PSoC5/CyLib.c **** /*******************************************************************************
1503:.\Generated_Source\PSoC5/CyLib.c **** * Function Name: CyXTAL_EnableFaultRecovery
1504:.\Generated_Source\PSoC5/CyLib.c **** ********************************************************************************
1505:.\Generated_Source\PSoC5/CyLib.c **** *
1506:.\Generated_Source\PSoC5/CyLib.c **** * Summary:
1507:.\Generated_Source\PSoC5/CyLib.c **** *  Enables the fault recovery circuit which will switch to the IMO in the case
1508:.\Generated_Source\PSoC5/CyLib.c **** *  of a fault in the megahertz crystal circuit. The crystal must be up and
1509:.\Generated_Source\PSoC5/CyLib.c **** *  running with the XERR bit at 0, before calling this function to prevent
1510:.\Generated_Source\PSoC5/CyLib.c **** *  an immediate fault switchover. This function is not available for PSoC5.
1511:.\Generated_Source\PSoC5/CyLib.c **** *
1512:.\Generated_Source\PSoC5/CyLib.c **** * Parameters:
1513:.\Generated_Source\PSoC5/CyLib.c **** *  None
1514:.\Generated_Source\PSoC5/CyLib.c **** *
1515:.\Generated_Source\PSoC5/CyLib.c **** * Return:
1516:.\Generated_Source\PSoC5/CyLib.c **** *  None
1517:.\Generated_Source\PSoC5/CyLib.c **** *
1518:.\Generated_Source\PSoC5/CyLib.c **** *******************************************************************************/
1519:.\Generated_Source\PSoC5/CyLib.c **** void CyXTAL_EnableFaultRecovery(void) 
1520:.\Generated_Source\PSoC5/CyLib.c **** {
 1570              		.loc 1 1520 0
 1571              		.cfi_startproc
 1572              		@ args = 0, pretend = 0, frame = 0
 1573              		@ frame_needed = 0, uses_anonymous_args = 0
 1574              		@ link register save eliminated.
1521:.\Generated_Source\PSoC5/CyLib.c ****     CY_CLK_XMHZ_CSR_REG |= CY_CLK_XMHZ_CSR_XPROT;
 1575              		.loc 1 1521 0
 1576 0000 024B     		ldr	r3, .L185
 1577 0002 1A78     		ldrb	r2, [r3]	@ zero_extendqisi2
 1578 0004 42F04002 		orr	r2, r2, #64
 1579 0008 1A70     		strb	r2, [r3]
 1580 000a 7047     		bx	lr
 1581              	.L186:
 1582              		.align	2
 1583              	.L185:
 1584 000c 10420040 		.word	1073758736
 1585              		.cfi_endproc
 1586              	.LFE34:
 1587              		.size	CyXTAL_EnableFaultRecovery, .-CyXTAL_EnableFaultRecovery
 1588              		.section	.text.CyXTAL_DisableFaultRecovery,"ax",%progbits
 1589              		.align	1
 1590              		.global	CyXTAL_DisableFaultRecovery
 1591              		.thumb
 1592              		.thumb_func
 1593              		.type	CyXTAL_DisableFaultRecovery, %function
 1594              	CyXTAL_DisableFaultRecovery:
ARM GAS  C:\Users\Yiquing\AppData\Local\Temp\ccsAoMV1.s 			page 58


 1595              	.LFB35:
1522:.\Generated_Source\PSoC5/CyLib.c **** }
1523:.\Generated_Source\PSoC5/CyLib.c **** 
1524:.\Generated_Source\PSoC5/CyLib.c **** 
1525:.\Generated_Source\PSoC5/CyLib.c **** /*******************************************************************************
1526:.\Generated_Source\PSoC5/CyLib.c **** * Function Name: CyXTAL_DisableFaultRecovery
1527:.\Generated_Source\PSoC5/CyLib.c **** ********************************************************************************
1528:.\Generated_Source\PSoC5/CyLib.c **** *
1529:.\Generated_Source\PSoC5/CyLib.c **** * Summary:
1530:.\Generated_Source\PSoC5/CyLib.c **** *  Disables the fault recovery circuit which will switch to the IMO in the case
1531:.\Generated_Source\PSoC5/CyLib.c **** *  of a fault in the megahertz crystal circuit. This function is not available
1532:.\Generated_Source\PSoC5/CyLib.c **** *  for PSoC5.
1533:.\Generated_Source\PSoC5/CyLib.c **** *
1534:.\Generated_Source\PSoC5/CyLib.c **** * Parameters:
1535:.\Generated_Source\PSoC5/CyLib.c **** *  None
1536:.\Generated_Source\PSoC5/CyLib.c **** *
1537:.\Generated_Source\PSoC5/CyLib.c **** * Return:
1538:.\Generated_Source\PSoC5/CyLib.c **** *  None
1539:.\Generated_Source\PSoC5/CyLib.c **** *
1540:.\Generated_Source\PSoC5/CyLib.c **** *******************************************************************************/
1541:.\Generated_Source\PSoC5/CyLib.c **** void CyXTAL_DisableFaultRecovery(void) 
1542:.\Generated_Source\PSoC5/CyLib.c **** {
 1596              		.loc 1 1542 0
 1597              		.cfi_startproc
 1598              		@ args = 0, pretend = 0, frame = 0
 1599              		@ frame_needed = 0, uses_anonymous_args = 0
 1600              		@ link register save eliminated.
1543:.\Generated_Source\PSoC5/CyLib.c ****     CY_CLK_XMHZ_CSR_REG &= ((uint8)(~CY_CLK_XMHZ_CSR_XPROT));
 1601              		.loc 1 1543 0
 1602 0000 024B     		ldr	r3, .L188
 1603 0002 1A78     		ldrb	r2, [r3]	@ zero_extendqisi2
 1604 0004 02F0BF02 		and	r2, r2, #191
 1605 0008 1A70     		strb	r2, [r3]
 1606 000a 7047     		bx	lr
 1607              	.L189:
 1608              		.align	2
 1609              	.L188:
 1610 000c 10420040 		.word	1073758736
 1611              		.cfi_endproc
 1612              	.LFE35:
 1613              		.size	CyXTAL_DisableFaultRecovery, .-CyXTAL_DisableFaultRecovery
 1614              		.section	.text.CyXTAL_SetStartup,"ax",%progbits
 1615              		.align	1
 1616              		.global	CyXTAL_SetStartup
 1617              		.thumb
 1618              		.thumb_func
 1619              		.type	CyXTAL_SetStartup, %function
 1620              	CyXTAL_SetStartup:
 1621              	.LFB36:
1544:.\Generated_Source\PSoC5/CyLib.c **** }
1545:.\Generated_Source\PSoC5/CyLib.c **** 
1546:.\Generated_Source\PSoC5/CyLib.c **** 
1547:.\Generated_Source\PSoC5/CyLib.c **** /*******************************************************************************
1548:.\Generated_Source\PSoC5/CyLib.c **** * Function Name: CyXTAL_SetStartup
1549:.\Generated_Source\PSoC5/CyLib.c **** ********************************************************************************
1550:.\Generated_Source\PSoC5/CyLib.c **** *
1551:.\Generated_Source\PSoC5/CyLib.c **** * Summary:
ARM GAS  C:\Users\Yiquing\AppData\Local\Temp\ccsAoMV1.s 			page 59


1552:.\Generated_Source\PSoC5/CyLib.c **** *  Sets the startup settings for the crystal. The logic model outputs a
1553:.\Generated_Source\PSoC5/CyLib.c **** *  frequency (setting + 4) MHz when enabled.
1554:.\Generated_Source\PSoC5/CyLib.c **** *
1555:.\Generated_Source\PSoC5/CyLib.c **** *  This is artificial as the actual frequency is determined by an attached
1556:.\Generated_Source\PSoC5/CyLib.c **** *  external crystal.
1557:.\Generated_Source\PSoC5/CyLib.c **** *
1558:.\Generated_Source\PSoC5/CyLib.c **** * Parameters:
1559:.\Generated_Source\PSoC5/CyLib.c **** *  setting: Valid range [0-31].
1560:.\Generated_Source\PSoC5/CyLib.c **** *   The value is dependent on the frequency and quality of the crystal being
1561:.\Generated_Source\PSoC5/CyLib.c **** *   used. Refer to the device TRM and datasheet for more information.
1562:.\Generated_Source\PSoC5/CyLib.c **** *
1563:.\Generated_Source\PSoC5/CyLib.c **** * Return:
1564:.\Generated_Source\PSoC5/CyLib.c **** *  None
1565:.\Generated_Source\PSoC5/CyLib.c **** *
1566:.\Generated_Source\PSoC5/CyLib.c **** *******************************************************************************/
1567:.\Generated_Source\PSoC5/CyLib.c **** void CyXTAL_SetStartup(uint8 setting) 
1568:.\Generated_Source\PSoC5/CyLib.c **** {
 1622              		.loc 1 1568 0
 1623              		.cfi_startproc
 1624              		@ args = 0, pretend = 0, frame = 0
 1625              		@ frame_needed = 0, uses_anonymous_args = 0
 1626              		@ link register save eliminated.
 1627              	.LVL87:
1569:.\Generated_Source\PSoC5/CyLib.c ****     CY_CLK_XMHZ_CFG0_REG = (CY_CLK_XMHZ_CFG0_REG & ((uint8)(~CY_CLK_XMHZ_CFG0_XCFG_MASK))) |
 1628              		.loc 1 1569 0
 1629 0000 044B     		ldr	r3, .L191
 1630 0002 00F01F00 		and	r0, r0, #31
 1631              	.LVL88:
 1632 0006 1A78     		ldrb	r2, [r3]	@ zero_extendqisi2
 1633 0008 02F0E002 		and	r2, r2, #224
 1634 000c 0243     		orrs	r2, r2, r0
 1635 000e 1A70     		strb	r2, [r3]
 1636 0010 7047     		bx	lr
 1637              	.L192:
 1638 0012 00BF     		.align	2
 1639              	.L191:
 1640 0014 12420040 		.word	1073758738
 1641              		.cfi_endproc
 1642              	.LFE36:
 1643              		.size	CyXTAL_SetStartup, .-CyXTAL_SetStartup
 1644              		.section	.text.CyXTAL_SetFbVoltage,"ax",%progbits
 1645              		.align	1
 1646              		.global	CyXTAL_SetFbVoltage
 1647              		.thumb
 1648              		.thumb_func
 1649              		.type	CyXTAL_SetFbVoltage, %function
 1650              	CyXTAL_SetFbVoltage:
 1651              	.LFB37:
1570:.\Generated_Source\PSoC5/CyLib.c ****                            (setting & CY_CLK_XMHZ_CFG0_XCFG_MASK);
1571:.\Generated_Source\PSoC5/CyLib.c **** }
1572:.\Generated_Source\PSoC5/CyLib.c **** 
1573:.\Generated_Source\PSoC5/CyLib.c **** 
1574:.\Generated_Source\PSoC5/CyLib.c **** 
1575:.\Generated_Source\PSoC5/CyLib.c **** /*******************************************************************************
1576:.\Generated_Source\PSoC5/CyLib.c **** * Function Name: CyXTAL_SetFbVoltage
1577:.\Generated_Source\PSoC5/CyLib.c **** ********************************************************************************
1578:.\Generated_Source\PSoC5/CyLib.c **** *
ARM GAS  C:\Users\Yiquing\AppData\Local\Temp\ccsAoMV1.s 			page 60


1579:.\Generated_Source\PSoC5/CyLib.c **** * Summary:
1580:.\Generated_Source\PSoC5/CyLib.c **** *  Sets the feedback reference voltage to use for the crystal circuit.
1581:.\Generated_Source\PSoC5/CyLib.c **** *  This function is only available for PSoC3 and PSoC 5LP.
1582:.\Generated_Source\PSoC5/CyLib.c **** *
1583:.\Generated_Source\PSoC5/CyLib.c **** * Parameters:
1584:.\Generated_Source\PSoC5/CyLib.c **** *  setting: Valid range [0-15].
1585:.\Generated_Source\PSoC5/CyLib.c **** *  Refer to the device TRM and datasheet for more information.
1586:.\Generated_Source\PSoC5/CyLib.c **** *
1587:.\Generated_Source\PSoC5/CyLib.c **** * Return:
1588:.\Generated_Source\PSoC5/CyLib.c **** *  None
1589:.\Generated_Source\PSoC5/CyLib.c **** *
1590:.\Generated_Source\PSoC5/CyLib.c **** *******************************************************************************/
1591:.\Generated_Source\PSoC5/CyLib.c **** void CyXTAL_SetFbVoltage(uint8 setting) 
1592:.\Generated_Source\PSoC5/CyLib.c **** {
 1652              		.loc 1 1592 0
 1653              		.cfi_startproc
 1654              		@ args = 0, pretend = 0, frame = 0
 1655              		@ frame_needed = 0, uses_anonymous_args = 0
 1656              		@ link register save eliminated.
 1657              	.LVL89:
1593:.\Generated_Source\PSoC5/CyLib.c ****     CY_CLK_XMHZ_CFG1_REG = ((CY_CLK_XMHZ_CFG1_REG & ((uint8)(~CY_CLK_XMHZ_CFG1_VREF_FB_MASK))) |
 1658              		.loc 1 1593 0
 1659 0000 044B     		ldr	r3, .L194
 1660 0002 00F00F00 		and	r0, r0, #15
 1661              	.LVL90:
 1662 0006 1A78     		ldrb	r2, [r3]	@ zero_extendqisi2
 1663 0008 02F0F002 		and	r2, r2, #240
 1664 000c 0243     		orrs	r2, r2, r0
 1665 000e 1A70     		strb	r2, [r3]
 1666 0010 7047     		bx	lr
 1667              	.L195:
 1668 0012 00BF     		.align	2
 1669              	.L194:
 1670 0014 13420040 		.word	1073758739
 1671              		.cfi_endproc
 1672              	.LFE37:
 1673              		.size	CyXTAL_SetFbVoltage, .-CyXTAL_SetFbVoltage
 1674              		.section	.text.CyXTAL_SetWdVoltage,"ax",%progbits
 1675              		.align	1
 1676              		.global	CyXTAL_SetWdVoltage
 1677              		.thumb
 1678              		.thumb_func
 1679              		.type	CyXTAL_SetWdVoltage, %function
 1680              	CyXTAL_SetWdVoltage:
 1681              	.LFB38:
1594:.\Generated_Source\PSoC5/CyLib.c ****                             (setting & CY_CLK_XMHZ_CFG1_VREF_FB_MASK));
1595:.\Generated_Source\PSoC5/CyLib.c **** }
1596:.\Generated_Source\PSoC5/CyLib.c **** 
1597:.\Generated_Source\PSoC5/CyLib.c **** 
1598:.\Generated_Source\PSoC5/CyLib.c **** /*******************************************************************************
1599:.\Generated_Source\PSoC5/CyLib.c **** * Function Name: CyXTAL_SetWdVoltage
1600:.\Generated_Source\PSoC5/CyLib.c **** ********************************************************************************
1601:.\Generated_Source\PSoC5/CyLib.c **** *
1602:.\Generated_Source\PSoC5/CyLib.c **** * Summary:
1603:.\Generated_Source\PSoC5/CyLib.c **** *  Sets the reference voltage used by the watchdog to detect a failure in the
1604:.\Generated_Source\PSoC5/CyLib.c **** *  crystal circuit. This function is only available for PSoC3 and PSoC 5LP.
1605:.\Generated_Source\PSoC5/CyLib.c **** *
ARM GAS  C:\Users\Yiquing\AppData\Local\Temp\ccsAoMV1.s 			page 61


1606:.\Generated_Source\PSoC5/CyLib.c **** * Parameters:
1607:.\Generated_Source\PSoC5/CyLib.c **** *  setting: Valid range [0-7].
1608:.\Generated_Source\PSoC5/CyLib.c **** *  Refer to the device TRM and datasheet for more information.
1609:.\Generated_Source\PSoC5/CyLib.c **** *
1610:.\Generated_Source\PSoC5/CyLib.c **** * Return:
1611:.\Generated_Source\PSoC5/CyLib.c **** *  None
1612:.\Generated_Source\PSoC5/CyLib.c **** *
1613:.\Generated_Source\PSoC5/CyLib.c **** *******************************************************************************/
1614:.\Generated_Source\PSoC5/CyLib.c **** void CyXTAL_SetWdVoltage(uint8 setting) 
1615:.\Generated_Source\PSoC5/CyLib.c **** {
 1682              		.loc 1 1615 0
 1683              		.cfi_startproc
 1684              		@ args = 0, pretend = 0, frame = 0
 1685              		@ frame_needed = 0, uses_anonymous_args = 0
 1686              		@ link register save eliminated.
 1687              	.LVL91:
1616:.\Generated_Source\PSoC5/CyLib.c ****     CY_CLK_XMHZ_CFG1_REG = ((CY_CLK_XMHZ_CFG1_REG & ((uint8)(~CY_CLK_XMHZ_CFG1_VREF_WD_MASK))) |
 1688              		.loc 1 1616 0
 1689 0000 044B     		ldr	r3, .L197
1617:.\Generated_Source\PSoC5/CyLib.c ****                             (((uint8)(setting << 4u)) & CY_CLK_XMHZ_CFG1_VREF_WD_MASK));
 1690              		.loc 1 1617 0
 1691 0002 0001     		lsls	r0, r0, #4
 1692              	.LVL92:
1616:.\Generated_Source\PSoC5/CyLib.c ****     CY_CLK_XMHZ_CFG1_REG = ((CY_CLK_XMHZ_CFG1_REG & ((uint8)(~CY_CLK_XMHZ_CFG1_VREF_WD_MASK))) |
 1693              		.loc 1 1616 0
 1694 0004 1A78     		ldrb	r2, [r3]	@ zero_extendqisi2
 1695 0006 00F07000 		and	r0, r0, #112
 1696 000a 02F08F02 		and	r2, r2, #143
 1697 000e 0243     		orrs	r2, r2, r0
 1698 0010 1A70     		strb	r2, [r3]
 1699 0012 7047     		bx	lr
 1700              	.L198:
 1701              		.align	2
 1702              	.L197:
 1703 0014 13420040 		.word	1073758739
 1704              		.cfi_endproc
 1705              	.LFE38:
 1706              		.size	CyXTAL_SetWdVoltage, .-CyXTAL_SetWdVoltage
 1707              		.section	.text.CyHalt,"ax",%progbits
 1708              		.align	1
 1709              		.global	CyHalt
 1710              		.thumb
 1711              		.thumb_func
 1712              		.type	CyHalt, %function
 1713              	CyHalt:
 1714              	.LFB39:
1618:.\Generated_Source\PSoC5/CyLib.c **** }
1619:.\Generated_Source\PSoC5/CyLib.c **** 
1620:.\Generated_Source\PSoC5/CyLib.c **** 
1621:.\Generated_Source\PSoC5/CyLib.c **** /*******************************************************************************
1622:.\Generated_Source\PSoC5/CyLib.c **** * Function Name: CyHalt
1623:.\Generated_Source\PSoC5/CyLib.c **** ********************************************************************************
1624:.\Generated_Source\PSoC5/CyLib.c **** *
1625:.\Generated_Source\PSoC5/CyLib.c **** * Summary:
1626:.\Generated_Source\PSoC5/CyLib.c **** *  Halts the CPU.
1627:.\Generated_Source\PSoC5/CyLib.c **** *
1628:.\Generated_Source\PSoC5/CyLib.c **** * Parameters:
ARM GAS  C:\Users\Yiquing\AppData\Local\Temp\ccsAoMV1.s 			page 62


1629:.\Generated_Source\PSoC5/CyLib.c **** *  uint8 reason: Value to be used during debugging.
1630:.\Generated_Source\PSoC5/CyLib.c **** *
1631:.\Generated_Source\PSoC5/CyLib.c **** * Return:
1632:.\Generated_Source\PSoC5/CyLib.c **** *  None
1633:.\Generated_Source\PSoC5/CyLib.c **** *
1634:.\Generated_Source\PSoC5/CyLib.c **** *******************************************************************************/
1635:.\Generated_Source\PSoC5/CyLib.c **** void CyHalt(uint8 reason) CYREENTRANT
1636:.\Generated_Source\PSoC5/CyLib.c **** {
 1715              		.loc 1 1636 0
 1716              		.cfi_startproc
 1717              		@ args = 0, pretend = 0, frame = 0
 1718              		@ frame_needed = 0, uses_anonymous_args = 0
 1719              		@ link register save eliminated.
 1720              	.LVL93:
1637:.\Generated_Source\PSoC5/CyLib.c ****     if(0u != reason)
1638:.\Generated_Source\PSoC5/CyLib.c ****     {
1639:.\Generated_Source\PSoC5/CyLib.c ****         /* To remove unreferenced local variable warning */
1640:.\Generated_Source\PSoC5/CyLib.c ****     }
1641:.\Generated_Source\PSoC5/CyLib.c **** 
1642:.\Generated_Source\PSoC5/CyLib.c ****     #if defined (__ARMCC_VERSION)
1643:.\Generated_Source\PSoC5/CyLib.c ****         __breakpoint(0x0);
1644:.\Generated_Source\PSoC5/CyLib.c ****     #elif defined(__GNUC__) || defined (__ICCARM__)
1645:.\Generated_Source\PSoC5/CyLib.c ****         __asm("    bkpt    1");
 1721              		.loc 1 1645 0
 1722              	@ 1645 ".\Generated_Source\PSoC5\CyLib.c" 1
 1723 0000 01BE     		    bkpt    1
 1724              	@ 0 "" 2
 1725              		.thumb
 1726 0002 7047     		bx	lr
 1727              		.cfi_endproc
 1728              	.LFE39:
 1729              		.size	CyHalt, .-CyHalt
 1730              		.section	.text.CySoftwareReset,"ax",%progbits
 1731              		.align	1
 1732              		.global	CySoftwareReset
 1733              		.thumb
 1734              		.thumb_func
 1735              		.type	CySoftwareReset, %function
 1736              	CySoftwareReset:
 1737              	.LFB40:
1646:.\Generated_Source\PSoC5/CyLib.c ****     #elif defined(__C51__)
1647:.\Generated_Source\PSoC5/CyLib.c ****         CYDEV_HALT_CPU;
1648:.\Generated_Source\PSoC5/CyLib.c ****     #endif  /* (__ARMCC_VERSION) */
1649:.\Generated_Source\PSoC5/CyLib.c **** }
1650:.\Generated_Source\PSoC5/CyLib.c **** 
1651:.\Generated_Source\PSoC5/CyLib.c **** 
1652:.\Generated_Source\PSoC5/CyLib.c **** /*******************************************************************************
1653:.\Generated_Source\PSoC5/CyLib.c **** * Function Name: CySoftwareReset
1654:.\Generated_Source\PSoC5/CyLib.c **** ********************************************************************************
1655:.\Generated_Source\PSoC5/CyLib.c **** *
1656:.\Generated_Source\PSoC5/CyLib.c **** * Summary:
1657:.\Generated_Source\PSoC5/CyLib.c **** *  Forces a device software reset.
1658:.\Generated_Source\PSoC5/CyLib.c **** *
1659:.\Generated_Source\PSoC5/CyLib.c **** * Parameters:
1660:.\Generated_Source\PSoC5/CyLib.c **** *  None
1661:.\Generated_Source\PSoC5/CyLib.c **** *
1662:.\Generated_Source\PSoC5/CyLib.c **** * Return:
ARM GAS  C:\Users\Yiquing\AppData\Local\Temp\ccsAoMV1.s 			page 63


1663:.\Generated_Source\PSoC5/CyLib.c **** *  None
1664:.\Generated_Source\PSoC5/CyLib.c **** *
1665:.\Generated_Source\PSoC5/CyLib.c **** *******************************************************************************/
1666:.\Generated_Source\PSoC5/CyLib.c **** void CySoftwareReset(void) 
1667:.\Generated_Source\PSoC5/CyLib.c **** {
 1738              		.loc 1 1667 0
 1739              		.cfi_startproc
 1740              		@ args = 0, pretend = 0, frame = 0
 1741              		@ frame_needed = 0, uses_anonymous_args = 0
 1742              		@ link register save eliminated.
1668:.\Generated_Source\PSoC5/CyLib.c ****     CY_LIB_RESET_CR2_REG |= CY_LIB_RESET_CR2_RESET;
 1743              		.loc 1 1668 0
 1744 0000 024B     		ldr	r3, .L201
 1745 0002 1A78     		ldrb	r2, [r3]	@ zero_extendqisi2
 1746 0004 42F00102 		orr	r2, r2, #1
 1747 0008 1A70     		strb	r2, [r3]
 1748 000a 7047     		bx	lr
 1749              	.L202:
 1750              		.align	2
 1751              	.L201:
 1752 000c F6460040 		.word	1073759990
 1753              		.cfi_endproc
 1754              	.LFE40:
 1755              		.size	CySoftwareReset, .-CySoftwareReset
 1756              		.section	.text.CyDelay,"ax",%progbits
 1757              		.align	1
 1758              		.global	CyDelay
 1759              		.thumb
 1760              		.thumb_func
 1761              		.type	CyDelay, %function
 1762              	CyDelay:
 1763              	.LFB41:
1669:.\Generated_Source\PSoC5/CyLib.c **** }
1670:.\Generated_Source\PSoC5/CyLib.c **** 
1671:.\Generated_Source\PSoC5/CyLib.c **** 
1672:.\Generated_Source\PSoC5/CyLib.c **** /*******************************************************************************
1673:.\Generated_Source\PSoC5/CyLib.c **** * Function Name: CyDelay
1674:.\Generated_Source\PSoC5/CyLib.c **** ********************************************************************************
1675:.\Generated_Source\PSoC5/CyLib.c **** *
1676:.\Generated_Source\PSoC5/CyLib.c **** * Summary:
1677:.\Generated_Source\PSoC5/CyLib.c **** *  Blocks for milliseconds.
1678:.\Generated_Source\PSoC5/CyLib.c **** *
1679:.\Generated_Source\PSoC5/CyLib.c **** *  Note:
1680:.\Generated_Source\PSoC5/CyLib.c **** *  CyDelay has been implemented with the instruction cache assumed enabled. When
1681:.\Generated_Source\PSoC5/CyLib.c **** *  the instruction cache is disabled on PSoC5, CyDelay will be two times larger.
1682:.\Generated_Source\PSoC5/CyLib.c **** *  For example, with instruction cache disabled CyDelay(100) would result in
1683:.\Generated_Source\PSoC5/CyLib.c **** *  about 200 ms delay instead of 100 ms.
1684:.\Generated_Source\PSoC5/CyLib.c **** *
1685:.\Generated_Source\PSoC5/CyLib.c **** * Parameters:
1686:.\Generated_Source\PSoC5/CyLib.c **** *  milliseconds: number of milliseconds to delay.
1687:.\Generated_Source\PSoC5/CyLib.c **** *
1688:.\Generated_Source\PSoC5/CyLib.c **** * Return:
1689:.\Generated_Source\PSoC5/CyLib.c **** *   None
1690:.\Generated_Source\PSoC5/CyLib.c **** *
1691:.\Generated_Source\PSoC5/CyLib.c **** *******************************************************************************/
1692:.\Generated_Source\PSoC5/CyLib.c **** void CyDelay(uint32 milliseconds) CYREENTRANT
1693:.\Generated_Source\PSoC5/CyLib.c **** {
ARM GAS  C:\Users\Yiquing\AppData\Local\Temp\ccsAoMV1.s 			page 64


 1764              		.loc 1 1693 0
 1765              		.cfi_startproc
 1766              		@ args = 0, pretend = 0, frame = 0
 1767              		@ frame_needed = 0, uses_anonymous_args = 0
 1768              	.LVL94:
 1769 0000 10B5     		push	{r4, lr}
 1770              		.cfi_def_cfa_offset 8
 1771              		.cfi_offset 4, -8
 1772              		.cfi_offset 14, -4
 1773 0002 0446     		mov	r4, r0
 1774              	.LVL95:
 1775              	.L204:
1694:.\Generated_Source\PSoC5/CyLib.c ****     while (milliseconds > 32768u)
 1776              		.loc 1 1694 0 discriminator 1
 1777 0004 B4F5004F 		cmp	r4, #32768
 1778 0008 064B     		ldr	r3, .L207
 1779 000a 05D9     		bls	.L206
1695:.\Generated_Source\PSoC5/CyLib.c ****     {
1696:.\Generated_Source\PSoC5/CyLib.c ****         /***********************************************************************
1697:.\Generated_Source\PSoC5/CyLib.c ****         * This loop prevents overflow.At 100MHz, milliseconds * delay_freq_khz
1698:.\Generated_Source\PSoC5/CyLib.c ****         * overflows at about 42 seconds.
1699:.\Generated_Source\PSoC5/CyLib.c ****         ***********************************************************************/
1700:.\Generated_Source\PSoC5/CyLib.c ****         CyDelayCycles(cydelay_32k_ms);
 1780              		.loc 1 1700 0
 1781 000c 1868     		ldr	r0, [r3]
 1782 000e FFF7FEFF 		bl	CyDelayCycles
 1783              	.LVL96:
1701:.\Generated_Source\PSoC5/CyLib.c ****         milliseconds = ((uint32)(milliseconds - 32768u));
 1784              		.loc 1 1701 0
 1785 0012 A4F50044 		sub	r4, r4, #32768
 1786              	.LVL97:
 1787 0016 F5E7     		b	.L204
 1788              	.L206:
1702:.\Generated_Source\PSoC5/CyLib.c ****     }
1703:.\Generated_Source\PSoC5/CyLib.c **** 
1704:.\Generated_Source\PSoC5/CyLib.c ****     CyDelayCycles(milliseconds * cydelay_freq_khz);
 1789              		.loc 1 1704 0
 1790 0018 5868     		ldr	r0, [r3, #4]
 1791 001a 6043     		muls	r0, r4, r0
1705:.\Generated_Source\PSoC5/CyLib.c **** }
 1792              		.loc 1 1705 0
 1793 001c BDE81040 		pop	{r4, lr}
 1794              	.LVL98:
1704:.\Generated_Source\PSoC5/CyLib.c ****     CyDelayCycles(milliseconds * cydelay_freq_khz);
 1795              		.loc 1 1704 0
 1796 0020 FFF7FEBF 		b	CyDelayCycles
 1797              	.LVL99:
 1798              	.L208:
 1799              		.align	2
 1800              	.L207:
 1801 0024 00000000 		.word	.LANCHOR0
 1802              		.cfi_endproc
 1803              	.LFE41:
 1804              		.size	CyDelay, .-CyDelay
 1805              		.section	.text.CyDelayUs,"ax",%progbits
 1806              		.align	1
 1807              		.global	CyDelayUs
ARM GAS  C:\Users\Yiquing\AppData\Local\Temp\ccsAoMV1.s 			page 65


 1808              		.thumb
 1809              		.thumb_func
 1810              		.type	CyDelayUs, %function
 1811              	CyDelayUs:
 1812              	.LFB42:
1706:.\Generated_Source\PSoC5/CyLib.c **** 
1707:.\Generated_Source\PSoC5/CyLib.c **** 
1708:.\Generated_Source\PSoC5/CyLib.c **** #if(!CY_PSOC3)
1709:.\Generated_Source\PSoC5/CyLib.c **** 
1710:.\Generated_Source\PSoC5/CyLib.c ****     /* For PSoC3 devices function is defined in CyBootAsmKeil.a51 file */
1711:.\Generated_Source\PSoC5/CyLib.c **** 
1712:.\Generated_Source\PSoC5/CyLib.c ****     /*******************************************************************************
1713:.\Generated_Source\PSoC5/CyLib.c ****     * Function Name: CyDelayUs
1714:.\Generated_Source\PSoC5/CyLib.c ****     ********************************************************************************
1715:.\Generated_Source\PSoC5/CyLib.c ****     *
1716:.\Generated_Source\PSoC5/CyLib.c ****     * Summary:
1717:.\Generated_Source\PSoC5/CyLib.c ****     *  Blocks for microseconds.
1718:.\Generated_Source\PSoC5/CyLib.c ****     *
1719:.\Generated_Source\PSoC5/CyLib.c ****     *  Note:
1720:.\Generated_Source\PSoC5/CyLib.c ****     *   CyDelay has been implemented with the instruction cache assumed enabled.
1721:.\Generated_Source\PSoC5/CyLib.c ****     *   When instruction cache is disabled on PSoC5, CyDelayUs will be two times
1722:.\Generated_Source\PSoC5/CyLib.c ****     *   larger. Ex: With instruction cache disabled CyDelayUs(100) would result
1723:.\Generated_Source\PSoC5/CyLib.c ****     *   in about 200us delay instead of 100us.
1724:.\Generated_Source\PSoC5/CyLib.c ****     *
1725:.\Generated_Source\PSoC5/CyLib.c ****     * Parameters:
1726:.\Generated_Source\PSoC5/CyLib.c ****     *  uint16 microseconds: number of microseconds to delay.
1727:.\Generated_Source\PSoC5/CyLib.c ****     *
1728:.\Generated_Source\PSoC5/CyLib.c ****     * Return:
1729:.\Generated_Source\PSoC5/CyLib.c ****     *  None
1730:.\Generated_Source\PSoC5/CyLib.c ****     *
1731:.\Generated_Source\PSoC5/CyLib.c ****     * Side Effects:
1732:.\Generated_Source\PSoC5/CyLib.c ****     *  CyDelayUS has been implemented with the instruction cache assumed enabled.
1733:.\Generated_Source\PSoC5/CyLib.c ****     *  When the instruction cache is disabled on PSoC 5, CyDelayUs will be two times
1734:.\Generated_Source\PSoC5/CyLib.c ****     *  larger. For example, with the instruction cache disabled CyDelayUs(100) would
1735:.\Generated_Source\PSoC5/CyLib.c ****     *  result in about 200 us delay instead of 100 us.
1736:.\Generated_Source\PSoC5/CyLib.c ****     *
1737:.\Generated_Source\PSoC5/CyLib.c ****     *  If the bus clock frequency is a small non-integer number, the actual delay
1738:.\Generated_Source\PSoC5/CyLib.c ****     *  can be up to twice as long as the nominal value. The actual delay cannot be
1739:.\Generated_Source\PSoC5/CyLib.c ****     *  shorter than the nominal one.
1740:.\Generated_Source\PSoC5/CyLib.c ****     *******************************************************************************/
1741:.\Generated_Source\PSoC5/CyLib.c ****     void CyDelayUs(uint16 microseconds) CYREENTRANT
1742:.\Generated_Source\PSoC5/CyLib.c ****     {
 1813              		.loc 1 1742 0
 1814              		.cfi_startproc
 1815              		@ args = 0, pretend = 0, frame = 0
 1816              		@ frame_needed = 0, uses_anonymous_args = 0
 1817              		@ link register save eliminated.
 1818              	.LVL100:
1743:.\Generated_Source\PSoC5/CyLib.c ****         CyDelayCycles((uint32)microseconds * cydelay_freq_mhz);
 1819              		.loc 1 1743 0
 1820 0000 024B     		ldr	r3, .L210
 1821 0002 1B7A     		ldrb	r3, [r3, #8]	@ zero_extendqisi2
 1822 0004 5843     		muls	r0, r3, r0
 1823              	.LVL101:
 1824 0006 FFF7FEBF 		b	CyDelayCycles
 1825              	.LVL102:
 1826              	.L211:
ARM GAS  C:\Users\Yiquing\AppData\Local\Temp\ccsAoMV1.s 			page 66


 1827 000a 00BF     		.align	2
 1828              	.L210:
 1829 000c 00000000 		.word	.LANCHOR0
 1830              		.cfi_endproc
 1831              	.LFE42:
 1832              		.size	CyDelayUs, .-CyDelayUs
 1833              		.section	.text.CyXTAL_32KHZ_SetPowerMode,"ax",%progbits
 1834              		.align	1
 1835              		.global	CyXTAL_32KHZ_SetPowerMode
 1836              		.thumb
 1837              		.thumb_func
 1838              		.type	CyXTAL_32KHZ_SetPowerMode, %function
 1839              	CyXTAL_32KHZ_SetPowerMode:
 1840              	.LFB28:
1279:.\Generated_Source\PSoC5/CyLib.c **** {
 1841              		.loc 1 1279 0
 1842              		.cfi_startproc
 1843              		@ args = 0, pretend = 0, frame = 0
 1844              		@ frame_needed = 0, uses_anonymous_args = 0
 1845              	.LVL103:
 1846 0000 70B5     		push	{r4, r5, r6, lr}
 1847              		.cfi_def_cfa_offset 16
 1848              		.cfi_offset 4, -16
 1849              		.cfi_offset 5, -12
 1850              		.cfi_offset 6, -8
 1851              		.cfi_offset 14, -4
1280:.\Generated_Source\PSoC5/CyLib.c ****     uint8 state = (0u != (CY_CLK_XTAL32_CR_REG & CY_CLK_XTAL32_CR_LPM)) ? 1u : 0u;
 1852              		.loc 1 1280 0
 1853 0002 174C     		ldr	r4, .L216
1282:.\Generated_Source\PSoC5/CyLib.c ****     CY_CLK_XTAL32_TST_REG = CY_CLK_XTAL32_TST_DEFAULT;
 1854              		.loc 1 1282 0
 1855 0004 174B     		ldr	r3, .L216+4
1280:.\Generated_Source\PSoC5/CyLib.c ****     uint8 state = (0u != (CY_CLK_XTAL32_CR_REG & CY_CLK_XTAL32_CR_LPM)) ? 1u : 0u;
 1856              		.loc 1 1280 0
 1857 0006 2678     		ldrb	r6, [r4]	@ zero_extendqisi2
1282:.\Generated_Source\PSoC5/CyLib.c ****     CY_CLK_XTAL32_TST_REG = CY_CLK_XTAL32_TST_DEFAULT;
 1858              		.loc 1 1282 0
 1859 0008 F321     		movs	r1, #243
1284:.\Generated_Source\PSoC5/CyLib.c ****     if(1u == mode)
 1860              		.loc 1 1284 0
 1861 000a 0128     		cmp	r0, #1
1282:.\Generated_Source\PSoC5/CyLib.c ****     CY_CLK_XTAL32_TST_REG = CY_CLK_XTAL32_TST_DEFAULT;
 1862              		.loc 1 1282 0
 1863 000c 1970     		strb	r1, [r3]
1280:.\Generated_Source\PSoC5/CyLib.c ****     uint8 state = (0u != (CY_CLK_XTAL32_CR_REG & CY_CLK_XTAL32_CR_LPM)) ? 1u : 0u;
 1864              		.loc 1 1280 0
 1865 000e C6F34006 		ubfx	r6, r6, #1, #1
 1866              	.LVL104:
 1867 0012 03F28E33 		addw	r3, r3, #910
 1868 0016 144D     		ldr	r5, .L216+8
1284:.\Generated_Source\PSoC5/CyLib.c ****     if(1u == mode)
 1869              		.loc 1 1284 0
 1870 0018 10D1     		bne	.L213
1287:.\Generated_Source\PSoC5/CyLib.c ****         CY_CLK_XTAL32_TR_REG  = CY_CLK_XTAL32_TR_LOW_POWER;
 1871              		.loc 1 1287 0
 1872 001a 1870     		strb	r0, [r3]
1288:.\Generated_Source\PSoC5/CyLib.c ****         CyDelayUs(10u);
ARM GAS  C:\Users\Yiquing\AppData\Local\Temp\ccsAoMV1.s 			page 67


 1873              		.loc 1 1288 0
 1874 001c 0A20     		movs	r0, #10
 1875              	.LVL105:
 1876 001e FFF7FEFF 		bl	CyDelayUs
 1877              	.LVL106:
1289:.\Generated_Source\PSoC5/CyLib.c ****         CY_CLK_XTAL32_CFG_REG = (CY_CLK_XTAL32_CFG_REG & ((uint8)(~CY_CLK_XTAL32_CFG_LP_MASK))) |
 1878              		.loc 1 1289 0
 1879 0022 2B78     		ldrb	r3, [r5]	@ zero_extendqisi2
1291:.\Generated_Source\PSoC5/CyLib.c ****         CyDelayUs(20u);
 1880              		.loc 1 1291 0
 1881 0024 1420     		movs	r0, #20
1289:.\Generated_Source\PSoC5/CyLib.c ****         CY_CLK_XTAL32_CFG_REG = (CY_CLK_XTAL32_CFG_REG & ((uint8)(~CY_CLK_XTAL32_CFG_LP_MASK))) |
 1882              		.loc 1 1289 0
 1883 0026 03F0F303 		and	r3, r3, #243
 1884 002a 43F00803 		orr	r3, r3, #8
 1885 002e 2B70     		strb	r3, [r5]
1291:.\Generated_Source\PSoC5/CyLib.c ****         CyDelayUs(20u);
 1886              		.loc 1 1291 0
 1887 0030 FFF7FEFF 		bl	CyDelayUs
 1888              	.LVL107:
1292:.\Generated_Source\PSoC5/CyLib.c ****         CY_CLK_XTAL32_CR_REG |= CY_CLK_XTAL32_CR_LPM;
 1889              		.loc 1 1292 0
 1890 0034 2378     		ldrb	r3, [r4]	@ zero_extendqisi2
 1891 0036 43F00203 		orr	r3, r3, #2
 1892 003a 0DE0     		b	.L215
 1893              	.LVL108:
 1894              	.L213:
1297:.\Generated_Source\PSoC5/CyLib.c ****         CY_CLK_XTAL32_TR_REG  = CY_CLK_XTAL32_TR_HIGH_POWER;
 1895              		.loc 1 1297 0
 1896 003c 0622     		movs	r2, #6
 1897 003e 1A70     		strb	r2, [r3]
1298:.\Generated_Source\PSoC5/CyLib.c ****         CyDelayUs(10u);
 1898              		.loc 1 1298 0
 1899 0040 0A20     		movs	r0, #10
 1900              	.LVL109:
 1901 0042 FFF7FEFF 		bl	CyDelayUs
 1902              	.LVL110:
1299:.\Generated_Source\PSoC5/CyLib.c ****         CY_CLK_XTAL32_CFG_REG = (CY_CLK_XTAL32_CFG_REG & ((uint8)(~CY_CLK_XTAL32_CFG_LP_MASK))) |
 1903              		.loc 1 1299 0
 1904 0046 2B78     		ldrb	r3, [r5]	@ zero_extendqisi2
 1905 0048 03F0F303 		and	r3, r3, #243
 1906 004c 43F00403 		orr	r3, r3, #4
 1907 0050 2B70     		strb	r3, [r5]
1301:.\Generated_Source\PSoC5/CyLib.c ****         CY_CLK_XTAL32_CR_REG &= ((uint8)(~CY_CLK_XTAL32_CR_LPM));
 1908              		.loc 1 1301 0
 1909 0052 2378     		ldrb	r3, [r4]	@ zero_extendqisi2
 1910 0054 03F0FD03 		and	r3, r3, #253
 1911              	.L215:
 1912 0058 2370     		strb	r3, [r4]
1305:.\Generated_Source\PSoC5/CyLib.c **** }
 1913              		.loc 1 1305 0
 1914 005a 3046     		mov	r0, r6
 1915 005c 70BD     		pop	{r4, r5, r6, pc}
 1916              	.LVL111:
 1917              	.L217:
 1918 005e 00BF     		.align	2
 1919              	.L216:
ARM GAS  C:\Users\Yiquing\AppData\Local\Temp\ccsAoMV1.s 			page 68


 1920 0060 08430040 		.word	1073758984
 1921 0064 0A430040 		.word	1073758986
 1922 0068 09430040 		.word	1073758985
 1923              		.cfi_endproc
 1924              	.LFE28:
 1925              		.size	CyXTAL_32KHZ_SetPowerMode, .-CyXTAL_32KHZ_SetPowerMode
 1926              		.section	.text.CyXTAL_32KHZ_Start,"ax",%progbits
 1927              		.align	1
 1928              		.global	CyXTAL_32KHZ_Start
 1929              		.thumb
 1930              		.thumb_func
 1931              		.type	CyXTAL_32KHZ_Start, %function
 1932              	CyXTAL_32KHZ_Start:
 1933              	.LFB25:
1180:.\Generated_Source\PSoC5/CyLib.c **** {
 1934              		.loc 1 1180 0
 1935              		.cfi_startproc
 1936              		@ args = 0, pretend = 0, frame = 8
 1937              		@ frame_needed = 0, uses_anonymous_args = 0
 1938 0000 13B5     		push	{r0, r1, r4, lr}
 1939              		.cfi_def_cfa_offset 16
 1940              		.cfi_offset 0, -16
 1941              		.cfi_offset 1, -12
 1942              		.cfi_offset 4, -8
 1943              		.cfi_offset 14, -4
1183:.\Generated_Source\PSoC5/CyLib.c ****     CY_CLK_XTAL32_TST_REG = CY_CLK_XTAL32_TST_DEFAULT;
 1944              		.loc 1 1183 0
 1945 0002 184B     		ldr	r3, .L223
 1946 0004 F322     		movs	r2, #243
 1947 0006 1A70     		strb	r2, [r3]
1184:.\Generated_Source\PSoC5/CyLib.c ****     CY_CLK_XTAL32_TR_REG  = CY_CLK_XTAL32_TR_STARTUP;
 1948              		.loc 1 1184 0
 1949 0008 0322     		movs	r2, #3
 1950 000a 83F88E23 		strb	r2, [r3, #910]
1185:.\Generated_Source\PSoC5/CyLib.c ****     CY_CLK_XTAL32_CFG_REG = (CY_CLK_XTAL32_CFG_REG & ((uint8)(~CY_CLK_XTAL32_CFG_LP_MASK))) |
 1951              		.loc 1 1185 0
 1952 000e 013B     		subs	r3, r3, #1
 1953 0010 1A78     		ldrb	r2, [r3]	@ zero_extendqisi2
 1954 0012 02F0F302 		and	r2, r2, #243
 1955 0016 42F00402 		orr	r2, r2, #4
 1956 001a 1A70     		strb	r2, [r3]
1193:.\Generated_Source\PSoC5/CyLib.c ****     CY_CLK_XTAL32_CR_REG |= CY_CLK_XTAL32_CR_EN;
 1957              		.loc 1 1193 0
 1958 001c 13F8012C 		ldrb	r2, [r3, #-1]	@ zero_extendqisi2
 1959 0020 42F00102 		orr	r2, r2, #1
 1960 0024 03F8012C 		strb	r2, [r3, #-1]
 1961 0028 013B     		subs	r3, r3, #1
1195:.\Generated_Source\PSoC5/CyLib.c ****     for (i = 1000u; i > 0u; i--)
 1962              		.loc 1 1195 0
 1963 002a 4FF47A72 		mov	r2, #1000
 1964 002e ADF80620 		strh	r2, [sp, #6]	@ movhi
 1965 0032 1C46     		mov	r4, r3
 1966              	.L219:
1195:.\Generated_Source\PSoC5/CyLib.c ****     for (i = 1000u; i > 0u; i--)
 1967              		.loc 1 1195 0 is_stmt 0 discriminator 1
 1968 0034 BDF80630 		ldrh	r3, [sp, #6]
 1969 0038 9BB2     		uxth	r3, r3
ARM GAS  C:\Users\Yiquing\AppData\Local\Temp\ccsAoMV1.s 			page 69


 1970 003a 83B1     		cbz	r3, .L218
 1971              	.LBB20:
 1972              	.LBB21:
1256:.\Generated_Source\PSoC5/CyLib.c ****     return(CY_CLK_XTAL32_CR_REG & CY_XTAL32K_ANA_STAT);
 1973              		.loc 1 1256 0 is_stmt 1
 1974 003c 2378     		ldrb	r3, [r4]	@ zero_extendqisi2
 1975              	.LBE21:
 1976              	.LBE20:
1197:.\Generated_Source\PSoC5/CyLib.c ****         if(0u != (CyXTAL_32KHZ_ReadStatus() & CY_XTAL32K_ANA_STAT))
 1977              		.loc 1 1197 0
 1978 003e 9B06     		lsls	r3, r3, #26
 1979 0040 03D5     		bpl	.L220
1200:.\Generated_Source\PSoC5/CyLib.c ****             (void) CyXTAL_32KHZ_SetPowerMode(0u);
 1980              		.loc 1 1200 0
 1981 0042 0020     		movs	r0, #0
 1982 0044 FFF7FEFF 		bl	CyXTAL_32KHZ_SetPowerMode
 1983              	.LVL112:
1202:.\Generated_Source\PSoC5/CyLib.c ****             break;
 1984              		.loc 1 1202 0
 1985 0048 09E0     		b	.L218
 1986              	.L220:
1204:.\Generated_Source\PSoC5/CyLib.c ****         CyDelayUs(1u);
 1987              		.loc 1 1204 0
 1988 004a 0120     		movs	r0, #1
 1989 004c FFF7FEFF 		bl	CyDelayUs
 1990              	.LVL113:
1195:.\Generated_Source\PSoC5/CyLib.c ****     for (i = 1000u; i > 0u; i--)
 1991              		.loc 1 1195 0
 1992 0050 BDF80630 		ldrh	r3, [sp, #6]
 1993 0054 013B     		subs	r3, r3, #1
 1994 0056 9BB2     		uxth	r3, r3
 1995 0058 ADF80630 		strh	r3, [sp, #6]	@ movhi
 1996 005c EAE7     		b	.L219
 1997              	.L218:
1206:.\Generated_Source\PSoC5/CyLib.c **** }
 1998              		.loc 1 1206 0
 1999 005e 02B0     		add	sp, sp, #8
 2000              		@ sp needed
 2001 0060 10BD     		pop	{r4, pc}
 2002              	.L224:
 2003 0062 00BF     		.align	2
 2004              	.L223:
 2005 0064 0A430040 		.word	1073758986
 2006              		.cfi_endproc
 2007              	.LFE25:
 2008              		.size	CyXTAL_32KHZ_Start, .-CyXTAL_32KHZ_Start
 2009              		.section	.text.CyDelayFreq,"ax",%progbits
 2010              		.align	1
 2011              		.global	CyDelayFreq
 2012              		.thumb
 2013              		.thumb_func
 2014              		.type	CyDelayFreq, %function
 2015              	CyDelayFreq:
 2016              	.LFB43:
1744:.\Generated_Source\PSoC5/CyLib.c ****     }
1745:.\Generated_Source\PSoC5/CyLib.c **** 
1746:.\Generated_Source\PSoC5/CyLib.c **** #endif  /* (!CY_PSOC3) */
ARM GAS  C:\Users\Yiquing\AppData\Local\Temp\ccsAoMV1.s 			page 70


1747:.\Generated_Source\PSoC5/CyLib.c **** 
1748:.\Generated_Source\PSoC5/CyLib.c **** 
1749:.\Generated_Source\PSoC5/CyLib.c **** /*******************************************************************************
1750:.\Generated_Source\PSoC5/CyLib.c **** * Function Name: CyDelayFreq
1751:.\Generated_Source\PSoC5/CyLib.c **** ********************************************************************************
1752:.\Generated_Source\PSoC5/CyLib.c **** *
1753:.\Generated_Source\PSoC5/CyLib.c **** * Summary:
1754:.\Generated_Source\PSoC5/CyLib.c **** *  Sets the clock frequency for CyDelay.
1755:.\Generated_Source\PSoC5/CyLib.c **** *
1756:.\Generated_Source\PSoC5/CyLib.c **** * Parameters:
1757:.\Generated_Source\PSoC5/CyLib.c **** *  freq: The frequency of the bus clock in Hertz.
1758:.\Generated_Source\PSoC5/CyLib.c **** *
1759:.\Generated_Source\PSoC5/CyLib.c **** * Return:
1760:.\Generated_Source\PSoC5/CyLib.c **** *  None
1761:.\Generated_Source\PSoC5/CyLib.c **** *
1762:.\Generated_Source\PSoC5/CyLib.c **** *******************************************************************************/
1763:.\Generated_Source\PSoC5/CyLib.c **** void CyDelayFreq(uint32 freq) CYREENTRANT
1764:.\Generated_Source\PSoC5/CyLib.c **** {
 2017              		.loc 1 1764 0
 2018              		.cfi_startproc
 2019              		@ args = 0, pretend = 0, frame = 0
 2020              		@ frame_needed = 0, uses_anonymous_args = 0
 2021              		@ link register save eliminated.
 2022              	.LVL114:
 2023 0000 0C4B     		ldr	r3, .L228
1765:.\Generated_Source\PSoC5/CyLib.c ****     if (freq != 0u)
 2024              		.loc 1 1765 0
 2025 0002 08B1     		cbz	r0, .L226
1766:.\Generated_Source\PSoC5/CyLib.c ****     {
1767:.\Generated_Source\PSoC5/CyLib.c ****         cydelay_freq_hz = freq;
 2026              		.loc 1 1767 0
 2027 0004 D860     		str	r0, [r3, #12]
 2028 0006 01E0     		b	.L227
 2029              	.L226:
1768:.\Generated_Source\PSoC5/CyLib.c ****     }
1769:.\Generated_Source\PSoC5/CyLib.c ****     else
1770:.\Generated_Source\PSoC5/CyLib.c ****     {
1771:.\Generated_Source\PSoC5/CyLib.c ****         cydelay_freq_hz = BCLK__BUS_CLK__HZ;
 2030              		.loc 1 1771 0
 2031 0008 0B4A     		ldr	r2, .L228+4
 2032 000a DA60     		str	r2, [r3, #12]
 2033              	.L227:
1772:.\Generated_Source\PSoC5/CyLib.c ****     }
1773:.\Generated_Source\PSoC5/CyLib.c **** 
1774:.\Generated_Source\PSoC5/CyLib.c ****     cydelay_freq_mhz = (uint8)((cydelay_freq_hz + 999999u) / 1000000u);
 2034              		.loc 1 1774 0
 2035 000c D968     		ldr	r1, [r3, #12]
 2036 000e 0B48     		ldr	r0, .L228+8
 2037              	.LVL115:
 2038 0010 01F57422 		add	r2, r1, #999424
 2039 0014 02F23F22 		addw	r2, r2, #575
 2040 0018 B2FBF0F2 		udiv	r2, r2, r0
 2041 001c 1A72     		strb	r2, [r3, #8]
1775:.\Generated_Source\PSoC5/CyLib.c ****     cydelay_freq_khz = (cydelay_freq_hz + 999u) / 1000u;
 2042              		.loc 1 1775 0
 2043 001e 4FF47A70 		mov	r0, #1000
 2044 0022 01F2E732 		addw	r2, r1, #999
ARM GAS  C:\Users\Yiquing\AppData\Local\Temp\ccsAoMV1.s 			page 71


 2045 0026 B2FBF0F2 		udiv	r2, r2, r0
 2046 002a 5A60     		str	r2, [r3, #4]
1776:.\Generated_Source\PSoC5/CyLib.c ****     cydelay_32k_ms   = 32768u * cydelay_freq_khz;
 2047              		.loc 1 1776 0
 2048 002c D203     		lsls	r2, r2, #15
 2049 002e 1A60     		str	r2, [r3]
 2050 0030 7047     		bx	lr
 2051              	.L229:
 2052 0032 00BF     		.align	2
 2053              	.L228:
 2054 0034 00000000 		.word	.LANCHOR0
 2055 0038 006CDC02 		.word	48000000
 2056 003c 40420F00 		.word	1000000
 2057              		.cfi_endproc
 2058              	.LFE43:
 2059              		.size	CyDelayFreq, .-CyDelayFreq
 2060              		.section	.text.CyWdtStart,"ax",%progbits
 2061              		.align	1
 2062              		.global	CyWdtStart
 2063              		.thumb
 2064              		.thumb_func
 2065              		.type	CyWdtStart, %function
 2066              	CyWdtStart:
 2067              	.LFB44:
1777:.\Generated_Source\PSoC5/CyLib.c **** }
1778:.\Generated_Source\PSoC5/CyLib.c **** 
1779:.\Generated_Source\PSoC5/CyLib.c **** 
1780:.\Generated_Source\PSoC5/CyLib.c **** /*******************************************************************************
1781:.\Generated_Source\PSoC5/CyLib.c **** * Function Name: CyWdtStart
1782:.\Generated_Source\PSoC5/CyLib.c **** ********************************************************************************
1783:.\Generated_Source\PSoC5/CyLib.c **** *
1784:.\Generated_Source\PSoC5/CyLib.c **** * Summary:
1785:.\Generated_Source\PSoC5/CyLib.c **** *  Enables the watchdog timer.
1786:.\Generated_Source\PSoC5/CyLib.c **** *
1787:.\Generated_Source\PSoC5/CyLib.c **** *  The timer is configured for the specified count interval, the central
1788:.\Generated_Source\PSoC5/CyLib.c **** *  timewheel is cleared, the setting for the low power mode is configured and
1789:.\Generated_Source\PSoC5/CyLib.c **** *  the watchdog timer is enabled.
1790:.\Generated_Source\PSoC5/CyLib.c **** *
1791:.\Generated_Source\PSoC5/CyLib.c **** *  Once enabled the watchdog cannot be disabled. The watchdog counts each time
1792:.\Generated_Source\PSoC5/CyLib.c **** *  the Central Time Wheel (CTW) reaches the period specified. The watchdog must
1793:.\Generated_Source\PSoC5/CyLib.c **** *  be cleared using the CyWdtClear() function before three ticks of the watchdog
1794:.\Generated_Source\PSoC5/CyLib.c **** *  timer occur. The CTW is free running, so this will occur after between 2 and
1795:.\Generated_Source\PSoC5/CyLib.c **** *  3 timer periods elapse.
1796:.\Generated_Source\PSoC5/CyLib.c **** *
1797:.\Generated_Source\PSoC5/CyLib.c **** *  PSoC5: The watchdog timer should not be used during sleep modes. Since the
1798:.\Generated_Source\PSoC5/CyLib.c **** *  WDT cannot be disabled after it is enabled, the WDT timeout period can be
1799:.\Generated_Source\PSoC5/CyLib.c **** *  set to be greater than the sleep wakeup period, then feed the dog on each
1800:.\Generated_Source\PSoC5/CyLib.c **** *  wakeup from Sleep.
1801:.\Generated_Source\PSoC5/CyLib.c **** *
1802:.\Generated_Source\PSoC5/CyLib.c **** * Parameters:
1803:.\Generated_Source\PSoC5/CyLib.c **** *  ticks: One of the four available timer periods. Once WDT enabled, the
1804:.\Generated_Source\PSoC5/CyLib.c ****    interval cannot be changed.
1805:.\Generated_Source\PSoC5/CyLib.c **** *         CYWDT_2_TICKS     -     4 - 6     ms
1806:.\Generated_Source\PSoC5/CyLib.c **** *         CYWDT_16_TICKS    -    32 - 48    ms
1807:.\Generated_Source\PSoC5/CyLib.c **** *         CYWDT_128_TICKS   -   256 - 384   ms
1808:.\Generated_Source\PSoC5/CyLib.c **** *         CYWDT_1024_TICKS  - 2.048 - 3.072 s
1809:.\Generated_Source\PSoC5/CyLib.c **** *
ARM GAS  C:\Users\Yiquing\AppData\Local\Temp\ccsAoMV1.s 			page 72


1810:.\Generated_Source\PSoC5/CyLib.c **** *  lpMode: Low power mode configuration. This parameter is ignored for PSoC 5.
1811:.\Generated_Source\PSoC5/CyLib.c **** *          The WDT always acts as if CYWDT_LPMODE_NOCHANGE is passed.
1812:.\Generated_Source\PSoC5/CyLib.c **** *
1813:.\Generated_Source\PSoC5/CyLib.c **** *          CYWDT_LPMODE_NOCHANGE - No Change
1814:.\Generated_Source\PSoC5/CyLib.c **** *          CYWDT_LPMODE_MAXINTER - Switch to longest timer mode during low power
1815:.\Generated_Source\PSoC5/CyLib.c **** *                                 mode
1816:.\Generated_Source\PSoC5/CyLib.c **** *          CYWDT_LPMODE_DISABLED - Disable WDT during low power mode
1817:.\Generated_Source\PSoC5/CyLib.c **** *
1818:.\Generated_Source\PSoC5/CyLib.c **** * Return:
1819:.\Generated_Source\PSoC5/CyLib.c **** *  None
1820:.\Generated_Source\PSoC5/CyLib.c **** *
1821:.\Generated_Source\PSoC5/CyLib.c **** * Side Effects:
1822:.\Generated_Source\PSoC5/CyLib.c **** *  PSoC5: The ILO 1 KHz must be enabled for proper WDT operation. Stopping the
1823:.\Generated_Source\PSoC5/CyLib.c **** *  ILO 1 kHz could break the active WDT functionality.
1824:.\Generated_Source\PSoC5/CyLib.c **** *
1825:.\Generated_Source\PSoC5/CyLib.c **** *******************************************************************************/
1826:.\Generated_Source\PSoC5/CyLib.c **** void CyWdtStart(uint8 ticks, uint8 lpMode) 
1827:.\Generated_Source\PSoC5/CyLib.c **** {
 2068              		.loc 1 1827 0
 2069              		.cfi_startproc
 2070              		@ args = 0, pretend = 0, frame = 0
 2071              		@ frame_needed = 0, uses_anonymous_args = 0
 2072              		@ link register save eliminated.
 2073              	.LVL116:
1828:.\Generated_Source\PSoC5/CyLib.c ****     /* Set WDT interval */
1829:.\Generated_Source\PSoC5/CyLib.c ****     CY_WDT_CFG_REG = (CY_WDT_CFG_REG & ((uint8)(~CY_WDT_CFG_INTERVAL_MASK))) | (ticks & CY_WDT_CFG_
 2074              		.loc 1 1829 0
 2075 0000 0E4B     		ldr	r3, .L231
 2076 0002 00F00300 		and	r0, r0, #3
 2077              	.LVL117:
 2078 0006 1A78     		ldrb	r2, [r3]	@ zero_extendqisi2
1830:.\Generated_Source\PSoC5/CyLib.c **** 
1831:.\Generated_Source\PSoC5/CyLib.c ****     /* Reset CTW to ensure that first watchdog period is full */
1832:.\Generated_Source\PSoC5/CyLib.c ****     CY_WDT_CFG_REG |= CY_WDT_CFG_CTW_RESET;
1833:.\Generated_Source\PSoC5/CyLib.c ****     CY_WDT_CFG_REG &= ((uint8)(~CY_WDT_CFG_CTW_RESET));
1834:.\Generated_Source\PSoC5/CyLib.c **** 
1835:.\Generated_Source\PSoC5/CyLib.c ****     /* Setting low power mode */
1836:.\Generated_Source\PSoC5/CyLib.c ****     CY_WDT_CFG_REG = (((uint8)(lpMode << CY_WDT_CFG_LPMODE_SHIFT)) & CY_WDT_CFG_LPMODE_MASK) |
 2079              		.loc 1 1836 0
 2080 0008 4901     		lsls	r1, r1, #5
 2081              	.LVL118:
1829:.\Generated_Source\PSoC5/CyLib.c ****     CY_WDT_CFG_REG = (CY_WDT_CFG_REG & ((uint8)(~CY_WDT_CFG_INTERVAL_MASK))) | (ticks & CY_WDT_CFG_
 2082              		.loc 1 1829 0
 2083 000a 02F0FC02 		and	r2, r2, #252
 2084 000e 0243     		orrs	r2, r2, r0
 2085 0010 1A70     		strb	r2, [r3]
1832:.\Generated_Source\PSoC5/CyLib.c ****     CY_WDT_CFG_REG |= CY_WDT_CFG_CTW_RESET;
 2086              		.loc 1 1832 0
 2087 0012 1A78     		ldrb	r2, [r3]	@ zero_extendqisi2
 2088              		.loc 1 1836 0
 2089 0014 01F06001 		and	r1, r1, #96
1832:.\Generated_Source\PSoC5/CyLib.c ****     CY_WDT_CFG_REG |= CY_WDT_CFG_CTW_RESET;
 2090              		.loc 1 1832 0
 2091 0018 42F08002 		orr	r2, r2, #128
 2092 001c 1A70     		strb	r2, [r3]
1833:.\Generated_Source\PSoC5/CyLib.c ****     CY_WDT_CFG_REG &= ((uint8)(~CY_WDT_CFG_CTW_RESET));
 2093              		.loc 1 1833 0
ARM GAS  C:\Users\Yiquing\AppData\Local\Temp\ccsAoMV1.s 			page 73


 2094 001e 1A78     		ldrb	r2, [r3]	@ zero_extendqisi2
 2095 0020 02F07F02 		and	r2, r2, #127
 2096 0024 1A70     		strb	r2, [r3]
1837:.\Generated_Source\PSoC5/CyLib.c ****                        (CY_WDT_CFG_REG & ((uint8)(~CY_WDT_CFG_LPMODE_MASK)));
 2097              		.loc 1 1837 0
 2098 0026 1A78     		ldrb	r2, [r3]	@ zero_extendqisi2
1836:.\Generated_Source\PSoC5/CyLib.c ****     CY_WDT_CFG_REG = (((uint8)(lpMode << CY_WDT_CFG_LPMODE_SHIFT)) & CY_WDT_CFG_LPMODE_MASK) |
 2099              		.loc 1 1836 0
 2100 0028 02F09F02 		and	r2, r2, #159
 2101 002c 0A43     		orrs	r2, r2, r1
 2102 002e 1A70     		strb	r2, [r3]
1838:.\Generated_Source\PSoC5/CyLib.c **** 
1839:.\Generated_Source\PSoC5/CyLib.c ****     /* Enables watchdog reset */
1840:.\Generated_Source\PSoC5/CyLib.c ****     CY_WDT_CFG_REG |= CY_WDT_CFG_WDR_EN;
 2103              		.loc 1 1840 0
 2104 0030 1A78     		ldrb	r2, [r3]	@ zero_extendqisi2
 2105 0032 42F01002 		orr	r2, r2, #16
 2106 0036 1A70     		strb	r2, [r3]
 2107 0038 7047     		bx	lr
 2108              	.L232:
 2109 003a 00BF     		.align	2
 2110              	.L231:
 2111 003c 83430040 		.word	1073759107
 2112              		.cfi_endproc
 2113              	.LFE44:
 2114              		.size	CyWdtStart, .-CyWdtStart
 2115              		.section	.text.CyWdtClear,"ax",%progbits
 2116              		.align	1
 2117              		.global	CyWdtClear
 2118              		.thumb
 2119              		.thumb_func
 2120              		.type	CyWdtClear, %function
 2121              	CyWdtClear:
 2122              	.LFB45:
1841:.\Generated_Source\PSoC5/CyLib.c **** }
1842:.\Generated_Source\PSoC5/CyLib.c **** 
1843:.\Generated_Source\PSoC5/CyLib.c **** 
1844:.\Generated_Source\PSoC5/CyLib.c **** /*******************************************************************************
1845:.\Generated_Source\PSoC5/CyLib.c **** * Function Name: CyWdtClear
1846:.\Generated_Source\PSoC5/CyLib.c **** ********************************************************************************
1847:.\Generated_Source\PSoC5/CyLib.c **** *
1848:.\Generated_Source\PSoC5/CyLib.c **** * Summary:
1849:.\Generated_Source\PSoC5/CyLib.c **** *  Clears (feeds) the watchdog timer.
1850:.\Generated_Source\PSoC5/CyLib.c **** *
1851:.\Generated_Source\PSoC5/CyLib.c **** * Parameters:
1852:.\Generated_Source\PSoC5/CyLib.c **** *  None
1853:.\Generated_Source\PSoC5/CyLib.c **** *
1854:.\Generated_Source\PSoC5/CyLib.c **** * Return:
1855:.\Generated_Source\PSoC5/CyLib.c **** *  None
1856:.\Generated_Source\PSoC5/CyLib.c **** *
1857:.\Generated_Source\PSoC5/CyLib.c **** *******************************************************************************/
1858:.\Generated_Source\PSoC5/CyLib.c **** void CyWdtClear(void) 
1859:.\Generated_Source\PSoC5/CyLib.c **** {
 2123              		.loc 1 1859 0
 2124              		.cfi_startproc
 2125              		@ args = 0, pretend = 0, frame = 0
 2126              		@ frame_needed = 0, uses_anonymous_args = 0
ARM GAS  C:\Users\Yiquing\AppData\Local\Temp\ccsAoMV1.s 			page 74


 2127              		@ link register save eliminated.
1860:.\Generated_Source\PSoC5/CyLib.c ****     CY_WDT_CR_REG = CY_WDT_CR_FEED;
 2128              		.loc 1 1860 0
 2129 0000 014B     		ldr	r3, .L234
 2130 0002 0122     		movs	r2, #1
 2131 0004 1A70     		strb	r2, [r3]
 2132 0006 7047     		bx	lr
 2133              	.L235:
 2134              		.align	2
 2135              	.L234:
 2136 0008 84430040 		.word	1073759108
 2137              		.cfi_endproc
 2138              	.LFE45:
 2139              		.size	CyWdtClear, .-CyWdtClear
 2140              		.section	.text.CyVdStickyStatus,"ax",%progbits
 2141              		.align	1
 2142              		.global	CyVdStickyStatus
 2143              		.thumb
 2144              		.thumb_func
 2145              		.type	CyVdStickyStatus, %function
 2146              	CyVdStickyStatus:
 2147              	.LFB52:
1861:.\Generated_Source\PSoC5/CyLib.c **** }
1862:.\Generated_Source\PSoC5/CyLib.c **** 
1863:.\Generated_Source\PSoC5/CyLib.c **** 
1864:.\Generated_Source\PSoC5/CyLib.c **** 
1865:.\Generated_Source\PSoC5/CyLib.c **** /*******************************************************************************
1866:.\Generated_Source\PSoC5/CyLib.c **** * Function Name: CyVdLvDigitEnable
1867:.\Generated_Source\PSoC5/CyLib.c **** ********************************************************************************
1868:.\Generated_Source\PSoC5/CyLib.c **** *
1869:.\Generated_Source\PSoC5/CyLib.c **** * Summary:
1870:.\Generated_Source\PSoC5/CyLib.c **** *  Sets the voltage trip level, enables the output of the digital low-voltage
1871:.\Generated_Source\PSoC5/CyLib.c **** *  monitor, and optionally configures voltage monitor to reset device upon the
1872:.\Generated_Source\PSoC5/CyLib.c **** *  low-voltage event instead of generating an interrupt.
1873:.\Generated_Source\PSoC5/CyLib.c **** *
1874:.\Generated_Source\PSoC5/CyLib.c **** *  Note The associated interrupt enable/disable state is not changed by the
1875:.\Generated_Source\PSoC5/CyLib.c **** *  function. The Interrupt components API should be used to register the
1876:.\Generated_Source\PSoC5/CyLib.c **** *  interrupt service routine and to enable/disable associated interrupt.
1877:.\Generated_Source\PSoC5/CyLib.c **** *
1878:.\Generated_Source\PSoC5/CyLib.c **** * Parameters:
1879:.\Generated_Source\PSoC5/CyLib.c **** *  reset: Enables device reset on digital low-voltage event:
1880:.\Generated_Source\PSoC5/CyLib.c **** *   Zero - Interrupt on digital low-voltage event
1881:.\Generated_Source\PSoC5/CyLib.c **** *   Non-zero - Reset on digital low-voltage event
1882:.\Generated_Source\PSoC5/CyLib.c **** *
1883:.\Generated_Source\PSoC5/CyLib.c **** *  threshold: Sets the trip point of the digital low-voltage monitoring circuit
1884:.\Generated_Source\PSoC5/CyLib.c **** *   in steps of approximately 250 mV in range from 1.70 V (0x00) to 5.45 V
1885:.\Generated_Source\PSoC5/CyLib.c **** *   (0x0F). For example, the trip point is set to 1.80 V when the threshold
1886:.\Generated_Source\PSoC5/CyLib.c **** *   parameter value is 0x04. Refer to the device TRM for the exact trip voltage
1887:.\Generated_Source\PSoC5/CyLib.c **** *   values.
1888:.\Generated_Source\PSoC5/CyLib.c **** *
1889:.\Generated_Source\PSoC5/CyLib.c **** * Return:
1890:.\Generated_Source\PSoC5/CyLib.c **** *  None
1891:.\Generated_Source\PSoC5/CyLib.c **** *
1892:.\Generated_Source\PSoC5/CyLib.c **** * Side Effects and Restrictions:
1893:.\Generated_Source\PSoC5/CyLib.c **** *  The voltage resets are momentary. When a voltage reset (analog/digital
1894:.\Generated_Source\PSoC5/CyLib.c **** *  low-voltage and analog high-voltage) occurs, the RESET_CR1 and RESET_CR3
1895:.\Generated_Source\PSoC5/CyLib.c **** *  registers are restored to their default values. This means that the voltage
