ARM GAS  C:\Users\Yiquing\AppData\Local\Temp\ccsAoMV1.s 			page 1


   1              		.syntax unified
   2              		.cpu cortex-m3
   3              		.fpu softvfp
   4              		.eabi_attribute 20, 1
   5              		.eabi_attribute 21, 1
   6              		.eabi_attribute 23, 3
   7              		.eabi_attribute 24, 1
   8              		.eabi_attribute 25, 1
   9              		.eabi_attribute 26, 1
  10              		.eabi_attribute 30, 4
  11              		.eabi_attribute 34, 1
  12              		.eabi_attribute 18, 4
  13              		.thumb
  14              		.file	"CyLib.c"
  15              		.text
  16              	.Ltext0:
  17              		.cfi_sections	.debug_frame
  18              		.section	.text.CyIMO_SetTrimValue,"ax",%progbits
  19              		.align	1
  20              		.thumb
  21              		.thumb_func
  22              		.type	CyIMO_SetTrimValue, %function
  23              	CyIMO_SetTrimValue:
  24              	.LFB7:
  25              		.file 1 ".\\Generated_Source\\PSoC5\\CyLib.c"
   1:.\Generated_Source\PSoC5/CyLib.c **** /*******************************************************************************
   2:.\Generated_Source\PSoC5/CyLib.c **** * File Name: CyLib.c
   3:.\Generated_Source\PSoC5/CyLib.c **** * Version 5.0
   4:.\Generated_Source\PSoC5/CyLib.c **** *
   5:.\Generated_Source\PSoC5/CyLib.c **** *  Description:
   6:.\Generated_Source\PSoC5/CyLib.c **** *   Provides a system API for the clocking, interrupts and watchdog timer.
   7:.\Generated_Source\PSoC5/CyLib.c **** *
   8:.\Generated_Source\PSoC5/CyLib.c **** *  Note:
   9:.\Generated_Source\PSoC5/CyLib.c **** *   Documentation of the API's in this file is located in the
  10:.\Generated_Source\PSoC5/CyLib.c **** *   System Reference Guide provided with PSoC Creator.
  11:.\Generated_Source\PSoC5/CyLib.c **** *
  12:.\Generated_Source\PSoC5/CyLib.c **** ********************************************************************************
  13:.\Generated_Source\PSoC5/CyLib.c **** * Copyright 2008-2015, Cypress Semiconductor Corporation.  All rights reserved.
  14:.\Generated_Source\PSoC5/CyLib.c **** * You may use this file only in accordance with the license, terms, conditions,
  15:.\Generated_Source\PSoC5/CyLib.c **** * disclaimers, and limitations in the end user license agreement accompanying
  16:.\Generated_Source\PSoC5/CyLib.c **** * the software package with which this file was provided.
  17:.\Generated_Source\PSoC5/CyLib.c **** *******************************************************************************/
  18:.\Generated_Source\PSoC5/CyLib.c **** 
  19:.\Generated_Source\PSoC5/CyLib.c **** #include "CyLib.h"
  20:.\Generated_Source\PSoC5/CyLib.c **** 
  21:.\Generated_Source\PSoC5/CyLib.c **** 
  22:.\Generated_Source\PSoC5/CyLib.c **** /*******************************************************************************
  23:.\Generated_Source\PSoC5/CyLib.c **** * The CyResetStatus variable is used to obtain value of RESET_SR0 register after
  24:.\Generated_Source\PSoC5/CyLib.c **** * a device reset. It is set from initialize_psoc() at the early initialization
  25:.\Generated_Source\PSoC5/CyLib.c **** * stage. In case of IAR EW IDE, initialize_psoc() is executed before the data
  26:.\Generated_Source\PSoC5/CyLib.c **** * sections are initialized. To avoid zeroing, CyResetStatus should be placed
  27:.\Generated_Source\PSoC5/CyLib.c **** * to the .noinit section.
  28:.\Generated_Source\PSoC5/CyLib.c **** *******************************************************************************/
  29:.\Generated_Source\PSoC5/CyLib.c **** CY_NOINIT uint8 CYXDATA CyResetStatus;
  30:.\Generated_Source\PSoC5/CyLib.c **** 
  31:.\Generated_Source\PSoC5/CyLib.c **** 
  32:.\Generated_Source\PSoC5/CyLib.c **** /* Variable Vdda */
ARM GAS  C:\Users\Yiquing\AppData\Local\Temp\ccsAoMV1.s 			page 2


  33:.\Generated_Source\PSoC5/CyLib.c **** #if(CYDEV_VARIABLE_VDDA == 1)
  34:.\Generated_Source\PSoC5/CyLib.c **** 
  35:.\Generated_Source\PSoC5/CyLib.c ****     uint8 CyScPumpEnabled = (uint8)(CYDEV_VDDA_MV < 2700);
  36:.\Generated_Source\PSoC5/CyLib.c **** 
  37:.\Generated_Source\PSoC5/CyLib.c **** #endif  /* (CYDEV_VARIABLE_VDDA == 1) */
  38:.\Generated_Source\PSoC5/CyLib.c **** 
  39:.\Generated_Source\PSoC5/CyLib.c **** 
  40:.\Generated_Source\PSoC5/CyLib.c **** /* Do not use these definitions directly in your application */
  41:.\Generated_Source\PSoC5/CyLib.c **** uint32 cydelay_freq_hz  = BCLK__BUS_CLK__HZ;
  42:.\Generated_Source\PSoC5/CyLib.c **** uint32 cydelay_freq_khz = (BCLK__BUS_CLK__HZ + 999u) / 1000u;
  43:.\Generated_Source\PSoC5/CyLib.c **** uint8  cydelay_freq_mhz = (uint8)((BCLK__BUS_CLK__HZ + 999999u) / 1000000u);
  44:.\Generated_Source\PSoC5/CyLib.c **** uint32 cydelay_32k_ms   = 32768u * ((BCLK__BUS_CLK__HZ + 999u) / 1000u);
  45:.\Generated_Source\PSoC5/CyLib.c **** 
  46:.\Generated_Source\PSoC5/CyLib.c **** 
  47:.\Generated_Source\PSoC5/CyLib.c **** /* Function Prototypes */
  48:.\Generated_Source\PSoC5/CyLib.c **** static uint8 CyUSB_PowerOnCheck(void)  ;
  49:.\Generated_Source\PSoC5/CyLib.c **** static void CyIMO_SetTrimValue(uint8 freq) ;
  50:.\Generated_Source\PSoC5/CyLib.c **** static void CyBusClk_Internal_SetDivider(uint16 divider);
  51:.\Generated_Source\PSoC5/CyLib.c **** 
  52:.\Generated_Source\PSoC5/CyLib.c **** #if(CY_PSOC5)
  53:.\Generated_Source\PSoC5/CyLib.c ****     static cySysTickCallback CySysTickCallbacks[CY_SYS_SYST_NUM_OF_CALLBACKS];
  54:.\Generated_Source\PSoC5/CyLib.c ****     static void CySysTickServiceCallbacks(void);
  55:.\Generated_Source\PSoC5/CyLib.c ****     uint32 CySysTickInitVar = 0u;
  56:.\Generated_Source\PSoC5/CyLib.c **** #endif  /* (CY_PSOC5) */
  57:.\Generated_Source\PSoC5/CyLib.c **** 
  58:.\Generated_Source\PSoC5/CyLib.c **** 
  59:.\Generated_Source\PSoC5/CyLib.c **** /*******************************************************************************
  60:.\Generated_Source\PSoC5/CyLib.c **** * Function Name: CyPLL_OUT_Start
  61:.\Generated_Source\PSoC5/CyLib.c **** ********************************************************************************
  62:.\Generated_Source\PSoC5/CyLib.c **** *
  63:.\Generated_Source\PSoC5/CyLib.c **** * Summary:
  64:.\Generated_Source\PSoC5/CyLib.c **** *   Enables the PLL.  Optionally waits for it to become stable.
  65:.\Generated_Source\PSoC5/CyLib.c **** *   Waits at least 250 us or until it is detected that the PLL is stable.
  66:.\Generated_Source\PSoC5/CyLib.c **** *
  67:.\Generated_Source\PSoC5/CyLib.c **** * Parameters:
  68:.\Generated_Source\PSoC5/CyLib.c **** *   wait:
  69:.\Generated_Source\PSoC5/CyLib.c **** *    0: Return immediately after configuration
  70:.\Generated_Source\PSoC5/CyLib.c **** *    1: Wait for PLL lock or timeout.
  71:.\Generated_Source\PSoC5/CyLib.c **** *
  72:.\Generated_Source\PSoC5/CyLib.c **** * Return:
  73:.\Generated_Source\PSoC5/CyLib.c **** *   Status
  74:.\Generated_Source\PSoC5/CyLib.c **** *    CYRET_SUCCESS - Completed successfully
  75:.\Generated_Source\PSoC5/CyLib.c **** *    CYRET_TIMEOUT - Timeout occurred without detecting a stable clock.
  76:.\Generated_Source\PSoC5/CyLib.c **** *     If the input source of the clock is jittery, then the lock indication
  77:.\Generated_Source\PSoC5/CyLib.c **** *     may not occur.  However, after the timeout has expired the generated PLL
  78:.\Generated_Source\PSoC5/CyLib.c **** *     clock can still be used.
  79:.\Generated_Source\PSoC5/CyLib.c **** *
  80:.\Generated_Source\PSoC5/CyLib.c **** * Side Effects:
  81:.\Generated_Source\PSoC5/CyLib.c **** *  If wait is enabled: This function uses the Fast Time Wheel to time the wait.
  82:.\Generated_Source\PSoC5/CyLib.c **** *  Any other use of the Fast Time Wheel will be stopped during the period of
  83:.\Generated_Source\PSoC5/CyLib.c **** *  this function and then restored. This function also uses the 100 KHz ILO.
  84:.\Generated_Source\PSoC5/CyLib.c **** *  If not enabled, this function will enable the 100 KHz ILO for the period of
  85:.\Generated_Source\PSoC5/CyLib.c **** *  this function.
  86:.\Generated_Source\PSoC5/CyLib.c **** *
  87:.\Generated_Source\PSoC5/CyLib.c **** *  No changes to the setup of the ILO, Fast Time Wheel, Central Time Wheel or
  88:.\Generated_Source\PSoC5/CyLib.c **** *  Once Per Second interrupt may be made by interrupt routines during the period
  89:.\Generated_Source\PSoC5/CyLib.c **** *  of this function execution. The current operation of the ILO, Central Time
ARM GAS  C:\Users\Yiquing\AppData\Local\Temp\ccsAoMV1.s 			page 3


  90:.\Generated_Source\PSoC5/CyLib.c **** *  Wheel and Once Per Second interrupt are maintained during the operation of
  91:.\Generated_Source\PSoC5/CyLib.c **** *  this function provided the reading of the Power Manager Interrupt Status
  92:.\Generated_Source\PSoC5/CyLib.c **** *  Register is only done using the CyPmReadStatus() function.
  93:.\Generated_Source\PSoC5/CyLib.c **** *
  94:.\Generated_Source\PSoC5/CyLib.c **** *******************************************************************************/
  95:.\Generated_Source\PSoC5/CyLib.c **** cystatus CyPLL_OUT_Start(uint8 wait) 
  96:.\Generated_Source\PSoC5/CyLib.c **** {
  97:.\Generated_Source\PSoC5/CyLib.c ****     cystatus status = CYRET_SUCCESS;
  98:.\Generated_Source\PSoC5/CyLib.c **** 
  99:.\Generated_Source\PSoC5/CyLib.c ****     uint8 iloEnableState;
 100:.\Generated_Source\PSoC5/CyLib.c ****     uint8 pmTwCfg0State;
 101:.\Generated_Source\PSoC5/CyLib.c ****     uint8 pmTwCfg2State;
 102:.\Generated_Source\PSoC5/CyLib.c **** 
 103:.\Generated_Source\PSoC5/CyLib.c **** 
 104:.\Generated_Source\PSoC5/CyLib.c ****     /* Enables PLL circuit  */
 105:.\Generated_Source\PSoC5/CyLib.c ****     CY_CLK_PLL_CFG0_REG |= CY_CLK_PLL_ENABLE;
 106:.\Generated_Source\PSoC5/CyLib.c **** 
 107:.\Generated_Source\PSoC5/CyLib.c ****     if(wait != 0u)
 108:.\Generated_Source\PSoC5/CyLib.c ****     {
 109:.\Generated_Source\PSoC5/CyLib.c ****         /* Save 100 KHz ILO, FTW interval, enable and interrupt enable */
 110:.\Generated_Source\PSoC5/CyLib.c ****         iloEnableState = CY_LIB_SLOWCLK_ILO_CR0_REG & CY_LIB_SLOWCLK_ILO_CR0_EN_100KHZ;
 111:.\Generated_Source\PSoC5/CyLib.c ****         pmTwCfg0State = CY_LIB_PM_TW_CFG0_REG;
 112:.\Generated_Source\PSoC5/CyLib.c ****         pmTwCfg2State = CY_LIB_PM_TW_CFG2_REG;
 113:.\Generated_Source\PSoC5/CyLib.c **** 
 114:.\Generated_Source\PSoC5/CyLib.c ****         CyPmFtwSetInterval(CY_CLK_PLL_FTW_INTERVAL);
 115:.\Generated_Source\PSoC5/CyLib.c **** 
 116:.\Generated_Source\PSoC5/CyLib.c ****         status = CYRET_TIMEOUT;
 117:.\Generated_Source\PSoC5/CyLib.c **** 
 118:.\Generated_Source\PSoC5/CyLib.c ****         while(0u == (CY_PM_FTW_INT & CyPmReadStatus(CY_PM_FTW_INT)))
 119:.\Generated_Source\PSoC5/CyLib.c ****         {
 120:.\Generated_Source\PSoC5/CyLib.c ****             /* Wait for interrupt status */
 121:.\Generated_Source\PSoC5/CyLib.c ****             if(0u != (CY_CLK_PLL_SR_REG & CY_CLK_PLL_LOCK_STATUS))
 122:.\Generated_Source\PSoC5/CyLib.c ****             {
 123:.\Generated_Source\PSoC5/CyLib.c ****                 if(0u != (CY_CLK_PLL_SR_REG & CY_CLK_PLL_LOCK_STATUS))
 124:.\Generated_Source\PSoC5/CyLib.c ****                 {
 125:.\Generated_Source\PSoC5/CyLib.c ****                     status = CYRET_SUCCESS;
 126:.\Generated_Source\PSoC5/CyLib.c ****                     break;
 127:.\Generated_Source\PSoC5/CyLib.c ****                 }
 128:.\Generated_Source\PSoC5/CyLib.c ****             }
 129:.\Generated_Source\PSoC5/CyLib.c ****         }
 130:.\Generated_Source\PSoC5/CyLib.c **** 
 131:.\Generated_Source\PSoC5/CyLib.c ****         /* Restore 100 KHz ILO, FTW interval, enable and interrupt enable */
 132:.\Generated_Source\PSoC5/CyLib.c ****         if(0u == iloEnableState)
 133:.\Generated_Source\PSoC5/CyLib.c ****         {
 134:.\Generated_Source\PSoC5/CyLib.c ****             CyILO_Stop100K();
 135:.\Generated_Source\PSoC5/CyLib.c ****         }
 136:.\Generated_Source\PSoC5/CyLib.c **** 
 137:.\Generated_Source\PSoC5/CyLib.c ****         CY_LIB_PM_TW_CFG0_REG = pmTwCfg0State;
 138:.\Generated_Source\PSoC5/CyLib.c ****         CY_LIB_PM_TW_CFG2_REG = pmTwCfg2State;
 139:.\Generated_Source\PSoC5/CyLib.c ****     }
 140:.\Generated_Source\PSoC5/CyLib.c **** 
 141:.\Generated_Source\PSoC5/CyLib.c ****     return(status);
 142:.\Generated_Source\PSoC5/CyLib.c **** }
 143:.\Generated_Source\PSoC5/CyLib.c **** 
 144:.\Generated_Source\PSoC5/CyLib.c **** 
 145:.\Generated_Source\PSoC5/CyLib.c **** /*******************************************************************************
 146:.\Generated_Source\PSoC5/CyLib.c **** * Function Name: CyPLL_OUT_Stop
ARM GAS  C:\Users\Yiquing\AppData\Local\Temp\ccsAoMV1.s 			page 4


 147:.\Generated_Source\PSoC5/CyLib.c **** ********************************************************************************
 148:.\Generated_Source\PSoC5/CyLib.c **** *
 149:.\Generated_Source\PSoC5/CyLib.c **** * Summary:
 150:.\Generated_Source\PSoC5/CyLib.c **** *  Disables the PLL.
 151:.\Generated_Source\PSoC5/CyLib.c **** *
 152:.\Generated_Source\PSoC5/CyLib.c **** * Parameters:
 153:.\Generated_Source\PSoC5/CyLib.c **** *  None
 154:.\Generated_Source\PSoC5/CyLib.c **** *
 155:.\Generated_Source\PSoC5/CyLib.c **** * Return:
 156:.\Generated_Source\PSoC5/CyLib.c **** *  None
 157:.\Generated_Source\PSoC5/CyLib.c **** *
 158:.\Generated_Source\PSoC5/CyLib.c **** *******************************************************************************/
 159:.\Generated_Source\PSoC5/CyLib.c **** void CyPLL_OUT_Stop(void) 
 160:.\Generated_Source\PSoC5/CyLib.c **** {
 161:.\Generated_Source\PSoC5/CyLib.c ****     CY_CLK_PLL_CFG0_REG &= ((uint8)(~CY_CLK_PLL_ENABLE));
 162:.\Generated_Source\PSoC5/CyLib.c **** }
 163:.\Generated_Source\PSoC5/CyLib.c **** 
 164:.\Generated_Source\PSoC5/CyLib.c **** 
 165:.\Generated_Source\PSoC5/CyLib.c **** /*******************************************************************************
 166:.\Generated_Source\PSoC5/CyLib.c **** * Function Name: CyPLL_OUT_SetPQ
 167:.\Generated_Source\PSoC5/CyLib.c **** ********************************************************************************
 168:.\Generated_Source\PSoC5/CyLib.c **** *
 169:.\Generated_Source\PSoC5/CyLib.c **** * Summary:
 170:.\Generated_Source\PSoC5/CyLib.c **** *  Sets the P and Q dividers and the charge pump current.
 171:.\Generated_Source\PSoC5/CyLib.c **** *  The Frequency Out will be P/Q * Frequency In.
 172:.\Generated_Source\PSoC5/CyLib.c **** *  The PLL must be disabled before calling this function.
 173:.\Generated_Source\PSoC5/CyLib.c **** *
 174:.\Generated_Source\PSoC5/CyLib.c **** * Parameters:
 175:.\Generated_Source\PSoC5/CyLib.c **** *  uint8 pDiv:
 176:.\Generated_Source\PSoC5/CyLib.c **** *   Valid range [8 - 255].
 177:.\Generated_Source\PSoC5/CyLib.c **** *
 178:.\Generated_Source\PSoC5/CyLib.c **** *  uint8 qDiv:
 179:.\Generated_Source\PSoC5/CyLib.c **** *   Valid range [1 - 16]. Input Frequency / Q must be in range of 1 to 3 MHz.
 180:.\Generated_Source\PSoC5/CyLib.c **** 
 181:.\Generated_Source\PSoC5/CyLib.c **** *  uint8 current:
 182:.\Generated_Source\PSoC5/CyLib.c **** *   Valid range [1 - 7]. Charge pump current in uA. Refer to the device TRM and
 183:.\Generated_Source\PSoC5/CyLib.c **** *   datasheet for more information.
 184:.\Generated_Source\PSoC5/CyLib.c **** *
 185:.\Generated_Source\PSoC5/CyLib.c **** * Return:
 186:.\Generated_Source\PSoC5/CyLib.c **** *  None
 187:.\Generated_Source\PSoC5/CyLib.c **** *
 188:.\Generated_Source\PSoC5/CyLib.c **** * Side Effects:
 189:.\Generated_Source\PSoC5/CyLib.c **** *  If this function execution results in the CPU clock frequency increasing,
 190:.\Generated_Source\PSoC5/CyLib.c **** *  then the number of clock cycles the cache will wait before it samples data
 191:.\Generated_Source\PSoC5/CyLib.c **** *  coming back from the Flash must be adjusted by calling
 192:.\Generated_Source\PSoC5/CyLib.c **** *  CyFlash_SetWaitCycles() with an appropriate parameter. It can be optionally
 193:.\Generated_Source\PSoC5/CyLib.c **** *  called if the CPU clock frequency is lowered in order to improve the CPU
 194:.\Generated_Source\PSoC5/CyLib.c **** *  performance. See CyFlash_SetWaitCycles() description for more information.
 195:.\Generated_Source\PSoC5/CyLib.c **** *
 196:.\Generated_Source\PSoC5/CyLib.c **** *******************************************************************************/
 197:.\Generated_Source\PSoC5/CyLib.c **** void CyPLL_OUT_SetPQ(uint8 pDiv, uint8 qDiv, uint8 current) 
 198:.\Generated_Source\PSoC5/CyLib.c **** {
 199:.\Generated_Source\PSoC5/CyLib.c ****     /* Halt CPU in debug mode if PLL is enabled */
 200:.\Generated_Source\PSoC5/CyLib.c ****     CYASSERT(0u == (CY_CLK_PLL_CFG0_REG & CY_CLK_PLL_ENABLE));
 201:.\Generated_Source\PSoC5/CyLib.c **** 
 202:.\Generated_Source\PSoC5/CyLib.c ****     if((pDiv    >= CY_CLK_PLL_MIN_P_VALUE  ) &&
 203:.\Generated_Source\PSoC5/CyLib.c ****        (qDiv    <= CY_CLK_PLL_MAX_Q_VALUE  ) && (qDiv    >= CY_CLK_PLL_MIN_Q_VALUE  ) &&
ARM GAS  C:\Users\Yiquing\AppData\Local\Temp\ccsAoMV1.s 			page 5


 204:.\Generated_Source\PSoC5/CyLib.c ****        (current >= CY_CLK_PLL_MIN_CUR_VALUE) && (current <= CY_CLK_PLL_MAX_CUR_VALUE))
 205:.\Generated_Source\PSoC5/CyLib.c ****     {
 206:.\Generated_Source\PSoC5/CyLib.c ****         /* Set new values */
 207:.\Generated_Source\PSoC5/CyLib.c ****         CY_CLK_PLL_P_REG = pDiv;
 208:.\Generated_Source\PSoC5/CyLib.c ****         CY_CLK_PLL_Q_REG = ((uint8)(qDiv - 1u));
 209:.\Generated_Source\PSoC5/CyLib.c ****         CY_CLK_PLL_CFG1_REG = (CY_CLK_PLL_CFG1_REG & CY_CLK_PLL_CURRENT_MASK) |
 210:.\Generated_Source\PSoC5/CyLib.c ****                                 ((uint8)(((uint8)(current - 1u)) << CY_CLK_PLL_CURRENT_POSITION));
 211:.\Generated_Source\PSoC5/CyLib.c ****     }
 212:.\Generated_Source\PSoC5/CyLib.c ****     else
 213:.\Generated_Source\PSoC5/CyLib.c ****     {
 214:.\Generated_Source\PSoC5/CyLib.c ****         /***********************************************************************
 215:.\Generated_Source\PSoC5/CyLib.c ****         * Halt CPU in debug mode if:
 216:.\Generated_Source\PSoC5/CyLib.c ****         * - P divider is less than required
 217:.\Generated_Source\PSoC5/CyLib.c ****         * - Q divider is out of range
 218:.\Generated_Source\PSoC5/CyLib.c ****         * - pump current is out of range
 219:.\Generated_Source\PSoC5/CyLib.c ****         ***********************************************************************/
 220:.\Generated_Source\PSoC5/CyLib.c ****         CYASSERT(0u != 0u);
 221:.\Generated_Source\PSoC5/CyLib.c ****     }
 222:.\Generated_Source\PSoC5/CyLib.c **** 
 223:.\Generated_Source\PSoC5/CyLib.c **** }
 224:.\Generated_Source\PSoC5/CyLib.c **** 
 225:.\Generated_Source\PSoC5/CyLib.c **** 
 226:.\Generated_Source\PSoC5/CyLib.c **** /*******************************************************************************
 227:.\Generated_Source\PSoC5/CyLib.c **** * Function Name: CyPLL_OUT_SetSource
 228:.\Generated_Source\PSoC5/CyLib.c **** ********************************************************************************
 229:.\Generated_Source\PSoC5/CyLib.c **** *
 230:.\Generated_Source\PSoC5/CyLib.c **** * Summary:
 231:.\Generated_Source\PSoC5/CyLib.c **** *  Sets the input clock source to the PLL. The PLL must be disabled before
 232:.\Generated_Source\PSoC5/CyLib.c **** *  calling this function.
 233:.\Generated_Source\PSoC5/CyLib.c **** *
 234:.\Generated_Source\PSoC5/CyLib.c **** * Parameters:
 235:.\Generated_Source\PSoC5/CyLib.c **** *   source: One of the three available PLL clock sources
 236:.\Generated_Source\PSoC5/CyLib.c **** *    CY_PLL_SOURCE_IMO  :   IMO
 237:.\Generated_Source\PSoC5/CyLib.c **** *    CY_PLL_SOURCE_XTAL :   MHz Crystal
 238:.\Generated_Source\PSoC5/CyLib.c **** *    CY_PLL_SOURCE_DSI  :   DSI
 239:.\Generated_Source\PSoC5/CyLib.c **** *
 240:.\Generated_Source\PSoC5/CyLib.c **** * Return:
 241:.\Generated_Source\PSoC5/CyLib.c **** *  None
 242:.\Generated_Source\PSoC5/CyLib.c **** *
 243:.\Generated_Source\PSoC5/CyLib.c **** * Side Effects:
 244:.\Generated_Source\PSoC5/CyLib.c **** *  If this function execution results in the CPU clock frequency increasing,
 245:.\Generated_Source\PSoC5/CyLib.c **** *  then the number of clock cycles the cache will wait before it samples data
 246:.\Generated_Source\PSoC5/CyLib.c **** *  coming back from the3 Flash must be adjusted by calling
 247:.\Generated_Source\PSoC5/CyLib.c **** *  CyFlash_SetWaitCycles() with an appropriate parameter. It can be optionally
 248:.\Generated_Source\PSoC5/CyLib.c **** *  called if the CPU clock frequency is lowered in order to improve the CPU
 249:.\Generated_Source\PSoC5/CyLib.c **** *  performance. See CyFlash_SetWaitCycles() description for more information.
 250:.\Generated_Source\PSoC5/CyLib.c **** *
 251:.\Generated_Source\PSoC5/CyLib.c **** *******************************************************************************/
 252:.\Generated_Source\PSoC5/CyLib.c **** void CyPLL_OUT_SetSource(uint8 source) 
 253:.\Generated_Source\PSoC5/CyLib.c **** {
 254:.\Generated_Source\PSoC5/CyLib.c ****     /* Halt CPU in debug mode if PLL is enabled */
 255:.\Generated_Source\PSoC5/CyLib.c ****     CYASSERT(0u == (CY_CLK_PLL_CFG0_REG & CY_CLK_PLL_ENABLE));
 256:.\Generated_Source\PSoC5/CyLib.c **** 
 257:.\Generated_Source\PSoC5/CyLib.c ****     switch(source)
 258:.\Generated_Source\PSoC5/CyLib.c ****     {
 259:.\Generated_Source\PSoC5/CyLib.c ****         case CY_PLL_SOURCE_IMO:
 260:.\Generated_Source\PSoC5/CyLib.c ****         case CY_PLL_SOURCE_XTAL:
ARM GAS  C:\Users\Yiquing\AppData\Local\Temp\ccsAoMV1.s 			page 6


 261:.\Generated_Source\PSoC5/CyLib.c ****         case CY_PLL_SOURCE_DSI:
 262:.\Generated_Source\PSoC5/CyLib.c ****             CY_LIB_CLKDIST_CR_REG = ((CY_LIB_CLKDIST_CR_REG & CY_LIB_CLKDIST_CR_PLL_SCR_MASK) | sou
 263:.\Generated_Source\PSoC5/CyLib.c ****         break;
 264:.\Generated_Source\PSoC5/CyLib.c **** 
 265:.\Generated_Source\PSoC5/CyLib.c ****         default:
 266:.\Generated_Source\PSoC5/CyLib.c ****             CYASSERT(0u != 0u);
 267:.\Generated_Source\PSoC5/CyLib.c ****         break;
 268:.\Generated_Source\PSoC5/CyLib.c ****     }
 269:.\Generated_Source\PSoC5/CyLib.c **** }
 270:.\Generated_Source\PSoC5/CyLib.c **** 
 271:.\Generated_Source\PSoC5/CyLib.c **** 
 272:.\Generated_Source\PSoC5/CyLib.c **** /*******************************************************************************
 273:.\Generated_Source\PSoC5/CyLib.c **** * Function Name: CyIMO_Start
 274:.\Generated_Source\PSoC5/CyLib.c **** ********************************************************************************
 275:.\Generated_Source\PSoC5/CyLib.c **** *
 276:.\Generated_Source\PSoC5/CyLib.c **** * Summary:
 277:.\Generated_Source\PSoC5/CyLib.c **** *  Enables the IMO. Optionally waits at least 6 us for it to settle.
 278:.\Generated_Source\PSoC5/CyLib.c **** *
 279:.\Generated_Source\PSoC5/CyLib.c **** * Parameters:
 280:.\Generated_Source\PSoC5/CyLib.c **** *  uint8 wait:
 281:.\Generated_Source\PSoC5/CyLib.c **** *   0: Return immediately after configuration
 282:.\Generated_Source\PSoC5/CyLib.c **** *   1: Wait for at least 6 us for the IMO to settle.
 283:.\Generated_Source\PSoC5/CyLib.c **** *
 284:.\Generated_Source\PSoC5/CyLib.c **** * Return:
 285:.\Generated_Source\PSoC5/CyLib.c **** *  None
 286:.\Generated_Source\PSoC5/CyLib.c **** *
 287:.\Generated_Source\PSoC5/CyLib.c **** * Side Effects:
 288:.\Generated_Source\PSoC5/CyLib.c **** *  If wait is enabled: This function uses the Fast Time Wheel to time the wait.
 289:.\Generated_Source\PSoC5/CyLib.c **** *  Any other use of the Fast Time Wheel will be stopped during the period of
 290:.\Generated_Source\PSoC5/CyLib.c **** *  this function and then restored. This function also uses the 100 KHz ILO.
 291:.\Generated_Source\PSoC5/CyLib.c **** *  If not enabled, this function will enable the 100 KHz ILO for the period of
 292:.\Generated_Source\PSoC5/CyLib.c **** *  this function.
 293:.\Generated_Source\PSoC5/CyLib.c **** *
 294:.\Generated_Source\PSoC5/CyLib.c **** *  No changes to the setup of the ILO, Fast Time Wheel, Central Time Wheel or
 295:.\Generated_Source\PSoC5/CyLib.c **** *  Once Per Second interrupt may be made by interrupt routines during the period
 296:.\Generated_Source\PSoC5/CyLib.c **** *  of this function execution. The current operation of the ILO, Central Time
 297:.\Generated_Source\PSoC5/CyLib.c **** *  Wheel and Once Per Second interrupt are maintained during the operation of
 298:.\Generated_Source\PSoC5/CyLib.c **** *  this function provided the reading of the Power Manager Interrupt Status
 299:.\Generated_Source\PSoC5/CyLib.c **** *  Register is only done using the CyPmReadStatus() function.
 300:.\Generated_Source\PSoC5/CyLib.c **** *
 301:.\Generated_Source\PSoC5/CyLib.c **** *******************************************************************************/
 302:.\Generated_Source\PSoC5/CyLib.c **** void CyIMO_Start(uint8 wait) 
 303:.\Generated_Source\PSoC5/CyLib.c **** {
 304:.\Generated_Source\PSoC5/CyLib.c ****     uint8 pmFtwCfg2Reg;
 305:.\Generated_Source\PSoC5/CyLib.c ****     uint8 pmFtwCfg0Reg;
 306:.\Generated_Source\PSoC5/CyLib.c ****     uint8 ilo100KhzEnable;
 307:.\Generated_Source\PSoC5/CyLib.c **** 
 308:.\Generated_Source\PSoC5/CyLib.c **** 
 309:.\Generated_Source\PSoC5/CyLib.c ****     CY_LIB_PM_ACT_CFG0_REG  |= CY_LIB_PM_ACT_CFG0_IMO_EN;
 310:.\Generated_Source\PSoC5/CyLib.c ****     CY_LIB_PM_STBY_CFG0_REG |= CY_LIB_PM_STBY_CFG0_IMO_EN;
 311:.\Generated_Source\PSoC5/CyLib.c **** 
 312:.\Generated_Source\PSoC5/CyLib.c ****     if(0u != wait)
 313:.\Generated_Source\PSoC5/CyLib.c ****     {
 314:.\Generated_Source\PSoC5/CyLib.c ****         /* Need to turn on 100KHz ILO if it happens to not already be running.*/
 315:.\Generated_Source\PSoC5/CyLib.c ****         ilo100KhzEnable = CY_LIB_SLOWCLK_ILO_CR0_REG & CY_LIB_SLOWCLK_ILO_CR0_EN_100KHZ;
 316:.\Generated_Source\PSoC5/CyLib.c ****         pmFtwCfg0Reg = CY_LIB_PM_TW_CFG0_REG;
 317:.\Generated_Source\PSoC5/CyLib.c ****         pmFtwCfg2Reg = CY_LIB_PM_TW_CFG2_REG;
ARM GAS  C:\Users\Yiquing\AppData\Local\Temp\ccsAoMV1.s 			page 7


 318:.\Generated_Source\PSoC5/CyLib.c **** 
 319:.\Generated_Source\PSoC5/CyLib.c ****         CyPmFtwSetInterval(CY_LIB_CLK_IMO_FTW_TIMEOUT);
 320:.\Generated_Source\PSoC5/CyLib.c **** 
 321:.\Generated_Source\PSoC5/CyLib.c ****         while (0u == (CY_PM_FTW_INT & CyPmReadStatus(CY_PM_FTW_INT)))
 322:.\Generated_Source\PSoC5/CyLib.c ****         {
 323:.\Generated_Source\PSoC5/CyLib.c ****             /* Wait for interrupt status */
 324:.\Generated_Source\PSoC5/CyLib.c ****         }
 325:.\Generated_Source\PSoC5/CyLib.c **** 
 326:.\Generated_Source\PSoC5/CyLib.c ****         if(0u == ilo100KhzEnable)
 327:.\Generated_Source\PSoC5/CyLib.c ****         {
 328:.\Generated_Source\PSoC5/CyLib.c ****             CyILO_Stop100K();
 329:.\Generated_Source\PSoC5/CyLib.c ****         }
 330:.\Generated_Source\PSoC5/CyLib.c **** 
 331:.\Generated_Source\PSoC5/CyLib.c ****         CY_LIB_PM_TW_CFG0_REG = pmFtwCfg0Reg;
 332:.\Generated_Source\PSoC5/CyLib.c ****         CY_LIB_PM_TW_CFG2_REG = pmFtwCfg2Reg;
 333:.\Generated_Source\PSoC5/CyLib.c ****     }
 334:.\Generated_Source\PSoC5/CyLib.c **** }
 335:.\Generated_Source\PSoC5/CyLib.c **** 
 336:.\Generated_Source\PSoC5/CyLib.c **** 
 337:.\Generated_Source\PSoC5/CyLib.c **** /*******************************************************************************
 338:.\Generated_Source\PSoC5/CyLib.c **** * Function Name: CyIMO_Stop
 339:.\Generated_Source\PSoC5/CyLib.c **** ********************************************************************************
 340:.\Generated_Source\PSoC5/CyLib.c **** *
 341:.\Generated_Source\PSoC5/CyLib.c **** * Summary:
 342:.\Generated_Source\PSoC5/CyLib.c **** *   Disables the IMO.
 343:.\Generated_Source\PSoC5/CyLib.c **** *
 344:.\Generated_Source\PSoC5/CyLib.c **** * Parameters:
 345:.\Generated_Source\PSoC5/CyLib.c **** *  None
 346:.\Generated_Source\PSoC5/CyLib.c **** *
 347:.\Generated_Source\PSoC5/CyLib.c **** * Return:
 348:.\Generated_Source\PSoC5/CyLib.c **** *  None
 349:.\Generated_Source\PSoC5/CyLib.c **** *
 350:.\Generated_Source\PSoC5/CyLib.c **** *******************************************************************************/
 351:.\Generated_Source\PSoC5/CyLib.c **** void CyIMO_Stop(void) 
 352:.\Generated_Source\PSoC5/CyLib.c **** {
 353:.\Generated_Source\PSoC5/CyLib.c ****     CY_LIB_PM_ACT_CFG0_REG  &= ((uint8) (~CY_LIB_PM_ACT_CFG0_IMO_EN));
 354:.\Generated_Source\PSoC5/CyLib.c ****     CY_LIB_PM_STBY_CFG0_REG &= ((uint8) (~CY_LIB_PM_STBY_CFG0_IMO_EN));
 355:.\Generated_Source\PSoC5/CyLib.c **** }
 356:.\Generated_Source\PSoC5/CyLib.c **** 
 357:.\Generated_Source\PSoC5/CyLib.c **** 
 358:.\Generated_Source\PSoC5/CyLib.c **** /*******************************************************************************
 359:.\Generated_Source\PSoC5/CyLib.c **** * Function Name: CyUSB_PowerOnCheck
 360:.\Generated_Source\PSoC5/CyLib.c **** ********************************************************************************
 361:.\Generated_Source\PSoC5/CyLib.c **** *
 362:.\Generated_Source\PSoC5/CyLib.c **** * Summary:
 363:.\Generated_Source\PSoC5/CyLib.c **** *  Returns the USB power status value. A private function to cy_boot.
 364:.\Generated_Source\PSoC5/CyLib.c **** *
 365:.\Generated_Source\PSoC5/CyLib.c **** * Parameters:
 366:.\Generated_Source\PSoC5/CyLib.c **** *   None
 367:.\Generated_Source\PSoC5/CyLib.c **** *
 368:.\Generated_Source\PSoC5/CyLib.c **** * Return:
 369:.\Generated_Source\PSoC5/CyLib.c **** *   uint8: one if the USB is enabled, 0 if not enabled.
 370:.\Generated_Source\PSoC5/CyLib.c **** *
 371:.\Generated_Source\PSoC5/CyLib.c **** *******************************************************************************/
 372:.\Generated_Source\PSoC5/CyLib.c **** static uint8 CyUSB_PowerOnCheck(void)  
 373:.\Generated_Source\PSoC5/CyLib.c **** {
 374:.\Generated_Source\PSoC5/CyLib.c ****     uint8 poweredOn = 0u;
ARM GAS  C:\Users\Yiquing\AppData\Local\Temp\ccsAoMV1.s 			page 8


 375:.\Generated_Source\PSoC5/CyLib.c **** 
 376:.\Generated_Source\PSoC5/CyLib.c ****     /* Check whether device is in Active or AltActive and if USB is powered on */
 377:.\Generated_Source\PSoC5/CyLib.c ****     if((((CY_PM_MODE_CSR_REG & CY_PM_MODE_CSR_MASK) == CY_PM_MODE_CSR_ACTIVE ) &&
 378:.\Generated_Source\PSoC5/CyLib.c ****        (0u != (CY_LIB_PM_ACT_CFG5_REG & CY_ACT_USB_ENABLED     )))  ||
 379:.\Generated_Source\PSoC5/CyLib.c ****        (((CY_PM_MODE_CSR_REG & CY_PM_MODE_CSR_MASK) == CY_PM_MODE_CSR_ALT_ACT) &&
 380:.\Generated_Source\PSoC5/CyLib.c ****        (0u != (CY_LIB_PM_STBY_CFG5_REG & CY_ALT_ACT_USB_ENABLED))))
 381:.\Generated_Source\PSoC5/CyLib.c ****     {
 382:.\Generated_Source\PSoC5/CyLib.c ****         poweredOn = 1u;
 383:.\Generated_Source\PSoC5/CyLib.c ****     }
 384:.\Generated_Source\PSoC5/CyLib.c **** 
 385:.\Generated_Source\PSoC5/CyLib.c ****     return (poweredOn);
 386:.\Generated_Source\PSoC5/CyLib.c **** }
 387:.\Generated_Source\PSoC5/CyLib.c **** 
 388:.\Generated_Source\PSoC5/CyLib.c **** 
 389:.\Generated_Source\PSoC5/CyLib.c **** /*******************************************************************************
 390:.\Generated_Source\PSoC5/CyLib.c **** * Function Name: CyIMO_SetTrimValue
 391:.\Generated_Source\PSoC5/CyLib.c **** ********************************************************************************
 392:.\Generated_Source\PSoC5/CyLib.c **** *
 393:.\Generated_Source\PSoC5/CyLib.c **** * Summary:
 394:.\Generated_Source\PSoC5/CyLib.c **** *  Sets the IMO factory trim values.
 395:.\Generated_Source\PSoC5/CyLib.c **** *
 396:.\Generated_Source\PSoC5/CyLib.c **** * Parameters:
 397:.\Generated_Source\PSoC5/CyLib.c **** *  uint8 freq - frequency for which trims must be set
 398:.\Generated_Source\PSoC5/CyLib.c **** *
 399:.\Generated_Source\PSoC5/CyLib.c **** * Return:
 400:.\Generated_Source\PSoC5/CyLib.c **** *  None
 401:.\Generated_Source\PSoC5/CyLib.c **** *
 402:.\Generated_Source\PSoC5/CyLib.c **** *******************************************************************************/
 403:.\Generated_Source\PSoC5/CyLib.c **** static void CyIMO_SetTrimValue(uint8 freq) 
 404:.\Generated_Source\PSoC5/CyLib.c **** {
  26              		.loc 1 404 0
  27              		.cfi_startproc
  28              		@ args = 0, pretend = 0, frame = 0
  29              		@ frame_needed = 0, uses_anonymous_args = 0
  30              		@ link register save eliminated.
  31              	.LVL0:
  32              	.LBB14:
  33              	.LBB15:
 377:.\Generated_Source\PSoC5/CyLib.c ****     if((((CY_PM_MODE_CSR_REG & CY_PM_MODE_CSR_MASK) == CY_PM_MODE_CSR_ACTIVE ) &&
  34              		.loc 1 377 0
  35 0000 204B     		ldr	r3, .L19
  36 0002 1A78     		ldrb	r2, [r3]	@ zero_extendqisi2
  37 0004 5107     		lsls	r1, r2, #29
  38 0006 03D1     		bne	.L2
 378:.\Generated_Source\PSoC5/CyLib.c ****        (0u != (CY_LIB_PM_ACT_CFG5_REG & CY_ACT_USB_ENABLED     )))  ||
  39              		.loc 1 378 0
  40 0008 1F4A     		ldr	r2, .L19+4
  41 000a 1278     		ldrb	r2, [r2]	@ zero_extendqisi2
 377:.\Generated_Source\PSoC5/CyLib.c ****     if((((CY_PM_MODE_CSR_REG & CY_PM_MODE_CSR_MASK) == CY_PM_MODE_CSR_ACTIVE ) &&
  42              		.loc 1 377 0
  43 000c D207     		lsls	r2, r2, #31
  44 000e 31D4     		bmi	.L3
  45              	.L2:
 379:.\Generated_Source\PSoC5/CyLib.c ****        (((CY_PM_MODE_CSR_REG & CY_PM_MODE_CSR_MASK) == CY_PM_MODE_CSR_ALT_ACT) &&
  46              		.loc 1 379 0
  47 0010 1B78     		ldrb	r3, [r3]	@ zero_extendqisi2
 378:.\Generated_Source\PSoC5/CyLib.c ****        (0u != (CY_LIB_PM_ACT_CFG5_REG & CY_ACT_USB_ENABLED     )))  ||
ARM GAS  C:\Users\Yiquing\AppData\Local\Temp\ccsAoMV1.s 			page 9


  48              		.loc 1 378 0
  49 0012 03F00703 		and	r3, r3, #7
  50 0016 012B     		cmp	r3, #1
  51 0018 05D1     		bne	.L15
 380:.\Generated_Source\PSoC5/CyLib.c ****        (0u != (CY_LIB_PM_STBY_CFG5_REG & CY_ALT_ACT_USB_ENABLED))))
  52              		.loc 1 380 0
  53 001a 1C4B     		ldr	r3, .L19+8
  54 001c 1B78     		ldrb	r3, [r3]	@ zero_extendqisi2
 379:.\Generated_Source\PSoC5/CyLib.c ****        (((CY_PM_MODE_CSR_REG & CY_PM_MODE_CSR_MASK) == CY_PM_MODE_CSR_ALT_ACT) &&
  55              		.loc 1 379 0
  56 001e 13F00103 		ands	r3, r3, #1
  57 0022 27D1     		bne	.L3
  58 0024 00E0     		b	.L4
  59              	.L15:
 378:.\Generated_Source\PSoC5/CyLib.c ****        (0u != (CY_LIB_PM_ACT_CFG5_REG & CY_ACT_USB_ENABLED     )))  ||
  60              		.loc 1 378 0
  61 0026 0023     		movs	r3, #0
  62              	.LVL1:
  63              	.L4:
  64              	.LBE15:
  65              	.LBE14:
 405:.\Generated_Source\PSoC5/CyLib.c ****     uint8 usbPowerOn = CyUSB_PowerOnCheck();
 406:.\Generated_Source\PSoC5/CyLib.c **** 
 407:.\Generated_Source\PSoC5/CyLib.c ****     /* If USB is powered */
 408:.\Generated_Source\PSoC5/CyLib.c ****     if(usbPowerOn == 1u)
 409:.\Generated_Source\PSoC5/CyLib.c ****     {
 410:.\Generated_Source\PSoC5/CyLib.c ****         /* Unlock USB write */
 411:.\Generated_Source\PSoC5/CyLib.c ****         CY_LIB_USB_CR1_REG &= ((uint8)(~CY_LIB_USB_CLK_EN));
 412:.\Generated_Source\PSoC5/CyLib.c ****     }
 413:.\Generated_Source\PSoC5/CyLib.c ****     switch(freq)
  66              		.loc 1 413 0
  67 0028 0828     		cmp	r0, #8
  68 002a 2AD8     		bhi	.L1
  69 002c DFE800F0 		tbb	[pc, r0]
  70              	.L7:
  71 0030 05       		.byte	(.L6-.L7)/2
  72 0031 07       		.byte	(.L8-.L7)/2
  73 0032 09       		.byte	(.L9-.L7)/2
  74 0033 0B       		.byte	(.L10-.L7)/2
  75 0034 0D       		.byte	(.L11-.L7)/2
  76 0035 0F       		.byte	(.L12-.L7)/2
  77 0036 11       		.byte	(.L13-.L7)/2
  78 0037 29       		.byte	(.L1-.L7)/2
  79 0038 16       		.byte	(.L14-.L7)/2
  80 0039 00       		.p2align 1
  81              	.L6:
 414:.\Generated_Source\PSoC5/CyLib.c ****     {
 415:.\Generated_Source\PSoC5/CyLib.c ****     case CY_IMO_FREQ_3MHZ:
 416:.\Generated_Source\PSoC5/CyLib.c ****         CY_LIB_IMO_TR1_REG = CY_GET_XTND_REG8(CY_LIB_TRIM_IMO_3MHZ_PTR);
  82              		.loc 1 416 0
  83 003a 154B     		ldr	r3, .L19+12
  84 003c 0AE0     		b	.L17
  85              	.L8:
 417:.\Generated_Source\PSoC5/CyLib.c ****         break;
 418:.\Generated_Source\PSoC5/CyLib.c **** 
 419:.\Generated_Source\PSoC5/CyLib.c ****     case CY_IMO_FREQ_6MHZ:
 420:.\Generated_Source\PSoC5/CyLib.c ****         CY_LIB_IMO_TR1_REG = CY_GET_XTND_REG8(CY_LIB_TRIM_IMO_6MHZ_PTR);
ARM GAS  C:\Users\Yiquing\AppData\Local\Temp\ccsAoMV1.s 			page 10


  86              		.loc 1 420 0
  87 003e 154B     		ldr	r3, .L19+16
  88 0040 08E0     		b	.L17
  89              	.L9:
 421:.\Generated_Source\PSoC5/CyLib.c ****         break;
 422:.\Generated_Source\PSoC5/CyLib.c **** 
 423:.\Generated_Source\PSoC5/CyLib.c ****     case CY_IMO_FREQ_12MHZ:
 424:.\Generated_Source\PSoC5/CyLib.c ****         CY_LIB_IMO_TR1_REG = CY_GET_XTND_REG8(CY_LIB_TRIM_IMO_12MHZ_PTR);
  90              		.loc 1 424 0
  91 0042 154B     		ldr	r3, .L19+20
  92 0044 06E0     		b	.L17
  93              	.L10:
 425:.\Generated_Source\PSoC5/CyLib.c ****         break;
 426:.\Generated_Source\PSoC5/CyLib.c **** 
 427:.\Generated_Source\PSoC5/CyLib.c ****     case CY_IMO_FREQ_24MHZ:
 428:.\Generated_Source\PSoC5/CyLib.c ****         CY_LIB_IMO_TR1_REG = CY_GET_XTND_REG8(CY_LIB_TRIM_IMO_24MHZ_PTR);
  94              		.loc 1 428 0
  95 0046 154B     		ldr	r3, .L19+24
  96 0048 04E0     		b	.L17
  97              	.L11:
 429:.\Generated_Source\PSoC5/CyLib.c ****         break;
 430:.\Generated_Source\PSoC5/CyLib.c **** 
 431:.\Generated_Source\PSoC5/CyLib.c ****     case CY_IMO_FREQ_48MHZ:
 432:.\Generated_Source\PSoC5/CyLib.c ****         CY_LIB_IMO_TR1_REG = CY_GET_XTND_REG8(CY_LIB_TRIM_IMO_TR1_PTR);
  98              		.loc 1 432 0
  99 004a 154B     		ldr	r3, .L19+28
 100 004c 02E0     		b	.L17
 101              	.L12:
 433:.\Generated_Source\PSoC5/CyLib.c ****         break;
 434:.\Generated_Source\PSoC5/CyLib.c **** 
 435:.\Generated_Source\PSoC5/CyLib.c ****     case CY_IMO_FREQ_62MHZ:
 436:.\Generated_Source\PSoC5/CyLib.c ****         CY_LIB_IMO_TR1_REG = CY_GET_XTND_REG8(CY_LIB_TRIM_IMO_67MHZ_PTR);
 102              		.loc 1 436 0
 103 004e 154B     		ldr	r3, .L19+32
 104 0050 00E0     		b	.L17
 105              	.L13:
 437:.\Generated_Source\PSoC5/CyLib.c ****         break;
 438:.\Generated_Source\PSoC5/CyLib.c **** 
 439:.\Generated_Source\PSoC5/CyLib.c **** #if(CY_PSOC5)
 440:.\Generated_Source\PSoC5/CyLib.c ****     case CY_IMO_FREQ_74MHZ:
 441:.\Generated_Source\PSoC5/CyLib.c ****         CY_LIB_IMO_TR1_REG = CY_GET_XTND_REG8(CY_LIB_TRIM_IMO_80MHZ_PTR);
 106              		.loc 1 441 0
 107 0052 154B     		ldr	r3, .L19+36
 108              	.L17:
 109 0054 1A78     		ldrb	r2, [r3]	@ zero_extendqisi2
 110 0056 154B     		ldr	r3, .L19+40
 111 0058 D2B2     		uxtb	r2, r2
 112 005a 09E0     		b	.L16
 113              	.L14:
 442:.\Generated_Source\PSoC5/CyLib.c ****         break;
 443:.\Generated_Source\PSoC5/CyLib.c **** #endif  /* (CY_PSOC5) */
 444:.\Generated_Source\PSoC5/CyLib.c **** 
 445:.\Generated_Source\PSoC5/CyLib.c ****     case CY_IMO_FREQ_USB:
 446:.\Generated_Source\PSoC5/CyLib.c ****         CY_LIB_IMO_TR1_REG = CY_GET_XTND_REG8(CY_LIB_TRIM_IMO_USB_PTR);
 114              		.loc 1 446 0
 115 005c 144A     		ldr	r2, .L19+44
 116 005e 1178     		ldrb	r1, [r2]	@ zero_extendqisi2
ARM GAS  C:\Users\Yiquing\AppData\Local\Temp\ccsAoMV1.s 			page 11


 117 0060 124A     		ldr	r2, .L19+40
 118 0062 C9B2     		uxtb	r1, r1
 119 0064 1170     		strb	r1, [r2]
 447:.\Generated_Source\PSoC5/CyLib.c **** 
 448:.\Generated_Source\PSoC5/CyLib.c ****         /* If USB is powered */
 449:.\Generated_Source\PSoC5/CyLib.c ****         if(usbPowerOn == 1u)
 120              		.loc 1 449 0
 121 0066 63B1     		cbz	r3, .L1
 450:.\Generated_Source\PSoC5/CyLib.c ****         {
 451:.\Generated_Source\PSoC5/CyLib.c ****             /* Lock USB Oscillator */
 452:.\Generated_Source\PSoC5/CyLib.c ****             CY_LIB_USB_CR1_REG |= CY_LIB_USB_CLK_EN;
 122              		.loc 1 452 0
 123 0068 124B     		ldr	r3, .L19+48
 124 006a 1A78     		ldrb	r2, [r3]	@ zero_extendqisi2
 125 006c 42F00202 		orr	r2, r2, #2
 126              	.L16:
 127 0070 1A70     		strb	r2, [r3]
 128 0072 7047     		bx	lr
 129              	.LVL2:
 130              	.L3:
 411:.\Generated_Source\PSoC5/CyLib.c ****         CY_LIB_USB_CR1_REG &= ((uint8)(~CY_LIB_USB_CLK_EN));
 131              		.loc 1 411 0
 132 0074 0F4B     		ldr	r3, .L19+48
 133 0076 1A78     		ldrb	r2, [r3]	@ zero_extendqisi2
 134 0078 02F0FD02 		and	r2, r2, #253
 135 007c 1A70     		strb	r2, [r3]
 136 007e 0123     		movs	r3, #1
 137 0080 D2E7     		b	.L4
 138              	.LVL3:
 139              	.L1:
 140 0082 7047     		bx	lr
 141              	.L20:
 142              		.align	2
 143              	.L19:
 144 0084 93430040 		.word	1073759123
 145 0088 A5430040 		.word	1073759141
 146 008c B5430040 		.word	1073759157
 147 0090 08010049 		.word	1224737032
 148 0094 09010049 		.word	1224737033
 149 0098 0A010049 		.word	1224737034
 150 009c 0B010049 		.word	1224737035
 151 00a0 89010049 		.word	1224737161
 152 00a4 0C010049 		.word	1224737036
 153 00a8 0D010049 		.word	1224737037
 154 00ac A1460040 		.word	1073759905
 155 00b0 0F010049 		.word	1224737039
 156 00b4 09600040 		.word	1073766409
 157              		.cfi_endproc
 158              	.LFE7:
 159              		.size	CyIMO_SetTrimValue, .-CyIMO_SetTrimValue
 160              		.section	.text.CyBusClk_Internal_SetDivider,"ax",%progbits
 161              		.align	1
 162              		.thumb
 163              		.thumb_func
 164              		.type	CyBusClk_Internal_SetDivider, %function
 165              	CyBusClk_Internal_SetDivider:
 166              	.LFB14:
ARM GAS  C:\Users\Yiquing\AppData\Local\Temp\ccsAoMV1.s 			page 12


 453:.\Generated_Source\PSoC5/CyLib.c ****         }
 454:.\Generated_Source\PSoC5/CyLib.c ****         break;
 455:.\Generated_Source\PSoC5/CyLib.c **** 
 456:.\Generated_Source\PSoC5/CyLib.c ****     default:
 457:.\Generated_Source\PSoC5/CyLib.c ****             CYASSERT(0u != 0u);
 458:.\Generated_Source\PSoC5/CyLib.c ****         break;
 459:.\Generated_Source\PSoC5/CyLib.c ****     }
 460:.\Generated_Source\PSoC5/CyLib.c **** 
 461:.\Generated_Source\PSoC5/CyLib.c **** }
 462:.\Generated_Source\PSoC5/CyLib.c **** 
 463:.\Generated_Source\PSoC5/CyLib.c **** 
 464:.\Generated_Source\PSoC5/CyLib.c **** /*******************************************************************************
 465:.\Generated_Source\PSoC5/CyLib.c **** * Function Name: CyIMO_SetFreq
 466:.\Generated_Source\PSoC5/CyLib.c **** ********************************************************************************
 467:.\Generated_Source\PSoC5/CyLib.c **** *
 468:.\Generated_Source\PSoC5/CyLib.c **** * Summary:
 469:.\Generated_Source\PSoC5/CyLib.c **** *  Sets the frequency of the IMO. Changes may be made while the IMO is running.
 470:.\Generated_Source\PSoC5/CyLib.c **** *
 471:.\Generated_Source\PSoC5/CyLib.c **** * Parameters:
 472:.\Generated_Source\PSoC5/CyLib.c **** *  freq: Frequency of IMO operation
 473:.\Generated_Source\PSoC5/CyLib.c **** *       CY_IMO_FREQ_3MHZ  to set  3   MHz
 474:.\Generated_Source\PSoC5/CyLib.c **** *       CY_IMO_FREQ_6MHZ  to set  6   MHz
 475:.\Generated_Source\PSoC5/CyLib.c **** *       CY_IMO_FREQ_12MHZ to set 12   MHz
 476:.\Generated_Source\PSoC5/CyLib.c **** *       CY_IMO_FREQ_24MHZ to set 24   MHz
 477:.\Generated_Source\PSoC5/CyLib.c **** *       CY_IMO_FREQ_48MHZ to set 48   MHz
 478:.\Generated_Source\PSoC5/CyLib.c **** *       CY_IMO_FREQ_62MHZ to set 62.6 MHz
 479:.\Generated_Source\PSoC5/CyLib.c **** *       CY_IMO_FREQ_74MHZ to set 74.7 MHz (not applicable for PSoC 3)
 480:.\Generated_Source\PSoC5/CyLib.c **** *       CY_IMO_FREQ_USB   to set 24   MHz (Trimmed for USB operation)
 481:.\Generated_Source\PSoC5/CyLib.c **** *
 482:.\Generated_Source\PSoC5/CyLib.c **** * Return:
 483:.\Generated_Source\PSoC5/CyLib.c **** *  None
 484:.\Generated_Source\PSoC5/CyLib.c **** *
 485:.\Generated_Source\PSoC5/CyLib.c **** * Side Effects:
 486:.\Generated_Source\PSoC5/CyLib.c **** *  If this function execution results in the CPU clock frequency increasing,
 487:.\Generated_Source\PSoC5/CyLib.c **** *  then the number of clock cycles the cache will wait before it samples data
 488:.\Generated_Source\PSoC5/CyLib.c **** *  coming back from the Flash must be adjusted by calling
 489:.\Generated_Source\PSoC5/CyLib.c **** *  CyFlash_SetWaitCycles() with an appropriate parameter. It can be optionally
 490:.\Generated_Source\PSoC5/CyLib.c **** *  called if the CPU clock frequency is lowered in order to improve the CPU
 491:.\Generated_Source\PSoC5/CyLib.c **** *  performance. See CyFlash_SetWaitCycles() description for more information.
 492:.\Generated_Source\PSoC5/CyLib.c **** *
 493:.\Generated_Source\PSoC5/CyLib.c **** *  When the USB setting is chosen, the USB clock locking circuit is enabled.
 494:.\Generated_Source\PSoC5/CyLib.c **** *  Otherwise this circuit is disabled. The USB block must be powered before
 495:.\Generated_Source\PSoC5/CyLib.c **** *  selecting the USB setting.
 496:.\Generated_Source\PSoC5/CyLib.c **** *
 497:.\Generated_Source\PSoC5/CyLib.c **** *******************************************************************************/
 498:.\Generated_Source\PSoC5/CyLib.c **** void CyIMO_SetFreq(uint8 freq) 
 499:.\Generated_Source\PSoC5/CyLib.c **** {
 500:.\Generated_Source\PSoC5/CyLib.c ****     uint8 currentFreq;
 501:.\Generated_Source\PSoC5/CyLib.c ****     uint8 nextFreq;
 502:.\Generated_Source\PSoC5/CyLib.c **** 
 503:.\Generated_Source\PSoC5/CyLib.c ****     /***************************************************************************
 504:.\Generated_Source\PSoC5/CyLib.c ****     * If the IMO frequency is changed,the Trim values must also be set
 505:.\Generated_Source\PSoC5/CyLib.c ****     * accordingly.This requires reading the current frequency. If the new
 506:.\Generated_Source\PSoC5/CyLib.c ****     * frequency is faster, then set a new trim and then change the frequency,
 507:.\Generated_Source\PSoC5/CyLib.c ****     * otherwise change the frequency and then set new trim values.
 508:.\Generated_Source\PSoC5/CyLib.c ****     ***************************************************************************/
 509:.\Generated_Source\PSoC5/CyLib.c **** 
ARM GAS  C:\Users\Yiquing\AppData\Local\Temp\ccsAoMV1.s 			page 13


 510:.\Generated_Source\PSoC5/CyLib.c ****     currentFreq = CY_LIB_FASTCLK_IMO_CR_REG & ((uint8)(~CY_LIB_FASTCLK_IMO_CR_RANGE_MASK));
 511:.\Generated_Source\PSoC5/CyLib.c **** 
 512:.\Generated_Source\PSoC5/CyLib.c ****     /* Check if requested frequency is USB. */
 513:.\Generated_Source\PSoC5/CyLib.c ****     nextFreq = (freq == CY_IMO_FREQ_USB) ? CY_IMO_FREQ_24MHZ : freq;
 514:.\Generated_Source\PSoC5/CyLib.c **** 
 515:.\Generated_Source\PSoC5/CyLib.c ****     switch (currentFreq)
 516:.\Generated_Source\PSoC5/CyLib.c ****     {
 517:.\Generated_Source\PSoC5/CyLib.c ****     case 0u:
 518:.\Generated_Source\PSoC5/CyLib.c ****         currentFreq = CY_IMO_FREQ_12MHZ;
 519:.\Generated_Source\PSoC5/CyLib.c ****         break;
 520:.\Generated_Source\PSoC5/CyLib.c **** 
 521:.\Generated_Source\PSoC5/CyLib.c ****     case 1u:
 522:.\Generated_Source\PSoC5/CyLib.c ****         currentFreq = CY_IMO_FREQ_6MHZ;
 523:.\Generated_Source\PSoC5/CyLib.c ****         break;
 524:.\Generated_Source\PSoC5/CyLib.c **** 
 525:.\Generated_Source\PSoC5/CyLib.c ****     case 2u:
 526:.\Generated_Source\PSoC5/CyLib.c ****         currentFreq = CY_IMO_FREQ_24MHZ;
 527:.\Generated_Source\PSoC5/CyLib.c ****         break;
 528:.\Generated_Source\PSoC5/CyLib.c **** 
 529:.\Generated_Source\PSoC5/CyLib.c ****     case 3u:
 530:.\Generated_Source\PSoC5/CyLib.c ****         currentFreq = CY_IMO_FREQ_3MHZ;
 531:.\Generated_Source\PSoC5/CyLib.c ****         break;
 532:.\Generated_Source\PSoC5/CyLib.c **** 
 533:.\Generated_Source\PSoC5/CyLib.c ****     case 4u:
 534:.\Generated_Source\PSoC5/CyLib.c ****         currentFreq = CY_IMO_FREQ_48MHZ;
 535:.\Generated_Source\PSoC5/CyLib.c ****         break;
 536:.\Generated_Source\PSoC5/CyLib.c **** 
 537:.\Generated_Source\PSoC5/CyLib.c ****     case 5u:
 538:.\Generated_Source\PSoC5/CyLib.c ****         currentFreq = CY_IMO_FREQ_62MHZ;
 539:.\Generated_Source\PSoC5/CyLib.c ****         break;
 540:.\Generated_Source\PSoC5/CyLib.c **** 
 541:.\Generated_Source\PSoC5/CyLib.c **** #if(CY_PSOC5)
 542:.\Generated_Source\PSoC5/CyLib.c ****     case 6u:
 543:.\Generated_Source\PSoC5/CyLib.c ****         currentFreq = CY_IMO_FREQ_74MHZ;
 544:.\Generated_Source\PSoC5/CyLib.c ****         break;
 545:.\Generated_Source\PSoC5/CyLib.c **** #endif  /* (CY_PSOC5) */
 546:.\Generated_Source\PSoC5/CyLib.c **** 
 547:.\Generated_Source\PSoC5/CyLib.c ****     default:
 548:.\Generated_Source\PSoC5/CyLib.c ****         CYASSERT(0u != 0u);
 549:.\Generated_Source\PSoC5/CyLib.c ****         break;
 550:.\Generated_Source\PSoC5/CyLib.c ****     }
 551:.\Generated_Source\PSoC5/CyLib.c **** 
 552:.\Generated_Source\PSoC5/CyLib.c ****     if (nextFreq >= currentFreq)
 553:.\Generated_Source\PSoC5/CyLib.c ****     {
 554:.\Generated_Source\PSoC5/CyLib.c ****         /* Set new trim first */
 555:.\Generated_Source\PSoC5/CyLib.c ****         CyIMO_SetTrimValue(freq);
 556:.\Generated_Source\PSoC5/CyLib.c ****     }
 557:.\Generated_Source\PSoC5/CyLib.c **** 
 558:.\Generated_Source\PSoC5/CyLib.c ****     /* Set usbclk_on bit when using CY_IMO_FREQ_USB, if not clear it */
 559:.\Generated_Source\PSoC5/CyLib.c ****     switch(freq)
 560:.\Generated_Source\PSoC5/CyLib.c ****     {
 561:.\Generated_Source\PSoC5/CyLib.c ****     case CY_IMO_FREQ_3MHZ:
 562:.\Generated_Source\PSoC5/CyLib.c ****         CY_LIB_FASTCLK_IMO_CR_REG = ((CY_LIB_FASTCLK_IMO_CR_REG & CY_LIB_FASTCLK_IMO_CR_RANGE_MASK)
 563:.\Generated_Source\PSoC5/CyLib.c ****             CY_LIB_IMO_3MHZ_VALUE) & ((uint8)(~CY_LIB_IMO_USBCLK_ON_SET));
 564:.\Generated_Source\PSoC5/CyLib.c ****         break;
 565:.\Generated_Source\PSoC5/CyLib.c **** 
 566:.\Generated_Source\PSoC5/CyLib.c ****     case CY_IMO_FREQ_6MHZ:
ARM GAS  C:\Users\Yiquing\AppData\Local\Temp\ccsAoMV1.s 			page 14


 567:.\Generated_Source\PSoC5/CyLib.c ****         CY_LIB_FASTCLK_IMO_CR_REG = ((CY_LIB_FASTCLK_IMO_CR_REG & CY_LIB_FASTCLK_IMO_CR_RANGE_MASK)
 568:.\Generated_Source\PSoC5/CyLib.c ****             CY_LIB_IMO_6MHZ_VALUE) & ((uint8)(~CY_LIB_IMO_USBCLK_ON_SET));
 569:.\Generated_Source\PSoC5/CyLib.c ****         break;
 570:.\Generated_Source\PSoC5/CyLib.c **** 
 571:.\Generated_Source\PSoC5/CyLib.c ****     case CY_IMO_FREQ_12MHZ:
 572:.\Generated_Source\PSoC5/CyLib.c ****         CY_LIB_FASTCLK_IMO_CR_REG = ((CY_LIB_FASTCLK_IMO_CR_REG & CY_LIB_FASTCLK_IMO_CR_RANGE_MASK)
 573:.\Generated_Source\PSoC5/CyLib.c ****             CY_LIB_IMO_12MHZ_VALUE) & ((uint8)(~CY_LIB_IMO_USBCLK_ON_SET));
 574:.\Generated_Source\PSoC5/CyLib.c ****         break;
 575:.\Generated_Source\PSoC5/CyLib.c **** 
 576:.\Generated_Source\PSoC5/CyLib.c ****     case CY_IMO_FREQ_24MHZ:
 577:.\Generated_Source\PSoC5/CyLib.c ****         CY_LIB_FASTCLK_IMO_CR_REG = ((CY_LIB_FASTCLK_IMO_CR_REG & CY_LIB_FASTCLK_IMO_CR_RANGE_MASK)
 578:.\Generated_Source\PSoC5/CyLib.c ****             CY_LIB_IMO_24MHZ_VALUE) & ((uint8)(~CY_LIB_IMO_USBCLK_ON_SET));
 579:.\Generated_Source\PSoC5/CyLib.c ****         break;
 580:.\Generated_Source\PSoC5/CyLib.c **** 
 581:.\Generated_Source\PSoC5/CyLib.c ****     case CY_IMO_FREQ_48MHZ:
 582:.\Generated_Source\PSoC5/CyLib.c ****         CY_LIB_FASTCLK_IMO_CR_REG = ((CY_LIB_FASTCLK_IMO_CR_REG & CY_LIB_FASTCLK_IMO_CR_RANGE_MASK)
 583:.\Generated_Source\PSoC5/CyLib.c ****             CY_LIB_IMO_48MHZ_VALUE) & ((uint8)(~CY_LIB_IMO_USBCLK_ON_SET));
 584:.\Generated_Source\PSoC5/CyLib.c ****         break;
 585:.\Generated_Source\PSoC5/CyLib.c **** 
 586:.\Generated_Source\PSoC5/CyLib.c ****     case CY_IMO_FREQ_62MHZ:
 587:.\Generated_Source\PSoC5/CyLib.c ****         CY_LIB_FASTCLK_IMO_CR_REG = ((CY_LIB_FASTCLK_IMO_CR_REG & CY_LIB_FASTCLK_IMO_CR_RANGE_MASK)
 588:.\Generated_Source\PSoC5/CyLib.c ****             CY_LIB_IMO_62MHZ_VALUE) & ((uint8)(~CY_LIB_IMO_USBCLK_ON_SET));
 589:.\Generated_Source\PSoC5/CyLib.c ****         break;
 590:.\Generated_Source\PSoC5/CyLib.c **** 
 591:.\Generated_Source\PSoC5/CyLib.c **** #if(CY_PSOC5)
 592:.\Generated_Source\PSoC5/CyLib.c ****     case CY_IMO_FREQ_74MHZ:
 593:.\Generated_Source\PSoC5/CyLib.c ****         CY_LIB_FASTCLK_IMO_CR_REG = ((CY_LIB_FASTCLK_IMO_CR_REG & CY_LIB_FASTCLK_IMO_CR_RANGE_MASK)
 594:.\Generated_Source\PSoC5/CyLib.c ****             CY_LIB_IMO_74MHZ_VALUE) & ((uint8)(~CY_LIB_IMO_USBCLK_ON_SET));
 595:.\Generated_Source\PSoC5/CyLib.c ****         break;
 596:.\Generated_Source\PSoC5/CyLib.c **** #endif  /* (CY_PSOC5) */
 597:.\Generated_Source\PSoC5/CyLib.c **** 
 598:.\Generated_Source\PSoC5/CyLib.c ****     case CY_IMO_FREQ_USB:
 599:.\Generated_Source\PSoC5/CyLib.c ****         CY_LIB_FASTCLK_IMO_CR_REG = ((CY_LIB_FASTCLK_IMO_CR_REG & CY_LIB_FASTCLK_IMO_CR_RANGE_MASK)
 600:.\Generated_Source\PSoC5/CyLib.c ****             CY_LIB_IMO_24MHZ_VALUE) | CY_LIB_IMO_USBCLK_ON_SET;
 601:.\Generated_Source\PSoC5/CyLib.c ****         break;
 602:.\Generated_Source\PSoC5/CyLib.c **** 
 603:.\Generated_Source\PSoC5/CyLib.c ****     default:
 604:.\Generated_Source\PSoC5/CyLib.c ****         CYASSERT(0u != 0u);
 605:.\Generated_Source\PSoC5/CyLib.c ****         break;
 606:.\Generated_Source\PSoC5/CyLib.c ****     }
 607:.\Generated_Source\PSoC5/CyLib.c **** 
 608:.\Generated_Source\PSoC5/CyLib.c ****     /* Tu rn onIMO Doubler, if switching to CY_IMO_FREQ_USB */
 609:.\Generated_Source\PSoC5/CyLib.c ****     if (freq == CY_IMO_FREQ_USB)
 610:.\Generated_Source\PSoC5/CyLib.c ****     {
 611:.\Generated_Source\PSoC5/CyLib.c ****         CyIMO_EnableDoubler();
 612:.\Generated_Source\PSoC5/CyLib.c ****     }
 613:.\Generated_Source\PSoC5/CyLib.c ****     else
 614:.\Generated_Source\PSoC5/CyLib.c ****     {
 615:.\Generated_Source\PSoC5/CyLib.c ****         CyIMO_DisableDoubler();
 616:.\Generated_Source\PSoC5/CyLib.c ****     }
 617:.\Generated_Source\PSoC5/CyLib.c **** 
 618:.\Generated_Source\PSoC5/CyLib.c ****     if (nextFreq < currentFreq)
 619:.\Generated_Source\PSoC5/CyLib.c ****     {
 620:.\Generated_Source\PSoC5/CyLib.c ****         /* Set the trim after setting frequency */
 621:.\Generated_Source\PSoC5/CyLib.c ****         CyIMO_SetTrimValue(freq);
 622:.\Generated_Source\PSoC5/CyLib.c ****     }
 623:.\Generated_Source\PSoC5/CyLib.c **** }
ARM GAS  C:\Users\Yiquing\AppData\Local\Temp\ccsAoMV1.s 			page 15


 624:.\Generated_Source\PSoC5/CyLib.c **** 
 625:.\Generated_Source\PSoC5/CyLib.c **** 
 626:.\Generated_Source\PSoC5/CyLib.c **** /*******************************************************************************
 627:.\Generated_Source\PSoC5/CyLib.c **** * Function Name: CyIMO_SetSource
 628:.\Generated_Source\PSoC5/CyLib.c **** ********************************************************************************
 629:.\Generated_Source\PSoC5/CyLib.c **** *
 630:.\Generated_Source\PSoC5/CyLib.c **** * Summary:
 631:.\Generated_Source\PSoC5/CyLib.c **** *  Sets the source of the clock output from the IMO block.
 632:.\Generated_Source\PSoC5/CyLib.c **** *
 633:.\Generated_Source\PSoC5/CyLib.c **** *  The output from the IMO is by default the IMO itself. Optionally the MHz
 634:.\Generated_Source\PSoC5/CyLib.c **** *  Crystal or DSI input can be the source of the IMO output instead.
 635:.\Generated_Source\PSoC5/CyLib.c **** *
 636:.\Generated_Source\PSoC5/CyLib.c **** * Parameters:
 637:.\Generated_Source\PSoC5/CyLib.c **** *   source: CY_IMO_SOURCE_DSI to set the DSI as source.
 638:.\Generated_Source\PSoC5/CyLib.c **** *           CY_IMO_SOURCE_XTAL to set the MHz as source.
 639:.\Generated_Source\PSoC5/CyLib.c **** *           CY_IMO_SOURCE_IMO to set the IMO itself.
 640:.\Generated_Source\PSoC5/CyLib.c **** *
 641:.\Generated_Source\PSoC5/CyLib.c **** * Return:
 642:.\Generated_Source\PSoC5/CyLib.c **** *  None
 643:.\Generated_Source\PSoC5/CyLib.c **** *
 644:.\Generated_Source\PSoC5/CyLib.c **** * Side Effects:
 645:.\Generated_Source\PSoC5/CyLib.c **** *  If this function execution resulted in the CPU clock frequency increasing,
 646:.\Generated_Source\PSoC5/CyLib.c **** *  then the number of clock cycles the cache will wait before it samples data
 647:.\Generated_Source\PSoC5/CyLib.c **** *  coming back from the Flash must be adjusted by calling
 648:.\Generated_Source\PSoC5/CyLib.c **** *  CyFlash_SetWaitCycles() with an appropriate parameter. It can be optionally
 649:.\Generated_Source\PSoC5/CyLib.c **** *  called if the CPU clock frequency is lowered in order to improve the CPU
 650:.\Generated_Source\PSoC5/CyLib.c **** *  performance. See CyFlash_SetWaitCycles() description for more information.
 651:.\Generated_Source\PSoC5/CyLib.c **** *
 652:.\Generated_Source\PSoC5/CyLib.c **** *******************************************************************************/
 653:.\Generated_Source\PSoC5/CyLib.c **** void CyIMO_SetSource(uint8 source) 
 654:.\Generated_Source\PSoC5/CyLib.c **** {
 655:.\Generated_Source\PSoC5/CyLib.c ****     switch(source)
 656:.\Generated_Source\PSoC5/CyLib.c ****     {
 657:.\Generated_Source\PSoC5/CyLib.c ****     case CY_IMO_SOURCE_DSI:
 658:.\Generated_Source\PSoC5/CyLib.c ****         CY_LIB_CLKDIST_CR_REG     &= ((uint8)(~CY_LIB_CLKDIST_CR_IMO2X));
 659:.\Generated_Source\PSoC5/CyLib.c ****         CY_LIB_FASTCLK_IMO_CR_REG |= CY_LIB_FASTCLK_IMO_IMO;
 660:.\Generated_Source\PSoC5/CyLib.c ****         break;
 661:.\Generated_Source\PSoC5/CyLib.c **** 
 662:.\Generated_Source\PSoC5/CyLib.c ****     case CY_IMO_SOURCE_XTAL:
 663:.\Generated_Source\PSoC5/CyLib.c ****         CY_LIB_CLKDIST_CR_REG     |= CY_LIB_CLKDIST_CR_IMO2X;
 664:.\Generated_Source\PSoC5/CyLib.c ****         CY_LIB_FASTCLK_IMO_CR_REG |= CY_LIB_FASTCLK_IMO_IMO;
 665:.\Generated_Source\PSoC5/CyLib.c ****         break;
 666:.\Generated_Source\PSoC5/CyLib.c **** 
 667:.\Generated_Source\PSoC5/CyLib.c ****     case CY_IMO_SOURCE_IMO:
 668:.\Generated_Source\PSoC5/CyLib.c ****         CY_LIB_FASTCLK_IMO_CR_REG &= ((uint8)(~CY_LIB_FASTCLK_IMO_IMO));
 669:.\Generated_Source\PSoC5/CyLib.c ****         break;
 670:.\Generated_Source\PSoC5/CyLib.c **** 
 671:.\Generated_Source\PSoC5/CyLib.c ****     default:
 672:.\Generated_Source\PSoC5/CyLib.c ****         /* Incorrect source value */
 673:.\Generated_Source\PSoC5/CyLib.c ****         CYASSERT(0u != 0u);
 674:.\Generated_Source\PSoC5/CyLib.c ****         break;
 675:.\Generated_Source\PSoC5/CyLib.c ****     }
 676:.\Generated_Source\PSoC5/CyLib.c **** }
 677:.\Generated_Source\PSoC5/CyLib.c **** 
 678:.\Generated_Source\PSoC5/CyLib.c **** 
 679:.\Generated_Source\PSoC5/CyLib.c **** /*******************************************************************************
 680:.\Generated_Source\PSoC5/CyLib.c **** * Function Name: CyIMO_EnableDoubler
ARM GAS  C:\Users\Yiquing\AppData\Local\Temp\ccsAoMV1.s 			page 16


 681:.\Generated_Source\PSoC5/CyLib.c **** ********************************************************************************
 682:.\Generated_Source\PSoC5/CyLib.c **** *
 683:.\Generated_Source\PSoC5/CyLib.c **** * Summary:
 684:.\Generated_Source\PSoC5/CyLib.c **** *  Enables the IMO doubler.  The 2x frequency clock is used to convert a 24 MHz
 685:.\Generated_Source\PSoC5/CyLib.c **** *  input to a 48 MHz output for use by the USB block.
 686:.\Generated_Source\PSoC5/CyLib.c **** *
 687:.\Generated_Source\PSoC5/CyLib.c **** * Parameters:
 688:.\Generated_Source\PSoC5/CyLib.c **** *  None
 689:.\Generated_Source\PSoC5/CyLib.c **** *
 690:.\Generated_Source\PSoC5/CyLib.c **** * Return:
 691:.\Generated_Source\PSoC5/CyLib.c **** *  None
 692:.\Generated_Source\PSoC5/CyLib.c **** *
 693:.\Generated_Source\PSoC5/CyLib.c **** *******************************************************************************/
 694:.\Generated_Source\PSoC5/CyLib.c **** void CyIMO_EnableDoubler(void) 
 695:.\Generated_Source\PSoC5/CyLib.c **** {
 696:.\Generated_Source\PSoC5/CyLib.c ****     /* Set FASTCLK_IMO_CR_PTR regigster's 4th bit */
 697:.\Generated_Source\PSoC5/CyLib.c ****     CY_LIB_FASTCLK_IMO_CR_REG |= CY_LIB_FASTCLK_IMO_DOUBLER;
 698:.\Generated_Source\PSoC5/CyLib.c **** }
 699:.\Generated_Source\PSoC5/CyLib.c **** 
 700:.\Generated_Source\PSoC5/CyLib.c **** 
 701:.\Generated_Source\PSoC5/CyLib.c **** /*******************************************************************************
 702:.\Generated_Source\PSoC5/CyLib.c **** * Function Name: CyIMO_DisableDoubler
 703:.\Generated_Source\PSoC5/CyLib.c **** ********************************************************************************
 704:.\Generated_Source\PSoC5/CyLib.c **** *
 705:.\Generated_Source\PSoC5/CyLib.c **** * Summary:
 706:.\Generated_Source\PSoC5/CyLib.c **** *   Disables the IMO doubler.
 707:.\Generated_Source\PSoC5/CyLib.c **** *
 708:.\Generated_Source\PSoC5/CyLib.c **** * Parameters:
 709:.\Generated_Source\PSoC5/CyLib.c **** *  None
 710:.\Generated_Source\PSoC5/CyLib.c **** *
 711:.\Generated_Source\PSoC5/CyLib.c **** * Return:
 712:.\Generated_Source\PSoC5/CyLib.c **** *  None
 713:.\Generated_Source\PSoC5/CyLib.c **** *
 714:.\Generated_Source\PSoC5/CyLib.c **** *******************************************************************************/
 715:.\Generated_Source\PSoC5/CyLib.c **** void CyIMO_DisableDoubler(void) 
 716:.\Generated_Source\PSoC5/CyLib.c **** {
 717:.\Generated_Source\PSoC5/CyLib.c ****     CY_LIB_FASTCLK_IMO_CR_REG &= ((uint8)(~CY_LIB_FASTCLK_IMO_DOUBLER));
 718:.\Generated_Source\PSoC5/CyLib.c **** }
 719:.\Generated_Source\PSoC5/CyLib.c **** 
 720:.\Generated_Source\PSoC5/CyLib.c **** 
 721:.\Generated_Source\PSoC5/CyLib.c **** /*******************************************************************************
 722:.\Generated_Source\PSoC5/CyLib.c **** * Function Name: CyMasterClk_SetSource
 723:.\Generated_Source\PSoC5/CyLib.c **** ********************************************************************************
 724:.\Generated_Source\PSoC5/CyLib.c **** *
 725:.\Generated_Source\PSoC5/CyLib.c **** * Summary:
 726:.\Generated_Source\PSoC5/CyLib.c **** *  Sets the source of the master clock.
 727:.\Generated_Source\PSoC5/CyLib.c **** *
 728:.\Generated_Source\PSoC5/CyLib.c **** * Parameters:
 729:.\Generated_Source\PSoC5/CyLib.c **** *   source: One of the four available Master clock sources.
 730:.\Generated_Source\PSoC5/CyLib.c **** *     CY_MASTER_SOURCE_IMO
 731:.\Generated_Source\PSoC5/CyLib.c **** *     CY_MASTER_SOURCE_PLL
 732:.\Generated_Source\PSoC5/CyLib.c **** *     CY_MASTER_SOURCE_XTAL
 733:.\Generated_Source\PSoC5/CyLib.c **** *     CY_MASTER_SOURCE_DSI
 734:.\Generated_Source\PSoC5/CyLib.c **** *
 735:.\Generated_Source\PSoC5/CyLib.c **** * Return:
 736:.\Generated_Source\PSoC5/CyLib.c **** *  None
 737:.\Generated_Source\PSoC5/CyLib.c **** *
ARM GAS  C:\Users\Yiquing\AppData\Local\Temp\ccsAoMV1.s 			page 17


 738:.\Generated_Source\PSoC5/CyLib.c **** * Side Effects:
 739:.\Generated_Source\PSoC5/CyLib.c **** *  The current source and the new source must both be running and stable before
 740:.\Generated_Source\PSoC5/CyLib.c **** *  calling this function.
 741:.\Generated_Source\PSoC5/CyLib.c **** *
 742:.\Generated_Source\PSoC5/CyLib.c **** *  If this function execution resulted in the CPU clock frequency increasing,
 743:.\Generated_Source\PSoC5/CyLib.c **** *  then the number of clock cycles the cache will wait before it samples data
 744:.\Generated_Source\PSoC5/CyLib.c **** *  coming back from the Flash must be adjusted by calling
 745:.\Generated_Source\PSoC5/CyLib.c **** *  CyFlash_SetWaitCycles() with an appropriate parameter. It can be optionally
 746:.\Generated_Source\PSoC5/CyLib.c **** *  called if the CPU clock frequency is lowered in order to improve the CPU
 747:.\Generated_Source\PSoC5/CyLib.c **** *  performance. See CyFlash_SetWaitCycles() description for more information.
 748:.\Generated_Source\PSoC5/CyLib.c **** *
 749:.\Generated_Source\PSoC5/CyLib.c **** *******************************************************************************/
 750:.\Generated_Source\PSoC5/CyLib.c **** void CyMasterClk_SetSource(uint8 source) 
 751:.\Generated_Source\PSoC5/CyLib.c **** {
 752:.\Generated_Source\PSoC5/CyLib.c ****     CY_LIB_CLKDIST_MSTR1_REG = (CY_LIB_CLKDIST_MSTR1_REG & MASTER_CLK_SRC_CLEAR) |
 753:.\Generated_Source\PSoC5/CyLib.c ****                                 (source & ((uint8)(~MASTER_CLK_SRC_CLEAR)));
 754:.\Generated_Source\PSoC5/CyLib.c **** }
 755:.\Generated_Source\PSoC5/CyLib.c **** 
 756:.\Generated_Source\PSoC5/CyLib.c **** 
 757:.\Generated_Source\PSoC5/CyLib.c **** /*******************************************************************************
 758:.\Generated_Source\PSoC5/CyLib.c **** * Function Name: CyMasterClk_SetDivider
 759:.\Generated_Source\PSoC5/CyLib.c **** ********************************************************************************
 760:.\Generated_Source\PSoC5/CyLib.c **** *
 761:.\Generated_Source\PSoC5/CyLib.c **** * Summary:
 762:.\Generated_Source\PSoC5/CyLib.c **** *  Sets the divider value used to generate Master Clock.
 763:.\Generated_Source\PSoC5/CyLib.c **** *
 764:.\Generated_Source\PSoC5/CyLib.c **** * Parameters:
 765:.\Generated_Source\PSoC5/CyLib.c **** *  uint8 divider:
 766:.\Generated_Source\PSoC5/CyLib.c **** *   The valid range is [0-255]. The clock will be divided by this value + 1.
 767:.\Generated_Source\PSoC5/CyLib.c **** *   For example to divide this parameter by two should be set to 1.
 768:.\Generated_Source\PSoC5/CyLib.c **** *
 769:.\Generated_Source\PSoC5/CyLib.c **** * Return:
 770:.\Generated_Source\PSoC5/CyLib.c **** *  None
 771:.\Generated_Source\PSoC5/CyLib.c **** *
 772:.\Generated_Source\PSoC5/CyLib.c **** * Side Effects:
 773:.\Generated_Source\PSoC5/CyLib.c **** *  If this function execution resulted in the CPU clock frequency increasing,
 774:.\Generated_Source\PSoC5/CyLib.c **** *  then the number of clock cycles the cache will wait before it samples data
 775:.\Generated_Source\PSoC5/CyLib.c **** *  coming back from the Flash must be adjusted by calling
 776:.\Generated_Source\PSoC5/CyLib.c **** *  CyFlash_SetWaitCycles() with an appropriate parameter. It can be optionally
 777:.\Generated_Source\PSoC5/CyLib.c **** *  called if the CPU clock frequency is lowered in order to improve the CPU
 778:.\Generated_Source\PSoC5/CyLib.c **** *  performance. See CyFlash_SetWaitCycles() description for more information.
 779:.\Generated_Source\PSoC5/CyLib.c **** *
 780:.\Generated_Source\PSoC5/CyLib.c **** *  When changing the Master or Bus clock divider value from div-by-n to div-by-1
 781:.\Generated_Source\PSoC5/CyLib.c **** *  the first clock cycle output after the div-by-1 can be up to 4 ns shorter
 782:.\Generated_Source\PSoC5/CyLib.c **** *  than the final/expected div-by-1 period.
 783:.\Generated_Source\PSoC5/CyLib.c **** *
 784:.\Generated_Source\PSoC5/CyLib.c **** *******************************************************************************/
 785:.\Generated_Source\PSoC5/CyLib.c **** void CyMasterClk_SetDivider(uint8 divider) 
 786:.\Generated_Source\PSoC5/CyLib.c **** {
 787:.\Generated_Source\PSoC5/CyLib.c ****     CY_LIB_CLKDIST_MSTR0_REG = divider;
 788:.\Generated_Source\PSoC5/CyLib.c **** }
 789:.\Generated_Source\PSoC5/CyLib.c **** 
 790:.\Generated_Source\PSoC5/CyLib.c **** 
 791:.\Generated_Source\PSoC5/CyLib.c **** /*******************************************************************************
 792:.\Generated_Source\PSoC5/CyLib.c **** * Function Name: CyBusClk_Internal_SetDivider
 793:.\Generated_Source\PSoC5/CyLib.c **** ********************************************************************************
 794:.\Generated_Source\PSoC5/CyLib.c **** *
ARM GAS  C:\Users\Yiquing\AppData\Local\Temp\ccsAoMV1.s 			page 18


 795:.\Generated_Source\PSoC5/CyLib.c **** * Summary:
 796:.\Generated_Source\PSoC5/CyLib.c **** *  The function used by CyBusClk_SetDivider(). For internal use only.
 797:.\Generated_Source\PSoC5/CyLib.c **** *
 798:.\Generated_Source\PSoC5/CyLib.c **** * Parameters:
 799:.\Generated_Source\PSoC5/CyLib.c **** *   divider: Valid range [0-65535].
 800:.\Generated_Source\PSoC5/CyLib.c **** *   The clock will be divided by this value + 1.
 801:.\Generated_Source\PSoC5/CyLib.c **** *   For example, to divide this parameter by two should be set to 1.
 802:.\Generated_Source\PSoC5/CyLib.c **** *
 803:.\Generated_Source\PSoC5/CyLib.c **** * Return:
 804:.\Generated_Source\PSoC5/CyLib.c **** *  None
 805:.\Generated_Source\PSoC5/CyLib.c **** *
 806:.\Generated_Source\PSoC5/CyLib.c **** *******************************************************************************/
 807:.\Generated_Source\PSoC5/CyLib.c **** static void CyBusClk_Internal_SetDivider(uint16 divider)
 808:.\Generated_Source\PSoC5/CyLib.c **** {
 167              		.loc 1 808 0
 168              		.cfi_startproc
 169              		@ args = 0, pretend = 0, frame = 0
 170              		@ frame_needed = 0, uses_anonymous_args = 0
 171              		@ link register save eliminated.
 172              	.LVL4:
 809:.\Generated_Source\PSoC5/CyLib.c ****     /* Mask bits to enable shadow loads  */
 810:.\Generated_Source\PSoC5/CyLib.c ****     CY_LIB_CLKDIST_AMASK_REG &= CY_LIB_CLKDIST_AMASK_MASK;
 173              		.loc 1 810 0
 174 0000 0D4B     		ldr	r3, .L22
 175 0002 1A78     		ldrb	r2, [r3]	@ zero_extendqisi2
 176 0004 02F0F002 		and	r2, r2, #240
 177 0008 1A70     		strb	r2, [r3]
 811:.\Generated_Source\PSoC5/CyLib.c ****     CY_LIB_CLKDIST_DMASK_REG  = CY_LIB_CLKDIST_DMASK_MASK;
 178              		.loc 1 811 0
 179 000a 0022     		movs	r2, #0
 180 000c 03F8042C 		strb	r2, [r3, #-4]
 812:.\Generated_Source\PSoC5/CyLib.c **** 
 813:.\Generated_Source\PSoC5/CyLib.c ****     /* Enable mask bits to enable shadow loads */
 814:.\Generated_Source\PSoC5/CyLib.c ****     CY_LIB_CLKDIST_BCFG2_REG |= CY_LIB_CLKDIST_BCFG2_MASK;
 181              		.loc 1 814 0
 182 0010 13F80C2C 		ldrb	r2, [r3, #-12]	@ zero_extendqisi2
 183 0014 42F08002 		orr	r2, r2, #128
 184 0018 03F80C2C 		strb	r2, [r3, #-12]
 815:.\Generated_Source\PSoC5/CyLib.c **** 
 816:.\Generated_Source\PSoC5/CyLib.c ****     /* Update Shadow Divider Value Register with new divider */
 817:.\Generated_Source\PSoC5/CyLib.c ****     CY_LIB_CLKDIST_WRK_LSB_REG = LO8(divider);
 185              		.loc 1 817 0
 186 001c C2B2     		uxtb	r2, r0
 818:.\Generated_Source\PSoC5/CyLib.c ****     CY_LIB_CLKDIST_WRK_MSB_REG = HI8(divider);
 187              		.loc 1 818 0
 188 001e 000A     		lsrs	r0, r0, #8
 189              	.LVL5:
 817:.\Generated_Source\PSoC5/CyLib.c ****     CY_LIB_CLKDIST_WRK_LSB_REG = LO8(divider);
 190              		.loc 1 817 0
 191 0020 03F8122C 		strb	r2, [r3, #-18]
 192              		.loc 1 818 0
 193 0024 03F8110C 		strb	r0, [r3, #-17]
 819:.\Generated_Source\PSoC5/CyLib.c **** 
 820:.\Generated_Source\PSoC5/CyLib.c **** 
 821:.\Generated_Source\PSoC5/CyLib.c ****     /***************************************************************************
 822:.\Generated_Source\PSoC5/CyLib.c ****     * Copy shadow value defined in Shadow Divider Value Register
 823:.\Generated_Source\PSoC5/CyLib.c ****     * (CY_LIB_CLKDIST_WRK_LSB_REG and CY_LIB_CLKDIST_WRK_MSB_REG) to all
ARM GAS  C:\Users\Yiquing\AppData\Local\Temp\ccsAoMV1.s 			page 19


 824:.\Generated_Source\PSoC5/CyLib.c ****     * dividers selected in Analog and Digital Clock Mask Registers
 825:.\Generated_Source\PSoC5/CyLib.c ****     * (CY_LIB_CLKDIST_AMASK_REG and CY_LIB_CLKDIST_DMASK_REG).
 826:.\Generated_Source\PSoC5/CyLib.c ****     ***************************************************************************/
 827:.\Generated_Source\PSoC5/CyLib.c ****     CY_LIB_CLKDIST_LD_REG |= CY_LIB_CLKDIST_LD_LOAD;
 194              		.loc 1 827 0
 195 0028 13F8132C 		ldrb	r2, [r3, #-19]	@ zero_extendqisi2
 196 002c 42F00102 		orr	r2, r2, #1
 197 0030 03F8132C 		strb	r2, [r3, #-19]
 198 0034 7047     		bx	lr
 199              	.L23:
 200 0036 00BF     		.align	2
 201              	.L22:
 202 0038 14400040 		.word	1073758228
 203              		.cfi_endproc
 204              	.LFE14:
 205              		.size	CyBusClk_Internal_SetDivider, .-CyBusClk_Internal_SetDivider
 206              		.section	.text.CyPLL_OUT_Stop,"ax",%progbits
 207              		.align	1
 208              		.global	CyPLL_OUT_Stop
 209              		.thumb
 210              		.thumb_func
 211              		.type	CyPLL_OUT_Stop, %function
 212              	CyPLL_OUT_Stop:
 213              	.LFB1:
 160:.\Generated_Source\PSoC5/CyLib.c **** {
 214              		.loc 1 160 0
 215              		.cfi_startproc
 216              		@ args = 0, pretend = 0, frame = 0
 217              		@ frame_needed = 0, uses_anonymous_args = 0
 218              		@ link register save eliminated.
 161:.\Generated_Source\PSoC5/CyLib.c ****     CY_CLK_PLL_CFG0_REG &= ((uint8)(~CY_CLK_PLL_ENABLE));
 219              		.loc 1 161 0
 220 0000 024B     		ldr	r3, .L25
 221 0002 1A78     		ldrb	r2, [r3]	@ zero_extendqisi2
 222 0004 02F0FE02 		and	r2, r2, #254
 223 0008 1A70     		strb	r2, [r3]
 224 000a 7047     		bx	lr
 225              	.L26:
 226              		.align	2
 227              	.L25:
 228 000c 20420040 		.word	1073758752
 229              		.cfi_endproc
 230              	.LFE1:
 231              		.size	CyPLL_OUT_Stop, .-CyPLL_OUT_Stop
 232              		.section	.text.CyPLL_OUT_SetPQ,"ax",%progbits
 233              		.align	1
 234              		.global	CyPLL_OUT_SetPQ
 235              		.thumb
 236              		.thumb_func
 237              		.type	CyPLL_OUT_SetPQ, %function
 238              	CyPLL_OUT_SetPQ:
 239              	.LFB2:
 198:.\Generated_Source\PSoC5/CyLib.c **** {
 240              		.loc 1 198 0
 241              		.cfi_startproc
 242              		@ args = 0, pretend = 0, frame = 0
 243              		@ frame_needed = 0, uses_anonymous_args = 0
ARM GAS  C:\Users\Yiquing\AppData\Local\Temp\ccsAoMV1.s 			page 20


 244              		@ link register save eliminated.
 245              	.LVL6:
 202:.\Generated_Source\PSoC5/CyLib.c ****     if((pDiv    >= CY_CLK_PLL_MIN_P_VALUE  ) &&
 246              		.loc 1 202 0
 247 0000 0728     		cmp	r0, #7
 248 0002 13D9     		bls	.L27
 203:.\Generated_Source\PSoC5/CyLib.c ****        (qDiv    <= CY_CLK_PLL_MAX_Q_VALUE  ) && (qDiv    >= CY_CLK_PLL_MIN_Q_VALUE  ) &&
 249              		.loc 1 203 0
 250 0004 0139     		subs	r1, r1, #1
 251              	.LVL7:
 252 0006 C9B2     		uxtb	r1, r1
 253 0008 0F29     		cmp	r1, #15
 254 000a 0FD8     		bhi	.L27
 203:.\Generated_Source\PSoC5/CyLib.c ****        (qDiv    <= CY_CLK_PLL_MAX_Q_VALUE  ) && (qDiv    >= CY_CLK_PLL_MIN_Q_VALUE  ) &&
 255              		.loc 1 203 0 is_stmt 0 discriminator 1
 256 000c 013A     		subs	r2, r2, #1
 257              	.LVL8:
 258 000e D2B2     		uxtb	r2, r2
 259 0010 062A     		cmp	r2, #6
 260 0012 0BD8     		bhi	.L27
 207:.\Generated_Source\PSoC5/CyLib.c ****         CY_CLK_PLL_P_REG = pDiv;
 261              		.loc 1 207 0 is_stmt 1
 262 0014 064B     		ldr	r3, .L29
 263 0016 1870     		strb	r0, [r3]
 208:.\Generated_Source\PSoC5/CyLib.c ****         CY_CLK_PLL_Q_REG = ((uint8)(qDiv - 1u));
 264              		.loc 1 208 0
 265 0018 5970     		strb	r1, [r3, #1]
 209:.\Generated_Source\PSoC5/CyLib.c ****         CY_CLK_PLL_CFG1_REG = (CY_CLK_PLL_CFG1_REG & CY_CLK_PLL_CURRENT_MASK) |
 266              		.loc 1 209 0
 267 001a 13F8011C 		ldrb	r1, [r3, #-1]	@ zero_extendqisi2
 268 001e 01F08F01 		and	r1, r1, #143
 269 0022 41EA0212 		orr	r2, r1, r2, lsl #4
 270 0026 D2B2     		uxtb	r2, r2
 271 0028 03F8012C 		strb	r2, [r3, #-1]
 272              	.L27:
 273 002c 7047     		bx	lr
 274              	.L30:
 275 002e 00BF     		.align	2
 276              	.L29:
 277 0030 22420040 		.word	1073758754
 278              		.cfi_endproc
 279              	.LFE2:
 280              		.size	CyPLL_OUT_SetPQ, .-CyPLL_OUT_SetPQ
 281              		.section	.text.CyPLL_OUT_SetSource,"ax",%progbits
 282              		.align	1
 283              		.global	CyPLL_OUT_SetSource
 284              		.thumb
 285              		.thumb_func
 286              		.type	CyPLL_OUT_SetSource, %function
 287              	CyPLL_OUT_SetSource:
 288              	.LFB3:
 253:.\Generated_Source\PSoC5/CyLib.c **** {
 289              		.loc 1 253 0
 290              		.cfi_startproc
 291              		@ args = 0, pretend = 0, frame = 0
 292              		@ frame_needed = 0, uses_anonymous_args = 0
 293              		@ link register save eliminated.
ARM GAS  C:\Users\Yiquing\AppData\Local\Temp\ccsAoMV1.s 			page 21


 294              	.LVL9:
 257:.\Generated_Source\PSoC5/CyLib.c ****     switch(source)
 295              		.loc 1 257 0
 296 0000 0228     		cmp	r0, #2
 297 0002 06D8     		bhi	.L31
 262:.\Generated_Source\PSoC5/CyLib.c ****             CY_LIB_CLKDIST_CR_REG = ((CY_LIB_CLKDIST_CR_REG & CY_LIB_CLKDIST_CR_PLL_SCR_MASK) | sou
 298              		.loc 1 262 0
 299 0004 4FF04023 		mov	r3, #1073758208
 300 0008 1A78     		ldrb	r2, [r3]	@ zero_extendqisi2
 301 000a 02F0FC02 		and	r2, r2, #252
 302 000e 1043     		orrs	r0, r0, r2
 303              	.LVL10:
 304 0010 1870     		strb	r0, [r3]
 305              	.L31:
 306 0012 7047     		bx	lr
 307              		.cfi_endproc
 308              	.LFE3:
 309              		.size	CyPLL_OUT_SetSource, .-CyPLL_OUT_SetSource
 310              		.section	.text.CyIMO_Stop,"ax",%progbits
 311              		.align	1
 312              		.global	CyIMO_Stop
 313              		.thumb
 314              		.thumb_func
 315              		.type	CyIMO_Stop, %function
 316              	CyIMO_Stop:
 317              	.LFB5:
 352:.\Generated_Source\PSoC5/CyLib.c **** {
 318              		.loc 1 352 0
 319              		.cfi_startproc
 320              		@ args = 0, pretend = 0, frame = 0
 321              		@ frame_needed = 0, uses_anonymous_args = 0
 322              		@ link register save eliminated.
 353:.\Generated_Source\PSoC5/CyLib.c ****     CY_LIB_PM_ACT_CFG0_REG  &= ((uint8) (~CY_LIB_PM_ACT_CFG0_IMO_EN));
 323              		.loc 1 353 0
 324 0000 044B     		ldr	r3, .L35
 325 0002 1A78     		ldrb	r2, [r3]	@ zero_extendqisi2
 326 0004 02F0EF02 		and	r2, r2, #239
 327 0008 1A70     		strb	r2, [r3]
 354:.\Generated_Source\PSoC5/CyLib.c ****     CY_LIB_PM_STBY_CFG0_REG &= ((uint8) (~CY_LIB_PM_STBY_CFG0_IMO_EN));
 328              		.loc 1 354 0
 329 000a 1A7C     		ldrb	r2, [r3, #16]	@ zero_extendqisi2
 330 000c 02F0EF02 		and	r2, r2, #239
 331 0010 1A74     		strb	r2, [r3, #16]
 332 0012 7047     		bx	lr
 333              	.L36:
 334              		.align	2
 335              	.L35:
 336 0014 A0430040 		.word	1073759136
 337              		.cfi_endproc
 338              	.LFE5:
 339              		.size	CyIMO_Stop, .-CyIMO_Stop
 340              		.section	.text.CyIMO_SetSource,"ax",%progbits
 341              		.align	1
 342              		.global	CyIMO_SetSource
 343              		.thumb
 344              		.thumb_func
 345              		.type	CyIMO_SetSource, %function
ARM GAS  C:\Users\Yiquing\AppData\Local\Temp\ccsAoMV1.s 			page 22


 346              	CyIMO_SetSource:
 347              	.LFB9:
 654:.\Generated_Source\PSoC5/CyLib.c **** {
 348              		.loc 1 654 0
 349              		.cfi_startproc
 350              		@ args = 0, pretend = 0, frame = 0
 351              		@ frame_needed = 0, uses_anonymous_args = 0
 352              		@ link register save eliminated.
 353              	.LVL11:
 655:.\Generated_Source\PSoC5/CyLib.c ****     switch(source)
 354              		.loc 1 655 0
 355 0000 0128     		cmp	r0, #1
 356 0002 08D0     		beq	.L39
 357 0004 14D3     		bcc	.L40
 358 0006 0228     		cmp	r0, #2
 359 0008 17D1     		bne	.L37
 658:.\Generated_Source\PSoC5/CyLib.c ****         CY_LIB_CLKDIST_CR_REG     &= ((uint8)(~CY_LIB_CLKDIST_CR_IMO2X));
 360              		.loc 1 658 0
 361 000a 4FF04023 		mov	r3, #1073758208
 362 000e 1A78     		ldrb	r2, [r3]	@ zero_extendqisi2
 363 0010 02F0BF02 		and	r2, r2, #191
 364 0014 04E0     		b	.L42
 365              	.L39:
 663:.\Generated_Source\PSoC5/CyLib.c ****         CY_LIB_CLKDIST_CR_REG     |= CY_LIB_CLKDIST_CR_IMO2X;
 366              		.loc 1 663 0
 367 0016 4FF04023 		mov	r3, #1073758208
 368 001a 1A78     		ldrb	r2, [r3]	@ zero_extendqisi2
 369 001c 42F04002 		orr	r2, r2, #64
 370              	.L42:
 371 0020 1A70     		strb	r2, [r3]
 664:.\Generated_Source\PSoC5/CyLib.c ****         CY_LIB_FASTCLK_IMO_CR_REG |= CY_LIB_FASTCLK_IMO_IMO;
 372              		.loc 1 664 0
 373 0022 93F80022 		ldrb	r2, [r3, #512]	@ zero_extendqisi2
 374 0026 42F02002 		orr	r2, r2, #32
 375 002a 83F80022 		strb	r2, [r3, #512]
 665:.\Generated_Source\PSoC5/CyLib.c ****         break;
 376              		.loc 1 665 0
 377 002e 7047     		bx	lr
 378              	.L40:
 668:.\Generated_Source\PSoC5/CyLib.c ****         CY_LIB_FASTCLK_IMO_CR_REG &= ((uint8)(~CY_LIB_FASTCLK_IMO_IMO));
 379              		.loc 1 668 0
 380 0030 024B     		ldr	r3, .L43
 381 0032 1A78     		ldrb	r2, [r3]	@ zero_extendqisi2
 382 0034 02F0DF02 		and	r2, r2, #223
 383 0038 1A70     		strb	r2, [r3]
 384              	.L37:
 385 003a 7047     		bx	lr
 386              	.L44:
 387              		.align	2
 388              	.L43:
 389 003c 00420040 		.word	1073758720
 390              		.cfi_endproc
 391              	.LFE9:
 392              		.size	CyIMO_SetSource, .-CyIMO_SetSource
 393              		.section	.text.CyIMO_EnableDoubler,"ax",%progbits
 394              		.align	1
 395              		.global	CyIMO_EnableDoubler
ARM GAS  C:\Users\Yiquing\AppData\Local\Temp\ccsAoMV1.s 			page 23


 396              		.thumb
 397              		.thumb_func
 398              		.type	CyIMO_EnableDoubler, %function
 399              	CyIMO_EnableDoubler:
 400              	.LFB10:
 695:.\Generated_Source\PSoC5/CyLib.c **** {
 401              		.loc 1 695 0
 402              		.cfi_startproc
 403              		@ args = 0, pretend = 0, frame = 0
 404              		@ frame_needed = 0, uses_anonymous_args = 0
 405              		@ link register save eliminated.
 697:.\Generated_Source\PSoC5/CyLib.c ****     CY_LIB_FASTCLK_IMO_CR_REG |= CY_LIB_FASTCLK_IMO_DOUBLER;
 406              		.loc 1 697 0
 407 0000 024B     		ldr	r3, .L46
 408 0002 1A78     		ldrb	r2, [r3]	@ zero_extendqisi2
 409 0004 42F01002 		orr	r2, r2, #16
 410 0008 1A70     		strb	r2, [r3]
 411 000a 7047     		bx	lr
 412              	.L47:
 413              		.align	2
 414              	.L46:
 415 000c 00420040 		.word	1073758720
 416              		.cfi_endproc
 417              	.LFE10:
 418              		.size	CyIMO_EnableDoubler, .-CyIMO_EnableDoubler
 419              		.section	.text.CyIMO_DisableDoubler,"ax",%progbits
 420              		.align	1
 421              		.global	CyIMO_DisableDoubler
 422              		.thumb
 423              		.thumb_func
 424              		.type	CyIMO_DisableDoubler, %function
 425              	CyIMO_DisableDoubler:
 426              	.LFB11:
 716:.\Generated_Source\PSoC5/CyLib.c **** {
 427              		.loc 1 716 0
 428              		.cfi_startproc
 429              		@ args = 0, pretend = 0, frame = 0
 430              		@ frame_needed = 0, uses_anonymous_args = 0
 431              		@ link register save eliminated.
 717:.\Generated_Source\PSoC5/CyLib.c ****     CY_LIB_FASTCLK_IMO_CR_REG &= ((uint8)(~CY_LIB_FASTCLK_IMO_DOUBLER));
 432              		.loc 1 717 0
 433 0000 024B     		ldr	r3, .L49
 434 0002 1A78     		ldrb	r2, [r3]	@ zero_extendqisi2
 435 0004 02F0EF02 		and	r2, r2, #239
 436 0008 1A70     		strb	r2, [r3]
 437 000a 7047     		bx	lr
 438              	.L50:
 439              		.align	2
 440              	.L49:
 441 000c 00420040 		.word	1073758720
 442              		.cfi_endproc
 443              	.LFE11:
 444              		.size	CyIMO_DisableDoubler, .-CyIMO_DisableDoubler
 445              		.section	.text.CyIMO_SetFreq,"ax",%progbits
 446              		.align	1
 447              		.global	CyIMO_SetFreq
 448              		.thumb
ARM GAS  C:\Users\Yiquing\AppData\Local\Temp\ccsAoMV1.s 			page 24


 449              		.thumb_func
 450              		.type	CyIMO_SetFreq, %function
 451              	CyIMO_SetFreq:
 452              	.LFB8:
 499:.\Generated_Source\PSoC5/CyLib.c **** {
 453              		.loc 1 499 0
 454              		.cfi_startproc
 455              		@ args = 0, pretend = 0, frame = 0
 456              		@ frame_needed = 0, uses_anonymous_args = 0
 457              	.LVL12:
 458 0000 70B5     		push	{r4, r5, r6, lr}
 459              		.cfi_def_cfa_offset 16
 460              		.cfi_offset 4, -16
 461              		.cfi_offset 5, -12
 462              		.cfi_offset 6, -8
 463              		.cfi_offset 14, -4
 510:.\Generated_Source\PSoC5/CyLib.c ****     currentFreq = CY_LIB_FASTCLK_IMO_CR_REG & ((uint8)(~CY_LIB_FASTCLK_IMO_CR_RANGE_MASK));
 464              		.loc 1 510 0
 465 0002 344B     		ldr	r3, .L76
 513:.\Generated_Source\PSoC5/CyLib.c ****     nextFreq = (freq == CY_IMO_FREQ_USB) ? CY_IMO_FREQ_24MHZ : freq;
 466              		.loc 1 513 0
 467 0004 0828     		cmp	r0, #8
 510:.\Generated_Source\PSoC5/CyLib.c ****     currentFreq = CY_LIB_FASTCLK_IMO_CR_REG & ((uint8)(~CY_LIB_FASTCLK_IMO_CR_RANGE_MASK));
 468              		.loc 1 510 0
 469 0006 1C78     		ldrb	r4, [r3]	@ zero_extendqisi2
 513:.\Generated_Source\PSoC5/CyLib.c ****     nextFreq = (freq == CY_IMO_FREQ_USB) ? CY_IMO_FREQ_24MHZ : freq;
 470              		.loc 1 513 0
 471 0008 14BF     		ite	ne
 472 000a 0646     		movne	r6, r0
 473 000c 0326     		moveq	r6, #3
 510:.\Generated_Source\PSoC5/CyLib.c ****     currentFreq = CY_LIB_FASTCLK_IMO_CR_REG & ((uint8)(~CY_LIB_FASTCLK_IMO_CR_RANGE_MASK));
 474              		.loc 1 510 0
 475 000e 04F00704 		and	r4, r4, #7
 476              	.LVL13:
 515:.\Generated_Source\PSoC5/CyLib.c ****     switch (currentFreq)
 477              		.loc 1 515 0
 478 0012 022C     		cmp	r4, #2
 499:.\Generated_Source\PSoC5/CyLib.c **** {
 479              		.loc 1 499 0
 480 0014 0546     		mov	r5, r0
 515:.\Generated_Source\PSoC5/CyLib.c ****     switch (currentFreq)
 481              		.loc 1 515 0
 482 0016 05D0     		beq	.L54
 515:.\Generated_Source\PSoC5/CyLib.c ****     switch (currentFreq)
 483              		.loc 1 515 0 is_stmt 0 discriminator 3
 484 0018 032C     		cmp	r4, #3
 485 001a 07D0     		beq	.L74
 518:.\Generated_Source\PSoC5/CyLib.c ****         currentFreq = CY_IMO_FREQ_12MHZ;
 486              		.loc 1 518 0 is_stmt 1 discriminator 3
 487 001c 002C     		cmp	r4, #0
 488 001e 08BF     		it	eq
 489 0020 0224     		moveq	r4, #2
 490              	.LVL14:
 491 0022 00E0     		b	.L53
 492              	.LVL15:
 493              	.L54:
 526:.\Generated_Source\PSoC5/CyLib.c ****         currentFreq = CY_IMO_FREQ_24MHZ;
ARM GAS  C:\Users\Yiquing\AppData\Local\Temp\ccsAoMV1.s 			page 25


 494              		.loc 1 526 0
 495 0024 0324     		movs	r4, #3
 496              	.LVL16:
 497              	.L53:
 552:.\Generated_Source\PSoC5/CyLib.c ****     if (nextFreq >= currentFreq)
 498              		.loc 1 552 0
 499 0026 A642     		cmp	r6, r4
 500 0028 04D3     		bcc	.L57
 501 002a 00E0     		b	.L55
 502              	.L74:
 530:.\Generated_Source\PSoC5/CyLib.c ****         currentFreq = CY_IMO_FREQ_3MHZ;
 503              		.loc 1 530 0
 504 002c 0024     		movs	r4, #0
 505              	.LVL17:
 506              	.L55:
 555:.\Generated_Source\PSoC5/CyLib.c ****         CyIMO_SetTrimValue(freq);
 507              		.loc 1 555 0
 508 002e 2846     		mov	r0, r5
 509              	.LVL18:
 510 0030 FFF7FEFF 		bl	CyIMO_SetTrimValue
 511              	.LVL19:
 512              	.L57:
 559:.\Generated_Source\PSoC5/CyLib.c ****     switch(freq)
 513              		.loc 1 559 0
 514 0034 082D     		cmp	r5, #8
 515 0036 3ED8     		bhi	.L58
 516 0038 DFE805F0 		tbb	[pc, r5]
 517              	.L60:
 518 003c 05       		.byte	(.L59-.L60)/2
 519 003d 0C       		.byte	(.L61-.L60)/2
 520 003e 13       		.byte	(.L62-.L60)/2
 521 003f 18       		.byte	(.L63-.L60)/2
 522 0040 1F       		.byte	(.L64-.L60)/2
 523 0041 26       		.byte	(.L65-.L60)/2
 524 0042 2D       		.byte	(.L66-.L60)/2
 525 0043 3D       		.byte	(.L58-.L60)/2
 526 0044 35       		.byte	(.L67-.L60)/2
 527 0045 00       		.p2align 1
 528              	.L59:
 562:.\Generated_Source\PSoC5/CyLib.c ****         CY_LIB_FASTCLK_IMO_CR_REG = ((CY_LIB_FASTCLK_IMO_CR_REG & CY_LIB_FASTCLK_IMO_CR_RANGE_MASK)
 529              		.loc 1 562 0
 530 0046 234B     		ldr	r3, .L76
 531 0048 1A78     		ldrb	r2, [r3]	@ zero_extendqisi2
 532 004a 02F0B802 		and	r2, r2, #184
 533 004e 42F00302 		orr	r2, r2, #3
 534 0052 26E0     		b	.L75
 535              	.L61:
 567:.\Generated_Source\PSoC5/CyLib.c ****         CY_LIB_FASTCLK_IMO_CR_REG = ((CY_LIB_FASTCLK_IMO_CR_REG & CY_LIB_FASTCLK_IMO_CR_RANGE_MASK)
 536              		.loc 1 567 0
 537 0054 1F4B     		ldr	r3, .L76
 538 0056 1A78     		ldrb	r2, [r3]	@ zero_extendqisi2
 539 0058 02F0B802 		and	r2, r2, #184
 540 005c 42F00102 		orr	r2, r2, #1
 541 0060 1FE0     		b	.L75
 542              	.L62:
 572:.\Generated_Source\PSoC5/CyLib.c ****         CY_LIB_FASTCLK_IMO_CR_REG = ((CY_LIB_FASTCLK_IMO_CR_REG & CY_LIB_FASTCLK_IMO_CR_RANGE_MASK)
 543              		.loc 1 572 0
ARM GAS  C:\Users\Yiquing\AppData\Local\Temp\ccsAoMV1.s 			page 26


 544 0062 1C4B     		ldr	r3, .L76
 545 0064 1A78     		ldrb	r2, [r3]	@ zero_extendqisi2
 546 0066 02F0B802 		and	r2, r2, #184
 547 006a 1AE0     		b	.L75
 548              	.L63:
 577:.\Generated_Source\PSoC5/CyLib.c ****         CY_LIB_FASTCLK_IMO_CR_REG = ((CY_LIB_FASTCLK_IMO_CR_REG & CY_LIB_FASTCLK_IMO_CR_RANGE_MASK)
 549              		.loc 1 577 0
 550 006c 194B     		ldr	r3, .L76
 551 006e 1A78     		ldrb	r2, [r3]	@ zero_extendqisi2
 552 0070 02F0B802 		and	r2, r2, #184
 553 0074 42F00202 		orr	r2, r2, #2
 554 0078 13E0     		b	.L75
 555              	.L64:
 582:.\Generated_Source\PSoC5/CyLib.c ****         CY_LIB_FASTCLK_IMO_CR_REG = ((CY_LIB_FASTCLK_IMO_CR_REG & CY_LIB_FASTCLK_IMO_CR_RANGE_MASK)
 556              		.loc 1 582 0
 557 007a 164B     		ldr	r3, .L76
 558 007c 1A78     		ldrb	r2, [r3]	@ zero_extendqisi2
 559 007e 02F0B802 		and	r2, r2, #184
 560 0082 42F00402 		orr	r2, r2, #4
 561 0086 0CE0     		b	.L75
 562              	.L65:
 587:.\Generated_Source\PSoC5/CyLib.c ****         CY_LIB_FASTCLK_IMO_CR_REG = ((CY_LIB_FASTCLK_IMO_CR_REG & CY_LIB_FASTCLK_IMO_CR_RANGE_MASK)
 563              		.loc 1 587 0
 564 0088 124B     		ldr	r3, .L76
 565 008a 1A78     		ldrb	r2, [r3]	@ zero_extendqisi2
 566 008c 02F0B802 		and	r2, r2, #184
 567 0090 42F00502 		orr	r2, r2, #5
 568 0094 05E0     		b	.L75
 569              	.L66:
 593:.\Generated_Source\PSoC5/CyLib.c ****         CY_LIB_FASTCLK_IMO_CR_REG = ((CY_LIB_FASTCLK_IMO_CR_REG & CY_LIB_FASTCLK_IMO_CR_RANGE_MASK)
 570              		.loc 1 593 0
 571 0096 0F4B     		ldr	r3, .L76
 572 0098 1A78     		ldrb	r2, [r3]	@ zero_extendqisi2
 573 009a 02F0B802 		and	r2, r2, #184
 574 009e 42F00602 		orr	r2, r2, #6
 575              	.L75:
 576 00a2 1A70     		strb	r2, [r3]
 595:.\Generated_Source\PSoC5/CyLib.c ****         break;
 577              		.loc 1 595 0
 578 00a4 0CE0     		b	.L70
 579              	.L67:
 599:.\Generated_Source\PSoC5/CyLib.c ****         CY_LIB_FASTCLK_IMO_CR_REG = ((CY_LIB_FASTCLK_IMO_CR_REG & CY_LIB_FASTCLK_IMO_CR_RANGE_MASK)
 580              		.loc 1 599 0
 581 00a6 0B4B     		ldr	r3, .L76
 582 00a8 1A78     		ldrb	r2, [r3]	@ zero_extendqisi2
 583 00aa 02F0B802 		and	r2, r2, #184
 584 00ae 42F04202 		orr	r2, r2, #66
 585 00b2 1A70     		strb	r2, [r3]
 586 00b4 01E0     		b	.L69
 587              	.L58:
 609:.\Generated_Source\PSoC5/CyLib.c ****     if (freq == CY_IMO_FREQ_USB)
 588              		.loc 1 609 0
 589 00b6 082D     		cmp	r5, #8
 590 00b8 02D1     		bne	.L70
 591              	.L69:
 611:.\Generated_Source\PSoC5/CyLib.c ****         CyIMO_EnableDoubler();
 592              		.loc 1 611 0
ARM GAS  C:\Users\Yiquing\AppData\Local\Temp\ccsAoMV1.s 			page 27


 593 00ba FFF7FEFF 		bl	CyIMO_EnableDoubler
 594              	.LVL20:
 595 00be 01E0     		b	.L71
 596              	.L70:
 615:.\Generated_Source\PSoC5/CyLib.c ****         CyIMO_DisableDoubler();
 597              		.loc 1 615 0
 598 00c0 FFF7FEFF 		bl	CyIMO_DisableDoubler
 599              	.LVL21:
 600              	.L71:
 618:.\Generated_Source\PSoC5/CyLib.c ****     if (nextFreq < currentFreq)
 601              		.loc 1 618 0
 602 00c4 A642     		cmp	r6, r4
 603 00c6 04D2     		bcs	.L51
 621:.\Generated_Source\PSoC5/CyLib.c ****         CyIMO_SetTrimValue(freq);
 604              		.loc 1 621 0
 605 00c8 2846     		mov	r0, r5
 623:.\Generated_Source\PSoC5/CyLib.c **** }
 606              		.loc 1 623 0
 607 00ca BDE87040 		pop	{r4, r5, r6, lr}
 608              	.LVL22:
 621:.\Generated_Source\PSoC5/CyLib.c ****         CyIMO_SetTrimValue(freq);
 609              		.loc 1 621 0
 610 00ce FFF7FEBF 		b	CyIMO_SetTrimValue
 611              	.LVL23:
 612              	.L51:
 613 00d2 70BD     		pop	{r4, r5, r6, pc}
 614              	.LVL24:
 615              	.L77:
 616              		.align	2
 617              	.L76:
 618 00d4 00420040 		.word	1073758720
 619              		.cfi_endproc
 620              	.LFE8:
 621              		.size	CyIMO_SetFreq, .-CyIMO_SetFreq
 622              		.section	.text.CyMasterClk_SetSource,"ax",%progbits
 623              		.align	1
 624              		.global	CyMasterClk_SetSource
 625              		.thumb
 626              		.thumb_func
 627              		.type	CyMasterClk_SetSource, %function
 628              	CyMasterClk_SetSource:
 629              	.LFB12:
 751:.\Generated_Source\PSoC5/CyLib.c **** {
 630              		.loc 1 751 0
 631              		.cfi_startproc
 632              		@ args = 0, pretend = 0, frame = 0
 633              		@ frame_needed = 0, uses_anonymous_args = 0
 634              		@ link register save eliminated.
 635              	.LVL25:
 752:.\Generated_Source\PSoC5/CyLib.c ****     CY_LIB_CLKDIST_MSTR1_REG = (CY_LIB_CLKDIST_MSTR1_REG & MASTER_CLK_SRC_CLEAR) |
 636              		.loc 1 752 0
 637 0000 044B     		ldr	r3, .L79
 638 0002 00F00300 		and	r0, r0, #3
 639              	.LVL26:
 640 0006 1A78     		ldrb	r2, [r3]	@ zero_extendqisi2
 641 0008 02F0FC02 		and	r2, r2, #252
 642 000c 0243     		orrs	r2, r2, r0
ARM GAS  C:\Users\Yiquing\AppData\Local\Temp\ccsAoMV1.s 			page 28


 643 000e 1A70     		strb	r2, [r3]
 644 0010 7047     		bx	lr
 645              	.L80:
 646 0012 00BF     		.align	2
 647              	.L79:
 648 0014 05400040 		.word	1073758213
 649              		.cfi_endproc
 650              	.LFE12:
 651              		.size	CyMasterClk_SetSource, .-CyMasterClk_SetSource
 652              		.section	.text.CyMasterClk_SetDivider,"ax",%progbits
 653              		.align	1
 654              		.global	CyMasterClk_SetDivider
 655              		.thumb
 656              		.thumb_func
 657              		.type	CyMasterClk_SetDivider, %function
 658              	CyMasterClk_SetDivider:
 659              	.LFB13:
 786:.\Generated_Source\PSoC5/CyLib.c **** {
 660              		.loc 1 786 0
 661              		.cfi_startproc
 662              		@ args = 0, pretend = 0, frame = 0
 663              		@ frame_needed = 0, uses_anonymous_args = 0
 664              		@ link register save eliminated.
 665              	.LVL27:
 787:.\Generated_Source\PSoC5/CyLib.c ****     CY_LIB_CLKDIST_MSTR0_REG = divider;
 666              		.loc 1 787 0
 667 0000 014B     		ldr	r3, .L82
 668 0002 1870     		strb	r0, [r3]
 669 0004 7047     		bx	lr
 670              	.L83:
 671 0006 00BF     		.align	2
 672              	.L82:
 673 0008 04400040 		.word	1073758212
 674              		.cfi_endproc
 675              	.LFE13:
 676              		.size	CyMasterClk_SetDivider, .-CyMasterClk_SetDivider
 677              		.section	.text.CyBusClk_SetDivider,"ax",%progbits
 678              		.align	1
 679              		.global	CyBusClk_SetDivider
 680              		.thumb
 681              		.thumb_func
 682              		.type	CyBusClk_SetDivider, %function
 683              	CyBusClk_SetDivider:
 684              	.LFB15:
 828:.\Generated_Source\PSoC5/CyLib.c **** }
 829:.\Generated_Source\PSoC5/CyLib.c **** 
 830:.\Generated_Source\PSoC5/CyLib.c **** 
 831:.\Generated_Source\PSoC5/CyLib.c **** /*******************************************************************************
 832:.\Generated_Source\PSoC5/CyLib.c **** * Function Name: CyBusClk_SetDivider
 833:.\Generated_Source\PSoC5/CyLib.c **** ********************************************************************************
 834:.\Generated_Source\PSoC5/CyLib.c **** *
 835:.\Generated_Source\PSoC5/CyLib.c **** * Summary:
 836:.\Generated_Source\PSoC5/CyLib.c **** *  Sets the divider value used to generate the Bus Clock.
 837:.\Generated_Source\PSoC5/CyLib.c **** *
 838:.\Generated_Source\PSoC5/CyLib.c **** * Parameters:
 839:.\Generated_Source\PSoC5/CyLib.c **** *  divider: Valid range [0-65535]. The clock will be divided by this value + 1.
 840:.\Generated_Source\PSoC5/CyLib.c **** *  For example, to divide this parameter by two should be set to 1.
ARM GAS  C:\Users\Yiquing\AppData\Local\Temp\ccsAoMV1.s 			page 29


 841:.\Generated_Source\PSoC5/CyLib.c **** *
 842:.\Generated_Source\PSoC5/CyLib.c **** * Return:
 843:.\Generated_Source\PSoC5/CyLib.c **** *  None
 844:.\Generated_Source\PSoC5/CyLib.c **** *
 845:.\Generated_Source\PSoC5/CyLib.c **** * Side Effects:
 846:.\Generated_Source\PSoC5/CyLib.c **** *  If this function execution resulted in the CPU clock frequency increasing,
 847:.\Generated_Source\PSoC5/CyLib.c **** *  then the number of clock cycles the cache will wait before it samples data
 848:.\Generated_Source\PSoC5/CyLib.c **** *  coming back from the Flash must be adjusted by calling
 849:.\Generated_Source\PSoC5/CyLib.c **** *  CyFlash_SetWaitCycles() with an appropriate parameter. It can be optionally
 850:.\Generated_Source\PSoC5/CyLib.c **** *  called if the CPU clock frequency is lowered in order to improve the CPU
 851:.\Generated_Source\PSoC5/CyLib.c **** *  performance. See CyFlash_SetWaitCycles() description for more information.
 852:.\Generated_Source\PSoC5/CyLib.c **** *
 853:.\Generated_Source\PSoC5/CyLib.c **** *******************************************************************************/
 854:.\Generated_Source\PSoC5/CyLib.c **** void CyBusClk_SetDivider(uint16 divider) 
 855:.\Generated_Source\PSoC5/CyLib.c **** {
 685              		.loc 1 855 0
 686              		.cfi_startproc
 687              		@ args = 0, pretend = 0, frame = 0
 688              		@ frame_needed = 0, uses_anonymous_args = 0
 689              	.LVL28:
 690 0000 F8B5     		push	{r3, r4, r5, r6, r7, lr}
 691              		.cfi_def_cfa_offset 24
 692              		.cfi_offset 3, -24
 693              		.cfi_offset 4, -20
 694              		.cfi_offset 5, -16
 695              		.cfi_offset 6, -12
 696              		.cfi_offset 7, -8
 697              		.cfi_offset 14, -4
 698              		.loc 1 855 0
 699 0002 0446     		mov	r4, r0
 856:.\Generated_Source\PSoC5/CyLib.c ****     uint8  masterClkDiv;
 857:.\Generated_Source\PSoC5/CyLib.c ****     uint16 busClkDiv;
 858:.\Generated_Source\PSoC5/CyLib.c ****     uint8 interruptState;
 859:.\Generated_Source\PSoC5/CyLib.c **** 
 860:.\Generated_Source\PSoC5/CyLib.c ****     interruptState = CyEnterCriticalSection();
 700              		.loc 1 860 0
 701 0004 FFF7FEFF 		bl	CyEnterCriticalSection
 702              	.LVL29:
 861:.\Generated_Source\PSoC5/CyLib.c **** 
 862:.\Generated_Source\PSoC5/CyLib.c ****     /* Work around to set bus clock divider value */
 863:.\Generated_Source\PSoC5/CyLib.c ****     busClkDiv = (uint16)((uint16)CY_LIB_CLKDIST_BCFG_MSB_REG << 8u);
 703              		.loc 1 863 0
 704 0008 164B     		ldr	r3, .L94
 860:.\Generated_Source\PSoC5/CyLib.c ****     interruptState = CyEnterCriticalSection();
 705              		.loc 1 860 0
 706 000a 0746     		mov	r7, r0
 707              	.LVL30:
 708              		.loc 1 863 0
 709 000c 1A78     		ldrb	r2, [r3]	@ zero_extendqisi2
 864:.\Generated_Source\PSoC5/CyLib.c ****     busClkDiv |= CY_LIB_CLKDIST_BCFG_LSB_REG;
 710              		.loc 1 864 0
 711 000e 013B     		subs	r3, r3, #1
 712 0010 1B78     		ldrb	r3, [r3]	@ zero_extendqisi2
 863:.\Generated_Source\PSoC5/CyLib.c ****     busClkDiv = (uint16)((uint16)CY_LIB_CLKDIST_BCFG_MSB_REG << 8u);
 713              		.loc 1 863 0
 714 0012 D2B2     		uxtb	r2, r2
 715              	.LVL31:
ARM GAS  C:\Users\Yiquing\AppData\Local\Temp\ccsAoMV1.s 			page 30


 716              		.loc 1 864 0
 717 0014 DBB2     		uxtb	r3, r3
 718              	.LVL32:
 865:.\Generated_Source\PSoC5/CyLib.c **** 
 866:.\Generated_Source\PSoC5/CyLib.c ****     if ((divider == 0u) || (busClkDiv == 0u))
 719              		.loc 1 866 0
 720 0016 14B1     		cbz	r4, .L85
 721              		.loc 1 866 0 is_stmt 0 discriminator 1
 722 0018 53EA0223 		orrs	r3, r3, r2, lsl #8
 723              	.LVL33:
 724 001c 1AD1     		bne	.L86
 725              	.L85:
 867:.\Generated_Source\PSoC5/CyLib.c ****     {
 868:.\Generated_Source\PSoC5/CyLib.c ****         /* Save away master clock divider value */
 869:.\Generated_Source\PSoC5/CyLib.c ****         masterClkDiv = CY_LIB_CLKDIST_MSTR0_REG;
 726              		.loc 1 869 0 is_stmt 1
 727 001e 124B     		ldr	r3, .L94+4
 728 0020 124D     		ldr	r5, .L94+8
 729 0022 1E78     		ldrb	r6, [r3]	@ zero_extendqisi2
 730 0024 F6B2     		uxtb	r6, r6
 731              	.LVL34:
 870:.\Generated_Source\PSoC5/CyLib.c **** 
 871:.\Generated_Source\PSoC5/CyLib.c ****         if (masterClkDiv < CY_LIB_CLKDIST_MASTERCLK_DIV)
 732              		.loc 1 871 0
 733 0026 062E     		cmp	r6, #6
 734              	.LVL35:
 735              	.LBB16:
 736              	.LBB17:
 787:.\Generated_Source\PSoC5/CyLib.c ****     CY_LIB_CLKDIST_MSTR0_REG = divider;
 737              		.loc 1 787 0
 738 0028 9CBF     		itt	ls
 739 002a 0722     		movls	r2, #7
 740 002c 1A70     		strbls	r2, [r3]
 741              	.LBE17:
 742              	.LBE16:
 872:.\Generated_Source\PSoC5/CyLib.c ****         {
 873:.\Generated_Source\PSoC5/CyLib.c ****             /* Set master clock divider to 7 */
 874:.\Generated_Source\PSoC5/CyLib.c ****             CyMasterClk_SetDivider(CY_LIB_CLKDIST_MASTERCLK_DIV);
 875:.\Generated_Source\PSoC5/CyLib.c ****         }
 876:.\Generated_Source\PSoC5/CyLib.c **** 
 877:.\Generated_Source\PSoC5/CyLib.c ****         if (divider == 0u)
 743              		.loc 1 877 0
 744 002e 3CB9     		cbnz	r4, .L88
 878:.\Generated_Source\PSoC5/CyLib.c ****         {
 879:.\Generated_Source\PSoC5/CyLib.c ****             /* Set SSS bit and divider register desired value */
 880:.\Generated_Source\PSoC5/CyLib.c ****             CY_LIB_CLKDIST_BCFG2_REG |= CY_LIB_CLKDIST_BCFG2_SSS;
 745              		.loc 1 880 0
 746 0030 2B78     		ldrb	r3, [r5]	@ zero_extendqisi2
 881:.\Generated_Source\PSoC5/CyLib.c ****             CyBusClk_Internal_SetDivider(divider);
 747              		.loc 1 881 0
 748 0032 2046     		mov	r0, r4
 749              	.LVL36:
 880:.\Generated_Source\PSoC5/CyLib.c ****             CY_LIB_CLKDIST_BCFG2_REG |= CY_LIB_CLKDIST_BCFG2_SSS;
 750              		.loc 1 880 0
 751 0034 43F04003 		orr	r3, r3, #64
 752 0038 2B70     		strb	r3, [r5]
 753              		.loc 1 881 0
ARM GAS  C:\Users\Yiquing\AppData\Local\Temp\ccsAoMV1.s 			page 31


 754 003a FFF7FEFF 		bl	CyBusClk_Internal_SetDivider
 755              	.LVL37:
 756 003e 06E0     		b	.L89
 757              	.LVL38:
 758              	.L88:
 882:.\Generated_Source\PSoC5/CyLib.c ****         }
 883:.\Generated_Source\PSoC5/CyLib.c ****         else
 884:.\Generated_Source\PSoC5/CyLib.c ****         {
 885:.\Generated_Source\PSoC5/CyLib.c ****             CyBusClk_Internal_SetDivider(divider);
 759              		.loc 1 885 0
 760 0040 2046     		mov	r0, r4
 761              	.LVL39:
 762 0042 FFF7FEFF 		bl	CyBusClk_Internal_SetDivider
 763              	.LVL40:
 886:.\Generated_Source\PSoC5/CyLib.c ****             CY_LIB_CLKDIST_BCFG2_REG &= ((uint8)(~CY_LIB_CLKDIST_BCFG2_SSS));
 764              		.loc 1 886 0
 765 0046 2B78     		ldrb	r3, [r5]	@ zero_extendqisi2
 766 0048 03F0BF03 		and	r3, r3, #191
 767 004c 2B70     		strb	r3, [r5]
 768              	.L89:
 769              	.LVL41:
 770              	.LBB18:
 771              	.LBB19:
 787:.\Generated_Source\PSoC5/CyLib.c ****     CY_LIB_CLKDIST_MSTR0_REG = divider;
 772              		.loc 1 787 0
 773 004e 064B     		ldr	r3, .L94+4
 774 0050 1E70     		strb	r6, [r3]
 775 0052 02E0     		b	.L90
 776              	.LVL42:
 777              	.L86:
 778              	.LBE19:
 779              	.LBE18:
 887:.\Generated_Source\PSoC5/CyLib.c ****         }
 888:.\Generated_Source\PSoC5/CyLib.c **** 
 889:.\Generated_Source\PSoC5/CyLib.c ****         /* Restore master clock */
 890:.\Generated_Source\PSoC5/CyLib.c ****         CyMasterClk_SetDivider(masterClkDiv);
 891:.\Generated_Source\PSoC5/CyLib.c ****     }
 892:.\Generated_Source\PSoC5/CyLib.c ****     else
 893:.\Generated_Source\PSoC5/CyLib.c ****     {
 894:.\Generated_Source\PSoC5/CyLib.c ****         CyBusClk_Internal_SetDivider(divider);
 780              		.loc 1 894 0
 781 0054 2046     		mov	r0, r4
 782              	.LVL43:
 783 0056 FFF7FEFF 		bl	CyBusClk_Internal_SetDivider
 784              	.LVL44:
 785              	.L90:
 895:.\Generated_Source\PSoC5/CyLib.c ****     }
 896:.\Generated_Source\PSoC5/CyLib.c **** 
 897:.\Generated_Source\PSoC5/CyLib.c ****     CyExitCriticalSection(interruptState);
 786              		.loc 1 897 0
 787 005a 3846     		mov	r0, r7
 898:.\Generated_Source\PSoC5/CyLib.c **** }
 788              		.loc 1 898 0
 789 005c BDE8F840 		pop	{r3, r4, r5, r6, r7, lr}
 790              	.LVL45:
 897:.\Generated_Source\PSoC5/CyLib.c ****     CyExitCriticalSection(interruptState);
 791              		.loc 1 897 0
ARM GAS  C:\Users\Yiquing\AppData\Local\Temp\ccsAoMV1.s 			page 32


 792 0060 FFF7FEBF 		b	CyExitCriticalSection
 793              	.LVL46:
 794              	.L95:
 795              		.align	2
 796              	.L94:
 797 0064 07400040 		.word	1073758215
 798 0068 04400040 		.word	1073758212
 799 006c 08400040 		.word	1073758216
 800              		.cfi_endproc
 801              	.LFE15:
 802              		.size	CyBusClk_SetDivider, .-CyBusClk_SetDivider
 803              		.section	.text.CyUsbClk_SetSource,"ax",%progbits
 804              		.align	1
 805              		.global	CyUsbClk_SetSource
 806              		.thumb
 807              		.thumb_func
 808              		.type	CyUsbClk_SetSource, %function
 809              	CyUsbClk_SetSource:
 810              	.LFB16:
 899:.\Generated_Source\PSoC5/CyLib.c **** 
 900:.\Generated_Source\PSoC5/CyLib.c **** 
 901:.\Generated_Source\PSoC5/CyLib.c **** #if(CY_PSOC3)
 902:.\Generated_Source\PSoC5/CyLib.c **** 
 903:.\Generated_Source\PSoC5/CyLib.c ****     /*******************************************************************************
 904:.\Generated_Source\PSoC5/CyLib.c ****     * Function Name: CyCpuClk_SetDivider
 905:.\Generated_Source\PSoC5/CyLib.c ****     ********************************************************************************
 906:.\Generated_Source\PSoC5/CyLib.c ****     *
 907:.\Generated_Source\PSoC5/CyLib.c ****     * Summary:
 908:.\Generated_Source\PSoC5/CyLib.c ****     *  Sets the divider value used to generate the CPU Clock. Only applicable for
 909:.\Generated_Source\PSoC5/CyLib.c ****     *  PSoC 3 parts.
 910:.\Generated_Source\PSoC5/CyLib.c ****     *
 911:.\Generated_Source\PSoC5/CyLib.c ****     * Parameters:
 912:.\Generated_Source\PSoC5/CyLib.c ****     *  divider: Valid range [0-15]. The clock will be divided by this value + 1.
 913:.\Generated_Source\PSoC5/CyLib.c ****     *  For example, to divide this parameter by two should be set to 1.
 914:.\Generated_Source\PSoC5/CyLib.c ****     *
 915:.\Generated_Source\PSoC5/CyLib.c ****     * Return:
 916:.\Generated_Source\PSoC5/CyLib.c ****     *  None
 917:.\Generated_Source\PSoC5/CyLib.c ****     *
 918:.\Generated_Source\PSoC5/CyLib.c ****     * Side Effects:
 919:.\Generated_Source\PSoC5/CyLib.c ****     *  If this function execution resulted in the CPU clock frequency increasing,
 920:.\Generated_Source\PSoC5/CyLib.c ****     *  then the number of clock cycles the cache will wait before it samples data
 921:.\Generated_Source\PSoC5/CyLib.c ****     *  coming back from the Flash must be adjusted by calling
 922:.\Generated_Source\PSoC5/CyLib.c ****     *  CyFlash_SetWaitCycles() with an appropriate parameter. It can be optionally
 923:.\Generated_Source\PSoC5/CyLib.c ****     *  called if the CPU clock frequency is lowered in order to improve the CPU
 924:.\Generated_Source\PSoC5/CyLib.c ****     *  performance. See CyFlash_SetWaitCycles() description for more information.
 925:.\Generated_Source\PSoC5/CyLib.c ****     *
 926:.\Generated_Source\PSoC5/CyLib.c ****     *******************************************************************************/
 927:.\Generated_Source\PSoC5/CyLib.c ****     void CyCpuClk_SetDivider(uint8 divider) 
 928:.\Generated_Source\PSoC5/CyLib.c ****     {
 929:.\Generated_Source\PSoC5/CyLib.c ****             CY_LIB_CLKDIST_MSTR1_REG = (CY_LIB_CLKDIST_MSTR1_REG & CY_LIB_CLKDIST_MSTR1_DIV_MASK) |
 930:.\Generated_Source\PSoC5/CyLib.c ****                                 ((uint8)(divider << CY_LIB_CLKDIST_DIV_POSITION));
 931:.\Generated_Source\PSoC5/CyLib.c ****     }
 932:.\Generated_Source\PSoC5/CyLib.c **** 
 933:.\Generated_Source\PSoC5/CyLib.c **** #endif /* (CY_PSOC3) */
 934:.\Generated_Source\PSoC5/CyLib.c **** 
 935:.\Generated_Source\PSoC5/CyLib.c **** 
 936:.\Generated_Source\PSoC5/CyLib.c **** /*******************************************************************************
ARM GAS  C:\Users\Yiquing\AppData\Local\Temp\ccsAoMV1.s 			page 33


 937:.\Generated_Source\PSoC5/CyLib.c **** * Function Name: CyUsbClk_SetSource
 938:.\Generated_Source\PSoC5/CyLib.c **** ********************************************************************************
 939:.\Generated_Source\PSoC5/CyLib.c **** *
 940:.\Generated_Source\PSoC5/CyLib.c **** * Summary:
 941:.\Generated_Source\PSoC5/CyLib.c **** *  Sets the source of the USB clock.
 942:.\Generated_Source\PSoC5/CyLib.c **** *
 943:.\Generated_Source\PSoC5/CyLib.c **** * Parameters:
 944:.\Generated_Source\PSoC5/CyLib.c **** *  source: One of the four available USB clock sources
 945:.\Generated_Source\PSoC5/CyLib.c **** *    CY_LIB_USB_CLK_IMO2X     - IMO 2x
 946:.\Generated_Source\PSoC5/CyLib.c **** *    CY_LIB_USB_CLK_IMO       - IMO
 947:.\Generated_Source\PSoC5/CyLib.c **** *    CY_LIB_USB_CLK_PLL       - PLL
 948:.\Generated_Source\PSoC5/CyLib.c **** *    CY_LIB_USB_CLK_DSI       - DSI
 949:.\Generated_Source\PSoC5/CyLib.c **** *
 950:.\Generated_Source\PSoC5/CyLib.c **** * Return:
 951:.\Generated_Source\PSoC5/CyLib.c **** *  None
 952:.\Generated_Source\PSoC5/CyLib.c **** *
 953:.\Generated_Source\PSoC5/CyLib.c **** *******************************************************************************/
 954:.\Generated_Source\PSoC5/CyLib.c **** void CyUsbClk_SetSource(uint8 source) 
 955:.\Generated_Source\PSoC5/CyLib.c **** {
 811              		.loc 1 955 0
 812              		.cfi_startproc
 813              		@ args = 0, pretend = 0, frame = 0
 814              		@ frame_needed = 0, uses_anonymous_args = 0
 815              		@ link register save eliminated.
 816              	.LVL47:
 956:.\Generated_Source\PSoC5/CyLib.c ****     CY_LIB_CLKDIST_UCFG_REG = (CY_LIB_CLKDIST_UCFG_REG & ((uint8)(~CY_LIB_CLKDIST_UCFG_SRC_SEL_MASK
 817              		.loc 1 956 0
 818 0000 044B     		ldr	r3, .L97
 819 0002 00F00300 		and	r0, r0, #3
 820              	.LVL48:
 821 0006 1A78     		ldrb	r2, [r3]	@ zero_extendqisi2
 822 0008 02F0FC02 		and	r2, r2, #252
 823 000c 0243     		orrs	r2, r2, r0
 824 000e 1A70     		strb	r2, [r3]
 825 0010 7047     		bx	lr
 826              	.L98:
 827 0012 00BF     		.align	2
 828              	.L97:
 829 0014 09400040 		.word	1073758217
 830              		.cfi_endproc
 831              	.LFE16:
 832              		.size	CyUsbClk_SetSource, .-CyUsbClk_SetSource
 833              		.section	.text.CyILO_Start1K,"ax",%progbits
 834              		.align	1
 835              		.global	CyILO_Start1K
 836              		.thumb
 837              		.thumb_func
 838              		.type	CyILO_Start1K, %function
 839              	CyILO_Start1K:
 840              	.LFB17:
 957:.\Generated_Source\PSoC5/CyLib.c ****                         (CY_LIB_CLKDIST_UCFG_SRC_SEL_MASK & source);
 958:.\Generated_Source\PSoC5/CyLib.c **** }
 959:.\Generated_Source\PSoC5/CyLib.c **** 
 960:.\Generated_Source\PSoC5/CyLib.c **** 
 961:.\Generated_Source\PSoC5/CyLib.c **** /*******************************************************************************
 962:.\Generated_Source\PSoC5/CyLib.c **** * Function Name: CyILO_Start1K
 963:.\Generated_Source\PSoC5/CyLib.c **** ********************************************************************************
ARM GAS  C:\Users\Yiquing\AppData\Local\Temp\ccsAoMV1.s 			page 34


 964:.\Generated_Source\PSoC5/CyLib.c **** *
 965:.\Generated_Source\PSoC5/CyLib.c **** * Summary:
 966:.\Generated_Source\PSoC5/CyLib.c **** *  Enables the ILO 1 KHz oscillator.
 967:.\Generated_Source\PSoC5/CyLib.c **** *
 968:.\Generated_Source\PSoC5/CyLib.c **** *  Note The ILO 1 KHz oscillator is always enabled by default, regardless of the
 969:.\Generated_Source\PSoC5/CyLib.c **** *  selection in the Clock Editor. Therefore, this API is only needed if the
 970:.\Generated_Source\PSoC5/CyLib.c **** *  oscillator was turned off manually.
 971:.\Generated_Source\PSoC5/CyLib.c **** *
 972:.\Generated_Source\PSoC5/CyLib.c **** * Parameters:
 973:.\Generated_Source\PSoC5/CyLib.c **** *  None
 974:.\Generated_Source\PSoC5/CyLib.c **** *
 975:.\Generated_Source\PSoC5/CyLib.c **** * Return:
 976:.\Generated_Source\PSoC5/CyLib.c **** *  None
 977:.\Generated_Source\PSoC5/CyLib.c **** *
 978:.\Generated_Source\PSoC5/CyLib.c **** *******************************************************************************/
 979:.\Generated_Source\PSoC5/CyLib.c **** void CyILO_Start1K(void) 
 980:.\Generated_Source\PSoC5/CyLib.c **** {
 841              		.loc 1 980 0
 842              		.cfi_startproc
 843              		@ args = 0, pretend = 0, frame = 0
 844              		@ frame_needed = 0, uses_anonymous_args = 0
 845              		@ link register save eliminated.
 981:.\Generated_Source\PSoC5/CyLib.c ****     /* Set bit 1 of ILO RS */
 982:.\Generated_Source\PSoC5/CyLib.c ****     CY_LIB_SLOWCLK_ILO_CR0_REG |= CY_LIB_SLOWCLK_ILO_CR0_EN_1KHZ;
 846              		.loc 1 982 0
 847 0000 024B     		ldr	r3, .L100
 848 0002 1A78     		ldrb	r2, [r3]	@ zero_extendqisi2
 849 0004 42F00202 		orr	r2, r2, #2
 850 0008 1A70     		strb	r2, [r3]
 851 000a 7047     		bx	lr
 852              	.L101:
 853              		.align	2
 854              	.L100:
 855 000c 00430040 		.word	1073758976
 856              		.cfi_endproc
 857              	.LFE17:
 858              		.size	CyILO_Start1K, .-CyILO_Start1K
 859              		.section	.text.CyILO_Stop1K,"ax",%progbits
 860              		.align	1
 861              		.global	CyILO_Stop1K
 862              		.thumb
 863              		.thumb_func
 864              		.type	CyILO_Stop1K, %function
 865              	CyILO_Stop1K:
 866              	.LFB18:
 983:.\Generated_Source\PSoC5/CyLib.c **** }
 984:.\Generated_Source\PSoC5/CyLib.c **** 
 985:.\Generated_Source\PSoC5/CyLib.c **** 
 986:.\Generated_Source\PSoC5/CyLib.c **** /*******************************************************************************
 987:.\Generated_Source\PSoC5/CyLib.c **** * Function Name: CyILO_Stop1K
 988:.\Generated_Source\PSoC5/CyLib.c **** ********************************************************************************
 989:.\Generated_Source\PSoC5/CyLib.c **** *
 990:.\Generated_Source\PSoC5/CyLib.c **** * Summary:
 991:.\Generated_Source\PSoC5/CyLib.c **** *  Disables the ILO 1 KHz oscillator.
 992:.\Generated_Source\PSoC5/CyLib.c **** *
 993:.\Generated_Source\PSoC5/CyLib.c **** *  Note The ILO 1 KHz oscillator must be enabled if the Sleep or Hibernate low
 994:.\Generated_Source\PSoC5/CyLib.c **** *  power mode APIs are expected to be used. For more information, refer to the
ARM GAS  C:\Users\Yiquing\AppData\Local\Temp\ccsAoMV1.s 			page 35


 995:.\Generated_Source\PSoC5/CyLib.c **** *  Power Management section of this document.
 996:.\Generated_Source\PSoC5/CyLib.c **** *
 997:.\Generated_Source\PSoC5/CyLib.c **** * Parameters:
 998:.\Generated_Source\PSoC5/CyLib.c **** *  None
 999:.\Generated_Source\PSoC5/CyLib.c **** *
1000:.\Generated_Source\PSoC5/CyLib.c **** * Return:
1001:.\Generated_Source\PSoC5/CyLib.c **** *  None
1002:.\Generated_Source\PSoC5/CyLib.c **** *
1003:.\Generated_Source\PSoC5/CyLib.c **** * Side Effects:
1004:.\Generated_Source\PSoC5/CyLib.c **** *  PSoC5: Stopping the ILO 1 kHz could break the active WDT functionality.
1005:.\Generated_Source\PSoC5/CyLib.c **** *
1006:.\Generated_Source\PSoC5/CyLib.c **** *******************************************************************************/
1007:.\Generated_Source\PSoC5/CyLib.c **** void CyILO_Stop1K(void) 
1008:.\Generated_Source\PSoC5/CyLib.c **** {
 867              		.loc 1 1008 0
 868              		.cfi_startproc
 869              		@ args = 0, pretend = 0, frame = 0
 870              		@ frame_needed = 0, uses_anonymous_args = 0
 871              		@ link register save eliminated.
1009:.\Generated_Source\PSoC5/CyLib.c ****     /* Clear bit 1 of ILO RS */
1010:.\Generated_Source\PSoC5/CyLib.c ****     CY_LIB_SLOWCLK_ILO_CR0_REG &= ((uint8)(~CY_LIB_SLOWCLK_ILO_CR0_EN_1KHZ));
 872              		.loc 1 1010 0
 873 0000 024B     		ldr	r3, .L103
 874 0002 1A78     		ldrb	r2, [r3]	@ zero_extendqisi2
 875 0004 02F0FD02 		and	r2, r2, #253
 876 0008 1A70     		strb	r2, [r3]
 877 000a 7047     		bx	lr
 878              	.L104:
 879              		.align	2
 880              	.L103:
 881 000c 00430040 		.word	1073758976
 882              		.cfi_endproc
 883              	.LFE18:
 884              		.size	CyILO_Stop1K, .-CyILO_Stop1K
 885              		.section	.text.CyILO_Start100K,"ax",%progbits
 886              		.align	1
 887              		.global	CyILO_Start100K
 888              		.thumb
 889              		.thumb_func
 890              		.type	CyILO_Start100K, %function
 891              	CyILO_Start100K:
 892              	.LFB19:
1011:.\Generated_Source\PSoC5/CyLib.c **** }
1012:.\Generated_Source\PSoC5/CyLib.c **** 
1013:.\Generated_Source\PSoC5/CyLib.c **** 
1014:.\Generated_Source\PSoC5/CyLib.c **** /*******************************************************************************
1015:.\Generated_Source\PSoC5/CyLib.c **** * Function Name: CyILO_Start100K
1016:.\Generated_Source\PSoC5/CyLib.c **** ********************************************************************************
1017:.\Generated_Source\PSoC5/CyLib.c **** *
1018:.\Generated_Source\PSoC5/CyLib.c **** * Summary:
1019:.\Generated_Source\PSoC5/CyLib.c **** *  Enables the ILO 100 KHz oscillator.
1020:.\Generated_Source\PSoC5/CyLib.c **** *
1021:.\Generated_Source\PSoC5/CyLib.c **** * Parameters:
1022:.\Generated_Source\PSoC5/CyLib.c **** *  None
1023:.\Generated_Source\PSoC5/CyLib.c **** *
1024:.\Generated_Source\PSoC5/CyLib.c **** * Return:
1025:.\Generated_Source\PSoC5/CyLib.c **** *  None
ARM GAS  C:\Users\Yiquing\AppData\Local\Temp\ccsAoMV1.s 			page 36


1026:.\Generated_Source\PSoC5/CyLib.c **** *
1027:.\Generated_Source\PSoC5/CyLib.c **** *******************************************************************************/
1028:.\Generated_Source\PSoC5/CyLib.c **** void CyILO_Start100K(void) 
1029:.\Generated_Source\PSoC5/CyLib.c **** {
 893              		.loc 1 1029 0
 894              		.cfi_startproc
 895              		@ args = 0, pretend = 0, frame = 0
 896              		@ frame_needed = 0, uses_anonymous_args = 0
 897              		@ link register save eliminated.
1030:.\Generated_Source\PSoC5/CyLib.c ****     CY_LIB_SLOWCLK_ILO_CR0_REG |= CY_LIB_SLOWCLK_ILO_CR0_EN_100KHZ;
 898              		.loc 1 1030 0
 899 0000 024B     		ldr	r3, .L106
 900 0002 1A78     		ldrb	r2, [r3]	@ zero_extendqisi2
 901 0004 42F00402 		orr	r2, r2, #4
 902 0008 1A70     		strb	r2, [r3]
 903 000a 7047     		bx	lr
 904              	.L107:
 905              		.align	2
 906              	.L106:
 907 000c 00430040 		.word	1073758976
 908              		.cfi_endproc
 909              	.LFE19:
 910              		.size	CyILO_Start100K, .-CyILO_Start100K
 911              		.section	.text.CyILO_Stop100K,"ax",%progbits
 912              		.align	1
 913              		.global	CyILO_Stop100K
 914              		.thumb
 915              		.thumb_func
 916              		.type	CyILO_Stop100K, %function
 917              	CyILO_Stop100K:
 918              	.LFB20:
1031:.\Generated_Source\PSoC5/CyLib.c **** }
1032:.\Generated_Source\PSoC5/CyLib.c **** 
1033:.\Generated_Source\PSoC5/CyLib.c **** 
1034:.\Generated_Source\PSoC5/CyLib.c **** /*******************************************************************************
1035:.\Generated_Source\PSoC5/CyLib.c **** * Function Name: CyILO_Stop100K
1036:.\Generated_Source\PSoC5/CyLib.c **** ********************************************************************************
1037:.\Generated_Source\PSoC5/CyLib.c **** *
1038:.\Generated_Source\PSoC5/CyLib.c **** * Summary:
1039:.\Generated_Source\PSoC5/CyLib.c **** *  Disables the ILO 100 KHz oscillator.
1040:.\Generated_Source\PSoC5/CyLib.c **** *
1041:.\Generated_Source\PSoC5/CyLib.c **** * Parameters:
1042:.\Generated_Source\PSoC5/CyLib.c **** *  None
1043:.\Generated_Source\PSoC5/CyLib.c **** *
1044:.\Generated_Source\PSoC5/CyLib.c **** * Return:
1045:.\Generated_Source\PSoC5/CyLib.c **** *  None
1046:.\Generated_Source\PSoC5/CyLib.c **** *
1047:.\Generated_Source\PSoC5/CyLib.c **** *******************************************************************************/
1048:.\Generated_Source\PSoC5/CyLib.c **** void CyILO_Stop100K(void) 
1049:.\Generated_Source\PSoC5/CyLib.c **** {
 919              		.loc 1 1049 0
 920              		.cfi_startproc
 921              		@ args = 0, pretend = 0, frame = 0
 922              		@ frame_needed = 0, uses_anonymous_args = 0
 923              		@ link register save eliminated.
1050:.\Generated_Source\PSoC5/CyLib.c ****     CY_LIB_SLOWCLK_ILO_CR0_REG &= ((uint8)(~CY_LIB_SLOWCLK_ILO_CR0_EN_100KHZ));
 924              		.loc 1 1050 0
ARM GAS  C:\Users\Yiquing\AppData\Local\Temp\ccsAoMV1.s 			page 37


 925 0000 024B     		ldr	r3, .L109
 926 0002 1A78     		ldrb	r2, [r3]	@ zero_extendqisi2
 927 0004 02F0FB02 		and	r2, r2, #251
 928 0008 1A70     		strb	r2, [r3]
 929 000a 7047     		bx	lr
 930              	.L110:
 931              		.align	2
 932              	.L109:
 933 000c 00430040 		.word	1073758976
 934              		.cfi_endproc
 935              	.LFE20:
 936              		.size	CyILO_Stop100K, .-CyILO_Stop100K
 937              		.section	.text.CyPLL_OUT_Start,"ax",%progbits
 938              		.align	1
 939              		.global	CyPLL_OUT_Start
 940              		.thumb
 941              		.thumb_func
 942              		.type	CyPLL_OUT_Start, %function
 943              	CyPLL_OUT_Start:
 944              	.LFB0:
  96:.\Generated_Source\PSoC5/CyLib.c **** {
 945              		.loc 1 96 0
 946              		.cfi_startproc
 947              		@ args = 0, pretend = 0, frame = 0
 948              		@ frame_needed = 0, uses_anonymous_args = 0
 949              	.LVL49:
 950 0000 2DE9F041 		push	{r4, r5, r6, r7, r8, lr}
 951              		.cfi_def_cfa_offset 24
 952              		.cfi_offset 4, -24
 953              		.cfi_offset 5, -20
 954              		.cfi_offset 6, -16
 955              		.cfi_offset 7, -12
 956              		.cfi_offset 8, -8
 957              		.cfi_offset 14, -4
 105:.\Generated_Source\PSoC5/CyLib.c ****     CY_CLK_PLL_CFG0_REG |= CY_CLK_PLL_ENABLE;
 958              		.loc 1 105 0
 959 0004 194B     		ldr	r3, .L124
 960 0006 1A78     		ldrb	r2, [r3]	@ zero_extendqisi2
 961 0008 42F00102 		orr	r2, r2, #1
 962 000c 1A70     		strb	r2, [r3]
 107:.\Generated_Source\PSoC5/CyLib.c ****     if(wait != 0u)
 963              		.loc 1 107 0
 964 000e 40B3     		cbz	r0, .L118
 112:.\Generated_Source\PSoC5/CyLib.c ****         pmTwCfg2State = CY_LIB_PM_TW_CFG2_REG;
 965              		.loc 1 112 0
 966 0010 174C     		ldr	r4, .L124+4
 114:.\Generated_Source\PSoC5/CyLib.c ****         CyPmFtwSetInterval(CY_CLK_PLL_FTW_INTERVAL);
 967              		.loc 1 114 0
 968 0012 1820     		movs	r0, #24
 969              	.LVL50:
 110:.\Generated_Source\PSoC5/CyLib.c ****         iloEnableState = CY_LIB_SLOWCLK_ILO_CR0_REG & CY_LIB_SLOWCLK_ILO_CR0_EN_100KHZ;
 970              		.loc 1 110 0
 971 0014 93F8E080 		ldrb	r8, [r3, #224]	@ zero_extendqisi2
 111:.\Generated_Source\PSoC5/CyLib.c ****         pmTwCfg0State = CY_LIB_PM_TW_CFG0_REG;
 972              		.loc 1 111 0
 973 0018 93F86071 		ldrb	r7, [r3, #352]	@ zero_extendqisi2
 112:.\Generated_Source\PSoC5/CyLib.c ****         pmTwCfg2State = CY_LIB_PM_TW_CFG2_REG;
ARM GAS  C:\Users\Yiquing\AppData\Local\Temp\ccsAoMV1.s 			page 38


 974              		.loc 1 112 0
 975 001c 2678     		ldrb	r6, [r4]	@ zero_extendqisi2
 114:.\Generated_Source\PSoC5/CyLib.c ****         CyPmFtwSetInterval(CY_CLK_PLL_FTW_INTERVAL);
 976              		.loc 1 114 0
 977 001e FFF7FEFF 		bl	CyPmFtwSetInterval
 978              	.LVL51:
 110:.\Generated_Source\PSoC5/CyLib.c ****         iloEnableState = CY_LIB_SLOWCLK_ILO_CR0_REG & CY_LIB_SLOWCLK_ILO_CR0_EN_100KHZ;
 979              		.loc 1 110 0
 980 0022 08F00408 		and	r8, r8, #4
 981 0026 5FFA88F8 		uxtb	r8, r8
 982              	.LVL52:
 111:.\Generated_Source\PSoC5/CyLib.c ****         pmTwCfg0State = CY_LIB_PM_TW_CFG0_REG;
 983              		.loc 1 111 0
 984 002a FFB2     		uxtb	r7, r7
 985              	.LVL53:
 112:.\Generated_Source\PSoC5/CyLib.c ****         pmTwCfg2State = CY_LIB_PM_TW_CFG2_REG;
 986              		.loc 1 112 0
 987 002c F6B2     		uxtb	r6, r6
 988              	.LVL54:
 989 002e 2546     		mov	r5, r4
 990              	.L113:
 118:.\Generated_Source\PSoC5/CyLib.c ****         while(0u == (CY_PM_FTW_INT & CyPmReadStatus(CY_PM_FTW_INT)))
 991              		.loc 1 118 0 discriminator 1
 992 0030 0120     		movs	r0, #1
 993 0032 FFF7FEFF 		bl	CyPmReadStatus
 994              	.LVL55:
 995 0036 10F00100 		ands	r0, r0, #1
 996 003a 08D1     		bne	.L123
 121:.\Generated_Source\PSoC5/CyLib.c ****             if(0u != (CY_CLK_PLL_SR_REG & CY_CLK_PLL_LOCK_STATUS))
 997              		.loc 1 121 0
 998 003c 0D4B     		ldr	r3, .L124+8
 999 003e 1A78     		ldrb	r2, [r3]	@ zero_extendqisi2
 1000 0040 D207     		lsls	r2, r2, #31
 1001 0042 F5D5     		bpl	.L113
 123:.\Generated_Source\PSoC5/CyLib.c ****                 if(0u != (CY_CLK_PLL_SR_REG & CY_CLK_PLL_LOCK_STATUS))
 1002              		.loc 1 123 0
 1003 0044 1B78     		ldrb	r3, [r3]	@ zero_extendqisi2
 1004 0046 DB07     		lsls	r3, r3, #31
 1005 0048 F2D5     		bpl	.L113
 125:.\Generated_Source\PSoC5/CyLib.c ****                     status = CYRET_SUCCESS;
 1006              		.loc 1 125 0
 1007 004a 0446     		mov	r4, r0
 1008 004c 00E0     		b	.L115
 1009              	.L123:
 116:.\Generated_Source\PSoC5/CyLib.c ****         status = CYRET_TIMEOUT;
 1010              		.loc 1 116 0
 1011 004e 1024     		movs	r4, #16
 1012              	.L115:
 1013              	.LVL56:
 132:.\Generated_Source\PSoC5/CyLib.c ****         if(0u == iloEnableState)
 1014              		.loc 1 132 0
 1015 0050 B8F1000F 		cmp	r8, #0
 1016 0054 01D1     		bne	.L117
 134:.\Generated_Source\PSoC5/CyLib.c ****             CyILO_Stop100K();
 1017              		.loc 1 134 0
 1018 0056 FFF7FEFF 		bl	CyILO_Stop100K
 1019              	.LVL57:
ARM GAS  C:\Users\Yiquing\AppData\Local\Temp\ccsAoMV1.s 			page 39


 1020              	.L117:
 137:.\Generated_Source\PSoC5/CyLib.c ****         CY_LIB_PM_TW_CFG0_REG = pmTwCfg0State;
 1021              		.loc 1 137 0
 1022 005a 074B     		ldr	r3, .L124+12
 1023 005c 1F70     		strb	r7, [r3]
 138:.\Generated_Source\PSoC5/CyLib.c ****         CY_LIB_PM_TW_CFG2_REG = pmTwCfg2State;
 1024              		.loc 1 138 0
 1025 005e 2E70     		strb	r6, [r5]
 1026 0060 00E0     		b	.L112
 1027              	.LVL58:
 1028              	.L118:
  97:.\Generated_Source\PSoC5/CyLib.c ****     cystatus status = CYRET_SUCCESS;
 1029              		.loc 1 97 0
 1030 0062 0446     		mov	r4, r0
 1031              	.LVL59:
 1032              	.L112:
 142:.\Generated_Source\PSoC5/CyLib.c **** }
 1033              		.loc 1 142 0
 1034 0064 2046     		mov	r0, r4
 1035 0066 BDE8F081 		pop	{r4, r5, r6, r7, r8, pc}
 1036              	.LVL60:
 1037              	.L125:
 1038 006a 00BF     		.align	2
 1039              	.L124:
 1040 006c 20420040 		.word	1073758752
 1041 0070 82430040 		.word	1073759106
 1042 0074 25420040 		.word	1073758757
 1043 0078 80430040 		.word	1073759104
 1044              		.cfi_endproc
 1045              	.LFE0:
 1046              		.size	CyPLL_OUT_Start, .-CyPLL_OUT_Start
 1047              		.section	.text.CyIMO_Start,"ax",%progbits
 1048              		.align	1
 1049              		.global	CyIMO_Start
 1050              		.thumb
 1051              		.thumb_func
 1052              		.type	CyIMO_Start, %function
 1053              	CyIMO_Start:
 1054              	.LFB4:
 303:.\Generated_Source\PSoC5/CyLib.c **** {
 1055              		.loc 1 303 0
 1056              		.cfi_startproc
 1057              		@ args = 0, pretend = 0, frame = 0
 1058              		@ frame_needed = 0, uses_anonymous_args = 0
 1059              	.LVL61:
 1060 0000 F8B5     		push	{r3, r4, r5, r6, r7, lr}
 1061              		.cfi_def_cfa_offset 24
 1062              		.cfi_offset 3, -24
 1063              		.cfi_offset 4, -20
 1064              		.cfi_offset 5, -16
 1065              		.cfi_offset 6, -12
 1066              		.cfi_offset 7, -8
 1067              		.cfi_offset 14, -4
 309:.\Generated_Source\PSoC5/CyLib.c ****     CY_LIB_PM_ACT_CFG0_REG  |= CY_LIB_PM_ACT_CFG0_IMO_EN;
 1068              		.loc 1 309 0
 1069 0002 134B     		ldr	r3, .L134
 1070 0004 1A78     		ldrb	r2, [r3]	@ zero_extendqisi2
ARM GAS  C:\Users\Yiquing\AppData\Local\Temp\ccsAoMV1.s 			page 40


 310:.\Generated_Source\PSoC5/CyLib.c ****     CY_LIB_PM_STBY_CFG0_REG |= CY_LIB_PM_STBY_CFG0_IMO_EN;
 1071              		.loc 1 310 0
 1072 0006 1033     		adds	r3, r3, #16
 309:.\Generated_Source\PSoC5/CyLib.c ****     CY_LIB_PM_ACT_CFG0_REG  |= CY_LIB_PM_ACT_CFG0_IMO_EN;
 1073              		.loc 1 309 0
 1074 0008 42F01002 		orr	r2, r2, #16
 1075 000c 03F8102C 		strb	r2, [r3, #-16]
 310:.\Generated_Source\PSoC5/CyLib.c ****     CY_LIB_PM_STBY_CFG0_REG |= CY_LIB_PM_STBY_CFG0_IMO_EN;
 1076              		.loc 1 310 0
 1077 0010 1A78     		ldrb	r2, [r3]	@ zero_extendqisi2
 1078 0012 42F01002 		orr	r2, r2, #16
 1079 0016 1A70     		strb	r2, [r3]
 312:.\Generated_Source\PSoC5/CyLib.c ****     if(0u != wait)
 1080              		.loc 1 312 0
 1081 0018 C0B1     		cbz	r0, .L126
 317:.\Generated_Source\PSoC5/CyLib.c ****         pmFtwCfg2Reg = CY_LIB_PM_TW_CFG2_REG;
 1082              		.loc 1 317 0
 1083 001a 0E4C     		ldr	r4, .L134+4
 315:.\Generated_Source\PSoC5/CyLib.c ****         ilo100KhzEnable = CY_LIB_SLOWCLK_ILO_CR0_REG & CY_LIB_SLOWCLK_ILO_CR0_EN_100KHZ;
 1084              		.loc 1 315 0
 1085 001c 13F8B07C 		ldrb	r7, [r3, #-176]	@ zero_extendqisi2
 316:.\Generated_Source\PSoC5/CyLib.c ****         pmFtwCfg0Reg = CY_LIB_PM_TW_CFG0_REG;
 1086              		.loc 1 316 0
 1087 0020 13F8306C 		ldrb	r6, [r3, #-48]	@ zero_extendqisi2
 317:.\Generated_Source\PSoC5/CyLib.c ****         pmFtwCfg2Reg = CY_LIB_PM_TW_CFG2_REG;
 1088              		.loc 1 317 0
 1089 0024 2578     		ldrb	r5, [r4]	@ zero_extendqisi2
 315:.\Generated_Source\PSoC5/CyLib.c ****         ilo100KhzEnable = CY_LIB_SLOWCLK_ILO_CR0_REG & CY_LIB_SLOWCLK_ILO_CR0_EN_100KHZ;
 1090              		.loc 1 315 0
 1091 0026 07F00407 		and	r7, r7, #4
 319:.\Generated_Source\PSoC5/CyLib.c ****         CyPmFtwSetInterval(CY_LIB_CLK_IMO_FTW_TIMEOUT);
 1092              		.loc 1 319 0
 1093 002a 0020     		movs	r0, #0
 1094              	.LVL62:
 315:.\Generated_Source\PSoC5/CyLib.c ****         ilo100KhzEnable = CY_LIB_SLOWCLK_ILO_CR0_REG & CY_LIB_SLOWCLK_ILO_CR0_EN_100KHZ;
 1095              		.loc 1 315 0
 1096 002c FFB2     		uxtb	r7, r7
 1097              	.LVL63:
 316:.\Generated_Source\PSoC5/CyLib.c ****         pmFtwCfg0Reg = CY_LIB_PM_TW_CFG0_REG;
 1098              		.loc 1 316 0
 1099 002e F6B2     		uxtb	r6, r6
 1100              	.LVL64:
 317:.\Generated_Source\PSoC5/CyLib.c ****         pmFtwCfg2Reg = CY_LIB_PM_TW_CFG2_REG;
 1101              		.loc 1 317 0
 1102 0030 EDB2     		uxtb	r5, r5
 1103              	.LVL65:
 319:.\Generated_Source\PSoC5/CyLib.c ****         CyPmFtwSetInterval(CY_LIB_CLK_IMO_FTW_TIMEOUT);
 1104              		.loc 1 319 0
 1105 0032 FFF7FEFF 		bl	CyPmFtwSetInterval
 1106              	.LVL66:
 1107              	.L129:
 321:.\Generated_Source\PSoC5/CyLib.c ****         while (0u == (CY_PM_FTW_INT & CyPmReadStatus(CY_PM_FTW_INT)))
 1108              		.loc 1 321 0 discriminator 1
 1109 0036 0120     		movs	r0, #1
 1110 0038 FFF7FEFF 		bl	CyPmReadStatus
 1111              	.LVL67:
 1112 003c C307     		lsls	r3, r0, #31
ARM GAS  C:\Users\Yiquing\AppData\Local\Temp\ccsAoMV1.s 			page 41


 1113 003e FAD5     		bpl	.L129
 326:.\Generated_Source\PSoC5/CyLib.c ****         if(0u == ilo100KhzEnable)
 1114              		.loc 1 326 0
 1115 0040 0FB9     		cbnz	r7, .L130
 328:.\Generated_Source\PSoC5/CyLib.c ****             CyILO_Stop100K();
 1116              		.loc 1 328 0
 1117 0042 FFF7FEFF 		bl	CyILO_Stop100K
 1118              	.LVL68:
 1119              	.L130:
 331:.\Generated_Source\PSoC5/CyLib.c ****         CY_LIB_PM_TW_CFG0_REG = pmFtwCfg0Reg;
 1120              		.loc 1 331 0
 1121 0046 044B     		ldr	r3, .L134+8
 1122 0048 1E70     		strb	r6, [r3]
 332:.\Generated_Source\PSoC5/CyLib.c ****         CY_LIB_PM_TW_CFG2_REG = pmFtwCfg2Reg;
 1123              		.loc 1 332 0
 1124 004a 2570     		strb	r5, [r4]
 1125              	.LVL69:
 1126              	.L126:
 1127 004c F8BD     		pop	{r3, r4, r5, r6, r7, pc}
 1128              	.L135:
 1129 004e 00BF     		.align	2
 1130              	.L134:
 1131 0050 A0430040 		.word	1073759136
 1132 0054 82430040 		.word	1073759106
 1133 0058 80430040 		.word	1073759104
 1134              		.cfi_endproc
 1135              	.LFE4:
 1136              		.size	CyIMO_Start, .-CyIMO_Start
 1137              		.section	.text.CyILO_Enable33K,"ax",%progbits
 1138              		.align	1
 1139              		.global	CyILO_Enable33K
 1140              		.thumb
 1141              		.thumb_func
 1142              		.type	CyILO_Enable33K, %function
 1143              	CyILO_Enable33K:
 1144              	.LFB21:
1051:.\Generated_Source\PSoC5/CyLib.c **** }
1052:.\Generated_Source\PSoC5/CyLib.c **** 
1053:.\Generated_Source\PSoC5/CyLib.c **** 
1054:.\Generated_Source\PSoC5/CyLib.c **** /*******************************************************************************
1055:.\Generated_Source\PSoC5/CyLib.c **** * Function Name: CyILO_Enable33K
1056:.\Generated_Source\PSoC5/CyLib.c **** ********************************************************************************
1057:.\Generated_Source\PSoC5/CyLib.c **** *
1058:.\Generated_Source\PSoC5/CyLib.c **** * Summary:
1059:.\Generated_Source\PSoC5/CyLib.c **** *  Enables the ILO 33 KHz divider.
1060:.\Generated_Source\PSoC5/CyLib.c **** *
1061:.\Generated_Source\PSoC5/CyLib.c **** *  Note that the 33 KHz clock is generated from the 100 KHz oscillator,
1062:.\Generated_Source\PSoC5/CyLib.c **** *  so it must also be running in order to generate the 33 KHz output.
1063:.\Generated_Source\PSoC5/CyLib.c **** *
1064:.\Generated_Source\PSoC5/CyLib.c **** * Parameters:
1065:.\Generated_Source\PSoC5/CyLib.c **** *  None
1066:.\Generated_Source\PSoC5/CyLib.c **** *
1067:.\Generated_Source\PSoC5/CyLib.c **** * Return:
1068:.\Generated_Source\PSoC5/CyLib.c **** *  None
1069:.\Generated_Source\PSoC5/CyLib.c **** *
1070:.\Generated_Source\PSoC5/CyLib.c **** *******************************************************************************/
1071:.\Generated_Source\PSoC5/CyLib.c **** void CyILO_Enable33K(void) 
ARM GAS  C:\Users\Yiquing\AppData\Local\Temp\ccsAoMV1.s 			page 42


1072:.\Generated_Source\PSoC5/CyLib.c **** {
 1145              		.loc 1 1072 0
 1146              		.cfi_startproc
 1147              		@ args = 0, pretend = 0, frame = 0
 1148              		@ frame_needed = 0, uses_anonymous_args = 0
 1149              		@ link register save eliminated.
1073:.\Generated_Source\PSoC5/CyLib.c ****     /* Set bit 5 of ILO RS */
1074:.\Generated_Source\PSoC5/CyLib.c ****     CY_LIB_SLOWCLK_ILO_CR0_REG |= CY_LIB_SLOWCLK_ILO_CR0_EN_33KHZ;
 1150              		.loc 1 1074 0
 1151 0000 024B     		ldr	r3, .L137
 1152 0002 1A78     		ldrb	r2, [r3]	@ zero_extendqisi2
 1153 0004 42F02002 		orr	r2, r2, #32
 1154 0008 1A70     		strb	r2, [r3]
 1155 000a 7047     		bx	lr
 1156              	.L138:
 1157              		.align	2
 1158              	.L137:
 1159 000c 00430040 		.word	1073758976
 1160              		.cfi_endproc
 1161              	.LFE21:
 1162              		.size	CyILO_Enable33K, .-CyILO_Enable33K
 1163              		.section	.text.CyILO_Disable33K,"ax",%progbits
 1164              		.align	1
 1165              		.global	CyILO_Disable33K
 1166              		.thumb
 1167              		.thumb_func
 1168              		.type	CyILO_Disable33K, %function
 1169              	CyILO_Disable33K:
 1170              	.LFB22:
1075:.\Generated_Source\PSoC5/CyLib.c **** }
1076:.\Generated_Source\PSoC5/CyLib.c **** 
1077:.\Generated_Source\PSoC5/CyLib.c **** 
1078:.\Generated_Source\PSoC5/CyLib.c **** /*******************************************************************************
1079:.\Generated_Source\PSoC5/CyLib.c **** * Function Name: CyILO_Disable33K
1080:.\Generated_Source\PSoC5/CyLib.c **** ********************************************************************************
1081:.\Generated_Source\PSoC5/CyLib.c **** *
1082:.\Generated_Source\PSoC5/CyLib.c **** * Summary:
1083:.\Generated_Source\PSoC5/CyLib.c **** *  Disables the ILO 33 KHz divider.
1084:.\Generated_Source\PSoC5/CyLib.c **** *
1085:.\Generated_Source\PSoC5/CyLib.c **** *  Note that the 33 KHz clock is generated from the 100 KHz oscillator, but this
1086:.\Generated_Source\PSoC5/CyLib.c **** *  API does not disable the 100 KHz clock.
1087:.\Generated_Source\PSoC5/CyLib.c **** *
1088:.\Generated_Source\PSoC5/CyLib.c **** * Parameters:
1089:.\Generated_Source\PSoC5/CyLib.c **** *  None
1090:.\Generated_Source\PSoC5/CyLib.c **** *
1091:.\Generated_Source\PSoC5/CyLib.c **** * Return:
1092:.\Generated_Source\PSoC5/CyLib.c **** *  None
1093:.\Generated_Source\PSoC5/CyLib.c **** *
1094:.\Generated_Source\PSoC5/CyLib.c **** *******************************************************************************/
1095:.\Generated_Source\PSoC5/CyLib.c **** void CyILO_Disable33K(void) 
1096:.\Generated_Source\PSoC5/CyLib.c **** {
 1171              		.loc 1 1096 0
 1172              		.cfi_startproc
 1173              		@ args = 0, pretend = 0, frame = 0
 1174              		@ frame_needed = 0, uses_anonymous_args = 0
 1175              		@ link register save eliminated.
1097:.\Generated_Source\PSoC5/CyLib.c ****     CY_LIB_SLOWCLK_ILO_CR0_REG &= ((uint8)(~CY_LIB_SLOWCLK_ILO_CR0_EN_33KHZ));
ARM GAS  C:\Users\Yiquing\AppData\Local\Temp\ccsAoMV1.s 			page 43


 1176              		.loc 1 1097 0
 1177 0000 024B     		ldr	r3, .L140
 1178 0002 1A78     		ldrb	r2, [r3]	@ zero_extendqisi2
 1179 0004 02F0DF02 		and	r2, r2, #223
 1180 0008 1A70     		strb	r2, [r3]
 1181 000a 7047     		bx	lr
 1182              	.L141:
 1183              		.align	2
 1184              	.L140:
 1185 000c 00430040 		.word	1073758976
 1186              		.cfi_endproc
 1187              	.LFE22:
 1188              		.size	CyILO_Disable33K, .-CyILO_Disable33K
 1189              		.section	.text.CyILO_SetSource,"ax",%progbits
 1190              		.align	1
 1191              		.global	CyILO_SetSource
 1192              		.thumb
 1193              		.thumb_func
 1194              		.type	CyILO_SetSource, %function
 1195              	CyILO_SetSource:
 1196              	.LFB23:
1098:.\Generated_Source\PSoC5/CyLib.c **** }
1099:.\Generated_Source\PSoC5/CyLib.c **** 
1100:.\Generated_Source\PSoC5/CyLib.c **** 
1101:.\Generated_Source\PSoC5/CyLib.c **** /*******************************************************************************
1102:.\Generated_Source\PSoC5/CyLib.c **** * Function Name: CyILO_SetSource
1103:.\Generated_Source\PSoC5/CyLib.c **** ********************************************************************************
1104:.\Generated_Source\PSoC5/CyLib.c **** *
1105:.\Generated_Source\PSoC5/CyLib.c **** * Summary:
1106:.\Generated_Source\PSoC5/CyLib.c **** *  Sets the source of the clock output from the ILO block.
1107:.\Generated_Source\PSoC5/CyLib.c **** *
1108:.\Generated_Source\PSoC5/CyLib.c **** * Parameters:
1109:.\Generated_Source\PSoC5/CyLib.c **** *  source: One of the three available ILO output sources
1110:.\Generated_Source\PSoC5/CyLib.c **** *       Value        Define                Source
1111:.\Generated_Source\PSoC5/CyLib.c **** *       0            CY_ILO_SOURCE_100K    ILO 100 KHz
1112:.\Generated_Source\PSoC5/CyLib.c **** *       1            CY_ILO_SOURCE_33K     ILO 33 KHz
1113:.\Generated_Source\PSoC5/CyLib.c **** *       2            CY_ILO_SOURCE_1K      ILO 1 KHz
1114:.\Generated_Source\PSoC5/CyLib.c **** *
1115:.\Generated_Source\PSoC5/CyLib.c **** * Return:
1116:.\Generated_Source\PSoC5/CyLib.c **** *  None
1117:.\Generated_Source\PSoC5/CyLib.c **** *
1118:.\Generated_Source\PSoC5/CyLib.c **** *******************************************************************************/
1119:.\Generated_Source\PSoC5/CyLib.c **** void CyILO_SetSource(uint8 source) 
1120:.\Generated_Source\PSoC5/CyLib.c **** {
 1197              		.loc 1 1120 0
 1198              		.cfi_startproc
 1199              		@ args = 0, pretend = 0, frame = 0
 1200              		@ frame_needed = 0, uses_anonymous_args = 0
 1201              		@ link register save eliminated.
 1202              	.LVL70:
1121:.\Generated_Source\PSoC5/CyLib.c ****     CY_LIB_CLKDIST_CR_REG = (CY_LIB_CLKDIST_CR_REG & CY_ILO_SOURCE_BITS_CLEAR) |
 1203              		.loc 1 1121 0
 1204 0000 4FF04023 		mov	r3, #1073758208
 1205 0004 1A78     		ldrb	r2, [r3]	@ zero_extendqisi2
1122:.\Generated_Source\PSoC5/CyLib.c ****                     (((uint8) (source << 2u)) & ((uint8)(~CY_ILO_SOURCE_BITS_CLEAR)));
 1206              		.loc 1 1122 0
 1207 0006 8000     		lsls	r0, r0, #2
ARM GAS  C:\Users\Yiquing\AppData\Local\Temp\ccsAoMV1.s 			page 44


 1208              	.LVL71:
1121:.\Generated_Source\PSoC5/CyLib.c ****     CY_LIB_CLKDIST_CR_REG = (CY_LIB_CLKDIST_CR_REG & CY_ILO_SOURCE_BITS_CLEAR) |
 1209              		.loc 1 1121 0
 1210 0008 00F00C00 		and	r0, r0, #12
 1211 000c 02F0F302 		and	r2, r2, #243
 1212 0010 0243     		orrs	r2, r2, r0
 1213 0012 1A70     		strb	r2, [r3]
 1214 0014 7047     		bx	lr
 1215              		.cfi_endproc
 1216              	.LFE23:
 1217              		.size	CyILO_SetSource, .-CyILO_SetSource
 1218              		.section	.text.CyILO_SetPowerMode,"ax",%progbits
 1219              		.align	1
 1220              		.global	CyILO_SetPowerMode
 1221              		.thumb
 1222              		.thumb_func
 1223              		.type	CyILO_SetPowerMode, %function
 1224              	CyILO_SetPowerMode:
 1225              	.LFB24:
1123:.\Generated_Source\PSoC5/CyLib.c **** }
1124:.\Generated_Source\PSoC5/CyLib.c **** 
1125:.\Generated_Source\PSoC5/CyLib.c **** 
1126:.\Generated_Source\PSoC5/CyLib.c **** /*******************************************************************************
1127:.\Generated_Source\PSoC5/CyLib.c **** * Function Name: CyILO_SetPowerMode
1128:.\Generated_Source\PSoC5/CyLib.c **** ********************************************************************************
1129:.\Generated_Source\PSoC5/CyLib.c **** *
1130:.\Generated_Source\PSoC5/CyLib.c **** * Summary:
1131:.\Generated_Source\PSoC5/CyLib.c **** *  Sets the power mode used by the ILO during power down. Allows for lower power
1132:.\Generated_Source\PSoC5/CyLib.c **** *  down power usage resulting in a slower startup time.
1133:.\Generated_Source\PSoC5/CyLib.c **** *
1134:.\Generated_Source\PSoC5/CyLib.c **** * Parameters:
1135:.\Generated_Source\PSoC5/CyLib.c **** *  uint8 mode
1136:.\Generated_Source\PSoC5/CyLib.c **** *   CY_ILO_FAST_START - Faster start-up, internal bias left on when powered down
1137:.\Generated_Source\PSoC5/CyLib.c **** *   CY_ILO_SLOW_START - Slower start-up, internal bias off when powered down
1138:.\Generated_Source\PSoC5/CyLib.c **** *
1139:.\Generated_Source\PSoC5/CyLib.c **** * Return:
1140:.\Generated_Source\PSoC5/CyLib.c **** *   Prevous power mode state.
1141:.\Generated_Source\PSoC5/CyLib.c **** *
1142:.\Generated_Source\PSoC5/CyLib.c **** *******************************************************************************/
1143:.\Generated_Source\PSoC5/CyLib.c **** uint8 CyILO_SetPowerMode(uint8 mode) 
1144:.\Generated_Source\PSoC5/CyLib.c **** {
 1226              		.loc 1 1144 0
 1227              		.cfi_startproc
 1228              		@ args = 0, pretend = 0, frame = 0
 1229              		@ frame_needed = 0, uses_anonymous_args = 0
 1230              		@ link register save eliminated.
 1231              	.LVL72:
1145:.\Generated_Source\PSoC5/CyLib.c ****     uint8 state;
1146:.\Generated_Source\PSoC5/CyLib.c **** 
1147:.\Generated_Source\PSoC5/CyLib.c ****     /* Get current state. */
1148:.\Generated_Source\PSoC5/CyLib.c ****     state = CY_LIB_SLOWCLK_ILO_CR0_REG;
 1232              		.loc 1 1148 0
 1233 0000 064A     		ldr	r2, .L147
 1234 0002 1378     		ldrb	r3, [r2]	@ zero_extendqisi2
 1235 0004 DBB2     		uxtb	r3, r3
 1236              	.LVL73:
1149:.\Generated_Source\PSoC5/CyLib.c **** 
ARM GAS  C:\Users\Yiquing\AppData\Local\Temp\ccsAoMV1.s 			page 45


1150:.\Generated_Source\PSoC5/CyLib.c ****     /* Set the oscillator power mode. */
1151:.\Generated_Source\PSoC5/CyLib.c ****     if(mode != CY_ILO_FAST_START)
 1237              		.loc 1 1151 0
 1238 0006 10B1     		cbz	r0, .L144
1152:.\Generated_Source\PSoC5/CyLib.c ****     {
1153:.\Generated_Source\PSoC5/CyLib.c ****         CY_LIB_SLOWCLK_ILO_CR0_REG = (state | CY_ILO_CONTROL_PD_MODE);
 1239              		.loc 1 1153 0
 1240 0008 43F01001 		orr	r1, r3, #16
 1241 000c 01E0     		b	.L146
 1242              	.L144:
1154:.\Generated_Source\PSoC5/CyLib.c ****     }
1155:.\Generated_Source\PSoC5/CyLib.c ****     else
1156:.\Generated_Source\PSoC5/CyLib.c ****     {
1157:.\Generated_Source\PSoC5/CyLib.c ****         CY_LIB_SLOWCLK_ILO_CR0_REG = (state & ((uint8)(~CY_ILO_CONTROL_PD_MODE)));
 1243              		.loc 1 1157 0
 1244 000e 03F0EF01 		and	r1, r3, #239
 1245              	.L146:
 1246 0012 1170     		strb	r1, [r2]
1158:.\Generated_Source\PSoC5/CyLib.c ****     }
1159:.\Generated_Source\PSoC5/CyLib.c **** 
1160:.\Generated_Source\PSoC5/CyLib.c ****     /* Return old mode. */
1161:.\Generated_Source\PSoC5/CyLib.c ****     return ((state & CY_ILO_CONTROL_PD_MODE) >> CY_ILO_CONTROL_PD_POSITION);
1162:.\Generated_Source\PSoC5/CyLib.c **** }
 1247              		.loc 1 1162 0
 1248 0014 C3F30010 		ubfx	r0, r3, #4, #1
 1249              	.LVL74:
 1250 0018 7047     		bx	lr
 1251              	.L148:
 1252 001a 00BF     		.align	2
 1253              	.L147:
 1254 001c 00430040 		.word	1073758976
 1255              		.cfi_endproc
 1256              	.LFE24:
 1257              		.size	CyILO_SetPowerMode, .-CyILO_SetPowerMode
 1258              		.section	.text.CyXTAL_32KHZ_Stop,"ax",%progbits
 1259              		.align	1
 1260              		.global	CyXTAL_32KHZ_Stop
 1261              		.thumb
 1262              		.thumb_func
 1263              		.type	CyXTAL_32KHZ_Stop, %function
 1264              	CyXTAL_32KHZ_Stop:
 1265              	.LFB26:
1163:.\Generated_Source\PSoC5/CyLib.c **** 
1164:.\Generated_Source\PSoC5/CyLib.c **** 
1165:.\Generated_Source\PSoC5/CyLib.c **** /*******************************************************************************
1166:.\Generated_Source\PSoC5/CyLib.c **** * Function Name: CyXTAL_32KHZ_Start
1167:.\Generated_Source\PSoC5/CyLib.c **** ********************************************************************************
1168:.\Generated_Source\PSoC5/CyLib.c **** *
1169:.\Generated_Source\PSoC5/CyLib.c **** * Summary:
1170:.\Generated_Source\PSoC5/CyLib.c **** *  Enables the 32 KHz Crystal Oscillator.
1171:.\Generated_Source\PSoC5/CyLib.c **** *
1172:.\Generated_Source\PSoC5/CyLib.c **** * Parameters:
1173:.\Generated_Source\PSoC5/CyLib.c **** *  None
1174:.\Generated_Source\PSoC5/CyLib.c **** *
1175:.\Generated_Source\PSoC5/CyLib.c **** * Return:
1176:.\Generated_Source\PSoC5/CyLib.c **** *  None
1177:.\Generated_Source\PSoC5/CyLib.c **** *
ARM GAS  C:\Users\Yiquing\AppData\Local\Temp\ccsAoMV1.s 			page 46


1178:.\Generated_Source\PSoC5/CyLib.c **** *******************************************************************************/
1179:.\Generated_Source\PSoC5/CyLib.c **** void CyXTAL_32KHZ_Start(void) 
1180:.\Generated_Source\PSoC5/CyLib.c **** {
1181:.\Generated_Source\PSoC5/CyLib.c ****     volatile uint16 i;
1182:.\Generated_Source\PSoC5/CyLib.c **** 
1183:.\Generated_Source\PSoC5/CyLib.c ****     CY_CLK_XTAL32_TST_REG = CY_CLK_XTAL32_TST_DEFAULT;
1184:.\Generated_Source\PSoC5/CyLib.c ****     CY_CLK_XTAL32_TR_REG  = CY_CLK_XTAL32_TR_STARTUP;
1185:.\Generated_Source\PSoC5/CyLib.c ****     CY_CLK_XTAL32_CFG_REG = (CY_CLK_XTAL32_CFG_REG & ((uint8)(~CY_CLK_XTAL32_CFG_LP_MASK))) |
1186:.\Generated_Source\PSoC5/CyLib.c ****                                 CY_CLK_XTAL32_CFG_LP_DEFAULT;
1187:.\Generated_Source\PSoC5/CyLib.c **** 
1188:.\Generated_Source\PSoC5/CyLib.c ****     #if(CY_PSOC3)
1189:.\Generated_Source\PSoC5/CyLib.c ****         CY_CLK_XTAL32_CR_REG |= CY_CLK_XTAL32_CR_PDBEN;
1190:.\Generated_Source\PSoC5/CyLib.c ****     #endif  /* (CY_PSOC3) */
1191:.\Generated_Source\PSoC5/CyLib.c **** 
1192:.\Generated_Source\PSoC5/CyLib.c ****     /* Enable operation of 32K Crystal Oscillator */
1193:.\Generated_Source\PSoC5/CyLib.c ****     CY_CLK_XTAL32_CR_REG |= CY_CLK_XTAL32_CR_EN;
1194:.\Generated_Source\PSoC5/CyLib.c **** 
1195:.\Generated_Source\PSoC5/CyLib.c ****     for (i = 1000u; i > 0u; i--)
1196:.\Generated_Source\PSoC5/CyLib.c ****     {
1197:.\Generated_Source\PSoC5/CyLib.c ****         if(0u != (CyXTAL_32KHZ_ReadStatus() & CY_XTAL32K_ANA_STAT))
1198:.\Generated_Source\PSoC5/CyLib.c ****         {
1199:.\Generated_Source\PSoC5/CyLib.c ****             /* Ready - switch to high power mode */
1200:.\Generated_Source\PSoC5/CyLib.c ****             (void) CyXTAL_32KHZ_SetPowerMode(0u);
1201:.\Generated_Source\PSoC5/CyLib.c **** 
1202:.\Generated_Source\PSoC5/CyLib.c ****             break;
1203:.\Generated_Source\PSoC5/CyLib.c ****         }
1204:.\Generated_Source\PSoC5/CyLib.c ****         CyDelayUs(1u);
1205:.\Generated_Source\PSoC5/CyLib.c ****     }
1206:.\Generated_Source\PSoC5/CyLib.c **** }
1207:.\Generated_Source\PSoC5/CyLib.c **** 
1208:.\Generated_Source\PSoC5/CyLib.c **** 
1209:.\Generated_Source\PSoC5/CyLib.c **** /*******************************************************************************
1210:.\Generated_Source\PSoC5/CyLib.c **** * Function Name: CyXTAL_32KHZ_Stop
1211:.\Generated_Source\PSoC5/CyLib.c **** ********************************************************************************
1212:.\Generated_Source\PSoC5/CyLib.c **** *
1213:.\Generated_Source\PSoC5/CyLib.c **** * Summary:
1214:.\Generated_Source\PSoC5/CyLib.c **** *  Disables the 32KHz Crystal Oscillator.
1215:.\Generated_Source\PSoC5/CyLib.c **** *
1216:.\Generated_Source\PSoC5/CyLib.c **** * Parameters:
1217:.\Generated_Source\PSoC5/CyLib.c **** *  None
1218:.\Generated_Source\PSoC5/CyLib.c **** *
1219:.\Generated_Source\PSoC5/CyLib.c **** * Return:
1220:.\Generated_Source\PSoC5/CyLib.c **** *  None
1221:.\Generated_Source\PSoC5/CyLib.c **** *
1222:.\Generated_Source\PSoC5/CyLib.c **** *******************************************************************************/
1223:.\Generated_Source\PSoC5/CyLib.c **** void CyXTAL_32KHZ_Stop(void) 
1224:.\Generated_Source\PSoC5/CyLib.c **** {
 1266              		.loc 1 1224 0
 1267              		.cfi_startproc
 1268              		@ args = 0, pretend = 0, frame = 0
 1269              		@ frame_needed = 0, uses_anonymous_args = 0
 1270              		@ link register save eliminated.
1225:.\Generated_Source\PSoC5/CyLib.c ****     CY_CLK_XTAL32_TST_REG  = CY_CLK_XTAL32_TST_DEFAULT;
 1271              		.loc 1 1225 0
 1272 0000 094B     		ldr	r3, .L150
 1273 0002 F322     		movs	r2, #243
 1274 0004 1A70     		strb	r2, [r3]
ARM GAS  C:\Users\Yiquing\AppData\Local\Temp\ccsAoMV1.s 			page 47


1226:.\Generated_Source\PSoC5/CyLib.c ****     CY_CLK_XTAL32_TR_REG   = CY_CLK_XTAL32_TR_POWERDOWN;
 1275              		.loc 1 1226 0
 1276 0006 0022     		movs	r2, #0
 1277 0008 83F88E23 		strb	r2, [r3, #910]
1227:.\Generated_Source\PSoC5/CyLib.c ****     CY_CLK_XTAL32_CFG_REG = (CY_CLK_XTAL32_CFG_REG & ((uint8)(~CY_CLK_XTAL32_CFG_LP_MASK))) |
 1278              		.loc 1 1227 0
 1279 000c 013B     		subs	r3, r3, #1
 1280 000e 1A78     		ldrb	r2, [r3]	@ zero_extendqisi2
 1281 0010 02F0F302 		and	r2, r2, #243
 1282 0014 42F00402 		orr	r2, r2, #4
 1283 0018 1A70     		strb	r2, [r3]
1228:.\Generated_Source\PSoC5/CyLib.c ****                              CY_CLK_XTAL32_CFG_LP_DEFAULT;
1229:.\Generated_Source\PSoC5/CyLib.c ****     CY_CLK_XTAL32_CR_REG &= ((uint8)(~(CY_CLK_XTAL32_CR_EN | CY_CLK_XTAL32_CR_LPM)));
 1284              		.loc 1 1229 0
 1285 001a 13F8012C 		ldrb	r2, [r3, #-1]	@ zero_extendqisi2
 1286 001e 02F0FC02 		and	r2, r2, #252
 1287 0022 03F8012C 		strb	r2, [r3, #-1]
 1288 0026 7047     		bx	lr
 1289              	.L151:
 1290              		.align	2
 1291              	.L150:
 1292 0028 0A430040 		.word	1073758986
 1293              		.cfi_endproc
 1294              	.LFE26:
 1295              		.size	CyXTAL_32KHZ_Stop, .-CyXTAL_32KHZ_Stop
 1296              		.section	.text.CyXTAL_32KHZ_ReadStatus,"ax",%progbits
 1297              		.align	1
 1298              		.global	CyXTAL_32KHZ_ReadStatus
 1299              		.thumb
 1300              		.thumb_func
 1301              		.type	CyXTAL_32KHZ_ReadStatus, %function
 1302              	CyXTAL_32KHZ_ReadStatus:
 1303              	.LFB27:
1230:.\Generated_Source\PSoC5/CyLib.c **** 
1231:.\Generated_Source\PSoC5/CyLib.c ****     #if(CY_PSOC3)
1232:.\Generated_Source\PSoC5/CyLib.c ****         CY_CLK_XTAL32_CR_REG &= ((uint8)(~CY_CLK_XTAL32_CR_PDBEN));
1233:.\Generated_Source\PSoC5/CyLib.c ****     #endif  /* (CY_PSOC3) */
1234:.\Generated_Source\PSoC5/CyLib.c **** }
1235:.\Generated_Source\PSoC5/CyLib.c **** 
1236:.\Generated_Source\PSoC5/CyLib.c **** 
1237:.\Generated_Source\PSoC5/CyLib.c **** /*******************************************************************************
1238:.\Generated_Source\PSoC5/CyLib.c **** * Function Name: CyXTAL_32KHZ_ReadStatus
1239:.\Generated_Source\PSoC5/CyLib.c **** ********************************************************************************
1240:.\Generated_Source\PSoC5/CyLib.c **** *
1241:.\Generated_Source\PSoC5/CyLib.c **** * Summary:
1242:.\Generated_Source\PSoC5/CyLib.c **** *  Returns status of the 32 KHz oscillator.
1243:.\Generated_Source\PSoC5/CyLib.c **** *
1244:.\Generated_Source\PSoC5/CyLib.c **** * Parameters:
1245:.\Generated_Source\PSoC5/CyLib.c **** *  None
1246:.\Generated_Source\PSoC5/CyLib.c **** *
1247:.\Generated_Source\PSoC5/CyLib.c **** * Return:
1248:.\Generated_Source\PSoC5/CyLib.c **** *  Value     Define                    Source
1249:.\Generated_Source\PSoC5/CyLib.c **** *  20        CY_XTAL32K_ANA_STAT       Analog measurement
1250:.\Generated_Source\PSoC5/CyLib.c **** *                                       1: Stable
1251:.\Generated_Source\PSoC5/CyLib.c **** *                                       0: Not stable
1252:.\Generated_Source\PSoC5/CyLib.c **** *
1253:.\Generated_Source\PSoC5/CyLib.c **** *******************************************************************************/
ARM GAS  C:\Users\Yiquing\AppData\Local\Temp\ccsAoMV1.s 			page 48


1254:.\Generated_Source\PSoC5/CyLib.c **** uint8 CyXTAL_32KHZ_ReadStatus(void) 
1255:.\Generated_Source\PSoC5/CyLib.c **** {
 1304              		.loc 1 1255 0
 1305              		.cfi_startproc
 1306              		@ args = 0, pretend = 0, frame = 0
 1307              		@ frame_needed = 0, uses_anonymous_args = 0
 1308              		@ link register save eliminated.
1256:.\Generated_Source\PSoC5/CyLib.c ****     return(CY_CLK_XTAL32_CR_REG & CY_XTAL32K_ANA_STAT);
 1309              		.loc 1 1256 0
 1310 0000 024B     		ldr	r3, .L153
 1311 0002 1878     		ldrb	r0, [r3]	@ zero_extendqisi2
1257:.\Generated_Source\PSoC5/CyLib.c **** }
 1312              		.loc 1 1257 0
 1313 0004 00F02000 		and	r0, r0, #32
 1314 0008 7047     		bx	lr
 1315              	.L154:
 1316 000a 00BF     		.align	2
 1317              	.L153:
 1318 000c 08430040 		.word	1073758984
 1319              		.cfi_endproc
 1320              	.LFE27:
 1321              		.size	CyXTAL_32KHZ_ReadStatus, .-CyXTAL_32KHZ_ReadStatus
 1322              		.section	.text.CyXTAL_Start,"ax",%progbits
 1323              		.align	1
 1324              		.global	CyXTAL_Start
 1325              		.thumb
 1326              		.thumb_func
 1327              		.type	CyXTAL_Start, %function
 1328              	CyXTAL_Start:
 1329              	.LFB29:
1258:.\Generated_Source\PSoC5/CyLib.c **** 
1259:.\Generated_Source\PSoC5/CyLib.c **** 
1260:.\Generated_Source\PSoC5/CyLib.c **** /*******************************************************************************
1261:.\Generated_Source\PSoC5/CyLib.c **** * Function Name: CyXTAL_32KHZ_SetPowerMode
1262:.\Generated_Source\PSoC5/CyLib.c **** ********************************************************************************
1263:.\Generated_Source\PSoC5/CyLib.c **** *
1264:.\Generated_Source\PSoC5/CyLib.c **** * Summary:
1265:.\Generated_Source\PSoC5/CyLib.c **** *  Sets the power mode for the 32 KHz oscillator used during the sleep mode.
1266:.\Generated_Source\PSoC5/CyLib.c **** *  Allows for lower power during sleep when there are fewer sources of noise.
1267:.\Generated_Source\PSoC5/CyLib.c **** *  During the active mode the oscillator is always run in the high power mode.
1268:.\Generated_Source\PSoC5/CyLib.c **** *
1269:.\Generated_Source\PSoC5/CyLib.c **** * Parameters:
1270:.\Generated_Source\PSoC5/CyLib.c **** *  uint8 mode
1271:.\Generated_Source\PSoC5/CyLib.c **** *       0: High power mode
1272:.\Generated_Source\PSoC5/CyLib.c **** *       1: Low power mode during sleep
1273:.\Generated_Source\PSoC5/CyLib.c **** *
1274:.\Generated_Source\PSoC5/CyLib.c **** * Return:
1275:.\Generated_Source\PSoC5/CyLib.c **** *  Previous power mode.
1276:.\Generated_Source\PSoC5/CyLib.c **** *
1277:.\Generated_Source\PSoC5/CyLib.c **** *******************************************************************************/
1278:.\Generated_Source\PSoC5/CyLib.c **** uint8 CyXTAL_32KHZ_SetPowerMode(uint8 mode) 
1279:.\Generated_Source\PSoC5/CyLib.c **** {
1280:.\Generated_Source\PSoC5/CyLib.c ****     uint8 state = (0u != (CY_CLK_XTAL32_CR_REG & CY_CLK_XTAL32_CR_LPM)) ? 1u : 0u;
1281:.\Generated_Source\PSoC5/CyLib.c **** 
1282:.\Generated_Source\PSoC5/CyLib.c ****     CY_CLK_XTAL32_TST_REG = CY_CLK_XTAL32_TST_DEFAULT;
1283:.\Generated_Source\PSoC5/CyLib.c **** 
1284:.\Generated_Source\PSoC5/CyLib.c ****     if(1u == mode)
ARM GAS  C:\Users\Yiquing\AppData\Local\Temp\ccsAoMV1.s 			page 49


1285:.\Generated_Source\PSoC5/CyLib.c ****     {
1286:.\Generated_Source\PSoC5/CyLib.c ****         /* Low power mode during Sleep */
1287:.\Generated_Source\PSoC5/CyLib.c ****         CY_CLK_XTAL32_TR_REG  = CY_CLK_XTAL32_TR_LOW_POWER;
1288:.\Generated_Source\PSoC5/CyLib.c ****         CyDelayUs(10u);
1289:.\Generated_Source\PSoC5/CyLib.c ****         CY_CLK_XTAL32_CFG_REG = (CY_CLK_XTAL32_CFG_REG & ((uint8)(~CY_CLK_XTAL32_CFG_LP_MASK))) |
1290:.\Generated_Source\PSoC5/CyLib.c ****                                 CY_CLK_XTAL32_CFG_LP_LOWPOWER;
1291:.\Generated_Source\PSoC5/CyLib.c ****         CyDelayUs(20u);
1292:.\Generated_Source\PSoC5/CyLib.c ****         CY_CLK_XTAL32_CR_REG |= CY_CLK_XTAL32_CR_LPM;
1293:.\Generated_Source\PSoC5/CyLib.c ****     }
1294:.\Generated_Source\PSoC5/CyLib.c ****     else
1295:.\Generated_Source\PSoC5/CyLib.c ****     {
1296:.\Generated_Source\PSoC5/CyLib.c ****         /* High power mode */
1297:.\Generated_Source\PSoC5/CyLib.c ****         CY_CLK_XTAL32_TR_REG  = CY_CLK_XTAL32_TR_HIGH_POWER;
1298:.\Generated_Source\PSoC5/CyLib.c ****         CyDelayUs(10u);
1299:.\Generated_Source\PSoC5/CyLib.c ****         CY_CLK_XTAL32_CFG_REG = (CY_CLK_XTAL32_CFG_REG & ((uint8)(~CY_CLK_XTAL32_CFG_LP_MASK))) |
1300:.\Generated_Source\PSoC5/CyLib.c ****                                 CY_CLK_XTAL32_CFG_LP_DEFAULT;
1301:.\Generated_Source\PSoC5/CyLib.c ****         CY_CLK_XTAL32_CR_REG &= ((uint8)(~CY_CLK_XTAL32_CR_LPM));
1302:.\Generated_Source\PSoC5/CyLib.c ****     }
1303:.\Generated_Source\PSoC5/CyLib.c **** 
1304:.\Generated_Source\PSoC5/CyLib.c ****     return(state);
1305:.\Generated_Source\PSoC5/CyLib.c **** }
1306:.\Generated_Source\PSoC5/CyLib.c **** 
1307:.\Generated_Source\PSoC5/CyLib.c **** 
1308:.\Generated_Source\PSoC5/CyLib.c **** /*******************************************************************************
1309:.\Generated_Source\PSoC5/CyLib.c **** * Function Name: CyXTAL_Start
1310:.\Generated_Source\PSoC5/CyLib.c **** ********************************************************************************
1311:.\Generated_Source\PSoC5/CyLib.c **** *
1312:.\Generated_Source\PSoC5/CyLib.c **** * Summary:
1313:.\Generated_Source\PSoC5/CyLib.c **** *  Enables the megahertz crystal.
1314:.\Generated_Source\PSoC5/CyLib.c **** *
1315:.\Generated_Source\PSoC5/CyLib.c **** *  PSoC 3:
1316:.\Generated_Source\PSoC5/CyLib.c **** *  Waits until the XERR bit is low (no error) for a millisecond or until the
1317:.\Generated_Source\PSoC5/CyLib.c **** *  number of milliseconds specified by the wait parameter has expired.
1318:.\Generated_Source\PSoC5/CyLib.c **** *
1319:.\Generated_Source\PSoC5/CyLib.c **** * Parameters:
1320:.\Generated_Source\PSoC5/CyLib.c **** *   wait: Valid range [0-255].
1321:.\Generated_Source\PSoC5/CyLib.c **** *   This is the timeout value in milliseconds.
1322:.\Generated_Source\PSoC5/CyLib.c **** *   The appropriate value is crystal specific.
1323:.\Generated_Source\PSoC5/CyLib.c **** *
1324:.\Generated_Source\PSoC5/CyLib.c **** * Return:
1325:.\Generated_Source\PSoC5/CyLib.c **** *   CYRET_SUCCESS - Completed successfully
1326:.\Generated_Source\PSoC5/CyLib.c **** *   CYRET_TIMEOUT - Timeout occurred without detecting a low value on XERR.
1327:.\Generated_Source\PSoC5/CyLib.c **** *
1328:.\Generated_Source\PSoC5/CyLib.c **** * Side Effects and Restrictions:
1329:.\Generated_Source\PSoC5/CyLib.c **** *  If wait is enabled (non-zero wait). Uses the Fast Timewheel to time the wait.
1330:.\Generated_Source\PSoC5/CyLib.c **** *  Any other use of the Fast Timewheel (FTW) will be stopped during the period
1331:.\Generated_Source\PSoC5/CyLib.c **** *  of this function and then restored.
1332:.\Generated_Source\PSoC5/CyLib.c **** *
1333:.\Generated_Source\PSoC5/CyLib.c **** *  Uses the 100KHz ILO.  If not enabled, this function will enable the 100KHz
1334:.\Generated_Source\PSoC5/CyLib.c **** *  ILO for the period of this function. No changes to the setup of the ILO,
1335:.\Generated_Source\PSoC5/CyLib.c **** *  Fast Timewheel, Central Timewheel or Once Per Second interrupt may be made
1336:.\Generated_Source\PSoC5/CyLib.c **** *  by interrupt routines during the period of this function.
1337:.\Generated_Source\PSoC5/CyLib.c **** *
1338:.\Generated_Source\PSoC5/CyLib.c **** *  The current operation of the ILO, Central Timewheel and Once Per Second
1339:.\Generated_Source\PSoC5/CyLib.c **** *  interrupt are maintained during the operation of this function provided the
1340:.\Generated_Source\PSoC5/CyLib.c **** *  reading of the Power Manager Interrupt Status Register is only done using the
1341:.\Generated_Source\PSoC5/CyLib.c **** *  CyPmReadStatus() function.
ARM GAS  C:\Users\Yiquing\AppData\Local\Temp\ccsAoMV1.s 			page 50


1342:.\Generated_Source\PSoC5/CyLib.c **** *
1343:.\Generated_Source\PSoC5/CyLib.c **** *******************************************************************************/
1344:.\Generated_Source\PSoC5/CyLib.c **** cystatus CyXTAL_Start(uint8 wait) 
1345:.\Generated_Source\PSoC5/CyLib.c **** {
 1330              		.loc 1 1345 0
 1331              		.cfi_startproc
 1332              		@ args = 0, pretend = 0, frame = 8
 1333              		@ frame_needed = 0, uses_anonymous_args = 0
 1334              	.LVL75:
 1335 0000 2DE9F743 		push	{r0, r1, r2, r4, r5, r6, r7, r8, r9, lr}
 1336              		.cfi_def_cfa_offset 40
 1337              		.cfi_offset 0, -40
 1338              		.cfi_offset 1, -36
 1339              		.cfi_offset 2, -32
 1340              		.cfi_offset 4, -28
 1341              		.cfi_offset 5, -24
 1342              		.cfi_offset 6, -20
 1343              		.cfi_offset 7, -16
 1344              		.cfi_offset 8, -12
 1345              		.cfi_offset 9, -8
 1346              		.cfi_offset 14, -4
1346:.\Generated_Source\PSoC5/CyLib.c ****     cystatus status = CYRET_SUCCESS;
1347:.\Generated_Source\PSoC5/CyLib.c ****     volatile uint8  timeout = wait;
1348:.\Generated_Source\PSoC5/CyLib.c ****     volatile uint8 count;
1349:.\Generated_Source\PSoC5/CyLib.c ****     uint8 iloEnableState;
1350:.\Generated_Source\PSoC5/CyLib.c ****     uint8 pmTwCfg0Tmp;
1351:.\Generated_Source\PSoC5/CyLib.c ****     uint8 pmTwCfg2Tmp;
1352:.\Generated_Source\PSoC5/CyLib.c **** 
1353:.\Generated_Source\PSoC5/CyLib.c **** 
1354:.\Generated_Source\PSoC5/CyLib.c ****     /* Enables MHz crystal oscillator circuit  */
1355:.\Generated_Source\PSoC5/CyLib.c ****     CY_CLK_XMHZ_CSR_REG |= CY_CLK_XMHZ_CSR_ENABLE;
 1347              		.loc 1 1355 0
 1348 0004 244B     		ldr	r3, .L170
1347:.\Generated_Source\PSoC5/CyLib.c ****     volatile uint8  timeout = wait;
 1349              		.loc 1 1347 0
 1350 0006 8DF80600 		strb	r0, [sp, #6]
 1351              		.loc 1 1355 0
 1352 000a 1A78     		ldrb	r2, [r3]	@ zero_extendqisi2
 1353 000c 1D46     		mov	r5, r3
 1354 000e 42F00102 		orr	r2, r2, #1
 1355 0012 1A70     		strb	r2, [r3]
1356:.\Generated_Source\PSoC5/CyLib.c **** 
1357:.\Generated_Source\PSoC5/CyLib.c **** 
1358:.\Generated_Source\PSoC5/CyLib.c ****     if(wait > 0u)
 1356              		.loc 1 1358 0
 1357 0014 0028     		cmp	r0, #0
 1358 0016 39D0     		beq	.L165
1359:.\Generated_Source\PSoC5/CyLib.c ****     {
1360:.\Generated_Source\PSoC5/CyLib.c ****         /* Save 100 KHz ILO, FTW interval, enable and interrupt enable */
1361:.\Generated_Source\PSoC5/CyLib.c ****         iloEnableState = CY_LIB_SLOWCLK_ILO_CR0_REG;
1362:.\Generated_Source\PSoC5/CyLib.c ****         pmTwCfg0Tmp = CY_LIB_PM_TW_CFG0_REG;
1363:.\Generated_Source\PSoC5/CyLib.c ****         pmTwCfg2Tmp = CY_LIB_PM_TW_CFG2_REG;
 1359              		.loc 1 1363 0
 1360 0018 204C     		ldr	r4, .L170+4
1364:.\Generated_Source\PSoC5/CyLib.c **** 
1365:.\Generated_Source\PSoC5/CyLib.c ****         /* Set 250 us interval */
1366:.\Generated_Source\PSoC5/CyLib.c ****         CyPmFtwSetInterval(CY_CLK_XMHZ_FTW_INTERVAL);
ARM GAS  C:\Users\Yiquing\AppData\Local\Temp\ccsAoMV1.s 			page 51


 1361              		.loc 1 1366 0
 1362 001a 1820     		movs	r0, #24
 1363              	.LVL76:
1361:.\Generated_Source\PSoC5/CyLib.c ****         iloEnableState = CY_LIB_SLOWCLK_ILO_CR0_REG;
 1364              		.loc 1 1361 0
 1365 001c 93F8F090 		ldrb	r9, [r3, #240]	@ zero_extendqisi2
1362:.\Generated_Source\PSoC5/CyLib.c ****         pmTwCfg0Tmp = CY_LIB_PM_TW_CFG0_REG;
 1366              		.loc 1 1362 0
 1367 0020 93F87081 		ldrb	r8, [r3, #368]	@ zero_extendqisi2
1363:.\Generated_Source\PSoC5/CyLib.c ****         pmTwCfg2Tmp = CY_LIB_PM_TW_CFG2_REG;
 1368              		.loc 1 1363 0
 1369 0024 2778     		ldrb	r7, [r4]	@ zero_extendqisi2
 1370              		.loc 1 1366 0
 1371 0026 FFF7FEFF 		bl	CyPmFtwSetInterval
 1372              	.LVL77:
1361:.\Generated_Source\PSoC5/CyLib.c ****         iloEnableState = CY_LIB_SLOWCLK_ILO_CR0_REG;
 1373              		.loc 1 1361 0
 1374 002a 5FFA89F9 		uxtb	r9, r9
 1375              	.LVL78:
1362:.\Generated_Source\PSoC5/CyLib.c ****         pmTwCfg0Tmp = CY_LIB_PM_TW_CFG0_REG;
 1376              		.loc 1 1362 0
 1377 002e 5FFA88F8 		uxtb	r8, r8
 1378              	.LVL79:
1363:.\Generated_Source\PSoC5/CyLib.c ****         pmTwCfg2Tmp = CY_LIB_PM_TW_CFG2_REG;
 1379              		.loc 1 1363 0
 1380 0032 FFB2     		uxtb	r7, r7
 1381              	.LVL80:
 1382 0034 2646     		mov	r6, r4
 1383              	.L157:
1367:.\Generated_Source\PSoC5/CyLib.c ****         status = CYRET_TIMEOUT;
1368:.\Generated_Source\PSoC5/CyLib.c **** 
1369:.\Generated_Source\PSoC5/CyLib.c **** 
1370:.\Generated_Source\PSoC5/CyLib.c ****         for( ; timeout > 0u; timeout--)
 1384              		.loc 1 1370 0 discriminator 1
 1385 0036 9DF80630 		ldrb	r3, [sp, #6]	@ zero_extendqisi2
 1386 003a E3B1     		cbz	r3, .L168
1371:.\Generated_Source\PSoC5/CyLib.c ****         {
1372:.\Generated_Source\PSoC5/CyLib.c ****             /* Read XERR bit to clear it */
1373:.\Generated_Source\PSoC5/CyLib.c ****             (void) CY_CLK_XMHZ_CSR_REG;
 1387              		.loc 1 1373 0
 1388 003c 2B78     		ldrb	r3, [r5]	@ zero_extendqisi2
1374:.\Generated_Source\PSoC5/CyLib.c **** 
1375:.\Generated_Source\PSoC5/CyLib.c ****             /* Wait for 1 millisecond - 4 x 250 us */
1376:.\Generated_Source\PSoC5/CyLib.c ****             for(count = 4u; count > 0u; count--)
 1389              		.loc 1 1376 0
 1390 003e 0423     		movs	r3, #4
 1391              	.L167:
 1392 0040 8DF80730 		strb	r3, [sp, #7]
 1393 0044 9DF80730 		ldrb	r3, [sp, #7]	@ zero_extendqisi2
 1394 0048 03F0FF04 		and	r4, r3, #255
 1395 004c 4BB1     		cbz	r3, .L169
 1396              	.L160:
1377:.\Generated_Source\PSoC5/CyLib.c ****             {
1378:.\Generated_Source\PSoC5/CyLib.c ****                 while(0u == (CY_PM_FTW_INT & CyPmReadStatus(CY_PM_FTW_INT)))
 1397              		.loc 1 1378 0
 1398 004e 0120     		movs	r0, #1
 1399 0050 FFF7FEFF 		bl	CyPmReadStatus
ARM GAS  C:\Users\Yiquing\AppData\Local\Temp\ccsAoMV1.s 			page 52


 1400              	.LVL81:
 1401 0054 C207     		lsls	r2, r0, #31
 1402 0056 FAD5     		bpl	.L160
1376:.\Generated_Source\PSoC5/CyLib.c ****             for(count = 4u; count > 0u; count--)
 1403              		.loc 1 1376 0
 1404 0058 9DF80730 		ldrb	r3, [sp, #7]	@ zero_extendqisi2
 1405 005c 013B     		subs	r3, r3, #1
 1406 005e DBB2     		uxtb	r3, r3
 1407 0060 EEE7     		b	.L167
 1408              	.L169:
1379:.\Generated_Source\PSoC5/CyLib.c ****                 {
1380:.\Generated_Source\PSoC5/CyLib.c ****                     /* Wait for FTW interrupt event */
1381:.\Generated_Source\PSoC5/CyLib.c ****                 }
1382:.\Generated_Source\PSoC5/CyLib.c ****             }
1383:.\Generated_Source\PSoC5/CyLib.c **** 
1384:.\Generated_Source\PSoC5/CyLib.c **** 
1385:.\Generated_Source\PSoC5/CyLib.c ****             /*******************************************************************
1386:.\Generated_Source\PSoC5/CyLib.c ****             * High output indicates an oscillator failure.
1387:.\Generated_Source\PSoC5/CyLib.c ****             * Only can be used after a start-up interval (1 ms) is completed.
1388:.\Generated_Source\PSoC5/CyLib.c ****             *******************************************************************/
1389:.\Generated_Source\PSoC5/CyLib.c ****             if(0u == (CY_CLK_XMHZ_CSR_REG & CY_CLK_XMHZ_CSR_XERR))
 1409              		.loc 1 1389 0
 1410 0062 2B78     		ldrb	r3, [r5]	@ zero_extendqisi2
 1411 0064 1B06     		lsls	r3, r3, #24
 1412 0066 07D5     		bpl	.L162
1370:.\Generated_Source\PSoC5/CyLib.c ****         for( ; timeout > 0u; timeout--)
 1413              		.loc 1 1370 0
 1414 0068 9DF80630 		ldrb	r3, [sp, #6]	@ zero_extendqisi2
 1415 006c 013B     		subs	r3, r3, #1
 1416 006e DBB2     		uxtb	r3, r3
 1417 0070 8DF80630 		strb	r3, [sp, #6]
 1418 0074 DFE7     		b	.L157
 1419              	.L168:
1367:.\Generated_Source\PSoC5/CyLib.c ****         status = CYRET_TIMEOUT;
 1420              		.loc 1 1367 0
 1421 0076 1024     		movs	r4, #16
 1422              	.L162:
 1423              	.LVL82:
1390:.\Generated_Source\PSoC5/CyLib.c ****             {
1391:.\Generated_Source\PSoC5/CyLib.c ****                 status = CYRET_SUCCESS;
1392:.\Generated_Source\PSoC5/CyLib.c ****                 break;
1393:.\Generated_Source\PSoC5/CyLib.c ****             }
1394:.\Generated_Source\PSoC5/CyLib.c ****         }
1395:.\Generated_Source\PSoC5/CyLib.c **** 
1396:.\Generated_Source\PSoC5/CyLib.c **** 
1397:.\Generated_Source\PSoC5/CyLib.c ****         /* Restore 100 KHz ILO, FTW interval, enable and interrupt enable */
1398:.\Generated_Source\PSoC5/CyLib.c ****         if(0u == (iloEnableState & CY_LIB_SLOWCLK_ILO_CR0_EN_100KHZ))
 1424              		.loc 1 1398 0
 1425 0078 19F0040F 		tst	r9, #4
 1426 007c 01D1     		bne	.L164
1399:.\Generated_Source\PSoC5/CyLib.c ****         {
1400:.\Generated_Source\PSoC5/CyLib.c ****             CyILO_Stop100K();
 1427              		.loc 1 1400 0
 1428 007e FFF7FEFF 		bl	CyILO_Stop100K
 1429              	.LVL83:
 1430              	.L164:
1401:.\Generated_Source\PSoC5/CyLib.c ****         }
ARM GAS  C:\Users\Yiquing\AppData\Local\Temp\ccsAoMV1.s 			page 53


1402:.\Generated_Source\PSoC5/CyLib.c ****         CY_LIB_PM_TW_CFG0_REG = pmTwCfg0Tmp;
 1431              		.loc 1 1402 0
 1432 0082 074B     		ldr	r3, .L170+8
 1433 0084 83F80080 		strb	r8, [r3]
1403:.\Generated_Source\PSoC5/CyLib.c ****         CY_LIB_PM_TW_CFG2_REG = pmTwCfg2Tmp;
 1434              		.loc 1 1403 0
 1435 0088 3770     		strb	r7, [r6]
 1436 008a 00E0     		b	.L156
 1437              	.LVL84:
 1438              	.L165:
1346:.\Generated_Source\PSoC5/CyLib.c ****     cystatus status = CYRET_SUCCESS;
 1439              		.loc 1 1346 0
 1440 008c 0446     		mov	r4, r0
 1441              	.LVL85:
 1442              	.L156:
1404:.\Generated_Source\PSoC5/CyLib.c ****     }
1405:.\Generated_Source\PSoC5/CyLib.c **** 
1406:.\Generated_Source\PSoC5/CyLib.c ****     return(status);
1407:.\Generated_Source\PSoC5/CyLib.c **** }
 1443              		.loc 1 1407 0
 1444 008e 2046     		mov	r0, r4
 1445 0090 03B0     		add	sp, sp, #12
 1446              		@ sp needed
 1447 0092 BDE8F083 		pop	{r4, r5, r6, r7, r8, r9, pc}
 1448              	.LVL86:
 1449              	.L171:
 1450 0096 00BF     		.align	2
 1451              	.L170:
 1452 0098 10420040 		.word	1073758736
 1453 009c 82430040 		.word	1073759106
 1454 00a0 80430040 		.word	1073759104
 1455              		.cfi_endproc
 1456              	.LFE29:
 1457              		.size	CyXTAL_Start, .-CyXTAL_Start
 1458              		.section	.text.CyXTAL_Stop,"ax",%progbits
 1459              		.align	1
 1460              		.global	CyXTAL_Stop
 1461              		.thumb
 1462              		.thumb_func
 1463              		.type	CyXTAL_Stop, %function
 1464              	CyXTAL_Stop:
 1465              	.LFB30:
1408:.\Generated_Source\PSoC5/CyLib.c **** 
1409:.\Generated_Source\PSoC5/CyLib.c **** 
1410:.\Generated_Source\PSoC5/CyLib.c **** /*******************************************************************************
1411:.\Generated_Source\PSoC5/CyLib.c **** * Function Name: CyXTAL_Stop
1412:.\Generated_Source\PSoC5/CyLib.c **** ********************************************************************************
1413:.\Generated_Source\PSoC5/CyLib.c **** *
1414:.\Generated_Source\PSoC5/CyLib.c **** * Summary:
1415:.\Generated_Source\PSoC5/CyLib.c **** *  Disables the megahertz crystal oscillator.
1416:.\Generated_Source\PSoC5/CyLib.c **** *
1417:.\Generated_Source\PSoC5/CyLib.c **** * Parameters:
1418:.\Generated_Source\PSoC5/CyLib.c **** *  None
1419:.\Generated_Source\PSoC5/CyLib.c **** *
1420:.\Generated_Source\PSoC5/CyLib.c **** * Return:
1421:.\Generated_Source\PSoC5/CyLib.c **** *  None
1422:.\Generated_Source\PSoC5/CyLib.c **** *
ARM GAS  C:\Users\Yiquing\AppData\Local\Temp\ccsAoMV1.s 			page 54


1423:.\Generated_Source\PSoC5/CyLib.c **** *******************************************************************************/
1424:.\Generated_Source\PSoC5/CyLib.c **** void CyXTAL_Stop(void) 
1425:.\Generated_Source\PSoC5/CyLib.c **** {
 1466              		.loc 1 1425 0
 1467              		.cfi_startproc
 1468              		@ args = 0, pretend = 0, frame = 0
 1469              		@ frame_needed = 0, uses_anonymous_args = 0
 1470              		@ link register save eliminated.
1426:.\Generated_Source\PSoC5/CyLib.c ****     /* Disable oscillator. */
1427:.\Generated_Source\PSoC5/CyLib.c ****     FASTCLK_XMHZ_CSR &= ((uint8)(~XMHZ_CONTROL_ENABLE));
 1471              		.loc 1 1427 0
 1472 0000 024B     		ldr	r3, .L173
 1473 0002 1A78     		ldrb	r2, [r3]	@ zero_extendqisi2
 1474 0004 02F0FE02 		and	r2, r2, #254
 1475 0008 1A70     		strb	r2, [r3]
 1476 000a 7047     		bx	lr
 1477              	.L174:
 1478              		.align	2
 1479              	.L173:
 1480 000c 10420040 		.word	1073758736
 1481              		.cfi_endproc
 1482              	.LFE30:
 1483              		.size	CyXTAL_Stop, .-CyXTAL_Stop
 1484              		.section	.text.CyXTAL_EnableErrStatus,"ax",%progbits
 1485              		.align	1
 1486              		.global	CyXTAL_EnableErrStatus
 1487              		.thumb
 1488              		.thumb_func
 1489              		.type	CyXTAL_EnableErrStatus, %function
 1490              	CyXTAL_EnableErrStatus:
 1491              	.LFB31:
1428:.\Generated_Source\PSoC5/CyLib.c **** }
1429:.\Generated_Source\PSoC5/CyLib.c **** 
1430:.\Generated_Source\PSoC5/CyLib.c **** 
1431:.\Generated_Source\PSoC5/CyLib.c **** /*******************************************************************************
1432:.\Generated_Source\PSoC5/CyLib.c **** * Function Name: CyXTAL_EnableErrStatus
1433:.\Generated_Source\PSoC5/CyLib.c **** ********************************************************************************
1434:.\Generated_Source\PSoC5/CyLib.c **** *
1435:.\Generated_Source\PSoC5/CyLib.c **** * Summary:
1436:.\Generated_Source\PSoC5/CyLib.c **** *  Enables the generation of the XERR status bit for the megahertz crystal.
1437:.\Generated_Source\PSoC5/CyLib.c **** *  This function is not available for PSoC5.
1438:.\Generated_Source\PSoC5/CyLib.c **** *
1439:.\Generated_Source\PSoC5/CyLib.c **** * Parameters:
1440:.\Generated_Source\PSoC5/CyLib.c **** *  None
1441:.\Generated_Source\PSoC5/CyLib.c **** *
1442:.\Generated_Source\PSoC5/CyLib.c **** * Return:
1443:.\Generated_Source\PSoC5/CyLib.c **** *  None
1444:.\Generated_Source\PSoC5/CyLib.c **** *
1445:.\Generated_Source\PSoC5/CyLib.c **** *******************************************************************************/
1446:.\Generated_Source\PSoC5/CyLib.c **** void CyXTAL_EnableErrStatus(void) 
1447:.\Generated_Source\PSoC5/CyLib.c **** {
 1492              		.loc 1 1447 0
 1493              		.cfi_startproc
 1494              		@ args = 0, pretend = 0, frame = 0
 1495              		@ frame_needed = 0, uses_anonymous_args = 0
 1496              		@ link register save eliminated.
1448:.\Generated_Source\PSoC5/CyLib.c ****     /* If oscillator has insufficient amplitude, XERR bit will be high. */
ARM GAS  C:\Users\Yiquing\AppData\Local\Temp\ccsAoMV1.s 			page 55


1449:.\Generated_Source\PSoC5/CyLib.c ****     CY_CLK_XMHZ_CSR_REG &= ((uint8)(~CY_CLK_XMHZ_CSR_XFB));
 1497              		.loc 1 1449 0
 1498 0000 024B     		ldr	r3, .L176
 1499 0002 1A78     		ldrb	r2, [r3]	@ zero_extendqisi2
 1500 0004 02F0FB02 		and	r2, r2, #251
 1501 0008 1A70     		strb	r2, [r3]
 1502 000a 7047     		bx	lr
 1503              	.L177:
 1504              		.align	2
 1505              	.L176:
 1506 000c 10420040 		.word	1073758736
 1507              		.cfi_endproc
 1508              	.LFE31:
 1509              		.size	CyXTAL_EnableErrStatus, .-CyXTAL_EnableErrStatus
 1510              		.section	.text.CyXTAL_DisableErrStatus,"ax",%progbits
 1511              		.align	1
 1512              		.global	CyXTAL_DisableErrStatus
 1513              		.thumb
 1514              		.thumb_func
 1515              		.type	CyXTAL_DisableErrStatus, %function
 1516              	CyXTAL_DisableErrStatus:
 1517              	.LFB32:
1450:.\Generated_Source\PSoC5/CyLib.c **** }
1451:.\Generated_Source\PSoC5/CyLib.c **** 
1452:.\Generated_Source\PSoC5/CyLib.c **** 
1453:.\Generated_Source\PSoC5/CyLib.c **** /*******************************************************************************
1454:.\Generated_Source\PSoC5/CyLib.c **** * Function Name: CyXTAL_DisableErrStatus
1455:.\Generated_Source\PSoC5/CyLib.c **** ********************************************************************************
1456:.\Generated_Source\PSoC5/CyLib.c **** *
1457:.\Generated_Source\PSoC5/CyLib.c **** * Summary:
1458:.\Generated_Source\PSoC5/CyLib.c **** *  Disables the generation of the XERR status bit for the megahertz crystal.
1459:.\Generated_Source\PSoC5/CyLib.c **** *  This function is not available for PSoC5.
1460:.\Generated_Source\PSoC5/CyLib.c **** *
1461:.\Generated_Source\PSoC5/CyLib.c **** * Parameters:
1462:.\Generated_Source\PSoC5/CyLib.c **** *  None
1463:.\Generated_Source\PSoC5/CyLib.c **** *
1464:.\Generated_Source\PSoC5/CyLib.c **** * Return:
1465:.\Generated_Source\PSoC5/CyLib.c **** *  None
1466:.\Generated_Source\PSoC5/CyLib.c **** *
1467:.\Generated_Source\PSoC5/CyLib.c **** *******************************************************************************/
1468:.\Generated_Source\PSoC5/CyLib.c **** void CyXTAL_DisableErrStatus(void) 
1469:.\Generated_Source\PSoC5/CyLib.c **** {
 1518              		.loc 1 1469 0
 1519              		.cfi_startproc
 1520              		@ args = 0, pretend = 0, frame = 0
 1521              		@ frame_needed = 0, uses_anonymous_args = 0
 1522              		@ link register save eliminated.
1470:.\Generated_Source\PSoC5/CyLib.c ****     /* If oscillator has insufficient amplitude, XERR bit will be high. */
1471:.\Generated_Source\PSoC5/CyLib.c ****     CY_CLK_XMHZ_CSR_REG |= CY_CLK_XMHZ_CSR_XFB;
 1523              		.loc 1 1471 0
 1524 0000 024B     		ldr	r3, .L179
 1525 0002 1A78     		ldrb	r2, [r3]	@ zero_extendqisi2
 1526 0004 42F00402 		orr	r2, r2, #4
 1527 0008 1A70     		strb	r2, [r3]
 1528 000a 7047     		bx	lr
 1529              	.L180:
 1530              		.align	2
ARM GAS  C:\Users\Yiquing\AppData\Local\Temp\ccsAoMV1.s 			page 56


 1531              	.L179:
 1532 000c 10420040 		.word	1073758736
 1533              		.cfi_endproc
 1534              	.LFE32:
 1535              		.size	CyXTAL_DisableErrStatus, .-CyXTAL_DisableErrStatus
 1536              		.section	.text.CyXTAL_ReadStatus,"ax",%progbits
 1537              		.align	1
 1538              		.global	CyXTAL_ReadStatus
 1539              		.thumb
 1540              		.thumb_func
 1541              		.type	CyXTAL_ReadStatus, %function
 1542              	CyXTAL_ReadStatus:
 1543              	.LFB33:
1472:.\Generated_Source\PSoC5/CyLib.c **** }
1473:.\Generated_Source\PSoC5/CyLib.c **** 
1474:.\Generated_Source\PSoC5/CyLib.c **** 
1475:.\Generated_Source\PSoC5/CyLib.c **** /*******************************************************************************
1476:.\Generated_Source\PSoC5/CyLib.c **** * Function Name: CyXTAL_ReadStatus
1477:.\Generated_Source\PSoC5/CyLib.c **** ********************************************************************************
1478:.\Generated_Source\PSoC5/CyLib.c **** *
1479:.\Generated_Source\PSoC5/CyLib.c **** * Summary:
1480:.\Generated_Source\PSoC5/CyLib.c **** *  Reads the XERR status bit for the megahertz crystal. This status bit is a
1481:.\Generated_Source\PSoC5/CyLib.c **** *  sticky, clear on read. This function is not available for PSoC5.
1482:.\Generated_Source\PSoC5/CyLib.c **** *
1483:.\Generated_Source\PSoC5/CyLib.c **** * Parameters:
1484:.\Generated_Source\PSoC5/CyLib.c **** *  None
1485:.\Generated_Source\PSoC5/CyLib.c **** *
1486:.\Generated_Source\PSoC5/CyLib.c **** * Return:
1487:.\Generated_Source\PSoC5/CyLib.c **** *   Status
1488:.\Generated_Source\PSoC5/CyLib.c **** *    0: No error
1489:.\Generated_Source\PSoC5/CyLib.c **** *    1: Error
1490:.\Generated_Source\PSoC5/CyLib.c **** *
1491:.\Generated_Source\PSoC5/CyLib.c **** *******************************************************************************/
1492:.\Generated_Source\PSoC5/CyLib.c **** uint8 CyXTAL_ReadStatus(void) 
1493:.\Generated_Source\PSoC5/CyLib.c **** {
 1544              		.loc 1 1493 0
 1545              		.cfi_startproc
 1546              		@ args = 0, pretend = 0, frame = 0
 1547              		@ frame_needed = 0, uses_anonymous_args = 0
 1548              		@ link register save eliminated.
1494:.\Generated_Source\PSoC5/CyLib.c ****     /***************************************************************************
1495:.\Generated_Source\PSoC5/CyLib.c ****     * High output indicates an oscillator failure. Only use this after a start-up
1496:.\Generated_Source\PSoC5/CyLib.c ****     * interval is completed. This can be used for the status and failure recovery.
1497:.\Generated_Source\PSoC5/CyLib.c ****     ***************************************************************************/
1498:.\Generated_Source\PSoC5/CyLib.c ****     return((0u != (CY_CLK_XMHZ_CSR_REG & CY_CLK_XMHZ_CSR_XERR)) ? 1u : 0u);
 1549              		.loc 1 1498 0
 1550 0000 014B     		ldr	r3, .L182
 1551 0002 1878     		ldrb	r0, [r3]	@ zero_extendqisi2
1499:.\Generated_Source\PSoC5/CyLib.c **** }
 1552              		.loc 1 1499 0
 1553 0004 C009     		lsrs	r0, r0, #7
 1554 0006 7047     		bx	lr
 1555              	.L183:
 1556              		.align	2
 1557              	.L182:
 1558 0008 10420040 		.word	1073758736
 1559              		.cfi_endproc
ARM GAS  C:\Users\Yiquing\AppData\Local\Temp\ccsAoMV1.s 			page 57


 1560              	.LFE33:
 1561              		.size	CyXTAL_ReadStatus, .-CyXTAL_ReadStatus
 1562              		.section	.text.CyXTAL_EnableFaultRecovery,"ax",%progbits
 1563              		.align	1
 1564              		.global	CyXTAL_EnableFaultRecovery
 1565              		.thumb
 1566              		.thumb_func
 1567              		.type	CyXTAL_EnableFaultRecovery, %function
 1568              	CyXTAL_EnableFaultRecovery:
 1569              	.LFB34:
1500:.\Generated_Source\PSoC5/CyLib.c **** 
1501:.\Generated_Source\PSoC5/CyLib.c **** 
1502:.\Generated_Source\PSoC5/CyLib.c **** /*******************************************************************************
1503:.\Generated_Source\PSoC5/CyLib.c **** * Function Name: CyXTAL_EnableFaultRecovery
1504:.\Generated_Source\PSoC5/CyLib.c **** ********************************************************************************
1505:.\Generated_Source\PSoC5/CyLib.c **** *
1506:.\Generated_Source\PSoC5/CyLib.c **** * Summary:
1507:.\Generated_Source\PSoC5/CyLib.c **** *  Enables the fault recovery circuit which will switch to the IMO in the case
1508:.\Generated_Source\PSoC5/CyLib.c **** *  of a fault in the megahertz crystal circuit. The crystal must be up and
1509:.\Generated_Source\PSoC5/CyLib.c **** *  running with the XERR bit at 0, before calling this function to prevent
1510:.\Generated_Source\PSoC5/CyLib.c **** *  an immediate fault switchover. This function is not available for PSoC5.
1511:.\Generated_Source\PSoC5/CyLib.c **** *
1512:.\Generated_Source\PSoC5/CyLib.c **** * Parameters:
1513:.\Generated_Source\PSoC5/CyLib.c **** *  None
1514:.\Generated_Source\PSoC5/CyLib.c **** *
1515:.\Generated_Source\PSoC5/CyLib.c **** * Return:
1516:.\Generated_Source\PSoC5/CyLib.c **** *  None
1517:.\Generated_Source\PSoC5/CyLib.c **** *
1518:.\Generated_Source\PSoC5/CyLib.c **** *******************************************************************************/
1519:.\Generated_Source\PSoC5/CyLib.c **** void CyXTAL_EnableFaultRecovery(void) 
1520:.\Generated_Source\PSoC5/CyLib.c **** {
 1570              		.loc 1 1520 0
 1571              		.cfi_startproc
 1572              		@ args = 0, pretend = 0, frame = 0
 1573              		@ frame_needed = 0, uses_anonymous_args = 0
 1574              		@ link register save eliminated.
1521:.\Generated_Source\PSoC5/CyLib.c ****     CY_CLK_XMHZ_CSR_REG |= CY_CLK_XMHZ_CSR_XPROT;
 1575              		.loc 1 1521 0
 1576 0000 024B     		ldr	r3, .L185
 1577 0002 1A78     		ldrb	r2, [r3]	@ zero_extendqisi2
 1578 0004 42F04002 		orr	r2, r2, #64
 1579 0008 1A70     		strb	r2, [r3]
 1580 000a 7047     		bx	lr
 1581              	.L186:
 1582              		.align	2
 1583              	.L185:
 1584 000c 10420040 		.word	1073758736
 1585              		.cfi_endproc
 1586              	.LFE34:
 1587              		.size	CyXTAL_EnableFaultRecovery, .-CyXTAL_EnableFaultRecovery
 1588              		.section	.text.CyXTAL_DisableFaultRecovery,"ax",%progbits
 1589              		.align	1
 1590              		.global	CyXTAL_DisableFaultRecovery
 1591              		.thumb
 1592              		.thumb_func
 1593              		.type	CyXTAL_DisableFaultRecovery, %function
 1594              	CyXTAL_DisableFaultRecovery:
ARM GAS  C:\Users\Yiquing\AppData\Local\Temp\ccsAoMV1.s 			page 58


 1595              	.LFB35:
1522:.\Generated_Source\PSoC5/CyLib.c **** }
1523:.\Generated_Source\PSoC5/CyLib.c **** 
1524:.\Generated_Source\PSoC5/CyLib.c **** 
1525:.\Generated_Source\PSoC5/CyLib.c **** /*******************************************************************************
1526:.\Generated_Source\PSoC5/CyLib.c **** * Function Name: CyXTAL_DisableFaultRecovery
1527:.\Generated_Source\PSoC5/CyLib.c **** ********************************************************************************
1528:.\Generated_Source\PSoC5/CyLib.c **** *
1529:.\Generated_Source\PSoC5/CyLib.c **** * Summary:
1530:.\Generated_Source\PSoC5/CyLib.c **** *  Disables the fault recovery circuit which will switch to the IMO in the case
1531:.\Generated_Source\PSoC5/CyLib.c **** *  of a fault in the megahertz crystal circuit. This function is not available
1532:.\Generated_Source\PSoC5/CyLib.c **** *  for PSoC5.
1533:.\Generated_Source\PSoC5/CyLib.c **** *
1534:.\Generated_Source\PSoC5/CyLib.c **** * Parameters:
1535:.\Generated_Source\PSoC5/CyLib.c **** *  None
1536:.\Generated_Source\PSoC5/CyLib.c **** *
1537:.\Generated_Source\PSoC5/CyLib.c **** * Return:
1538:.\Generated_Source\PSoC5/CyLib.c **** *  None
1539:.\Generated_Source\PSoC5/CyLib.c **** *
1540:.\Generated_Source\PSoC5/CyLib.c **** *******************************************************************************/
1541:.\Generated_Source\PSoC5/CyLib.c **** void CyXTAL_DisableFaultRecovery(void) 
1542:.\Generated_Source\PSoC5/CyLib.c **** {
 1596              		.loc 1 1542 0
 1597              		.cfi_startproc
 1598              		@ args = 0, pretend = 0, frame = 0
 1599              		@ frame_needed = 0, uses_anonymous_args = 0
 1600              		@ link register save eliminated.
1543:.\Generated_Source\PSoC5/CyLib.c ****     CY_CLK_XMHZ_CSR_REG &= ((uint8)(~CY_CLK_XMHZ_CSR_XPROT));
 1601              		.loc 1 1543 0
 1602 0000 024B     		ldr	r3, .L188
 1603 0002 1A78     		ldrb	r2, [r3]	@ zero_extendqisi2
 1604 0004 02F0BF02 		and	r2, r2, #191
 1605 0008 1A70     		strb	r2, [r3]
 1606 000a 7047     		bx	lr
 1607              	.L189:
 1608              		.align	2
 1609              	.L188:
 1610 000c 10420040 		.word	1073758736
 1611              		.cfi_endproc
 1612              	.LFE35:
 1613              		.size	CyXTAL_DisableFaultRecovery, .-CyXTAL_DisableFaultRecovery
 1614              		.section	.text.CyXTAL_SetStartup,"ax",%progbits
 1615              		.align	1
 1616              		.global	CyXTAL_SetStartup
 1617              		.thumb
 1618              		.thumb_func
 1619              		.type	CyXTAL_SetStartup, %function
 1620              	CyXTAL_SetStartup:
 1621              	.LFB36:
1544:.\Generated_Source\PSoC5/CyLib.c **** }
1545:.\Generated_Source\PSoC5/CyLib.c **** 
1546:.\Generated_Source\PSoC5/CyLib.c **** 
1547:.\Generated_Source\PSoC5/CyLib.c **** /*******************************************************************************
1548:.\Generated_Source\PSoC5/CyLib.c **** * Function Name: CyXTAL_SetStartup
1549:.\Generated_Source\PSoC5/CyLib.c **** ********************************************************************************
1550:.\Generated_Source\PSoC5/CyLib.c **** *
1551:.\Generated_Source\PSoC5/CyLib.c **** * Summary:
ARM GAS  C:\Users\Yiquing\AppData\Local\Temp\ccsAoMV1.s 			page 59


1552:.\Generated_Source\PSoC5/CyLib.c **** *  Sets the startup settings for the crystal. The logic model outputs a
1553:.\Generated_Source\PSoC5/CyLib.c **** *  frequency (setting + 4) MHz when enabled.
1554:.\Generated_Source\PSoC5/CyLib.c **** *
1555:.\Generated_Source\PSoC5/CyLib.c **** *  This is artificial as the actual frequency is determined by an attached
1556:.\Generated_Source\PSoC5/CyLib.c **** *  external crystal.
1557:.\Generated_Source\PSoC5/CyLib.c **** *
1558:.\Generated_Source\PSoC5/CyLib.c **** * Parameters:
1559:.\Generated_Source\PSoC5/CyLib.c **** *  setting: Valid range [0-31].
1560:.\Generated_Source\PSoC5/CyLib.c **** *   The value is dependent on the frequency and quality of the crystal being
1561:.\Generated_Source\PSoC5/CyLib.c **** *   used. Refer to the device TRM and datasheet for more information.
1562:.\Generated_Source\PSoC5/CyLib.c **** *
1563:.\Generated_Source\PSoC5/CyLib.c **** * Return:
1564:.\Generated_Source\PSoC5/CyLib.c **** *  None
1565:.\Generated_Source\PSoC5/CyLib.c **** *
1566:.\Generated_Source\PSoC5/CyLib.c **** *******************************************************************************/
1567:.\Generated_Source\PSoC5/CyLib.c **** void CyXTAL_SetStartup(uint8 setting) 
1568:.\Generated_Source\PSoC5/CyLib.c **** {
 1622              		.loc 1 1568 0
 1623              		.cfi_startproc
 1624              		@ args = 0, pretend = 0, frame = 0
 1625              		@ frame_needed = 0, uses_anonymous_args = 0
 1626              		@ link register save eliminated.
 1627              	.LVL87:
1569:.\Generated_Source\PSoC5/CyLib.c ****     CY_CLK_XMHZ_CFG0_REG = (CY_CLK_XMHZ_CFG0_REG & ((uint8)(~CY_CLK_XMHZ_CFG0_XCFG_MASK))) |
 1628              		.loc 1 1569 0
 1629 0000 044B     		ldr	r3, .L191
 1630 0002 00F01F00 		and	r0, r0, #31
 1631              	.LVL88:
 1632 0006 1A78     		ldrb	r2, [r3]	@ zero_extendqisi2
 1633 0008 02F0E002 		and	r2, r2, #224
 1634 000c 0243     		orrs	r2, r2, r0
 1635 000e 1A70     		strb	r2, [r3]
 1636 0010 7047     		bx	lr
 1637              	.L192:
 1638 0012 00BF     		.align	2
 1639              	.L191:
 1640 0014 12420040 		.word	1073758738
 1641              		.cfi_endproc
 1642              	.LFE36:
 1643              		.size	CyXTAL_SetStartup, .-CyXTAL_SetStartup
 1644              		.section	.text.CyXTAL_SetFbVoltage,"ax",%progbits
 1645              		.align	1
 1646              		.global	CyXTAL_SetFbVoltage
 1647              		.thumb
 1648              		.thumb_func
 1649              		.type	CyXTAL_SetFbVoltage, %function
 1650              	CyXTAL_SetFbVoltage:
 1651              	.LFB37:
1570:.\Generated_Source\PSoC5/CyLib.c ****                            (setting & CY_CLK_XMHZ_CFG0_XCFG_MASK);
1571:.\Generated_Source\PSoC5/CyLib.c **** }
1572:.\Generated_Source\PSoC5/CyLib.c **** 
1573:.\Generated_Source\PSoC5/CyLib.c **** 
1574:.\Generated_Source\PSoC5/CyLib.c **** 
1575:.\Generated_Source\PSoC5/CyLib.c **** /*******************************************************************************
1576:.\Generated_Source\PSoC5/CyLib.c **** * Function Name: CyXTAL_SetFbVoltage
1577:.\Generated_Source\PSoC5/CyLib.c **** ********************************************************************************
1578:.\Generated_Source\PSoC5/CyLib.c **** *
ARM GAS  C:\Users\Yiquing\AppData\Local\Temp\ccsAoMV1.s 			page 60


1579:.\Generated_Source\PSoC5/CyLib.c **** * Summary:
1580:.\Generated_Source\PSoC5/CyLib.c **** *  Sets the feedback reference voltage to use for the crystal circuit.
1581:.\Generated_Source\PSoC5/CyLib.c **** *  This function is only available for PSoC3 and PSoC 5LP.
1582:.\Generated_Source\PSoC5/CyLib.c **** *
1583:.\Generated_Source\PSoC5/CyLib.c **** * Parameters:
1584:.\Generated_Source\PSoC5/CyLib.c **** *  setting: Valid range [0-15].
1585:.\Generated_Source\PSoC5/CyLib.c **** *  Refer to the device TRM and datasheet for more information.
1586:.\Generated_Source\PSoC5/CyLib.c **** *
1587:.\Generated_Source\PSoC5/CyLib.c **** * Return:
1588:.\Generated_Source\PSoC5/CyLib.c **** *  None
1589:.\Generated_Source\PSoC5/CyLib.c **** *
1590:.\Generated_Source\PSoC5/CyLib.c **** *******************************************************************************/
1591:.\Generated_Source\PSoC5/CyLib.c **** void CyXTAL_SetFbVoltage(uint8 setting) 
1592:.\Generated_Source\PSoC5/CyLib.c **** {
 1652              		.loc 1 1592 0
 1653              		.cfi_startproc
 1654              		@ args = 0, pretend = 0, frame = 0
 1655              		@ frame_needed = 0, uses_anonymous_args = 0
 1656              		@ link register save eliminated.
 1657              	.LVL89:
1593:.\Generated_Source\PSoC5/CyLib.c ****     CY_CLK_XMHZ_CFG1_REG = ((CY_CLK_XMHZ_CFG1_REG & ((uint8)(~CY_CLK_XMHZ_CFG1_VREF_FB_MASK))) |
 1658              		.loc 1 1593 0
 1659 0000 044B     		ldr	r3, .L194
 1660 0002 00F00F00 		and	r0, r0, #15
 1661              	.LVL90:
 1662 0006 1A78     		ldrb	r2, [r3]	@ zero_extendqisi2
 1663 0008 02F0F002 		and	r2, r2, #240
 1664 000c 0243     		orrs	r2, r2, r0
 1665 000e 1A70     		strb	r2, [r3]
 1666 0010 7047     		bx	lr
 1667              	.L195:
 1668 0012 00BF     		.align	2
 1669              	.L194:
 1670 0014 13420040 		.word	1073758739
 1671              		.cfi_endproc
 1672              	.LFE37:
 1673              		.size	CyXTAL_SetFbVoltage, .-CyXTAL_SetFbVoltage
 1674              		.section	.text.CyXTAL_SetWdVoltage,"ax",%progbits
 1675              		.align	1
 1676              		.global	CyXTAL_SetWdVoltage
 1677              		.thumb
 1678              		.thumb_func
 1679              		.type	CyXTAL_SetWdVoltage, %function
 1680              	CyXTAL_SetWdVoltage:
 1681              	.LFB38:
1594:.\Generated_Source\PSoC5/CyLib.c ****                             (setting & CY_CLK_XMHZ_CFG1_VREF_FB_MASK));
1595:.\Generated_Source\PSoC5/CyLib.c **** }
1596:.\Generated_Source\PSoC5/CyLib.c **** 
1597:.\Generated_Source\PSoC5/CyLib.c **** 
1598:.\Generated_Source\PSoC5/CyLib.c **** /*******************************************************************************
1599:.\Generated_Source\PSoC5/CyLib.c **** * Function Name: CyXTAL_SetWdVoltage
1600:.\Generated_Source\PSoC5/CyLib.c **** ********************************************************************************
1601:.\Generated_Source\PSoC5/CyLib.c **** *
1602:.\Generated_Source\PSoC5/CyLib.c **** * Summary:
1603:.\Generated_Source\PSoC5/CyLib.c **** *  Sets the reference voltage used by the watchdog to detect a failure in the
1604:.\Generated_Source\PSoC5/CyLib.c **** *  crystal circuit. This function is only available for PSoC3 and PSoC 5LP.
1605:.\Generated_Source\PSoC5/CyLib.c **** *
ARM GAS  C:\Users\Yiquing\AppData\Local\Temp\ccsAoMV1.s 			page 61


1606:.\Generated_Source\PSoC5/CyLib.c **** * Parameters:
1607:.\Generated_Source\PSoC5/CyLib.c **** *  setting: Valid range [0-7].
1608:.\Generated_Source\PSoC5/CyLib.c **** *  Refer to the device TRM and datasheet for more information.
1609:.\Generated_Source\PSoC5/CyLib.c **** *
1610:.\Generated_Source\PSoC5/CyLib.c **** * Return:
1611:.\Generated_Source\PSoC5/CyLib.c **** *  None
1612:.\Generated_Source\PSoC5/CyLib.c **** *
1613:.\Generated_Source\PSoC5/CyLib.c **** *******************************************************************************/
1614:.\Generated_Source\PSoC5/CyLib.c **** void CyXTAL_SetWdVoltage(uint8 setting) 
1615:.\Generated_Source\PSoC5/CyLib.c **** {
 1682              		.loc 1 1615 0
 1683              		.cfi_startproc
 1684              		@ args = 0, pretend = 0, frame = 0
 1685              		@ frame_needed = 0, uses_anonymous_args = 0
 1686              		@ link register save eliminated.
 1687              	.LVL91:
1616:.\Generated_Source\PSoC5/CyLib.c ****     CY_CLK_XMHZ_CFG1_REG = ((CY_CLK_XMHZ_CFG1_REG & ((uint8)(~CY_CLK_XMHZ_CFG1_VREF_WD_MASK))) |
 1688              		.loc 1 1616 0
 1689 0000 044B     		ldr	r3, .L197
1617:.\Generated_Source\PSoC5/CyLib.c ****                             (((uint8)(setting << 4u)) & CY_CLK_XMHZ_CFG1_VREF_WD_MASK));
 1690              		.loc 1 1617 0
 1691 0002 0001     		lsls	r0, r0, #4
 1692              	.LVL92:
1616:.\Generated_Source\PSoC5/CyLib.c ****     CY_CLK_XMHZ_CFG1_REG = ((CY_CLK_XMHZ_CFG1_REG & ((uint8)(~CY_CLK_XMHZ_CFG1_VREF_WD_MASK))) |
 1693              		.loc 1 1616 0
 1694 0004 1A78     		ldrb	r2, [r3]	@ zero_extendqisi2
 1695 0006 00F07000 		and	r0, r0, #112
 1696 000a 02F08F02 		and	r2, r2, #143
 1697 000e 0243     		orrs	r2, r2, r0
 1698 0010 1A70     		strb	r2, [r3]
 1699 0012 7047     		bx	lr
 1700              	.L198:
 1701              		.align	2
 1702              	.L197:
 1703 0014 13420040 		.word	1073758739
 1704              		.cfi_endproc
 1705              	.LFE38:
 1706              		.size	CyXTAL_SetWdVoltage, .-CyXTAL_SetWdVoltage
 1707              		.section	.text.CyHalt,"ax",%progbits
 1708              		.align	1
 1709              		.global	CyHalt
 1710              		.thumb
 1711              		.thumb_func
 1712              		.type	CyHalt, %function
 1713              	CyHalt:
 1714              	.LFB39:
1618:.\Generated_Source\PSoC5/CyLib.c **** }
1619:.\Generated_Source\PSoC5/CyLib.c **** 
1620:.\Generated_Source\PSoC5/CyLib.c **** 
1621:.\Generated_Source\PSoC5/CyLib.c **** /*******************************************************************************
1622:.\Generated_Source\PSoC5/CyLib.c **** * Function Name: CyHalt
1623:.\Generated_Source\PSoC5/CyLib.c **** ********************************************************************************
1624:.\Generated_Source\PSoC5/CyLib.c **** *
1625:.\Generated_Source\PSoC5/CyLib.c **** * Summary:
1626:.\Generated_Source\PSoC5/CyLib.c **** *  Halts the CPU.
1627:.\Generated_Source\PSoC5/CyLib.c **** *
1628:.\Generated_Source\PSoC5/CyLib.c **** * Parameters:
ARM GAS  C:\Users\Yiquing\AppData\Local\Temp\ccsAoMV1.s 			page 62


1629:.\Generated_Source\PSoC5/CyLib.c **** *  uint8 reason: Value to be used during debugging.
1630:.\Generated_Source\PSoC5/CyLib.c **** *
1631:.\Generated_Source\PSoC5/CyLib.c **** * Return:
1632:.\Generated_Source\PSoC5/CyLib.c **** *  None
1633:.\Generated_Source\PSoC5/CyLib.c **** *
1634:.\Generated_Source\PSoC5/CyLib.c **** *******************************************************************************/
1635:.\Generated_Source\PSoC5/CyLib.c **** void CyHalt(uint8 reason) CYREENTRANT
1636:.\Generated_Source\PSoC5/CyLib.c **** {
 1715              		.loc 1 1636 0
 1716              		.cfi_startproc
 1717              		@ args = 0, pretend = 0, frame = 0
 1718              		@ frame_needed = 0, uses_anonymous_args = 0
 1719              		@ link register save eliminated.
 1720              	.LVL93:
1637:.\Generated_Source\PSoC5/CyLib.c ****     if(0u != reason)
1638:.\Generated_Source\PSoC5/CyLib.c ****     {
1639:.\Generated_Source\PSoC5/CyLib.c ****         /* To remove unreferenced local variable warning */
1640:.\Generated_Source\PSoC5/CyLib.c ****     }
1641:.\Generated_Source\PSoC5/CyLib.c **** 
1642:.\Generated_Source\PSoC5/CyLib.c ****     #if defined (__ARMCC_VERSION)
1643:.\Generated_Source\PSoC5/CyLib.c ****         __breakpoint(0x0);
1644:.\Generated_Source\PSoC5/CyLib.c ****     #elif defined(__GNUC__) || defined (__ICCARM__)
1645:.\Generated_Source\PSoC5/CyLib.c ****         __asm("    bkpt    1");
 1721              		.loc 1 1645 0
 1722              	@ 1645 ".\Generated_Source\PSoC5\CyLib.c" 1
 1723 0000 01BE     		    bkpt    1
 1724              	@ 0 "" 2
 1725              		.thumb
 1726 0002 7047     		bx	lr
 1727              		.cfi_endproc
 1728              	.LFE39:
 1729              		.size	CyHalt, .-CyHalt
 1730              		.section	.text.CySoftwareReset,"ax",%progbits
 1731              		.align	1
 1732              		.global	CySoftwareReset
 1733              		.thumb
 1734              		.thumb_func
 1735              		.type	CySoftwareReset, %function
 1736              	CySoftwareReset:
 1737              	.LFB40:
1646:.\Generated_Source\PSoC5/CyLib.c ****     #elif defined(__C51__)
1647:.\Generated_Source\PSoC5/CyLib.c ****         CYDEV_HALT_CPU;
1648:.\Generated_Source\PSoC5/CyLib.c ****     #endif  /* (__ARMCC_VERSION) */
1649:.\Generated_Source\PSoC5/CyLib.c **** }
1650:.\Generated_Source\PSoC5/CyLib.c **** 
1651:.\Generated_Source\PSoC5/CyLib.c **** 
1652:.\Generated_Source\PSoC5/CyLib.c **** /*******************************************************************************
1653:.\Generated_Source\PSoC5/CyLib.c **** * Function Name: CySoftwareReset
1654:.\Generated_Source\PSoC5/CyLib.c **** ********************************************************************************
1655:.\Generated_Source\PSoC5/CyLib.c **** *
1656:.\Generated_Source\PSoC5/CyLib.c **** * Summary:
1657:.\Generated_Source\PSoC5/CyLib.c **** *  Forces a device software reset.
1658:.\Generated_Source\PSoC5/CyLib.c **** *
1659:.\Generated_Source\PSoC5/CyLib.c **** * Parameters:
1660:.\Generated_Source\PSoC5/CyLib.c **** *  None
1661:.\Generated_Source\PSoC5/CyLib.c **** *
1662:.\Generated_Source\PSoC5/CyLib.c **** * Return:
ARM GAS  C:\Users\Yiquing\AppData\Local\Temp\ccsAoMV1.s 			page 63


1663:.\Generated_Source\PSoC5/CyLib.c **** *  None
1664:.\Generated_Source\PSoC5/CyLib.c **** *
1665:.\Generated_Source\PSoC5/CyLib.c **** *******************************************************************************/
1666:.\Generated_Source\PSoC5/CyLib.c **** void CySoftwareReset(void) 
1667:.\Generated_Source\PSoC5/CyLib.c **** {
 1738              		.loc 1 1667 0
 1739              		.cfi_startproc
 1740              		@ args = 0, pretend = 0, frame = 0
 1741              		@ frame_needed = 0, uses_anonymous_args = 0
 1742              		@ link register save eliminated.
1668:.\Generated_Source\PSoC5/CyLib.c ****     CY_LIB_RESET_CR2_REG |= CY_LIB_RESET_CR2_RESET;
 1743              		.loc 1 1668 0
 1744 0000 024B     		ldr	r3, .L201
 1745 0002 1A78     		ldrb	r2, [r3]	@ zero_extendqisi2
 1746 0004 42F00102 		orr	r2, r2, #1
 1747 0008 1A70     		strb	r2, [r3]
 1748 000a 7047     		bx	lr
 1749              	.L202:
 1750              		.align	2
 1751              	.L201:
 1752 000c F6460040 		.word	1073759990
 1753              		.cfi_endproc
 1754              	.LFE40:
 1755              		.size	CySoftwareReset, .-CySoftwareReset
 1756              		.section	.text.CyDelay,"ax",%progbits
 1757              		.align	1
 1758              		.global	CyDelay
 1759              		.thumb
 1760              		.thumb_func
 1761              		.type	CyDelay, %function
 1762              	CyDelay:
 1763              	.LFB41:
1669:.\Generated_Source\PSoC5/CyLib.c **** }
1670:.\Generated_Source\PSoC5/CyLib.c **** 
1671:.\Generated_Source\PSoC5/CyLib.c **** 
1672:.\Generated_Source\PSoC5/CyLib.c **** /*******************************************************************************
1673:.\Generated_Source\PSoC5/CyLib.c **** * Function Name: CyDelay
1674:.\Generated_Source\PSoC5/CyLib.c **** ********************************************************************************
1675:.\Generated_Source\PSoC5/CyLib.c **** *
1676:.\Generated_Source\PSoC5/CyLib.c **** * Summary:
1677:.\Generated_Source\PSoC5/CyLib.c **** *  Blocks for milliseconds.
1678:.\Generated_Source\PSoC5/CyLib.c **** *
1679:.\Generated_Source\PSoC5/CyLib.c **** *  Note:
1680:.\Generated_Source\PSoC5/CyLib.c **** *  CyDelay has been implemented with the instruction cache assumed enabled. When
1681:.\Generated_Source\PSoC5/CyLib.c **** *  the instruction cache is disabled on PSoC5, CyDelay will be two times larger.
1682:.\Generated_Source\PSoC5/CyLib.c **** *  For example, with instruction cache disabled CyDelay(100) would result in
1683:.\Generated_Source\PSoC5/CyLib.c **** *  about 200 ms delay instead of 100 ms.
1684:.\Generated_Source\PSoC5/CyLib.c **** *
1685:.\Generated_Source\PSoC5/CyLib.c **** * Parameters:
1686:.\Generated_Source\PSoC5/CyLib.c **** *  milliseconds: number of milliseconds to delay.
1687:.\Generated_Source\PSoC5/CyLib.c **** *
1688:.\Generated_Source\PSoC5/CyLib.c **** * Return:
1689:.\Generated_Source\PSoC5/CyLib.c **** *   None
1690:.\Generated_Source\PSoC5/CyLib.c **** *
1691:.\Generated_Source\PSoC5/CyLib.c **** *******************************************************************************/
1692:.\Generated_Source\PSoC5/CyLib.c **** void CyDelay(uint32 milliseconds) CYREENTRANT
1693:.\Generated_Source\PSoC5/CyLib.c **** {
ARM GAS  C:\Users\Yiquing\AppData\Local\Temp\ccsAoMV1.s 			page 64


 1764              		.loc 1 1693 0
 1765              		.cfi_startproc
 1766              		@ args = 0, pretend = 0, frame = 0
 1767              		@ frame_needed = 0, uses_anonymous_args = 0
 1768              	.LVL94:
 1769 0000 10B5     		push	{r4, lr}
 1770              		.cfi_def_cfa_offset 8
 1771              		.cfi_offset 4, -8
 1772              		.cfi_offset 14, -4
 1773 0002 0446     		mov	r4, r0
 1774              	.LVL95:
 1775              	.L204:
1694:.\Generated_Source\PSoC5/CyLib.c ****     while (milliseconds > 32768u)
 1776              		.loc 1 1694 0 discriminator 1
 1777 0004 B4F5004F 		cmp	r4, #32768
 1778 0008 064B     		ldr	r3, .L207
 1779 000a 05D9     		bls	.L206
1695:.\Generated_Source\PSoC5/CyLib.c ****     {
1696:.\Generated_Source\PSoC5/CyLib.c ****         /***********************************************************************
1697:.\Generated_Source\PSoC5/CyLib.c ****         * This loop prevents overflow.At 100MHz, milliseconds * delay_freq_khz
1698:.\Generated_Source\PSoC5/CyLib.c ****         * overflows at about 42 seconds.
1699:.\Generated_Source\PSoC5/CyLib.c ****         ***********************************************************************/
1700:.\Generated_Source\PSoC5/CyLib.c ****         CyDelayCycles(cydelay_32k_ms);
 1780              		.loc 1 1700 0
 1781 000c 1868     		ldr	r0, [r3]
 1782 000e FFF7FEFF 		bl	CyDelayCycles
 1783              	.LVL96:
1701:.\Generated_Source\PSoC5/CyLib.c ****         milliseconds = ((uint32)(milliseconds - 32768u));
 1784              		.loc 1 1701 0
 1785 0012 A4F50044 		sub	r4, r4, #32768
 1786              	.LVL97:
 1787 0016 F5E7     		b	.L204
 1788              	.L206:
1702:.\Generated_Source\PSoC5/CyLib.c ****     }
1703:.\Generated_Source\PSoC5/CyLib.c **** 
1704:.\Generated_Source\PSoC5/CyLib.c ****     CyDelayCycles(milliseconds * cydelay_freq_khz);
 1789              		.loc 1 1704 0
 1790 0018 5868     		ldr	r0, [r3, #4]
 1791 001a 6043     		muls	r0, r4, r0
1705:.\Generated_Source\PSoC5/CyLib.c **** }
 1792              		.loc 1 1705 0
 1793 001c BDE81040 		pop	{r4, lr}
 1794              	.LVL98:
1704:.\Generated_Source\PSoC5/CyLib.c ****     CyDelayCycles(milliseconds * cydelay_freq_khz);
 1795              		.loc 1 1704 0
 1796 0020 FFF7FEBF 		b	CyDelayCycles
 1797              	.LVL99:
 1798              	.L208:
 1799              		.align	2
 1800              	.L207:
 1801 0024 00000000 		.word	.LANCHOR0
 1802              		.cfi_endproc
 1803              	.LFE41:
 1804              		.size	CyDelay, .-CyDelay
 1805              		.section	.text.CyDelayUs,"ax",%progbits
 1806              		.align	1
 1807              		.global	CyDelayUs
ARM GAS  C:\Users\Yiquing\AppData\Local\Temp\ccsAoMV1.s 			page 65


 1808              		.thumb
 1809              		.thumb_func
 1810              		.type	CyDelayUs, %function
 1811              	CyDelayUs:
 1812              	.LFB42:
1706:.\Generated_Source\PSoC5/CyLib.c **** 
1707:.\Generated_Source\PSoC5/CyLib.c **** 
1708:.\Generated_Source\PSoC5/CyLib.c **** #if(!CY_PSOC3)
1709:.\Generated_Source\PSoC5/CyLib.c **** 
1710:.\Generated_Source\PSoC5/CyLib.c ****     /* For PSoC3 devices function is defined in CyBootAsmKeil.a51 file */
1711:.\Generated_Source\PSoC5/CyLib.c **** 
1712:.\Generated_Source\PSoC5/CyLib.c ****     /*******************************************************************************
1713:.\Generated_Source\PSoC5/CyLib.c ****     * Function Name: CyDelayUs
1714:.\Generated_Source\PSoC5/CyLib.c ****     ********************************************************************************
1715:.\Generated_Source\PSoC5/CyLib.c ****     *
1716:.\Generated_Source\PSoC5/CyLib.c ****     * Summary:
1717:.\Generated_Source\PSoC5/CyLib.c ****     *  Blocks for microseconds.
1718:.\Generated_Source\PSoC5/CyLib.c ****     *
1719:.\Generated_Source\PSoC5/CyLib.c ****     *  Note:
1720:.\Generated_Source\PSoC5/CyLib.c ****     *   CyDelay has been implemented with the instruction cache assumed enabled.
1721:.\Generated_Source\PSoC5/CyLib.c ****     *   When instruction cache is disabled on PSoC5, CyDelayUs will be two times
1722:.\Generated_Source\PSoC5/CyLib.c ****     *   larger. Ex: With instruction cache disabled CyDelayUs(100) would result
1723:.\Generated_Source\PSoC5/CyLib.c ****     *   in about 200us delay instead of 100us.
1724:.\Generated_Source\PSoC5/CyLib.c ****     *
1725:.\Generated_Source\PSoC5/CyLib.c ****     * Parameters:
1726:.\Generated_Source\PSoC5/CyLib.c ****     *  uint16 microseconds: number of microseconds to delay.
1727:.\Generated_Source\PSoC5/CyLib.c ****     *
1728:.\Generated_Source\PSoC5/CyLib.c ****     * Return:
1729:.\Generated_Source\PSoC5/CyLib.c ****     *  None
1730:.\Generated_Source\PSoC5/CyLib.c ****     *
1731:.\Generated_Source\PSoC5/CyLib.c ****     * Side Effects:
1732:.\Generated_Source\PSoC5/CyLib.c ****     *  CyDelayUS has been implemented with the instruction cache assumed enabled.
1733:.\Generated_Source\PSoC5/CyLib.c ****     *  When the instruction cache is disabled on PSoC 5, CyDelayUs will be two times
1734:.\Generated_Source\PSoC5/CyLib.c ****     *  larger. For example, with the instruction cache disabled CyDelayUs(100) would
1735:.\Generated_Source\PSoC5/CyLib.c ****     *  result in about 200 us delay instead of 100 us.
1736:.\Generated_Source\PSoC5/CyLib.c ****     *
1737:.\Generated_Source\PSoC5/CyLib.c ****     *  If the bus clock frequency is a small non-integer number, the actual delay
1738:.\Generated_Source\PSoC5/CyLib.c ****     *  can be up to twice as long as the nominal value. The actual delay cannot be
1739:.\Generated_Source\PSoC5/CyLib.c ****     *  shorter than the nominal one.
1740:.\Generated_Source\PSoC5/CyLib.c ****     *******************************************************************************/
1741:.\Generated_Source\PSoC5/CyLib.c ****     void CyDelayUs(uint16 microseconds) CYREENTRANT
1742:.\Generated_Source\PSoC5/CyLib.c ****     {
 1813              		.loc 1 1742 0
 1814              		.cfi_startproc
 1815              		@ args = 0, pretend = 0, frame = 0
 1816              		@ frame_needed = 0, uses_anonymous_args = 0
 1817              		@ link register save eliminated.
 1818              	.LVL100:
1743:.\Generated_Source\PSoC5/CyLib.c ****         CyDelayCycles((uint32)microseconds * cydelay_freq_mhz);
 1819              		.loc 1 1743 0
 1820 0000 024B     		ldr	r3, .L210
 1821 0002 1B7A     		ldrb	r3, [r3, #8]	@ zero_extendqisi2
 1822 0004 5843     		muls	r0, r3, r0
 1823              	.LVL101:
 1824 0006 FFF7FEBF 		b	CyDelayCycles
 1825              	.LVL102:
 1826              	.L211:
ARM GAS  C:\Users\Yiquing\AppData\Local\Temp\ccsAoMV1.s 			page 66


 1827 000a 00BF     		.align	2
 1828              	.L210:
 1829 000c 00000000 		.word	.LANCHOR0
 1830              		.cfi_endproc
 1831              	.LFE42:
 1832              		.size	CyDelayUs, .-CyDelayUs
 1833              		.section	.text.CyXTAL_32KHZ_SetPowerMode,"ax",%progbits
 1834              		.align	1
 1835              		.global	CyXTAL_32KHZ_SetPowerMode
 1836              		.thumb
 1837              		.thumb_func
 1838              		.type	CyXTAL_32KHZ_SetPowerMode, %function
 1839              	CyXTAL_32KHZ_SetPowerMode:
 1840              	.LFB28:
1279:.\Generated_Source\PSoC5/CyLib.c **** {
 1841              		.loc 1 1279 0
 1842              		.cfi_startproc
 1843              		@ args = 0, pretend = 0, frame = 0
 1844              		@ frame_needed = 0, uses_anonymous_args = 0
 1845              	.LVL103:
 1846 0000 70B5     		push	{r4, r5, r6, lr}
 1847              		.cfi_def_cfa_offset 16
 1848              		.cfi_offset 4, -16
 1849              		.cfi_offset 5, -12
 1850              		.cfi_offset 6, -8
 1851              		.cfi_offset 14, -4
1280:.\Generated_Source\PSoC5/CyLib.c ****     uint8 state = (0u != (CY_CLK_XTAL32_CR_REG & CY_CLK_XTAL32_CR_LPM)) ? 1u : 0u;
 1852              		.loc 1 1280 0
 1853 0002 174C     		ldr	r4, .L216
1282:.\Generated_Source\PSoC5/CyLib.c ****     CY_CLK_XTAL32_TST_REG = CY_CLK_XTAL32_TST_DEFAULT;
 1854              		.loc 1 1282 0
 1855 0004 174B     		ldr	r3, .L216+4
1280:.\Generated_Source\PSoC5/CyLib.c ****     uint8 state = (0u != (CY_CLK_XTAL32_CR_REG & CY_CLK_XTAL32_CR_LPM)) ? 1u : 0u;
 1856              		.loc 1 1280 0
 1857 0006 2678     		ldrb	r6, [r4]	@ zero_extendqisi2
1282:.\Generated_Source\PSoC5/CyLib.c ****     CY_CLK_XTAL32_TST_REG = CY_CLK_XTAL32_TST_DEFAULT;
 1858              		.loc 1 1282 0
 1859 0008 F321     		movs	r1, #243
1284:.\Generated_Source\PSoC5/CyLib.c ****     if(1u == mode)
 1860              		.loc 1 1284 0
 1861 000a 0128     		cmp	r0, #1
1282:.\Generated_Source\PSoC5/CyLib.c ****     CY_CLK_XTAL32_TST_REG = CY_CLK_XTAL32_TST_DEFAULT;
 1862              		.loc 1 1282 0
 1863 000c 1970     		strb	r1, [r3]
1280:.\Generated_Source\PSoC5/CyLib.c ****     uint8 state = (0u != (CY_CLK_XTAL32_CR_REG & CY_CLK_XTAL32_CR_LPM)) ? 1u : 0u;
 1864              		.loc 1 1280 0
 1865 000e C6F34006 		ubfx	r6, r6, #1, #1
 1866              	.LVL104:
 1867 0012 03F28E33 		addw	r3, r3, #910
 1868 0016 144D     		ldr	r5, .L216+8
1284:.\Generated_Source\PSoC5/CyLib.c ****     if(1u == mode)
 1869              		.loc 1 1284 0
 1870 0018 10D1     		bne	.L213
1287:.\Generated_Source\PSoC5/CyLib.c ****         CY_CLK_XTAL32_TR_REG  = CY_CLK_XTAL32_TR_LOW_POWER;
 1871              		.loc 1 1287 0
 1872 001a 1870     		strb	r0, [r3]
1288:.\Generated_Source\PSoC5/CyLib.c ****         CyDelayUs(10u);
ARM GAS  C:\Users\Yiquing\AppData\Local\Temp\ccsAoMV1.s 			page 67


 1873              		.loc 1 1288 0
 1874 001c 0A20     		movs	r0, #10
 1875              	.LVL105:
 1876 001e FFF7FEFF 		bl	CyDelayUs
 1877              	.LVL106:
1289:.\Generated_Source\PSoC5/CyLib.c ****         CY_CLK_XTAL32_CFG_REG = (CY_CLK_XTAL32_CFG_REG & ((uint8)(~CY_CLK_XTAL32_CFG_LP_MASK))) |
 1878              		.loc 1 1289 0
 1879 0022 2B78     		ldrb	r3, [r5]	@ zero_extendqisi2
1291:.\Generated_Source\PSoC5/CyLib.c ****         CyDelayUs(20u);
 1880              		.loc 1 1291 0
 1881 0024 1420     		movs	r0, #20
1289:.\Generated_Source\PSoC5/CyLib.c ****         CY_CLK_XTAL32_CFG_REG = (CY_CLK_XTAL32_CFG_REG & ((uint8)(~CY_CLK_XTAL32_CFG_LP_MASK))) |
 1882              		.loc 1 1289 0
 1883 0026 03F0F303 		and	r3, r3, #243
 1884 002a 43F00803 		orr	r3, r3, #8
 1885 002e 2B70     		strb	r3, [r5]
1291:.\Generated_Source\PSoC5/CyLib.c ****         CyDelayUs(20u);
 1886              		.loc 1 1291 0
 1887 0030 FFF7FEFF 		bl	CyDelayUs
 1888              	.LVL107:
1292:.\Generated_Source\PSoC5/CyLib.c ****         CY_CLK_XTAL32_CR_REG |= CY_CLK_XTAL32_CR_LPM;
 1889              		.loc 1 1292 0
 1890 0034 2378     		ldrb	r3, [r4]	@ zero_extendqisi2
 1891 0036 43F00203 		orr	r3, r3, #2
 1892 003a 0DE0     		b	.L215
 1893              	.LVL108:
 1894              	.L213:
1297:.\Generated_Source\PSoC5/CyLib.c ****         CY_CLK_XTAL32_TR_REG  = CY_CLK_XTAL32_TR_HIGH_POWER;
 1895              		.loc 1 1297 0
 1896 003c 0622     		movs	r2, #6
 1897 003e 1A70     		strb	r2, [r3]
1298:.\Generated_Source\PSoC5/CyLib.c ****         CyDelayUs(10u);
 1898              		.loc 1 1298 0
 1899 0040 0A20     		movs	r0, #10
 1900              	.LVL109:
 1901 0042 FFF7FEFF 		bl	CyDelayUs
 1902              	.LVL110:
1299:.\Generated_Source\PSoC5/CyLib.c ****         CY_CLK_XTAL32_CFG_REG = (CY_CLK_XTAL32_CFG_REG & ((uint8)(~CY_CLK_XTAL32_CFG_LP_MASK))) |
 1903              		.loc 1 1299 0
 1904 0046 2B78     		ldrb	r3, [r5]	@ zero_extendqisi2
 1905 0048 03F0F303 		and	r3, r3, #243
 1906 004c 43F00403 		orr	r3, r3, #4
 1907 0050 2B70     		strb	r3, [r5]
1301:.\Generated_Source\PSoC5/CyLib.c ****         CY_CLK_XTAL32_CR_REG &= ((uint8)(~CY_CLK_XTAL32_CR_LPM));
 1908              		.loc 1 1301 0
 1909 0052 2378     		ldrb	r3, [r4]	@ zero_extendqisi2
 1910 0054 03F0FD03 		and	r3, r3, #253
 1911              	.L215:
 1912 0058 2370     		strb	r3, [r4]
1305:.\Generated_Source\PSoC5/CyLib.c **** }
 1913              		.loc 1 1305 0
 1914 005a 3046     		mov	r0, r6
 1915 005c 70BD     		pop	{r4, r5, r6, pc}
 1916              	.LVL111:
 1917              	.L217:
 1918 005e 00BF     		.align	2
 1919              	.L216:
ARM GAS  C:\Users\Yiquing\AppData\Local\Temp\ccsAoMV1.s 			page 68


 1920 0060 08430040 		.word	1073758984
 1921 0064 0A430040 		.word	1073758986
 1922 0068 09430040 		.word	1073758985
 1923              		.cfi_endproc
 1924              	.LFE28:
 1925              		.size	CyXTAL_32KHZ_SetPowerMode, .-CyXTAL_32KHZ_SetPowerMode
 1926              		.section	.text.CyXTAL_32KHZ_Start,"ax",%progbits
 1927              		.align	1
 1928              		.global	CyXTAL_32KHZ_Start
 1929              		.thumb
 1930              		.thumb_func
 1931              		.type	CyXTAL_32KHZ_Start, %function
 1932              	CyXTAL_32KHZ_Start:
 1933              	.LFB25:
1180:.\Generated_Source\PSoC5/CyLib.c **** {
 1934              		.loc 1 1180 0
 1935              		.cfi_startproc
 1936              		@ args = 0, pretend = 0, frame = 8
 1937              		@ frame_needed = 0, uses_anonymous_args = 0
 1938 0000 13B5     		push	{r0, r1, r4, lr}
 1939              		.cfi_def_cfa_offset 16
 1940              		.cfi_offset 0, -16
 1941              		.cfi_offset 1, -12
 1942              		.cfi_offset 4, -8
 1943              		.cfi_offset 14, -4
1183:.\Generated_Source\PSoC5/CyLib.c ****     CY_CLK_XTAL32_TST_REG = CY_CLK_XTAL32_TST_DEFAULT;
 1944              		.loc 1 1183 0
 1945 0002 184B     		ldr	r3, .L223
 1946 0004 F322     		movs	r2, #243
 1947 0006 1A70     		strb	r2, [r3]
1184:.\Generated_Source\PSoC5/CyLib.c ****     CY_CLK_XTAL32_TR_REG  = CY_CLK_XTAL32_TR_STARTUP;
 1948              		.loc 1 1184 0
 1949 0008 0322     		movs	r2, #3
 1950 000a 83F88E23 		strb	r2, [r3, #910]
1185:.\Generated_Source\PSoC5/CyLib.c ****     CY_CLK_XTAL32_CFG_REG = (CY_CLK_XTAL32_CFG_REG & ((uint8)(~CY_CLK_XTAL32_CFG_LP_MASK))) |
 1951              		.loc 1 1185 0
 1952 000e 013B     		subs	r3, r3, #1
 1953 0010 1A78     		ldrb	r2, [r3]	@ zero_extendqisi2
 1954 0012 02F0F302 		and	r2, r2, #243
 1955 0016 42F00402 		orr	r2, r2, #4
 1956 001a 1A70     		strb	r2, [r3]
1193:.\Generated_Source\PSoC5/CyLib.c ****     CY_CLK_XTAL32_CR_REG |= CY_CLK_XTAL32_CR_EN;
 1957              		.loc 1 1193 0
 1958 001c 13F8012C 		ldrb	r2, [r3, #-1]	@ zero_extendqisi2
 1959 0020 42F00102 		orr	r2, r2, #1
 1960 0024 03F8012C 		strb	r2, [r3, #-1]
 1961 0028 013B     		subs	r3, r3, #1
1195:.\Generated_Source\PSoC5/CyLib.c ****     for (i = 1000u; i > 0u; i--)
 1962              		.loc 1 1195 0
 1963 002a 4FF47A72 		mov	r2, #1000
 1964 002e ADF80620 		strh	r2, [sp, #6]	@ movhi
 1965 0032 1C46     		mov	r4, r3
 1966              	.L219:
1195:.\Generated_Source\PSoC5/CyLib.c ****     for (i = 1000u; i > 0u; i--)
 1967              		.loc 1 1195 0 is_stmt 0 discriminator 1
 1968 0034 BDF80630 		ldrh	r3, [sp, #6]
 1969 0038 9BB2     		uxth	r3, r3
ARM GAS  C:\Users\Yiquing\AppData\Local\Temp\ccsAoMV1.s 			page 69


 1970 003a 83B1     		cbz	r3, .L218
 1971              	.LBB20:
 1972              	.LBB21:
1256:.\Generated_Source\PSoC5/CyLib.c ****     return(CY_CLK_XTAL32_CR_REG & CY_XTAL32K_ANA_STAT);
 1973              		.loc 1 1256 0 is_stmt 1
 1974 003c 2378     		ldrb	r3, [r4]	@ zero_extendqisi2
 1975              	.LBE21:
 1976              	.LBE20:
1197:.\Generated_Source\PSoC5/CyLib.c ****         if(0u != (CyXTAL_32KHZ_ReadStatus() & CY_XTAL32K_ANA_STAT))
 1977              		.loc 1 1197 0
 1978 003e 9B06     		lsls	r3, r3, #26
 1979 0040 03D5     		bpl	.L220
1200:.\Generated_Source\PSoC5/CyLib.c ****             (void) CyXTAL_32KHZ_SetPowerMode(0u);
 1980              		.loc 1 1200 0
 1981 0042 0020     		movs	r0, #0
 1982 0044 FFF7FEFF 		bl	CyXTAL_32KHZ_SetPowerMode
 1983              	.LVL112:
1202:.\Generated_Source\PSoC5/CyLib.c ****             break;
 1984              		.loc 1 1202 0
 1985 0048 09E0     		b	.L218
 1986              	.L220:
1204:.\Generated_Source\PSoC5/CyLib.c ****         CyDelayUs(1u);
 1987              		.loc 1 1204 0
 1988 004a 0120     		movs	r0, #1
 1989 004c FFF7FEFF 		bl	CyDelayUs
 1990              	.LVL113:
1195:.\Generated_Source\PSoC5/CyLib.c ****     for (i = 1000u; i > 0u; i--)
 1991              		.loc 1 1195 0
 1992 0050 BDF80630 		ldrh	r3, [sp, #6]
 1993 0054 013B     		subs	r3, r3, #1
 1994 0056 9BB2     		uxth	r3, r3
 1995 0058 ADF80630 		strh	r3, [sp, #6]	@ movhi
 1996 005c EAE7     		b	.L219
 1997              	.L218:
1206:.\Generated_Source\PSoC5/CyLib.c **** }
 1998              		.loc 1 1206 0
 1999 005e 02B0     		add	sp, sp, #8
 2000              		@ sp needed
 2001 0060 10BD     		pop	{r4, pc}
 2002              	.L224:
 2003 0062 00BF     		.align	2
 2004              	.L223:
 2005 0064 0A430040 		.word	1073758986
 2006              		.cfi_endproc
 2007              	.LFE25:
 2008              		.size	CyXTAL_32KHZ_Start, .-CyXTAL_32KHZ_Start
 2009              		.section	.text.CyDelayFreq,"ax",%progbits
 2010              		.align	1
 2011              		.global	CyDelayFreq
 2012              		.thumb
 2013              		.thumb_func
 2014              		.type	CyDelayFreq, %function
 2015              	CyDelayFreq:
 2016              	.LFB43:
1744:.\Generated_Source\PSoC5/CyLib.c ****     }
1745:.\Generated_Source\PSoC5/CyLib.c **** 
1746:.\Generated_Source\PSoC5/CyLib.c **** #endif  /* (!CY_PSOC3) */
ARM GAS  C:\Users\Yiquing\AppData\Local\Temp\ccsAoMV1.s 			page 70


1747:.\Generated_Source\PSoC5/CyLib.c **** 
1748:.\Generated_Source\PSoC5/CyLib.c **** 
1749:.\Generated_Source\PSoC5/CyLib.c **** /*******************************************************************************
1750:.\Generated_Source\PSoC5/CyLib.c **** * Function Name: CyDelayFreq
1751:.\Generated_Source\PSoC5/CyLib.c **** ********************************************************************************
1752:.\Generated_Source\PSoC5/CyLib.c **** *
1753:.\Generated_Source\PSoC5/CyLib.c **** * Summary:
1754:.\Generated_Source\PSoC5/CyLib.c **** *  Sets the clock frequency for CyDelay.
1755:.\Generated_Source\PSoC5/CyLib.c **** *
1756:.\Generated_Source\PSoC5/CyLib.c **** * Parameters:
1757:.\Generated_Source\PSoC5/CyLib.c **** *  freq: The frequency of the bus clock in Hertz.
1758:.\Generated_Source\PSoC5/CyLib.c **** *
1759:.\Generated_Source\PSoC5/CyLib.c **** * Return:
1760:.\Generated_Source\PSoC5/CyLib.c **** *  None
1761:.\Generated_Source\PSoC5/CyLib.c **** *
1762:.\Generated_Source\PSoC5/CyLib.c **** *******************************************************************************/
1763:.\Generated_Source\PSoC5/CyLib.c **** void CyDelayFreq(uint32 freq) CYREENTRANT
1764:.\Generated_Source\PSoC5/CyLib.c **** {
 2017              		.loc 1 1764 0
 2018              		.cfi_startproc
 2019              		@ args = 0, pretend = 0, frame = 0
 2020              		@ frame_needed = 0, uses_anonymous_args = 0
 2021              		@ link register save eliminated.
 2022              	.LVL114:
 2023 0000 0C4B     		ldr	r3, .L228
1765:.\Generated_Source\PSoC5/CyLib.c ****     if (freq != 0u)
 2024              		.loc 1 1765 0
 2025 0002 08B1     		cbz	r0, .L226
1766:.\Generated_Source\PSoC5/CyLib.c ****     {
1767:.\Generated_Source\PSoC5/CyLib.c ****         cydelay_freq_hz = freq;
 2026              		.loc 1 1767 0
 2027 0004 D860     		str	r0, [r3, #12]
 2028 0006 01E0     		b	.L227
 2029              	.L226:
1768:.\Generated_Source\PSoC5/CyLib.c ****     }
1769:.\Generated_Source\PSoC5/CyLib.c ****     else
1770:.\Generated_Source\PSoC5/CyLib.c ****     {
1771:.\Generated_Source\PSoC5/CyLib.c ****         cydelay_freq_hz = BCLK__BUS_CLK__HZ;
 2030              		.loc 1 1771 0
 2031 0008 0B4A     		ldr	r2, .L228+4
 2032 000a DA60     		str	r2, [r3, #12]
 2033              	.L227:
1772:.\Generated_Source\PSoC5/CyLib.c ****     }
1773:.\Generated_Source\PSoC5/CyLib.c **** 
1774:.\Generated_Source\PSoC5/CyLib.c ****     cydelay_freq_mhz = (uint8)((cydelay_freq_hz + 999999u) / 1000000u);
 2034              		.loc 1 1774 0
 2035 000c D968     		ldr	r1, [r3, #12]
 2036 000e 0B48     		ldr	r0, .L228+8
 2037              	.LVL115:
 2038 0010 01F57422 		add	r2, r1, #999424
 2039 0014 02F23F22 		addw	r2, r2, #575
 2040 0018 B2FBF0F2 		udiv	r2, r2, r0
 2041 001c 1A72     		strb	r2, [r3, #8]
1775:.\Generated_Source\PSoC5/CyLib.c ****     cydelay_freq_khz = (cydelay_freq_hz + 999u) / 1000u;
 2042              		.loc 1 1775 0
 2043 001e 4FF47A70 		mov	r0, #1000
 2044 0022 01F2E732 		addw	r2, r1, #999
ARM GAS  C:\Users\Yiquing\AppData\Local\Temp\ccsAoMV1.s 			page 71


 2045 0026 B2FBF0F2 		udiv	r2, r2, r0
 2046 002a 5A60     		str	r2, [r3, #4]
1776:.\Generated_Source\PSoC5/CyLib.c ****     cydelay_32k_ms   = 32768u * cydelay_freq_khz;
 2047              		.loc 1 1776 0
 2048 002c D203     		lsls	r2, r2, #15
 2049 002e 1A60     		str	r2, [r3]
 2050 0030 7047     		bx	lr
 2051              	.L229:
 2052 0032 00BF     		.align	2
 2053              	.L228:
 2054 0034 00000000 		.word	.LANCHOR0
 2055 0038 006CDC02 		.word	48000000
 2056 003c 40420F00 		.word	1000000
 2057              		.cfi_endproc
 2058              	.LFE43:
 2059              		.size	CyDelayFreq, .-CyDelayFreq
 2060              		.section	.text.CyWdtStart,"ax",%progbits
 2061              		.align	1
 2062              		.global	CyWdtStart
 2063              		.thumb
 2064              		.thumb_func
 2065              		.type	CyWdtStart, %function
 2066              	CyWdtStart:
 2067              	.LFB44:
1777:.\Generated_Source\PSoC5/CyLib.c **** }
1778:.\Generated_Source\PSoC5/CyLib.c **** 
1779:.\Generated_Source\PSoC5/CyLib.c **** 
1780:.\Generated_Source\PSoC5/CyLib.c **** /*******************************************************************************
1781:.\Generated_Source\PSoC5/CyLib.c **** * Function Name: CyWdtStart
1782:.\Generated_Source\PSoC5/CyLib.c **** ********************************************************************************
1783:.\Generated_Source\PSoC5/CyLib.c **** *
1784:.\Generated_Source\PSoC5/CyLib.c **** * Summary:
1785:.\Generated_Source\PSoC5/CyLib.c **** *  Enables the watchdog timer.
1786:.\Generated_Source\PSoC5/CyLib.c **** *
1787:.\Generated_Source\PSoC5/CyLib.c **** *  The timer is configured for the specified count interval, the central
1788:.\Generated_Source\PSoC5/CyLib.c **** *  timewheel is cleared, the setting for the low power mode is configured and
1789:.\Generated_Source\PSoC5/CyLib.c **** *  the watchdog timer is enabled.
1790:.\Generated_Source\PSoC5/CyLib.c **** *
1791:.\Generated_Source\PSoC5/CyLib.c **** *  Once enabled the watchdog cannot be disabled. The watchdog counts each time
1792:.\Generated_Source\PSoC5/CyLib.c **** *  the Central Time Wheel (CTW) reaches the period specified. The watchdog must
1793:.\Generated_Source\PSoC5/CyLib.c **** *  be cleared using the CyWdtClear() function before three ticks of the watchdog
1794:.\Generated_Source\PSoC5/CyLib.c **** *  timer occur. The CTW is free running, so this will occur after between 2 and
1795:.\Generated_Source\PSoC5/CyLib.c **** *  3 timer periods elapse.
1796:.\Generated_Source\PSoC5/CyLib.c **** *
1797:.\Generated_Source\PSoC5/CyLib.c **** *  PSoC5: The watchdog timer should not be used during sleep modes. Since the
1798:.\Generated_Source\PSoC5/CyLib.c **** *  WDT cannot be disabled after it is enabled, the WDT timeout period can be
1799:.\Generated_Source\PSoC5/CyLib.c **** *  set to be greater than the sleep wakeup period, then feed the dog on each
1800:.\Generated_Source\PSoC5/CyLib.c **** *  wakeup from Sleep.
1801:.\Generated_Source\PSoC5/CyLib.c **** *
1802:.\Generated_Source\PSoC5/CyLib.c **** * Parameters:
1803:.\Generated_Source\PSoC5/CyLib.c **** *  ticks: One of the four available timer periods. Once WDT enabled, the
1804:.\Generated_Source\PSoC5/CyLib.c ****    interval cannot be changed.
1805:.\Generated_Source\PSoC5/CyLib.c **** *         CYWDT_2_TICKS     -     4 - 6     ms
1806:.\Generated_Source\PSoC5/CyLib.c **** *         CYWDT_16_TICKS    -    32 - 48    ms
1807:.\Generated_Source\PSoC5/CyLib.c **** *         CYWDT_128_TICKS   -   256 - 384   ms
1808:.\Generated_Source\PSoC5/CyLib.c **** *         CYWDT_1024_TICKS  - 2.048 - 3.072 s
1809:.\Generated_Source\PSoC5/CyLib.c **** *
ARM GAS  C:\Users\Yiquing\AppData\Local\Temp\ccsAoMV1.s 			page 72


1810:.\Generated_Source\PSoC5/CyLib.c **** *  lpMode: Low power mode configuration. This parameter is ignored for PSoC 5.
1811:.\Generated_Source\PSoC5/CyLib.c **** *          The WDT always acts as if CYWDT_LPMODE_NOCHANGE is passed.
1812:.\Generated_Source\PSoC5/CyLib.c **** *
1813:.\Generated_Source\PSoC5/CyLib.c **** *          CYWDT_LPMODE_NOCHANGE - No Change
1814:.\Generated_Source\PSoC5/CyLib.c **** *          CYWDT_LPMODE_MAXINTER - Switch to longest timer mode during low power
1815:.\Generated_Source\PSoC5/CyLib.c **** *                                 mode
1816:.\Generated_Source\PSoC5/CyLib.c **** *          CYWDT_LPMODE_DISABLED - Disable WDT during low power mode
1817:.\Generated_Source\PSoC5/CyLib.c **** *
1818:.\Generated_Source\PSoC5/CyLib.c **** * Return:
1819:.\Generated_Source\PSoC5/CyLib.c **** *  None
1820:.\Generated_Source\PSoC5/CyLib.c **** *
1821:.\Generated_Source\PSoC5/CyLib.c **** * Side Effects:
1822:.\Generated_Source\PSoC5/CyLib.c **** *  PSoC5: The ILO 1 KHz must be enabled for proper WDT operation. Stopping the
1823:.\Generated_Source\PSoC5/CyLib.c **** *  ILO 1 kHz could break the active WDT functionality.
1824:.\Generated_Source\PSoC5/CyLib.c **** *
1825:.\Generated_Source\PSoC5/CyLib.c **** *******************************************************************************/
1826:.\Generated_Source\PSoC5/CyLib.c **** void CyWdtStart(uint8 ticks, uint8 lpMode) 
1827:.\Generated_Source\PSoC5/CyLib.c **** {
 2068              		.loc 1 1827 0
 2069              		.cfi_startproc
 2070              		@ args = 0, pretend = 0, frame = 0
 2071              		@ frame_needed = 0, uses_anonymous_args = 0
 2072              		@ link register save eliminated.
 2073              	.LVL116:
1828:.\Generated_Source\PSoC5/CyLib.c ****     /* Set WDT interval */
1829:.\Generated_Source\PSoC5/CyLib.c ****     CY_WDT_CFG_REG = (CY_WDT_CFG_REG & ((uint8)(~CY_WDT_CFG_INTERVAL_MASK))) | (ticks & CY_WDT_CFG_
 2074              		.loc 1 1829 0
 2075 0000 0E4B     		ldr	r3, .L231
 2076 0002 00F00300 		and	r0, r0, #3
 2077              	.LVL117:
 2078 0006 1A78     		ldrb	r2, [r3]	@ zero_extendqisi2
1830:.\Generated_Source\PSoC5/CyLib.c **** 
1831:.\Generated_Source\PSoC5/CyLib.c ****     /* Reset CTW to ensure that first watchdog period is full */
1832:.\Generated_Source\PSoC5/CyLib.c ****     CY_WDT_CFG_REG |= CY_WDT_CFG_CTW_RESET;
1833:.\Generated_Source\PSoC5/CyLib.c ****     CY_WDT_CFG_REG &= ((uint8)(~CY_WDT_CFG_CTW_RESET));
1834:.\Generated_Source\PSoC5/CyLib.c **** 
1835:.\Generated_Source\PSoC5/CyLib.c ****     /* Setting low power mode */
1836:.\Generated_Source\PSoC5/CyLib.c ****     CY_WDT_CFG_REG = (((uint8)(lpMode << CY_WDT_CFG_LPMODE_SHIFT)) & CY_WDT_CFG_LPMODE_MASK) |
 2079              		.loc 1 1836 0
 2080 0008 4901     		lsls	r1, r1, #5
 2081              	.LVL118:
1829:.\Generated_Source\PSoC5/CyLib.c ****     CY_WDT_CFG_REG = (CY_WDT_CFG_REG & ((uint8)(~CY_WDT_CFG_INTERVAL_MASK))) | (ticks & CY_WDT_CFG_
 2082              		.loc 1 1829 0
 2083 000a 02F0FC02 		and	r2, r2, #252
 2084 000e 0243     		orrs	r2, r2, r0
 2085 0010 1A70     		strb	r2, [r3]
1832:.\Generated_Source\PSoC5/CyLib.c ****     CY_WDT_CFG_REG |= CY_WDT_CFG_CTW_RESET;
 2086              		.loc 1 1832 0
 2087 0012 1A78     		ldrb	r2, [r3]	@ zero_extendqisi2
 2088              		.loc 1 1836 0
 2089 0014 01F06001 		and	r1, r1, #96
1832:.\Generated_Source\PSoC5/CyLib.c ****     CY_WDT_CFG_REG |= CY_WDT_CFG_CTW_RESET;
 2090              		.loc 1 1832 0
 2091 0018 42F08002 		orr	r2, r2, #128
 2092 001c 1A70     		strb	r2, [r3]
1833:.\Generated_Source\PSoC5/CyLib.c ****     CY_WDT_CFG_REG &= ((uint8)(~CY_WDT_CFG_CTW_RESET));
 2093              		.loc 1 1833 0
ARM GAS  C:\Users\Yiquing\AppData\Local\Temp\ccsAoMV1.s 			page 73


 2094 001e 1A78     		ldrb	r2, [r3]	@ zero_extendqisi2
 2095 0020 02F07F02 		and	r2, r2, #127
 2096 0024 1A70     		strb	r2, [r3]
1837:.\Generated_Source\PSoC5/CyLib.c ****                        (CY_WDT_CFG_REG & ((uint8)(~CY_WDT_CFG_LPMODE_MASK)));
 2097              		.loc 1 1837 0
 2098 0026 1A78     		ldrb	r2, [r3]	@ zero_extendqisi2
1836:.\Generated_Source\PSoC5/CyLib.c ****     CY_WDT_CFG_REG = (((uint8)(lpMode << CY_WDT_CFG_LPMODE_SHIFT)) & CY_WDT_CFG_LPMODE_MASK) |
 2099              		.loc 1 1836 0
 2100 0028 02F09F02 		and	r2, r2, #159
 2101 002c 0A43     		orrs	r2, r2, r1
 2102 002e 1A70     		strb	r2, [r3]
1838:.\Generated_Source\PSoC5/CyLib.c **** 
1839:.\Generated_Source\PSoC5/CyLib.c ****     /* Enables watchdog reset */
1840:.\Generated_Source\PSoC5/CyLib.c ****     CY_WDT_CFG_REG |= CY_WDT_CFG_WDR_EN;
 2103              		.loc 1 1840 0
 2104 0030 1A78     		ldrb	r2, [r3]	@ zero_extendqisi2
 2105 0032 42F01002 		orr	r2, r2, #16
 2106 0036 1A70     		strb	r2, [r3]
 2107 0038 7047     		bx	lr
 2108              	.L232:
 2109 003a 00BF     		.align	2
 2110              	.L231:
 2111 003c 83430040 		.word	1073759107
 2112              		.cfi_endproc
 2113              	.LFE44:
 2114              		.size	CyWdtStart, .-CyWdtStart
 2115              		.section	.text.CyWdtClear,"ax",%progbits
 2116              		.align	1
 2117              		.global	CyWdtClear
 2118              		.thumb
 2119              		.thumb_func
 2120              		.type	CyWdtClear, %function
 2121              	CyWdtClear:
 2122              	.LFB45:
1841:.\Generated_Source\PSoC5/CyLib.c **** }
1842:.\Generated_Source\PSoC5/CyLib.c **** 
1843:.\Generated_Source\PSoC5/CyLib.c **** 
1844:.\Generated_Source\PSoC5/CyLib.c **** /*******************************************************************************
1845:.\Generated_Source\PSoC5/CyLib.c **** * Function Name: CyWdtClear
1846:.\Generated_Source\PSoC5/CyLib.c **** ********************************************************************************
1847:.\Generated_Source\PSoC5/CyLib.c **** *
1848:.\Generated_Source\PSoC5/CyLib.c **** * Summary:
1849:.\Generated_Source\PSoC5/CyLib.c **** *  Clears (feeds) the watchdog timer.
1850:.\Generated_Source\PSoC5/CyLib.c **** *
1851:.\Generated_Source\PSoC5/CyLib.c **** * Parameters:
1852:.\Generated_Source\PSoC5/CyLib.c **** *  None
1853:.\Generated_Source\PSoC5/CyLib.c **** *
1854:.\Generated_Source\PSoC5/CyLib.c **** * Return:
1855:.\Generated_Source\PSoC5/CyLib.c **** *  None
1856:.\Generated_Source\PSoC5/CyLib.c **** *
1857:.\Generated_Source\PSoC5/CyLib.c **** *******************************************************************************/
1858:.\Generated_Source\PSoC5/CyLib.c **** void CyWdtClear(void) 
1859:.\Generated_Source\PSoC5/CyLib.c **** {
 2123              		.loc 1 1859 0
 2124              		.cfi_startproc
 2125              		@ args = 0, pretend = 0, frame = 0
 2126              		@ frame_needed = 0, uses_anonymous_args = 0
ARM GAS  C:\Users\Yiquing\AppData\Local\Temp\ccsAoMV1.s 			page 74


 2127              		@ link register save eliminated.
1860:.\Generated_Source\PSoC5/CyLib.c ****     CY_WDT_CR_REG = CY_WDT_CR_FEED;
 2128              		.loc 1 1860 0
 2129 0000 014B     		ldr	r3, .L234
 2130 0002 0122     		movs	r2, #1
 2131 0004 1A70     		strb	r2, [r3]
 2132 0006 7047     		bx	lr
 2133              	.L235:
 2134              		.align	2
 2135              	.L234:
 2136 0008 84430040 		.word	1073759108
 2137              		.cfi_endproc
 2138              	.LFE45:
 2139              		.size	CyWdtClear, .-CyWdtClear
 2140              		.section	.text.CyVdStickyStatus,"ax",%progbits
 2141              		.align	1
 2142              		.global	CyVdStickyStatus
 2143              		.thumb
 2144              		.thumb_func
 2145              		.type	CyVdStickyStatus, %function
 2146              	CyVdStickyStatus:
 2147              	.LFB52:
1861:.\Generated_Source\PSoC5/CyLib.c **** }
1862:.\Generated_Source\PSoC5/CyLib.c **** 
1863:.\Generated_Source\PSoC5/CyLib.c **** 
1864:.\Generated_Source\PSoC5/CyLib.c **** 
1865:.\Generated_Source\PSoC5/CyLib.c **** /*******************************************************************************
1866:.\Generated_Source\PSoC5/CyLib.c **** * Function Name: CyVdLvDigitEnable
1867:.\Generated_Source\PSoC5/CyLib.c **** ********************************************************************************
1868:.\Generated_Source\PSoC5/CyLib.c **** *
1869:.\Generated_Source\PSoC5/CyLib.c **** * Summary:
1870:.\Generated_Source\PSoC5/CyLib.c **** *  Sets the voltage trip level, enables the output of the digital low-voltage
1871:.\Generated_Source\PSoC5/CyLib.c **** *  monitor, and optionally configures voltage monitor to reset device upon the
1872:.\Generated_Source\PSoC5/CyLib.c **** *  low-voltage event instead of generating an interrupt.
1873:.\Generated_Source\PSoC5/CyLib.c **** *
1874:.\Generated_Source\PSoC5/CyLib.c **** *  Note The associated interrupt enable/disable state is not changed by the
1875:.\Generated_Source\PSoC5/CyLib.c **** *  function. The Interrupt components API should be used to register the
1876:.\Generated_Source\PSoC5/CyLib.c **** *  interrupt service routine and to enable/disable associated interrupt.
1877:.\Generated_Source\PSoC5/CyLib.c **** *
1878:.\Generated_Source\PSoC5/CyLib.c **** * Parameters:
1879:.\Generated_Source\PSoC5/CyLib.c **** *  reset: Enables device reset on digital low-voltage event:
1880:.\Generated_Source\PSoC5/CyLib.c **** *   Zero - Interrupt on digital low-voltage event
1881:.\Generated_Source\PSoC5/CyLib.c **** *   Non-zero - Reset on digital low-voltage event
1882:.\Generated_Source\PSoC5/CyLib.c **** *
1883:.\Generated_Source\PSoC5/CyLib.c **** *  threshold: Sets the trip point of the digital low-voltage monitoring circuit
1884:.\Generated_Source\PSoC5/CyLib.c **** *   in steps of approximately 250 mV in range from 1.70 V (0x00) to 5.45 V
1885:.\Generated_Source\PSoC5/CyLib.c **** *   (0x0F). For example, the trip point is set to 1.80 V when the threshold
1886:.\Generated_Source\PSoC5/CyLib.c **** *   parameter value is 0x04. Refer to the device TRM for the exact trip voltage
1887:.\Generated_Source\PSoC5/CyLib.c **** *   values.
1888:.\Generated_Source\PSoC5/CyLib.c **** *
1889:.\Generated_Source\PSoC5/CyLib.c **** * Return:
1890:.\Generated_Source\PSoC5/CyLib.c **** *  None
1891:.\Generated_Source\PSoC5/CyLib.c **** *
1892:.\Generated_Source\PSoC5/CyLib.c **** * Side Effects and Restrictions:
1893:.\Generated_Source\PSoC5/CyLib.c **** *  The voltage resets are momentary. When a voltage reset (analog/digital
1894:.\Generated_Source\PSoC5/CyLib.c **** *  low-voltage and analog high-voltage) occurs, the RESET_CR1 and RESET_CR3
1895:.\Generated_Source\PSoC5/CyLib.c **** *  registers are restored to their default values. This means that the voltage
ARM GAS  C:\Users\Yiquing\AppData\Local\Temp\ccsAoMV1.s 			page 75


1896:.\Generated_Source\PSoC5/CyLib.c **** *  monitor circuit is no longer enabled and the device exits reset. If the
1897:.\Generated_Source\PSoC5/CyLib.c **** *  supply is below the trip level and firmware enables the voltage reset
1898:.\Generated_Source\PSoC5/CyLib.c **** *  functionality, the device will reset again. This will continue as long as the
1899:.\Generated_Source\PSoC5/CyLib.c **** *  supply is below the trip level or as long as the user enables the reset
1900:.\Generated_Source\PSoC5/CyLib.c **** *  functionality of the voltage monitor functionality.
1901:.\Generated_Source\PSoC5/CyLib.c **** *
1902:.\Generated_Source\PSoC5/CyLib.c **** *  When any voltage reset occurs, the RESET_SR0 and RESET_SR2 status registers
1903:.\Generated_Source\PSoC5/CyLib.c **** *  are cleared. This means that analog low-voltage, digital low-voltage and
1904:.\Generated_Source\PSoC5/CyLib.c **** *  analog high-voltage status bits are not persistent across any voltage reset.
1905:.\Generated_Source\PSoC5/CyLib.c **** *
1906:.\Generated_Source\PSoC5/CyLib.c **** *******************************************************************************/
1907:.\Generated_Source\PSoC5/CyLib.c **** void CyVdLvDigitEnable(uint8 reset, uint8 threshold) 
1908:.\Generated_Source\PSoC5/CyLib.c **** {
1909:.\Generated_Source\PSoC5/CyLib.c ****     uint32 intRegTmp;
1910:.\Generated_Source\PSoC5/CyLib.c ****     uint8 interruptState;
1911:.\Generated_Source\PSoC5/CyLib.c **** 
1912:.\Generated_Source\PSoC5/CyLib.c ****     interruptState = CyEnterCriticalSection();
1913:.\Generated_Source\PSoC5/CyLib.c **** 
1914:.\Generated_Source\PSoC5/CyLib.c ****     /* Store interrupt enable state */
1915:.\Generated_Source\PSoC5/CyLib.c ****     intRegTmp = CY_INT_ENABLE_REG & CY_VD_INT_MASK;
1916:.\Generated_Source\PSoC5/CyLib.c **** 
1917:.\Generated_Source\PSoC5/CyLib.c ****     /* Disable VD interrupt (write 1) to protect against glitches */
1918:.\Generated_Source\PSoC5/CyLib.c ****     CY_INT_CLEAR_REG = CY_VD_INT_MASK;
1919:.\Generated_Source\PSoC5/CyLib.c **** 
1920:.\Generated_Source\PSoC5/CyLib.c ****     CY_VD_PRES_CONTROL_REG &= ((uint8)(~CY_VD_PRESD_EN));
1921:.\Generated_Source\PSoC5/CyLib.c **** 
1922:.\Generated_Source\PSoC5/CyLib.c ****     CY_VD_LVI_TRIP_REG = (threshold & CY_VD_LVI_TRIP_LVID_MASK) |
1923:.\Generated_Source\PSoC5/CyLib.c ****                             (CY_VD_LVI_TRIP_REG & ((uint8)(~CY_VD_LVI_TRIP_LVID_MASK)));
1924:.\Generated_Source\PSoC5/CyLib.c ****     CY_VD_LVI_HVI_CONTROL_REG |= CY_VD_LVID_EN;
1925:.\Generated_Source\PSoC5/CyLib.c **** 
1926:.\Generated_Source\PSoC5/CyLib.c ****     /* Timeout to eliminate glitches on LVI/HVI when enabling (ID # 127412) */
1927:.\Generated_Source\PSoC5/CyLib.c ****     CyDelayUs(1u);
1928:.\Generated_Source\PSoC5/CyLib.c **** 
1929:.\Generated_Source\PSoC5/CyLib.c ****     (void) CyVdStickyStatus(CY_VD_LVID);
1930:.\Generated_Source\PSoC5/CyLib.c **** 
1931:.\Generated_Source\PSoC5/CyLib.c ****     if(0u != reset)
1932:.\Generated_Source\PSoC5/CyLib.c ****     {
1933:.\Generated_Source\PSoC5/CyLib.c ****         CY_VD_PRES_CONTROL_REG |= CY_VD_PRESD_EN;
1934:.\Generated_Source\PSoC5/CyLib.c ****     }
1935:.\Generated_Source\PSoC5/CyLib.c ****     else
1936:.\Generated_Source\PSoC5/CyLib.c ****     {
1937:.\Generated_Source\PSoC5/CyLib.c ****         CY_VD_PRES_CONTROL_REG &= ((uint8)(~CY_VD_PRESD_EN));
1938:.\Generated_Source\PSoC5/CyLib.c ****     }
1939:.\Generated_Source\PSoC5/CyLib.c **** 
1940:.\Generated_Source\PSoC5/CyLib.c ****     /* Clear pending interrupt */
1941:.\Generated_Source\PSoC5/CyLib.c ****     CY_INT_CLR_PEND_REG = CY_VD_INT_MASK;
1942:.\Generated_Source\PSoC5/CyLib.c **** 
1943:.\Generated_Source\PSoC5/CyLib.c ****     /* Restore interrupt enable state */
1944:.\Generated_Source\PSoC5/CyLib.c ****     CY_INT_ENABLE_REG = intRegTmp;
1945:.\Generated_Source\PSoC5/CyLib.c **** 
1946:.\Generated_Source\PSoC5/CyLib.c ****     CyExitCriticalSection(interruptState);
1947:.\Generated_Source\PSoC5/CyLib.c **** }
1948:.\Generated_Source\PSoC5/CyLib.c **** 
1949:.\Generated_Source\PSoC5/CyLib.c **** 
1950:.\Generated_Source\PSoC5/CyLib.c **** /*******************************************************************************
1951:.\Generated_Source\PSoC5/CyLib.c **** * Function Name: CyVdLvAnalogEnable
1952:.\Generated_Source\PSoC5/CyLib.c **** ********************************************************************************
ARM GAS  C:\Users\Yiquing\AppData\Local\Temp\ccsAoMV1.s 			page 76


1953:.\Generated_Source\PSoC5/CyLib.c **** *
1954:.\Generated_Source\PSoC5/CyLib.c **** * Summary:
1955:.\Generated_Source\PSoC5/CyLib.c **** *  Sets the voltage trip level, enables the output of the analog low-voltage
1956:.\Generated_Source\PSoC5/CyLib.c **** *  monitor, and optionally configures voltage monitor to reset device upon the
1957:.\Generated_Source\PSoC5/CyLib.c **** *  low-voltage event instead of generating an interrupt.
1958:.\Generated_Source\PSoC5/CyLib.c **** *
1959:.\Generated_Source\PSoC5/CyLib.c **** *  Note The associated interrupt enable/disable state is not changed by the
1960:.\Generated_Source\PSoC5/CyLib.c **** *  function. The Interrupt components API should be used to register the
1961:.\Generated_Source\PSoC5/CyLib.c **** *  interrupt service routine and to enable/disable associated interrupt.
1962:.\Generated_Source\PSoC5/CyLib.c **** *
1963:.\Generated_Source\PSoC5/CyLib.c **** * Parameters:
1964:.\Generated_Source\PSoC5/CyLib.c **** *  reset: Enables device reset on analog low-voltage event:
1965:.\Generated_Source\PSoC5/CyLib.c **** *  Zero - Interrupt on analog low-voltage event
1966:.\Generated_Source\PSoC5/CyLib.c **** *  Non-zero - Reset on analog low-voltage event
1967:.\Generated_Source\PSoC5/CyLib.c **** *
1968:.\Generated_Source\PSoC5/CyLib.c **** *  threshold: Sets the trip point of the analog low-voltage monitoring circuit
1969:.\Generated_Source\PSoC5/CyLib.c **** *  in steps of approximately 250 mV in range from 1.70 V (0x00) to 5.45 V
1970:.\Generated_Source\PSoC5/CyLib.c **** *  (0x0F). For example, the trip point is set to 1.80 V when value of the
1971:.\Generated_Source\PSoC5/CyLib.c **** *  threshold parameter is 0x04. Please refer to the device TRM for the exact
1972:.\Generated_Source\PSoC5/CyLib.c **** *  trip voltage values.
1973:.\Generated_Source\PSoC5/CyLib.c **** *
1974:.\Generated_Source\PSoC5/CyLib.c **** * Return:
1975:.\Generated_Source\PSoC5/CyLib.c **** *  None
1976:.\Generated_Source\PSoC5/CyLib.c **** *
1977:.\Generated_Source\PSoC5/CyLib.c **** * Side Effects and Restrictions:
1978:.\Generated_Source\PSoC5/CyLib.c **** *  The voltage resets are momentary. When a voltage reset (analog/digital
1979:.\Generated_Source\PSoC5/CyLib.c **** *  low-voltage and analog high-voltage) occurs, the RESET_CR1 and RESET_CR3
1980:.\Generated_Source\PSoC5/CyLib.c **** *  registers are restored to their default values. This means that the voltage
1981:.\Generated_Source\PSoC5/CyLib.c **** *  monitor circuit is no longer enabled and the device exits reset. If the
1982:.\Generated_Source\PSoC5/CyLib.c **** *  supply is below the trip level and firmware enables the voltage reset
1983:.\Generated_Source\PSoC5/CyLib.c **** *  functionality, the device will reset again. This will continue as long as
1984:.\Generated_Source\PSoC5/CyLib.c **** *  the supply is below the trip level or as long as the user enables the reset
1985:.\Generated_Source\PSoC5/CyLib.c **** *  functionality of the voltage monitor functionality.
1986:.\Generated_Source\PSoC5/CyLib.c **** *
1987:.\Generated_Source\PSoC5/CyLib.c **** *  When any voltage reset occurs, the RESET_SR0 and RESET_SR2 status registers
1988:.\Generated_Source\PSoC5/CyLib.c **** *  are cleared. This means that analog low-voltage, digital low-voltage and
1989:.\Generated_Source\PSoC5/CyLib.c **** *  analog high-voltage status bits are not persistent across any voltage reset.
1990:.\Generated_Source\PSoC5/CyLib.c **** *
1991:.\Generated_Source\PSoC5/CyLib.c **** *******************************************************************************/
1992:.\Generated_Source\PSoC5/CyLib.c **** void CyVdLvAnalogEnable(uint8 reset, uint8 threshold) 
1993:.\Generated_Source\PSoC5/CyLib.c **** {
1994:.\Generated_Source\PSoC5/CyLib.c ****     uint32 intRegTmp;
1995:.\Generated_Source\PSoC5/CyLib.c ****     uint8 interruptState;
1996:.\Generated_Source\PSoC5/CyLib.c **** 
1997:.\Generated_Source\PSoC5/CyLib.c ****     interruptState = CyEnterCriticalSection();
1998:.\Generated_Source\PSoC5/CyLib.c **** 
1999:.\Generated_Source\PSoC5/CyLib.c ****     /* Store interrupt enable state */
2000:.\Generated_Source\PSoC5/CyLib.c ****     intRegTmp = CY_INT_ENABLE_REG & CY_VD_INT_MASK;
2001:.\Generated_Source\PSoC5/CyLib.c **** 
2002:.\Generated_Source\PSoC5/CyLib.c ****     /* Disable VD interrupt (write 1) to protect against glitches */
2003:.\Generated_Source\PSoC5/CyLib.c ****     CY_INT_CLEAR_REG = CY_VD_INT_MASK;
2004:.\Generated_Source\PSoC5/CyLib.c **** 
2005:.\Generated_Source\PSoC5/CyLib.c ****     CY_VD_PRES_CONTROL_REG &= ((uint8)(~CY_VD_PRESA_EN));
2006:.\Generated_Source\PSoC5/CyLib.c **** 
2007:.\Generated_Source\PSoC5/CyLib.c ****     CY_VD_LVI_TRIP_REG = ((uint8)(threshold << 4u)) | (CY_VD_LVI_TRIP_REG & 0x0Fu);
2008:.\Generated_Source\PSoC5/CyLib.c ****     CY_VD_LVI_HVI_CONTROL_REG |= CY_VD_LVIA_EN;
2009:.\Generated_Source\PSoC5/CyLib.c **** 
ARM GAS  C:\Users\Yiquing\AppData\Local\Temp\ccsAoMV1.s 			page 77


2010:.\Generated_Source\PSoC5/CyLib.c ****     /* Timeout to eliminate glitches on LVI/HVI when enabling (ID # 127412) */
2011:.\Generated_Source\PSoC5/CyLib.c ****     CyDelayUs(1u);
2012:.\Generated_Source\PSoC5/CyLib.c **** 
2013:.\Generated_Source\PSoC5/CyLib.c ****     (void) CyVdStickyStatus(CY_VD_LVIA);
2014:.\Generated_Source\PSoC5/CyLib.c **** 
2015:.\Generated_Source\PSoC5/CyLib.c ****     if(0u != reset)
2016:.\Generated_Source\PSoC5/CyLib.c ****     {
2017:.\Generated_Source\PSoC5/CyLib.c ****         CY_VD_PRES_CONTROL_REG |= CY_VD_PRESA_EN;
2018:.\Generated_Source\PSoC5/CyLib.c ****     }
2019:.\Generated_Source\PSoC5/CyLib.c ****     else
2020:.\Generated_Source\PSoC5/CyLib.c ****     {
2021:.\Generated_Source\PSoC5/CyLib.c ****         CY_VD_PRES_CONTROL_REG &= ((uint8)(~CY_VD_PRESA_EN));
2022:.\Generated_Source\PSoC5/CyLib.c ****     }
2023:.\Generated_Source\PSoC5/CyLib.c **** 
2024:.\Generated_Source\PSoC5/CyLib.c ****     /* Clear pending interrupt */
2025:.\Generated_Source\PSoC5/CyLib.c ****     CY_INT_CLR_PEND_REG = CY_VD_INT_MASK;
2026:.\Generated_Source\PSoC5/CyLib.c **** 
2027:.\Generated_Source\PSoC5/CyLib.c ****     /* Restore interrupt enable state */
2028:.\Generated_Source\PSoC5/CyLib.c ****     CY_INT_ENABLE_REG = intRegTmp;
2029:.\Generated_Source\PSoC5/CyLib.c **** 
2030:.\Generated_Source\PSoC5/CyLib.c ****     CyExitCriticalSection(interruptState);
2031:.\Generated_Source\PSoC5/CyLib.c **** }
2032:.\Generated_Source\PSoC5/CyLib.c **** 
2033:.\Generated_Source\PSoC5/CyLib.c **** 
2034:.\Generated_Source\PSoC5/CyLib.c **** /*******************************************************************************
2035:.\Generated_Source\PSoC5/CyLib.c **** * Function Name: CyVdLvDigitDisable
2036:.\Generated_Source\PSoC5/CyLib.c **** ********************************************************************************
2037:.\Generated_Source\PSoC5/CyLib.c **** *
2038:.\Generated_Source\PSoC5/CyLib.c **** * Summary:
2039:.\Generated_Source\PSoC5/CyLib.c **** *  Disables the digital low-voltage monitor, turns off device reset upon the
2040:.\Generated_Source\PSoC5/CyLib.c **** *  digital low-voltage event, and clears the associated persistent status bit.
2041:.\Generated_Source\PSoC5/CyLib.c **** *
2042:.\Generated_Source\PSoC5/CyLib.c **** *  Note The associated interrupt enable/disable state is not changed by the
2043:.\Generated_Source\PSoC5/CyLib.c **** *  function. The pending interrupt status is not cleared. The Interrupt
2044:.\Generated_Source\PSoC5/CyLib.c **** *  components API should be used to manipulate with the associated interrupts.
2045:.\Generated_Source\PSoC5/CyLib.c **** *
2046:.\Generated_Source\PSoC5/CyLib.c **** * Parameters:
2047:.\Generated_Source\PSoC5/CyLib.c **** *  None
2048:.\Generated_Source\PSoC5/CyLib.c **** *
2049:.\Generated_Source\PSoC5/CyLib.c **** * Return:
2050:.\Generated_Source\PSoC5/CyLib.c **** *  None
2051:.\Generated_Source\PSoC5/CyLib.c **** *
2052:.\Generated_Source\PSoC5/CyLib.c **** *******************************************************************************/
2053:.\Generated_Source\PSoC5/CyLib.c **** void CyVdLvDigitDisable(void) 
2054:.\Generated_Source\PSoC5/CyLib.c **** {
2055:.\Generated_Source\PSoC5/CyLib.c ****     CY_VD_LVI_HVI_CONTROL_REG &= ((uint8)(~CY_VD_LVID_EN));
2056:.\Generated_Source\PSoC5/CyLib.c ****     CY_VD_PRES_CONTROL_REG &= ((uint8)(~CY_VD_PRESD_EN));
2057:.\Generated_Source\PSoC5/CyLib.c ****     (void) CyVdStickyStatus(CY_VD_LVID);
2058:.\Generated_Source\PSoC5/CyLib.c **** 
2059:.\Generated_Source\PSoC5/CyLib.c ****     while(0u != (CyVdStickyStatus(CY_VD_LVID) & CY_VD_LVID))
2060:.\Generated_Source\PSoC5/CyLib.c ****     {
2061:.\Generated_Source\PSoC5/CyLib.c **** 
2062:.\Generated_Source\PSoC5/CyLib.c ****     }
2063:.\Generated_Source\PSoC5/CyLib.c **** }
2064:.\Generated_Source\PSoC5/CyLib.c **** 
2065:.\Generated_Source\PSoC5/CyLib.c **** 
2066:.\Generated_Source\PSoC5/CyLib.c **** /*******************************************************************************
ARM GAS  C:\Users\Yiquing\AppData\Local\Temp\ccsAoMV1.s 			page 78


2067:.\Generated_Source\PSoC5/CyLib.c **** * Function Name: CyVdLvAnalogDisable
2068:.\Generated_Source\PSoC5/CyLib.c **** ********************************************************************************
2069:.\Generated_Source\PSoC5/CyLib.c **** *
2070:.\Generated_Source\PSoC5/CyLib.c **** * Summary:
2071:.\Generated_Source\PSoC5/CyLib.c **** *  Disables the analog low-voltage monitor, turns off device reset upon the
2072:.\Generated_Source\PSoC5/CyLib.c **** *  analog low-voltage event, and clears the associated persistent status bit.
2073:.\Generated_Source\PSoC5/CyLib.c **** *
2074:.\Generated_Source\PSoC5/CyLib.c **** *  Note The associated interrupt enable/disable state is not changed by the
2075:.\Generated_Source\PSoC5/CyLib.c **** *  function. The pending interrupt status is not cleared. The Interrupt
2076:.\Generated_Source\PSoC5/CyLib.c **** *  components API should be used to manipulate with the associated interrupts.
2077:.\Generated_Source\PSoC5/CyLib.c **** *
2078:.\Generated_Source\PSoC5/CyLib.c **** * Parameters:
2079:.\Generated_Source\PSoC5/CyLib.c **** *  None
2080:.\Generated_Source\PSoC5/CyLib.c **** *
2081:.\Generated_Source\PSoC5/CyLib.c **** * Return:
2082:.\Generated_Source\PSoC5/CyLib.c **** *  None
2083:.\Generated_Source\PSoC5/CyLib.c **** *
2084:.\Generated_Source\PSoC5/CyLib.c **** *******************************************************************************/
2085:.\Generated_Source\PSoC5/CyLib.c **** void CyVdLvAnalogDisable(void) 
2086:.\Generated_Source\PSoC5/CyLib.c **** {
2087:.\Generated_Source\PSoC5/CyLib.c ****     CY_VD_LVI_HVI_CONTROL_REG &= ((uint8)(~CY_VD_LVIA_EN));
2088:.\Generated_Source\PSoC5/CyLib.c ****     CY_VD_PRES_CONTROL_REG &= ((uint8)(~CY_VD_PRESA_EN));
2089:.\Generated_Source\PSoC5/CyLib.c ****     while(0u != (CyVdStickyStatus(CY_VD_LVIA) & CY_VD_LVIA))
2090:.\Generated_Source\PSoC5/CyLib.c ****     {
2091:.\Generated_Source\PSoC5/CyLib.c **** 
2092:.\Generated_Source\PSoC5/CyLib.c ****     }
2093:.\Generated_Source\PSoC5/CyLib.c **** }
2094:.\Generated_Source\PSoC5/CyLib.c **** 
2095:.\Generated_Source\PSoC5/CyLib.c **** 
2096:.\Generated_Source\PSoC5/CyLib.c **** /*******************************************************************************
2097:.\Generated_Source\PSoC5/CyLib.c **** * Function Name: CyVdHvAnalogEnable
2098:.\Generated_Source\PSoC5/CyLib.c **** ********************************************************************************
2099:.\Generated_Source\PSoC5/CyLib.c **** *
2100:.\Generated_Source\PSoC5/CyLib.c **** * Summary:
2101:.\Generated_Source\PSoC5/CyLib.c **** *  Enables the output of the analog high-voltage monitor and sets 5.75 V
2102:.\Generated_Source\PSoC5/CyLib.c **** *  threshold detection for Vdda.
2103:.\Generated_Source\PSoC5/CyLib.c **** *
2104:.\Generated_Source\PSoC5/CyLib.c **** *  Note The associated interrupt enable/disable state is not changed by the
2105:.\Generated_Source\PSoC5/CyLib.c **** *  function. The Interrupt components API should be used to register the
2106:.\Generated_Source\PSoC5/CyLib.c **** *  interrupt service routine and to enable/disable associated interrupt.
2107:.\Generated_Source\PSoC5/CyLib.c **** *
2108:.\Generated_Source\PSoC5/CyLib.c **** * Parameters:
2109:.\Generated_Source\PSoC5/CyLib.c **** *  None
2110:.\Generated_Source\PSoC5/CyLib.c **** *
2111:.\Generated_Source\PSoC5/CyLib.c **** * Return:
2112:.\Generated_Source\PSoC5/CyLib.c **** *  None
2113:.\Generated_Source\PSoC5/CyLib.c **** *
2114:.\Generated_Source\PSoC5/CyLib.c **** *******************************************************************************/
2115:.\Generated_Source\PSoC5/CyLib.c **** void CyVdHvAnalogEnable(void) 
2116:.\Generated_Source\PSoC5/CyLib.c **** {
2117:.\Generated_Source\PSoC5/CyLib.c ****     uint32 intRegTmp;
2118:.\Generated_Source\PSoC5/CyLib.c ****     uint8 interruptState;
2119:.\Generated_Source\PSoC5/CyLib.c **** 
2120:.\Generated_Source\PSoC5/CyLib.c ****     interruptState = CyEnterCriticalSection();
2121:.\Generated_Source\PSoC5/CyLib.c **** 
2122:.\Generated_Source\PSoC5/CyLib.c ****     /* Store interrupt enable state */
2123:.\Generated_Source\PSoC5/CyLib.c ****     intRegTmp = CY_INT_ENABLE_REG & CY_VD_INT_MASK;
ARM GAS  C:\Users\Yiquing\AppData\Local\Temp\ccsAoMV1.s 			page 79


2124:.\Generated_Source\PSoC5/CyLib.c **** 
2125:.\Generated_Source\PSoC5/CyLib.c ****     /* Disable VD interrupt (write 1) to protect against glitches */
2126:.\Generated_Source\PSoC5/CyLib.c ****     CY_INT_CLEAR_REG = CY_VD_INT_MASK;
2127:.\Generated_Source\PSoC5/CyLib.c **** 
2128:.\Generated_Source\PSoC5/CyLib.c ****     CY_VD_PRES_CONTROL_REG &= ((uint8)(~CY_VD_PRESA_EN));
2129:.\Generated_Source\PSoC5/CyLib.c **** 
2130:.\Generated_Source\PSoC5/CyLib.c ****     CY_VD_LVI_HVI_CONTROL_REG |= CY_VD_HVIA_EN;
2131:.\Generated_Source\PSoC5/CyLib.c **** 
2132:.\Generated_Source\PSoC5/CyLib.c ****     /* Timeout to eliminate glitches on the LVI/HVI when enabling (ID # 127412)  */
2133:.\Generated_Source\PSoC5/CyLib.c ****     CyDelayUs(1u);
2134:.\Generated_Source\PSoC5/CyLib.c **** 
2135:.\Generated_Source\PSoC5/CyLib.c ****     (void) CyVdStickyStatus(CY_VD_HVIA);
2136:.\Generated_Source\PSoC5/CyLib.c **** 
2137:.\Generated_Source\PSoC5/CyLib.c ****     /* Clear pending interrupt */
2138:.\Generated_Source\PSoC5/CyLib.c ****     CY_INT_CLR_PEND_REG = CY_VD_INT_MASK;
2139:.\Generated_Source\PSoC5/CyLib.c **** 
2140:.\Generated_Source\PSoC5/CyLib.c ****     /* Restore interrupt enable state */
2141:.\Generated_Source\PSoC5/CyLib.c ****     CY_INT_ENABLE_REG = intRegTmp;
2142:.\Generated_Source\PSoC5/CyLib.c **** 
2143:.\Generated_Source\PSoC5/CyLib.c ****     CyExitCriticalSection(interruptState);
2144:.\Generated_Source\PSoC5/CyLib.c **** }
2145:.\Generated_Source\PSoC5/CyLib.c **** 
2146:.\Generated_Source\PSoC5/CyLib.c **** 
2147:.\Generated_Source\PSoC5/CyLib.c **** /*******************************************************************************
2148:.\Generated_Source\PSoC5/CyLib.c **** * Function Name: CyVdHvAnalogDisable
2149:.\Generated_Source\PSoC5/CyLib.c **** ********************************************************************************
2150:.\Generated_Source\PSoC5/CyLib.c **** *
2151:.\Generated_Source\PSoC5/CyLib.c **** * Summary:
2152:.\Generated_Source\PSoC5/CyLib.c **** *  Disables the analog high-voltage monitor and clears the associated persistent
2153:.\Generated_Source\PSoC5/CyLib.c **** *  status bit.
2154:.\Generated_Source\PSoC5/CyLib.c **** *
2155:.\Generated_Source\PSoC5/CyLib.c **** *  Note The associated interrupt enable/disable state is not changed by the
2156:.\Generated_Source\PSoC5/CyLib.c **** *  function. The pending interrupt status is not cleared. The Interrupt
2157:.\Generated_Source\PSoC5/CyLib.c **** *  components API should be used to manipulate with the associated interrupts.
2158:.\Generated_Source\PSoC5/CyLib.c **** *
2159:.\Generated_Source\PSoC5/CyLib.c **** * Parameters:
2160:.\Generated_Source\PSoC5/CyLib.c **** *  None
2161:.\Generated_Source\PSoC5/CyLib.c **** *
2162:.\Generated_Source\PSoC5/CyLib.c **** * Return:
2163:.\Generated_Source\PSoC5/CyLib.c **** *  None
2164:.\Generated_Source\PSoC5/CyLib.c **** *
2165:.\Generated_Source\PSoC5/CyLib.c **** *******************************************************************************/
2166:.\Generated_Source\PSoC5/CyLib.c **** void CyVdHvAnalogDisable(void) 
2167:.\Generated_Source\PSoC5/CyLib.c **** {
2168:.\Generated_Source\PSoC5/CyLib.c ****     CY_VD_LVI_HVI_CONTROL_REG &= ((uint8)(~CY_VD_HVIA_EN));
2169:.\Generated_Source\PSoC5/CyLib.c ****     while(0u != (CyVdStickyStatus(CY_VD_HVIA) & CY_VD_HVIA))
2170:.\Generated_Source\PSoC5/CyLib.c ****     {
2171:.\Generated_Source\PSoC5/CyLib.c **** 
2172:.\Generated_Source\PSoC5/CyLib.c ****     }
2173:.\Generated_Source\PSoC5/CyLib.c **** }
2174:.\Generated_Source\PSoC5/CyLib.c **** 
2175:.\Generated_Source\PSoC5/CyLib.c **** 
2176:.\Generated_Source\PSoC5/CyLib.c **** /*******************************************************************************
2177:.\Generated_Source\PSoC5/CyLib.c **** * Function Name: CyVdStickyStatus
2178:.\Generated_Source\PSoC5/CyLib.c **** ********************************************************************************
2179:.\Generated_Source\PSoC5/CyLib.c **** *
2180:.\Generated_Source\PSoC5/CyLib.c **** * Summary:
ARM GAS  C:\Users\Yiquing\AppData\Local\Temp\ccsAoMV1.s 			page 80


2181:.\Generated_Source\PSoC5/CyLib.c **** *  Reads and clears the voltage detection status bits in the RESET_SR0 register.
2182:.\Generated_Source\PSoC5/CyLib.c **** *  The bits are set to 1 by the voltage monitor circuit when the supply is
2183:.\Generated_Source\PSoC5/CyLib.c **** *  outside the detectors trip point. They stay set to 1 until they are read or
2184:.\Generated_Source\PSoC5/CyLib.c **** *  a POR / LVI / PRES reset occurs. This function uses a shadow register, so
2185:.\Generated_Source\PSoC5/CyLib.c **** *  only the bits passed in the parameter will be cleared in the shadow register.
2186:.\Generated_Source\PSoC5/CyLib.c **** *
2187:.\Generated_Source\PSoC5/CyLib.c **** * Parameters:
2188:.\Generated_Source\PSoC5/CyLib.c **** *  mask: Bits in the RESET_SR0 shadow register to clear and return.
2189:.\Generated_Source\PSoC5/CyLib.c **** *   Define                  Definition
2190:.\Generated_Source\PSoC5/CyLib.c **** *   CY_VD_LVID            Persistent status of digital LVI.
2191:.\Generated_Source\PSoC5/CyLib.c **** *   CY_VD_LVIA            Persistent status of analog LVI.
2192:.\Generated_Source\PSoC5/CyLib.c **** *   CY_VD_HVIA            Persistent status of analog HVI.
2193:.\Generated_Source\PSoC5/CyLib.c **** *
2194:.\Generated_Source\PSoC5/CyLib.c **** * Return:
2195:.\Generated_Source\PSoC5/CyLib.c **** *  Status. Same enumerated bit values as used for the mask parameter. A zero is
2196:.\Generated_Source\PSoC5/CyLib.c **** *  returned for bits not used in the mask parameter.
2197:.\Generated_Source\PSoC5/CyLib.c **** *
2198:.\Generated_Source\PSoC5/CyLib.c **** * Side Effects and Restrictions:
2199:.\Generated_Source\PSoC5/CyLib.c **** *  When an LVI reset occurs, the RESET_SR0 status registers are cleared. This
2200:.\Generated_Source\PSoC5/CyLib.c **** *  means that the voltage detection status bits are not persistent across an LVI
2201:.\Generated_Source\PSoC5/CyLib.c **** *  reset and cannot be used to determine a reset source.
2202:.\Generated_Source\PSoC5/CyLib.c **** *
2203:.\Generated_Source\PSoC5/CyLib.c **** *******************************************************************************/
2204:.\Generated_Source\PSoC5/CyLib.c **** uint8 CyVdStickyStatus(uint8 mask) 
2205:.\Generated_Source\PSoC5/CyLib.c **** {
 2148              		.loc 1 2205 0
 2149              		.cfi_startproc
 2150              		@ args = 0, pretend = 0, frame = 0
 2151              		@ frame_needed = 0, uses_anonymous_args = 0
 2152              	.LVL119:
 2153 0000 38B5     		push	{r3, r4, r5, lr}
 2154              		.cfi_def_cfa_offset 16
 2155              		.cfi_offset 3, -16
 2156              		.cfi_offset 4, -12
 2157              		.cfi_offset 5, -8
 2158              		.cfi_offset 14, -4
 2159              		.loc 1 2205 0
 2160 0002 0546     		mov	r5, r0
2206:.\Generated_Source\PSoC5/CyLib.c ****     static uint8 interruptStatus;
2207:.\Generated_Source\PSoC5/CyLib.c ****     uint8 interruptState;
2208:.\Generated_Source\PSoC5/CyLib.c ****     uint8 tmpStatus;
2209:.\Generated_Source\PSoC5/CyLib.c **** 
2210:.\Generated_Source\PSoC5/CyLib.c ****     interruptState = CyEnterCriticalSection();
 2161              		.loc 1 2210 0
 2162 0004 FFF7FEFF 		bl	CyEnterCriticalSection
 2163              	.LVL120:
2211:.\Generated_Source\PSoC5/CyLib.c **** 
2212:.\Generated_Source\PSoC5/CyLib.c ****     interruptStatus |= CY_VD_PERSISTENT_STATUS_REG;
 2164              		.loc 1 2212 0
 2165 0008 064B     		ldr	r3, .L237
 2166 000a 1C78     		ldrb	r4, [r3]	@ zero_extendqisi2
 2167 000c 064B     		ldr	r3, .L237+4
 2168 000e 1A78     		ldrb	r2, [r3]	@ zero_extendqisi2
 2169 0010 1443     		orrs	r4, r4, r2
 2170              	.LVL121:
2213:.\Generated_Source\PSoC5/CyLib.c ****     tmpStatus = interruptStatus & (uint8)(CY_VD_LVID | CY_VD_LVIA | CY_VD_HVIA);
2214:.\Generated_Source\PSoC5/CyLib.c ****     interruptStatus &= ((uint8)(~mask));
ARM GAS  C:\Users\Yiquing\AppData\Local\Temp\ccsAoMV1.s 			page 81


 2171              		.loc 1 2214 0
 2172 0012 24EA0505 		bic	r5, r4, r5
 2173 0016 1D70     		strb	r5, [r3]
2215:.\Generated_Source\PSoC5/CyLib.c **** 
2216:.\Generated_Source\PSoC5/CyLib.c ****     CyExitCriticalSection(interruptState);
 2174              		.loc 1 2216 0
 2175 0018 FFF7FEFF 		bl	CyExitCriticalSection
 2176              	.LVL122:
2217:.\Generated_Source\PSoC5/CyLib.c **** 
2218:.\Generated_Source\PSoC5/CyLib.c ****     return(tmpStatus);
2219:.\Generated_Source\PSoC5/CyLib.c **** }
 2177              		.loc 1 2219 0
 2178 001c 04F00700 		and	r0, r4, #7
 2179 0020 38BD     		pop	{r3, r4, r5, pc}
 2180              	.LVL123:
 2181              	.L238:
 2182 0022 00BF     		.align	2
 2183              	.L237:
 2184 0024 FA460040 		.word	1073759994
 2185 0028 00000000 		.word	.LANCHOR1
 2186              		.cfi_endproc
 2187              	.LFE52:
 2188              		.size	CyVdStickyStatus, .-CyVdStickyStatus
 2189              		.section	.text.CyVdLvDigitEnable,"ax",%progbits
 2190              		.align	1
 2191              		.global	CyVdLvDigitEnable
 2192              		.thumb
 2193              		.thumb_func
 2194              		.type	CyVdLvDigitEnable, %function
 2195              	CyVdLvDigitEnable:
 2196              	.LFB46:
1908:.\Generated_Source\PSoC5/CyLib.c **** {
 2197              		.loc 1 1908 0
 2198              		.cfi_startproc
 2199              		@ args = 0, pretend = 0, frame = 0
 2200              		@ frame_needed = 0, uses_anonymous_args = 0
 2201              	.LVL124:
 2202 0000 2DE9F843 		push	{r3, r4, r5, r6, r7, r8, r9, lr}
 2203              		.cfi_def_cfa_offset 32
 2204              		.cfi_offset 3, -32
 2205              		.cfi_offset 4, -28
 2206              		.cfi_offset 5, -24
 2207              		.cfi_offset 6, -20
 2208              		.cfi_offset 7, -16
 2209              		.cfi_offset 8, -12
 2210              		.cfi_offset 9, -8
 2211              		.cfi_offset 14, -4
1908:.\Generated_Source\PSoC5/CyLib.c **** {
 2212              		.loc 1 1908 0
 2213 0004 8946     		mov	r9, r1
 2214 0006 0646     		mov	r6, r0
1912:.\Generated_Source\PSoC5/CyLib.c ****     interruptState = CyEnterCriticalSection();
 2215              		.loc 1 1912 0
 2216 0008 FFF7FEFF 		bl	CyEnterCriticalSection
 2217              	.LVL125:
1915:.\Generated_Source\PSoC5/CyLib.c ****     intRegTmp = CY_INT_ENABLE_REG & CY_VD_INT_MASK;
 2218              		.loc 1 1915 0
ARM GAS  C:\Users\Yiquing\AppData\Local\Temp\ccsAoMV1.s 			page 82


 2219 000c 194B     		ldr	r3, .L243
1918:.\Generated_Source\PSoC5/CyLib.c ****     CY_INT_CLEAR_REG = CY_VD_INT_MASK;
 2220              		.loc 1 1918 0
 2221 000e 0125     		movs	r5, #1
1920:.\Generated_Source\PSoC5/CyLib.c ****     CY_VD_PRES_CONTROL_REG &= ((uint8)(~CY_VD_PRESD_EN));
 2222              		.loc 1 1920 0
 2223 0010 194C     		ldr	r4, .L243+4
1915:.\Generated_Source\PSoC5/CyLib.c ****     intRegTmp = CY_INT_ENABLE_REG & CY_VD_INT_MASK;
 2224              		.loc 1 1915 0
 2225 0012 1F68     		ldr	r7, [r3]
1918:.\Generated_Source\PSoC5/CyLib.c ****     CY_INT_CLEAR_REG = CY_VD_INT_MASK;
 2226              		.loc 1 1918 0
 2227 0014 C3F88050 		str	r5, [r3, #128]
1920:.\Generated_Source\PSoC5/CyLib.c ****     CY_VD_PRES_CONTROL_REG &= ((uint8)(~CY_VD_PRESD_EN));
 2228              		.loc 1 1920 0
 2229 0018 2378     		ldrb	r3, [r4]	@ zero_extendqisi2
1922:.\Generated_Source\PSoC5/CyLib.c ****     CY_VD_LVI_TRIP_REG = (threshold & CY_VD_LVI_TRIP_LVID_MASK) |
 2230              		.loc 1 1922 0
 2231 001a 09F00F09 		and	r9, r9, #15
1920:.\Generated_Source\PSoC5/CyLib.c ****     CY_VD_PRES_CONTROL_REG &= ((uint8)(~CY_VD_PRESD_EN));
 2232              		.loc 1 1920 0
 2233 001e 03F0BF03 		and	r3, r3, #191
 2234 0022 2370     		strb	r3, [r4]
1923:.\Generated_Source\PSoC5/CyLib.c ****                             (CY_VD_LVI_TRIP_REG & ((uint8)(~CY_VD_LVI_TRIP_LVID_MASK)));
 2235              		.loc 1 1923 0
 2236 0024 154B     		ldr	r3, .L243+8
1912:.\Generated_Source\PSoC5/CyLib.c ****     interruptState = CyEnterCriticalSection();
 2237              		.loc 1 1912 0
 2238 0026 8046     		mov	r8, r0
 2239              	.LVL126:
1923:.\Generated_Source\PSoC5/CyLib.c ****                             (CY_VD_LVI_TRIP_REG & ((uint8)(~CY_VD_LVI_TRIP_LVID_MASK)));
 2240              		.loc 1 1923 0
 2241 0028 1A78     		ldrb	r2, [r3]	@ zero_extendqisi2
1927:.\Generated_Source\PSoC5/CyLib.c ****     CyDelayUs(1u);
 2242              		.loc 1 1927 0
 2243 002a 2846     		mov	r0, r5
 2244              	.LVL127:
1922:.\Generated_Source\PSoC5/CyLib.c ****     CY_VD_LVI_TRIP_REG = (threshold & CY_VD_LVI_TRIP_LVID_MASK) |
 2245              		.loc 1 1922 0
 2246 002c 02F0F002 		and	r2, r2, #240
 2247 0030 49EA0209 		orr	r9, r9, r2
 2248 0034 83F80090 		strb	r9, [r3]
1924:.\Generated_Source\PSoC5/CyLib.c ****     CY_VD_LVI_HVI_CONTROL_REG |= CY_VD_LVID_EN;
 2249              		.loc 1 1924 0
 2250 0038 5A78     		ldrb	r2, [r3, #1]	@ zero_extendqisi2
1915:.\Generated_Source\PSoC5/CyLib.c ****     intRegTmp = CY_INT_ENABLE_REG & CY_VD_INT_MASK;
 2251              		.loc 1 1915 0
 2252 003a 07F00107 		and	r7, r7, #1
 2253              	.LVL128:
1924:.\Generated_Source\PSoC5/CyLib.c ****     CY_VD_LVI_HVI_CONTROL_REG |= CY_VD_LVID_EN;
 2254              		.loc 1 1924 0
 2255 003e 2A43     		orrs	r2, r2, r5
 2256 0040 5A70     		strb	r2, [r3, #1]
1927:.\Generated_Source\PSoC5/CyLib.c ****     CyDelayUs(1u);
 2257              		.loc 1 1927 0
 2258 0042 FFF7FEFF 		bl	CyDelayUs
 2259              	.LVL129:
ARM GAS  C:\Users\Yiquing\AppData\Local\Temp\ccsAoMV1.s 			page 83


1929:.\Generated_Source\PSoC5/CyLib.c ****     (void) CyVdStickyStatus(CY_VD_LVID);
 2260              		.loc 1 1929 0
 2261 0046 2846     		mov	r0, r5
 2262 0048 FFF7FEFF 		bl	CyVdStickyStatus
 2263              	.LVL130:
1933:.\Generated_Source\PSoC5/CyLib.c ****         CY_VD_PRES_CONTROL_REG |= CY_VD_PRESD_EN;
 2264              		.loc 1 1933 0
 2265 004c 2378     		ldrb	r3, [r4]	@ zero_extendqisi2
1931:.\Generated_Source\PSoC5/CyLib.c ****     if(0u != reset)
 2266              		.loc 1 1931 0
 2267 004e 16B1     		cbz	r6, .L240
1933:.\Generated_Source\PSoC5/CyLib.c ****         CY_VD_PRES_CONTROL_REG |= CY_VD_PRESD_EN;
 2268              		.loc 1 1933 0
 2269 0050 43F04003 		orr	r3, r3, #64
 2270 0054 01E0     		b	.L242
 2271              	.L240:
1937:.\Generated_Source\PSoC5/CyLib.c ****         CY_VD_PRES_CONTROL_REG &= ((uint8)(~CY_VD_PRESD_EN));
 2272              		.loc 1 1937 0
 2273 0056 03F0BF03 		and	r3, r3, #191
 2274              	.L242:
 2275 005a 2370     		strb	r3, [r4]
1941:.\Generated_Source\PSoC5/CyLib.c ****     CY_INT_CLR_PEND_REG = CY_VD_INT_MASK;
 2276              		.loc 1 1941 0
 2277 005c 084B     		ldr	r3, .L243+12
 2278 005e 0122     		movs	r2, #1
 2279 0060 1A60     		str	r2, [r3]
1944:.\Generated_Source\PSoC5/CyLib.c ****     CY_INT_ENABLE_REG = intRegTmp;
 2280              		.loc 1 1944 0
 2281 0062 A3F5C073 		sub	r3, r3, #384
 2282 0066 1F60     		str	r7, [r3]
1946:.\Generated_Source\PSoC5/CyLib.c ****     CyExitCriticalSection(interruptState);
 2283              		.loc 1 1946 0
 2284 0068 4046     		mov	r0, r8
1947:.\Generated_Source\PSoC5/CyLib.c **** }
 2285              		.loc 1 1947 0
 2286 006a BDE8F843 		pop	{r3, r4, r5, r6, r7, r8, r9, lr}
 2287              	.LVL131:
1946:.\Generated_Source\PSoC5/CyLib.c ****     CyExitCriticalSection(interruptState);
 2288              		.loc 1 1946 0
 2289 006e FFF7FEBF 		b	CyExitCriticalSection
 2290              	.LVL132:
 2291              	.L244:
 2292 0072 00BF     		.align	2
 2293              	.L243:
 2294 0074 00E100E0 		.word	-536813312
 2295 0078 F7460040 		.word	1073759991
 2296 007c F4460040 		.word	1073759988
 2297 0080 80E200E0 		.word	-536812928
 2298              		.cfi_endproc
 2299              	.LFE46:
 2300              		.size	CyVdLvDigitEnable, .-CyVdLvDigitEnable
 2301              		.section	.text.CyVdLvAnalogEnable,"ax",%progbits
 2302              		.align	1
 2303              		.global	CyVdLvAnalogEnable
 2304              		.thumb
 2305              		.thumb_func
 2306              		.type	CyVdLvAnalogEnable, %function
ARM GAS  C:\Users\Yiquing\AppData\Local\Temp\ccsAoMV1.s 			page 84


 2307              	CyVdLvAnalogEnable:
 2308              	.LFB47:
1993:.\Generated_Source\PSoC5/CyLib.c **** {
 2309              		.loc 1 1993 0
 2310              		.cfi_startproc
 2311              		@ args = 0, pretend = 0, frame = 0
 2312              		@ frame_needed = 0, uses_anonymous_args = 0
 2313              	.LVL133:
 2314 0000 2DE9F041 		push	{r4, r5, r6, r7, r8, lr}
 2315              		.cfi_def_cfa_offset 24
 2316              		.cfi_offset 4, -24
 2317              		.cfi_offset 5, -20
 2318              		.cfi_offset 6, -16
 2319              		.cfi_offset 7, -12
 2320              		.cfi_offset 8, -8
 2321              		.cfi_offset 14, -4
1993:.\Generated_Source\PSoC5/CyLib.c **** {
 2322              		.loc 1 1993 0
 2323 0004 8846     		mov	r8, r1
 2324 0006 0546     		mov	r5, r0
1997:.\Generated_Source\PSoC5/CyLib.c ****     interruptState = CyEnterCriticalSection();
 2325              		.loc 1 1997 0
 2326 0008 FFF7FEFF 		bl	CyEnterCriticalSection
 2327              	.LVL134:
2000:.\Generated_Source\PSoC5/CyLib.c ****     intRegTmp = CY_INT_ENABLE_REG & CY_VD_INT_MASK;
 2328              		.loc 1 2000 0
 2329 000c 194B     		ldr	r3, .L249
2003:.\Generated_Source\PSoC5/CyLib.c ****     CY_INT_CLEAR_REG = CY_VD_INT_MASK;
 2330              		.loc 1 2003 0
 2331 000e 1A4A     		ldr	r2, .L249+4
2005:.\Generated_Source\PSoC5/CyLib.c ****     CY_VD_PRES_CONTROL_REG &= ((uint8)(~CY_VD_PRESA_EN));
 2332              		.loc 1 2005 0
 2333 0010 1A4C     		ldr	r4, .L249+8
1997:.\Generated_Source\PSoC5/CyLib.c ****     interruptState = CyEnterCriticalSection();
 2334              		.loc 1 1997 0
 2335 0012 0746     		mov	r7, r0
 2336              	.LVL135:
2003:.\Generated_Source\PSoC5/CyLib.c ****     CY_INT_CLEAR_REG = CY_VD_INT_MASK;
 2337              		.loc 1 2003 0
 2338 0014 0120     		movs	r0, #1
 2339              	.LVL136:
2000:.\Generated_Source\PSoC5/CyLib.c ****     intRegTmp = CY_INT_ENABLE_REG & CY_VD_INT_MASK;
 2340              		.loc 1 2000 0
 2341 0016 1E68     		ldr	r6, [r3]
2003:.\Generated_Source\PSoC5/CyLib.c ****     CY_INT_CLEAR_REG = CY_VD_INT_MASK;
 2342              		.loc 1 2003 0
 2343 0018 1060     		str	r0, [r2]
2005:.\Generated_Source\PSoC5/CyLib.c ****     CY_VD_PRES_CONTROL_REG &= ((uint8)(~CY_VD_PRESA_EN));
 2344              		.loc 1 2005 0
 2345 001a 2278     		ldrb	r2, [r4]	@ zero_extendqisi2
2000:.\Generated_Source\PSoC5/CyLib.c ****     intRegTmp = CY_INT_ENABLE_REG & CY_VD_INT_MASK;
 2346              		.loc 1 2000 0
 2347 001c 06F00106 		and	r6, r6, #1
 2348              	.LVL137:
2005:.\Generated_Source\PSoC5/CyLib.c ****     CY_VD_PRES_CONTROL_REG &= ((uint8)(~CY_VD_PRESA_EN));
 2349              		.loc 1 2005 0
 2350 0020 02F07F02 		and	r2, r2, #127
ARM GAS  C:\Users\Yiquing\AppData\Local\Temp\ccsAoMV1.s 			page 85


 2351 0024 2270     		strb	r2, [r4]
2007:.\Generated_Source\PSoC5/CyLib.c ****     CY_VD_LVI_TRIP_REG = ((uint8)(threshold << 4u)) | (CY_VD_LVI_TRIP_REG & 0x0Fu);
 2352              		.loc 1 2007 0
 2353 0026 164A     		ldr	r2, .L249+12
 2354 0028 1178     		ldrb	r1, [r2]	@ zero_extendqisi2
 2355 002a 01F00F01 		and	r1, r1, #15
 2356 002e 41EA0818 		orr	r8, r1, r8, lsl #4
 2357 0032 5FFA88F8 		uxtb	r8, r8
 2358 0036 82F80080 		strb	r8, [r2]
2008:.\Generated_Source\PSoC5/CyLib.c ****     CY_VD_LVI_HVI_CONTROL_REG |= CY_VD_LVIA_EN;
 2359              		.loc 1 2008 0
 2360 003a 5178     		ldrb	r1, [r2, #1]	@ zero_extendqisi2
 2361 003c 41F00201 		orr	r1, r1, #2
 2362 0040 5170     		strb	r1, [r2, #1]
2011:.\Generated_Source\PSoC5/CyLib.c ****     CyDelayUs(1u);
 2363              		.loc 1 2011 0
 2364 0042 FFF7FEFF 		bl	CyDelayUs
 2365              	.LVL138:
2013:.\Generated_Source\PSoC5/CyLib.c ****     (void) CyVdStickyStatus(CY_VD_LVIA);
 2366              		.loc 1 2013 0
 2367 0046 0220     		movs	r0, #2
 2368 0048 FFF7FEFF 		bl	CyVdStickyStatus
 2369              	.LVL139:
2017:.\Generated_Source\PSoC5/CyLib.c ****         CY_VD_PRES_CONTROL_REG |= CY_VD_PRESA_EN;
 2370              		.loc 1 2017 0
 2371 004c 2378     		ldrb	r3, [r4]	@ zero_extendqisi2
2015:.\Generated_Source\PSoC5/CyLib.c ****     if(0u != reset)
 2372              		.loc 1 2015 0
 2373 004e 15B1     		cbz	r5, .L246
2017:.\Generated_Source\PSoC5/CyLib.c ****         CY_VD_PRES_CONTROL_REG |= CY_VD_PRESA_EN;
 2374              		.loc 1 2017 0
 2375 0050 43F08003 		orr	r3, r3, #128
 2376 0054 01E0     		b	.L248
 2377              	.L246:
2021:.\Generated_Source\PSoC5/CyLib.c ****         CY_VD_PRES_CONTROL_REG &= ((uint8)(~CY_VD_PRESA_EN));
 2378              		.loc 1 2021 0
 2379 0056 03F07F03 		and	r3, r3, #127
 2380              	.L248:
 2381 005a 2370     		strb	r3, [r4]
2025:.\Generated_Source\PSoC5/CyLib.c ****     CY_INT_CLR_PEND_REG = CY_VD_INT_MASK;
 2382              		.loc 1 2025 0
 2383 005c 094B     		ldr	r3, .L249+16
 2384 005e 0122     		movs	r2, #1
 2385 0060 1A60     		str	r2, [r3]
2028:.\Generated_Source\PSoC5/CyLib.c ****     CY_INT_ENABLE_REG = intRegTmp;
 2386              		.loc 1 2028 0
 2387 0062 A3F5C073 		sub	r3, r3, #384
 2388 0066 1E60     		str	r6, [r3]
2030:.\Generated_Source\PSoC5/CyLib.c ****     CyExitCriticalSection(interruptState);
 2389              		.loc 1 2030 0
 2390 0068 3846     		mov	r0, r7
2031:.\Generated_Source\PSoC5/CyLib.c **** }
 2391              		.loc 1 2031 0
 2392 006a BDE8F041 		pop	{r4, r5, r6, r7, r8, lr}
 2393              	.LVL140:
2030:.\Generated_Source\PSoC5/CyLib.c ****     CyExitCriticalSection(interruptState);
 2394              		.loc 1 2030 0
ARM GAS  C:\Users\Yiquing\AppData\Local\Temp\ccsAoMV1.s 			page 86


 2395 006e FFF7FEBF 		b	CyExitCriticalSection
 2396              	.LVL141:
 2397              	.L250:
 2398 0072 00BF     		.align	2
 2399              	.L249:
 2400 0074 00E100E0 		.word	-536813312
 2401 0078 80E100E0 		.word	-536813184
 2402 007c F7460040 		.word	1073759991
 2403 0080 F4460040 		.word	1073759988
 2404 0084 80E200E0 		.word	-536812928
 2405              		.cfi_endproc
 2406              	.LFE47:
 2407              		.size	CyVdLvAnalogEnable, .-CyVdLvAnalogEnable
 2408              		.section	.text.CyVdLvDigitDisable,"ax",%progbits
 2409              		.align	1
 2410              		.global	CyVdLvDigitDisable
 2411              		.thumb
 2412              		.thumb_func
 2413              		.type	CyVdLvDigitDisable, %function
 2414              	CyVdLvDigitDisable:
 2415              	.LFB48:
2054:.\Generated_Source\PSoC5/CyLib.c **** {
 2416              		.loc 1 2054 0
 2417              		.cfi_startproc
 2418              		@ args = 0, pretend = 0, frame = 0
 2419              		@ frame_needed = 0, uses_anonymous_args = 0
 2420 0000 08B5     		push	{r3, lr}
 2421              		.cfi_def_cfa_offset 8
 2422              		.cfi_offset 3, -8
 2423              		.cfi_offset 14, -4
2055:.\Generated_Source\PSoC5/CyLib.c ****     CY_VD_LVI_HVI_CONTROL_REG &= ((uint8)(~CY_VD_LVID_EN));
 2424              		.loc 1 2055 0
 2425 0002 094B     		ldr	r3, .L254
2057:.\Generated_Source\PSoC5/CyLib.c ****     (void) CyVdStickyStatus(CY_VD_LVID);
 2426              		.loc 1 2057 0
 2427 0004 0120     		movs	r0, #1
2055:.\Generated_Source\PSoC5/CyLib.c ****     CY_VD_LVI_HVI_CONTROL_REG &= ((uint8)(~CY_VD_LVID_EN));
 2428              		.loc 1 2055 0
 2429 0006 1A78     		ldrb	r2, [r3]	@ zero_extendqisi2
 2430 0008 02F0FE02 		and	r2, r2, #254
 2431 000c 1A70     		strb	r2, [r3]
2056:.\Generated_Source\PSoC5/CyLib.c ****     CY_VD_PRES_CONTROL_REG &= ((uint8)(~CY_VD_PRESD_EN));
 2432              		.loc 1 2056 0
 2433 000e 9A78     		ldrb	r2, [r3, #2]	@ zero_extendqisi2
 2434 0010 02F0BF02 		and	r2, r2, #191
 2435 0014 9A70     		strb	r2, [r3, #2]
2057:.\Generated_Source\PSoC5/CyLib.c ****     (void) CyVdStickyStatus(CY_VD_LVID);
 2436              		.loc 1 2057 0
 2437 0016 FFF7FEFF 		bl	CyVdStickyStatus
 2438              	.LVL142:
 2439              	.L253:
2059:.\Generated_Source\PSoC5/CyLib.c ****     while(0u != (CyVdStickyStatus(CY_VD_LVID) & CY_VD_LVID))
 2440              		.loc 1 2059 0 discriminator 1
 2441 001a 0120     		movs	r0, #1
 2442 001c FFF7FEFF 		bl	CyVdStickyStatus
 2443              	.LVL143:
 2444 0020 C307     		lsls	r3, r0, #31
ARM GAS  C:\Users\Yiquing\AppData\Local\Temp\ccsAoMV1.s 			page 87


 2445 0022 FAD4     		bmi	.L253
2063:.\Generated_Source\PSoC5/CyLib.c **** }
 2446              		.loc 1 2063 0
 2447 0024 08BD     		pop	{r3, pc}
 2448              	.L255:
 2449 0026 00BF     		.align	2
 2450              	.L254:
 2451 0028 F5460040 		.word	1073759989
 2452              		.cfi_endproc
 2453              	.LFE48:
 2454              		.size	CyVdLvDigitDisable, .-CyVdLvDigitDisable
 2455              		.section	.text.CyVdLvAnalogDisable,"ax",%progbits
 2456              		.align	1
 2457              		.global	CyVdLvAnalogDisable
 2458              		.thumb
 2459              		.thumb_func
 2460              		.type	CyVdLvAnalogDisable, %function
 2461              	CyVdLvAnalogDisable:
 2462              	.LFB49:
2086:.\Generated_Source\PSoC5/CyLib.c **** {
 2463              		.loc 1 2086 0
 2464              		.cfi_startproc
 2465              		@ args = 0, pretend = 0, frame = 0
 2466              		@ frame_needed = 0, uses_anonymous_args = 0
 2467 0000 08B5     		push	{r3, lr}
 2468              		.cfi_def_cfa_offset 8
 2469              		.cfi_offset 3, -8
 2470              		.cfi_offset 14, -4
2087:.\Generated_Source\PSoC5/CyLib.c ****     CY_VD_LVI_HVI_CONTROL_REG &= ((uint8)(~CY_VD_LVIA_EN));
 2471              		.loc 1 2087 0
 2472 0002 074B     		ldr	r3, .L259
 2473 0004 1A78     		ldrb	r2, [r3]	@ zero_extendqisi2
 2474 0006 02F0FD02 		and	r2, r2, #253
 2475 000a 1A70     		strb	r2, [r3]
2088:.\Generated_Source\PSoC5/CyLib.c ****     CY_VD_PRES_CONTROL_REG &= ((uint8)(~CY_VD_PRESA_EN));
 2476              		.loc 1 2088 0
 2477 000c 9A78     		ldrb	r2, [r3, #2]	@ zero_extendqisi2
 2478 000e 02F07F02 		and	r2, r2, #127
 2479 0012 9A70     		strb	r2, [r3, #2]
 2480              	.L258:
2089:.\Generated_Source\PSoC5/CyLib.c ****     while(0u != (CyVdStickyStatus(CY_VD_LVIA) & CY_VD_LVIA))
 2481              		.loc 1 2089 0 discriminator 1
 2482 0014 0220     		movs	r0, #2
 2483 0016 FFF7FEFF 		bl	CyVdStickyStatus
 2484              	.LVL144:
 2485 001a 8307     		lsls	r3, r0, #30
 2486 001c FAD4     		bmi	.L258
2093:.\Generated_Source\PSoC5/CyLib.c **** }
 2487              		.loc 1 2093 0
 2488 001e 08BD     		pop	{r3, pc}
 2489              	.L260:
 2490              		.align	2
 2491              	.L259:
 2492 0020 F5460040 		.word	1073759989
 2493              		.cfi_endproc
 2494              	.LFE49:
 2495              		.size	CyVdLvAnalogDisable, .-CyVdLvAnalogDisable
ARM GAS  C:\Users\Yiquing\AppData\Local\Temp\ccsAoMV1.s 			page 88


 2496              		.section	.text.CyVdHvAnalogEnable,"ax",%progbits
 2497              		.align	1
 2498              		.global	CyVdHvAnalogEnable
 2499              		.thumb
 2500              		.thumb_func
 2501              		.type	CyVdHvAnalogEnable, %function
 2502              	CyVdHvAnalogEnable:
 2503              	.LFB50:
2116:.\Generated_Source\PSoC5/CyLib.c **** {
 2504              		.loc 1 2116 0
 2505              		.cfi_startproc
 2506              		@ args = 0, pretend = 0, frame = 0
 2507              		@ frame_needed = 0, uses_anonymous_args = 0
 2508 0000 F8B5     		push	{r3, r4, r5, r6, r7, lr}
 2509              		.cfi_def_cfa_offset 24
 2510              		.cfi_offset 3, -24
 2511              		.cfi_offset 4, -20
 2512              		.cfi_offset 5, -16
 2513              		.cfi_offset 6, -12
 2514              		.cfi_offset 7, -8
 2515              		.cfi_offset 14, -4
2120:.\Generated_Source\PSoC5/CyLib.c ****     interruptState = CyEnterCriticalSection();
 2516              		.loc 1 2120 0
 2517 0002 FFF7FEFF 		bl	CyEnterCriticalSection
 2518              	.LVL145:
2123:.\Generated_Source\PSoC5/CyLib.c ****     intRegTmp = CY_INT_ENABLE_REG & CY_VD_INT_MASK;
 2519              		.loc 1 2123 0
 2520 0006 104D     		ldr	r5, .L262
2126:.\Generated_Source\PSoC5/CyLib.c ****     CY_INT_CLEAR_REG = CY_VD_INT_MASK;
 2521              		.loc 1 2126 0
 2522 0008 104B     		ldr	r3, .L262+4
 2523 000a 0124     		movs	r4, #1
2123:.\Generated_Source\PSoC5/CyLib.c ****     intRegTmp = CY_INT_ENABLE_REG & CY_VD_INT_MASK;
 2524              		.loc 1 2123 0
 2525 000c 2E68     		ldr	r6, [r5]
2126:.\Generated_Source\PSoC5/CyLib.c ****     CY_INT_CLEAR_REG = CY_VD_INT_MASK;
 2526              		.loc 1 2126 0
 2527 000e 1C60     		str	r4, [r3]
2128:.\Generated_Source\PSoC5/CyLib.c ****     CY_VD_PRES_CONTROL_REG &= ((uint8)(~CY_VD_PRESA_EN));
 2528              		.loc 1 2128 0
 2529 0010 0F4B     		ldr	r3, .L262+8
2120:.\Generated_Source\PSoC5/CyLib.c ****     interruptState = CyEnterCriticalSection();
 2530              		.loc 1 2120 0
 2531 0012 0746     		mov	r7, r0
 2532              	.LVL146:
2128:.\Generated_Source\PSoC5/CyLib.c ****     CY_VD_PRES_CONTROL_REG &= ((uint8)(~CY_VD_PRESA_EN));
 2533              		.loc 1 2128 0
 2534 0014 1A78     		ldrb	r2, [r3]	@ zero_extendqisi2
2133:.\Generated_Source\PSoC5/CyLib.c ****     CyDelayUs(1u);
 2535              		.loc 1 2133 0
 2536 0016 2046     		mov	r0, r4
 2537              	.LVL147:
2128:.\Generated_Source\PSoC5/CyLib.c ****     CY_VD_PRES_CONTROL_REG &= ((uint8)(~CY_VD_PRESA_EN));
 2538              		.loc 1 2128 0
 2539 0018 02F07F02 		and	r2, r2, #127
 2540 001c 1A70     		strb	r2, [r3]
2130:.\Generated_Source\PSoC5/CyLib.c ****     CY_VD_LVI_HVI_CONTROL_REG |= CY_VD_HVIA_EN;
ARM GAS  C:\Users\Yiquing\AppData\Local\Temp\ccsAoMV1.s 			page 89


 2541              		.loc 1 2130 0
 2542 001e 13F8022C 		ldrb	r2, [r3, #-2]	@ zero_extendqisi2
2123:.\Generated_Source\PSoC5/CyLib.c ****     intRegTmp = CY_INT_ENABLE_REG & CY_VD_INT_MASK;
 2543              		.loc 1 2123 0
 2544 0022 06F00106 		and	r6, r6, #1
 2545              	.LVL148:
2130:.\Generated_Source\PSoC5/CyLib.c ****     CY_VD_LVI_HVI_CONTROL_REG |= CY_VD_HVIA_EN;
 2546              		.loc 1 2130 0
 2547 0026 42F00402 		orr	r2, r2, #4
 2548 002a 03F8022C 		strb	r2, [r3, #-2]
2133:.\Generated_Source\PSoC5/CyLib.c ****     CyDelayUs(1u);
 2549              		.loc 1 2133 0
 2550 002e FFF7FEFF 		bl	CyDelayUs
 2551              	.LVL149:
2135:.\Generated_Source\PSoC5/CyLib.c ****     (void) CyVdStickyStatus(CY_VD_HVIA);
 2552              		.loc 1 2135 0
 2553 0032 0420     		movs	r0, #4
 2554 0034 FFF7FEFF 		bl	CyVdStickyStatus
 2555              	.LVL150:
2138:.\Generated_Source\PSoC5/CyLib.c ****     CY_INT_CLR_PEND_REG = CY_VD_INT_MASK;
 2556              		.loc 1 2138 0
 2557 0038 064B     		ldr	r3, .L262+12
2143:.\Generated_Source\PSoC5/CyLib.c ****     CyExitCriticalSection(interruptState);
 2558              		.loc 1 2143 0
 2559 003a 3846     		mov	r0, r7
2138:.\Generated_Source\PSoC5/CyLib.c ****     CY_INT_CLR_PEND_REG = CY_VD_INT_MASK;
 2560              		.loc 1 2138 0
 2561 003c 1C60     		str	r4, [r3]
2141:.\Generated_Source\PSoC5/CyLib.c ****     CY_INT_ENABLE_REG = intRegTmp;
 2562              		.loc 1 2141 0
 2563 003e 2E60     		str	r6, [r5]
2144:.\Generated_Source\PSoC5/CyLib.c **** }
 2564              		.loc 1 2144 0
 2565 0040 BDE8F840 		pop	{r3, r4, r5, r6, r7, lr}
 2566              	.LVL151:
2143:.\Generated_Source\PSoC5/CyLib.c ****     CyExitCriticalSection(interruptState);
 2567              		.loc 1 2143 0
 2568 0044 FFF7FEBF 		b	CyExitCriticalSection
 2569              	.LVL152:
 2570              	.L263:
 2571              		.align	2
 2572              	.L262:
 2573 0048 00E100E0 		.word	-536813312
 2574 004c 80E100E0 		.word	-536813184
 2575 0050 F7460040 		.word	1073759991
 2576 0054 80E200E0 		.word	-536812928
 2577              		.cfi_endproc
 2578              	.LFE50:
 2579              		.size	CyVdHvAnalogEnable, .-CyVdHvAnalogEnable
 2580              		.section	.text.CyVdHvAnalogDisable,"ax",%progbits
 2581              		.align	1
 2582              		.global	CyVdHvAnalogDisable
 2583              		.thumb
 2584              		.thumb_func
 2585              		.type	CyVdHvAnalogDisable, %function
 2586              	CyVdHvAnalogDisable:
 2587              	.LFB51:
ARM GAS  C:\Users\Yiquing\AppData\Local\Temp\ccsAoMV1.s 			page 90


2167:.\Generated_Source\PSoC5/CyLib.c **** {
 2588              		.loc 1 2167 0
 2589              		.cfi_startproc
 2590              		@ args = 0, pretend = 0, frame = 0
 2591              		@ frame_needed = 0, uses_anonymous_args = 0
 2592 0000 08B5     		push	{r3, lr}
 2593              		.cfi_def_cfa_offset 8
 2594              		.cfi_offset 3, -8
 2595              		.cfi_offset 14, -4
2168:.\Generated_Source\PSoC5/CyLib.c ****     CY_VD_LVI_HVI_CONTROL_REG &= ((uint8)(~CY_VD_HVIA_EN));
 2596              		.loc 1 2168 0
 2597 0002 054B     		ldr	r3, .L267
 2598 0004 1A78     		ldrb	r2, [r3]	@ zero_extendqisi2
 2599 0006 02F0FB02 		and	r2, r2, #251
 2600 000a 1A70     		strb	r2, [r3]
 2601              	.L266:
2169:.\Generated_Source\PSoC5/CyLib.c ****     while(0u != (CyVdStickyStatus(CY_VD_HVIA) & CY_VD_HVIA))
 2602              		.loc 1 2169 0 discriminator 1
 2603 000c 0420     		movs	r0, #4
 2604 000e FFF7FEFF 		bl	CyVdStickyStatus
 2605              	.LVL153:
 2606 0012 4307     		lsls	r3, r0, #29
 2607 0014 FAD4     		bmi	.L266
2173:.\Generated_Source\PSoC5/CyLib.c **** }
 2608              		.loc 1 2173 0
 2609 0016 08BD     		pop	{r3, pc}
 2610              	.L268:
 2611              		.align	2
 2612              	.L267:
 2613 0018 F5460040 		.word	1073759989
 2614              		.cfi_endproc
 2615              	.LFE51:
 2616              		.size	CyVdHvAnalogDisable, .-CyVdHvAnalogDisable
 2617              		.section	.text.CyVdRealTimeStatus,"ax",%progbits
 2618              		.align	1
 2619              		.global	CyVdRealTimeStatus
 2620              		.thumb
 2621              		.thumb_func
 2622              		.type	CyVdRealTimeStatus, %function
 2623              	CyVdRealTimeStatus:
 2624              	.LFB53:
2220:.\Generated_Source\PSoC5/CyLib.c **** 
2221:.\Generated_Source\PSoC5/CyLib.c **** 
2222:.\Generated_Source\PSoC5/CyLib.c **** /*******************************************************************************
2223:.\Generated_Source\PSoC5/CyLib.c **** * Function Name: CyVdRealTimeStatus
2224:.\Generated_Source\PSoC5/CyLib.c **** ********************************************************************************
2225:.\Generated_Source\PSoC5/CyLib.c **** *
2226:.\Generated_Source\PSoC5/CyLib.c **** * Summary:
2227:.\Generated_Source\PSoC5/CyLib.c **** *  Reads the real-time voltage detection status bits in the RESET_SR2 register.
2228:.\Generated_Source\PSoC5/CyLib.c **** *  The bits are set to 1 by the voltage monitor circuit when the supply is
2229:.\Generated_Source\PSoC5/CyLib.c **** *  outside the detectors trip point, and set to 0 when the supply is inside the
2230:.\Generated_Source\PSoC5/CyLib.c **** *  trip point.
2231:.\Generated_Source\PSoC5/CyLib.c **** *
2232:.\Generated_Source\PSoC5/CyLib.c **** * Parameters:
2233:.\Generated_Source\PSoC5/CyLib.c **** *  None
2234:.\Generated_Source\PSoC5/CyLib.c **** *
2235:.\Generated_Source\PSoC5/CyLib.c **** * Return:
ARM GAS  C:\Users\Yiquing\AppData\Local\Temp\ccsAoMV1.s 			page 91


2236:.\Generated_Source\PSoC5/CyLib.c **** *  Status of the LVID, LVIA, and HVIA bits in the RESET_SR2 register.
2237:.\Generated_Source\PSoC5/CyLib.c **** *   Define                  Definition
2238:.\Generated_Source\PSoC5/CyLib.c **** *   CY_VD_LVID            Real-time status of digital LVI.
2239:.\Generated_Source\PSoC5/CyLib.c **** *   CY_VD_LVIA            Real-time status of analog LVI.
2240:.\Generated_Source\PSoC5/CyLib.c **** *   CY_VD_HVIA            Real-time status of analog HVI.
2241:.\Generated_Source\PSoC5/CyLib.c **** *
2242:.\Generated_Source\PSoC5/CyLib.c **** * Side Effects and Restrictions:
2243:.\Generated_Source\PSoC5/CyLib.c **** *  When an LVI reset occurs, the RESET_SR2 status registers are cleared. This
2244:.\Generated_Source\PSoC5/CyLib.c **** *  means that the voltage detection status bits are not persistent across an LVI
2245:.\Generated_Source\PSoC5/CyLib.c **** *  reset and cannot be used to determine a reset source.
2246:.\Generated_Source\PSoC5/CyLib.c **** *
2247:.\Generated_Source\PSoC5/CyLib.c **** *******************************************************************************/
2248:.\Generated_Source\PSoC5/CyLib.c **** uint8 CyVdRealTimeStatus(void) 
2249:.\Generated_Source\PSoC5/CyLib.c **** {
 2625              		.loc 1 2249 0
 2626              		.cfi_startproc
 2627              		@ args = 0, pretend = 0, frame = 0
 2628              		@ frame_needed = 0, uses_anonymous_args = 0
 2629 0000 10B5     		push	{r4, lr}
 2630              		.cfi_def_cfa_offset 8
 2631              		.cfi_offset 4, -8
 2632              		.cfi_offset 14, -4
2250:.\Generated_Source\PSoC5/CyLib.c ****     uint8 interruptState;
2251:.\Generated_Source\PSoC5/CyLib.c ****     uint8 vdFlagsState;
2252:.\Generated_Source\PSoC5/CyLib.c **** 
2253:.\Generated_Source\PSoC5/CyLib.c ****     interruptState = CyEnterCriticalSection();
 2633              		.loc 1 2253 0
 2634 0002 FFF7FEFF 		bl	CyEnterCriticalSection
 2635              	.LVL154:
2254:.\Generated_Source\PSoC5/CyLib.c ****     vdFlagsState = CY_VD_RT_STATUS_REG & (CY_VD_LVID | CY_VD_LVIA | CY_VD_HVIA);
 2636              		.loc 1 2254 0
 2637 0006 044B     		ldr	r3, .L270
 2638 0008 1C78     		ldrb	r4, [r3]	@ zero_extendqisi2
2255:.\Generated_Source\PSoC5/CyLib.c ****     CyExitCriticalSection(interruptState);
 2639              		.loc 1 2255 0
 2640 000a FFF7FEFF 		bl	CyExitCriticalSection
 2641              	.LVL155:
2254:.\Generated_Source\PSoC5/CyLib.c ****     vdFlagsState = CY_VD_RT_STATUS_REG & (CY_VD_LVID | CY_VD_LVIA | CY_VD_HVIA);
 2642              		.loc 1 2254 0
 2643 000e E4B2     		uxtb	r4, r4
 2644              	.LVL156:
2256:.\Generated_Source\PSoC5/CyLib.c **** 
2257:.\Generated_Source\PSoC5/CyLib.c ****     return(vdFlagsState);
2258:.\Generated_Source\PSoC5/CyLib.c **** }
 2645              		.loc 1 2258 0
 2646 0010 04F00700 		and	r0, r4, #7
 2647 0014 10BD     		pop	{r4, pc}
 2648              	.LVL157:
 2649              	.L271:
 2650 0016 00BF     		.align	2
 2651              	.L270:
 2652 0018 FC460040 		.word	1073759996
 2653              		.cfi_endproc
 2654              	.LFE53:
 2655              		.size	CyVdRealTimeStatus, .-CyVdRealTimeStatus
 2656              		.section	.text.CyDisableInts,"ax",%progbits
 2657              		.align	1
ARM GAS  C:\Users\Yiquing\AppData\Local\Temp\ccsAoMV1.s 			page 92


 2658              		.global	CyDisableInts
 2659              		.thumb
 2660              		.thumb_func
 2661              		.type	CyDisableInts, %function
 2662              	CyDisableInts:
 2663              	.LFB54:
2259:.\Generated_Source\PSoC5/CyLib.c **** 
2260:.\Generated_Source\PSoC5/CyLib.c **** 
2261:.\Generated_Source\PSoC5/CyLib.c **** /*******************************************************************************
2262:.\Generated_Source\PSoC5/CyLib.c **** * Function Name: CyDisableInts
2263:.\Generated_Source\PSoC5/CyLib.c **** ********************************************************************************
2264:.\Generated_Source\PSoC5/CyLib.c **** *
2265:.\Generated_Source\PSoC5/CyLib.c **** * Summary:
2266:.\Generated_Source\PSoC5/CyLib.c **** *  Disables the interrupt enable for each interrupt.
2267:.\Generated_Source\PSoC5/CyLib.c **** *
2268:.\Generated_Source\PSoC5/CyLib.c **** * Parameters:
2269:.\Generated_Source\PSoC5/CyLib.c **** *  None
2270:.\Generated_Source\PSoC5/CyLib.c **** *
2271:.\Generated_Source\PSoC5/CyLib.c **** * Return:
2272:.\Generated_Source\PSoC5/CyLib.c **** *  32 bit mask of previously enabled interrupts.
2273:.\Generated_Source\PSoC5/CyLib.c **** *
2274:.\Generated_Source\PSoC5/CyLib.c **** *******************************************************************************/
2275:.\Generated_Source\PSoC5/CyLib.c **** uint32 CyDisableInts(void) 
2276:.\Generated_Source\PSoC5/CyLib.c **** {
 2664              		.loc 1 2276 0
 2665              		.cfi_startproc
 2666              		@ args = 0, pretend = 0, frame = 0
 2667              		@ frame_needed = 0, uses_anonymous_args = 0
 2668 0000 10B5     		push	{r4, lr}
 2669              		.cfi_def_cfa_offset 8
 2670              		.cfi_offset 4, -8
 2671              		.cfi_offset 14, -4
2277:.\Generated_Source\PSoC5/CyLib.c ****     uint32 intState;
2278:.\Generated_Source\PSoC5/CyLib.c ****     uint8 interruptState;
2279:.\Generated_Source\PSoC5/CyLib.c **** 
2280:.\Generated_Source\PSoC5/CyLib.c ****     interruptState = CyEnterCriticalSection();
 2672              		.loc 1 2280 0
 2673 0002 FFF7FEFF 		bl	CyEnterCriticalSection
 2674              	.LVL158:
2281:.\Generated_Source\PSoC5/CyLib.c **** 
2282:.\Generated_Source\PSoC5/CyLib.c ****     #if(CY_PSOC3)
2283:.\Generated_Source\PSoC5/CyLib.c **** 
2284:.\Generated_Source\PSoC5/CyLib.c ****         /* Get the current interrupt state. */
2285:.\Generated_Source\PSoC5/CyLib.c ****         intState  = ((uint32) CY_GET_REG8(CY_INT_CLR_EN0_PTR));
2286:.\Generated_Source\PSoC5/CyLib.c ****         intState |= ((uint32) (((uint32) CY_GET_REG8(CY_INT_CLR_EN1_PTR)) << 8u));
2287:.\Generated_Source\PSoC5/CyLib.c ****         intState |= ((uint32) (((uint32) CY_GET_REG8(CY_INT_CLR_EN2_PTR)) << 16u));
2288:.\Generated_Source\PSoC5/CyLib.c ****         intState |= ((uint32) (((uint32) CY_GET_REG8(CY_INT_CLR_EN3_PTR)) << 24u));
2289:.\Generated_Source\PSoC5/CyLib.c **** 
2290:.\Generated_Source\PSoC5/CyLib.c **** 
2291:.\Generated_Source\PSoC5/CyLib.c ****         /* Disable all of the interrupts. */
2292:.\Generated_Source\PSoC5/CyLib.c ****         CY_SET_REG8(CY_INT_CLR_EN0_PTR, 0xFFu);
2293:.\Generated_Source\PSoC5/CyLib.c ****         CY_SET_REG8(CY_INT_CLR_EN1_PTR, 0xFFu);
2294:.\Generated_Source\PSoC5/CyLib.c ****         CY_SET_REG8(CY_INT_CLR_EN2_PTR, 0xFFu);
2295:.\Generated_Source\PSoC5/CyLib.c ****         CY_SET_REG8(CY_INT_CLR_EN3_PTR, 0xFFu);
2296:.\Generated_Source\PSoC5/CyLib.c **** 
2297:.\Generated_Source\PSoC5/CyLib.c ****     #else
2298:.\Generated_Source\PSoC5/CyLib.c **** 
ARM GAS  C:\Users\Yiquing\AppData\Local\Temp\ccsAoMV1.s 			page 93


2299:.\Generated_Source\PSoC5/CyLib.c ****         /* Get the current interrupt state. */
2300:.\Generated_Source\PSoC5/CyLib.c ****         intState = CY_GET_REG32(CY_INT_CLEAR_PTR);
 2675              		.loc 1 2300 0
 2676 0006 044B     		ldr	r3, .L273
2301:.\Generated_Source\PSoC5/CyLib.c **** 
2302:.\Generated_Source\PSoC5/CyLib.c ****         /* Disable all of the interrupts. */
2303:.\Generated_Source\PSoC5/CyLib.c ****         CY_SET_REG32(CY_INT_CLEAR_PTR, 0xFFFFFFFFu);
 2677              		.loc 1 2303 0
 2678 0008 4FF0FF32 		mov	r2, #-1
2300:.\Generated_Source\PSoC5/CyLib.c ****         intState = CY_GET_REG32(CY_INT_CLEAR_PTR);
 2679              		.loc 1 2300 0
 2680 000c 1C68     		ldr	r4, [r3]
 2681              	.LVL159:
 2682              		.loc 1 2303 0
 2683 000e 1A60     		str	r2, [r3]
2304:.\Generated_Source\PSoC5/CyLib.c **** 
2305:.\Generated_Source\PSoC5/CyLib.c ****     #endif /* (CY_PSOC3) */
2306:.\Generated_Source\PSoC5/CyLib.c **** 
2307:.\Generated_Source\PSoC5/CyLib.c ****     CyExitCriticalSection(interruptState);
 2684              		.loc 1 2307 0
 2685 0010 FFF7FEFF 		bl	CyExitCriticalSection
 2686              	.LVL160:
2308:.\Generated_Source\PSoC5/CyLib.c **** 
2309:.\Generated_Source\PSoC5/CyLib.c ****     return (intState);
2310:.\Generated_Source\PSoC5/CyLib.c **** }
 2687              		.loc 1 2310 0
 2688 0014 2046     		mov	r0, r4
 2689 0016 10BD     		pop	{r4, pc}
 2690              	.LVL161:
 2691              	.L274:
 2692              		.align	2
 2693              	.L273:
 2694 0018 80E100E0 		.word	-536813184
 2695              		.cfi_endproc
 2696              	.LFE54:
 2697              		.size	CyDisableInts, .-CyDisableInts
 2698              		.section	.text.CyEnableInts,"ax",%progbits
 2699              		.align	1
 2700              		.global	CyEnableInts
 2701              		.thumb
 2702              		.thumb_func
 2703              		.type	CyEnableInts, %function
 2704              	CyEnableInts:
 2705              	.LFB55:
2311:.\Generated_Source\PSoC5/CyLib.c **** 
2312:.\Generated_Source\PSoC5/CyLib.c **** 
2313:.\Generated_Source\PSoC5/CyLib.c **** /*******************************************************************************
2314:.\Generated_Source\PSoC5/CyLib.c **** * Function Name: CyEnableInts
2315:.\Generated_Source\PSoC5/CyLib.c **** ********************************************************************************
2316:.\Generated_Source\PSoC5/CyLib.c **** *
2317:.\Generated_Source\PSoC5/CyLib.c **** * Summary:
2318:.\Generated_Source\PSoC5/CyLib.c **** *  Enables interrupts to a given state.
2319:.\Generated_Source\PSoC5/CyLib.c **** *
2320:.\Generated_Source\PSoC5/CyLib.c **** * Parameters:
2321:.\Generated_Source\PSoC5/CyLib.c **** *  uint32 mask: 32 bit mask of interrupts to enable.
2322:.\Generated_Source\PSoC5/CyLib.c **** *
2323:.\Generated_Source\PSoC5/CyLib.c **** * Return:
ARM GAS  C:\Users\Yiquing\AppData\Local\Temp\ccsAoMV1.s 			page 94


2324:.\Generated_Source\PSoC5/CyLib.c **** *  None
2325:.\Generated_Source\PSoC5/CyLib.c **** *
2326:.\Generated_Source\PSoC5/CyLib.c **** *******************************************************************************/
2327:.\Generated_Source\PSoC5/CyLib.c **** void CyEnableInts(uint32 mask) 
2328:.\Generated_Source\PSoC5/CyLib.c **** {
 2706              		.loc 1 2328 0
 2707              		.cfi_startproc
 2708              		@ args = 0, pretend = 0, frame = 0
 2709              		@ frame_needed = 0, uses_anonymous_args = 0
 2710              	.LVL162:
 2711 0000 10B5     		push	{r4, lr}
 2712              		.cfi_def_cfa_offset 8
 2713              		.cfi_offset 4, -8
 2714              		.cfi_offset 14, -4
 2715              		.loc 1 2328 0
 2716 0002 0446     		mov	r4, r0
2329:.\Generated_Source\PSoC5/CyLib.c **** 
2330:.\Generated_Source\PSoC5/CyLib.c ****     uint8 interruptState;
2331:.\Generated_Source\PSoC5/CyLib.c **** 
2332:.\Generated_Source\PSoC5/CyLib.c ****     interruptState = CyEnterCriticalSection();
 2717              		.loc 1 2332 0
 2718 0004 FFF7FEFF 		bl	CyEnterCriticalSection
 2719              	.LVL163:
2333:.\Generated_Source\PSoC5/CyLib.c **** 
2334:.\Generated_Source\PSoC5/CyLib.c ****     #if(CY_PSOC3)
2335:.\Generated_Source\PSoC5/CyLib.c **** 
2336:.\Generated_Source\PSoC5/CyLib.c ****         /* Set interrupts as enabled. */
2337:.\Generated_Source\PSoC5/CyLib.c ****         CY_SET_REG8(CY_INT_SET_EN3_PTR, ((uint8) (mask >> 24u)));
2338:.\Generated_Source\PSoC5/CyLib.c ****         CY_SET_REG8(CY_INT_SET_EN2_PTR, ((uint8) (mask >> 16u)));
2339:.\Generated_Source\PSoC5/CyLib.c ****         CY_SET_REG8(CY_INT_SET_EN1_PTR, ((uint8) (mask >> 8u )));
2340:.\Generated_Source\PSoC5/CyLib.c ****         CY_SET_REG8(CY_INT_SET_EN0_PTR, ((uint8) (mask )));
2341:.\Generated_Source\PSoC5/CyLib.c **** 
2342:.\Generated_Source\PSoC5/CyLib.c ****     #else
2343:.\Generated_Source\PSoC5/CyLib.c **** 
2344:.\Generated_Source\PSoC5/CyLib.c ****         CY_SET_REG32(CY_INT_ENABLE_PTR, mask);
 2720              		.loc 1 2344 0
 2721 0008 024B     		ldr	r3, .L276
 2722 000a 1C60     		str	r4, [r3]
2345:.\Generated_Source\PSoC5/CyLib.c **** 
2346:.\Generated_Source\PSoC5/CyLib.c ****     #endif /* (CY_PSOC3) */
2347:.\Generated_Source\PSoC5/CyLib.c **** 
2348:.\Generated_Source\PSoC5/CyLib.c ****     CyExitCriticalSection(interruptState);
2349:.\Generated_Source\PSoC5/CyLib.c **** 
2350:.\Generated_Source\PSoC5/CyLib.c **** }
 2723              		.loc 1 2350 0
 2724 000c BDE81040 		pop	{r4, lr}
 2725              	.LVL164:
2348:.\Generated_Source\PSoC5/CyLib.c ****     CyExitCriticalSection(interruptState);
 2726              		.loc 1 2348 0
 2727 0010 FFF7FEBF 		b	CyExitCriticalSection
 2728              	.LVL165:
 2729              	.L277:
 2730              		.align	2
 2731              	.L276:
 2732 0014 00E100E0 		.word	-536813312
 2733              		.cfi_endproc
 2734              	.LFE55:
ARM GAS  C:\Users\Yiquing\AppData\Local\Temp\ccsAoMV1.s 			page 95


 2735              		.size	CyEnableInts, .-CyEnableInts
 2736              		.section	.text.CyFlushCache,"ax",%progbits
 2737              		.align	1
 2738              		.global	CyFlushCache
 2739              		.thumb
 2740              		.thumb_func
 2741              		.type	CyFlushCache, %function
 2742              	CyFlushCache:
 2743              	.LFB56:
2351:.\Generated_Source\PSoC5/CyLib.c **** 
2352:.\Generated_Source\PSoC5/CyLib.c **** #if(CY_PSOC5)
2353:.\Generated_Source\PSoC5/CyLib.c **** 
2354:.\Generated_Source\PSoC5/CyLib.c ****     /*******************************************************************************
2355:.\Generated_Source\PSoC5/CyLib.c ****     * Function Name: CyFlushCache
2356:.\Generated_Source\PSoC5/CyLib.c ****     ********************************************************************************
2357:.\Generated_Source\PSoC5/CyLib.c ****     * Summary:
2358:.\Generated_Source\PSoC5/CyLib.c ****     *  Flushes the PSoC 5/5LP cache by invalidating all entries.
2359:.\Generated_Source\PSoC5/CyLib.c ****     *
2360:.\Generated_Source\PSoC5/CyLib.c ****     * Parameters:
2361:.\Generated_Source\PSoC5/CyLib.c ****     *  None
2362:.\Generated_Source\PSoC5/CyLib.c ****     *
2363:.\Generated_Source\PSoC5/CyLib.c ****     * Return:
2364:.\Generated_Source\PSoC5/CyLib.c ****     *  None
2365:.\Generated_Source\PSoC5/CyLib.c ****     *
2366:.\Generated_Source\PSoC5/CyLib.c ****     *******************************************************************************/
2367:.\Generated_Source\PSoC5/CyLib.c ****     void CyFlushCache(void)
2368:.\Generated_Source\PSoC5/CyLib.c ****     {
 2744              		.loc 1 2368 0
 2745              		.cfi_startproc
 2746              		@ args = 0, pretend = 0, frame = 0
 2747              		@ frame_needed = 0, uses_anonymous_args = 0
 2748 0000 08B5     		push	{r3, lr}
 2749              		.cfi_def_cfa_offset 8
 2750              		.cfi_offset 3, -8
 2751              		.cfi_offset 14, -4
2369:.\Generated_Source\PSoC5/CyLib.c ****         uint8 interruptState;
2370:.\Generated_Source\PSoC5/CyLib.c **** 
2371:.\Generated_Source\PSoC5/CyLib.c ****         /* Save current global interrupt enable and disable it */
2372:.\Generated_Source\PSoC5/CyLib.c ****         interruptState = CyEnterCriticalSection();
 2752              		.loc 1 2372 0
 2753 0002 FFF7FEFF 		bl	CyEnterCriticalSection
 2754              	.LVL166:
2373:.\Generated_Source\PSoC5/CyLib.c **** 
2374:.\Generated_Source\PSoC5/CyLib.c ****         /* Fill instruction prefectch unit to insure data integrity */
2375:.\Generated_Source\PSoC5/CyLib.c ****         CY_NOP;
 2755              		.loc 1 2375 0
 2756              	@ 2375 ".\Generated_Source\PSoC5\CyLib.c" 1
 2757 0006 00BF     		NOP
 2758              	
 2759              	@ 0 "" 2
2376:.\Generated_Source\PSoC5/CyLib.c ****         CY_NOP;
 2760              		.loc 1 2376 0
 2761              	@ 2376 ".\Generated_Source\PSoC5\CyLib.c" 1
 2762 0008 00BF     		NOP
 2763              	
 2764              	@ 0 "" 2
2377:.\Generated_Source\PSoC5/CyLib.c ****         CY_NOP;
ARM GAS  C:\Users\Yiquing\AppData\Local\Temp\ccsAoMV1.s 			page 96


 2765              		.loc 1 2377 0
 2766              	@ 2377 ".\Generated_Source\PSoC5\CyLib.c" 1
 2767 000a 00BF     		NOP
 2768              	
 2769              	@ 0 "" 2
2378:.\Generated_Source\PSoC5/CyLib.c ****         CY_NOP;
 2770              		.loc 1 2378 0
 2771              	@ 2378 ".\Generated_Source\PSoC5\CyLib.c" 1
 2772 000c 00BF     		NOP
 2773              	
 2774              	@ 0 "" 2
2379:.\Generated_Source\PSoC5/CyLib.c ****         CY_NOP;
 2775              		.loc 1 2379 0
 2776              	@ 2379 ".\Generated_Source\PSoC5\CyLib.c" 1
 2777 000e 00BF     		NOP
 2778              	
 2779              	@ 0 "" 2
2380:.\Generated_Source\PSoC5/CyLib.c ****         CY_NOP;
 2780              		.loc 1 2380 0
 2781              	@ 2380 ".\Generated_Source\PSoC5\CyLib.c" 1
 2782 0010 00BF     		NOP
 2783              	
 2784              	@ 0 "" 2
2381:.\Generated_Source\PSoC5/CyLib.c ****         CY_NOP;
 2785              		.loc 1 2381 0
 2786              	@ 2381 ".\Generated_Source\PSoC5\CyLib.c" 1
 2787 0012 00BF     		NOP
 2788              	
 2789              	@ 0 "" 2
2382:.\Generated_Source\PSoC5/CyLib.c ****         CY_NOP;
 2790              		.loc 1 2382 0
 2791              	@ 2382 ".\Generated_Source\PSoC5\CyLib.c" 1
 2792 0014 00BF     		NOP
 2793              	
 2794              	@ 0 "" 2
2383:.\Generated_Source\PSoC5/CyLib.c ****         CY_NOP;
 2795              		.loc 1 2383 0
 2796              	@ 2383 ".\Generated_Source\PSoC5\CyLib.c" 1
 2797 0016 00BF     		NOP
 2798              	
 2799              	@ 0 "" 2
2384:.\Generated_Source\PSoC5/CyLib.c ****         CY_NOP;
 2800              		.loc 1 2384 0
 2801              	@ 2384 ".\Generated_Source\PSoC5\CyLib.c" 1
 2802 0018 00BF     		NOP
 2803              	
 2804              	@ 0 "" 2
2385:.\Generated_Source\PSoC5/CyLib.c ****         CY_NOP;
 2805              		.loc 1 2385 0
 2806              	@ 2385 ".\Generated_Source\PSoC5\CyLib.c" 1
 2807 001a 00BF     		NOP
 2808              	
 2809              	@ 0 "" 2
2386:.\Generated_Source\PSoC5/CyLib.c ****         CY_NOP;
 2810              		.loc 1 2386 0
 2811              	@ 2386 ".\Generated_Source\PSoC5\CyLib.c" 1
 2812 001c 00BF     		NOP
ARM GAS  C:\Users\Yiquing\AppData\Local\Temp\ccsAoMV1.s 			page 97


 2813              	
 2814              	@ 0 "" 2
2387:.\Generated_Source\PSoC5/CyLib.c ****         CY_NOP;
 2815              		.loc 1 2387 0
 2816              	@ 2387 ".\Generated_Source\PSoC5\CyLib.c" 1
 2817 001e 00BF     		NOP
 2818              	
 2819              	@ 0 "" 2
2388:.\Generated_Source\PSoC5/CyLib.c ****         CY_NOP;
 2820              		.loc 1 2388 0
 2821              	@ 2388 ".\Generated_Source\PSoC5\CyLib.c" 1
 2822 0020 00BF     		NOP
 2823              	
 2824              	@ 0 "" 2
2389:.\Generated_Source\PSoC5/CyLib.c ****         CY_NOP;
 2825              		.loc 1 2389 0
 2826              	@ 2389 ".\Generated_Source\PSoC5\CyLib.c" 1
 2827 0022 00BF     		NOP
 2828              	
 2829              	@ 0 "" 2
2390:.\Generated_Source\PSoC5/CyLib.c ****         CY_NOP;
 2830              		.loc 1 2390 0
 2831              	@ 2390 ".\Generated_Source\PSoC5\CyLib.c" 1
 2832 0024 00BF     		NOP
 2833              	
 2834              	@ 0 "" 2
2391:.\Generated_Source\PSoC5/CyLib.c **** 
2392:.\Generated_Source\PSoC5/CyLib.c ****         /* All entries in cache are invalidated on next clock cycle. */
2393:.\Generated_Source\PSoC5/CyLib.c ****         CY_CACHE_CONTROL_REG |= CY_CACHE_CONTROL_FLUSH;
 2835              		.loc 1 2393 0
 2836              		.thumb
 2837 0026 064B     		ldr	r3, .L279
 2838 0028 1A88     		ldrh	r2, [r3]
 2839 002a 92B2     		uxth	r2, r2
 2840 002c 42F00402 		orr	r2, r2, #4
 2841 0030 1A80     		strh	r2, [r3]	@ movhi
2394:.\Generated_Source\PSoC5/CyLib.c **** 
2395:.\Generated_Source\PSoC5/CyLib.c ****         /* Once this is executed it's guaranteed the cache has been flushed */
2396:.\Generated_Source\PSoC5/CyLib.c ****         (void) CY_CACHE_CONTROL_REG;
 2842              		.loc 1 2396 0
 2843 0032 1B88     		ldrh	r3, [r3]
2397:.\Generated_Source\PSoC5/CyLib.c **** 
2398:.\Generated_Source\PSoC5/CyLib.c ****         /* Flush the pipeline */
2399:.\Generated_Source\PSoC5/CyLib.c ****         CY_SYS_ISB;
 2844              		.loc 1 2399 0
 2845              	@ 2399 ".\Generated_Source\PSoC5\CyLib.c" 1
 2846 0034 BFF36F8F 		isb 
 2847              	
 2848              	@ 0 "" 2
2400:.\Generated_Source\PSoC5/CyLib.c **** 
2401:.\Generated_Source\PSoC5/CyLib.c ****         /* Restore global interrupt enable state */
2402:.\Generated_Source\PSoC5/CyLib.c ****         CyExitCriticalSection(interruptState);
2403:.\Generated_Source\PSoC5/CyLib.c ****     }
 2849              		.loc 1 2403 0
 2850              		.thumb
 2851 0038 BDE80840 		pop	{r3, lr}
2402:.\Generated_Source\PSoC5/CyLib.c ****         CyExitCriticalSection(interruptState);
ARM GAS  C:\Users\Yiquing\AppData\Local\Temp\ccsAoMV1.s 			page 98


 2852              		.loc 1 2402 0
 2853 003c FFF7FEBF 		b	CyExitCriticalSection
 2854              	.LVL167:
 2855              	.L280:
 2856              		.align	2
 2857              	.L279:
 2858 0040 00480040 		.word	1073760256
 2859              		.cfi_endproc
 2860              	.LFE56:
 2861              		.size	CyFlushCache, .-CyFlushCache
 2862              		.section	.text.CyIntSetSysVector,"ax",%progbits
 2863              		.align	1
 2864              		.global	CyIntSetSysVector
 2865              		.thumb
 2866              		.thumb_func
 2867              		.type	CyIntSetSysVector, %function
 2868              	CyIntSetSysVector:
 2869              	.LFB57:
2404:.\Generated_Source\PSoC5/CyLib.c **** 
2405:.\Generated_Source\PSoC5/CyLib.c **** 
2406:.\Generated_Source\PSoC5/CyLib.c ****     /*******************************************************************************
2407:.\Generated_Source\PSoC5/CyLib.c ****     * Function Name: CyIntSetSysVector
2408:.\Generated_Source\PSoC5/CyLib.c ****     ********************************************************************************
2409:.\Generated_Source\PSoC5/CyLib.c ****     * Summary:
2410:.\Generated_Source\PSoC5/CyLib.c ****     *  Sets the interrupt vector of the specified system interrupt number. System
2411:.\Generated_Source\PSoC5/CyLib.c ****     *  interrupts are present only for the ARM platform. These interrupts are for
2412:.\Generated_Source\PSoC5/CyLib.c ****     *  SysTick, PendSV and others.
2413:.\Generated_Source\PSoC5/CyLib.c ****     *
2414:.\Generated_Source\PSoC5/CyLib.c ****     * Parameters:
2415:.\Generated_Source\PSoC5/CyLib.c ****     *  number: System interrupt number:
2416:.\Generated_Source\PSoC5/CyLib.c ****     *    CY_INT_NMI_IRQN                - Non Maskable Interrupt
2417:.\Generated_Source\PSoC5/CyLib.c ****     *    CY_INT_HARD_FAULT_IRQN         - Hard Fault Interrupt
2418:.\Generated_Source\PSoC5/CyLib.c ****     *    CY_INT_MEM_MANAGE_IRQN         - Memory Management Interrupt
2419:.\Generated_Source\PSoC5/CyLib.c ****     *    CY_INT_BUS_FAULT_IRQN          - Bus Fault Interrupt
2420:.\Generated_Source\PSoC5/CyLib.c ****     *    CY_INT_USAGE_FAULT_IRQN        - Usage Fault Interrupt
2421:.\Generated_Source\PSoC5/CyLib.c ****     *    CY_INT_SVCALL_IRQN             - SV Call Interrupt
2422:.\Generated_Source\PSoC5/CyLib.c ****     *    CY_INT_DEBUG_MONITOR_IRQN      - Debug Monitor Interrupt
2423:.\Generated_Source\PSoC5/CyLib.c ****     *    CY_INT_PEND_SV_IRQN            - Pend SV Interrupt
2424:.\Generated_Source\PSoC5/CyLib.c ****     *    CY_INT_SYSTICK_IRQN            - System Tick Interrupt
2425:.\Generated_Source\PSoC5/CyLib.c ****     *
2426:.\Generated_Source\PSoC5/CyLib.c ****     *  address: Pointer to an interrupt service routine.
2427:.\Generated_Source\PSoC5/CyLib.c ****     *
2428:.\Generated_Source\PSoC5/CyLib.c ****     * Return:
2429:.\Generated_Source\PSoC5/CyLib.c ****     *   The old ISR vector at this location.
2430:.\Generated_Source\PSoC5/CyLib.c ****     *
2431:.\Generated_Source\PSoC5/CyLib.c ****     *******************************************************************************/
2432:.\Generated_Source\PSoC5/CyLib.c ****     cyisraddress CyIntSetSysVector(uint8 number, cyisraddress address)
2433:.\Generated_Source\PSoC5/CyLib.c ****     {
 2870              		.loc 1 2433 0
 2871              		.cfi_startproc
 2872              		@ args = 0, pretend = 0, frame = 0
 2873              		@ frame_needed = 0, uses_anonymous_args = 0
 2874              		@ link register save eliminated.
 2875              	.LVL168:
2434:.\Generated_Source\PSoC5/CyLib.c ****         cyisraddress oldIsr;
2435:.\Generated_Source\PSoC5/CyLib.c ****         cyisraddress *ramVectorTable = *CY_INT_VECT_TABLE;
2436:.\Generated_Source\PSoC5/CyLib.c **** 
ARM GAS  C:\Users\Yiquing\AppData\Local\Temp\ccsAoMV1.s 			page 99


2437:.\Generated_Source\PSoC5/CyLib.c ****         CYASSERT(number <= CY_INT_SYS_NUMBER_MAX);
2438:.\Generated_Source\PSoC5/CyLib.c **** 
2439:.\Generated_Source\PSoC5/CyLib.c ****         /* Save old Interrupt service routine. */
2440:.\Generated_Source\PSoC5/CyLib.c ****         oldIsr = ramVectorTable[number & CY_INT_SYS_NUMBER_MASK];
 2876              		.loc 1 2440 0
 2877 0000 044B     		ldr	r3, .L282
 2878              	.LVL169:
 2879 0002 00F00F02 		and	r2, r0, #15
 2880 0006 1B68     		ldr	r3, [r3]
 2881              	.LVL170:
 2882 0008 53F82200 		ldr	r0, [r3, r2, lsl #2]
 2883              	.LVL171:
2441:.\Generated_Source\PSoC5/CyLib.c **** 
2442:.\Generated_Source\PSoC5/CyLib.c ****         /* Set new Interrupt service routine. */
2443:.\Generated_Source\PSoC5/CyLib.c ****         ramVectorTable[number & CY_INT_SYS_NUMBER_MASK] = address;
 2884              		.loc 1 2443 0
 2885 000c 43F82210 		str	r1, [r3, r2, lsl #2]
2444:.\Generated_Source\PSoC5/CyLib.c **** 
2445:.\Generated_Source\PSoC5/CyLib.c ****         return (oldIsr);
2446:.\Generated_Source\PSoC5/CyLib.c ****     }
 2886              		.loc 1 2446 0
 2887 0010 7047     		bx	lr
 2888              	.L283:
 2889 0012 00BF     		.align	2
 2890              	.L282:
 2891 0014 08ED00E0 		.word	-536810232
 2892              		.cfi_endproc
 2893              	.LFE57:
 2894              		.size	CyIntSetSysVector, .-CyIntSetSysVector
 2895              		.section	.text.CyIntGetSysVector,"ax",%progbits
 2896              		.align	1
 2897              		.global	CyIntGetSysVector
 2898              		.thumb
 2899              		.thumb_func
 2900              		.type	CyIntGetSysVector, %function
 2901              	CyIntGetSysVector:
 2902              	.LFB58:
2447:.\Generated_Source\PSoC5/CyLib.c **** 
2448:.\Generated_Source\PSoC5/CyLib.c **** 
2449:.\Generated_Source\PSoC5/CyLib.c ****     /*******************************************************************************
2450:.\Generated_Source\PSoC5/CyLib.c ****     * Function Name: CyIntGetSysVector
2451:.\Generated_Source\PSoC5/CyLib.c ****     ********************************************************************************
2452:.\Generated_Source\PSoC5/CyLib.c ****     *
2453:.\Generated_Source\PSoC5/CyLib.c ****     * Summary:
2454:.\Generated_Source\PSoC5/CyLib.c ****     *  Gets the interrupt vector of the specified system interrupt number. System
2455:.\Generated_Source\PSoC5/CyLib.c ****     *  interrupts are present only for the ARM platform. These interrupts are for
2456:.\Generated_Source\PSoC5/CyLib.c ****     *  SysTick, PendSV and others.
2457:.\Generated_Source\PSoC5/CyLib.c ****     *
2458:.\Generated_Source\PSoC5/CyLib.c ****     * Parameters:
2459:.\Generated_Source\PSoC5/CyLib.c ****     *  number: System interrupt number:
2460:.\Generated_Source\PSoC5/CyLib.c ****     *    CY_INT_NMI_IRQN                - Non Maskable Interrupt
2461:.\Generated_Source\PSoC5/CyLib.c ****     *    CY_INT_HARD_FAULT_IRQN         - Hard Fault Interrupt
2462:.\Generated_Source\PSoC5/CyLib.c ****     *    CY_INT_MEMORY_MANAGEMENT_IRQN  - Memory Management Interrupt
2463:.\Generated_Source\PSoC5/CyLib.c ****     *    CY_INT_BUS_FAULT_IRQN          - Bus Fault Interrupt
2464:.\Generated_Source\PSoC5/CyLib.c ****     *    CY_INT_USAGE_FAULT_IRQN        - Usage Fault Interrupt
2465:.\Generated_Source\PSoC5/CyLib.c ****     *    CY_INT_SVCALL_IRQN             - SV Call Interrupt
2466:.\Generated_Source\PSoC5/CyLib.c ****     *    CY_INT_DEBUG_MONITOR_IRQN      - Debug Monitor Interrupt
ARM GAS  C:\Users\Yiquing\AppData\Local\Temp\ccsAoMV1.s 			page 100


2467:.\Generated_Source\PSoC5/CyLib.c ****     *    CY_INT_PEND_SV_IRQN            - Pend SV Interrupt
2468:.\Generated_Source\PSoC5/CyLib.c ****     *    CY_INT_SYSTICK_IRQN            - System Tick Interrupt
2469:.\Generated_Source\PSoC5/CyLib.c ****     *
2470:.\Generated_Source\PSoC5/CyLib.c ****     * Return:
2471:.\Generated_Source\PSoC5/CyLib.c ****     *   Address of the ISR in the interrupt vector table.
2472:.\Generated_Source\PSoC5/CyLib.c ****     *
2473:.\Generated_Source\PSoC5/CyLib.c ****     *******************************************************************************/
2474:.\Generated_Source\PSoC5/CyLib.c ****     cyisraddress CyIntGetSysVector(uint8 number)
2475:.\Generated_Source\PSoC5/CyLib.c ****     {
 2903              		.loc 1 2475 0
 2904              		.cfi_startproc
 2905              		@ args = 0, pretend = 0, frame = 0
 2906              		@ frame_needed = 0, uses_anonymous_args = 0
 2907              		@ link register save eliminated.
 2908              	.LVL172:
2476:.\Generated_Source\PSoC5/CyLib.c ****         cyisraddress *ramVectorTable = *CY_INT_VECT_TABLE;
2477:.\Generated_Source\PSoC5/CyLib.c ****         CYASSERT(number <= CY_INT_SYS_NUMBER_MAX);
2478:.\Generated_Source\PSoC5/CyLib.c **** 
2479:.\Generated_Source\PSoC5/CyLib.c ****         return ramVectorTable[number & CY_INT_SYS_NUMBER_MASK];
 2909              		.loc 1 2479 0
 2910 0000 034B     		ldr	r3, .L285
 2911              	.LVL173:
 2912 0002 00F00F00 		and	r0, r0, #15
 2913              	.LVL174:
 2914 0006 1B68     		ldr	r3, [r3]
 2915              	.LVL175:
2480:.\Generated_Source\PSoC5/CyLib.c ****     }
 2916              		.loc 1 2480 0
 2917 0008 53F82000 		ldr	r0, [r3, r0, lsl #2]
 2918 000c 7047     		bx	lr
 2919              	.L286:
 2920 000e 00BF     		.align	2
 2921              	.L285:
 2922 0010 08ED00E0 		.word	-536810232
 2923              		.cfi_endproc
 2924              	.LFE58:
 2925              		.size	CyIntGetSysVector, .-CyIntGetSysVector
 2926              		.section	.text.CyIntSetVector,"ax",%progbits
 2927              		.align	1
 2928              		.global	CyIntSetVector
 2929              		.thumb
 2930              		.thumb_func
 2931              		.type	CyIntSetVector, %function
 2932              	CyIntSetVector:
 2933              	.LFB59:
2481:.\Generated_Source\PSoC5/CyLib.c **** 
2482:.\Generated_Source\PSoC5/CyLib.c **** 
2483:.\Generated_Source\PSoC5/CyLib.c ****     /*******************************************************************************
2484:.\Generated_Source\PSoC5/CyLib.c ****     * Function Name: CyIntSetVector
2485:.\Generated_Source\PSoC5/CyLib.c ****     ********************************************************************************
2486:.\Generated_Source\PSoC5/CyLib.c ****     *
2487:.\Generated_Source\PSoC5/CyLib.c ****     * Summary:
2488:.\Generated_Source\PSoC5/CyLib.c ****     *  Sets the interrupt vector of the specified interrupt number.
2489:.\Generated_Source\PSoC5/CyLib.c ****     *
2490:.\Generated_Source\PSoC5/CyLib.c ****     * Parameters:
2491:.\Generated_Source\PSoC5/CyLib.c ****     *  number: Valid range [0-31].  Interrupt number
2492:.\Generated_Source\PSoC5/CyLib.c ****     *  address: Pointer to an interrupt service routine
ARM GAS  C:\Users\Yiquing\AppData\Local\Temp\ccsAoMV1.s 			page 101


2493:.\Generated_Source\PSoC5/CyLib.c ****     *
2494:.\Generated_Source\PSoC5/CyLib.c ****     * Return:
2495:.\Generated_Source\PSoC5/CyLib.c ****     *   Previous interrupt vector value.
2496:.\Generated_Source\PSoC5/CyLib.c ****     *
2497:.\Generated_Source\PSoC5/CyLib.c ****     *******************************************************************************/
2498:.\Generated_Source\PSoC5/CyLib.c ****     cyisraddress CyIntSetVector(uint8 number, cyisraddress address)
2499:.\Generated_Source\PSoC5/CyLib.c ****     {
 2934              		.loc 1 2499 0
 2935              		.cfi_startproc
 2936              		@ args = 0, pretend = 0, frame = 0
 2937              		@ frame_needed = 0, uses_anonymous_args = 0
 2938              		@ link register save eliminated.
 2939              	.LVL176:
2500:.\Generated_Source\PSoC5/CyLib.c ****         cyisraddress oldIsr;
2501:.\Generated_Source\PSoC5/CyLib.c ****         cyisraddress *ramVectorTable = *CY_INT_VECT_TABLE;
2502:.\Generated_Source\PSoC5/CyLib.c **** 
2503:.\Generated_Source\PSoC5/CyLib.c ****         CYASSERT(number <= CY_INT_NUMBER_MAX);
2504:.\Generated_Source\PSoC5/CyLib.c **** 
2505:.\Generated_Source\PSoC5/CyLib.c ****         /* Save old Interrupt service routine. */
2506:.\Generated_Source\PSoC5/CyLib.c ****         oldIsr = ramVectorTable[CY_INT_IRQ_BASE + (number & CY_INT_NUMBER_MASK)];
 2940              		.loc 1 2506 0
 2941 0000 054B     		ldr	r3, .L288
 2942              	.LVL177:
 2943 0002 00F01F00 		and	r0, r0, #31
 2944              	.LVL178:
 2945 0006 1B68     		ldr	r3, [r3]
 2946              	.LVL179:
 2947 0008 00F11002 		add	r2, r0, #16
 2948 000c 53F82200 		ldr	r0, [r3, r2, lsl #2]
 2949              	.LVL180:
2507:.\Generated_Source\PSoC5/CyLib.c **** 
2508:.\Generated_Source\PSoC5/CyLib.c ****         /* Set new Interrupt service routine. */
2509:.\Generated_Source\PSoC5/CyLib.c ****         ramVectorTable[CY_INT_IRQ_BASE + (number & CY_INT_NUMBER_MASK)] = address;
 2950              		.loc 1 2509 0
 2951 0010 43F82210 		str	r1, [r3, r2, lsl #2]
2510:.\Generated_Source\PSoC5/CyLib.c **** 
2511:.\Generated_Source\PSoC5/CyLib.c ****         return (oldIsr);
2512:.\Generated_Source\PSoC5/CyLib.c ****     }
 2952              		.loc 1 2512 0
 2953 0014 7047     		bx	lr
 2954              	.L289:
 2955 0016 00BF     		.align	2
 2956              	.L288:
 2957 0018 08ED00E0 		.word	-536810232
 2958              		.cfi_endproc
 2959              	.LFE59:
 2960              		.size	CyIntSetVector, .-CyIntSetVector
 2961              		.section	.text.CyIntGetVector,"ax",%progbits
 2962              		.align	1
 2963              		.global	CyIntGetVector
 2964              		.thumb
 2965              		.thumb_func
 2966              		.type	CyIntGetVector, %function
 2967              	CyIntGetVector:
 2968              	.LFB60:
2513:.\Generated_Source\PSoC5/CyLib.c **** 
2514:.\Generated_Source\PSoC5/CyLib.c **** 
ARM GAS  C:\Users\Yiquing\AppData\Local\Temp\ccsAoMV1.s 			page 102


2515:.\Generated_Source\PSoC5/CyLib.c ****     /*******************************************************************************
2516:.\Generated_Source\PSoC5/CyLib.c ****     * Function Name: CyIntGetVector
2517:.\Generated_Source\PSoC5/CyLib.c ****     ********************************************************************************
2518:.\Generated_Source\PSoC5/CyLib.c ****     *
2519:.\Generated_Source\PSoC5/CyLib.c ****     * Summary:
2520:.\Generated_Source\PSoC5/CyLib.c ****     *  Gets the interrupt vector of the specified interrupt number.
2521:.\Generated_Source\PSoC5/CyLib.c ****     *
2522:.\Generated_Source\PSoC5/CyLib.c ****     * Parameters:
2523:.\Generated_Source\PSoC5/CyLib.c ****     *  number: Valid range [0-31].  Interrupt number
2524:.\Generated_Source\PSoC5/CyLib.c ****     *
2525:.\Generated_Source\PSoC5/CyLib.c ****     * Return:
2526:.\Generated_Source\PSoC5/CyLib.c ****     *  The address of the ISR in the interrupt vector table.
2527:.\Generated_Source\PSoC5/CyLib.c ****     *
2528:.\Generated_Source\PSoC5/CyLib.c ****     *******************************************************************************/
2529:.\Generated_Source\PSoC5/CyLib.c ****     cyisraddress CyIntGetVector(uint8 number)
2530:.\Generated_Source\PSoC5/CyLib.c ****     {
 2969              		.loc 1 2530 0
 2970              		.cfi_startproc
 2971              		@ args = 0, pretend = 0, frame = 0
 2972              		@ frame_needed = 0, uses_anonymous_args = 0
 2973              		@ link register save eliminated.
 2974              	.LVL181:
2531:.\Generated_Source\PSoC5/CyLib.c ****         cyisraddress *ramVectorTable = *CY_INT_VECT_TABLE;
2532:.\Generated_Source\PSoC5/CyLib.c ****         CYASSERT(number <= CY_INT_NUMBER_MAX);
2533:.\Generated_Source\PSoC5/CyLib.c **** 
2534:.\Generated_Source\PSoC5/CyLib.c ****         return (ramVectorTable[CY_INT_IRQ_BASE + (number & CY_INT_NUMBER_MASK)]);
 2975              		.loc 1 2534 0
 2976 0000 034B     		ldr	r3, .L291
 2977              	.LVL182:
 2978 0002 00F01F00 		and	r0, r0, #31
 2979              	.LVL183:
 2980 0006 1B68     		ldr	r3, [r3]
 2981              	.LVL184:
 2982 0008 1030     		adds	r0, r0, #16
2535:.\Generated_Source\PSoC5/CyLib.c ****     }
 2983              		.loc 1 2535 0
 2984 000a 53F82000 		ldr	r0, [r3, r0, lsl #2]
 2985 000e 7047     		bx	lr
 2986              	.L292:
 2987              		.align	2
 2988              	.L291:
 2989 0010 08ED00E0 		.word	-536810232
 2990              		.cfi_endproc
 2991              	.LFE60:
 2992              		.size	CyIntGetVector, .-CyIntGetVector
 2993              		.section	.text.CyIntSetPriority,"ax",%progbits
 2994              		.align	1
 2995              		.global	CyIntSetPriority
 2996              		.thumb
 2997              		.thumb_func
 2998              		.type	CyIntSetPriority, %function
 2999              	CyIntSetPriority:
 3000              	.LFB61:
2536:.\Generated_Source\PSoC5/CyLib.c **** 
2537:.\Generated_Source\PSoC5/CyLib.c **** 
2538:.\Generated_Source\PSoC5/CyLib.c ****     /*******************************************************************************
2539:.\Generated_Source\PSoC5/CyLib.c ****     * Function Name: CyIntSetPriority
ARM GAS  C:\Users\Yiquing\AppData\Local\Temp\ccsAoMV1.s 			page 103


2540:.\Generated_Source\PSoC5/CyLib.c ****     ********************************************************************************
2541:.\Generated_Source\PSoC5/CyLib.c ****     *
2542:.\Generated_Source\PSoC5/CyLib.c ****     * Summary:
2543:.\Generated_Source\PSoC5/CyLib.c ****     *  Sets the Priority of the Interrupt.
2544:.\Generated_Source\PSoC5/CyLib.c ****     *
2545:.\Generated_Source\PSoC5/CyLib.c ****     * Parameters:
2546:.\Generated_Source\PSoC5/CyLib.c ****     *  priority: Priority of the interrupt. 0 - 7, 0 being the highest.
2547:.\Generated_Source\PSoC5/CyLib.c ****     *  number: The number of the interrupt, 0 - 31.
2548:.\Generated_Source\PSoC5/CyLib.c ****     *
2549:.\Generated_Source\PSoC5/CyLib.c ****     * Return:
2550:.\Generated_Source\PSoC5/CyLib.c ****     *  None
2551:.\Generated_Source\PSoC5/CyLib.c ****     *
2552:.\Generated_Source\PSoC5/CyLib.c ****     *******************************************************************************/
2553:.\Generated_Source\PSoC5/CyLib.c ****     void CyIntSetPriority(uint8 number, uint8 priority)
2554:.\Generated_Source\PSoC5/CyLib.c ****     {
 3001              		.loc 1 2554 0
 3002              		.cfi_startproc
 3003              		@ args = 0, pretend = 0, frame = 0
 3004              		@ frame_needed = 0, uses_anonymous_args = 0
 3005              		@ link register save eliminated.
 3006              	.LVL185:
2555:.\Generated_Source\PSoC5/CyLib.c ****         CYASSERT(priority <= CY_INT_PRIORITY_MAX);
2556:.\Generated_Source\PSoC5/CyLib.c ****         CYASSERT(number <= CY_INT_NUMBER_MAX);
2557:.\Generated_Source\PSoC5/CyLib.c ****         CY_INT_PRIORITY_PTR[number & CY_INT_NUMBER_MASK] = (priority & CY_INT_PRIORITY_MASK)<< 5;
 3007              		.loc 1 2557 0
 3008 0000 00F01F00 		and	r0, r0, #31
 3009              	.LVL186:
 3010 0004 00F16040 		add	r0, r0, #-536870912
 3011 0008 4901     		lsls	r1, r1, #5
 3012              	.LVL187:
 3013 000a 00F56440 		add	r0, r0, #58368
 3014 000e C9B2     		uxtb	r1, r1
 3015 0010 0170     		strb	r1, [r0]
 3016 0012 7047     		bx	lr
 3017              		.cfi_endproc
 3018              	.LFE61:
 3019              		.size	CyIntSetPriority, .-CyIntSetPriority
 3020              		.section	.text.CyIntGetPriority,"ax",%progbits
 3021              		.align	1
 3022              		.global	CyIntGetPriority
 3023              		.thumb
 3024              		.thumb_func
 3025              		.type	CyIntGetPriority, %function
 3026              	CyIntGetPriority:
 3027              	.LFB62:
2558:.\Generated_Source\PSoC5/CyLib.c ****     }
2559:.\Generated_Source\PSoC5/CyLib.c **** 
2560:.\Generated_Source\PSoC5/CyLib.c **** 
2561:.\Generated_Source\PSoC5/CyLib.c ****     /*******************************************************************************
2562:.\Generated_Source\PSoC5/CyLib.c ****     * Function Name: CyIntGetPriority
2563:.\Generated_Source\PSoC5/CyLib.c ****     ********************************************************************************
2564:.\Generated_Source\PSoC5/CyLib.c ****     *
2565:.\Generated_Source\PSoC5/CyLib.c ****     * Summary:
2566:.\Generated_Source\PSoC5/CyLib.c ****     *  Gets the Priority of the Interrupt.
2567:.\Generated_Source\PSoC5/CyLib.c ****     *
2568:.\Generated_Source\PSoC5/CyLib.c ****     * Parameters:
2569:.\Generated_Source\PSoC5/CyLib.c ****     *  number: The number of the interrupt, 0 - 31.
ARM GAS  C:\Users\Yiquing\AppData\Local\Temp\ccsAoMV1.s 			page 104


2570:.\Generated_Source\PSoC5/CyLib.c ****     *
2571:.\Generated_Source\PSoC5/CyLib.c ****     * Return:
2572:.\Generated_Source\PSoC5/CyLib.c ****     *  Priority of the interrupt. 0 - 7, 0 being the highest.
2573:.\Generated_Source\PSoC5/CyLib.c ****     *
2574:.\Generated_Source\PSoC5/CyLib.c ****     *******************************************************************************/
2575:.\Generated_Source\PSoC5/CyLib.c ****     uint8 CyIntGetPriority(uint8 number)
2576:.\Generated_Source\PSoC5/CyLib.c ****     {
 3028              		.loc 1 2576 0
 3029              		.cfi_startproc
 3030              		@ args = 0, pretend = 0, frame = 0
 3031              		@ frame_needed = 0, uses_anonymous_args = 0
 3032              		@ link register save eliminated.
 3033              	.LVL188:
2577:.\Generated_Source\PSoC5/CyLib.c ****         uint8 priority;
2578:.\Generated_Source\PSoC5/CyLib.c **** 
2579:.\Generated_Source\PSoC5/CyLib.c ****         CYASSERT(number <= CY_INT_NUMBER_MAX);
2580:.\Generated_Source\PSoC5/CyLib.c **** 
2581:.\Generated_Source\PSoC5/CyLib.c ****         priority = CY_INT_PRIORITY_PTR[number & CY_INT_NUMBER_MASK] >> 5;
 3034              		.loc 1 2581 0
 3035 0000 00F01F00 		and	r0, r0, #31
 3036              	.LVL189:
 3037 0004 00F16040 		add	r0, r0, #-536870912
 3038 0008 00F56440 		add	r0, r0, #58368
 3039 000c 0078     		ldrb	r0, [r0]	@ zero_extendqisi2
 3040              	.LVL190:
2582:.\Generated_Source\PSoC5/CyLib.c **** 
2583:.\Generated_Source\PSoC5/CyLib.c ****         return (priority);
2584:.\Generated_Source\PSoC5/CyLib.c ****     }
 3041              		.loc 1 2584 0
 3042 000e 4009     		lsrs	r0, r0, #5
 3043              	.LVL191:
 3044 0010 7047     		bx	lr
 3045              		.cfi_endproc
 3046              	.LFE62:
 3047              		.size	CyIntGetPriority, .-CyIntGetPriority
 3048              		.section	.text.CyIntGetState,"ax",%progbits
 3049              		.align	1
 3050              		.global	CyIntGetState
 3051              		.thumb
 3052              		.thumb_func
 3053              		.type	CyIntGetState, %function
 3054              	CyIntGetState:
 3055              	.LFB63:
2585:.\Generated_Source\PSoC5/CyLib.c **** 
2586:.\Generated_Source\PSoC5/CyLib.c **** 
2587:.\Generated_Source\PSoC5/CyLib.c ****     /*******************************************************************************
2588:.\Generated_Source\PSoC5/CyLib.c ****     * Function Name: CyIntGetState
2589:.\Generated_Source\PSoC5/CyLib.c ****     ********************************************************************************
2590:.\Generated_Source\PSoC5/CyLib.c ****     *
2591:.\Generated_Source\PSoC5/CyLib.c ****     * Summary:
2592:.\Generated_Source\PSoC5/CyLib.c ****     *   Gets the enable state of the specified interrupt number.
2593:.\Generated_Source\PSoC5/CyLib.c ****     *
2594:.\Generated_Source\PSoC5/CyLib.c ****     * Parameters:
2595:.\Generated_Source\PSoC5/CyLib.c ****     *   number: Valid range [0-31].  Interrupt number.
2596:.\Generated_Source\PSoC5/CyLib.c ****     *
2597:.\Generated_Source\PSoC5/CyLib.c ****     * Return:
2598:.\Generated_Source\PSoC5/CyLib.c ****     *   Enable status: 1 if enabled, 0 if disabled
ARM GAS  C:\Users\Yiquing\AppData\Local\Temp\ccsAoMV1.s 			page 105


2599:.\Generated_Source\PSoC5/CyLib.c ****     *
2600:.\Generated_Source\PSoC5/CyLib.c ****     *******************************************************************************/
2601:.\Generated_Source\PSoC5/CyLib.c ****     uint8 CyIntGetState(uint8 number)
2602:.\Generated_Source\PSoC5/CyLib.c ****     {
 3056              		.loc 1 2602 0
 3057              		.cfi_startproc
 3058              		@ args = 0, pretend = 0, frame = 0
 3059              		@ frame_needed = 0, uses_anonymous_args = 0
 3060              		@ link register save eliminated.
 3061              	.LVL192:
2603:.\Generated_Source\PSoC5/CyLib.c ****         reg32 * stateReg;
2604:.\Generated_Source\PSoC5/CyLib.c **** 
2605:.\Generated_Source\PSoC5/CyLib.c ****         CYASSERT(number <= CY_INT_NUMBER_MAX);
2606:.\Generated_Source\PSoC5/CyLib.c **** 
2607:.\Generated_Source\PSoC5/CyLib.c ****         /* Get pointer to Interrupt enable register. */
2608:.\Generated_Source\PSoC5/CyLib.c ****         stateReg = CY_INT_ENABLE_PTR;
2609:.\Generated_Source\PSoC5/CyLib.c **** 
2610:.\Generated_Source\PSoC5/CyLib.c ****         /* Get state of interrupt. */
2611:.\Generated_Source\PSoC5/CyLib.c ****         return (0u != (*stateReg & (((uint32) 1u) << (0x1Fu & number)))) ? ((uint8)(1u)) : ((uint8)
 3062              		.loc 1 2611 0
 3063 0000 044B     		ldr	r3, .L296
 3064 0002 00F01F00 		and	r0, r0, #31
 3065              	.LVL193:
 3066 0006 1B68     		ldr	r3, [r3]
 3067 0008 23FA00F0 		lsr	r0, r3, r0
2612:.\Generated_Source\PSoC5/CyLib.c ****     }
 3068              		.loc 1 2612 0
 3069 000c 00F00100 		and	r0, r0, #1
 3070 0010 7047     		bx	lr
 3071              	.L297:
 3072 0012 00BF     		.align	2
 3073              	.L296:
 3074 0014 00E100E0 		.word	-536813312
 3075              		.cfi_endproc
 3076              	.LFE63:
 3077              		.size	CyIntGetState, .-CyIntGetState
 3078              		.section	.text.CySysTickStop,"ax",%progbits
 3079              		.align	1
 3080              		.global	CySysTickStop
 3081              		.thumb
 3082              		.thumb_func
 3083              		.type	CySysTickStop, %function
 3084              	CySysTickStop:
 3085              	.LFB67:
2613:.\Generated_Source\PSoC5/CyLib.c **** 
2614:.\Generated_Source\PSoC5/CyLib.c **** 
2615:.\Generated_Source\PSoC5/CyLib.c **** #else   /* PSoC3 */
2616:.\Generated_Source\PSoC5/CyLib.c **** 
2617:.\Generated_Source\PSoC5/CyLib.c **** 
2618:.\Generated_Source\PSoC5/CyLib.c ****     /*******************************************************************************
2619:.\Generated_Source\PSoC5/CyLib.c ****     * Function Name: CyIntSetVector
2620:.\Generated_Source\PSoC5/CyLib.c ****     ********************************************************************************
2621:.\Generated_Source\PSoC5/CyLib.c ****     *
2622:.\Generated_Source\PSoC5/CyLib.c ****     * Summary:
2623:.\Generated_Source\PSoC5/CyLib.c ****     *  Sets the interrupt vector of the specified interrupt number.
2624:.\Generated_Source\PSoC5/CyLib.c ****     *
2625:.\Generated_Source\PSoC5/CyLib.c ****     * Parameters:
ARM GAS  C:\Users\Yiquing\AppData\Local\Temp\ccsAoMV1.s 			page 106


2626:.\Generated_Source\PSoC5/CyLib.c ****     *  number:  Valid range [0-31].  Interrupt number
2627:.\Generated_Source\PSoC5/CyLib.c ****     *  address: Pointer to an interrupt service routine
2628:.\Generated_Source\PSoC5/CyLib.c ****     *
2629:.\Generated_Source\PSoC5/CyLib.c ****     * Return:
2630:.\Generated_Source\PSoC5/CyLib.c ****     *  Previous interrupt vector value.
2631:.\Generated_Source\PSoC5/CyLib.c ****     *
2632:.\Generated_Source\PSoC5/CyLib.c ****     *******************************************************************************/
2633:.\Generated_Source\PSoC5/CyLib.c ****     cyisraddress CyIntSetVector(uint8 number, cyisraddress address) 
2634:.\Generated_Source\PSoC5/CyLib.c ****     {
2635:.\Generated_Source\PSoC5/CyLib.c ****         cyisraddress oldIsr;
2636:.\Generated_Source\PSoC5/CyLib.c **** 
2637:.\Generated_Source\PSoC5/CyLib.c ****         CYASSERT(number <= CY_INT_NUMBER_MAX);
2638:.\Generated_Source\PSoC5/CyLib.c **** 
2639:.\Generated_Source\PSoC5/CyLib.c ****         /* Save old Interrupt service routine. */
2640:.\Generated_Source\PSoC5/CyLib.c ****         oldIsr = (cyisraddress) \
2641:.\Generated_Source\PSoC5/CyLib.c ****                     CY_GET_REG16(&CY_INT_VECT_TABLE[number & CY_INT_NUMBER_MASK]);
2642:.\Generated_Source\PSoC5/CyLib.c **** 
2643:.\Generated_Source\PSoC5/CyLib.c ****         /* Set new Interrupt service routine. */
2644:.\Generated_Source\PSoC5/CyLib.c ****         CY_SET_REG16(&CY_INT_VECT_TABLE[number], (uint16) address);
2645:.\Generated_Source\PSoC5/CyLib.c **** 
2646:.\Generated_Source\PSoC5/CyLib.c ****         return (oldIsr);
2647:.\Generated_Source\PSoC5/CyLib.c ****     }
2648:.\Generated_Source\PSoC5/CyLib.c **** 
2649:.\Generated_Source\PSoC5/CyLib.c **** 
2650:.\Generated_Source\PSoC5/CyLib.c ****     /*******************************************************************************
2651:.\Generated_Source\PSoC5/CyLib.c ****     * Function Name: CyIntGetVector
2652:.\Generated_Source\PSoC5/CyLib.c ****     ********************************************************************************
2653:.\Generated_Source\PSoC5/CyLib.c ****     *
2654:.\Generated_Source\PSoC5/CyLib.c ****     * Summary:
2655:.\Generated_Source\PSoC5/CyLib.c ****     *  Gets the interrupt vector of the specified interrupt number.
2656:.\Generated_Source\PSoC5/CyLib.c ****     *
2657:.\Generated_Source\PSoC5/CyLib.c ****     * Parameters:
2658:.\Generated_Source\PSoC5/CyLib.c ****     *  number: Valid range [0-31].  Interrupt number
2659:.\Generated_Source\PSoC5/CyLib.c ****     *
2660:.\Generated_Source\PSoC5/CyLib.c ****     * Return:
2661:.\Generated_Source\PSoC5/CyLib.c ****     *  Address of the ISR in the interrupt vector table.
2662:.\Generated_Source\PSoC5/CyLib.c ****     *
2663:.\Generated_Source\PSoC5/CyLib.c ****     *******************************************************************************/
2664:.\Generated_Source\PSoC5/CyLib.c ****     cyisraddress CyIntGetVector(uint8 number) 
2665:.\Generated_Source\PSoC5/CyLib.c ****     {
2666:.\Generated_Source\PSoC5/CyLib.c ****         CYASSERT(number <= CY_INT_NUMBER_MAX);
2667:.\Generated_Source\PSoC5/CyLib.c **** 
2668:.\Generated_Source\PSoC5/CyLib.c ****         return ((cyisraddress) \
2669:.\Generated_Source\PSoC5/CyLib.c ****                 CY_GET_REG16(&CY_INT_VECT_TABLE[number & CY_INT_NUMBER_MASK]));
2670:.\Generated_Source\PSoC5/CyLib.c ****     }
2671:.\Generated_Source\PSoC5/CyLib.c **** 
2672:.\Generated_Source\PSoC5/CyLib.c **** 
2673:.\Generated_Source\PSoC5/CyLib.c ****     /*******************************************************************************
2674:.\Generated_Source\PSoC5/CyLib.c ****     * Function Name: CyIntSetPriority
2675:.\Generated_Source\PSoC5/CyLib.c ****     ********************************************************************************
2676:.\Generated_Source\PSoC5/CyLib.c ****     *
2677:.\Generated_Source\PSoC5/CyLib.c ****     * Summary:
2678:.\Generated_Source\PSoC5/CyLib.c ****     *  Sets the Priority of the Interrupt.
2679:.\Generated_Source\PSoC5/CyLib.c ****     *
2680:.\Generated_Source\PSoC5/CyLib.c ****     * Parameters:
2681:.\Generated_Source\PSoC5/CyLib.c ****     *  priority: Priority of the interrupt. 0 - 7, 0 being the highest.
2682:.\Generated_Source\PSoC5/CyLib.c ****     *  number:   The number of the interrupt, 0 - 31.
ARM GAS  C:\Users\Yiquing\AppData\Local\Temp\ccsAoMV1.s 			page 107


2683:.\Generated_Source\PSoC5/CyLib.c ****     *
2684:.\Generated_Source\PSoC5/CyLib.c ****     * Return:
2685:.\Generated_Source\PSoC5/CyLib.c ****     *  None
2686:.\Generated_Source\PSoC5/CyLib.c ****     *
2687:.\Generated_Source\PSoC5/CyLib.c ****     *******************************************************************************/
2688:.\Generated_Source\PSoC5/CyLib.c ****     void CyIntSetPriority(uint8 number, uint8 priority) 
2689:.\Generated_Source\PSoC5/CyLib.c ****     {
2690:.\Generated_Source\PSoC5/CyLib.c ****         CYASSERT(priority <= CY_INT_PRIORITY_MAX);
2691:.\Generated_Source\PSoC5/CyLib.c **** 
2692:.\Generated_Source\PSoC5/CyLib.c ****         CYASSERT(number <= CY_INT_NUMBER_MAX);
2693:.\Generated_Source\PSoC5/CyLib.c **** 
2694:.\Generated_Source\PSoC5/CyLib.c ****         CY_INT_PRIORITY_PTR[number & CY_INT_NUMBER_MASK] =
2695:.\Generated_Source\PSoC5/CyLib.c ****                     (priority & CY_INT_PRIORITY_MASK) << 5;
2696:.\Generated_Source\PSoC5/CyLib.c ****     }
2697:.\Generated_Source\PSoC5/CyLib.c **** 
2698:.\Generated_Source\PSoC5/CyLib.c **** 
2699:.\Generated_Source\PSoC5/CyLib.c ****     /*******************************************************************************
2700:.\Generated_Source\PSoC5/CyLib.c ****     * Function Name: CyIntGetPriority
2701:.\Generated_Source\PSoC5/CyLib.c ****     ********************************************************************************
2702:.\Generated_Source\PSoC5/CyLib.c ****     *
2703:.\Generated_Source\PSoC5/CyLib.c ****     * Summary:
2704:.\Generated_Source\PSoC5/CyLib.c ****     *  Gets the Priority of the Interrupt.
2705:.\Generated_Source\PSoC5/CyLib.c ****     *
2706:.\Generated_Source\PSoC5/CyLib.c ****     * Parameters:
2707:.\Generated_Source\PSoC5/CyLib.c ****     *  number: The number of the interrupt, 0 - 31.
2708:.\Generated_Source\PSoC5/CyLib.c ****     *
2709:.\Generated_Source\PSoC5/CyLib.c ****     * Return:
2710:.\Generated_Source\PSoC5/CyLib.c ****     *  Priority of the interrupt. 0 - 7, 0 being the highest.
2711:.\Generated_Source\PSoC5/CyLib.c ****     *
2712:.\Generated_Source\PSoC5/CyLib.c ****     *******************************************************************************/
2713:.\Generated_Source\PSoC5/CyLib.c ****     uint8 CyIntGetPriority(uint8 number) 
2714:.\Generated_Source\PSoC5/CyLib.c ****     {
2715:.\Generated_Source\PSoC5/CyLib.c ****         uint8 priority;
2716:.\Generated_Source\PSoC5/CyLib.c **** 
2717:.\Generated_Source\PSoC5/CyLib.c ****         CYASSERT(number <= CY_INT_NUMBER_MAX);
2718:.\Generated_Source\PSoC5/CyLib.c **** 
2719:.\Generated_Source\PSoC5/CyLib.c ****         priority = CY_INT_PRIORITY_PTR[number & CY_INT_NUMBER_MASK] >> 5;
2720:.\Generated_Source\PSoC5/CyLib.c **** 
2721:.\Generated_Source\PSoC5/CyLib.c ****         return (priority);
2722:.\Generated_Source\PSoC5/CyLib.c ****     }
2723:.\Generated_Source\PSoC5/CyLib.c **** 
2724:.\Generated_Source\PSoC5/CyLib.c **** 
2725:.\Generated_Source\PSoC5/CyLib.c ****     /*******************************************************************************
2726:.\Generated_Source\PSoC5/CyLib.c ****     * Function Name: CyIntGetState
2727:.\Generated_Source\PSoC5/CyLib.c ****     ********************************************************************************
2728:.\Generated_Source\PSoC5/CyLib.c ****     *
2729:.\Generated_Source\PSoC5/CyLib.c ****     * Summary:
2730:.\Generated_Source\PSoC5/CyLib.c ****     *   Gets the enable state of the specified interrupt number.
2731:.\Generated_Source\PSoC5/CyLib.c ****     *
2732:.\Generated_Source\PSoC5/CyLib.c ****     * Parameters:
2733:.\Generated_Source\PSoC5/CyLib.c ****     *   number: Valid range [0-31].  Interrupt number.
2734:.\Generated_Source\PSoC5/CyLib.c ****     *
2735:.\Generated_Source\PSoC5/CyLib.c ****     * Return:
2736:.\Generated_Source\PSoC5/CyLib.c ****     *   Enable status: 1 if enabled, 0 if disabled
2737:.\Generated_Source\PSoC5/CyLib.c ****     *
2738:.\Generated_Source\PSoC5/CyLib.c ****     *******************************************************************************/
2739:.\Generated_Source\PSoC5/CyLib.c ****     uint8 CyIntGetState(uint8 number) 
ARM GAS  C:\Users\Yiquing\AppData\Local\Temp\ccsAoMV1.s 			page 108


2740:.\Generated_Source\PSoC5/CyLib.c ****     {
2741:.\Generated_Source\PSoC5/CyLib.c ****         reg8 * stateReg;
2742:.\Generated_Source\PSoC5/CyLib.c **** 
2743:.\Generated_Source\PSoC5/CyLib.c ****         CYASSERT(number <= CY_INT_NUMBER_MAX);
2744:.\Generated_Source\PSoC5/CyLib.c **** 
2745:.\Generated_Source\PSoC5/CyLib.c ****         /* Get pointer to Interrupt enable register. */
2746:.\Generated_Source\PSoC5/CyLib.c ****         stateReg = CY_INT_ENABLE_PTR + ((number & CY_INT_NUMBER_MASK) >> 3u);
2747:.\Generated_Source\PSoC5/CyLib.c **** 
2748:.\Generated_Source\PSoC5/CyLib.c ****         /* Get state of interrupt. */
2749:.\Generated_Source\PSoC5/CyLib.c ****         return ((0u != (*stateReg & ((uint8)(1u << (0x07u & number))))) ? ((uint8)(1u)) : ((uint8)(
2750:.\Generated_Source\PSoC5/CyLib.c ****     }
2751:.\Generated_Source\PSoC5/CyLib.c **** 
2752:.\Generated_Source\PSoC5/CyLib.c **** 
2753:.\Generated_Source\PSoC5/CyLib.c **** #endif  /* (CY_PSOC5) */
2754:.\Generated_Source\PSoC5/CyLib.c **** 
2755:.\Generated_Source\PSoC5/CyLib.c **** 
2756:.\Generated_Source\PSoC5/CyLib.c **** #if(CYDEV_VARIABLE_VDDA == 1)
2757:.\Generated_Source\PSoC5/CyLib.c **** 
2758:.\Generated_Source\PSoC5/CyLib.c ****     /*******************************************************************************
2759:.\Generated_Source\PSoC5/CyLib.c ****     * Function Name: CySetScPumps
2760:.\Generated_Source\PSoC5/CyLib.c ****     ********************************************************************************
2761:.\Generated_Source\PSoC5/CyLib.c ****     *
2762:.\Generated_Source\PSoC5/CyLib.c ****     * Summary:
2763:.\Generated_Source\PSoC5/CyLib.c ****     *  If 1 is passed as a parameter:
2764:.\Generated_Source\PSoC5/CyLib.c ****     *   - if any of the SC blocks are used - enable pumps for the SC blocks and
2765:.\Generated_Source\PSoC5/CyLib.c ****     *     start boost clock.
2766:.\Generated_Source\PSoC5/CyLib.c ****     *   - For each enabled SC block set a boost clock index and enable the boost
2767:.\Generated_Source\PSoC5/CyLib.c ****     *     clock.
2768:.\Generated_Source\PSoC5/CyLib.c ****     *
2769:.\Generated_Source\PSoC5/CyLib.c ****     *  If non-1 value is passed as a parameter:
2770:.\Generated_Source\PSoC5/CyLib.c ****     *   - If all SC blocks are not used - disable pumps for the SC blocks and
2771:.\Generated_Source\PSoC5/CyLib.c ****     *     stop the boost clock.
2772:.\Generated_Source\PSoC5/CyLib.c ****     *   - For each enabled SC block clear the boost clock index and disable the
2773:.\Generated_Source\PSoC5/CyLib.c ****     *     boost clock.
2774:.\Generated_Source\PSoC5/CyLib.c ****     *
2775:.\Generated_Source\PSoC5/CyLib.c ****     *  The global variable CyScPumpEnabled is updated to be equal to passed the
2776:.\Generated_Source\PSoC5/CyLib.c ****     *  parameter.
2777:.\Generated_Source\PSoC5/CyLib.c ****     *
2778:.\Generated_Source\PSoC5/CyLib.c ****     * Parameters:
2779:.\Generated_Source\PSoC5/CyLib.c ****     *   uint8 enable: Enable/disable SC pumps and the boost clock for the enabled
2780:.\Generated_Source\PSoC5/CyLib.c ****     *                 SC block:
2781:.\Generated_Source\PSoC5/CyLib.c ****     *                 1 - Enable
2782:.\Generated_Source\PSoC5/CyLib.c ****     *                 0 - Disable
2783:.\Generated_Source\PSoC5/CyLib.c ****     *
2784:.\Generated_Source\PSoC5/CyLib.c ****     * Return:
2785:.\Generated_Source\PSoC5/CyLib.c ****     *   None
2786:.\Generated_Source\PSoC5/CyLib.c ****     *
2787:.\Generated_Source\PSoC5/CyLib.c ****     *******************************************************************************/
2788:.\Generated_Source\PSoC5/CyLib.c ****     void CySetScPumps(uint8 enable) 
2789:.\Generated_Source\PSoC5/CyLib.c ****     {
2790:.\Generated_Source\PSoC5/CyLib.c ****         if(1u == enable)
2791:.\Generated_Source\PSoC5/CyLib.c ****         {
2792:.\Generated_Source\PSoC5/CyLib.c ****             /* The SC pumps should be enabled */
2793:.\Generated_Source\PSoC5/CyLib.c ****             CyScPumpEnabled = 1u;
2794:.\Generated_Source\PSoC5/CyLib.c ****             /* Enable pumps if any of SC blocks are used */
2795:.\Generated_Source\PSoC5/CyLib.c ****             if(0u != (CY_LIB_ACT_CFG9_REG & CY_LIB_ACT_CFG9_SWCAPS_MASK))
2796:.\Generated_Source\PSoC5/CyLib.c ****             {
ARM GAS  C:\Users\Yiquing\AppData\Local\Temp\ccsAoMV1.s 			page 109


2797:.\Generated_Source\PSoC5/CyLib.c ****                 CY_LIB_SC_MISC_REG |= CY_LIB_SC_MISC_PUMP_FORCE;
2798:.\Generated_Source\PSoC5/CyLib.c ****                 CyScBoostClk_Start();
2799:.\Generated_Source\PSoC5/CyLib.c ****             }
2800:.\Generated_Source\PSoC5/CyLib.c ****             /* Set positive pump for each enabled SC block: set clock index and enable it */
2801:.\Generated_Source\PSoC5/CyLib.c ****             if(0u != (CY_LIB_ACT_CFG9_REG & CY_LIB_ACT_CFG9_SWCAP0_EN))
2802:.\Generated_Source\PSoC5/CyLib.c ****             {
2803:.\Generated_Source\PSoC5/CyLib.c ****                 CY_LIB_SC0_BST_REG = (CY_LIB_SC0_BST_REG & CY_LIB_SC_BST_CLK_INDEX_MASK) | CyScBoos
2804:.\Generated_Source\PSoC5/CyLib.c ****                 CY_LIB_SC0_BST_REG |= CY_LIB_SC_BST_CLK_EN;
2805:.\Generated_Source\PSoC5/CyLib.c ****             }
2806:.\Generated_Source\PSoC5/CyLib.c ****             if(0u != (CY_LIB_ACT_CFG9_REG & CY_LIB_ACT_CFG9_SWCAP1_EN))
2807:.\Generated_Source\PSoC5/CyLib.c ****             {
2808:.\Generated_Source\PSoC5/CyLib.c ****                 CY_LIB_SC1_BST_REG = (CY_LIB_SC1_BST_REG & CY_LIB_SC_BST_CLK_INDEX_MASK) | CyScBoos
2809:.\Generated_Source\PSoC5/CyLib.c ****                 CY_LIB_SC1_BST_REG |= CY_LIB_SC_BST_CLK_EN;
2810:.\Generated_Source\PSoC5/CyLib.c ****             }
2811:.\Generated_Source\PSoC5/CyLib.c ****             if(0u != (CY_LIB_ACT_CFG9_REG & CY_LIB_ACT_CFG9_SWCAP2_EN))
2812:.\Generated_Source\PSoC5/CyLib.c ****             {
2813:.\Generated_Source\PSoC5/CyLib.c ****                 CY_LIB_SC2_BST_REG = (CY_LIB_SC2_BST_REG & CY_LIB_SC_BST_CLK_INDEX_MASK) | CyScBoos
2814:.\Generated_Source\PSoC5/CyLib.c ****                 CY_LIB_SC2_BST_REG |= CY_LIB_SC_BST_CLK_EN;
2815:.\Generated_Source\PSoC5/CyLib.c ****             }
2816:.\Generated_Source\PSoC5/CyLib.c ****             if(0u != (CY_LIB_ACT_CFG9_REG & CY_LIB_ACT_CFG9_SWCAP3_EN))
2817:.\Generated_Source\PSoC5/CyLib.c ****             {
2818:.\Generated_Source\PSoC5/CyLib.c ****                 CY_LIB_SC3_BST_REG = (CY_LIB_SC3_BST_REG & CY_LIB_SC_BST_CLK_INDEX_MASK) | CyScBoos
2819:.\Generated_Source\PSoC5/CyLib.c ****                 CY_LIB_SC3_BST_REG |= CY_LIB_SC_BST_CLK_EN;
2820:.\Generated_Source\PSoC5/CyLib.c ****             }
2821:.\Generated_Source\PSoC5/CyLib.c ****         }
2822:.\Generated_Source\PSoC5/CyLib.c ****         else
2823:.\Generated_Source\PSoC5/CyLib.c ****         {
2824:.\Generated_Source\PSoC5/CyLib.c ****             /* The SC pumps should be disabled */
2825:.\Generated_Source\PSoC5/CyLib.c ****             CyScPumpEnabled = 0u;
2826:.\Generated_Source\PSoC5/CyLib.c ****             /* Disable pumps for all SC blocks and stop boost clock */
2827:.\Generated_Source\PSoC5/CyLib.c ****             CY_LIB_SC_MISC_REG &= ((uint8)(~CY_LIB_SC_MISC_PUMP_FORCE));
2828:.\Generated_Source\PSoC5/CyLib.c ****             CyScBoostClk_Stop();
2829:.\Generated_Source\PSoC5/CyLib.c ****             /* Disable boost clock and clear clock index for each SC block */
2830:.\Generated_Source\PSoC5/CyLib.c ****             CY_LIB_SC0_BST_REG &= ((uint8)(~CY_LIB_SC_BST_CLK_EN));
2831:.\Generated_Source\PSoC5/CyLib.c ****             CY_LIB_SC0_BST_REG = CY_LIB_SC0_BST_REG & CY_LIB_SC_BST_CLK_INDEX_MASK;
2832:.\Generated_Source\PSoC5/CyLib.c ****             CY_LIB_SC1_BST_REG &= ((uint8)(~CY_LIB_SC_BST_CLK_EN));
2833:.\Generated_Source\PSoC5/CyLib.c ****             CY_LIB_SC1_BST_REG = CY_LIB_SC1_BST_REG & CY_LIB_SC_BST_CLK_INDEX_MASK;
2834:.\Generated_Source\PSoC5/CyLib.c ****             CY_LIB_SC2_BST_REG &= ((uint8)(~CY_LIB_SC_BST_CLK_EN));
2835:.\Generated_Source\PSoC5/CyLib.c ****             CY_LIB_SC2_BST_REG = CY_LIB_SC2_BST_REG & CY_LIB_SC_BST_CLK_INDEX_MASK;
2836:.\Generated_Source\PSoC5/CyLib.c ****             CY_LIB_SC3_BST_REG &= ((uint8)(~CY_LIB_SC_BST_CLK_EN));
2837:.\Generated_Source\PSoC5/CyLib.c ****             CY_LIB_SC3_BST_REG = CY_LIB_SC3_BST_REG & CY_LIB_SC_BST_CLK_INDEX_MASK;
2838:.\Generated_Source\PSoC5/CyLib.c ****         }
2839:.\Generated_Source\PSoC5/CyLib.c ****     }
2840:.\Generated_Source\PSoC5/CyLib.c **** 
2841:.\Generated_Source\PSoC5/CyLib.c **** #endif  /* (CYDEV_VARIABLE_VDDA == 1) */
2842:.\Generated_Source\PSoC5/CyLib.c **** 
2843:.\Generated_Source\PSoC5/CyLib.c **** 
2844:.\Generated_Source\PSoC5/CyLib.c **** #if(CY_PSOC5)
2845:.\Generated_Source\PSoC5/CyLib.c ****     /*******************************************************************************
2846:.\Generated_Source\PSoC5/CyLib.c ****     * Function Name: CySysTickStart
2847:.\Generated_Source\PSoC5/CyLib.c ****     ********************************************************************************
2848:.\Generated_Source\PSoC5/CyLib.c ****     *
2849:.\Generated_Source\PSoC5/CyLib.c ****     * Summary:
2850:.\Generated_Source\PSoC5/CyLib.c ****     *  Configures the SysTick timer to generate interrupt every 1 ms by call to the
2851:.\Generated_Source\PSoC5/CyLib.c ****     *  CySysTickInit() function and starts it by calling CySysTickEnable() function.
2852:.\Generated_Source\PSoC5/CyLib.c ****     *  Refer to the corresponding function description for the details.
2853:.\Generated_Source\PSoC5/CyLib.c **** 
ARM GAS  C:\Users\Yiquing\AppData\Local\Temp\ccsAoMV1.s 			page 110


2854:.\Generated_Source\PSoC5/CyLib.c ****     * Parameters:
2855:.\Generated_Source\PSoC5/CyLib.c ****     *  None
2856:.\Generated_Source\PSoC5/CyLib.c ****     *
2857:.\Generated_Source\PSoC5/CyLib.c ****     * Return:
2858:.\Generated_Source\PSoC5/CyLib.c ****     *  None
2859:.\Generated_Source\PSoC5/CyLib.c ****     *
2860:.\Generated_Source\PSoC5/CyLib.c ****     * Side Effects:
2861:.\Generated_Source\PSoC5/CyLib.c ****     *  Clears SysTick count flag if it was set
2862:.\Generated_Source\PSoC5/CyLib.c ****     *
2863:.\Generated_Source\PSoC5/CyLib.c ****     *******************************************************************************/
2864:.\Generated_Source\PSoC5/CyLib.c ****     void CySysTickStart(void)
2865:.\Generated_Source\PSoC5/CyLib.c ****     {
2866:.\Generated_Source\PSoC5/CyLib.c ****         if (0u == CySysTickInitVar)
2867:.\Generated_Source\PSoC5/CyLib.c ****         {
2868:.\Generated_Source\PSoC5/CyLib.c ****             CySysTickInit();
2869:.\Generated_Source\PSoC5/CyLib.c ****             CySysTickInitVar = 1u;
2870:.\Generated_Source\PSoC5/CyLib.c ****         }
2871:.\Generated_Source\PSoC5/CyLib.c **** 
2872:.\Generated_Source\PSoC5/CyLib.c ****         CySysTickEnable();
2873:.\Generated_Source\PSoC5/CyLib.c ****     }
2874:.\Generated_Source\PSoC5/CyLib.c **** 
2875:.\Generated_Source\PSoC5/CyLib.c **** 
2876:.\Generated_Source\PSoC5/CyLib.c ****     /*******************************************************************************
2877:.\Generated_Source\PSoC5/CyLib.c ****     * Function Name: CySysTickInit
2878:.\Generated_Source\PSoC5/CyLib.c ****     ********************************************************************************
2879:.\Generated_Source\PSoC5/CyLib.c ****     *
2880:.\Generated_Source\PSoC5/CyLib.c ****     * Summary:
2881:.\Generated_Source\PSoC5/CyLib.c ****     *  Initializes the callback addresses with pointers to NULL, associates the
2882:.\Generated_Source\PSoC5/CyLib.c ****     *  SysTick system vector with the function that is responsible for calling
2883:.\Generated_Source\PSoC5/CyLib.c ****     *  registered callback functions, configures SysTick timer to generate interrupt
2884:.\Generated_Source\PSoC5/CyLib.c ****     * every 1 ms.
2885:.\Generated_Source\PSoC5/CyLib.c ****     *
2886:.\Generated_Source\PSoC5/CyLib.c ****     * Parameters:
2887:.\Generated_Source\PSoC5/CyLib.c ****     *  None
2888:.\Generated_Source\PSoC5/CyLib.c ****     *
2889:.\Generated_Source\PSoC5/CyLib.c ****     * Return:
2890:.\Generated_Source\PSoC5/CyLib.c ****     *  None
2891:.\Generated_Source\PSoC5/CyLib.c ****     *
2892:.\Generated_Source\PSoC5/CyLib.c ****     * Side Effects:
2893:.\Generated_Source\PSoC5/CyLib.c ****     *  Clears SysTick count flag if it was set.
2894:.\Generated_Source\PSoC5/CyLib.c ****     *
2895:.\Generated_Source\PSoC5/CyLib.c ****     *  The 1 ms interrupt interval is configured based on the frequency determined
2896:.\Generated_Source\PSoC5/CyLib.c ****     *  by PSoC Creator at build time. If System clock frequency is changed in
2897:.\Generated_Source\PSoC5/CyLib.c ****     *  runtime, the CyDelayFreq() with the appropriate parameter should be called.
2898:.\Generated_Source\PSoC5/CyLib.c ****     *
2899:.\Generated_Source\PSoC5/CyLib.c ****     *******************************************************************************/
2900:.\Generated_Source\PSoC5/CyLib.c ****     void CySysTickInit(void)
2901:.\Generated_Source\PSoC5/CyLib.c ****     {
2902:.\Generated_Source\PSoC5/CyLib.c ****         uint32 i;
2903:.\Generated_Source\PSoC5/CyLib.c **** 
2904:.\Generated_Source\PSoC5/CyLib.c ****         for (i = 0u; i<CY_SYS_SYST_NUM_OF_CALLBACKS; i++)
2905:.\Generated_Source\PSoC5/CyLib.c ****         {
2906:.\Generated_Source\PSoC5/CyLib.c ****             CySysTickCallbacks[i] = (void *) 0;
2907:.\Generated_Source\PSoC5/CyLib.c ****         }
2908:.\Generated_Source\PSoC5/CyLib.c **** 
2909:.\Generated_Source\PSoC5/CyLib.c ****         (void) CyIntSetSysVector(CY_INT_SYSTICK_IRQN, &CySysTickServiceCallbacks);
2910:.\Generated_Source\PSoC5/CyLib.c ****         CySysTickSetClockSource(CY_SYS_SYST_CSR_CLK_SRC_SYSCLK);
ARM GAS  C:\Users\Yiquing\AppData\Local\Temp\ccsAoMV1.s 			page 111


2911:.\Generated_Source\PSoC5/CyLib.c ****         CySysTickSetReload(cydelay_freq_hz/1000u);
2912:.\Generated_Source\PSoC5/CyLib.c ****         CySysTickClear();
2913:.\Generated_Source\PSoC5/CyLib.c ****         CyIntEnable(CY_INT_SYSTICK_IRQN);
2914:.\Generated_Source\PSoC5/CyLib.c ****     }
2915:.\Generated_Source\PSoC5/CyLib.c **** 
2916:.\Generated_Source\PSoC5/CyLib.c **** 
2917:.\Generated_Source\PSoC5/CyLib.c ****     /*******************************************************************************
2918:.\Generated_Source\PSoC5/CyLib.c ****     * Function Name: CySysTickEnable
2919:.\Generated_Source\PSoC5/CyLib.c ****     ********************************************************************************
2920:.\Generated_Source\PSoC5/CyLib.c ****     *
2921:.\Generated_Source\PSoC5/CyLib.c ****     * Summary:
2922:.\Generated_Source\PSoC5/CyLib.c ****     *  Enables the SysTick timer and its interrupt.
2923:.\Generated_Source\PSoC5/CyLib.c ****     *
2924:.\Generated_Source\PSoC5/CyLib.c ****     * Parameters:
2925:.\Generated_Source\PSoC5/CyLib.c ****     *  None
2926:.\Generated_Source\PSoC5/CyLib.c ****     *
2927:.\Generated_Source\PSoC5/CyLib.c ****     * Return:
2928:.\Generated_Source\PSoC5/CyLib.c ****     *  None
2929:.\Generated_Source\PSoC5/CyLib.c ****     *
2930:.\Generated_Source\PSoC5/CyLib.c ****     * Side Effects:
2931:.\Generated_Source\PSoC5/CyLib.c ****     *  Clears SysTick count flag if it was set
2932:.\Generated_Source\PSoC5/CyLib.c ****     *
2933:.\Generated_Source\PSoC5/CyLib.c ****     *******************************************************************************/
2934:.\Generated_Source\PSoC5/CyLib.c ****     void CySysTickEnable(void)
2935:.\Generated_Source\PSoC5/CyLib.c ****     {
2936:.\Generated_Source\PSoC5/CyLib.c ****         CySysTickEnableInterrupt();
2937:.\Generated_Source\PSoC5/CyLib.c ****         CY_SYS_SYST_CSR_REG |= CY_SYS_SYST_CSR_ENABLE;
2938:.\Generated_Source\PSoC5/CyLib.c ****     }
2939:.\Generated_Source\PSoC5/CyLib.c **** 
2940:.\Generated_Source\PSoC5/CyLib.c **** 
2941:.\Generated_Source\PSoC5/CyLib.c ****     /*******************************************************************************
2942:.\Generated_Source\PSoC5/CyLib.c ****     * Function Name: CySysTickStop
2943:.\Generated_Source\PSoC5/CyLib.c ****     ********************************************************************************
2944:.\Generated_Source\PSoC5/CyLib.c ****     *
2945:.\Generated_Source\PSoC5/CyLib.c ****     * Summary:
2946:.\Generated_Source\PSoC5/CyLib.c ****     *  Stops the system timer (SysTick).
2947:.\Generated_Source\PSoC5/CyLib.c ****     *
2948:.\Generated_Source\PSoC5/CyLib.c ****     * Parameters:
2949:.\Generated_Source\PSoC5/CyLib.c ****     *  None
2950:.\Generated_Source\PSoC5/CyLib.c ****     *
2951:.\Generated_Source\PSoC5/CyLib.c ****     * Return:
2952:.\Generated_Source\PSoC5/CyLib.c ****     *  None
2953:.\Generated_Source\PSoC5/CyLib.c ****     *
2954:.\Generated_Source\PSoC5/CyLib.c ****     * Side Effects:
2955:.\Generated_Source\PSoC5/CyLib.c ****     *  Clears SysTick count flag if it was set
2956:.\Generated_Source\PSoC5/CyLib.c ****     *
2957:.\Generated_Source\PSoC5/CyLib.c ****     *******************************************************************************/
2958:.\Generated_Source\PSoC5/CyLib.c ****     void CySysTickStop(void)
2959:.\Generated_Source\PSoC5/CyLib.c ****     {
 3086              		.loc 1 2959 0
 3087              		.cfi_startproc
 3088              		@ args = 0, pretend = 0, frame = 0
 3089              		@ frame_needed = 0, uses_anonymous_args = 0
 3090              		@ link register save eliminated.
2960:.\Generated_Source\PSoC5/CyLib.c ****         CY_SYS_SYST_CSR_REG &= ((uint32) ~(CY_SYS_SYST_CSR_ENABLE));
 3091              		.loc 1 2960 0
 3092 0000 024B     		ldr	r3, .L299
ARM GAS  C:\Users\Yiquing\AppData\Local\Temp\ccsAoMV1.s 			page 112


 3093 0002 1A68     		ldr	r2, [r3]
 3094 0004 22F00102 		bic	r2, r2, #1
 3095 0008 1A60     		str	r2, [r3]
 3096 000a 7047     		bx	lr
 3097              	.L300:
 3098              		.align	2
 3099              	.L299:
 3100 000c 10E000E0 		.word	-536813552
 3101              		.cfi_endproc
 3102              	.LFE67:
 3103              		.size	CySysTickStop, .-CySysTickStop
 3104              		.section	.text.CySysTickEnableInterrupt,"ax",%progbits
 3105              		.align	1
 3106              		.global	CySysTickEnableInterrupt
 3107              		.thumb
 3108              		.thumb_func
 3109              		.type	CySysTickEnableInterrupt, %function
 3110              	CySysTickEnableInterrupt:
 3111              	.LFB68:
2961:.\Generated_Source\PSoC5/CyLib.c ****     }
2962:.\Generated_Source\PSoC5/CyLib.c **** 
2963:.\Generated_Source\PSoC5/CyLib.c **** 
2964:.\Generated_Source\PSoC5/CyLib.c ****     /*******************************************************************************
2965:.\Generated_Source\PSoC5/CyLib.c ****     * Function Name: CySysTickEnableInterrupt
2966:.\Generated_Source\PSoC5/CyLib.c ****     ********************************************************************************
2967:.\Generated_Source\PSoC5/CyLib.c ****     *
2968:.\Generated_Source\PSoC5/CyLib.c ****     * Summary:
2969:.\Generated_Source\PSoC5/CyLib.c ****     *  Enables the SysTick interrupt.
2970:.\Generated_Source\PSoC5/CyLib.c ****     *
2971:.\Generated_Source\PSoC5/CyLib.c ****     * Parameters:
2972:.\Generated_Source\PSoC5/CyLib.c ****     *  None
2973:.\Generated_Source\PSoC5/CyLib.c ****     *
2974:.\Generated_Source\PSoC5/CyLib.c ****     * Return:
2975:.\Generated_Source\PSoC5/CyLib.c ****     *  None
2976:.\Generated_Source\PSoC5/CyLib.c ****     *
2977:.\Generated_Source\PSoC5/CyLib.c ****     * Side Effects:
2978:.\Generated_Source\PSoC5/CyLib.c ****     *  Clears SysTick count flag if it was set
2979:.\Generated_Source\PSoC5/CyLib.c ****     *
2980:.\Generated_Source\PSoC5/CyLib.c ****     *******************************************************************************/
2981:.\Generated_Source\PSoC5/CyLib.c ****     void CySysTickEnableInterrupt(void)
2982:.\Generated_Source\PSoC5/CyLib.c ****     {
 3112              		.loc 1 2982 0
 3113              		.cfi_startproc
 3114              		@ args = 0, pretend = 0, frame = 0
 3115              		@ frame_needed = 0, uses_anonymous_args = 0
 3116              		@ link register save eliminated.
2983:.\Generated_Source\PSoC5/CyLib.c ****         CY_SYS_SYST_CSR_REG |= CY_SYS_SYST_CSR_ENABLE_INT;
 3117              		.loc 1 2983 0
 3118 0000 024B     		ldr	r3, .L302
 3119 0002 1A68     		ldr	r2, [r3]
 3120 0004 42F00202 		orr	r2, r2, #2
 3121 0008 1A60     		str	r2, [r3]
 3122 000a 7047     		bx	lr
 3123              	.L303:
 3124              		.align	2
 3125              	.L302:
 3126 000c 10E000E0 		.word	-536813552
ARM GAS  C:\Users\Yiquing\AppData\Local\Temp\ccsAoMV1.s 			page 113


 3127              		.cfi_endproc
 3128              	.LFE68:
 3129              		.size	CySysTickEnableInterrupt, .-CySysTickEnableInterrupt
 3130              		.section	.text.CySysTickEnable,"ax",%progbits
 3131              		.align	1
 3132              		.global	CySysTickEnable
 3133              		.thumb
 3134              		.thumb_func
 3135              		.type	CySysTickEnable, %function
 3136              	CySysTickEnable:
 3137              	.LFB66:
2935:.\Generated_Source\PSoC5/CyLib.c ****     {
 3138              		.loc 1 2935 0
 3139              		.cfi_startproc
 3140              		@ args = 0, pretend = 0, frame = 0
 3141              		@ frame_needed = 0, uses_anonymous_args = 0
 3142 0000 08B5     		push	{r3, lr}
 3143              		.cfi_def_cfa_offset 8
 3144              		.cfi_offset 3, -8
 3145              		.cfi_offset 14, -4
2936:.\Generated_Source\PSoC5/CyLib.c ****         CySysTickEnableInterrupt();
 3146              		.loc 1 2936 0
 3147 0002 FFF7FEFF 		bl	CySysTickEnableInterrupt
 3148              	.LVL194:
2937:.\Generated_Source\PSoC5/CyLib.c ****         CY_SYS_SYST_CSR_REG |= CY_SYS_SYST_CSR_ENABLE;
 3149              		.loc 1 2937 0
 3150 0006 034B     		ldr	r3, .L305
 3151 0008 1A68     		ldr	r2, [r3]
 3152 000a 42F00102 		orr	r2, r2, #1
 3153 000e 1A60     		str	r2, [r3]
 3154 0010 08BD     		pop	{r3, pc}
 3155              	.L306:
 3156 0012 00BF     		.align	2
 3157              	.L305:
 3158 0014 10E000E0 		.word	-536813552
 3159              		.cfi_endproc
 3160              	.LFE66:
 3161              		.size	CySysTickEnable, .-CySysTickEnable
 3162              		.section	.text.CySysTickDisableInterrupt,"ax",%progbits
 3163              		.align	1
 3164              		.global	CySysTickDisableInterrupt
 3165              		.thumb
 3166              		.thumb_func
 3167              		.type	CySysTickDisableInterrupt, %function
 3168              	CySysTickDisableInterrupt:
 3169              	.LFB69:
2984:.\Generated_Source\PSoC5/CyLib.c ****     }
2985:.\Generated_Source\PSoC5/CyLib.c **** 
2986:.\Generated_Source\PSoC5/CyLib.c **** 
2987:.\Generated_Source\PSoC5/CyLib.c ****     /*******************************************************************************
2988:.\Generated_Source\PSoC5/CyLib.c ****     * Function Name: CySysTickDisableInterrupt
2989:.\Generated_Source\PSoC5/CyLib.c ****     ********************************************************************************
2990:.\Generated_Source\PSoC5/CyLib.c ****     *
2991:.\Generated_Source\PSoC5/CyLib.c ****     * Summary:
2992:.\Generated_Source\PSoC5/CyLib.c ****     *  Disables the SysTick interrupt.
2993:.\Generated_Source\PSoC5/CyLib.c ****     *
2994:.\Generated_Source\PSoC5/CyLib.c ****     * Parameters:
ARM GAS  C:\Users\Yiquing\AppData\Local\Temp\ccsAoMV1.s 			page 114


2995:.\Generated_Source\PSoC5/CyLib.c ****     *  None
2996:.\Generated_Source\PSoC5/CyLib.c ****     *
2997:.\Generated_Source\PSoC5/CyLib.c ****     * Return:
2998:.\Generated_Source\PSoC5/CyLib.c ****     *  None
2999:.\Generated_Source\PSoC5/CyLib.c ****     *
3000:.\Generated_Source\PSoC5/CyLib.c ****     * Side Effects:
3001:.\Generated_Source\PSoC5/CyLib.c ****     *  Clears SysTick count flag if it was set
3002:.\Generated_Source\PSoC5/CyLib.c ****     *
3003:.\Generated_Source\PSoC5/CyLib.c ****     *******************************************************************************/
3004:.\Generated_Source\PSoC5/CyLib.c ****     void CySysTickDisableInterrupt(void)
3005:.\Generated_Source\PSoC5/CyLib.c ****     {
 3170              		.loc 1 3005 0
 3171              		.cfi_startproc
 3172              		@ args = 0, pretend = 0, frame = 0
 3173              		@ frame_needed = 0, uses_anonymous_args = 0
 3174              		@ link register save eliminated.
3006:.\Generated_Source\PSoC5/CyLib.c ****         CY_SYS_SYST_CSR_REG &= ((uint32) ~(CY_SYS_SYST_CSR_ENABLE_INT));
 3175              		.loc 1 3006 0
 3176 0000 024B     		ldr	r3, .L308
 3177 0002 1A68     		ldr	r2, [r3]
 3178 0004 22F00202 		bic	r2, r2, #2
 3179 0008 1A60     		str	r2, [r3]
 3180 000a 7047     		bx	lr
 3181              	.L309:
 3182              		.align	2
 3183              	.L308:
 3184 000c 10E000E0 		.word	-536813552
 3185              		.cfi_endproc
 3186              	.LFE69:
 3187              		.size	CySysTickDisableInterrupt, .-CySysTickDisableInterrupt
 3188              		.section	.text.CySysTickSetReload,"ax",%progbits
 3189              		.align	1
 3190              		.global	CySysTickSetReload
 3191              		.thumb
 3192              		.thumb_func
 3193              		.type	CySysTickSetReload, %function
 3194              	CySysTickSetReload:
 3195              	.LFB70:
3007:.\Generated_Source\PSoC5/CyLib.c ****     }
3008:.\Generated_Source\PSoC5/CyLib.c **** 
3009:.\Generated_Source\PSoC5/CyLib.c **** 
3010:.\Generated_Source\PSoC5/CyLib.c ****     /*******************************************************************************
3011:.\Generated_Source\PSoC5/CyLib.c ****     * Function Name: CySysTickSetReload
3012:.\Generated_Source\PSoC5/CyLib.c ****     ********************************************************************************
3013:.\Generated_Source\PSoC5/CyLib.c ****     *
3014:.\Generated_Source\PSoC5/CyLib.c ****     * Summary:
3015:.\Generated_Source\PSoC5/CyLib.c ****     *  Sets value the counter is set to on startup and after it reaches zero. This
3016:.\Generated_Source\PSoC5/CyLib.c ****     *  function do not change or reset current sysTick counter value, so it should
3017:.\Generated_Source\PSoC5/CyLib.c ****     *  be cleared using CySysTickClear() API.
3018:.\Generated_Source\PSoC5/CyLib.c ****     *
3019:.\Generated_Source\PSoC5/CyLib.c ****     * Parameters:
3020:.\Generated_Source\PSoC5/CyLib.c ****     *  value: Valid range [0x0-0x00FFFFFF]. Counter reset value.
3021:.\Generated_Source\PSoC5/CyLib.c ****     *
3022:.\Generated_Source\PSoC5/CyLib.c ****     * Return:
3023:.\Generated_Source\PSoC5/CyLib.c ****     *  None
3024:.\Generated_Source\PSoC5/CyLib.c ****     *
3025:.\Generated_Source\PSoC5/CyLib.c ****     *******************************************************************************/
ARM GAS  C:\Users\Yiquing\AppData\Local\Temp\ccsAoMV1.s 			page 115


3026:.\Generated_Source\PSoC5/CyLib.c ****     void CySysTickSetReload(uint32 value)
3027:.\Generated_Source\PSoC5/CyLib.c ****     {
 3196              		.loc 1 3027 0
 3197              		.cfi_startproc
 3198              		@ args = 0, pretend = 0, frame = 0
 3199              		@ frame_needed = 0, uses_anonymous_args = 0
 3200              		@ link register save eliminated.
 3201              	.LVL195:
3028:.\Generated_Source\PSoC5/CyLib.c ****         CY_SYS_SYST_RVR_REG = (value & CY_SYS_SYST_RVR_CNT_MASK);
 3202              		.loc 1 3028 0
 3203 0000 024B     		ldr	r3, .L311
 3204 0002 20F07F40 		bic	r0, r0, #-16777216
 3205              	.LVL196:
 3206 0006 1860     		str	r0, [r3]
 3207 0008 7047     		bx	lr
 3208              	.L312:
 3209 000a 00BF     		.align	2
 3210              	.L311:
 3211 000c 14E000E0 		.word	-536813548
 3212              		.cfi_endproc
 3213              	.LFE70:
 3214              		.size	CySysTickSetReload, .-CySysTickSetReload
 3215              		.section	.text.CySysTickGetReload,"ax",%progbits
 3216              		.align	1
 3217              		.global	CySysTickGetReload
 3218              		.thumb
 3219              		.thumb_func
 3220              		.type	CySysTickGetReload, %function
 3221              	CySysTickGetReload:
 3222              	.LFB71:
3029:.\Generated_Source\PSoC5/CyLib.c ****     }
3030:.\Generated_Source\PSoC5/CyLib.c **** 
3031:.\Generated_Source\PSoC5/CyLib.c **** 
3032:.\Generated_Source\PSoC5/CyLib.c ****     /*******************************************************************************
3033:.\Generated_Source\PSoC5/CyLib.c ****     * Function Name: CySysTickGetReload
3034:.\Generated_Source\PSoC5/CyLib.c ****     ********************************************************************************
3035:.\Generated_Source\PSoC5/CyLib.c ****     *
3036:.\Generated_Source\PSoC5/CyLib.c ****     * Summary:
3037:.\Generated_Source\PSoC5/CyLib.c ****     *  Sets value the counter is set to on startup and after it reaches zero.
3038:.\Generated_Source\PSoC5/CyLib.c ****     *
3039:.\Generated_Source\PSoC5/CyLib.c ****     * Parameters:
3040:.\Generated_Source\PSoC5/CyLib.c ****     *  None
3041:.\Generated_Source\PSoC5/CyLib.c ****     *
3042:.\Generated_Source\PSoC5/CyLib.c ****     * Return:
3043:.\Generated_Source\PSoC5/CyLib.c ****     *  Counter reset value
3044:.\Generated_Source\PSoC5/CyLib.c ****     *
3045:.\Generated_Source\PSoC5/CyLib.c ****     *******************************************************************************/
3046:.\Generated_Source\PSoC5/CyLib.c ****     uint32 CySysTickGetReload(void)
3047:.\Generated_Source\PSoC5/CyLib.c ****     {
 3223              		.loc 1 3047 0
 3224              		.cfi_startproc
 3225              		@ args = 0, pretend = 0, frame = 0
 3226              		@ frame_needed = 0, uses_anonymous_args = 0
 3227              		@ link register save eliminated.
3048:.\Generated_Source\PSoC5/CyLib.c ****         return(CY_SYS_SYST_RVR_REG & CY_SYS_SYST_RVR_CNT_MASK);
 3228              		.loc 1 3048 0
 3229 0000 024B     		ldr	r3, .L314
ARM GAS  C:\Users\Yiquing\AppData\Local\Temp\ccsAoMV1.s 			page 116


 3230 0002 1868     		ldr	r0, [r3]
3049:.\Generated_Source\PSoC5/CyLib.c ****     }
 3231              		.loc 1 3049 0
 3232 0004 20F07F40 		bic	r0, r0, #-16777216
 3233 0008 7047     		bx	lr
 3234              	.L315:
 3235 000a 00BF     		.align	2
 3236              	.L314:
 3237 000c 14E000E0 		.word	-536813548
 3238              		.cfi_endproc
 3239              	.LFE71:
 3240              		.size	CySysTickGetReload, .-CySysTickGetReload
 3241              		.section	.text.CySysTickGetValue,"ax",%progbits
 3242              		.align	1
 3243              		.global	CySysTickGetValue
 3244              		.thumb
 3245              		.thumb_func
 3246              		.type	CySysTickGetValue, %function
 3247              	CySysTickGetValue:
 3248              	.LFB72:
3050:.\Generated_Source\PSoC5/CyLib.c **** 
3051:.\Generated_Source\PSoC5/CyLib.c **** 
3052:.\Generated_Source\PSoC5/CyLib.c ****     /*******************************************************************************
3053:.\Generated_Source\PSoC5/CyLib.c ****     * Function Name: CySysTickGetValue
3054:.\Generated_Source\PSoC5/CyLib.c ****     ********************************************************************************
3055:.\Generated_Source\PSoC5/CyLib.c ****     *
3056:.\Generated_Source\PSoC5/CyLib.c ****     * Summary:
3057:.\Generated_Source\PSoC5/CyLib.c ****     *  Gets current SysTick counter value.
3058:.\Generated_Source\PSoC5/CyLib.c ****     *
3059:.\Generated_Source\PSoC5/CyLib.c ****     * Parameters:
3060:.\Generated_Source\PSoC5/CyLib.c ****     *  None
3061:.\Generated_Source\PSoC5/CyLib.c ****     *
3062:.\Generated_Source\PSoC5/CyLib.c ****     * Return:
3063:.\Generated_Source\PSoC5/CyLib.c ****     *  Current SysTick counter value
3064:.\Generated_Source\PSoC5/CyLib.c ****     *
3065:.\Generated_Source\PSoC5/CyLib.c ****     *******************************************************************************/
3066:.\Generated_Source\PSoC5/CyLib.c ****     uint32 CySysTickGetValue(void)
3067:.\Generated_Source\PSoC5/CyLib.c ****     {
 3249              		.loc 1 3067 0
 3250              		.cfi_startproc
 3251              		@ args = 0, pretend = 0, frame = 0
 3252              		@ frame_needed = 0, uses_anonymous_args = 0
 3253              		@ link register save eliminated.
3068:.\Generated_Source\PSoC5/CyLib.c ****         return(CY_SYS_SYST_CVR_REG & CY_SYS_SYST_CVR_CNT_MASK);
 3254              		.loc 1 3068 0
 3255 0000 024B     		ldr	r3, .L317
 3256 0002 1868     		ldr	r0, [r3]
3069:.\Generated_Source\PSoC5/CyLib.c ****     }
 3257              		.loc 1 3069 0
 3258 0004 20F07F40 		bic	r0, r0, #-16777216
 3259 0008 7047     		bx	lr
 3260              	.L318:
 3261 000a 00BF     		.align	2
 3262              	.L317:
 3263 000c 18E000E0 		.word	-536813544
 3264              		.cfi_endproc
 3265              	.LFE72:
ARM GAS  C:\Users\Yiquing\AppData\Local\Temp\ccsAoMV1.s 			page 117


 3266              		.size	CySysTickGetValue, .-CySysTickGetValue
 3267              		.section	.text.CySysTickSetClockSource,"ax",%progbits
 3268              		.align	1
 3269              		.global	CySysTickSetClockSource
 3270              		.thumb
 3271              		.thumb_func
 3272              		.type	CySysTickSetClockSource, %function
 3273              	CySysTickSetClockSource:
 3274              	.LFB73:
3070:.\Generated_Source\PSoC5/CyLib.c **** 
3071:.\Generated_Source\PSoC5/CyLib.c **** 
3072:.\Generated_Source\PSoC5/CyLib.c ****     /*******************************************************************************
3073:.\Generated_Source\PSoC5/CyLib.c ****     * Function Name: CySysTickSetClockSource
3074:.\Generated_Source\PSoC5/CyLib.c ****     ********************************************************************************
3075:.\Generated_Source\PSoC5/CyLib.c ****     *
3076:.\Generated_Source\PSoC5/CyLib.c ****     * Summary:
3077:.\Generated_Source\PSoC5/CyLib.c ****     *  Sets the clock source for the SysTick counter.
3078:.\Generated_Source\PSoC5/CyLib.c ****     *
3079:.\Generated_Source\PSoC5/CyLib.c ****     * Parameters:
3080:.\Generated_Source\PSoC5/CyLib.c ****     *  clockSource: Clock source for SysTick counter
3081:.\Generated_Source\PSoC5/CyLib.c ****     *         Define                     Clock Source
3082:.\Generated_Source\PSoC5/CyLib.c ****     *   CY_SYS_SYST_CSR_CLK_SRC_SYSCLK     SysTick is clocked by CPU clock.
3083:.\Generated_Source\PSoC5/CyLib.c ****     *   CY_SYS_SYST_CSR_CLK_SRC_LFCLK      SysTick is clocked by the low frequency
3084:.\Generated_Source\PSoC5/CyLib.c ****     *                                      clock (ILO 100 KHz for PSoC 5LP, and
3085:.\Generated_Source\PSoC5/CyLib.c ****     *                                      LFCLK for PSoC 4).
3086:.\Generated_Source\PSoC5/CyLib.c ****     *
3087:.\Generated_Source\PSoC5/CyLib.c ****     * Return:
3088:.\Generated_Source\PSoC5/CyLib.c ****     *  None
3089:.\Generated_Source\PSoC5/CyLib.c ****     *
3090:.\Generated_Source\PSoC5/CyLib.c ****     * Side Effects:
3091:.\Generated_Source\PSoC5/CyLib.c ****     *  Clears SysTick count flag if it was set. If clock source is not ready this
3092:.\Generated_Source\PSoC5/CyLib.c ****     *  function call will have no effect. After changing clock source to the low
3093:.\Generated_Source\PSoC5/CyLib.c ****     *  frequency clock the counter and reload register values will remain unchanged
3094:.\Generated_Source\PSoC5/CyLib.c ****     *  so time to the interrupt will be significantly bigger and vice versa.
3095:.\Generated_Source\PSoC5/CyLib.c ****     *
3096:.\Generated_Source\PSoC5/CyLib.c ****     *******************************************************************************/
3097:.\Generated_Source\PSoC5/CyLib.c ****     void CySysTickSetClockSource(uint32 clockSource)
3098:.\Generated_Source\PSoC5/CyLib.c ****     {
 3275              		.loc 1 3098 0
 3276              		.cfi_startproc
 3277              		@ args = 0, pretend = 0, frame = 0
 3278              		@ frame_needed = 0, uses_anonymous_args = 0
 3279              		@ link register save eliminated.
 3280              	.LVL197:
 3281 0000 044B     		ldr	r3, .L323
3099:.\Generated_Source\PSoC5/CyLib.c ****         if (clockSource == CY_SYS_SYST_CSR_CLK_SRC_SYSCLK)
 3282              		.loc 1 3099 0
 3283 0002 0128     		cmp	r0, #1
3100:.\Generated_Source\PSoC5/CyLib.c ****         {
3101:.\Generated_Source\PSoC5/CyLib.c ****             CY_SYS_SYST_CSR_REG |= (uint32)(CY_SYS_SYST_CSR_CLK_SRC_SYSCLK << CY_SYS_SYST_CSR_CLK_S
 3284              		.loc 1 3101 0
 3285 0004 1A68     		ldr	r2, [r3]
 3286 0006 0CBF     		ite	eq
 3287 0008 42F00402 		orreq	r2, r2, #4
3102:.\Generated_Source\PSoC5/CyLib.c ****         }
3103:.\Generated_Source\PSoC5/CyLib.c ****         else
3104:.\Generated_Source\PSoC5/CyLib.c ****         {
ARM GAS  C:\Users\Yiquing\AppData\Local\Temp\ccsAoMV1.s 			page 118


3105:.\Generated_Source\PSoC5/CyLib.c ****             CY_SYS_SYST_CSR_REG &= ((uint32) ~((uint32)(CY_SYS_SYST_CSR_CLK_SRC_SYSCLK << CY_SYS_SY
 3288              		.loc 1 3105 0
 3289 000c 22F00402 		bicne	r2, r2, #4
 3290 0010 1A60     		str	r2, [r3]
 3291 0012 7047     		bx	lr
 3292              	.L324:
 3293              		.align	2
 3294              	.L323:
 3295 0014 10E000E0 		.word	-536813552
 3296              		.cfi_endproc
 3297              	.LFE73:
 3298              		.size	CySysTickSetClockSource, .-CySysTickSetClockSource
 3299              		.section	.text.CySysTickInit,"ax",%progbits
 3300              		.align	1
 3301              		.global	CySysTickInit
 3302              		.thumb
 3303              		.thumb_func
 3304              		.type	CySysTickInit, %function
 3305              	CySysTickInit:
 3306              	.LFB65:
2901:.\Generated_Source\PSoC5/CyLib.c ****     {
 3307              		.loc 1 2901 0
 3308              		.cfi_startproc
 3309              		@ args = 0, pretend = 0, frame = 0
 3310              		@ frame_needed = 0, uses_anonymous_args = 0
 3311              	.LVL198:
2906:.\Generated_Source\PSoC5/CyLib.c ****             CySysTickCallbacks[i] = (void *) 0;
 3312              		.loc 1 2906 0
 3313 0000 0E4B     		ldr	r3, .L326
2901:.\Generated_Source\PSoC5/CyLib.c ****     {
 3314              		.loc 1 2901 0
 3315 0002 10B5     		push	{r4, lr}
 3316              		.cfi_def_cfa_offset 8
 3317              		.cfi_offset 4, -8
 3318              		.cfi_offset 14, -4
2909:.\Generated_Source\PSoC5/CyLib.c ****         (void) CyIntSetSysVector(CY_INT_SYSTICK_IRQN, &CySysTickServiceCallbacks);
 3319              		.loc 1 2909 0
 3320 0004 0E49     		ldr	r1, .L326+4
2906:.\Generated_Source\PSoC5/CyLib.c ****             CySysTickCallbacks[i] = (void *) 0;
 3321              		.loc 1 2906 0
 3322 0006 0024     		movs	r4, #0
2909:.\Generated_Source\PSoC5/CyLib.c ****         (void) CyIntSetSysVector(CY_INT_SYSTICK_IRQN, &CySysTickServiceCallbacks);
 3323              		.loc 1 2909 0
 3324 0008 0F20     		movs	r0, #15
2906:.\Generated_Source\PSoC5/CyLib.c ****             CySysTickCallbacks[i] = (void *) 0;
 3325              		.loc 1 2906 0
 3326 000a 5C60     		str	r4, [r3, #4]
 3327              	.LVL199:
 3328 000c 9C60     		str	r4, [r3, #8]
 3329              	.LVL200:
 3330 000e DC60     		str	r4, [r3, #12]
 3331              	.LVL201:
 3332 0010 1C61     		str	r4, [r3, #16]
 3333              	.LVL202:
 3334 0012 5C61     		str	r4, [r3, #20]
 3335              	.LVL203:
2909:.\Generated_Source\PSoC5/CyLib.c ****         (void) CyIntSetSysVector(CY_INT_SYSTICK_IRQN, &CySysTickServiceCallbacks);
ARM GAS  C:\Users\Yiquing\AppData\Local\Temp\ccsAoMV1.s 			page 119


 3336              		.loc 1 2909 0
 3337 0014 FFF7FEFF 		bl	CyIntSetSysVector
 3338              	.LVL204:
2910:.\Generated_Source\PSoC5/CyLib.c ****         CySysTickSetClockSource(CY_SYS_SYST_CSR_CLK_SRC_SYSCLK);
 3339              		.loc 1 2910 0
 3340 0018 0120     		movs	r0, #1
 3341 001a FFF7FEFF 		bl	CySysTickSetClockSource
 3342              	.LVL205:
2911:.\Generated_Source\PSoC5/CyLib.c ****         CySysTickSetReload(cydelay_freq_hz/1000u);
 3343              		.loc 1 2911 0
 3344 001e 094B     		ldr	r3, .L326+8
 3345 0020 DA68     		ldr	r2, [r3, #12]
 3346 0022 4FF47A73 		mov	r3, #1000
 3347 0026 B2FBF3F2 		udiv	r2, r2, r3
 3348              	.LVL206:
 3349              	.LBB22:
 3350              	.LBB23:
3028:.\Generated_Source\PSoC5/CyLib.c ****         CY_SYS_SYST_RVR_REG = (value & CY_SYS_SYST_RVR_CNT_MASK);
 3351              		.loc 1 3028 0
 3352 002a 074B     		ldr	r3, .L326+12
 3353 002c 1A60     		str	r2, [r3]
 3354              	.LBE23:
 3355              	.LBE22:
2913:.\Generated_Source\PSoC5/CyLib.c ****         CyIntEnable(CY_INT_SYSTICK_IRQN);
 3356              		.loc 1 2913 0
 3357 002e 4FF40042 		mov	r2, #32768
 3358              	.LVL207:
 3359              	.LBB24:
 3360              	.LBB25:
3106:.\Generated_Source\PSoC5/CyLib.c ****         }
3107:.\Generated_Source\PSoC5/CyLib.c ****     }
3108:.\Generated_Source\PSoC5/CyLib.c **** 
3109:.\Generated_Source\PSoC5/CyLib.c **** 
3110:.\Generated_Source\PSoC5/CyLib.c ****     /*******************************************************************************
3111:.\Generated_Source\PSoC5/CyLib.c ****     * Function Name: CySysTickGetCountFlag
3112:.\Generated_Source\PSoC5/CyLib.c ****     ********************************************************************************
3113:.\Generated_Source\PSoC5/CyLib.c ****     *
3114:.\Generated_Source\PSoC5/CyLib.c ****     * Summary:
3115:.\Generated_Source\PSoC5/CyLib.c ****     *  The count flag is set once SysTick counter reaches zero.
3116:.\Generated_Source\PSoC5/CyLib.c ****     *   The flag cleared on read.
3117:.\Generated_Source\PSoC5/CyLib.c ****     *
3118:.\Generated_Source\PSoC5/CyLib.c ****     * Parameters:
3119:.\Generated_Source\PSoC5/CyLib.c ****     *  None
3120:.\Generated_Source\PSoC5/CyLib.c ****     *
3121:.\Generated_Source\PSoC5/CyLib.c ****     * Return:
3122:.\Generated_Source\PSoC5/CyLib.c ****     *  Returns non-zero value if flag is set, otherwise zero is returned.
3123:.\Generated_Source\PSoC5/CyLib.c ****     *
3124:.\Generated_Source\PSoC5/CyLib.c ****     *
3125:.\Generated_Source\PSoC5/CyLib.c ****     * Side Effects:
3126:.\Generated_Source\PSoC5/CyLib.c ****     *  Clears SysTick count flag if it was set.
3127:.\Generated_Source\PSoC5/CyLib.c ****     *
3128:.\Generated_Source\PSoC5/CyLib.c ****     *******************************************************************************/
3129:.\Generated_Source\PSoC5/CyLib.c ****     uint32 CySysTickGetCountFlag(void)
3130:.\Generated_Source\PSoC5/CyLib.c ****     {
3131:.\Generated_Source\PSoC5/CyLib.c ****         return ((CY_SYS_SYST_CSR_REG >> CY_SYS_SYST_CSR_COUNTFLAG_SHIFT) & 0x01u);
3132:.\Generated_Source\PSoC5/CyLib.c ****     }
3133:.\Generated_Source\PSoC5/CyLib.c **** 
ARM GAS  C:\Users\Yiquing\AppData\Local\Temp\ccsAoMV1.s 			page 120


3134:.\Generated_Source\PSoC5/CyLib.c **** 
3135:.\Generated_Source\PSoC5/CyLib.c ****     /*******************************************************************************
3136:.\Generated_Source\PSoC5/CyLib.c ****     * Function Name: CySysTickClear
3137:.\Generated_Source\PSoC5/CyLib.c ****     ********************************************************************************
3138:.\Generated_Source\PSoC5/CyLib.c ****     *
3139:.\Generated_Source\PSoC5/CyLib.c ****     * Summary:
3140:.\Generated_Source\PSoC5/CyLib.c ****     *  Clears the SysTick counter for well-defined startup.
3141:.\Generated_Source\PSoC5/CyLib.c ****     *
3142:.\Generated_Source\PSoC5/CyLib.c ****     * Parameters:
3143:.\Generated_Source\PSoC5/CyLib.c ****     *  None
3144:.\Generated_Source\PSoC5/CyLib.c ****     *
3145:.\Generated_Source\PSoC5/CyLib.c ****     * Return:
3146:.\Generated_Source\PSoC5/CyLib.c ****     *  None
3147:.\Generated_Source\PSoC5/CyLib.c ****     *
3148:.\Generated_Source\PSoC5/CyLib.c ****     *******************************************************************************/
3149:.\Generated_Source\PSoC5/CyLib.c ****     void CySysTickClear(void)
3150:.\Generated_Source\PSoC5/CyLib.c ****     {
3151:.\Generated_Source\PSoC5/CyLib.c ****         CY_SYS_SYST_CVR_REG = 0u;
 3361              		.loc 1 3151 0
 3362 0032 5C60     		str	r4, [r3, #4]
 3363              	.LVL208:
 3364              	.LBE25:
 3365              	.LBE24:
2913:.\Generated_Source\PSoC5/CyLib.c ****         CyIntEnable(CY_INT_SYSTICK_IRQN);
 3366              		.loc 1 2913 0
 3367 0034 C3F8EC20 		str	r2, [r3, #236]
 3368 0038 10BD     		pop	{r4, pc}
 3369              	.L327:
 3370 003a 00BF     		.align	2
 3371              	.L326:
 3372 003c 00000000 		.word	.LANCHOR1
 3373 0040 00000000 		.word	CySysTickServiceCallbacks
 3374 0044 00000000 		.word	.LANCHOR0
 3375 0048 14E000E0 		.word	-536813548
 3376              		.cfi_endproc
 3377              	.LFE65:
 3378              		.size	CySysTickInit, .-CySysTickInit
 3379              		.section	.text.CySysTickStart,"ax",%progbits
 3380              		.align	1
 3381              		.global	CySysTickStart
 3382              		.thumb
 3383              		.thumb_func
 3384              		.type	CySysTickStart, %function
 3385              	CySysTickStart:
 3386              	.LFB64:
2865:.\Generated_Source\PSoC5/CyLib.c ****     {
 3387              		.loc 1 2865 0
 3388              		.cfi_startproc
 3389              		@ args = 0, pretend = 0, frame = 0
 3390              		@ frame_needed = 0, uses_anonymous_args = 0
 3391 0000 10B5     		push	{r4, lr}
 3392              		.cfi_def_cfa_offset 8
 3393              		.cfi_offset 4, -8
 3394              		.cfi_offset 14, -4
2866:.\Generated_Source\PSoC5/CyLib.c ****         if (0u == CySysTickInitVar)
 3395              		.loc 1 2866 0
 3396 0002 054C     		ldr	r4, .L330
ARM GAS  C:\Users\Yiquing\AppData\Local\Temp\ccsAoMV1.s 			page 121


 3397 0004 A369     		ldr	r3, [r4, #24]
 3398 0006 1BB9     		cbnz	r3, .L329
2868:.\Generated_Source\PSoC5/CyLib.c ****             CySysTickInit();
 3399              		.loc 1 2868 0
 3400 0008 FFF7FEFF 		bl	CySysTickInit
 3401              	.LVL209:
2869:.\Generated_Source\PSoC5/CyLib.c ****             CySysTickInitVar = 1u;
 3402              		.loc 1 2869 0
 3403 000c 0123     		movs	r3, #1
 3404 000e A361     		str	r3, [r4, #24]
 3405              	.L329:
2873:.\Generated_Source\PSoC5/CyLib.c ****     }
 3406              		.loc 1 2873 0
 3407 0010 BDE81040 		pop	{r4, lr}
2872:.\Generated_Source\PSoC5/CyLib.c ****         CySysTickEnable();
 3408              		.loc 1 2872 0
 3409 0014 FFF7FEBF 		b	CySysTickEnable
 3410              	.LVL210:
 3411              	.L331:
 3412              		.align	2
 3413              	.L330:
 3414 0018 00000000 		.word	.LANCHOR1
 3415              		.cfi_endproc
 3416              	.LFE64:
 3417              		.size	CySysTickStart, .-CySysTickStart
 3418              		.section	.text.CySysTickGetCountFlag,"ax",%progbits
 3419              		.align	1
 3420              		.global	CySysTickGetCountFlag
 3421              		.thumb
 3422              		.thumb_func
 3423              		.type	CySysTickGetCountFlag, %function
 3424              	CySysTickGetCountFlag:
 3425              	.LFB74:
3130:.\Generated_Source\PSoC5/CyLib.c ****     {
 3426              		.loc 1 3130 0
 3427              		.cfi_startproc
 3428              		@ args = 0, pretend = 0, frame = 0
 3429              		@ frame_needed = 0, uses_anonymous_args = 0
 3430              		@ link register save eliminated.
3131:.\Generated_Source\PSoC5/CyLib.c ****         return ((CY_SYS_SYST_CSR_REG >> CY_SYS_SYST_CSR_COUNTFLAG_SHIFT) & 0x01u);
 3431              		.loc 1 3131 0
 3432 0000 024B     		ldr	r3, .L333
 3433 0002 1868     		ldr	r0, [r3]
3132:.\Generated_Source\PSoC5/CyLib.c ****     }
 3434              		.loc 1 3132 0
 3435 0004 C0F30040 		ubfx	r0, r0, #16, #1
 3436 0008 7047     		bx	lr
 3437              	.L334:
 3438 000a 00BF     		.align	2
 3439              	.L333:
 3440 000c 10E000E0 		.word	-536813552
 3441              		.cfi_endproc
 3442              	.LFE74:
 3443              		.size	CySysTickGetCountFlag, .-CySysTickGetCountFlag
 3444              		.section	.text.CySysTickServiceCallbacks,"ax",%progbits
 3445              		.align	1
 3446              		.thumb
ARM GAS  C:\Users\Yiquing\AppData\Local\Temp\ccsAoMV1.s 			page 122


 3447              		.thumb_func
 3448              		.type	CySysTickServiceCallbacks, %function
 3449              	CySysTickServiceCallbacks:
 3450              	.LFB78:
3152:.\Generated_Source\PSoC5/CyLib.c ****     }
3153:.\Generated_Source\PSoC5/CyLib.c **** 
3154:.\Generated_Source\PSoC5/CyLib.c **** 
3155:.\Generated_Source\PSoC5/CyLib.c ****     /*******************************************************************************
3156:.\Generated_Source\PSoC5/CyLib.c ****     * Function Name: CySysTickSetCallback
3157:.\Generated_Source\PSoC5/CyLib.c ****     ********************************************************************************
3158:.\Generated_Source\PSoC5/CyLib.c ****     *
3159:.\Generated_Source\PSoC5/CyLib.c ****     * Summary:
3160:.\Generated_Source\PSoC5/CyLib.c ****     *  This function allows up to five user-defined interrupt service routine
3161:.\Generated_Source\PSoC5/CyLib.c ****     *  functions to be associated with the SysTick interrupt. These are specified
3162:.\Generated_Source\PSoC5/CyLib.c ****     *  through the use of pointers to the function.
3163:.\Generated_Source\PSoC5/CyLib.c ****     *
3164:.\Generated_Source\PSoC5/CyLib.c ****     *  To set a custom callback function without the overhead of the system provided
3165:.\Generated_Source\PSoC5/CyLib.c ****     *  one, use CyIntSetSysVector(CY_INT_SYSTICK_IRQN, cyisraddress <address>),
3166:.\Generated_Source\PSoC5/CyLib.c ****     *  where <address> is address of the custom defined interrupt service routine.
3167:.\Generated_Source\PSoC5/CyLib.c ****     *  Note: a custom callback function overrides the system defined callback
3168:.\Generated_Source\PSoC5/CyLib.c ****     *  functions.
3169:.\Generated_Source\PSoC5/CyLib.c ****     *
3170:.\Generated_Source\PSoC5/CyLib.c ****     * Parameters:
3171:.\Generated_Source\PSoC5/CyLib.c ****     *  number: The number of the callback function addresses to be set. The valid
3172:.\Generated_Source\PSoC5/CyLib.c ****     *          range is from 0 to 4.
3173:.\Generated_Source\PSoC5/CyLib.c ****     *
3174:.\Generated_Source\PSoC5/CyLib.c ****     *  void(*CallbackFunction(void): A pointer to the function that will be
3175:.\Generated_Source\PSoC5/CyLib.c ****     *                                associated with the SysTick ISR for the
3176:.\Generated_Source\PSoC5/CyLib.c ****     *                                specified number.
3177:.\Generated_Source\PSoC5/CyLib.c ****     *
3178:.\Generated_Source\PSoC5/CyLib.c ****     * Return:
3179:.\Generated_Source\PSoC5/CyLib.c ****     *  Returns the address of the previous callback function.
3180:.\Generated_Source\PSoC5/CyLib.c ****     *  The NULL is returned if the specified address in not set.
3181:.\Generated_Source\PSoC5/CyLib.c ****     *
3182:.\Generated_Source\PSoC5/CyLib.c ****     * Side Effects:
3183:.\Generated_Source\PSoC5/CyLib.c ****     *  The registered callback functions will be executed in the interrupt.
3184:.\Generated_Source\PSoC5/CyLib.c ****     *
3185:.\Generated_Source\PSoC5/CyLib.c ****     *******************************************************************************/
3186:.\Generated_Source\PSoC5/CyLib.c ****     cySysTickCallback CySysTickSetCallback(uint32 number, cySysTickCallback function)
3187:.\Generated_Source\PSoC5/CyLib.c ****     {
3188:.\Generated_Source\PSoC5/CyLib.c ****         cySysTickCallback retVal;
3189:.\Generated_Source\PSoC5/CyLib.c **** 
3190:.\Generated_Source\PSoC5/CyLib.c ****         retVal = CySysTickCallbacks[number];
3191:.\Generated_Source\PSoC5/CyLib.c ****         CySysTickCallbacks[number] = function;
3192:.\Generated_Source\PSoC5/CyLib.c ****         return (retVal);
3193:.\Generated_Source\PSoC5/CyLib.c ****     }
3194:.\Generated_Source\PSoC5/CyLib.c **** 
3195:.\Generated_Source\PSoC5/CyLib.c **** 
3196:.\Generated_Source\PSoC5/CyLib.c ****     /*******************************************************************************
3197:.\Generated_Source\PSoC5/CyLib.c ****     * Function Name: CySysTickGetCallback
3198:.\Generated_Source\PSoC5/CyLib.c ****     ********************************************************************************
3199:.\Generated_Source\PSoC5/CyLib.c ****     *
3200:.\Generated_Source\PSoC5/CyLib.c ****     * Summary:
3201:.\Generated_Source\PSoC5/CyLib.c ****     *  The function get the specified callback pointer.
3202:.\Generated_Source\PSoC5/CyLib.c ****     *
3203:.\Generated_Source\PSoC5/CyLib.c ****     * Parameters:
3204:.\Generated_Source\PSoC5/CyLib.c ****     *  number: The number of callback function address to get. The valid
ARM GAS  C:\Users\Yiquing\AppData\Local\Temp\ccsAoMV1.s 			page 123


3205:.\Generated_Source\PSoC5/CyLib.c ****     *          range is from 0 to 4.
3206:.\Generated_Source\PSoC5/CyLib.c ****     *
3207:.\Generated_Source\PSoC5/CyLib.c ****     * Return:
3208:.\Generated_Source\PSoC5/CyLib.c ****     *  Returns the address of the specified callback function.
3209:.\Generated_Source\PSoC5/CyLib.c ****     *  The NULL is returned if the specified address in not initialized.
3210:.\Generated_Source\PSoC5/CyLib.c ****     *
3211:.\Generated_Source\PSoC5/CyLib.c ****     *******************************************************************************/
3212:.\Generated_Source\PSoC5/CyLib.c ****     cySysTickCallback CySysTickGetCallback(uint32 number)
3213:.\Generated_Source\PSoC5/CyLib.c ****     {
3214:.\Generated_Source\PSoC5/CyLib.c ****         return ((cySysTickCallback) CySysTickCallbacks[number]);
3215:.\Generated_Source\PSoC5/CyLib.c ****     }
3216:.\Generated_Source\PSoC5/CyLib.c **** 
3217:.\Generated_Source\PSoC5/CyLib.c **** 
3218:.\Generated_Source\PSoC5/CyLib.c ****     /*******************************************************************************
3219:.\Generated_Source\PSoC5/CyLib.c ****     * Function Name: CySysTickServiceCallbacks
3220:.\Generated_Source\PSoC5/CyLib.c ****     ********************************************************************************
3221:.\Generated_Source\PSoC5/CyLib.c ****     *
3222:.\Generated_Source\PSoC5/CyLib.c ****     * Summary:
3223:.\Generated_Source\PSoC5/CyLib.c ****     *  System Tick timer interrupt routine
3224:.\Generated_Source\PSoC5/CyLib.c ****     *
3225:.\Generated_Source\PSoC5/CyLib.c ****     * Parameters:
3226:.\Generated_Source\PSoC5/CyLib.c ****     *  None
3227:.\Generated_Source\PSoC5/CyLib.c ****     *
3228:.\Generated_Source\PSoC5/CyLib.c ****     * Return:
3229:.\Generated_Source\PSoC5/CyLib.c ****     *  None
3230:.\Generated_Source\PSoC5/CyLib.c ****     *
3231:.\Generated_Source\PSoC5/CyLib.c ****     *******************************************************************************/
3232:.\Generated_Source\PSoC5/CyLib.c ****     static void CySysTickServiceCallbacks(void)
3233:.\Generated_Source\PSoC5/CyLib.c ****     {
 3451              		.loc 1 3233 0
 3452              		.cfi_startproc
 3453              		@ args = 0, pretend = 0, frame = 0
 3454              		@ frame_needed = 0, uses_anonymous_args = 0
 3455 0000 10B5     		push	{r4, lr}
 3456              		.cfi_def_cfa_offset 8
 3457              		.cfi_offset 4, -8
 3458              		.cfi_offset 14, -4
3234:.\Generated_Source\PSoC5/CyLib.c ****         uint32 i;
3235:.\Generated_Source\PSoC5/CyLib.c **** 
3236:.\Generated_Source\PSoC5/CyLib.c ****         /* Verify that tick timer flag was set */
3237:.\Generated_Source\PSoC5/CyLib.c ****         if (1u == CySysTickGetCountFlag())
 3459              		.loc 1 3237 0
 3460 0002 FFF7FEFF 		bl	CySysTickGetCountFlag
 3461              	.LVL211:
 3462 0006 0128     		cmp	r0, #1
 3463 0008 07D1     		bne	.L335
 3464 000a 0024     		movs	r4, #0
 3465              	.L339:
 3466              	.LBB28:
3238:.\Generated_Source\PSoC5/CyLib.c ****         {
3239:.\Generated_Source\PSoC5/CyLib.c ****             for (i=0u; i < CY_SYS_SYST_NUM_OF_CALLBACKS; i++)
3240:.\Generated_Source\PSoC5/CyLib.c ****             {
3241:.\Generated_Source\PSoC5/CyLib.c ****                 if (CySysTickCallbacks[i] != (void *) 0)
 3467              		.loc 1 3241 0
 3468 000c 034B     		ldr	r3, .L346
 3469 000e E358     		ldr	r3, [r4, r3]
 3470 0010 03B1     		cbz	r3, .L337
ARM GAS  C:\Users\Yiquing\AppData\Local\Temp\ccsAoMV1.s 			page 124


3242:.\Generated_Source\PSoC5/CyLib.c ****                 {
3243:.\Generated_Source\PSoC5/CyLib.c ****                     (void)(CySysTickCallbacks[i])();
 3471              		.loc 1 3243 0
 3472 0012 9847     		blx	r3
 3473              	.LVL212:
 3474              	.L337:
 3475 0014 0434     		adds	r4, r4, #4
3239:.\Generated_Source\PSoC5/CyLib.c ****             for (i=0u; i < CY_SYS_SYST_NUM_OF_CALLBACKS; i++)
 3476              		.loc 1 3239 0
 3477 0016 142C     		cmp	r4, #20
 3478 0018 F8D1     		bne	.L339
 3479              	.L335:
 3480 001a 10BD     		pop	{r4, pc}
 3481              	.L347:
 3482              		.align	2
 3483              	.L346:
 3484 001c 04000000 		.word	.LANCHOR1+4
 3485              	.LBE28:
 3486              		.cfi_endproc
 3487              	.LFE78:
 3488              		.size	CySysTickServiceCallbacks, .-CySysTickServiceCallbacks
 3489              		.section	.text.CySysTickClear,"ax",%progbits
 3490              		.align	1
 3491              		.global	CySysTickClear
 3492              		.thumb
 3493              		.thumb_func
 3494              		.type	CySysTickClear, %function
 3495              	CySysTickClear:
 3496              	.LFB75:
3150:.\Generated_Source\PSoC5/CyLib.c ****     {
 3497              		.loc 1 3150 0
 3498              		.cfi_startproc
 3499              		@ args = 0, pretend = 0, frame = 0
 3500              		@ frame_needed = 0, uses_anonymous_args = 0
 3501              		@ link register save eliminated.
3151:.\Generated_Source\PSoC5/CyLib.c ****         CY_SYS_SYST_CVR_REG = 0u;
 3502              		.loc 1 3151 0
 3503 0000 014B     		ldr	r3, .L349
 3504 0002 0022     		movs	r2, #0
 3505 0004 1A60     		str	r2, [r3]
 3506 0006 7047     		bx	lr
 3507              	.L350:
 3508              		.align	2
 3509              	.L349:
 3510 0008 18E000E0 		.word	-536813544
 3511              		.cfi_endproc
 3512              	.LFE75:
 3513              		.size	CySysTickClear, .-CySysTickClear
 3514              		.section	.text.CySysTickSetCallback,"ax",%progbits
 3515              		.align	1
 3516              		.global	CySysTickSetCallback
 3517              		.thumb
 3518              		.thumb_func
 3519              		.type	CySysTickSetCallback, %function
 3520              	CySysTickSetCallback:
 3521              	.LFB76:
3187:.\Generated_Source\PSoC5/CyLib.c ****     {
ARM GAS  C:\Users\Yiquing\AppData\Local\Temp\ccsAoMV1.s 			page 125


 3522              		.loc 1 3187 0
 3523              		.cfi_startproc
 3524              		@ args = 0, pretend = 0, frame = 0
 3525              		@ frame_needed = 0, uses_anonymous_args = 0
 3526              		@ link register save eliminated.
 3527              	.LVL213:
3190:.\Generated_Source\PSoC5/CyLib.c ****         retVal = CySysTickCallbacks[number];
 3528              		.loc 1 3190 0
 3529 0000 024B     		ldr	r3, .L352
 3530 0002 03EB8003 		add	r3, r3, r0, lsl #2
 3531 0006 5868     		ldr	r0, [r3, #4]
 3532              	.LVL214:
3191:.\Generated_Source\PSoC5/CyLib.c ****         CySysTickCallbacks[number] = function;
 3533              		.loc 1 3191 0
 3534 0008 5960     		str	r1, [r3, #4]
3193:.\Generated_Source\PSoC5/CyLib.c ****     }
 3535              		.loc 1 3193 0
 3536 000a 7047     		bx	lr
 3537              	.L353:
 3538              		.align	2
 3539              	.L352:
 3540 000c 00000000 		.word	.LANCHOR1
 3541              		.cfi_endproc
 3542              	.LFE76:
 3543              		.size	CySysTickSetCallback, .-CySysTickSetCallback
 3544              		.section	.text.CySysTickGetCallback,"ax",%progbits
 3545              		.align	1
 3546              		.global	CySysTickGetCallback
 3547              		.thumb
 3548              		.thumb_func
 3549              		.type	CySysTickGetCallback, %function
 3550              	CySysTickGetCallback:
 3551              	.LFB77:
3213:.\Generated_Source\PSoC5/CyLib.c ****     {
 3552              		.loc 1 3213 0
 3553              		.cfi_startproc
 3554              		@ args = 0, pretend = 0, frame = 0
 3555              		@ frame_needed = 0, uses_anonymous_args = 0
 3556              		@ link register save eliminated.
 3557              	.LVL215:
3214:.\Generated_Source\PSoC5/CyLib.c ****         return ((cySysTickCallback) CySysTickCallbacks[number]);
 3558              		.loc 1 3214 0
 3559 0000 024B     		ldr	r3, .L355
 3560 0002 03EB8000 		add	r0, r3, r0, lsl #2
 3561              	.LVL216:
3215:.\Generated_Source\PSoC5/CyLib.c ****     }
 3562              		.loc 1 3215 0
 3563 0006 4068     		ldr	r0, [r0, #4]
 3564 0008 7047     		bx	lr
 3565              	.L356:
 3566 000a 00BF     		.align	2
 3567              	.L355:
 3568 000c 00000000 		.word	.LANCHOR1
 3569              		.cfi_endproc
 3570              	.LFE77:
 3571              		.size	CySysTickGetCallback, .-CySysTickGetCallback
 3572              		.section	.text.CyGetUniqueId,"ax",%progbits
ARM GAS  C:\Users\Yiquing\AppData\Local\Temp\ccsAoMV1.s 			page 126


 3573              		.align	1
 3574              		.global	CyGetUniqueId
 3575              		.thumb
 3576              		.thumb_func
 3577              		.type	CyGetUniqueId, %function
 3578              	CyGetUniqueId:
 3579              	.LFB79:
3244:.\Generated_Source\PSoC5/CyLib.c ****                 }
3245:.\Generated_Source\PSoC5/CyLib.c ****             }
3246:.\Generated_Source\PSoC5/CyLib.c ****         }
3247:.\Generated_Source\PSoC5/CyLib.c ****     }
3248:.\Generated_Source\PSoC5/CyLib.c **** #endif /* (CY_PSOC5) */
3249:.\Generated_Source\PSoC5/CyLib.c **** 
3250:.\Generated_Source\PSoC5/CyLib.c **** 
3251:.\Generated_Source\PSoC5/CyLib.c **** /*******************************************************************************
3252:.\Generated_Source\PSoC5/CyLib.c **** * Function Name: CyGetUniqueId
3253:.\Generated_Source\PSoC5/CyLib.c **** ********************************************************************************
3254:.\Generated_Source\PSoC5/CyLib.c **** *
3255:.\Generated_Source\PSoC5/CyLib.c **** * Summary:
3256:.\Generated_Source\PSoC5/CyLib.c **** *  Returns the 64-bit unique ID of the device. The uniqueness of the number is
3257:.\Generated_Source\PSoC5/CyLib.c **** *  guaranteed for 10 years due to the die lot number having a cycle life of 10
3258:.\Generated_Source\PSoC5/CyLib.c **** *  years and even after 10 years, the probability of getting two identical
3259:.\Generated_Source\PSoC5/CyLib.c **** *  numbers is very small.
3260:.\Generated_Source\PSoC5/CyLib.c **** *
3261:.\Generated_Source\PSoC5/CyLib.c **** * Parameters:
3262:.\Generated_Source\PSoC5/CyLib.c **** *  uniqueId: The pointer to a two element 32-bit unsigned integer array. Returns
3263:.\Generated_Source\PSoC5/CyLib.c **** *  the 64-bit unique ID of the device by loading them into the integer array
3264:.\Generated_Source\PSoC5/CyLib.c **** *  pointed to by uniqueId.
3265:.\Generated_Source\PSoC5/CyLib.c **** *
3266:.\Generated_Source\PSoC5/CyLib.c **** * Return:
3267:.\Generated_Source\PSoC5/CyLib.c **** *  None
3268:.\Generated_Source\PSoC5/CyLib.c **** *
3269:.\Generated_Source\PSoC5/CyLib.c **** *******************************************************************************/
3270:.\Generated_Source\PSoC5/CyLib.c **** void CyGetUniqueId(uint32* uniqueId)
3271:.\Generated_Source\PSoC5/CyLib.c **** {
 3580              		.loc 1 3271 0
 3581              		.cfi_startproc
 3582              		@ args = 0, pretend = 0, frame = 0
 3583              		@ frame_needed = 0, uses_anonymous_args = 0
 3584              		@ link register save eliminated.
 3585              	.LVL217:
3272:.\Generated_Source\PSoC5/CyLib.c **** #if(CY_PSOC4)
3273:.\Generated_Source\PSoC5/CyLib.c ****     uniqueId[0u]  =  (uint32)(* (reg8 *) CYREG_SFLASH_DIE_LOT0  );
3274:.\Generated_Source\PSoC5/CyLib.c ****     uniqueId[0u] |= ((uint32)(* (reg8 *) CYREG_SFLASH_DIE_LOT1  ) <<  8u);
3275:.\Generated_Source\PSoC5/CyLib.c ****     uniqueId[0u] |= ((uint32)(* (reg8 *) CYREG_SFLASH_DIE_LOT2  ) << 16u);
3276:.\Generated_Source\PSoC5/CyLib.c ****     uniqueId[0u] |= ((uint32)(* (reg8 *) CYREG_SFLASH_DIE_WAFER ) << 24u);
3277:.\Generated_Source\PSoC5/CyLib.c **** 
3278:.\Generated_Source\PSoC5/CyLib.c ****     uniqueId[1u]  =  (uint32)(* (reg8 *) CYREG_SFLASH_DIE_X     );
3279:.\Generated_Source\PSoC5/CyLib.c ****     uniqueId[1u] |= ((uint32)(* (reg8 *) CYREG_SFLASH_DIE_Y     ) <<  8u);
3280:.\Generated_Source\PSoC5/CyLib.c ****     uniqueId[1u] |= ((uint32)(* (reg8 *) CYREG_SFLASH_DIE_SORT  ) << 16u);
3281:.\Generated_Source\PSoC5/CyLib.c ****     uniqueId[1u] |= ((uint32)(* (reg8 *) CYREG_SFLASH_DIE_MINOR ) << 24u);
3282:.\Generated_Source\PSoC5/CyLib.c **** #else
3283:.\Generated_Source\PSoC5/CyLib.c ****     uniqueId[0u]  =  (uint32) CY_GET_XTND_REG8((void CYFAR *) (CYREG_FLSHID_CUST_TABLES_LOT_LSB   )
 3586              		.loc 1 3283 0
 3587 0000 134B     		ldr	r3, .L358
3284:.\Generated_Source\PSoC5/CyLib.c ****     uniqueId[0u] |= ((uint32) CY_GET_XTND_REG8((void CYFAR *) (CYREG_FLSHID_CUST_TABLES_LOT_MSB   )
 3588              		.loc 1 3284 0
ARM GAS  C:\Users\Yiquing\AppData\Local\Temp\ccsAoMV1.s 			page 127


 3589 0002 144A     		ldr	r2, .L358+4
3283:.\Generated_Source\PSoC5/CyLib.c ****     uniqueId[0u]  =  (uint32) CY_GET_XTND_REG8((void CYFAR *) (CYREG_FLSHID_CUST_TABLES_LOT_LSB   )
 3590              		.loc 1 3283 0
 3591 0004 1B78     		ldrb	r3, [r3]	@ zero_extendqisi2
 3592 0006 DBB2     		uxtb	r3, r3
 3593 0008 0360     		str	r3, [r0]
 3594              		.loc 1 3284 0
 3595 000a 1278     		ldrb	r2, [r2]	@ zero_extendqisi2
 3596 000c 43EA0223 		orr	r3, r3, r2, lsl #8
3285:.\Generated_Source\PSoC5/CyLib.c ****     uniqueId[0u] |= ((uint32) CY_GET_XTND_REG8((void CYFAR *) (CYREG_MLOGIC_REV_ID                )
 3597              		.loc 1 3285 0
 3598 0010 114A     		ldr	r2, .L358+8
3284:.\Generated_Source\PSoC5/CyLib.c ****     uniqueId[0u] |= ((uint32) CY_GET_XTND_REG8((void CYFAR *) (CYREG_FLSHID_CUST_TABLES_LOT_MSB   )
 3599              		.loc 1 3284 0
 3600 0012 0360     		str	r3, [r0]
 3601              		.loc 1 3285 0
 3602 0014 1278     		ldrb	r2, [r2]	@ zero_extendqisi2
 3603 0016 43EA0243 		orr	r3, r3, r2, lsl #16
3286:.\Generated_Source\PSoC5/CyLib.c ****     uniqueId[0u] |= ((uint32) CY_GET_XTND_REG8((void CYFAR *) (CYREG_FLSHID_CUST_TABLES_WAFER_NUM )
 3604              		.loc 1 3286 0
 3605 001a 104A     		ldr	r2, .L358+12
3285:.\Generated_Source\PSoC5/CyLib.c ****     uniqueId[0u] |= ((uint32) CY_GET_XTND_REG8((void CYFAR *) (CYREG_MLOGIC_REV_ID                )
 3606              		.loc 1 3285 0
 3607 001c 0360     		str	r3, [r0]
 3608              		.loc 1 3286 0
 3609 001e 1278     		ldrb	r2, [r2]	@ zero_extendqisi2
 3610 0020 43EA0263 		orr	r3, r3, r2, lsl #24
 3611 0024 0360     		str	r3, [r0]
3287:.\Generated_Source\PSoC5/CyLib.c **** 
3288:.\Generated_Source\PSoC5/CyLib.c ****     uniqueId[1u]  =  (uint32) CY_GET_XTND_REG8((void CYFAR *) (CYREG_FLSHID_CUST_TABLES_X_LOC     )
 3612              		.loc 1 3288 0
 3613 0026 0E4B     		ldr	r3, .L358+16
3289:.\Generated_Source\PSoC5/CyLib.c ****     uniqueId[1u] |= ((uint32) CY_GET_XTND_REG8((void CYFAR *) (CYREG_FLSHID_CUST_TABLES_Y_LOC     )
 3614              		.loc 1 3289 0
 3615 0028 0E4A     		ldr	r2, .L358+20
3288:.\Generated_Source\PSoC5/CyLib.c ****     uniqueId[1u]  =  (uint32) CY_GET_XTND_REG8((void CYFAR *) (CYREG_FLSHID_CUST_TABLES_X_LOC     )
 3616              		.loc 1 3288 0
 3617 002a 1B78     		ldrb	r3, [r3]	@ zero_extendqisi2
 3618 002c DBB2     		uxtb	r3, r3
 3619 002e 4360     		str	r3, [r0, #4]
 3620              		.loc 1 3289 0
 3621 0030 1278     		ldrb	r2, [r2]	@ zero_extendqisi2
 3622 0032 43EA0223 		orr	r3, r3, r2, lsl #8
3290:.\Generated_Source\PSoC5/CyLib.c ****     uniqueId[1u] |= ((uint32) CY_GET_XTND_REG8((void CYFAR *) (CYREG_FLSHID_CUST_TABLES_WRK_WK    )
 3623              		.loc 1 3290 0
 3624 0036 0C4A     		ldr	r2, .L358+24
3289:.\Generated_Source\PSoC5/CyLib.c ****     uniqueId[1u] |= ((uint32) CY_GET_XTND_REG8((void CYFAR *) (CYREG_FLSHID_CUST_TABLES_Y_LOC     )
 3625              		.loc 1 3289 0
 3626 0038 4360     		str	r3, [r0, #4]
 3627              		.loc 1 3290 0
 3628 003a 1278     		ldrb	r2, [r2]	@ zero_extendqisi2
 3629 003c 43EA0243 		orr	r3, r3, r2, lsl #16
3291:.\Generated_Source\PSoC5/CyLib.c ****     uniqueId[1u] |= ((uint32) CY_GET_XTND_REG8((void CYFAR *) (CYREG_FLSHID_CUST_TABLES_FAB_YR    )
 3630              		.loc 1 3291 0
 3631 0040 0A4A     		ldr	r2, .L358+28
3290:.\Generated_Source\PSoC5/CyLib.c ****     uniqueId[1u] |= ((uint32) CY_GET_XTND_REG8((void CYFAR *) (CYREG_FLSHID_CUST_TABLES_WRK_WK    )
 3632              		.loc 1 3290 0
ARM GAS  C:\Users\Yiquing\AppData\Local\Temp\ccsAoMV1.s 			page 128


 3633 0042 4360     		str	r3, [r0, #4]
 3634              		.loc 1 3291 0
 3635 0044 1278     		ldrb	r2, [r2]	@ zero_extendqisi2
 3636 0046 43EA0263 		orr	r3, r3, r2, lsl #24
 3637 004a 4360     		str	r3, [r0, #4]
 3638 004c 7047     		bx	lr
 3639              	.L359:
 3640 004e 00BF     		.align	2
 3641              	.L358:
 3642 0050 03010049 		.word	1224737027
 3643 0054 04010049 		.word	1224737028
 3644 0058 EC460040 		.word	1073759980
 3645 005c 02010049 		.word	1224737026
 3646 0060 01010049 		.word	1224737025
 3647 0064 00010049 		.word	1224737024
 3648 0068 05010049 		.word	1224737029
 3649 006c 06010049 		.word	1224737030
 3650              		.cfi_endproc
 3651              	.LFE79:
 3652              		.size	CyGetUniqueId, .-CyGetUniqueId
 3653              		.global	CySysTickInitVar
 3654              		.global	cydelay_32k_ms
 3655              		.global	cydelay_freq_mhz
 3656              		.global	cydelay_freq_khz
 3657              		.global	cydelay_freq_hz
 3658              		.global	CyResetStatus
 3659              		.data
 3660              		.align	2
 3661              		.set	.LANCHOR0,. + 0
 3662              		.type	cydelay_32k_ms, %object
 3663              		.size	cydelay_32k_ms, 4
 3664              	cydelay_32k_ms:
 3665 0000 0000C05D 		.word	1572864000
 3666              		.type	cydelay_freq_khz, %object
 3667              		.size	cydelay_freq_khz, 4
 3668              	cydelay_freq_khz:
 3669 0004 80BB0000 		.word	48000
 3670              		.type	cydelay_freq_mhz, %object
 3671              		.size	cydelay_freq_mhz, 1
 3672              	cydelay_freq_mhz:
 3673 0008 30       		.byte	48
 3674 0009 000000   		.space	3
 3675              		.type	cydelay_freq_hz, %object
 3676              		.size	cydelay_freq_hz, 4
 3677              	cydelay_freq_hz:
 3678 000c 006CDC02 		.word	48000000
 3679              		.section	.noinit,"aw",%progbits
 3680              		.type	CyResetStatus, %object
 3681              		.size	CyResetStatus, 1
 3682              	CyResetStatus:
 3683 0000 00       		.space	1
 3684              		.bss
 3685              		.align	2
 3686              		.set	.LANCHOR1,. + 0
 3687              		.type	interruptStatus.5077, %object
 3688              		.size	interruptStatus.5077, 1
 3689              	interruptStatus.5077:
ARM GAS  C:\Users\Yiquing\AppData\Local\Temp\ccsAoMV1.s 			page 129


 3690 0000 00       		.space	1
 3691 0001 000000   		.space	3
 3692              		.type	CySysTickCallbacks, %object
 3693              		.size	CySysTickCallbacks, 20
 3694              	CySysTickCallbacks:
 3695 0004 00000000 		.space	20
 3695      00000000 
 3695      00000000 
 3695      00000000 
 3695      00000000 
 3696              		.type	CySysTickInitVar, %object
 3697              		.size	CySysTickInitVar, 4
 3698              	CySysTickInitVar:
 3699 0018 00000000 		.space	4
 3700              		.text
 3701              	.Letext0:
 3702              		.file 2 ".\\Generated_Source\\PSoC5\\cytypes.h"
 3703              		.file 3 ".\\Generated_Source\\PSoC5\\CyLib.h"
 3704              		.file 4 ".\\Generated_Source\\PSoC5\\cyPm.h"
 3705              		.section	.debug_info,"",%progbits
 3706              	.Ldebug_info0:
 3707 0000 C2120000 		.4byte	0x12c2
 3708 0004 0400     		.2byte	0x4
 3709 0006 00000000 		.4byte	.Ldebug_abbrev0
 3710 000a 04       		.byte	0x4
 3711 000b 01       		.uleb128 0x1
 3712 000c 35030000 		.4byte	.LASF161
 3713 0010 01       		.byte	0x1
 3714 0011 C7070000 		.4byte	.LASF162
 3715 0015 FA040000 		.4byte	.LASF163
 3716 0019 00000000 		.4byte	.Ldebug_ranges0+0
 3717 001d 00000000 		.4byte	0
 3718 0021 00000000 		.4byte	.Ldebug_line0
 3719 0025 02       		.uleb128 0x2
 3720 0026 04       		.byte	0x4
 3721 0027 05       		.byte	0x5
 3722 0028 696E7400 		.ascii	"int\000"
 3723 002c 03       		.uleb128 0x3
 3724 002d 04       		.byte	0x4
 3725 002e 07       		.byte	0x7
 3726 002f EE000000 		.4byte	.LASF0
 3727 0033 03       		.uleb128 0x3
 3728 0034 01       		.byte	0x1
 3729 0035 06       		.byte	0x6
 3730 0036 85090000 		.4byte	.LASF1
 3731 003a 03       		.uleb128 0x3
 3732 003b 01       		.byte	0x1
 3733 003c 08       		.byte	0x8
 3734 003d 87080000 		.4byte	.LASF2
 3735 0041 03       		.uleb128 0x3
 3736 0042 02       		.byte	0x2
 3737 0043 05       		.byte	0x5
 3738 0044 32070000 		.4byte	.LASF3
 3739 0048 03       		.uleb128 0x3
 3740 0049 02       		.byte	0x2
 3741 004a 07       		.byte	0x7
 3742 004b 91090000 		.4byte	.LASF4
ARM GAS  C:\Users\Yiquing\AppData\Local\Temp\ccsAoMV1.s 			page 130


 3743 004f 03       		.uleb128 0x3
 3744 0050 04       		.byte	0x4
 3745 0051 05       		.byte	0x5
 3746 0052 44070000 		.4byte	.LASF5
 3747 0056 03       		.uleb128 0x3
 3748 0057 04       		.byte	0x4
 3749 0058 07       		.byte	0x7
 3750 0059 18080000 		.4byte	.LASF6
 3751 005d 03       		.uleb128 0x3
 3752 005e 08       		.byte	0x8
 3753 005f 05       		.byte	0x5
 3754 0060 6B050000 		.4byte	.LASF7
 3755 0064 03       		.uleb128 0x3
 3756 0065 08       		.byte	0x8
 3757 0066 07       		.byte	0x7
 3758 0067 93020000 		.4byte	.LASF8
 3759 006b 03       		.uleb128 0x3
 3760 006c 04       		.byte	0x4
 3761 006d 07       		.byte	0x7
 3762 006e 0F080000 		.4byte	.LASF9
 3763 0072 04       		.uleb128 0x4
 3764 0073 04       		.byte	0x4
 3765 0074 78000000 		.4byte	0x78
 3766 0078 05       		.uleb128 0x5
 3767 0079 03       		.uleb128 0x3
 3768 007a 01       		.byte	0x1
 3769 007b 08       		.byte	0x8
 3770 007c 60040000 		.4byte	.LASF10
 3771 0080 06       		.uleb128 0x6
 3772 0081 E2090000 		.4byte	.LASF11
 3773 0085 02       		.byte	0x2
 3774 0086 B3       		.byte	0xb3
 3775 0087 3A000000 		.4byte	0x3a
 3776 008b 06       		.uleb128 0x6
 3777 008c B1040000 		.4byte	.LASF12
 3778 0090 02       		.byte	0x2
 3779 0091 B4       		.byte	0xb4
 3780 0092 48000000 		.4byte	0x48
 3781 0096 06       		.uleb128 0x6
 3782 0097 19060000 		.4byte	.LASF13
 3783 009b 02       		.byte	0x2
 3784 009c B5       		.byte	0xb5
 3785 009d 56000000 		.4byte	0x56
 3786 00a1 03       		.uleb128 0x3
 3787 00a2 04       		.byte	0x4
 3788 00a3 04       		.byte	0x4
 3789 00a4 30020000 		.4byte	.LASF14
 3790 00a8 03       		.uleb128 0x3
 3791 00a9 08       		.byte	0x8
 3792 00aa 04       		.byte	0x4
 3793 00ab E8090000 		.4byte	.LASF15
 3794 00af 07       		.uleb128 0x7
 3795 00b0 6A080000 		.4byte	.LASF16
 3796 00b4 02       		.byte	0x2
 3797 00b5 5501     		.2byte	0x155
 3798 00b7 56000000 		.4byte	0x56
 3799 00bb 07       		.uleb128 0x7
ARM GAS  C:\Users\Yiquing\AppData\Local\Temp\ccsAoMV1.s 			page 131


 3800 00bc 3B010000 		.4byte	.LASF17
 3801 00c0 02       		.byte	0x2
 3802 00c1 5D01     		.2byte	0x15d
 3803 00c3 C7000000 		.4byte	0xc7
 3804 00c7 08       		.uleb128 0x8
 3805 00c8 80000000 		.4byte	0x80
 3806 00cc 07       		.uleb128 0x7
 3807 00cd 79050000 		.4byte	.LASF18
 3808 00d1 02       		.byte	0x2
 3809 00d2 5E01     		.2byte	0x15e
 3810 00d4 D8000000 		.4byte	0xd8
 3811 00d8 08       		.uleb128 0x8
 3812 00d9 8B000000 		.4byte	0x8b
 3813 00dd 07       		.uleb128 0x7
 3814 00de EE060000 		.4byte	.LASF19
 3815 00e2 02       		.byte	0x2
 3816 00e3 5F01     		.2byte	0x15f
 3817 00e5 E9000000 		.4byte	0xe9
 3818 00e9 08       		.uleb128 0x8
 3819 00ea 96000000 		.4byte	0x96
 3820 00ee 07       		.uleb128 0x7
 3821 00ef F5050000 		.4byte	.LASF20
 3822 00f3 02       		.byte	0x2
 3823 00f4 6F01     		.2byte	0x16f
 3824 00f6 72000000 		.4byte	0x72
 3825 00fa 06       		.uleb128 0x6
 3826 00fb 4E040000 		.4byte	.LASF21
 3827 00ff 03       		.byte	0x3
 3828 0100 AD       		.byte	0xad
 3829 0101 72000000 		.4byte	0x72
 3830 0105 09       		.uleb128 0x9
 3831 0106 36020000 		.4byte	.LASF22
 3832 010a 01       		.byte	0x1
 3833 010b 1103     		.2byte	0x311
 3834 010d 01       		.byte	0x1
 3835 010e 1F010000 		.4byte	0x11f
 3836 0112 0A       		.uleb128 0xa
 3837 0113 3C070000 		.4byte	.LASF24
 3838 0117 01       		.byte	0x1
 3839 0118 1103     		.2byte	0x311
 3840 011a 80000000 		.4byte	0x80
 3841 011e 00       		.byte	0
 3842 011f 0B       		.uleb128 0xb
 3843 0120 5B060000 		.4byte	.LASF157
 3844 0124 01       		.byte	0x1
 3845 0125 E604     		.2byte	0x4e6
 3846 0127 80000000 		.4byte	0x80
 3847 012b 01       		.byte	0x1
 3848 012c 0C       		.uleb128 0xc
 3849 012d 41060000 		.4byte	.LASF164
 3850 0131 01       		.byte	0x1
 3851 0132 A00C     		.2byte	0xca0
 3852 0134 01       		.byte	0x1
 3853 0135 44010000 		.4byte	0x144
 3854 0139 0D       		.uleb128 0xd
 3855 013a 6900     		.ascii	"i\000"
 3856 013c 01       		.byte	0x1
ARM GAS  C:\Users\Yiquing\AppData\Local\Temp\ccsAoMV1.s 			page 132


 3857 013d A20C     		.2byte	0xca2
 3858 013f 96000000 		.4byte	0x96
 3859 0143 00       		.byte	0
 3860 0144 09       		.uleb128 0x9
 3861 0145 1F070000 		.4byte	.LASF23
 3862 0149 01       		.byte	0x1
 3863 014a D20B     		.2byte	0xbd2
 3864 014c 01       		.byte	0x1
 3865 014d 5E010000 		.4byte	0x15e
 3866 0151 0A       		.uleb128 0xa
 3867 0152 EB020000 		.4byte	.LASF25
 3868 0156 01       		.byte	0x1
 3869 0157 D20B     		.2byte	0xbd2
 3870 0159 96000000 		.4byte	0x96
 3871 015d 00       		.byte	0
 3872 015e 0E       		.uleb128 0xe
 3873 015f 0F000000 		.4byte	.LASF165
 3874 0163 01       		.byte	0x1
 3875 0164 4D0C     		.2byte	0xc4d
 3876 0166 01       		.byte	0x1
 3877 0167 0F       		.uleb128 0xf
 3878 0168 16040000 		.4byte	.LASF166
 3879 016c 01       		.byte	0x1
 3880 016d 7401     		.2byte	0x174
 3881 016f 80000000 		.4byte	0x80
 3882 0173 01       		.byte	0x1
 3883 0174 85010000 		.4byte	0x185
 3884 0178 10       		.uleb128 0x10
 3885 0179 B8040000 		.4byte	.LASF26
 3886 017d 01       		.byte	0x1
 3887 017e 7601     		.2byte	0x176
 3888 0180 80000000 		.4byte	0x80
 3889 0184 00       		.byte	0
 3890 0185 11       		.uleb128 0x11
 3891 0186 37000000 		.4byte	.LASF27
 3892 018a 01       		.byte	0x1
 3893 018b 9301     		.2byte	0x193
 3894 018d 00000000 		.4byte	.LFB7
 3895 0191 B8000000 		.4byte	.LFE7-.LFB7
 3896 0195 01       		.uleb128 0x1
 3897 0196 9C       		.byte	0x9c
 3898 0197 DC010000 		.4byte	0x1dc
 3899 019b 12       		.uleb128 0x12
 3900 019c 11040000 		.4byte	.LASF29
 3901 01a0 01       		.byte	0x1
 3902 01a1 9301     		.2byte	0x193
 3903 01a3 80000000 		.4byte	0x80
 3904 01a7 01       		.uleb128 0x1
 3905 01a8 50       		.byte	0x50
 3906 01a9 13       		.uleb128 0x13
 3907 01aa 00070000 		.4byte	.LASF42
 3908 01ae 01       		.byte	0x1
 3909 01af 9501     		.2byte	0x195
 3910 01b1 80000000 		.4byte	0x80
 3911 01b5 01       		.uleb128 0x1
 3912 01b6 53       		.byte	0x53
 3913 01b7 14       		.uleb128 0x14
ARM GAS  C:\Users\Yiquing\AppData\Local\Temp\ccsAoMV1.s 			page 133


 3914 01b8 67010000 		.4byte	0x167
 3915 01bc 00000000 		.4byte	.LBB14
 3916 01c0 28000000 		.4byte	.LBE14-.LBB14
 3917 01c4 01       		.byte	0x1
 3918 01c5 9501     		.2byte	0x195
 3919 01c7 15       		.uleb128 0x15
 3920 01c8 00000000 		.4byte	.LBB15
 3921 01cc 28000000 		.4byte	.LBE15-.LBB15
 3922 01d0 16       		.uleb128 0x16
 3923 01d1 78010000 		.4byte	0x178
 3924 01d5 00000000 		.4byte	.LLST0
 3925 01d9 00       		.byte	0
 3926 01da 00       		.byte	0
 3927 01db 00       		.byte	0
 3928 01dc 11       		.uleb128 0x11
 3929 01dd F1020000 		.4byte	.LASF28
 3930 01e1 01       		.byte	0x1
 3931 01e2 2703     		.2byte	0x327
 3932 01e4 00000000 		.4byte	.LFB14
 3933 01e8 3C000000 		.4byte	.LFE14-.LFB14
 3934 01ec 01       		.uleb128 0x1
 3935 01ed 9C       		.byte	0x9c
 3936 01ee 03020000 		.4byte	0x203
 3937 01f2 17       		.uleb128 0x17
 3938 01f3 3C070000 		.4byte	.LASF24
 3939 01f7 01       		.byte	0x1
 3940 01f8 2703     		.2byte	0x327
 3941 01fa 8B000000 		.4byte	0x8b
 3942 01fe 20000000 		.4byte	.LLST1
 3943 0202 00       		.byte	0
 3944 0203 18       		.uleb128 0x18
 3945 0204 4D020000 		.4byte	.LASF36
 3946 0208 01       		.byte	0x1
 3947 0209 9F       		.byte	0x9f
 3948 020a 00000000 		.4byte	.LFB1
 3949 020e 10000000 		.4byte	.LFE1-.LFB1
 3950 0212 01       		.uleb128 0x1
 3951 0213 9C       		.byte	0x9c
 3952 0214 19       		.uleb128 0x19
 3953 0215 A7000000 		.4byte	.LASF33
 3954 0219 01       		.byte	0x1
 3955 021a C5       		.byte	0xc5
 3956 021b 00000000 		.4byte	.LFB2
 3957 021f 34000000 		.4byte	.LFE2-.LFB2
 3958 0223 01       		.uleb128 0x1
 3959 0224 9C       		.byte	0x9c
 3960 0225 55020000 		.4byte	0x255
 3961 0229 1A       		.uleb128 0x1a
 3962 022a A2010000 		.4byte	.LASF30
 3963 022e 01       		.byte	0x1
 3964 022f C5       		.byte	0xc5
 3965 0230 80000000 		.4byte	0x80
 3966 0234 01       		.uleb128 0x1
 3967 0235 50       		.byte	0x50
 3968 0236 1B       		.uleb128 0x1b
 3969 0237 E8070000 		.4byte	.LASF31
 3970 023b 01       		.byte	0x1
ARM GAS  C:\Users\Yiquing\AppData\Local\Temp\ccsAoMV1.s 			page 134


 3971 023c C5       		.byte	0xc5
 3972 023d 80000000 		.4byte	0x80
 3973 0241 41000000 		.4byte	.LLST2
 3974 0245 1B       		.uleb128 0x1b
 3975 0246 CA090000 		.4byte	.LASF32
 3976 024a 01       		.byte	0x1
 3977 024b C5       		.byte	0xc5
 3978 024c 80000000 		.4byte	0x80
 3979 0250 62000000 		.4byte	.LLST3
 3980 0254 00       		.byte	0
 3981 0255 19       		.uleb128 0x19
 3982 0256 0B070000 		.4byte	.LASF34
 3983 025a 01       		.byte	0x1
 3984 025b FC       		.byte	0xfc
 3985 025c 00000000 		.4byte	.LFB3
 3986 0260 14000000 		.4byte	.LFE3-.LFB3
 3987 0264 01       		.uleb128 0x1
 3988 0265 9C       		.byte	0x9c
 3989 0266 7A020000 		.4byte	0x27a
 3990 026a 1B       		.uleb128 0x1b
 3991 026b F3070000 		.4byte	.LASF35
 3992 026f 01       		.byte	0x1
 3993 0270 FC       		.byte	0xfc
 3994 0271 80000000 		.4byte	0x80
 3995 0275 83000000 		.4byte	.LLST4
 3996 0279 00       		.byte	0
 3997 027a 1C       		.uleb128 0x1c
 3998 027b 2A030000 		.4byte	.LASF37
 3999 027f 01       		.byte	0x1
 4000 0280 5F01     		.2byte	0x15f
 4001 0282 00000000 		.4byte	.LFB5
 4002 0286 18000000 		.4byte	.LFE5-.LFB5
 4003 028a 01       		.uleb128 0x1
 4004 028b 9C       		.byte	0x9c
 4005 028c 1D       		.uleb128 0x1d
 4006 028d B1090000 		.4byte	.LASF38
 4007 0291 01       		.byte	0x1
 4008 0292 8D02     		.2byte	0x28d
 4009 0294 00000000 		.4byte	.LFB9
 4010 0298 40000000 		.4byte	.LFE9-.LFB9
 4011 029c 01       		.uleb128 0x1
 4012 029d 9C       		.byte	0x9c
 4013 029e B1020000 		.4byte	0x2b1
 4014 02a2 12       		.uleb128 0x12
 4015 02a3 F3070000 		.4byte	.LASF35
 4016 02a7 01       		.byte	0x1
 4017 02a8 8D02     		.2byte	0x28d
 4018 02aa 80000000 		.4byte	0x80
 4019 02ae 01       		.uleb128 0x1
 4020 02af 50       		.byte	0x50
 4021 02b0 00       		.byte	0
 4022 02b1 1C       		.uleb128 0x1c
 4023 02b2 8E010000 		.4byte	.LASF39
 4024 02b6 01       		.byte	0x1
 4025 02b7 B602     		.2byte	0x2b6
 4026 02b9 00000000 		.4byte	.LFB10
 4027 02bd 10000000 		.4byte	.LFE10-.LFB10
ARM GAS  C:\Users\Yiquing\AppData\Local\Temp\ccsAoMV1.s 			page 135


 4028 02c1 01       		.uleb128 0x1
 4029 02c2 9C       		.byte	0x9c
 4030 02c3 1C       		.uleb128 0x1c
 4031 02c4 D9000000 		.4byte	.LASF40
 4032 02c8 01       		.byte	0x1
 4033 02c9 CB02     		.2byte	0x2cb
 4034 02cb 00000000 		.4byte	.LFB11
 4035 02cf 10000000 		.4byte	.LFE11-.LFB11
 4036 02d3 01       		.uleb128 0x1
 4037 02d4 9C       		.byte	0x9c
 4038 02d5 1D       		.uleb128 0x1d
 4039 02d6 0E020000 		.4byte	.LASF41
 4040 02da 01       		.byte	0x1
 4041 02db F201     		.2byte	0x1f2
 4042 02dd 00000000 		.4byte	.LFB8
 4043 02e1 D8000000 		.4byte	.LFE8-.LFB8
 4044 02e5 01       		.uleb128 0x1
 4045 02e6 9C       		.byte	0x9c
 4046 02e7 4B030000 		.4byte	0x34b
 4047 02eb 17       		.uleb128 0x17
 4048 02ec 11040000 		.4byte	.LASF29
 4049 02f0 01       		.byte	0x1
 4050 02f1 F201     		.2byte	0x1f2
 4051 02f3 80000000 		.4byte	0x80
 4052 02f7 A4000000 		.4byte	.LLST5
 4053 02fb 1E       		.uleb128 0x1e
 4054 02fc EA030000 		.4byte	.LASF43
 4055 0300 01       		.byte	0x1
 4056 0301 F401     		.2byte	0x1f4
 4057 0303 80000000 		.4byte	0x80
 4058 0307 C5000000 		.4byte	.LLST6
 4059 030b 1E       		.uleb128 0x1e
 4060 030c 6F020000 		.4byte	.LASF44
 4061 0310 01       		.byte	0x1
 4062 0311 F501     		.2byte	0x1f5
 4063 0313 80000000 		.4byte	0x80
 4064 0317 EF000000 		.4byte	.LLST7
 4065 031b 1F       		.uleb128 0x1f
 4066 031c 34000000 		.4byte	.LVL19
 4067 0320 85010000 		.4byte	0x185
 4068 0324 2F030000 		.4byte	0x32f
 4069 0328 20       		.uleb128 0x20
 4070 0329 01       		.uleb128 0x1
 4071 032a 50       		.byte	0x50
 4072 032b 02       		.uleb128 0x2
 4073 032c 75       		.byte	0x75
 4074 032d 00       		.sleb128 0
 4075 032e 00       		.byte	0
 4076 032f 21       		.uleb128 0x21
 4077 0330 BE000000 		.4byte	.LVL20
 4078 0334 B1020000 		.4byte	0x2b1
 4079 0338 21       		.uleb128 0x21
 4080 0339 C4000000 		.4byte	.LVL21
 4081 033d C3020000 		.4byte	0x2c3
 4082 0341 22       		.uleb128 0x22
 4083 0342 D2000000 		.4byte	.LVL23
 4084 0346 85010000 		.4byte	0x185
ARM GAS  C:\Users\Yiquing\AppData\Local\Temp\ccsAoMV1.s 			page 136


 4085 034a 00       		.byte	0
 4086 034b 1D       		.uleb128 0x1d
 4087 034c AD060000 		.4byte	.LASF45
 4088 0350 01       		.byte	0x1
 4089 0351 EE02     		.2byte	0x2ee
 4090 0353 00000000 		.4byte	.LFB12
 4091 0357 18000000 		.4byte	.LFE12-.LFB12
 4092 035b 01       		.uleb128 0x1
 4093 035c 9C       		.byte	0x9c
 4094 035d 72030000 		.4byte	0x372
 4095 0361 17       		.uleb128 0x17
 4096 0362 F3070000 		.4byte	.LASF35
 4097 0366 01       		.byte	0x1
 4098 0367 EE02     		.2byte	0x2ee
 4099 0369 80000000 		.4byte	0x80
 4100 036d 24010000 		.4byte	.LLST8
 4101 0371 00       		.byte	0
 4102 0372 23       		.uleb128 0x23
 4103 0373 05010000 		.4byte	0x105
 4104 0377 00000000 		.4byte	.LFB13
 4105 037b 0C000000 		.4byte	.LFE13-.LFB13
 4106 037f 01       		.uleb128 0x1
 4107 0380 9C       		.byte	0x9c
 4108 0381 8D030000 		.4byte	0x38d
 4109 0385 24       		.uleb128 0x24
 4110 0386 12010000 		.4byte	0x112
 4111 038a 01       		.uleb128 0x1
 4112 038b 50       		.byte	0x50
 4113 038c 00       		.byte	0
 4114 038d 1D       		.uleb128 0x1d
 4115 038e 73080000 		.4byte	.LASF46
 4116 0392 01       		.byte	0x1
 4117 0393 5603     		.2byte	0x356
 4118 0395 00000000 		.4byte	.LFB15
 4119 0399 70000000 		.4byte	.LFE15-.LFB15
 4120 039d 01       		.uleb128 0x1
 4121 039e 9C       		.byte	0x9c
 4122 039f 6E040000 		.4byte	0x46e
 4123 03a3 17       		.uleb128 0x17
 4124 03a4 3C070000 		.4byte	.LASF24
 4125 03a8 01       		.byte	0x1
 4126 03a9 5603     		.2byte	0x356
 4127 03ab 8B000000 		.4byte	0x8b
 4128 03af 45010000 		.4byte	.LLST9
 4129 03b3 1E       		.uleb128 0x1e
 4130 03b4 FB000000 		.4byte	.LASF47
 4131 03b8 01       		.byte	0x1
 4132 03b9 5803     		.2byte	0x358
 4133 03bb 80000000 		.4byte	0x80
 4134 03bf 66010000 		.4byte	.LLST10
 4135 03c3 1E       		.uleb128 0x1e
 4136 03c4 E0030000 		.4byte	.LASF48
 4137 03c8 01       		.byte	0x1
 4138 03c9 5903     		.2byte	0x359
 4139 03cb 8B000000 		.4byte	0x8b
 4140 03cf 79010000 		.4byte	.LLST11
 4141 03d3 1E       		.uleb128 0x1e
ARM GAS  C:\Users\Yiquing\AppData\Local\Temp\ccsAoMV1.s 			page 137


 4142 03d4 2C010000 		.4byte	.LASF49
 4143 03d8 01       		.byte	0x1
 4144 03d9 5A03     		.2byte	0x35a
 4145 03db 80000000 		.4byte	0x80
 4146 03df AB010000 		.4byte	.LLST12
 4147 03e3 25       		.uleb128 0x25
 4148 03e4 05010000 		.4byte	0x105
 4149 03e8 28000000 		.4byte	.LBB16
 4150 03ec 06000000 		.4byte	.LBE16-.LBB16
 4151 03f0 01       		.byte	0x1
 4152 03f1 6A03     		.2byte	0x36a
 4153 03f3 01040000 		.4byte	0x401
 4154 03f7 26       		.uleb128 0x26
 4155 03f8 12010000 		.4byte	0x112
 4156 03fc 00020000 		.4byte	.LLST13
 4157 0400 00       		.byte	0
 4158 0401 25       		.uleb128 0x25
 4159 0402 05010000 		.4byte	0x105
 4160 0406 4E000000 		.4byte	.LBB18
 4161 040a 06000000 		.4byte	.LBE18-.LBB18
 4162 040e 01       		.byte	0x1
 4163 040f 7A03     		.2byte	0x37a
 4164 0411 1F040000 		.4byte	0x41f
 4165 0415 26       		.uleb128 0x26
 4166 0416 12010000 		.4byte	0x112
 4167 041a 14020000 		.4byte	.LLST14
 4168 041e 00       		.byte	0
 4169 041f 21       		.uleb128 0x21
 4170 0420 08000000 		.4byte	.LVL29
 4171 0424 76120000 		.4byte	0x1276
 4172 0428 1F       		.uleb128 0x1f
 4173 0429 3E000000 		.4byte	.LVL37
 4174 042d DC010000 		.4byte	0x1dc
 4175 0431 3C040000 		.4byte	0x43c
 4176 0435 20       		.uleb128 0x20
 4177 0436 01       		.uleb128 0x1
 4178 0437 50       		.byte	0x50
 4179 0438 02       		.uleb128 0x2
 4180 0439 74       		.byte	0x74
 4181 043a 00       		.sleb128 0
 4182 043b 00       		.byte	0
 4183 043c 1F       		.uleb128 0x1f
 4184 043d 46000000 		.4byte	.LVL40
 4185 0441 DC010000 		.4byte	0x1dc
 4186 0445 50040000 		.4byte	0x450
 4187 0449 20       		.uleb128 0x20
 4188 044a 01       		.uleb128 0x1
 4189 044b 50       		.byte	0x50
 4190 044c 02       		.uleb128 0x2
 4191 044d 74       		.byte	0x74
 4192 044e 00       		.sleb128 0
 4193 044f 00       		.byte	0
 4194 0450 1F       		.uleb128 0x1f
 4195 0451 5A000000 		.4byte	.LVL44
 4196 0455 DC010000 		.4byte	0x1dc
 4197 0459 64040000 		.4byte	0x464
 4198 045d 20       		.uleb128 0x20
ARM GAS  C:\Users\Yiquing\AppData\Local\Temp\ccsAoMV1.s 			page 138


 4199 045e 01       		.uleb128 0x1
 4200 045f 50       		.byte	0x50
 4201 0460 02       		.uleb128 0x2
 4202 0461 74       		.byte	0x74
 4203 0462 00       		.sleb128 0
 4204 0463 00       		.byte	0
 4205 0464 22       		.uleb128 0x22
 4206 0465 64000000 		.4byte	.LVL46
 4207 0469 81120000 		.4byte	0x1281
 4208 046d 00       		.byte	0
 4209 046e 1D       		.uleb128 0x1d
 4210 046f D7080000 		.4byte	.LASF50
 4211 0473 01       		.byte	0x1
 4212 0474 BA03     		.2byte	0x3ba
 4213 0476 00000000 		.4byte	.LFB16
 4214 047a 18000000 		.4byte	.LFE16-.LFB16
 4215 047e 01       		.uleb128 0x1
 4216 047f 9C       		.byte	0x9c
 4217 0480 95040000 		.4byte	0x495
 4218 0484 17       		.uleb128 0x17
 4219 0485 F3070000 		.4byte	.LASF35
 4220 0489 01       		.byte	0x1
 4221 048a BA03     		.2byte	0x3ba
 4222 048c 80000000 		.4byte	0x80
 4223 0490 27020000 		.4byte	.LLST15
 4224 0494 00       		.byte	0
 4225 0495 1C       		.uleb128 0x1c
 4226 0496 03040000 		.4byte	.LASF51
 4227 049a 01       		.byte	0x1
 4228 049b D303     		.2byte	0x3d3
 4229 049d 00000000 		.4byte	.LFB17
 4230 04a1 10000000 		.4byte	.LFE17-.LFB17
 4231 04a5 01       		.uleb128 0x1
 4232 04a6 9C       		.byte	0x9c
 4233 04a7 1C       		.uleb128 0x1c
 4234 04a8 58010000 		.4byte	.LASF52
 4235 04ac 01       		.byte	0x1
 4236 04ad EF03     		.2byte	0x3ef
 4237 04af 00000000 		.4byte	.LFB18
 4238 04b3 10000000 		.4byte	.LFE18-.LFB18
 4239 04b7 01       		.uleb128 0x1
 4240 04b8 9C       		.byte	0x9c
 4241 04b9 1C       		.uleb128 0x1c
 4242 04ba C3060000 		.4byte	.LASF53
 4243 04be 01       		.byte	0x1
 4244 04bf 0404     		.2byte	0x404
 4245 04c1 00000000 		.4byte	.LFB19
 4246 04c5 10000000 		.4byte	.LFE19-.LFB19
 4247 04c9 01       		.uleb128 0x1
 4248 04ca 9C       		.byte	0x9c
 4249 04cb 1C       		.uleb128 0x1c
 4250 04cc 26090000 		.4byte	.LASF54
 4251 04d0 01       		.byte	0x1
 4252 04d1 1804     		.2byte	0x418
 4253 04d3 00000000 		.4byte	.LFB20
 4254 04d7 10000000 		.4byte	.LFE20-.LFB20
 4255 04db 01       		.uleb128 0x1
ARM GAS  C:\Users\Yiquing\AppData\Local\Temp\ccsAoMV1.s 			page 139


 4256 04dc 9C       		.byte	0x9c
 4257 04dd 27       		.uleb128 0x27
 4258 04de 89040000 		.4byte	.LASF67
 4259 04e2 01       		.byte	0x1
 4260 04e3 5F       		.byte	0x5f
 4261 04e4 AF000000 		.4byte	0xaf
 4262 04e8 00000000 		.4byte	.LFB0
 4263 04ec 7C000000 		.4byte	.LFE0-.LFB0
 4264 04f0 01       		.uleb128 0x1
 4265 04f1 9C       		.byte	0x9c
 4266 04f2 71050000 		.4byte	0x571
 4267 04f6 1B       		.uleb128 0x1b
 4268 04f7 96060000 		.4byte	.LASF55
 4269 04fb 01       		.byte	0x1
 4270 04fc 5F       		.byte	0x5f
 4271 04fd 80000000 		.4byte	0x80
 4272 0501 48020000 		.4byte	.LLST16
 4273 0505 28       		.uleb128 0x28
 4274 0506 D1040000 		.4byte	.LASF56
 4275 050a 01       		.byte	0x1
 4276 050b 61       		.byte	0x61
 4277 050c AF000000 		.4byte	0xaf
 4278 0510 82020000 		.4byte	.LLST17
 4279 0514 28       		.uleb128 0x28
 4280 0515 EF090000 		.4byte	.LASF57
 4281 0519 01       		.byte	0x1
 4282 051a 63       		.byte	0x63
 4283 051b 80000000 		.4byte	0x80
 4284 051f CF020000 		.4byte	.LLST18
 4285 0523 28       		.uleb128 0x28
 4286 0524 E7050000 		.4byte	.LASF58
 4287 0528 01       		.byte	0x1
 4288 0529 64       		.byte	0x64
 4289 052a 80000000 		.4byte	0x80
 4290 052e E2020000 		.4byte	.LLST19
 4291 0532 28       		.uleb128 0x28
 4292 0533 A5070000 		.4byte	.LASF59
 4293 0537 01       		.byte	0x1
 4294 0538 65       		.byte	0x65
 4295 0539 80000000 		.4byte	0x80
 4296 053d F5020000 		.4byte	.LLST20
 4297 0541 1F       		.uleb128 0x1f
 4298 0542 22000000 		.4byte	.LVL51
 4299 0546 92120000 		.4byte	0x1292
 4300 054a 54050000 		.4byte	0x554
 4301 054e 20       		.uleb128 0x20
 4302 054f 01       		.uleb128 0x1
 4303 0550 50       		.byte	0x50
 4304 0551 01       		.uleb128 0x1
 4305 0552 48       		.byte	0x48
 4306 0553 00       		.byte	0
 4307 0554 1F       		.uleb128 0x1f
 4308 0555 36000000 		.4byte	.LVL55
 4309 0559 A3120000 		.4byte	0x12a3
 4310 055d 67050000 		.4byte	0x567
 4311 0561 20       		.uleb128 0x20
 4312 0562 01       		.uleb128 0x1
ARM GAS  C:\Users\Yiquing\AppData\Local\Temp\ccsAoMV1.s 			page 140


 4313 0563 50       		.byte	0x50
 4314 0564 01       		.uleb128 0x1
 4315 0565 31       		.byte	0x31
 4316 0566 00       		.byte	0
 4317 0567 21       		.uleb128 0x21
 4318 0568 5A000000 		.4byte	.LVL57
 4319 056c CB040000 		.4byte	0x4cb
 4320 0570 00       		.byte	0
 4321 0571 1D       		.uleb128 0x1d
 4322 0572 A3050000 		.4byte	.LASF60
 4323 0576 01       		.byte	0x1
 4324 0577 2E01     		.2byte	0x12e
 4325 0579 00000000 		.4byte	.LFB4
 4326 057d 5C000000 		.4byte	.LFE4-.LFB4
 4327 0581 01       		.uleb128 0x1
 4328 0582 9C       		.byte	0x9c
 4329 0583 F7050000 		.4byte	0x5f7
 4330 0587 17       		.uleb128 0x17
 4331 0588 96060000 		.4byte	.LASF55
 4332 058c 01       		.byte	0x1
 4333 058d 2E01     		.2byte	0x12e
 4334 058f 80000000 		.4byte	0x80
 4335 0593 08030000 		.4byte	.LLST21
 4336 0597 1E       		.uleb128 0x1e
 4337 0598 120A0000 		.4byte	.LASF61
 4338 059c 01       		.byte	0x1
 4339 059d 3001     		.2byte	0x130
 4340 059f 80000000 		.4byte	0x80
 4341 05a3 29030000 		.4byte	.LLST22
 4342 05a7 1E       		.uleb128 0x1e
 4343 05a8 A4090000 		.4byte	.LASF62
 4344 05ac 01       		.byte	0x1
 4345 05ad 3101     		.2byte	0x131
 4346 05af 80000000 		.4byte	0x80
 4347 05b3 3C030000 		.4byte	.LLST23
 4348 05b7 1E       		.uleb128 0x1e
 4349 05b8 4A080000 		.4byte	.LASF63
 4350 05bc 01       		.byte	0x1
 4351 05bd 3201     		.2byte	0x132
 4352 05bf 80000000 		.4byte	0x80
 4353 05c3 4F030000 		.4byte	.LLST24
 4354 05c7 1F       		.uleb128 0x1f
 4355 05c8 36000000 		.4byte	.LVL66
 4356 05cc 92120000 		.4byte	0x1292
 4357 05d0 DA050000 		.4byte	0x5da
 4358 05d4 20       		.uleb128 0x20
 4359 05d5 01       		.uleb128 0x1
 4360 05d6 50       		.byte	0x50
 4361 05d7 01       		.uleb128 0x1
 4362 05d8 30       		.byte	0x30
 4363 05d9 00       		.byte	0
 4364 05da 1F       		.uleb128 0x1f
 4365 05db 3C000000 		.4byte	.LVL67
 4366 05df A3120000 		.4byte	0x12a3
 4367 05e3 ED050000 		.4byte	0x5ed
 4368 05e7 20       		.uleb128 0x20
 4369 05e8 01       		.uleb128 0x1
ARM GAS  C:\Users\Yiquing\AppData\Local\Temp\ccsAoMV1.s 			page 141


 4370 05e9 50       		.byte	0x50
 4371 05ea 01       		.uleb128 0x1
 4372 05eb 31       		.byte	0x31
 4373 05ec 00       		.byte	0
 4374 05ed 21       		.uleb128 0x21
 4375 05ee 46000000 		.4byte	.LVL68
 4376 05f2 CB040000 		.4byte	0x4cb
 4377 05f6 00       		.byte	0
 4378 05f7 1C       		.uleb128 0x1c
 4379 05f8 D2090000 		.4byte	.LASF64
 4380 05fc 01       		.byte	0x1
 4381 05fd 2F04     		.2byte	0x42f
 4382 05ff 00000000 		.4byte	.LFB21
 4383 0603 10000000 		.4byte	.LFE21-.LFB21
 4384 0607 01       		.uleb128 0x1
 4385 0608 9C       		.byte	0x9c
 4386 0609 1C       		.uleb128 0x1c
 4387 060a 96000000 		.4byte	.LASF65
 4388 060e 01       		.byte	0x1
 4389 060f 4704     		.2byte	0x447
 4390 0611 00000000 		.4byte	.LFB22
 4391 0615 10000000 		.4byte	.LFE22-.LFB22
 4392 0619 01       		.uleb128 0x1
 4393 061a 9C       		.byte	0x9c
 4394 061b 1D       		.uleb128 0x1d
 4395 061c 5B050000 		.4byte	.LASF66
 4396 0620 01       		.byte	0x1
 4397 0621 5F04     		.2byte	0x45f
 4398 0623 00000000 		.4byte	.LFB23
 4399 0627 16000000 		.4byte	.LFE23-.LFB23
 4400 062b 01       		.uleb128 0x1
 4401 062c 9C       		.byte	0x9c
 4402 062d 42060000 		.4byte	0x642
 4403 0631 17       		.uleb128 0x17
 4404 0632 F3070000 		.4byte	.LASF35
 4405 0636 01       		.byte	0x1
 4406 0637 5F04     		.2byte	0x45f
 4407 0639 80000000 		.4byte	0x80
 4408 063d 62030000 		.4byte	.LLST25
 4409 0641 00       		.byte	0
 4410 0642 29       		.uleb128 0x29
 4411 0643 AF050000 		.4byte	.LASF68
 4412 0647 01       		.byte	0x1
 4413 0648 7704     		.2byte	0x477
 4414 064a 80000000 		.4byte	0x80
 4415 064e 00000000 		.4byte	.LFB24
 4416 0652 20000000 		.4byte	.LFE24-.LFB24
 4417 0656 01       		.uleb128 0x1
 4418 0657 9C       		.byte	0x9c
 4419 0658 7B060000 		.4byte	0x67b
 4420 065c 17       		.uleb128 0x17
 4421 065d 78010000 		.4byte	.LASF69
 4422 0661 01       		.byte	0x1
 4423 0662 7704     		.2byte	0x477
 4424 0664 80000000 		.4byte	0x80
 4425 0668 83030000 		.4byte	.LLST26
 4426 066c 13       		.uleb128 0x13
ARM GAS  C:\Users\Yiquing\AppData\Local\Temp\ccsAoMV1.s 			page 142


 4427 066d 03090000 		.4byte	.LASF70
 4428 0671 01       		.byte	0x1
 4429 0672 7904     		.2byte	0x479
 4430 0674 80000000 		.4byte	0x80
 4431 0678 01       		.uleb128 0x1
 4432 0679 53       		.byte	0x53
 4433 067a 00       		.byte	0
 4434 067b 1C       		.uleb128 0x1c
 4435 067c 9B060000 		.4byte	.LASF71
 4436 0680 01       		.byte	0x1
 4437 0681 C704     		.2byte	0x4c7
 4438 0683 00000000 		.4byte	.LFB26
 4439 0687 2C000000 		.4byte	.LFE26-.LFB26
 4440 068b 01       		.uleb128 0x1
 4441 068c 9C       		.byte	0x9c
 4442 068d 2A       		.uleb128 0x2a
 4443 068e 1F010000 		.4byte	0x11f
 4444 0692 00000000 		.4byte	.LFB27
 4445 0696 10000000 		.4byte	.LFE27-.LFB27
 4446 069a 01       		.uleb128 0x1
 4447 069b 9C       		.byte	0x9c
 4448 069c 29       		.uleb128 0x29
 4449 069d C4020000 		.4byte	.LASF72
 4450 06a1 01       		.byte	0x1
 4451 06a2 4005     		.2byte	0x540
 4452 06a4 AF000000 		.4byte	0xaf
 4453 06a8 00000000 		.4byte	.LFB29
 4454 06ac A4000000 		.4byte	.LFE29-.LFB29
 4455 06b0 01       		.uleb128 0x1
 4456 06b1 9C       		.byte	0x9c
 4457 06b2 54070000 		.4byte	0x754
 4458 06b6 17       		.uleb128 0x17
 4459 06b7 96060000 		.4byte	.LASF55
 4460 06bb 01       		.byte	0x1
 4461 06bc 4005     		.2byte	0x540
 4462 06be 80000000 		.4byte	0x80
 4463 06c2 A4030000 		.4byte	.LLST27
 4464 06c6 1E       		.uleb128 0x1e
 4465 06c7 D1040000 		.4byte	.LASF56
 4466 06cb 01       		.byte	0x1
 4467 06cc 4205     		.2byte	0x542
 4468 06ce AF000000 		.4byte	0xaf
 4469 06d2 DE030000 		.4byte	.LLST28
 4470 06d6 13       		.uleb128 0x13
 4471 06d7 BB080000 		.4byte	.LASF73
 4472 06db 01       		.byte	0x1
 4473 06dc 4305     		.2byte	0x543
 4474 06de C7000000 		.4byte	0xc7
 4475 06e2 02       		.uleb128 0x2
 4476 06e3 91       		.byte	0x91
 4477 06e4 5E       		.sleb128 -34
 4478 06e5 13       		.uleb128 0x13
 4479 06e6 48040000 		.4byte	.LASF74
 4480 06ea 01       		.byte	0x1
 4481 06eb 4405     		.2byte	0x544
 4482 06ed C7000000 		.4byte	0xc7
 4483 06f1 02       		.uleb128 0x2
ARM GAS  C:\Users\Yiquing\AppData\Local\Temp\ccsAoMV1.s 			page 143


 4484 06f2 91       		.byte	0x91
 4485 06f3 5F       		.sleb128 -33
 4486 06f4 1E       		.uleb128 0x1e
 4487 06f5 EF090000 		.4byte	.LASF57
 4488 06f9 01       		.byte	0x1
 4489 06fa 4505     		.2byte	0x545
 4490 06fc 80000000 		.4byte	0x80
 4491 0700 2B040000 		.4byte	.LLST29
 4492 0704 1E       		.uleb128 0x1e
 4493 0705 B7000000 		.4byte	.LASF75
 4494 0709 01       		.byte	0x1
 4495 070a 4605     		.2byte	0x546
 4496 070c 80000000 		.4byte	0x80
 4497 0710 3E040000 		.4byte	.LLST30
 4498 0714 1E       		.uleb128 0x1e
 4499 0715 24020000 		.4byte	.LASF76
 4500 0719 01       		.byte	0x1
 4501 071a 4705     		.2byte	0x547
 4502 071c 80000000 		.4byte	0x80
 4503 0720 51040000 		.4byte	.LLST31
 4504 0724 1F       		.uleb128 0x1f
 4505 0725 2A000000 		.4byte	.LVL77
 4506 0729 92120000 		.4byte	0x1292
 4507 072d 37070000 		.4byte	0x737
 4508 0731 20       		.uleb128 0x20
 4509 0732 01       		.uleb128 0x1
 4510 0733 50       		.byte	0x50
 4511 0734 01       		.uleb128 0x1
 4512 0735 48       		.byte	0x48
 4513 0736 00       		.byte	0
 4514 0737 1F       		.uleb128 0x1f
 4515 0738 54000000 		.4byte	.LVL81
 4516 073c A3120000 		.4byte	0x12a3
 4517 0740 4A070000 		.4byte	0x74a
 4518 0744 20       		.uleb128 0x20
 4519 0745 01       		.uleb128 0x1
 4520 0746 50       		.byte	0x50
 4521 0747 01       		.uleb128 0x1
 4522 0748 31       		.byte	0x31
 4523 0749 00       		.byte	0
 4524 074a 21       		.uleb128 0x21
 4525 074b 82000000 		.4byte	.LVL83
 4526 074f CB040000 		.4byte	0x4cb
 4527 0753 00       		.byte	0
 4528 0754 1C       		.uleb128 0x1c
 4529 0755 CF010000 		.4byte	.LASF77
 4530 0759 01       		.byte	0x1
 4531 075a 9005     		.2byte	0x590
 4532 075c 00000000 		.4byte	.LFB30
 4533 0760 10000000 		.4byte	.LFE30-.LFB30
 4534 0764 01       		.uleb128 0x1
 4535 0765 9C       		.byte	0x9c
 4536 0766 1C       		.uleb128 0x1c
 4537 0767 02060000 		.4byte	.LASF78
 4538 076b 01       		.byte	0x1
 4539 076c A605     		.2byte	0x5a6
 4540 076e 00000000 		.4byte	.LFB31
ARM GAS  C:\Users\Yiquing\AppData\Local\Temp\ccsAoMV1.s 			page 144


 4541 0772 10000000 		.4byte	.LFE31-.LFB31
 4542 0776 01       		.uleb128 0x1
 4543 0777 9C       		.byte	0x9c
 4544 0778 1C       		.uleb128 0x1c
 4545 0779 08010000 		.4byte	.LASF79
 4546 077d 01       		.byte	0x1
 4547 077e BC05     		.2byte	0x5bc
 4548 0780 00000000 		.4byte	.LFB32
 4549 0784 10000000 		.4byte	.LFE32-.LFB32
 4550 0788 01       		.uleb128 0x1
 4551 0789 9C       		.byte	0x9c
 4552 078a 2B       		.uleb128 0x2b
 4553 078b 4A000000 		.4byte	.LASF136
 4554 078f 01       		.byte	0x1
 4555 0790 D405     		.2byte	0x5d4
 4556 0792 80000000 		.4byte	0x80
 4557 0796 00000000 		.4byte	.LFB33
 4558 079a 0C000000 		.4byte	.LFE33-.LFB33
 4559 079e 01       		.uleb128 0x1
 4560 079f 9C       		.byte	0x9c
 4561 07a0 1C       		.uleb128 0x1c
 4562 07a1 35090000 		.4byte	.LASF80
 4563 07a5 01       		.byte	0x1
 4564 07a6 EF05     		.2byte	0x5ef
 4565 07a8 00000000 		.4byte	.LFB34
 4566 07ac 10000000 		.4byte	.LFE34-.LFB34
 4567 07b0 01       		.uleb128 0x1
 4568 07b1 9C       		.byte	0x9c
 4569 07b2 1C       		.uleb128 0x1c
 4570 07b3 E8010000 		.4byte	.LASF81
 4571 07b7 01       		.byte	0x1
 4572 07b8 0506     		.2byte	0x605
 4573 07ba 00000000 		.4byte	.LFB35
 4574 07be 10000000 		.4byte	.LFE35-.LFB35
 4575 07c2 01       		.uleb128 0x1
 4576 07c3 9C       		.byte	0x9c
 4577 07c4 1D       		.uleb128 0x1d
 4578 07c5 46010000 		.4byte	.LASF82
 4579 07c9 01       		.byte	0x1
 4580 07ca 1F06     		.2byte	0x61f
 4581 07cc 00000000 		.4byte	.LFB36
 4582 07d0 18000000 		.4byte	.LFE36-.LFB36
 4583 07d4 01       		.uleb128 0x1
 4584 07d5 9C       		.byte	0x9c
 4585 07d6 EB070000 		.4byte	0x7eb
 4586 07da 17       		.uleb128 0x17
 4587 07db 1C020000 		.4byte	.LASF83
 4588 07df 01       		.byte	0x1
 4589 07e0 1F06     		.2byte	0x61f
 4590 07e2 80000000 		.4byte	0x80
 4591 07e6 64040000 		.4byte	.LLST32
 4592 07ea 00       		.byte	0
 4593 07eb 1D       		.uleb128 0x1d
 4594 07ec 50090000 		.4byte	.LASF84
 4595 07f0 01       		.byte	0x1
 4596 07f1 3706     		.2byte	0x637
 4597 07f3 00000000 		.4byte	.LFB37
ARM GAS  C:\Users\Yiquing\AppData\Local\Temp\ccsAoMV1.s 			page 145


 4598 07f7 18000000 		.4byte	.LFE37-.LFB37
 4599 07fb 01       		.uleb128 0x1
 4600 07fc 9C       		.byte	0x9c
 4601 07fd 12080000 		.4byte	0x812
 4602 0801 17       		.uleb128 0x17
 4603 0802 1C020000 		.4byte	.LASF83
 4604 0806 01       		.byte	0x1
 4605 0807 3706     		.2byte	0x637
 4606 0809 80000000 		.4byte	0x80
 4607 080d 85040000 		.4byte	.LLST33
 4608 0811 00       		.byte	0
 4609 0812 1D       		.uleb128 0x1d
 4610 0813 8F050000 		.4byte	.LASF85
 4611 0817 01       		.byte	0x1
 4612 0818 4E06     		.2byte	0x64e
 4613 081a 00000000 		.4byte	.LFB38
 4614 081e 18000000 		.4byte	.LFE38-.LFB38
 4615 0822 01       		.uleb128 0x1
 4616 0823 9C       		.byte	0x9c
 4617 0824 39080000 		.4byte	0x839
 4618 0828 17       		.uleb128 0x17
 4619 0829 1C020000 		.4byte	.LASF83
 4620 082d 01       		.byte	0x1
 4621 082e 4E06     		.2byte	0x64e
 4622 0830 80000000 		.4byte	0x80
 4623 0834 A6040000 		.4byte	.LLST34
 4624 0838 00       		.byte	0
 4625 0839 1D       		.uleb128 0x1d
 4626 083a D0080000 		.4byte	.LASF86
 4627 083e 01       		.byte	0x1
 4628 083f 6306     		.2byte	0x663
 4629 0841 00000000 		.4byte	.LFB39
 4630 0845 04000000 		.4byte	.LFE39-.LFB39
 4631 0849 01       		.uleb128 0x1
 4632 084a 9C       		.byte	0x9c
 4633 084b 5E080000 		.4byte	0x85e
 4634 084f 12       		.uleb128 0x12
 4635 0850 AA020000 		.4byte	.LASF87
 4636 0854 01       		.byte	0x1
 4637 0855 6306     		.2byte	0x663
 4638 0857 80000000 		.4byte	0x80
 4639 085b 01       		.uleb128 0x1
 4640 085c 50       		.byte	0x50
 4641 085d 00       		.byte	0
 4642 085e 1C       		.uleb128 0x1c
 4643 085f 5A080000 		.4byte	.LASF88
 4644 0863 01       		.byte	0x1
 4645 0864 8206     		.2byte	0x682
 4646 0866 00000000 		.4byte	.LFB40
 4647 086a 10000000 		.4byte	.LFE40-.LFB40
 4648 086e 01       		.uleb128 0x1
 4649 086f 9C       		.byte	0x9c
 4650 0870 1D       		.uleb128 0x1d
 4651 0871 1E000000 		.4byte	.LASF89
 4652 0875 01       		.byte	0x1
 4653 0876 9C06     		.2byte	0x69c
 4654 0878 00000000 		.4byte	.LFB41
ARM GAS  C:\Users\Yiquing\AppData\Local\Temp\ccsAoMV1.s 			page 146


 4655 087c 28000000 		.4byte	.LFE41-.LFB41
 4656 0880 01       		.uleb128 0x1
 4657 0881 9C       		.byte	0x9c
 4658 0882 A9080000 		.4byte	0x8a9
 4659 0886 17       		.uleb128 0x17
 4660 0887 89000000 		.4byte	.LASF90
 4661 088b 01       		.byte	0x1
 4662 088c 9C06     		.2byte	0x69c
 4663 088e 96000000 		.4byte	0x96
 4664 0892 C7040000 		.4byte	.LLST35
 4665 0896 21       		.uleb128 0x21
 4666 0897 12000000 		.4byte	.LVL96
 4667 089b B8120000 		.4byte	0x12b8
 4668 089f 22       		.uleb128 0x22
 4669 08a0 24000000 		.4byte	.LVL99
 4670 08a4 B8120000 		.4byte	0x12b8
 4671 08a8 00       		.byte	0
 4672 08a9 1D       		.uleb128 0x1d
 4673 08aa 89020000 		.4byte	.LASF91
 4674 08ae 01       		.byte	0x1
 4675 08af CD06     		.2byte	0x6cd
 4676 08b1 00000000 		.4byte	.LFB42
 4677 08b5 10000000 		.4byte	.LFE42-.LFB42
 4678 08b9 01       		.uleb128 0x1
 4679 08ba 9C       		.byte	0x9c
 4680 08bb D9080000 		.4byte	0x8d9
 4681 08bf 17       		.uleb128 0x17
 4682 08c0 C3080000 		.4byte	.LASF92
 4683 08c4 01       		.byte	0x1
 4684 08c5 CD06     		.2byte	0x6cd
 4685 08c7 8B000000 		.4byte	0x8b
 4686 08cb E5040000 		.4byte	.LLST36
 4687 08cf 22       		.uleb128 0x22
 4688 08d0 0A000000 		.4byte	.LVL102
 4689 08d4 B8120000 		.4byte	0x12b8
 4690 08d8 00       		.byte	0
 4691 08d9 29       		.uleb128 0x29
 4692 08da D1020000 		.4byte	.LASF93
 4693 08de 01       		.byte	0x1
 4694 08df FE04     		.2byte	0x4fe
 4695 08e1 80000000 		.4byte	0x80
 4696 08e5 00000000 		.4byte	.LFB28
 4697 08e9 6C000000 		.4byte	.LFE28-.LFB28
 4698 08ed 01       		.uleb128 0x1
 4699 08ee 9C       		.byte	0x9c
 4700 08ef 49090000 		.4byte	0x949
 4701 08f3 17       		.uleb128 0x17
 4702 08f4 78010000 		.4byte	.LASF69
 4703 08f8 01       		.byte	0x1
 4704 08f9 FE04     		.2byte	0x4fe
 4705 08fb 80000000 		.4byte	0x80
 4706 08ff 06050000 		.4byte	.LLST37
 4707 0903 1E       		.uleb128 0x1e
 4708 0904 03090000 		.4byte	.LASF70
 4709 0908 01       		.byte	0x1
 4710 0909 0005     		.2byte	0x500
 4711 090b 80000000 		.4byte	0x80
ARM GAS  C:\Users\Yiquing\AppData\Local\Temp\ccsAoMV1.s 			page 147


 4712 090f 4C050000 		.4byte	.LLST38
 4713 0913 1F       		.uleb128 0x1f
 4714 0914 22000000 		.4byte	.LVL106
 4715 0918 A9080000 		.4byte	0x8a9
 4716 091c 26090000 		.4byte	0x926
 4717 0920 20       		.uleb128 0x20
 4718 0921 01       		.uleb128 0x1
 4719 0922 50       		.byte	0x50
 4720 0923 01       		.uleb128 0x1
 4721 0924 3A       		.byte	0x3a
 4722 0925 00       		.byte	0
 4723 0926 1F       		.uleb128 0x1f
 4724 0927 34000000 		.4byte	.LVL107
 4725 092b A9080000 		.4byte	0x8a9
 4726 092f 39090000 		.4byte	0x939
 4727 0933 20       		.uleb128 0x20
 4728 0934 01       		.uleb128 0x1
 4729 0935 50       		.byte	0x50
 4730 0936 01       		.uleb128 0x1
 4731 0937 44       		.byte	0x44
 4732 0938 00       		.byte	0
 4733 0939 2C       		.uleb128 0x2c
 4734 093a 46000000 		.4byte	.LVL110
 4735 093e A9080000 		.4byte	0x8a9
 4736 0942 20       		.uleb128 0x20
 4737 0943 01       		.uleb128 0x1
 4738 0944 50       		.byte	0x50
 4739 0945 01       		.uleb128 0x1
 4740 0946 3A       		.byte	0x3a
 4741 0947 00       		.byte	0
 4742 0948 00       		.byte	0
 4743 0949 1D       		.uleb128 0x1d
 4744 094a B1020000 		.4byte	.LASF94
 4745 094e 01       		.byte	0x1
 4746 094f 9B04     		.2byte	0x49b
 4747 0951 00000000 		.4byte	.LFB25
 4748 0955 68000000 		.4byte	.LFE25-.LFB25
 4749 0959 01       		.uleb128 0x1
 4750 095a 9C       		.byte	0x9c
 4751 095b 9F090000 		.4byte	0x99f
 4752 095f 2D       		.uleb128 0x2d
 4753 0960 6900     		.ascii	"i\000"
 4754 0962 01       		.byte	0x1
 4755 0963 9D04     		.2byte	0x49d
 4756 0965 D8000000 		.4byte	0xd8
 4757 0969 02       		.uleb128 0x2
 4758 096a 91       		.byte	0x91
 4759 096b 76       		.sleb128 -10
 4760 096c 2E       		.uleb128 0x2e
 4761 096d 1F010000 		.4byte	0x11f
 4762 0971 3C000000 		.4byte	.LBB20
 4763 0975 02000000 		.4byte	.LBE20-.LBB20
 4764 0979 01       		.byte	0x1
 4765 097a AD04     		.2byte	0x4ad
 4766 097c 1F       		.uleb128 0x1f
 4767 097d 48000000 		.4byte	.LVL112
 4768 0981 D9080000 		.4byte	0x8d9
ARM GAS  C:\Users\Yiquing\AppData\Local\Temp\ccsAoMV1.s 			page 148


 4769 0985 8F090000 		.4byte	0x98f
 4770 0989 20       		.uleb128 0x20
 4771 098a 01       		.uleb128 0x1
 4772 098b 50       		.byte	0x50
 4773 098c 01       		.uleb128 0x1
 4774 098d 30       		.byte	0x30
 4775 098e 00       		.byte	0
 4776 098f 2C       		.uleb128 0x2c
 4777 0990 50000000 		.4byte	.LVL113
 4778 0994 A9080000 		.4byte	0x8a9
 4779 0998 20       		.uleb128 0x20
 4780 0999 01       		.uleb128 0x1
 4781 099a 50       		.byte	0x50
 4782 099b 01       		.uleb128 0x1
 4783 099c 31       		.byte	0x31
 4784 099d 00       		.byte	0
 4785 099e 00       		.byte	0
 4786 099f 1D       		.uleb128 0x1d
 4787 09a0 4D070000 		.4byte	.LASF95
 4788 09a4 01       		.byte	0x1
 4789 09a5 E306     		.2byte	0x6e3
 4790 09a7 00000000 		.4byte	.LFB43
 4791 09ab 40000000 		.4byte	.LFE43-.LFB43
 4792 09af 01       		.uleb128 0x1
 4793 09b0 9C       		.byte	0x9c
 4794 09b1 C6090000 		.4byte	0x9c6
 4795 09b5 17       		.uleb128 0x17
 4796 09b6 11040000 		.4byte	.LASF29
 4797 09ba 01       		.byte	0x1
 4798 09bb E306     		.2byte	0x6e3
 4799 09bd 96000000 		.4byte	0x96
 4800 09c1 6A050000 		.4byte	.LLST39
 4801 09c5 00       		.byte	0
 4802 09c6 1D       		.uleb128 0x1d
 4803 09c7 8B060000 		.4byte	.LASF96
 4804 09cb 01       		.byte	0x1
 4805 09cc 2207     		.2byte	0x722
 4806 09ce 00000000 		.4byte	.LFB44
 4807 09d2 40000000 		.4byte	.LFE44-.LFB44
 4808 09d6 01       		.uleb128 0x1
 4809 09d7 9C       		.byte	0x9c
 4810 09d8 FD090000 		.4byte	0x9fd
 4811 09dc 17       		.uleb128 0x17
 4812 09dd 40010000 		.4byte	.LASF97
 4813 09e1 01       		.byte	0x1
 4814 09e2 2207     		.2byte	0x722
 4815 09e4 80000000 		.4byte	0x80
 4816 09e8 8B050000 		.4byte	.LLST40
 4817 09ec 17       		.uleb128 0x17
 4818 09ed 25010000 		.4byte	.LASF98
 4819 09f1 01       		.byte	0x1
 4820 09f2 2207     		.2byte	0x722
 4821 09f4 80000000 		.4byte	0x80
 4822 09f8 AC050000 		.4byte	.LLST41
 4823 09fc 00       		.byte	0
 4824 09fd 1C       		.uleb128 0x1c
 4825 09fe 6D000000 		.4byte	.LASF99
ARM GAS  C:\Users\Yiquing\AppData\Local\Temp\ccsAoMV1.s 			page 149


 4826 0a02 01       		.byte	0x1
 4827 0a03 4207     		.2byte	0x742
 4828 0a05 00000000 		.4byte	.LFB45
 4829 0a09 0C000000 		.4byte	.LFE45-.LFB45
 4830 0a0d 01       		.uleb128 0x1
 4831 0a0e 9C       		.byte	0x9c
 4832 0a0f 29       		.uleb128 0x29
 4833 0a10 39080000 		.4byte	.LASF100
 4834 0a14 01       		.byte	0x1
 4835 0a15 9C08     		.2byte	0x89c
 4836 0a17 80000000 		.4byte	0x80
 4837 0a1b 00000000 		.4byte	.LFB52
 4838 0a1f 2C000000 		.4byte	.LFE52-.LFB52
 4839 0a23 01       		.uleb128 0x1
 4840 0a24 9C       		.byte	0x9c
 4841 0a25 7E0A0000 		.4byte	0xa7e
 4842 0a29 17       		.uleb128 0x17
 4843 0a2a 20010000 		.4byte	.LASF101
 4844 0a2e 01       		.byte	0x1
 4845 0a2f 9C08     		.2byte	0x89c
 4846 0a31 80000000 		.4byte	0x80
 4847 0a35 CD050000 		.4byte	.LLST42
 4848 0a39 13       		.uleb128 0x13
 4849 0a3a 29040000 		.4byte	.LASF102
 4850 0a3e 01       		.byte	0x1
 4851 0a3f 9E08     		.2byte	0x89e
 4852 0a41 80000000 		.4byte	0x80
 4853 0a45 05       		.uleb128 0x5
 4854 0a46 03       		.byte	0x3
 4855 0a47 00000000 		.4byte	interruptStatus.5077
 4856 0a4b 1E       		.uleb128 0x1e
 4857 0a4c 2C010000 		.4byte	.LASF49
 4858 0a50 01       		.byte	0x1
 4859 0a51 9F08     		.2byte	0x89f
 4860 0a53 80000000 		.4byte	0x80
 4861 0a57 EE050000 		.4byte	.LLST43
 4862 0a5b 1E       		.uleb128 0x1e
 4863 0a5c 1C090000 		.4byte	.LASF103
 4864 0a60 01       		.byte	0x1
 4865 0a61 A008     		.2byte	0x8a0
 4866 0a63 80000000 		.4byte	0x80
 4867 0a67 01060000 		.4byte	.LLST44
 4868 0a6b 21       		.uleb128 0x21
 4869 0a6c 08000000 		.4byte	.LVL120
 4870 0a70 76120000 		.4byte	0x1276
 4871 0a74 21       		.uleb128 0x21
 4872 0a75 1C000000 		.4byte	.LVL122
 4873 0a79 81120000 		.4byte	0x1281
 4874 0a7d 00       		.byte	0
 4875 0a7e 1D       		.uleb128 0x1d
 4876 0a7f D8040000 		.4byte	.LASF104
 4877 0a83 01       		.byte	0x1
 4878 0a84 7307     		.2byte	0x773
 4879 0a86 00000000 		.4byte	.LFB46
 4880 0a8a 84000000 		.4byte	.LFE46-.LFB46
 4881 0a8e 01       		.uleb128 0x1
 4882 0a8f 9C       		.byte	0x9c
ARM GAS  C:\Users\Yiquing\AppData\Local\Temp\ccsAoMV1.s 			page 150


 4883 0a90 0F0B0000 		.4byte	0xb0f
 4884 0a94 17       		.uleb128 0x17
 4885 0a95 ED070000 		.4byte	.LASF105
 4886 0a99 01       		.byte	0x1
 4887 0a9a 7307     		.2byte	0x773
 4888 0a9c 80000000 		.4byte	0x80
 4889 0aa0 18060000 		.4byte	.LLST45
 4890 0aa4 17       		.uleb128 0x17
 4891 0aa5 64090000 		.4byte	.LASF106
 4892 0aa9 01       		.byte	0x1
 4893 0aaa 7307     		.2byte	0x773
 4894 0aac 80000000 		.4byte	0x80
 4895 0ab0 39060000 		.4byte	.LLST46
 4896 0ab4 1E       		.uleb128 0x1e
 4897 0ab5 04020000 		.4byte	.LASF107
 4898 0ab9 01       		.byte	0x1
 4899 0aba 7507     		.2byte	0x775
 4900 0abc 96000000 		.4byte	0x96
 4901 0ac0 5A060000 		.4byte	.LLST47
 4902 0ac4 1E       		.uleb128 0x1e
 4903 0ac5 2C010000 		.4byte	.LASF49
 4904 0ac9 01       		.byte	0x1
 4905 0aca 7607     		.2byte	0x776
 4906 0acc 80000000 		.4byte	0x80
 4907 0ad0 7D060000 		.4byte	.LLST48
 4908 0ad4 21       		.uleb128 0x21
 4909 0ad5 0C000000 		.4byte	.LVL125
 4910 0ad9 76120000 		.4byte	0x1276
 4911 0add 1F       		.uleb128 0x1f
 4912 0ade 46000000 		.4byte	.LVL129
 4913 0ae2 A9080000 		.4byte	0x8a9
 4914 0ae6 F10A0000 		.4byte	0xaf1
 4915 0aea 20       		.uleb128 0x20
 4916 0aeb 01       		.uleb128 0x1
 4917 0aec 50       		.byte	0x50
 4918 0aed 02       		.uleb128 0x2
 4919 0aee 75       		.byte	0x75
 4920 0aef 00       		.sleb128 0
 4921 0af0 00       		.byte	0
 4922 0af1 1F       		.uleb128 0x1f
 4923 0af2 4C000000 		.4byte	.LVL130
 4924 0af6 0F0A0000 		.4byte	0xa0f
 4925 0afa 050B0000 		.4byte	0xb05
 4926 0afe 20       		.uleb128 0x20
 4927 0aff 01       		.uleb128 0x1
 4928 0b00 50       		.byte	0x50
 4929 0b01 02       		.uleb128 0x2
 4930 0b02 75       		.byte	0x75
 4931 0b03 00       		.sleb128 0
 4932 0b04 00       		.byte	0
 4933 0b05 22       		.uleb128 0x22
 4934 0b06 72000000 		.4byte	.LVL132
 4935 0b0a 81120000 		.4byte	0x1281
 4936 0b0e 00       		.byte	0
 4937 0b0f 1D       		.uleb128 0x1d
 4938 0b10 C6030000 		.4byte	.LASF108
 4939 0b14 01       		.byte	0x1
ARM GAS  C:\Users\Yiquing\AppData\Local\Temp\ccsAoMV1.s 			page 151


 4940 0b15 C807     		.2byte	0x7c8
 4941 0b17 00000000 		.4byte	.LFB47
 4942 0b1b 88000000 		.4byte	.LFE47-.LFB47
 4943 0b1f 01       		.uleb128 0x1
 4944 0b20 9C       		.byte	0x9c
 4945 0b21 9E0B0000 		.4byte	0xb9e
 4946 0b25 17       		.uleb128 0x17
 4947 0b26 ED070000 		.4byte	.LASF105
 4948 0b2a 01       		.byte	0x1
 4949 0b2b C807     		.2byte	0x7c8
 4950 0b2d 80000000 		.4byte	0x80
 4951 0b31 A6060000 		.4byte	.LLST49
 4952 0b35 17       		.uleb128 0x17
 4953 0b36 64090000 		.4byte	.LASF106
 4954 0b3a 01       		.byte	0x1
 4955 0b3b C807     		.2byte	0x7c8
 4956 0b3d 80000000 		.4byte	0x80
 4957 0b41 C7060000 		.4byte	.LLST50
 4958 0b45 1E       		.uleb128 0x1e
 4959 0b46 04020000 		.4byte	.LASF107
 4960 0b4a 01       		.byte	0x1
 4961 0b4b CA07     		.2byte	0x7ca
 4962 0b4d 96000000 		.4byte	0x96
 4963 0b51 E8060000 		.4byte	.LLST51
 4964 0b55 1E       		.uleb128 0x1e
 4965 0b56 2C010000 		.4byte	.LASF49
 4966 0b5a 01       		.byte	0x1
 4967 0b5b CB07     		.2byte	0x7cb
 4968 0b5d 80000000 		.4byte	0x80
 4969 0b61 07070000 		.4byte	.LLST52
 4970 0b65 21       		.uleb128 0x21
 4971 0b66 0C000000 		.4byte	.LVL134
 4972 0b6a 76120000 		.4byte	0x1276
 4973 0b6e 1F       		.uleb128 0x1f
 4974 0b6f 46000000 		.4byte	.LVL138
 4975 0b73 A9080000 		.4byte	0x8a9
 4976 0b77 810B0000 		.4byte	0xb81
 4977 0b7b 20       		.uleb128 0x20
 4978 0b7c 01       		.uleb128 0x1
 4979 0b7d 50       		.byte	0x50
 4980 0b7e 01       		.uleb128 0x1
 4981 0b7f 31       		.byte	0x31
 4982 0b80 00       		.byte	0
 4983 0b81 1F       		.uleb128 0x1f
 4984 0b82 4C000000 		.4byte	.LVL139
 4985 0b86 0F0A0000 		.4byte	0xa0f
 4986 0b8a 940B0000 		.4byte	0xb94
 4987 0b8e 20       		.uleb128 0x20
 4988 0b8f 01       		.uleb128 0x1
 4989 0b90 50       		.byte	0x50
 4990 0b91 01       		.uleb128 0x1
 4991 0b92 32       		.byte	0x32
 4992 0b93 00       		.byte	0
 4993 0b94 22       		.uleb128 0x22
 4994 0b95 72000000 		.4byte	.LVL141
 4995 0b99 81120000 		.4byte	0x1281
 4996 0b9d 00       		.byte	0
ARM GAS  C:\Users\Yiquing\AppData\Local\Temp\ccsAoMV1.s 			page 152


 4997 0b9e 1D       		.uleb128 0x1d
 4998 0b9f BC010000 		.4byte	.LASF109
 4999 0ba3 01       		.byte	0x1
 5000 0ba4 0508     		.2byte	0x805
 5001 0ba6 00000000 		.4byte	.LFB48
 5002 0baa 2C000000 		.4byte	.LFE48-.LFB48
 5003 0bae 01       		.uleb128 0x1
 5004 0baf 9C       		.byte	0x9c
 5005 0bb0 D70B0000 		.4byte	0xbd7
 5006 0bb4 1F       		.uleb128 0x1f
 5007 0bb5 1A000000 		.4byte	.LVL142
 5008 0bb9 0F0A0000 		.4byte	0xa0f
 5009 0bbd C70B0000 		.4byte	0xbc7
 5010 0bc1 20       		.uleb128 0x20
 5011 0bc2 01       		.uleb128 0x1
 5012 0bc3 50       		.byte	0x50
 5013 0bc4 01       		.uleb128 0x1
 5014 0bc5 31       		.byte	0x31
 5015 0bc6 00       		.byte	0
 5016 0bc7 2C       		.uleb128 0x2c
 5017 0bc8 20000000 		.4byte	.LVL143
 5018 0bcc 0F0A0000 		.4byte	0xa0f
 5019 0bd0 20       		.uleb128 0x20
 5020 0bd1 01       		.uleb128 0x1
 5021 0bd2 50       		.byte	0x50
 5022 0bd3 01       		.uleb128 0x1
 5023 0bd4 31       		.byte	0x31
 5024 0bd5 00       		.byte	0
 5025 0bd6 00       		.byte	0
 5026 0bd7 1D       		.uleb128 0x1d
 5027 0bd8 B3070000 		.4byte	.LASF110
 5028 0bdc 01       		.byte	0x1
 5029 0bdd 2508     		.2byte	0x825
 5030 0bdf 00000000 		.4byte	.LFB49
 5031 0be3 24000000 		.4byte	.LFE49-.LFB49
 5032 0be7 01       		.uleb128 0x1
 5033 0be8 9C       		.byte	0x9c
 5034 0be9 FD0B0000 		.4byte	0xbfd
 5035 0bed 2C       		.uleb128 0x2c
 5036 0bee 1A000000 		.4byte	.LVL144
 5037 0bf2 0F0A0000 		.4byte	0xa0f
 5038 0bf6 20       		.uleb128 0x20
 5039 0bf7 01       		.uleb128 0x1
 5040 0bf8 50       		.byte	0x50
 5041 0bf9 01       		.uleb128 0x1
 5042 0bfa 32       		.byte	0x32
 5043 0bfb 00       		.byte	0
 5044 0bfc 00       		.byte	0
 5045 0bfd 1D       		.uleb128 0x1d
 5046 0bfe 48050000 		.4byte	.LASF111
 5047 0c02 01       		.byte	0x1
 5048 0c03 4308     		.2byte	0x843
 5049 0c05 00000000 		.4byte	.LFB50
 5050 0c09 58000000 		.4byte	.LFE50-.LFB50
 5051 0c0d 01       		.uleb128 0x1
 5052 0c0e 9C       		.byte	0x9c
 5053 0c0f 6D0C0000 		.4byte	0xc6d
ARM GAS  C:\Users\Yiquing\AppData\Local\Temp\ccsAoMV1.s 			page 153


 5054 0c13 1E       		.uleb128 0x1e
 5055 0c14 04020000 		.4byte	.LASF107
 5056 0c18 01       		.byte	0x1
 5057 0c19 4508     		.2byte	0x845
 5058 0c1b 96000000 		.4byte	0x96
 5059 0c1f 30070000 		.4byte	.LLST53
 5060 0c23 1E       		.uleb128 0x1e
 5061 0c24 2C010000 		.4byte	.LASF49
 5062 0c28 01       		.byte	0x1
 5063 0c29 4608     		.2byte	0x846
 5064 0c2b 80000000 		.4byte	0x80
 5065 0c2f 53070000 		.4byte	.LLST54
 5066 0c33 21       		.uleb128 0x21
 5067 0c34 06000000 		.4byte	.LVL145
 5068 0c38 76120000 		.4byte	0x1276
 5069 0c3c 1F       		.uleb128 0x1f
 5070 0c3d 32000000 		.4byte	.LVL149
 5071 0c41 A9080000 		.4byte	0x8a9
 5072 0c45 500C0000 		.4byte	0xc50
 5073 0c49 20       		.uleb128 0x20
 5074 0c4a 01       		.uleb128 0x1
 5075 0c4b 50       		.byte	0x50
 5076 0c4c 02       		.uleb128 0x2
 5077 0c4d 74       		.byte	0x74
 5078 0c4e 00       		.sleb128 0
 5079 0c4f 00       		.byte	0
 5080 0c50 1F       		.uleb128 0x1f
 5081 0c51 38000000 		.4byte	.LVL150
 5082 0c55 0F0A0000 		.4byte	0xa0f
 5083 0c59 630C0000 		.4byte	0xc63
 5084 0c5d 20       		.uleb128 0x20
 5085 0c5e 01       		.uleb128 0x1
 5086 0c5f 50       		.byte	0x50
 5087 0c60 01       		.uleb128 0x1
 5088 0c61 34       		.byte	0x34
 5089 0c62 00       		.byte	0
 5090 0c63 22       		.uleb128 0x22
 5091 0c64 48000000 		.4byte	.LVL152
 5092 0c68 81120000 		.4byte	0x1281
 5093 0c6c 00       		.byte	0
 5094 0c6d 1D       		.uleb128 0x1d
 5095 0c6e FE090000 		.4byte	.LASF112
 5096 0c72 01       		.byte	0x1
 5097 0c73 7608     		.2byte	0x876
 5098 0c75 00000000 		.4byte	.LFB51
 5099 0c79 1C000000 		.4byte	.LFE51-.LFB51
 5100 0c7d 01       		.uleb128 0x1
 5101 0c7e 9C       		.byte	0x9c
 5102 0c7f 930C0000 		.4byte	0xc93
 5103 0c83 2C       		.uleb128 0x2c
 5104 0c84 12000000 		.4byte	.LVL153
 5105 0c88 0F0A0000 		.4byte	0xa0f
 5106 0c8c 20       		.uleb128 0x20
 5107 0c8d 01       		.uleb128 0x1
 5108 0c8e 50       		.byte	0x50
 5109 0c8f 01       		.uleb128 0x1
 5110 0c90 34       		.byte	0x34
ARM GAS  C:\Users\Yiquing\AppData\Local\Temp\ccsAoMV1.s 			page 154


 5111 0c91 00       		.byte	0
 5112 0c92 00       		.byte	0
 5113 0c93 29       		.uleb128 0x29
 5114 0c94 09090000 		.4byte	.LASF113
 5115 0c98 01       		.byte	0x1
 5116 0c99 C808     		.2byte	0x8c8
 5117 0c9b 80000000 		.4byte	0x80
 5118 0c9f 00000000 		.4byte	.LFB53
 5119 0ca3 1C000000 		.4byte	.LFE53-.LFB53
 5120 0ca7 01       		.uleb128 0x1
 5121 0ca8 9C       		.byte	0x9c
 5122 0ca9 E00C0000 		.4byte	0xce0
 5123 0cad 1E       		.uleb128 0x1e
 5124 0cae 2C010000 		.4byte	.LASF49
 5125 0cb2 01       		.byte	0x1
 5126 0cb3 CA08     		.2byte	0x8ca
 5127 0cb5 80000000 		.4byte	0x80
 5128 0cb9 7C070000 		.4byte	.LLST55
 5129 0cbd 1E       		.uleb128 0x1e
 5130 0cbe F6030000 		.4byte	.LASF114
 5131 0cc2 01       		.byte	0x1
 5132 0cc3 CB08     		.2byte	0x8cb
 5133 0cc5 80000000 		.4byte	0x80
 5134 0cc9 8F070000 		.4byte	.LLST56
 5135 0ccd 21       		.uleb128 0x21
 5136 0cce 06000000 		.4byte	.LVL154
 5137 0cd2 76120000 		.4byte	0x1276
 5138 0cd6 21       		.uleb128 0x21
 5139 0cd7 0E000000 		.4byte	.LVL155
 5140 0cdb 81120000 		.4byte	0x1281
 5141 0cdf 00       		.byte	0
 5142 0ce0 29       		.uleb128 0x29
 5143 0ce1 E0060000 		.4byte	.LASF115
 5144 0ce5 01       		.byte	0x1
 5145 0ce6 E308     		.2byte	0x8e3
 5146 0ce8 96000000 		.4byte	0x96
 5147 0cec 00000000 		.4byte	.LFB54
 5148 0cf0 1C000000 		.4byte	.LFE54-.LFB54
 5149 0cf4 01       		.uleb128 0x1
 5150 0cf5 9C       		.byte	0x9c
 5151 0cf6 2D0D0000 		.4byte	0xd2d
 5152 0cfa 1E       		.uleb128 0x1e
 5153 0cfb A8040000 		.4byte	.LASF116
 5154 0cff 01       		.byte	0x1
 5155 0d00 E508     		.2byte	0x8e5
 5156 0d02 96000000 		.4byte	0x96
 5157 0d06 A6070000 		.4byte	.LLST57
 5158 0d0a 1E       		.uleb128 0x1e
 5159 0d0b 2C010000 		.4byte	.LASF49
 5160 0d0f 01       		.byte	0x1
 5161 0d10 E608     		.2byte	0x8e6
 5162 0d12 80000000 		.4byte	0x80
 5163 0d16 C4070000 		.4byte	.LLST58
 5164 0d1a 21       		.uleb128 0x21
 5165 0d1b 06000000 		.4byte	.LVL158
 5166 0d1f 76120000 		.4byte	0x1276
 5167 0d23 21       		.uleb128 0x21
ARM GAS  C:\Users\Yiquing\AppData\Local\Temp\ccsAoMV1.s 			page 155


 5168 0d24 14000000 		.4byte	.LVL160
 5169 0d28 81120000 		.4byte	0x1281
 5170 0d2c 00       		.byte	0
 5171 0d2d 1D       		.uleb128 0x1d
 5172 0d2e DB010000 		.4byte	.LASF117
 5173 0d32 01       		.byte	0x1
 5174 0d33 1709     		.2byte	0x917
 5175 0d35 00000000 		.4byte	.LFB55
 5176 0d39 18000000 		.4byte	.LFE55-.LFB55
 5177 0d3d 01       		.uleb128 0x1
 5178 0d3e 9C       		.byte	0x9c
 5179 0d3f 760D0000 		.4byte	0xd76
 5180 0d43 17       		.uleb128 0x17
 5181 0d44 20010000 		.4byte	.LASF101
 5182 0d48 01       		.byte	0x1
 5183 0d49 1709     		.2byte	0x917
 5184 0d4b 96000000 		.4byte	0x96
 5185 0d4f D7070000 		.4byte	.LLST59
 5186 0d53 1E       		.uleb128 0x1e
 5187 0d54 2C010000 		.4byte	.LASF49
 5188 0d58 01       		.byte	0x1
 5189 0d59 1A09     		.2byte	0x91a
 5190 0d5b 80000000 		.4byte	0x80
 5191 0d5f 0F080000 		.4byte	.LLST60
 5192 0d63 21       		.uleb128 0x21
 5193 0d64 08000000 		.4byte	.LVL163
 5194 0d68 76120000 		.4byte	0x1276
 5195 0d6c 22       		.uleb128 0x22
 5196 0d6d 14000000 		.4byte	.LVL165
 5197 0d71 81120000 		.4byte	0x1281
 5198 0d75 00       		.byte	0
 5199 0d76 1D       		.uleb128 0x1d
 5200 0d77 D3060000 		.4byte	.LASF118
 5201 0d7b 01       		.byte	0x1
 5202 0d7c 3F09     		.2byte	0x93f
 5203 0d7e 00000000 		.4byte	.LFB56
 5204 0d82 44000000 		.4byte	.LFE56-.LFB56
 5205 0d86 01       		.uleb128 0x1
 5206 0d87 9C       		.byte	0x9c
 5207 0d88 AF0D0000 		.4byte	0xdaf
 5208 0d8c 1E       		.uleb128 0x1e
 5209 0d8d 2C010000 		.4byte	.LASF49
 5210 0d91 01       		.byte	0x1
 5211 0d92 4109     		.2byte	0x941
 5212 0d94 80000000 		.4byte	0x80
 5213 0d98 22080000 		.4byte	.LLST61
 5214 0d9c 21       		.uleb128 0x21
 5215 0d9d 06000000 		.4byte	.LVL166
 5216 0da1 76120000 		.4byte	0x1276
 5217 0da5 22       		.uleb128 0x22
 5218 0da6 40000000 		.4byte	.LVL167
 5219 0daa 81120000 		.4byte	0x1281
 5220 0dae 00       		.byte	0
 5221 0daf 29       		.uleb128 0x29
 5222 0db0 62070000 		.4byte	.LASF119
 5223 0db4 01       		.byte	0x1
 5224 0db5 8009     		.2byte	0x980
ARM GAS  C:\Users\Yiquing\AppData\Local\Temp\ccsAoMV1.s 			page 156


 5225 0db7 EE000000 		.4byte	0xee
 5226 0dbb 00000000 		.4byte	.LFB57
 5227 0dbf 18000000 		.4byte	.LFE57-.LFB57
 5228 0dc3 01       		.uleb128 0x1
 5229 0dc4 9C       		.byte	0x9c
 5230 0dc5 060E0000 		.4byte	0xe06
 5231 0dc9 17       		.uleb128 0x17
 5232 0dca FA070000 		.4byte	.LASF120
 5233 0dce 01       		.byte	0x1
 5234 0dcf 8009     		.2byte	0x980
 5235 0dd1 80000000 		.4byte	0x80
 5236 0dd5 35080000 		.4byte	.LLST62
 5237 0dd9 12       		.uleb128 0x12
 5238 0dda 31080000 		.4byte	.LASF121
 5239 0dde 01       		.byte	0x1
 5240 0ddf 8009     		.2byte	0x980
 5241 0de1 EE000000 		.4byte	0xee
 5242 0de5 01       		.uleb128 0x1
 5243 0de6 51       		.byte	0x51
 5244 0de7 13       		.uleb128 0x13
 5245 0de8 D9030000 		.4byte	.LASF122
 5246 0dec 01       		.byte	0x1
 5247 0ded 8209     		.2byte	0x982
 5248 0def EE000000 		.4byte	0xee
 5249 0df3 01       		.uleb128 0x1
 5250 0df4 50       		.byte	0x50
 5251 0df5 1E       		.uleb128 0x1e
 5252 0df6 95080000 		.4byte	.LASF123
 5253 0dfa 01       		.byte	0x1
 5254 0dfb 8309     		.2byte	0x983
 5255 0dfd 060E0000 		.4byte	0xe06
 5256 0e01 56080000 		.4byte	.LLST63
 5257 0e05 00       		.byte	0
 5258 0e06 04       		.uleb128 0x4
 5259 0e07 04       		.byte	0x4
 5260 0e08 EE000000 		.4byte	0xee
 5261 0e0c 29       		.uleb128 0x29
 5262 0e0d C2050000 		.4byte	.LASF124
 5263 0e11 01       		.byte	0x1
 5264 0e12 AA09     		.2byte	0x9aa
 5265 0e14 EE000000 		.4byte	0xee
 5266 0e18 00000000 		.4byte	.LFB58
 5267 0e1c 14000000 		.4byte	.LFE58-.LFB58
 5268 0e20 01       		.uleb128 0x1
 5269 0e21 9C       		.byte	0x9c
 5270 0e22 470E0000 		.4byte	0xe47
 5271 0e26 17       		.uleb128 0x17
 5272 0e27 FA070000 		.4byte	.LASF120
 5273 0e2b 01       		.byte	0x1
 5274 0e2c AA09     		.2byte	0x9aa
 5275 0e2e 80000000 		.4byte	0x80
 5276 0e32 85080000 		.4byte	.LLST64
 5277 0e36 1E       		.uleb128 0x1e
 5278 0e37 95080000 		.4byte	.LASF123
 5279 0e3b 01       		.byte	0x1
 5280 0e3c AC09     		.2byte	0x9ac
 5281 0e3e 060E0000 		.4byte	0xe06
ARM GAS  C:\Users\Yiquing\AppData\Local\Temp\ccsAoMV1.s 			page 157


 5282 0e42 A6080000 		.4byte	.LLST65
 5283 0e46 00       		.byte	0
 5284 0e47 29       		.uleb128 0x29
 5285 0e48 C2040000 		.4byte	.LASF125
 5286 0e4c 01       		.byte	0x1
 5287 0e4d C209     		.2byte	0x9c2
 5288 0e4f EE000000 		.4byte	0xee
 5289 0e53 00000000 		.4byte	.LFB59
 5290 0e57 1C000000 		.4byte	.LFE59-.LFB59
 5291 0e5b 01       		.uleb128 0x1
 5292 0e5c 9C       		.byte	0x9c
 5293 0e5d 9E0E0000 		.4byte	0xe9e
 5294 0e61 17       		.uleb128 0x17
 5295 0e62 FA070000 		.4byte	.LASF120
 5296 0e66 01       		.byte	0x1
 5297 0e67 C209     		.2byte	0x9c2
 5298 0e69 80000000 		.4byte	0x80
 5299 0e6d D5080000 		.4byte	.LLST66
 5300 0e71 12       		.uleb128 0x12
 5301 0e72 31080000 		.4byte	.LASF121
 5302 0e76 01       		.byte	0x1
 5303 0e77 C209     		.2byte	0x9c2
 5304 0e79 EE000000 		.4byte	0xee
 5305 0e7d 01       		.uleb128 0x1
 5306 0e7e 51       		.byte	0x51
 5307 0e7f 13       		.uleb128 0x13
 5308 0e80 D9030000 		.4byte	.LASF122
 5309 0e84 01       		.byte	0x1
 5310 0e85 C409     		.2byte	0x9c4
 5311 0e87 EE000000 		.4byte	0xee
 5312 0e8b 01       		.uleb128 0x1
 5313 0e8c 50       		.byte	0x50
 5314 0e8d 1E       		.uleb128 0x1e
 5315 0e8e 95080000 		.4byte	.LASF123
 5316 0e92 01       		.byte	0x1
 5317 0e93 C509     		.2byte	0x9c5
 5318 0e95 060E0000 		.4byte	0xe06
 5319 0e99 F6080000 		.4byte	.LLST67
 5320 0e9d 00       		.byte	0
 5321 0e9e 29       		.uleb128 0x29
 5322 0e9f 00000000 		.4byte	.LASF126
 5323 0ea3 01       		.byte	0x1
 5324 0ea4 E109     		.2byte	0x9e1
 5325 0ea6 EE000000 		.4byte	0xee
 5326 0eaa 00000000 		.4byte	.LFB60
 5327 0eae 14000000 		.4byte	.LFE60-.LFB60
 5328 0eb2 01       		.uleb128 0x1
 5329 0eb3 9C       		.byte	0x9c
 5330 0eb4 D90E0000 		.4byte	0xed9
 5331 0eb8 17       		.uleb128 0x17
 5332 0eb9 FA070000 		.4byte	.LASF120
 5333 0ebd 01       		.byte	0x1
 5334 0ebe E109     		.2byte	0x9e1
 5335 0ec0 80000000 		.4byte	0x80
 5336 0ec4 25090000 		.4byte	.LLST68
 5337 0ec8 1E       		.uleb128 0x1e
 5338 0ec9 95080000 		.4byte	.LASF123
ARM GAS  C:\Users\Yiquing\AppData\Local\Temp\ccsAoMV1.s 			page 158


 5339 0ecd 01       		.byte	0x1
 5340 0ece E309     		.2byte	0x9e3
 5341 0ed0 060E0000 		.4byte	0xe06
 5342 0ed4 46090000 		.4byte	.LLST69
 5343 0ed8 00       		.byte	0
 5344 0ed9 1D       		.uleb128 0x1d
 5345 0eda 26000000 		.4byte	.LASF127
 5346 0ede 01       		.byte	0x1
 5347 0edf F909     		.2byte	0x9f9
 5348 0ee1 00000000 		.4byte	.LFB61
 5349 0ee5 14000000 		.4byte	.LFE61-.LFB61
 5350 0ee9 01       		.uleb128 0x1
 5351 0eea 9C       		.byte	0x9c
 5352 0eeb 100F0000 		.4byte	0xf10
 5353 0eef 17       		.uleb128 0x17
 5354 0ef0 FA070000 		.4byte	.LASF120
 5355 0ef4 01       		.byte	0x1
 5356 0ef5 F909     		.2byte	0x9f9
 5357 0ef7 80000000 		.4byte	0x80
 5358 0efb 75090000 		.4byte	.LLST70
 5359 0eff 17       		.uleb128 0x17
 5360 0f00 74070000 		.4byte	.LASF128
 5361 0f04 01       		.byte	0x1
 5362 0f05 F909     		.2byte	0x9f9
 5363 0f07 80000000 		.4byte	0x80
 5364 0f0b 96090000 		.4byte	.LLST71
 5365 0f0f 00       		.byte	0
 5366 0f10 29       		.uleb128 0x29
 5367 0f11 5C000000 		.4byte	.LASF129
 5368 0f15 01       		.byte	0x1
 5369 0f16 0F0A     		.2byte	0xa0f
 5370 0f18 80000000 		.4byte	0x80
 5371 0f1c 00000000 		.4byte	.LFB62
 5372 0f20 12000000 		.4byte	.LFE62-.LFB62
 5373 0f24 01       		.uleb128 0x1
 5374 0f25 9C       		.byte	0x9c
 5375 0f26 4B0F0000 		.4byte	0xf4b
 5376 0f2a 17       		.uleb128 0x17
 5377 0f2b FA070000 		.4byte	.LASF120
 5378 0f2f 01       		.byte	0x1
 5379 0f30 0F0A     		.2byte	0xa0f
 5380 0f32 80000000 		.4byte	0x80
 5381 0f36 B7090000 		.4byte	.LLST72
 5382 0f3a 1E       		.uleb128 0x1e
 5383 0f3b 74070000 		.4byte	.LASF128
 5384 0f3f 01       		.byte	0x1
 5385 0f40 110A     		.2byte	0xa11
 5386 0f42 80000000 		.4byte	0x80
 5387 0f46 D8090000 		.4byte	.LLST73
 5388 0f4a 00       		.byte	0
 5389 0f4b 29       		.uleb128 0x29
 5390 0f4c 1C030000 		.4byte	.LASF130
 5391 0f50 01       		.byte	0x1
 5392 0f51 290A     		.2byte	0xa29
 5393 0f53 80000000 		.4byte	0x80
 5394 0f57 00000000 		.4byte	.LFB63
 5395 0f5b 18000000 		.4byte	.LFE63-.LFB63
ARM GAS  C:\Users\Yiquing\AppData\Local\Temp\ccsAoMV1.s 			page 159


 5396 0f5f 01       		.uleb128 0x1
 5397 0f60 9C       		.byte	0x9c
 5398 0f61 870F0000 		.4byte	0xf87
 5399 0f65 17       		.uleb128 0x17
 5400 0f66 FA070000 		.4byte	.LASF120
 5401 0f6a 01       		.byte	0x1
 5402 0f6b 290A     		.2byte	0xa29
 5403 0f6d 80000000 		.4byte	0x80
 5404 0f71 EF090000 		.4byte	.LLST74
 5405 0f75 2F       		.uleb128 0x2f
 5406 0f76 59070000 		.4byte	.LASF131
 5407 0f7a 01       		.byte	0x1
 5408 0f7b 2B0A     		.2byte	0xa2b
 5409 0f7d 870F0000 		.4byte	0xf87
 5410 0f81 80C28380 		.sleb128 -536813312
 5410      7E
 5411 0f86 00       		.byte	0
 5412 0f87 04       		.uleb128 0x4
 5413 0f88 04       		.byte	0x4
 5414 0f89 DD000000 		.4byte	0xdd
 5415 0f8d 1C       		.uleb128 0x1c
 5416 0f8e 0E030000 		.4byte	.LASF132
 5417 0f92 01       		.byte	0x1
 5418 0f93 8E0B     		.2byte	0xb8e
 5419 0f95 00000000 		.4byte	.LFB67
 5420 0f99 10000000 		.4byte	.LFE67-.LFB67
 5421 0f9d 01       		.uleb128 0x1
 5422 0f9e 9C       		.byte	0x9c
 5423 0f9f 1C       		.uleb128 0x1c
 5424 0fa0 EA080000 		.4byte	.LASF133
 5425 0fa4 01       		.byte	0x1
 5426 0fa5 A50B     		.2byte	0xba5
 5427 0fa7 00000000 		.4byte	.LFB68
 5428 0fab 10000000 		.4byte	.LFE68-.LFB68
 5429 0faf 01       		.uleb128 0x1
 5430 0fb0 9C       		.byte	0x9c
 5431 0fb1 1D       		.uleb128 0x1d
 5432 0fb2 7F050000 		.4byte	.LASF134
 5433 0fb6 01       		.byte	0x1
 5434 0fb7 760B     		.2byte	0xb76
 5435 0fb9 00000000 		.4byte	.LFB66
 5436 0fbd 18000000 		.4byte	.LFE66-.LFB66
 5437 0fc1 01       		.uleb128 0x1
 5438 0fc2 9C       		.byte	0x9c
 5439 0fc3 D10F0000 		.4byte	0xfd1
 5440 0fc7 21       		.uleb128 0x21
 5441 0fc8 06000000 		.4byte	.LVL194
 5442 0fcc 9F0F0000 		.4byte	0xf9f
 5443 0fd0 00       		.byte	0
 5444 0fd1 1C       		.uleb128 0x1c
 5445 0fd2 8B070000 		.4byte	.LASF135
 5446 0fd6 01       		.byte	0x1
 5447 0fd7 BC0B     		.2byte	0xbbc
 5448 0fd9 00000000 		.4byte	.LFB69
 5449 0fdd 10000000 		.4byte	.LFE69-.LFB69
 5450 0fe1 01       		.uleb128 0x1
 5451 0fe2 9C       		.byte	0x9c
ARM GAS  C:\Users\Yiquing\AppData\Local\Temp\ccsAoMV1.s 			page 160


 5452 0fe3 23       		.uleb128 0x23
 5453 0fe4 44010000 		.4byte	0x144
 5454 0fe8 00000000 		.4byte	.LFB70
 5455 0fec 10000000 		.4byte	.LFE70-.LFB70
 5456 0ff0 01       		.uleb128 0x1
 5457 0ff1 9C       		.byte	0x9c
 5458 0ff2 00100000 		.4byte	0x1000
 5459 0ff6 26       		.uleb128 0x26
 5460 0ff7 51010000 		.4byte	0x151
 5461 0ffb 100A0000 		.4byte	.LLST75
 5462 0fff 00       		.byte	0
 5463 1000 2B       		.uleb128 0x2b
 5464 1001 5C020000 		.4byte	.LASF137
 5465 1005 01       		.byte	0x1
 5466 1006 E60B     		.2byte	0xbe6
 5467 1008 96000000 		.4byte	0x96
 5468 100c 00000000 		.4byte	.LFB71
 5469 1010 10000000 		.4byte	.LFE71-.LFB71
 5470 1014 01       		.uleb128 0x1
 5471 1015 9C       		.byte	0x9c
 5472 1016 2B       		.uleb128 0x2b
 5473 1017 20060000 		.4byte	.LASF138
 5474 101b 01       		.byte	0x1
 5475 101c FA0B     		.2byte	0xbfa
 5476 101e 96000000 		.4byte	0x96
 5477 1022 00000000 		.4byte	.LFB72
 5478 1026 10000000 		.4byte	.LFE72-.LFB72
 5479 102a 01       		.uleb128 0x1
 5480 102b 9C       		.byte	0x9c
 5481 102c 1D       		.uleb128 0x1d
 5482 102d 73060000 		.4byte	.LASF139
 5483 1031 01       		.byte	0x1
 5484 1032 190C     		.2byte	0xc19
 5485 1034 00000000 		.4byte	.LFB73
 5486 1038 18000000 		.4byte	.LFE73-.LFB73
 5487 103c 01       		.uleb128 0x1
 5488 103d 9C       		.byte	0x9c
 5489 103e 51100000 		.4byte	0x1051
 5490 1042 12       		.uleb128 0x12
 5491 1043 F4060000 		.4byte	.LASF140
 5492 1047 01       		.byte	0x1
 5493 1048 190C     		.2byte	0xc19
 5494 104a 96000000 		.4byte	0x96
 5495 104e 01       		.uleb128 0x1
 5496 104f 50       		.byte	0x50
 5497 1050 00       		.byte	0
 5498 1051 1D       		.uleb128 0x1d
 5499 1052 01080000 		.4byte	.LASF141
 5500 1056 01       		.byte	0x1
 5501 1057 540B     		.2byte	0xb54
 5502 1059 00000000 		.4byte	.LFB65
 5503 105d 4C000000 		.4byte	.LFE65-.LFB65
 5504 1061 01       		.uleb128 0x1
 5505 1062 9C       		.byte	0x9c
 5506 1063 CF100000 		.4byte	0x10cf
 5507 1067 30       		.uleb128 0x30
 5508 1068 6900     		.ascii	"i\000"
ARM GAS  C:\Users\Yiquing\AppData\Local\Temp\ccsAoMV1.s 			page 161


 5509 106a 01       		.byte	0x1
 5510 106b 560B     		.2byte	0xb56
 5511 106d 96000000 		.4byte	0x96
 5512 1071 310A0000 		.4byte	.LLST76
 5513 1075 25       		.uleb128 0x25
 5514 1076 44010000 		.4byte	0x144
 5515 107a 2A000000 		.4byte	.LBB22
 5516 107e 04000000 		.4byte	.LBE22-.LBB22
 5517 1082 01       		.byte	0x1
 5518 1083 5F0B     		.2byte	0xb5f
 5519 1085 93100000 		.4byte	0x1093
 5520 1089 26       		.uleb128 0x26
 5521 108a 51010000 		.4byte	0x151
 5522 108e 810A0000 		.4byte	.LLST77
 5523 1092 00       		.byte	0
 5524 1093 2E       		.uleb128 0x2e
 5525 1094 5E010000 		.4byte	0x15e
 5526 1098 32000000 		.4byte	.LBB24
 5527 109c 02000000 		.4byte	.LBE24-.LBB24
 5528 10a0 01       		.byte	0x1
 5529 10a1 600B     		.2byte	0xb60
 5530 10a3 1F       		.uleb128 0x1f
 5531 10a4 18000000 		.4byte	.LVL204
 5532 10a8 AF0D0000 		.4byte	0xdaf
 5533 10ac BF100000 		.4byte	0x10bf
 5534 10b0 20       		.uleb128 0x20
 5535 10b1 01       		.uleb128 0x1
 5536 10b2 51       		.byte	0x51
 5537 10b3 05       		.uleb128 0x5
 5538 10b4 03       		.byte	0x3
 5539 10b5 00000000 		.4byte	CySysTickServiceCallbacks
 5540 10b9 20       		.uleb128 0x20
 5541 10ba 01       		.uleb128 0x1
 5542 10bb 50       		.byte	0x50
 5543 10bc 01       		.uleb128 0x1
 5544 10bd 3F       		.byte	0x3f
 5545 10be 00       		.byte	0
 5546 10bf 2C       		.uleb128 0x2c
 5547 10c0 1E000000 		.4byte	.LVL205
 5548 10c4 2C100000 		.4byte	0x102c
 5549 10c8 20       		.uleb128 0x20
 5550 10c9 01       		.uleb128 0x1
 5551 10ca 50       		.byte	0x50
 5552 10cb 01       		.uleb128 0x1
 5553 10cc 31       		.byte	0x31
 5554 10cd 00       		.byte	0
 5555 10ce 00       		.byte	0
 5556 10cf 1D       		.uleb128 0x1d
 5557 10d0 32060000 		.4byte	.LASF142
 5558 10d4 01       		.byte	0x1
 5559 10d5 300B     		.2byte	0xb30
 5560 10d7 00000000 		.4byte	.LFB64
 5561 10db 1C000000 		.4byte	.LFE64-.LFB64
 5562 10df 01       		.uleb128 0x1
 5563 10e0 9C       		.byte	0x9c
 5564 10e1 F8100000 		.4byte	0x10f8
 5565 10e5 21       		.uleb128 0x21
ARM GAS  C:\Users\Yiquing\AppData\Local\Temp\ccsAoMV1.s 			page 162


 5566 10e6 0C000000 		.4byte	.LVL209
 5567 10ea 51100000 		.4byte	0x1051
 5568 10ee 22       		.uleb128 0x22
 5569 10ef 18000000 		.4byte	.LVL210
 5570 10f3 B10F0000 		.4byte	0xfb1
 5571 10f7 00       		.byte	0
 5572 10f8 2B       		.uleb128 0x2b
 5573 10f9 65040000 		.4byte	.LASF143
 5574 10fd 01       		.byte	0x1
 5575 10fe 390C     		.2byte	0xc39
 5576 1100 96000000 		.4byte	0x96
 5577 1104 00000000 		.4byte	.LFB74
 5578 1108 10000000 		.4byte	.LFE74-.LFB74
 5579 110c 01       		.uleb128 0x1
 5580 110d 9C       		.byte	0x9c
 5581 110e 31       		.uleb128 0x31
 5582 110f 2C010000 		.4byte	0x12c
 5583 1113 00000000 		.4byte	.LFB78
 5584 1117 20000000 		.4byte	.LFE78-.LFB78
 5585 111b 01       		.uleb128 0x1
 5586 111c 9C       		.byte	0x9c
 5587 111d 43110000 		.4byte	0x1143
 5588 1121 32       		.uleb128 0x32
 5589 1122 39010000 		.4byte	0x139
 5590 1126 33       		.uleb128 0x33
 5591 1127 0C000000 		.4byte	.LBB28
 5592 112b 14000000 		.4byte	.LBE28-.LBB28
 5593 112f 39110000 		.4byte	0x1139
 5594 1133 32       		.uleb128 0x32
 5595 1134 39010000 		.4byte	0x139
 5596 1138 00       		.byte	0
 5597 1139 21       		.uleb128 0x21
 5598 113a 06000000 		.4byte	.LVL211
 5599 113e F8100000 		.4byte	0x10f8
 5600 1142 00       		.byte	0
 5601 1143 2A       		.uleb128 0x2a
 5602 1144 5E010000 		.4byte	0x15e
 5603 1148 00000000 		.4byte	.LFB75
 5604 114c 0C000000 		.4byte	.LFE75-.LFB75
 5605 1150 01       		.uleb128 0x1
 5606 1151 9C       		.byte	0x9c
 5607 1152 29       		.uleb128 0x29
 5608 1153 A7010000 		.4byte	.LASF144
 5609 1157 01       		.byte	0x1
 5610 1158 720C     		.2byte	0xc72
 5611 115a FA000000 		.4byte	0xfa
 5612 115e 00000000 		.4byte	.LFB76
 5613 1162 10000000 		.4byte	.LFE76-.LFB76
 5614 1166 01       		.uleb128 0x1
 5615 1167 9C       		.byte	0x9c
 5616 1168 99110000 		.4byte	0x1199
 5617 116c 17       		.uleb128 0x17
 5618 116d FA070000 		.4byte	.LASF120
 5619 1171 01       		.byte	0x1
 5620 1172 720C     		.2byte	0xc72
 5621 1174 96000000 		.4byte	0x96
 5622 1178 A00A0000 		.4byte	.LLST78
ARM GAS  C:\Users\Yiquing\AppData\Local\Temp\ccsAoMV1.s 			page 163


 5623 117c 12       		.uleb128 0x12
 5624 117d B2080000 		.4byte	.LASF145
 5625 1181 01       		.byte	0x1
 5626 1182 720C     		.2byte	0xc72
 5627 1184 FA000000 		.4byte	0xfa
 5628 1188 01       		.uleb128 0x1
 5629 1189 51       		.byte	0x51
 5630 118a 13       		.uleb128 0x13
 5631 118b 2A080000 		.4byte	.LASF146
 5632 118f 01       		.byte	0x1
 5633 1190 740C     		.2byte	0xc74
 5634 1192 FA000000 		.4byte	0xfa
 5635 1196 01       		.uleb128 0x1
 5636 1197 50       		.byte	0x50
 5637 1198 00       		.byte	0
 5638 1199 29       		.uleb128 0x29
 5639 119a B1030000 		.4byte	.LASF147
 5640 119e 01       		.byte	0x1
 5641 119f 8C0C     		.2byte	0xc8c
 5642 11a1 FA000000 		.4byte	0xfa
 5643 11a5 00000000 		.4byte	.LFB77
 5644 11a9 10000000 		.4byte	.LFE77-.LFB77
 5645 11ad 01       		.uleb128 0x1
 5646 11ae 9C       		.byte	0x9c
 5647 11af C4110000 		.4byte	0x11c4
 5648 11b3 17       		.uleb128 0x17
 5649 11b4 FA070000 		.4byte	.LASF120
 5650 11b8 01       		.byte	0x1
 5651 11b9 8C0C     		.2byte	0xc8c
 5652 11bb 96000000 		.4byte	0x96
 5653 11bf C10A0000 		.4byte	.LLST79
 5654 11c3 00       		.byte	0
 5655 11c4 1D       		.uleb128 0x1d
 5656 11c5 A4080000 		.4byte	.LASF148
 5657 11c9 01       		.byte	0x1
 5658 11ca C60C     		.2byte	0xcc6
 5659 11cc 00000000 		.4byte	.LFB79
 5660 11d0 70000000 		.4byte	.LFE79-.LFB79
 5661 11d4 01       		.uleb128 0x1
 5662 11d5 9C       		.byte	0x9c
 5663 11d6 E9110000 		.4byte	0x11e9
 5664 11da 12       		.uleb128 0x12
 5665 11db C1090000 		.4byte	.LASF149
 5666 11df 01       		.byte	0x1
 5667 11e0 C60C     		.2byte	0xcc6
 5668 11e2 E9110000 		.4byte	0x11e9
 5669 11e6 01       		.uleb128 0x1
 5670 11e7 50       		.byte	0x50
 5671 11e8 00       		.byte	0
 5672 11e9 04       		.uleb128 0x4
 5673 11ea 04       		.byte	0x4
 5674 11eb 96000000 		.4byte	0x96
 5675 11ef 34       		.uleb128 0x34
 5676 11f0 FA000000 		.4byte	0xfa
 5677 11f4 FF110000 		.4byte	0x11ff
 5678 11f8 35       		.uleb128 0x35
 5679 11f9 6B000000 		.4byte	0x6b
ARM GAS  C:\Users\Yiquing\AppData\Local\Temp\ccsAoMV1.s 			page 164


 5680 11fd 04       		.byte	0x4
 5681 11fe 00       		.byte	0
 5682 11ff 36       		.uleb128 0x36
 5683 1200 D4050000 		.4byte	.LASF150
 5684 1204 01       		.byte	0x1
 5685 1205 35       		.byte	0x35
 5686 1206 EF110000 		.4byte	0x11ef
 5687 120a 05       		.uleb128 0x5
 5688 120b 03       		.byte	0x3
 5689 120c 04000000 		.4byte	CySysTickCallbacks
 5690 1210 37       		.uleb128 0x37
 5691 1211 7D070000 		.4byte	.LASF151
 5692 1215 01       		.byte	0x1
 5693 1216 1D       		.byte	0x1d
 5694 1217 80000000 		.4byte	0x80
 5695 121b 05       		.uleb128 0x5
 5696 121c 03       		.byte	0x3
 5697 121d 00000000 		.4byte	CyResetStatus
 5698 1221 37       		.uleb128 0x37
 5699 1222 EA040000 		.4byte	.LASF152
 5700 1226 01       		.byte	0x1
 5701 1227 29       		.byte	0x29
 5702 1228 96000000 		.4byte	0x96
 5703 122c 05       		.uleb128 0x5
 5704 122d 03       		.byte	0x3
 5705 122e 00000000 		.4byte	cydelay_freq_hz
 5706 1232 37       		.uleb128 0x37
 5707 1233 78020000 		.4byte	.LASF153
 5708 1237 01       		.byte	0x1
 5709 1238 2A       		.byte	0x2a
 5710 1239 96000000 		.4byte	0x96
 5711 123d 05       		.uleb128 0x5
 5712 123e 03       		.byte	0x3
 5713 123f 00000000 		.4byte	cydelay_freq_khz
 5714 1243 37       		.uleb128 0x37
 5715 1244 78000000 		.4byte	.LASF154
 5716 1248 01       		.byte	0x1
 5717 1249 2B       		.byte	0x2b
 5718 124a 80000000 		.4byte	0x80
 5719 124e 05       		.uleb128 0x5
 5720 124f 03       		.byte	0x3
 5721 1250 00000000 		.4byte	cydelay_freq_mhz
 5722 1254 37       		.uleb128 0x37
 5723 1255 39040000 		.4byte	.LASF155
 5724 1259 01       		.byte	0x1
 5725 125a 2C       		.byte	0x2c
 5726 125b 96000000 		.4byte	0x96
 5727 125f 05       		.uleb128 0x5
 5728 1260 03       		.byte	0x3
 5729 1261 00000000 		.4byte	cydelay_32k_ms
 5730 1265 37       		.uleb128 0x37
 5731 1266 7D010000 		.4byte	.LASF156
 5732 126a 01       		.byte	0x1
 5733 126b 37       		.byte	0x37
 5734 126c 96000000 		.4byte	0x96
 5735 1270 05       		.uleb128 0x5
 5736 1271 03       		.byte	0x3
ARM GAS  C:\Users\Yiquing\AppData\Local\Temp\ccsAoMV1.s 			page 165


 5737 1272 00000000 		.4byte	CySysTickInitVar
 5738 1276 38       		.uleb128 0x38
 5739 1277 6E090000 		.4byte	.LASF158
 5740 127b 03       		.byte	0x3
 5741 127c 7E       		.byte	0x7e
 5742 127d 80000000 		.4byte	0x80
 5743 1281 39       		.uleb128 0x39
 5744 1282 C3000000 		.4byte	.LASF159
 5745 1286 03       		.byte	0x3
 5746 1287 7F       		.byte	0x7f
 5747 1288 92120000 		.4byte	0x1292
 5748 128c 3A       		.uleb128 0x3a
 5749 128d 80000000 		.4byte	0x80
 5750 1291 00       		.byte	0
 5751 1292 39       		.uleb128 0x39
 5752 1293 65010000 		.4byte	.LASF160
 5753 1297 04       		.byte	0x4
 5754 1298 2B       		.byte	0x2b
 5755 1299 A3120000 		.4byte	0x12a3
 5756 129d 3A       		.uleb128 0x3a
 5757 129e 80000000 		.4byte	0x80
 5758 12a2 00       		.byte	0
 5759 12a3 3B       		.uleb128 0x3b
 5760 12a4 99040000 		.4byte	.LASF167
 5761 12a8 04       		.byte	0x4
 5762 12a9 27       		.byte	0x27
 5763 12aa 80000000 		.4byte	0x80
 5764 12ae B8120000 		.4byte	0x12b8
 5765 12b2 3A       		.uleb128 0x3a
 5766 12b3 80000000 		.4byte	0x80
 5767 12b7 00       		.byte	0
 5768 12b8 3C       		.uleb128 0x3c
 5769 12b9 7B040000 		.4byte	.LASF168
 5770 12bd 03       		.byte	0x3
 5771 12be 7A       		.byte	0x7a
 5772 12bf 3A       		.uleb128 0x3a
 5773 12c0 96000000 		.4byte	0x96
 5774 12c4 00       		.byte	0
 5775 12c5 00       		.byte	0
 5776              		.section	.debug_abbrev,"",%progbits
 5777              	.Ldebug_abbrev0:
 5778 0000 01       		.uleb128 0x1
 5779 0001 11       		.uleb128 0x11
 5780 0002 01       		.byte	0x1
 5781 0003 25       		.uleb128 0x25
 5782 0004 0E       		.uleb128 0xe
 5783 0005 13       		.uleb128 0x13
 5784 0006 0B       		.uleb128 0xb
 5785 0007 03       		.uleb128 0x3
 5786 0008 0E       		.uleb128 0xe
 5787 0009 1B       		.uleb128 0x1b
 5788 000a 0E       		.uleb128 0xe
 5789 000b 55       		.uleb128 0x55
 5790 000c 17       		.uleb128 0x17
 5791 000d 11       		.uleb128 0x11
 5792 000e 01       		.uleb128 0x1
 5793 000f 10       		.uleb128 0x10
ARM GAS  C:\Users\Yiquing\AppData\Local\Temp\ccsAoMV1.s 			page 166


 5794 0010 17       		.uleb128 0x17
 5795 0011 00       		.byte	0
 5796 0012 00       		.byte	0
 5797 0013 02       		.uleb128 0x2
 5798 0014 24       		.uleb128 0x24
 5799 0015 00       		.byte	0
 5800 0016 0B       		.uleb128 0xb
 5801 0017 0B       		.uleb128 0xb
 5802 0018 3E       		.uleb128 0x3e
 5803 0019 0B       		.uleb128 0xb
 5804 001a 03       		.uleb128 0x3
 5805 001b 08       		.uleb128 0x8
 5806 001c 00       		.byte	0
 5807 001d 00       		.byte	0
 5808 001e 03       		.uleb128 0x3
 5809 001f 24       		.uleb128 0x24
 5810 0020 00       		.byte	0
 5811 0021 0B       		.uleb128 0xb
 5812 0022 0B       		.uleb128 0xb
 5813 0023 3E       		.uleb128 0x3e
 5814 0024 0B       		.uleb128 0xb
 5815 0025 03       		.uleb128 0x3
 5816 0026 0E       		.uleb128 0xe
 5817 0027 00       		.byte	0
 5818 0028 00       		.byte	0
 5819 0029 04       		.uleb128 0x4
 5820 002a 0F       		.uleb128 0xf
 5821 002b 00       		.byte	0
 5822 002c 0B       		.uleb128 0xb
 5823 002d 0B       		.uleb128 0xb
 5824 002e 49       		.uleb128 0x49
 5825 002f 13       		.uleb128 0x13
 5826 0030 00       		.byte	0
 5827 0031 00       		.byte	0
 5828 0032 05       		.uleb128 0x5
 5829 0033 15       		.uleb128 0x15
 5830 0034 00       		.byte	0
 5831 0035 27       		.uleb128 0x27
 5832 0036 19       		.uleb128 0x19
 5833 0037 00       		.byte	0
 5834 0038 00       		.byte	0
 5835 0039 06       		.uleb128 0x6
 5836 003a 16       		.uleb128 0x16
 5837 003b 00       		.byte	0
 5838 003c 03       		.uleb128 0x3
 5839 003d 0E       		.uleb128 0xe
 5840 003e 3A       		.uleb128 0x3a
 5841 003f 0B       		.uleb128 0xb
 5842 0040 3B       		.uleb128 0x3b
 5843 0041 0B       		.uleb128 0xb
 5844 0042 49       		.uleb128 0x49
 5845 0043 13       		.uleb128 0x13
 5846 0044 00       		.byte	0
 5847 0045 00       		.byte	0
 5848 0046 07       		.uleb128 0x7
 5849 0047 16       		.uleb128 0x16
 5850 0048 00       		.byte	0
ARM GAS  C:\Users\Yiquing\AppData\Local\Temp\ccsAoMV1.s 			page 167


 5851 0049 03       		.uleb128 0x3
 5852 004a 0E       		.uleb128 0xe
 5853 004b 3A       		.uleb128 0x3a
 5854 004c 0B       		.uleb128 0xb
 5855 004d 3B       		.uleb128 0x3b
 5856 004e 05       		.uleb128 0x5
 5857 004f 49       		.uleb128 0x49
 5858 0050 13       		.uleb128 0x13
 5859 0051 00       		.byte	0
 5860 0052 00       		.byte	0
 5861 0053 08       		.uleb128 0x8
 5862 0054 35       		.uleb128 0x35
 5863 0055 00       		.byte	0
 5864 0056 49       		.uleb128 0x49
 5865 0057 13       		.uleb128 0x13
 5866 0058 00       		.byte	0
 5867 0059 00       		.byte	0
 5868 005a 09       		.uleb128 0x9
 5869 005b 2E       		.uleb128 0x2e
 5870 005c 01       		.byte	0x1
 5871 005d 3F       		.uleb128 0x3f
 5872 005e 19       		.uleb128 0x19
 5873 005f 03       		.uleb128 0x3
 5874 0060 0E       		.uleb128 0xe
 5875 0061 3A       		.uleb128 0x3a
 5876 0062 0B       		.uleb128 0xb
 5877 0063 3B       		.uleb128 0x3b
 5878 0064 05       		.uleb128 0x5
 5879 0065 27       		.uleb128 0x27
 5880 0066 19       		.uleb128 0x19
 5881 0067 20       		.uleb128 0x20
 5882 0068 0B       		.uleb128 0xb
 5883 0069 01       		.uleb128 0x1
 5884 006a 13       		.uleb128 0x13
 5885 006b 00       		.byte	0
 5886 006c 00       		.byte	0
 5887 006d 0A       		.uleb128 0xa
 5888 006e 05       		.uleb128 0x5
 5889 006f 00       		.byte	0
 5890 0070 03       		.uleb128 0x3
 5891 0071 0E       		.uleb128 0xe
 5892 0072 3A       		.uleb128 0x3a
 5893 0073 0B       		.uleb128 0xb
 5894 0074 3B       		.uleb128 0x3b
 5895 0075 05       		.uleb128 0x5
 5896 0076 49       		.uleb128 0x49
 5897 0077 13       		.uleb128 0x13
 5898 0078 00       		.byte	0
 5899 0079 00       		.byte	0
 5900 007a 0B       		.uleb128 0xb
 5901 007b 2E       		.uleb128 0x2e
 5902 007c 00       		.byte	0
 5903 007d 3F       		.uleb128 0x3f
 5904 007e 19       		.uleb128 0x19
 5905 007f 03       		.uleb128 0x3
 5906 0080 0E       		.uleb128 0xe
 5907 0081 3A       		.uleb128 0x3a
ARM GAS  C:\Users\Yiquing\AppData\Local\Temp\ccsAoMV1.s 			page 168


 5908 0082 0B       		.uleb128 0xb
 5909 0083 3B       		.uleb128 0x3b
 5910 0084 05       		.uleb128 0x5
 5911 0085 27       		.uleb128 0x27
 5912 0086 19       		.uleb128 0x19
 5913 0087 49       		.uleb128 0x49
 5914 0088 13       		.uleb128 0x13
 5915 0089 20       		.uleb128 0x20
 5916 008a 0B       		.uleb128 0xb
 5917 008b 00       		.byte	0
 5918 008c 00       		.byte	0
 5919 008d 0C       		.uleb128 0xc
 5920 008e 2E       		.uleb128 0x2e
 5921 008f 01       		.byte	0x1
 5922 0090 03       		.uleb128 0x3
 5923 0091 0E       		.uleb128 0xe
 5924 0092 3A       		.uleb128 0x3a
 5925 0093 0B       		.uleb128 0xb
 5926 0094 3B       		.uleb128 0x3b
 5927 0095 05       		.uleb128 0x5
 5928 0096 27       		.uleb128 0x27
 5929 0097 19       		.uleb128 0x19
 5930 0098 20       		.uleb128 0x20
 5931 0099 0B       		.uleb128 0xb
 5932 009a 01       		.uleb128 0x1
 5933 009b 13       		.uleb128 0x13
 5934 009c 00       		.byte	0
 5935 009d 00       		.byte	0
 5936 009e 0D       		.uleb128 0xd
 5937 009f 34       		.uleb128 0x34
 5938 00a0 00       		.byte	0
 5939 00a1 03       		.uleb128 0x3
 5940 00a2 08       		.uleb128 0x8
 5941 00a3 3A       		.uleb128 0x3a
 5942 00a4 0B       		.uleb128 0xb
 5943 00a5 3B       		.uleb128 0x3b
 5944 00a6 05       		.uleb128 0x5
 5945 00a7 49       		.uleb128 0x49
 5946 00a8 13       		.uleb128 0x13
 5947 00a9 00       		.byte	0
 5948 00aa 00       		.byte	0
 5949 00ab 0E       		.uleb128 0xe
 5950 00ac 2E       		.uleb128 0x2e
 5951 00ad 00       		.byte	0
 5952 00ae 3F       		.uleb128 0x3f
 5953 00af 19       		.uleb128 0x19
 5954 00b0 03       		.uleb128 0x3
 5955 00b1 0E       		.uleb128 0xe
 5956 00b2 3A       		.uleb128 0x3a
 5957 00b3 0B       		.uleb128 0xb
 5958 00b4 3B       		.uleb128 0x3b
 5959 00b5 05       		.uleb128 0x5
 5960 00b6 27       		.uleb128 0x27
 5961 00b7 19       		.uleb128 0x19
 5962 00b8 20       		.uleb128 0x20
 5963 00b9 0B       		.uleb128 0xb
 5964 00ba 00       		.byte	0
ARM GAS  C:\Users\Yiquing\AppData\Local\Temp\ccsAoMV1.s 			page 169


 5965 00bb 00       		.byte	0
 5966 00bc 0F       		.uleb128 0xf
 5967 00bd 2E       		.uleb128 0x2e
 5968 00be 01       		.byte	0x1
 5969 00bf 03       		.uleb128 0x3
 5970 00c0 0E       		.uleb128 0xe
 5971 00c1 3A       		.uleb128 0x3a
 5972 00c2 0B       		.uleb128 0xb
 5973 00c3 3B       		.uleb128 0x3b
 5974 00c4 05       		.uleb128 0x5
 5975 00c5 27       		.uleb128 0x27
 5976 00c6 19       		.uleb128 0x19
 5977 00c7 49       		.uleb128 0x49
 5978 00c8 13       		.uleb128 0x13
 5979 00c9 20       		.uleb128 0x20
 5980 00ca 0B       		.uleb128 0xb
 5981 00cb 01       		.uleb128 0x1
 5982 00cc 13       		.uleb128 0x13
 5983 00cd 00       		.byte	0
 5984 00ce 00       		.byte	0
 5985 00cf 10       		.uleb128 0x10
 5986 00d0 34       		.uleb128 0x34
 5987 00d1 00       		.byte	0
 5988 00d2 03       		.uleb128 0x3
 5989 00d3 0E       		.uleb128 0xe
 5990 00d4 3A       		.uleb128 0x3a
 5991 00d5 0B       		.uleb128 0xb
 5992 00d6 3B       		.uleb128 0x3b
 5993 00d7 05       		.uleb128 0x5
 5994 00d8 49       		.uleb128 0x49
 5995 00d9 13       		.uleb128 0x13
 5996 00da 00       		.byte	0
 5997 00db 00       		.byte	0
 5998 00dc 11       		.uleb128 0x11
 5999 00dd 2E       		.uleb128 0x2e
 6000 00de 01       		.byte	0x1
 6001 00df 03       		.uleb128 0x3
 6002 00e0 0E       		.uleb128 0xe
 6003 00e1 3A       		.uleb128 0x3a
 6004 00e2 0B       		.uleb128 0xb
 6005 00e3 3B       		.uleb128 0x3b
 6006 00e4 05       		.uleb128 0x5
 6007 00e5 27       		.uleb128 0x27
 6008 00e6 19       		.uleb128 0x19
 6009 00e7 11       		.uleb128 0x11
 6010 00e8 01       		.uleb128 0x1
 6011 00e9 12       		.uleb128 0x12
 6012 00ea 06       		.uleb128 0x6
 6013 00eb 40       		.uleb128 0x40
 6014 00ec 18       		.uleb128 0x18
 6015 00ed 9742     		.uleb128 0x2117
 6016 00ef 19       		.uleb128 0x19
 6017 00f0 01       		.uleb128 0x1
 6018 00f1 13       		.uleb128 0x13
 6019 00f2 00       		.byte	0
 6020 00f3 00       		.byte	0
 6021 00f4 12       		.uleb128 0x12
ARM GAS  C:\Users\Yiquing\AppData\Local\Temp\ccsAoMV1.s 			page 170


 6022 00f5 05       		.uleb128 0x5
 6023 00f6 00       		.byte	0
 6024 00f7 03       		.uleb128 0x3
 6025 00f8 0E       		.uleb128 0xe
 6026 00f9 3A       		.uleb128 0x3a
 6027 00fa 0B       		.uleb128 0xb
 6028 00fb 3B       		.uleb128 0x3b
 6029 00fc 05       		.uleb128 0x5
 6030 00fd 49       		.uleb128 0x49
 6031 00fe 13       		.uleb128 0x13
 6032 00ff 02       		.uleb128 0x2
 6033 0100 18       		.uleb128 0x18
 6034 0101 00       		.byte	0
 6035 0102 00       		.byte	0
 6036 0103 13       		.uleb128 0x13
 6037 0104 34       		.uleb128 0x34
 6038 0105 00       		.byte	0
 6039 0106 03       		.uleb128 0x3
 6040 0107 0E       		.uleb128 0xe
 6041 0108 3A       		.uleb128 0x3a
 6042 0109 0B       		.uleb128 0xb
 6043 010a 3B       		.uleb128 0x3b
 6044 010b 05       		.uleb128 0x5
 6045 010c 49       		.uleb128 0x49
 6046 010d 13       		.uleb128 0x13
 6047 010e 02       		.uleb128 0x2
 6048 010f 18       		.uleb128 0x18
 6049 0110 00       		.byte	0
 6050 0111 00       		.byte	0
 6051 0112 14       		.uleb128 0x14
 6052 0113 1D       		.uleb128 0x1d
 6053 0114 01       		.byte	0x1
 6054 0115 31       		.uleb128 0x31
 6055 0116 13       		.uleb128 0x13
 6056 0117 11       		.uleb128 0x11
 6057 0118 01       		.uleb128 0x1
 6058 0119 12       		.uleb128 0x12
 6059 011a 06       		.uleb128 0x6
 6060 011b 58       		.uleb128 0x58
 6061 011c 0B       		.uleb128 0xb
 6062 011d 59       		.uleb128 0x59
 6063 011e 05       		.uleb128 0x5
 6064 011f 00       		.byte	0
 6065 0120 00       		.byte	0
 6066 0121 15       		.uleb128 0x15
 6067 0122 0B       		.uleb128 0xb
 6068 0123 01       		.byte	0x1
 6069 0124 11       		.uleb128 0x11
 6070 0125 01       		.uleb128 0x1
 6071 0126 12       		.uleb128 0x12
 6072 0127 06       		.uleb128 0x6
 6073 0128 00       		.byte	0
 6074 0129 00       		.byte	0
 6075 012a 16       		.uleb128 0x16
 6076 012b 34       		.uleb128 0x34
 6077 012c 00       		.byte	0
 6078 012d 31       		.uleb128 0x31
ARM GAS  C:\Users\Yiquing\AppData\Local\Temp\ccsAoMV1.s 			page 171


 6079 012e 13       		.uleb128 0x13
 6080 012f 02       		.uleb128 0x2
 6081 0130 17       		.uleb128 0x17
 6082 0131 00       		.byte	0
 6083 0132 00       		.byte	0
 6084 0133 17       		.uleb128 0x17
 6085 0134 05       		.uleb128 0x5
 6086 0135 00       		.byte	0
 6087 0136 03       		.uleb128 0x3
 6088 0137 0E       		.uleb128 0xe
 6089 0138 3A       		.uleb128 0x3a
 6090 0139 0B       		.uleb128 0xb
 6091 013a 3B       		.uleb128 0x3b
 6092 013b 05       		.uleb128 0x5
 6093 013c 49       		.uleb128 0x49
 6094 013d 13       		.uleb128 0x13
 6095 013e 02       		.uleb128 0x2
 6096 013f 17       		.uleb128 0x17
 6097 0140 00       		.byte	0
 6098 0141 00       		.byte	0
 6099 0142 18       		.uleb128 0x18
 6100 0143 2E       		.uleb128 0x2e
 6101 0144 00       		.byte	0
 6102 0145 3F       		.uleb128 0x3f
 6103 0146 19       		.uleb128 0x19
 6104 0147 03       		.uleb128 0x3
 6105 0148 0E       		.uleb128 0xe
 6106 0149 3A       		.uleb128 0x3a
 6107 014a 0B       		.uleb128 0xb
 6108 014b 3B       		.uleb128 0x3b
 6109 014c 0B       		.uleb128 0xb
 6110 014d 27       		.uleb128 0x27
 6111 014e 19       		.uleb128 0x19
 6112 014f 11       		.uleb128 0x11
 6113 0150 01       		.uleb128 0x1
 6114 0151 12       		.uleb128 0x12
 6115 0152 06       		.uleb128 0x6
 6116 0153 40       		.uleb128 0x40
 6117 0154 18       		.uleb128 0x18
 6118 0155 9742     		.uleb128 0x2117
 6119 0157 19       		.uleb128 0x19
 6120 0158 00       		.byte	0
 6121 0159 00       		.byte	0
 6122 015a 19       		.uleb128 0x19
 6123 015b 2E       		.uleb128 0x2e
 6124 015c 01       		.byte	0x1
 6125 015d 3F       		.uleb128 0x3f
 6126 015e 19       		.uleb128 0x19
 6127 015f 03       		.uleb128 0x3
 6128 0160 0E       		.uleb128 0xe
 6129 0161 3A       		.uleb128 0x3a
 6130 0162 0B       		.uleb128 0xb
 6131 0163 3B       		.uleb128 0x3b
 6132 0164 0B       		.uleb128 0xb
 6133 0165 27       		.uleb128 0x27
 6134 0166 19       		.uleb128 0x19
 6135 0167 11       		.uleb128 0x11
ARM GAS  C:\Users\Yiquing\AppData\Local\Temp\ccsAoMV1.s 			page 172


 6136 0168 01       		.uleb128 0x1
 6137 0169 12       		.uleb128 0x12
 6138 016a 06       		.uleb128 0x6
 6139 016b 40       		.uleb128 0x40
 6140 016c 18       		.uleb128 0x18
 6141 016d 9742     		.uleb128 0x2117
 6142 016f 19       		.uleb128 0x19
 6143 0170 01       		.uleb128 0x1
 6144 0171 13       		.uleb128 0x13
 6145 0172 00       		.byte	0
 6146 0173 00       		.byte	0
 6147 0174 1A       		.uleb128 0x1a
 6148 0175 05       		.uleb128 0x5
 6149 0176 00       		.byte	0
 6150 0177 03       		.uleb128 0x3
 6151 0178 0E       		.uleb128 0xe
 6152 0179 3A       		.uleb128 0x3a
 6153 017a 0B       		.uleb128 0xb
 6154 017b 3B       		.uleb128 0x3b
 6155 017c 0B       		.uleb128 0xb
 6156 017d 49       		.uleb128 0x49
 6157 017e 13       		.uleb128 0x13
 6158 017f 02       		.uleb128 0x2
 6159 0180 18       		.uleb128 0x18
 6160 0181 00       		.byte	0
 6161 0182 00       		.byte	0
 6162 0183 1B       		.uleb128 0x1b
 6163 0184 05       		.uleb128 0x5
 6164 0185 00       		.byte	0
 6165 0186 03       		.uleb128 0x3
 6166 0187 0E       		.uleb128 0xe
 6167 0188 3A       		.uleb128 0x3a
 6168 0189 0B       		.uleb128 0xb
 6169 018a 3B       		.uleb128 0x3b
 6170 018b 0B       		.uleb128 0xb
 6171 018c 49       		.uleb128 0x49
 6172 018d 13       		.uleb128 0x13
 6173 018e 02       		.uleb128 0x2
 6174 018f 17       		.uleb128 0x17
 6175 0190 00       		.byte	0
 6176 0191 00       		.byte	0
 6177 0192 1C       		.uleb128 0x1c
 6178 0193 2E       		.uleb128 0x2e
 6179 0194 00       		.byte	0
 6180 0195 3F       		.uleb128 0x3f
 6181 0196 19       		.uleb128 0x19
 6182 0197 03       		.uleb128 0x3
 6183 0198 0E       		.uleb128 0xe
 6184 0199 3A       		.uleb128 0x3a
 6185 019a 0B       		.uleb128 0xb
 6186 019b 3B       		.uleb128 0x3b
 6187 019c 05       		.uleb128 0x5
 6188 019d 27       		.uleb128 0x27
 6189 019e 19       		.uleb128 0x19
 6190 019f 11       		.uleb128 0x11
 6191 01a0 01       		.uleb128 0x1
 6192 01a1 12       		.uleb128 0x12
ARM GAS  C:\Users\Yiquing\AppData\Local\Temp\ccsAoMV1.s 			page 173


 6193 01a2 06       		.uleb128 0x6
 6194 01a3 40       		.uleb128 0x40
 6195 01a4 18       		.uleb128 0x18
 6196 01a5 9742     		.uleb128 0x2117
 6197 01a7 19       		.uleb128 0x19
 6198 01a8 00       		.byte	0
 6199 01a9 00       		.byte	0
 6200 01aa 1D       		.uleb128 0x1d
 6201 01ab 2E       		.uleb128 0x2e
 6202 01ac 01       		.byte	0x1
 6203 01ad 3F       		.uleb128 0x3f
 6204 01ae 19       		.uleb128 0x19
 6205 01af 03       		.uleb128 0x3
 6206 01b0 0E       		.uleb128 0xe
 6207 01b1 3A       		.uleb128 0x3a
 6208 01b2 0B       		.uleb128 0xb
 6209 01b3 3B       		.uleb128 0x3b
 6210 01b4 05       		.uleb128 0x5
 6211 01b5 27       		.uleb128 0x27
 6212 01b6 19       		.uleb128 0x19
 6213 01b7 11       		.uleb128 0x11
 6214 01b8 01       		.uleb128 0x1
 6215 01b9 12       		.uleb128 0x12
 6216 01ba 06       		.uleb128 0x6
 6217 01bb 40       		.uleb128 0x40
 6218 01bc 18       		.uleb128 0x18
 6219 01bd 9742     		.uleb128 0x2117
 6220 01bf 19       		.uleb128 0x19
 6221 01c0 01       		.uleb128 0x1
 6222 01c1 13       		.uleb128 0x13
 6223 01c2 00       		.byte	0
 6224 01c3 00       		.byte	0
 6225 01c4 1E       		.uleb128 0x1e
 6226 01c5 34       		.uleb128 0x34
 6227 01c6 00       		.byte	0
 6228 01c7 03       		.uleb128 0x3
 6229 01c8 0E       		.uleb128 0xe
 6230 01c9 3A       		.uleb128 0x3a
 6231 01ca 0B       		.uleb128 0xb
 6232 01cb 3B       		.uleb128 0x3b
 6233 01cc 05       		.uleb128 0x5
 6234 01cd 49       		.uleb128 0x49
 6235 01ce 13       		.uleb128 0x13
 6236 01cf 02       		.uleb128 0x2
 6237 01d0 17       		.uleb128 0x17
 6238 01d1 00       		.byte	0
 6239 01d2 00       		.byte	0
 6240 01d3 1F       		.uleb128 0x1f
 6241 01d4 898201   		.uleb128 0x4109
 6242 01d7 01       		.byte	0x1
 6243 01d8 11       		.uleb128 0x11
 6244 01d9 01       		.uleb128 0x1
 6245 01da 31       		.uleb128 0x31
 6246 01db 13       		.uleb128 0x13
 6247 01dc 01       		.uleb128 0x1
 6248 01dd 13       		.uleb128 0x13
 6249 01de 00       		.byte	0
ARM GAS  C:\Users\Yiquing\AppData\Local\Temp\ccsAoMV1.s 			page 174


 6250 01df 00       		.byte	0
 6251 01e0 20       		.uleb128 0x20
 6252 01e1 8A8201   		.uleb128 0x410a
 6253 01e4 00       		.byte	0
 6254 01e5 02       		.uleb128 0x2
 6255 01e6 18       		.uleb128 0x18
 6256 01e7 9142     		.uleb128 0x2111
 6257 01e9 18       		.uleb128 0x18
 6258 01ea 00       		.byte	0
 6259 01eb 00       		.byte	0
 6260 01ec 21       		.uleb128 0x21
 6261 01ed 898201   		.uleb128 0x4109
 6262 01f0 00       		.byte	0
 6263 01f1 11       		.uleb128 0x11
 6264 01f2 01       		.uleb128 0x1
 6265 01f3 31       		.uleb128 0x31
 6266 01f4 13       		.uleb128 0x13
 6267 01f5 00       		.byte	0
 6268 01f6 00       		.byte	0
 6269 01f7 22       		.uleb128 0x22
 6270 01f8 898201   		.uleb128 0x4109
 6271 01fb 00       		.byte	0
 6272 01fc 11       		.uleb128 0x11
 6273 01fd 01       		.uleb128 0x1
 6274 01fe 9542     		.uleb128 0x2115
 6275 0200 19       		.uleb128 0x19
 6276 0201 31       		.uleb128 0x31
 6277 0202 13       		.uleb128 0x13
 6278 0203 00       		.byte	0
 6279 0204 00       		.byte	0
 6280 0205 23       		.uleb128 0x23
 6281 0206 2E       		.uleb128 0x2e
 6282 0207 01       		.byte	0x1
 6283 0208 31       		.uleb128 0x31
 6284 0209 13       		.uleb128 0x13
 6285 020a 11       		.uleb128 0x11
 6286 020b 01       		.uleb128 0x1
 6287 020c 12       		.uleb128 0x12
 6288 020d 06       		.uleb128 0x6
 6289 020e 40       		.uleb128 0x40
 6290 020f 18       		.uleb128 0x18
 6291 0210 9742     		.uleb128 0x2117
 6292 0212 19       		.uleb128 0x19
 6293 0213 01       		.uleb128 0x1
 6294 0214 13       		.uleb128 0x13
 6295 0215 00       		.byte	0
 6296 0216 00       		.byte	0
 6297 0217 24       		.uleb128 0x24
 6298 0218 05       		.uleb128 0x5
 6299 0219 00       		.byte	0
 6300 021a 31       		.uleb128 0x31
 6301 021b 13       		.uleb128 0x13
 6302 021c 02       		.uleb128 0x2
 6303 021d 18       		.uleb128 0x18
 6304 021e 00       		.byte	0
 6305 021f 00       		.byte	0
 6306 0220 25       		.uleb128 0x25
ARM GAS  C:\Users\Yiquing\AppData\Local\Temp\ccsAoMV1.s 			page 175


 6307 0221 1D       		.uleb128 0x1d
 6308 0222 01       		.byte	0x1
 6309 0223 31       		.uleb128 0x31
 6310 0224 13       		.uleb128 0x13
 6311 0225 11       		.uleb128 0x11
 6312 0226 01       		.uleb128 0x1
 6313 0227 12       		.uleb128 0x12
 6314 0228 06       		.uleb128 0x6
 6315 0229 58       		.uleb128 0x58
 6316 022a 0B       		.uleb128 0xb
 6317 022b 59       		.uleb128 0x59
 6318 022c 05       		.uleb128 0x5
 6319 022d 01       		.uleb128 0x1
 6320 022e 13       		.uleb128 0x13
 6321 022f 00       		.byte	0
 6322 0230 00       		.byte	0
 6323 0231 26       		.uleb128 0x26
 6324 0232 05       		.uleb128 0x5
 6325 0233 00       		.byte	0
 6326 0234 31       		.uleb128 0x31
 6327 0235 13       		.uleb128 0x13
 6328 0236 02       		.uleb128 0x2
 6329 0237 17       		.uleb128 0x17
 6330 0238 00       		.byte	0
 6331 0239 00       		.byte	0
 6332 023a 27       		.uleb128 0x27
 6333 023b 2E       		.uleb128 0x2e
 6334 023c 01       		.byte	0x1
 6335 023d 3F       		.uleb128 0x3f
 6336 023e 19       		.uleb128 0x19
 6337 023f 03       		.uleb128 0x3
 6338 0240 0E       		.uleb128 0xe
 6339 0241 3A       		.uleb128 0x3a
 6340 0242 0B       		.uleb128 0xb
 6341 0243 3B       		.uleb128 0x3b
 6342 0244 0B       		.uleb128 0xb
 6343 0245 27       		.uleb128 0x27
 6344 0246 19       		.uleb128 0x19
 6345 0247 49       		.uleb128 0x49
 6346 0248 13       		.uleb128 0x13
 6347 0249 11       		.uleb128 0x11
 6348 024a 01       		.uleb128 0x1
 6349 024b 12       		.uleb128 0x12
 6350 024c 06       		.uleb128 0x6
 6351 024d 40       		.uleb128 0x40
 6352 024e 18       		.uleb128 0x18
 6353 024f 9742     		.uleb128 0x2117
 6354 0251 19       		.uleb128 0x19
 6355 0252 01       		.uleb128 0x1
 6356 0253 13       		.uleb128 0x13
 6357 0254 00       		.byte	0
 6358 0255 00       		.byte	0
 6359 0256 28       		.uleb128 0x28
 6360 0257 34       		.uleb128 0x34
 6361 0258 00       		.byte	0
 6362 0259 03       		.uleb128 0x3
 6363 025a 0E       		.uleb128 0xe
ARM GAS  C:\Users\Yiquing\AppData\Local\Temp\ccsAoMV1.s 			page 176


 6364 025b 3A       		.uleb128 0x3a
 6365 025c 0B       		.uleb128 0xb
 6366 025d 3B       		.uleb128 0x3b
 6367 025e 0B       		.uleb128 0xb
 6368 025f 49       		.uleb128 0x49
 6369 0260 13       		.uleb128 0x13
 6370 0261 02       		.uleb128 0x2
 6371 0262 17       		.uleb128 0x17
 6372 0263 00       		.byte	0
 6373 0264 00       		.byte	0
 6374 0265 29       		.uleb128 0x29
 6375 0266 2E       		.uleb128 0x2e
 6376 0267 01       		.byte	0x1
 6377 0268 3F       		.uleb128 0x3f
 6378 0269 19       		.uleb128 0x19
 6379 026a 03       		.uleb128 0x3
 6380 026b 0E       		.uleb128 0xe
 6381 026c 3A       		.uleb128 0x3a
 6382 026d 0B       		.uleb128 0xb
 6383 026e 3B       		.uleb128 0x3b
 6384 026f 05       		.uleb128 0x5
 6385 0270 27       		.uleb128 0x27
 6386 0271 19       		.uleb128 0x19
 6387 0272 49       		.uleb128 0x49
 6388 0273 13       		.uleb128 0x13
 6389 0274 11       		.uleb128 0x11
 6390 0275 01       		.uleb128 0x1
 6391 0276 12       		.uleb128 0x12
 6392 0277 06       		.uleb128 0x6
 6393 0278 40       		.uleb128 0x40
 6394 0279 18       		.uleb128 0x18
 6395 027a 9742     		.uleb128 0x2117
 6396 027c 19       		.uleb128 0x19
 6397 027d 01       		.uleb128 0x1
 6398 027e 13       		.uleb128 0x13
 6399 027f 00       		.byte	0
 6400 0280 00       		.byte	0
 6401 0281 2A       		.uleb128 0x2a
 6402 0282 2E       		.uleb128 0x2e
 6403 0283 00       		.byte	0
 6404 0284 31       		.uleb128 0x31
 6405 0285 13       		.uleb128 0x13
 6406 0286 11       		.uleb128 0x11
 6407 0287 01       		.uleb128 0x1
 6408 0288 12       		.uleb128 0x12
 6409 0289 06       		.uleb128 0x6
 6410 028a 40       		.uleb128 0x40
 6411 028b 18       		.uleb128 0x18
 6412 028c 9742     		.uleb128 0x2117
 6413 028e 19       		.uleb128 0x19
 6414 028f 00       		.byte	0
 6415 0290 00       		.byte	0
 6416 0291 2B       		.uleb128 0x2b
 6417 0292 2E       		.uleb128 0x2e
 6418 0293 00       		.byte	0
 6419 0294 3F       		.uleb128 0x3f
 6420 0295 19       		.uleb128 0x19
ARM GAS  C:\Users\Yiquing\AppData\Local\Temp\ccsAoMV1.s 			page 177


 6421 0296 03       		.uleb128 0x3
 6422 0297 0E       		.uleb128 0xe
 6423 0298 3A       		.uleb128 0x3a
 6424 0299 0B       		.uleb128 0xb
 6425 029a 3B       		.uleb128 0x3b
 6426 029b 05       		.uleb128 0x5
 6427 029c 27       		.uleb128 0x27
 6428 029d 19       		.uleb128 0x19
 6429 029e 49       		.uleb128 0x49
 6430 029f 13       		.uleb128 0x13
 6431 02a0 11       		.uleb128 0x11
 6432 02a1 01       		.uleb128 0x1
 6433 02a2 12       		.uleb128 0x12
 6434 02a3 06       		.uleb128 0x6
 6435 02a4 40       		.uleb128 0x40
 6436 02a5 18       		.uleb128 0x18
 6437 02a6 9742     		.uleb128 0x2117
 6438 02a8 19       		.uleb128 0x19
 6439 02a9 00       		.byte	0
 6440 02aa 00       		.byte	0
 6441 02ab 2C       		.uleb128 0x2c
 6442 02ac 898201   		.uleb128 0x4109
 6443 02af 01       		.byte	0x1
 6444 02b0 11       		.uleb128 0x11
 6445 02b1 01       		.uleb128 0x1
 6446 02b2 31       		.uleb128 0x31
 6447 02b3 13       		.uleb128 0x13
 6448 02b4 00       		.byte	0
 6449 02b5 00       		.byte	0
 6450 02b6 2D       		.uleb128 0x2d
 6451 02b7 34       		.uleb128 0x34
 6452 02b8 00       		.byte	0
 6453 02b9 03       		.uleb128 0x3
 6454 02ba 08       		.uleb128 0x8
 6455 02bb 3A       		.uleb128 0x3a
 6456 02bc 0B       		.uleb128 0xb
 6457 02bd 3B       		.uleb128 0x3b
 6458 02be 05       		.uleb128 0x5
 6459 02bf 49       		.uleb128 0x49
 6460 02c0 13       		.uleb128 0x13
 6461 02c1 02       		.uleb128 0x2
 6462 02c2 18       		.uleb128 0x18
 6463 02c3 00       		.byte	0
 6464 02c4 00       		.byte	0
 6465 02c5 2E       		.uleb128 0x2e
 6466 02c6 1D       		.uleb128 0x1d
 6467 02c7 00       		.byte	0
 6468 02c8 31       		.uleb128 0x31
 6469 02c9 13       		.uleb128 0x13
 6470 02ca 11       		.uleb128 0x11
 6471 02cb 01       		.uleb128 0x1
 6472 02cc 12       		.uleb128 0x12
 6473 02cd 06       		.uleb128 0x6
 6474 02ce 58       		.uleb128 0x58
 6475 02cf 0B       		.uleb128 0xb
 6476 02d0 59       		.uleb128 0x59
 6477 02d1 05       		.uleb128 0x5
ARM GAS  C:\Users\Yiquing\AppData\Local\Temp\ccsAoMV1.s 			page 178


 6478 02d2 00       		.byte	0
 6479 02d3 00       		.byte	0
 6480 02d4 2F       		.uleb128 0x2f
 6481 02d5 34       		.uleb128 0x34
 6482 02d6 00       		.byte	0
 6483 02d7 03       		.uleb128 0x3
 6484 02d8 0E       		.uleb128 0xe
 6485 02d9 3A       		.uleb128 0x3a
 6486 02da 0B       		.uleb128 0xb
 6487 02db 3B       		.uleb128 0x3b
 6488 02dc 05       		.uleb128 0x5
 6489 02dd 49       		.uleb128 0x49
 6490 02de 13       		.uleb128 0x13
 6491 02df 1C       		.uleb128 0x1c
 6492 02e0 0D       		.uleb128 0xd
 6493 02e1 00       		.byte	0
 6494 02e2 00       		.byte	0
 6495 02e3 30       		.uleb128 0x30
 6496 02e4 34       		.uleb128 0x34
 6497 02e5 00       		.byte	0
 6498 02e6 03       		.uleb128 0x3
 6499 02e7 08       		.uleb128 0x8
 6500 02e8 3A       		.uleb128 0x3a
 6501 02e9 0B       		.uleb128 0xb
 6502 02ea 3B       		.uleb128 0x3b
 6503 02eb 05       		.uleb128 0x5
 6504 02ec 49       		.uleb128 0x49
 6505 02ed 13       		.uleb128 0x13
 6506 02ee 02       		.uleb128 0x2
 6507 02ef 17       		.uleb128 0x17
 6508 02f0 00       		.byte	0
 6509 02f1 00       		.byte	0
 6510 02f2 31       		.uleb128 0x31
 6511 02f3 2E       		.uleb128 0x2e
 6512 02f4 01       		.byte	0x1
 6513 02f5 31       		.uleb128 0x31
 6514 02f6 13       		.uleb128 0x13
 6515 02f7 11       		.uleb128 0x11
 6516 02f8 01       		.uleb128 0x1
 6517 02f9 12       		.uleb128 0x12
 6518 02fa 06       		.uleb128 0x6
 6519 02fb 40       		.uleb128 0x40
 6520 02fc 18       		.uleb128 0x18
 6521 02fd 9642     		.uleb128 0x2116
 6522 02ff 19       		.uleb128 0x19
 6523 0300 01       		.uleb128 0x1
 6524 0301 13       		.uleb128 0x13
 6525 0302 00       		.byte	0
 6526 0303 00       		.byte	0
 6527 0304 32       		.uleb128 0x32
 6528 0305 34       		.uleb128 0x34
 6529 0306 00       		.byte	0
 6530 0307 31       		.uleb128 0x31
 6531 0308 13       		.uleb128 0x13
 6532 0309 00       		.byte	0
 6533 030a 00       		.byte	0
 6534 030b 33       		.uleb128 0x33
ARM GAS  C:\Users\Yiquing\AppData\Local\Temp\ccsAoMV1.s 			page 179


 6535 030c 0B       		.uleb128 0xb
 6536 030d 01       		.byte	0x1
 6537 030e 11       		.uleb128 0x11
 6538 030f 01       		.uleb128 0x1
 6539 0310 12       		.uleb128 0x12
 6540 0311 06       		.uleb128 0x6
 6541 0312 01       		.uleb128 0x1
 6542 0313 13       		.uleb128 0x13
 6543 0314 00       		.byte	0
 6544 0315 00       		.byte	0
 6545 0316 34       		.uleb128 0x34
 6546 0317 01       		.uleb128 0x1
 6547 0318 01       		.byte	0x1
 6548 0319 49       		.uleb128 0x49
 6549 031a 13       		.uleb128 0x13
 6550 031b 01       		.uleb128 0x1
 6551 031c 13       		.uleb128 0x13
 6552 031d 00       		.byte	0
 6553 031e 00       		.byte	0
 6554 031f 35       		.uleb128 0x35
 6555 0320 21       		.uleb128 0x21
 6556 0321 00       		.byte	0
 6557 0322 49       		.uleb128 0x49
 6558 0323 13       		.uleb128 0x13
 6559 0324 2F       		.uleb128 0x2f
 6560 0325 0B       		.uleb128 0xb
 6561 0326 00       		.byte	0
 6562 0327 00       		.byte	0
 6563 0328 36       		.uleb128 0x36
 6564 0329 34       		.uleb128 0x34
 6565 032a 00       		.byte	0
 6566 032b 03       		.uleb128 0x3
 6567 032c 0E       		.uleb128 0xe
 6568 032d 3A       		.uleb128 0x3a
 6569 032e 0B       		.uleb128 0xb
 6570 032f 3B       		.uleb128 0x3b
 6571 0330 0B       		.uleb128 0xb
 6572 0331 49       		.uleb128 0x49
 6573 0332 13       		.uleb128 0x13
 6574 0333 02       		.uleb128 0x2
 6575 0334 18       		.uleb128 0x18
 6576 0335 00       		.byte	0
 6577 0336 00       		.byte	0
 6578 0337 37       		.uleb128 0x37
 6579 0338 34       		.uleb128 0x34
 6580 0339 00       		.byte	0
 6581 033a 03       		.uleb128 0x3
 6582 033b 0E       		.uleb128 0xe
 6583 033c 3A       		.uleb128 0x3a
 6584 033d 0B       		.uleb128 0xb
 6585 033e 3B       		.uleb128 0x3b
 6586 033f 0B       		.uleb128 0xb
 6587 0340 49       		.uleb128 0x49
 6588 0341 13       		.uleb128 0x13
 6589 0342 3F       		.uleb128 0x3f
 6590 0343 19       		.uleb128 0x19
 6591 0344 02       		.uleb128 0x2
ARM GAS  C:\Users\Yiquing\AppData\Local\Temp\ccsAoMV1.s 			page 180


 6592 0345 18       		.uleb128 0x18
 6593 0346 00       		.byte	0
 6594 0347 00       		.byte	0
 6595 0348 38       		.uleb128 0x38
 6596 0349 2E       		.uleb128 0x2e
 6597 034a 00       		.byte	0
 6598 034b 3F       		.uleb128 0x3f
 6599 034c 19       		.uleb128 0x19
 6600 034d 03       		.uleb128 0x3
 6601 034e 0E       		.uleb128 0xe
 6602 034f 3A       		.uleb128 0x3a
 6603 0350 0B       		.uleb128 0xb
 6604 0351 3B       		.uleb128 0x3b
 6605 0352 0B       		.uleb128 0xb
 6606 0353 27       		.uleb128 0x27
 6607 0354 19       		.uleb128 0x19
 6608 0355 49       		.uleb128 0x49
 6609 0356 13       		.uleb128 0x13
 6610 0357 3C       		.uleb128 0x3c
 6611 0358 19       		.uleb128 0x19
 6612 0359 00       		.byte	0
 6613 035a 00       		.byte	0
 6614 035b 39       		.uleb128 0x39
 6615 035c 2E       		.uleb128 0x2e
 6616 035d 01       		.byte	0x1
 6617 035e 3F       		.uleb128 0x3f
 6618 035f 19       		.uleb128 0x19
 6619 0360 03       		.uleb128 0x3
 6620 0361 0E       		.uleb128 0xe
 6621 0362 3A       		.uleb128 0x3a
 6622 0363 0B       		.uleb128 0xb
 6623 0364 3B       		.uleb128 0x3b
 6624 0365 0B       		.uleb128 0xb
 6625 0366 27       		.uleb128 0x27
 6626 0367 19       		.uleb128 0x19
 6627 0368 3C       		.uleb128 0x3c
 6628 0369 19       		.uleb128 0x19
 6629 036a 01       		.uleb128 0x1
 6630 036b 13       		.uleb128 0x13
 6631 036c 00       		.byte	0
 6632 036d 00       		.byte	0
 6633 036e 3A       		.uleb128 0x3a
 6634 036f 05       		.uleb128 0x5
 6635 0370 00       		.byte	0
 6636 0371 49       		.uleb128 0x49
 6637 0372 13       		.uleb128 0x13
 6638 0373 00       		.byte	0
 6639 0374 00       		.byte	0
 6640 0375 3B       		.uleb128 0x3b
 6641 0376 2E       		.uleb128 0x2e
 6642 0377 01       		.byte	0x1
 6643 0378 3F       		.uleb128 0x3f
 6644 0379 19       		.uleb128 0x19
 6645 037a 03       		.uleb128 0x3
 6646 037b 0E       		.uleb128 0xe
 6647 037c 3A       		.uleb128 0x3a
 6648 037d 0B       		.uleb128 0xb
ARM GAS  C:\Users\Yiquing\AppData\Local\Temp\ccsAoMV1.s 			page 181


 6649 037e 3B       		.uleb128 0x3b
 6650 037f 0B       		.uleb128 0xb
 6651 0380 27       		.uleb128 0x27
 6652 0381 19       		.uleb128 0x19
 6653 0382 49       		.uleb128 0x49
 6654 0383 13       		.uleb128 0x13
 6655 0384 3C       		.uleb128 0x3c
 6656 0385 19       		.uleb128 0x19
 6657 0386 01       		.uleb128 0x1
 6658 0387 13       		.uleb128 0x13
 6659 0388 00       		.byte	0
 6660 0389 00       		.byte	0
 6661 038a 3C       		.uleb128 0x3c
 6662 038b 2E       		.uleb128 0x2e
 6663 038c 01       		.byte	0x1
 6664 038d 3F       		.uleb128 0x3f
 6665 038e 19       		.uleb128 0x19
 6666 038f 03       		.uleb128 0x3
 6667 0390 0E       		.uleb128 0xe
 6668 0391 3A       		.uleb128 0x3a
 6669 0392 0B       		.uleb128 0xb
 6670 0393 3B       		.uleb128 0x3b
 6671 0394 0B       		.uleb128 0xb
 6672 0395 27       		.uleb128 0x27
 6673 0396 19       		.uleb128 0x19
 6674 0397 3C       		.uleb128 0x3c
 6675 0398 19       		.uleb128 0x19
 6676 0399 00       		.byte	0
 6677 039a 00       		.byte	0
 6678 039b 00       		.byte	0
 6679              		.section	.debug_loc,"",%progbits
 6680              	.Ldebug_loc0:
 6681              	.LLST0:
 6682 0000 00000000 		.4byte	.LVL0
 6683 0004 28000000 		.4byte	.LVL1
 6684 0008 0200     		.2byte	0x2
 6685 000a 30       		.byte	0x30
 6686 000b 9F       		.byte	0x9f
 6687 000c 74000000 		.4byte	.LVL2
 6688 0010 82000000 		.4byte	.LVL3
 6689 0014 0200     		.2byte	0x2
 6690 0016 31       		.byte	0x31
 6691 0017 9F       		.byte	0x9f
 6692 0018 00000000 		.4byte	0
 6693 001c 00000000 		.4byte	0
 6694              	.LLST1:
 6695 0020 00000000 		.4byte	.LVL4
 6696 0024 20000000 		.4byte	.LVL5
 6697 0028 0100     		.2byte	0x1
 6698 002a 50       		.byte	0x50
 6699 002b 20000000 		.4byte	.LVL5
 6700 002f 3C000000 		.4byte	.LFE14
 6701 0033 0400     		.2byte	0x4
 6702 0035 F3       		.byte	0xf3
 6703 0036 01       		.uleb128 0x1
 6704 0037 50       		.byte	0x50
 6705 0038 9F       		.byte	0x9f
ARM GAS  C:\Users\Yiquing\AppData\Local\Temp\ccsAoMV1.s 			page 182


 6706 0039 00000000 		.4byte	0
 6707 003d 00000000 		.4byte	0
 6708              	.LLST2:
 6709 0041 00000000 		.4byte	.LVL6
 6710 0045 06000000 		.4byte	.LVL7
 6711 0049 0100     		.2byte	0x1
 6712 004b 51       		.byte	0x51
 6713 004c 06000000 		.4byte	.LVL7
 6714 0050 34000000 		.4byte	.LFE2
 6715 0054 0400     		.2byte	0x4
 6716 0056 F3       		.byte	0xf3
 6717 0057 01       		.uleb128 0x1
 6718 0058 51       		.byte	0x51
 6719 0059 9F       		.byte	0x9f
 6720 005a 00000000 		.4byte	0
 6721 005e 00000000 		.4byte	0
 6722              	.LLST3:
 6723 0062 00000000 		.4byte	.LVL6
 6724 0066 0E000000 		.4byte	.LVL8
 6725 006a 0100     		.2byte	0x1
 6726 006c 52       		.byte	0x52
 6727 006d 0E000000 		.4byte	.LVL8
 6728 0071 34000000 		.4byte	.LFE2
 6729 0075 0400     		.2byte	0x4
 6730 0077 F3       		.byte	0xf3
 6731 0078 01       		.uleb128 0x1
 6732 0079 52       		.byte	0x52
 6733 007a 9F       		.byte	0x9f
 6734 007b 00000000 		.4byte	0
 6735 007f 00000000 		.4byte	0
 6736              	.LLST4:
 6737 0083 00000000 		.4byte	.LVL9
 6738 0087 10000000 		.4byte	.LVL10
 6739 008b 0100     		.2byte	0x1
 6740 008d 50       		.byte	0x50
 6741 008e 10000000 		.4byte	.LVL10
 6742 0092 14000000 		.4byte	.LFE3
 6743 0096 0400     		.2byte	0x4
 6744 0098 F3       		.byte	0xf3
 6745 0099 01       		.uleb128 0x1
 6746 009a 50       		.byte	0x50
 6747 009b 9F       		.byte	0x9f
 6748 009c 00000000 		.4byte	0
 6749 00a0 00000000 		.4byte	0
 6750              	.LLST5:
 6751 00a4 00000000 		.4byte	.LVL12
 6752 00a8 30000000 		.4byte	.LVL18
 6753 00ac 0100     		.2byte	0x1
 6754 00ae 50       		.byte	0x50
 6755 00af 30000000 		.4byte	.LVL18
 6756 00b3 D8000000 		.4byte	.LFE8
 6757 00b7 0400     		.2byte	0x4
 6758 00b9 F3       		.byte	0xf3
 6759 00ba 01       		.uleb128 0x1
 6760 00bb 50       		.byte	0x50
 6761 00bc 9F       		.byte	0x9f
 6762 00bd 00000000 		.4byte	0
ARM GAS  C:\Users\Yiquing\AppData\Local\Temp\ccsAoMV1.s 			page 183


 6763 00c1 00000000 		.4byte	0
 6764              	.LLST6:
 6765 00c5 12000000 		.4byte	.LVL13
 6766 00c9 22000000 		.4byte	.LVL14
 6767 00cd 0100     		.2byte	0x1
 6768 00cf 54       		.byte	0x54
 6769 00d0 24000000 		.4byte	.LVL15
 6770 00d4 26000000 		.4byte	.LVL16
 6771 00d8 0200     		.2byte	0x2
 6772 00da 33       		.byte	0x33
 6773 00db 9F       		.byte	0x9f
 6774 00dc 26000000 		.4byte	.LVL16
 6775 00e0 34000000 		.4byte	.LVL19
 6776 00e4 0100     		.2byte	0x1
 6777 00e6 54       		.byte	0x54
 6778 00e7 00000000 		.4byte	0
 6779 00eb 00000000 		.4byte	0
 6780              	.LLST7:
 6781 00ef 12000000 		.4byte	.LVL13
 6782 00f3 CE000000 		.4byte	.LVL22
 6783 00f7 0100     		.2byte	0x1
 6784 00f9 56       		.byte	0x56
 6785 00fa CE000000 		.4byte	.LVL22
 6786 00fe D1000000 		.4byte	.LVL23-1
 6787 0102 0D00     		.2byte	0xd
 6788 0104 70       		.byte	0x70
 6789 0105 00       		.sleb128 0
 6790 0106 33       		.byte	0x33
 6791 0107 70       		.byte	0x70
 6792 0108 00       		.sleb128 0
 6793 0109 38       		.byte	0x38
 6794 010a 2E       		.byte	0x2e
 6795 010b 28       		.byte	0x28
 6796 010c 0100     		.2byte	0x1
 6797 010e 16       		.byte	0x16
 6798 010f 13       		.byte	0x13
 6799 0110 9F       		.byte	0x9f
 6800 0111 D2000000 		.4byte	.LVL23
 6801 0115 D4000000 		.4byte	.LVL24
 6802 0119 0100     		.2byte	0x1
 6803 011b 56       		.byte	0x56
 6804 011c 00000000 		.4byte	0
 6805 0120 00000000 		.4byte	0
 6806              	.LLST8:
 6807 0124 00000000 		.4byte	.LVL25
 6808 0128 06000000 		.4byte	.LVL26
 6809 012c 0100     		.2byte	0x1
 6810 012e 50       		.byte	0x50
 6811 012f 06000000 		.4byte	.LVL26
 6812 0133 18000000 		.4byte	.LFE12
 6813 0137 0400     		.2byte	0x4
 6814 0139 F3       		.byte	0xf3
 6815 013a 01       		.uleb128 0x1
 6816 013b 50       		.byte	0x50
 6817 013c 9F       		.byte	0x9f
 6818 013d 00000000 		.4byte	0
 6819 0141 00000000 		.4byte	0
ARM GAS  C:\Users\Yiquing\AppData\Local\Temp\ccsAoMV1.s 			page 184


 6820              	.LLST9:
 6821 0145 00000000 		.4byte	.LVL28
 6822 0149 07000000 		.4byte	.LVL29-1
 6823 014d 0100     		.2byte	0x1
 6824 014f 50       		.byte	0x50
 6825 0150 07000000 		.4byte	.LVL29-1
 6826 0154 70000000 		.4byte	.LFE15
 6827 0158 0400     		.2byte	0x4
 6828 015a F3       		.byte	0xf3
 6829 015b 01       		.uleb128 0x1
 6830 015c 50       		.byte	0x50
 6831 015d 9F       		.byte	0x9f
 6832 015e 00000000 		.4byte	0
 6833 0162 00000000 		.4byte	0
 6834              	.LLST10:
 6835 0166 26000000 		.4byte	.LVL34
 6836 016a 54000000 		.4byte	.LVL42
 6837 016e 0100     		.2byte	0x1
 6838 0170 56       		.byte	0x56
 6839 0171 00000000 		.4byte	0
 6840 0175 00000000 		.4byte	0
 6841              	.LLST11:
 6842 0179 14000000 		.4byte	.LVL31
 6843 017d 16000000 		.4byte	.LVL32
 6844 0181 0800     		.2byte	0x8
 6845 0183 72       		.byte	0x72
 6846 0184 00       		.sleb128 0
 6847 0185 08       		.byte	0x8
 6848 0186 FF       		.byte	0xff
 6849 0187 1A       		.byte	0x1a
 6850 0188 38       		.byte	0x38
 6851 0189 24       		.byte	0x24
 6852 018a 9F       		.byte	0x9f
 6853 018b 16000000 		.4byte	.LVL32
 6854 018f 1C000000 		.4byte	.LVL33
 6855 0193 0E00     		.2byte	0xe
 6856 0195 72       		.byte	0x72
 6857 0196 00       		.sleb128 0
 6858 0197 08       		.byte	0x8
 6859 0198 FF       		.byte	0xff
 6860 0199 1A       		.byte	0x1a
 6861 019a 38       		.byte	0x38
 6862 019b 24       		.byte	0x24
 6863 019c 73       		.byte	0x73
 6864 019d 00       		.sleb128 0
 6865 019e 08       		.byte	0x8
 6866 019f FF       		.byte	0xff
 6867 01a0 1A       		.byte	0x1a
 6868 01a1 21       		.byte	0x21
 6869 01a2 9F       		.byte	0x9f
 6870 01a3 00000000 		.4byte	0
 6871 01a7 00000000 		.4byte	0
 6872              	.LLST12:
 6873 01ab 0C000000 		.4byte	.LVL30
 6874 01af 34000000 		.4byte	.LVL36
 6875 01b3 0100     		.2byte	0x1
 6876 01b5 50       		.byte	0x50
ARM GAS  C:\Users\Yiquing\AppData\Local\Temp\ccsAoMV1.s 			page 185


 6877 01b6 34000000 		.4byte	.LVL36
 6878 01ba 40000000 		.4byte	.LVL38
 6879 01be 0100     		.2byte	0x1
 6880 01c0 57       		.byte	0x57
 6881 01c1 40000000 		.4byte	.LVL38
 6882 01c5 42000000 		.4byte	.LVL39
 6883 01c9 0100     		.2byte	0x1
 6884 01cb 50       		.byte	0x50
 6885 01cc 42000000 		.4byte	.LVL39
 6886 01d0 54000000 		.4byte	.LVL42
 6887 01d4 0100     		.2byte	0x1
 6888 01d6 57       		.byte	0x57
 6889 01d7 54000000 		.4byte	.LVL42
 6890 01db 56000000 		.4byte	.LVL43
 6891 01df 0100     		.2byte	0x1
 6892 01e1 50       		.byte	0x50
 6893 01e2 56000000 		.4byte	.LVL43
 6894 01e6 60000000 		.4byte	.LVL45
 6895 01ea 0100     		.2byte	0x1
 6896 01ec 57       		.byte	0x57
 6897 01ed 60000000 		.4byte	.LVL45
 6898 01f1 63000000 		.4byte	.LVL46-1
 6899 01f5 0100     		.2byte	0x1
 6900 01f7 50       		.byte	0x50
 6901 01f8 00000000 		.4byte	0
 6902 01fc 00000000 		.4byte	0
 6903              	.LLST13:
 6904 0200 28000000 		.4byte	.LVL35
 6905 0204 54000000 		.4byte	.LVL42
 6906 0208 0200     		.2byte	0x2
 6907 020a 37       		.byte	0x37
 6908 020b 9F       		.byte	0x9f
 6909 020c 00000000 		.4byte	0
 6910 0210 00000000 		.4byte	0
 6911              	.LLST14:
 6912 0214 4E000000 		.4byte	.LVL41
 6913 0218 54000000 		.4byte	.LVL42
 6914 021c 0100     		.2byte	0x1
 6915 021e 56       		.byte	0x56
 6916 021f 00000000 		.4byte	0
 6917 0223 00000000 		.4byte	0
 6918              	.LLST15:
 6919 0227 00000000 		.4byte	.LVL47
 6920 022b 06000000 		.4byte	.LVL48
 6921 022f 0100     		.2byte	0x1
 6922 0231 50       		.byte	0x50
 6923 0232 06000000 		.4byte	.LVL48
 6924 0236 18000000 		.4byte	.LFE16
 6925 023a 0400     		.2byte	0x4
 6926 023c F3       		.byte	0xf3
 6927 023d 01       		.uleb128 0x1
 6928 023e 50       		.byte	0x50
 6929 023f 9F       		.byte	0x9f
 6930 0240 00000000 		.4byte	0
 6931 0244 00000000 		.4byte	0
 6932              	.LLST16:
 6933 0248 00000000 		.4byte	.LVL49
ARM GAS  C:\Users\Yiquing\AppData\Local\Temp\ccsAoMV1.s 			page 186


 6934 024c 14000000 		.4byte	.LVL50
 6935 0250 0100     		.2byte	0x1
 6936 0252 50       		.byte	0x50
 6937 0253 14000000 		.4byte	.LVL50
 6938 0257 62000000 		.4byte	.LVL58
 6939 025b 0400     		.2byte	0x4
 6940 025d F3       		.byte	0xf3
 6941 025e 01       		.uleb128 0x1
 6942 025f 50       		.byte	0x50
 6943 0260 9F       		.byte	0x9f
 6944 0261 62000000 		.4byte	.LVL58
 6945 0265 64000000 		.4byte	.LVL59
 6946 0269 0100     		.2byte	0x1
 6947 026b 50       		.byte	0x50
 6948 026c 64000000 		.4byte	.LVL59
 6949 0270 7C000000 		.4byte	.LFE0
 6950 0274 0400     		.2byte	0x4
 6951 0276 F3       		.byte	0xf3
 6952 0277 01       		.uleb128 0x1
 6953 0278 50       		.byte	0x50
 6954 0279 9F       		.byte	0x9f
 6955 027a 00000000 		.4byte	0
 6956 027e 00000000 		.4byte	0
 6957              	.LLST17:
 6958 0282 00000000 		.4byte	.LVL49
 6959 0286 2E000000 		.4byte	.LVL54
 6960 028a 0200     		.2byte	0x2
 6961 028c 30       		.byte	0x30
 6962 028d 9F       		.byte	0x9f
 6963 028e 2E000000 		.4byte	.LVL54
 6964 0292 50000000 		.4byte	.LVL56
 6965 0296 0200     		.2byte	0x2
 6966 0298 40       		.byte	0x40
 6967 0299 9F       		.byte	0x9f
 6968 029a 50000000 		.4byte	.LVL56
 6969 029e 62000000 		.4byte	.LVL58
 6970 02a2 0100     		.2byte	0x1
 6971 02a4 54       		.byte	0x54
 6972 02a5 62000000 		.4byte	.LVL58
 6973 02a9 64000000 		.4byte	.LVL59
 6974 02ad 0200     		.2byte	0x2
 6975 02af 30       		.byte	0x30
 6976 02b0 9F       		.byte	0x9f
 6977 02b1 64000000 		.4byte	.LVL59
 6978 02b5 6A000000 		.4byte	.LVL60
 6979 02b9 0100     		.2byte	0x1
 6980 02bb 54       		.byte	0x54
 6981 02bc 6A000000 		.4byte	.LVL60
 6982 02c0 7C000000 		.4byte	.LFE0
 6983 02c4 0100     		.2byte	0x1
 6984 02c6 50       		.byte	0x50
 6985 02c7 00000000 		.4byte	0
 6986 02cb 00000000 		.4byte	0
 6987              	.LLST18:
 6988 02cf 2A000000 		.4byte	.LVL52
 6989 02d3 62000000 		.4byte	.LVL58
 6990 02d7 0100     		.2byte	0x1
ARM GAS  C:\Users\Yiquing\AppData\Local\Temp\ccsAoMV1.s 			page 187


 6991 02d9 58       		.byte	0x58
 6992 02da 00000000 		.4byte	0
 6993 02de 00000000 		.4byte	0
 6994              	.LLST19:
 6995 02e2 2C000000 		.4byte	.LVL53
 6996 02e6 62000000 		.4byte	.LVL58
 6997 02ea 0100     		.2byte	0x1
 6998 02ec 57       		.byte	0x57
 6999 02ed 00000000 		.4byte	0
 7000 02f1 00000000 		.4byte	0
 7001              	.LLST20:
 7002 02f5 2E000000 		.4byte	.LVL54
 7003 02f9 62000000 		.4byte	.LVL58
 7004 02fd 0100     		.2byte	0x1
 7005 02ff 56       		.byte	0x56
 7006 0300 00000000 		.4byte	0
 7007 0304 00000000 		.4byte	0
 7008              	.LLST21:
 7009 0308 00000000 		.4byte	.LVL61
 7010 030c 2C000000 		.4byte	.LVL62
 7011 0310 0100     		.2byte	0x1
 7012 0312 50       		.byte	0x50
 7013 0313 2C000000 		.4byte	.LVL62
 7014 0317 5C000000 		.4byte	.LFE4
 7015 031b 0400     		.2byte	0x4
 7016 031d F3       		.byte	0xf3
 7017 031e 01       		.uleb128 0x1
 7018 031f 50       		.byte	0x50
 7019 0320 9F       		.byte	0x9f
 7020 0321 00000000 		.4byte	0
 7021 0325 00000000 		.4byte	0
 7022              	.LLST22:
 7023 0329 32000000 		.4byte	.LVL65
 7024 032d 4C000000 		.4byte	.LVL69
 7025 0331 0100     		.2byte	0x1
 7026 0333 55       		.byte	0x55
 7027 0334 00000000 		.4byte	0
 7028 0338 00000000 		.4byte	0
 7029              	.LLST23:
 7030 033c 30000000 		.4byte	.LVL64
 7031 0340 4C000000 		.4byte	.LVL69
 7032 0344 0100     		.2byte	0x1
 7033 0346 56       		.byte	0x56
 7034 0347 00000000 		.4byte	0
 7035 034b 00000000 		.4byte	0
 7036              	.LLST24:
 7037 034f 2E000000 		.4byte	.LVL63
 7038 0353 4C000000 		.4byte	.LVL69
 7039 0357 0100     		.2byte	0x1
 7040 0359 57       		.byte	0x57
 7041 035a 00000000 		.4byte	0
 7042 035e 00000000 		.4byte	0
 7043              	.LLST25:
 7044 0362 00000000 		.4byte	.LVL70
 7045 0366 08000000 		.4byte	.LVL71
 7046 036a 0100     		.2byte	0x1
 7047 036c 50       		.byte	0x50
ARM GAS  C:\Users\Yiquing\AppData\Local\Temp\ccsAoMV1.s 			page 188


 7048 036d 08000000 		.4byte	.LVL71
 7049 0371 16000000 		.4byte	.LFE23
 7050 0375 0400     		.2byte	0x4
 7051 0377 F3       		.byte	0xf3
 7052 0378 01       		.uleb128 0x1
 7053 0379 50       		.byte	0x50
 7054 037a 9F       		.byte	0x9f
 7055 037b 00000000 		.4byte	0
 7056 037f 00000000 		.4byte	0
 7057              	.LLST26:
 7058 0383 00000000 		.4byte	.LVL72
 7059 0387 18000000 		.4byte	.LVL74
 7060 038b 0100     		.2byte	0x1
 7061 038d 50       		.byte	0x50
 7062 038e 18000000 		.4byte	.LVL74
 7063 0392 20000000 		.4byte	.LFE24
 7064 0396 0400     		.2byte	0x4
 7065 0398 F3       		.byte	0xf3
 7066 0399 01       		.uleb128 0x1
 7067 039a 50       		.byte	0x50
 7068 039b 9F       		.byte	0x9f
 7069 039c 00000000 		.4byte	0
 7070 03a0 00000000 		.4byte	0
 7071              	.LLST27:
 7072 03a4 00000000 		.4byte	.LVL75
 7073 03a8 1C000000 		.4byte	.LVL76
 7074 03ac 0100     		.2byte	0x1
 7075 03ae 50       		.byte	0x50
 7076 03af 1C000000 		.4byte	.LVL76
 7077 03b3 8C000000 		.4byte	.LVL84
 7078 03b7 0400     		.2byte	0x4
 7079 03b9 F3       		.byte	0xf3
 7080 03ba 01       		.uleb128 0x1
 7081 03bb 50       		.byte	0x50
 7082 03bc 9F       		.byte	0x9f
 7083 03bd 8C000000 		.4byte	.LVL84
 7084 03c1 8E000000 		.4byte	.LVL85
 7085 03c5 0100     		.2byte	0x1
 7086 03c7 50       		.byte	0x50
 7087 03c8 8E000000 		.4byte	.LVL85
 7088 03cc A4000000 		.4byte	.LFE29
 7089 03d0 0400     		.2byte	0x4
 7090 03d2 F3       		.byte	0xf3
 7091 03d3 01       		.uleb128 0x1
 7092 03d4 50       		.byte	0x50
 7093 03d5 9F       		.byte	0x9f
 7094 03d6 00000000 		.4byte	0
 7095 03da 00000000 		.4byte	0
 7096              	.LLST28:
 7097 03de 00000000 		.4byte	.LVL75
 7098 03e2 34000000 		.4byte	.LVL80
 7099 03e6 0200     		.2byte	0x2
 7100 03e8 30       		.byte	0x30
 7101 03e9 9F       		.byte	0x9f
 7102 03ea 34000000 		.4byte	.LVL80
 7103 03ee 78000000 		.4byte	.LVL82
 7104 03f2 0200     		.2byte	0x2
ARM GAS  C:\Users\Yiquing\AppData\Local\Temp\ccsAoMV1.s 			page 189


 7105 03f4 40       		.byte	0x40
 7106 03f5 9F       		.byte	0x9f
 7107 03f6 78000000 		.4byte	.LVL82
 7108 03fa 8C000000 		.4byte	.LVL84
 7109 03fe 0100     		.2byte	0x1
 7110 0400 54       		.byte	0x54
 7111 0401 8C000000 		.4byte	.LVL84
 7112 0405 8E000000 		.4byte	.LVL85
 7113 0409 0200     		.2byte	0x2
 7114 040b 30       		.byte	0x30
 7115 040c 9F       		.byte	0x9f
 7116 040d 8E000000 		.4byte	.LVL85
 7117 0411 96000000 		.4byte	.LVL86
 7118 0415 0100     		.2byte	0x1
 7119 0417 54       		.byte	0x54
 7120 0418 96000000 		.4byte	.LVL86
 7121 041c A4000000 		.4byte	.LFE29
 7122 0420 0100     		.2byte	0x1
 7123 0422 50       		.byte	0x50
 7124 0423 00000000 		.4byte	0
 7125 0427 00000000 		.4byte	0
 7126              	.LLST29:
 7127 042b 2E000000 		.4byte	.LVL78
 7128 042f 8C000000 		.4byte	.LVL84
 7129 0433 0100     		.2byte	0x1
 7130 0435 59       		.byte	0x59
 7131 0436 00000000 		.4byte	0
 7132 043a 00000000 		.4byte	0
 7133              	.LLST30:
 7134 043e 32000000 		.4byte	.LVL79
 7135 0442 8C000000 		.4byte	.LVL84
 7136 0446 0100     		.2byte	0x1
 7137 0448 58       		.byte	0x58
 7138 0449 00000000 		.4byte	0
 7139 044d 00000000 		.4byte	0
 7140              	.LLST31:
 7141 0451 34000000 		.4byte	.LVL80
 7142 0455 8C000000 		.4byte	.LVL84
 7143 0459 0100     		.2byte	0x1
 7144 045b 57       		.byte	0x57
 7145 045c 00000000 		.4byte	0
 7146 0460 00000000 		.4byte	0
 7147              	.LLST32:
 7148 0464 00000000 		.4byte	.LVL87
 7149 0468 06000000 		.4byte	.LVL88
 7150 046c 0100     		.2byte	0x1
 7151 046e 50       		.byte	0x50
 7152 046f 06000000 		.4byte	.LVL88
 7153 0473 18000000 		.4byte	.LFE36
 7154 0477 0400     		.2byte	0x4
 7155 0479 F3       		.byte	0xf3
 7156 047a 01       		.uleb128 0x1
 7157 047b 50       		.byte	0x50
 7158 047c 9F       		.byte	0x9f
 7159 047d 00000000 		.4byte	0
 7160 0481 00000000 		.4byte	0
 7161              	.LLST33:
ARM GAS  C:\Users\Yiquing\AppData\Local\Temp\ccsAoMV1.s 			page 190


 7162 0485 00000000 		.4byte	.LVL89
 7163 0489 06000000 		.4byte	.LVL90
 7164 048d 0100     		.2byte	0x1
 7165 048f 50       		.byte	0x50
 7166 0490 06000000 		.4byte	.LVL90
 7167 0494 18000000 		.4byte	.LFE37
 7168 0498 0400     		.2byte	0x4
 7169 049a F3       		.byte	0xf3
 7170 049b 01       		.uleb128 0x1
 7171 049c 50       		.byte	0x50
 7172 049d 9F       		.byte	0x9f
 7173 049e 00000000 		.4byte	0
 7174 04a2 00000000 		.4byte	0
 7175              	.LLST34:
 7176 04a6 00000000 		.4byte	.LVL91
 7177 04aa 04000000 		.4byte	.LVL92
 7178 04ae 0100     		.2byte	0x1
 7179 04b0 50       		.byte	0x50
 7180 04b1 04000000 		.4byte	.LVL92
 7181 04b5 18000000 		.4byte	.LFE38
 7182 04b9 0400     		.2byte	0x4
 7183 04bb F3       		.byte	0xf3
 7184 04bc 01       		.uleb128 0x1
 7185 04bd 50       		.byte	0x50
 7186 04be 9F       		.byte	0x9f
 7187 04bf 00000000 		.4byte	0
 7188 04c3 00000000 		.4byte	0
 7189              	.LLST35:
 7190 04c7 00000000 		.4byte	.LVL94
 7191 04cb 04000000 		.4byte	.LVL95
 7192 04cf 0100     		.2byte	0x1
 7193 04d1 50       		.byte	0x50
 7194 04d2 04000000 		.4byte	.LVL95
 7195 04d6 20000000 		.4byte	.LVL98
 7196 04da 0100     		.2byte	0x1
 7197 04dc 54       		.byte	0x54
 7198 04dd 00000000 		.4byte	0
 7199 04e1 00000000 		.4byte	0
 7200              	.LLST36:
 7201 04e5 00000000 		.4byte	.LVL100
 7202 04e9 06000000 		.4byte	.LVL101
 7203 04ed 0100     		.2byte	0x1
 7204 04ef 50       		.byte	0x50
 7205 04f0 06000000 		.4byte	.LVL101
 7206 04f4 10000000 		.4byte	.LFE42
 7207 04f8 0400     		.2byte	0x4
 7208 04fa F3       		.byte	0xf3
 7209 04fb 01       		.uleb128 0x1
 7210 04fc 50       		.byte	0x50
 7211 04fd 9F       		.byte	0x9f
 7212 04fe 00000000 		.4byte	0
 7213 0502 00000000 		.4byte	0
 7214              	.LLST37:
 7215 0506 00000000 		.4byte	.LVL103
 7216 050a 1E000000 		.4byte	.LVL105
 7217 050e 0100     		.2byte	0x1
 7218 0510 50       		.byte	0x50
ARM GAS  C:\Users\Yiquing\AppData\Local\Temp\ccsAoMV1.s 			page 191


 7219 0511 1E000000 		.4byte	.LVL105
 7220 0515 21000000 		.4byte	.LVL106-1
 7221 0519 0200     		.2byte	0x2
 7222 051b 73       		.byte	0x73
 7223 051c 00       		.sleb128 0
 7224 051d 21000000 		.4byte	.LVL106-1
 7225 0521 3C000000 		.4byte	.LVL108
 7226 0525 0400     		.2byte	0x4
 7227 0527 F3       		.byte	0xf3
 7228 0528 01       		.uleb128 0x1
 7229 0529 50       		.byte	0x50
 7230 052a 9F       		.byte	0x9f
 7231 052b 3C000000 		.4byte	.LVL108
 7232 052f 42000000 		.4byte	.LVL109
 7233 0533 0100     		.2byte	0x1
 7234 0535 50       		.byte	0x50
 7235 0536 42000000 		.4byte	.LVL109
 7236 053a 6C000000 		.4byte	.LFE28
 7237 053e 0400     		.2byte	0x4
 7238 0540 F3       		.byte	0xf3
 7239 0541 01       		.uleb128 0x1
 7240 0542 50       		.byte	0x50
 7241 0543 9F       		.byte	0x9f
 7242 0544 00000000 		.4byte	0
 7243 0548 00000000 		.4byte	0
 7244              	.LLST38:
 7245 054c 12000000 		.4byte	.LVL104
 7246 0550 5E000000 		.4byte	.LVL111
 7247 0554 0100     		.2byte	0x1
 7248 0556 56       		.byte	0x56
 7249 0557 5E000000 		.4byte	.LVL111
 7250 055b 6C000000 		.4byte	.LFE28
 7251 055f 0100     		.2byte	0x1
 7252 0561 50       		.byte	0x50
 7253 0562 00000000 		.4byte	0
 7254 0566 00000000 		.4byte	0
 7255              	.LLST39:
 7256 056a 00000000 		.4byte	.LVL114
 7257 056e 10000000 		.4byte	.LVL115
 7258 0572 0100     		.2byte	0x1
 7259 0574 50       		.byte	0x50
 7260 0575 10000000 		.4byte	.LVL115
 7261 0579 40000000 		.4byte	.LFE43
 7262 057d 0400     		.2byte	0x4
 7263 057f F3       		.byte	0xf3
 7264 0580 01       		.uleb128 0x1
 7265 0581 50       		.byte	0x50
 7266 0582 9F       		.byte	0x9f
 7267 0583 00000000 		.4byte	0
 7268 0587 00000000 		.4byte	0
 7269              	.LLST40:
 7270 058b 00000000 		.4byte	.LVL116
 7271 058f 06000000 		.4byte	.LVL117
 7272 0593 0100     		.2byte	0x1
 7273 0595 50       		.byte	0x50
 7274 0596 06000000 		.4byte	.LVL117
 7275 059a 40000000 		.4byte	.LFE44
ARM GAS  C:\Users\Yiquing\AppData\Local\Temp\ccsAoMV1.s 			page 192


 7276 059e 0400     		.2byte	0x4
 7277 05a0 F3       		.byte	0xf3
 7278 05a1 01       		.uleb128 0x1
 7279 05a2 50       		.byte	0x50
 7280 05a3 9F       		.byte	0x9f
 7281 05a4 00000000 		.4byte	0
 7282 05a8 00000000 		.4byte	0
 7283              	.LLST41:
 7284 05ac 00000000 		.4byte	.LVL116
 7285 05b0 0A000000 		.4byte	.LVL118
 7286 05b4 0100     		.2byte	0x1
 7287 05b6 51       		.byte	0x51
 7288 05b7 0A000000 		.4byte	.LVL118
 7289 05bb 40000000 		.4byte	.LFE44
 7290 05bf 0400     		.2byte	0x4
 7291 05c1 F3       		.byte	0xf3
 7292 05c2 01       		.uleb128 0x1
 7293 05c3 51       		.byte	0x51
 7294 05c4 9F       		.byte	0x9f
 7295 05c5 00000000 		.4byte	0
 7296 05c9 00000000 		.4byte	0
 7297              	.LLST42:
 7298 05cd 00000000 		.4byte	.LVL119
 7299 05d1 07000000 		.4byte	.LVL120-1
 7300 05d5 0100     		.2byte	0x1
 7301 05d7 50       		.byte	0x50
 7302 05d8 07000000 		.4byte	.LVL120-1
 7303 05dc 2C000000 		.4byte	.LFE52
 7304 05e0 0400     		.2byte	0x4
 7305 05e2 F3       		.byte	0xf3
 7306 05e3 01       		.uleb128 0x1
 7307 05e4 50       		.byte	0x50
 7308 05e5 9F       		.byte	0x9f
 7309 05e6 00000000 		.4byte	0
 7310 05ea 00000000 		.4byte	0
 7311              	.LLST43:
 7312 05ee 08000000 		.4byte	.LVL120
 7313 05f2 1B000000 		.4byte	.LVL122-1
 7314 05f6 0100     		.2byte	0x1
 7315 05f8 50       		.byte	0x50
 7316 05f9 00000000 		.4byte	0
 7317 05fd 00000000 		.4byte	0
 7318              	.LLST44:
 7319 0601 12000000 		.4byte	.LVL121
 7320 0605 22000000 		.4byte	.LVL123
 7321 0609 0500     		.2byte	0x5
 7322 060b 74       		.byte	0x74
 7323 060c 00       		.sleb128 0
 7324 060d 37       		.byte	0x37
 7325 060e 1A       		.byte	0x1a
 7326 060f 9F       		.byte	0x9f
 7327 0610 00000000 		.4byte	0
 7328 0614 00000000 		.4byte	0
 7329              	.LLST45:
 7330 0618 00000000 		.4byte	.LVL124
 7331 061c 0B000000 		.4byte	.LVL125-1
 7332 0620 0100     		.2byte	0x1
ARM GAS  C:\Users\Yiquing\AppData\Local\Temp\ccsAoMV1.s 			page 193


 7333 0622 50       		.byte	0x50
 7334 0623 0B000000 		.4byte	.LVL125-1
 7335 0627 84000000 		.4byte	.LFE46
 7336 062b 0400     		.2byte	0x4
 7337 062d F3       		.byte	0xf3
 7338 062e 01       		.uleb128 0x1
 7339 062f 50       		.byte	0x50
 7340 0630 9F       		.byte	0x9f
 7341 0631 00000000 		.4byte	0
 7342 0635 00000000 		.4byte	0
 7343              	.LLST46:
 7344 0639 00000000 		.4byte	.LVL124
 7345 063d 0B000000 		.4byte	.LVL125-1
 7346 0641 0100     		.2byte	0x1
 7347 0643 51       		.byte	0x51
 7348 0644 0B000000 		.4byte	.LVL125-1
 7349 0648 84000000 		.4byte	.LFE46
 7350 064c 0400     		.2byte	0x4
 7351 064e F3       		.byte	0xf3
 7352 064f 01       		.uleb128 0x1
 7353 0650 51       		.byte	0x51
 7354 0651 9F       		.byte	0x9f
 7355 0652 00000000 		.4byte	0
 7356 0656 00000000 		.4byte	0
 7357              	.LLST47:
 7358 065a 3E000000 		.4byte	.LVL128
 7359 065e 6E000000 		.4byte	.LVL131
 7360 0662 0100     		.2byte	0x1
 7361 0664 57       		.byte	0x57
 7362 0665 6E000000 		.4byte	.LVL131
 7363 0669 71000000 		.4byte	.LVL132-1
 7364 066d 0600     		.2byte	0x6
 7365 066f 11       		.byte	0x11
 7366 0670 80C28380 		.sleb128 -536813312
 7366      7E
 7367 0675 00000000 		.4byte	0
 7368 0679 00000000 		.4byte	0
 7369              	.LLST48:
 7370 067d 28000000 		.4byte	.LVL126
 7371 0681 2C000000 		.4byte	.LVL127
 7372 0685 0100     		.2byte	0x1
 7373 0687 50       		.byte	0x50
 7374 0688 2C000000 		.4byte	.LVL127
 7375 068c 6E000000 		.4byte	.LVL131
 7376 0690 0100     		.2byte	0x1
 7377 0692 58       		.byte	0x58
 7378 0693 6E000000 		.4byte	.LVL131
 7379 0697 71000000 		.4byte	.LVL132-1
 7380 069b 0100     		.2byte	0x1
 7381 069d 50       		.byte	0x50
 7382 069e 00000000 		.4byte	0
 7383 06a2 00000000 		.4byte	0
 7384              	.LLST49:
 7385 06a6 00000000 		.4byte	.LVL133
 7386 06aa 0B000000 		.4byte	.LVL134-1
 7387 06ae 0100     		.2byte	0x1
 7388 06b0 50       		.byte	0x50
ARM GAS  C:\Users\Yiquing\AppData\Local\Temp\ccsAoMV1.s 			page 194


 7389 06b1 0B000000 		.4byte	.LVL134-1
 7390 06b5 88000000 		.4byte	.LFE47
 7391 06b9 0400     		.2byte	0x4
 7392 06bb F3       		.byte	0xf3
 7393 06bc 01       		.uleb128 0x1
 7394 06bd 50       		.byte	0x50
 7395 06be 9F       		.byte	0x9f
 7396 06bf 00000000 		.4byte	0
 7397 06c3 00000000 		.4byte	0
 7398              	.LLST50:
 7399 06c7 00000000 		.4byte	.LVL133
 7400 06cb 0B000000 		.4byte	.LVL134-1
 7401 06cf 0100     		.2byte	0x1
 7402 06d1 51       		.byte	0x51
 7403 06d2 0B000000 		.4byte	.LVL134-1
 7404 06d6 88000000 		.4byte	.LFE47
 7405 06da 0400     		.2byte	0x4
 7406 06dc F3       		.byte	0xf3
 7407 06dd 01       		.uleb128 0x1
 7408 06de 51       		.byte	0x51
 7409 06df 9F       		.byte	0x9f
 7410 06e0 00000000 		.4byte	0
 7411 06e4 00000000 		.4byte	0
 7412              	.LLST51:
 7413 06e8 20000000 		.4byte	.LVL137
 7414 06ec 6E000000 		.4byte	.LVL140
 7415 06f0 0100     		.2byte	0x1
 7416 06f2 56       		.byte	0x56
 7417 06f3 6E000000 		.4byte	.LVL140
 7418 06f7 71000000 		.4byte	.LVL141-1
 7419 06fb 0200     		.2byte	0x2
 7420 06fd 73       		.byte	0x73
 7421 06fe 00       		.sleb128 0
 7422 06ff 00000000 		.4byte	0
 7423 0703 00000000 		.4byte	0
 7424              	.LLST52:
 7425 0707 14000000 		.4byte	.LVL135
 7426 070b 16000000 		.4byte	.LVL136
 7427 070f 0100     		.2byte	0x1
 7428 0711 50       		.byte	0x50
 7429 0712 16000000 		.4byte	.LVL136
 7430 0716 6E000000 		.4byte	.LVL140
 7431 071a 0100     		.2byte	0x1
 7432 071c 57       		.byte	0x57
 7433 071d 6E000000 		.4byte	.LVL140
 7434 0721 71000000 		.4byte	.LVL141-1
 7435 0725 0100     		.2byte	0x1
 7436 0727 50       		.byte	0x50
 7437 0728 00000000 		.4byte	0
 7438 072c 00000000 		.4byte	0
 7439              	.LLST53:
 7440 0730 26000000 		.4byte	.LVL148
 7441 0734 44000000 		.4byte	.LVL151
 7442 0738 0100     		.2byte	0x1
 7443 073a 56       		.byte	0x56
 7444 073b 44000000 		.4byte	.LVL151
 7445 073f 47000000 		.4byte	.LVL152-1
ARM GAS  C:\Users\Yiquing\AppData\Local\Temp\ccsAoMV1.s 			page 195


 7446 0743 0600     		.2byte	0x6
 7447 0745 11       		.byte	0x11
 7448 0746 80C28380 		.sleb128 -536813312
 7448      7E
 7449 074b 00000000 		.4byte	0
 7450 074f 00000000 		.4byte	0
 7451              	.LLST54:
 7452 0753 14000000 		.4byte	.LVL146
 7453 0757 18000000 		.4byte	.LVL147
 7454 075b 0100     		.2byte	0x1
 7455 075d 50       		.byte	0x50
 7456 075e 18000000 		.4byte	.LVL147
 7457 0762 44000000 		.4byte	.LVL151
 7458 0766 0100     		.2byte	0x1
 7459 0768 57       		.byte	0x57
 7460 0769 44000000 		.4byte	.LVL151
 7461 076d 47000000 		.4byte	.LVL152-1
 7462 0771 0100     		.2byte	0x1
 7463 0773 50       		.byte	0x50
 7464 0774 00000000 		.4byte	0
 7465 0778 00000000 		.4byte	0
 7466              	.LLST55:
 7467 077c 06000000 		.4byte	.LVL154
 7468 0780 0D000000 		.4byte	.LVL155-1
 7469 0784 0100     		.2byte	0x1
 7470 0786 50       		.byte	0x50
 7471 0787 00000000 		.4byte	0
 7472 078b 00000000 		.4byte	0
 7473              	.LLST56:
 7474 078f 10000000 		.4byte	.LVL156
 7475 0793 16000000 		.4byte	.LVL157
 7476 0797 0500     		.2byte	0x5
 7477 0799 74       		.byte	0x74
 7478 079a 00       		.sleb128 0
 7479 079b 37       		.byte	0x37
 7480 079c 1A       		.byte	0x1a
 7481 079d 9F       		.byte	0x9f
 7482 079e 00000000 		.4byte	0
 7483 07a2 00000000 		.4byte	0
 7484              	.LLST57:
 7485 07a6 0E000000 		.4byte	.LVL159
 7486 07aa 18000000 		.4byte	.LVL161
 7487 07ae 0100     		.2byte	0x1
 7488 07b0 54       		.byte	0x54
 7489 07b1 18000000 		.4byte	.LVL161
 7490 07b5 1C000000 		.4byte	.LFE54
 7491 07b9 0100     		.2byte	0x1
 7492 07bb 50       		.byte	0x50
 7493 07bc 00000000 		.4byte	0
 7494 07c0 00000000 		.4byte	0
 7495              	.LLST58:
 7496 07c4 06000000 		.4byte	.LVL158
 7497 07c8 13000000 		.4byte	.LVL160-1
 7498 07cc 0100     		.2byte	0x1
 7499 07ce 50       		.byte	0x50
 7500 07cf 00000000 		.4byte	0
 7501 07d3 00000000 		.4byte	0
ARM GAS  C:\Users\Yiquing\AppData\Local\Temp\ccsAoMV1.s 			page 196


 7502              	.LLST59:
 7503 07d7 00000000 		.4byte	.LVL162
 7504 07db 07000000 		.4byte	.LVL163-1
 7505 07df 0100     		.2byte	0x1
 7506 07e1 50       		.byte	0x50
 7507 07e2 07000000 		.4byte	.LVL163-1
 7508 07e6 10000000 		.4byte	.LVL164
 7509 07ea 0100     		.2byte	0x1
 7510 07ec 54       		.byte	0x54
 7511 07ed 10000000 		.4byte	.LVL164
 7512 07f1 13000000 		.4byte	.LVL165-1
 7513 07f5 0200     		.2byte	0x2
 7514 07f7 73       		.byte	0x73
 7515 07f8 00       		.sleb128 0
 7516 07f9 13000000 		.4byte	.LVL165-1
 7517 07fd 18000000 		.4byte	.LFE55
 7518 0801 0400     		.2byte	0x4
 7519 0803 F3       		.byte	0xf3
 7520 0804 01       		.uleb128 0x1
 7521 0805 50       		.byte	0x50
 7522 0806 9F       		.byte	0x9f
 7523 0807 00000000 		.4byte	0
 7524 080b 00000000 		.4byte	0
 7525              	.LLST60:
 7526 080f 08000000 		.4byte	.LVL163
 7527 0813 13000000 		.4byte	.LVL165-1
 7528 0817 0100     		.2byte	0x1
 7529 0819 50       		.byte	0x50
 7530 081a 00000000 		.4byte	0
 7531 081e 00000000 		.4byte	0
 7532              	.LLST61:
 7533 0822 06000000 		.4byte	.LVL166
 7534 0826 3F000000 		.4byte	.LVL167-1
 7535 082a 0100     		.2byte	0x1
 7536 082c 50       		.byte	0x50
 7537 082d 00000000 		.4byte	0
 7538 0831 00000000 		.4byte	0
 7539              	.LLST62:
 7540 0835 00000000 		.4byte	.LVL168
 7541 0839 0C000000 		.4byte	.LVL171
 7542 083d 0100     		.2byte	0x1
 7543 083f 50       		.byte	0x50
 7544 0840 0C000000 		.4byte	.LVL171
 7545 0844 18000000 		.4byte	.LFE57
 7546 0848 0400     		.2byte	0x4
 7547 084a F3       		.byte	0xf3
 7548 084b 01       		.uleb128 0x1
 7549 084c 50       		.byte	0x50
 7550 084d 9F       		.byte	0x9f
 7551 084e 00000000 		.4byte	0
 7552 0852 00000000 		.4byte	0
 7553              	.LLST63:
 7554 0856 00000000 		.4byte	.LVL168
 7555 085a 02000000 		.4byte	.LVL169
 7556 085e 0600     		.2byte	0x6
 7557 0860 11       		.byte	0x11
 7558 0861 88DA8380 		.sleb128 -536810232
ARM GAS  C:\Users\Yiquing\AppData\Local\Temp\ccsAoMV1.s 			page 197


 7558      7E
 7559 0866 02000000 		.4byte	.LVL169
 7560 086a 08000000 		.4byte	.LVL170
 7561 086e 0200     		.2byte	0x2
 7562 0870 73       		.byte	0x73
 7563 0871 00       		.sleb128 0
 7564 0872 08000000 		.4byte	.LVL170
 7565 0876 18000000 		.4byte	.LFE57
 7566 087a 0100     		.2byte	0x1
 7567 087c 53       		.byte	0x53
 7568 087d 00000000 		.4byte	0
 7569 0881 00000000 		.4byte	0
 7570              	.LLST64:
 7571 0885 00000000 		.4byte	.LVL172
 7572 0889 06000000 		.4byte	.LVL174
 7573 088d 0100     		.2byte	0x1
 7574 088f 50       		.byte	0x50
 7575 0890 06000000 		.4byte	.LVL174
 7576 0894 14000000 		.4byte	.LFE58
 7577 0898 0400     		.2byte	0x4
 7578 089a F3       		.byte	0xf3
 7579 089b 01       		.uleb128 0x1
 7580 089c 50       		.byte	0x50
 7581 089d 9F       		.byte	0x9f
 7582 089e 00000000 		.4byte	0
 7583 08a2 00000000 		.4byte	0
 7584              	.LLST65:
 7585 08a6 00000000 		.4byte	.LVL172
 7586 08aa 02000000 		.4byte	.LVL173
 7587 08ae 0600     		.2byte	0x6
 7588 08b0 11       		.byte	0x11
 7589 08b1 88DA8380 		.sleb128 -536810232
 7589      7E
 7590 08b6 02000000 		.4byte	.LVL173
 7591 08ba 08000000 		.4byte	.LVL175
 7592 08be 0200     		.2byte	0x2
 7593 08c0 73       		.byte	0x73
 7594 08c1 00       		.sleb128 0
 7595 08c2 08000000 		.4byte	.LVL175
 7596 08c6 14000000 		.4byte	.LFE58
 7597 08ca 0100     		.2byte	0x1
 7598 08cc 53       		.byte	0x53
 7599 08cd 00000000 		.4byte	0
 7600 08d1 00000000 		.4byte	0
 7601              	.LLST66:
 7602 08d5 00000000 		.4byte	.LVL176
 7603 08d9 06000000 		.4byte	.LVL178
 7604 08dd 0100     		.2byte	0x1
 7605 08df 50       		.byte	0x50
 7606 08e0 06000000 		.4byte	.LVL178
 7607 08e4 1C000000 		.4byte	.LFE59
 7608 08e8 0400     		.2byte	0x4
 7609 08ea F3       		.byte	0xf3
 7610 08eb 01       		.uleb128 0x1
 7611 08ec 50       		.byte	0x50
 7612 08ed 9F       		.byte	0x9f
 7613 08ee 00000000 		.4byte	0
ARM GAS  C:\Users\Yiquing\AppData\Local\Temp\ccsAoMV1.s 			page 198


 7614 08f2 00000000 		.4byte	0
 7615              	.LLST67:
 7616 08f6 00000000 		.4byte	.LVL176
 7617 08fa 02000000 		.4byte	.LVL177
 7618 08fe 0600     		.2byte	0x6
 7619 0900 11       		.byte	0x11
 7620 0901 88DA8380 		.sleb128 -536810232
 7620      7E
 7621 0906 02000000 		.4byte	.LVL177
 7622 090a 08000000 		.4byte	.LVL179
 7623 090e 0200     		.2byte	0x2
 7624 0910 73       		.byte	0x73
 7625 0911 00       		.sleb128 0
 7626 0912 08000000 		.4byte	.LVL179
 7627 0916 1C000000 		.4byte	.LFE59
 7628 091a 0100     		.2byte	0x1
 7629 091c 53       		.byte	0x53
 7630 091d 00000000 		.4byte	0
 7631 0921 00000000 		.4byte	0
 7632              	.LLST68:
 7633 0925 00000000 		.4byte	.LVL181
 7634 0929 06000000 		.4byte	.LVL183
 7635 092d 0100     		.2byte	0x1
 7636 092f 50       		.byte	0x50
 7637 0930 06000000 		.4byte	.LVL183
 7638 0934 14000000 		.4byte	.LFE60
 7639 0938 0400     		.2byte	0x4
 7640 093a F3       		.byte	0xf3
 7641 093b 01       		.uleb128 0x1
 7642 093c 50       		.byte	0x50
 7643 093d 9F       		.byte	0x9f
 7644 093e 00000000 		.4byte	0
 7645 0942 00000000 		.4byte	0
 7646              	.LLST69:
 7647 0946 00000000 		.4byte	.LVL181
 7648 094a 02000000 		.4byte	.LVL182
 7649 094e 0600     		.2byte	0x6
 7650 0950 11       		.byte	0x11
 7651 0951 88DA8380 		.sleb128 -536810232
 7651      7E
 7652 0956 02000000 		.4byte	.LVL182
 7653 095a 08000000 		.4byte	.LVL184
 7654 095e 0200     		.2byte	0x2
 7655 0960 73       		.byte	0x73
 7656 0961 00       		.sleb128 0
 7657 0962 08000000 		.4byte	.LVL184
 7658 0966 14000000 		.4byte	.LFE60
 7659 096a 0100     		.2byte	0x1
 7660 096c 53       		.byte	0x53
 7661 096d 00000000 		.4byte	0
 7662 0971 00000000 		.4byte	0
 7663              	.LLST70:
 7664 0975 00000000 		.4byte	.LVL185
 7665 0979 04000000 		.4byte	.LVL186
 7666 097d 0100     		.2byte	0x1
 7667 097f 50       		.byte	0x50
 7668 0980 04000000 		.4byte	.LVL186
ARM GAS  C:\Users\Yiquing\AppData\Local\Temp\ccsAoMV1.s 			page 199


 7669 0984 14000000 		.4byte	.LFE61
 7670 0988 0400     		.2byte	0x4
 7671 098a F3       		.byte	0xf3
 7672 098b 01       		.uleb128 0x1
 7673 098c 50       		.byte	0x50
 7674 098d 9F       		.byte	0x9f
 7675 098e 00000000 		.4byte	0
 7676 0992 00000000 		.4byte	0
 7677              	.LLST71:
 7678 0996 00000000 		.4byte	.LVL185
 7679 099a 0A000000 		.4byte	.LVL187
 7680 099e 0100     		.2byte	0x1
 7681 09a0 51       		.byte	0x51
 7682 09a1 0A000000 		.4byte	.LVL187
 7683 09a5 14000000 		.4byte	.LFE61
 7684 09a9 0400     		.2byte	0x4
 7685 09ab F3       		.byte	0xf3
 7686 09ac 01       		.uleb128 0x1
 7687 09ad 51       		.byte	0x51
 7688 09ae 9F       		.byte	0x9f
 7689 09af 00000000 		.4byte	0
 7690 09b3 00000000 		.4byte	0
 7691              	.LLST72:
 7692 09b7 00000000 		.4byte	.LVL188
 7693 09bb 04000000 		.4byte	.LVL189
 7694 09bf 0100     		.2byte	0x1
 7695 09c1 50       		.byte	0x50
 7696 09c2 04000000 		.4byte	.LVL189
 7697 09c6 12000000 		.4byte	.LFE62
 7698 09ca 0400     		.2byte	0x4
 7699 09cc F3       		.byte	0xf3
 7700 09cd 01       		.uleb128 0x1
 7701 09ce 50       		.byte	0x50
 7702 09cf 9F       		.byte	0x9f
 7703 09d0 00000000 		.4byte	0
 7704 09d4 00000000 		.4byte	0
 7705              	.LLST73:
 7706 09d8 0E000000 		.4byte	.LVL190
 7707 09dc 10000000 		.4byte	.LVL191
 7708 09e0 0500     		.2byte	0x5
 7709 09e2 70       		.byte	0x70
 7710 09e3 00       		.sleb128 0
 7711 09e4 35       		.byte	0x35
 7712 09e5 25       		.byte	0x25
 7713 09e6 9F       		.byte	0x9f
 7714 09e7 00000000 		.4byte	0
 7715 09eb 00000000 		.4byte	0
 7716              	.LLST74:
 7717 09ef 00000000 		.4byte	.LVL192
 7718 09f3 06000000 		.4byte	.LVL193
 7719 09f7 0100     		.2byte	0x1
 7720 09f9 50       		.byte	0x50
 7721 09fa 06000000 		.4byte	.LVL193
 7722 09fe 18000000 		.4byte	.LFE63
 7723 0a02 0400     		.2byte	0x4
 7724 0a04 F3       		.byte	0xf3
 7725 0a05 01       		.uleb128 0x1
ARM GAS  C:\Users\Yiquing\AppData\Local\Temp\ccsAoMV1.s 			page 200


 7726 0a06 50       		.byte	0x50
 7727 0a07 9F       		.byte	0x9f
 7728 0a08 00000000 		.4byte	0
 7729 0a0c 00000000 		.4byte	0
 7730              	.LLST75:
 7731 0a10 00000000 		.4byte	.LVL195
 7732 0a14 06000000 		.4byte	.LVL196
 7733 0a18 0100     		.2byte	0x1
 7734 0a1a 50       		.byte	0x50
 7735 0a1b 06000000 		.4byte	.LVL196
 7736 0a1f 10000000 		.4byte	.LFE70
 7737 0a23 0400     		.2byte	0x4
 7738 0a25 F3       		.byte	0xf3
 7739 0a26 01       		.uleb128 0x1
 7740 0a27 50       		.byte	0x50
 7741 0a28 9F       		.byte	0x9f
 7742 0a29 00000000 		.4byte	0
 7743 0a2d 00000000 		.4byte	0
 7744              	.LLST76:
 7745 0a31 00000000 		.4byte	.LVL198
 7746 0a35 0C000000 		.4byte	.LVL199
 7747 0a39 0200     		.2byte	0x2
 7748 0a3b 30       		.byte	0x30
 7749 0a3c 9F       		.byte	0x9f
 7750 0a3d 0C000000 		.4byte	.LVL199
 7751 0a41 0E000000 		.4byte	.LVL200
 7752 0a45 0200     		.2byte	0x2
 7753 0a47 31       		.byte	0x31
 7754 0a48 9F       		.byte	0x9f
 7755 0a49 0E000000 		.4byte	.LVL200
 7756 0a4d 10000000 		.4byte	.LVL201
 7757 0a51 0200     		.2byte	0x2
 7758 0a53 32       		.byte	0x32
 7759 0a54 9F       		.byte	0x9f
 7760 0a55 10000000 		.4byte	.LVL201
 7761 0a59 12000000 		.4byte	.LVL202
 7762 0a5d 0200     		.2byte	0x2
 7763 0a5f 33       		.byte	0x33
 7764 0a60 9F       		.byte	0x9f
 7765 0a61 12000000 		.4byte	.LVL202
 7766 0a65 14000000 		.4byte	.LVL203
 7767 0a69 0200     		.2byte	0x2
 7768 0a6b 34       		.byte	0x34
 7769 0a6c 9F       		.byte	0x9f
 7770 0a6d 14000000 		.4byte	.LVL203
 7771 0a71 4C000000 		.4byte	.LFE65
 7772 0a75 0200     		.2byte	0x2
 7773 0a77 35       		.byte	0x35
 7774 0a78 9F       		.byte	0x9f
 7775 0a79 00000000 		.4byte	0
 7776 0a7d 00000000 		.4byte	0
 7777              	.LLST77:
 7778 0a81 2A000000 		.4byte	.LVL206
 7779 0a85 32000000 		.4byte	.LVL207
 7780 0a89 0100     		.2byte	0x1
 7781 0a8b 52       		.byte	0x52
 7782 0a8c 32000000 		.4byte	.LVL207
ARM GAS  C:\Users\Yiquing\AppData\Local\Temp\ccsAoMV1.s 			page 201


 7783 0a90 34000000 		.4byte	.LVL208
 7784 0a94 0200     		.2byte	0x2
 7785 0a96 73       		.byte	0x73
 7786 0a97 00       		.sleb128 0
 7787 0a98 00000000 		.4byte	0
 7788 0a9c 00000000 		.4byte	0
 7789              	.LLST78:
 7790 0aa0 00000000 		.4byte	.LVL213
 7791 0aa4 08000000 		.4byte	.LVL214
 7792 0aa8 0100     		.2byte	0x1
 7793 0aaa 50       		.byte	0x50
 7794 0aab 08000000 		.4byte	.LVL214
 7795 0aaf 10000000 		.4byte	.LFE76
 7796 0ab3 0400     		.2byte	0x4
 7797 0ab5 F3       		.byte	0xf3
 7798 0ab6 01       		.uleb128 0x1
 7799 0ab7 50       		.byte	0x50
 7800 0ab8 9F       		.byte	0x9f
 7801 0ab9 00000000 		.4byte	0
 7802 0abd 00000000 		.4byte	0
 7803              	.LLST79:
 7804 0ac1 00000000 		.4byte	.LVL215
 7805 0ac5 06000000 		.4byte	.LVL216
 7806 0ac9 0100     		.2byte	0x1
 7807 0acb 50       		.byte	0x50
 7808 0acc 06000000 		.4byte	.LVL216
 7809 0ad0 10000000 		.4byte	.LFE77
 7810 0ad4 0400     		.2byte	0x4
 7811 0ad6 F3       		.byte	0xf3
 7812 0ad7 01       		.uleb128 0x1
 7813 0ad8 50       		.byte	0x50
 7814 0ad9 9F       		.byte	0x9f
 7815 0ada 00000000 		.4byte	0
 7816 0ade 00000000 		.4byte	0
 7817              		.section	.debug_aranges,"",%progbits
 7818 0000 8C020000 		.4byte	0x28c
 7819 0004 0200     		.2byte	0x2
 7820 0006 00000000 		.4byte	.Ldebug_info0
 7821 000a 04       		.byte	0x4
 7822 000b 00       		.byte	0
 7823 000c 0000     		.2byte	0
 7824 000e 0000     		.2byte	0
 7825 0010 00000000 		.4byte	.LFB7
 7826 0014 B8000000 		.4byte	.LFE7-.LFB7
 7827 0018 00000000 		.4byte	.LFB14
 7828 001c 3C000000 		.4byte	.LFE14-.LFB14
 7829 0020 00000000 		.4byte	.LFB1
 7830 0024 10000000 		.4byte	.LFE1-.LFB1
 7831 0028 00000000 		.4byte	.LFB2
 7832 002c 34000000 		.4byte	.LFE2-.LFB2
 7833 0030 00000000 		.4byte	.LFB3
 7834 0034 14000000 		.4byte	.LFE3-.LFB3
 7835 0038 00000000 		.4byte	.LFB5
 7836 003c 18000000 		.4byte	.LFE5-.LFB5
 7837 0040 00000000 		.4byte	.LFB9
 7838 0044 40000000 		.4byte	.LFE9-.LFB9
 7839 0048 00000000 		.4byte	.LFB10
ARM GAS  C:\Users\Yiquing\AppData\Local\Temp\ccsAoMV1.s 			page 202


 7840 004c 10000000 		.4byte	.LFE10-.LFB10
 7841 0050 00000000 		.4byte	.LFB11
 7842 0054 10000000 		.4byte	.LFE11-.LFB11
 7843 0058 00000000 		.4byte	.LFB8
 7844 005c D8000000 		.4byte	.LFE8-.LFB8
 7845 0060 00000000 		.4byte	.LFB12
 7846 0064 18000000 		.4byte	.LFE12-.LFB12
 7847 0068 00000000 		.4byte	.LFB13
 7848 006c 0C000000 		.4byte	.LFE13-.LFB13
 7849 0070 00000000 		.4byte	.LFB15
 7850 0074 70000000 		.4byte	.LFE15-.LFB15
 7851 0078 00000000 		.4byte	.LFB16
 7852 007c 18000000 		.4byte	.LFE16-.LFB16
 7853 0080 00000000 		.4byte	.LFB17
 7854 0084 10000000 		.4byte	.LFE17-.LFB17
 7855 0088 00000000 		.4byte	.LFB18
 7856 008c 10000000 		.4byte	.LFE18-.LFB18
 7857 0090 00000000 		.4byte	.LFB19
 7858 0094 10000000 		.4byte	.LFE19-.LFB19
 7859 0098 00000000 		.4byte	.LFB20
 7860 009c 10000000 		.4byte	.LFE20-.LFB20
 7861 00a0 00000000 		.4byte	.LFB0
 7862 00a4 7C000000 		.4byte	.LFE0-.LFB0
 7863 00a8 00000000 		.4byte	.LFB4
 7864 00ac 5C000000 		.4byte	.LFE4-.LFB4
 7865 00b0 00000000 		.4byte	.LFB21
 7866 00b4 10000000 		.4byte	.LFE21-.LFB21
 7867 00b8 00000000 		.4byte	.LFB22
 7868 00bc 10000000 		.4byte	.LFE22-.LFB22
 7869 00c0 00000000 		.4byte	.LFB23
 7870 00c4 16000000 		.4byte	.LFE23-.LFB23
 7871 00c8 00000000 		.4byte	.LFB24
 7872 00cc 20000000 		.4byte	.LFE24-.LFB24
 7873 00d0 00000000 		.4byte	.LFB26
 7874 00d4 2C000000 		.4byte	.LFE26-.LFB26
 7875 00d8 00000000 		.4byte	.LFB27
 7876 00dc 10000000 		.4byte	.LFE27-.LFB27
 7877 00e0 00000000 		.4byte	.LFB29
 7878 00e4 A4000000 		.4byte	.LFE29-.LFB29
 7879 00e8 00000000 		.4byte	.LFB30
 7880 00ec 10000000 		.4byte	.LFE30-.LFB30
 7881 00f0 00000000 		.4byte	.LFB31
 7882 00f4 10000000 		.4byte	.LFE31-.LFB31
 7883 00f8 00000000 		.4byte	.LFB32
 7884 00fc 10000000 		.4byte	.LFE32-.LFB32
 7885 0100 00000000 		.4byte	.LFB33
 7886 0104 0C000000 		.4byte	.LFE33-.LFB33
 7887 0108 00000000 		.4byte	.LFB34
 7888 010c 10000000 		.4byte	.LFE34-.LFB34
 7889 0110 00000000 		.4byte	.LFB35
 7890 0114 10000000 		.4byte	.LFE35-.LFB35
 7891 0118 00000000 		.4byte	.LFB36
 7892 011c 18000000 		.4byte	.LFE36-.LFB36
 7893 0120 00000000 		.4byte	.LFB37
 7894 0124 18000000 		.4byte	.LFE37-.LFB37
 7895 0128 00000000 		.4byte	.LFB38
 7896 012c 18000000 		.4byte	.LFE38-.LFB38
ARM GAS  C:\Users\Yiquing\AppData\Local\Temp\ccsAoMV1.s 			page 203


 7897 0130 00000000 		.4byte	.LFB39
 7898 0134 04000000 		.4byte	.LFE39-.LFB39
 7899 0138 00000000 		.4byte	.LFB40
 7900 013c 10000000 		.4byte	.LFE40-.LFB40
 7901 0140 00000000 		.4byte	.LFB41
 7902 0144 28000000 		.4byte	.LFE41-.LFB41
 7903 0148 00000000 		.4byte	.LFB42
 7904 014c 10000000 		.4byte	.LFE42-.LFB42
 7905 0150 00000000 		.4byte	.LFB28
 7906 0154 6C000000 		.4byte	.LFE28-.LFB28
 7907 0158 00000000 		.4byte	.LFB25
 7908 015c 68000000 		.4byte	.LFE25-.LFB25
 7909 0160 00000000 		.4byte	.LFB43
 7910 0164 40000000 		.4byte	.LFE43-.LFB43
 7911 0168 00000000 		.4byte	.LFB44
 7912 016c 40000000 		.4byte	.LFE44-.LFB44
 7913 0170 00000000 		.4byte	.LFB45
 7914 0174 0C000000 		.4byte	.LFE45-.LFB45
 7915 0178 00000000 		.4byte	.LFB52
 7916 017c 2C000000 		.4byte	.LFE52-.LFB52
 7917 0180 00000000 		.4byte	.LFB46
 7918 0184 84000000 		.4byte	.LFE46-.LFB46
 7919 0188 00000000 		.4byte	.LFB47
 7920 018c 88000000 		.4byte	.LFE47-.LFB47
 7921 0190 00000000 		.4byte	.LFB48
 7922 0194 2C000000 		.4byte	.LFE48-.LFB48
 7923 0198 00000000 		.4byte	.LFB49
 7924 019c 24000000 		.4byte	.LFE49-.LFB49
 7925 01a0 00000000 		.4byte	.LFB50
 7926 01a4 58000000 		.4byte	.LFE50-.LFB50
 7927 01a8 00000000 		.4byte	.LFB51
 7928 01ac 1C000000 		.4byte	.LFE51-.LFB51
 7929 01b0 00000000 		.4byte	.LFB53
 7930 01b4 1C000000 		.4byte	.LFE53-.LFB53
 7931 01b8 00000000 		.4byte	.LFB54
 7932 01bc 1C000000 		.4byte	.LFE54-.LFB54
 7933 01c0 00000000 		.4byte	.LFB55
 7934 01c4 18000000 		.4byte	.LFE55-.LFB55
 7935 01c8 00000000 		.4byte	.LFB56
 7936 01cc 44000000 		.4byte	.LFE56-.LFB56
 7937 01d0 00000000 		.4byte	.LFB57
 7938 01d4 18000000 		.4byte	.LFE57-.LFB57
 7939 01d8 00000000 		.4byte	.LFB58
 7940 01dc 14000000 		.4byte	.LFE58-.LFB58
 7941 01e0 00000000 		.4byte	.LFB59
 7942 01e4 1C000000 		.4byte	.LFE59-.LFB59
 7943 01e8 00000000 		.4byte	.LFB60
 7944 01ec 14000000 		.4byte	.LFE60-.LFB60
 7945 01f0 00000000 		.4byte	.LFB61
 7946 01f4 14000000 		.4byte	.LFE61-.LFB61
 7947 01f8 00000000 		.4byte	.LFB62
 7948 01fc 12000000 		.4byte	.LFE62-.LFB62
 7949 0200 00000000 		.4byte	.LFB63
 7950 0204 18000000 		.4byte	.LFE63-.LFB63
 7951 0208 00000000 		.4byte	.LFB67
 7952 020c 10000000 		.4byte	.LFE67-.LFB67
 7953 0210 00000000 		.4byte	.LFB68
ARM GAS  C:\Users\Yiquing\AppData\Local\Temp\ccsAoMV1.s 			page 204


 7954 0214 10000000 		.4byte	.LFE68-.LFB68
 7955 0218 00000000 		.4byte	.LFB66
 7956 021c 18000000 		.4byte	.LFE66-.LFB66
 7957 0220 00000000 		.4byte	.LFB69
 7958 0224 10000000 		.4byte	.LFE69-.LFB69
 7959 0228 00000000 		.4byte	.LFB70
 7960 022c 10000000 		.4byte	.LFE70-.LFB70
 7961 0230 00000000 		.4byte	.LFB71
 7962 0234 10000000 		.4byte	.LFE71-.LFB71
 7963 0238 00000000 		.4byte	.LFB72
 7964 023c 10000000 		.4byte	.LFE72-.LFB72
 7965 0240 00000000 		.4byte	.LFB73
 7966 0244 18000000 		.4byte	.LFE73-.LFB73
 7967 0248 00000000 		.4byte	.LFB65
 7968 024c 4C000000 		.4byte	.LFE65-.LFB65
 7969 0250 00000000 		.4byte	.LFB64
 7970 0254 1C000000 		.4byte	.LFE64-.LFB64
 7971 0258 00000000 		.4byte	.LFB74
 7972 025c 10000000 		.4byte	.LFE74-.LFB74
 7973 0260 00000000 		.4byte	.LFB78
 7974 0264 20000000 		.4byte	.LFE78-.LFB78
 7975 0268 00000000 		.4byte	.LFB75
 7976 026c 0C000000 		.4byte	.LFE75-.LFB75
 7977 0270 00000000 		.4byte	.LFB76
 7978 0274 10000000 		.4byte	.LFE76-.LFB76
 7979 0278 00000000 		.4byte	.LFB77
 7980 027c 10000000 		.4byte	.LFE77-.LFB77
 7981 0280 00000000 		.4byte	.LFB79
 7982 0284 70000000 		.4byte	.LFE79-.LFB79
 7983 0288 00000000 		.4byte	0
 7984 028c 00000000 		.4byte	0
 7985              		.section	.debug_ranges,"",%progbits
 7986              	.Ldebug_ranges0:
 7987 0000 00000000 		.4byte	.LFB7
 7988 0004 B8000000 		.4byte	.LFE7
 7989 0008 00000000 		.4byte	.LFB14
 7990 000c 3C000000 		.4byte	.LFE14
 7991 0010 00000000 		.4byte	.LFB1
 7992 0014 10000000 		.4byte	.LFE1
 7993 0018 00000000 		.4byte	.LFB2
 7994 001c 34000000 		.4byte	.LFE2
 7995 0020 00000000 		.4byte	.LFB3
 7996 0024 14000000 		.4byte	.LFE3
 7997 0028 00000000 		.4byte	.LFB5
 7998 002c 18000000 		.4byte	.LFE5
 7999 0030 00000000 		.4byte	.LFB9
 8000 0034 40000000 		.4byte	.LFE9
 8001 0038 00000000 		.4byte	.LFB10
 8002 003c 10000000 		.4byte	.LFE10
 8003 0040 00000000 		.4byte	.LFB11
 8004 0044 10000000 		.4byte	.LFE11
 8005 0048 00000000 		.4byte	.LFB8
 8006 004c D8000000 		.4byte	.LFE8
 8007 0050 00000000 		.4byte	.LFB12
 8008 0054 18000000 		.4byte	.LFE12
 8009 0058 00000000 		.4byte	.LFB13
 8010 005c 0C000000 		.4byte	.LFE13
ARM GAS  C:\Users\Yiquing\AppData\Local\Temp\ccsAoMV1.s 			page 205


 8011 0060 00000000 		.4byte	.LFB15
 8012 0064 70000000 		.4byte	.LFE15
 8013 0068 00000000 		.4byte	.LFB16
 8014 006c 18000000 		.4byte	.LFE16
 8015 0070 00000000 		.4byte	.LFB17
 8016 0074 10000000 		.4byte	.LFE17
 8017 0078 00000000 		.4byte	.LFB18
 8018 007c 10000000 		.4byte	.LFE18
 8019 0080 00000000 		.4byte	.LFB19
 8020 0084 10000000 		.4byte	.LFE19
 8021 0088 00000000 		.4byte	.LFB20
 8022 008c 10000000 		.4byte	.LFE20
 8023 0090 00000000 		.4byte	.LFB0
 8024 0094 7C000000 		.4byte	.LFE0
 8025 0098 00000000 		.4byte	.LFB4
 8026 009c 5C000000 		.4byte	.LFE4
 8027 00a0 00000000 		.4byte	.LFB21
 8028 00a4 10000000 		.4byte	.LFE21
 8029 00a8 00000000 		.4byte	.LFB22
 8030 00ac 10000000 		.4byte	.LFE22
 8031 00b0 00000000 		.4byte	.LFB23
 8032 00b4 16000000 		.4byte	.LFE23
 8033 00b8 00000000 		.4byte	.LFB24
 8034 00bc 20000000 		.4byte	.LFE24
 8035 00c0 00000000 		.4byte	.LFB26
 8036 00c4 2C000000 		.4byte	.LFE26
 8037 00c8 00000000 		.4byte	.LFB27
 8038 00cc 10000000 		.4byte	.LFE27
 8039 00d0 00000000 		.4byte	.LFB29
 8040 00d4 A4000000 		.4byte	.LFE29
 8041 00d8 00000000 		.4byte	.LFB30
 8042 00dc 10000000 		.4byte	.LFE30
 8043 00e0 00000000 		.4byte	.LFB31
 8044 00e4 10000000 		.4byte	.LFE31
 8045 00e8 00000000 		.4byte	.LFB32
 8046 00ec 10000000 		.4byte	.LFE32
 8047 00f0 00000000 		.4byte	.LFB33
 8048 00f4 0C000000 		.4byte	.LFE33
 8049 00f8 00000000 		.4byte	.LFB34
 8050 00fc 10000000 		.4byte	.LFE34
 8051 0100 00000000 		.4byte	.LFB35
 8052 0104 10000000 		.4byte	.LFE35
 8053 0108 00000000 		.4byte	.LFB36
 8054 010c 18000000 		.4byte	.LFE36
 8055 0110 00000000 		.4byte	.LFB37
 8056 0114 18000000 		.4byte	.LFE37
 8057 0118 00000000 		.4byte	.LFB38
 8058 011c 18000000 		.4byte	.LFE38
 8059 0120 00000000 		.4byte	.LFB39
 8060 0124 04000000 		.4byte	.LFE39
 8061 0128 00000000 		.4byte	.LFB40
 8062 012c 10000000 		.4byte	.LFE40
 8063 0130 00000000 		.4byte	.LFB41
 8064 0134 28000000 		.4byte	.LFE41
 8065 0138 00000000 		.4byte	.LFB42
 8066 013c 10000000 		.4byte	.LFE42
 8067 0140 00000000 		.4byte	.LFB28
ARM GAS  C:\Users\Yiquing\AppData\Local\Temp\ccsAoMV1.s 			page 206


 8068 0144 6C000000 		.4byte	.LFE28
 8069 0148 00000000 		.4byte	.LFB25
 8070 014c 68000000 		.4byte	.LFE25
 8071 0150 00000000 		.4byte	.LFB43
 8072 0154 40000000 		.4byte	.LFE43
 8073 0158 00000000 		.4byte	.LFB44
 8074 015c 40000000 		.4byte	.LFE44
 8075 0160 00000000 		.4byte	.LFB45
 8076 0164 0C000000 		.4byte	.LFE45
 8077 0168 00000000 		.4byte	.LFB52
 8078 016c 2C000000 		.4byte	.LFE52
 8079 0170 00000000 		.4byte	.LFB46
 8080 0174 84000000 		.4byte	.LFE46
 8081 0178 00000000 		.4byte	.LFB47
 8082 017c 88000000 		.4byte	.LFE47
 8083 0180 00000000 		.4byte	.LFB48
 8084 0184 2C000000 		.4byte	.LFE48
 8085 0188 00000000 		.4byte	.LFB49
 8086 018c 24000000 		.4byte	.LFE49
 8087 0190 00000000 		.4byte	.LFB50
 8088 0194 58000000 		.4byte	.LFE50
 8089 0198 00000000 		.4byte	.LFB51
 8090 019c 1C000000 		.4byte	.LFE51
 8091 01a0 00000000 		.4byte	.LFB53
 8092 01a4 1C000000 		.4byte	.LFE53
 8093 01a8 00000000 		.4byte	.LFB54
 8094 01ac 1C000000 		.4byte	.LFE54
 8095 01b0 00000000 		.4byte	.LFB55
 8096 01b4 18000000 		.4byte	.LFE55
 8097 01b8 00000000 		.4byte	.LFB56
 8098 01bc 44000000 		.4byte	.LFE56
 8099 01c0 00000000 		.4byte	.LFB57
 8100 01c4 18000000 		.4byte	.LFE57
 8101 01c8 00000000 		.4byte	.LFB58
 8102 01cc 14000000 		.4byte	.LFE58
 8103 01d0 00000000 		.4byte	.LFB59
 8104 01d4 1C000000 		.4byte	.LFE59
 8105 01d8 00000000 		.4byte	.LFB60
 8106 01dc 14000000 		.4byte	.LFE60
 8107 01e0 00000000 		.4byte	.LFB61
 8108 01e4 14000000 		.4byte	.LFE61
 8109 01e8 00000000 		.4byte	.LFB62
 8110 01ec 12000000 		.4byte	.LFE62
 8111 01f0 00000000 		.4byte	.LFB63
 8112 01f4 18000000 		.4byte	.LFE63
 8113 01f8 00000000 		.4byte	.LFB67
 8114 01fc 10000000 		.4byte	.LFE67
 8115 0200 00000000 		.4byte	.LFB68
 8116 0204 10000000 		.4byte	.LFE68
 8117 0208 00000000 		.4byte	.LFB66
 8118 020c 18000000 		.4byte	.LFE66
 8119 0210 00000000 		.4byte	.LFB69
 8120 0214 10000000 		.4byte	.LFE69
 8121 0218 00000000 		.4byte	.LFB70
 8122 021c 10000000 		.4byte	.LFE70
 8123 0220 00000000 		.4byte	.LFB71
 8124 0224 10000000 		.4byte	.LFE71
ARM GAS  C:\Users\Yiquing\AppData\Local\Temp\ccsAoMV1.s 			page 207


 8125 0228 00000000 		.4byte	.LFB72
 8126 022c 10000000 		.4byte	.LFE72
 8127 0230 00000000 		.4byte	.LFB73
 8128 0234 18000000 		.4byte	.LFE73
 8129 0238 00000000 		.4byte	.LFB65
 8130 023c 4C000000 		.4byte	.LFE65
 8131 0240 00000000 		.4byte	.LFB64
 8132 0244 1C000000 		.4byte	.LFE64
 8133 0248 00000000 		.4byte	.LFB74
 8134 024c 10000000 		.4byte	.LFE74
 8135 0250 00000000 		.4byte	.LFB78
 8136 0254 20000000 		.4byte	.LFE78
 8137 0258 00000000 		.4byte	.LFB75
 8138 025c 0C000000 		.4byte	.LFE75
 8139 0260 00000000 		.4byte	.LFB76
 8140 0264 10000000 		.4byte	.LFE76
 8141 0268 00000000 		.4byte	.LFB77
 8142 026c 10000000 		.4byte	.LFE77
 8143 0270 00000000 		.4byte	.LFB79
 8144 0274 70000000 		.4byte	.LFE79
 8145 0278 00000000 		.4byte	0
 8146 027c 00000000 		.4byte	0
 8147              		.section	.debug_line,"",%progbits
 8148              	.Ldebug_line0:
 8149 0000 CD070000 		.section	.debug_str,"MS",%progbits,1
 8149      02005900 
 8149      00000201 
 8149      FB0E0D00 
 8149      01010101 
 8150              	.LASF126:
 8151 0000 4379496E 		.ascii	"CyIntGetVector\000"
 8151      74476574 
 8151      56656374 
 8151      6F7200
 8152              	.LASF165:
 8153 000f 43795379 		.ascii	"CySysTickClear\000"
 8153      73546963 
 8153      6B436C65 
 8153      617200
 8154              	.LASF89:
 8155 001e 43794465 		.ascii	"CyDelay\000"
 8155      6C617900 
 8156              	.LASF127:
 8157 0026 4379496E 		.ascii	"CyIntSetPriority\000"
 8157      74536574 
 8157      5072696F 
 8157      72697479 
 8157      00
 8158              	.LASF27:
 8159 0037 4379494D 		.ascii	"CyIMO_SetTrimValue\000"
 8159      4F5F5365 
 8159      74547269 
 8159      6D56616C 
 8159      756500
 8160              	.LASF136:
 8161 004a 43795854 		.ascii	"CyXTAL_ReadStatus\000"
 8161      414C5F52 
ARM GAS  C:\Users\Yiquing\AppData\Local\Temp\ccsAoMV1.s 			page 208


 8161      65616453 
 8161      74617475 
 8161      7300
 8162              	.LASF129:
 8163 005c 4379496E 		.ascii	"CyIntGetPriority\000"
 8163      74476574 
 8163      5072696F 
 8163      72697479 
 8163      00
 8164              	.LASF99:
 8165 006d 43795764 		.ascii	"CyWdtClear\000"
 8165      74436C65 
 8165      617200
 8166              	.LASF154:
 8167 0078 63796465 		.ascii	"cydelay_freq_mhz\000"
 8167      6C61795F 
 8167      66726571 
 8167      5F6D687A 
 8167      00
 8168              	.LASF90:
 8169 0089 6D696C6C 		.ascii	"milliseconds\000"
 8169      69736563 
 8169      6F6E6473 
 8169      00
 8170              	.LASF65:
 8171 0096 4379494C 		.ascii	"CyILO_Disable33K\000"
 8171      4F5F4469 
 8171      7361626C 
 8171      6533334B 
 8171      00
 8172              	.LASF33:
 8173 00a7 4379504C 		.ascii	"CyPLL_OUT_SetPQ\000"
 8173      4C5F4F55 
 8173      545F5365 
 8173      74505100 
 8174              	.LASF75:
 8175 00b7 706D5477 		.ascii	"pmTwCfg0Tmp\000"
 8175      43666730 
 8175      546D7000 
 8176              	.LASF159:
 8177 00c3 43794578 		.ascii	"CyExitCriticalSection\000"
 8177      69744372 
 8177      69746963 
 8177      616C5365 
 8177      6374696F 
 8178              	.LASF40:
 8179 00d9 4379494D 		.ascii	"CyIMO_DisableDoubler\000"
 8179      4F5F4469 
 8179      7361626C 
 8179      65446F75 
 8179      626C6572 
 8180              	.LASF0:
 8181 00ee 756E7369 		.ascii	"unsigned int\000"
 8181      676E6564 
 8181      20696E74 
 8181      00
 8182              	.LASF47:
ARM GAS  C:\Users\Yiquing\AppData\Local\Temp\ccsAoMV1.s 			page 209


 8183 00fb 6D617374 		.ascii	"masterClkDiv\000"
 8183      6572436C 
 8183      6B446976 
 8183      00
 8184              	.LASF79:
 8185 0108 43795854 		.ascii	"CyXTAL_DisableErrStatus\000"
 8185      414C5F44 
 8185      69736162 
 8185      6C654572 
 8185      72537461 
 8186              	.LASF101:
 8187 0120 6D61736B 		.ascii	"mask\000"
 8187      00
 8188              	.LASF98:
 8189 0125 6C704D6F 		.ascii	"lpMode\000"
 8189      646500
 8190              	.LASF49:
 8191 012c 696E7465 		.ascii	"interruptState\000"
 8191      72727570 
 8191      74537461 
 8191      746500
 8192              	.LASF17:
 8193 013b 72656738 		.ascii	"reg8\000"
 8193      00
 8194              	.LASF97:
 8195 0140 7469636B 		.ascii	"ticks\000"
 8195      7300
 8196              	.LASF82:
 8197 0146 43795854 		.ascii	"CyXTAL_SetStartup\000"
 8197      414C5F53 
 8197      65745374 
 8197      61727475 
 8197      7000
 8198              	.LASF52:
 8199 0158 4379494C 		.ascii	"CyILO_Stop1K\000"
 8199      4F5F5374 
 8199      6F70314B 
 8199      00
 8200              	.LASF160:
 8201 0165 4379506D 		.ascii	"CyPmFtwSetInterval\000"
 8201      46747753 
 8201      6574496E 
 8201      74657276 
 8201      616C00
 8202              	.LASF69:
 8203 0178 6D6F6465 		.ascii	"mode\000"
 8203      00
 8204              	.LASF156:
 8205 017d 43795379 		.ascii	"CySysTickInitVar\000"
 8205      73546963 
 8205      6B496E69 
 8205      74566172 
 8205      00
 8206              	.LASF39:
 8207 018e 4379494D 		.ascii	"CyIMO_EnableDoubler\000"
 8207      4F5F456E 
 8207      61626C65 
ARM GAS  C:\Users\Yiquing\AppData\Local\Temp\ccsAoMV1.s 			page 210


 8207      446F7562 
 8207      6C657200 
 8208              	.LASF30:
 8209 01a2 70446976 		.ascii	"pDiv\000"
 8209      00
 8210              	.LASF144:
 8211 01a7 43795379 		.ascii	"CySysTickSetCallback\000"
 8211      73546963 
 8211      6B536574 
 8211      43616C6C 
 8211      6261636B 
 8212              	.LASF109:
 8213 01bc 43795664 		.ascii	"CyVdLvDigitDisable\000"
 8213      4C764469 
 8213      67697444 
 8213      69736162 
 8213      6C6500
 8214              	.LASF77:
 8215 01cf 43795854 		.ascii	"CyXTAL_Stop\000"
 8215      414C5F53 
 8215      746F7000 
 8216              	.LASF117:
 8217 01db 4379456E 		.ascii	"CyEnableInts\000"
 8217      61626C65 
 8217      496E7473 
 8217      00
 8218              	.LASF81:
 8219 01e8 43795854 		.ascii	"CyXTAL_DisableFaultRecovery\000"
 8219      414C5F44 
 8219      69736162 
 8219      6C654661 
 8219      756C7452 
 8220              	.LASF107:
 8221 0204 696E7452 		.ascii	"intRegTmp\000"
 8221      6567546D 
 8221      7000
 8222              	.LASF41:
 8223 020e 4379494D 		.ascii	"CyIMO_SetFreq\000"
 8223      4F5F5365 
 8223      74467265 
 8223      7100
 8224              	.LASF83:
 8225 021c 73657474 		.ascii	"setting\000"
 8225      696E6700 
 8226              	.LASF76:
 8227 0224 706D5477 		.ascii	"pmTwCfg2Tmp\000"
 8227      43666732 
 8227      546D7000 
 8228              	.LASF14:
 8229 0230 666C6F61 		.ascii	"float\000"
 8229      7400
 8230              	.LASF22:
 8231 0236 43794D61 		.ascii	"CyMasterClk_SetDivider\000"
 8231      73746572 
 8231      436C6B5F 
 8231      53657444 
 8231      69766964 
ARM GAS  C:\Users\Yiquing\AppData\Local\Temp\ccsAoMV1.s 			page 211


 8232              	.LASF36:
 8233 024d 4379504C 		.ascii	"CyPLL_OUT_Stop\000"
 8233      4C5F4F55 
 8233      545F5374 
 8233      6F7000
 8234              	.LASF137:
 8235 025c 43795379 		.ascii	"CySysTickGetReload\000"
 8235      73546963 
 8235      6B476574 
 8235      52656C6F 
 8235      616400
 8236              	.LASF44:
 8237 026f 6E657874 		.ascii	"nextFreq\000"
 8237      46726571 
 8237      00
 8238              	.LASF153:
 8239 0278 63796465 		.ascii	"cydelay_freq_khz\000"
 8239      6C61795F 
 8239      66726571 
 8239      5F6B687A 
 8239      00
 8240              	.LASF91:
 8241 0289 43794465 		.ascii	"CyDelayUs\000"
 8241      6C617955 
 8241      7300
 8242              	.LASF8:
 8243 0293 6C6F6E67 		.ascii	"long long unsigned int\000"
 8243      206C6F6E 
 8243      6720756E 
 8243      7369676E 
 8243      65642069 
 8244              	.LASF87:
 8245 02aa 72656173 		.ascii	"reason\000"
 8245      6F6E00
 8246              	.LASF94:
 8247 02b1 43795854 		.ascii	"CyXTAL_32KHZ_Start\000"
 8247      414C5F33 
 8247      324B485A 
 8247      5F537461 
 8247      727400
 8248              	.LASF72:
 8249 02c4 43795854 		.ascii	"CyXTAL_Start\000"
 8249      414C5F53 
 8249      74617274 
 8249      00
 8250              	.LASF93:
 8251 02d1 43795854 		.ascii	"CyXTAL_32KHZ_SetPowerMode\000"
 8251      414C5F33 
 8251      324B485A 
 8251      5F536574 
 8251      506F7765 
 8252              	.LASF25:
 8253 02eb 76616C75 		.ascii	"value\000"
 8253      6500
 8254              	.LASF28:
 8255 02f1 43794275 		.ascii	"CyBusClk_Internal_SetDivider\000"
 8255      73436C6B 
ARM GAS  C:\Users\Yiquing\AppData\Local\Temp\ccsAoMV1.s 			page 212


 8255      5F496E74 
 8255      65726E61 
 8255      6C5F5365 
 8256              	.LASF132:
 8257 030e 43795379 		.ascii	"CySysTickStop\000"
 8257      73546963 
 8257      6B53746F 
 8257      7000
 8258              	.LASF130:
 8259 031c 4379496E 		.ascii	"CyIntGetState\000"
 8259      74476574 
 8259      53746174 
 8259      6500
 8260              	.LASF37:
 8261 032a 4379494D 		.ascii	"CyIMO_Stop\000"
 8261      4F5F5374 
 8261      6F7000
 8262              	.LASF161:
 8263 0335 474E5520 		.ascii	"GNU C 4.8.4 20140526 (release) [ARM/embedded-4_8-br"
 8263      4320342E 
 8263      382E3420 
 8263      32303134 
 8263      30353236 
 8264 0368 616E6368 		.ascii	"anch revision 211358] -mcpu=cortex-m3 -mthumb -g -O"
 8264      20726576 
 8264      6973696F 
 8264      6E203231 
 8264      31333538 
 8265 039b 73202D66 		.ascii	"s -ffunction-sections\000"
 8265      66756E63 
 8265      74696F6E 
 8265      2D736563 
 8265      74696F6E 
 8266              	.LASF147:
 8267 03b1 43795379 		.ascii	"CySysTickGetCallback\000"
 8267      73546963 
 8267      6B476574 
 8267      43616C6C 
 8267      6261636B 
 8268              	.LASF108:
 8269 03c6 43795664 		.ascii	"CyVdLvAnalogEnable\000"
 8269      4C76416E 
 8269      616C6F67 
 8269      456E6162 
 8269      6C6500
 8270              	.LASF122:
 8271 03d9 6F6C6449 		.ascii	"oldIsr\000"
 8271      737200
 8272              	.LASF48:
 8273 03e0 62757343 		.ascii	"busClkDiv\000"
 8273      6C6B4469 
 8273      7600
 8274              	.LASF43:
 8275 03ea 63757272 		.ascii	"currentFreq\000"
 8275      656E7446 
 8275      72657100 
 8276              	.LASF114:
ARM GAS  C:\Users\Yiquing\AppData\Local\Temp\ccsAoMV1.s 			page 213


 8277 03f6 7664466C 		.ascii	"vdFlagsState\000"
 8277      61677353 
 8277      74617465 
 8277      00
 8278              	.LASF51:
 8279 0403 4379494C 		.ascii	"CyILO_Start1K\000"
 8279      4F5F5374 
 8279      61727431 
 8279      4B00
 8280              	.LASF29:
 8281 0411 66726571 		.ascii	"freq\000"
 8281      00
 8282              	.LASF166:
 8283 0416 43795553 		.ascii	"CyUSB_PowerOnCheck\000"
 8283      425F506F 
 8283      7765724F 
 8283      6E436865 
 8283      636B00
 8284              	.LASF102:
 8285 0429 696E7465 		.ascii	"interruptStatus\000"
 8285      72727570 
 8285      74537461 
 8285      74757300 
 8286              	.LASF155:
 8287 0439 63796465 		.ascii	"cydelay_32k_ms\000"
 8287      6C61795F 
 8287      33326B5F 
 8287      6D7300
 8288              	.LASF74:
 8289 0448 636F756E 		.ascii	"count\000"
 8289      7400
 8290              	.LASF21:
 8291 044e 63795379 		.ascii	"cySysTickCallback\000"
 8291      73546963 
 8291      6B43616C 
 8291      6C626163 
 8291      6B00
 8292              	.LASF10:
 8293 0460 63686172 		.ascii	"char\000"
 8293      00
 8294              	.LASF143:
 8295 0465 43795379 		.ascii	"CySysTickGetCountFlag\000"
 8295      73546963 
 8295      6B476574 
 8295      436F756E 
 8295      74466C61 
 8296              	.LASF168:
 8297 047b 43794465 		.ascii	"CyDelayCycles\000"
 8297      6C617943 
 8297      79636C65 
 8297      7300
 8298              	.LASF67:
 8299 0489 4379504C 		.ascii	"CyPLL_OUT_Start\000"
 8299      4C5F4F55 
 8299      545F5374 
 8299      61727400 
 8300              	.LASF167:
ARM GAS  C:\Users\Yiquing\AppData\Local\Temp\ccsAoMV1.s 			page 214


 8301 0499 4379506D 		.ascii	"CyPmReadStatus\000"
 8301      52656164 
 8301      53746174 
 8301      757300
 8302              	.LASF116:
 8303 04a8 696E7453 		.ascii	"intState\000"
 8303      74617465 
 8303      00
 8304              	.LASF12:
 8305 04b1 75696E74 		.ascii	"uint16\000"
 8305      313600
 8306              	.LASF26:
 8307 04b8 706F7765 		.ascii	"poweredOn\000"
 8307      7265644F 
 8307      6E00
 8308              	.LASF125:
 8309 04c2 4379496E 		.ascii	"CyIntSetVector\000"
 8309      74536574 
 8309      56656374 
 8309      6F7200
 8310              	.LASF56:
 8311 04d1 73746174 		.ascii	"status\000"
 8311      757300
 8312              	.LASF104:
 8313 04d8 43795664 		.ascii	"CyVdLvDigitEnable\000"
 8313      4C764469 
 8313      67697445 
 8313      6E61626C 
 8313      6500
 8314              	.LASF152:
 8315 04ea 63796465 		.ascii	"cydelay_freq_hz\000"
 8315      6C61795F 
 8315      66726571 
 8315      5F687A00 
 8316              	.LASF163:
 8317 04fa 433A5C55 		.ascii	"C:\\Users\\Yiquing\\Documents\\works\\NanoNXT\\f2f "
 8317      73657273 
 8317      5C596971 
 8317      75696E67 
 8317      5C446F63 
 8318 0527 74657374 		.ascii	"testing\\3.2.0\\nanoNxt_ICM3.cydsn\000"
 8318      696E675C 
 8318      332E322E 
 8318      305C6E61 
 8318      6E6F4E78 
 8319              	.LASF111:
 8320 0548 43795664 		.ascii	"CyVdHvAnalogEnable\000"
 8320      4876416E 
 8320      616C6F67 
 8320      456E6162 
 8320      6C6500
 8321              	.LASF66:
 8322 055b 4379494C 		.ascii	"CyILO_SetSource\000"
 8322      4F5F5365 
 8322      74536F75 
 8322      72636500 
 8323              	.LASF7:
ARM GAS  C:\Users\Yiquing\AppData\Local\Temp\ccsAoMV1.s 			page 215


 8324 056b 6C6F6E67 		.ascii	"long long int\000"
 8324      206C6F6E 
 8324      6720696E 
 8324      7400
 8325              	.LASF18:
 8326 0579 72656731 		.ascii	"reg16\000"
 8326      3600
 8327              	.LASF134:
 8328 057f 43795379 		.ascii	"CySysTickEnable\000"
 8328      73546963 
 8328      6B456E61 
 8328      626C6500 
 8329              	.LASF85:
 8330 058f 43795854 		.ascii	"CyXTAL_SetWdVoltage\000"
 8330      414C5F53 
 8330      65745764 
 8330      566F6C74 
 8330      61676500 
 8331              	.LASF60:
 8332 05a3 4379494D 		.ascii	"CyIMO_Start\000"
 8332      4F5F5374 
 8332      61727400 
 8333              	.LASF68:
 8334 05af 4379494C 		.ascii	"CyILO_SetPowerMode\000"
 8334      4F5F5365 
 8334      74506F77 
 8334      65724D6F 
 8334      646500
 8335              	.LASF124:
 8336 05c2 4379496E 		.ascii	"CyIntGetSysVector\000"
 8336      74476574 
 8336      53797356 
 8336      6563746F 
 8336      7200
 8337              	.LASF150:
 8338 05d4 43795379 		.ascii	"CySysTickCallbacks\000"
 8338      73546963 
 8338      6B43616C 
 8338      6C626163 
 8338      6B7300
 8339              	.LASF58:
 8340 05e7 706D5477 		.ascii	"pmTwCfg0State\000"
 8340      43666730 
 8340      53746174 
 8340      6500
 8341              	.LASF20:
 8342 05f5 63796973 		.ascii	"cyisraddress\000"
 8342      72616464 
 8342      72657373 
 8342      00
 8343              	.LASF78:
 8344 0602 43795854 		.ascii	"CyXTAL_EnableErrStatus\000"
 8344      414C5F45 
 8344      6E61626C 
 8344      65457272 
 8344      53746174 
 8345              	.LASF13:
ARM GAS  C:\Users\Yiquing\AppData\Local\Temp\ccsAoMV1.s 			page 216


 8346 0619 75696E74 		.ascii	"uint32\000"
 8346      333200
 8347              	.LASF138:
 8348 0620 43795379 		.ascii	"CySysTickGetValue\000"
 8348      73546963 
 8348      6B476574 
 8348      56616C75 
 8348      6500
 8349              	.LASF142:
 8350 0632 43795379 		.ascii	"CySysTickStart\000"
 8350      73546963 
 8350      6B537461 
 8350      727400
 8351              	.LASF164:
 8352 0641 43795379 		.ascii	"CySysTickServiceCallbacks\000"
 8352      73546963 
 8352      6B536572 
 8352      76696365 
 8352      43616C6C 
 8353              	.LASF157:
 8354 065b 43795854 		.ascii	"CyXTAL_32KHZ_ReadStatus\000"
 8354      414C5F33 
 8354      324B485A 
 8354      5F526561 
 8354      64537461 
 8355              	.LASF139:
 8356 0673 43795379 		.ascii	"CySysTickSetClockSource\000"
 8356      73546963 
 8356      6B536574 
 8356      436C6F63 
 8356      6B536F75 
 8357              	.LASF96:
 8358 068b 43795764 		.ascii	"CyWdtStart\000"
 8358      74537461 
 8358      727400
 8359              	.LASF55:
 8360 0696 77616974 		.ascii	"wait\000"
 8360      00
 8361              	.LASF71:
 8362 069b 43795854 		.ascii	"CyXTAL_32KHZ_Stop\000"
 8362      414C5F33 
 8362      324B485A 
 8362      5F53746F 
 8362      7000
 8363              	.LASF45:
 8364 06ad 43794D61 		.ascii	"CyMasterClk_SetSource\000"
 8364      73746572 
 8364      436C6B5F 
 8364      53657453 
 8364      6F757263 
 8365              	.LASF53:
 8366 06c3 4379494C 		.ascii	"CyILO_Start100K\000"
 8366      4F5F5374 
 8366      61727431 
 8366      30304B00 
 8367              	.LASF118:
 8368 06d3 4379466C 		.ascii	"CyFlushCache\000"
ARM GAS  C:\Users\Yiquing\AppData\Local\Temp\ccsAoMV1.s 			page 217


 8368      75736843 
 8368      61636865 
 8368      00
 8369              	.LASF115:
 8370 06e0 43794469 		.ascii	"CyDisableInts\000"
 8370      7361626C 
 8370      65496E74 
 8370      7300
 8371              	.LASF19:
 8372 06ee 72656733 		.ascii	"reg32\000"
 8372      3200
 8373              	.LASF140:
 8374 06f4 636C6F63 		.ascii	"clockSource\000"
 8374      6B536F75 
 8374      72636500 
 8375              	.LASF42:
 8376 0700 75736250 		.ascii	"usbPowerOn\000"
 8376      6F776572 
 8376      4F6E00
 8377              	.LASF34:
 8378 070b 4379504C 		.ascii	"CyPLL_OUT_SetSource\000"
 8378      4C5F4F55 
 8378      545F5365 
 8378      74536F75 
 8378      72636500 
 8379              	.LASF23:
 8380 071f 43795379 		.ascii	"CySysTickSetReload\000"
 8380      73546963 
 8380      6B536574 
 8380      52656C6F 
 8380      616400
 8381              	.LASF3:
 8382 0732 73686F72 		.ascii	"short int\000"
 8382      7420696E 
 8382      7400
 8383              	.LASF24:
 8384 073c 64697669 		.ascii	"divider\000"
 8384      64657200 
 8385              	.LASF5:
 8386 0744 6C6F6E67 		.ascii	"long int\000"
 8386      20696E74 
 8386      00
 8387              	.LASF95:
 8388 074d 43794465 		.ascii	"CyDelayFreq\000"
 8388      6C617946 
 8388      72657100 
 8389              	.LASF131:
 8390 0759 73746174 		.ascii	"stateReg\000"
 8390      65526567 
 8390      00
 8391              	.LASF119:
 8392 0762 4379496E 		.ascii	"CyIntSetSysVector\000"
 8392      74536574 
 8392      53797356 
 8392      6563746F 
 8392      7200
 8393              	.LASF128:
ARM GAS  C:\Users\Yiquing\AppData\Local\Temp\ccsAoMV1.s 			page 218


 8394 0774 7072696F 		.ascii	"priority\000"
 8394      72697479 
 8394      00
 8395              	.LASF151:
 8396 077d 43795265 		.ascii	"CyResetStatus\000"
 8396      73657453 
 8396      74617475 
 8396      7300
 8397              	.LASF135:
 8398 078b 43795379 		.ascii	"CySysTickDisableInterrupt\000"
 8398      73546963 
 8398      6B446973 
 8398      61626C65 
 8398      496E7465 
 8399              	.LASF59:
 8400 07a5 706D5477 		.ascii	"pmTwCfg2State\000"
 8400      43666732 
 8400      53746174 
 8400      6500
 8401              	.LASF110:
 8402 07b3 43795664 		.ascii	"CyVdLvAnalogDisable\000"
 8402      4C76416E 
 8402      616C6F67 
 8402      44697361 
 8402      626C6500 
 8403              	.LASF162:
 8404 07c7 2E5C4765 		.ascii	".\\Generated_Source\\PSoC5\\CyLib.c\000"
 8404      6E657261 
 8404      7465645F 
 8404      536F7572 
 8404      63655C50 
 8405              	.LASF31:
 8406 07e8 71446976 		.ascii	"qDiv\000"
 8406      00
 8407              	.LASF105:
 8408 07ed 72657365 		.ascii	"reset\000"
 8408      7400
 8409              	.LASF35:
 8410 07f3 736F7572 		.ascii	"source\000"
 8410      636500
 8411              	.LASF120:
 8412 07fa 6E756D62 		.ascii	"number\000"
 8412      657200
 8413              	.LASF141:
 8414 0801 43795379 		.ascii	"CySysTickInit\000"
 8414      73546963 
 8414      6B496E69 
 8414      7400
 8415              	.LASF9:
 8416 080f 73697A65 		.ascii	"sizetype\000"
 8416      74797065 
 8416      00
 8417              	.LASF6:
 8418 0818 6C6F6E67 		.ascii	"long unsigned int\000"
 8418      20756E73 
 8418      69676E65 
 8418      6420696E 
ARM GAS  C:\Users\Yiquing\AppData\Local\Temp\ccsAoMV1.s 			page 219


 8418      7400
 8419              	.LASF146:
 8420 082a 72657456 		.ascii	"retVal\000"
 8420      616C00
 8421              	.LASF121:
 8422 0831 61646472 		.ascii	"address\000"
 8422      65737300 
 8423              	.LASF100:
 8424 0839 43795664 		.ascii	"CyVdStickyStatus\000"
 8424      53746963 
 8424      6B795374 
 8424      61747573 
 8424      00
 8425              	.LASF63:
 8426 084a 696C6F31 		.ascii	"ilo100KhzEnable\000"
 8426      30304B68 
 8426      7A456E61 
 8426      626C6500 
 8427              	.LASF88:
 8428 085a 4379536F 		.ascii	"CySoftwareReset\000"
 8428      66747761 
 8428      72655265 
 8428      73657400 
 8429              	.LASF16:
 8430 086a 63797374 		.ascii	"cystatus\000"
 8430      61747573 
 8430      00
 8431              	.LASF46:
 8432 0873 43794275 		.ascii	"CyBusClk_SetDivider\000"
 8432      73436C6B 
 8432      5F536574 
 8432      44697669 
 8432      64657200 
 8433              	.LASF2:
 8434 0887 756E7369 		.ascii	"unsigned char\000"
 8434      676E6564 
 8434      20636861 
 8434      7200
 8435              	.LASF123:
 8436 0895 72616D56 		.ascii	"ramVectorTable\000"
 8436      6563746F 
 8436      72546162 
 8436      6C6500
 8437              	.LASF148:
 8438 08a4 43794765 		.ascii	"CyGetUniqueId\000"
 8438      74556E69 
 8438      71756549 
 8438      6400
 8439              	.LASF145:
 8440 08b2 66756E63 		.ascii	"function\000"
 8440      74696F6E 
 8440      00
 8441              	.LASF73:
 8442 08bb 74696D65 		.ascii	"timeout\000"
 8442      6F757400 
 8443              	.LASF92:
 8444 08c3 6D696372 		.ascii	"microseconds\000"
ARM GAS  C:\Users\Yiquing\AppData\Local\Temp\ccsAoMV1.s 			page 220


 8444      6F736563 
 8444      6F6E6473 
 8444      00
 8445              	.LASF86:
 8446 08d0 43794861 		.ascii	"CyHalt\000"
 8446      6C7400
 8447              	.LASF50:
 8448 08d7 43795573 		.ascii	"CyUsbClk_SetSource\000"
 8448      62436C6B 
 8448      5F536574 
 8448      536F7572 
 8448      636500
 8449              	.LASF133:
 8450 08ea 43795379 		.ascii	"CySysTickEnableInterrupt\000"
 8450      73546963 
 8450      6B456E61 
 8450      626C6549 
 8450      6E746572 
 8451              	.LASF70:
 8452 0903 73746174 		.ascii	"state\000"
 8452      6500
 8453              	.LASF113:
 8454 0909 43795664 		.ascii	"CyVdRealTimeStatus\000"
 8454      5265616C 
 8454      54696D65 
 8454      53746174 
 8454      757300
 8455              	.LASF103:
 8456 091c 746D7053 		.ascii	"tmpStatus\000"
 8456      74617475 
 8456      7300
 8457              	.LASF54:
 8458 0926 4379494C 		.ascii	"CyILO_Stop100K\000"
 8458      4F5F5374 
 8458      6F703130 
 8458      304B00
 8459              	.LASF80:
 8460 0935 43795854 		.ascii	"CyXTAL_EnableFaultRecovery\000"
 8460      414C5F45 
 8460      6E61626C 
 8460      65466175 
 8460      6C745265 
 8461              	.LASF84:
 8462 0950 43795854 		.ascii	"CyXTAL_SetFbVoltage\000"
 8462      414C5F53 
 8462      65744662 
 8462      566F6C74 
 8462      61676500 
 8463              	.LASF106:
 8464 0964 74687265 		.ascii	"threshold\000"
 8464      73686F6C 
 8464      6400
 8465              	.LASF158:
 8466 096e 4379456E 		.ascii	"CyEnterCriticalSection\000"
 8466      74657243 
 8466      72697469 
 8466      63616C53 
ARM GAS  C:\Users\Yiquing\AppData\Local\Temp\ccsAoMV1.s 			page 221


 8466      65637469 
 8467              	.LASF1:
 8468 0985 7369676E 		.ascii	"signed char\000"
 8468      65642063 
 8468      68617200 
 8469              	.LASF4:
 8470 0991 73686F72 		.ascii	"short unsigned int\000"
 8470      7420756E 
 8470      7369676E 
 8470      65642069 
 8470      6E7400
 8471              	.LASF62:
 8472 09a4 706D4674 		.ascii	"pmFtwCfg0Reg\000"
 8472      77436667 
 8472      30526567 
 8472      00
 8473              	.LASF38:
 8474 09b1 4379494D 		.ascii	"CyIMO_SetSource\000"
 8474      4F5F5365 
 8474      74536F75 
 8474      72636500 
 8475              	.LASF149:
 8476 09c1 756E6971 		.ascii	"uniqueId\000"
 8476      75654964 
 8476      00
 8477              	.LASF32:
 8478 09ca 63757272 		.ascii	"current\000"
 8478      656E7400 
 8479              	.LASF64:
 8480 09d2 4379494C 		.ascii	"CyILO_Enable33K\000"
 8480      4F5F456E 
 8480      61626C65 
 8480      33334B00 
 8481              	.LASF11:
 8482 09e2 75696E74 		.ascii	"uint8\000"
 8482      3800
 8483              	.LASF15:
 8484 09e8 646F7562 		.ascii	"double\000"
 8484      6C6500
 8485              	.LASF57:
 8486 09ef 696C6F45 		.ascii	"iloEnableState\000"
 8486      6E61626C 
 8486      65537461 
 8486      746500
 8487              	.LASF112:
 8488 09fe 43795664 		.ascii	"CyVdHvAnalogDisable\000"
 8488      4876416E 
 8488      616C6F67 
 8488      44697361 
 8488      626C6500 
 8489              	.LASF61:
 8490 0a12 706D4674 		.ascii	"pmFtwCfg2Reg\000"
 8490      77436667 
 8490      32526567 
 8490      00
 8491              		.ident	"GCC: (GNU Tools for ARM Embedded Processors) 4.8.4 20140526 (release) [ARM/embedded-4_8-br
