ARM GAS  C:\Users\Yiquing\AppData\Local\Temp\ccNtp0cD.s 			page 1


   1              		.syntax unified
   2              		.cpu cortex-m3
   3              		.fpu softvfp
   4              		.eabi_attribute 20, 1
   5              		.eabi_attribute 21, 1
   6              		.eabi_attribute 23, 3
   7              		.eabi_attribute 24, 1
   8              		.eabi_attribute 25, 1
   9              		.eabi_attribute 26, 1
  10              		.eabi_attribute 30, 4
  11              		.eabi_attribute 34, 1
  12              		.eabi_attribute 18, 4
  13              		.thumb
  14              		.file	"EZI2CPin.c"
  15              		.text
  16              	.Ltext0:
  17              		.cfi_sections	.debug_frame
  18              		.section	.text.EZI2CPin_Write,"ax",%progbits
  19              		.align	1
  20              		.global	EZI2CPin_Write
  21              		.thumb
  22              		.thumb_func
  23              		.type	EZI2CPin_Write, %function
  24              	EZI2CPin_Write:
  25              	.LFB0:
  26              		.file 1 ".\\Generated_Source\\PSoC5\\EZI2CPin.c"
   1:.\Generated_Source\PSoC5/EZI2CPin.c **** /*******************************************************************************
   2:.\Generated_Source\PSoC5/EZI2CPin.c **** * File Name: EZI2CPin.c  
   3:.\Generated_Source\PSoC5/EZI2CPin.c **** * Version 2.10
   4:.\Generated_Source\PSoC5/EZI2CPin.c **** *
   5:.\Generated_Source\PSoC5/EZI2CPin.c **** * Description:
   6:.\Generated_Source\PSoC5/EZI2CPin.c **** *  This file contains API to enable firmware control of a Pins component.
   7:.\Generated_Source\PSoC5/EZI2CPin.c **** *
   8:.\Generated_Source\PSoC5/EZI2CPin.c **** * Note:
   9:.\Generated_Source\PSoC5/EZI2CPin.c **** *
  10:.\Generated_Source\PSoC5/EZI2CPin.c **** ********************************************************************************
  11:.\Generated_Source\PSoC5/EZI2CPin.c **** * Copyright 2008-2014, Cypress Semiconductor Corporation.  All rights reserved.
  12:.\Generated_Source\PSoC5/EZI2CPin.c **** * You may use this file only in accordance with the license, terms, conditions, 
  13:.\Generated_Source\PSoC5/EZI2CPin.c **** * disclaimers, and limitations in the end user license agreement accompanying 
  14:.\Generated_Source\PSoC5/EZI2CPin.c **** * the software package with which this file was provided.
  15:.\Generated_Source\PSoC5/EZI2CPin.c **** *******************************************************************************/
  16:.\Generated_Source\PSoC5/EZI2CPin.c **** 
  17:.\Generated_Source\PSoC5/EZI2CPin.c **** #include "cytypes.h"
  18:.\Generated_Source\PSoC5/EZI2CPin.c **** #include "EZI2CPin.h"
  19:.\Generated_Source\PSoC5/EZI2CPin.c **** 
  20:.\Generated_Source\PSoC5/EZI2CPin.c **** /* APIs are not generated for P15[7:6] on PSoC 5 */
  21:.\Generated_Source\PSoC5/EZI2CPin.c **** #if !(CY_PSOC5A &&\
  22:.\Generated_Source\PSoC5/EZI2CPin.c **** 	 EZI2CPin__PORT == 15 && ((EZI2CPin__MASK & 0xC0) != 0))
  23:.\Generated_Source\PSoC5/EZI2CPin.c **** 
  24:.\Generated_Source\PSoC5/EZI2CPin.c **** 
  25:.\Generated_Source\PSoC5/EZI2CPin.c **** /*******************************************************************************
  26:.\Generated_Source\PSoC5/EZI2CPin.c **** * Function Name: EZI2CPin_Write
  27:.\Generated_Source\PSoC5/EZI2CPin.c **** ********************************************************************************
  28:.\Generated_Source\PSoC5/EZI2CPin.c **** *
  29:.\Generated_Source\PSoC5/EZI2CPin.c **** * Summary:
  30:.\Generated_Source\PSoC5/EZI2CPin.c **** *  Assign a new value to the digital port's data output register.  
  31:.\Generated_Source\PSoC5/EZI2CPin.c **** *
ARM GAS  C:\Users\Yiquing\AppData\Local\Temp\ccNtp0cD.s 			page 2


  32:.\Generated_Source\PSoC5/EZI2CPin.c **** * Parameters:  
  33:.\Generated_Source\PSoC5/EZI2CPin.c **** *  prtValue:  The value to be assigned to the Digital Port. 
  34:.\Generated_Source\PSoC5/EZI2CPin.c **** *
  35:.\Generated_Source\PSoC5/EZI2CPin.c **** * Return: 
  36:.\Generated_Source\PSoC5/EZI2CPin.c **** *  None
  37:.\Generated_Source\PSoC5/EZI2CPin.c **** *  
  38:.\Generated_Source\PSoC5/EZI2CPin.c **** *******************************************************************************/
  39:.\Generated_Source\PSoC5/EZI2CPin.c **** void EZI2CPin_Write(uint8 value) 
  40:.\Generated_Source\PSoC5/EZI2CPin.c **** {
  27              		.loc 1 40 0
  28              		.cfi_startproc
  29              		@ args = 0, pretend = 0, frame = 0
  30              		@ frame_needed = 0, uses_anonymous_args = 0
  31              		@ link register save eliminated.
  32              	.LVL0:
  41:.\Generated_Source\PSoC5/EZI2CPin.c ****     uint8 staticBits = (EZI2CPin_DR & (uint8)(~EZI2CPin_MASK));
  33              		.loc 1 41 0
  34 0000 044B     		ldr	r3, .L2
  42:.\Generated_Source\PSoC5/EZI2CPin.c ****     EZI2CPin_DR = staticBits | ((uint8)(value << EZI2CPin_SHIFT) & EZI2CPin_MASK);
  35              		.loc 1 42 0
  36 0002 0001     		lsls	r0, r0, #4
  37              	.LVL1:
  41:.\Generated_Source\PSoC5/EZI2CPin.c ****     uint8 staticBits = (EZI2CPin_DR & (uint8)(~EZI2CPin_MASK));
  38              		.loc 1 41 0
  39 0004 1A78     		ldrb	r2, [r3]	@ zero_extendqisi2
  40              	.LVL2:
  41              		.loc 1 42 0
  42 0006 00F03000 		and	r0, r0, #48
  41:.\Generated_Source\PSoC5/EZI2CPin.c ****     uint8 staticBits = (EZI2CPin_DR & (uint8)(~EZI2CPin_MASK));
  43              		.loc 1 41 0
  44 000a 02F0CF02 		and	r2, r2, #207
  45              	.LVL3:
  46              		.loc 1 42 0
  47 000e 0243     		orrs	r2, r2, r0
  48 0010 1A70     		strb	r2, [r3]
  49 0012 7047     		bx	lr
  50              	.L3:
  51              		.align	2
  52              	.L2:
  53 0014 C0510040 		.word	1073762752
  54              		.cfi_endproc
  55              	.LFE0:
  56              		.size	EZI2CPin_Write, .-EZI2CPin_Write
  57              		.section	.text.EZI2CPin_SetDriveMode,"ax",%progbits
  58              		.align	1
  59              		.global	EZI2CPin_SetDriveMode
  60              		.thumb
  61              		.thumb_func
  62              		.type	EZI2CPin_SetDriveMode, %function
  63              	EZI2CPin_SetDriveMode:
  64              	.LFB1:
  43:.\Generated_Source\PSoC5/EZI2CPin.c **** }
  44:.\Generated_Source\PSoC5/EZI2CPin.c **** 
  45:.\Generated_Source\PSoC5/EZI2CPin.c **** 
  46:.\Generated_Source\PSoC5/EZI2CPin.c **** /*******************************************************************************
  47:.\Generated_Source\PSoC5/EZI2CPin.c **** * Function Name: EZI2CPin_SetDriveMode
  48:.\Generated_Source\PSoC5/EZI2CPin.c **** ********************************************************************************
ARM GAS  C:\Users\Yiquing\AppData\Local\Temp\ccNtp0cD.s 			page 3


  49:.\Generated_Source\PSoC5/EZI2CPin.c **** *
  50:.\Generated_Source\PSoC5/EZI2CPin.c **** * Summary:
  51:.\Generated_Source\PSoC5/EZI2CPin.c **** *  Change the drive mode on the pins of the port.
  52:.\Generated_Source\PSoC5/EZI2CPin.c **** * 
  53:.\Generated_Source\PSoC5/EZI2CPin.c **** * Parameters:  
  54:.\Generated_Source\PSoC5/EZI2CPin.c **** *  mode:  Change the pins to one of the following drive modes.
  55:.\Generated_Source\PSoC5/EZI2CPin.c **** *
  56:.\Generated_Source\PSoC5/EZI2CPin.c **** *  EZI2CPin_DM_STRONG     Strong Drive 
  57:.\Generated_Source\PSoC5/EZI2CPin.c **** *  EZI2CPin_DM_OD_HI      Open Drain, Drives High 
  58:.\Generated_Source\PSoC5/EZI2CPin.c **** *  EZI2CPin_DM_OD_LO      Open Drain, Drives Low 
  59:.\Generated_Source\PSoC5/EZI2CPin.c **** *  EZI2CPin_DM_RES_UP     Resistive Pull Up 
  60:.\Generated_Source\PSoC5/EZI2CPin.c **** *  EZI2CPin_DM_RES_DWN    Resistive Pull Down 
  61:.\Generated_Source\PSoC5/EZI2CPin.c **** *  EZI2CPin_DM_RES_UPDWN  Resistive Pull Up/Down 
  62:.\Generated_Source\PSoC5/EZI2CPin.c **** *  EZI2CPin_DM_DIG_HIZ    High Impedance Digital 
  63:.\Generated_Source\PSoC5/EZI2CPin.c **** *  EZI2CPin_DM_ALG_HIZ    High Impedance Analog 
  64:.\Generated_Source\PSoC5/EZI2CPin.c **** *
  65:.\Generated_Source\PSoC5/EZI2CPin.c **** * Return: 
  66:.\Generated_Source\PSoC5/EZI2CPin.c **** *  None
  67:.\Generated_Source\PSoC5/EZI2CPin.c **** *
  68:.\Generated_Source\PSoC5/EZI2CPin.c **** *******************************************************************************/
  69:.\Generated_Source\PSoC5/EZI2CPin.c **** void EZI2CPin_SetDriveMode(uint8 mode) 
  70:.\Generated_Source\PSoC5/EZI2CPin.c **** {
  65              		.loc 1 70 0
  66              		.cfi_startproc
  67              		@ args = 0, pretend = 0, frame = 0
  68              		@ frame_needed = 0, uses_anonymous_args = 0
  69              		@ link register save eliminated.
  70              	.LVL4:
  71:.\Generated_Source\PSoC5/EZI2CPin.c **** 	CyPins_SetPinDriveMode(EZI2CPin_0, mode);
  71              		.loc 1 71 0
  72 0000 064B     		ldr	r3, .L5
  73 0002 00F00E00 		and	r0, r0, #14
  74              	.LVL5:
  75 0006 1A78     		ldrb	r2, [r3]	@ zero_extendqisi2
  76 0008 02F0F102 		and	r2, r2, #241
  77 000c 0243     		orrs	r2, r2, r0
  78 000e 1A70     		strb	r2, [r3]
  72:.\Generated_Source\PSoC5/EZI2CPin.c **** 	CyPins_SetPinDriveMode(EZI2CPin_1, mode);
  79              		.loc 1 72 0
  80 0010 5A78     		ldrb	r2, [r3, #1]	@ zero_extendqisi2
  81 0012 02F0F102 		and	r2, r2, #241
  82 0016 1043     		orrs	r0, r0, r2
  83 0018 5870     		strb	r0, [r3, #1]
  84 001a 7047     		bx	lr
  85              	.L6:
  86              		.align	2
  87              	.L5:
  88 001c 64500040 		.word	1073762404
  89              		.cfi_endproc
  90              	.LFE1:
  91              		.size	EZI2CPin_SetDriveMode, .-EZI2CPin_SetDriveMode
  92              		.section	.text.EZI2CPin_Read,"ax",%progbits
  93              		.align	1
  94              		.global	EZI2CPin_Read
  95              		.thumb
  96              		.thumb_func
  97              		.type	EZI2CPin_Read, %function
ARM GAS  C:\Users\Yiquing\AppData\Local\Temp\ccNtp0cD.s 			page 4


  98              	EZI2CPin_Read:
  99              	.LFB2:
  73:.\Generated_Source\PSoC5/EZI2CPin.c **** }
  74:.\Generated_Source\PSoC5/EZI2CPin.c **** 
  75:.\Generated_Source\PSoC5/EZI2CPin.c **** 
  76:.\Generated_Source\PSoC5/EZI2CPin.c **** /*******************************************************************************
  77:.\Generated_Source\PSoC5/EZI2CPin.c **** * Function Name: EZI2CPin_Read
  78:.\Generated_Source\PSoC5/EZI2CPin.c **** ********************************************************************************
  79:.\Generated_Source\PSoC5/EZI2CPin.c **** *
  80:.\Generated_Source\PSoC5/EZI2CPin.c **** * Summary:
  81:.\Generated_Source\PSoC5/EZI2CPin.c **** *  Read the current value on the pins of the Digital Port in right justified 
  82:.\Generated_Source\PSoC5/EZI2CPin.c **** *  form.
  83:.\Generated_Source\PSoC5/EZI2CPin.c **** *
  84:.\Generated_Source\PSoC5/EZI2CPin.c **** * Parameters:  
  85:.\Generated_Source\PSoC5/EZI2CPin.c **** *  None
  86:.\Generated_Source\PSoC5/EZI2CPin.c **** *
  87:.\Generated_Source\PSoC5/EZI2CPin.c **** * Return: 
  88:.\Generated_Source\PSoC5/EZI2CPin.c **** *  Returns the current value of the Digital Port as a right justified number
  89:.\Generated_Source\PSoC5/EZI2CPin.c **** *  
  90:.\Generated_Source\PSoC5/EZI2CPin.c **** * Note:
  91:.\Generated_Source\PSoC5/EZI2CPin.c **** *  Macro EZI2CPin_ReadPS calls this function. 
  92:.\Generated_Source\PSoC5/EZI2CPin.c **** *  
  93:.\Generated_Source\PSoC5/EZI2CPin.c **** *******************************************************************************/
  94:.\Generated_Source\PSoC5/EZI2CPin.c **** uint8 EZI2CPin_Read(void) 
  95:.\Generated_Source\PSoC5/EZI2CPin.c **** {
 100              		.loc 1 95 0
 101              		.cfi_startproc
 102              		@ args = 0, pretend = 0, frame = 0
 103              		@ frame_needed = 0, uses_anonymous_args = 0
 104              		@ link register save eliminated.
  96:.\Generated_Source\PSoC5/EZI2CPin.c ****     return (EZI2CPin_PS & EZI2CPin_MASK) >> EZI2CPin_SHIFT;
 105              		.loc 1 96 0
 106 0000 024B     		ldr	r3, .L8
 107 0002 1878     		ldrb	r0, [r3]	@ zero_extendqisi2
  97:.\Generated_Source\PSoC5/EZI2CPin.c **** }
 108              		.loc 1 97 0
 109 0004 C0F30110 		ubfx	r0, r0, #4, #2
 110 0008 7047     		bx	lr
 111              	.L9:
 112 000a 00BF     		.align	2
 113              	.L8:
 114 000c C1510040 		.word	1073762753
 115              		.cfi_endproc
 116              	.LFE2:
 117              		.size	EZI2CPin_Read, .-EZI2CPin_Read
 118              		.section	.text.EZI2CPin_ReadDataReg,"ax",%progbits
 119              		.align	1
 120              		.global	EZI2CPin_ReadDataReg
 121              		.thumb
 122              		.thumb_func
 123              		.type	EZI2CPin_ReadDataReg, %function
 124              	EZI2CPin_ReadDataReg:
 125              	.LFB3:
  98:.\Generated_Source\PSoC5/EZI2CPin.c **** 
  99:.\Generated_Source\PSoC5/EZI2CPin.c **** 
 100:.\Generated_Source\PSoC5/EZI2CPin.c **** /*******************************************************************************
 101:.\Generated_Source\PSoC5/EZI2CPin.c **** * Function Name: EZI2CPin_ReadDataReg
ARM GAS  C:\Users\Yiquing\AppData\Local\Temp\ccNtp0cD.s 			page 5


 102:.\Generated_Source\PSoC5/EZI2CPin.c **** ********************************************************************************
 103:.\Generated_Source\PSoC5/EZI2CPin.c **** *
 104:.\Generated_Source\PSoC5/EZI2CPin.c **** * Summary:
 105:.\Generated_Source\PSoC5/EZI2CPin.c **** *  Read the current value assigned to a Digital Port's data output register
 106:.\Generated_Source\PSoC5/EZI2CPin.c **** *
 107:.\Generated_Source\PSoC5/EZI2CPin.c **** * Parameters:  
 108:.\Generated_Source\PSoC5/EZI2CPin.c **** *  None 
 109:.\Generated_Source\PSoC5/EZI2CPin.c **** *
 110:.\Generated_Source\PSoC5/EZI2CPin.c **** * Return: 
 111:.\Generated_Source\PSoC5/EZI2CPin.c **** *  Returns the current value assigned to the Digital Port's data output register
 112:.\Generated_Source\PSoC5/EZI2CPin.c **** *  
 113:.\Generated_Source\PSoC5/EZI2CPin.c **** *******************************************************************************/
 114:.\Generated_Source\PSoC5/EZI2CPin.c **** uint8 EZI2CPin_ReadDataReg(void) 
 115:.\Generated_Source\PSoC5/EZI2CPin.c **** {
 126              		.loc 1 115 0
 127              		.cfi_startproc
 128              		@ args = 0, pretend = 0, frame = 0
 129              		@ frame_needed = 0, uses_anonymous_args = 0
 130              		@ link register save eliminated.
 116:.\Generated_Source\PSoC5/EZI2CPin.c ****     return (EZI2CPin_DR & EZI2CPin_MASK) >> EZI2CPin_SHIFT;
 131              		.loc 1 116 0
 132 0000 024B     		ldr	r3, .L11
 133 0002 1878     		ldrb	r0, [r3]	@ zero_extendqisi2
 117:.\Generated_Source\PSoC5/EZI2CPin.c **** }
 134              		.loc 1 117 0
 135 0004 C0F30110 		ubfx	r0, r0, #4, #2
 136 0008 7047     		bx	lr
 137              	.L12:
 138 000a 00BF     		.align	2
 139              	.L11:
 140 000c C0510040 		.word	1073762752
 141              		.cfi_endproc
 142              	.LFE3:
 143              		.size	EZI2CPin_ReadDataReg, .-EZI2CPin_ReadDataReg
 144              		.text
 145              	.Letext0:
 146              		.file 2 ".\\Generated_Source\\PSoC5\\cytypes.h"