ARM GAS  C:\Users\Yiquing\AppData\Local\Temp\cckzGpun.s 			page 1


   1              		.syntax unified
   2              		.cpu cortex-m3
   3              		.fpu softvfp
   4              		.eabi_attribute 20, 1
   5              		.eabi_attribute 21, 1
   6              		.eabi_attribute 23, 3
   7              		.eabi_attribute 24, 1
   8              		.eabi_attribute 25, 1
   9              		.eabi_attribute 26, 1
  10              		.eabi_attribute 30, 4
  11              		.eabi_attribute 34, 1
  12              		.eabi_attribute 18, 4
  13              		.thumb
  14              		.file	"inout.c"
  15              		.text
  16              	.Ltext0:
  17              		.cfi_sections	.debug_frame
  18              		.section	.text.SetHardwareVals,"ax",%progbits
  19              		.align	1
  20              		.global	SetHardwareVals
  21              		.thumb
  22              		.thumb_func
  23              		.type	SetHardwareVals, %function
  24              	SetHardwareVals:
  25              	.LFB63:
  26              		.file 1 ".\\inout.c"
   1:.\inout.c     **** /* ========================================
   2:.\inout.c     ****  *
   3:.\inout.c     ****  * Copyright YOUR COMPANY, THE YEAR
   4:.\inout.c     ****  * All Rights Reserved
   5:.\inout.c     ****  * UNPUBLISHED, LICENSED SOFTWARE.
   6:.\inout.c     ****  *
   7:.\inout.c     ****  * CONFIDENTIAL AND PROPRIETARY INFORMATION
   8:.\inout.c     ****  * WHICH IS THE PROPERTY OF your company.
   9:.\inout.c     ****  *
  10:.\inout.c     ****  * ========================================
  11:.\inout.c     **** */
  12:.\inout.c     **** 
  13:.\inout.c     **** // GRI 1-13-2015 - Revised for 3.1.1;  TAMPER_OUT must not be set in SetHardwareVals - has been mov
  14:.\inout.c     **** // GRI 2-04-2015 - Revised for 3.1.5;  Extensive revision to input signal checker to add debounce/n
  15:.\inout.c     **** 
  16:.\inout.c     **** #include <project.h>
  17:.\inout.c     **** #include "system.h"
  18:.\inout.c     **** #include "i2cuart.h"
  19:.\inout.c     **** 
  20:.\inout.c     **** //int pwr_cnt;
  21:.\inout.c     **** 
  22:.\inout.c     **** // this function reads the current settings from the file register 
  23:.\inout.c     **** // and configures the outputs accordingly
  24:.\inout.c     **** void  SetHardwareVals(int val)
  25:.\inout.c     **** {
  27              		.loc 1 25 0
  28              		.cfi_startproc
  29              		@ args = 0, pretend = 0, frame = 0
  30              		@ frame_needed = 0, uses_anonymous_args = 0
  31              	.LVL0:
  32 0000 10B5     		push	{r4, lr}
ARM GAS  C:\Users\Yiquing\AppData\Local\Temp\cckzGpun.s 			page 2


  33              		.cfi_def_cfa_offset 8
  34              		.cfi_offset 4, -8
  35              		.cfi_offset 14, -4
  36              		.loc 1 25 0
  37 0002 0446     		mov	r4, r0
  26:.\inout.c     ****     // 1 - low ; 0 - high
  27:.\inout.c     **** 
  28:.\inout.c     ****     if((val&LED_OUT_RED) == LED_OUT_RED) 
  38              		.loc 1 28 0
  39 0004 10F00100 		ands	r0, r0, #1
  40              	.LVL1:
  29:.\inout.c     **** 	    LEDR_OUT_Write(1);
  41              		.loc 1 29 0
  42 0008 18BF     		it	ne
  43 000a 0120     		movne	r0, #1
  30:.\inout.c     ****     else
  31:.\inout.c     ****         LEDR_OUT_Write(0);
  44              		.loc 1 31 0
  45 000c FFF7FEFF 		bl	LEDR_OUT_Write
  46              	.LVL2:
  32:.\inout.c     ****         
  33:.\inout.c     ****     if((val&LED_OUT_GRN) == LED_OUT_GRN) 
  47              		.loc 1 33 0
  48 0010 14F00200 		ands	r0, r4, #2
  34:.\inout.c     **** 	    LEDG_OUT_Write(1);
  49              		.loc 1 34 0
  50 0014 18BF     		it	ne
  51 0016 0120     		movne	r0, #1
  35:.\inout.c     ****     else
  36:.\inout.c     ****         LEDG_OUT_Write(0);
  52              		.loc 1 36 0
  53 0018 FFF7FEFF 		bl	LEDG_OUT_Write
  54              	.LVL3:
  37:.\inout.c     ****         
  38:.\inout.c     **** 	 if((val&SOUNDER_OUT) == SOUNDER_OUT) 
  55              		.loc 1 38 0
  56 001c 14F00400 		ands	r0, r4, #4
  39:.\inout.c     **** 	    SOUND_OUT_Write(1);
  57              		.loc 1 39 0
  58 0020 18BF     		it	ne
  59 0022 0120     		movne	r0, #1
  40:.\inout.c     ****     else
  41:.\inout.c     ****         SOUND_OUT_Write(0);
  60              		.loc 1 41 0
  61 0024 FFF7FEFF 		bl	SOUND_OUT_Write
  62              	.LVL4:
  42:.\inout.c     **** 
  43:.\inout.c     ****     // TAMPER_OUT logic is now moved to HandleInputs.  (GRI 1-13-15, 2-3-15)
  44:.\inout.c     ****     // TAMPER_POL is incoming webconfig polarity bit for CR tamper.
  45:.\inout.c     ****     if((val&TAMPERCR_POL) == TAMPERCR_POL)  
  63              		.loc 1 45 0
  64 0028 14F00802 		ands	r2, r4, #8
  46:.\inout.c     ****         TAMPERCR_POLARITY = 1;
  65              		.loc 1 46 0
  66 002c 18BF     		it	ne
  67 002e 0122     		movne	r2, #1
  68 0030 074B     		ldr	r3, .L13
ARM GAS  C:\Users\Yiquing\AppData\Local\Temp\cckzGpun.s 			page 3


  47:.\inout.c     ****    else
  48:.\inout.c     ****         TAMPERCR_POLARITY = 0;
  49:.\inout.c     ****                 
  50:.\inout.c     ****     if((val&RELAY_1_OUT) == RELAY_1_OUT) 
  69              		.loc 1 50 0
  70 0032 14F01000 		ands	r0, r4, #16
  51:.\inout.c     ****         RELAY_A_Write(1);
  71              		.loc 1 51 0
  72 0036 18BF     		it	ne
  73 0038 0120     		movne	r0, #1
  48:.\inout.c     ****         TAMPERCR_POLARITY = 0;
  74              		.loc 1 48 0
  75 003a 1A60     		str	r2, [r3]
  52:.\inout.c     ****     else
  53:.\inout.c     ****         RELAY_A_Write(0);
  76              		.loc 1 53 0
  77 003c FFF7FEFF 		bl	RELAY_A_Write
  78              	.LVL5:
  54:.\inout.c     ****         
  55:.\inout.c     ****     if((val&RELAY_2_OUT) == RELAY_2_OUT) 
  79              		.loc 1 55 0
  80 0040 14F02000 		ands	r0, r4, #32
  56:.\inout.c     ****         RELAY_B_Write(1);
  81              		.loc 1 56 0
  82 0044 18BF     		it	ne
  83 0046 0120     		movne	r0, #1
  57:.\inout.c     ****     else
  58:.\inout.c     ****         RELAY_B_Write(0);
  59:.\inout.c     **** 	
  60:.\inout.c     **** 
  61:.\inout.c     **** } 
  84              		.loc 1 61 0
  85 0048 BDE81040 		pop	{r4, lr}
  86              	.LVL6:
  58:.\inout.c     ****         RELAY_B_Write(0);
  87              		.loc 1 58 0
  88 004c FFF7FEBF 		b	RELAY_B_Write
  89              	.LVL7:
  90              	.L14:
  91              		.align	2
  92              	.L13:
  93 0050 00000000 		.word	TAMPERCR_POLARITY
  94              		.cfi_endproc
  95              	.LFE63:
  96              		.size	SetHardwareVals, .-SetHardwareVals
  97              		.section	.text.GetHardwareVals,"ax",%progbits
  98              		.align	1
  99              		.global	GetHardwareVals
 100              		.thumb
 101              		.thumb_func
 102              		.type	GetHardwareVals, %function
 103              	GetHardwareVals:
 104              	.LFB64:
  62:.\inout.c     **** 
  63:.\inout.c     **** 
  64:.\inout.c     **** 
  65:.\inout.c     **** uint8 GetHardwareVals()
ARM GAS  C:\Users\Yiquing\AppData\Local\Temp\cckzGpun.s 			page 4


  66:.\inout.c     **** {
 105              		.loc 1 66 0
 106              		.cfi_startproc
 107              		@ args = 0, pretend = 0, frame = 0
 108              		@ frame_needed = 0, uses_anonymous_args = 0
 109              	.LVL8:
 110 0000 70B5     		push	{r4, r5, r6, lr}
 111              		.cfi_def_cfa_offset 16
 112              		.cfi_offset 4, -16
 113              		.cfi_offset 5, -12
 114              		.cfi_offset 6, -8
 115              		.cfi_offset 14, -4
  67:.\inout.c     **** 	uint8 val = 0;
  68:.\inout.c     **** 	
  69:.\inout.c     **** 	if (LEDR_IN_Read() == 1)
 116              		.loc 1 69 0
 117 0002 FFF7FEFF 		bl	LEDR_IN_Read
 118              	.LVL9:
  70:.\inout.c     **** 	    val |= LED_IN_RED;
 119              		.loc 1 70 0
 120 0006 431E     		subs	r3, r0, #1
 121 0008 5C42     		rsbs	r4, r3, #0
 122 000a 5C41     		adcs	r4, r4, r3
 123              	.LVL10:
  71:.\inout.c     ****     else
  72:.\inout.c     ****         val &= ~LED_IN_RED;
  73:.\inout.c     ****     
  74:.\inout.c     **** 	if (LEDG_IN_Read() == 1)
 124              		.loc 1 74 0
 125 000c FFF7FEFF 		bl	LEDG_IN_Read
 126              	.LVL11:
 127 0010 0128     		cmp	r0, #1
  75:.\inout.c     **** 	    val |= LED_IN_GRN;
 128              		.loc 1 75 0
 129 0012 04BF     		itt	eq
 130 0014 44F00204 		orreq	r4, r4, #2
 131              	.LVL12:
 132 0018 E4B2     		uxtbeq	r4, r4
 133              	.LVL13:
  76:.\inout.c     ****     else
  77:.\inout.c     ****        val &= ~LED_IN_GRN; 
  78:.\inout.c     **** 
  79:.\inout.c     **** 	if (SOUND_IN_Read() == 1)
 134              		.loc 1 79 0
 135 001a FFF7FEFF 		bl	SOUND_IN_Read
 136              	.LVL14:
 137 001e 0128     		cmp	r0, #1
  80:.\inout.c     **** 	   val |= SOUNDER_IN;
 138              		.loc 1 80 0
 139 0020 08BF     		it	eq
 140 0022 44F00404 		orreq	r4, r4, #4
 141              	.LVL15:
  81:.\inout.c     ****     else
  82:.\inout.c     ****        val &= ~SOUNDER_IN;
  83:.\inout.c     ****     
  84:.\inout.c     ****     if (TAMPER_IN_Read() == 1)   // Tamper coming from Card Reader
 142              		.loc 1 84 0
ARM GAS  C:\Users\Yiquing\AppData\Local\Temp\cckzGpun.s 			page 5


 143 0026 FFF7FEFF 		bl	TAMPER_IN_Read
 144              	.LVL16:
 145 002a 0128     		cmp	r0, #1
  85:.\inout.c     **** 	    val |= TAMPERCR_IN;   //set register bit to 1
 146              		.loc 1 85 0
 147 002c 08BF     		it	eq
 148 002e 44F00804 		orreq	r4, r4, #8
 149              	.LVL17:
  86:.\inout.c     ****     else
  87:.\inout.c     ****         val &= ~TAMPERCR_IN;  //set register bit to 0
  88:.\inout.c     ****    
  89:.\inout.c     ****     if(REED_1_Read() == 1)  // Reed Switch 1 - local ICM tamper
 150              		.loc 1 89 0
 151 0032 FFF7FEFF 		bl	REED_1_Read
 152              	.LVL18:
  90:.\inout.c     ****       val |= REED_1_IN;
  91:.\inout.c     ****     else
  92:.\inout.c     ****       val &= ~REED_1_IN;
  93:.\inout.c     **** /*    
  94:.\inout.c     ****     if (REED_2_Read() == 1) // Reed Switch 2 - local ICM tamper  *** THIS SECTION DEFEATED DUE TO I
  95:.\inout.c     ****       val |= REED_2_IN;
  96:.\inout.c     ****     else 
  97:.\inout.c     ****       val &= ~REED_2_IN;
  98:.\inout.c     **** */
  99:.\inout.c     ****       val |= REED_2_IN; // REED_2 is always set to 1 while defeated - remove this when re-enabled
 100:.\inout.c     ****     
 101:.\inout.c     ****     
 102:.\inout.c     ****     if (buttonReleased){
 153              		.loc 1 102 0
 154 0036 1D4B     		ldr	r3, .L26
  89:.\inout.c     ****     if(REED_1_Read() == 1)  // Reed Switch 1 - local ICM tamper
 155              		.loc 1 89 0
 156 0038 0128     		cmp	r0, #1
 157              		.loc 1 102 0
 158 003a 1A78     		ldrb	r2, [r3]	@ zero_extendqisi2
  90:.\inout.c     ****       val |= REED_1_IN;
 159              		.loc 1 90 0
 160 003c 08BF     		it	eq
 161 003e 44F01004 		orreq	r4, r4, #16
 162              	.LVL19:
 163              		.loc 1 102 0
 164 0042 7AB3     		cbz	r2, .L20
 103:.\inout.c     ****         buttonReleased = 0;
 165              		.loc 1 103 0
 166 0044 0025     		movs	r5, #0
 167 0046 1D70     		strb	r5, [r3]
 104:.\inout.c     ****         if(buttonDuration < FCTRYRST_TIME_MS){ //less than 5 seconds
 168              		.loc 1 104 0
 169 0048 194B     		ldr	r3, .L26+4
 170 004a 41F28732 		movw	r2, #4999
 171 004e 1B68     		ldr	r3, [r3]
 172 0050 184E     		ldr	r6, .L26+8
 173 0052 9342     		cmp	r3, r2
 174 0054 04DC     		bgt	.L21
 105:.\inout.c     ****             val |= 0x40; 
 106:.\inout.c     ****             MyI2C_Regs.factory_reset = 0;
 175              		.loc 1 106 0
ARM GAS  C:\Users\Yiquing\AppData\Local\Temp\cckzGpun.s 			page 6


 176 0056 86F84250 		strb	r5, [r6, #66]
 105:.\inout.c     ****             val |= 0x40; 
 177              		.loc 1 105 0
 178 005a 44F06000 		orr	r0, r4, #96
 179              	.LVL20:
 180 005e 70BD     		pop	{r4, r5, r6, pc}
 181              	.LVL21:
 182              	.L21:
 107:.\inout.c     ****         }else if(buttonDuration >=FCTRYRST_TIME_MS && buttonDuration < RSTR_TIME_MS){ //5~45 second
 183              		.loc 1 107 0
 184 0060 A3F59C53 		sub	r3, r3, #4992
 185 0064 083B     		subs	r3, r3, #8
 186 0066 49F63F42 		movw	r2, #39999
 187 006a 9342     		cmp	r3, r2
 108:.\inout.c     ****             LED_RED_Write(0);
 188              		.loc 1 108 0
 189 006c 2846     		mov	r0, r5
 190 006e 44F02004 		orr	r4, r4, #32
 191              	.LVL22:
 107:.\inout.c     ****         }else if(buttonDuration >=FCTRYRST_TIME_MS && buttonDuration < RSTR_TIME_MS){ //5~45 second
 192              		.loc 1 107 0
 193 0072 0AD8     		bhi	.L23
 194              		.loc 1 108 0
 195 0074 FFF7FEFF 		bl	LED_RED_Write
 196              	.LVL23:
 109:.\inout.c     ****             LED_GRN_Write(0);
 197              		.loc 1 109 0
 198 0078 2846     		mov	r0, r5
 199 007a FFF7FEFF 		bl	LED_GRN_Write
 200              	.LVL24:
 110:.\inout.c     ****             LED_YEL_Write(0);
 201              		.loc 1 110 0
 202 007e 2846     		mov	r0, r5
 203 0080 FFF7FEFF 		bl	LED_YEL_Write
 204              	.LVL25:
 111:.\inout.c     ****             val &= 0xBF;  // active reset initiated
 205              		.loc 1 111 0
 206 0084 E0B2     		uxtb	r0, r4
 207              	.LVL26:
 112:.\inout.c     ****             MyI2C_Regs.factory_reset = FACRST_CODE;
 208              		.loc 1 112 0
 209 0086 0F23     		movs	r3, #15
 210 0088 09E0     		b	.L24
 211              	.LVL27:
 212              	.L23:
 113:.\inout.c     ****         }else if(buttonDuration>=RSTR_TIME_MS){ //45 or more seconds
 114:.\inout.c     ****             LED_RED_Write(0);
 213              		.loc 1 114 0
 214 008a FFF7FEFF 		bl	LED_RED_Write
 215              	.LVL28:
 115:.\inout.c     ****             LED_GRN_Write(0);
 216              		.loc 1 115 0
 217 008e 2846     		mov	r0, r5
 218 0090 FFF7FEFF 		bl	LED_GRN_Write
 219              	.LVL29:
 116:.\inout.c     ****             LED_YEL_Write(0);
 220              		.loc 1 116 0
ARM GAS  C:\Users\Yiquing\AppData\Local\Temp\cckzGpun.s 			page 7


 221 0094 2846     		mov	r0, r5
 222 0096 FFF7FEFF 		bl	LED_YEL_Write
 223              	.LVL30:
 117:.\inout.c     ****             val &= 0xBF;  // 
 224              		.loc 1 117 0
 225 009a E0B2     		uxtb	r0, r4
 226              	.LVL31:
 118:.\inout.c     ****             MyI2C_Regs.factory_reset = RESTRE_CODE;
 227              		.loc 1 118 0
 228 009c 9923     		movs	r3, #153
 229              	.LVL32:
 230              	.L24:
 231 009e 86F84230 		strb	r3, [r6, #66]
 232 00a2 70BD     		pop	{r4, r5, r6, pc}
 233              	.LVL33:
 234              	.L20:
 119:.\inout.c     ****         }
 120:.\inout.c     ****     }else{
 121:.\inout.c     ****         val |= 0x40;
 235              		.loc 1 121 0
 236 00a4 44F06000 		orr	r0, r4, #96
 237              	.LVL34:
 122:.\inout.c     ****     }
 123:.\inout.c     **** /*    if (SW_Rst_Read() == 0) // factory reset switch
 124:.\inout.c     ****     {  
 125:.\inout.c     ****       if(pwr_cnt >= 5000)   // switch must be held 'on' for 5 seconds
 126:.\inout.c     ****       {
 127:.\inout.c     ****           LED_RED_Write(0);
 128:.\inout.c     ****           LED_GRN_Write(0);
 129:.\inout.c     ****           LED_YEL_Write(0);
 130:.\inout.c     ****           val &= 0xBF;  // active reset initiated
 131:.\inout.c     ****           MyI2C_Regs.factory_reset = 1;
 132:.\inout.c     ****       }
 133:.\inout.c     ****       else
 134:.\inout.c     ****       {
 135:.\inout.c     ****           pwr_cnt++;
 136:.\inout.c     ****           val |= 0x40; 
 137:.\inout.c     ****           MyI2C_Regs.factory_reset = 0;
 138:.\inout.c     ****       }
 139:.\inout.c     ****     }
 140:.\inout.c     ****     else
 141:.\inout.c     ****     {
 142:.\inout.c     ****        pwr_cnt = 0;
 143:.\inout.c     ****        val |= 0x40;
 144:.\inout.c     ****        MyI2C_Regs.factory_reset = 0;
 145:.\inout.c     ****     }
 146:.\inout.c     ****     
 147:.\inout.c     ****     //val = 0;  //turn off - debug only 
 148:.\inout.c     **** */
 149:.\inout.c     ****     return val;
 150:.\inout.c     **** }
 238              		.loc 1 150 0
 239 00a8 70BD     		pop	{r4, r5, r6, pc}
 240              	.L27:
 241 00aa 00BF     		.align	2
 242              	.L26:
 243 00ac 00000000 		.word	buttonReleased
ARM GAS  C:\Users\Yiquing\AppData\Local\Temp\cckzGpun.s 			page 8


 244 00b0 00000000 		.word	buttonDuration
 245 00b4 00000000 		.word	MyI2C_Regs
 246              		.cfi_endproc
 247              	.LFE64:
 248              		.size	GetHardwareVals, .-GetHardwareVals
 249              		.section	.text.HandleOutputs,"ax",%progbits
 250              		.align	1
 251              		.global	HandleOutputs
 252              		.thumb
 253              		.thumb_func
 254              		.type	HandleOutputs, %function
 255              	HandleOutputs:
 256              	.LFB65:
 151:.\inout.c     **** 
 152:.\inout.c     **** void  HandleOutputs()   // this executes every 1 ms on Tamper_Timer_ISR_Interrupt
 153:.\inout.c     **** {
 257              		.loc 1 153 0
 258              		.cfi_startproc
 259              		@ args = 0, pretend = 0, frame = 0
 260              		@ frame_needed = 0, uses_anonymous_args = 0
 261 0000 38B5     		push	{r3, r4, r5, lr}
 262              		.cfi_def_cfa_offset 16
 263              		.cfi_offset 3, -16
 264              		.cfi_offset 4, -12
 265              		.cfi_offset 5, -8
 266              		.cfi_offset 14, -4
 154:.\inout.c     **** 	char stat = MyI2C_Regs.status_in;
 267              		.loc 1 154 0
 268 0002 084D     		ldr	r5, .L41
 269 0004 6C78     		ldrb	r4, [r5, #1]	@ zero_extendqisi2
 270              	.LVL35:
 155:.\inout.c     ****     if( stat & STAT_CHANGE)
 271              		.loc 1 155 0
 272 0006 E107     		lsls	r1, r4, #31
 273 0008 0BD5     		bpl	.L28
 156:.\inout.c     ****     {
 157:.\inout.c     ****         if(stat & STAT_ACS_OUT)
 274              		.loc 1 157 0
 275 000a A207     		lsls	r2, r4, #30
 276 000c 02D5     		bpl	.L30
 158:.\inout.c     ****            SetHardwareVals(MyI2C_Regs.acs_inputs);
 277              		.loc 1 158 0
 278 000e 6879     		ldrb	r0, [r5, #5]	@ zero_extendqisi2
 279 0010 FFF7FEFF 		bl	SetHardwareVals
 280              	.LVL36:
 281              	.L30:
 159:.\inout.c     ****         
 160:.\inout.c     **** //not used        if(stat & STAT_OSDP_OUT)
 161:.\inout.c     **** //not used            SendOSDP();
 162:.\inout.c     ****             
 163:.\inout.c     ****         if(stat & STAT_CARD_ACK)
 282              		.loc 1 163 0
 283 0014 2307     		lsls	r3, r4, #28
 284 0016 02D5     		bpl	.L31
 164:.\inout.c     ****             card_ack = 1;    
 285              		.loc 1 164 0
 286 0018 034B     		ldr	r3, .L41+4
ARM GAS  C:\Users\Yiquing\AppData\Local\Temp\cckzGpun.s 			page 9


 287 001a 0122     		movs	r2, #1
 288 001c 1A60     		str	r2, [r3]
 289              	.L31:
 165:.\inout.c     ****             
 166:.\inout.c     ****         MyI2C_Regs.status_in = 0; 
 290              		.loc 1 166 0
 291 001e 0023     		movs	r3, #0
 292 0020 6B70     		strb	r3, [r5, #1]
 293              	.L28:
 294 0022 38BD     		pop	{r3, r4, r5, pc}
 295              	.LVL37:
 296              	.L42:
 297              		.align	2
 298              	.L41:
 299 0024 00000000 		.word	MyI2C_Regs
 300 0028 00000000 		.word	card_ack
 301              		.cfi_endproc
 302              	.LFE65:
 303              		.size	HandleOutputs, .-HandleOutputs
 304              		.section	.text.HandleInputs,"ax",%progbits
 305              		.align	1
 306              		.global	HandleInputs
 307              		.thumb
 308              		.thumb_func
 309              		.type	HandleInputs, %function
 310              	HandleInputs:
 311              	.LFB66:
 167:.\inout.c     ****     }
 168:.\inout.c     ****    
 169:.\inout.c     ****     
 170:.\inout.c     **** }
 171:.\inout.c     **** 
 172:.\inout.c     **** 
 173:.\inout.c     **** void HandleInputs()   // this executes every 1 ms on Tamper_Timer_ISR_Interrupt
 174:.\inout.c     **** {
 312              		.loc 1 174 0
 313              		.cfi_startproc
 314              		@ args = 0, pretend = 0, frame = 0
 315              		@ frame_needed = 0, uses_anonymous_args = 0
 316 0000 38B5     		push	{r3, r4, r5, lr}
 317              		.cfi_def_cfa_offset 16
 318              		.cfi_offset 3, -16
 319              		.cfi_offset 4, -12
 320              		.cfi_offset 5, -8
 321              		.cfi_offset 14, -4
 175:.\inout.c     ****     char current_t1;
 176:.\inout.c     ****     char current_t2;
 177:.\inout.c     ****     
 178:.\inout.c     ****     /* TAMPER OUT signal to ACS Panel  GRI 1-13-15
 179:.\inout.c     ****        this accounts for configuration of tamper input from card reader  GRI 1-13-15 */
 180:.\inout.c     ****     if( (REED_1_Read() == 0)  
 322              		.loc 1 180 0
 323 0002 FFF7FEFF 		bl	REED_1_Read
 324              	.LVL38:
 325 0006 20B9     		cbnz	r0, .L44
 326              	.L47:
 181:.\inout.c     ****         /*   || (REED_2_Read() == 0)  // disabled GRI 2-4-15 */
ARM GAS  C:\Users\Yiquing\AppData\Local\Temp\cckzGpun.s 			page 10


 182:.\inout.c     ****         || ((TAMPER_IN_Read() == 0) && (TAMPERCR_POLARITY == 1)) 
 183:.\inout.c     ****         || ((TAMPER_IN_Read() == 1) && (TAMPERCR_POLARITY == 0)) )  
 184:.\inout.c     ****         
 185:.\inout.c     ****     {
 186:.\inout.c     ****        TAMPER_OUT_Write(0); // TAMPER_OUT to ACS is ACTIVE LOW
 327              		.loc 1 186 0
 328 0008 0020     		movs	r0, #0
 329 000a FFF7FEFF 		bl	TAMPER_OUT_Write
 330              	.LVL39:
 187:.\inout.c     ****        LED_RED_Write(0); //LED on
 331              		.loc 1 187 0
 332 000e 0020     		movs	r0, #0
 333 0010 12E0     		b	.L58
 334              	.L44:
 182:.\inout.c     ****         || ((TAMPER_IN_Read() == 0) && (TAMPERCR_POLARITY == 1)) 
 335              		.loc 1 182 0
 336 0012 FFF7FEFF 		bl	TAMPER_IN_Read
 337              	.LVL40:
 338 0016 18B9     		cbnz	r0, .L46
 182:.\inout.c     ****         || ((TAMPER_IN_Read() == 0) && (TAMPERCR_POLARITY == 1)) 
 339              		.loc 1 182 0 is_stmt 0 discriminator 1
 340 0018 134B     		ldr	r3, .L59
 341 001a 1B68     		ldr	r3, [r3]
 342 001c 012B     		cmp	r3, #1
 343 001e F3D0     		beq	.L47
 344              	.L46:
 183:.\inout.c     ****         || ((TAMPER_IN_Read() == 1) && (TAMPERCR_POLARITY == 0)) )  
 345              		.loc 1 183 0 is_stmt 1
 346 0020 FFF7FEFF 		bl	TAMPER_IN_Read
 347              	.LVL41:
 348 0024 0128     		cmp	r0, #1
 349 0026 03D1     		bne	.L48
 183:.\inout.c     ****         || ((TAMPER_IN_Read() == 1) && (TAMPERCR_POLARITY == 0)) )  
 350              		.loc 1 183 0 is_stmt 0 discriminator 1
 351 0028 0F4B     		ldr	r3, .L59
 352 002a 1B68     		ldr	r3, [r3]
 353 002c 002B     		cmp	r3, #0
 354 002e EBD0     		beq	.L47
 355              	.L48:
 188:.\inout.c     ****     }
 189:.\inout.c     ****     else
 190:.\inout.c     ****     {
 191:.\inout.c     ****        TAMPER_OUT_Write(1); // TAMPER_OUT to ACS is INACTIVE HIGH
 356              		.loc 1 191 0 is_stmt 1
 357 0030 0120     		movs	r0, #1
 358 0032 FFF7FEFF 		bl	TAMPER_OUT_Write
 359              	.LVL42:
 192:.\inout.c     ****        LED_RED_Write(1); //LED off
 360              		.loc 1 192 0
 361 0036 0120     		movs	r0, #1
 362              	.L58:
 363 0038 FFF7FEFF 		bl	LED_RED_Write
 364              	.LVL43:
 193:.\inout.c     ****     }
 194:.\inout.c     ****     // Tamper LED matches tamper_out signal status (ICM board only)
 195:.\inout.c     ****     
 196:.\inout.c     ****     
ARM GAS  C:\Users\Yiquing\AppData\Local\Temp\cckzGpun.s 			page 11


 197:.\inout.c     ****     //This section checks for input signal changes
 198:.\inout.c     **** 
 199:.\inout.c     ****     current_t1 = GetHardwareVals();  // read inputs first time
 365              		.loc 1 199 0
 366 003c FFF7FEFF 		bl	GetHardwareVals
 367              	.LVL44:
 200:.\inout.c     **** 	if (current_t1 != old)  //change occurred?
 368              		.loc 1 200 0
 369 0040 0A4D     		ldr	r5, .L59+4
 199:.\inout.c     ****     current_t1 = GetHardwareVals();  // read inputs first time
 370              		.loc 1 199 0
 371 0042 0446     		mov	r4, r0
 372              	.LVL45:
 373              		.loc 1 200 0
 374 0044 2B78     		ldrb	r3, [r5]	@ zero_extendqisi2
 375 0046 8342     		cmp	r3, r0
 376 0048 0DD0     		beq	.L43
 201:.\inout.c     **** 	{
 202:.\inout.c     ****         CyDelayUs(100); //delay 100us for debounce
 377              		.loc 1 202 0
 378 004a 6420     		movs	r0, #100
 379              	.LVL46:
 380 004c FFF7FEFF 		bl	CyDelayUs
 381              	.LVL47:
 203:.\inout.c     ****         current_t2 = GetHardwareVals();  // read inputs second time
 382              		.loc 1 203 0
 383 0050 FFF7FEFF 		bl	GetHardwareVals
 384              	.LVL48:
 204:.\inout.c     ****         
 205:.\inout.c     ****         if (current_t1 == current_t2)    // data is stable?
 385              		.loc 1 205 0
 386 0054 8442     		cmp	r4, r0
 387 0056 06D1     		bne	.L43
 206:.\inout.c     ****         {   
 207:.\inout.c     ****             // If Data is stable, change the status reg
 208:.\inout.c     ****             
 209:.\inout.c     **** 	        MyI2C_Regs.acs_outputs = current_t2;                //set output reg to MB
 388              		.loc 1 209 0
 389 0058 054B     		ldr	r3, .L59+8
 210:.\inout.c     ****             old = current_t2;                                   //store latest value
 390              		.loc 1 210 0
 391 005a 2C70     		strb	r4, [r5]
 211:.\inout.c     **** 	        MyI2C_Regs.status |= (STAT_ACS_IN | STAT_CHANGE);   //indicate change in ACS_IN
 392              		.loc 1 211 0
 393 005c 1A78     		ldrb	r2, [r3]	@ zero_extendqisi2
 209:.\inout.c     **** 	        MyI2C_Regs.acs_outputs = current_t2;                //set output reg to MB
 394              		.loc 1 209 0
 395 005e 1C71     		strb	r4, [r3, #4]
 396              		.loc 1 211 0
 397 0060 42F00502 		orr	r2, r2, #5
 398 0064 1A70     		strb	r2, [r3]
 399              	.LVL49:
 400              	.L43:
 401 0066 38BD     		pop	{r3, r4, r5, pc}
 402              	.LVL50:
 403              	.L60:
 404              		.align	2
ARM GAS  C:\Users\Yiquing\AppData\Local\Temp\cckzGpun.s 			page 12


 405              	.L59:
 406 0068 00000000 		.word	TAMPERCR_POLARITY
 407 006c 00000000 		.word	old
 408 0070 00000000 		.word	MyI2C_Regs
 409              		.cfi_endproc
 410              	.LFE66:
 411              		.size	HandleInputs, .-HandleInputs
 412              		.comm	card_in_buf,4,4
 413              		.comm	card_ack,4,4
 414              		.comm	TAMPERCR_POLARITY,4,4
 415              		.comm	old,1,1
 416              		.comm	currentAccessType,1,1
 417              		.comm	s,40,4
 418              		.text
 419              	.Letext0:
 420              		.file 2 "c:\\program files (x86)\\cypress\\psoc creator\\3.2\\psoc creator\\import\\gnu\\arm\\4.8.
 421              		.file 3 "c:\\program files (x86)\\cypress\\psoc creator\\3.2\\psoc creator\\import\\gnu\\arm\\4.8.
 422              		.file 4 "Generated_Source\\PSoC5/cytypes.h"
 423              		.file 5 ".\\softuart.h"
 424              		.file 6 ".\\system.h"
 425              		.file 7 "Generated_Source\\PSoC5/core_cm3.h"
 426              		.file 8 "Generated_Source\\PSoC5/LEDR_OUT.h"
 427              		.file 9 "Generated_Source\\PSoC5/LEDG_OUT.h"
 428              		.file 10 "Generated_Source\\PSoC5/SOUND_OUT.h"
 429              		.file 11 "Generated_Source\\PSoC5/RELAY_A.h"
 430              		.file 12 "Generated_Source\\PSoC5/RELAY_B.h"
 431              		.file 13 "Generated_Source\\PSoC5/LEDR_IN.h"
 432              		.file 14 "Generated_Source\\PSoC5/LEDG_IN.h"
 433              		.file 15 "Generated_Source\\PSoC5/SOUND_IN.h"
 434              		.file 16 "Generated_Source\\PSoC5/TAMPER_IN.h"
 435              		.file 17 "Generated_Source\\PSoC5/REED_1.h"
 436              		.file 18 "Generated_Source\\PSoC5/LED_RED.h"
 437              		.file 19 "Generated_Source\\PSoC5/LED_GRN.h"
 438              		.file 20 "Generated_Source\\PSoC5/LED_YEL.h"
 439              		.file 21 "Generated_Source\\PSoC5/TAMPER_OUT.h"
 440              		.file 22 "Generated_Source\\PSoC5/CyLib.h"