ARM GAS  C:\Users\Yiquing\AppData\Local\Temp\ccaIV0db.s 			page 1


   1              		.syntax unified
   2              		.cpu cortex-m3
   3              		.fpu softvfp
   4              		.eabi_attribute 20, 1
   5              		.eabi_attribute 21, 1
   6              		.eabi_attribute 23, 3
   7              		.eabi_attribute 24, 1
   8              		.eabi_attribute 25, 1
   9              		.eabi_attribute 26, 1
  10              		.eabi_attribute 30, 4
  11              		.eabi_attribute 34, 1
  12              		.eabi_attribute 18, 4
  13              		.thumb
  14              		.file	"OptSelect_PM.c"
  15              		.text
  16              	.Ltext0:
  17              		.cfi_sections	.debug_frame
  18              		.section	.text.OptSelect_SaveConfig,"ax",%progbits
  19              		.align	1
  20              		.global	OptSelect_SaveConfig
  21              		.thumb
  22              		.thumb_func
  23              		.type	OptSelect_SaveConfig, %function
  24              	OptSelect_SaveConfig:
  25              	.LFB0:
  26              		.file 1 ".\\Generated_Source\\PSoC5\\OptSelect_PM.c"
   1:.\Generated_Source\PSoC5/OptSelect_PM.c **** /*******************************************************************************
   2:.\Generated_Source\PSoC5/OptSelect_PM.c **** * File Name: OptSelect_PM.c
   3:.\Generated_Source\PSoC5/OptSelect_PM.c **** * Version 1.80
   4:.\Generated_Source\PSoC5/OptSelect_PM.c **** *
   5:.\Generated_Source\PSoC5/OptSelect_PM.c **** * Description:
   6:.\Generated_Source\PSoC5/OptSelect_PM.c **** *  This file contains the setup, control, and status commands to support 
   7:.\Generated_Source\PSoC5/OptSelect_PM.c **** *  the component operation in the low power mode. 
   8:.\Generated_Source\PSoC5/OptSelect_PM.c **** *
   9:.\Generated_Source\PSoC5/OptSelect_PM.c **** * Note:
  10:.\Generated_Source\PSoC5/OptSelect_PM.c **** *
  11:.\Generated_Source\PSoC5/OptSelect_PM.c **** ********************************************************************************
  12:.\Generated_Source\PSoC5/OptSelect_PM.c **** * Copyright 2015, Cypress Semiconductor Corporation.  All rights reserved.
  13:.\Generated_Source\PSoC5/OptSelect_PM.c **** * You may use this file only in accordance with the license, terms, conditions, 
  14:.\Generated_Source\PSoC5/OptSelect_PM.c **** * disclaimers, and limitations in the end user license agreement accompanying 
  15:.\Generated_Source\PSoC5/OptSelect_PM.c **** * the software package with which this file was provided.
  16:.\Generated_Source\PSoC5/OptSelect_PM.c **** *******************************************************************************/
  17:.\Generated_Source\PSoC5/OptSelect_PM.c **** 
  18:.\Generated_Source\PSoC5/OptSelect_PM.c **** #include "OptSelect.h"
  19:.\Generated_Source\PSoC5/OptSelect_PM.c **** 
  20:.\Generated_Source\PSoC5/OptSelect_PM.c **** /* Check for removal by optimization */
  21:.\Generated_Source\PSoC5/OptSelect_PM.c **** #if !defined(OptSelect_Sync_ctrl_reg__REMOVED)
  22:.\Generated_Source\PSoC5/OptSelect_PM.c **** 
  23:.\Generated_Source\PSoC5/OptSelect_PM.c **** static OptSelect_BACKUP_STRUCT  OptSelect_backup = {0u};
  24:.\Generated_Source\PSoC5/OptSelect_PM.c **** 
  25:.\Generated_Source\PSoC5/OptSelect_PM.c ****     
  26:.\Generated_Source\PSoC5/OptSelect_PM.c **** /*******************************************************************************
  27:.\Generated_Source\PSoC5/OptSelect_PM.c **** * Function Name: OptSelect_SaveConfig
  28:.\Generated_Source\PSoC5/OptSelect_PM.c **** ********************************************************************************
  29:.\Generated_Source\PSoC5/OptSelect_PM.c **** *
  30:.\Generated_Source\PSoC5/OptSelect_PM.c **** * Summary:
  31:.\Generated_Source\PSoC5/OptSelect_PM.c **** *  Saves the control register value.
ARM GAS  C:\Users\Yiquing\AppData\Local\Temp\ccaIV0db.s 			page 2


  32:.\Generated_Source\PSoC5/OptSelect_PM.c **** *
  33:.\Generated_Source\PSoC5/OptSelect_PM.c **** * Parameters:
  34:.\Generated_Source\PSoC5/OptSelect_PM.c **** *  None
  35:.\Generated_Source\PSoC5/OptSelect_PM.c **** *
  36:.\Generated_Source\PSoC5/OptSelect_PM.c **** * Return:
  37:.\Generated_Source\PSoC5/OptSelect_PM.c **** *  None
  38:.\Generated_Source\PSoC5/OptSelect_PM.c **** *
  39:.\Generated_Source\PSoC5/OptSelect_PM.c **** *******************************************************************************/
  40:.\Generated_Source\PSoC5/OptSelect_PM.c **** void OptSelect_SaveConfig(void) 
  41:.\Generated_Source\PSoC5/OptSelect_PM.c **** {
  27              		.loc 1 41 0
  28              		.cfi_startproc
  29              		@ args = 0, pretend = 0, frame = 0
  30              		@ frame_needed = 0, uses_anonymous_args = 0
  31              		@ link register save eliminated.
  42:.\Generated_Source\PSoC5/OptSelect_PM.c ****     OptSelect_backup.controlState = OptSelect_Control;
  32              		.loc 1 42 0
  33 0000 024B     		ldr	r3, .L2
  34 0002 1A78     		ldrb	r2, [r3]	@ zero_extendqisi2
  35 0004 024B     		ldr	r3, .L2+4
  36 0006 1A70     		strb	r2, [r3]
  37 0008 7047     		bx	lr
  38              	.L3:
  39 000a 00BF     		.align	2
  40              	.L2:
  41 000c 74640040 		.word	1073767540
  42 0010 00000000 		.word	.LANCHOR0
  43              		.cfi_endproc
  44              	.LFE0:
  45              		.size	OptSelect_SaveConfig, .-OptSelect_SaveConfig
  46              		.section	.text.OptSelect_RestoreConfig,"ax",%progbits
  47              		.align	1
  48              		.global	OptSelect_RestoreConfig
  49              		.thumb
  50              		.thumb_func
  51              		.type	OptSelect_RestoreConfig, %function
  52              	OptSelect_RestoreConfig:
  53              	.LFB1:
  43:.\Generated_Source\PSoC5/OptSelect_PM.c **** }
  44:.\Generated_Source\PSoC5/OptSelect_PM.c **** 
  45:.\Generated_Source\PSoC5/OptSelect_PM.c **** 
  46:.\Generated_Source\PSoC5/OptSelect_PM.c **** /*******************************************************************************
  47:.\Generated_Source\PSoC5/OptSelect_PM.c **** * Function Name: OptSelect_RestoreConfig
  48:.\Generated_Source\PSoC5/OptSelect_PM.c **** ********************************************************************************
  49:.\Generated_Source\PSoC5/OptSelect_PM.c **** *
  50:.\Generated_Source\PSoC5/OptSelect_PM.c **** * Summary:
  51:.\Generated_Source\PSoC5/OptSelect_PM.c **** *  Restores the control register value.
  52:.\Generated_Source\PSoC5/OptSelect_PM.c **** *
  53:.\Generated_Source\PSoC5/OptSelect_PM.c **** * Parameters:
  54:.\Generated_Source\PSoC5/OptSelect_PM.c **** *  None
  55:.\Generated_Source\PSoC5/OptSelect_PM.c **** *
  56:.\Generated_Source\PSoC5/OptSelect_PM.c **** * Return:
  57:.\Generated_Source\PSoC5/OptSelect_PM.c **** *  None
  58:.\Generated_Source\PSoC5/OptSelect_PM.c **** *
  59:.\Generated_Source\PSoC5/OptSelect_PM.c **** *
  60:.\Generated_Source\PSoC5/OptSelect_PM.c **** *******************************************************************************/
  61:.\Generated_Source\PSoC5/OptSelect_PM.c **** void OptSelect_RestoreConfig(void) 
ARM GAS  C:\Users\Yiquing\AppData\Local\Temp\ccaIV0db.s 			page 3


  62:.\Generated_Source\PSoC5/OptSelect_PM.c **** {
  54              		.loc 1 62 0
  55              		.cfi_startproc
  56              		@ args = 0, pretend = 0, frame = 0
  57              		@ frame_needed = 0, uses_anonymous_args = 0
  58              		@ link register save eliminated.
  63:.\Generated_Source\PSoC5/OptSelect_PM.c ****      OptSelect_Control = OptSelect_backup.controlState;
  59              		.loc 1 63 0
  60 0000 024B     		ldr	r3, .L5
  61 0002 1A78     		ldrb	r2, [r3]	@ zero_extendqisi2
  62 0004 024B     		ldr	r3, .L5+4
  63 0006 1A70     		strb	r2, [r3]
  64 0008 7047     		bx	lr
  65              	.L6:
  66 000a 00BF     		.align	2
  67              	.L5:
  68 000c 00000000 		.word	.LANCHOR0
  69 0010 74640040 		.word	1073767540
  70              		.cfi_endproc
  71              	.LFE1:
  72              		.size	OptSelect_RestoreConfig, .-OptSelect_RestoreConfig
  73              		.section	.text.OptSelect_Sleep,"ax",%progbits
  74              		.align	1
  75              		.global	OptSelect_Sleep
  76              		.thumb
  77              		.thumb_func
  78              		.type	OptSelect_Sleep, %function
  79              	OptSelect_Sleep:
  80              	.LFB2:
  64:.\Generated_Source\PSoC5/OptSelect_PM.c **** }
  65:.\Generated_Source\PSoC5/OptSelect_PM.c **** 
  66:.\Generated_Source\PSoC5/OptSelect_PM.c **** 
  67:.\Generated_Source\PSoC5/OptSelect_PM.c **** /*******************************************************************************
  68:.\Generated_Source\PSoC5/OptSelect_PM.c **** * Function Name: OptSelect_Sleep
  69:.\Generated_Source\PSoC5/OptSelect_PM.c **** ********************************************************************************
  70:.\Generated_Source\PSoC5/OptSelect_PM.c **** *
  71:.\Generated_Source\PSoC5/OptSelect_PM.c **** * Summary:
  72:.\Generated_Source\PSoC5/OptSelect_PM.c **** *  Prepares the component for entering the low power mode.
  73:.\Generated_Source\PSoC5/OptSelect_PM.c **** *
  74:.\Generated_Source\PSoC5/OptSelect_PM.c **** * Parameters:
  75:.\Generated_Source\PSoC5/OptSelect_PM.c **** *  None
  76:.\Generated_Source\PSoC5/OptSelect_PM.c **** *
  77:.\Generated_Source\PSoC5/OptSelect_PM.c **** * Return:
  78:.\Generated_Source\PSoC5/OptSelect_PM.c **** *  None
  79:.\Generated_Source\PSoC5/OptSelect_PM.c **** *
  80:.\Generated_Source\PSoC5/OptSelect_PM.c **** *******************************************************************************/
  81:.\Generated_Source\PSoC5/OptSelect_PM.c **** void OptSelect_Sleep(void) 
  82:.\Generated_Source\PSoC5/OptSelect_PM.c **** {
  81              		.loc 1 82 0
  82              		.cfi_startproc
  83              		@ args = 0, pretend = 0, frame = 0
  84              		@ frame_needed = 0, uses_anonymous_args = 0
  85              		@ link register save eliminated.
  83:.\Generated_Source\PSoC5/OptSelect_PM.c ****     OptSelect_SaveConfig();
  86              		.loc 1 83 0
  87 0000 FFF7FEBF 		b	OptSelect_SaveConfig
  88              	.LVL0:
ARM GAS  C:\Users\Yiquing\AppData\Local\Temp\ccaIV0db.s 			page 4


  89              		.cfi_endproc
  90              	.LFE2:
  91              		.size	OptSelect_Sleep, .-OptSelect_Sleep
  92              		.section	.text.OptSelect_Wakeup,"ax",%progbits
  93              		.align	1
  94              		.global	OptSelect_Wakeup
  95              		.thumb
  96              		.thumb_func
  97              		.type	OptSelect_Wakeup, %function
  98              	OptSelect_Wakeup:
  99              	.LFB3:
  84:.\Generated_Source\PSoC5/OptSelect_PM.c **** }
  85:.\Generated_Source\PSoC5/OptSelect_PM.c **** 
  86:.\Generated_Source\PSoC5/OptSelect_PM.c **** 
  87:.\Generated_Source\PSoC5/OptSelect_PM.c **** /*******************************************************************************
  88:.\Generated_Source\PSoC5/OptSelect_PM.c **** * Function Name: OptSelect_Wakeup
  89:.\Generated_Source\PSoC5/OptSelect_PM.c **** ********************************************************************************
  90:.\Generated_Source\PSoC5/OptSelect_PM.c **** *
  91:.\Generated_Source\PSoC5/OptSelect_PM.c **** * Summary:
  92:.\Generated_Source\PSoC5/OptSelect_PM.c **** *  Restores the component after waking up from the low power mode.
  93:.\Generated_Source\PSoC5/OptSelect_PM.c **** *
  94:.\Generated_Source\PSoC5/OptSelect_PM.c **** * Parameters:
  95:.\Generated_Source\PSoC5/OptSelect_PM.c **** *  None
  96:.\Generated_Source\PSoC5/OptSelect_PM.c **** *
  97:.\Generated_Source\PSoC5/OptSelect_PM.c **** * Return:
  98:.\Generated_Source\PSoC5/OptSelect_PM.c **** *  None
  99:.\Generated_Source\PSoC5/OptSelect_PM.c **** *
 100:.\Generated_Source\PSoC5/OptSelect_PM.c **** *******************************************************************************/
 101:.\Generated_Source\PSoC5/OptSelect_PM.c **** void OptSelect_Wakeup(void)  
 102:.\Generated_Source\PSoC5/OptSelect_PM.c **** {
 100              		.loc 1 102 0
 101              		.cfi_startproc
 102              		@ args = 0, pretend = 0, frame = 0
 103              		@ frame_needed = 0, uses_anonymous_args = 0
 104              		@ link register save eliminated.
 103:.\Generated_Source\PSoC5/OptSelect_PM.c ****     OptSelect_RestoreConfig();
 105              		.loc 1 103 0
 106 0000 FFF7FEBF 		b	OptSelect_RestoreConfig
 107              	.LVL1:
 108              		.cfi_endproc
 109              	.LFE3:
 110              		.size	OptSelect_Wakeup, .-OptSelect_Wakeup
 111              		.bss
 112              		.set	.LANCHOR0,. + 0
 113              		.type	OptSelect_backup, %object
 114              		.size	OptSelect_backup, 1
 115              	OptSelect_backup:
 116 0000 00       		.space	1
 117              		.text
 118              	.Letext0:
 119              		.file 2 ".\\Generated_Source\\PSoC5\\cytypes.h"
 120              		.file 3 ".\\Generated_Source\\PSoC5\\OptSelect.h"