ARM GAS  C:\Users\Yiquing\AppData\Local\Temp\cc0MVdI2.s 			page 1


   1              		.syntax unified
   2              		.cpu cortex-m3
   3              		.fpu softvfp
   4              		.eabi_attribute 20, 1
   5              		.eabi_attribute 21, 1
   6              		.eabi_attribute 23, 3
   7              		.eabi_attribute 24, 1
   8              		.eabi_attribute 25, 1
   9              		.eabi_attribute 26, 1
  10              		.eabi_attribute 30, 4
  11              		.eabi_attribute 34, 1
  12              		.eabi_attribute 18, 4
  13              		.thumb
  14              		.file	"UART_TIMER_ISR.c"
  15              		.text
  16              	.Ltext0:
  17              		.cfi_sections	.debug_frame
  18              		.section	.text.UART_TIMER_ISR_Interrupt,"ax",%progbits
  19              		.align	1
  20              		.global	UART_TIMER_ISR_Interrupt
  21              		.thumb
  22              		.thumb_func
  23              		.type	UART_TIMER_ISR_Interrupt, %function
  24              	UART_TIMER_ISR_Interrupt:
  25              	.LFB3:
  26              		.file 1 ".\\Generated_Source\\PSoC5\\UART_TIMER_ISR.c"
   1:.\Generated_Source\PSoC5/UART_TIMER_ISR.c **** /*******************************************************************************
   2:.\Generated_Source\PSoC5/UART_TIMER_ISR.c **** * File Name: UART_TIMER_ISR.c  
   3:.\Generated_Source\PSoC5/UART_TIMER_ISR.c **** * Version 1.70
   4:.\Generated_Source\PSoC5/UART_TIMER_ISR.c **** *
   5:.\Generated_Source\PSoC5/UART_TIMER_ISR.c **** *  Description:
   6:.\Generated_Source\PSoC5/UART_TIMER_ISR.c **** *   API for controlling the state of an interrupt.
   7:.\Generated_Source\PSoC5/UART_TIMER_ISR.c **** *
   8:.\Generated_Source\PSoC5/UART_TIMER_ISR.c **** *
   9:.\Generated_Source\PSoC5/UART_TIMER_ISR.c **** *  Note:
  10:.\Generated_Source\PSoC5/UART_TIMER_ISR.c **** *
  11:.\Generated_Source\PSoC5/UART_TIMER_ISR.c **** ********************************************************************************
  12:.\Generated_Source\PSoC5/UART_TIMER_ISR.c **** * Copyright 2008-2015, Cypress Semiconductor Corporation.  All rights reserved.
  13:.\Generated_Source\PSoC5/UART_TIMER_ISR.c **** * You may use this file only in accordance with the license, terms, conditions, 
  14:.\Generated_Source\PSoC5/UART_TIMER_ISR.c **** * disclaimers, and limitations in the end user license agreement accompanying 
  15:.\Generated_Source\PSoC5/UART_TIMER_ISR.c **** * the software package with which this file was provided.
  16:.\Generated_Source\PSoC5/UART_TIMER_ISR.c **** *******************************************************************************/
  17:.\Generated_Source\PSoC5/UART_TIMER_ISR.c **** 
  18:.\Generated_Source\PSoC5/UART_TIMER_ISR.c **** 
  19:.\Generated_Source\PSoC5/UART_TIMER_ISR.c **** #include <cydevice_trm.h>
  20:.\Generated_Source\PSoC5/UART_TIMER_ISR.c **** #include <CyLib.h>
  21:.\Generated_Source\PSoC5/UART_TIMER_ISR.c **** #include <UART_TIMER_ISR.h>
  22:.\Generated_Source\PSoC5/UART_TIMER_ISR.c **** 
  23:.\Generated_Source\PSoC5/UART_TIMER_ISR.c **** #if !defined(UART_TIMER_ISR__REMOVED) /* Check for removal by optimization */
  24:.\Generated_Source\PSoC5/UART_TIMER_ISR.c **** 
  25:.\Generated_Source\PSoC5/UART_TIMER_ISR.c **** /*******************************************************************************
  26:.\Generated_Source\PSoC5/UART_TIMER_ISR.c **** *  Place your includes, defines and code here 
  27:.\Generated_Source\PSoC5/UART_TIMER_ISR.c **** ********************************************************************************/
  28:.\Generated_Source\PSoC5/UART_TIMER_ISR.c **** /* `#START UART_TIMER_ISR_intc` */
  29:.\Generated_Source\PSoC5/UART_TIMER_ISR.c **** #include "UART_TIMER.h"
  30:.\Generated_Source\PSoC5/UART_TIMER_ISR.c **** #include "system.h"   
  31:.\Generated_Source\PSoC5/UART_TIMER_ISR.c **** /* `#END` */
ARM GAS  C:\Users\Yiquing\AppData\Local\Temp\cc0MVdI2.s 			page 2


  32:.\Generated_Source\PSoC5/UART_TIMER_ISR.c **** 
  33:.\Generated_Source\PSoC5/UART_TIMER_ISR.c **** #ifndef CYINT_IRQ_BASE
  34:.\Generated_Source\PSoC5/UART_TIMER_ISR.c **** #define CYINT_IRQ_BASE      16
  35:.\Generated_Source\PSoC5/UART_TIMER_ISR.c **** #endif /* CYINT_IRQ_BASE */
  36:.\Generated_Source\PSoC5/UART_TIMER_ISR.c **** #ifndef CYINT_VECT_TABLE
  37:.\Generated_Source\PSoC5/UART_TIMER_ISR.c **** #define CYINT_VECT_TABLE    ((cyisraddress **) CYREG_NVIC_VECT_OFFSET)
  38:.\Generated_Source\PSoC5/UART_TIMER_ISR.c **** #endif /* CYINT_VECT_TABLE */
  39:.\Generated_Source\PSoC5/UART_TIMER_ISR.c **** 
  40:.\Generated_Source\PSoC5/UART_TIMER_ISR.c **** /* Declared in startup, used to set unused interrupts to. */
  41:.\Generated_Source\PSoC5/UART_TIMER_ISR.c **** CY_ISR_PROTO(IntDefaultHandler);
  42:.\Generated_Source\PSoC5/UART_TIMER_ISR.c **** 
  43:.\Generated_Source\PSoC5/UART_TIMER_ISR.c **** 
  44:.\Generated_Source\PSoC5/UART_TIMER_ISR.c **** /*******************************************************************************
  45:.\Generated_Source\PSoC5/UART_TIMER_ISR.c **** * Function Name: UART_TIMER_ISR_Start
  46:.\Generated_Source\PSoC5/UART_TIMER_ISR.c **** ********************************************************************************
  47:.\Generated_Source\PSoC5/UART_TIMER_ISR.c **** *
  48:.\Generated_Source\PSoC5/UART_TIMER_ISR.c **** * Summary:
  49:.\Generated_Source\PSoC5/UART_TIMER_ISR.c **** *  Set up the interrupt and enable it. This function disables the interrupt, 
  50:.\Generated_Source\PSoC5/UART_TIMER_ISR.c **** *  sets the default interrupt vector, sets the priority from the value in the
  51:.\Generated_Source\PSoC5/UART_TIMER_ISR.c **** *  Design Wide Resources Interrupt Editor, then enables the interrupt to the 
  52:.\Generated_Source\PSoC5/UART_TIMER_ISR.c **** *  interrupt controller.
  53:.\Generated_Source\PSoC5/UART_TIMER_ISR.c **** *
  54:.\Generated_Source\PSoC5/UART_TIMER_ISR.c **** * Parameters:  
  55:.\Generated_Source\PSoC5/UART_TIMER_ISR.c **** *   None
  56:.\Generated_Source\PSoC5/UART_TIMER_ISR.c **** *
  57:.\Generated_Source\PSoC5/UART_TIMER_ISR.c **** * Return:
  58:.\Generated_Source\PSoC5/UART_TIMER_ISR.c **** *   None
  59:.\Generated_Source\PSoC5/UART_TIMER_ISR.c **** *
  60:.\Generated_Source\PSoC5/UART_TIMER_ISR.c **** *******************************************************************************/
  61:.\Generated_Source\PSoC5/UART_TIMER_ISR.c **** void UART_TIMER_ISR_Start(void)
  62:.\Generated_Source\PSoC5/UART_TIMER_ISR.c **** {
  63:.\Generated_Source\PSoC5/UART_TIMER_ISR.c ****     /* For all we know the interrupt is active. */
  64:.\Generated_Source\PSoC5/UART_TIMER_ISR.c ****     UART_TIMER_ISR_Disable();
  65:.\Generated_Source\PSoC5/UART_TIMER_ISR.c **** 
  66:.\Generated_Source\PSoC5/UART_TIMER_ISR.c ****     /* Set the ISR to point to the UART_TIMER_ISR Interrupt. */
  67:.\Generated_Source\PSoC5/UART_TIMER_ISR.c ****     UART_TIMER_ISR_SetVector(&UART_TIMER_ISR_Interrupt);
  68:.\Generated_Source\PSoC5/UART_TIMER_ISR.c **** 
  69:.\Generated_Source\PSoC5/UART_TIMER_ISR.c ****     /* Set the priority. */
  70:.\Generated_Source\PSoC5/UART_TIMER_ISR.c ****     UART_TIMER_ISR_SetPriority((uint8)UART_TIMER_ISR_INTC_PRIOR_NUMBER);
  71:.\Generated_Source\PSoC5/UART_TIMER_ISR.c **** 
  72:.\Generated_Source\PSoC5/UART_TIMER_ISR.c ****     /* Enable it. */
  73:.\Generated_Source\PSoC5/UART_TIMER_ISR.c ****     UART_TIMER_ISR_Enable();
  74:.\Generated_Source\PSoC5/UART_TIMER_ISR.c **** }
  75:.\Generated_Source\PSoC5/UART_TIMER_ISR.c **** 
  76:.\Generated_Source\PSoC5/UART_TIMER_ISR.c **** 
  77:.\Generated_Source\PSoC5/UART_TIMER_ISR.c **** /*******************************************************************************
  78:.\Generated_Source\PSoC5/UART_TIMER_ISR.c **** * Function Name: UART_TIMER_ISR_StartEx
  79:.\Generated_Source\PSoC5/UART_TIMER_ISR.c **** ********************************************************************************
  80:.\Generated_Source\PSoC5/UART_TIMER_ISR.c **** *
  81:.\Generated_Source\PSoC5/UART_TIMER_ISR.c **** * Summary:
  82:.\Generated_Source\PSoC5/UART_TIMER_ISR.c **** *  Sets up the interrupt and enables it. This function disables the interrupt,
  83:.\Generated_Source\PSoC5/UART_TIMER_ISR.c **** *  sets the interrupt vector based on the address passed in, sets the priority 
  84:.\Generated_Source\PSoC5/UART_TIMER_ISR.c **** *  from the value in the Design Wide Resources Interrupt Editor, then enables 
  85:.\Generated_Source\PSoC5/UART_TIMER_ISR.c **** *  the interrupt to the interrupt controller.
  86:.\Generated_Source\PSoC5/UART_TIMER_ISR.c **** *  
  87:.\Generated_Source\PSoC5/UART_TIMER_ISR.c **** *  When defining ISR functions, the CY_ISR and CY_ISR_PROTO macros should be 
  88:.\Generated_Source\PSoC5/UART_TIMER_ISR.c **** *  used to provide consistent definition across compilers:
ARM GAS  C:\Users\Yiquing\AppData\Local\Temp\cc0MVdI2.s 			page 3


  89:.\Generated_Source\PSoC5/UART_TIMER_ISR.c **** *  
  90:.\Generated_Source\PSoC5/UART_TIMER_ISR.c **** *  Function definition example:
  91:.\Generated_Source\PSoC5/UART_TIMER_ISR.c **** *   CY_ISR(MyISR)
  92:.\Generated_Source\PSoC5/UART_TIMER_ISR.c **** *   {
  93:.\Generated_Source\PSoC5/UART_TIMER_ISR.c **** *   }
  94:.\Generated_Source\PSoC5/UART_TIMER_ISR.c **** *   Function prototype example:
  95:.\Generated_Source\PSoC5/UART_TIMER_ISR.c **** *   CY_ISR_PROTO(MyISR);
  96:.\Generated_Source\PSoC5/UART_TIMER_ISR.c **** *
  97:.\Generated_Source\PSoC5/UART_TIMER_ISR.c **** * Parameters:  
  98:.\Generated_Source\PSoC5/UART_TIMER_ISR.c **** *   address: Address of the ISR to set in the interrupt vector table.
  99:.\Generated_Source\PSoC5/UART_TIMER_ISR.c **** *
 100:.\Generated_Source\PSoC5/UART_TIMER_ISR.c **** * Return:
 101:.\Generated_Source\PSoC5/UART_TIMER_ISR.c **** *   None
 102:.\Generated_Source\PSoC5/UART_TIMER_ISR.c **** *
 103:.\Generated_Source\PSoC5/UART_TIMER_ISR.c **** *******************************************************************************/
 104:.\Generated_Source\PSoC5/UART_TIMER_ISR.c **** void UART_TIMER_ISR_StartEx(cyisraddress address)
 105:.\Generated_Source\PSoC5/UART_TIMER_ISR.c **** {
 106:.\Generated_Source\PSoC5/UART_TIMER_ISR.c ****     /* For all we know the interrupt is active. */
 107:.\Generated_Source\PSoC5/UART_TIMER_ISR.c ****     UART_TIMER_ISR_Disable();
 108:.\Generated_Source\PSoC5/UART_TIMER_ISR.c **** 
 109:.\Generated_Source\PSoC5/UART_TIMER_ISR.c ****     /* Set the ISR to point to the UART_TIMER_ISR Interrupt. */
 110:.\Generated_Source\PSoC5/UART_TIMER_ISR.c ****     UART_TIMER_ISR_SetVector(address);
 111:.\Generated_Source\PSoC5/UART_TIMER_ISR.c **** 
 112:.\Generated_Source\PSoC5/UART_TIMER_ISR.c ****     /* Set the priority. */
 113:.\Generated_Source\PSoC5/UART_TIMER_ISR.c ****     UART_TIMER_ISR_SetPriority((uint8)UART_TIMER_ISR_INTC_PRIOR_NUMBER);
 114:.\Generated_Source\PSoC5/UART_TIMER_ISR.c **** 
 115:.\Generated_Source\PSoC5/UART_TIMER_ISR.c ****     /* Enable it. */
 116:.\Generated_Source\PSoC5/UART_TIMER_ISR.c ****     UART_TIMER_ISR_Enable();
 117:.\Generated_Source\PSoC5/UART_TIMER_ISR.c **** }
 118:.\Generated_Source\PSoC5/UART_TIMER_ISR.c **** 
 119:.\Generated_Source\PSoC5/UART_TIMER_ISR.c **** 
 120:.\Generated_Source\PSoC5/UART_TIMER_ISR.c **** /*******************************************************************************
 121:.\Generated_Source\PSoC5/UART_TIMER_ISR.c **** * Function Name: UART_TIMER_ISR_Stop
 122:.\Generated_Source\PSoC5/UART_TIMER_ISR.c **** ********************************************************************************
 123:.\Generated_Source\PSoC5/UART_TIMER_ISR.c **** *
 124:.\Generated_Source\PSoC5/UART_TIMER_ISR.c **** * Summary:
 125:.\Generated_Source\PSoC5/UART_TIMER_ISR.c **** *   Disables and removes the interrupt.
 126:.\Generated_Source\PSoC5/UART_TIMER_ISR.c **** *
 127:.\Generated_Source\PSoC5/UART_TIMER_ISR.c **** * Parameters:  
 128:.\Generated_Source\PSoC5/UART_TIMER_ISR.c **** *   None
 129:.\Generated_Source\PSoC5/UART_TIMER_ISR.c **** *
 130:.\Generated_Source\PSoC5/UART_TIMER_ISR.c **** * Return:
 131:.\Generated_Source\PSoC5/UART_TIMER_ISR.c **** *   None
 132:.\Generated_Source\PSoC5/UART_TIMER_ISR.c **** *
 133:.\Generated_Source\PSoC5/UART_TIMER_ISR.c **** *******************************************************************************/
 134:.\Generated_Source\PSoC5/UART_TIMER_ISR.c **** void UART_TIMER_ISR_Stop(void)
 135:.\Generated_Source\PSoC5/UART_TIMER_ISR.c **** {
 136:.\Generated_Source\PSoC5/UART_TIMER_ISR.c ****     /* Disable this interrupt. */
 137:.\Generated_Source\PSoC5/UART_TIMER_ISR.c ****     UART_TIMER_ISR_Disable();
 138:.\Generated_Source\PSoC5/UART_TIMER_ISR.c **** 
 139:.\Generated_Source\PSoC5/UART_TIMER_ISR.c ****     /* Set the ISR to point to the passive one. */
 140:.\Generated_Source\PSoC5/UART_TIMER_ISR.c ****     UART_TIMER_ISR_SetVector(&IntDefaultHandler);
 141:.\Generated_Source\PSoC5/UART_TIMER_ISR.c **** }
 142:.\Generated_Source\PSoC5/UART_TIMER_ISR.c **** 
 143:.\Generated_Source\PSoC5/UART_TIMER_ISR.c **** 
 144:.\Generated_Source\PSoC5/UART_TIMER_ISR.c **** /*******************************************************************************
 145:.\Generated_Source\PSoC5/UART_TIMER_ISR.c **** * Function Name: UART_TIMER_ISR_Interrupt
ARM GAS  C:\Users\Yiquing\AppData\Local\Temp\cc0MVdI2.s 			page 4


 146:.\Generated_Source\PSoC5/UART_TIMER_ISR.c **** ********************************************************************************
 147:.\Generated_Source\PSoC5/UART_TIMER_ISR.c **** *
 148:.\Generated_Source\PSoC5/UART_TIMER_ISR.c **** * Summary:
 149:.\Generated_Source\PSoC5/UART_TIMER_ISR.c **** *   The default Interrupt Service Routine for UART_TIMER_ISR.
 150:.\Generated_Source\PSoC5/UART_TIMER_ISR.c **** *
 151:.\Generated_Source\PSoC5/UART_TIMER_ISR.c **** *   Add custom code between the coments to keep the next version of this file
 152:.\Generated_Source\PSoC5/UART_TIMER_ISR.c **** *   from over writting your code.
 153:.\Generated_Source\PSoC5/UART_TIMER_ISR.c **** *
 154:.\Generated_Source\PSoC5/UART_TIMER_ISR.c **** * Parameters:  
 155:.\Generated_Source\PSoC5/UART_TIMER_ISR.c **** *
 156:.\Generated_Source\PSoC5/UART_TIMER_ISR.c **** * Return:
 157:.\Generated_Source\PSoC5/UART_TIMER_ISR.c **** *   None
 158:.\Generated_Source\PSoC5/UART_TIMER_ISR.c **** *
 159:.\Generated_Source\PSoC5/UART_TIMER_ISR.c **** *******************************************************************************/
 160:.\Generated_Source\PSoC5/UART_TIMER_ISR.c **** CY_ISR(UART_TIMER_ISR_Interrupt)
 161:.\Generated_Source\PSoC5/UART_TIMER_ISR.c **** {
  27              		.loc 1 161 0
  28              		.cfi_startproc
  29              		@ args = 0, pretend = 0, frame = 0
  30              		@ frame_needed = 0, uses_anonymous_args = 0
  31 0000 08B5     		push	{r3, lr}
  32              		.cfi_def_cfa_offset 8
  33              		.cfi_offset 3, -8
  34              		.cfi_offset 14, -4
 162:.\Generated_Source\PSoC5/UART_TIMER_ISR.c ****     /*  Place your Interrupt code here. */
 163:.\Generated_Source\PSoC5/UART_TIMER_ISR.c ****     /* `#START UART_TIMER_ISR_Interrupt` */
 164:.\Generated_Source\PSoC5/UART_TIMER_ISR.c ****     SU_Isr(&s);
  35              		.loc 1 164 0
  36 0002 0348     		ldr	r0, .L2
  37 0004 FFF7FEFF 		bl	SU_Isr
  38              	.LVL0:
 165:.\Generated_Source\PSoC5/UART_TIMER_ISR.c ****     UART_TIMER_ReadStatusRegister();
 166:.\Generated_Source\PSoC5/UART_TIMER_ISR.c ****     /* `#END` */
 167:.\Generated_Source\PSoC5/UART_TIMER_ISR.c **** }
  39              		.loc 1 167 0
  40 0008 BDE80840 		pop	{r3, lr}
 165:.\Generated_Source\PSoC5/UART_TIMER_ISR.c ****     UART_TIMER_ReadStatusRegister();
  41              		.loc 1 165 0
  42 000c FFF7FEBF 		b	UART_TIMER_ReadStatusRegister
  43              	.LVL1:
  44              	.L3:
  45              		.align	2
  46              	.L2:
  47 0010 00000000 		.word	s
  48              		.cfi_endproc
  49              	.LFE3:
  50              		.size	UART_TIMER_ISR_Interrupt, .-UART_TIMER_ISR_Interrupt
  51              		.section	.text.UART_TIMER_ISR_Start,"ax",%progbits
  52              		.align	1
  53              		.global	UART_TIMER_ISR_Start
  54              		.thumb
  55              		.thumb_func
  56              		.type	UART_TIMER_ISR_Start, %function
  57              	UART_TIMER_ISR_Start:
  58              	.LFB0:
  62:.\Generated_Source\PSoC5/UART_TIMER_ISR.c **** {
  59              		.loc 1 62 0
ARM GAS  C:\Users\Yiquing\AppData\Local\Temp\cc0MVdI2.s 			page 5


  60              		.cfi_startproc
  61              		@ args = 0, pretend = 0, frame = 0
  62              		@ frame_needed = 0, uses_anonymous_args = 0
  63              		@ link register save eliminated.
  64              	.LBB22:
  65              	.LBB23:
 168:.\Generated_Source\PSoC5/UART_TIMER_ISR.c **** 
 169:.\Generated_Source\PSoC5/UART_TIMER_ISR.c **** 
 170:.\Generated_Source\PSoC5/UART_TIMER_ISR.c **** /*******************************************************************************
 171:.\Generated_Source\PSoC5/UART_TIMER_ISR.c **** * Function Name: UART_TIMER_ISR_SetVector
 172:.\Generated_Source\PSoC5/UART_TIMER_ISR.c **** ********************************************************************************
 173:.\Generated_Source\PSoC5/UART_TIMER_ISR.c **** *
 174:.\Generated_Source\PSoC5/UART_TIMER_ISR.c **** * Summary:
 175:.\Generated_Source\PSoC5/UART_TIMER_ISR.c **** *   Change the ISR vector for the Interrupt. Note calling UART_TIMER_ISR_Start
 176:.\Generated_Source\PSoC5/UART_TIMER_ISR.c **** *   will override any effect this method would have had. To set the vector 
 177:.\Generated_Source\PSoC5/UART_TIMER_ISR.c **** *   before the component has been started use UART_TIMER_ISR_StartEx instead.
 178:.\Generated_Source\PSoC5/UART_TIMER_ISR.c **** * 
 179:.\Generated_Source\PSoC5/UART_TIMER_ISR.c **** *   When defining ISR functions, the CY_ISR and CY_ISR_PROTO macros should be 
 180:.\Generated_Source\PSoC5/UART_TIMER_ISR.c **** *   used to provide consistent definition across compilers:
 181:.\Generated_Source\PSoC5/UART_TIMER_ISR.c **** *
 182:.\Generated_Source\PSoC5/UART_TIMER_ISR.c **** *   Function definition example:
 183:.\Generated_Source\PSoC5/UART_TIMER_ISR.c **** *   CY_ISR(MyISR)
 184:.\Generated_Source\PSoC5/UART_TIMER_ISR.c **** *   {
 185:.\Generated_Source\PSoC5/UART_TIMER_ISR.c **** *   }
 186:.\Generated_Source\PSoC5/UART_TIMER_ISR.c **** *
 187:.\Generated_Source\PSoC5/UART_TIMER_ISR.c **** *   Function prototype example:
 188:.\Generated_Source\PSoC5/UART_TIMER_ISR.c **** *     CY_ISR_PROTO(MyISR);
 189:.\Generated_Source\PSoC5/UART_TIMER_ISR.c **** *
 190:.\Generated_Source\PSoC5/UART_TIMER_ISR.c **** * Parameters:
 191:.\Generated_Source\PSoC5/UART_TIMER_ISR.c **** *   address: Address of the ISR to set in the interrupt vector table.
 192:.\Generated_Source\PSoC5/UART_TIMER_ISR.c **** *
 193:.\Generated_Source\PSoC5/UART_TIMER_ISR.c **** * Return:
 194:.\Generated_Source\PSoC5/UART_TIMER_ISR.c **** *   None
 195:.\Generated_Source\PSoC5/UART_TIMER_ISR.c **** *
 196:.\Generated_Source\PSoC5/UART_TIMER_ISR.c **** *******************************************************************************/
 197:.\Generated_Source\PSoC5/UART_TIMER_ISR.c **** void UART_TIMER_ISR_SetVector(cyisraddress address)
 198:.\Generated_Source\PSoC5/UART_TIMER_ISR.c **** {
 199:.\Generated_Source\PSoC5/UART_TIMER_ISR.c ****     cyisraddress * ramVectorTable;
 200:.\Generated_Source\PSoC5/UART_TIMER_ISR.c **** 
 201:.\Generated_Source\PSoC5/UART_TIMER_ISR.c ****     ramVectorTable = (cyisraddress *) *CYINT_VECT_TABLE;
 202:.\Generated_Source\PSoC5/UART_TIMER_ISR.c **** 
 203:.\Generated_Source\PSoC5/UART_TIMER_ISR.c ****     ramVectorTable[CYINT_IRQ_BASE + (uint32)UART_TIMER_ISR__INTC_NUMBER] = address;
 204:.\Generated_Source\PSoC5/UART_TIMER_ISR.c **** }
 205:.\Generated_Source\PSoC5/UART_TIMER_ISR.c **** 
 206:.\Generated_Source\PSoC5/UART_TIMER_ISR.c **** 
 207:.\Generated_Source\PSoC5/UART_TIMER_ISR.c **** /*******************************************************************************
 208:.\Generated_Source\PSoC5/UART_TIMER_ISR.c **** * Function Name: UART_TIMER_ISR_GetVector
 209:.\Generated_Source\PSoC5/UART_TIMER_ISR.c **** ********************************************************************************
 210:.\Generated_Source\PSoC5/UART_TIMER_ISR.c **** *
 211:.\Generated_Source\PSoC5/UART_TIMER_ISR.c **** * Summary:
 212:.\Generated_Source\PSoC5/UART_TIMER_ISR.c **** *   Gets the "address" of the current ISR vector for the Interrupt.
 213:.\Generated_Source\PSoC5/UART_TIMER_ISR.c **** *
 214:.\Generated_Source\PSoC5/UART_TIMER_ISR.c **** * Parameters:
 215:.\Generated_Source\PSoC5/UART_TIMER_ISR.c **** *   None
 216:.\Generated_Source\PSoC5/UART_TIMER_ISR.c **** *
 217:.\Generated_Source\PSoC5/UART_TIMER_ISR.c **** * Return:
 218:.\Generated_Source\PSoC5/UART_TIMER_ISR.c **** *   Address of the ISR in the interrupt vector table.
ARM GAS  C:\Users\Yiquing\AppData\Local\Temp\cc0MVdI2.s 			page 6


 219:.\Generated_Source\PSoC5/UART_TIMER_ISR.c **** *
 220:.\Generated_Source\PSoC5/UART_TIMER_ISR.c **** *******************************************************************************/
 221:.\Generated_Source\PSoC5/UART_TIMER_ISR.c **** cyisraddress UART_TIMER_ISR_GetVector(void)
 222:.\Generated_Source\PSoC5/UART_TIMER_ISR.c **** {
 223:.\Generated_Source\PSoC5/UART_TIMER_ISR.c ****     cyisraddress * ramVectorTable;
 224:.\Generated_Source\PSoC5/UART_TIMER_ISR.c **** 
 225:.\Generated_Source\PSoC5/UART_TIMER_ISR.c ****     ramVectorTable = (cyisraddress *) *CYINT_VECT_TABLE;
 226:.\Generated_Source\PSoC5/UART_TIMER_ISR.c **** 
 227:.\Generated_Source\PSoC5/UART_TIMER_ISR.c ****     return ramVectorTable[CYINT_IRQ_BASE + (uint32)UART_TIMER_ISR__INTC_NUMBER];
 228:.\Generated_Source\PSoC5/UART_TIMER_ISR.c **** }
 229:.\Generated_Source\PSoC5/UART_TIMER_ISR.c **** 
 230:.\Generated_Source\PSoC5/UART_TIMER_ISR.c **** 
 231:.\Generated_Source\PSoC5/UART_TIMER_ISR.c **** /*******************************************************************************
 232:.\Generated_Source\PSoC5/UART_TIMER_ISR.c **** * Function Name: UART_TIMER_ISR_SetPriority
 233:.\Generated_Source\PSoC5/UART_TIMER_ISR.c **** ********************************************************************************
 234:.\Generated_Source\PSoC5/UART_TIMER_ISR.c **** *
 235:.\Generated_Source\PSoC5/UART_TIMER_ISR.c **** * Summary:
 236:.\Generated_Source\PSoC5/UART_TIMER_ISR.c **** *   Sets the Priority of the Interrupt. 
 237:.\Generated_Source\PSoC5/UART_TIMER_ISR.c **** *
 238:.\Generated_Source\PSoC5/UART_TIMER_ISR.c **** *   Note calling UART_TIMER_ISR_Start or UART_TIMER_ISR_StartEx will 
 239:.\Generated_Source\PSoC5/UART_TIMER_ISR.c **** *   override any effect this API would have had. This API should only be called
 240:.\Generated_Source\PSoC5/UART_TIMER_ISR.c **** *   after UART_TIMER_ISR_Start or UART_TIMER_ISR_StartEx has been called. 
 241:.\Generated_Source\PSoC5/UART_TIMER_ISR.c **** *   To set the initial priority for the component, use the Design-Wide Resources
 242:.\Generated_Source\PSoC5/UART_TIMER_ISR.c **** *   Interrupt Editor.
 243:.\Generated_Source\PSoC5/UART_TIMER_ISR.c **** *
 244:.\Generated_Source\PSoC5/UART_TIMER_ISR.c **** *   Note This API has no effect on Non-maskable interrupt NMI).
 245:.\Generated_Source\PSoC5/UART_TIMER_ISR.c **** *
 246:.\Generated_Source\PSoC5/UART_TIMER_ISR.c **** * Parameters:
 247:.\Generated_Source\PSoC5/UART_TIMER_ISR.c **** *   priority: Priority of the interrupt, 0 being the highest priority
 248:.\Generated_Source\PSoC5/UART_TIMER_ISR.c **** *             PSoC 3 and PSoC 5LP: Priority is from 0 to 7.
 249:.\Generated_Source\PSoC5/UART_TIMER_ISR.c **** *             PSoC 4: Priority is from 0 to 3.
 250:.\Generated_Source\PSoC5/UART_TIMER_ISR.c **** *
 251:.\Generated_Source\PSoC5/UART_TIMER_ISR.c **** * Return:
 252:.\Generated_Source\PSoC5/UART_TIMER_ISR.c **** *   None
 253:.\Generated_Source\PSoC5/UART_TIMER_ISR.c **** *
 254:.\Generated_Source\PSoC5/UART_TIMER_ISR.c **** *******************************************************************************/
 255:.\Generated_Source\PSoC5/UART_TIMER_ISR.c **** void UART_TIMER_ISR_SetPriority(uint8 priority)
 256:.\Generated_Source\PSoC5/UART_TIMER_ISR.c **** {
 257:.\Generated_Source\PSoC5/UART_TIMER_ISR.c ****     *UART_TIMER_ISR_INTC_PRIOR = priority << 5;
 258:.\Generated_Source\PSoC5/UART_TIMER_ISR.c **** }
 259:.\Generated_Source\PSoC5/UART_TIMER_ISR.c **** 
 260:.\Generated_Source\PSoC5/UART_TIMER_ISR.c **** 
 261:.\Generated_Source\PSoC5/UART_TIMER_ISR.c **** /*******************************************************************************
 262:.\Generated_Source\PSoC5/UART_TIMER_ISR.c **** * Function Name: UART_TIMER_ISR_GetPriority
 263:.\Generated_Source\PSoC5/UART_TIMER_ISR.c **** ********************************************************************************
 264:.\Generated_Source\PSoC5/UART_TIMER_ISR.c **** *
 265:.\Generated_Source\PSoC5/UART_TIMER_ISR.c **** * Summary:
 266:.\Generated_Source\PSoC5/UART_TIMER_ISR.c **** *   Gets the Priority of the Interrupt.
 267:.\Generated_Source\PSoC5/UART_TIMER_ISR.c **** *
 268:.\Generated_Source\PSoC5/UART_TIMER_ISR.c **** * Parameters:
 269:.\Generated_Source\PSoC5/UART_TIMER_ISR.c **** *   None
 270:.\Generated_Source\PSoC5/UART_TIMER_ISR.c **** *
 271:.\Generated_Source\PSoC5/UART_TIMER_ISR.c **** * Return:
 272:.\Generated_Source\PSoC5/UART_TIMER_ISR.c **** *   Priority of the interrupt, 0 being the highest priority
 273:.\Generated_Source\PSoC5/UART_TIMER_ISR.c **** *    PSoC 3 and PSoC 5LP: Priority is from 0 to 7.
 274:.\Generated_Source\PSoC5/UART_TIMER_ISR.c **** *    PSoC 4: Priority is from 0 to 3.
 275:.\Generated_Source\PSoC5/UART_TIMER_ISR.c **** *
ARM GAS  C:\Users\Yiquing\AppData\Local\Temp\cc0MVdI2.s 			page 7


 276:.\Generated_Source\PSoC5/UART_TIMER_ISR.c **** *******************************************************************************/
 277:.\Generated_Source\PSoC5/UART_TIMER_ISR.c **** uint8 UART_TIMER_ISR_GetPriority(void)
 278:.\Generated_Source\PSoC5/UART_TIMER_ISR.c **** {
 279:.\Generated_Source\PSoC5/UART_TIMER_ISR.c ****     uint8 priority;
 280:.\Generated_Source\PSoC5/UART_TIMER_ISR.c **** 
 281:.\Generated_Source\PSoC5/UART_TIMER_ISR.c **** 
 282:.\Generated_Source\PSoC5/UART_TIMER_ISR.c ****     priority = *UART_TIMER_ISR_INTC_PRIOR >> 5;
 283:.\Generated_Source\PSoC5/UART_TIMER_ISR.c **** 
 284:.\Generated_Source\PSoC5/UART_TIMER_ISR.c ****     return priority;
 285:.\Generated_Source\PSoC5/UART_TIMER_ISR.c **** }
 286:.\Generated_Source\PSoC5/UART_TIMER_ISR.c **** 
 287:.\Generated_Source\PSoC5/UART_TIMER_ISR.c **** 
 288:.\Generated_Source\PSoC5/UART_TIMER_ISR.c **** /*******************************************************************************
 289:.\Generated_Source\PSoC5/UART_TIMER_ISR.c **** * Function Name: UART_TIMER_ISR_Enable
 290:.\Generated_Source\PSoC5/UART_TIMER_ISR.c **** ********************************************************************************
 291:.\Generated_Source\PSoC5/UART_TIMER_ISR.c **** *
 292:.\Generated_Source\PSoC5/UART_TIMER_ISR.c **** * Summary:
 293:.\Generated_Source\PSoC5/UART_TIMER_ISR.c **** *   Enables the interrupt to the interrupt controller. Do not call this function
 294:.\Generated_Source\PSoC5/UART_TIMER_ISR.c **** *   unless ISR_Start() has been called or the functionality of the ISR_Start() 
 295:.\Generated_Source\PSoC5/UART_TIMER_ISR.c **** *   function, which sets the vector and the priority, has been called.
 296:.\Generated_Source\PSoC5/UART_TIMER_ISR.c **** *
 297:.\Generated_Source\PSoC5/UART_TIMER_ISR.c **** * Parameters:
 298:.\Generated_Source\PSoC5/UART_TIMER_ISR.c **** *   None
 299:.\Generated_Source\PSoC5/UART_TIMER_ISR.c **** *
 300:.\Generated_Source\PSoC5/UART_TIMER_ISR.c **** * Return:
 301:.\Generated_Source\PSoC5/UART_TIMER_ISR.c **** *   None
 302:.\Generated_Source\PSoC5/UART_TIMER_ISR.c **** *
 303:.\Generated_Source\PSoC5/UART_TIMER_ISR.c **** *******************************************************************************/
 304:.\Generated_Source\PSoC5/UART_TIMER_ISR.c **** void UART_TIMER_ISR_Enable(void)
 305:.\Generated_Source\PSoC5/UART_TIMER_ISR.c **** {
 306:.\Generated_Source\PSoC5/UART_TIMER_ISR.c ****     /* Enable the general interrupt. */
 307:.\Generated_Source\PSoC5/UART_TIMER_ISR.c ****     *UART_TIMER_ISR_INTC_SET_EN = UART_TIMER_ISR__INTC_MASK;
 308:.\Generated_Source\PSoC5/UART_TIMER_ISR.c **** }
 309:.\Generated_Source\PSoC5/UART_TIMER_ISR.c **** 
 310:.\Generated_Source\PSoC5/UART_TIMER_ISR.c **** 
 311:.\Generated_Source\PSoC5/UART_TIMER_ISR.c **** /*******************************************************************************
 312:.\Generated_Source\PSoC5/UART_TIMER_ISR.c **** * Function Name: UART_TIMER_ISR_GetState
 313:.\Generated_Source\PSoC5/UART_TIMER_ISR.c **** ********************************************************************************
 314:.\Generated_Source\PSoC5/UART_TIMER_ISR.c **** *
 315:.\Generated_Source\PSoC5/UART_TIMER_ISR.c **** * Summary:
 316:.\Generated_Source\PSoC5/UART_TIMER_ISR.c **** *   Gets the state (enabled, disabled) of the Interrupt.
 317:.\Generated_Source\PSoC5/UART_TIMER_ISR.c **** *
 318:.\Generated_Source\PSoC5/UART_TIMER_ISR.c **** * Parameters:
 319:.\Generated_Source\PSoC5/UART_TIMER_ISR.c **** *   None
 320:.\Generated_Source\PSoC5/UART_TIMER_ISR.c **** *
 321:.\Generated_Source\PSoC5/UART_TIMER_ISR.c **** * Return:
 322:.\Generated_Source\PSoC5/UART_TIMER_ISR.c **** *   1 if enabled, 0 if disabled.
 323:.\Generated_Source\PSoC5/UART_TIMER_ISR.c **** *
 324:.\Generated_Source\PSoC5/UART_TIMER_ISR.c **** *******************************************************************************/
 325:.\Generated_Source\PSoC5/UART_TIMER_ISR.c **** uint8 UART_TIMER_ISR_GetState(void)
 326:.\Generated_Source\PSoC5/UART_TIMER_ISR.c **** {
 327:.\Generated_Source\PSoC5/UART_TIMER_ISR.c ****     /* Get the state of the general interrupt. */
 328:.\Generated_Source\PSoC5/UART_TIMER_ISR.c ****     return ((*UART_TIMER_ISR_INTC_SET_EN & (uint32)UART_TIMER_ISR__INTC_MASK) != 0u) ? 1u:0u;
 329:.\Generated_Source\PSoC5/UART_TIMER_ISR.c **** }
 330:.\Generated_Source\PSoC5/UART_TIMER_ISR.c **** 
 331:.\Generated_Source\PSoC5/UART_TIMER_ISR.c **** 
 332:.\Generated_Source\PSoC5/UART_TIMER_ISR.c **** /*******************************************************************************
ARM GAS  C:\Users\Yiquing\AppData\Local\Temp\cc0MVdI2.s 			page 8


 333:.\Generated_Source\PSoC5/UART_TIMER_ISR.c **** * Function Name: UART_TIMER_ISR_Disable
 334:.\Generated_Source\PSoC5/UART_TIMER_ISR.c **** ********************************************************************************
 335:.\Generated_Source\PSoC5/UART_TIMER_ISR.c **** *
 336:.\Generated_Source\PSoC5/UART_TIMER_ISR.c **** * Summary:
 337:.\Generated_Source\PSoC5/UART_TIMER_ISR.c **** *   Disables the Interrupt in the interrupt controller.
 338:.\Generated_Source\PSoC5/UART_TIMER_ISR.c **** *
 339:.\Generated_Source\PSoC5/UART_TIMER_ISR.c **** * Parameters:
 340:.\Generated_Source\PSoC5/UART_TIMER_ISR.c **** *   None
 341:.\Generated_Source\PSoC5/UART_TIMER_ISR.c **** *
 342:.\Generated_Source\PSoC5/UART_TIMER_ISR.c **** * Return:
 343:.\Generated_Source\PSoC5/UART_TIMER_ISR.c **** *   None
 344:.\Generated_Source\PSoC5/UART_TIMER_ISR.c **** *
 345:.\Generated_Source\PSoC5/UART_TIMER_ISR.c **** *******************************************************************************/
 346:.\Generated_Source\PSoC5/UART_TIMER_ISR.c **** void UART_TIMER_ISR_Disable(void)
 347:.\Generated_Source\PSoC5/UART_TIMER_ISR.c **** {
 348:.\Generated_Source\PSoC5/UART_TIMER_ISR.c ****     /* Disable the general interrupt. */
 349:.\Generated_Source\PSoC5/UART_TIMER_ISR.c ****     *UART_TIMER_ISR_INTC_CLR_EN = UART_TIMER_ISR__INTC_MASK;
  66              		.loc 1 349 0
  67 0000 084A     		ldr	r2, .L5
  68 0002 4FF40023 		mov	r3, #524288
  69 0006 1360     		str	r3, [r2]
  70              	.LVL2:
  71              	.LBE23:
  72              	.LBE22:
  73              	.LBB24:
  74              	.LBB25:
 201:.\Generated_Source\PSoC5/UART_TIMER_ISR.c ****     ramVectorTable = (cyisraddress *) *CYINT_VECT_TABLE;
  75              		.loc 1 201 0
  76 0008 02F68832 		addw	r2, r2, #2952
  77 000c 1268     		ldr	r2, [r2]
  78              	.LVL3:
 203:.\Generated_Source\PSoC5/UART_TIMER_ISR.c ****     ramVectorTable[CYINT_IRQ_BASE + (uint32)UART_TIMER_ISR__INTC_NUMBER] = address;
  79              		.loc 1 203 0
  80 000e 0649     		ldr	r1, .L5+4
  81 0010 C2F88C10 		str	r1, [r2, #140]
  82              	.LVL4:
  83              	.LBE25:
  84              	.LBE24:
  85              	.LBB26:
  86              	.LBB27:
 257:.\Generated_Source\PSoC5/UART_TIMER_ISR.c ****     *UART_TIMER_ISR_INTC_PRIOR = priority << 5;
  87              		.loc 1 257 0
  88 0014 054A     		ldr	r2, .L5+8
  89              	.LVL5:
  90 0016 E021     		movs	r1, #224
  91 0018 1170     		strb	r1, [r2]
  92              	.LBE27:
  93              	.LBE26:
  94              	.LBB28:
  95              	.LBB29:
 307:.\Generated_Source\PSoC5/UART_TIMER_ISR.c ****     *UART_TIMER_ISR_INTC_SET_EN = UART_TIMER_ISR__INTC_MASK;
  96              		.loc 1 307 0
  97 001a A2F21332 		subw	r2, r2, #787
  98 001e 1360     		str	r3, [r2]
  99 0020 7047     		bx	lr
 100              	.L6:
 101 0022 00BF     		.align	2
ARM GAS  C:\Users\Yiquing\AppData\Local\Temp\cc0MVdI2.s 			page 9


 102              	.L5:
 103 0024 80E100E0 		.word	-536813184
 104 0028 00000000 		.word	UART_TIMER_ISR_Interrupt
 105 002c 13E400E0 		.word	-536812525
 106              	.LBE29:
 107              	.LBE28:
 108              		.cfi_endproc
 109              	.LFE0:
 110              		.size	UART_TIMER_ISR_Start, .-UART_TIMER_ISR_Start
 111              		.section	.text.UART_TIMER_ISR_StartEx,"ax",%progbits
 112              		.align	1
 113              		.global	UART_TIMER_ISR_StartEx
 114              		.thumb
 115              		.thumb_func
 116              		.type	UART_TIMER_ISR_StartEx, %function
 117              	UART_TIMER_ISR_StartEx:
 118              	.LFB1:
 105:.\Generated_Source\PSoC5/UART_TIMER_ISR.c **** {
 119              		.loc 1 105 0
 120              		.cfi_startproc
 121              		@ args = 0, pretend = 0, frame = 0
 122              		@ frame_needed = 0, uses_anonymous_args = 0
 123              		@ link register save eliminated.
 124              	.LVL6:
 125              	.LBB30:
 126              	.LBB31:
 127              		.loc 1 349 0
 128 0000 074A     		ldr	r2, .L8
 129 0002 4FF40023 		mov	r3, #524288
 130 0006 1360     		str	r3, [r2]
 131              	.LVL7:
 132              	.LBE31:
 133              	.LBE30:
 134              	.LBB32:
 135              	.LBB33:
 201:.\Generated_Source\PSoC5/UART_TIMER_ISR.c ****     ramVectorTable = (cyisraddress *) *CYINT_VECT_TABLE;
 136              		.loc 1 201 0
 137 0008 02F68832 		addw	r2, r2, #2952
 138 000c 1268     		ldr	r2, [r2]
 139              	.LVL8:
 140              	.LBE33:
 141              	.LBE32:
 142              	.LBB35:
 143              	.LBB36:
 257:.\Generated_Source\PSoC5/UART_TIMER_ISR.c ****     *UART_TIMER_ISR_INTC_PRIOR = priority << 5;
 144              		.loc 1 257 0
 145 000e E021     		movs	r1, #224
 146              	.LBE36:
 147              	.LBE35:
 148              	.LBB38:
 149              	.LBB34:
 203:.\Generated_Source\PSoC5/UART_TIMER_ISR.c ****     ramVectorTable[CYINT_IRQ_BASE + (uint32)UART_TIMER_ISR__INTC_NUMBER] = address;
 150              		.loc 1 203 0
 151 0010 C2F88C00 		str	r0, [r2, #140]
 152              	.LVL9:
 153              	.LBE34:
 154              	.LBE38:
ARM GAS  C:\Users\Yiquing\AppData\Local\Temp\cc0MVdI2.s 			page 10


 155              	.LBB39:
 156              	.LBB37:
 257:.\Generated_Source\PSoC5/UART_TIMER_ISR.c ****     *UART_TIMER_ISR_INTC_PRIOR = priority << 5;
 157              		.loc 1 257 0
 158 0014 034A     		ldr	r2, .L8+4
 159              	.LVL10:
 160 0016 1170     		strb	r1, [r2]
 161              	.LBE37:
 162              	.LBE39:
 163              	.LBB40:
 164              	.LBB41:
 307:.\Generated_Source\PSoC5/UART_TIMER_ISR.c ****     *UART_TIMER_ISR_INTC_SET_EN = UART_TIMER_ISR__INTC_MASK;
 165              		.loc 1 307 0
 166 0018 A2F21332 		subw	r2, r2, #787
 167 001c 1360     		str	r3, [r2]
 168 001e 7047     		bx	lr
 169              	.L9:
 170              		.align	2
 171              	.L8:
 172 0020 80E100E0 		.word	-536813184
 173 0024 13E400E0 		.word	-536812525
 174              	.LBE41:
 175              	.LBE40:
 176              		.cfi_endproc
 177              	.LFE1:
 178              		.size	UART_TIMER_ISR_StartEx, .-UART_TIMER_ISR_StartEx
 179              		.section	.text.UART_TIMER_ISR_Stop,"ax",%progbits
 180              		.align	1
 181              		.global	UART_TIMER_ISR_Stop
 182              		.thumb
 183              		.thumb_func
 184              		.type	UART_TIMER_ISR_Stop, %function
 185              	UART_TIMER_ISR_Stop:
 186              	.LFB2:
 135:.\Generated_Source\PSoC5/UART_TIMER_ISR.c **** {
 187              		.loc 1 135 0
 188              		.cfi_startproc
 189              		@ args = 0, pretend = 0, frame = 0
 190              		@ frame_needed = 0, uses_anonymous_args = 0
 191              		@ link register save eliminated.
 192              	.LBB42:
 193              	.LBB43:
 194              		.loc 1 349 0
 195 0000 054B     		ldr	r3, .L11
 196 0002 4FF40022 		mov	r2, #524288
 197 0006 1A60     		str	r2, [r3]
 198              	.LVL11:
 199              	.LBE43:
 200              	.LBE42:
 201              	.LBB44:
 202              	.LBB45:
 201:.\Generated_Source\PSoC5/UART_TIMER_ISR.c ****     ramVectorTable = (cyisraddress *) *CYINT_VECT_TABLE;
 203              		.loc 1 201 0
 204 0008 03F68833 		addw	r3, r3, #2952
 205 000c 1B68     		ldr	r3, [r3]
 206              	.LVL12:
 203:.\Generated_Source\PSoC5/UART_TIMER_ISR.c ****     ramVectorTable[CYINT_IRQ_BASE + (uint32)UART_TIMER_ISR__INTC_NUMBER] = address;
ARM GAS  C:\Users\Yiquing\AppData\Local\Temp\cc0MVdI2.s 			page 11


 207              		.loc 1 203 0
 208 000e 034A     		ldr	r2, .L11+4
 209 0010 C3F88C20 		str	r2, [r3, #140]
 210 0014 7047     		bx	lr
 211              	.L12:
 212 0016 00BF     		.align	2
 213              	.L11:
 214 0018 80E100E0 		.word	-536813184
 215 001c 00000000 		.word	IntDefaultHandler
 216              	.LBE45:
 217              	.LBE44:
 218              		.cfi_endproc
 219              	.LFE2:
 220              		.size	UART_TIMER_ISR_Stop, .-UART_TIMER_ISR_Stop
 221              		.section	.text.UART_TIMER_ISR_SetVector,"ax",%progbits
 222              		.align	1
 223              		.global	UART_TIMER_ISR_SetVector
 224              		.thumb
 225              		.thumb_func
 226              		.type	UART_TIMER_ISR_SetVector, %function
 227              	UART_TIMER_ISR_SetVector:
 228              	.LFB4:
 198:.\Generated_Source\PSoC5/UART_TIMER_ISR.c **** {
 229              		.loc 1 198 0
 230              		.cfi_startproc
 231              		@ args = 0, pretend = 0, frame = 0
 232              		@ frame_needed = 0, uses_anonymous_args = 0
 233              		@ link register save eliminated.
 234              	.LVL13:
 201:.\Generated_Source\PSoC5/UART_TIMER_ISR.c ****     ramVectorTable = (cyisraddress *) *CYINT_VECT_TABLE;
 235              		.loc 1 201 0
 236 0000 024B     		ldr	r3, .L14
 237 0002 1B68     		ldr	r3, [r3]
 238              	.LVL14:
 203:.\Generated_Source\PSoC5/UART_TIMER_ISR.c ****     ramVectorTable[CYINT_IRQ_BASE + (uint32)UART_TIMER_ISR__INTC_NUMBER] = address;
 239              		.loc 1 203 0
 240 0004 C3F88C00 		str	r0, [r3, #140]
 241 0008 7047     		bx	lr
 242              	.L15:
 243 000a 00BF     		.align	2
 244              	.L14:
 245 000c 08ED00E0 		.word	-536810232
 246              		.cfi_endproc
 247              	.LFE4:
 248              		.size	UART_TIMER_ISR_SetVector, .-UART_TIMER_ISR_SetVector
 249              		.section	.text.UART_TIMER_ISR_GetVector,"ax",%progbits
 250              		.align	1
 251              		.global	UART_TIMER_ISR_GetVector
 252              		.thumb
 253              		.thumb_func
 254              		.type	UART_TIMER_ISR_GetVector, %function
 255              	UART_TIMER_ISR_GetVector:
 256              	.LFB5:
 222:.\Generated_Source\PSoC5/UART_TIMER_ISR.c **** {
 257              		.loc 1 222 0
 258              		.cfi_startproc
 259              		@ args = 0, pretend = 0, frame = 0
ARM GAS  C:\Users\Yiquing\AppData\Local\Temp\cc0MVdI2.s 			page 12


 260              		@ frame_needed = 0, uses_anonymous_args = 0
 261              		@ link register save eliminated.
 262              	.LVL15:
 225:.\Generated_Source\PSoC5/UART_TIMER_ISR.c ****     ramVectorTable = (cyisraddress *) *CYINT_VECT_TABLE;
 263              		.loc 1 225 0
 264 0000 024B     		ldr	r3, .L17
 265              	.LVL16:
 227:.\Generated_Source\PSoC5/UART_TIMER_ISR.c ****     return ramVectorTable[CYINT_IRQ_BASE + (uint32)UART_TIMER_ISR__INTC_NUMBER];
 266              		.loc 1 227 0
 267 0002 1B68     		ldr	r3, [r3]
 268              	.LVL17:
 228:.\Generated_Source\PSoC5/UART_TIMER_ISR.c **** }
 269              		.loc 1 228 0
 270 0004 D3F88C00 		ldr	r0, [r3, #140]
 271 0008 7047     		bx	lr
 272              	.L18:
 273 000a 00BF     		.align	2
 274              	.L17:
 275 000c 08ED00E0 		.word	-536810232
 276              		.cfi_endproc
 277              	.LFE5:
 278              		.size	UART_TIMER_ISR_GetVector, .-UART_TIMER_ISR_GetVector
 279              		.section	.text.UART_TIMER_ISR_SetPriority,"ax",%progbits
 280              		.align	1
 281              		.global	UART_TIMER_ISR_SetPriority
 282              		.thumb
 283              		.thumb_func
 284              		.type	UART_TIMER_ISR_SetPriority, %function
 285              	UART_TIMER_ISR_SetPriority:
 286              	.LFB6:
 256:.\Generated_Source\PSoC5/UART_TIMER_ISR.c **** {
 287              		.loc 1 256 0
 288              		.cfi_startproc
 289              		@ args = 0, pretend = 0, frame = 0
 290              		@ frame_needed = 0, uses_anonymous_args = 0
 291              		@ link register save eliminated.
 292              	.LVL18:
 257:.\Generated_Source\PSoC5/UART_TIMER_ISR.c ****     *UART_TIMER_ISR_INTC_PRIOR = priority << 5;
 293              		.loc 1 257 0
 294 0000 4001     		lsls	r0, r0, #5
 295              	.LVL19:
 296 0002 024B     		ldr	r3, .L20
 297 0004 C0B2     		uxtb	r0, r0
 298 0006 1870     		strb	r0, [r3]
 299 0008 7047     		bx	lr
 300              	.L21:
 301 000a 00BF     		.align	2
 302              	.L20:
 303 000c 13E400E0 		.word	-536812525
 304              		.cfi_endproc
 305              	.LFE6:
 306              		.size	UART_TIMER_ISR_SetPriority, .-UART_TIMER_ISR_SetPriority
 307              		.section	.text.UART_TIMER_ISR_GetPriority,"ax",%progbits
 308              		.align	1
 309              		.global	UART_TIMER_ISR_GetPriority
 310              		.thumb
 311              		.thumb_func
ARM GAS  C:\Users\Yiquing\AppData\Local\Temp\cc0MVdI2.s 			page 13


 312              		.type	UART_TIMER_ISR_GetPriority, %function
 313              	UART_TIMER_ISR_GetPriority:
 314              	.LFB7:
 278:.\Generated_Source\PSoC5/UART_TIMER_ISR.c **** {
 315              		.loc 1 278 0
 316              		.cfi_startproc
 317              		@ args = 0, pretend = 0, frame = 0
 318              		@ frame_needed = 0, uses_anonymous_args = 0
 319              		@ link register save eliminated.
 282:.\Generated_Source\PSoC5/UART_TIMER_ISR.c ****     priority = *UART_TIMER_ISR_INTC_PRIOR >> 5;
 320              		.loc 1 282 0
 321 0000 014B     		ldr	r3, .L23
 322 0002 1878     		ldrb	r0, [r3]	@ zero_extendqisi2
 323              	.LVL20:
 285:.\Generated_Source\PSoC5/UART_TIMER_ISR.c **** }
 324              		.loc 1 285 0
 325 0004 4009     		lsrs	r0, r0, #5
 326              	.LVL21:
 327 0006 7047     		bx	lr
 328              	.L24:
 329              		.align	2
 330              	.L23:
 331 0008 13E400E0 		.word	-536812525
 332              		.cfi_endproc
 333              	.LFE7:
 334              		.size	UART_TIMER_ISR_GetPriority, .-UART_TIMER_ISR_GetPriority
 335              		.section	.text.UART_TIMER_ISR_Enable,"ax",%progbits
 336              		.align	1
 337              		.global	UART_TIMER_ISR_Enable
 338              		.thumb
 339              		.thumb_func
 340              		.type	UART_TIMER_ISR_Enable, %function
 341              	UART_TIMER_ISR_Enable:
 342              	.LFB8:
 305:.\Generated_Source\PSoC5/UART_TIMER_ISR.c **** {
 343              		.loc 1 305 0
 344              		.cfi_startproc
 345              		@ args = 0, pretend = 0, frame = 0
 346              		@ frame_needed = 0, uses_anonymous_args = 0
 347              		@ link register save eliminated.
 307:.\Generated_Source\PSoC5/UART_TIMER_ISR.c ****     *UART_TIMER_ISR_INTC_SET_EN = UART_TIMER_ISR__INTC_MASK;
 348              		.loc 1 307 0
 349 0000 024B     		ldr	r3, .L26
 350 0002 4FF40022 		mov	r2, #524288
 351 0006 1A60     		str	r2, [r3]
 352 0008 7047     		bx	lr
 353              	.L27:
 354 000a 00BF     		.align	2
 355              	.L26:
 356 000c 00E100E0 		.word	-536813312
 357              		.cfi_endproc
 358              	.LFE8:
 359              		.size	UART_TIMER_ISR_Enable, .-UART_TIMER_ISR_Enable
 360              		.section	.text.UART_TIMER_ISR_GetState,"ax",%progbits
 361              		.align	1
 362              		.global	UART_TIMER_ISR_GetState
 363              		.thumb
ARM GAS  C:\Users\Yiquing\AppData\Local\Temp\cc0MVdI2.s 			page 14


 364              		.thumb_func
 365              		.type	UART_TIMER_ISR_GetState, %function
 366              	UART_TIMER_ISR_GetState:
 367              	.LFB9:
 326:.\Generated_Source\PSoC5/UART_TIMER_ISR.c **** {
 368              		.loc 1 326 0
 369              		.cfi_startproc
 370              		@ args = 0, pretend = 0, frame = 0
 371              		@ frame_needed = 0, uses_anonymous_args = 0
 372              		@ link register save eliminated.
 328:.\Generated_Source\PSoC5/UART_TIMER_ISR.c ****     return ((*UART_TIMER_ISR_INTC_SET_EN & (uint32)UART_TIMER_ISR__INTC_MASK) != 0u) ? 1u:0u;
 373              		.loc 1 328 0
 374 0000 024B     		ldr	r3, .L29
 375 0002 1868     		ldr	r0, [r3]
 329:.\Generated_Source\PSoC5/UART_TIMER_ISR.c **** }
 376              		.loc 1 329 0
 377 0004 C0F3C040 		ubfx	r0, r0, #19, #1
 378 0008 7047     		bx	lr
 379              	.L30:
 380 000a 00BF     		.align	2
 381              	.L29:
 382 000c 00E100E0 		.word	-536813312
 383              		.cfi_endproc
 384              	.LFE9:
 385              		.size	UART_TIMER_ISR_GetState, .-UART_TIMER_ISR_GetState
 386              		.section	.text.UART_TIMER_ISR_Disable,"ax",%progbits
 387              		.align	1
 388              		.global	UART_TIMER_ISR_Disable
 389              		.thumb
 390              		.thumb_func
 391              		.type	UART_TIMER_ISR_Disable, %function
 392              	UART_TIMER_ISR_Disable:
 393              	.LFB10:
 347:.\Generated_Source\PSoC5/UART_TIMER_ISR.c **** {
 394              		.loc 1 347 0
 395              		.cfi_startproc
 396              		@ args = 0, pretend = 0, frame = 0
 397              		@ frame_needed = 0, uses_anonymous_args = 0
 398              		@ link register save eliminated.
 399              		.loc 1 349 0
 400 0000 024B     		ldr	r3, .L32
 401 0002 4FF40022 		mov	r2, #524288
 402 0006 1A60     		str	r2, [r3]
 403 0008 7047     		bx	lr
 404              	.L33:
 405 000a 00BF     		.align	2
 406              	.L32:
 407 000c 80E100E0 		.word	-536813184
 408              		.cfi_endproc
 409              	.LFE10:
 410              		.size	UART_TIMER_ISR_Disable, .-UART_TIMER_ISR_Disable
 411              		.section	.text.UART_TIMER_ISR_SetPending,"ax",%progbits
 412              		.align	1
 413              		.global	UART_TIMER_ISR_SetPending
 414              		.thumb
 415              		.thumb_func
 416              		.type	UART_TIMER_ISR_SetPending, %function
ARM GAS  C:\Users\Yiquing\AppData\Local\Temp\cc0MVdI2.s 			page 15


 417              	UART_TIMER_ISR_SetPending:
 418              	.LFB11:
 350:.\Generated_Source\PSoC5/UART_TIMER_ISR.c **** }
 351:.\Generated_Source\PSoC5/UART_TIMER_ISR.c **** 
 352:.\Generated_Source\PSoC5/UART_TIMER_ISR.c **** 
 353:.\Generated_Source\PSoC5/UART_TIMER_ISR.c **** /*******************************************************************************
 354:.\Generated_Source\PSoC5/UART_TIMER_ISR.c **** * Function Name: UART_TIMER_ISR_SetPending
 355:.\Generated_Source\PSoC5/UART_TIMER_ISR.c **** ********************************************************************************
 356:.\Generated_Source\PSoC5/UART_TIMER_ISR.c **** *
 357:.\Generated_Source\PSoC5/UART_TIMER_ISR.c **** * Summary:
 358:.\Generated_Source\PSoC5/UART_TIMER_ISR.c **** *   Causes the Interrupt to enter the pending state, a software method of
 359:.\Generated_Source\PSoC5/UART_TIMER_ISR.c **** *   generating the interrupt.
 360:.\Generated_Source\PSoC5/UART_TIMER_ISR.c **** *
 361:.\Generated_Source\PSoC5/UART_TIMER_ISR.c **** * Parameters:
 362:.\Generated_Source\PSoC5/UART_TIMER_ISR.c **** *   None
 363:.\Generated_Source\PSoC5/UART_TIMER_ISR.c **** *
 364:.\Generated_Source\PSoC5/UART_TIMER_ISR.c **** * Return:
 365:.\Generated_Source\PSoC5/UART_TIMER_ISR.c **** *   None
 366:.\Generated_Source\PSoC5/UART_TIMER_ISR.c **** *
 367:.\Generated_Source\PSoC5/UART_TIMER_ISR.c **** * Side Effects:
 368:.\Generated_Source\PSoC5/UART_TIMER_ISR.c **** *   If interrupts are enabled and the interrupt is set up properly, the ISR is
 369:.\Generated_Source\PSoC5/UART_TIMER_ISR.c **** *   entered (depending on the priority of this interrupt and other pending 
 370:.\Generated_Source\PSoC5/UART_TIMER_ISR.c **** *   interrupts).
 371:.\Generated_Source\PSoC5/UART_TIMER_ISR.c **** *
 372:.\Generated_Source\PSoC5/UART_TIMER_ISR.c **** *******************************************************************************/
 373:.\Generated_Source\PSoC5/UART_TIMER_ISR.c **** void UART_TIMER_ISR_SetPending(void)
 374:.\Generated_Source\PSoC5/UART_TIMER_ISR.c **** {
 419              		.loc 1 374 0
 420              		.cfi_startproc
 421              		@ args = 0, pretend = 0, frame = 0
 422              		@ frame_needed = 0, uses_anonymous_args = 0
 423              		@ link register save eliminated.
 375:.\Generated_Source\PSoC5/UART_TIMER_ISR.c ****     *UART_TIMER_ISR_INTC_SET_PD = UART_TIMER_ISR__INTC_MASK;
 424              		.loc 1 375 0
 425 0000 024B     		ldr	r3, .L35
 426 0002 4FF40022 		mov	r2, #524288
 427 0006 1A60     		str	r2, [r3]
 428 0008 7047     		bx	lr
 429              	.L36:
 430 000a 00BF     		.align	2
 431              	.L35:
 432 000c 00E200E0 		.word	-536813056
 433              		.cfi_endproc
 434              	.LFE11:
 435              		.size	UART_TIMER_ISR_SetPending, .-UART_TIMER_ISR_SetPending
 436              		.section	.text.UART_TIMER_ISR_ClearPending,"ax",%progbits
 437              		.align	1
 438              		.global	UART_TIMER_ISR_ClearPending
 439              		.thumb
 440              		.thumb_func
 441              		.type	UART_TIMER_ISR_ClearPending, %function
 442              	UART_TIMER_ISR_ClearPending:
 443              	.LFB12:
 376:.\Generated_Source\PSoC5/UART_TIMER_ISR.c **** }
 377:.\Generated_Source\PSoC5/UART_TIMER_ISR.c **** 
 378:.\Generated_Source\PSoC5/UART_TIMER_ISR.c **** 
 379:.\Generated_Source\PSoC5/UART_TIMER_ISR.c **** /*******************************************************************************
ARM GAS  C:\Users\Yiquing\AppData\Local\Temp\cc0MVdI2.s 			page 16


 380:.\Generated_Source\PSoC5/UART_TIMER_ISR.c **** * Function Name: UART_TIMER_ISR_ClearPending
 381:.\Generated_Source\PSoC5/UART_TIMER_ISR.c **** ********************************************************************************
 382:.\Generated_Source\PSoC5/UART_TIMER_ISR.c **** *
 383:.\Generated_Source\PSoC5/UART_TIMER_ISR.c **** * Summary:
 384:.\Generated_Source\PSoC5/UART_TIMER_ISR.c **** *   Clears a pending interrupt in the interrupt controller.
 385:.\Generated_Source\PSoC5/UART_TIMER_ISR.c **** *
 386:.\Generated_Source\PSoC5/UART_TIMER_ISR.c **** *   Note Some interrupt sources are clear-on-read and require the block 
 387:.\Generated_Source\PSoC5/UART_TIMER_ISR.c **** *   interrupt/status register to be read/cleared with the appropriate block API 
 388:.\Generated_Source\PSoC5/UART_TIMER_ISR.c **** *   (GPIO, UART, and so on). Otherwise the ISR will continue to remain in 
 389:.\Generated_Source\PSoC5/UART_TIMER_ISR.c **** *   pending state even though the interrupt itself is cleared using this API.
 390:.\Generated_Source\PSoC5/UART_TIMER_ISR.c **** *
 391:.\Generated_Source\PSoC5/UART_TIMER_ISR.c **** * Parameters:
 392:.\Generated_Source\PSoC5/UART_TIMER_ISR.c **** *   None
 393:.\Generated_Source\PSoC5/UART_TIMER_ISR.c **** *
 394:.\Generated_Source\PSoC5/UART_TIMER_ISR.c **** * Return:
 395:.\Generated_Source\PSoC5/UART_TIMER_ISR.c **** *   None
 396:.\Generated_Source\PSoC5/UART_TIMER_ISR.c **** *
 397:.\Generated_Source\PSoC5/UART_TIMER_ISR.c **** *******************************************************************************/
 398:.\Generated_Source\PSoC5/UART_TIMER_ISR.c **** void UART_TIMER_ISR_ClearPending(void)
 399:.\Generated_Source\PSoC5/UART_TIMER_ISR.c **** {
 444              		.loc 1 399 0
 445              		.cfi_startproc
 446              		@ args = 0, pretend = 0, frame = 0
 447              		@ frame_needed = 0, uses_anonymous_args = 0
 448              		@ link register save eliminated.
 400:.\Generated_Source\PSoC5/UART_TIMER_ISR.c ****     *UART_TIMER_ISR_INTC_CLR_PD = UART_TIMER_ISR__INTC_MASK;
 449              		.loc 1 400 0
 450 0000 024B     		ldr	r3, .L38
 451 0002 4FF40022 		mov	r2, #524288
 452 0006 1A60     		str	r2, [r3]
 453 0008 7047     		bx	lr
 454              	.L39:
 455 000a 00BF     		.align	2
 456              	.L38:
 457 000c 80E200E0 		.word	-536812928
 458              		.cfi_endproc
 459              	.LFE12:
 460              		.size	UART_TIMER_ISR_ClearPending, .-UART_TIMER_ISR_ClearPending
 461              		.comm	card_in_buf,4,4
 462              		.comm	card_ack,4,4
 463              		.comm	TAMPERCR_POLARITY,4,4
 464              		.comm	old,1,1
 465              		.comm	currentAccessType,1,1
 466              		.comm	s,40,4
 467              		.text
 468              	.Letext0:
 469              		.file 2 "Generated_Source\\PSoC5/cytypes.h"
 470              		.file 3 "./softuart.h"
 471              		.file 4 "./system.h"
 472              		.file 5 ".\\Generated_Source\\PSoC5\\UART_TIMER.h"