ARM GAS  C:\Users\ilya\AppData\Local\Temp\ccyCBdic.s 			page 1


   1              		.syntax unified
   2              		.cpu cortex-m0
   3              		.fpu softvfp
   4              		.eabi_attribute 20, 1
   5              		.eabi_attribute 21, 1
   6              		.eabi_attribute 23, 3
   7              		.eabi_attribute 24, 1
   8              		.eabi_attribute 25, 1
   9              		.eabi_attribute 26, 1
  10              		.eabi_attribute 30, 2
  11              		.eabi_attribute 34, 0
  12              		.eabi_attribute 18, 4
  13              		.thumb
  14              		.syntax unified
  15              		.file	"ADC_IRQ.c"
  16              		.text
  17              	.Ltext0:
  18              		.cfi_sections	.debug_frame
  19              		.section	.text.ADC_IRQ_Interrupt,"ax",%progbits
  20              		.align	2
  21              		.global	ADC_IRQ_Interrupt
  22              		.code	16
  23              		.thumb_func
  24              		.type	ADC_IRQ_Interrupt, %function
  25              	ADC_IRQ_Interrupt:
  26              	.LFB4:
  27              		.file 1 "Generated_Source\\PSoC4\\ADC_IRQ.c"
   1:Generated_Source\PSoC4/ADC_IRQ.c **** /*******************************************************************************
   2:Generated_Source\PSoC4/ADC_IRQ.c **** * File Name: ADC_IRQ.c  
   3:Generated_Source\PSoC4/ADC_IRQ.c **** * Version 1.70
   4:Generated_Source\PSoC4/ADC_IRQ.c **** *
   5:Generated_Source\PSoC4/ADC_IRQ.c **** *  Description:
   6:Generated_Source\PSoC4/ADC_IRQ.c **** *   API for controlling the state of an interrupt.
   7:Generated_Source\PSoC4/ADC_IRQ.c **** *
   8:Generated_Source\PSoC4/ADC_IRQ.c **** *
   9:Generated_Source\PSoC4/ADC_IRQ.c **** *  Note:
  10:Generated_Source\PSoC4/ADC_IRQ.c **** *
  11:Generated_Source\PSoC4/ADC_IRQ.c **** ********************************************************************************
  12:Generated_Source\PSoC4/ADC_IRQ.c **** * Copyright 2008-2015, Cypress Semiconductor Corporation.  All rights reserved.
  13:Generated_Source\PSoC4/ADC_IRQ.c **** * You may use this file only in accordance with the license, terms, conditions, 
  14:Generated_Source\PSoC4/ADC_IRQ.c **** * disclaimers, and limitations in the end user license agreement accompanying 
  15:Generated_Source\PSoC4/ADC_IRQ.c **** * the software package with which this file was provided.
  16:Generated_Source\PSoC4/ADC_IRQ.c **** *******************************************************************************/
  17:Generated_Source\PSoC4/ADC_IRQ.c **** 
  18:Generated_Source\PSoC4/ADC_IRQ.c **** 
  19:Generated_Source\PSoC4/ADC_IRQ.c **** #include <cydevice_trm.h>
  20:Generated_Source\PSoC4/ADC_IRQ.c **** #include <CyLib.h>
  21:Generated_Source\PSoC4/ADC_IRQ.c **** #include <ADC_IRQ.h>
  22:Generated_Source\PSoC4/ADC_IRQ.c **** #include "cyapicallbacks.h"
  23:Generated_Source\PSoC4/ADC_IRQ.c **** 
  24:Generated_Source\PSoC4/ADC_IRQ.c **** #if !defined(ADC_IRQ__REMOVED) /* Check for removal by optimization */
  25:Generated_Source\PSoC4/ADC_IRQ.c **** 
  26:Generated_Source\PSoC4/ADC_IRQ.c **** /*******************************************************************************
  27:Generated_Source\PSoC4/ADC_IRQ.c **** *  Place your includes, defines and code here 
  28:Generated_Source\PSoC4/ADC_IRQ.c **** ********************************************************************************/
  29:Generated_Source\PSoC4/ADC_IRQ.c **** /* `#START ADC_IRQ_intc` */
  30:Generated_Source\PSoC4/ADC_IRQ.c **** 
ARM GAS  C:\Users\ilya\AppData\Local\Temp\ccyCBdic.s 			page 2


  31:Generated_Source\PSoC4/ADC_IRQ.c **** /* `#END` */
  32:Generated_Source\PSoC4/ADC_IRQ.c **** 
  33:Generated_Source\PSoC4/ADC_IRQ.c **** extern cyisraddress CyRamVectors[CYINT_IRQ_BASE + CY_NUM_INTERRUPTS];
  34:Generated_Source\PSoC4/ADC_IRQ.c **** 
  35:Generated_Source\PSoC4/ADC_IRQ.c **** /* Declared in startup, used to set unused interrupts to. */
  36:Generated_Source\PSoC4/ADC_IRQ.c **** CY_ISR_PROTO(IntDefaultHandler);
  37:Generated_Source\PSoC4/ADC_IRQ.c **** 
  38:Generated_Source\PSoC4/ADC_IRQ.c **** 
  39:Generated_Source\PSoC4/ADC_IRQ.c **** /*******************************************************************************
  40:Generated_Source\PSoC4/ADC_IRQ.c **** * Function Name: ADC_IRQ_Start
  41:Generated_Source\PSoC4/ADC_IRQ.c **** ********************************************************************************
  42:Generated_Source\PSoC4/ADC_IRQ.c **** *
  43:Generated_Source\PSoC4/ADC_IRQ.c **** * Summary:
  44:Generated_Source\PSoC4/ADC_IRQ.c **** *  Set up the interrupt and enable it. This function disables the interrupt, 
  45:Generated_Source\PSoC4/ADC_IRQ.c **** *  sets the default interrupt vector, sets the priority from the value in the
  46:Generated_Source\PSoC4/ADC_IRQ.c **** *  Design Wide Resources Interrupt Editor, then enables the interrupt to the 
  47:Generated_Source\PSoC4/ADC_IRQ.c **** *  interrupt controller.
  48:Generated_Source\PSoC4/ADC_IRQ.c **** *
  49:Generated_Source\PSoC4/ADC_IRQ.c **** * Parameters:  
  50:Generated_Source\PSoC4/ADC_IRQ.c **** *   None
  51:Generated_Source\PSoC4/ADC_IRQ.c **** *
  52:Generated_Source\PSoC4/ADC_IRQ.c **** * Return:
  53:Generated_Source\PSoC4/ADC_IRQ.c **** *   None
  54:Generated_Source\PSoC4/ADC_IRQ.c **** *
  55:Generated_Source\PSoC4/ADC_IRQ.c **** *******************************************************************************/
  56:Generated_Source\PSoC4/ADC_IRQ.c **** void ADC_IRQ_Start(void)
  57:Generated_Source\PSoC4/ADC_IRQ.c **** {
  58:Generated_Source\PSoC4/ADC_IRQ.c ****     /* For all we know the interrupt is active. */
  59:Generated_Source\PSoC4/ADC_IRQ.c ****     ADC_IRQ_Disable();
  60:Generated_Source\PSoC4/ADC_IRQ.c **** 
  61:Generated_Source\PSoC4/ADC_IRQ.c ****     /* Set the ISR to point to the ADC_IRQ Interrupt. */
  62:Generated_Source\PSoC4/ADC_IRQ.c ****     ADC_IRQ_SetVector(&ADC_IRQ_Interrupt);
  63:Generated_Source\PSoC4/ADC_IRQ.c **** 
  64:Generated_Source\PSoC4/ADC_IRQ.c ****     /* Set the priority. */
  65:Generated_Source\PSoC4/ADC_IRQ.c ****     ADC_IRQ_SetPriority((uint8)ADC_IRQ_INTC_PRIOR_NUMBER);
  66:Generated_Source\PSoC4/ADC_IRQ.c **** 
  67:Generated_Source\PSoC4/ADC_IRQ.c ****     /* Enable it. */
  68:Generated_Source\PSoC4/ADC_IRQ.c ****     ADC_IRQ_Enable();
  69:Generated_Source\PSoC4/ADC_IRQ.c **** }
  70:Generated_Source\PSoC4/ADC_IRQ.c **** 
  71:Generated_Source\PSoC4/ADC_IRQ.c **** 
  72:Generated_Source\PSoC4/ADC_IRQ.c **** /*******************************************************************************
  73:Generated_Source\PSoC4/ADC_IRQ.c **** * Function Name: ADC_IRQ_StartEx
  74:Generated_Source\PSoC4/ADC_IRQ.c **** ********************************************************************************
  75:Generated_Source\PSoC4/ADC_IRQ.c **** *
  76:Generated_Source\PSoC4/ADC_IRQ.c **** * Summary:
  77:Generated_Source\PSoC4/ADC_IRQ.c **** *  Sets up the interrupt and enables it. This function disables the interrupt,
  78:Generated_Source\PSoC4/ADC_IRQ.c **** *  sets the interrupt vector based on the address passed in, sets the priority 
  79:Generated_Source\PSoC4/ADC_IRQ.c **** *  from the value in the Design Wide Resources Interrupt Editor, then enables 
  80:Generated_Source\PSoC4/ADC_IRQ.c **** *  the interrupt to the interrupt controller.
  81:Generated_Source\PSoC4/ADC_IRQ.c **** *  
  82:Generated_Source\PSoC4/ADC_IRQ.c **** *  When defining ISR functions, the CY_ISR and CY_ISR_PROTO macros should be 
  83:Generated_Source\PSoC4/ADC_IRQ.c **** *  used to provide consistent definition across compilers:
  84:Generated_Source\PSoC4/ADC_IRQ.c **** *  
  85:Generated_Source\PSoC4/ADC_IRQ.c **** *  Function definition example:
  86:Generated_Source\PSoC4/ADC_IRQ.c **** *   CY_ISR(MyISR)
  87:Generated_Source\PSoC4/ADC_IRQ.c **** *   {
ARM GAS  C:\Users\ilya\AppData\Local\Temp\ccyCBdic.s 			page 3


  88:Generated_Source\PSoC4/ADC_IRQ.c **** *   }
  89:Generated_Source\PSoC4/ADC_IRQ.c **** *   Function prototype example:
  90:Generated_Source\PSoC4/ADC_IRQ.c **** *   CY_ISR_PROTO(MyISR);
  91:Generated_Source\PSoC4/ADC_IRQ.c **** *
  92:Generated_Source\PSoC4/ADC_IRQ.c **** * Parameters:  
  93:Generated_Source\PSoC4/ADC_IRQ.c **** *   address: Address of the ISR to set in the interrupt vector table.
  94:Generated_Source\PSoC4/ADC_IRQ.c **** *
  95:Generated_Source\PSoC4/ADC_IRQ.c **** * Return:
  96:Generated_Source\PSoC4/ADC_IRQ.c **** *   None
  97:Generated_Source\PSoC4/ADC_IRQ.c **** *
  98:Generated_Source\PSoC4/ADC_IRQ.c **** *******************************************************************************/
  99:Generated_Source\PSoC4/ADC_IRQ.c **** void ADC_IRQ_StartEx(cyisraddress address)
 100:Generated_Source\PSoC4/ADC_IRQ.c **** {
 101:Generated_Source\PSoC4/ADC_IRQ.c ****     /* For all we know the interrupt is active. */
 102:Generated_Source\PSoC4/ADC_IRQ.c ****     ADC_IRQ_Disable();
 103:Generated_Source\PSoC4/ADC_IRQ.c **** 
 104:Generated_Source\PSoC4/ADC_IRQ.c ****     /* Set the ISR to point to the ADC_IRQ Interrupt. */
 105:Generated_Source\PSoC4/ADC_IRQ.c ****     ADC_IRQ_SetVector(address);
 106:Generated_Source\PSoC4/ADC_IRQ.c **** 
 107:Generated_Source\PSoC4/ADC_IRQ.c ****     /* Set the priority. */
 108:Generated_Source\PSoC4/ADC_IRQ.c ****     ADC_IRQ_SetPriority((uint8)ADC_IRQ_INTC_PRIOR_NUMBER);
 109:Generated_Source\PSoC4/ADC_IRQ.c **** 
 110:Generated_Source\PSoC4/ADC_IRQ.c ****     /* Enable it. */
 111:Generated_Source\PSoC4/ADC_IRQ.c ****     ADC_IRQ_Enable();
 112:Generated_Source\PSoC4/ADC_IRQ.c **** }
 113:Generated_Source\PSoC4/ADC_IRQ.c **** 
 114:Generated_Source\PSoC4/ADC_IRQ.c **** 
 115:Generated_Source\PSoC4/ADC_IRQ.c **** /*******************************************************************************
 116:Generated_Source\PSoC4/ADC_IRQ.c **** * Function Name: ADC_IRQ_Stop
 117:Generated_Source\PSoC4/ADC_IRQ.c **** ********************************************************************************
 118:Generated_Source\PSoC4/ADC_IRQ.c **** *
 119:Generated_Source\PSoC4/ADC_IRQ.c **** * Summary:
 120:Generated_Source\PSoC4/ADC_IRQ.c **** *   Disables and removes the interrupt.
 121:Generated_Source\PSoC4/ADC_IRQ.c **** *
 122:Generated_Source\PSoC4/ADC_IRQ.c **** * Parameters:  
 123:Generated_Source\PSoC4/ADC_IRQ.c **** *   None
 124:Generated_Source\PSoC4/ADC_IRQ.c **** *
 125:Generated_Source\PSoC4/ADC_IRQ.c **** * Return:
 126:Generated_Source\PSoC4/ADC_IRQ.c **** *   None
 127:Generated_Source\PSoC4/ADC_IRQ.c **** *
 128:Generated_Source\PSoC4/ADC_IRQ.c **** *******************************************************************************/
 129:Generated_Source\PSoC4/ADC_IRQ.c **** void ADC_IRQ_Stop(void)
 130:Generated_Source\PSoC4/ADC_IRQ.c **** {
 131:Generated_Source\PSoC4/ADC_IRQ.c ****     /* Disable this interrupt. */
 132:Generated_Source\PSoC4/ADC_IRQ.c ****     ADC_IRQ_Disable();
 133:Generated_Source\PSoC4/ADC_IRQ.c **** 
 134:Generated_Source\PSoC4/ADC_IRQ.c ****     /* Set the ISR to point to the passive one. */
 135:Generated_Source\PSoC4/ADC_IRQ.c ****     ADC_IRQ_SetVector(&IntDefaultHandler);
 136:Generated_Source\PSoC4/ADC_IRQ.c **** }
 137:Generated_Source\PSoC4/ADC_IRQ.c **** 
 138:Generated_Source\PSoC4/ADC_IRQ.c **** 
 139:Generated_Source\PSoC4/ADC_IRQ.c **** /*******************************************************************************
 140:Generated_Source\PSoC4/ADC_IRQ.c **** * Function Name: ADC_IRQ_Interrupt
 141:Generated_Source\PSoC4/ADC_IRQ.c **** ********************************************************************************
 142:Generated_Source\PSoC4/ADC_IRQ.c **** *
 143:Generated_Source\PSoC4/ADC_IRQ.c **** * Summary:
 144:Generated_Source\PSoC4/ADC_IRQ.c **** *   The default Interrupt Service Routine for ADC_IRQ.
ARM GAS  C:\Users\ilya\AppData\Local\Temp\ccyCBdic.s 			page 4


 145:Generated_Source\PSoC4/ADC_IRQ.c **** *
 146:Generated_Source\PSoC4/ADC_IRQ.c **** *   Add custom code between the START and END comments to keep the next version
 147:Generated_Source\PSoC4/ADC_IRQ.c **** *   of this file from over-writing your code.
 148:Generated_Source\PSoC4/ADC_IRQ.c **** *
 149:Generated_Source\PSoC4/ADC_IRQ.c **** *   Note You may use either the default ISR by using this API, or you may define
 150:Generated_Source\PSoC4/ADC_IRQ.c **** *   your own separate ISR through ISR_StartEx().
 151:Generated_Source\PSoC4/ADC_IRQ.c **** *
 152:Generated_Source\PSoC4/ADC_IRQ.c **** * Parameters:  
 153:Generated_Source\PSoC4/ADC_IRQ.c **** *   None
 154:Generated_Source\PSoC4/ADC_IRQ.c **** *
 155:Generated_Source\PSoC4/ADC_IRQ.c **** * Return:
 156:Generated_Source\PSoC4/ADC_IRQ.c **** *   None
 157:Generated_Source\PSoC4/ADC_IRQ.c **** *
 158:Generated_Source\PSoC4/ADC_IRQ.c **** *******************************************************************************/
 159:Generated_Source\PSoC4/ADC_IRQ.c **** CY_ISR(ADC_IRQ_Interrupt)
 160:Generated_Source\PSoC4/ADC_IRQ.c **** {
  28              		.loc 1 160 0
  29              		.cfi_startproc
  30              		@ args = 0, pretend = 0, frame = 0
  31              		@ frame_needed = 0, uses_anonymous_args = 0
  32              		@ link register save eliminated.
 161:Generated_Source\PSoC4/ADC_IRQ.c ****     #ifdef ADC_IRQ_INTERRUPT_INTERRUPT_CALLBACK
 162:Generated_Source\PSoC4/ADC_IRQ.c ****         ADC_IRQ_Interrupt_InterruptCallback();
 163:Generated_Source\PSoC4/ADC_IRQ.c ****     #endif /* ADC_IRQ_INTERRUPT_INTERRUPT_CALLBACK */ 
 164:Generated_Source\PSoC4/ADC_IRQ.c **** 
 165:Generated_Source\PSoC4/ADC_IRQ.c ****     /*  Place your Interrupt code here. */
 166:Generated_Source\PSoC4/ADC_IRQ.c ****     /* `#START ADC_IRQ_Interrupt` */
 167:Generated_Source\PSoC4/ADC_IRQ.c **** 
 168:Generated_Source\PSoC4/ADC_IRQ.c ****     /* `#END` */
 169:Generated_Source\PSoC4/ADC_IRQ.c **** }
  33              		.loc 1 169 0
  34              		@ sp needed
  35 0000 7047     		bx	lr
  36              		.cfi_endproc
  37              	.LFE4:
  38              		.size	ADC_IRQ_Interrupt, .-ADC_IRQ_Interrupt
  39 0002 C046     		.section	.text.ADC_IRQ_Start,"ax",%progbits
  40              		.align	2
  41              		.global	ADC_IRQ_Start
  42              		.code	16
  43              		.thumb_func
  44              		.type	ADC_IRQ_Start, %function
  45              	ADC_IRQ_Start:
  46              	.LFB1:
  57:Generated_Source\PSoC4/ADC_IRQ.c ****     /* For all we know the interrupt is active. */
  47              		.loc 1 57 0
  48              		.cfi_startproc
  49              		@ args = 0, pretend = 0, frame = 0
  50              		@ frame_needed = 0, uses_anonymous_args = 0
  51 0000 70B5     		push	{r4, r5, r6, lr}
  52              		.cfi_def_cfa_offset 16
  53              		.cfi_offset 4, -16
  54              		.cfi_offset 5, -12
  55              		.cfi_offset 6, -8
  56              		.cfi_offset 14, -4
  57              	.LBB26:
  58              	.LBB27:
ARM GAS  C:\Users\ilya\AppData\Local\Temp\ccyCBdic.s 			page 5


 170:Generated_Source\PSoC4/ADC_IRQ.c **** 
 171:Generated_Source\PSoC4/ADC_IRQ.c **** 
 172:Generated_Source\PSoC4/ADC_IRQ.c **** /*******************************************************************************
 173:Generated_Source\PSoC4/ADC_IRQ.c **** * Function Name: ADC_IRQ_SetVector
 174:Generated_Source\PSoC4/ADC_IRQ.c **** ********************************************************************************
 175:Generated_Source\PSoC4/ADC_IRQ.c **** *
 176:Generated_Source\PSoC4/ADC_IRQ.c **** * Summary:
 177:Generated_Source\PSoC4/ADC_IRQ.c **** *   Change the ISR vector for the Interrupt. Note calling ADC_IRQ_Start
 178:Generated_Source\PSoC4/ADC_IRQ.c **** *   will override any effect this method would have had. To set the vector 
 179:Generated_Source\PSoC4/ADC_IRQ.c **** *   before the component has been started use ADC_IRQ_StartEx instead.
 180:Generated_Source\PSoC4/ADC_IRQ.c **** * 
 181:Generated_Source\PSoC4/ADC_IRQ.c **** *   When defining ISR functions, the CY_ISR and CY_ISR_PROTO macros should be 
 182:Generated_Source\PSoC4/ADC_IRQ.c **** *   used to provide consistent definition across compilers:
 183:Generated_Source\PSoC4/ADC_IRQ.c **** *
 184:Generated_Source\PSoC4/ADC_IRQ.c **** *   Function definition example:
 185:Generated_Source\PSoC4/ADC_IRQ.c **** *   CY_ISR(MyISR)
 186:Generated_Source\PSoC4/ADC_IRQ.c **** *   {
 187:Generated_Source\PSoC4/ADC_IRQ.c **** *   }
 188:Generated_Source\PSoC4/ADC_IRQ.c **** *
 189:Generated_Source\PSoC4/ADC_IRQ.c **** *   Function prototype example:
 190:Generated_Source\PSoC4/ADC_IRQ.c **** *     CY_ISR_PROTO(MyISR);
 191:Generated_Source\PSoC4/ADC_IRQ.c **** *
 192:Generated_Source\PSoC4/ADC_IRQ.c **** * Parameters:
 193:Generated_Source\PSoC4/ADC_IRQ.c **** *   address: Address of the ISR to set in the interrupt vector table.
 194:Generated_Source\PSoC4/ADC_IRQ.c **** *
 195:Generated_Source\PSoC4/ADC_IRQ.c **** * Return:
 196:Generated_Source\PSoC4/ADC_IRQ.c **** *   None
 197:Generated_Source\PSoC4/ADC_IRQ.c **** *
 198:Generated_Source\PSoC4/ADC_IRQ.c **** *******************************************************************************/
 199:Generated_Source\PSoC4/ADC_IRQ.c **** void ADC_IRQ_SetVector(cyisraddress address)
 200:Generated_Source\PSoC4/ADC_IRQ.c **** {
 201:Generated_Source\PSoC4/ADC_IRQ.c ****     CyRamVectors[CYINT_IRQ_BASE + ADC_IRQ__INTC_NUMBER] = address;
 202:Generated_Source\PSoC4/ADC_IRQ.c **** }
 203:Generated_Source\PSoC4/ADC_IRQ.c **** 
 204:Generated_Source\PSoC4/ADC_IRQ.c **** 
 205:Generated_Source\PSoC4/ADC_IRQ.c **** /*******************************************************************************
 206:Generated_Source\PSoC4/ADC_IRQ.c **** * Function Name: ADC_IRQ_GetVector
 207:Generated_Source\PSoC4/ADC_IRQ.c **** ********************************************************************************
 208:Generated_Source\PSoC4/ADC_IRQ.c **** *
 209:Generated_Source\PSoC4/ADC_IRQ.c **** * Summary:
 210:Generated_Source\PSoC4/ADC_IRQ.c **** *   Gets the "address" of the current ISR vector for the Interrupt.
 211:Generated_Source\PSoC4/ADC_IRQ.c **** *
 212:Generated_Source\PSoC4/ADC_IRQ.c **** * Parameters:
 213:Generated_Source\PSoC4/ADC_IRQ.c **** *   None
 214:Generated_Source\PSoC4/ADC_IRQ.c **** *
 215:Generated_Source\PSoC4/ADC_IRQ.c **** * Return:
 216:Generated_Source\PSoC4/ADC_IRQ.c **** *   Address of the ISR in the interrupt vector table.
 217:Generated_Source\PSoC4/ADC_IRQ.c **** *
 218:Generated_Source\PSoC4/ADC_IRQ.c **** *******************************************************************************/
 219:Generated_Source\PSoC4/ADC_IRQ.c **** cyisraddress ADC_IRQ_GetVector(void)
 220:Generated_Source\PSoC4/ADC_IRQ.c **** {
 221:Generated_Source\PSoC4/ADC_IRQ.c ****     return CyRamVectors[CYINT_IRQ_BASE + ADC_IRQ__INTC_NUMBER];
 222:Generated_Source\PSoC4/ADC_IRQ.c **** }
 223:Generated_Source\PSoC4/ADC_IRQ.c **** 
 224:Generated_Source\PSoC4/ADC_IRQ.c **** 
 225:Generated_Source\PSoC4/ADC_IRQ.c **** /*******************************************************************************
 226:Generated_Source\PSoC4/ADC_IRQ.c **** * Function Name: ADC_IRQ_SetPriority
ARM GAS  C:\Users\ilya\AppData\Local\Temp\ccyCBdic.s 			page 6


 227:Generated_Source\PSoC4/ADC_IRQ.c **** ********************************************************************************
 228:Generated_Source\PSoC4/ADC_IRQ.c **** *
 229:Generated_Source\PSoC4/ADC_IRQ.c **** * Summary:
 230:Generated_Source\PSoC4/ADC_IRQ.c **** *   Sets the Priority of the Interrupt. 
 231:Generated_Source\PSoC4/ADC_IRQ.c **** *
 232:Generated_Source\PSoC4/ADC_IRQ.c **** *   Note calling ADC_IRQ_Start or ADC_IRQ_StartEx will 
 233:Generated_Source\PSoC4/ADC_IRQ.c **** *   override any effect this API would have had. This API should only be called
 234:Generated_Source\PSoC4/ADC_IRQ.c **** *   after ADC_IRQ_Start or ADC_IRQ_StartEx has been called. 
 235:Generated_Source\PSoC4/ADC_IRQ.c **** *   To set the initial priority for the component, use the Design-Wide Resources
 236:Generated_Source\PSoC4/ADC_IRQ.c **** *   Interrupt Editor.
 237:Generated_Source\PSoC4/ADC_IRQ.c **** *
 238:Generated_Source\PSoC4/ADC_IRQ.c **** *   Note This API has no effect on Non-maskable interrupt NMI).
 239:Generated_Source\PSoC4/ADC_IRQ.c **** *
 240:Generated_Source\PSoC4/ADC_IRQ.c **** * Parameters:
 241:Generated_Source\PSoC4/ADC_IRQ.c **** *   priority: Priority of the interrupt, 0 being the highest priority
 242:Generated_Source\PSoC4/ADC_IRQ.c **** *             PSoC 3 and PSoC 5LP: Priority is from 0 to 7.
 243:Generated_Source\PSoC4/ADC_IRQ.c **** *             PSoC 4: Priority is from 0 to 3.
 244:Generated_Source\PSoC4/ADC_IRQ.c **** *
 245:Generated_Source\PSoC4/ADC_IRQ.c **** * Return:
 246:Generated_Source\PSoC4/ADC_IRQ.c **** *   None
 247:Generated_Source\PSoC4/ADC_IRQ.c **** *
 248:Generated_Source\PSoC4/ADC_IRQ.c **** *******************************************************************************/
 249:Generated_Source\PSoC4/ADC_IRQ.c **** void ADC_IRQ_SetPriority(uint8 priority)
 250:Generated_Source\PSoC4/ADC_IRQ.c **** {
 251:Generated_Source\PSoC4/ADC_IRQ.c **** 	uint8 interruptState;
 252:Generated_Source\PSoC4/ADC_IRQ.c ****     uint32 priorityOffset = ((ADC_IRQ__INTC_NUMBER % 4u) * 8u) + 6u;
 253:Generated_Source\PSoC4/ADC_IRQ.c ****     
 254:Generated_Source\PSoC4/ADC_IRQ.c **** 	interruptState = CyEnterCriticalSection();
 255:Generated_Source\PSoC4/ADC_IRQ.c ****     *ADC_IRQ_INTC_PRIOR = (*ADC_IRQ_INTC_PRIOR & (uint32)(~ADC_IRQ__INTC_PRIOR_MASK)) |
 256:Generated_Source\PSoC4/ADC_IRQ.c ****                                     ((uint32)priority << priorityOffset);
 257:Generated_Source\PSoC4/ADC_IRQ.c **** 	CyExitCriticalSection(interruptState);
 258:Generated_Source\PSoC4/ADC_IRQ.c **** }
 259:Generated_Source\PSoC4/ADC_IRQ.c **** 
 260:Generated_Source\PSoC4/ADC_IRQ.c **** 
 261:Generated_Source\PSoC4/ADC_IRQ.c **** /*******************************************************************************
 262:Generated_Source\PSoC4/ADC_IRQ.c **** * Function Name: ADC_IRQ_GetPriority
 263:Generated_Source\PSoC4/ADC_IRQ.c **** ********************************************************************************
 264:Generated_Source\PSoC4/ADC_IRQ.c **** *
 265:Generated_Source\PSoC4/ADC_IRQ.c **** * Summary:
 266:Generated_Source\PSoC4/ADC_IRQ.c **** *   Gets the Priority of the Interrupt.
 267:Generated_Source\PSoC4/ADC_IRQ.c **** *
 268:Generated_Source\PSoC4/ADC_IRQ.c **** * Parameters:
 269:Generated_Source\PSoC4/ADC_IRQ.c **** *   None
 270:Generated_Source\PSoC4/ADC_IRQ.c **** *
 271:Generated_Source\PSoC4/ADC_IRQ.c **** * Return:
 272:Generated_Source\PSoC4/ADC_IRQ.c **** *   Priority of the interrupt, 0 being the highest priority
 273:Generated_Source\PSoC4/ADC_IRQ.c **** *    PSoC 3 and PSoC 5LP: Priority is from 0 to 7.
 274:Generated_Source\PSoC4/ADC_IRQ.c **** *    PSoC 4: Priority is from 0 to 3.
 275:Generated_Source\PSoC4/ADC_IRQ.c **** *
 276:Generated_Source\PSoC4/ADC_IRQ.c **** *******************************************************************************/
 277:Generated_Source\PSoC4/ADC_IRQ.c **** uint8 ADC_IRQ_GetPriority(void)
 278:Generated_Source\PSoC4/ADC_IRQ.c **** {
 279:Generated_Source\PSoC4/ADC_IRQ.c ****     uint32 priority;
 280:Generated_Source\PSoC4/ADC_IRQ.c **** 	uint32 priorityOffset = ((ADC_IRQ__INTC_NUMBER % 4u) * 8u) + 6u;
 281:Generated_Source\PSoC4/ADC_IRQ.c **** 
 282:Generated_Source\PSoC4/ADC_IRQ.c ****     priority = (*ADC_IRQ_INTC_PRIOR & ADC_IRQ__INTC_PRIOR_MASK) >> priorityOffset;
 283:Generated_Source\PSoC4/ADC_IRQ.c **** 
ARM GAS  C:\Users\ilya\AppData\Local\Temp\ccyCBdic.s 			page 7


 284:Generated_Source\PSoC4/ADC_IRQ.c ****     return (uint8)priority;
 285:Generated_Source\PSoC4/ADC_IRQ.c **** }
 286:Generated_Source\PSoC4/ADC_IRQ.c **** 
 287:Generated_Source\PSoC4/ADC_IRQ.c **** 
 288:Generated_Source\PSoC4/ADC_IRQ.c **** /*******************************************************************************
 289:Generated_Source\PSoC4/ADC_IRQ.c **** * Function Name: ADC_IRQ_Enable
 290:Generated_Source\PSoC4/ADC_IRQ.c **** ********************************************************************************
 291:Generated_Source\PSoC4/ADC_IRQ.c **** *
 292:Generated_Source\PSoC4/ADC_IRQ.c **** * Summary:
 293:Generated_Source\PSoC4/ADC_IRQ.c **** *   Enables the interrupt to the interrupt controller. Do not call this function
 294:Generated_Source\PSoC4/ADC_IRQ.c **** *   unless ISR_Start() has been called or the functionality of the ISR_Start() 
 295:Generated_Source\PSoC4/ADC_IRQ.c **** *   function, which sets the vector and the priority, has been called.
 296:Generated_Source\PSoC4/ADC_IRQ.c **** *
 297:Generated_Source\PSoC4/ADC_IRQ.c **** * Parameters:
 298:Generated_Source\PSoC4/ADC_IRQ.c **** *   None
 299:Generated_Source\PSoC4/ADC_IRQ.c **** *
 300:Generated_Source\PSoC4/ADC_IRQ.c **** * Return:
 301:Generated_Source\PSoC4/ADC_IRQ.c **** *   None
 302:Generated_Source\PSoC4/ADC_IRQ.c **** *
 303:Generated_Source\PSoC4/ADC_IRQ.c **** *******************************************************************************/
 304:Generated_Source\PSoC4/ADC_IRQ.c **** void ADC_IRQ_Enable(void)
 305:Generated_Source\PSoC4/ADC_IRQ.c **** {
 306:Generated_Source\PSoC4/ADC_IRQ.c ****     /* Enable the general interrupt. */
 307:Generated_Source\PSoC4/ADC_IRQ.c ****     *ADC_IRQ_INTC_SET_EN = ADC_IRQ__INTC_MASK;
 308:Generated_Source\PSoC4/ADC_IRQ.c **** }
 309:Generated_Source\PSoC4/ADC_IRQ.c **** 
 310:Generated_Source\PSoC4/ADC_IRQ.c **** 
 311:Generated_Source\PSoC4/ADC_IRQ.c **** /*******************************************************************************
 312:Generated_Source\PSoC4/ADC_IRQ.c **** * Function Name: ADC_IRQ_GetState
 313:Generated_Source\PSoC4/ADC_IRQ.c **** ********************************************************************************
 314:Generated_Source\PSoC4/ADC_IRQ.c **** *
 315:Generated_Source\PSoC4/ADC_IRQ.c **** * Summary:
 316:Generated_Source\PSoC4/ADC_IRQ.c **** *   Gets the state (enabled, disabled) of the Interrupt.
 317:Generated_Source\PSoC4/ADC_IRQ.c **** *
 318:Generated_Source\PSoC4/ADC_IRQ.c **** * Parameters:
 319:Generated_Source\PSoC4/ADC_IRQ.c **** *   None
 320:Generated_Source\PSoC4/ADC_IRQ.c **** *
 321:Generated_Source\PSoC4/ADC_IRQ.c **** * Return:
 322:Generated_Source\PSoC4/ADC_IRQ.c **** *   1 if enabled, 0 if disabled.
 323:Generated_Source\PSoC4/ADC_IRQ.c **** *
 324:Generated_Source\PSoC4/ADC_IRQ.c **** *******************************************************************************/
 325:Generated_Source\PSoC4/ADC_IRQ.c **** uint8 ADC_IRQ_GetState(void)
 326:Generated_Source\PSoC4/ADC_IRQ.c **** {
 327:Generated_Source\PSoC4/ADC_IRQ.c ****     /* Get the state of the general interrupt. */
 328:Generated_Source\PSoC4/ADC_IRQ.c ****     return ((*ADC_IRQ_INTC_SET_EN & (uint32)ADC_IRQ__INTC_MASK) != 0u) ? 1u:0u;
 329:Generated_Source\PSoC4/ADC_IRQ.c **** }
 330:Generated_Source\PSoC4/ADC_IRQ.c **** 
 331:Generated_Source\PSoC4/ADC_IRQ.c **** 
 332:Generated_Source\PSoC4/ADC_IRQ.c **** /*******************************************************************************
 333:Generated_Source\PSoC4/ADC_IRQ.c **** * Function Name: ADC_IRQ_Disable
 334:Generated_Source\PSoC4/ADC_IRQ.c **** ********************************************************************************
 335:Generated_Source\PSoC4/ADC_IRQ.c **** *
 336:Generated_Source\PSoC4/ADC_IRQ.c **** * Summary:
 337:Generated_Source\PSoC4/ADC_IRQ.c **** *   Disables the Interrupt in the interrupt controller.
 338:Generated_Source\PSoC4/ADC_IRQ.c **** *
 339:Generated_Source\PSoC4/ADC_IRQ.c **** * Parameters:
 340:Generated_Source\PSoC4/ADC_IRQ.c **** *   None
ARM GAS  C:\Users\ilya\AppData\Local\Temp\ccyCBdic.s 			page 8


 341:Generated_Source\PSoC4/ADC_IRQ.c **** *
 342:Generated_Source\PSoC4/ADC_IRQ.c **** * Return:
 343:Generated_Source\PSoC4/ADC_IRQ.c **** *   None
 344:Generated_Source\PSoC4/ADC_IRQ.c **** *
 345:Generated_Source\PSoC4/ADC_IRQ.c **** *******************************************************************************/
 346:Generated_Source\PSoC4/ADC_IRQ.c **** void ADC_IRQ_Disable(void)
 347:Generated_Source\PSoC4/ADC_IRQ.c **** {
 348:Generated_Source\PSoC4/ADC_IRQ.c ****     /* Disable the general interrupt. */
 349:Generated_Source\PSoC4/ADC_IRQ.c ****     *ADC_IRQ_INTC_CLR_EN = ADC_IRQ__INTC_MASK;
  59              		.loc 1 349 0
  60 0002 8025     		movs	r5, #128
  61              	.LBE27:
  62              	.LBE26:
  63              	.LBB29:
  64              	.LBB30:
 201:Generated_Source\PSoC4/ADC_IRQ.c **** }
  65              		.loc 1 201 0
  66 0004 8024     		movs	r4, #128
  67              	.LBE30:
  68              	.LBE29:
  69              	.LBB33:
  70              	.LBB28:
  71              		.loc 1 349 0
  72 0006 094B     		ldr	r3, .L3
  73 0008 6D02     		lsls	r5, r5, #9
  74 000a 1D60     		str	r5, [r3]
  75              	.LVL0:
  76              	.LBE28:
  77              	.LBE33:
  78              	.LBB34:
  79              	.LBB31:
 201:Generated_Source\PSoC4/ADC_IRQ.c **** }
  80              		.loc 1 201 0
  81 000c 084A     		ldr	r2, .L3+4
  82 000e 094B     		ldr	r3, .L3+8
  83              	.LBE31:
  84              	.LBE34:
  69:Generated_Source\PSoC4/ADC_IRQ.c **** 
  85              		.loc 1 69 0
  86              		@ sp needed
  87              	.LBB35:
  88              	.LBB32:
 201:Generated_Source\PSoC4/ADC_IRQ.c **** }
  89              		.loc 1 201 0
  90 0010 1A51     		str	r2, [r3, r4]
  91              	.LVL1:
  92              	.LBE32:
  93              	.LBE35:
  94              	.LBB36:
  95              	.LBB37:
 254:Generated_Source\PSoC4/ADC_IRQ.c ****     *ADC_IRQ_INTC_PRIOR = (*ADC_IRQ_INTC_PRIOR & (uint32)(~ADC_IRQ__INTC_PRIOR_MASK)) |
  96              		.loc 1 254 0
  97 0012 FFF7FEFF 		bl	CyEnterCriticalSection
  98              	.LVL2:
 255:Generated_Source\PSoC4/ADC_IRQ.c ****                                     ((uint32)priority << priorityOffset);
  99              		.loc 1 255 0
 100 0016 C021     		movs	r1, #192
ARM GAS  C:\Users\ilya\AppData\Local\Temp\ccyCBdic.s 			page 9


 101 0018 074A     		ldr	r2, .L3+12
 102 001a 1368     		ldr	r3, [r2]
 103 001c 8B43     		bics	r3, r1
 104 001e 1C43     		orrs	r4, r3
 105 0020 1460     		str	r4, [r2]
 257:Generated_Source\PSoC4/ADC_IRQ.c **** }
 106              		.loc 1 257 0
 107 0022 FFF7FEFF 		bl	CyExitCriticalSection
 108              	.LVL3:
 109              	.LBE37:
 110              	.LBE36:
 111              	.LBB38:
 112              	.LBB39:
 307:Generated_Source\PSoC4/ADC_IRQ.c **** }
 113              		.loc 1 307 0
 114 0026 054B     		ldr	r3, .L3+16
 115 0028 1D60     		str	r5, [r3]
 116              	.LBE39:
 117              	.LBE38:
  69:Generated_Source\PSoC4/ADC_IRQ.c **** 
 118              		.loc 1 69 0
 119 002a 70BD     		pop	{r4, r5, r6, pc}
 120              	.L4:
 121              		.align	2
 122              	.L3:
 123 002c 80E100E0 		.word	-536813184
 124 0030 00000000 		.word	ADC_IRQ_Interrupt
 125 0034 00000000 		.word	CyRamVectors
 126 0038 10E400E0 		.word	-536812528
 127 003c 00E100E0 		.word	-536813312
 128              		.cfi_endproc
 129              	.LFE1:
 130              		.size	ADC_IRQ_Start, .-ADC_IRQ_Start
 131              		.section	.text.ADC_IRQ_StartEx,"ax",%progbits
 132              		.align	2
 133              		.global	ADC_IRQ_StartEx
 134              		.code	16
 135              		.thumb_func
 136              		.type	ADC_IRQ_StartEx, %function
 137              	ADC_IRQ_StartEx:
 138              	.LFB2:
 100:Generated_Source\PSoC4/ADC_IRQ.c ****     /* For all we know the interrupt is active. */
 139              		.loc 1 100 0
 140              		.cfi_startproc
 141              		@ args = 0, pretend = 0, frame = 0
 142              		@ frame_needed = 0, uses_anonymous_args = 0
 143              	.LVL4:
 144 0000 70B5     		push	{r4, r5, r6, lr}
 145              		.cfi_def_cfa_offset 16
 146              		.cfi_offset 4, -16
 147              		.cfi_offset 5, -12
 148              		.cfi_offset 6, -8
 149              		.cfi_offset 14, -4
 150              	.LBB48:
 151              	.LBB49:
 152              		.loc 1 349 0
 153 0002 8025     		movs	r5, #128
ARM GAS  C:\Users\ilya\AppData\Local\Temp\ccyCBdic.s 			page 10


 154              	.LBE49:
 155              	.LBE48:
 156              	.LBB51:
 157              	.LBB52:
 201:Generated_Source\PSoC4/ADC_IRQ.c **** }
 158              		.loc 1 201 0
 159 0004 8024     		movs	r4, #128
 160              	.LBE52:
 161              	.LBE51:
 162              	.LBB55:
 163              	.LBB50:
 164              		.loc 1 349 0
 165 0006 094B     		ldr	r3, .L6
 166 0008 6D02     		lsls	r5, r5, #9
 167 000a 1D60     		str	r5, [r3]
 168              	.LVL5:
 169              	.LBE50:
 170              	.LBE55:
 171              	.LBB56:
 172              	.LBB53:
 201:Generated_Source\PSoC4/ADC_IRQ.c **** }
 173              		.loc 1 201 0
 174 000c 084B     		ldr	r3, .L6+4
 175              	.LBE53:
 176              	.LBE56:
 112:Generated_Source\PSoC4/ADC_IRQ.c **** 
 177              		.loc 1 112 0
 178              		@ sp needed
 179              	.LBB57:
 180              	.LBB54:
 201:Generated_Source\PSoC4/ADC_IRQ.c **** }
 181              		.loc 1 201 0
 182 000e 1851     		str	r0, [r3, r4]
 183              	.LVL6:
 184              	.LBE54:
 185              	.LBE57:
 186              	.LBB58:
 187              	.LBB59:
 254:Generated_Source\PSoC4/ADC_IRQ.c ****     *ADC_IRQ_INTC_PRIOR = (*ADC_IRQ_INTC_PRIOR & (uint32)(~ADC_IRQ__INTC_PRIOR_MASK)) |
 188              		.loc 1 254 0
 189 0010 FFF7FEFF 		bl	CyEnterCriticalSection
 190              	.LVL7:
 255:Generated_Source\PSoC4/ADC_IRQ.c ****                                     ((uint32)priority << priorityOffset);
 191              		.loc 1 255 0
 192 0014 C021     		movs	r1, #192
 193 0016 074A     		ldr	r2, .L6+8
 194 0018 1368     		ldr	r3, [r2]
 195 001a 8B43     		bics	r3, r1
 196 001c 1C43     		orrs	r4, r3
 197 001e 1460     		str	r4, [r2]
 257:Generated_Source\PSoC4/ADC_IRQ.c **** }
 198              		.loc 1 257 0
 199 0020 FFF7FEFF 		bl	CyExitCriticalSection
 200              	.LVL8:
 201              	.LBE59:
 202              	.LBE58:
 203              	.LBB60:
ARM GAS  C:\Users\ilya\AppData\Local\Temp\ccyCBdic.s 			page 11


 204              	.LBB61:
 307:Generated_Source\PSoC4/ADC_IRQ.c **** }
 205              		.loc 1 307 0
 206 0024 044B     		ldr	r3, .L6+12
 207 0026 1D60     		str	r5, [r3]
 208              	.LBE61:
 209              	.LBE60:
 112:Generated_Source\PSoC4/ADC_IRQ.c **** 
 210              		.loc 1 112 0
 211 0028 70BD     		pop	{r4, r5, r6, pc}
 212              	.L7:
 213 002a C046     		.align	2
 214              	.L6:
 215 002c 80E100E0 		.word	-536813184
 216 0030 00000000 		.word	CyRamVectors
 217 0034 10E400E0 		.word	-536812528
 218 0038 00E100E0 		.word	-536813312
 219              		.cfi_endproc
 220              	.LFE2:
 221              		.size	ADC_IRQ_StartEx, .-ADC_IRQ_StartEx
 222              		.section	.text.ADC_IRQ_Stop,"ax",%progbits
 223              		.align	2
 224              		.global	ADC_IRQ_Stop
 225              		.code	16
 226              		.thumb_func
 227              		.type	ADC_IRQ_Stop, %function
 228              	ADC_IRQ_Stop:
 229              	.LFB3:
 130:Generated_Source\PSoC4/ADC_IRQ.c ****     /* Disable this interrupt. */
 230              		.loc 1 130 0
 231              		.cfi_startproc
 232              		@ args = 0, pretend = 0, frame = 0
 233              		@ frame_needed = 0, uses_anonymous_args = 0
 234              		@ link register save eliminated.
 235              	.LBB62:
 236              	.LBB63:
 237              		.loc 1 349 0
 238 0000 8022     		movs	r2, #128
 239 0002 044B     		ldr	r3, .L9
 240 0004 5202     		lsls	r2, r2, #9
 241 0006 1A60     		str	r2, [r3]
 242              	.LVL9:
 243              	.LBE63:
 244              	.LBE62:
 245              	.LBB64:
 246              	.LBB65:
 201:Generated_Source\PSoC4/ADC_IRQ.c **** }
 247              		.loc 1 201 0
 248 0008 8023     		movs	r3, #128
 249 000a 0349     		ldr	r1, .L9+4
 250 000c 034A     		ldr	r2, .L9+8
 251              	.LBE65:
 252              	.LBE64:
 136:Generated_Source\PSoC4/ADC_IRQ.c **** 
 253              		.loc 1 136 0
 254              		@ sp needed
 255              	.LBB67:
ARM GAS  C:\Users\ilya\AppData\Local\Temp\ccyCBdic.s 			page 12


 256              	.LBB66:
 201:Generated_Source\PSoC4/ADC_IRQ.c **** }
 257              		.loc 1 201 0
 258 000e D150     		str	r1, [r2, r3]
 259              	.LVL10:
 260              	.LBE66:
 261              	.LBE67:
 136:Generated_Source\PSoC4/ADC_IRQ.c **** 
 262              		.loc 1 136 0
 263 0010 7047     		bx	lr
 264              	.L10:
 265 0012 C046     		.align	2
 266              	.L9:
 267 0014 80E100E0 		.word	-536813184
 268 0018 00000000 		.word	IntDefaultHandler
 269 001c 00000000 		.word	CyRamVectors
 270              		.cfi_endproc
 271              	.LFE3:
 272              		.size	ADC_IRQ_Stop, .-ADC_IRQ_Stop
 273              		.section	.text.ADC_IRQ_SetVector,"ax",%progbits
 274              		.align	2
 275              		.global	ADC_IRQ_SetVector
 276              		.code	16
 277              		.thumb_func
 278              		.type	ADC_IRQ_SetVector, %function
 279              	ADC_IRQ_SetVector:
 280              	.LFB5:
 200:Generated_Source\PSoC4/ADC_IRQ.c ****     CyRamVectors[CYINT_IRQ_BASE + ADC_IRQ__INTC_NUMBER] = address;
 281              		.loc 1 200 0
 282              		.cfi_startproc
 283              		@ args = 0, pretend = 0, frame = 0
 284              		@ frame_needed = 0, uses_anonymous_args = 0
 285              		@ link register save eliminated.
 286              	.LVL11:
 201:Generated_Source\PSoC4/ADC_IRQ.c **** }
 287              		.loc 1 201 0
 288 0000 8023     		movs	r3, #128
 289 0002 014A     		ldr	r2, .L12
 202:Generated_Source\PSoC4/ADC_IRQ.c **** 
 290              		.loc 1 202 0
 291              		@ sp needed
 201:Generated_Source\PSoC4/ADC_IRQ.c **** }
 292              		.loc 1 201 0
 293 0004 D050     		str	r0, [r2, r3]
 202:Generated_Source\PSoC4/ADC_IRQ.c **** 
 294              		.loc 1 202 0
 295 0006 7047     		bx	lr
 296              	.L13:
 297              		.align	2
 298              	.L12:
 299 0008 00000000 		.word	CyRamVectors
 300              		.cfi_endproc
 301              	.LFE5:
 302              		.size	ADC_IRQ_SetVector, .-ADC_IRQ_SetVector
 303              		.section	.text.ADC_IRQ_GetVector,"ax",%progbits
 304              		.align	2
 305              		.global	ADC_IRQ_GetVector
ARM GAS  C:\Users\ilya\AppData\Local\Temp\ccyCBdic.s 			page 13


 306              		.code	16
 307              		.thumb_func
 308              		.type	ADC_IRQ_GetVector, %function
 309              	ADC_IRQ_GetVector:
 310              	.LFB6:
 220:Generated_Source\PSoC4/ADC_IRQ.c ****     return CyRamVectors[CYINT_IRQ_BASE + ADC_IRQ__INTC_NUMBER];
 311              		.loc 1 220 0
 312              		.cfi_startproc
 313              		@ args = 0, pretend = 0, frame = 0
 314              		@ frame_needed = 0, uses_anonymous_args = 0
 315              		@ link register save eliminated.
 221:Generated_Source\PSoC4/ADC_IRQ.c **** }
 316              		.loc 1 221 0
 317 0000 8023     		movs	r3, #128
 318 0002 014A     		ldr	r2, .L15
 222:Generated_Source\PSoC4/ADC_IRQ.c **** 
 319              		.loc 1 222 0
 320              		@ sp needed
 221:Generated_Source\PSoC4/ADC_IRQ.c **** }
 321              		.loc 1 221 0
 322 0004 D058     		ldr	r0, [r2, r3]
 222:Generated_Source\PSoC4/ADC_IRQ.c **** 
 323              		.loc 1 222 0
 324 0006 7047     		bx	lr
 325              	.L16:
 326              		.align	2
 327              	.L15:
 328 0008 00000000 		.word	CyRamVectors
 329              		.cfi_endproc
 330              	.LFE6:
 331              		.size	ADC_IRQ_GetVector, .-ADC_IRQ_GetVector
 332              		.section	.text.ADC_IRQ_SetPriority,"ax",%progbits
 333              		.align	2
 334              		.global	ADC_IRQ_SetPriority
 335              		.code	16
 336              		.thumb_func
 337              		.type	ADC_IRQ_SetPriority, %function
 338              	ADC_IRQ_SetPriority:
 339              	.LFB7:
 250:Generated_Source\PSoC4/ADC_IRQ.c **** 	uint8 interruptState;
 340              		.loc 1 250 0
 341              		.cfi_startproc
 342              		@ args = 0, pretend = 0, frame = 0
 343              		@ frame_needed = 0, uses_anonymous_args = 0
 344              	.LVL12:
 345 0000 10B5     		push	{r4, lr}
 346              		.cfi_def_cfa_offset 8
 347              		.cfi_offset 4, -8
 348              		.cfi_offset 14, -4
 250:Generated_Source\PSoC4/ADC_IRQ.c **** 	uint8 interruptState;
 349              		.loc 1 250 0
 350 0002 0400     		movs	r4, r0
 254:Generated_Source\PSoC4/ADC_IRQ.c ****     *ADC_IRQ_INTC_PRIOR = (*ADC_IRQ_INTC_PRIOR & (uint32)(~ADC_IRQ__INTC_PRIOR_MASK)) |
 351              		.loc 1 254 0
 352 0004 FFF7FEFF 		bl	CyEnterCriticalSection
 353              	.LVL13:
 255:Generated_Source\PSoC4/ADC_IRQ.c ****                                     ((uint32)priority << priorityOffset);
ARM GAS  C:\Users\ilya\AppData\Local\Temp\ccyCBdic.s 			page 14


 354              		.loc 1 255 0
 355 0008 C021     		movs	r1, #192
 356 000a 044A     		ldr	r2, .L18
 357 000c A401     		lsls	r4, r4, #6
 358 000e 1368     		ldr	r3, [r2]
 258:Generated_Source\PSoC4/ADC_IRQ.c **** 
 359              		.loc 1 258 0
 360              		@ sp needed
 255:Generated_Source\PSoC4/ADC_IRQ.c ****                                     ((uint32)priority << priorityOffset);
 361              		.loc 1 255 0
 362 0010 8B43     		bics	r3, r1
 363 0012 1C43     		orrs	r4, r3
 364 0014 1460     		str	r4, [r2]
 257:Generated_Source\PSoC4/ADC_IRQ.c **** }
 365              		.loc 1 257 0
 366 0016 FFF7FEFF 		bl	CyExitCriticalSection
 367              	.LVL14:
 258:Generated_Source\PSoC4/ADC_IRQ.c **** 
 368              		.loc 1 258 0
 369 001a 10BD     		pop	{r4, pc}
 370              	.L19:
 371              		.align	2
 372              	.L18:
 373 001c 10E400E0 		.word	-536812528
 374              		.cfi_endproc
 375              	.LFE7:
 376              		.size	ADC_IRQ_SetPriority, .-ADC_IRQ_SetPriority
 377              		.section	.text.ADC_IRQ_GetPriority,"ax",%progbits
 378              		.align	2
 379              		.global	ADC_IRQ_GetPriority
 380              		.code	16
 381              		.thumb_func
 382              		.type	ADC_IRQ_GetPriority, %function
 383              	ADC_IRQ_GetPriority:
 384              	.LFB8:
 278:Generated_Source\PSoC4/ADC_IRQ.c ****     uint32 priority;
 385              		.loc 1 278 0
 386              		.cfi_startproc
 387              		@ args = 0, pretend = 0, frame = 0
 388              		@ frame_needed = 0, uses_anonymous_args = 0
 389              		@ link register save eliminated.
 390              	.LVL15:
 282:Generated_Source\PSoC4/ADC_IRQ.c **** 
 391              		.loc 1 282 0
 392 0000 024B     		ldr	r3, .L21
 285:Generated_Source\PSoC4/ADC_IRQ.c **** 
 393              		.loc 1 285 0
 394              		@ sp needed
 282:Generated_Source\PSoC4/ADC_IRQ.c **** 
 395              		.loc 1 282 0
 396 0002 1868     		ldr	r0, [r3]
 397              	.LVL16:
 284:Generated_Source\PSoC4/ADC_IRQ.c **** }
 398              		.loc 1 284 0
 399 0004 0006     		lsls	r0, r0, #24
 400              	.LVL17:
 401 0006 800F     		lsrs	r0, r0, #30
ARM GAS  C:\Users\ilya\AppData\Local\Temp\ccyCBdic.s 			page 15


 285:Generated_Source\PSoC4/ADC_IRQ.c **** 
 402              		.loc 1 285 0
 403 0008 7047     		bx	lr
 404              	.L22:
 405 000a C046     		.align	2
 406              	.L21:
 407 000c 10E400E0 		.word	-536812528
 408              		.cfi_endproc
 409              	.LFE8:
 410              		.size	ADC_IRQ_GetPriority, .-ADC_IRQ_GetPriority
 411              		.section	.text.ADC_IRQ_Enable,"ax",%progbits
 412              		.align	2
 413              		.global	ADC_IRQ_Enable
 414              		.code	16
 415              		.thumb_func
 416              		.type	ADC_IRQ_Enable, %function
 417              	ADC_IRQ_Enable:
 418              	.LFB9:
 305:Generated_Source\PSoC4/ADC_IRQ.c ****     /* Enable the general interrupt. */
 419              		.loc 1 305 0
 420              		.cfi_startproc
 421              		@ args = 0, pretend = 0, frame = 0
 422              		@ frame_needed = 0, uses_anonymous_args = 0
 423              		@ link register save eliminated.
 307:Generated_Source\PSoC4/ADC_IRQ.c **** }
 424              		.loc 1 307 0
 425 0000 8022     		movs	r2, #128
 426 0002 024B     		ldr	r3, .L24
 427 0004 5202     		lsls	r2, r2, #9
 428 0006 1A60     		str	r2, [r3]
 308:Generated_Source\PSoC4/ADC_IRQ.c **** 
 429              		.loc 1 308 0
 430              		@ sp needed
 431 0008 7047     		bx	lr
 432              	.L25:
 433 000a C046     		.align	2
 434              	.L24:
 435 000c 00E100E0 		.word	-536813312
 436              		.cfi_endproc
 437              	.LFE9:
 438              		.size	ADC_IRQ_Enable, .-ADC_IRQ_Enable
 439              		.section	.text.ADC_IRQ_GetState,"ax",%progbits
 440              		.align	2
 441              		.global	ADC_IRQ_GetState
 442              		.code	16
 443              		.thumb_func
 444              		.type	ADC_IRQ_GetState, %function
 445              	ADC_IRQ_GetState:
 446              	.LFB10:
 326:Generated_Source\PSoC4/ADC_IRQ.c ****     /* Get the state of the general interrupt. */
 447              		.loc 1 326 0
 448              		.cfi_startproc
 449              		@ args = 0, pretend = 0, frame = 0
 450              		@ frame_needed = 0, uses_anonymous_args = 0
 451              		@ link register save eliminated.
 328:Generated_Source\PSoC4/ADC_IRQ.c **** }
 452              		.loc 1 328 0
ARM GAS  C:\Users\ilya\AppData\Local\Temp\ccyCBdic.s 			page 16


 453 0000 024B     		ldr	r3, .L27
 329:Generated_Source\PSoC4/ADC_IRQ.c **** 
 454              		.loc 1 329 0
 455              		@ sp needed
 328:Generated_Source\PSoC4/ADC_IRQ.c **** }
 456              		.loc 1 328 0
 457 0002 1868     		ldr	r0, [r3]
 458 0004 C003     		lsls	r0, r0, #15
 459 0006 C00F     		lsrs	r0, r0, #31
 329:Generated_Source\PSoC4/ADC_IRQ.c **** 
 460              		.loc 1 329 0
 461 0008 7047     		bx	lr
 462              	.L28:
 463 000a C046     		.align	2
 464              	.L27:
 465 000c 00E100E0 		.word	-536813312
 466              		.cfi_endproc
 467              	.LFE10:
 468              		.size	ADC_IRQ_GetState, .-ADC_IRQ_GetState
 469              		.section	.text.ADC_IRQ_Disable,"ax",%progbits
 470              		.align	2
 471              		.global	ADC_IRQ_Disable
 472              		.code	16
 473              		.thumb_func
 474              		.type	ADC_IRQ_Disable, %function
 475              	ADC_IRQ_Disable:
 476              	.LFB11:
 347:Generated_Source\PSoC4/ADC_IRQ.c ****     /* Disable the general interrupt. */
 477              		.loc 1 347 0
 478              		.cfi_startproc
 479              		@ args = 0, pretend = 0, frame = 0
 480              		@ frame_needed = 0, uses_anonymous_args = 0
 481              		@ link register save eliminated.
 482              		.loc 1 349 0
 483 0000 8022     		movs	r2, #128
 484 0002 024B     		ldr	r3, .L30
 485 0004 5202     		lsls	r2, r2, #9
 486 0006 1A60     		str	r2, [r3]
 350:Generated_Source\PSoC4/ADC_IRQ.c **** }
 487              		.loc 1 350 0
 488              		@ sp needed
 489 0008 7047     		bx	lr
 490              	.L31:
 491 000a C046     		.align	2
 492              	.L30:
 493 000c 80E100E0 		.word	-536813184
 494              		.cfi_endproc
 495              	.LFE11:
 496              		.size	ADC_IRQ_Disable, .-ADC_IRQ_Disable
 497              		.section	.text.ADC_IRQ_SetPending,"ax",%progbits
 498              		.align	2
 499              		.global	ADC_IRQ_SetPending
 500              		.code	16
 501              		.thumb_func
 502              		.type	ADC_IRQ_SetPending, %function
 503              	ADC_IRQ_SetPending:
 504              	.LFB12:
ARM GAS  C:\Users\ilya\AppData\Local\Temp\ccyCBdic.s 			page 17


 351:Generated_Source\PSoC4/ADC_IRQ.c **** 
 352:Generated_Source\PSoC4/ADC_IRQ.c **** 
 353:Generated_Source\PSoC4/ADC_IRQ.c **** /*******************************************************************************
 354:Generated_Source\PSoC4/ADC_IRQ.c **** * Function Name: ADC_IRQ_SetPending
 355:Generated_Source\PSoC4/ADC_IRQ.c **** ********************************************************************************
 356:Generated_Source\PSoC4/ADC_IRQ.c **** *
 357:Generated_Source\PSoC4/ADC_IRQ.c **** * Summary:
 358:Generated_Source\PSoC4/ADC_IRQ.c **** *   Causes the Interrupt to enter the pending state, a software method of
 359:Generated_Source\PSoC4/ADC_IRQ.c **** *   generating the interrupt.
 360:Generated_Source\PSoC4/ADC_IRQ.c **** *
 361:Generated_Source\PSoC4/ADC_IRQ.c **** * Parameters:
 362:Generated_Source\PSoC4/ADC_IRQ.c **** *   None
 363:Generated_Source\PSoC4/ADC_IRQ.c **** *
 364:Generated_Source\PSoC4/ADC_IRQ.c **** * Return:
 365:Generated_Source\PSoC4/ADC_IRQ.c **** *   None
 366:Generated_Source\PSoC4/ADC_IRQ.c **** *
 367:Generated_Source\PSoC4/ADC_IRQ.c **** * Side Effects:
 368:Generated_Source\PSoC4/ADC_IRQ.c **** *   If interrupts are enabled and the interrupt is set up properly, the ISR is
 369:Generated_Source\PSoC4/ADC_IRQ.c **** *   entered (depending on the priority of this interrupt and other pending 
 370:Generated_Source\PSoC4/ADC_IRQ.c **** *   interrupts).
 371:Generated_Source\PSoC4/ADC_IRQ.c **** *
 372:Generated_Source\PSoC4/ADC_IRQ.c **** *******************************************************************************/
 373:Generated_Source\PSoC4/ADC_IRQ.c **** void ADC_IRQ_SetPending(void)
 374:Generated_Source\PSoC4/ADC_IRQ.c **** {
 505              		.loc 1 374 0
 506              		.cfi_startproc
 507              		@ args = 0, pretend = 0, frame = 0
 508              		@ frame_needed = 0, uses_anonymous_args = 0
 509              		@ link register save eliminated.
 375:Generated_Source\PSoC4/ADC_IRQ.c ****     *ADC_IRQ_INTC_SET_PD = ADC_IRQ__INTC_MASK;
 510              		.loc 1 375 0
 511 0000 8022     		movs	r2, #128
 512 0002 024B     		ldr	r3, .L33
 513 0004 5202     		lsls	r2, r2, #9
 514 0006 1A60     		str	r2, [r3]
 376:Generated_Source\PSoC4/ADC_IRQ.c **** }
 515              		.loc 1 376 0
 516              		@ sp needed
 517 0008 7047     		bx	lr
 518              	.L34:
 519 000a C046     		.align	2
 520              	.L33:
 521 000c 00E200E0 		.word	-536813056
 522              		.cfi_endproc
 523              	.LFE12:
 524              		.size	ADC_IRQ_SetPending, .-ADC_IRQ_SetPending
 525              		.section	.text.ADC_IRQ_ClearPending,"ax",%progbits
 526              		.align	2
 527              		.global	ADC_IRQ_ClearPending
 528              		.code	16
 529              		.thumb_func
 530              		.type	ADC_IRQ_ClearPending, %function
 531              	ADC_IRQ_ClearPending:
 532              	.LFB13:
 377:Generated_Source\PSoC4/ADC_IRQ.c **** 
 378:Generated_Source\PSoC4/ADC_IRQ.c **** 
 379:Generated_Source\PSoC4/ADC_IRQ.c **** /*******************************************************************************
ARM GAS  C:\Users\ilya\AppData\Local\Temp\ccyCBdic.s 			page 18


 380:Generated_Source\PSoC4/ADC_IRQ.c **** * Function Name: ADC_IRQ_ClearPending
 381:Generated_Source\PSoC4/ADC_IRQ.c **** ********************************************************************************
 382:Generated_Source\PSoC4/ADC_IRQ.c **** *
 383:Generated_Source\PSoC4/ADC_IRQ.c **** * Summary:
 384:Generated_Source\PSoC4/ADC_IRQ.c **** *   Clears a pending interrupt in the interrupt controller.
 385:Generated_Source\PSoC4/ADC_IRQ.c **** *
 386:Generated_Source\PSoC4/ADC_IRQ.c **** *   Note Some interrupt sources are clear-on-read and require the block 
 387:Generated_Source\PSoC4/ADC_IRQ.c **** *   interrupt/status register to be read/cleared with the appropriate block API 
 388:Generated_Source\PSoC4/ADC_IRQ.c **** *   (GPIO, UART, and so on). Otherwise the ISR will continue to remain in 
 389:Generated_Source\PSoC4/ADC_IRQ.c **** *   pending state even though the interrupt itself is cleared using this API.
 390:Generated_Source\PSoC4/ADC_IRQ.c **** *
 391:Generated_Source\PSoC4/ADC_IRQ.c **** * Parameters:
 392:Generated_Source\PSoC4/ADC_IRQ.c **** *   None
 393:Generated_Source\PSoC4/ADC_IRQ.c **** *
 394:Generated_Source\PSoC4/ADC_IRQ.c **** * Return:
 395:Generated_Source\PSoC4/ADC_IRQ.c **** *   None
 396:Generated_Source\PSoC4/ADC_IRQ.c **** *
 397:Generated_Source\PSoC4/ADC_IRQ.c **** *******************************************************************************/
 398:Generated_Source\PSoC4/ADC_IRQ.c **** void ADC_IRQ_ClearPending(void)
 399:Generated_Source\PSoC4/ADC_IRQ.c **** {
 533              		.loc 1 399 0
 534              		.cfi_startproc
 535              		@ args = 0, pretend = 0, frame = 0
 536              		@ frame_needed = 0, uses_anonymous_args = 0
 537              		@ link register save eliminated.
 400:Generated_Source\PSoC4/ADC_IRQ.c ****     *ADC_IRQ_INTC_CLR_PD = ADC_IRQ__INTC_MASK;
 538              		.loc 1 400 0
 539 0000 8022     		movs	r2, #128
 540 0002 024B     		ldr	r3, .L36
 541 0004 5202     		lsls	r2, r2, #9
 542 0006 1A60     		str	r2, [r3]
 401:Generated_Source\PSoC4/ADC_IRQ.c **** }
 543              		.loc 1 401 0
 544              		@ sp needed
 545 0008 7047     		bx	lr
 546              	.L37:
 547 000a C046     		.align	2
 548              	.L36:
 549 000c 80E200E0 		.word	-536812928
 550              		.cfi_endproc
 551              	.LFE13:
 552              		.size	ADC_IRQ_ClearPending, .-ADC_IRQ_ClearPending
 553              		.text
 554              	.Letext0:
 555              		.file 2 "Generated_Source\\PSoC4/cytypes.h"
 556              		.file 3 "Generated_Source\\PSoC4/CyLib.h"