ARM GAS  C:\Users\ilya\AppData\Local\Temp\cccG1ble.s 			page 1


   1              		.syntax unified
   2              		.cpu cortex-m0
   3              		.fpu softvfp
   4              		.eabi_attribute 20, 1
   5              		.eabi_attribute 21, 1
   6              		.eabi_attribute 23, 3
   7              		.eabi_attribute 24, 1
   8              		.eabi_attribute 25, 1
   9              		.eabi_attribute 26, 1
  10              		.eabi_attribute 30, 2
  11              		.eabi_attribute 34, 0
  12              		.eabi_attribute 18, 4
  13              		.thumb
  14              		.syntax unified
  15              		.file	"main.c"
  16              		.text
  17              	.Ltext0:
  18              		.cfi_sections	.debug_frame
  19              		.section	.text.isr_MYTIMER_Interrupt,"ax",%progbits
  20              		.align	2
  21              		.global	isr_MYTIMER_Interrupt
  22              		.code	16
  23              		.thumb_func
  24              		.type	isr_MYTIMER_Interrupt, %function
  25              	isr_MYTIMER_Interrupt:
  26              	.LFB36:
  27              		.file 1 "main.c"
   1:main.c        **** /* ========================================
   2:main.c        ****  *
   3:main.c        ****  * Copyright YOUR COMPANY, THE YEAR
   4:main.c        ****  * All Rights Reserved
   5:main.c        ****  * UNPUBLISHED, LICENSED SOFTWARE.
   6:main.c        ****  *
   7:main.c        ****  * CONFIDENTIAL AND PROPRIETARY INFORMATION
   8:main.c        ****  * WHICH IS THE PROPERTY OF your company.
   9:main.c        ****  *
  10:main.c        ****  * ========================================
  11:main.c        **** */
  12:main.c        **** #include <project.h>
  13:main.c        **** 
  14:main.c        **** #define SET_V 40000
  15:main.c        **** #define MAX_DUTY 80
  16:main.c        **** #define MAX_DUTY_V2 120
  17:main.c        **** //95
  18:main.c        **** 
  19:main.c        **** 
  20:main.c        **** #define HW_V1 1
  21:main.c        **** #define HW_V2 2
  22:main.c        **** uint8_t g_HWVersion=0;
  23:main.c        **** 
  24:main.c        **** 
  25:main.c        **** 
  26:main.c        **** typedef struct
  27:main.c        **** {
  28:main.c        ****     unsigned char action;
  29:main.c        ****     unsigned char hv_enable;
  30:main.c        ****     unsigned char hv_volt;
ARM GAS  C:\Users\ilya\AppData\Local\Temp\cccG1ble.s 			page 2


  31:main.c        ****     unsigned char led_enable;
  32:main.c        ****     unsigned char trig_source;
  33:main.c        ****     unsigned char i_set;
  34:main.c        ****     unsigned char max_time;
  35:main.c        ****     unsigned char min_v;
  36:main.c        ****     unsigned char pwm;
  37:main.c        ****     unsigned char max_duty;
  38:main.c        ****     unsigned char version;
  39:main.c        ****     unsigned char dvdt;
  40:main.c        ****     unsigned char hwDetect;
  41:main.c        ****     unsigned char fill[19];
  42:main.c        ****     
  43:main.c        **** }SETTINGS;
  44:main.c        **** 
  45:main.c        **** 
  46:main.c        **** #define LED_LEFT 1
  47:main.c        **** #define LED_RIGHT 2
  48:main.c        **** #define LED_FACE  4
  49:main.c        **** 
  50:main.c        **** volatile SETTINGS set;
  51:main.c        **** 
  52:main.c        **** volatile char in_trig=0;
  53:main.c        **** 
  54:main.c        **** #define I_TERM_DIV 1000 
  55:main.c        **** #define P_TERM_DIV 200
  56:main.c        **** int p_term_div=35;
  57:main.c        **** 
  58:main.c        **** int i_term_div =600;
  59:main.c        **** #define MAX_I_TERM ((set.max_duty-5)*I_TERM_DIV)
  60:main.c        **** 
  61:main.c        **** // return the current voltage in mv
  62:main.c        ****     static int i_term=0;
  63:main.c        **** #define STORE_SIZE 100
  64:main.c        **** int store[STORE_SIZE];
  65:main.c        **** int st_idx=0;
  66:main.c        **** static int last_val =0;
  67:main.c        **** 
  68:main.c        **** int DoVLoop(int v_set)
  69:main.c        **** {
  70:main.c        ****     int v;
  71:main.c        ****     int err;
  72:main.c        ****     int set_val;
  73:main.c        ****     int val;
  74:main.c        ****     static int old_v;
  75:main.c        **** static int old_set_val=0;
  76:main.c        ****     static int mv;
  77:main.c        ****     // ADC_IsEndConversion(ADC_WAIT_FOR_RESULT);
  78:main.c        ****     val = ADC_GetResult16(0) ;
  79:main.c        ****     v = ADC_CountsTo_mVolts(0,val)*30;
  80:main.c        ****     
  81:main.c        ****     if (set.min_v>(v/1000))
  82:main.c        ****        set.min_v=v/1000;
  83:main.c        ****     
  84:main.c        ****     // calculate the error in voltage
  85:main.c        ****     err = v_set - v;
  86:main.c        ****     
  87:main.c        ****     // calculate the integral term
ARM GAS  C:\Users\ilya\AppData\Local\Temp\cccG1ble.s 			page 3


  88:main.c        ****     i_term = i_term+err;
  89:main.c        ****     if (i_term>MAX_I_TERM)
  90:main.c        ****        i_term = MAX_I_TERM;
  91:main.c        ****     if (i_term<0)
  92:main.c        ****       i_term=0;
  93:main.c        ****     
  94:main.c        ****     // calculate the value
  95:main.c        ****     set_val = i_term/i_term_div + err/p_term_div;
  96:main.c        ****     
  97:main.c        ****     if (set_val>(set.max_duty*4))
  98:main.c        ****        set_val = (set.max_duty*4);
  99:main.c        ****     if (set_val<1)
 100:main.c        ****         set_val=1;
 101:main.c        ****     set.pwm=set_val;
 102:main.c        ****     
 103:main.c        ****  #define PWM_BASELINE 55
 104:main.c        ****  #define VIN  12000
 105:main.c        **** 
 106:main.c        ****  //old board   
 107:main.c        **** 
 108:main.c        ****   if   (g_HWVersion==HW_V1)
 109:main.c        ****     {
 110:main.c        ****     #define DV_RATE 1150
 111:main.c        ****     //set.max_duty=90;
 112:main.c        **** 
 113:main.c        ****     // this ensures that the voltage does not go up too fast
 114:main.c        ****  // next version this should be done by limiting the inductor current 
 115:main.c        ****     mv=(PWM_BASELINE+(v-VIN)/ (DV_RATE))*4;
 116:main.c        ****     if (set_val>mv)
 117:main.c        ****         set_val=mv;
 118:main.c        ****     }
 119:main.c        ****     //set.max_duty=MAX_DUTY;
 120:main.c        ****     old_v=v;
 121:main.c        ****     PWM_CHARGE_WriteCompare(set_val);
 122:main.c        ****     old_set_val=set_val;
 123:main.c        ****     
 124:main.c        ****     store[st_idx]=set_val;
 125:main.c        ****     st_idx++;
 126:main.c        ****     if (st_idx==STORE_SIZE) st_idx=0;
 127:main.c        **** last_val = v;
 128:main.c        ****     return v;
 129:main.c        **** }
 130:main.c        **** /*int i_i_term =0;
 131:main.c        **** int i_i_term_div = 5;
 132:main.c        **** int p_i_term_div = 1;
 133:main.c        **** #define MAX_II_TERM 200
 134:main.c        **** int DoILoop(int i_set)
 135:main.c        **** {
 136:main.c        ****     int v;
 137:main.c        ****     int err;
 138:main.c        ****     int set_val;
 139:main.c        ****     int val;
 140:main.c        ****     static int old_set_val;
 141:main.c        **** 
 142:main.c        ****     // ADC_IsEndConversion(ADC_WAIT_FOR_RESULT);
 143:main.c        ****     val = ADC_GetResult16(0) ;
 144:main.c        ****     v = ADC_CountsTo_mVolts(0,val)*30;
ARM GAS  C:\Users\ilya\AppData\Local\Temp\cccG1ble.s 			page 4


 145:main.c        ****     
 146:main.c        ****     if (set.min_v>(v/1000))
 147:main.c        ****        set.min_v=v/1000;
 148:main.c        ****     
 149:main.c        ****     // calculate the error in voltage
 150:main.c        ****     err = i_set - (v-last_val);
 151:main.c        ****     last_val=v;
 152:main.c        ****     // calculate the integral term
 153:main.c        ****     i_i_term = i_i_term+err;
 154:main.c        ****     if (i_i_term>MAX_II_TERM)
 155:main.c        ****        i_i_term = MAX_II_TERM;
 156:main.c        ****     if (i_i_term<0)
 157:main.c        ****       i_i_term=0;
 158:main.c        ****     
 159:main.c        ****     // calculate the value
 160:main.c        ****     set_val = i_i_term/i_i_term_div + err*p_i_term_div;
 161:main.c        ****     
 162:main.c        ****     if (set_val>(set.max_duty*4))
 163:main.c        ****        set_val = (set.max_duty*4);
 164:main.c        ****     if (set_val<1)
 165:main.c        ****         set_val=1;
 166:main.c        ****     set.pwm=set_val;
 167:main.c        ****     
 168:main.c        ****     
 169:main.c        ****     if (set_val>old_set_val)
 170:main.c        ****        {
 171:main.c        ****         set_val = old_set_val+1;
 172:main.c        ****         }
 173:main.c        ****     PWM_CHARGE_WriteCompare(set_val);
 174:main.c        ****     old_set_val=set_val;
 175:main.c        ****     
 176:main.c        ****     store[st_idx]=set_val;
 177:main.c        ****     st_idx++;
 178:main.c        ****     if (st_idx==STORE_SIZE) st_idx=0;
 179:main.c        ****     return v;
 180:main.c        **** }
 181:main.c        **** 
 182:main.c        **** */
 183:main.c        **** #define UA_PER_BIT 2.4
 184:main.c        **** #define VI_RESISTOR 1000.0
 185:main.c        **** #define CS_RESISTOR 0.2
 186:main.c        **** 
 187:main.c        **** #define V_PER_BIT UA_PER_BIT*VI_RESISTOR/1000000.0
 188:main.c        **** #define DAC_I(i) ((float)i*CS_RESISTOR)/(V_PER_BIT)/10/2
 189:main.c        **** 
 190:main.c        **** 
 191:main.c        **** volatile uint8 comBuff[32];
 192:main.c        **** 
 193:main.c        **** int t_count=0;
 194:main.c        **** volatile uint8_t tick =0;
 195:main.c        **** int set_v=0;
 196:main.c        **** 
 197:main.c        **** 
 198:main.c        **** 
 199:main.c        **** // HV task runs off a timer
 200:main.c        **** // 12Mhz 40000 = 300 hz
 201:main.c        **** #define TASK_TIME_MS  3.3333
ARM GAS  C:\Users\ilya\AppData\Local\Temp\cccG1ble.s 			page 5


 202:main.c        **** #define RAMP_RATE_V_PER_MS  .05
 203:main.c        **** #define RAMP_RATE  (1000*RAMP_RATE_V_PER_MS/TASK_TIME_MS)
 204:main.c        **** 
 205:main.c        **** //int rset=10;
 206:main.c        **** void  HV_Task()
 207:main.c        **** {
 208:main.c        ****     static int last_v=0;
 209:main.c        ****         if (set.hv_enable && (in_trig==0))
 210:main.c        ****         {
 211:main.c        ****             // this is done to minimize the ramp time
 212:main.c        ****              //   val = ;PWM
 213:main.c        ****       /*      last_v = ADC_CountsTo_mVolts(0, ADC_GetResult16(0))*30;
 214:main.c        ****             if (last_v> set.hv_volt*1000)
 215:main.c        ****                DoVLoop(set.hv_volt*1000);
 216:main.c        ****             else
 217:main.c        ****                DoILoop(2);
 218:main.c        ****         */    
 219:main.c        ****            
 220:main.c        ****             if (set_v> set.hv_volt*1000)
 221:main.c        ****                 set_v=set.hv_volt*1000;
 222:main.c        ****             
 223:main.c        ****             if (set_v<set.hv_volt*1000)
 224:main.c        ****                 {
 225:main.c        ****                 set_v=set_v+set.dvdt;
 226:main.c        ****                 if (set_v >set.hv_volt*1000)
 227:main.c        ****                     set_v=set.hv_volt*1000;
 228:main.c        ****                 }
 229:main.c        ****             last_v=DoVLoop(set_v);
 230:main.c        ****             
 231:main.c        ****         }
 232:main.c        ****         
 233:main.c        ****      else
 234:main.c        ****            {
 235:main.c        ****             PWM_CHARGE_WriteCompare(1);
 236:main.c        ****             set_v = ADC_CountsTo_mVolts(0, ADC_GetResult16(0))*30;
 237:main.c        ****             i_term=0;
 238:main.c        ****             //i_i_term=0;
 239:main.c        ****             in_trig=0;
 240:main.c        ****             store[st_idx]=-1;
 241:main.c        ****             st_idx++;
 242:main.c        ****             if (st_idx==STORE_SIZE)
 243:main.c        ****                st_idx=0;
 244:main.c        ****             }
 245:main.c        **** }
 246:main.c        **** 
 247:main.c        **** CY_ISR(isr_MYTIMER_Interrupt)
 248:main.c        **** {
  28              		.loc 1 248 0
  29              		.cfi_startproc
  30              		@ args = 0, pretend = 0, frame = 0
  31              		@ frame_needed = 0, uses_anonymous_args = 0
  32 0000 10B5     		push	{r4, lr}
  33              		.cfi_def_cfa_offset 8
  34              		.cfi_offset 4, -8
  35              		.cfi_offset 14, -4
 249:main.c        ****     TIMER_ClearInterrupt(TIMER_INTR_MASK_TC);
  36              		.loc 1 249 0
ARM GAS  C:\Users\ilya\AppData\Local\Temp\cccG1ble.s 			page 6


  37 0002 0120     		movs	r0, #1
  38 0004 FFF7FEFF 		bl	TIMER_ClearInterrupt
  39              	.LVL0:
 250:main.c        ****     tick=1;
  40              		.loc 1 250 0
  41 0008 0122     		movs	r2, #1
  42 000a 034B     		ldr	r3, .L2
 251:main.c        ****     t_count++;
 252:main.c        **** 
 253:main.c        **** }
  43              		.loc 1 253 0
  44              		@ sp needed
 250:main.c        ****     tick=1;
  45              		.loc 1 250 0
  46 000c 1A70     		strb	r2, [r3]
 251:main.c        ****     t_count++;
  47              		.loc 1 251 0
  48 000e 5A68     		ldr	r2, [r3, #4]
  49 0010 0132     		adds	r2, r2, #1
  50 0012 5A60     		str	r2, [r3, #4]
  51              		.loc 1 253 0
  52 0014 10BD     		pop	{r4, pc}
  53              	.L3:
  54 0016 C046     		.align	2
  55              	.L2:
  56 0018 00000000 		.word	.LANCHOR0
  57              		.cfi_endproc
  58              	.LFE36:
  59              		.size	isr_MYTIMER_Interrupt, .-isr_MYTIMER_Interrupt
  60              		.global	__aeabi_ui2f
  61              		.global	__aeabi_f2d
  62              		.global	__aeabi_dmul
  63              		.global	__aeabi_ddiv
  64              		.global	__aeabi_d2iz
  65              		.section	.text.TrigTask.part.5,"ax",%progbits
  66              		.align	2
  67              		.code	16
  68              		.thumb_func
  69              		.type	TrigTask.part.5, %function
  70              	TrigTask.part.5:
  71              	.LFB50:
 254:main.c        **** 
 255:main.c        **** 
 256:main.c        **** 
 257:main.c        **** // opamp 2 is the right one
 258:main.c        **** 
 259:main.c        **** 
 260:main.c        **** uint8 GetTrig(void)
 261:main.c        **** {
 262:main.c        ****        if (
 263:main.c        ****             (set.trig_source&LED_FACE && TRIG_FACE_Read()) ||
 264:main.c        ****             (set.trig_source&LED_RIGHT && TRIG_RIGHT_Read()) ||
 265:main.c        ****             (set.trig_source&LED_LEFT && TRIG_LEFT_Read())  
 266:main.c        ****           )
 267:main.c        ****         return 1;
 268:main.c        ****     else
 269:main.c        ****        return 0;
ARM GAS  C:\Users\ilya\AppData\Local\Temp\cccG1ble.s 			page 7


 270:main.c        ****  }
 271:main.c        **** 
 272:main.c        **** void Init_bb_i2c(uint8 *space);
 273:main.c        **** void DriveLeft(uint8 on)
 274:main.c        **** {
 275:main.c        ****     if (on)
 276:main.c        ****       {
 277:main.c        ****       VREF_A_SetDriveMode(VREF_A_DM_ALG_HIZ);
 278:main.c        ****       Opamp_1_Start();
 279:main.c        ****      }
 280:main.c        ****     else
 281:main.c        ****     {
 282:main.c        ****       VREF_A_SetDriveMode(VREF_A_DM_STRONG);
 283:main.c        ****       Opamp_1_Stop();
 284:main.c        ****     }
 285:main.c        **** }
 286:main.c        **** void DriveRight(uint8 on)
 287:main.c        **** {
 288:main.c        ****     if (on)
 289:main.c        ****       {
 290:main.c        ****       VREF_B_SetDriveMode(VREF_B_DM_ALG_HIZ);
 291:main.c        ****       Opamp_2_Start();
 292:main.c        ****      }
 293:main.c        ****     else
 294:main.c        ****     {
 295:main.c        ****       VREF_B_SetDriveMode(VREF_B_DM_STRONG);
 296:main.c        ****       Opamp_2_Stop();
 297:main.c        ****     }
 298:main.c        **** }
 299:main.c        **** void DriveFace(uint8 on)
 300:main.c        **** {
 301:main.c        ****     if (on)
 302:main.c        ****       {
 303:main.c        ****       EN_C_Write(0);
 304:main.c        ****       VREF_C_SetDriveMode(VREF_C_DM_ALG_HIZ);
 305:main.c        ****       Opamp_FACE_Start();
 306:main.c        ****      }
 307:main.c        ****     else
 308:main.c        ****     {
 309:main.c        ****       VREF_C_SetDriveMode(VREF_C_DM_STRONG);
 310:main.c        ****       Opamp_FACE_Stop();
 311:main.c        ****       EN_C_Write(1);
 312:main.c        ****     }
 313:main.c        **** }
 314:main.c        **** 
 315:main.c        **** 
 316:main.c        **** void TrigTask()
  72              		.loc 1 316 0
  73              		.cfi_startproc
  74              		@ args = 0, pretend = 0, frame = 0
  75              		@ frame_needed = 0, uses_anonymous_args = 0
  76 0000 F0B5     		push	{r4, r5, r6, r7, lr}
  77              		.cfi_def_cfa_offset 20
  78              		.cfi_offset 4, -20
  79              		.cfi_offset 5, -16
  80              		.cfi_offset 6, -12
  81              		.cfi_offset 7, -8
ARM GAS  C:\Users\ilya\AppData\Local\Temp\cccG1ble.s 			page 8


  82              		.cfi_offset 14, -4
  83 0002 4746     		mov	r7, r8
  84 0004 80B4     		push	{r7}
  85              		.cfi_def_cfa_offset 24
  86              		.cfi_offset 8, -24
  87              	.LBB57:
 317:main.c        **** {
 318:main.c        ****     int x;
 319:main.c        ****       if (GetTrig())
 320:main.c        ****             {        
 321:main.c        ****             int v = DAC_I((float)set.i_set);
  88              		.loc 1 321 0
  89 0006 5C4C     		ldr	r4, .L54
 322:main.c        ****             PWM_CHARGE_WriteCompare(1);
  90              		.loc 1 322 0
  91 0008 0120     		movs	r0, #1
 321:main.c        ****             PWM_CHARGE_WriteCompare(1);
  92              		.loc 1 321 0
  93 000a 6579     		ldrb	r5, [r4, #5]
 323:main.c        ****             i_term=0;
 324:main.c        ****             in_trig=1;
  94              		.loc 1 324 0
  95 000c 0126     		movs	r6, #1
 322:main.c        ****             i_term=0;
  96              		.loc 1 322 0
  97 000e FFF7FEFF 		bl	PWM_CHARGE_WriteCompare
  98              	.LVL1:
 323:main.c        ****             i_term=0;
  99              		.loc 1 323 0
 100 0012 0022     		movs	r2, #0
 101 0014 594B     		ldr	r3, .L54+4
 321:main.c        ****             PWM_CHARGE_WriteCompare(1);
 102              		.loc 1 321 0
 103 0016 EDB2     		uxtb	r5, r5
 104              	.LVL2:
 323:main.c        ****             i_term=0;
 105              		.loc 1 323 0
 106 0018 9A60     		str	r2, [r3, #8]
 107              		.loc 1 324 0
 108 001a 1E73     		strb	r6, [r3, #12]
 325:main.c        ****             IDAC_1_SetValue(v);
 109              		.loc 1 325 0
 110 001c 2800     		movs	r0, r5
 111 001e FFF7FEFF 		bl	__aeabi_ui2f
 112              	.LVL3:
 113 0022 FFF7FEFF 		bl	__aeabi_f2d
 114              	.LVL4:
 115 0026 564A     		ldr	r2, .L54+8
 116 0028 564B     		ldr	r3, .L54+12
 117 002a FFF7FEFF 		bl	__aeabi_dmul
 118              	.LVL5:
 119 002e 564A     		ldr	r2, .L54+16
 120 0030 564B     		ldr	r3, .L54+20
 121 0032 FFF7FEFF 		bl	__aeabi_ddiv
 122              	.LVL6:
 123 0036 0022     		movs	r2, #0
 124 0038 554B     		ldr	r3, .L54+24
ARM GAS  C:\Users\ilya\AppData\Local\Temp\cccG1ble.s 			page 9


 125 003a FFF7FEFF 		bl	__aeabi_ddiv
 126              	.LVL7:
 127 003e 554B     		ldr	r3, .L54+28
 128 0040 0022     		movs	r2, #0
 129 0042 FFF7FEFF 		bl	__aeabi_dmul
 130              	.LVL8:
 131 0046 FFF7FEFF 		bl	__aeabi_d2iz
 132              	.LVL9:
 133 004a 0500     		movs	r5, r0
 134              	.LVL10:
 135 004c FFF7FEFF 		bl	IDAC_1_SetValue
 136              	.LVL11:
 326:main.c        ****             IDAC_2_SetValue(v);
 137              		.loc 1 326 0
 138 0050 2800     		movs	r0, r5
 139 0052 FFF7FEFF 		bl	IDAC_2_SetValue
 140              	.LVL12:
 327:main.c        ****  
 328:main.c        ****             if (set.led_enable&LED_LEFT)
 141              		.loc 1 328 0
 142 0056 E378     		ldrb	r3, [r4, #3]
 143 0058 1E42     		tst	r6, r3
 144 005a 00D0     		beq	.LCB92
 145 005c 70E0     		b	.L47	@long jump
 146              	.LCB92:
 329:main.c        ****                 DriveLeft(1);
 330:main.c        ****             if (set.led_enable&LED_RIGHT)
 147              		.loc 1 330 0
 148 005e E378     		ldrb	r3, [r4, #3]
 149 0060 9B07     		lsls	r3, r3, #30
 150 0062 00D5     		bpl	.LCB99
 151 0064 75E0     		b	.L48	@long jump
 152              	.LCB99:
 153              	.L6:
 331:main.c        ****                 DriveRight(1);
 332:main.c        ****             
 333:main.c        ****             if (set.led_enable&LED_FACE)
 154              		.loc 1 333 0
 155 0066 E378     		ldrb	r3, [r4, #3]
 156 0068 5B07     		lsls	r3, r3, #29
 157 006a 00D5     		bpl	.LCB107
 158 006c 7AE0     		b	.L49	@long jump
 159              	.LCB107:
 160              	.L7:
 161              	.LVL13:
 334:main.c        ****                 DriveFace(1);
 335:main.c        ****             for (x=0;x<set.max_time*100;x++)
 162              		.loc 1 335 0
 163 006e A379     		ldrb	r3, [r4, #6]
 164 0070 002B     		cmp	r3, #0
 165 0072 0ED0     		beq	.L8
 166              	.LBB58:
 167              	.LBB59:
 264:main.c        ****             (set.trig_source&LED_LEFT && TRIG_LEFT_Read())  
 168              		.loc 1 264 0
 169 0074 0123     		movs	r3, #1
 262:main.c        ****             (set.trig_source&LED_FACE && TRIG_FACE_Read()) ||
ARM GAS  C:\Users\ilya\AppData\Local\Temp\cccG1ble.s 			page 10


 170              		.loc 1 262 0
 171 0076 0426     		movs	r6, #4
 264:main.c        ****             (set.trig_source&LED_LEFT && TRIG_LEFT_Read())  
 172              		.loc 1 264 0
 173 0078 9846     		mov	r8, r3
 263:main.c        ****             (set.trig_source&LED_RIGHT && TRIG_RIGHT_Read()) ||
 174              		.loc 1 263 0
 175 007a 2379     		ldrb	r3, [r4, #4]
 176              	.LBE59:
 177              	.LBE58:
 178              		.loc 1 335 0
 179 007c 0025     		movs	r5, #0
 180              	.LVL14:
 181              	.LBB65:
 182              	.LBB62:
 263:main.c        ****             (set.trig_source&LED_RIGHT && TRIG_RIGHT_Read()) ||
 183              		.loc 1 263 0
 184 007e 0227     		movs	r7, #2
 262:main.c        ****             (set.trig_source&LED_FACE && TRIG_FACE_Read()) ||
 185              		.loc 1 262 0
 186 0080 1E42     		tst	r6, r3
 187 0082 51D1     		bne	.L9
 188              	.L13:
 264:main.c        ****             (set.trig_source&LED_LEFT && TRIG_LEFT_Read())  
 189              		.loc 1 264 0
 190 0084 2379     		ldrb	r3, [r4, #4]
 263:main.c        ****             (set.trig_source&LED_RIGHT && TRIG_RIGHT_Read()) ||
 191              		.loc 1 263 0
 192 0086 1F42     		tst	r7, r3
 193 0088 55D1     		bne	.L50
 194              	.L11:
 264:main.c        ****             (set.trig_source&LED_LEFT && TRIG_LEFT_Read())  
 195              		.loc 1 264 0
 196 008a 4246     		mov	r2, r8
 265:main.c        ****           )
 197              		.loc 1 265 0
 198 008c 2379     		ldrb	r3, [r4, #4]
 264:main.c        ****             (set.trig_source&LED_LEFT && TRIG_LEFT_Read())  
 199              		.loc 1 264 0
 200 008e 1A42     		tst	r2, r3
 201 0090 3DD1     		bne	.L51
 202              	.LVL15:
 203              	.L8:
 204              	.LBE62:
 205              	.LBE65:
 206              	.LBB66:
 207              	.LBB67:
 309:main.c        ****       Opamp_FACE_Stop();
 208              		.loc 1 309 0
 209 0092 0620     		movs	r0, #6
 210 0094 FFF7FEFF 		bl	VREF_C_SetDriveMode
 211              	.LVL16:
 310:main.c        ****       EN_C_Write(1);
 212              		.loc 1 310 0
 213 0098 FFF7FEFF 		bl	Opamp_FACE_Stop
 214              	.LVL17:
 311:main.c        ****     }
ARM GAS  C:\Users\ilya\AppData\Local\Temp\cccG1ble.s 			page 11


 215              		.loc 1 311 0
 216 009c 0120     		movs	r0, #1
 217 009e FFF7FEFF 		bl	EN_C_Write
 218              	.LVL18:
 219              	.LBE67:
 220              	.LBE66:
 221              	.LBB68:
 222              	.LBB69:
 282:main.c        ****       Opamp_1_Stop();
 223              		.loc 1 282 0
 224 00a2 0620     		movs	r0, #6
 225 00a4 FFF7FEFF 		bl	VREF_A_SetDriveMode
 226              	.LVL19:
 283:main.c        ****     }
 227              		.loc 1 283 0
 228 00a8 FFF7FEFF 		bl	Opamp_1_Stop
 229              	.LVL20:
 230              	.LBE69:
 231              	.LBE68:
 232              	.LBB70:
 233              	.LBB71:
 295:main.c        ****       Opamp_2_Stop();
 234              		.loc 1 295 0
 235 00ac 0620     		movs	r0, #6
 236 00ae FFF7FEFF 		bl	VREF_B_SetDriveMode
 237              	.LVL21:
 238              	.LBE71:
 239              	.LBE70:
 240              	.LBB73:
 241              	.LBB74:
 262:main.c        ****             (set.trig_source&LED_FACE && TRIG_FACE_Read()) ||
 242              		.loc 1 262 0
 243 00b2 0425     		movs	r5, #4
 244              	.LBE74:
 245              	.LBE73:
 246              	.LBB79:
 247              	.LBB72:
 296:main.c        ****     }
 248              		.loc 1 296 0
 249 00b4 FFF7FEFF 		bl	Opamp_2_Stop
 250              	.LVL22:
 251              	.LBE72:
 252              	.LBE79:
 253              	.LBB80:
 254              	.LBB77:
 263:main.c        ****             (set.trig_source&LED_RIGHT && TRIG_RIGHT_Read()) ||
 255              		.loc 1 263 0
 256 00b8 0226     		movs	r6, #2
 264:main.c        ****             (set.trig_source&LED_LEFT && TRIG_LEFT_Read())  
 257              		.loc 1 264 0
 258 00ba 0127     		movs	r7, #1
 259              	.L24:
 263:main.c        ****             (set.trig_source&LED_RIGHT && TRIG_RIGHT_Read()) ||
 260              		.loc 1 263 0
 261 00bc 2379     		ldrb	r3, [r4, #4]
 262:main.c        ****             (set.trig_source&LED_FACE && TRIG_FACE_Read()) ||
 262              		.loc 1 262 0
ARM GAS  C:\Users\ilya\AppData\Local\Temp\cccG1ble.s 			page 12


 263 00be 1D42     		tst	r5, r3
 264 00c0 19D1     		bne	.L16
 265              	.L20:
 264:main.c        ****             (set.trig_source&LED_LEFT && TRIG_LEFT_Read())  
 266              		.loc 1 264 0
 267 00c2 2379     		ldrb	r3, [r4, #4]
 263:main.c        ****             (set.trig_source&LED_RIGHT && TRIG_RIGHT_Read()) ||
 268              		.loc 1 263 0
 269 00c4 1E42     		tst	r6, r3
 270 00c6 1DD1     		bne	.L52
 271              	.L18:
 265:main.c        ****           )
 272              		.loc 1 265 0
 273 00c8 2379     		ldrb	r3, [r4, #4]
 264:main.c        ****             (set.trig_source&LED_LEFT && TRIG_LEFT_Read())  
 274              		.loc 1 264 0
 275 00ca 1F42     		tst	r7, r3
 276 00cc 0CD1     		bne	.L53
 277              	.L22:
 278              	.LBE77:
 279              	.LBE80:
 336:main.c        ****                 if (GetTrig()==0)
 337:main.c        ****                    break;
 338:main.c        ****     //        in_trig=0;
 339:main.c        ****             DriveFace(0);
 340:main.c        ****             DriveLeft(0);
 341:main.c        ****             DriveRight(0);
 342:main.c        ****              while(GetTrig());
 343:main.c        ****             // use the upper 4 bits to enable the toggle mode
 344:main.c        ****             set.led_enable=(set.led_enable&0xf0) | ( (set.led_enable^(set.led_enable>>4))&0xf);
 280              		.loc 1 344 0
 281 00ce E178     		ldrb	r1, [r4, #3]
 282 00d0 E378     		ldrb	r3, [r4, #3]
 283 00d2 E278     		ldrb	r2, [r4, #3]
 284              	.LBE57:
 345:main.c        ****  
 346:main.c        ****             }
 347:main.c        ****     
 348:main.c        **** }
 285              		.loc 1 348 0
 286              		@ sp needed
 287              	.LBB93:
 344:main.c        ****  
 288              		.loc 1 344 0
 289 00d4 1209     		lsrs	r2, r2, #4
 290 00d6 5340     		eors	r3, r2
 291 00d8 0F22     		movs	r2, #15
 292 00da 1340     		ands	r3, r2
 293 00dc 9143     		bics	r1, r2
 294 00de 0B43     		orrs	r3, r1
 295 00e0 E370     		strb	r3, [r4, #3]
 296              	.LBE93:
 297              		.loc 1 348 0
 298 00e2 04BC     		pop	{r2}
 299 00e4 9046     		mov	r8, r2
 300 00e6 F0BD     		pop	{r4, r5, r6, r7, pc}
 301              	.L53:
ARM GAS  C:\Users\ilya\AppData\Local\Temp\cccG1ble.s 			page 13


 302              	.LBB94:
 303              	.LBB81:
 304              	.LBB78:
 305              	.LBB75:
 306              	.LBB76:
 265:main.c        ****           )
 307              		.loc 1 265 0
 308 00e8 FFF7FEFF 		bl	TRIG_LEFT_Read
 309              	.LVL23:
 310 00ec 0028     		cmp	r0, #0
 311 00ee EED0     		beq	.L22
 312              	.LBE76:
 313              	.LBE75:
 263:main.c        ****             (set.trig_source&LED_RIGHT && TRIG_RIGHT_Read()) ||
 314              		.loc 1 263 0
 315 00f0 2379     		ldrb	r3, [r4, #4]
 262:main.c        ****             (set.trig_source&LED_FACE && TRIG_FACE_Read()) ||
 316              		.loc 1 262 0
 317 00f2 1D42     		tst	r5, r3
 318 00f4 E5D0     		beq	.L20
 319              	.L16:
 263:main.c        ****             (set.trig_source&LED_RIGHT && TRIG_RIGHT_Read()) ||
 320              		.loc 1 263 0
 321 00f6 FFF7FEFF 		bl	TRIG_FACE_Read
 322              	.LVL24:
 323 00fa 0028     		cmp	r0, #0
 324 00fc DED1     		bne	.L24
 264:main.c        ****             (set.trig_source&LED_LEFT && TRIG_LEFT_Read())  
 325              		.loc 1 264 0
 326 00fe 2379     		ldrb	r3, [r4, #4]
 263:main.c        ****             (set.trig_source&LED_RIGHT && TRIG_RIGHT_Read()) ||
 327              		.loc 1 263 0
 328 0100 1E42     		tst	r6, r3
 329 0102 E1D0     		beq	.L18
 330              	.L52:
 264:main.c        ****             (set.trig_source&LED_LEFT && TRIG_LEFT_Read())  
 331              		.loc 1 264 0
 332 0104 FFF7FEFF 		bl	TRIG_RIGHT_Read
 333              	.LVL25:
 334 0108 0028     		cmp	r0, #0
 335 010a DDD0     		beq	.L18
 336 010c D6E7     		b	.L24
 337              	.LVL26:
 338              	.L51:
 339              	.LBE78:
 340              	.LBE81:
 341              	.LBB82:
 342              	.LBB63:
 343              	.LBB60:
 344              	.LBB61:
 265:main.c        ****           )
 345              		.loc 1 265 0
 346 010e FFF7FEFF 		bl	TRIG_LEFT_Read
 347              	.LVL27:
 348 0112 0028     		cmp	r0, #0
 349 0114 BDD0     		beq	.L8
 350              	.L12:
ARM GAS  C:\Users\ilya\AppData\Local\Temp\cccG1ble.s 			page 14


 351              	.LBE61:
 352              	.LBE60:
 353              	.LBE63:
 354              	.LBE82:
 335:main.c        ****                 if (GetTrig()==0)
 355              		.loc 1 335 0
 356 0116 6423     		movs	r3, #100
 357 0118 A279     		ldrb	r2, [r4, #6]
 358 011a 0135     		adds	r5, r5, #1
 359              	.LVL28:
 360 011c 5343     		muls	r3, r2
 361 011e 9D42     		cmp	r5, r3
 362 0120 B7DA     		bge	.L8
 363              	.LBB83:
 364              	.LBB64:
 263:main.c        ****             (set.trig_source&LED_RIGHT && TRIG_RIGHT_Read()) ||
 365              		.loc 1 263 0
 366 0122 2379     		ldrb	r3, [r4, #4]
 262:main.c        ****             (set.trig_source&LED_FACE && TRIG_FACE_Read()) ||
 367              		.loc 1 262 0
 368 0124 1E42     		tst	r6, r3
 369 0126 ADD0     		beq	.L13
 370              	.L9:
 263:main.c        ****             (set.trig_source&LED_RIGHT && TRIG_RIGHT_Read()) ||
 371              		.loc 1 263 0
 372 0128 FFF7FEFF 		bl	TRIG_FACE_Read
 373              	.LVL29:
 374 012c 0028     		cmp	r0, #0
 375 012e F2D1     		bne	.L12
 264:main.c        ****             (set.trig_source&LED_LEFT && TRIG_LEFT_Read())  
 376              		.loc 1 264 0
 377 0130 2379     		ldrb	r3, [r4, #4]
 263:main.c        ****             (set.trig_source&LED_RIGHT && TRIG_RIGHT_Read()) ||
 378              		.loc 1 263 0
 379 0132 1F42     		tst	r7, r3
 380 0134 A9D0     		beq	.L11
 381              	.L50:
 264:main.c        ****             (set.trig_source&LED_LEFT && TRIG_LEFT_Read())  
 382              		.loc 1 264 0
 383 0136 FFF7FEFF 		bl	TRIG_RIGHT_Read
 384              	.LVL30:
 385 013a 0028     		cmp	r0, #0
 386 013c A5D0     		beq	.L11
 387 013e EAE7     		b	.L12
 388              	.LVL31:
 389              	.L47:
 390              	.LBE64:
 391              	.LBE83:
 392              	.LBB84:
 393              	.LBB85:
 394              	.LBB86:
 277:main.c        ****       Opamp_1_Start();
 395              		.loc 1 277 0
 396 0140 0020     		movs	r0, #0
 397 0142 FFF7FEFF 		bl	VREF_A_SetDriveMode
 398              	.LVL32:
 278:main.c        ****      }
ARM GAS  C:\Users\ilya\AppData\Local\Temp\cccG1ble.s 			page 15


 399              		.loc 1 278 0
 400 0146 FFF7FEFF 		bl	Opamp_1_Start
 401              	.LVL33:
 402              	.LBE86:
 403              	.LBE85:
 404              	.LBE84:
 330:main.c        ****                 DriveRight(1);
 405              		.loc 1 330 0
 406 014a E378     		ldrb	r3, [r4, #3]
 407 014c 9B07     		lsls	r3, r3, #30
 408 014e 00D4     		bmi	.LCB355
 409 0150 89E7     		b	.L6	@long jump
 410              	.LCB355:
 411              	.LVL34:
 412              	.L48:
 413              	.LBB87:
 414              	.LBB88:
 415              	.LBB89:
 290:main.c        ****       Opamp_2_Start();
 416              		.loc 1 290 0
 417 0152 0020     		movs	r0, #0
 418 0154 FFF7FEFF 		bl	VREF_B_SetDriveMode
 419              	.LVL35:
 291:main.c        ****      }
 420              		.loc 1 291 0
 421 0158 FFF7FEFF 		bl	Opamp_2_Start
 422              	.LVL36:
 423              	.LBE89:
 424              	.LBE88:
 425              	.LBE87:
 333:main.c        ****                 DriveFace(1);
 426              		.loc 1 333 0
 427 015c E378     		ldrb	r3, [r4, #3]
 428 015e 5B07     		lsls	r3, r3, #29
 429 0160 00D4     		bmi	.LCB374
 430 0162 84E7     		b	.L7	@long jump
 431              	.LCB374:
 432              	.LVL37:
 433              	.L49:
 434              	.LBB90:
 435              	.LBB91:
 436              	.LBB92:
 303:main.c        ****       VREF_C_SetDriveMode(VREF_C_DM_ALG_HIZ);
 437              		.loc 1 303 0
 438 0164 0020     		movs	r0, #0
 439 0166 FFF7FEFF 		bl	EN_C_Write
 440              	.LVL38:
 304:main.c        ****       Opamp_FACE_Start();
 441              		.loc 1 304 0
 442 016a 0020     		movs	r0, #0
 443 016c FFF7FEFF 		bl	VREF_C_SetDriveMode
 444              	.LVL39:
 305:main.c        ****      }
 445              		.loc 1 305 0
 446 0170 FFF7FEFF 		bl	Opamp_FACE_Start
 447              	.LVL40:
 448 0174 7BE7     		b	.L7
ARM GAS  C:\Users\ilya\AppData\Local\Temp\cccG1ble.s 			page 16


 449              	.L55:
 450 0176 C046     		.align	2
 451              	.L54:
 452 0178 00000000 		.word	set
 453 017c 00000000 		.word	.LANCHOR0
 454 0180 9A999999 		.word	-1717986918
 455 0184 9999C93F 		.word	1070176665
 456 0188 61325530 		.word	810889825
 457 018c 2AA9633F 		.word	1063495978
 458 0190 00002440 		.word	1076101120
 459 0194 0000E03F 		.word	1071644672
 460              	.LBE92:
 461              	.LBE91:
 462              	.LBE90:
 463              	.LBE94:
 464              		.cfi_endproc
 465              	.LFE50:
 466              		.size	TrigTask.part.5, .-TrigTask.part.5
 467              		.global	__aeabi_idiv
 468              		.section	.text.DoVLoop,"ax",%progbits
 469              		.align	2
 470              		.global	DoVLoop
 471              		.code	16
 472              		.thumb_func
 473              		.type	DoVLoop, %function
 474              	DoVLoop:
 475              	.LFB34:
  69:main.c        ****     int v;
 476              		.loc 1 69 0
 477              		.cfi_startproc
 478              		@ args = 0, pretend = 0, frame = 0
 479              		@ frame_needed = 0, uses_anonymous_args = 0
 480              	.LVL41:
 481 0000 F8B5     		push	{r3, r4, r5, r6, r7, lr}
 482              		.cfi_def_cfa_offset 24
 483              		.cfi_offset 3, -24
 484              		.cfi_offset 4, -20
 485              		.cfi_offset 5, -16
 486              		.cfi_offset 6, -12
 487              		.cfi_offset 7, -8
 488              		.cfi_offset 14, -4
 489 0002 4F46     		mov	r7, r9
 490 0004 4646     		mov	r6, r8
 491 0006 0400     		movs	r4, r0
 492 0008 C0B4     		push	{r6, r7}
 493              		.cfi_def_cfa_offset 32
 494              		.cfi_offset 8, -32
 495              		.cfi_offset 9, -28
  78:main.c        ****     v = ADC_CountsTo_mVolts(0,val)*30;
 496              		.loc 1 78 0
 497 000a 0020     		movs	r0, #0
 498              	.LVL42:
 499 000c FFF7FEFF 		bl	ADC_GetResult16
 500              	.LVL43:
 501 0010 0100     		movs	r1, r0
 502              	.LVL44:
  79:main.c        ****     
ARM GAS  C:\Users\ilya\AppData\Local\Temp\cccG1ble.s 			page 17


 503              		.loc 1 79 0
 504 0012 0020     		movs	r0, #0
 505 0014 FFF7FEFF 		bl	ADC_CountsTo_mVolts
 506              	.LVL45:
  81:main.c        ****        set.min_v=v/1000;
 507              		.loc 1 81 0
 508 0018 FA21     		movs	r1, #250
  79:main.c        ****     
 509              		.loc 1 79 0
 510 001a 0301     		lsls	r3, r0, #4
  81:main.c        ****        set.min_v=v/1000;
 511              		.loc 1 81 0
 512 001c 2D4F     		ldr	r7, .L70
  79:main.c        ****     
 513              		.loc 1 79 0
 514 001e 1D1A     		subs	r5, r3, r0
  81:main.c        ****        set.min_v=v/1000;
 515              		.loc 1 81 0
 516 0020 FE79     		ldrb	r6, [r7, #7]
  79:main.c        ****     
 517              		.loc 1 79 0
 518 0022 6D00     		lsls	r5, r5, #1
 519              	.LVL46:
  81:main.c        ****        set.min_v=v/1000;
 520              		.loc 1 81 0
 521 0024 8900     		lsls	r1, r1, #2
 522 0026 2800     		movs	r0, r5
 523 0028 F6B2     		uxtb	r6, r6
 524 002a FFF7FEFF 		bl	__aeabi_idiv
 525              	.LVL47:
 526 002e 8642     		cmp	r6, r0
 527 0030 01DD     		ble	.L57
  82:main.c        ****     
 528              		.loc 1 82 0
 529 0032 C0B2     		uxtb	r0, r0
 530 0034 F871     		strb	r0, [r7, #7]
 531              	.L57:
  89:main.c        ****        i_term = MAX_I_TERM;
 532              		.loc 1 89 0
 533 0036 FA22     		movs	r2, #250
  88:main.c        ****     if (i_term>MAX_I_TERM)
 534              		.loc 1 88 0
 535 0038 274E     		ldr	r6, .L70+4
  85:main.c        ****     
 536              		.loc 1 85 0
 537 003a 641B     		subs	r4, r4, r5
 538              	.LVL48:
  88:main.c        ****     if (i_term>MAX_I_TERM)
 539              		.loc 1 88 0
 540 003c B368     		ldr	r3, [r6, #8]
  89:main.c        ****        i_term = MAX_I_TERM;
 541              		.loc 1 89 0
 542 003e 9200     		lsls	r2, r2, #2
  88:main.c        ****     if (i_term>MAX_I_TERM)
 543              		.loc 1 88 0
 544 0040 E018     		adds	r0, r4, r3
 545 0042 B060     		str	r0, [r6, #8]
ARM GAS  C:\Users\ilya\AppData\Local\Temp\cccG1ble.s 			page 18


  89:main.c        ****        i_term = MAX_I_TERM;
 546              		.loc 1 89 0
 547 0044 7B7A     		ldrb	r3, [r7, #9]
 548 0046 053B     		subs	r3, r3, #5
 549 0048 5343     		muls	r3, r2
 550 004a 9842     		cmp	r0, r3
 551 004c 03DD     		ble	.L58
  90:main.c        ****     if (i_term<0)
 552              		.loc 1 90 0
 553 004e 787A     		ldrb	r0, [r7, #9]
 554 0050 0538     		subs	r0, r0, #5
 555 0052 5043     		muls	r0, r2
 556 0054 B060     		str	r0, [r6, #8]
 557              	.L58:
  91:main.c        ****       i_term=0;
 558              		.loc 1 91 0
 559 0056 0028     		cmp	r0, #0
 560 0058 38DB     		blt	.L68
 561              	.L59:
  95:main.c        ****     
 562              		.loc 1 95 0
 563 005a 204B     		ldr	r3, .L70+8
 564 005c 9846     		mov	r8, r3
 565 005e 1968     		ldr	r1, [r3]
 566 0060 FFF7FEFF 		bl	__aeabi_idiv
 567              	.LVL49:
 568 0064 4346     		mov	r3, r8
 569 0066 8146     		mov	r9, r0
 570 0068 5968     		ldr	r1, [r3, #4]
 571 006a 2000     		movs	r0, r4
 572 006c FFF7FEFF 		bl	__aeabi_idiv
 573              	.LVL50:
  97:main.c        ****        set_val = (set.max_duty*4);
 574              		.loc 1 97 0
 575 0070 7B7A     		ldrb	r3, [r7, #9]
  95:main.c        ****     
 576              		.loc 1 95 0
 577 0072 4844     		add	r0, r0, r9
 578 0074 0400     		movs	r4, r0
 579              	.LVL51:
  97:main.c        ****        set_val = (set.max_duty*4);
 580              		.loc 1 97 0
 581 0076 9B00     		lsls	r3, r3, #2
 582 0078 9842     		cmp	r0, r3
 583 007a 01DD     		ble	.L60
  98:main.c        ****     if (set_val<1)
 584              		.loc 1 98 0
 585 007c 7C7A     		ldrb	r4, [r7, #9]
 586 007e A400     		lsls	r4, r4, #2
 587              	.LVL52:
 588              	.L60:
  99:main.c        ****         set_val=1;
 589              		.loc 1 99 0
 590 0080 002C     		cmp	r4, #0
 591 0082 20DD     		ble	.L66
 592 0084 E3B2     		uxtb	r3, r4
 593              	.LVL53:
ARM GAS  C:\Users\ilya\AppData\Local\Temp\cccG1ble.s 			page 19


 594              	.L61:
 101:main.c        ****     
 595              		.loc 1 101 0
 596 0086 3B72     		strb	r3, [r7, #8]
 108:main.c        ****     {
 597              		.loc 1 108 0
 598 0088 737B     		ldrb	r3, [r6, #13]
 599 008a 012B     		cmp	r3, #1
 600 008c 10D0     		beq	.L69
 601              	.LVL54:
 602              	.L62:
 121:main.c        ****     old_set_val=set_val;
 603              		.loc 1 121 0
 604 008e 2000     		movs	r0, r4
 605 0090 FFF7FEFF 		bl	PWM_CHARGE_WriteCompare
 606              	.LVL55:
 124:main.c        ****     st_idx++;
 607              		.loc 1 124 0
 608 0094 3369     		ldr	r3, [r6, #16]
 609 0096 124A     		ldr	r2, .L70+12
 610 0098 9900     		lsls	r1, r3, #2
 125:main.c        ****     if (st_idx==STORE_SIZE) st_idx=0;
 611              		.loc 1 125 0
 612 009a 0133     		adds	r3, r3, #1
 124:main.c        ****     st_idx++;
 613              		.loc 1 124 0
 614 009c 8C50     		str	r4, [r1, r2]
 126:main.c        **** last_val = v;
 615              		.loc 1 126 0
 616 009e 642B     		cmp	r3, #100
 617 00a0 00D1     		bne	.L67
 126:main.c        **** last_val = v;
 618              		.loc 1 126 0 is_stmt 0 discriminator 1
 619 00a2 0023     		movs	r3, #0
 620              	.L67:
 129:main.c        **** /*int i_i_term =0;
 621              		.loc 1 129 0 is_stmt 1 discriminator 1
 622 00a4 2800     		movs	r0, r5
 126:main.c        **** last_val = v;
 623              		.loc 1 126 0 discriminator 1
 624 00a6 3361     		str	r3, [r6, #16]
 129:main.c        **** /*int i_i_term =0;
 625              		.loc 1 129 0 discriminator 1
 626              		@ sp needed
 627              	.LVL56:
 628              	.LVL57:
 629 00a8 0CBC     		pop	{r2, r3}
 630 00aa 9046     		mov	r8, r2
 631 00ac 9946     		mov	r9, r3
 632 00ae F8BD     		pop	{r3, r4, r5, r6, r7, pc}
 633              	.LVL58:
 634              	.L69:
 115:main.c        ****     if (set_val>mv)
 635              		.loc 1 115 0
 636 00b0 0C4B     		ldr	r3, .L70+16
 637 00b2 0D49     		ldr	r1, .L70+20
 638 00b4 E818     		adds	r0, r5, r3
ARM GAS  C:\Users\ilya\AppData\Local\Temp\cccG1ble.s 			page 20


 639 00b6 FFF7FEFF 		bl	__aeabi_idiv
 640              	.LVL59:
 641 00ba 3730     		adds	r0, r0, #55
 642 00bc 8000     		lsls	r0, r0, #2
 643 00be 8442     		cmp	r4, r0
 644 00c0 E5DD     		ble	.L62
 645 00c2 0400     		movs	r4, r0
 646              	.LVL60:
 647 00c4 E3E7     		b	.L62
 648              	.LVL61:
 649              	.L66:
 650 00c6 0123     		movs	r3, #1
 100:main.c        ****     set.pwm=set_val;
 651              		.loc 1 100 0
 652 00c8 0124     		movs	r4, #1
 653              	.LVL62:
 654 00ca DCE7     		b	.L61
 655              	.LVL63:
 656              	.L68:
  92:main.c        ****     
 657              		.loc 1 92 0
 658 00cc 0023     		movs	r3, #0
 659 00ce 0020     		movs	r0, #0
 660 00d0 B360     		str	r3, [r6, #8]
 661 00d2 C2E7     		b	.L59
 662              	.L71:
 663              		.align	2
 664              	.L70:
 665 00d4 00000000 		.word	set
 666 00d8 00000000 		.word	.LANCHOR0
 667 00dc 00000000 		.word	.LANCHOR1
 668 00e0 00000000 		.word	store
 669 00e4 20D1FFFF 		.word	-12000
 670 00e8 7E040000 		.word	1150
 671              		.cfi_endproc
 672              	.LFE34:
 673              		.size	DoVLoop, .-DoVLoop
 674              		.section	.text.HV_Task,"ax",%progbits
 675              		.align	2
 676              		.global	HV_Task
 677              		.code	16
 678              		.thumb_func
 679              		.type	HV_Task, %function
 680              	HV_Task:
 681              	.LFB35:
 207:main.c        ****     static int last_v=0;
 682              		.loc 1 207 0
 683              		.cfi_startproc
 684              		@ args = 0, pretend = 0, frame = 0
 685              		@ frame_needed = 0, uses_anonymous_args = 0
 686 0000 70B5     		push	{r4, r5, r6, lr}
 687              		.cfi_def_cfa_offset 16
 688              		.cfi_offset 4, -16
 689              		.cfi_offset 5, -12
 690              		.cfi_offset 6, -8
 691              		.cfi_offset 14, -4
 209:main.c        ****         {
ARM GAS  C:\Users\ilya\AppData\Local\Temp\cccG1ble.s 			page 21


 692              		.loc 1 209 0
 693 0002 224B     		ldr	r3, .L82
 694 0004 224C     		ldr	r4, .L82+4
 695 0006 5A78     		ldrb	r2, [r3, #1]
 696 0008 002A     		cmp	r2, #0
 697 000a 1CD0     		beq	.L73
 209:main.c        ****         {
 698              		.loc 1 209 0 is_stmt 0 discriminator 1
 699 000c 227B     		ldrb	r2, [r4, #12]
 700 000e 002A     		cmp	r2, #0
 701 0010 19D1     		bne	.L73
 702              	.LBB97:
 703              	.LBB98:
 220:main.c        ****                 set_v=set.hv_volt*1000;
 704              		.loc 1 220 0 is_stmt 1
 705 0012 FA21     		movs	r1, #250
 706 0014 9A78     		ldrb	r2, [r3, #2]
 707 0016 8900     		lsls	r1, r1, #2
 708 0018 4A43     		muls	r2, r1
 709 001a 6069     		ldr	r0, [r4, #20]
 710 001c 8242     		cmp	r2, r0
 711 001e 30DB     		blt	.L81
 712              	.L74:
 223:main.c        ****                 {
 713              		.loc 1 223 0
 714 0020 FA21     		movs	r1, #250
 715 0022 9A78     		ldrb	r2, [r3, #2]
 716 0024 8900     		lsls	r1, r1, #2
 717 0026 4A43     		muls	r2, r1
 718 0028 8242     		cmp	r2, r0
 719 002a 09DD     		ble	.L75
 225:main.c        ****                 if (set_v >set.hv_volt*1000)
 720              		.loc 1 225 0
 721 002c DA7A     		ldrb	r2, [r3, #11]
 722 002e 8018     		adds	r0, r0, r2
 723 0030 6061     		str	r0, [r4, #20]
 226:main.c        ****                     set_v=set.hv_volt*1000;
 724              		.loc 1 226 0
 725 0032 9A78     		ldrb	r2, [r3, #2]
 726 0034 4A43     		muls	r2, r1
 727 0036 9042     		cmp	r0, r2
 728 0038 02DD     		ble	.L75
 227:main.c        ****                 }
 729              		.loc 1 227 0
 730 003a 9878     		ldrb	r0, [r3, #2]
 731 003c 4843     		muls	r0, r1
 732 003e 6061     		str	r0, [r4, #20]
 733              	.L75:
 229:main.c        ****             
 734              		.loc 1 229 0
 735 0040 FFF7FEFF 		bl	DoVLoop
 736              	.LVL64:
 737 0044 1AE0     		b	.L72
 738              	.L73:
 739              	.LBE98:
 740              	.LBE97:
 235:main.c        ****             set_v = ADC_CountsTo_mVolts(0, ADC_GetResult16(0))*30;
ARM GAS  C:\Users\ilya\AppData\Local\Temp\cccG1ble.s 			page 22


 741              		.loc 1 235 0
 742 0046 0120     		movs	r0, #1
 743 0048 FFF7FEFF 		bl	PWM_CHARGE_WriteCompare
 744              	.LVL65:
 236:main.c        ****             i_term=0;
 745              		.loc 1 236 0
 746 004c 0020     		movs	r0, #0
 747 004e FFF7FEFF 		bl	ADC_GetResult16
 748              	.LVL66:
 749 0052 0100     		movs	r1, r0
 750 0054 0020     		movs	r0, #0
 751 0056 FFF7FEFF 		bl	ADC_CountsTo_mVolts
 752              	.LVL67:
 240:main.c        ****             st_idx++;
 753              		.loc 1 240 0
 754 005a 0125     		movs	r5, #1
 237:main.c        ****             //i_i_term=0;
 755              		.loc 1 237 0
 756 005c 0022     		movs	r2, #0
 236:main.c        ****             i_term=0;
 757              		.loc 1 236 0
 758 005e 0301     		lsls	r3, r0, #4
 759 0060 181A     		subs	r0, r3, r0
 240:main.c        ****             st_idx++;
 760              		.loc 1 240 0
 761 0062 2369     		ldr	r3, [r4, #16]
 236:main.c        ****             i_term=0;
 762              		.loc 1 236 0
 763 0064 4000     		lsls	r0, r0, #1
 240:main.c        ****             st_idx++;
 764              		.loc 1 240 0
 765 0066 0B49     		ldr	r1, .L82+8
 236:main.c        ****             i_term=0;
 766              		.loc 1 236 0
 767 0068 6061     		str	r0, [r4, #20]
 240:main.c        ****             st_idx++;
 768              		.loc 1 240 0
 769 006a 6D42     		rsbs	r5, r5, #0
 770 006c 9800     		lsls	r0, r3, #2
 241:main.c        ****             if (st_idx==STORE_SIZE)
 771              		.loc 1 241 0
 772 006e 0133     		adds	r3, r3, #1
 237:main.c        ****             //i_i_term=0;
 773              		.loc 1 237 0
 774 0070 A260     		str	r2, [r4, #8]
 239:main.c        ****             store[st_idx]=-1;
 775              		.loc 1 239 0
 776 0072 2273     		strb	r2, [r4, #12]
 240:main.c        ****             st_idx++;
 777              		.loc 1 240 0
 778 0074 4550     		str	r5, [r0, r1]
 242:main.c        ****                st_idx=0;
 779              		.loc 1 242 0
 780 0076 642B     		cmp	r3, #100
 781 0078 01D0     		beq	.L77
 241:main.c        ****             if (st_idx==STORE_SIZE)
 782              		.loc 1 241 0
ARM GAS  C:\Users\ilya\AppData\Local\Temp\cccG1ble.s 			page 23


 783 007a 2361     		str	r3, [r4, #16]
 784              	.L72:
 245:main.c        **** 
 785              		.loc 1 245 0
 786              		@ sp needed
 787 007c 70BD     		pop	{r4, r5, r6, pc}
 788              	.L77:
 243:main.c        ****             }
 789              		.loc 1 243 0
 790 007e 2261     		str	r2, [r4, #16]
 245:main.c        **** 
 791              		.loc 1 245 0
 792 0080 FCE7     		b	.L72
 793              	.L81:
 794              	.LBB100:
 795              	.LBB99:
 221:main.c        ****             
 796              		.loc 1 221 0
 797 0082 9878     		ldrb	r0, [r3, #2]
 798 0084 4843     		muls	r0, r1
 799 0086 6061     		str	r0, [r4, #20]
 800 0088 CAE7     		b	.L74
 801              	.L83:
 802 008a C046     		.align	2
 803              	.L82:
 804 008c 00000000 		.word	set
 805 0090 00000000 		.word	.LANCHOR0
 806 0094 00000000 		.word	store
 807              	.LBE99:
 808              	.LBE100:
 809              		.cfi_endproc
 810              	.LFE35:
 811              		.size	HV_Task, .-HV_Task
 812              		.section	.text.GetTrig,"ax",%progbits
 813              		.align	2
 814              		.global	GetTrig
 815              		.code	16
 816              		.thumb_func
 817              		.type	GetTrig, %function
 818              	GetTrig:
 819              	.LFB37:
 261:main.c        ****        if (
 820              		.loc 1 261 0
 821              		.cfi_startproc
 822              		@ args = 0, pretend = 0, frame = 0
 823              		@ frame_needed = 0, uses_anonymous_args = 0
 824 0000 10B5     		push	{r4, lr}
 825              		.cfi_def_cfa_offset 8
 826              		.cfi_offset 4, -8
 827              		.cfi_offset 14, -4
 263:main.c        ****             (set.trig_source&LED_RIGHT && TRIG_RIGHT_Read()) ||
 828              		.loc 1 263 0
 829 0002 0F4C     		ldr	r4, .L99
 830 0004 2379     		ldrb	r3, [r4, #4]
 262:main.c        ****             (set.trig_source&LED_FACE && TRIG_FACE_Read()) ||
 831              		.loc 1 262 0
 832 0006 5B07     		lsls	r3, r3, #29
ARM GAS  C:\Users\ilya\AppData\Local\Temp\cccG1ble.s 			page 24


 833 0008 0DD4     		bmi	.L85
 834              	.L88:
 264:main.c        ****             (set.trig_source&LED_LEFT && TRIG_LEFT_Read())  
 835              		.loc 1 264 0
 836 000a 2379     		ldrb	r3, [r4, #4]
 263:main.c        ****             (set.trig_source&LED_RIGHT && TRIG_RIGHT_Read()) ||
 837              		.loc 1 263 0
 838 000c 9B07     		lsls	r3, r3, #30
 839 000e 10D4     		bmi	.L97
 840              	.L87:
 841 0010 0120     		movs	r0, #1
 265:main.c        ****           )
 842              		.loc 1 265 0
 843 0012 2379     		ldrb	r3, [r4, #4]
 844 0014 1840     		ands	r0, r3
 264:main.c        ****             (set.trig_source&LED_LEFT && TRIG_LEFT_Read())  
 845              		.loc 1 264 0
 846 0016 00D1     		bne	.L98
 847              	.L89:
 270:main.c        **** 
 848              		.loc 1 270 0
 849              		@ sp needed
 850 0018 10BD     		pop	{r4, pc}
 851              	.L98:
 852              	.LBB103:
 853              	.LBB104:
 265:main.c        ****           )
 854              		.loc 1 265 0
 855 001a FFF7FEFF 		bl	TRIG_LEFT_Read
 856              	.LVL68:
 857              	.LBE104:
 858              	.LBE103:
 267:main.c        ****     else
 859              		.loc 1 267 0
 860 001e 431E     		subs	r3, r0, #1
 861 0020 9841     		sbcs	r0, r0, r3
 862 0022 C0B2     		uxtb	r0, r0
 863 0024 F8E7     		b	.L89
 864              	.L85:
 263:main.c        ****             (set.trig_source&LED_RIGHT && TRIG_RIGHT_Read()) ||
 865              		.loc 1 263 0
 866 0026 FFF7FEFF 		bl	TRIG_FACE_Read
 867              	.LVL69:
 868 002a 0028     		cmp	r0, #0
 869 002c EDD0     		beq	.L88
 267:main.c        ****     else
 870              		.loc 1 267 0
 871 002e 0120     		movs	r0, #1
 872 0030 F2E7     		b	.L89
 873              	.L97:
 264:main.c        ****             (set.trig_source&LED_LEFT && TRIG_LEFT_Read())  
 874              		.loc 1 264 0
 875 0032 FFF7FEFF 		bl	TRIG_RIGHT_Read
 876              	.LVL70:
 877 0036 0028     		cmp	r0, #0
 878 0038 EAD0     		beq	.L87
 267:main.c        ****     else
ARM GAS  C:\Users\ilya\AppData\Local\Temp\cccG1ble.s 			page 25


 879              		.loc 1 267 0
 880 003a 0120     		movs	r0, #1
 881 003c ECE7     		b	.L89
 882              	.L100:
 883 003e C046     		.align	2
 884              	.L99:
 885 0040 00000000 		.word	set
 886              		.cfi_endproc
 887              	.LFE37:
 888              		.size	GetTrig, .-GetTrig
 889              		.section	.text.DriveLeft,"ax",%progbits
 890              		.align	2
 891              		.global	DriveLeft
 892              		.code	16
 893              		.thumb_func
 894              		.type	DriveLeft, %function
 895              	DriveLeft:
 896              	.LFB38:
 274:main.c        ****     if (on)
 897              		.loc 1 274 0
 898              		.cfi_startproc
 899              		@ args = 0, pretend = 0, frame = 0
 900              		@ frame_needed = 0, uses_anonymous_args = 0
 901              	.LVL71:
 902 0000 10B5     		push	{r4, lr}
 903              		.cfi_def_cfa_offset 8
 904              		.cfi_offset 4, -8
 905              		.cfi_offset 14, -4
 275:main.c        ****       {
 906              		.loc 1 275 0
 907 0002 0028     		cmp	r0, #0
 908 0004 05D1     		bne	.L104
 282:main.c        ****       Opamp_1_Stop();
 909              		.loc 1 282 0
 910 0006 0620     		movs	r0, #6
 911              	.LVL72:
 912 0008 FFF7FEFF 		bl	VREF_A_SetDriveMode
 913              	.LVL73:
 283:main.c        ****     }
 914              		.loc 1 283 0
 915 000c FFF7FEFF 		bl	Opamp_1_Stop
 916              	.LVL74:
 917              	.L101:
 285:main.c        **** void DriveRight(uint8 on)
 918              		.loc 1 285 0
 919              		@ sp needed
 920 0010 10BD     		pop	{r4, pc}
 921              	.LVL75:
 922              	.L104:
 923              	.LBB107:
 924              	.LBB108:
 277:main.c        ****       Opamp_1_Start();
 925              		.loc 1 277 0
 926 0012 0020     		movs	r0, #0
 927              	.LVL76:
 928 0014 FFF7FEFF 		bl	VREF_A_SetDriveMode
 929              	.LVL77:
ARM GAS  C:\Users\ilya\AppData\Local\Temp\cccG1ble.s 			page 26


 278:main.c        ****      }
 930              		.loc 1 278 0
 931 0018 FFF7FEFF 		bl	Opamp_1_Start
 932              	.LVL78:
 933 001c F8E7     		b	.L101
 934              	.LBE108:
 935              	.LBE107:
 936              		.cfi_endproc
 937              	.LFE38:
 938              		.size	DriveLeft, .-DriveLeft
 939 001e C046     		.section	.text.DriveRight,"ax",%progbits
 940              		.align	2
 941              		.global	DriveRight
 942              		.code	16
 943              		.thumb_func
 944              		.type	DriveRight, %function
 945              	DriveRight:
 946              	.LFB39:
 287:main.c        ****     if (on)
 947              		.loc 1 287 0
 948              		.cfi_startproc
 949              		@ args = 0, pretend = 0, frame = 0
 950              		@ frame_needed = 0, uses_anonymous_args = 0
 951              	.LVL79:
 952 0000 10B5     		push	{r4, lr}
 953              		.cfi_def_cfa_offset 8
 954              		.cfi_offset 4, -8
 955              		.cfi_offset 14, -4
 288:main.c        ****       {
 956              		.loc 1 288 0
 957 0002 0028     		cmp	r0, #0
 958 0004 05D1     		bne	.L108
 295:main.c        ****       Opamp_2_Stop();
 959              		.loc 1 295 0
 960 0006 0620     		movs	r0, #6
 961              	.LVL80:
 962 0008 FFF7FEFF 		bl	VREF_B_SetDriveMode
 963              	.LVL81:
 296:main.c        ****     }
 964              		.loc 1 296 0
 965 000c FFF7FEFF 		bl	Opamp_2_Stop
 966              	.LVL82:
 967              	.L105:
 298:main.c        **** void DriveFace(uint8 on)
 968              		.loc 1 298 0
 969              		@ sp needed
 970 0010 10BD     		pop	{r4, pc}
 971              	.LVL83:
 972              	.L108:
 973              	.LBB111:
 974              	.LBB112:
 290:main.c        ****       Opamp_2_Start();
 975              		.loc 1 290 0
 976 0012 0020     		movs	r0, #0
 977              	.LVL84:
 978 0014 FFF7FEFF 		bl	VREF_B_SetDriveMode
 979              	.LVL85:
ARM GAS  C:\Users\ilya\AppData\Local\Temp\cccG1ble.s 			page 27


 291:main.c        ****      }
 980              		.loc 1 291 0
 981 0018 FFF7FEFF 		bl	Opamp_2_Start
 982              	.LVL86:
 983 001c F8E7     		b	.L105
 984              	.LBE112:
 985              	.LBE111:
 986              		.cfi_endproc
 987              	.LFE39:
 988              		.size	DriveRight, .-DriveRight
 989 001e C046     		.section	.text.DriveFace,"ax",%progbits
 990              		.align	2
 991              		.global	DriveFace
 992              		.code	16
 993              		.thumb_func
 994              		.type	DriveFace, %function
 995              	DriveFace:
 996              	.LFB40:
 300:main.c        ****     if (on)
 997              		.loc 1 300 0
 998              		.cfi_startproc
 999              		@ args = 0, pretend = 0, frame = 0
 1000              		@ frame_needed = 0, uses_anonymous_args = 0
 1001              	.LVL87:
 1002 0000 10B5     		push	{r4, lr}
 1003              		.cfi_def_cfa_offset 8
 1004              		.cfi_offset 4, -8
 1005              		.cfi_offset 14, -4
 301:main.c        ****       {
 1006              		.loc 1 301 0
 1007 0002 0028     		cmp	r0, #0
 1008 0004 08D1     		bne	.L112
 309:main.c        ****       Opamp_FACE_Stop();
 1009              		.loc 1 309 0
 1010 0006 0620     		movs	r0, #6
 1011              	.LVL88:
 1012 0008 FFF7FEFF 		bl	VREF_C_SetDriveMode
 1013              	.LVL89:
 310:main.c        ****       EN_C_Write(1);
 1014              		.loc 1 310 0
 1015 000c FFF7FEFF 		bl	Opamp_FACE_Stop
 1016              	.LVL90:
 311:main.c        ****     }
 1017              		.loc 1 311 0
 1018 0010 0120     		movs	r0, #1
 1019 0012 FFF7FEFF 		bl	EN_C_Write
 1020              	.LVL91:
 1021              	.L109:
 313:main.c        **** 
 1022              		.loc 1 313 0
 1023              		@ sp needed
 1024 0016 10BD     		pop	{r4, pc}
 1025              	.LVL92:
 1026              	.L112:
 1027              	.LBB115:
 1028              	.LBB116:
 303:main.c        ****       VREF_C_SetDriveMode(VREF_C_DM_ALG_HIZ);
ARM GAS  C:\Users\ilya\AppData\Local\Temp\cccG1ble.s 			page 28


 1029              		.loc 1 303 0
 1030 0018 0020     		movs	r0, #0
 1031              	.LVL93:
 1032 001a FFF7FEFF 		bl	EN_C_Write
 1033              	.LVL94:
 304:main.c        ****       Opamp_FACE_Start();
 1034              		.loc 1 304 0
 1035 001e 0020     		movs	r0, #0
 1036 0020 FFF7FEFF 		bl	VREF_C_SetDriveMode
 1037              	.LVL95:
 305:main.c        ****      }
 1038              		.loc 1 305 0
 1039 0024 FFF7FEFF 		bl	Opamp_FACE_Start
 1040              	.LVL96:
 1041 0028 F5E7     		b	.L109
 1042              	.LBE116:
 1043              	.LBE115:
 1044              		.cfi_endproc
 1045              	.LFE40:
 1046              		.size	DriveFace, .-DriveFace
 1047 002a C046     		.section	.text.TrigTask,"ax",%progbits
 1048              		.align	2
 1049              		.global	TrigTask
 1050              		.code	16
 1051              		.thumb_func
 1052              		.type	TrigTask, %function
 1053              	TrigTask:
 1054              	.LFB41:
 317:main.c        ****     int x;
 1055              		.loc 1 317 0
 1056              		.cfi_startproc
 1057              		@ args = 0, pretend = 0, frame = 0
 1058              		@ frame_needed = 0, uses_anonymous_args = 0
 1059 0000 10B5     		push	{r4, lr}
 1060              		.cfi_def_cfa_offset 8
 1061              		.cfi_offset 4, -8
 1062              		.cfi_offset 14, -4
 1063              	.LBB121:
 1064              	.LBB122:
 263:main.c        ****             (set.trig_source&LED_RIGHT && TRIG_RIGHT_Read()) ||
 1065              		.loc 1 263 0
 1066 0002 104C     		ldr	r4, .L127
 1067 0004 2379     		ldrb	r3, [r4, #4]
 262:main.c        ****             (set.trig_source&LED_FACE && TRIG_FACE_Read()) ||
 1068              		.loc 1 262 0
 1069 0006 5B07     		lsls	r3, r3, #29
 1070 0008 0DD4     		bmi	.L114
 264:main.c        ****             (set.trig_source&LED_LEFT && TRIG_LEFT_Read())  
 1071              		.loc 1 264 0
 1072 000a 2379     		ldrb	r3, [r4, #4]
 263:main.c        ****             (set.trig_source&LED_RIGHT && TRIG_RIGHT_Read()) ||
 1073              		.loc 1 263 0
 1074 000c 9B07     		lsls	r3, r3, #30
 1075 000e 11D4     		bmi	.L125
 1076              	.L116:
 265:main.c        ****           )
 1077              		.loc 1 265 0
ARM GAS  C:\Users\ilya\AppData\Local\Temp\cccG1ble.s 			page 29


 1078 0010 2379     		ldrb	r3, [r4, #4]
 264:main.c        ****             (set.trig_source&LED_LEFT && TRIG_LEFT_Read())  
 1079              		.loc 1 264 0
 1080 0012 DB07     		lsls	r3, r3, #31
 1081 0014 00D4     		bmi	.L126
 1082              	.L113:
 1083              	.LBE122:
 1084              	.LBE121:
 1085              		.loc 1 348 0
 1086              		@ sp needed
 1087 0016 10BD     		pop	{r4, pc}
 1088              	.L126:
 1089              	.LBB127:
 1090              	.LBB125:
 1091              	.LBB123:
 1092              	.LBB124:
 265:main.c        ****           )
 1093              		.loc 1 265 0
 1094 0018 FFF7FEFF 		bl	TRIG_LEFT_Read
 1095              	.LVL97:
 1096 001c 0028     		cmp	r0, #0
 1097 001e FAD0     		beq	.L113
 1098              	.L117:
 1099              	.LBE124:
 1100              	.LBE123:
 1101              	.LBE125:
 1102              	.LBE127:
 1103 0020 FFF7FEFF 		bl	TrigTask.part.5
 1104              	.LVL98:
 1105 0024 F7E7     		b	.L113
 1106              	.L114:
 1107              	.LBB128:
 1108              	.LBB126:
 263:main.c        ****             (set.trig_source&LED_RIGHT && TRIG_RIGHT_Read()) ||
 1109              		.loc 1 263 0
 1110 0026 FFF7FEFF 		bl	TRIG_FACE_Read
 1111              	.LVL99:
 1112 002a 0028     		cmp	r0, #0
 1113 002c F8D1     		bne	.L117
 264:main.c        ****             (set.trig_source&LED_LEFT && TRIG_LEFT_Read())  
 1114              		.loc 1 264 0
 1115 002e 2379     		ldrb	r3, [r4, #4]
 263:main.c        ****             (set.trig_source&LED_RIGHT && TRIG_RIGHT_Read()) ||
 1116              		.loc 1 263 0
 1117 0030 9B07     		lsls	r3, r3, #30
 1118 0032 EDD5     		bpl	.L116
 1119              	.L125:
 264:main.c        ****             (set.trig_source&LED_LEFT && TRIG_LEFT_Read())  
 1120              		.loc 1 264 0
 1121 0034 FFF7FEFF 		bl	TRIG_RIGHT_Read
 1122              	.LVL100:
 1123 0038 0028     		cmp	r0, #0
 1124 003a E9D0     		beq	.L116
 1125              	.LBE126:
 1126              	.LBE128:
 1127 003c FFF7FEFF 		bl	TrigTask.part.5
 1128              	.LVL101:
ARM GAS  C:\Users\ilya\AppData\Local\Temp\cccG1ble.s 			page 30


 1129 0040 E9E7     		b	.L113
 1130              	.L128:
 1131 0042 C046     		.align	2
 1132              	.L127:
 1133 0044 00000000 		.word	set
 1134              		.cfi_endproc
 1135              	.LFE41:
 1136              		.size	TrigTask, .-TrigTask
 1137              		.section	.text.trigger_ISR,"ax",%progbits
 1138              		.align	2
 1139              		.global	trigger_ISR
 1140              		.code	16
 1141              		.thumb_func
 1142              		.type	trigger_ISR, %function
 1143              	trigger_ISR:
 1144              	.LFB42:
 349:main.c        **** 
 350:main.c        **** void trigger_ISR(void)
 351:main.c        **** {
 1145              		.loc 1 351 0
 1146              		.cfi_startproc
 1147              		@ args = 0, pretend = 0, frame = 0
 1148              		@ frame_needed = 0, uses_anonymous_args = 0
 1149 0000 10B5     		push	{r4, lr}
 1150              		.cfi_def_cfa_offset 8
 1151              		.cfi_offset 4, -8
 1152              		.cfi_offset 14, -4
 1153              	.LBB135:
 1154              	.LBB136:
 1155              	.LBB137:
 1156              	.LBB138:
 263:main.c        ****             (set.trig_source&LED_RIGHT && TRIG_RIGHT_Read()) ||
 1157              		.loc 1 263 0
 1158 0002 104C     		ldr	r4, .L143
 1159 0004 2379     		ldrb	r3, [r4, #4]
 262:main.c        ****             (set.trig_source&LED_FACE && TRIG_FACE_Read()) ||
 1160              		.loc 1 262 0
 1161 0006 5B07     		lsls	r3, r3, #29
 1162 0008 0DD4     		bmi	.L130
 264:main.c        ****             (set.trig_source&LED_LEFT && TRIG_LEFT_Read())  
 1163              		.loc 1 264 0
 1164 000a 2379     		ldrb	r3, [r4, #4]
 263:main.c        ****             (set.trig_source&LED_RIGHT && TRIG_RIGHT_Read()) ||
 1165              		.loc 1 263 0
 1166 000c 9B07     		lsls	r3, r3, #30
 1167 000e 11D4     		bmi	.L141
 1168              	.L132:
 265:main.c        ****           )
 1169              		.loc 1 265 0
 1170 0010 2379     		ldrb	r3, [r4, #4]
 264:main.c        ****             (set.trig_source&LED_LEFT && TRIG_LEFT_Read())  
 1171              		.loc 1 264 0
 1172 0012 DB07     		lsls	r3, r3, #31
 1173 0014 00D4     		bmi	.L142
 1174              	.L129:
 1175              	.LBE138:
 1176              	.LBE137:
ARM GAS  C:\Users\ilya\AppData\Local\Temp\cccG1ble.s 			page 31


 1177              	.LBE136:
 1178              	.LBE135:
 352:main.c        ****     TrigTask();
 353:main.c        **** }
 1179              		.loc 1 353 0
 1180              		@ sp needed
 1181 0016 10BD     		pop	{r4, pc}
 1182              	.L142:
 1183              	.LBB146:
 1184              	.LBB145:
 1185              	.LBB143:
 1186              	.LBB141:
 1187              	.LBB139:
 1188              	.LBB140:
 265:main.c        ****           )
 1189              		.loc 1 265 0
 1190 0018 FFF7FEFF 		bl	TRIG_LEFT_Read
 1191              	.LVL102:
 1192 001c 0028     		cmp	r0, #0
 1193 001e FAD0     		beq	.L129
 1194              	.L133:
 1195              	.LBE140:
 1196              	.LBE139:
 1197              	.LBE141:
 1198              	.LBE143:
 1199 0020 FFF7FEFF 		bl	TrigTask.part.5
 1200              	.LVL103:
 1201 0024 F7E7     		b	.L129
 1202              	.L130:
 1203              	.LBB144:
 1204              	.LBB142:
 263:main.c        ****             (set.trig_source&LED_RIGHT && TRIG_RIGHT_Read()) ||
 1205              		.loc 1 263 0
 1206 0026 FFF7FEFF 		bl	TRIG_FACE_Read
 1207              	.LVL104:
 1208 002a 0028     		cmp	r0, #0
 1209 002c F8D1     		bne	.L133
 264:main.c        ****             (set.trig_source&LED_LEFT && TRIG_LEFT_Read())  
 1210              		.loc 1 264 0
 1211 002e 2379     		ldrb	r3, [r4, #4]
 263:main.c        ****             (set.trig_source&LED_RIGHT && TRIG_RIGHT_Read()) ||
 1212              		.loc 1 263 0
 1213 0030 9B07     		lsls	r3, r3, #30
 1214 0032 EDD5     		bpl	.L132
 1215              	.L141:
 264:main.c        ****             (set.trig_source&LED_LEFT && TRIG_LEFT_Read())  
 1216              		.loc 1 264 0
 1217 0034 FFF7FEFF 		bl	TRIG_RIGHT_Read
 1218              	.LVL105:
 1219 0038 0028     		cmp	r0, #0
 1220 003a E9D0     		beq	.L132
 1221              	.LBE142:
 1222              	.LBE144:
 1223 003c FFF7FEFF 		bl	TrigTask.part.5
 1224              	.LVL106:
 1225 0040 E9E7     		b	.L129
 1226              	.L144:
ARM GAS  C:\Users\ilya\AppData\Local\Temp\cccG1ble.s 			page 32


 1227 0042 C046     		.align	2
 1228              	.L143:
 1229 0044 00000000 		.word	set
 1230              	.LBE145:
 1231              	.LBE146:
 1232              		.cfi_endproc
 1233              	.LFE42:
 1234              		.size	trigger_ISR, .-trigger_ISR
 1235              		.section	.text.DoHWVersionDetect,"ax",%progbits
 1236              		.align	2
 1237              		.global	DoHWVersionDetect
 1238              		.code	16
 1239              		.thumb_func
 1240              		.type	DoHWVersionDetect, %function
 1241              	DoHWVersionDetect:
 1242              	.LFB43:
 354:main.c        **** 
 355:main.c        **** 
 356:main.c        **** void DoHWVersionDetect(void)
 357:main.c        **** {
 1243              		.loc 1 357 0
 1244              		.cfi_startproc
 1245              		@ args = 0, pretend = 0, frame = 0
 1246              		@ frame_needed = 0, uses_anonymous_args = 0
 1247 0000 10B5     		push	{r4, lr}
 1248              		.cfi_def_cfa_offset 8
 1249              		.cfi_offset 4, -8
 1250              		.cfi_offset 14, -4
 358:main.c        ****     IFB_SetDriveMode(IFB_DM_STRONG);
 1251              		.loc 1 358 0
 1252 0002 0620     		movs	r0, #6
 1253 0004 FFF7FEFF 		bl	IFB_SetDriveMode
 1254              	.LVL107:
 359:main.c        ****     IFB_Write(1);
 1255              		.loc 1 359 0
 1256 0008 0120     		movs	r0, #1
 1257 000a FFF7FEFF 		bl	IFB_Write
 1258              	.LVL108:
 360:main.c        ****     CyDelayUs(1);
 1259              		.loc 1 360 0
 1260 000e 0120     		movs	r0, #1
 1261 0010 FFF7FEFF 		bl	CyDelayUs
 1262              	.LVL109:
 361:main.c        ****     if (IFB_Read())
 1263              		.loc 1 361 0
 1264 0014 FFF7FEFF 		bl	IFB_Read
 1265              	.LVL110:
 1266 0018 0028     		cmp	r0, #0
 1267 001a 09D1     		bne	.L148
 362:main.c        ****     {
 363:main.c        ****         g_HWVersion=HW_V1;
 364:main.c        ****         IFB_Write(0);
 365:main.c        ****         IFB_SetDriveMode(IFB_DM_STRONG);
 366:main.c        ****         MAX_I_SetDriveMode(MAX_I_DM_STRONG);
 367:main.c        ****         MAX_I_Write(1);
 368:main.c        ****         }
 369:main.c        ****     else
ARM GAS  C:\Users\ilya\AppData\Local\Temp\cccG1ble.s 			page 33


 370:main.c        ****         {
 371:main.c        ****          g_HWVersion=HW_V2;
 1268              		.loc 1 371 0
 1269 001c 0222     		movs	r2, #2
 1270 001e 0C4B     		ldr	r3, .L149
 372:main.c        ****          IFB_Write(0);
 1271              		.loc 1 372 0
 1272 0020 0020     		movs	r0, #0
 371:main.c        ****          IFB_Write(0);
 1273              		.loc 1 371 0
 1274 0022 5A73     		strb	r2, [r3, #13]
 1275              		.loc 1 372 0
 1276 0024 FFF7FEFF 		bl	IFB_Write
 1277              	.LVL111:
 373:main.c        ****          IFB_SetDriveMode(IFB_DM_ALG_HIZ);
 1278              		.loc 1 373 0
 1279 0028 0020     		movs	r0, #0
 1280 002a FFF7FEFF 		bl	IFB_SetDriveMode
 1281              	.LVL112:
 1282              	.L145:
 374:main.c        ****         }
 375:main.c        **** }
 1283              		.loc 1 375 0
 1284              		@ sp needed
 1285 002e 10BD     		pop	{r4, pc}
 1286              	.L148:
 1287              	.LBB149:
 1288              	.LBB150:
 363:main.c        ****         IFB_Write(0);
 1289              		.loc 1 363 0
 1290 0030 0122     		movs	r2, #1
 1291 0032 074B     		ldr	r3, .L149
 364:main.c        ****         IFB_SetDriveMode(IFB_DM_STRONG);
 1292              		.loc 1 364 0
 1293 0034 0020     		movs	r0, #0
 363:main.c        ****         IFB_Write(0);
 1294              		.loc 1 363 0
 1295 0036 5A73     		strb	r2, [r3, #13]
 364:main.c        ****         IFB_SetDriveMode(IFB_DM_STRONG);
 1296              		.loc 1 364 0
 1297 0038 FFF7FEFF 		bl	IFB_Write
 1298              	.LVL113:
 365:main.c        ****         MAX_I_SetDriveMode(MAX_I_DM_STRONG);
 1299              		.loc 1 365 0
 1300 003c 0620     		movs	r0, #6
 1301 003e FFF7FEFF 		bl	IFB_SetDriveMode
 1302              	.LVL114:
 366:main.c        ****         MAX_I_Write(1);
 1303              		.loc 1 366 0
 1304 0042 0620     		movs	r0, #6
 1305 0044 FFF7FEFF 		bl	MAX_I_SetDriveMode
 1306              	.LVL115:
 367:main.c        ****         }
 1307              		.loc 1 367 0
 1308 0048 0120     		movs	r0, #1
 1309 004a FFF7FEFF 		bl	MAX_I_Write
 1310              	.LVL116:
ARM GAS  C:\Users\ilya\AppData\Local\Temp\cccG1ble.s 			page 34


 1311 004e EEE7     		b	.L145
 1312              	.L150:
 1313              		.align	2
 1314              	.L149:
 1315 0050 00000000 		.word	.LANCHOR0
 1316              	.LBE150:
 1317              	.LBE149:
 1318              		.cfi_endproc
 1319              	.LFE43:
 1320              		.size	DoHWVersionDetect, .-DoHWVersionDetect
 1321              		.section	.text.startup.main,"ax",%progbits
 1322              		.align	2
 1323              		.global	main
 1324              		.code	16
 1325              		.thumb_func
 1326              		.type	main, %function
 1327              	main:
 1328              	.LFB44:
 376:main.c        **** 
 377:main.c        **** 
 378:main.c        **** #define VERSION 0
 379:main.c        **** #define PSOC_ACTION_REBOOT  11
 380:main.c        **** int main()
 381:main.c        **** {
 1329              		.loc 1 381 0
 1330              		.cfi_startproc
 1331              		@ args = 0, pretend = 0, frame = 0
 1332              		@ frame_needed = 0, uses_anonymous_args = 0
 1333 0000 F8B5     		push	{r3, r4, r5, r6, r7, lr}
 1334              		.cfi_def_cfa_offset 24
 1335              		.cfi_offset 3, -24
 1336              		.cfi_offset 4, -20
 1337              		.cfi_offset 5, -16
 1338              		.cfi_offset 6, -12
 1339              		.cfi_offset 7, -8
 1340              		.cfi_offset 14, -4
 1341 0002 4F46     		mov	r7, r9
 1342 0004 4646     		mov	r6, r8
 1343 0006 C0B4     		push	{r6, r7}
 1344              		.cfi_def_cfa_offset 32
 1345              		.cfi_offset 8, -32
 1346              		.cfi_offset 9, -28
 382:main.c        ****     CyGlobalIntEnable; /* Enable global interrupts. */
 1347              		.loc 1 382 0
 1348              		.syntax divided
 1349              	@ 382 "main.c" 1
 1350 0008 62B6     		CPSIE   i
 1351              	@ 0 "" 2
 1352              	.LVL117:
 383:main.c        ****     int x;
 384:main.c        ****     int16 val;
 385:main.c        ****     int v;
 386:main.c        ****     int err;
 387:main.c        ****     int i_term=0;
 388:main.c        ****     int set_val;
 389:main.c        ****     int z;
 390:main.c        ****     
ARM GAS  C:\Users\ilya\AppData\Local\Temp\cccG1ble.s 			page 35


 391:main.c        ****     
 392:main.c        ****     PWM_CHARGE_Start();
 1353              		.loc 1 392 0
 1354              		.thumb
 1355              		.syntax unified
 1356 000a FFF7FEFF 		bl	PWM_CHARGE_Start
 1357              	.LVL118:
 393:main.c        ****     IDAC_1_Start();
 1358              		.loc 1 393 0
 1359 000e FFF7FEFF 		bl	IDAC_1_Start
 1360              	.LVL119:
 394:main.c        ****      IDAC_2_Start();
 1361              		.loc 1 394 0
 1362 0012 FFF7FEFF 		bl	IDAC_2_Start
 1363              	.LVL120:
 395:main.c        ****    DoHWVersionDetect();
 1364              		.loc 1 395 0
 1365 0016 FFF7FEFF 		bl	DoHWVersionDetect
 1366              	.LVL121:
 396:main.c        **** 
 397:main.c        ****     ADC_Start();
 1367              		.loc 1 397 0
 1368 001a FFF7FEFF 		bl	ADC_Start
 1369              	.LVL122:
 398:main.c        ****     ADC_StartConvert();
 1370              		.loc 1 398 0
 1371 001e FFF7FEFF 		bl	ADC_StartConvert
 1372              	.LVL123:
 399:main.c        ****     z = DAC_I(4.0);
 400:main.c        ****     
 401:main.c        ****      
 402:main.c        ****     // initial settings
 403:main.c        ****     
 404:main.c        ****     set.hwDetect=g_HWVersion;
 1373              		.loc 1 404 0
 1374 0022 5A4D     		ldr	r5, .L168
 1375 0024 5A4C     		ldr	r4, .L168+4
 1376 0026 6B7B     		ldrb	r3, [r5, #13]
 405:main.c        ****     set.hv_enable=0;
 1377              		.loc 1 405 0
 1378 0028 0022     		movs	r2, #0
 404:main.c        ****     set.hv_enable=0;
 1379              		.loc 1 404 0
 1380 002a 2373     		strb	r3, [r4, #12]
 406:main.c        ****     set.hv_volt=16;
 1381              		.loc 1 406 0
 1382 002c 1023     		movs	r3, #16
 407:main.c        ****     set.max_time=5;
 408:main.c        ****     set.led_enable=LED_LEFT;
 409:main.c        ****     set.trig_source=LED_LEFT;
 410:main.c        ****     set.i_set=4;
 1383              		.loc 1 410 0
 1384 002e 0421     		movs	r1, #4
 405:main.c        ****     set.hv_volt=16;
 1385              		.loc 1 405 0
 1386 0030 6270     		strb	r2, [r4, #1]
 406:main.c        ****     set.hv_volt=16;
ARM GAS  C:\Users\ilya\AppData\Local\Temp\cccG1ble.s 			page 36


 1387              		.loc 1 406 0
 1388 0032 A370     		strb	r3, [r4, #2]
 407:main.c        ****     set.max_time=5;
 1389              		.loc 1 407 0
 1390 0034 0B3B     		subs	r3, r3, #11
 1391 0036 A371     		strb	r3, [r4, #6]
 408:main.c        ****     set.trig_source=LED_LEFT;
 1392              		.loc 1 408 0
 1393 0038 043B     		subs	r3, r3, #4
 1394 003a E370     		strb	r3, [r4, #3]
 409:main.c        ****     set.i_set=4;
 1395              		.loc 1 409 0
 1396 003c 2371     		strb	r3, [r4, #4]
 1397              		.loc 1 410 0
 1398 003e 6171     		strb	r1, [r4, #5]
 411:main.c        ****     if (set.hwDetect=HW_V1)
 1399              		.loc 1 411 0
 1400 0040 2373     		strb	r3, [r4, #12]
 412:main.c        ****         set.max_duty=MAX_DUTY;
 1401              		.loc 1 412 0
 1402 0042 4F33     		adds	r3, r3, #79
 1403 0044 6372     		strb	r3, [r4, #9]
 413:main.c        ****     else
 414:main.c        ****         set.max_duty=MAX_DUTY_V2;
 415:main.c        ****     
 416:main.c        ****     set.version=VERSION;
 417:main.c        ****     set.dvdt=100;
 1404              		.loc 1 417 0
 1405 0046 1433     		adds	r3, r3, #20
 416:main.c        ****     set.dvdt=100;
 1406              		.loc 1 416 0
 1407 0048 A272     		strb	r2, [r4, #10]
 1408              		.loc 1 417 0
 1409 004a E372     		strb	r3, [r4, #11]
 1410              	.LVL124:
 418:main.c        ****     z=10;
 419:main.c        ****     Opamp_1_Start();
 1411              		.loc 1 419 0
 1412 004c FFF7FEFF 		bl	Opamp_1_Start
 1413              	.LVL125:
 420:main.c        ****     IDAC_1_SetValue(200);
 1414              		.loc 1 420 0
 1415 0050 C820     		movs	r0, #200
 1416 0052 FFF7FEFF 		bl	IDAC_1_SetValue
 1417              	.LVL126:
 421:main.c        ****     
 422:main.c        ****     VREF_A_SetDriveMode(VREF_A_DM_STRONG);
 1418              		.loc 1 422 0
 1419 0056 0620     		movs	r0, #6
 1420 0058 FFF7FEFF 		bl	VREF_A_SetDriveMode
 1421              	.LVL127:
 423:main.c        ****     VREF_B_SetDriveMode(VREF_B_DM_STRONG);
 1422              		.loc 1 423 0
 1423 005c 0620     		movs	r0, #6
 1424 005e FFF7FEFF 		bl	VREF_B_SetDriveMode
 1425              	.LVL128:
 424:main.c        ****     z=DAC_I(4);
ARM GAS  C:\Users\ilya\AppData\Local\Temp\cccG1ble.s 			page 37


 425:main.c        ****     IDAC_1_SetValue(z);
 1426              		.loc 1 425 0
 1427 0062 1020     		movs	r0, #16
 1428 0064 FFF7FEFF 		bl	IDAC_1_SetValue
 1429              	.LVL129:
 426:main.c        ****     IDAC_2_SetValue(z);
 1430              		.loc 1 426 0
 1431 0068 1020     		movs	r0, #16
 1432 006a FFF7FEFF 		bl	IDAC_2_SetValue
 1433              	.LVL130:
 427:main.c        ****     Comp_1_Start();
 1434              		.loc 1 427 0
 1435 006e FFF7FEFF 		bl	Comp_1_Start
 1436              	.LVL131:
 1437              	.LBB161:
 1438              	.LBB162:
 282:main.c        ****       Opamp_1_Stop();
 1439              		.loc 1 282 0
 1440 0072 0620     		movs	r0, #6
 1441 0074 FFF7FEFF 		bl	VREF_A_SetDriveMode
 1442              	.LVL132:
 283:main.c        ****     }
 1443              		.loc 1 283 0
 1444 0078 FFF7FEFF 		bl	Opamp_1_Stop
 1445              	.LVL133:
 1446              	.LBE162:
 1447              	.LBE161:
 1448              	.LBB163:
 1449              	.LBB164:
 295:main.c        ****       Opamp_2_Stop();
 1450              		.loc 1 295 0
 1451 007c 0620     		movs	r0, #6
 1452 007e FFF7FEFF 		bl	VREF_B_SetDriveMode
 1453              	.LVL134:
 296:main.c        ****     }
 1454              		.loc 1 296 0
 1455 0082 FFF7FEFF 		bl	Opamp_2_Stop
 1456              	.LVL135:
 1457              	.LBE164:
 1458              	.LBE163:
 1459              	.LBB165:
 1460              	.LBB166:
 309:main.c        ****       Opamp_FACE_Stop();
 1461              		.loc 1 309 0
 1462 0086 0620     		movs	r0, #6
 1463 0088 FFF7FEFF 		bl	VREF_C_SetDriveMode
 1464              	.LVL136:
 310:main.c        ****       EN_C_Write(1);
 1465              		.loc 1 310 0
 1466 008c FFF7FEFF 		bl	Opamp_FACE_Stop
 1467              	.LVL137:
 311:main.c        ****     }
 1468              		.loc 1 311 0
 1469 0090 0120     		movs	r0, #1
 1470 0092 FFF7FEFF 		bl	EN_C_Write
 1471              	.LVL138:
 1472              	.LBE166:
ARM GAS  C:\Users\ilya\AppData\Local\Temp\cccG1ble.s 			page 38


 1473              	.LBE165:
 428:main.c        ****   
 429:main.c        **** 
 430:main.c        ****     
 431:main.c        ****     /* Place your initialization/startup code here (e.g. MyInst_Start()) */
 432:main.c        ****     DriveLeft(0);
 433:main.c        ****     DriveRight(0);
 434:main.c        ****     DriveFace(0);
 435:main.c        ****     ADC_Start();
 1474              		.loc 1 435 0
 1475 0096 FFF7FEFF 		bl	ADC_Start
 1476              	.LVL139:
 436:main.c        ****     TIMER_Start();
 1477              		.loc 1 436 0
 1478 009a FFF7FEFF 		bl	TIMER_Start
 1479              	.LVL140:
 437:main.c        ****     isr_TIMER_Start();
 1480              		.loc 1 437 0
 1481 009e FFF7FEFF 		bl	isr_TIMER_Start
 1482              	.LVL141:
 438:main.c        ****     isr_TIMER_SetVector(isr_MYTIMER_Interrupt);
 1483              		.loc 1 438 0
 1484 00a2 3C48     		ldr	r0, .L168+8
 1485 00a4 FFF7FEFF 		bl	isr_TIMER_SetVector
 1486              	.LVL142:
 1487 00a8 0A23     		movs	r3, #10
 439:main.c        ****     
 440:main.c        ****     for (z=0;z< 32;z++)
 1488              		.loc 1 440 0
 1489 00aa 0022     		movs	r2, #0
 1490 00ac 3A49     		ldr	r1, .L168+12
 1491              	.LVL143:
 1492              	.L152:
 441:main.c        ****      comBuff[z]=z*2+10;
 1493              		.loc 1 441 0 discriminator 3
 1494 00ae 8B54     		strb	r3, [r1, r2]
 1495 00b0 0233     		adds	r3, r3, #2
 440:main.c        ****      comBuff[z]=z*2+10;
 1496              		.loc 1 440 0 discriminator 3
 1497 00b2 0132     		adds	r2, r2, #1
 1498              	.LVL144:
 1499 00b4 DBB2     		uxtb	r3, r3
 1500 00b6 202A     		cmp	r2, #32
 1501 00b8 F9D1     		bne	.L152
 442:main.c        ****     
 443:main.c        ****     //EZI2C_EzI2CSetBuffer1(32, 16, &set.action);
 444:main.c        ****     //EZI2C_Start();
 445:main.c        ****     //EZI2C_EzI2CSetBuffer1(32, 16, &set.action);
 446:main.c        ****    isr_bbi2c_Start();
 1502              		.loc 1 446 0
 1503 00ba FFF7FEFF 		bl	isr_bbi2c_Start
 1504              	.LVL145:
 447:main.c        ****    isr_bbi2c_Enable();
 1505              		.loc 1 447 0
 1506 00be FFF7FEFF 		bl	isr_bbi2c_Enable
 1507              	.LVL146:
 448:main.c        **** //    IDAC8_1_Start();
ARM GAS  C:\Users\ilya\AppData\Local\Temp\cccG1ble.s 			page 39


 449:main.c        ****  
 450:main.c        **** //    OLD_SDA_Write(1);
 451:main.c        ****    // Init_bb_i2c((uint8 *)&set.action);
 452:main.c        ****      EZI2C_EzI2CSetBuffer1(32, 16, &set.action);
 1508              		.loc 1 452 0
 1509 00c2 2200     		movs	r2, r4
 1510 00c4 1021     		movs	r1, #16
 1511 00c6 2020     		movs	r0, #32
 1512 00c8 FFF7FEFF 		bl	EZI2C_EzI2CSetBuffer1
 1513              	.LVL147:
 453:main.c        ****     EZI2C_Start();
 1514              		.loc 1 453 0
 1515 00cc FFF7FEFF 		bl	EZI2C_Start
 1516              	.LVL148:
 454:main.c        ****     EZI2C_EzI2CSetBuffer1(32, 16, &set.action);
 1517              		.loc 1 454 0
 1518 00d0 2200     		movs	r2, r4
 1519 00d2 1021     		movs	r1, #16
 1520 00d4 2020     		movs	r0, #32
 1521 00d6 FFF7FEFF 		bl	EZI2C_EzI2CSetBuffer1
 1522              	.LVL149:
 1523 00da 304B     		ldr	r3, .L168+16
 1524              	.LBB167:
 1525              	.LBB168:
 1526              	.LBB169:
 1527              	.LBB170:
 220:main.c        ****                 set_v=set.hv_volt*1000;
 1528              		.loc 1 220 0
 1529 00dc FA27     		movs	r7, #250
 1530 00de 9946     		mov	r9, r3
 1531              	.LBE170:
 1532              	.LBE169:
 240:main.c        ****             st_idx++;
 1533              		.loc 1 240 0
 1534 00e0 0123     		movs	r3, #1
 1535 00e2 5B42     		rsbs	r3, r3, #0
 1536              	.LBE168:
 1537              	.LBE167:
 455:main.c        ****     while(0)
 456:main.c        ****     {
 457:main.c        ****     CyDelayUs(60000);   
 458:main.c        ****     CyDelayUs(60000);
 459:main.c        ****     DriveLeft(1);
 460:main.c        ****     CyDelayUs(4000);  
 461:main.c        ****     DriveLeft(0);
 462:main.c        ****     CyDelayUs(60000);   
 463:main.c        ****     CyDelayUs(60000);
 464:main.c        ****     DriveRight(1);
 465:main.c        ****     CyDelayUs(4000);  
 466:main.c        ****     DriveRight(0);
 467:main.c        ****     }
 468:main.c        ****     for(;;)
 469:main.c        ****     {
 470:main.c        ****         /* Place your application code here. */
 471:main.c        ****         if (tick)
 472:main.c        ****          {
 473:main.c        ****           tick=0;
ARM GAS  C:\Users\ilya\AppData\Local\Temp\cccG1ble.s 			page 40


 1538              		.loc 1 473 0
 1539 00e4 0026     		movs	r6, #0
 1540              	.LBB178:
 1541              	.LBB175:
 240:main.c        ****             st_idx++;
 1542              		.loc 1 240 0
 1543 00e6 9846     		mov	r8, r3
 1544              	.LBB173:
 1545              	.LBB171:
 220:main.c        ****                 set_v=set.hv_volt*1000;
 1546              		.loc 1 220 0
 1547 00e8 BF00     		lsls	r7, r7, #2
 1548              	.LBE171:
 1549              	.LBE173:
 1550              	.LBE175:
 1551              	.LBE178:
 455:main.c        ****     while(0)
 1552              		.loc 1 455 0
 1553 00ea 06E0     		b	.L160
 1554              	.L154:
 474:main.c        ****           HV_Task();
 475:main.c        ****         }
 476:main.c        ****       Control_Trig_Write(set.trig_source);
 1555              		.loc 1 476 0
 1556 00ec 2079     		ldrb	r0, [r4, #4]
 1557 00ee C0B2     		uxtb	r0, r0
 1558 00f0 FFF7FEFF 		bl	Control_Trig_Write
 1559              	.LVL150:
 477:main.c        ****     if (set.action==     PSOC_ACTION_REBOOT)
 1560              		.loc 1 477 0
 1561 00f4 2378     		ldrb	r3, [r4]
 1562 00f6 0B2B     		cmp	r3, #11
 1563 00f8 28D0     		beq	.L167
 1564              	.L160:
 471:main.c        ****          {
 1565              		.loc 1 471 0
 1566 00fa 2B78     		ldrb	r3, [r5]
 1567 00fc 002B     		cmp	r3, #0
 1568 00fe F5D0     		beq	.L154
 473:main.c        ****           HV_Task();
 1569              		.loc 1 473 0
 1570 0100 2E70     		strb	r6, [r5]
 1571              	.LBB179:
 1572              	.LBB176:
 209:main.c        ****         {
 1573              		.loc 1 209 0
 1574 0102 6378     		ldrb	r3, [r4, #1]
 1575 0104 002B     		cmp	r3, #0
 1576 0106 24D0     		beq	.L155
 1577 0108 2B7B     		ldrb	r3, [r5, #12]
 1578 010a 002B     		cmp	r3, #0
 1579 010c 21D1     		bne	.L155
 1580              	.LBB174:
 1581              	.LBB172:
 220:main.c        ****                 set_v=set.hv_volt*1000;
 1582              		.loc 1 220 0
 1583 010e A378     		ldrb	r3, [r4, #2]
ARM GAS  C:\Users\ilya\AppData\Local\Temp\cccG1ble.s 			page 41


 1584 0110 6869     		ldr	r0, [r5, #20]
 1585 0112 7B43     		muls	r3, r7
 1586 0114 8342     		cmp	r3, r0
 1587 0116 02DA     		bge	.L156
 221:main.c        ****             
 1588              		.loc 1 221 0
 1589 0118 A078     		ldrb	r0, [r4, #2]
 1590 011a 7843     		muls	r0, r7
 1591 011c 6861     		str	r0, [r5, #20]
 1592              	.L156:
 223:main.c        ****                 {
 1593              		.loc 1 223 0
 1594 011e A378     		ldrb	r3, [r4, #2]
 1595 0120 7B43     		muls	r3, r7
 1596 0122 8342     		cmp	r3, r0
 1597 0124 09DD     		ble	.L157
 225:main.c        ****                 if (set_v >set.hv_volt*1000)
 1598              		.loc 1 225 0
 1599 0126 E37A     		ldrb	r3, [r4, #11]
 1600 0128 C018     		adds	r0, r0, r3
 1601 012a 6861     		str	r0, [r5, #20]
 226:main.c        ****                     set_v=set.hv_volt*1000;
 1602              		.loc 1 226 0
 1603 012c A378     		ldrb	r3, [r4, #2]
 1604 012e 7B43     		muls	r3, r7
 1605 0130 9842     		cmp	r0, r3
 1606 0132 02DD     		ble	.L157
 227:main.c        ****                 }
 1607              		.loc 1 227 0
 1608 0134 A078     		ldrb	r0, [r4, #2]
 1609 0136 7843     		muls	r0, r7
 1610 0138 6861     		str	r0, [r5, #20]
 1611              	.L157:
 229:main.c        ****             
 1612              		.loc 1 229 0
 1613 013a FFF7FEFF 		bl	DoVLoop
 1614              	.LVL151:
 1615              	.LBE172:
 1616              	.LBE174:
 1617              	.LBE176:
 1618              	.LBE179:
 476:main.c        ****     if (set.action==     PSOC_ACTION_REBOOT)
 1619              		.loc 1 476 0
 1620 013e 2079     		ldrb	r0, [r4, #4]
 1621 0140 C0B2     		uxtb	r0, r0
 1622 0142 FFF7FEFF 		bl	Control_Trig_Write
 1623              	.LVL152:
 1624              		.loc 1 477 0
 1625 0146 2378     		ldrb	r3, [r4]
 1626 0148 0B2B     		cmp	r3, #11
 1627 014a D6D1     		bne	.L160
 1628              	.L167:
 478:main.c        ****              CySoftwareReset();
 1629              		.loc 1 478 0
 1630 014c FFF7FEFF 		bl	CySoftwareReset
 1631              	.LVL153:
 1632 0150 D3E7     		b	.L160
ARM GAS  C:\Users\ilya\AppData\Local\Temp\cccG1ble.s 			page 42


 1633              	.L155:
 1634              	.LBB180:
 1635              	.LBB177:
 235:main.c        ****             set_v = ADC_CountsTo_mVolts(0, ADC_GetResult16(0))*30;
 1636              		.loc 1 235 0
 1637 0152 0120     		movs	r0, #1
 1638 0154 FFF7FEFF 		bl	PWM_CHARGE_WriteCompare
 1639              	.LVL154:
 236:main.c        ****             i_term=0;
 1640              		.loc 1 236 0
 1641 0158 0020     		movs	r0, #0
 1642 015a FFF7FEFF 		bl	ADC_GetResult16
 1643              	.LVL155:
 1644 015e 0100     		movs	r1, r0
 1645 0160 0020     		movs	r0, #0
 1646 0162 FFF7FEFF 		bl	ADC_CountsTo_mVolts
 1647              	.LVL156:
 1648 0166 0301     		lsls	r3, r0, #4
 1649 0168 181A     		subs	r0, r3, r0
 1650 016a 4000     		lsls	r0, r0, #1
 1651 016c 6861     		str	r0, [r5, #20]
 240:main.c        ****             st_idx++;
 1652              		.loc 1 240 0
 1653 016e 4946     		mov	r1, r9
 1654 0170 4046     		mov	r0, r8
 1655 0172 2B69     		ldr	r3, [r5, #16]
 237:main.c        ****             //i_i_term=0;
 1656              		.loc 1 237 0
 1657 0174 AE60     		str	r6, [r5, #8]
 240:main.c        ****             st_idx++;
 1658              		.loc 1 240 0
 1659 0176 9A00     		lsls	r2, r3, #2
 241:main.c        ****             if (st_idx==STORE_SIZE)
 1660              		.loc 1 241 0
 1661 0178 0133     		adds	r3, r3, #1
 239:main.c        ****             store[st_idx]=-1;
 1662              		.loc 1 239 0
 1663 017a 2E73     		strb	r6, [r5, #12]
 240:main.c        ****             st_idx++;
 1664              		.loc 1 240 0
 1665 017c 8850     		str	r0, [r1, r2]
 242:main.c        ****                st_idx=0;
 1666              		.loc 1 242 0
 1667 017e 642B     		cmp	r3, #100
 1668 0180 01D0     		beq	.L158
 241:main.c        ****             if (st_idx==STORE_SIZE)
 1669              		.loc 1 241 0
 1670 0182 2B61     		str	r3, [r5, #16]
 1671 0184 B2E7     		b	.L154
 1672              	.L158:
 243:main.c        ****             }
 1673              		.loc 1 243 0
 1674 0186 2E61     		str	r6, [r5, #16]
 1675 0188 B0E7     		b	.L154
 1676              	.L169:
 1677 018a C046     		.align	2
 1678              	.L168:
ARM GAS  C:\Users\ilya\AppData\Local\Temp\cccG1ble.s 			page 43


 1679 018c 00000000 		.word	.LANCHOR0
 1680 0190 00000000 		.word	set
 1681 0194 00000000 		.word	isr_MYTIMER_Interrupt
 1682 0198 00000000 		.word	comBuff
 1683 019c 00000000 		.word	store
 1684              	.LBE177:
 1685              	.LBE180:
 1686              		.cfi_endproc
 1687              	.LFE44:
 1688              		.size	main, .-main
 1689              		.global	set_v
 1690              		.global	tick
 1691              		.global	t_count
 1692              		.comm	comBuff,32,4
 1693              		.global	st_idx
 1694              		.comm	store,400,4
 1695              		.global	i_term_div
 1696              		.global	p_term_div
 1697              		.global	in_trig
 1698              		.comm	set,32,4
 1699              		.global	g_HWVersion
 1700              		.data
 1701              		.align	2
 1702              		.set	.LANCHOR1,. + 0
 1703              		.type	i_term_div, %object
 1704              		.size	i_term_div, 4
 1705              	i_term_div:
 1706 0000 58020000 		.word	600
 1707              		.type	p_term_div, %object
 1708              		.size	p_term_div, 4
 1709              	p_term_div:
 1710 0004 23000000 		.word	35
 1711              		.bss
 1712              		.align	2
 1713              		.set	.LANCHOR0,. + 0
 1714              		.type	tick, %object
 1715              		.size	tick, 1
 1716              	tick:
 1717 0000 00       		.space	1
 1718 0001 000000   		.space	3
 1719              		.type	t_count, %object
 1720              		.size	t_count, 4
 1721              	t_count:
 1722 0004 00000000 		.space	4
 1723              		.type	i_term, %object
 1724              		.size	i_term, 4
 1725              	i_term:
 1726 0008 00000000 		.space	4
 1727              		.type	in_trig, %object
 1728              		.size	in_trig, 1
 1729              	in_trig:
 1730 000c 00       		.space	1
 1731              		.type	g_HWVersion, %object
 1732              		.size	g_HWVersion, 1
 1733              	g_HWVersion:
 1734 000d 00       		.space	1
 1735 000e 0000     		.space	2
ARM GAS  C:\Users\ilya\AppData\Local\Temp\cccG1ble.s 			page 44


 1736              		.type	st_idx, %object
 1737              		.size	st_idx, 4
 1738              	st_idx:
 1739 0010 00000000 		.space	4
 1740              		.type	set_v, %object
 1741              		.size	set_v, 4
 1742              	set_v:
 1743 0014 00000000 		.space	4
 1744              		.text
 1745              	.Letext0:
 1746              		.file 2 "c:\\program files (x86)\\cypress\\psoc creator\\4.2\\psoc creator\\import\\gnu\\arm\\5.4.
 1747              		.file 3 "c:\\program files (x86)\\cypress\\psoc creator\\4.2\\psoc creator\\import\\gnu\\arm\\5.4.
 1748              		.file 4 "Generated_Source\\PSoC4/cytypes.h"
 1749              		.file 5 "Generated_Source\\PSoC4/TIMER.h"
 1750              		.file 6 "Generated_Source\\PSoC4/TRIG_LEFT.h"
 1751              		.file 7 "Generated_Source\\PSoC4/TRIG_FACE.h"
 1752              		.file 8 "Generated_Source\\PSoC4/TRIG_RIGHT.h"
 1753              		.file 9 "Generated_Source\\PSoC4/VREF_C.h"
 1754              		.file 10 "Generated_Source\\PSoC4/Opamp_FACE.h"
 1755              		.file 11 "Generated_Source\\PSoC4/EN_C.h"
 1756              		.file 12 "Generated_Source\\PSoC4/VREF_A.h"
 1757              		.file 13 "Generated_Source\\PSoC4/Opamp_1.h"
 1758              		.file 14 "Generated_Source\\PSoC4/VREF_B.h"
 1759              		.file 15 "Generated_Source\\PSoC4/Opamp_2.h"
 1760              		.file 16 "Generated_Source\\PSoC4/PWM_CHARGE.h"
 1761              		.file 17 "Generated_Source\\PSoC4/IDAC_1.h"
 1762              		.file 18 "Generated_Source\\PSoC4/IDAC_2.h"
 1763              		.file 19 "Generated_Source\\PSoC4/ADC.h"
 1764              		.file 20 "Generated_Source\\PSoC4/IFB.h"
 1765              		.file 21 "Generated_Source\\PSoC4/CyLib.h"
 1766              		.file 22 "Generated_Source\\PSoC4/MAX_I.h"
 1767              		.file 23 "Generated_Source\\PSoC4/Comp_1.h"
 1768              		.file 24 "Generated_Source\\PSoC4/isr_TIMER.h"
 1769              		.file 25 "Generated_Source\\PSoC4/isr_bbi2c.h"
 1770              		.file 26 "Generated_Source\\PSoC4/EZI2C_EZI2C.h"
 1771              		.file 27 "Generated_Source\\PSoC4/EZI2C.h"
 1772              		.file 28 "Generated_Source\\PSoC4/Control_Trig.h"