ARM GAS  C:\Users\ilya\AppData\Local\Temp\cc9OO4Sf.s 			page 1


   1              		.syntax unified
   2              		.cpu cortex-m0
   3              		.fpu softvfp
   4              		.eabi_attribute 20, 1
   5              		.eabi_attribute 21, 1
   6              		.eabi_attribute 23, 3
   7              		.eabi_attribute 24, 1
   8              		.eabi_attribute 25, 1
   9              		.eabi_attribute 26, 1
  10              		.eabi_attribute 30, 2
  11              		.eabi_attribute 34, 0
  12              		.eabi_attribute 18, 4
  13              		.thumb
  14              		.syntax unified
  15              		.file	"TIMER_PM.c"
  16              		.text
  17              	.Ltext0:
  18              		.cfi_sections	.debug_frame
  19              		.section	.text.TIMER_SaveConfig,"ax",%progbits
  20              		.align	2
  21              		.global	TIMER_SaveConfig
  22              		.code	16
  23              		.thumb_func
  24              		.type	TIMER_SaveConfig, %function
  25              	TIMER_SaveConfig:
  26              	.LFB6:
  27              		.cfi_startproc
  28              		@ args = 0, pretend = 0, frame = 0
  29              		@ frame_needed = 0, uses_anonymous_args = 0
  30              		@ link register save eliminated.
  31              		@ sp needed
  32 0000 7047     		bx	lr
  33              		.cfi_endproc
  34              	.LFE6:
  35              		.size	TIMER_SaveConfig, .-TIMER_SaveConfig
  36 0002 C046     		.section	.text.TIMER_Sleep,"ax",%progbits
  37              		.align	2
  38              		.global	TIMER_Sleep
  39              		.code	16
  40              		.thumb_func
  41              		.type	TIMER_Sleep, %function
  42              	TIMER_Sleep:
  43              	.LFB2:
  44              		.file 1 "Generated_Source\\PSoC4\\TIMER_PM.c"
   1:Generated_Source\PSoC4/TIMER_PM.c **** /*******************************************************************************
   2:Generated_Source\PSoC4/TIMER_PM.c **** * File Name: TIMER_PM.c
   3:Generated_Source\PSoC4/TIMER_PM.c **** * Version 2.10
   4:Generated_Source\PSoC4/TIMER_PM.c **** *
   5:Generated_Source\PSoC4/TIMER_PM.c **** * Description:
   6:Generated_Source\PSoC4/TIMER_PM.c **** *  This file contains the setup, control, and status commands to support
   7:Generated_Source\PSoC4/TIMER_PM.c **** *  the component operations in the low power mode.
   8:Generated_Source\PSoC4/TIMER_PM.c **** *
   9:Generated_Source\PSoC4/TIMER_PM.c **** * Note:
  10:Generated_Source\PSoC4/TIMER_PM.c **** *  None
  11:Generated_Source\PSoC4/TIMER_PM.c **** *
  12:Generated_Source\PSoC4/TIMER_PM.c **** ********************************************************************************
  13:Generated_Source\PSoC4/TIMER_PM.c **** * Copyright 2013-2015, Cypress Semiconductor Corporation.  All rights reserved.
ARM GAS  C:\Users\ilya\AppData\Local\Temp\cc9OO4Sf.s 			page 2


  14:Generated_Source\PSoC4/TIMER_PM.c **** * You may use this file only in accordance with the license, terms, conditions,
  15:Generated_Source\PSoC4/TIMER_PM.c **** * disclaimers, and limitations in the end user license agreement accompanying
  16:Generated_Source\PSoC4/TIMER_PM.c **** * the software package with which this file was provided.
  17:Generated_Source\PSoC4/TIMER_PM.c **** *******************************************************************************/
  18:Generated_Source\PSoC4/TIMER_PM.c **** 
  19:Generated_Source\PSoC4/TIMER_PM.c **** #include "TIMER.h"
  20:Generated_Source\PSoC4/TIMER_PM.c **** 
  21:Generated_Source\PSoC4/TIMER_PM.c **** static TIMER_BACKUP_STRUCT TIMER_backup;
  22:Generated_Source\PSoC4/TIMER_PM.c **** 
  23:Generated_Source\PSoC4/TIMER_PM.c **** 
  24:Generated_Source\PSoC4/TIMER_PM.c **** /*******************************************************************************
  25:Generated_Source\PSoC4/TIMER_PM.c **** * Function Name: TIMER_SaveConfig
  26:Generated_Source\PSoC4/TIMER_PM.c **** ********************************************************************************
  27:Generated_Source\PSoC4/TIMER_PM.c **** *
  28:Generated_Source\PSoC4/TIMER_PM.c **** * Summary:
  29:Generated_Source\PSoC4/TIMER_PM.c **** *  All configuration registers are retention. Nothing to save here.
  30:Generated_Source\PSoC4/TIMER_PM.c **** *
  31:Generated_Source\PSoC4/TIMER_PM.c **** * Parameters:
  32:Generated_Source\PSoC4/TIMER_PM.c **** *  None
  33:Generated_Source\PSoC4/TIMER_PM.c **** *
  34:Generated_Source\PSoC4/TIMER_PM.c **** * Return:
  35:Generated_Source\PSoC4/TIMER_PM.c **** *  None
  36:Generated_Source\PSoC4/TIMER_PM.c **** *
  37:Generated_Source\PSoC4/TIMER_PM.c **** *******************************************************************************/
  38:Generated_Source\PSoC4/TIMER_PM.c **** void TIMER_SaveConfig(void)
  39:Generated_Source\PSoC4/TIMER_PM.c **** {
  40:Generated_Source\PSoC4/TIMER_PM.c **** 
  41:Generated_Source\PSoC4/TIMER_PM.c **** }
  42:Generated_Source\PSoC4/TIMER_PM.c **** 
  43:Generated_Source\PSoC4/TIMER_PM.c **** 
  44:Generated_Source\PSoC4/TIMER_PM.c **** /*******************************************************************************
  45:Generated_Source\PSoC4/TIMER_PM.c **** * Function Name: TIMER_Sleep
  46:Generated_Source\PSoC4/TIMER_PM.c **** ********************************************************************************
  47:Generated_Source\PSoC4/TIMER_PM.c **** *
  48:Generated_Source\PSoC4/TIMER_PM.c **** * Summary:
  49:Generated_Source\PSoC4/TIMER_PM.c **** *  Stops the component operation and saves the user configuration.
  50:Generated_Source\PSoC4/TIMER_PM.c **** *
  51:Generated_Source\PSoC4/TIMER_PM.c **** * Parameters:
  52:Generated_Source\PSoC4/TIMER_PM.c **** *  None
  53:Generated_Source\PSoC4/TIMER_PM.c **** *
  54:Generated_Source\PSoC4/TIMER_PM.c **** * Return:
  55:Generated_Source\PSoC4/TIMER_PM.c **** *  None
  56:Generated_Source\PSoC4/TIMER_PM.c **** *
  57:Generated_Source\PSoC4/TIMER_PM.c **** *******************************************************************************/
  58:Generated_Source\PSoC4/TIMER_PM.c **** void TIMER_Sleep(void)
  59:Generated_Source\PSoC4/TIMER_PM.c **** {
  45              		.loc 1 59 0
  46              		.cfi_startproc
  47              		@ args = 0, pretend = 0, frame = 0
  48              		@ frame_needed = 0, uses_anonymous_args = 0
  60:Generated_Source\PSoC4/TIMER_PM.c ****     if(0u != (TIMER_BLOCK_CONTROL_REG & TIMER_MASK))
  49              		.loc 1 60 0
  50 0000 044B     		ldr	r3, .L3
  59:Generated_Source\PSoC4/TIMER_PM.c ****     if(0u != (TIMER_BLOCK_CONTROL_REG & TIMER_MASK))
  51              		.loc 1 59 0
  52 0002 10B5     		push	{r4, lr}
  53              		.cfi_def_cfa_offset 8
ARM GAS  C:\Users\ilya\AppData\Local\Temp\cc9OO4Sf.s 			page 3


  54              		.cfi_offset 4, -8
  55              		.cfi_offset 14, -4
  56              		.loc 1 60 0
  57 0004 1B68     		ldr	r3, [r3]
  58 0006 044A     		ldr	r2, .L3+4
  59 0008 9B07     		lsls	r3, r3, #30
  60 000a DB0F     		lsrs	r3, r3, #31
  61 000c 1370     		strb	r3, [r2]
  61:Generated_Source\PSoC4/TIMER_PM.c ****     {
  62:Generated_Source\PSoC4/TIMER_PM.c ****         TIMER_backup.enableState = 1u;
  63:Generated_Source\PSoC4/TIMER_PM.c ****     }
  64:Generated_Source\PSoC4/TIMER_PM.c ****     else
  65:Generated_Source\PSoC4/TIMER_PM.c ****     {
  66:Generated_Source\PSoC4/TIMER_PM.c ****         TIMER_backup.enableState = 0u;
  67:Generated_Source\PSoC4/TIMER_PM.c ****     }
  68:Generated_Source\PSoC4/TIMER_PM.c **** 
  69:Generated_Source\PSoC4/TIMER_PM.c ****     TIMER_Stop();
  70:Generated_Source\PSoC4/TIMER_PM.c ****     TIMER_SaveConfig();
  71:Generated_Source\PSoC4/TIMER_PM.c **** }
  62              		.loc 1 71 0
  63              		@ sp needed
  69:Generated_Source\PSoC4/TIMER_PM.c ****     TIMER_SaveConfig();
  64              		.loc 1 69 0
  65 000e FFF7FEFF 		bl	TIMER_Stop
  66              	.LVL0:
  67              		.loc 1 71 0
  68 0012 10BD     		pop	{r4, pc}
  69              	.L4:
  70              		.align	2
  71              	.L3:
  72 0014 00002040 		.word	1075838976
  73 0018 00000000 		.word	.LANCHOR0
  74              		.cfi_endproc
  75              	.LFE2:
  76              		.size	TIMER_Sleep, .-TIMER_Sleep
  77              		.section	.text.TIMER_RestoreConfig,"ax",%progbits
  78              		.align	2
  79              		.global	TIMER_RestoreConfig
  80              		.code	16
  81              		.thumb_func
  82              		.type	TIMER_RestoreConfig, %function
  83              	TIMER_RestoreConfig:
  84              	.LFB3:
  72:Generated_Source\PSoC4/TIMER_PM.c **** 
  73:Generated_Source\PSoC4/TIMER_PM.c **** 
  74:Generated_Source\PSoC4/TIMER_PM.c **** /*******************************************************************************
  75:Generated_Source\PSoC4/TIMER_PM.c **** * Function Name: TIMER_RestoreConfig
  76:Generated_Source\PSoC4/TIMER_PM.c **** ********************************************************************************
  77:Generated_Source\PSoC4/TIMER_PM.c **** *
  78:Generated_Source\PSoC4/TIMER_PM.c **** * Summary:
  79:Generated_Source\PSoC4/TIMER_PM.c **** *  All configuration registers are retention. Nothing to restore here.
  80:Generated_Source\PSoC4/TIMER_PM.c **** *
  81:Generated_Source\PSoC4/TIMER_PM.c **** * Parameters:
  82:Generated_Source\PSoC4/TIMER_PM.c **** *  None
  83:Generated_Source\PSoC4/TIMER_PM.c **** *
  84:Generated_Source\PSoC4/TIMER_PM.c **** * Return:
  85:Generated_Source\PSoC4/TIMER_PM.c **** *  None
ARM GAS  C:\Users\ilya\AppData\Local\Temp\cc9OO4Sf.s 			page 4


  86:Generated_Source\PSoC4/TIMER_PM.c **** *
  87:Generated_Source\PSoC4/TIMER_PM.c **** *******************************************************************************/
  88:Generated_Source\PSoC4/TIMER_PM.c **** void TIMER_RestoreConfig(void)
  89:Generated_Source\PSoC4/TIMER_PM.c **** {
  85              		.loc 1 89 0
  86              		.cfi_startproc
  87              		@ args = 0, pretend = 0, frame = 0
  88              		@ frame_needed = 0, uses_anonymous_args = 0
  89              		@ link register save eliminated.
  90:Generated_Source\PSoC4/TIMER_PM.c **** 
  91:Generated_Source\PSoC4/TIMER_PM.c **** }
  90              		.loc 1 91 0
  91              		@ sp needed
  92 0000 7047     		bx	lr
  93              		.cfi_endproc
  94              	.LFE3:
  95              		.size	TIMER_RestoreConfig, .-TIMER_RestoreConfig
  96 0002 C046     		.section	.text.TIMER_Wakeup,"ax",%progbits
  97              		.align	2
  98              		.global	TIMER_Wakeup
  99              		.code	16
 100              		.thumb_func
 101              		.type	TIMER_Wakeup, %function
 102              	TIMER_Wakeup:
 103              	.LFB4:
  92:Generated_Source\PSoC4/TIMER_PM.c **** 
  93:Generated_Source\PSoC4/TIMER_PM.c **** 
  94:Generated_Source\PSoC4/TIMER_PM.c **** /*******************************************************************************
  95:Generated_Source\PSoC4/TIMER_PM.c **** * Function Name: TIMER_Wakeup
  96:Generated_Source\PSoC4/TIMER_PM.c **** ********************************************************************************
  97:Generated_Source\PSoC4/TIMER_PM.c **** *
  98:Generated_Source\PSoC4/TIMER_PM.c **** * Summary:
  99:Generated_Source\PSoC4/TIMER_PM.c **** *  Restores the user configuration and restores the enable state.
 100:Generated_Source\PSoC4/TIMER_PM.c **** *
 101:Generated_Source\PSoC4/TIMER_PM.c **** * Parameters:
 102:Generated_Source\PSoC4/TIMER_PM.c **** *  None
 103:Generated_Source\PSoC4/TIMER_PM.c **** *
 104:Generated_Source\PSoC4/TIMER_PM.c **** * Return:
 105:Generated_Source\PSoC4/TIMER_PM.c **** *  None
 106:Generated_Source\PSoC4/TIMER_PM.c **** *
 107:Generated_Source\PSoC4/TIMER_PM.c **** *******************************************************************************/
 108:Generated_Source\PSoC4/TIMER_PM.c **** void TIMER_Wakeup(void)
 109:Generated_Source\PSoC4/TIMER_PM.c **** {
 104              		.loc 1 109 0
 105              		.cfi_startproc
 106              		@ args = 0, pretend = 0, frame = 0
 107              		@ frame_needed = 0, uses_anonymous_args = 0
 108 0000 10B5     		push	{r4, lr}
 109              		.cfi_def_cfa_offset 8
 110              		.cfi_offset 4, -8
 111              		.cfi_offset 14, -4
 110:Generated_Source\PSoC4/TIMER_PM.c ****     TIMER_RestoreConfig();
 111:Generated_Source\PSoC4/TIMER_PM.c **** 
 112:Generated_Source\PSoC4/TIMER_PM.c ****     if(0u != TIMER_backup.enableState)
 112              		.loc 1 112 0
 113 0002 034B     		ldr	r3, .L12
 114 0004 1B78     		ldrb	r3, [r3]
ARM GAS  C:\Users\ilya\AppData\Local\Temp\cc9OO4Sf.s 			page 5


 115 0006 002B     		cmp	r3, #0
 116 0008 01D0     		beq	.L6
 113:Generated_Source\PSoC4/TIMER_PM.c ****     {
 114:Generated_Source\PSoC4/TIMER_PM.c ****         TIMER_Enable();
 117              		.loc 1 114 0
 118 000a FFF7FEFF 		bl	TIMER_Enable
 119              	.LVL1:
 120              	.L6:
 115:Generated_Source\PSoC4/TIMER_PM.c ****     }
 116:Generated_Source\PSoC4/TIMER_PM.c **** }
 121              		.loc 1 116 0
 122              		@ sp needed
 123 000e 10BD     		pop	{r4, pc}
 124              	.L13:
 125              		.align	2
 126              	.L12:
 127 0010 00000000 		.word	.LANCHOR0
 128              		.cfi_endproc
 129              	.LFE4:
 130              		.size	TIMER_Wakeup, .-TIMER_Wakeup
 131              		.bss
 132              		.align	2
 133              		.set	.LANCHOR0,. + 0
 134              		.type	TIMER_backup, %object
 135              		.size	TIMER_backup, 1
 136              	TIMER_backup:
 137 0000 00       		.space	1
 138              		.text
 139              	.Letext0:
 140              		.file 2 "Generated_Source\\PSoC4\\cytypes.h"
 141              		.file 3 "Generated_Source\\PSoC4\\TIMER.h"