ARM GAS  C:\Users\yqh\AppData\Local\Temp\cc4JSwbY.s 			page 1


   1              		.syntax unified
   2              		.cpu cortex-m3
   3              		.fpu softvfp
   4              		.eabi_attribute 20, 1
   5              		.eabi_attribute 21, 1
   6              		.eabi_attribute 23, 3
   7              		.eabi_attribute 24, 1
   8              		.eabi_attribute 25, 1
   9              		.eabi_attribute 26, 1
  10              		.eabi_attribute 30, 4
  11              		.eabi_attribute 34, 1
  12              		.eabi_attribute 18, 4
  13              		.thumb
  14              		.file	"EZI2Cs.c"
  15              		.text
  16              	.Ltext0:
  17              		.cfi_sections	.debug_frame
  18              		.section	.text.EZI2Cs_Init,"ax",%progbits
  19              		.align	1
  20              		.global	EZI2Cs_Init
  21              		.thumb
  22              		.thumb_func
  23              		.type	EZI2Cs_Init, %function
  24              	EZI2Cs_Init:
  25              	.LFB0:
  26              		.file 1 "Generated_Source\\PSoC5\\EZI2Cs.c"
   1:Generated_Source\PSoC5/EZI2Cs.c **** /*******************************************************************************
   2:Generated_Source\PSoC5/EZI2Cs.c **** * File Name: EZI2Cs.c
   3:Generated_Source\PSoC5/EZI2Cs.c **** * Version 2.0
   4:Generated_Source\PSoC5/EZI2Cs.c **** *
   5:Generated_Source\PSoC5/EZI2Cs.c **** * Description:
   6:Generated_Source\PSoC5/EZI2Cs.c **** *  This file contains the setup, control and status commands for the EZI2C
   7:Generated_Source\PSoC5/EZI2Cs.c **** *  component. The actual protocol and operation code resides in the interrupt
   8:Generated_Source\PSoC5/EZI2Cs.c **** *  service routine file.
   9:Generated_Source\PSoC5/EZI2Cs.c **** *
  10:Generated_Source\PSoC5/EZI2Cs.c **** ********************************************************************************
  11:Generated_Source\PSoC5/EZI2Cs.c **** * Copyright 2008-2015, Cypress Semiconductor Corporation.  All rights reserved.
  12:Generated_Source\PSoC5/EZI2Cs.c **** * You may use this file only in accordance with the license, terms, conditions,
  13:Generated_Source\PSoC5/EZI2Cs.c **** * disclaimers, and limitations in the end user license agreement accompanying
  14:Generated_Source\PSoC5/EZI2Cs.c **** * the software package with which this file was provided.
  15:Generated_Source\PSoC5/EZI2Cs.c **** *******************************************************************************/
  16:Generated_Source\PSoC5/EZI2Cs.c **** 
  17:Generated_Source\PSoC5/EZI2Cs.c **** #include "EZI2Cs_PVT.h"
  18:Generated_Source\PSoC5/EZI2Cs.c **** 
  19:Generated_Source\PSoC5/EZI2Cs.c **** /**********************************
  20:Generated_Source\PSoC5/EZI2Cs.c **** *      System variables
  21:Generated_Source\PSoC5/EZI2Cs.c **** **********************************/
  22:Generated_Source\PSoC5/EZI2Cs.c **** 
  23:Generated_Source\PSoC5/EZI2Cs.c **** uint8 EZI2Cs_initVar = 0u; /* Defines if component was initialized */
  24:Generated_Source\PSoC5/EZI2Cs.c **** 
  25:Generated_Source\PSoC5/EZI2Cs.c **** /* Status and state variables */
  26:Generated_Source\PSoC5/EZI2Cs.c **** volatile uint8 EZI2Cs_curStatus; /* Current status of the component */
  27:Generated_Source\PSoC5/EZI2Cs.c **** volatile uint8 EZI2Cs_curState;  /* Current state of state machine */
  28:Generated_Source\PSoC5/EZI2Cs.c **** 
  29:Generated_Source\PSoC5/EZI2Cs.c **** /* Primary slave address variables */
  30:Generated_Source\PSoC5/EZI2Cs.c **** volatile uint8* EZI2Cs_dataPtrS1; /* Pointer to data buffer 1 */
  31:Generated_Source\PSoC5/EZI2Cs.c **** volatile uint16 EZI2Cs_bufSizeS1; /* Size of buffer 1 in bytes */
ARM GAS  C:\Users\yqh\AppData\Local\Temp\cc4JSwbY.s 			page 2


  32:Generated_Source\PSoC5/EZI2Cs.c **** volatile uint16 EZI2Cs_wrProtectS1; /* Start index of write protected area in buffer 1 */
  33:Generated_Source\PSoC5/EZI2Cs.c **** volatile uint16  EZI2Cs_rwOffsetS1; /* Current offset within buffer 1 */
  34:Generated_Source\PSoC5/EZI2Cs.c **** volatile uint16  EZI2Cs_rwIndexS1;  /* Current index within buffer 1 */
  35:Generated_Source\PSoC5/EZI2Cs.c **** 
  36:Generated_Source\PSoC5/EZI2Cs.c **** /* Secondary slave address variables */
  37:Generated_Source\PSoC5/EZI2Cs.c **** #if(EZI2Cs_ADDRESSES == EZI2Cs_TWO_ADDRESSES)
  38:Generated_Source\PSoC5/EZI2Cs.c ****     volatile uint8  EZI2Cs_addrS1; /* Primary slave address: software comparison */
  39:Generated_Source\PSoC5/EZI2Cs.c ****     volatile uint8  EZI2Cs_addrS2; /* Secondary slave address: software comparison */
  40:Generated_Source\PSoC5/EZI2Cs.c ****     volatile uint8* EZI2Cs_dataPtrS2; /* Pointer to data buffer 1 */
  41:Generated_Source\PSoC5/EZI2Cs.c ****     volatile uint16 EZI2Cs_bufSizeS2; /* Size of buffer 2 in bytes */
  42:Generated_Source\PSoC5/EZI2Cs.c ****     volatile uint16 EZI2Cs_wrProtectS2; /* Start index of write protected area in buffer 2 */
  43:Generated_Source\PSoC5/EZI2Cs.c ****     volatile uint16 EZI2Cs_rwOffsetS2; /* Current offset within buffer 2 */
  44:Generated_Source\PSoC5/EZI2Cs.c ****     volatile uint16 EZI2Cs_rwIndexS2;  /* Current index within buffer 2 */
  45:Generated_Source\PSoC5/EZI2Cs.c **** #endif  /* (EZI2Cs_ADDRESSES == EZI2Cs_TWO_ADDRESSES) */
  46:Generated_Source\PSoC5/EZI2Cs.c **** 
  47:Generated_Source\PSoC5/EZI2Cs.c **** 
  48:Generated_Source\PSoC5/EZI2Cs.c **** /*******************************************************************************
  49:Generated_Source\PSoC5/EZI2Cs.c **** * Function Name: EZI2Cs_Init
  50:Generated_Source\PSoC5/EZI2Cs.c **** ********************************************************************************
  51:Generated_Source\PSoC5/EZI2Cs.c **** *
  52:Generated_Source\PSoC5/EZI2Cs.c **** * Summary:
  53:Generated_Source\PSoC5/EZI2Cs.c **** *  Initializes or restores the component according to the Configure dialog
  54:Generated_Source\PSoC5/EZI2Cs.c **** *  settings. It is not necessary to call EZI2C_Init() because the EZI2C_Start()
  55:Generated_Source\PSoC5/EZI2Cs.c **** *  API calls this function, which is the preferred method to begin component
  56:Generated_Source\PSoC5/EZI2Cs.c **** *  operation.
  57:Generated_Source\PSoC5/EZI2Cs.c **** *
  58:Generated_Source\PSoC5/EZI2Cs.c **** * Parameters:
  59:Generated_Source\PSoC5/EZI2Cs.c **** *  None.
  60:Generated_Source\PSoC5/EZI2Cs.c **** *
  61:Generated_Source\PSoC5/EZI2Cs.c **** * Return:
  62:Generated_Source\PSoC5/EZI2Cs.c **** *  None.
  63:Generated_Source\PSoC5/EZI2Cs.c **** *
  64:Generated_Source\PSoC5/EZI2Cs.c **** * Global variables:
  65:Generated_Source\PSoC5/EZI2Cs.c **** *  EZI2Cs_initVar - It is used to indicate the initial configuration
  66:Generated_Source\PSoC5/EZI2Cs.c **** *  of this component.  The variable is initialized to zero and set to 1
  67:Generated_Source\PSoC5/EZI2Cs.c **** *  the first time EZI2Cs_Start() is called. This allows component  !
  68:Generated_Source\PSoC5/EZI2Cs.c **** *  initialization without re-initialization in all subsequent calls
  69:Generated_Source\PSoC5/EZI2Cs.c **** *  to the EZI2Cs_Start() routine.
  70:Generated_Source\PSoC5/EZI2Cs.c **** *
  71:Generated_Source\PSoC5/EZI2Cs.c **** *  EZI2Cs_curStatus - Stores the current status of the component.
  72:Generated_Source\PSoC5/EZI2Cs.c **** *
  73:Generated_Source\PSoC5/EZI2Cs.c **** *  EZI2Cs_curState- Stores the current state of an I2C state machine.
  74:Generated_Source\PSoC5/EZI2Cs.c **** *
  75:Generated_Source\PSoC5/EZI2Cs.c **** *  EZI2Cs_rwOffsetS1 - The global variable which stores an offset for read
  76:Generated_Source\PSoC5/EZI2Cs.c **** *  and write operations, is set at each write sequence of the first slave
  77:Generated_Source\PSoC5/EZI2Cs.c **** *  address is reset if EZI2Cs_initVar is 0, by
  78:Generated_Source\PSoC5/EZI2Cs.c **** *  EZI2Cs_initVar function call.
  79:Generated_Source\PSoC5/EZI2Cs.c **** *
  80:Generated_Source\PSoC5/EZI2Cs.c **** *  EZI2Cs_rwIndexS1 - The global variable which stores a pointer to the
  81:Generated_Source\PSoC5/EZI2Cs.c **** *  next value to be read or written for the first slave address is reset if
  82:Generated_Source\PSoC5/EZI2Cs.c **** *  EZI2Cs_initVar is 0, by EZI2Cs_initVar function call.
  83:Generated_Source\PSoC5/EZI2Cs.c **** *
  84:Generated_Source\PSoC5/EZI2Cs.c **** * EZI2Cs_wrProtectS1 - The global variable which stores an offset where data
  85:Generated_Source\PSoC5/EZI2Cs.c **** *  is read only for the first slave address is reset if
  86:Generated_Source\PSoC5/EZI2Cs.c **** *  EZI2Cs_initVar is 0, by EZI2Cs_initVar function call.
  87:Generated_Source\PSoC5/EZI2Cs.c **** *
  88:Generated_Source\PSoC5/EZI2Cs.c **** *  EZI2Cs_rwOffsetS2 - The global variable, which stores an offset for read
ARM GAS  C:\Users\yqh\AppData\Local\Temp\cc4JSwbY.s 			page 3


  89:Generated_Source\PSoC5/EZI2Cs.c **** *  and write operations, is set at each write sequence of the second slave
  90:Generated_Source\PSoC5/EZI2Cs.c **** *  device is reset if EZI2Cs_initVar is 0, by EZI2Cs_initVar
  91:Generated_Source\PSoC5/EZI2Cs.c **** *  function call.
  92:Generated_Source\PSoC5/EZI2Cs.c **** *
  93:Generated_Source\PSoC5/EZI2Cs.c **** *  EZI2Cs_rwIndexS2 - The global variable which stores a pointer to the
  94:Generated_Source\PSoC5/EZI2Cs.c **** *  next value to be read or written for the second slave address is reset if
  95:Generated_Source\PSoC5/EZI2Cs.c **** *  EZI2Cs_initVar is 0, by EZI2Cs_initVar function call.
  96:Generated_Source\PSoC5/EZI2Cs.c **** *
  97:Generated_Source\PSoC5/EZI2Cs.c **** * EZI2Cs_wrProtectS2 - The global variable which stores an offset where data
  98:Generated_Source\PSoC5/EZI2Cs.c **** *  is read only for the second slave address is reset if
  99:Generated_Source\PSoC5/EZI2Cs.c **** *  EZI2Cs_initVar is 0, by EZI2Cs_initVar function call.
 100:Generated_Source\PSoC5/EZI2Cs.c **** *
 101:Generated_Source\PSoC5/EZI2Cs.c **** * Reentrant:
 102:Generated_Source\PSoC5/EZI2Cs.c **** *  No.
 103:Generated_Source\PSoC5/EZI2Cs.c **** *
 104:Generated_Source\PSoC5/EZI2Cs.c **** *******************************************************************************/
 105:Generated_Source\PSoC5/EZI2Cs.c **** void EZI2Cs_Init(void) 
 106:Generated_Source\PSoC5/EZI2Cs.c **** {
  27              		.loc 1 106 0
  28              		.cfi_startproc
  29              		@ args = 0, pretend = 0, frame = 0
  30              		@ frame_needed = 0, uses_anonymous_args = 0
 107:Generated_Source\PSoC5/EZI2Cs.c ****     /* Configure fixed function block */
 108:Generated_Source\PSoC5/EZI2Cs.c ****     EZI2Cs_CFG_REG  = EZI2Cs_DEFAULT_CFG;
  31              		.loc 1 108 0
  32 0000 114B     		ldr	r3, .L2
  33 0002 0122     		movs	r2, #1
 106:Generated_Source\PSoC5/EZI2Cs.c ****     /* Configure fixed function block */
  34              		.loc 1 106 0
  35 0004 10B5     		push	{r4, lr}
  36              		.cfi_def_cfa_offset 8
  37              		.cfi_offset 4, -8
  38              		.cfi_offset 14, -4
  39              		.loc 1 108 0
  40 0006 1A70     		strb	r2, [r3]
 109:Generated_Source\PSoC5/EZI2Cs.c ****     EZI2Cs_XCFG_REG = EZI2Cs_DEFAULT_XCFG;
  41              		.loc 1 109 0
  42 0008 8122     		movs	r2, #129
  43 000a 03F80E2C 		strb	r2, [r3, #-14]
 110:Generated_Source\PSoC5/EZI2Cs.c ****     EZI2Cs_ADDR_REG = EZI2Cs_DEFAULT_ADDR;
 111:Generated_Source\PSoC5/EZI2Cs.c ****     EZI2Cs_CLKDIV1_REG = EZI2Cs_DEFAULT_CLKDIV1;
 112:Generated_Source\PSoC5/EZI2Cs.c ****     EZI2Cs_CLKDIV2_REG = EZI2Cs_DEFAULT_CLKDIV2;
  44              		.loc 1 112 0
  45 000e 0024     		movs	r4, #0
 111:Generated_Source\PSoC5/EZI2Cs.c ****     EZI2Cs_CLKDIV2_REG = EZI2Cs_DEFAULT_CLKDIV2;
  46              		.loc 1 111 0
  47 0010 0721     		movs	r1, #7
 110:Generated_Source\PSoC5/EZI2Cs.c ****     EZI2Cs_ADDR_REG = EZI2Cs_DEFAULT_ADDR;
  48              		.loc 1 110 0
  49 0012 3822     		movs	r2, #56
  50 0014 03F80C2C 		strb	r2, [r3, #-12]
 111:Generated_Source\PSoC5/EZI2Cs.c ****     EZI2Cs_CLKDIV2_REG = EZI2Cs_DEFAULT_CLKDIV2;
  51              		.loc 1 111 0
  52 0018 5971     		strb	r1, [r3, #5]
  53              		.loc 1 112 0
  54 001a 9C71     		strb	r4, [r3, #6]
 113:Generated_Source\PSoC5/EZI2Cs.c **** 
ARM GAS  C:\Users\yqh\AppData\Local\Temp\cc4JSwbY.s 			page 4


 114:Generated_Source\PSoC5/EZI2Cs.c **** #if (EZI2Cs_TWO_ADDRESSES == EZI2Cs_ADDRESSES)
 115:Generated_Source\PSoC5/EZI2Cs.c ****     /* Set address variables */
 116:Generated_Source\PSoC5/EZI2Cs.c ****     EZI2Cs_SetAddress1(EZI2Cs_DEFAULT_ADDR1);
 117:Generated_Source\PSoC5/EZI2Cs.c ****     EZI2Cs_SetAddress2(EZI2Cs_DEFAULT_ADDR2);
 118:Generated_Source\PSoC5/EZI2Cs.c **** #endif /* #if (EZI2Cs_TWO_ADDRESSES == EZI2Cs_ADDRESSES) */
 119:Generated_Source\PSoC5/EZI2Cs.c **** 
 120:Generated_Source\PSoC5/EZI2Cs.c ****     /* Configure interrupt */
 121:Generated_Source\PSoC5/EZI2Cs.c ****     CyIntDisable         (EZI2Cs_ISR_NUMBER);
  55              		.loc 1 121 0
  56 001c 0B4B     		ldr	r3, .L2+4
  57 001e 4FF40042 		mov	r2, #32768
  58 0022 1A60     		str	r2, [r3]
 122:Generated_Source\PSoC5/EZI2Cs.c ****     CyIntSetPriority     (EZI2Cs_ISR_NUMBER, EZI2Cs_ISR_PRIORITY);
  59              		.loc 1 122 0
  60 0024 0F20     		movs	r0, #15
  61 0026 FFF7FEFF 		bl	CyIntSetPriority
  62              	.LVL0:
 123:Generated_Source\PSoC5/EZI2Cs.c ****     (void) CyIntSetVector(EZI2Cs_ISR_NUMBER, &EZI2Cs_ISR);
  63              		.loc 1 123 0
  64 002a 0F20     		movs	r0, #15
  65 002c 0849     		ldr	r1, .L2+8
  66 002e FFF7FEFF 		bl	CyIntSetVector
  67              	.LVL1:
 124:Generated_Source\PSoC5/EZI2Cs.c **** 
 125:Generated_Source\PSoC5/EZI2Cs.c ****      /* Reset state and status to default */
 126:Generated_Source\PSoC5/EZI2Cs.c ****     EZI2Cs_curState  = EZI2Cs_SM_IDLE;
  68              		.loc 1 126 0
  69 0032 084B     		ldr	r3, .L2+12
  70 0034 1C70     		strb	r4, [r3]
 127:Generated_Source\PSoC5/EZI2Cs.c ****     EZI2Cs_curStatus = 0u;
  71              		.loc 1 127 0
  72 0036 084B     		ldr	r3, .L2+16
  73 0038 1C70     		strb	r4, [r3]
 128:Generated_Source\PSoC5/EZI2Cs.c **** 
 129:Generated_Source\PSoC5/EZI2Cs.c ****     /* Reset all buffer 1 indexes (primary address) */
 130:Generated_Source\PSoC5/EZI2Cs.c ****     EZI2Cs_rwOffsetS1  = 0u;
  74              		.loc 1 130 0
  75 003a 084B     		ldr	r3, .L2+20
  76 003c 1C80     		strh	r4, [r3]	@ movhi
 131:Generated_Source\PSoC5/EZI2Cs.c ****     EZI2Cs_rwIndexS1   = 0u;
  77              		.loc 1 131 0
  78 003e 084B     		ldr	r3, .L2+24
  79 0040 1C80     		strh	r4, [r3]	@ movhi
 132:Generated_Source\PSoC5/EZI2Cs.c ****     EZI2Cs_wrProtectS1 = 0u;
  80              		.loc 1 132 0
  81 0042 084B     		ldr	r3, .L2+28
  82 0044 1C80     		strh	r4, [r3]	@ movhi
  83 0046 10BD     		pop	{r4, pc}
  84              	.L3:
  85              		.align	2
  86              	.L2:
  87 0048 D6490040 		.word	1073760726
  88 004c 80E100E0 		.word	-536813184
  89 0050 00000000 		.word	EZI2Cs_ISR
  90 0054 00000000 		.word	EZI2Cs_curState
  91 0058 00000000 		.word	EZI2Cs_curStatus
  92 005c 00000000 		.word	EZI2Cs_rwOffsetS1
ARM GAS  C:\Users\yqh\AppData\Local\Temp\cc4JSwbY.s 			page 5


  93 0060 00000000 		.word	EZI2Cs_rwIndexS1
  94 0064 00000000 		.word	EZI2Cs_wrProtectS1
  95              		.cfi_endproc
  96              	.LFE0:
  97              		.size	EZI2Cs_Init, .-EZI2Cs_Init
  98              		.section	.text.EZI2Cs_Enable,"ax",%progbits
  99              		.align	1
 100              		.global	EZI2Cs_Enable
 101              		.thumb
 102              		.thumb_func
 103              		.type	EZI2Cs_Enable, %function
 104              	EZI2Cs_Enable:
 105              	.LFB1:
 133:Generated_Source\PSoC5/EZI2Cs.c **** 
 134:Generated_Source\PSoC5/EZI2Cs.c **** #if (EZI2Cs_ADDRESSES == EZI2Cs_TWO_ADDRESSES)
 135:Generated_Source\PSoC5/EZI2Cs.c ****     /* Reset all buffer 2 indexes (secondary address) */
 136:Generated_Source\PSoC5/EZI2Cs.c ****     EZI2Cs_rwOffsetS2  = 0u;
 137:Generated_Source\PSoC5/EZI2Cs.c ****     EZI2Cs_rwIndexS2   = 0u;
 138:Generated_Source\PSoC5/EZI2Cs.c ****     EZI2Cs_wrProtectS2 = 0u;
 139:Generated_Source\PSoC5/EZI2Cs.c **** #endif  /* (EZI2Cs_ADDRESSES == EZI2Cs_TWO_ADDRESSES) */
 140:Generated_Source\PSoC5/EZI2Cs.c **** }
 141:Generated_Source\PSoC5/EZI2Cs.c **** 
 142:Generated_Source\PSoC5/EZI2Cs.c **** 
 143:Generated_Source\PSoC5/EZI2Cs.c **** /*******************************************************************************
 144:Generated_Source\PSoC5/EZI2Cs.c **** * Function Name: EZI2Cs_Enable
 145:Generated_Source\PSoC5/EZI2Cs.c **** ********************************************************************************
 146:Generated_Source\PSoC5/EZI2Cs.c **** *
 147:Generated_Source\PSoC5/EZI2Cs.c **** * Summary:
 148:Generated_Source\PSoC5/EZI2Cs.c **** *  Activates the hardware and begins component operation.Calls EZI2C_EnableInt()
 149:Generated_Source\PSoC5/EZI2Cs.c **** *  to enable the I2C component interrupt. It is not necessary to call
 150:Generated_Source\PSoC5/EZI2Cs.c **** *  EZI2C_Enable() because the EZI2C_Start() API calls this function, which is
 151:Generated_Source\PSoC5/EZI2Cs.c **** *  the preferred method to begin component operation.
 152:Generated_Source\PSoC5/EZI2Cs.c **** *
 153:Generated_Source\PSoC5/EZI2Cs.c **** * Parameters:
 154:Generated_Source\PSoC5/EZI2Cs.c **** *  None.
 155:Generated_Source\PSoC5/EZI2Cs.c **** *
 156:Generated_Source\PSoC5/EZI2Cs.c **** * Return:
 157:Generated_Source\PSoC5/EZI2Cs.c **** *  None.
 158:Generated_Source\PSoC5/EZI2Cs.c **** *
 159:Generated_Source\PSoC5/EZI2Cs.c **** *******************************************************************************/
 160:Generated_Source\PSoC5/EZI2Cs.c **** void EZI2Cs_Enable(void) 
 161:Generated_Source\PSoC5/EZI2Cs.c **** {
 106              		.loc 1 161 0
 107              		.cfi_startproc
 108              		@ args = 0, pretend = 0, frame = 0
 109              		@ frame_needed = 0, uses_anonymous_args = 0
 110 0000 08B5     		push	{r3, lr}
 111              		.cfi_def_cfa_offset 8
 112              		.cfi_offset 3, -8
 113              		.cfi_offset 14, -4
 162:Generated_Source\PSoC5/EZI2Cs.c ****     uint8 intState;
 163:Generated_Source\PSoC5/EZI2Cs.c **** 
 164:Generated_Source\PSoC5/EZI2Cs.c ****     /* Enable power to block */
 165:Generated_Source\PSoC5/EZI2Cs.c ****     intState = CyEnterCriticalSection();
 114              		.loc 1 165 0
 115 0002 FFF7FEFF 		bl	CyEnterCriticalSection
 116              	.LVL2:
ARM GAS  C:\Users\yqh\AppData\Local\Temp\cc4JSwbY.s 			page 6


 166:Generated_Source\PSoC5/EZI2Cs.c ****     EZI2Cs_PM_ACT_CFG_REG  |= EZI2Cs_ACT_PWR_EN;
 117              		.loc 1 166 0
 118 0006 084A     		ldr	r2, .L5
 119 0008 1378     		ldrb	r3, [r2]	@ zero_extendqisi2
 120 000a 43F00403 		orr	r3, r3, #4
 121 000e 1370     		strb	r3, [r2]
 167:Generated_Source\PSoC5/EZI2Cs.c ****     EZI2Cs_PM_STBY_CFG_REG |= EZI2Cs_STBY_PWR_EN;
 122              		.loc 1 167 0
 123 0010 137C     		ldrb	r3, [r2, #16]	@ zero_extendqisi2
 124 0012 43F00403 		orr	r3, r3, #4
 125 0016 1374     		strb	r3, [r2, #16]
 168:Generated_Source\PSoC5/EZI2Cs.c ****     CyExitCriticalSection(intState);
 126              		.loc 1 168 0
 127 0018 FFF7FEFF 		bl	CyExitCriticalSection
 128              	.LVL3:
 169:Generated_Source\PSoC5/EZI2Cs.c **** 
 170:Generated_Source\PSoC5/EZI2Cs.c ****     /* Enable interrupt to start operation */
 171:Generated_Source\PSoC5/EZI2Cs.c ****     EZI2Cs_EnableInt();
 129              		.loc 1 171 0
 130 001c 034B     		ldr	r3, .L5+4
 131 001e 4FF40042 		mov	r2, #32768
 132 0022 1A60     		str	r2, [r3]
 133 0024 08BD     		pop	{r3, pc}
 134              	.L6:
 135 0026 00BF     		.align	2
 136              	.L5:
 137 0028 A5430040 		.word	1073759141
 138 002c 00E100E0 		.word	-536813312
 139              		.cfi_endproc
 140              	.LFE1:
 141              		.size	EZI2Cs_Enable, .-EZI2Cs_Enable
 142              		.section	.text.EZI2Cs_Start,"ax",%progbits
 143              		.align	1
 144              		.global	EZI2Cs_Start
 145              		.thumb
 146              		.thumb_func
 147              		.type	EZI2Cs_Start, %function
 148              	EZI2Cs_Start:
 149              	.LFB2:
 172:Generated_Source\PSoC5/EZI2Cs.c **** }
 173:Generated_Source\PSoC5/EZI2Cs.c **** 
 174:Generated_Source\PSoC5/EZI2Cs.c **** 
 175:Generated_Source\PSoC5/EZI2Cs.c **** /*******************************************************************************
 176:Generated_Source\PSoC5/EZI2Cs.c **** * Function Name: EZI2Cs_Start
 177:Generated_Source\PSoC5/EZI2Cs.c **** ********************************************************************************
 178:Generated_Source\PSoC5/EZI2Cs.c **** *
 179:Generated_Source\PSoC5/EZI2Cs.c **** * Summary:
 180:Generated_Source\PSoC5/EZI2Cs.c **** *  This is the preferred method to begin component operation. EZI2C_Start(),
 181:Generated_Source\PSoC5/EZI2Cs.c **** *  calls the EZI2C_Init() function, and then calls the EZI2C_Enable() function.
 182:Generated_Source\PSoC5/EZI2Cs.c **** *  It must be executed before I2C bus operation.
 183:Generated_Source\PSoC5/EZI2Cs.c **** *  This function enables the component interrupt because interrupt is required
 184:Generated_Source\PSoC5/EZI2Cs.c **** *  for most component operations.
 185:Generated_Source\PSoC5/EZI2Cs.c **** *
 186:Generated_Source\PSoC5/EZI2Cs.c **** * Parameters:
 187:Generated_Source\PSoC5/EZI2Cs.c **** *  None.
 188:Generated_Source\PSoC5/EZI2Cs.c **** *
 189:Generated_Source\PSoC5/EZI2Cs.c **** * Return:
ARM GAS  C:\Users\yqh\AppData\Local\Temp\cc4JSwbY.s 			page 7


 190:Generated_Source\PSoC5/EZI2Cs.c **** *  None.
 191:Generated_Source\PSoC5/EZI2Cs.c **** *
 192:Generated_Source\PSoC5/EZI2Cs.c **** * Reentrant:
 193:Generated_Source\PSoC5/EZI2Cs.c **** *  No.
 194:Generated_Source\PSoC5/EZI2Cs.c **** *
 195:Generated_Source\PSoC5/EZI2Cs.c **** *******************************************************************************/
 196:Generated_Source\PSoC5/EZI2Cs.c **** void EZI2Cs_Start(void) 
 197:Generated_Source\PSoC5/EZI2Cs.c **** {
 150              		.loc 1 197 0
 151              		.cfi_startproc
 152              		@ args = 0, pretend = 0, frame = 0
 153              		@ frame_needed = 0, uses_anonymous_args = 0
 154 0000 10B5     		push	{r4, lr}
 155              		.cfi_def_cfa_offset 8
 156              		.cfi_offset 4, -8
 157              		.cfi_offset 14, -4
 198:Generated_Source\PSoC5/EZI2Cs.c ****     if (0u == EZI2Cs_initVar)
 158              		.loc 1 198 0
 159 0002 054C     		ldr	r4, .L10
 160 0004 2378     		ldrb	r3, [r4]	@ zero_extendqisi2
 161 0006 1BB9     		cbnz	r3, .L8
 199:Generated_Source\PSoC5/EZI2Cs.c ****     {
 200:Generated_Source\PSoC5/EZI2Cs.c ****         EZI2Cs_Init();
 162              		.loc 1 200 0
 163 0008 FFF7FEFF 		bl	EZI2Cs_Init
 164              	.LVL4:
 201:Generated_Source\PSoC5/EZI2Cs.c ****         EZI2Cs_initVar = 1u; /* Component initialized */
 165              		.loc 1 201 0
 166 000c 0123     		movs	r3, #1
 167 000e 2370     		strb	r3, [r4]
 168              	.L8:
 202:Generated_Source\PSoC5/EZI2Cs.c ****     }
 203:Generated_Source\PSoC5/EZI2Cs.c **** 
 204:Generated_Source\PSoC5/EZI2Cs.c ****     EZI2Cs_Enable();
 205:Generated_Source\PSoC5/EZI2Cs.c **** }
 169              		.loc 1 205 0
 170 0010 BDE81040 		pop	{r4, lr}
 171              		.cfi_restore 14
 172              		.cfi_restore 4
 173              		.cfi_def_cfa_offset 0
 204:Generated_Source\PSoC5/EZI2Cs.c **** }
 174              		.loc 1 204 0
 175 0014 FFF7FEBF 		b	EZI2Cs_Enable
 176              	.LVL5:
 177              	.L11:
 178              		.align	2
 179              	.L10:
 180 0018 00000000 		.word	.LANCHOR0
 181              		.cfi_endproc
 182              	.LFE2:
 183              		.size	EZI2Cs_Start, .-EZI2Cs_Start
 184              		.section	.text.EZI2Cs_Stop,"ax",%progbits
 185              		.align	1
 186              		.global	EZI2Cs_Stop
 187              		.thumb
 188              		.thumb_func
 189              		.type	EZI2Cs_Stop, %function
ARM GAS  C:\Users\yqh\AppData\Local\Temp\cc4JSwbY.s 			page 8


 190              	EZI2Cs_Stop:
 191              	.LFB3:
 206:Generated_Source\PSoC5/EZI2Cs.c **** 
 207:Generated_Source\PSoC5/EZI2Cs.c **** 
 208:Generated_Source\PSoC5/EZI2Cs.c **** /*******************************************************************************
 209:Generated_Source\PSoC5/EZI2Cs.c **** * Function Name: EZI2Cs_Stop
 210:Generated_Source\PSoC5/EZI2Cs.c **** ********************************************************************************
 211:Generated_Source\PSoC5/EZI2Cs.c **** *
 212:Generated_Source\PSoC5/EZI2Cs.c **** * Summary:
 213:Generated_Source\PSoC5/EZI2Cs.c **** *  Disables I2C hardware and component interrupt. The I2C bus is released if it
 214:Generated_Source\PSoC5/EZI2Cs.c **** *  was locked up by the component.
 215:Generated_Source\PSoC5/EZI2Cs.c **** *
 216:Generated_Source\PSoC5/EZI2Cs.c **** * Parameters:
 217:Generated_Source\PSoC5/EZI2Cs.c **** *  None.
 218:Generated_Source\PSoC5/EZI2Cs.c **** *
 219:Generated_Source\PSoC5/EZI2Cs.c **** * Return:
 220:Generated_Source\PSoC5/EZI2Cs.c **** *  None.
 221:Generated_Source\PSoC5/EZI2Cs.c **** *
 222:Generated_Source\PSoC5/EZI2Cs.c **** *******************************************************************************/
 223:Generated_Source\PSoC5/EZI2Cs.c **** void EZI2Cs_Stop(void) 
 224:Generated_Source\PSoC5/EZI2Cs.c **** {
 192              		.loc 1 224 0
 193              		.cfi_startproc
 194              		@ args = 0, pretend = 0, frame = 0
 195              		@ frame_needed = 0, uses_anonymous_args = 0
 196 0000 2DE9F843 		push	{r3, r4, r5, r6, r7, r8, r9, lr}
 197              		.cfi_def_cfa_offset 32
 198              		.cfi_offset 3, -32
 199              		.cfi_offset 4, -28
 200              		.cfi_offset 5, -24
 201              		.cfi_offset 6, -20
 202              		.cfi_offset 7, -16
 203              		.cfi_offset 8, -12
 204              		.cfi_offset 9, -8
 205              		.cfi_offset 14, -4
 225:Generated_Source\PSoC5/EZI2Cs.c ****     uint8  intState;
 226:Generated_Source\PSoC5/EZI2Cs.c ****     uint16 blockResetCycles;
 227:Generated_Source\PSoC5/EZI2Cs.c **** 
 228:Generated_Source\PSoC5/EZI2Cs.c ****     EZI2Cs_DisableInt();
 206              		.loc 1 228 0
 207 0004 214B     		ldr	r3, .L13
 229:Generated_Source\PSoC5/EZI2Cs.c **** 
 230:Generated_Source\PSoC5/EZI2Cs.c ****     /* Store registers effected by block disable */
 231:Generated_Source\PSoC5/EZI2Cs.c ****     EZI2Cs_backup.adr     = EZI2Cs_ADDR_REG;
 208              		.loc 1 231 0
 209 0006 DFF8A880 		ldr	r8, .L13+36
 228:Generated_Source\PSoC5/EZI2Cs.c **** 
 210              		.loc 1 228 0
 211 000a 4FF40049 		mov	r9, #32768
 212 000e C3F80090 		str	r9, [r3]
 213              		.loc 1 231 0
 214 0012 98F80030 		ldrb	r3, [r8]	@ zero_extendqisi2
 215 0016 1E4C     		ldr	r4, .L13+4
 232:Generated_Source\PSoC5/EZI2Cs.c ****     EZI2Cs_backup.clkDiv1 = EZI2Cs_CLKDIV1_REG;
 216              		.loc 1 232 0
 217 0018 1E4F     		ldr	r7, .L13+8
 231:Generated_Source\PSoC5/EZI2Cs.c ****     EZI2Cs_backup.clkDiv1 = EZI2Cs_CLKDIV1_REG;
ARM GAS  C:\Users\yqh\AppData\Local\Temp\cc4JSwbY.s 			page 9


 218              		.loc 1 231 0
 219 001a A370     		strb	r3, [r4, #2]
 220              		.loc 1 232 0
 221 001c 3B78     		ldrb	r3, [r7]	@ zero_extendqisi2
 233:Generated_Source\PSoC5/EZI2Cs.c ****     EZI2Cs_backup.clkDiv2 = EZI2Cs_CLKDIV2_REG;
 222              		.loc 1 233 0
 223 001e 1E4E     		ldr	r6, .L13+12
 232:Generated_Source\PSoC5/EZI2Cs.c ****     EZI2Cs_backup.clkDiv1 = EZI2Cs_CLKDIV1_REG;
 224              		.loc 1 232 0
 225 0020 2371     		strb	r3, [r4, #4]
 226              		.loc 1 233 0
 227 0022 3378     		ldrb	r3, [r6]	@ zero_extendqisi2
 234:Generated_Source\PSoC5/EZI2Cs.c **** 
 235:Generated_Source\PSoC5/EZI2Cs.c ****     /* Calculate number of cycles to reset block */
 236:Generated_Source\PSoC5/EZI2Cs.c ****     blockResetCycles = ((uint16) ((uint16) EZI2Cs_CLKDIV2_REG << 8u) | EZI2Cs_CLKDIV1_REG) + 1u;
 237:Generated_Source\PSoC5/EZI2Cs.c **** 
 238:Generated_Source\PSoC5/EZI2Cs.c ****     /* Disable block */
 239:Generated_Source\PSoC5/EZI2Cs.c ****     EZI2Cs_CFG_REG &= (uint8) ~EZI2Cs_CFG_EN_SLAVE;
 228              		.loc 1 239 0
 229 0024 1D4D     		ldr	r5, .L13+16
 233:Generated_Source\PSoC5/EZI2Cs.c ****     EZI2Cs_backup.clkDiv2 = EZI2Cs_CLKDIV2_REG;
 230              		.loc 1 233 0
 231 0026 6371     		strb	r3, [r4, #5]
 236:Generated_Source\PSoC5/EZI2Cs.c **** 
 232              		.loc 1 236 0
 233 0028 3078     		ldrb	r0, [r6]	@ zero_extendqisi2
 234 002a 3B78     		ldrb	r3, [r7]	@ zero_extendqisi2
 235              	.LVL6:
 236              		.loc 1 239 0
 237 002c 2A78     		ldrb	r2, [r5]	@ zero_extendqisi2
 236:Generated_Source\PSoC5/EZI2Cs.c **** 
 238              		.loc 1 236 0
 239 002e 43EA0020 		orr	r0, r3, r0, lsl #8
 240              	.LVL7:
 241              		.loc 1 239 0
 242 0032 02F0FE02 		and	r2, r2, #254
 236:Generated_Source\PSoC5/EZI2Cs.c **** 
 243              		.loc 1 236 0
 244 0036 0130     		adds	r0, r0, #1
 245              		.loc 1 239 0
 246 0038 2A70     		strb	r2, [r5]
 240:Generated_Source\PSoC5/EZI2Cs.c ****     /* Wait for block reset before disable power */
 241:Generated_Source\PSoC5/EZI2Cs.c ****     CyDelayCycles((uint32) blockResetCycles);
 247              		.loc 1 241 0
 248 003a 80B2     		uxth	r0, r0
 249 003c FFF7FEFF 		bl	CyDelayCycles
 250              	.LVL8:
 242:Generated_Source\PSoC5/EZI2Cs.c **** 
 243:Generated_Source\PSoC5/EZI2Cs.c ****     /* Disable power to block */
 244:Generated_Source\PSoC5/EZI2Cs.c ****     intState = CyEnterCriticalSection();
 251              		.loc 1 244 0
 252 0040 FFF7FEFF 		bl	CyEnterCriticalSection
 253              	.LVL9:
 245:Generated_Source\PSoC5/EZI2Cs.c ****     EZI2Cs_PM_ACT_CFG_REG  &= (uint8) ~EZI2Cs_ACT_PWR_EN;
 254              		.loc 1 245 0
 255 0044 164A     		ldr	r2, .L13+20
 256 0046 1378     		ldrb	r3, [r2]	@ zero_extendqisi2
ARM GAS  C:\Users\yqh\AppData\Local\Temp\cc4JSwbY.s 			page 10


 257 0048 03F0FB03 		and	r3, r3, #251
 258 004c 1370     		strb	r3, [r2]
 246:Generated_Source\PSoC5/EZI2Cs.c ****     EZI2Cs_PM_STBY_CFG_REG &= (uint8) ~EZI2Cs_STBY_PWR_EN;
 259              		.loc 1 246 0
 260 004e 137C     		ldrb	r3, [r2, #16]	@ zero_extendqisi2
 261 0050 03F0FB03 		and	r3, r3, #251
 262 0054 1374     		strb	r3, [r2, #16]
 247:Generated_Source\PSoC5/EZI2Cs.c ****     CyExitCriticalSection(intState);
 263              		.loc 1 247 0
 264 0056 FFF7FEFF 		bl	CyExitCriticalSection
 265              	.LVL10:
 248:Generated_Source\PSoC5/EZI2Cs.c **** 
 249:Generated_Source\PSoC5/EZI2Cs.c ****     /* Enable block */
 250:Generated_Source\PSoC5/EZI2Cs.c ****     EZI2Cs_CFG_REG |= (uint8) EZI2Cs_CFG_EN_SLAVE;
 266              		.loc 1 250 0
 267 005a 2B78     		ldrb	r3, [r5]	@ zero_extendqisi2
 251:Generated_Source\PSoC5/EZI2Cs.c **** 
 252:Generated_Source\PSoC5/EZI2Cs.c ****     /* Restore registers effected by block disable. Ticket ID#198004 */
 253:Generated_Source\PSoC5/EZI2Cs.c ****     EZI2Cs_ADDR_REG    = EZI2Cs_backup.adr;
 254:Generated_Source\PSoC5/EZI2Cs.c ****     EZI2Cs_ADDR_REG    = EZI2Cs_backup.adr;
 255:Generated_Source\PSoC5/EZI2Cs.c ****     EZI2Cs_CLKDIV1_REG = EZI2Cs_backup.clkDiv1;
 256:Generated_Source\PSoC5/EZI2Cs.c ****     EZI2Cs_CLKDIV2_REG = EZI2Cs_backup.clkDiv2;
 257:Generated_Source\PSoC5/EZI2Cs.c **** 
 258:Generated_Source\PSoC5/EZI2Cs.c ****     EZI2Cs_ClearPendingInt();
 259:Generated_Source\PSoC5/EZI2Cs.c **** 
 260:Generated_Source\PSoC5/EZI2Cs.c ****     /* Reset state and status to default */
 261:Generated_Source\PSoC5/EZI2Cs.c ****     EZI2Cs_curState  = EZI2Cs_SM_IDLE;
 268              		.loc 1 261 0
 269 005c 114A     		ldr	r2, .L13+24
 250:Generated_Source\PSoC5/EZI2Cs.c **** 
 270              		.loc 1 250 0
 271 005e 43F00103 		orr	r3, r3, #1
 272 0062 2B70     		strb	r3, [r5]
 253:Generated_Source\PSoC5/EZI2Cs.c ****     EZI2Cs_ADDR_REG    = EZI2Cs_backup.adr;
 273              		.loc 1 253 0
 274 0064 A378     		ldrb	r3, [r4, #2]	@ zero_extendqisi2
 275 0066 88F80030 		strb	r3, [r8]
 254:Generated_Source\PSoC5/EZI2Cs.c ****     EZI2Cs_CLKDIV1_REG = EZI2Cs_backup.clkDiv1;
 276              		.loc 1 254 0
 277 006a A378     		ldrb	r3, [r4, #2]	@ zero_extendqisi2
 278 006c 88F80030 		strb	r3, [r8]
 255:Generated_Source\PSoC5/EZI2Cs.c ****     EZI2Cs_CLKDIV2_REG = EZI2Cs_backup.clkDiv2;
 279              		.loc 1 255 0
 280 0070 2379     		ldrb	r3, [r4, #4]	@ zero_extendqisi2
 281 0072 3B70     		strb	r3, [r7]
 256:Generated_Source\PSoC5/EZI2Cs.c **** 
 282              		.loc 1 256 0
 283 0074 6379     		ldrb	r3, [r4, #5]	@ zero_extendqisi2
 284 0076 3370     		strb	r3, [r6]
 258:Generated_Source\PSoC5/EZI2Cs.c **** 
 285              		.loc 1 258 0
 286 0078 0B4B     		ldr	r3, .L13+28
 287 007a C3F80090 		str	r9, [r3]
 288              		.loc 1 261 0
 289 007e 0023     		movs	r3, #0
 290 0080 1370     		strb	r3, [r2]
 262:Generated_Source\PSoC5/EZI2Cs.c ****     EZI2Cs_curStatus = 0u;
ARM GAS  C:\Users\yqh\AppData\Local\Temp\cc4JSwbY.s 			page 11


 291              		.loc 1 262 0
 292 0082 0A4A     		ldr	r2, .L13+32
 293 0084 1370     		strb	r3, [r2]
 294 0086 BDE8F883 		pop	{r3, r4, r5, r6, r7, r8, r9, pc}
 295              	.L14:
 296 008a 00BF     		.align	2
 297              	.L13:
 298 008c 80E100E0 		.word	-536813184
 299 0090 00000000 		.word	EZI2Cs_backup
 300 0094 DB490040 		.word	1073760731
 301 0098 DC490040 		.word	1073760732
 302 009c D6490040 		.word	1073760726
 303 00a0 A5430040 		.word	1073759141
 304 00a4 00000000 		.word	EZI2Cs_curState
 305 00a8 80E200E0 		.word	-536812928
 306 00ac 00000000 		.word	EZI2Cs_curStatus
 307 00b0 CA490040 		.word	1073760714
 308              		.cfi_endproc
 309              	.LFE3:
 310              		.size	EZI2Cs_Stop, .-EZI2Cs_Stop
 311              		.section	.text.EZI2Cs_SetAddress1,"ax",%progbits
 312              		.align	1
 313              		.global	EZI2Cs_SetAddress1
 314              		.thumb
 315              		.thumb_func
 316              		.type	EZI2Cs_SetAddress1, %function
 317              	EZI2Cs_SetAddress1:
 318              	.LFB4:
 263:Generated_Source\PSoC5/EZI2Cs.c **** }
 264:Generated_Source\PSoC5/EZI2Cs.c **** 
 265:Generated_Source\PSoC5/EZI2Cs.c **** 
 266:Generated_Source\PSoC5/EZI2Cs.c **** /*******************************************************************************
 267:Generated_Source\PSoC5/EZI2Cs.c **** * Function Name: EZI2Cs_SetAddress1
 268:Generated_Source\PSoC5/EZI2Cs.c **** ********************************************************************************
 269:Generated_Source\PSoC5/EZI2Cs.c **** *
 270:Generated_Source\PSoC5/EZI2Cs.c **** * Summary:
 271:Generated_Source\PSoC5/EZI2Cs.c **** *  Sets the primary I2C slave address. This address is used by the master to
 272:Generated_Source\PSoC5/EZI2Cs.c **** *  access the primary data buffer.
 273:Generated_Source\PSoC5/EZI2Cs.c **** *
 274:Generated_Source\PSoC5/EZI2Cs.c **** * Parameters:
 275:Generated_Source\PSoC5/EZI2Cs.c **** *  address: Primary I2C slave address.
 276:Generated_Source\PSoC5/EZI2Cs.c **** *           This address is the 7-bit right-justified slave address and does not
 277:Generated_Source\PSoC5/EZI2Cs.c **** *           include the R/W bit.
 278:Generated_Source\PSoC5/EZI2Cs.c **** *           This value can be any address between 0 and 127 (0x00 to 0x7F).
 279:Generated_Source\PSoC5/EZI2Cs.c **** *
 280:Generated_Source\PSoC5/EZI2Cs.c **** * Return:
 281:Generated_Source\PSoC5/EZI2Cs.c **** *  None.
 282:Generated_Source\PSoC5/EZI2Cs.c **** *
 283:Generated_Source\PSoC5/EZI2Cs.c **** * Global variables:
 284:Generated_Source\PSoC5/EZI2Cs.c **** *  EZI2Cs_addrS1 - A new slave address for the first slave device is
 285:Generated_Source\PSoC5/EZI2Cs.c **** *  saved in it, if the component is configured to act as two slave devices.
 286:Generated_Source\PSoC5/EZI2Cs.c **** *
 287:Generated_Source\PSoC5/EZI2Cs.c **** * Reentrant:
 288:Generated_Source\PSoC5/EZI2Cs.c **** *  No, if two addresses are used.
 289:Generated_Source\PSoC5/EZI2Cs.c **** *
 290:Generated_Source\PSoC5/EZI2Cs.c **** *******************************************************************************/
 291:Generated_Source\PSoC5/EZI2Cs.c **** void EZI2Cs_SetAddress1(uint8 address) 
ARM GAS  C:\Users\yqh\AppData\Local\Temp\cc4JSwbY.s 			page 12


 292:Generated_Source\PSoC5/EZI2Cs.c **** {
 319              		.loc 1 292 0
 320              		.cfi_startproc
 321              		@ args = 0, pretend = 0, frame = 0
 322              		@ frame_needed = 0, uses_anonymous_args = 0
 323              		@ link register save eliminated.
 324              	.LVL11:
 293:Generated_Source\PSoC5/EZI2Cs.c **** #if (EZI2Cs_ONE_ADDRESS == EZI2Cs_ADDRESSES)
 294:Generated_Source\PSoC5/EZI2Cs.c ****     EZI2Cs_ADDR_REG = (address & EZI2Cs_SADDR_MASK);
 325              		.loc 1 294 0
 326 0000 024B     		ldr	r3, .L16
 327 0002 00F07F00 		and	r0, r0, #127
 328              	.LVL12:
 329 0006 1870     		strb	r0, [r3]
 330 0008 7047     		bx	lr
 331              	.L17:
 332 000a 00BF     		.align	2
 333              	.L16:
 334 000c CA490040 		.word	1073760714
 335              		.cfi_endproc
 336              	.LFE4:
 337              		.size	EZI2Cs_SetAddress1, .-EZI2Cs_SetAddress1
 338              		.section	.text.EZI2Cs_GetAddress1,"ax",%progbits
 339              		.align	1
 340              		.global	EZI2Cs_GetAddress1
 341              		.thumb
 342              		.thumb_func
 343              		.type	EZI2Cs_GetAddress1, %function
 344              	EZI2Cs_GetAddress1:
 345              	.LFB5:
 295:Generated_Source\PSoC5/EZI2Cs.c **** #else
 296:Generated_Source\PSoC5/EZI2Cs.c ****     EZI2Cs_addrS1   = (address & EZI2Cs_SADDR_MASK);
 297:Generated_Source\PSoC5/EZI2Cs.c **** #endif /* (EZI2Cs_ONE_ADDRESS == EZI2Cs_ADDRESSES) */
 298:Generated_Source\PSoC5/EZI2Cs.c **** }
 299:Generated_Source\PSoC5/EZI2Cs.c **** 
 300:Generated_Source\PSoC5/EZI2Cs.c **** 
 301:Generated_Source\PSoC5/EZI2Cs.c **** /*******************************************************************************
 302:Generated_Source\PSoC5/EZI2Cs.c **** * Function Name: EZI2Cs_GetAddress1
 303:Generated_Source\PSoC5/EZI2Cs.c **** ********************************************************************************
 304:Generated_Source\PSoC5/EZI2Cs.c **** *
 305:Generated_Source\PSoC5/EZI2Cs.c **** * Summary:
 306:Generated_Source\PSoC5/EZI2Cs.c **** *  Returns the primary I2C slave address.
 307:Generated_Source\PSoC5/EZI2Cs.c **** *  This address is the 7-bit right-justified slave address and does not include
 308:Generated_Source\PSoC5/EZI2Cs.c **** *  the R/W bit.
 309:Generated_Source\PSoC5/EZI2Cs.c **** *
 310:Generated_Source\PSoC5/EZI2Cs.c **** * Parameters:
 311:Generated_Source\PSoC5/EZI2Cs.c **** *  None.
 312:Generated_Source\PSoC5/EZI2Cs.c **** *
 313:Generated_Source\PSoC5/EZI2Cs.c **** * Return:
 314:Generated_Source\PSoC5/EZI2Cs.c **** *  Primary I2C slave address.
 315:Generated_Source\PSoC5/EZI2Cs.c **** *
 316:Generated_Source\PSoC5/EZI2Cs.c **** * Global variables:
 317:Generated_Source\PSoC5/EZI2Cs.c **** *  EZI2Cs_addrS1 - If component is configured to has two slave
 318:Generated_Source\PSoC5/EZI2Cs.c **** *  addresses than the primary address is saved here, otherwise the address is written to
 319:Generated_Source\PSoC5/EZI2Cs.c **** *  the register.
 320:Generated_Source\PSoC5/EZI2Cs.c **** *
 321:Generated_Source\PSoC5/EZI2Cs.c **** * Reentrant:
ARM GAS  C:\Users\yqh\AppData\Local\Temp\cc4JSwbY.s 			page 13


 322:Generated_Source\PSoC5/EZI2Cs.c **** *  No.
 323:Generated_Source\PSoC5/EZI2Cs.c **** *
 324:Generated_Source\PSoC5/EZI2Cs.c **** *******************************************************************************/
 325:Generated_Source\PSoC5/EZI2Cs.c **** uint8 EZI2Cs_GetAddress1(void) 
 326:Generated_Source\PSoC5/EZI2Cs.c **** {
 346              		.loc 1 326 0
 347              		.cfi_startproc
 348              		@ args = 0, pretend = 0, frame = 0
 349              		@ frame_needed = 0, uses_anonymous_args = 0
 350              		@ link register save eliminated.
 327:Generated_Source\PSoC5/EZI2Cs.c **** #if (EZI2Cs_ONE_ADDRESS == EZI2Cs_ADDRESSES)
 328:Generated_Source\PSoC5/EZI2Cs.c ****     return (EZI2Cs_ADDR_REG);
 351              		.loc 1 328 0
 352 0000 014B     		ldr	r3, .L19
 353 0002 1878     		ldrb	r0, [r3]	@ zero_extendqisi2
 329:Generated_Source\PSoC5/EZI2Cs.c **** #else
 330:Generated_Source\PSoC5/EZI2Cs.c ****     return (EZI2Cs_addrS1);
 331:Generated_Source\PSoC5/EZI2Cs.c **** #endif /* (EZI2Cs_ONE_ADDRESS == EZI2Cs_ADDRESSES) */
 332:Generated_Source\PSoC5/EZI2Cs.c **** }
 354              		.loc 1 332 0
 355 0004 7047     		bx	lr
 356              	.L20:
 357 0006 00BF     		.align	2
 358              	.L19:
 359 0008 CA490040 		.word	1073760714
 360              		.cfi_endproc
 361              	.LFE5:
 362              		.size	EZI2Cs_GetAddress1, .-EZI2Cs_GetAddress1
 363              		.section	.text.EZI2Cs_GetActivity,"ax",%progbits
 364              		.align	1
 365              		.global	EZI2Cs_GetActivity
 366              		.thumb
 367              		.thumb_func
 368              		.type	EZI2Cs_GetActivity, %function
 369              	EZI2Cs_GetActivity:
 370              	.LFB6:
 333:Generated_Source\PSoC5/EZI2Cs.c **** 
 334:Generated_Source\PSoC5/EZI2Cs.c **** 
 335:Generated_Source\PSoC5/EZI2Cs.c **** /*******************************************************************************
 336:Generated_Source\PSoC5/EZI2Cs.c **** * Function Name: EZI2Cs_GetActivity
 337:Generated_Source\PSoC5/EZI2Cs.c **** ********************************************************************************
 338:Generated_Source\PSoC5/EZI2Cs.c **** *
 339:Generated_Source\PSoC5/EZI2Cs.c **** * Summary:
 340:Generated_Source\PSoC5/EZI2Cs.c **** *  Returns a non-zero value if an I2C read or write cycle has occurred since
 341:Generated_Source\PSoC5/EZI2Cs.c **** *  the last time this function was called. The activity flag resets to zero at
 342:Generated_Source\PSoC5/EZI2Cs.c **** *  the end of this function call.
 343:Generated_Source\PSoC5/EZI2Cs.c **** *  The Read and Write busy flags are cleared when read, but the “BUSY” flag is
 344:Generated_Source\PSoC5/EZI2Cs.c **** *  only cleared when slave is free (i.e master finishes communication with
 345:Generated_Source\PSoC5/EZI2Cs.c **** *  slave generating Stop or repeated Start condition).
 346:Generated_Source\PSoC5/EZI2Cs.c **** *
 347:Generated_Source\PSoC5/EZI2Cs.c **** * Parameters:
 348:Generated_Source\PSoC5/EZI2Cs.c **** *  None
 349:Generated_Source\PSoC5/EZI2Cs.c **** *
 350:Generated_Source\PSoC5/EZI2Cs.c **** * Return:
 351:Generated_Source\PSoC5/EZI2Cs.c **** *  Status of I2C activity.
 352:Generated_Source\PSoC5/EZI2Cs.c **** *
 353:Generated_Source\PSoC5/EZI2Cs.c **** *   EZI2Cs_STATUS_READ1   Set if a Read sequence is detected for the first
ARM GAS  C:\Users\yqh\AppData\Local\Temp\cc4JSwbY.s 			page 14


 354:Generated_Source\PSoC5/EZI2Cs.c **** *                                   address. Cleared when the status is read.
 355:Generated_Source\PSoC5/EZI2Cs.c **** *
 356:Generated_Source\PSoC5/EZI2Cs.c **** *   EZI2Cs_STATUS_WRITE1  Set if a Write sequence is detected for the first
 357:Generated_Source\PSoC5/EZI2Cs.c **** *                                   address. Cleared when the status is  read.
 358:Generated_Source\PSoC5/EZI2Cs.c **** *
 359:Generated_Source\PSoC5/EZI2Cs.c **** *   EZI2Cs_STATUS_READ2   Set if a Read sequence is detected for the second
 360:Generated_Source\PSoC5/EZI2Cs.c **** *                                   address (if enabled). Cleared when the status
 361:Generated_Source\PSoC5/EZI2Cs.c **** *                                   read.
 362:Generated_Source\PSoC5/EZI2Cs.c **** *
 363:Generated_Source\PSoC5/EZI2Cs.c **** *   EZI2Cs_STATUS_WRITE2  Set if a Write sequence is detected for the second
 364:Generated_Source\PSoC5/EZI2Cs.c **** *                                   address (if enabled). Cleared when the status is
 365:Generated_Source\PSoC5/EZI2Cs.c **** *                                   read.
 366:Generated_Source\PSoC5/EZI2Cs.c **** *
 367:Generated_Source\PSoC5/EZI2Cs.c **** *   EZI2Cs_STATUS_BUSY    Set when the master starts communication with
 368:Generated_Source\PSoC5/EZI2Cs.c **** *                                   the slave (the slave is addressed with Start or
 369:Generated_Source\PSoC5/EZI2Cs.c **** *                                   repeated Start) and cleared when the master
 370:Generated_Source\PSoC5/EZI2Cs.c **** *                                   finishes communication (a Stop or repeated
 371:Generated_Source\PSoC5/EZI2Cs.c **** *                                   Start condition is generated).
 372:Generated_Source\PSoC5/EZI2Cs.c **** *
 373:Generated_Source\PSoC5/EZI2Cs.c **** *   EZI2Cs_STATUS_ERR     Set when the I2C hardware is detected, cleared
 374:Generated_Source\PSoC5/EZI2Cs.c **** *                                   when the status is read.
 375:Generated_Source\PSoC5/EZI2Cs.c **** *
 376:Generated_Source\PSoC5/EZI2Cs.c **** * Global variables:
 377:Generated_Source\PSoC5/EZI2Cs.c **** *  EZI2Cs_curStatus - The global variable which stores the current
 378:Generated_Source\PSoC5/EZI2Cs.c **** *  component status.
 379:Generated_Source\PSoC5/EZI2Cs.c **** *
 380:Generated_Source\PSoC5/EZI2Cs.c **** * Reentrant:
 381:Generated_Source\PSoC5/EZI2Cs.c **** *  No.
 382:Generated_Source\PSoC5/EZI2Cs.c **** *
 383:Generated_Source\PSoC5/EZI2Cs.c **** *******************************************************************************/
 384:Generated_Source\PSoC5/EZI2Cs.c **** uint8 EZI2Cs_GetActivity(void) 
 385:Generated_Source\PSoC5/EZI2Cs.c **** {
 371              		.loc 1 385 0
 372              		.cfi_startproc
 373              		@ args = 0, pretend = 0, frame = 0
 374              		@ frame_needed = 0, uses_anonymous_args = 0
 375              		@ link register save eliminated.
 386:Generated_Source\PSoC5/EZI2Cs.c ****     uint8 tmpStatus;
 387:Generated_Source\PSoC5/EZI2Cs.c **** 
 388:Generated_Source\PSoC5/EZI2Cs.c ****     EZI2Cs_DisableInt(); /* Lock from component interrupt */
 376              		.loc 1 388 0
 377 0000 064B     		ldr	r3, .L22
 389:Generated_Source\PSoC5/EZI2Cs.c **** 
 390:Generated_Source\PSoC5/EZI2Cs.c ****     tmpStatus = EZI2Cs_curStatus;
 378              		.loc 1 390 0
 379 0002 074A     		ldr	r2, .L22+4
 388:Generated_Source\PSoC5/EZI2Cs.c **** 
 380              		.loc 1 388 0
 381 0004 4FF40041 		mov	r1, #32768
 382 0008 1960     		str	r1, [r3]
 383              		.loc 1 390 0
 384 000a 1078     		ldrb	r0, [r2]	@ zero_extendqisi2
 385              	.LVL13:
 391:Generated_Source\PSoC5/EZI2Cs.c ****     /* Clear status bits. Do not touch busy status */
 392:Generated_Source\PSoC5/EZI2Cs.c ****     EZI2Cs_curStatus &= EZI2Cs_STATUS_BUSY;
 386              		.loc 1 392 0
 387 000c 1378     		ldrb	r3, [r2]	@ zero_extendqisi2
ARM GAS  C:\Users\yqh\AppData\Local\Temp\cc4JSwbY.s 			page 15


 388 000e 03F01003 		and	r3, r3, #16
 389 0012 DBB2     		uxtb	r3, r3
 390 0014 1370     		strb	r3, [r2]
 393:Generated_Source\PSoC5/EZI2Cs.c **** 
 394:Generated_Source\PSoC5/EZI2Cs.c ****     EZI2Cs_EnableInt(); /* Release lock */
 391              		.loc 1 394 0
 392 0016 034B     		ldr	r3, .L22+8
 393 0018 1960     		str	r1, [r3]
 395:Generated_Source\PSoC5/EZI2Cs.c **** 
 396:Generated_Source\PSoC5/EZI2Cs.c ****     return (tmpStatus);
 397:Generated_Source\PSoC5/EZI2Cs.c **** }
 394              		.loc 1 397 0
 395 001a 7047     		bx	lr
 396              	.L23:
 397              		.align	2
 398              	.L22:
 399 001c 80E100E0 		.word	-536813184
 400 0020 00000000 		.word	EZI2Cs_curStatus
 401 0024 00E100E0 		.word	-536813312
 402              		.cfi_endproc
 403              	.LFE6:
 404              		.size	EZI2Cs_GetActivity, .-EZI2Cs_GetActivity
 405              		.section	.text.EZI2Cs_SetBuffer1,"ax",%progbits
 406              		.align	1
 407              		.global	EZI2Cs_SetBuffer1
 408              		.thumb
 409              		.thumb_func
 410              		.type	EZI2Cs_SetBuffer1, %function
 411              	EZI2Cs_SetBuffer1:
 412              	.LFB7:
 398:Generated_Source\PSoC5/EZI2Cs.c **** 
 399:Generated_Source\PSoC5/EZI2Cs.c **** 
 400:Generated_Source\PSoC5/EZI2Cs.c **** /*******************************************************************************
 401:Generated_Source\PSoC5/EZI2Cs.c **** * Function Name: EZI2Cs_SetBuffer1
 402:Generated_Source\PSoC5/EZI2Cs.c **** ********************************************************************************
 403:Generated_Source\PSoC5/EZI2Cs.c **** *
 404:Generated_Source\PSoC5/EZI2Cs.c **** * Summary:
 405:Generated_Source\PSoC5/EZI2Cs.c **** *  Sets up the data buffer to be exposed to the master on a primary slave
 406:Generated_Source\PSoC5/EZI2Cs.c **** *  address request.
 407:Generated_Source\PSoC5/EZI2Cs.c **** *
 408:Generated_Source\PSoC5/EZI2Cs.c **** * Parameters:
 409:Generated_Source\PSoC5/EZI2Cs.c **** *  bufSize:    Size of the buffer in bytes.
 410:Generated_Source\PSoC5/EZI2Cs.c **** *  rwBoundary: Number of data bytes starting from the beginning of the buffer
 411:Generated_Source\PSoC5/EZI2Cs.c **** *              with read and write access. Data bytes located at offset
 412:Generated_Source\PSoC5/EZI2Cs.c **** *              rwBoundary or greater are read only.
 413:Generated_Source\PSoC5/EZI2Cs.c **** *              This value must be less than or equal to the buffer size.
 414:Generated_Source\PSoC5/EZI2Cs.c **** *  dataPtr:    Pointer to the data buffer.
 415:Generated_Source\PSoC5/EZI2Cs.c **** *
 416:Generated_Source\PSoC5/EZI2Cs.c **** * Return:
 417:Generated_Source\PSoC5/EZI2Cs.c **** *  None.
 418:Generated_Source\PSoC5/EZI2Cs.c **** *
 419:Generated_Source\PSoC5/EZI2Cs.c **** * Global variables:
 420:Generated_Source\PSoC5/EZI2Cs.c **** *  EZI2Cs_dataPtrS1 - Stores the pointer to the data exposed to an I2C
 421:Generated_Source\PSoC5/EZI2Cs.c **** *  master for the first slave address, is modified with the the new pointer to    the    ?? no sens
 422:Generated_Source\PSoC5/EZI2Cs.c **** *  data passed by the function parameter.
 423:Generated_Source\PSoC5/EZI2Cs.c **** *
 424:Generated_Source\PSoC5/EZI2Cs.c **** *  EZI2Cs_rwOffsetS1 - Stores an offset for read and write operations, is
ARM GAS  C:\Users\yqh\AppData\Local\Temp\cc4JSwbY.s 			page 16


 425:Generated_Source\PSoC5/EZI2Cs.c **** *  modified at each write sequence of the first slave address is?? reset.   ?
 426:Generated_Source\PSoC5/EZI2Cs.c **** *
 427:Generated_Source\PSoC5/EZI2Cs.c **** *  EZI2Cs_rwIndexS1 - Stores the pointer to the next value to be read or
 428:Generated_Source\PSoC5/EZI2Cs.c **** *  written for the first slave address is?? set to 0.  ??
 429:Generated_Source\PSoC5/EZI2Cs.c **** *
 430:Generated_Source\PSoC5/EZI2Cs.c **** * Reentrant:
 431:Generated_Source\PSoC5/EZI2Cs.c **** *  No.
 432:Generated_Source\PSoC5/EZI2Cs.c **** *
 433:Generated_Source\PSoC5/EZI2Cs.c **** *******************************************************************************/
 434:Generated_Source\PSoC5/EZI2Cs.c **** void EZI2Cs_SetBuffer1(uint16 bufSize, uint16 rwBoundary, volatile uint8 * dataPtr) 
 435:Generated_Source\PSoC5/EZI2Cs.c **** {
 413              		.loc 1 435 0
 414              		.cfi_startproc
 415              		@ args = 0, pretend = 0, frame = 0
 416              		@ frame_needed = 0, uses_anonymous_args = 0
 417              	.LVL14:
 436:Generated_Source\PSoC5/EZI2Cs.c ****     EZI2Cs_DisableInt(); /* Lock from component interrupt */
 418              		.loc 1 436 0
 419 0000 0A4B     		ldr	r3, .L29
 435:Generated_Source\PSoC5/EZI2Cs.c ****     EZI2Cs_DisableInt(); /* Lock from component interrupt */
 420              		.loc 1 435 0
 421 0002 10B5     		push	{r4, lr}
 422              		.cfi_def_cfa_offset 8
 423              		.cfi_offset 4, -8
 424              		.cfi_offset 14, -4
 425              		.loc 1 436 0
 426 0004 4FF40044 		mov	r4, #32768
 427 0008 1C60     		str	r4, [r3]
 437:Generated_Source\PSoC5/EZI2Cs.c **** 
 438:Generated_Source\PSoC5/EZI2Cs.c ****     if (NULL != dataPtr)
 428              		.loc 1 438 0
 429 000a 2AB1     		cbz	r2, .L25
 439:Generated_Source\PSoC5/EZI2Cs.c ****     {
 440:Generated_Source\PSoC5/EZI2Cs.c ****         /* Configure buffer 1 */
 441:Generated_Source\PSoC5/EZI2Cs.c ****         EZI2Cs_dataPtrS1   = dataPtr;
 430              		.loc 1 441 0
 431 000c 084B     		ldr	r3, .L29+4
 432 000e 1A60     		str	r2, [r3]
 442:Generated_Source\PSoC5/EZI2Cs.c ****         EZI2Cs_bufSizeS1   = bufSize;
 433              		.loc 1 442 0
 434 0010 084B     		ldr	r3, .L29+8
 435 0012 1880     		strh	r0, [r3]	@ movhi
 443:Generated_Source\PSoC5/EZI2Cs.c ****         EZI2Cs_wrProtectS1 = rwBoundary;
 436              		.loc 1 443 0
 437 0014 084B     		ldr	r3, .L29+12
 438 0016 1980     		strh	r1, [r3]	@ movhi
 439              	.L25:
 444:Generated_Source\PSoC5/EZI2Cs.c ****     }
 445:Generated_Source\PSoC5/EZI2Cs.c **** 
 446:Generated_Source\PSoC5/EZI2Cs.c ****     /* Clear buffer offset and index */
 447:Generated_Source\PSoC5/EZI2Cs.c ****     EZI2Cs_rwOffsetS1 = 0u;
 440              		.loc 1 447 0
 441 0018 084A     		ldr	r2, .L29+16
 442              	.LVL15:
 443 001a 0023     		movs	r3, #0
 444 001c 1380     		strh	r3, [r2]	@ movhi
 448:Generated_Source\PSoC5/EZI2Cs.c ****     EZI2Cs_rwIndexS1  = 0u;
ARM GAS  C:\Users\yqh\AppData\Local\Temp\cc4JSwbY.s 			page 17


 445              		.loc 1 448 0
 446 001e 084A     		ldr	r2, .L29+20
 447 0020 1380     		strh	r3, [r2]	@ movhi
 449:Generated_Source\PSoC5/EZI2Cs.c **** 
 450:Generated_Source\PSoC5/EZI2Cs.c ****     EZI2Cs_EnableInt(); /* Release lock */
 448              		.loc 1 450 0
 449 0022 084B     		ldr	r3, .L29+24
 450 0024 4FF40042 		mov	r2, #32768
 451 0028 1A60     		str	r2, [r3]
 452 002a 10BD     		pop	{r4, pc}
 453              	.L30:
 454              		.align	2
 455              	.L29:
 456 002c 80E100E0 		.word	-536813184
 457 0030 00000000 		.word	EZI2Cs_dataPtrS1
 458 0034 00000000 		.word	EZI2Cs_bufSizeS1
 459 0038 00000000 		.word	EZI2Cs_wrProtectS1
 460 003c 00000000 		.word	EZI2Cs_rwOffsetS1
 461 0040 00000000 		.word	EZI2Cs_rwIndexS1
 462 0044 00E100E0 		.word	-536813312
 463              		.cfi_endproc
 464              	.LFE7:
 465              		.size	EZI2Cs_SetBuffer1, .-EZI2Cs_SetBuffer1
 466              		.comm	EZI2Cs_rwIndexS1,2,2
 467              		.comm	EZI2Cs_rwOffsetS1,2,2
 468              		.comm	EZI2Cs_wrProtectS1,2,2
 469              		.comm	EZI2Cs_bufSizeS1,2,2
 470              		.comm	EZI2Cs_dataPtrS1,4,4
 471              		.comm	EZI2Cs_curState,1,1
 472              		.comm	EZI2Cs_curStatus,1,1
 473              		.global	EZI2Cs_initVar
 474              		.bss
 475              		.set	.LANCHOR0,. + 0
 476              		.type	EZI2Cs_initVar, %object
 477              		.size	EZI2Cs_initVar, 1
 478              	EZI2Cs_initVar:
 479 0000 00       		.space	1
 480              		.text
 481              	.Letext0:
 482              		.file 2 "Generated_Source\\PSoC5\\cytypes.h"
 483              		.file 3 "Generated_Source\\PSoC5\\EZI2Cs.h"
 484              		.file 4 "Generated_Source\\PSoC5\\EZI2Cs_PVT.h"
 485              		.file 5 "Generated_Source\\PSoC5\\CyLib.h"