ARM GAS  C:\Users\yqh\AppData\Local\Temp\ccqpxfYa.s 			page 1


   1              		.syntax unified
   2              		.cpu cortex-m3
   3              		.fpu softvfp
   4              		.eabi_attribute 20, 1
   5              		.eabi_attribute 21, 1
   6              		.eabi_attribute 23, 3
   7              		.eabi_attribute 24, 1
   8              		.eabi_attribute 25, 1
   9              		.eabi_attribute 26, 1
  10              		.eabi_attribute 30, 4
  11              		.eabi_attribute 34, 1
  12              		.eabi_attribute 18, 4
  13              		.thumb
  14              		.file	"EZI2Cs_PM.c"
  15              		.text
  16              	.Ltext0:
  17              		.cfi_sections	.debug_frame
  18              		.section	.text.EZI2Cs_SaveConfig,"ax",%progbits
  19              		.align	1
  20              		.global	EZI2Cs_SaveConfig
  21              		.thumb
  22              		.thumb_func
  23              		.type	EZI2Cs_SaveConfig, %function
  24              	EZI2Cs_SaveConfig:
  25              	.LFB0:
  26              		.file 1 "Generated_Source\\PSoC5\\EZI2Cs_PM.c"
   1:Generated_Source\PSoC5/EZI2Cs_PM.c **** /*******************************************************************************
   2:Generated_Source\PSoC5/EZI2Cs_PM.c **** * File Name: EZI2Cs_PM.c
   3:Generated_Source\PSoC5/EZI2Cs_PM.c **** * Version 2.0
   4:Generated_Source\PSoC5/EZI2Cs_PM.c **** *
   5:Generated_Source\PSoC5/EZI2Cs_PM.c **** * Description:
   6:Generated_Source\PSoC5/EZI2Cs_PM.c **** *  This file contains the API for the proper switching to/from the low power
   7:Generated_Source\PSoC5/EZI2Cs_PM.c **** *  modes.
   8:Generated_Source\PSoC5/EZI2Cs_PM.c **** *
   9:Generated_Source\PSoC5/EZI2Cs_PM.c **** ********************************************************************************
  10:Generated_Source\PSoC5/EZI2Cs_PM.c **** * Copyright 2008-2015, Cypress Semiconductor Corporation.  All rights reserved.
  11:Generated_Source\PSoC5/EZI2Cs_PM.c **** * You may use this file only in accordance with the license, terms, conditions,
  12:Generated_Source\PSoC5/EZI2Cs_PM.c **** * disclaimers, and limitations in the end user license agreement accompanying
  13:Generated_Source\PSoC5/EZI2Cs_PM.c **** * the software package with which this file was provided.
  14:Generated_Source\PSoC5/EZI2Cs_PM.c **** *******************************************************************************/
  15:Generated_Source\PSoC5/EZI2Cs_PM.c **** 
  16:Generated_Source\PSoC5/EZI2Cs_PM.c **** #include "EZI2Cs_PVT.h"
  17:Generated_Source\PSoC5/EZI2Cs_PM.c **** 
  18:Generated_Source\PSoC5/EZI2Cs_PM.c **** EZI2Cs_BACKUP_STRUCT EZI2Cs_backup =
  19:Generated_Source\PSoC5/EZI2Cs_PM.c **** {
  20:Generated_Source\PSoC5/EZI2Cs_PM.c ****     EZI2Cs_DISABLED,
  21:Generated_Source\PSoC5/EZI2Cs_PM.c ****     EZI2Cs_DEFAULT_XCFG,
  22:Generated_Source\PSoC5/EZI2Cs_PM.c ****     EZI2Cs_DEFAULT_ADDR,
  23:Generated_Source\PSoC5/EZI2Cs_PM.c ****     EZI2Cs_DEFAULT_CFG,
  24:Generated_Source\PSoC5/EZI2Cs_PM.c ****     EZI2Cs_DEFAULT_CLKDIV1,
  25:Generated_Source\PSoC5/EZI2Cs_PM.c ****     EZI2Cs_DEFAULT_CLKDIV2
  26:Generated_Source\PSoC5/EZI2Cs_PM.c **** };
  27:Generated_Source\PSoC5/EZI2Cs_PM.c **** 
  28:Generated_Source\PSoC5/EZI2Cs_PM.c **** #if (EZI2Cs_WAKEUP_ENABLED)
  29:Generated_Source\PSoC5/EZI2Cs_PM.c ****     volatile uint8 EZI2Cs_wakeupSource;
  30:Generated_Source\PSoC5/EZI2Cs_PM.c **** #endif /* (EZI2Cs_WAKEUP_ENABLED) */
  31:Generated_Source\PSoC5/EZI2Cs_PM.c **** 
ARM GAS  C:\Users\yqh\AppData\Local\Temp\ccqpxfYa.s 			page 2


  32:Generated_Source\PSoC5/EZI2Cs_PM.c **** 
  33:Generated_Source\PSoC5/EZI2Cs_PM.c **** /*******************************************************************************
  34:Generated_Source\PSoC5/EZI2Cs_PM.c **** * Function Name: EZI2Cs_SaveConfig
  35:Generated_Source\PSoC5/EZI2Cs_PM.c **** ********************************************************************************
  36:Generated_Source\PSoC5/EZI2Cs_PM.c **** *
  37:Generated_Source\PSoC5/EZI2Cs_PM.c **** * Summary:
  38:Generated_Source\PSoC5/EZI2Cs_PM.c **** *  The Enable wakeup from Sleep Mode selection influences this function
  39:Generated_Source\PSoC5/EZI2Cs_PM.c **** *  implementation:
  40:Generated_Source\PSoC5/EZI2Cs_PM.c **** *   Unchecked: Stores the component non-retention configuration registers.
  41:Generated_Source\PSoC5/EZI2Cs_PM.c **** *   Checked:   Enables backup regulator of the I2C hardware. If a transaction
  42:Generated_Source\PSoC5/EZI2Cs_PM.c **** *              intended for component executes during this function call,
  43:Generated_Source\PSoC5/EZI2Cs_PM.c **** *              it waits until the current transaction is completed and
  44:Generated_Source\PSoC5/EZI2Cs_PM.c **** *              I2C hardware is ready to go to sleep mode. All subsequent
  45:Generated_Source\PSoC5/EZI2Cs_PM.c **** *              I2C traffic is NAKed until the device is put to sleep mode.
  46:Generated_Source\PSoC5/EZI2Cs_PM.c **** *
  47:Generated_Source\PSoC5/EZI2Cs_PM.c **** * Parameters:
  48:Generated_Source\PSoC5/EZI2Cs_PM.c **** *  None.
  49:Generated_Source\PSoC5/EZI2Cs_PM.c **** *
  50:Generated_Source\PSoC5/EZI2Cs_PM.c **** * Return:
  51:Generated_Source\PSoC5/EZI2Cs_PM.c **** *  None.
  52:Generated_Source\PSoC5/EZI2Cs_PM.c **** *
  53:Generated_Source\PSoC5/EZI2Cs_PM.c **** * Global variables:
  54:Generated_Source\PSoC5/EZI2Cs_PM.c **** *  EZI2Cs_backup - The non-retention registers are saved to.
  55:Generated_Source\PSoC5/EZI2Cs_PM.c **** *
  56:Generated_Source\PSoC5/EZI2Cs_PM.c **** * Reentrant:
  57:Generated_Source\PSoC5/EZI2Cs_PM.c **** *  No.
  58:Generated_Source\PSoC5/EZI2Cs_PM.c **** *
  59:Generated_Source\PSoC5/EZI2Cs_PM.c **** *******************************************************************************/
  60:Generated_Source\PSoC5/EZI2Cs_PM.c **** void EZI2Cs_SaveConfig(void) 
  61:Generated_Source\PSoC5/EZI2Cs_PM.c **** {
  27              		.loc 1 61 0
  28              		.cfi_startproc
  29              		@ args = 0, pretend = 0, frame = 0
  30              		@ frame_needed = 0, uses_anonymous_args = 0
  31              		@ link register save eliminated.
  62:Generated_Source\PSoC5/EZI2Cs_PM.c **** #if (EZI2Cs_WAKEUP_ENABLED)
  63:Generated_Source\PSoC5/EZI2Cs_PM.c ****     uint8 interruptState;
  64:Generated_Source\PSoC5/EZI2Cs_PM.c **** #endif /* (EZI2Cs_WAKEUP_ENABLED) */
  65:Generated_Source\PSoC5/EZI2Cs_PM.c **** 
  66:Generated_Source\PSoC5/EZI2Cs_PM.c ****     /* Store component configuration into backup structure */
  67:Generated_Source\PSoC5/EZI2Cs_PM.c ****     EZI2Cs_backup.cfg     = EZI2Cs_CFG_REG;
  32              		.loc 1 67 0
  33 0000 084B     		ldr	r3, .L2
  34 0002 1A78     		ldrb	r2, [r3]	@ zero_extendqisi2
  35 0004 084B     		ldr	r3, .L2+4
  36 0006 DA70     		strb	r2, [r3, #3]
  68:Generated_Source\PSoC5/EZI2Cs_PM.c ****     EZI2Cs_backup.xcfg    = EZI2Cs_XCFG_REG;
  37              		.loc 1 68 0
  38 0008 084A     		ldr	r2, .L2+8
  39 000a 1278     		ldrb	r2, [r2]	@ zero_extendqisi2
  40 000c 5A70     		strb	r2, [r3, #1]
  69:Generated_Source\PSoC5/EZI2Cs_PM.c ****     EZI2Cs_backup.adr     = EZI2Cs_ADDR_REG;
  41              		.loc 1 69 0
  42 000e 084A     		ldr	r2, .L2+12
  43 0010 1278     		ldrb	r2, [r2]	@ zero_extendqisi2
  44 0012 9A70     		strb	r2, [r3, #2]
  70:Generated_Source\PSoC5/EZI2Cs_PM.c ****     EZI2Cs_backup.clkDiv1 = EZI2Cs_CLKDIV1_REG;
ARM GAS  C:\Users\yqh\AppData\Local\Temp\ccqpxfYa.s 			page 3


  45              		.loc 1 70 0
  46 0014 074A     		ldr	r2, .L2+16
  47 0016 1278     		ldrb	r2, [r2]	@ zero_extendqisi2
  48 0018 1A71     		strb	r2, [r3, #4]
  71:Generated_Source\PSoC5/EZI2Cs_PM.c ****     EZI2Cs_backup.clkDiv2 = EZI2Cs_CLKDIV2_REG;
  49              		.loc 1 71 0
  50 001a 074A     		ldr	r2, .L2+20
  51 001c 1278     		ldrb	r2, [r2]	@ zero_extendqisi2
  52 001e 5A71     		strb	r2, [r3, #5]
  53 0020 7047     		bx	lr
  54              	.L3:
  55 0022 00BF     		.align	2
  56              	.L2:
  57 0024 D6490040 		.word	1073760726
  58 0028 00000000 		.word	.LANCHOR0
  59 002c C8490040 		.word	1073760712
  60 0030 CA490040 		.word	1073760714
  61 0034 DB490040 		.word	1073760731
  62 0038 DC490040 		.word	1073760732
  63              		.cfi_endproc
  64              	.LFE0:
  65              		.size	EZI2Cs_SaveConfig, .-EZI2Cs_SaveConfig
  66              		.section	.text.EZI2Cs_RestoreConfig,"ax",%progbits
  67              		.align	1
  68              		.global	EZI2Cs_RestoreConfig
  69              		.thumb
  70              		.thumb_func
  71              		.type	EZI2Cs_RestoreConfig, %function
  72              	EZI2Cs_RestoreConfig:
  73              	.LFB1:
  72:Generated_Source\PSoC5/EZI2Cs_PM.c **** 
  73:Generated_Source\PSoC5/EZI2Cs_PM.c **** #if (EZI2Cs_WAKEUP_ENABLED)
  74:Generated_Source\PSoC5/EZI2Cs_PM.c ****     /* Enable I2C backup regulator */
  75:Generated_Source\PSoC5/EZI2Cs_PM.c ****     interruptState = CyEnterCriticalSection();
  76:Generated_Source\PSoC5/EZI2Cs_PM.c ****     EZI2Cs_PWRSYS_CR1_REG |= EZI2Cs_PWRSYS_CR1_I2C_BACKUP;
  77:Generated_Source\PSoC5/EZI2Cs_PM.c ****     CyExitCriticalSection(interruptState);
  78:Generated_Source\PSoC5/EZI2Cs_PM.c **** 
  79:Generated_Source\PSoC5/EZI2Cs_PM.c ****     /* Wait for completion of the current transaction. The following
  80:Generated_Source\PSoC5/EZI2Cs_PM.c ****     * transactions have to be NACKed until the device enters the low power mode.
  81:Generated_Source\PSoC5/EZI2Cs_PM.c ****     * After a wakeup, the force NACK bit is cleared automatically.
  82:Generated_Source\PSoC5/EZI2Cs_PM.c ****     */
  83:Generated_Source\PSoC5/EZI2Cs_PM.c ****     EZI2Cs_XCFG_REG |= EZI2Cs_XCFG_FORCE_NACK;
  84:Generated_Source\PSoC5/EZI2Cs_PM.c ****     while (0u == (EZI2Cs_XCFG_REG & EZI2Cs_XCFG_SLEEP_READY))
  85:Generated_Source\PSoC5/EZI2Cs_PM.c ****     {
  86:Generated_Source\PSoC5/EZI2Cs_PM.c ****     }
  87:Generated_Source\PSoC5/EZI2Cs_PM.c **** 
  88:Generated_Source\PSoC5/EZI2Cs_PM.c ****      /* Setup wakeup interrupt */
  89:Generated_Source\PSoC5/EZI2Cs_PM.c ****     EZI2Cs_DisableInt();
  90:Generated_Source\PSoC5/EZI2Cs_PM.c ****     EZI2Cs_wakeupSource = 0u; /* Clear wakeup event */
  91:Generated_Source\PSoC5/EZI2Cs_PM.c ****     (void) CyIntSetVector(EZI2Cs_ISR_NUMBER, &EZI2Cs_WAKEUP_ISR);
  92:Generated_Source\PSoC5/EZI2Cs_PM.c ****     EZI2Cs_EnableInt();
  93:Generated_Source\PSoC5/EZI2Cs_PM.c **** #endif /* (EZI2Cs_WAKEUP_ENABLED) */
  94:Generated_Source\PSoC5/EZI2Cs_PM.c **** }
  95:Generated_Source\PSoC5/EZI2Cs_PM.c **** 
  96:Generated_Source\PSoC5/EZI2Cs_PM.c **** 
  97:Generated_Source\PSoC5/EZI2Cs_PM.c **** /*******************************************************************************
  98:Generated_Source\PSoC5/EZI2Cs_PM.c **** * Function Name: EZI2Cs_RestoreConfig
ARM GAS  C:\Users\yqh\AppData\Local\Temp\ccqpxfYa.s 			page 4


  99:Generated_Source\PSoC5/EZI2Cs_PM.c **** ********************************************************************************
 100:Generated_Source\PSoC5/EZI2Cs_PM.c **** *
 101:Generated_Source\PSoC5/EZI2Cs_PM.c **** * Summary:
 102:Generated_Source\PSoC5/EZI2Cs_PM.c **** *  The Enable wakeup from Sleep Mode selection influences this function
 103:Generated_Source\PSoC5/EZI2Cs_PM.c **** *  implementation:
 104:Generated_Source\PSoC5/EZI2Cs_PM.c **** *   Unchecked: Restores the component non-retention configuration registers
 105:Generated_Source\PSoC5/EZI2Cs_PM.c **** *              to the state they were in before I2C_Sleep() or I2C_SaveConfig()
 106:Generated_Source\PSoC5/EZI2Cs_PM.c **** *              was called.
 107:Generated_Source\PSoC5/EZI2Cs_PM.c **** *   Checked:   Disables the backup regulator of the I2C hardware. Sets up the
 108:Generated_Source\PSoC5/EZI2Cs_PM.c **** *              regular component interrupt handler and generates the component
 109:Generated_Source\PSoC5/EZI2Cs_PM.c **** *              interrupt if it was wake up source to release the bus and
 110:Generated_Source\PSoC5/EZI2Cs_PM.c **** *              continue in-coming I2C transaction.
 111:Generated_Source\PSoC5/EZI2Cs_PM.c **** *
 112:Generated_Source\PSoC5/EZI2Cs_PM.c **** * Parameters:
 113:Generated_Source\PSoC5/EZI2Cs_PM.c **** *  None.
 114:Generated_Source\PSoC5/EZI2Cs_PM.c **** *
 115:Generated_Source\PSoC5/EZI2Cs_PM.c **** * Return:
 116:Generated_Source\PSoC5/EZI2Cs_PM.c **** *  None.
 117:Generated_Source\PSoC5/EZI2Cs_PM.c **** *
 118:Generated_Source\PSoC5/EZI2Cs_PM.c **** * Global variables:
 119:Generated_Source\PSoC5/EZI2Cs_PM.c **** *  EZI2Cs_backup - the non-retention registers are restored from.
 120:Generated_Source\PSoC5/EZI2Cs_PM.c **** *
 121:Generated_Source\PSoC5/EZI2Cs_PM.c **** * Reentrant:
 122:Generated_Source\PSoC5/EZI2Cs_PM.c **** *  No.
 123:Generated_Source\PSoC5/EZI2Cs_PM.c **** *
 124:Generated_Source\PSoC5/EZI2Cs_PM.c **** * Side Effects:
 125:Generated_Source\PSoC5/EZI2Cs_PM.c **** *  Calling this function before EZI2Cs_SaveConfig() or
 126:Generated_Source\PSoC5/EZI2Cs_PM.c **** *  EZI2Cs_Sleep() may produce unexpected behavior.
 127:Generated_Source\PSoC5/EZI2Cs_PM.c **** *
 128:Generated_Source\PSoC5/EZI2Cs_PM.c **** *******************************************************************************/
 129:Generated_Source\PSoC5/EZI2Cs_PM.c **** void EZI2Cs_RestoreConfig(void) 
 130:Generated_Source\PSoC5/EZI2Cs_PM.c **** {
  74              		.loc 1 130 0
  75              		.cfi_startproc
  76              		@ args = 0, pretend = 0, frame = 0
  77              		@ frame_needed = 0, uses_anonymous_args = 0
  78 0000 10B5     		push	{r4, lr}
  79              		.cfi_def_cfa_offset 8
  80              		.cfi_offset 4, -8
  81              		.cfi_offset 14, -4
 131:Generated_Source\PSoC5/EZI2Cs_PM.c ****     uint8 intState;
 132:Generated_Source\PSoC5/EZI2Cs_PM.c **** 
 133:Generated_Source\PSoC5/EZI2Cs_PM.c ****     if (0u != (EZI2Cs_PWRSYS_CR1_I2C_BACKUP & EZI2Cs_PWRSYS_CR1_REG))
  82              		.loc 1 133 0
  83 0002 0F4C     		ldr	r4, .L7
  84 0004 2378     		ldrb	r3, [r4]	@ zero_extendqisi2
  85 0006 5B07     		lsls	r3, r3, #29
  86 0008 09D5     		bpl	.L5
  87              	.LBB4:
  88              	.LBB5:
 134:Generated_Source\PSoC5/EZI2Cs_PM.c ****     /* Exit from Sleep */
 135:Generated_Source\PSoC5/EZI2Cs_PM.c ****     {
 136:Generated_Source\PSoC5/EZI2Cs_PM.c ****         /* Disable I2C backup regulator */
 137:Generated_Source\PSoC5/EZI2Cs_PM.c ****         intState = CyEnterCriticalSection();
  89              		.loc 1 137 0
  90 000a FFF7FEFF 		bl	CyEnterCriticalSection
  91              	.LVL0:
ARM GAS  C:\Users\yqh\AppData\Local\Temp\ccqpxfYa.s 			page 5


 138:Generated_Source\PSoC5/EZI2Cs_PM.c ****         EZI2Cs_PWRSYS_CR1_REG &= (uint8) ~EZI2Cs_PWRSYS_CR1_I2C_BACKUP;
  92              		.loc 1 138 0
  93 000e 2378     		ldrb	r3, [r4]	@ zero_extendqisi2
  94 0010 03F0FB03 		and	r3, r3, #251
  95 0014 2370     		strb	r3, [r4]
  96              	.LBE5:
  97              	.LBE4:
 139:Generated_Source\PSoC5/EZI2Cs_PM.c ****         CyExitCriticalSection(intState);
 140:Generated_Source\PSoC5/EZI2Cs_PM.c ****     }
 141:Generated_Source\PSoC5/EZI2Cs_PM.c ****     else /* Exit from Hibernate (bit is cleared) or wakeup disabled */
 142:Generated_Source\PSoC5/EZI2Cs_PM.c ****     {
 143:Generated_Source\PSoC5/EZI2Cs_PM.c ****     #if (EZI2Cs_WAKEUP_ENABLED)
 144:Generated_Source\PSoC5/EZI2Cs_PM.c ****         /* Disable power to I2C block before register restore */
 145:Generated_Source\PSoC5/EZI2Cs_PM.c ****         intState = CyEnterCriticalSection();
 146:Generated_Source\PSoC5/EZI2Cs_PM.c ****         EZI2Cs_PM_ACT_CFG_REG  &= (uint8) ~EZI2Cs_ACT_PWR_EN;
 147:Generated_Source\PSoC5/EZI2Cs_PM.c ****         EZI2Cs_PM_STBY_CFG_REG &= (uint8) ~EZI2Cs_STBY_PWR_EN;
 148:Generated_Source\PSoC5/EZI2Cs_PM.c ****         CyExitCriticalSection(intState);
 149:Generated_Source\PSoC5/EZI2Cs_PM.c **** 
 150:Generated_Source\PSoC5/EZI2Cs_PM.c ****         /* Enable component after restore complete */
 151:Generated_Source\PSoC5/EZI2Cs_PM.c ****         EZI2Cs_backup.enableState = EZI2Cs_ENABLED;
 152:Generated_Source\PSoC5/EZI2Cs_PM.c ****     #endif /* (EZI2Cs_WAKEUP_ENABLED) */
 153:Generated_Source\PSoC5/EZI2Cs_PM.c **** 
 154:Generated_Source\PSoC5/EZI2Cs_PM.c ****         /* Restore component registers: Hibernate disable power */
 155:Generated_Source\PSoC5/EZI2Cs_PM.c ****         EZI2Cs_CFG_REG     = EZI2Cs_backup.cfg;
 156:Generated_Source\PSoC5/EZI2Cs_PM.c ****         EZI2Cs_XCFG_REG    = EZI2Cs_backup.xcfg;
 157:Generated_Source\PSoC5/EZI2Cs_PM.c ****         EZI2Cs_ADDR_REG    = EZI2Cs_backup.adr;
 158:Generated_Source\PSoC5/EZI2Cs_PM.c ****         EZI2Cs_CLKDIV1_REG = EZI2Cs_backup.clkDiv1;
 159:Generated_Source\PSoC5/EZI2Cs_PM.c ****         EZI2Cs_CLKDIV2_REG = EZI2Cs_backup.clkDiv2;
 160:Generated_Source\PSoC5/EZI2Cs_PM.c ****     }
 161:Generated_Source\PSoC5/EZI2Cs_PM.c **** 
 162:Generated_Source\PSoC5/EZI2Cs_PM.c **** #if (EZI2Cs_WAKEUP_ENABLED)
 163:Generated_Source\PSoC5/EZI2Cs_PM.c ****     /* Set I2C interrupt to be pending if component is source of wake up */
 164:Generated_Source\PSoC5/EZI2Cs_PM.c ****     EZI2Cs_DisableInt();
 165:Generated_Source\PSoC5/EZI2Cs_PM.c ****     (void) CyIntSetVector(EZI2Cs_ISR_NUMBER, &EZI2Cs_ISR);
 166:Generated_Source\PSoC5/EZI2Cs_PM.c ****     if (0u != EZI2Cs_wakeupSource)
 167:Generated_Source\PSoC5/EZI2Cs_PM.c ****     {
 168:Generated_Source\PSoC5/EZI2Cs_PM.c ****         /* Generate interrupt to release I2C bus */
 169:Generated_Source\PSoC5/EZI2Cs_PM.c ****         (void) CyIntSetPending(EZI2Cs_ISR_NUMBER);
 170:Generated_Source\PSoC5/EZI2Cs_PM.c ****     }
 171:Generated_Source\PSoC5/EZI2Cs_PM.c ****     EZI2Cs_EnableInt();
 172:Generated_Source\PSoC5/EZI2Cs_PM.c **** #endif /* (EZI2Cs_WAKEUP_ENABLED) */
 173:Generated_Source\PSoC5/EZI2Cs_PM.c **** }
  98              		.loc 1 173 0
  99 0016 BDE81040 		pop	{r4, lr}
 100              		.cfi_remember_state
 101              		.cfi_restore 14
 102              		.cfi_restore 4
 103              		.cfi_def_cfa_offset 0
 104              	.LBB7:
 105              	.LBB6:
 139:Generated_Source\PSoC5/EZI2Cs_PM.c ****         CyExitCriticalSection(intState);
 106              		.loc 1 139 0
 107 001a FFF7FEBF 		b	CyExitCriticalSection
 108              	.LVL1:
 109              	.L5:
 110              		.cfi_restore_state
 111              	.LBE6:
ARM GAS  C:\Users\yqh\AppData\Local\Temp\ccqpxfYa.s 			page 6


 112              	.LBE7:
 155:Generated_Source\PSoC5/EZI2Cs_PM.c ****         EZI2Cs_XCFG_REG    = EZI2Cs_backup.xcfg;
 113              		.loc 1 155 0
 114 001e 094B     		ldr	r3, .L7+4
 115 0020 094A     		ldr	r2, .L7+8
 116 0022 D978     		ldrb	r1, [r3, #3]	@ zero_extendqisi2
 117 0024 1170     		strb	r1, [r2]
 156:Generated_Source\PSoC5/EZI2Cs_PM.c ****         EZI2Cs_ADDR_REG    = EZI2Cs_backup.adr;
 118              		.loc 1 156 0
 119 0026 5978     		ldrb	r1, [r3, #1]	@ zero_extendqisi2
 120 0028 02F80E1C 		strb	r1, [r2, #-14]
 157:Generated_Source\PSoC5/EZI2Cs_PM.c ****         EZI2Cs_CLKDIV1_REG = EZI2Cs_backup.clkDiv1;
 121              		.loc 1 157 0
 122 002c 9978     		ldrb	r1, [r3, #2]	@ zero_extendqisi2
 123 002e 02F80C1C 		strb	r1, [r2, #-12]
 158:Generated_Source\PSoC5/EZI2Cs_PM.c ****         EZI2Cs_CLKDIV2_REG = EZI2Cs_backup.clkDiv2;
 124              		.loc 1 158 0
 125 0032 1979     		ldrb	r1, [r3, #4]	@ zero_extendqisi2
 126 0034 5171     		strb	r1, [r2, #5]
 159:Generated_Source\PSoC5/EZI2Cs_PM.c ****     }
 127              		.loc 1 159 0
 128 0036 5A79     		ldrb	r2, [r3, #5]	@ zero_extendqisi2
 129 0038 044B     		ldr	r3, .L7+12
 130 003a 1A70     		strb	r2, [r3]
 131 003c 10BD     		pop	{r4, pc}
 132              	.L8:
 133 003e 00BF     		.align	2
 134              	.L7:
 135 0040 31430040 		.word	1073759025
 136 0044 00000000 		.word	.LANCHOR0
 137 0048 D6490040 		.word	1073760726
 138 004c DC490040 		.word	1073760732
 139              		.cfi_endproc
 140              	.LFE1:
 141              		.size	EZI2Cs_RestoreConfig, .-EZI2Cs_RestoreConfig
 142              		.section	.text.EZI2Cs_Sleep,"ax",%progbits
 143              		.align	1
 144              		.global	EZI2Cs_Sleep
 145              		.thumb
 146              		.thumb_func
 147              		.type	EZI2Cs_Sleep, %function
 148              	EZI2Cs_Sleep:
 149              	.LFB2:
 174:Generated_Source\PSoC5/EZI2Cs_PM.c **** 
 175:Generated_Source\PSoC5/EZI2Cs_PM.c **** 
 176:Generated_Source\PSoC5/EZI2Cs_PM.c **** /*******************************************************************************
 177:Generated_Source\PSoC5/EZI2Cs_PM.c **** * Function Name: EZI2Cs_Sleep
 178:Generated_Source\PSoC5/EZI2Cs_PM.c **** ********************************************************************************
 179:Generated_Source\PSoC5/EZI2Cs_PM.c **** *
 180:Generated_Source\PSoC5/EZI2Cs_PM.c **** * Summary:
 181:Generated_Source\PSoC5/EZI2Cs_PM.c **** *  This is the preferred method to prepare the component before device enters
 182:Generated_Source\PSoC5/EZI2Cs_PM.c **** *  sleep mode.
 183:Generated_Source\PSoC5/EZI2Cs_PM.c **** *  The Enable wakeup from Sleep Mode selection influences this function
 184:Generated_Source\PSoC5/EZI2Cs_PM.c **** *  implementation:
 185:Generated_Source\PSoC5/EZI2Cs_PM.c **** *   Unchecked: Checks current EZI2C component state, saves it, and disables the
 186:Generated_Source\PSoC5/EZI2Cs_PM.c **** *              component by calling EZI2C_Stop() if it is currently enabled.
 187:Generated_Source\PSoC5/EZI2Cs_PM.c **** *              EZI2C_SaveConfig() is then called to save the component
ARM GAS  C:\Users\yqh\AppData\Local\Temp\ccqpxfYa.s 			page 7


 188:Generated_Source\PSoC5/EZI2Cs_PM.c **** *              non-retention configuration registers.
 189:Generated_Source\PSoC5/EZI2Cs_PM.c **** *   Checked:   If a transaction intended for component is in progress during
 190:Generated_Source\PSoC5/EZI2Cs_PM.c **** *              this function call, it waits until the current transaction is
 191:Generated_Source\PSoC5/EZI2Cs_PM.c **** *              completed. All subsequent I2C traffic intended for component is
 192:Generated_Source\PSoC5/EZI2Cs_PM.c **** *              NAKed until the device is put to sleep mode. The address match
 193:Generated_Source\PSoC5/EZI2Cs_PM.c **** *              event wakes up the device.
 194:Generated_Source\PSoC5/EZI2Cs_PM.c **** *
 195:Generated_Source\PSoC5/EZI2Cs_PM.c **** *  Call the EZI2C_Sleep() function before calling the CyPmSleep() or the
 196:Generated_Source\PSoC5/EZI2Cs_PM.c **** *  CyPmHibernate() function. Refer to the PSoC Creator System Reference Guide
 197:Generated_Source\PSoC5/EZI2Cs_PM.c **** *  for more information about power-management functions.
 198:Generated_Source\PSoC5/EZI2Cs_PM.c **** *
 199:Generated_Source\PSoC5/EZI2Cs_PM.c **** * Parameters:
 200:Generated_Source\PSoC5/EZI2Cs_PM.c **** *  None.
 201:Generated_Source\PSoC5/EZI2Cs_PM.c **** *
 202:Generated_Source\PSoC5/EZI2Cs_PM.c **** * Return:
 203:Generated_Source\PSoC5/EZI2Cs_PM.c **** *  None.
 204:Generated_Source\PSoC5/EZI2Cs_PM.c **** *
 205:Generated_Source\PSoC5/EZI2Cs_PM.c **** * Global variables:
 206:Generated_Source\PSoC5/EZI2Cs_PM.c **** *  EZI2Cs_backup - The non retention registers are saved to. Changed
 207:Generated_Source\PSoC5/EZI2Cs_PM.c **** *  by EZI2Cs_SaveConfig() function call.
 208:Generated_Source\PSoC5/EZI2Cs_PM.c **** *
 209:Generated_Source\PSoC5/EZI2Cs_PM.c **** * Reentrant:
 210:Generated_Source\PSoC5/EZI2Cs_PM.c **** *  No.
 211:Generated_Source\PSoC5/EZI2Cs_PM.c **** *
 212:Generated_Source\PSoC5/EZI2Cs_PM.c **** *******************************************************************************/
 213:Generated_Source\PSoC5/EZI2Cs_PM.c **** void EZI2Cs_Sleep(void) 
 214:Generated_Source\PSoC5/EZI2Cs_PM.c **** {
 150              		.loc 1 214 0
 151              		.cfi_startproc
 152              		@ args = 0, pretend = 0, frame = 0
 153              		@ frame_needed = 0, uses_anonymous_args = 0
 154 0000 08B5     		push	{r3, lr}
 155              		.cfi_def_cfa_offset 8
 156              		.cfi_offset 3, -8
 157              		.cfi_offset 14, -4
 215:Generated_Source\PSoC5/EZI2Cs_PM.c **** #if (EZI2Cs_WAKEUP_ENABLED)
 216:Generated_Source\PSoC5/EZI2Cs_PM.c ****     /* Do not re-enable component in EZI2Cs_Wakeup(). It remains enabled as it is wakeup source */
 217:Generated_Source\PSoC5/EZI2Cs_PM.c ****     EZI2Cs_backup.enableState = EZI2Cs_DISABLED;
 218:Generated_Source\PSoC5/EZI2Cs_PM.c **** #else
 219:Generated_Source\PSoC5/EZI2Cs_PM.c ****     /* Store component state enabled or disable to restore after wakeup */
 220:Generated_Source\PSoC5/EZI2Cs_PM.c ****     EZI2Cs_backup.enableState = (EZI2Cs_PM_ACT_CFG_REG & EZI2Cs_ACT_PWR_EN);
 158              		.loc 1 220 0
 159 0002 074B     		ldr	r3, .L14
 160 0004 074A     		ldr	r2, .L14+4
 161 0006 1B78     		ldrb	r3, [r3]	@ zero_extendqisi2
 162 0008 03F00403 		and	r3, r3, #4
 163 000c DBB2     		uxtb	r3, r3
 164 000e 1370     		strb	r3, [r2]
 221:Generated_Source\PSoC5/EZI2Cs_PM.c **** 
 222:Generated_Source\PSoC5/EZI2Cs_PM.c ****     if (0u != EZI2Cs_backup.enableState)
 165              		.loc 1 222 0
 166 0010 0BB1     		cbz	r3, .L10
 223:Generated_Source\PSoC5/EZI2Cs_PM.c ****     {
 224:Generated_Source\PSoC5/EZI2Cs_PM.c ****         /* Disable component before enter Sleep */
 225:Generated_Source\PSoC5/EZI2Cs_PM.c ****         EZI2Cs_Stop();
 167              		.loc 1 225 0
 168 0012 FFF7FEFF 		bl	EZI2Cs_Stop
ARM GAS  C:\Users\yqh\AppData\Local\Temp\ccqpxfYa.s 			page 8


 169              	.LVL2:
 170              	.L10:
 226:Generated_Source\PSoC5/EZI2Cs_PM.c ****     }
 227:Generated_Source\PSoC5/EZI2Cs_PM.c **** #endif /* (EZI2Cs_WAKEUP_ENABLED) */
 228:Generated_Source\PSoC5/EZI2Cs_PM.c **** 
 229:Generated_Source\PSoC5/EZI2Cs_PM.c ****     EZI2Cs_SaveConfig();
 230:Generated_Source\PSoC5/EZI2Cs_PM.c **** }
 171              		.loc 1 230 0
 172 0016 BDE80840 		pop	{r3, lr}
 173              		.cfi_restore 14
 174              		.cfi_restore 3
 175              		.cfi_def_cfa_offset 0
 229:Generated_Source\PSoC5/EZI2Cs_PM.c **** }
 176              		.loc 1 229 0
 177 001a FFF7FEBF 		b	EZI2Cs_SaveConfig
 178              	.LVL3:
 179              	.L15:
 180 001e 00BF     		.align	2
 181              	.L14:
 182 0020 A5430040 		.word	1073759141
 183 0024 00000000 		.word	.LANCHOR0
 184              		.cfi_endproc
 185              	.LFE2:
 186              		.size	EZI2Cs_Sleep, .-EZI2Cs_Sleep
 187              		.section	.text.EZI2Cs_Wakeup,"ax",%progbits
 188              		.align	1
 189              		.global	EZI2Cs_Wakeup
 190              		.thumb
 191              		.thumb_func
 192              		.type	EZI2Cs_Wakeup, %function
 193              	EZI2Cs_Wakeup:
 194              	.LFB3:
 231:Generated_Source\PSoC5/EZI2Cs_PM.c **** 
 232:Generated_Source\PSoC5/EZI2Cs_PM.c **** 
 233:Generated_Source\PSoC5/EZI2Cs_PM.c **** /*******************************************************************************
 234:Generated_Source\PSoC5/EZI2Cs_PM.c **** * Function Name: EZI2Cs_Wakeup
 235:Generated_Source\PSoC5/EZI2Cs_PM.c **** ********************************************************************************
 236:Generated_Source\PSoC5/EZI2Cs_PM.c **** *
 237:Generated_Source\PSoC5/EZI2Cs_PM.c **** * Summary:
 238:Generated_Source\PSoC5/EZI2Cs_PM.c **** *  This is the preferred method to prepare the component for active mode
 239:Generated_Source\PSoC5/EZI2Cs_PM.c **** *  operation (when device exits sleep mode).
 240:Generated_Source\PSoC5/EZI2Cs_PM.c **** *  The Enable wakeup from Sleep Mode selection influences this function
 241:Generated_Source\PSoC5/EZI2Cs_PM.c **** *  implementation:
 242:Generated_Source\PSoC5/EZI2Cs_PM.c **** *   Unchecked: Restores the component non-retention configuration registers
 243:Generated_Source\PSoC5/EZI2Cs_PM.c **** *              by calling EZI2C_RestoreConfig(). If the component was enabled
 244:Generated_Source\PSoC5/EZI2Cs_PM.c **** *              before the EZI2C_Sleep() function was called, EZI2C_Wakeup()
 245:Generated_Source\PSoC5/EZI2Cs_PM.c **** *              re-enables it.
 246:Generated_Source\PSoC5/EZI2Cs_PM.c **** *   Checked:   Disables the backup regulator of I2C hardware. The incoming
 247:Generated_Source\PSoC5/EZI2Cs_PM.c **** *              transaction continues as soon as the regular EZI2C interrupt
 248:Generated_Source\PSoC5/EZI2Cs_PM.c **** *              handler is set up (global interrupts has to be  enabled to
 249:Generated_Source\PSoC5/EZI2Cs_PM.c **** *              service EZI2C component interrupt).
 250:Generated_Source\PSoC5/EZI2Cs_PM.c **** *
 251:Generated_Source\PSoC5/EZI2Cs_PM.c **** * Parameters:
 252:Generated_Source\PSoC5/EZI2Cs_PM.c **** *  None.
 253:Generated_Source\PSoC5/EZI2Cs_PM.c **** *
 254:Generated_Source\PSoC5/EZI2Cs_PM.c **** * Return:
 255:Generated_Source\PSoC5/EZI2Cs_PM.c **** *  None.
ARM GAS  C:\Users\yqh\AppData\Local\Temp\ccqpxfYa.s 			page 9


 256:Generated_Source\PSoC5/EZI2Cs_PM.c **** *
 257:Generated_Source\PSoC5/EZI2Cs_PM.c **** * Global variables:
 258:Generated_Source\PSoC5/EZI2Cs_PM.c **** *  EZI2Cs_backup - The non retention registers are restored from.
 259:Generated_Source\PSoC5/EZI2Cs_PM.c **** *
 260:Generated_Source\PSoC5/EZI2Cs_PM.c **** * Reentrant:
 261:Generated_Source\PSoC5/EZI2Cs_PM.c **** *  No.
 262:Generated_Source\PSoC5/EZI2Cs_PM.c **** *
 263:Generated_Source\PSoC5/EZI2Cs_PM.c **** * Side Effects:
 264:Generated_Source\PSoC5/EZI2Cs_PM.c **** *  Calling this function before EZI2Cs_SaveConfig() or
 265:Generated_Source\PSoC5/EZI2Cs_PM.c **** *  EZI2Cs_Sleep() will lead to unpredictable results.
 266:Generated_Source\PSoC5/EZI2Cs_PM.c **** *
 267:Generated_Source\PSoC5/EZI2Cs_PM.c **** *******************************************************************************/
 268:Generated_Source\PSoC5/EZI2Cs_PM.c **** void EZI2Cs_Wakeup(void) 
 269:Generated_Source\PSoC5/EZI2Cs_PM.c **** {
 195              		.loc 1 269 0
 196              		.cfi_startproc
 197              		@ args = 0, pretend = 0, frame = 0
 198              		@ frame_needed = 0, uses_anonymous_args = 0
 199 0000 08B5     		push	{r3, lr}
 200              		.cfi_def_cfa_offset 8
 201              		.cfi_offset 3, -8
 202              		.cfi_offset 14, -4
 270:Generated_Source\PSoC5/EZI2Cs_PM.c ****     EZI2Cs_RestoreConfig();
 203              		.loc 1 270 0
 204 0002 FFF7FEFF 		bl	EZI2Cs_RestoreConfig
 205              	.LVL4:
 271:Generated_Source\PSoC5/EZI2Cs_PM.c **** 
 272:Generated_Source\PSoC5/EZI2Cs_PM.c ****     if (0u != EZI2Cs_backup.enableState)
 206              		.loc 1 272 0
 207 0006 044B     		ldr	r3, .L18
 208 0008 1B78     		ldrb	r3, [r3]	@ zero_extendqisi2
 209 000a 1BB1     		cbz	r3, .L16
 273:Generated_Source\PSoC5/EZI2Cs_PM.c ****     {
 274:Generated_Source\PSoC5/EZI2Cs_PM.c ****         /* Enable component as it was enabled before Sleep */
 275:Generated_Source\PSoC5/EZI2Cs_PM.c ****         EZI2Cs_Enable();
 276:Generated_Source\PSoC5/EZI2Cs_PM.c ****     }
 277:Generated_Source\PSoC5/EZI2Cs_PM.c **** }
 210              		.loc 1 277 0
 211 000c BDE80840 		pop	{r3, lr}
 212              		.cfi_remember_state
 213              		.cfi_restore 14
 214              		.cfi_restore 3
 215              		.cfi_def_cfa_offset 0
 275:Generated_Source\PSoC5/EZI2Cs_PM.c ****     }
 216              		.loc 1 275 0
 217 0010 FFF7FEBF 		b	EZI2Cs_Enable
 218              	.LVL5:
 219              	.L16:
 220              		.cfi_restore_state
 221 0014 08BD     		pop	{r3, pc}
 222              	.L19:
 223 0016 00BF     		.align	2
 224              	.L18:
 225 0018 00000000 		.word	.LANCHOR0
 226              		.cfi_endproc
 227              	.LFE3:
 228              		.size	EZI2Cs_Wakeup, .-EZI2Cs_Wakeup
ARM GAS  C:\Users\yqh\AppData\Local\Temp\ccqpxfYa.s 			page 10


 229              		.global	EZI2Cs_backup
 230              		.data
 231              		.set	.LANCHOR0,. + 0
 232              		.type	EZI2Cs_backup, %object
 233              		.size	EZI2Cs_backup, 6
 234              	EZI2Cs_backup:
 235 0000 00       		.byte	0
 236 0001 81       		.byte	-127
 237 0002 38       		.byte	56
 238 0003 01       		.byte	1
 239 0004 07       		.byte	7
 240 0005 00       		.byte	0
 241              		.text
 242              	.Letext0:
 243              		.file 2 "Generated_Source\\PSoC5\\cytypes.h"
 244              		.file 3 "Generated_Source\\PSoC5\\EZI2Cs.h"
 245              		.file 4 "Generated_Source\\PSoC5\\CyLib.h"