ARM GAS  C:\Users\yqh\AppData\Local\Temp\ccOHgKzc.s 			page 1


   1              		.syntax unified
   2              		.cpu cortex-m3
   3              		.fpu softvfp
   4              		.eabi_attribute 20, 1
   5              		.eabi_attribute 21, 1
   6              		.eabi_attribute 23, 3
   7              		.eabi_attribute 24, 1
   8              		.eabi_attribute 25, 1
   9              		.eabi_attribute 26, 1
  10              		.eabi_attribute 30, 4
  11              		.eabi_attribute 34, 1
  12              		.eabi_attribute 18, 4
  13              		.thumb
  14              		.file	"UART_ACS.c"
  15              		.text
  16              	.Ltext0:
  17              		.cfi_sections	.debug_frame
  18              		.section	.text.UART_ACS_Init,"ax",%progbits
  19              		.align	1
  20              		.global	UART_ACS_Init
  21              		.thumb
  22              		.thumb_func
  23              		.type	UART_ACS_Init, %function
  24              	UART_ACS_Init:
  25              	.LFB1:
  26              		.file 1 "Generated_Source\\PSoC5\\UART_ACS.c"
   1:Generated_Source\PSoC5/UART_ACS.c **** /*******************************************************************************
   2:Generated_Source\PSoC5/UART_ACS.c **** * File Name: UART_ACS.c
   3:Generated_Source\PSoC5/UART_ACS.c **** * Version 2.50
   4:Generated_Source\PSoC5/UART_ACS.c **** *
   5:Generated_Source\PSoC5/UART_ACS.c **** * Description:
   6:Generated_Source\PSoC5/UART_ACS.c **** *  This file provides all API functionality of the UART component
   7:Generated_Source\PSoC5/UART_ACS.c **** *
   8:Generated_Source\PSoC5/UART_ACS.c **** * Note:
   9:Generated_Source\PSoC5/UART_ACS.c **** *
  10:Generated_Source\PSoC5/UART_ACS.c **** ********************************************************************************
  11:Generated_Source\PSoC5/UART_ACS.c **** * Copyright 2008-2015, Cypress Semiconductor Corporation.  All rights reserved.
  12:Generated_Source\PSoC5/UART_ACS.c **** * You may use this file only in accordance with the license, terms, conditions,
  13:Generated_Source\PSoC5/UART_ACS.c **** * disclaimers, and limitations in the end user license agreement accompanying
  14:Generated_Source\PSoC5/UART_ACS.c **** * the software package with which this file was provided.
  15:Generated_Source\PSoC5/UART_ACS.c **** *******************************************************************************/
  16:Generated_Source\PSoC5/UART_ACS.c **** 
  17:Generated_Source\PSoC5/UART_ACS.c **** #include "UART_ACS.h"
  18:Generated_Source\PSoC5/UART_ACS.c **** #if (UART_ACS_INTERNAL_CLOCK_USED)
  19:Generated_Source\PSoC5/UART_ACS.c ****     #include "UART_ACS_IntClock.h"
  20:Generated_Source\PSoC5/UART_ACS.c **** #endif /* End UART_ACS_INTERNAL_CLOCK_USED */
  21:Generated_Source\PSoC5/UART_ACS.c **** 
  22:Generated_Source\PSoC5/UART_ACS.c **** 
  23:Generated_Source\PSoC5/UART_ACS.c **** /***************************************
  24:Generated_Source\PSoC5/UART_ACS.c **** * Global data allocation
  25:Generated_Source\PSoC5/UART_ACS.c **** ***************************************/
  26:Generated_Source\PSoC5/UART_ACS.c **** 
  27:Generated_Source\PSoC5/UART_ACS.c **** uint8 UART_ACS_initVar = 0u;
  28:Generated_Source\PSoC5/UART_ACS.c **** 
  29:Generated_Source\PSoC5/UART_ACS.c **** #if (UART_ACS_TX_INTERRUPT_ENABLED && UART_ACS_TX_ENABLED)
  30:Generated_Source\PSoC5/UART_ACS.c ****     volatile uint8 UART_ACS_txBuffer[UART_ACS_TX_BUFFER_SIZE];
  31:Generated_Source\PSoC5/UART_ACS.c ****     volatile uint8 UART_ACS_txBufferRead = 0u;
ARM GAS  C:\Users\yqh\AppData\Local\Temp\ccOHgKzc.s 			page 2


  32:Generated_Source\PSoC5/UART_ACS.c ****     uint8 UART_ACS_txBufferWrite = 0u;
  33:Generated_Source\PSoC5/UART_ACS.c **** #endif /* (UART_ACS_TX_INTERRUPT_ENABLED && UART_ACS_TX_ENABLED) */
  34:Generated_Source\PSoC5/UART_ACS.c **** 
  35:Generated_Source\PSoC5/UART_ACS.c **** #if (UART_ACS_RX_INTERRUPT_ENABLED && (UART_ACS_RX_ENABLED || UART_ACS_HD_ENABLED))
  36:Generated_Source\PSoC5/UART_ACS.c ****     uint8 UART_ACS_errorStatus = 0u;
  37:Generated_Source\PSoC5/UART_ACS.c ****     volatile uint8 UART_ACS_rxBuffer[UART_ACS_RX_BUFFER_SIZE];
  38:Generated_Source\PSoC5/UART_ACS.c ****     volatile uint16 UART_ACS_rxBufferRead  = 0u;
  39:Generated_Source\PSoC5/UART_ACS.c ****     volatile uint16 UART_ACS_rxBufferWrite = 0u;
  40:Generated_Source\PSoC5/UART_ACS.c ****     volatile uint8 UART_ACS_rxBufferLoopDetect = 0u;
  41:Generated_Source\PSoC5/UART_ACS.c ****     volatile uint8 UART_ACS_rxBufferOverflow   = 0u;
  42:Generated_Source\PSoC5/UART_ACS.c ****     #if (UART_ACS_RXHW_ADDRESS_ENABLED)
  43:Generated_Source\PSoC5/UART_ACS.c ****         volatile uint8 UART_ACS_rxAddressMode = UART_ACS_RX_ADDRESS_MODE;
  44:Generated_Source\PSoC5/UART_ACS.c ****         volatile uint8 UART_ACS_rxAddressDetected = 0u;
  45:Generated_Source\PSoC5/UART_ACS.c ****     #endif /* (UART_ACS_RXHW_ADDRESS_ENABLED) */
  46:Generated_Source\PSoC5/UART_ACS.c **** #endif /* (UART_ACS_RX_INTERRUPT_ENABLED && (UART_ACS_RX_ENABLED || UART_ACS_HD_ENABLED)) */
  47:Generated_Source\PSoC5/UART_ACS.c **** 
  48:Generated_Source\PSoC5/UART_ACS.c **** 
  49:Generated_Source\PSoC5/UART_ACS.c **** /*******************************************************************************
  50:Generated_Source\PSoC5/UART_ACS.c **** * Function Name: UART_ACS_Start
  51:Generated_Source\PSoC5/UART_ACS.c **** ********************************************************************************
  52:Generated_Source\PSoC5/UART_ACS.c **** *
  53:Generated_Source\PSoC5/UART_ACS.c **** * Summary:
  54:Generated_Source\PSoC5/UART_ACS.c **** *  This is the preferred method to begin component operation.
  55:Generated_Source\PSoC5/UART_ACS.c **** *  UART_ACS_Start() sets the initVar variable, calls the
  56:Generated_Source\PSoC5/UART_ACS.c **** *  UART_ACS_Init() function, and then calls the
  57:Generated_Source\PSoC5/UART_ACS.c **** *  UART_ACS_Enable() function.
  58:Generated_Source\PSoC5/UART_ACS.c **** *
  59:Generated_Source\PSoC5/UART_ACS.c **** * Parameters:
  60:Generated_Source\PSoC5/UART_ACS.c **** *  None.
  61:Generated_Source\PSoC5/UART_ACS.c **** *
  62:Generated_Source\PSoC5/UART_ACS.c **** * Return:
  63:Generated_Source\PSoC5/UART_ACS.c **** *  None.
  64:Generated_Source\PSoC5/UART_ACS.c **** *
  65:Generated_Source\PSoC5/UART_ACS.c **** * Global variables:
  66:Generated_Source\PSoC5/UART_ACS.c **** *  The UART_ACS_intiVar variable is used to indicate initial
  67:Generated_Source\PSoC5/UART_ACS.c **** *  configuration of this component. The variable is initialized to zero (0u)
  68:Generated_Source\PSoC5/UART_ACS.c **** *  and set to one (1u) the first time UART_ACS_Start() is called. This
  69:Generated_Source\PSoC5/UART_ACS.c **** *  allows for component initialization without re-initialization in all
  70:Generated_Source\PSoC5/UART_ACS.c **** *  subsequent calls to the UART_ACS_Start() routine.
  71:Generated_Source\PSoC5/UART_ACS.c **** *
  72:Generated_Source\PSoC5/UART_ACS.c **** * Reentrant:
  73:Generated_Source\PSoC5/UART_ACS.c **** *  No.
  74:Generated_Source\PSoC5/UART_ACS.c **** *
  75:Generated_Source\PSoC5/UART_ACS.c **** *******************************************************************************/
  76:Generated_Source\PSoC5/UART_ACS.c **** void UART_ACS_Start(void) 
  77:Generated_Source\PSoC5/UART_ACS.c **** {
  78:Generated_Source\PSoC5/UART_ACS.c ****     /* If not initialized then initialize all required hardware and software */
  79:Generated_Source\PSoC5/UART_ACS.c ****     if(UART_ACS_initVar == 0u)
  80:Generated_Source\PSoC5/UART_ACS.c ****     {
  81:Generated_Source\PSoC5/UART_ACS.c ****         UART_ACS_Init();
  82:Generated_Source\PSoC5/UART_ACS.c ****         UART_ACS_initVar = 1u;
  83:Generated_Source\PSoC5/UART_ACS.c ****     }
  84:Generated_Source\PSoC5/UART_ACS.c **** 
  85:Generated_Source\PSoC5/UART_ACS.c ****     UART_ACS_Enable();
  86:Generated_Source\PSoC5/UART_ACS.c **** }
  87:Generated_Source\PSoC5/UART_ACS.c **** 
  88:Generated_Source\PSoC5/UART_ACS.c **** 
ARM GAS  C:\Users\yqh\AppData\Local\Temp\ccOHgKzc.s 			page 3


  89:Generated_Source\PSoC5/UART_ACS.c **** /*******************************************************************************
  90:Generated_Source\PSoC5/UART_ACS.c **** * Function Name: UART_ACS_Init
  91:Generated_Source\PSoC5/UART_ACS.c **** ********************************************************************************
  92:Generated_Source\PSoC5/UART_ACS.c **** *
  93:Generated_Source\PSoC5/UART_ACS.c **** * Summary:
  94:Generated_Source\PSoC5/UART_ACS.c **** *  Initializes or restores the component according to the customizer Configure
  95:Generated_Source\PSoC5/UART_ACS.c **** *  dialog settings. It is not necessary to call UART_ACS_Init() because
  96:Generated_Source\PSoC5/UART_ACS.c **** *  the UART_ACS_Start() API calls this function and is the preferred
  97:Generated_Source\PSoC5/UART_ACS.c **** *  method to begin component operation.
  98:Generated_Source\PSoC5/UART_ACS.c **** *
  99:Generated_Source\PSoC5/UART_ACS.c **** * Parameters:
 100:Generated_Source\PSoC5/UART_ACS.c **** *  None.
 101:Generated_Source\PSoC5/UART_ACS.c **** *
 102:Generated_Source\PSoC5/UART_ACS.c **** * Return:
 103:Generated_Source\PSoC5/UART_ACS.c **** *  None.
 104:Generated_Source\PSoC5/UART_ACS.c **** *
 105:Generated_Source\PSoC5/UART_ACS.c **** *******************************************************************************/
 106:Generated_Source\PSoC5/UART_ACS.c **** void UART_ACS_Init(void) 
 107:Generated_Source\PSoC5/UART_ACS.c **** {
  27              		.loc 1 107 0
  28              		.cfi_startproc
  29              		@ args = 0, pretend = 0, frame = 0
  30              		@ frame_needed = 0, uses_anonymous_args = 0
  31 0000 08B5     		push	{r3, lr}
  32              		.cfi_def_cfa_offset 8
  33              		.cfi_offset 3, -8
  34              		.cfi_offset 14, -4
 108:Generated_Source\PSoC5/UART_ACS.c ****     #if(UART_ACS_RX_ENABLED || UART_ACS_HD_ENABLED)
 109:Generated_Source\PSoC5/UART_ACS.c **** 
 110:Generated_Source\PSoC5/UART_ACS.c ****         #if (UART_ACS_RX_INTERRUPT_ENABLED)
 111:Generated_Source\PSoC5/UART_ACS.c ****             /* Set RX interrupt vector and priority */
 112:Generated_Source\PSoC5/UART_ACS.c ****             (void) CyIntSetVector(UART_ACS_RX_VECT_NUM, &UART_ACS_RXISR);
  35              		.loc 1 112 0
  36 0002 0949     		ldr	r1, .L2
  37 0004 0120     		movs	r0, #1
  38 0006 FFF7FEFF 		bl	CyIntSetVector
  39              	.LVL0:
 113:Generated_Source\PSoC5/UART_ACS.c ****             CyIntSetPriority(UART_ACS_RX_VECT_NUM, UART_ACS_RX_PRIOR_NUM);
  40              		.loc 1 113 0
  41 000a 0120     		movs	r0, #1
  42 000c 0721     		movs	r1, #7
  43 000e FFF7FEFF 		bl	CyIntSetPriority
  44              	.LVL1:
 114:Generated_Source\PSoC5/UART_ACS.c ****             UART_ACS_errorStatus = 0u;
  45              		.loc 1 114 0
  46 0012 064B     		ldr	r3, .L2+4
  47 0014 0022     		movs	r2, #0
  48 0016 1A70     		strb	r2, [r3]
 115:Generated_Source\PSoC5/UART_ACS.c ****         #endif /* (UART_ACS_RX_INTERRUPT_ENABLED) */
 116:Generated_Source\PSoC5/UART_ACS.c **** 
 117:Generated_Source\PSoC5/UART_ACS.c ****         #if (UART_ACS_RXHW_ADDRESS_ENABLED)
 118:Generated_Source\PSoC5/UART_ACS.c ****             UART_ACS_SetRxAddressMode(UART_ACS_RX_ADDRESS_MODE);
 119:Generated_Source\PSoC5/UART_ACS.c ****             UART_ACS_SetRxAddress1(UART_ACS_RX_HW_ADDRESS1);
 120:Generated_Source\PSoC5/UART_ACS.c ****             UART_ACS_SetRxAddress2(UART_ACS_RX_HW_ADDRESS2);
 121:Generated_Source\PSoC5/UART_ACS.c ****         #endif /* End UART_ACS_RXHW_ADDRESS_ENABLED */
 122:Generated_Source\PSoC5/UART_ACS.c **** 
 123:Generated_Source\PSoC5/UART_ACS.c ****         /* Init Count7 period */
ARM GAS  C:\Users\yqh\AppData\Local\Temp\ccOHgKzc.s 			page 4


 124:Generated_Source\PSoC5/UART_ACS.c ****         UART_ACS_RXBITCTR_PERIOD_REG = UART_ACS_RXBITCTR_INIT;
  49              		.loc 1 124 0
  50 0018 054B     		ldr	r3, .L2+8
  51 001a 7222     		movs	r2, #114
  52 001c 1A70     		strb	r2, [r3]
 125:Generated_Source\PSoC5/UART_ACS.c ****         /* Configure the Initial RX interrupt mask */
 126:Generated_Source\PSoC5/UART_ACS.c ****         UART_ACS_RXSTATUS_MASK_REG  = UART_ACS_INIT_RX_INTERRUPTS_MASK;
  53              		.loc 1 126 0
  54 001e 2022     		movs	r2, #32
  55 0020 83F80021 		strb	r2, [r3, #256]
  56 0024 08BD     		pop	{r3, pc}
  57              	.L3:
  58 0026 00BF     		.align	2
  59              	.L2:
  60 0028 00000000 		.word	UART_ACS_RXISR
  61 002c 00000000 		.word	.LANCHOR0
  62 0030 8A640040 		.word	1073767562
  63              		.cfi_endproc
  64              	.LFE1:
  65              		.size	UART_ACS_Init, .-UART_ACS_Init
  66              		.section	.text.UART_ACS_Enable,"ax",%progbits
  67              		.align	1
  68              		.global	UART_ACS_Enable
  69              		.thumb
  70              		.thumb_func
  71              		.type	UART_ACS_Enable, %function
  72              	UART_ACS_Enable:
  73              	.LFB2:
 127:Generated_Source\PSoC5/UART_ACS.c ****     #endif /* End UART_ACS_RX_ENABLED || UART_ACS_HD_ENABLED*/
 128:Generated_Source\PSoC5/UART_ACS.c **** 
 129:Generated_Source\PSoC5/UART_ACS.c ****     #if(UART_ACS_TX_ENABLED)
 130:Generated_Source\PSoC5/UART_ACS.c ****         #if (UART_ACS_TX_INTERRUPT_ENABLED)
 131:Generated_Source\PSoC5/UART_ACS.c ****             /* Set TX interrupt vector and priority */
 132:Generated_Source\PSoC5/UART_ACS.c ****             (void) CyIntSetVector(UART_ACS_TX_VECT_NUM, &UART_ACS_TXISR);
 133:Generated_Source\PSoC5/UART_ACS.c ****             CyIntSetPriority(UART_ACS_TX_VECT_NUM, UART_ACS_TX_PRIOR_NUM);
 134:Generated_Source\PSoC5/UART_ACS.c ****         #endif /* (UART_ACS_TX_INTERRUPT_ENABLED) */
 135:Generated_Source\PSoC5/UART_ACS.c **** 
 136:Generated_Source\PSoC5/UART_ACS.c ****         /* Write Counter Value for TX Bit Clk Generator*/
 137:Generated_Source\PSoC5/UART_ACS.c ****         #if (UART_ACS_TXCLKGEN_DP)
 138:Generated_Source\PSoC5/UART_ACS.c ****             UART_ACS_TXBITCLKGEN_CTR_REG = UART_ACS_BIT_CENTER;
 139:Generated_Source\PSoC5/UART_ACS.c ****             UART_ACS_TXBITCLKTX_COMPLETE_REG = ((UART_ACS_NUMBER_OF_DATA_BITS +
 140:Generated_Source\PSoC5/UART_ACS.c ****                         UART_ACS_NUMBER_OF_START_BIT) * UART_ACS_OVER_SAMPLE_COUNT) - 1u;
 141:Generated_Source\PSoC5/UART_ACS.c ****         #else
 142:Generated_Source\PSoC5/UART_ACS.c ****             UART_ACS_TXBITCTR_PERIOD_REG = ((UART_ACS_NUMBER_OF_DATA_BITS +
 143:Generated_Source\PSoC5/UART_ACS.c ****                         UART_ACS_NUMBER_OF_START_BIT) * UART_ACS_OVER_SAMPLE_8) - 1u;
 144:Generated_Source\PSoC5/UART_ACS.c ****         #endif /* End UART_ACS_TXCLKGEN_DP */
 145:Generated_Source\PSoC5/UART_ACS.c **** 
 146:Generated_Source\PSoC5/UART_ACS.c ****         /* Configure the Initial TX interrupt mask */
 147:Generated_Source\PSoC5/UART_ACS.c ****         #if (UART_ACS_TX_INTERRUPT_ENABLED)
 148:Generated_Source\PSoC5/UART_ACS.c ****             UART_ACS_TXSTATUS_MASK_REG = UART_ACS_TX_STS_FIFO_EMPTY;
 149:Generated_Source\PSoC5/UART_ACS.c ****         #else
 150:Generated_Source\PSoC5/UART_ACS.c ****             UART_ACS_TXSTATUS_MASK_REG = UART_ACS_INIT_TX_INTERRUPTS_MASK;
 151:Generated_Source\PSoC5/UART_ACS.c ****         #endif /*End UART_ACS_TX_INTERRUPT_ENABLED*/
 152:Generated_Source\PSoC5/UART_ACS.c **** 
 153:Generated_Source\PSoC5/UART_ACS.c ****     #endif /* End UART_ACS_TX_ENABLED */
 154:Generated_Source\PSoC5/UART_ACS.c **** 
 155:Generated_Source\PSoC5/UART_ACS.c ****     #if(UART_ACS_PARITY_TYPE_SW)  /* Write Parity to Control Register */
ARM GAS  C:\Users\yqh\AppData\Local\Temp\ccOHgKzc.s 			page 5


 156:Generated_Source\PSoC5/UART_ACS.c ****         UART_ACS_WriteControlRegister( \
 157:Generated_Source\PSoC5/UART_ACS.c ****             (UART_ACS_ReadControlRegister() & (uint8)~UART_ACS_CTRL_PARITY_TYPE_MASK) | \
 158:Generated_Source\PSoC5/UART_ACS.c ****             (uint8)(UART_ACS_PARITY_TYPE << UART_ACS_CTRL_PARITY_TYPE0_SHIFT) );
 159:Generated_Source\PSoC5/UART_ACS.c ****     #endif /* End UART_ACS_PARITY_TYPE_SW */
 160:Generated_Source\PSoC5/UART_ACS.c **** }
 161:Generated_Source\PSoC5/UART_ACS.c **** 
 162:Generated_Source\PSoC5/UART_ACS.c **** 
 163:Generated_Source\PSoC5/UART_ACS.c **** /*******************************************************************************
 164:Generated_Source\PSoC5/UART_ACS.c **** * Function Name: UART_ACS_Enable
 165:Generated_Source\PSoC5/UART_ACS.c **** ********************************************************************************
 166:Generated_Source\PSoC5/UART_ACS.c **** *
 167:Generated_Source\PSoC5/UART_ACS.c **** * Summary:
 168:Generated_Source\PSoC5/UART_ACS.c **** *  Activates the hardware and begins component operation. It is not necessary
 169:Generated_Source\PSoC5/UART_ACS.c **** *  to call UART_ACS_Enable() because the UART_ACS_Start() API
 170:Generated_Source\PSoC5/UART_ACS.c **** *  calls this function, which is the preferred method to begin component
 171:Generated_Source\PSoC5/UART_ACS.c **** *  operation.
 172:Generated_Source\PSoC5/UART_ACS.c **** 
 173:Generated_Source\PSoC5/UART_ACS.c **** * Parameters:
 174:Generated_Source\PSoC5/UART_ACS.c **** *  None.
 175:Generated_Source\PSoC5/UART_ACS.c **** *
 176:Generated_Source\PSoC5/UART_ACS.c **** * Return:
 177:Generated_Source\PSoC5/UART_ACS.c **** *  None.
 178:Generated_Source\PSoC5/UART_ACS.c **** *
 179:Generated_Source\PSoC5/UART_ACS.c **** * Global Variables:
 180:Generated_Source\PSoC5/UART_ACS.c **** *  UART_ACS_rxAddressDetected - set to initial state (0).
 181:Generated_Source\PSoC5/UART_ACS.c **** *
 182:Generated_Source\PSoC5/UART_ACS.c **** *******************************************************************************/
 183:Generated_Source\PSoC5/UART_ACS.c **** void UART_ACS_Enable(void) 
 184:Generated_Source\PSoC5/UART_ACS.c **** {
  74              		.loc 1 184 0
  75              		.cfi_startproc
  76              		@ args = 0, pretend = 0, frame = 0
  77              		@ frame_needed = 0, uses_anonymous_args = 0
  78 0000 08B5     		push	{r3, lr}
  79              		.cfi_def_cfa_offset 8
  80              		.cfi_offset 3, -8
  81              		.cfi_offset 14, -4
 185:Generated_Source\PSoC5/UART_ACS.c ****     uint8 enableInterrupts;
 186:Generated_Source\PSoC5/UART_ACS.c ****     enableInterrupts = CyEnterCriticalSection();
  82              		.loc 1 186 0
  83 0002 FFF7FEFF 		bl	CyEnterCriticalSection
  84              	.LVL2:
 187:Generated_Source\PSoC5/UART_ACS.c **** 
 188:Generated_Source\PSoC5/UART_ACS.c ****     #if (UART_ACS_RX_ENABLED || UART_ACS_HD_ENABLED)
 189:Generated_Source\PSoC5/UART_ACS.c ****         /* RX Counter (Count7) Enable */
 190:Generated_Source\PSoC5/UART_ACS.c ****         UART_ACS_RXBITCTR_CONTROL_REG |= UART_ACS_CNTR_ENABLE;
  85              		.loc 1 190 0
  86 0006 094A     		ldr	r2, .L5
  87 0008 1378     		ldrb	r3, [r2]	@ zero_extendqisi2
  88 000a 43F02003 		orr	r3, r3, #32
  89 000e 1370     		strb	r3, [r2]
 191:Generated_Source\PSoC5/UART_ACS.c **** 
 192:Generated_Source\PSoC5/UART_ACS.c ****         /* Enable the RX Interrupt */
 193:Generated_Source\PSoC5/UART_ACS.c ****         UART_ACS_RXSTATUS_ACTL_REG  |= UART_ACS_INT_ENABLE;
  90              		.loc 1 193 0
  91 0010 92F80031 		ldrb	r3, [r2, #256]	@ zero_extendqisi2
  92 0014 43F01003 		orr	r3, r3, #16
ARM GAS  C:\Users\yqh\AppData\Local\Temp\ccOHgKzc.s 			page 6


  93 0018 82F80031 		strb	r3, [r2, #256]
 194:Generated_Source\PSoC5/UART_ACS.c **** 
 195:Generated_Source\PSoC5/UART_ACS.c ****         #if (UART_ACS_RX_INTERRUPT_ENABLED)
 196:Generated_Source\PSoC5/UART_ACS.c ****             UART_ACS_EnableRxInt();
  94              		.loc 1 196 0
  95 001c 044B     		ldr	r3, .L5+4
  96 001e 0222     		movs	r2, #2
  97 0020 1A60     		str	r2, [r3]
 197:Generated_Source\PSoC5/UART_ACS.c **** 
 198:Generated_Source\PSoC5/UART_ACS.c ****             #if (UART_ACS_RXHW_ADDRESS_ENABLED)
 199:Generated_Source\PSoC5/UART_ACS.c ****                 UART_ACS_rxAddressDetected = 0u;
 200:Generated_Source\PSoC5/UART_ACS.c ****             #endif /* (UART_ACS_RXHW_ADDRESS_ENABLED) */
 201:Generated_Source\PSoC5/UART_ACS.c ****         #endif /* (UART_ACS_RX_INTERRUPT_ENABLED) */
 202:Generated_Source\PSoC5/UART_ACS.c ****     #endif /* (UART_ACS_RX_ENABLED || UART_ACS_HD_ENABLED) */
 203:Generated_Source\PSoC5/UART_ACS.c **** 
 204:Generated_Source\PSoC5/UART_ACS.c ****     #if(UART_ACS_TX_ENABLED)
 205:Generated_Source\PSoC5/UART_ACS.c ****         /* TX Counter (DP/Count7) Enable */
 206:Generated_Source\PSoC5/UART_ACS.c ****         #if(!UART_ACS_TXCLKGEN_DP)
 207:Generated_Source\PSoC5/UART_ACS.c ****             UART_ACS_TXBITCTR_CONTROL_REG |= UART_ACS_CNTR_ENABLE;
 208:Generated_Source\PSoC5/UART_ACS.c ****         #endif /* End UART_ACS_TXCLKGEN_DP */
 209:Generated_Source\PSoC5/UART_ACS.c **** 
 210:Generated_Source\PSoC5/UART_ACS.c ****         /* Enable the TX Interrupt */
 211:Generated_Source\PSoC5/UART_ACS.c ****         UART_ACS_TXSTATUS_ACTL_REG |= UART_ACS_INT_ENABLE;
 212:Generated_Source\PSoC5/UART_ACS.c ****         #if (UART_ACS_TX_INTERRUPT_ENABLED)
 213:Generated_Source\PSoC5/UART_ACS.c ****             UART_ACS_ClearPendingTxInt(); /* Clear history of TX_NOT_EMPTY */
 214:Generated_Source\PSoC5/UART_ACS.c ****             UART_ACS_EnableTxInt();
 215:Generated_Source\PSoC5/UART_ACS.c ****         #endif /* (UART_ACS_TX_INTERRUPT_ENABLED) */
 216:Generated_Source\PSoC5/UART_ACS.c ****      #endif /* (UART_ACS_TX_INTERRUPT_ENABLED) */
 217:Generated_Source\PSoC5/UART_ACS.c **** 
 218:Generated_Source\PSoC5/UART_ACS.c ****     #if (UART_ACS_INTERNAL_CLOCK_USED)
 219:Generated_Source\PSoC5/UART_ACS.c ****         UART_ACS_IntClock_Start();  /* Enable the clock */
 220:Generated_Source\PSoC5/UART_ACS.c ****     #endif /* (UART_ACS_INTERNAL_CLOCK_USED) */
 221:Generated_Source\PSoC5/UART_ACS.c **** 
 222:Generated_Source\PSoC5/UART_ACS.c ****     CyExitCriticalSection(enableInterrupts);
 223:Generated_Source\PSoC5/UART_ACS.c **** }
  98              		.loc 1 223 0
  99 0022 BDE80840 		pop	{r3, lr}
 100              		.cfi_restore 14
 101              		.cfi_restore 3
 102              		.cfi_def_cfa_offset 0
 222:Generated_Source\PSoC5/UART_ACS.c **** }
 103              		.loc 1 222 0
 104 0026 FFF7FEBF 		b	CyExitCriticalSection
 105              	.LVL3:
 106              	.L6:
 107 002a 00BF     		.align	2
 108              	.L5:
 109 002c 9A640040 		.word	1073767578
 110 0030 00E100E0 		.word	-536813312
 111              		.cfi_endproc
 112              	.LFE2:
 113              		.size	UART_ACS_Enable, .-UART_ACS_Enable
 114              		.section	.text.UART_ACS_Start,"ax",%progbits
 115              		.align	1
 116              		.global	UART_ACS_Start
 117              		.thumb
 118              		.thumb_func
ARM GAS  C:\Users\yqh\AppData\Local\Temp\ccOHgKzc.s 			page 7


 119              		.type	UART_ACS_Start, %function
 120              	UART_ACS_Start:
 121              	.LFB0:
  77:Generated_Source\PSoC5/UART_ACS.c ****     /* If not initialized then initialize all required hardware and software */
 122              		.loc 1 77 0
 123              		.cfi_startproc
 124              		@ args = 0, pretend = 0, frame = 0
 125              		@ frame_needed = 0, uses_anonymous_args = 0
 126 0000 10B5     		push	{r4, lr}
 127              		.cfi_def_cfa_offset 8
 128              		.cfi_offset 4, -8
 129              		.cfi_offset 14, -4
  79:Generated_Source\PSoC5/UART_ACS.c ****     {
 130              		.loc 1 79 0
 131 0002 054C     		ldr	r4, .L10
 132 0004 6378     		ldrb	r3, [r4, #1]	@ zero_extendqisi2
 133 0006 1BB9     		cbnz	r3, .L8
  81:Generated_Source\PSoC5/UART_ACS.c ****         UART_ACS_initVar = 1u;
 134              		.loc 1 81 0
 135 0008 FFF7FEFF 		bl	UART_ACS_Init
 136              	.LVL4:
  82:Generated_Source\PSoC5/UART_ACS.c ****     }
 137              		.loc 1 82 0
 138 000c 0123     		movs	r3, #1
 139 000e 6370     		strb	r3, [r4, #1]
 140              	.L8:
  86:Generated_Source\PSoC5/UART_ACS.c **** 
 141              		.loc 1 86 0
 142 0010 BDE81040 		pop	{r4, lr}
 143              		.cfi_restore 14
 144              		.cfi_restore 4
 145              		.cfi_def_cfa_offset 0
  85:Generated_Source\PSoC5/UART_ACS.c **** }
 146              		.loc 1 85 0
 147 0014 FFF7FEBF 		b	UART_ACS_Enable
 148              	.LVL5:
 149              	.L11:
 150              		.align	2
 151              	.L10:
 152 0018 00000000 		.word	.LANCHOR0
 153              		.cfi_endproc
 154              	.LFE0:
 155              		.size	UART_ACS_Start, .-UART_ACS_Start
 156              		.section	.text.UART_ACS_Stop,"ax",%progbits
 157              		.align	1
 158              		.global	UART_ACS_Stop
 159              		.thumb
 160              		.thumb_func
 161              		.type	UART_ACS_Stop, %function
 162              	UART_ACS_Stop:
 163              	.LFB3:
 224:Generated_Source\PSoC5/UART_ACS.c **** 
 225:Generated_Source\PSoC5/UART_ACS.c **** 
 226:Generated_Source\PSoC5/UART_ACS.c **** /*******************************************************************************
 227:Generated_Source\PSoC5/UART_ACS.c **** * Function Name: UART_ACS_Stop
 228:Generated_Source\PSoC5/UART_ACS.c **** ********************************************************************************
 229:Generated_Source\PSoC5/UART_ACS.c **** *
ARM GAS  C:\Users\yqh\AppData\Local\Temp\ccOHgKzc.s 			page 8


 230:Generated_Source\PSoC5/UART_ACS.c **** * Summary:
 231:Generated_Source\PSoC5/UART_ACS.c **** *  Disables the UART operation.
 232:Generated_Source\PSoC5/UART_ACS.c **** *
 233:Generated_Source\PSoC5/UART_ACS.c **** * Parameters:
 234:Generated_Source\PSoC5/UART_ACS.c **** *  None.
 235:Generated_Source\PSoC5/UART_ACS.c **** *
 236:Generated_Source\PSoC5/UART_ACS.c **** * Return:
 237:Generated_Source\PSoC5/UART_ACS.c **** *  None.
 238:Generated_Source\PSoC5/UART_ACS.c **** *
 239:Generated_Source\PSoC5/UART_ACS.c **** *******************************************************************************/
 240:Generated_Source\PSoC5/UART_ACS.c **** void UART_ACS_Stop(void) 
 241:Generated_Source\PSoC5/UART_ACS.c **** {
 164              		.loc 1 241 0
 165              		.cfi_startproc
 166              		@ args = 0, pretend = 0, frame = 0
 167              		@ frame_needed = 0, uses_anonymous_args = 0
 168 0000 08B5     		push	{r3, lr}
 169              		.cfi_def_cfa_offset 8
 170              		.cfi_offset 3, -8
 171              		.cfi_offset 14, -4
 242:Generated_Source\PSoC5/UART_ACS.c ****     uint8 enableInterrupts;
 243:Generated_Source\PSoC5/UART_ACS.c ****     enableInterrupts = CyEnterCriticalSection();
 172              		.loc 1 243 0
 173 0002 FFF7FEFF 		bl	CyEnterCriticalSection
 174              	.LVL6:
 244:Generated_Source\PSoC5/UART_ACS.c **** 
 245:Generated_Source\PSoC5/UART_ACS.c ****     /* Write Bit Counter Disable */
 246:Generated_Source\PSoC5/UART_ACS.c ****     #if (UART_ACS_RX_ENABLED || UART_ACS_HD_ENABLED)
 247:Generated_Source\PSoC5/UART_ACS.c ****         UART_ACS_RXBITCTR_CONTROL_REG &= (uint8) ~UART_ACS_CNTR_ENABLE;
 175              		.loc 1 247 0
 176 0006 094A     		ldr	r2, .L13
 177 0008 1378     		ldrb	r3, [r2]	@ zero_extendqisi2
 178 000a 03F0DF03 		and	r3, r3, #223
 179 000e 1370     		strb	r3, [r2]
 248:Generated_Source\PSoC5/UART_ACS.c ****     #endif /* (UART_ACS_RX_ENABLED || UART_ACS_HD_ENABLED) */
 249:Generated_Source\PSoC5/UART_ACS.c **** 
 250:Generated_Source\PSoC5/UART_ACS.c ****     #if (UART_ACS_TX_ENABLED)
 251:Generated_Source\PSoC5/UART_ACS.c ****         #if(!UART_ACS_TXCLKGEN_DP)
 252:Generated_Source\PSoC5/UART_ACS.c ****             UART_ACS_TXBITCTR_CONTROL_REG &= (uint8) ~UART_ACS_CNTR_ENABLE;
 253:Generated_Source\PSoC5/UART_ACS.c ****         #endif /* (!UART_ACS_TXCLKGEN_DP) */
 254:Generated_Source\PSoC5/UART_ACS.c ****     #endif /* (UART_ACS_TX_ENABLED) */
 255:Generated_Source\PSoC5/UART_ACS.c **** 
 256:Generated_Source\PSoC5/UART_ACS.c ****     #if (UART_ACS_INTERNAL_CLOCK_USED)
 257:Generated_Source\PSoC5/UART_ACS.c ****         UART_ACS_IntClock_Stop();   /* Disable the clock */
 258:Generated_Source\PSoC5/UART_ACS.c ****     #endif /* (UART_ACS_INTERNAL_CLOCK_USED) */
 259:Generated_Source\PSoC5/UART_ACS.c **** 
 260:Generated_Source\PSoC5/UART_ACS.c ****     /* Disable internal interrupt component */
 261:Generated_Source\PSoC5/UART_ACS.c ****     #if (UART_ACS_RX_ENABLED || UART_ACS_HD_ENABLED)
 262:Generated_Source\PSoC5/UART_ACS.c ****         UART_ACS_RXSTATUS_ACTL_REG  &= (uint8) ~UART_ACS_INT_ENABLE;
 180              		.loc 1 262 0
 181 0010 92F80031 		ldrb	r3, [r2, #256]	@ zero_extendqisi2
 182 0014 03F0EF03 		and	r3, r3, #239
 183 0018 82F80031 		strb	r3, [r2, #256]
 263:Generated_Source\PSoC5/UART_ACS.c **** 
 264:Generated_Source\PSoC5/UART_ACS.c ****         #if (UART_ACS_RX_INTERRUPT_ENABLED)
 265:Generated_Source\PSoC5/UART_ACS.c ****             UART_ACS_DisableRxInt();
 184              		.loc 1 265 0
ARM GAS  C:\Users\yqh\AppData\Local\Temp\ccOHgKzc.s 			page 9


 185 001c 044B     		ldr	r3, .L13+4
 186 001e 0222     		movs	r2, #2
 187 0020 1A60     		str	r2, [r3]
 266:Generated_Source\PSoC5/UART_ACS.c ****         #endif /* (UART_ACS_RX_INTERRUPT_ENABLED) */
 267:Generated_Source\PSoC5/UART_ACS.c ****     #endif /* (UART_ACS_RX_ENABLED || UART_ACS_HD_ENABLED) */
 268:Generated_Source\PSoC5/UART_ACS.c **** 
 269:Generated_Source\PSoC5/UART_ACS.c ****     #if (UART_ACS_TX_ENABLED)
 270:Generated_Source\PSoC5/UART_ACS.c ****         UART_ACS_TXSTATUS_ACTL_REG &= (uint8) ~UART_ACS_INT_ENABLE;
 271:Generated_Source\PSoC5/UART_ACS.c **** 
 272:Generated_Source\PSoC5/UART_ACS.c ****         #if (UART_ACS_TX_INTERRUPT_ENABLED)
 273:Generated_Source\PSoC5/UART_ACS.c ****             UART_ACS_DisableTxInt();
 274:Generated_Source\PSoC5/UART_ACS.c ****         #endif /* (UART_ACS_TX_INTERRUPT_ENABLED) */
 275:Generated_Source\PSoC5/UART_ACS.c ****     #endif /* (UART_ACS_TX_ENABLED) */
 276:Generated_Source\PSoC5/UART_ACS.c **** 
 277:Generated_Source\PSoC5/UART_ACS.c ****     CyExitCriticalSection(enableInterrupts);
 278:Generated_Source\PSoC5/UART_ACS.c **** }
 188              		.loc 1 278 0
 189 0022 BDE80840 		pop	{r3, lr}
 190              		.cfi_restore 14
 191              		.cfi_restore 3
 192              		.cfi_def_cfa_offset 0
 277:Generated_Source\PSoC5/UART_ACS.c **** }
 193              		.loc 1 277 0
 194 0026 FFF7FEBF 		b	CyExitCriticalSection
 195              	.LVL7:
 196              	.L14:
 197 002a 00BF     		.align	2
 198              	.L13:
 199 002c 9A640040 		.word	1073767578
 200 0030 80E100E0 		.word	-536813184
 201              		.cfi_endproc
 202              	.LFE3:
 203              		.size	UART_ACS_Stop, .-UART_ACS_Stop
 204              		.section	.text.UART_ACS_ReadControlRegister,"ax",%progbits
 205              		.align	1
 206              		.global	UART_ACS_ReadControlRegister
 207              		.thumb
 208              		.thumb_func
 209              		.type	UART_ACS_ReadControlRegister, %function
 210              	UART_ACS_ReadControlRegister:
 211              	.LFB4:
 279:Generated_Source\PSoC5/UART_ACS.c **** 
 280:Generated_Source\PSoC5/UART_ACS.c **** 
 281:Generated_Source\PSoC5/UART_ACS.c **** /*******************************************************************************
 282:Generated_Source\PSoC5/UART_ACS.c **** * Function Name: UART_ACS_ReadControlRegister
 283:Generated_Source\PSoC5/UART_ACS.c **** ********************************************************************************
 284:Generated_Source\PSoC5/UART_ACS.c **** *
 285:Generated_Source\PSoC5/UART_ACS.c **** * Summary:
 286:Generated_Source\PSoC5/UART_ACS.c **** *  Returns the current value of the control register.
 287:Generated_Source\PSoC5/UART_ACS.c **** *
 288:Generated_Source\PSoC5/UART_ACS.c **** * Parameters:
 289:Generated_Source\PSoC5/UART_ACS.c **** *  None.
 290:Generated_Source\PSoC5/UART_ACS.c **** *
 291:Generated_Source\PSoC5/UART_ACS.c **** * Return:
 292:Generated_Source\PSoC5/UART_ACS.c **** *  Contents of the control register.
 293:Generated_Source\PSoC5/UART_ACS.c **** *
 294:Generated_Source\PSoC5/UART_ACS.c **** *******************************************************************************/
ARM GAS  C:\Users\yqh\AppData\Local\Temp\ccOHgKzc.s 			page 10


 295:Generated_Source\PSoC5/UART_ACS.c **** uint8 UART_ACS_ReadControlRegister(void) 
 296:Generated_Source\PSoC5/UART_ACS.c **** {
 212              		.loc 1 296 0
 213              		.cfi_startproc
 214              		@ args = 0, pretend = 0, frame = 0
 215              		@ frame_needed = 0, uses_anonymous_args = 0
 216              		@ link register save eliminated.
 297:Generated_Source\PSoC5/UART_ACS.c ****     #if (UART_ACS_CONTROL_REG_REMOVED)
 298:Generated_Source\PSoC5/UART_ACS.c ****         return(0u);
 299:Generated_Source\PSoC5/UART_ACS.c ****     #else
 300:Generated_Source\PSoC5/UART_ACS.c ****         return(UART_ACS_CONTROL_REG);
 217              		.loc 1 300 0
 218 0000 014B     		ldr	r3, .L16
 219 0002 1878     		ldrb	r0, [r3]	@ zero_extendqisi2
 301:Generated_Source\PSoC5/UART_ACS.c ****     #endif /* (UART_ACS_CONTROL_REG_REMOVED) */
 302:Generated_Source\PSoC5/UART_ACS.c **** }
 220              		.loc 1 302 0
 221 0004 7047     		bx	lr
 222              	.L17:
 223 0006 00BF     		.align	2
 224              	.L16:
 225 0008 74650040 		.word	1073767796
 226              		.cfi_endproc
 227              	.LFE4:
 228              		.size	UART_ACS_ReadControlRegister, .-UART_ACS_ReadControlRegister
 229              		.section	.text.UART_ACS_WriteControlRegister,"ax",%progbits
 230              		.align	1
 231              		.global	UART_ACS_WriteControlRegister
 232              		.thumb
 233              		.thumb_func
 234              		.type	UART_ACS_WriteControlRegister, %function
 235              	UART_ACS_WriteControlRegister:
 236              	.LFB5:
 303:Generated_Source\PSoC5/UART_ACS.c **** 
 304:Generated_Source\PSoC5/UART_ACS.c **** 
 305:Generated_Source\PSoC5/UART_ACS.c **** /*******************************************************************************
 306:Generated_Source\PSoC5/UART_ACS.c **** * Function Name: UART_ACS_WriteControlRegister
 307:Generated_Source\PSoC5/UART_ACS.c **** ********************************************************************************
 308:Generated_Source\PSoC5/UART_ACS.c **** *
 309:Generated_Source\PSoC5/UART_ACS.c **** * Summary:
 310:Generated_Source\PSoC5/UART_ACS.c **** *  Writes an 8-bit value into the control register
 311:Generated_Source\PSoC5/UART_ACS.c **** *
 312:Generated_Source\PSoC5/UART_ACS.c **** * Parameters:
 313:Generated_Source\PSoC5/UART_ACS.c **** *  control:  control register value
 314:Generated_Source\PSoC5/UART_ACS.c **** *
 315:Generated_Source\PSoC5/UART_ACS.c **** * Return:
 316:Generated_Source\PSoC5/UART_ACS.c **** *  None.
 317:Generated_Source\PSoC5/UART_ACS.c **** *
 318:Generated_Source\PSoC5/UART_ACS.c **** *******************************************************************************/
 319:Generated_Source\PSoC5/UART_ACS.c **** void  UART_ACS_WriteControlRegister(uint8 control) 
 320:Generated_Source\PSoC5/UART_ACS.c **** {
 237              		.loc 1 320 0
 238              		.cfi_startproc
 239              		@ args = 0, pretend = 0, frame = 0
 240              		@ frame_needed = 0, uses_anonymous_args = 0
 241              		@ link register save eliminated.
 242              	.LVL8:
ARM GAS  C:\Users\yqh\AppData\Local\Temp\ccOHgKzc.s 			page 11


 321:Generated_Source\PSoC5/UART_ACS.c ****     #if (UART_ACS_CONTROL_REG_REMOVED)
 322:Generated_Source\PSoC5/UART_ACS.c ****         if(0u != control)
 323:Generated_Source\PSoC5/UART_ACS.c ****         {
 324:Generated_Source\PSoC5/UART_ACS.c ****             /* Suppress compiler warning */
 325:Generated_Source\PSoC5/UART_ACS.c ****         }
 326:Generated_Source\PSoC5/UART_ACS.c ****     #else
 327:Generated_Source\PSoC5/UART_ACS.c ****        UART_ACS_CONTROL_REG = control;
 243              		.loc 1 327 0
 244 0000 014B     		ldr	r3, .L19
 245 0002 1870     		strb	r0, [r3]
 246 0004 7047     		bx	lr
 247              	.L20:
 248 0006 00BF     		.align	2
 249              	.L19:
 250 0008 74650040 		.word	1073767796
 251              		.cfi_endproc
 252              	.LFE5:
 253              		.size	UART_ACS_WriteControlRegister, .-UART_ACS_WriteControlRegister
 254              		.section	.text.UART_ACS_SetRxInterruptMode,"ax",%progbits
 255              		.align	1
 256              		.global	UART_ACS_SetRxInterruptMode
 257              		.thumb
 258              		.thumb_func
 259              		.type	UART_ACS_SetRxInterruptMode, %function
 260              	UART_ACS_SetRxInterruptMode:
 261              	.LFB6:
 328:Generated_Source\PSoC5/UART_ACS.c ****     #endif /* (UART_ACS_CONTROL_REG_REMOVED) */
 329:Generated_Source\PSoC5/UART_ACS.c **** }
 330:Generated_Source\PSoC5/UART_ACS.c **** 
 331:Generated_Source\PSoC5/UART_ACS.c **** 
 332:Generated_Source\PSoC5/UART_ACS.c **** #if(UART_ACS_RX_ENABLED || UART_ACS_HD_ENABLED)
 333:Generated_Source\PSoC5/UART_ACS.c ****     /*******************************************************************************
 334:Generated_Source\PSoC5/UART_ACS.c ****     * Function Name: UART_ACS_SetRxInterruptMode
 335:Generated_Source\PSoC5/UART_ACS.c ****     ********************************************************************************
 336:Generated_Source\PSoC5/UART_ACS.c ****     *
 337:Generated_Source\PSoC5/UART_ACS.c ****     * Summary:
 338:Generated_Source\PSoC5/UART_ACS.c ****     *  Configures the RX interrupt sources enabled.
 339:Generated_Source\PSoC5/UART_ACS.c ****     *
 340:Generated_Source\PSoC5/UART_ACS.c ****     * Parameters:
 341:Generated_Source\PSoC5/UART_ACS.c ****     *  IntSrc:  Bit field containing the RX interrupts to enable. Based on the 
 342:Generated_Source\PSoC5/UART_ACS.c ****     *  bit-field arrangement of the status register. This value must be a 
 343:Generated_Source\PSoC5/UART_ACS.c ****     *  combination of status register bit-masks shown below:
 344:Generated_Source\PSoC5/UART_ACS.c ****     *      UART_ACS_RX_STS_FIFO_NOTEMPTY    Interrupt on byte received.
 345:Generated_Source\PSoC5/UART_ACS.c ****     *      UART_ACS_RX_STS_PAR_ERROR        Interrupt on parity error.
 346:Generated_Source\PSoC5/UART_ACS.c ****     *      UART_ACS_RX_STS_STOP_ERROR       Interrupt on stop error.
 347:Generated_Source\PSoC5/UART_ACS.c ****     *      UART_ACS_RX_STS_BREAK            Interrupt on break.
 348:Generated_Source\PSoC5/UART_ACS.c ****     *      UART_ACS_RX_STS_OVERRUN          Interrupt on overrun error.
 349:Generated_Source\PSoC5/UART_ACS.c ****     *      UART_ACS_RX_STS_ADDR_MATCH       Interrupt on address match.
 350:Generated_Source\PSoC5/UART_ACS.c ****     *      UART_ACS_RX_STS_MRKSPC           Interrupt on address detect.
 351:Generated_Source\PSoC5/UART_ACS.c ****     *
 352:Generated_Source\PSoC5/UART_ACS.c ****     * Return:
 353:Generated_Source\PSoC5/UART_ACS.c ****     *  None.
 354:Generated_Source\PSoC5/UART_ACS.c ****     *
 355:Generated_Source\PSoC5/UART_ACS.c ****     * Theory:
 356:Generated_Source\PSoC5/UART_ACS.c ****     *  Enables the output of specific status bits to the interrupt controller
 357:Generated_Source\PSoC5/UART_ACS.c ****     *
 358:Generated_Source\PSoC5/UART_ACS.c ****     *******************************************************************************/
ARM GAS  C:\Users\yqh\AppData\Local\Temp\ccOHgKzc.s 			page 12


 359:Generated_Source\PSoC5/UART_ACS.c ****     void UART_ACS_SetRxInterruptMode(uint8 intSrc) 
 360:Generated_Source\PSoC5/UART_ACS.c ****     {
 262              		.loc 1 360 0
 263              		.cfi_startproc
 264              		@ args = 0, pretend = 0, frame = 0
 265              		@ frame_needed = 0, uses_anonymous_args = 0
 266              		@ link register save eliminated.
 267              	.LVL9:
 361:Generated_Source\PSoC5/UART_ACS.c ****         UART_ACS_RXSTATUS_MASK_REG  = intSrc;
 268              		.loc 1 361 0
 269 0000 014B     		ldr	r3, .L22
 270 0002 1870     		strb	r0, [r3]
 271 0004 7047     		bx	lr
 272              	.L23:
 273 0006 00BF     		.align	2
 274              	.L22:
 275 0008 8A650040 		.word	1073767818
 276              		.cfi_endproc
 277              	.LFE6:
 278              		.size	UART_ACS_SetRxInterruptMode, .-UART_ACS_SetRxInterruptMode
 279              		.section	.text.UART_ACS_ReadRxData,"ax",%progbits
 280              		.align	1
 281              		.global	UART_ACS_ReadRxData
 282              		.thumb
 283              		.thumb_func
 284              		.type	UART_ACS_ReadRxData, %function
 285              	UART_ACS_ReadRxData:
 286              	.LFB7:
 362:Generated_Source\PSoC5/UART_ACS.c ****     }
 363:Generated_Source\PSoC5/UART_ACS.c **** 
 364:Generated_Source\PSoC5/UART_ACS.c **** 
 365:Generated_Source\PSoC5/UART_ACS.c ****     /*******************************************************************************
 366:Generated_Source\PSoC5/UART_ACS.c ****     * Function Name: UART_ACS_ReadRxData
 367:Generated_Source\PSoC5/UART_ACS.c ****     ********************************************************************************
 368:Generated_Source\PSoC5/UART_ACS.c ****     *
 369:Generated_Source\PSoC5/UART_ACS.c ****     * Summary:
 370:Generated_Source\PSoC5/UART_ACS.c ****     *  Returns the next byte of received data. This function returns data without
 371:Generated_Source\PSoC5/UART_ACS.c ****     *  checking the status. You must check the status separately.
 372:Generated_Source\PSoC5/UART_ACS.c ****     *
 373:Generated_Source\PSoC5/UART_ACS.c ****     * Parameters:
 374:Generated_Source\PSoC5/UART_ACS.c ****     *  None.
 375:Generated_Source\PSoC5/UART_ACS.c ****     *
 376:Generated_Source\PSoC5/UART_ACS.c ****     * Return:
 377:Generated_Source\PSoC5/UART_ACS.c ****     *  Received data from RX register
 378:Generated_Source\PSoC5/UART_ACS.c ****     *
 379:Generated_Source\PSoC5/UART_ACS.c ****     * Global Variables:
 380:Generated_Source\PSoC5/UART_ACS.c ****     *  UART_ACS_rxBuffer - RAM buffer pointer for save received data.
 381:Generated_Source\PSoC5/UART_ACS.c ****     *  UART_ACS_rxBufferWrite - cyclic index for write to rxBuffer,
 382:Generated_Source\PSoC5/UART_ACS.c ****     *     checked to identify new data.
 383:Generated_Source\PSoC5/UART_ACS.c ****     *  UART_ACS_rxBufferRead - cyclic index for read from rxBuffer,
 384:Generated_Source\PSoC5/UART_ACS.c ****     *     incremented after each byte has been read from buffer.
 385:Generated_Source\PSoC5/UART_ACS.c ****     *  UART_ACS_rxBufferLoopDetect - cleared if loop condition was detected
 386:Generated_Source\PSoC5/UART_ACS.c ****     *     in RX ISR.
 387:Generated_Source\PSoC5/UART_ACS.c ****     *
 388:Generated_Source\PSoC5/UART_ACS.c ****     * Reentrant:
 389:Generated_Source\PSoC5/UART_ACS.c ****     *  No.
 390:Generated_Source\PSoC5/UART_ACS.c ****     *
ARM GAS  C:\Users\yqh\AppData\Local\Temp\ccOHgKzc.s 			page 13


 391:Generated_Source\PSoC5/UART_ACS.c ****     *******************************************************************************/
 392:Generated_Source\PSoC5/UART_ACS.c ****     uint8 UART_ACS_ReadRxData(void) 
 393:Generated_Source\PSoC5/UART_ACS.c ****     {
 287              		.loc 1 393 0
 288              		.cfi_startproc
 289              		@ args = 0, pretend = 0, frame = 0
 290              		@ frame_needed = 0, uses_anonymous_args = 0
 291              		@ link register save eliminated.
 394:Generated_Source\PSoC5/UART_ACS.c ****         uint8 rxData;
 395:Generated_Source\PSoC5/UART_ACS.c **** 
 396:Generated_Source\PSoC5/UART_ACS.c ****     #if (UART_ACS_RX_INTERRUPT_ENABLED)
 397:Generated_Source\PSoC5/UART_ACS.c **** 
 398:Generated_Source\PSoC5/UART_ACS.c ****         uint16 locRxBufferRead;
 399:Generated_Source\PSoC5/UART_ACS.c ****         uint16 locRxBufferWrite;
 400:Generated_Source\PSoC5/UART_ACS.c **** 
 401:Generated_Source\PSoC5/UART_ACS.c ****         /* Protect variables that could change on interrupt */
 402:Generated_Source\PSoC5/UART_ACS.c ****         UART_ACS_DisableRxInt();
 292              		.loc 1 402 0
 293 0000 114B     		ldr	r3, .L32
 294 0002 0222     		movs	r2, #2
 295 0004 1A60     		str	r2, [r3]
 403:Generated_Source\PSoC5/UART_ACS.c **** 
 404:Generated_Source\PSoC5/UART_ACS.c ****         locRxBufferRead  = UART_ACS_rxBufferRead;
 296              		.loc 1 404 0
 297 0006 114A     		ldr	r2, .L32+4
 298 0008 5388     		ldrh	r3, [r2, #2]
 405:Generated_Source\PSoC5/UART_ACS.c ****         locRxBufferWrite = UART_ACS_rxBufferWrite;
 299              		.loc 1 405 0
 300 000a 9188     		ldrh	r1, [r2, #4]
 406:Generated_Source\PSoC5/UART_ACS.c **** 
 407:Generated_Source\PSoC5/UART_ACS.c ****         if( (UART_ACS_rxBufferLoopDetect != 0u) || (locRxBufferRead != locRxBufferWrite) )
 301              		.loc 1 407 0
 302 000c 9079     		ldrb	r0, [r2, #6]	@ zero_extendqisi2
 404:Generated_Source\PSoC5/UART_ACS.c ****         locRxBufferWrite = UART_ACS_rxBufferWrite;
 303              		.loc 1 404 0
 304 000e 9BB2     		uxth	r3, r3
 305              	.LVL10:
 405:Generated_Source\PSoC5/UART_ACS.c ****         locRxBufferWrite = UART_ACS_rxBufferWrite;
 306              		.loc 1 405 0
 307 0010 89B2     		uxth	r1, r1
 308              	.LVL11:
 309              		.loc 1 407 0
 310 0012 08B9     		cbnz	r0, .L25
 311              		.loc 1 407 0 is_stmt 0 discriminator 1
 312 0014 8B42     		cmp	r3, r1
 313 0016 0FD0     		beq	.L26
 314              	.L25:
 408:Generated_Source\PSoC5/UART_ACS.c ****         {
 409:Generated_Source\PSoC5/UART_ACS.c ****             rxData = UART_ACS_rxBuffer[locRxBufferRead];
 315              		.loc 1 409 0 is_stmt 1
 316 0018 0D49     		ldr	r1, .L32+8
 317              	.LVL12:
 318 001a C85C     		ldrb	r0, [r1, r3]	@ zero_extendqisi2
 410:Generated_Source\PSoC5/UART_ACS.c ****             locRxBufferRead++;
 319              		.loc 1 410 0
 320 001c 0133     		adds	r3, r3, #1
 321              	.LVL13:
ARM GAS  C:\Users\yqh\AppData\Local\Temp\ccOHgKzc.s 			page 14


 322 001e 9BB2     		uxth	r3, r3
 323              	.LVL14:
 411:Generated_Source\PSoC5/UART_ACS.c **** 
 412:Generated_Source\PSoC5/UART_ACS.c ****             if(locRxBufferRead >= UART_ACS_RX_BUFFER_SIZE)
 413:Generated_Source\PSoC5/UART_ACS.c ****             {
 414:Generated_Source\PSoC5/UART_ACS.c ****                 locRxBufferRead = 0u;
 324              		.loc 1 414 0
 325 0020 B3F5807F 		cmp	r3, #256
 326 0024 28BF     		it	cs
 327 0026 0023     		movcs	r3, #0
 415:Generated_Source\PSoC5/UART_ACS.c ****             }
 416:Generated_Source\PSoC5/UART_ACS.c ****             /* Update the real pointer */
 417:Generated_Source\PSoC5/UART_ACS.c ****             UART_ACS_rxBufferRead = locRxBufferRead;
 328              		.loc 1 417 0
 329 0028 5380     		strh	r3, [r2, #2]	@ movhi
 418:Generated_Source\PSoC5/UART_ACS.c **** 
 419:Generated_Source\PSoC5/UART_ACS.c ****             if(UART_ACS_rxBufferLoopDetect != 0u)
 330              		.loc 1 419 0
 331 002a 9379     		ldrb	r3, [r2, #6]	@ zero_extendqisi2
 409:Generated_Source\PSoC5/UART_ACS.c ****             locRxBufferRead++;
 332              		.loc 1 409 0
 333 002c C0B2     		uxtb	r0, r0
 334              	.LVL15:
 335              		.loc 1 419 0
 336 002e 33B1     		cbz	r3, .L28
 420:Generated_Source\PSoC5/UART_ACS.c ****             {
 421:Generated_Source\PSoC5/UART_ACS.c ****                 UART_ACS_rxBufferLoopDetect = 0u;
 337              		.loc 1 421 0
 338 0030 064B     		ldr	r3, .L32+4
 339 0032 0022     		movs	r2, #0
 340 0034 9A71     		strb	r2, [r3, #6]
 341 0036 02E0     		b	.L28
 342              	.LVL16:
 343              	.L26:
 422:Generated_Source\PSoC5/UART_ACS.c ****                 #if ((UART_ACS_RX_INTERRUPT_ENABLED) && (UART_ACS_FLOW_CONTROL != 0u))
 423:Generated_Source\PSoC5/UART_ACS.c ****                     /* When Hardware Flow Control selected - return RX mask */
 424:Generated_Source\PSoC5/UART_ACS.c ****                     #if( UART_ACS_HD_ENABLED )
 425:Generated_Source\PSoC5/UART_ACS.c ****                         if((UART_ACS_CONTROL_REG & UART_ACS_CTRL_HD_SEND) == 0u)
 426:Generated_Source\PSoC5/UART_ACS.c ****                         {   /* In Half duplex mode return RX mask only in RX
 427:Generated_Source\PSoC5/UART_ACS.c ****                             *  configuration set, otherwise
 428:Generated_Source\PSoC5/UART_ACS.c ****                             *  mask will be returned in LoadRxConfig() API.
 429:Generated_Source\PSoC5/UART_ACS.c ****                             */
 430:Generated_Source\PSoC5/UART_ACS.c ****                             UART_ACS_RXSTATUS_MASK_REG  |= UART_ACS_RX_STS_FIFO_NOTEMPTY;
 431:Generated_Source\PSoC5/UART_ACS.c ****                         }
 432:Generated_Source\PSoC5/UART_ACS.c ****                     #else
 433:Generated_Source\PSoC5/UART_ACS.c ****                         UART_ACS_RXSTATUS_MASK_REG  |= UART_ACS_RX_STS_FIFO_NOTEMPTY;
 434:Generated_Source\PSoC5/UART_ACS.c ****                     #endif /* end UART_ACS_HD_ENABLED */
 435:Generated_Source\PSoC5/UART_ACS.c ****                 #endif /* ((UART_ACS_RX_INTERRUPT_ENABLED) && (UART_ACS_FLOW_CONTROL != 0u)) */
 436:Generated_Source\PSoC5/UART_ACS.c ****             }
 437:Generated_Source\PSoC5/UART_ACS.c ****         }
 438:Generated_Source\PSoC5/UART_ACS.c ****         else
 439:Generated_Source\PSoC5/UART_ACS.c ****         {   /* Needs to check status for RX_STS_FIFO_NOTEMPTY bit */
 440:Generated_Source\PSoC5/UART_ACS.c ****             rxData = UART_ACS_RXDATA_REG;
 344              		.loc 1 440 0
 345 0038 064B     		ldr	r3, .L32+12
 346              	.LVL17:
 347 003a 1878     		ldrb	r0, [r3]	@ zero_extendqisi2
ARM GAS  C:\Users\yqh\AppData\Local\Temp\ccOHgKzc.s 			page 15


 348 003c C0B2     		uxtb	r0, r0
 349              	.LVL18:
 350              	.L28:
 441:Generated_Source\PSoC5/UART_ACS.c ****         }
 442:Generated_Source\PSoC5/UART_ACS.c **** 
 443:Generated_Source\PSoC5/UART_ACS.c ****         UART_ACS_EnableRxInt();
 351              		.loc 1 443 0
 352 003e 064B     		ldr	r3, .L32+16
 353 0040 0222     		movs	r2, #2
 354 0042 1A60     		str	r2, [r3]
 444:Generated_Source\PSoC5/UART_ACS.c **** 
 445:Generated_Source\PSoC5/UART_ACS.c ****     #else
 446:Generated_Source\PSoC5/UART_ACS.c **** 
 447:Generated_Source\PSoC5/UART_ACS.c ****         /* Needs to check status for RX_STS_FIFO_NOTEMPTY bit */
 448:Generated_Source\PSoC5/UART_ACS.c ****         rxData = UART_ACS_RXDATA_REG;
 449:Generated_Source\PSoC5/UART_ACS.c **** 
 450:Generated_Source\PSoC5/UART_ACS.c ****     #endif /* (UART_ACS_RX_INTERRUPT_ENABLED) */
 451:Generated_Source\PSoC5/UART_ACS.c **** 
 452:Generated_Source\PSoC5/UART_ACS.c ****         return(rxData);
 453:Generated_Source\PSoC5/UART_ACS.c ****     }
 355              		.loc 1 453 0
 356 0044 7047     		bx	lr
 357              	.L33:
 358 0046 00BF     		.align	2
 359              	.L32:
 360 0048 80E100E0 		.word	-536813184
 361 004c 00000000 		.word	.LANCHOR0
 362 0050 00000000 		.word	UART_ACS_rxBuffer
 363 0054 49640040 		.word	1073767497
 364 0058 00E100E0 		.word	-536813312
 365              		.cfi_endproc
 366              	.LFE7:
 367              		.size	UART_ACS_ReadRxData, .-UART_ACS_ReadRxData
 368              		.section	.text.UART_ACS_ReadRxStatus,"ax",%progbits
 369              		.align	1
 370              		.global	UART_ACS_ReadRxStatus
 371              		.thumb
 372              		.thumb_func
 373              		.type	UART_ACS_ReadRxStatus, %function
 374              	UART_ACS_ReadRxStatus:
 375              	.LFB8:
 454:Generated_Source\PSoC5/UART_ACS.c **** 
 455:Generated_Source\PSoC5/UART_ACS.c **** 
 456:Generated_Source\PSoC5/UART_ACS.c ****     /*******************************************************************************
 457:Generated_Source\PSoC5/UART_ACS.c ****     * Function Name: UART_ACS_ReadRxStatus
 458:Generated_Source\PSoC5/UART_ACS.c ****     ********************************************************************************
 459:Generated_Source\PSoC5/UART_ACS.c ****     *
 460:Generated_Source\PSoC5/UART_ACS.c ****     * Summary:
 461:Generated_Source\PSoC5/UART_ACS.c ****     *  Returns the current state of the receiver status register and the software
 462:Generated_Source\PSoC5/UART_ACS.c ****     *  buffer overflow status.
 463:Generated_Source\PSoC5/UART_ACS.c ****     *
 464:Generated_Source\PSoC5/UART_ACS.c ****     * Parameters:
 465:Generated_Source\PSoC5/UART_ACS.c ****     *  None.
 466:Generated_Source\PSoC5/UART_ACS.c ****     *
 467:Generated_Source\PSoC5/UART_ACS.c ****     * Return:
 468:Generated_Source\PSoC5/UART_ACS.c ****     *  Current state of the status register.
 469:Generated_Source\PSoC5/UART_ACS.c ****     *
ARM GAS  C:\Users\yqh\AppData\Local\Temp\ccOHgKzc.s 			page 16


 470:Generated_Source\PSoC5/UART_ACS.c ****     * Side Effect:
 471:Generated_Source\PSoC5/UART_ACS.c ****     *  All status register bits are clear-on-read except
 472:Generated_Source\PSoC5/UART_ACS.c ****     *  UART_ACS_RX_STS_FIFO_NOTEMPTY.
 473:Generated_Source\PSoC5/UART_ACS.c ****     *  UART_ACS_RX_STS_FIFO_NOTEMPTY clears immediately after RX data
 474:Generated_Source\PSoC5/UART_ACS.c ****     *  register read.
 475:Generated_Source\PSoC5/UART_ACS.c ****     *
 476:Generated_Source\PSoC5/UART_ACS.c ****     * Global Variables:
 477:Generated_Source\PSoC5/UART_ACS.c ****     *  UART_ACS_rxBufferOverflow - used to indicate overload condition.
 478:Generated_Source\PSoC5/UART_ACS.c ****     *   It set to one in RX interrupt when there isn't free space in
 479:Generated_Source\PSoC5/UART_ACS.c ****     *   UART_ACS_rxBufferRead to write new data. This condition returned
 480:Generated_Source\PSoC5/UART_ACS.c ****     *   and cleared to zero by this API as an
 481:Generated_Source\PSoC5/UART_ACS.c ****     *   UART_ACS_RX_STS_SOFT_BUFF_OVER bit along with RX Status register
 482:Generated_Source\PSoC5/UART_ACS.c ****     *   bits.
 483:Generated_Source\PSoC5/UART_ACS.c ****     *
 484:Generated_Source\PSoC5/UART_ACS.c ****     *******************************************************************************/
 485:Generated_Source\PSoC5/UART_ACS.c ****     uint8 UART_ACS_ReadRxStatus(void) 
 486:Generated_Source\PSoC5/UART_ACS.c ****     {
 376              		.loc 1 486 0
 377              		.cfi_startproc
 378              		@ args = 0, pretend = 0, frame = 0
 379              		@ frame_needed = 0, uses_anonymous_args = 0
 380              		@ link register save eliminated.
 487:Generated_Source\PSoC5/UART_ACS.c ****         uint8 status;
 488:Generated_Source\PSoC5/UART_ACS.c **** 
 489:Generated_Source\PSoC5/UART_ACS.c ****         status = UART_ACS_RXSTATUS_REG & UART_ACS_RX_HW_MASK;
 381              		.loc 1 489 0
 382 0000 054B     		ldr	r3, .L39
 383 0002 1878     		ldrb	r0, [r3]	@ zero_extendqisi2
 490:Generated_Source\PSoC5/UART_ACS.c **** 
 491:Generated_Source\PSoC5/UART_ACS.c ****     #if (UART_ACS_RX_INTERRUPT_ENABLED)
 492:Generated_Source\PSoC5/UART_ACS.c ****         if(UART_ACS_rxBufferOverflow != 0u)
 384              		.loc 1 492 0
 385 0004 054B     		ldr	r3, .L39+4
 489:Generated_Source\PSoC5/UART_ACS.c **** 
 386              		.loc 1 489 0
 387 0006 00F07F00 		and	r0, r0, #127
 388              	.LVL19:
 389              		.loc 1 492 0
 390 000a DA79     		ldrb	r2, [r3, #7]	@ zero_extendqisi2
 391 000c 1AB1     		cbz	r2, .L35
 493:Generated_Source\PSoC5/UART_ACS.c ****         {
 494:Generated_Source\PSoC5/UART_ACS.c ****             status |= UART_ACS_RX_STS_SOFT_BUFF_OVER;
 495:Generated_Source\PSoC5/UART_ACS.c ****             UART_ACS_rxBufferOverflow = 0u;
 392              		.loc 1 495 0
 393 000e 0022     		movs	r2, #0
 494:Generated_Source\PSoC5/UART_ACS.c ****             UART_ACS_rxBufferOverflow = 0u;
 394              		.loc 1 494 0
 395 0010 40F08000 		orr	r0, r0, #128
 396              	.LVL20:
 397              		.loc 1 495 0
 398 0014 DA71     		strb	r2, [r3, #7]
 399              	.L35:
 496:Generated_Source\PSoC5/UART_ACS.c ****         }
 497:Generated_Source\PSoC5/UART_ACS.c ****     #endif /* (UART_ACS_RX_INTERRUPT_ENABLED) */
 498:Generated_Source\PSoC5/UART_ACS.c **** 
 499:Generated_Source\PSoC5/UART_ACS.c ****         return(status);
 500:Generated_Source\PSoC5/UART_ACS.c ****     }
ARM GAS  C:\Users\yqh\AppData\Local\Temp\ccOHgKzc.s 			page 17


 400              		.loc 1 500 0
 401 0016 7047     		bx	lr
 402              	.L40:
 403              		.align	2
 404              	.L39:
 405 0018 6A650040 		.word	1073767786
 406 001c 00000000 		.word	.LANCHOR0
 407              		.cfi_endproc
 408              	.LFE8:
 409              		.size	UART_ACS_ReadRxStatus, .-UART_ACS_ReadRxStatus
 410              		.section	.text.UART_ACS_GetChar,"ax",%progbits
 411              		.align	1
 412              		.global	UART_ACS_GetChar
 413              		.thumb
 414              		.thumb_func
 415              		.type	UART_ACS_GetChar, %function
 416              	UART_ACS_GetChar:
 417              	.LFB9:
 501:Generated_Source\PSoC5/UART_ACS.c **** 
 502:Generated_Source\PSoC5/UART_ACS.c **** 
 503:Generated_Source\PSoC5/UART_ACS.c ****     /*******************************************************************************
 504:Generated_Source\PSoC5/UART_ACS.c ****     * Function Name: UART_ACS_GetChar
 505:Generated_Source\PSoC5/UART_ACS.c ****     ********************************************************************************
 506:Generated_Source\PSoC5/UART_ACS.c ****     *
 507:Generated_Source\PSoC5/UART_ACS.c ****     * Summary:
 508:Generated_Source\PSoC5/UART_ACS.c ****     *  Returns the last received byte of data. UART_ACS_GetChar() is
 509:Generated_Source\PSoC5/UART_ACS.c ****     *  designed for ASCII characters and returns a uint8 where 1 to 255 are values
 510:Generated_Source\PSoC5/UART_ACS.c ****     *  for valid characters and 0 indicates an error occurred or no data is present.
 511:Generated_Source\PSoC5/UART_ACS.c ****     *
 512:Generated_Source\PSoC5/UART_ACS.c ****     * Parameters:
 513:Generated_Source\PSoC5/UART_ACS.c ****     *  None.
 514:Generated_Source\PSoC5/UART_ACS.c ****     *
 515:Generated_Source\PSoC5/UART_ACS.c ****     * Return:
 516:Generated_Source\PSoC5/UART_ACS.c ****     *  Character read from UART RX buffer. ASCII characters from 1 to 255 are valid.
 517:Generated_Source\PSoC5/UART_ACS.c ****     *  A returned zero signifies an error condition or no data available.
 518:Generated_Source\PSoC5/UART_ACS.c ****     *
 519:Generated_Source\PSoC5/UART_ACS.c ****     * Global Variables:
 520:Generated_Source\PSoC5/UART_ACS.c ****     *  UART_ACS_rxBuffer - RAM buffer pointer for save received data.
 521:Generated_Source\PSoC5/UART_ACS.c ****     *  UART_ACS_rxBufferWrite - cyclic index for write to rxBuffer,
 522:Generated_Source\PSoC5/UART_ACS.c ****     *     checked to identify new data.
 523:Generated_Source\PSoC5/UART_ACS.c ****     *  UART_ACS_rxBufferRead - cyclic index for read from rxBuffer,
 524:Generated_Source\PSoC5/UART_ACS.c ****     *     incremented after each byte has been read from buffer.
 525:Generated_Source\PSoC5/UART_ACS.c ****     *  UART_ACS_rxBufferLoopDetect - cleared if loop condition was detected
 526:Generated_Source\PSoC5/UART_ACS.c ****     *     in RX ISR.
 527:Generated_Source\PSoC5/UART_ACS.c ****     *
 528:Generated_Source\PSoC5/UART_ACS.c ****     * Reentrant:
 529:Generated_Source\PSoC5/UART_ACS.c ****     *  No.
 530:Generated_Source\PSoC5/UART_ACS.c ****     *
 531:Generated_Source\PSoC5/UART_ACS.c ****     *******************************************************************************/
 532:Generated_Source\PSoC5/UART_ACS.c ****     uint8 UART_ACS_GetChar(void) 
 533:Generated_Source\PSoC5/UART_ACS.c ****     {
 418              		.loc 1 533 0
 419              		.cfi_startproc
 420              		@ args = 0, pretend = 0, frame = 0
 421              		@ frame_needed = 0, uses_anonymous_args = 0
 422              		@ link register save eliminated.
 423              	.LVL21:
ARM GAS  C:\Users\yqh\AppData\Local\Temp\ccOHgKzc.s 			page 18


 534:Generated_Source\PSoC5/UART_ACS.c ****         uint8 rxData = 0u;
 535:Generated_Source\PSoC5/UART_ACS.c ****         uint8 rxStatus;
 536:Generated_Source\PSoC5/UART_ACS.c **** 
 537:Generated_Source\PSoC5/UART_ACS.c ****     #if (UART_ACS_RX_INTERRUPT_ENABLED)
 538:Generated_Source\PSoC5/UART_ACS.c ****         uint16 locRxBufferRead;
 539:Generated_Source\PSoC5/UART_ACS.c ****         uint16 locRxBufferWrite;
 540:Generated_Source\PSoC5/UART_ACS.c **** 
 541:Generated_Source\PSoC5/UART_ACS.c ****         /* Protect variables that could change on interrupt */
 542:Generated_Source\PSoC5/UART_ACS.c ****         UART_ACS_DisableRxInt();
 424              		.loc 1 542 0
 425 0000 164B     		ldr	r3, .L52
 426 0002 0222     		movs	r2, #2
 427 0004 1A60     		str	r2, [r3]
 543:Generated_Source\PSoC5/UART_ACS.c **** 
 544:Generated_Source\PSoC5/UART_ACS.c ****         locRxBufferRead  = UART_ACS_rxBufferRead;
 428              		.loc 1 544 0
 429 0006 164A     		ldr	r2, .L52+4
 430 0008 5388     		ldrh	r3, [r2, #2]
 545:Generated_Source\PSoC5/UART_ACS.c ****         locRxBufferWrite = UART_ACS_rxBufferWrite;
 431              		.loc 1 545 0
 432 000a 9188     		ldrh	r1, [r2, #4]
 546:Generated_Source\PSoC5/UART_ACS.c **** 
 547:Generated_Source\PSoC5/UART_ACS.c ****         if( (UART_ACS_rxBufferLoopDetect != 0u) || (locRxBufferRead != locRxBufferWrite) )
 433              		.loc 1 547 0
 434 000c 9079     		ldrb	r0, [r2, #6]	@ zero_extendqisi2
 544:Generated_Source\PSoC5/UART_ACS.c ****         locRxBufferWrite = UART_ACS_rxBufferWrite;
 435              		.loc 1 544 0
 436 000e 9BB2     		uxth	r3, r3
 437              	.LVL22:
 545:Generated_Source\PSoC5/UART_ACS.c ****         locRxBufferWrite = UART_ACS_rxBufferWrite;
 438              		.loc 1 545 0
 439 0010 89B2     		uxth	r1, r1
 440              	.LVL23:
 441              		.loc 1 547 0
 442 0012 08B9     		cbnz	r0, .L42
 443              		.loc 1 547 0 is_stmt 0 discriminator 1
 444 0014 8B42     		cmp	r3, r1
 445 0016 0FD0     		beq	.L43
 446              	.L42:
 548:Generated_Source\PSoC5/UART_ACS.c ****         {
 549:Generated_Source\PSoC5/UART_ACS.c ****             rxData = UART_ACS_rxBuffer[locRxBufferRead];
 447              		.loc 1 549 0 is_stmt 1
 448 0018 1249     		ldr	r1, .L52+8
 449              	.LVL24:
 450 001a C85C     		ldrb	r0, [r1, r3]	@ zero_extendqisi2
 550:Generated_Source\PSoC5/UART_ACS.c ****             locRxBufferRead++;
 451              		.loc 1 550 0
 452 001c 0133     		adds	r3, r3, #1
 453              	.LVL25:
 454 001e 9BB2     		uxth	r3, r3
 455              	.LVL26:
 551:Generated_Source\PSoC5/UART_ACS.c ****             if(locRxBufferRead >= UART_ACS_RX_BUFFER_SIZE)
 552:Generated_Source\PSoC5/UART_ACS.c ****             {
 553:Generated_Source\PSoC5/UART_ACS.c ****                 locRxBufferRead = 0u;
 456              		.loc 1 553 0
 457 0020 B3F5807F 		cmp	r3, #256
 458 0024 28BF     		it	cs
ARM GAS  C:\Users\yqh\AppData\Local\Temp\ccOHgKzc.s 			page 19


 459 0026 0023     		movcs	r3, #0
 554:Generated_Source\PSoC5/UART_ACS.c ****             }
 555:Generated_Source\PSoC5/UART_ACS.c ****             /* Update the real pointer */
 556:Generated_Source\PSoC5/UART_ACS.c ****             UART_ACS_rxBufferRead = locRxBufferRead;
 460              		.loc 1 556 0
 461 0028 5380     		strh	r3, [r2, #2]	@ movhi
 557:Generated_Source\PSoC5/UART_ACS.c **** 
 558:Generated_Source\PSoC5/UART_ACS.c ****             if(UART_ACS_rxBufferLoopDetect != 0u)
 462              		.loc 1 558 0
 463 002a 9379     		ldrb	r3, [r2, #6]	@ zero_extendqisi2
 549:Generated_Source\PSoC5/UART_ACS.c ****             locRxBufferRead++;
 464              		.loc 1 549 0
 465 002c C0B2     		uxtb	r0, r0
 466              	.LVL27:
 467              		.loc 1 558 0
 468 002e 8BB1     		cbz	r3, .L45
 559:Generated_Source\PSoC5/UART_ACS.c ****             {
 560:Generated_Source\PSoC5/UART_ACS.c ****                 UART_ACS_rxBufferLoopDetect = 0u;
 469              		.loc 1 560 0
 470 0030 0B4B     		ldr	r3, .L52+4
 471 0032 0022     		movs	r2, #0
 472 0034 9A71     		strb	r2, [r3, #6]
 473 0036 0DE0     		b	.L45
 474              	.LVL28:
 475              	.L43:
 561:Generated_Source\PSoC5/UART_ACS.c ****                 #if( (UART_ACS_RX_INTERRUPT_ENABLED) && (UART_ACS_FLOW_CONTROL != 0u) )
 562:Generated_Source\PSoC5/UART_ACS.c ****                     /* When Hardware Flow Control selected - return RX mask */
 563:Generated_Source\PSoC5/UART_ACS.c ****                     #if( UART_ACS_HD_ENABLED )
 564:Generated_Source\PSoC5/UART_ACS.c ****                         if((UART_ACS_CONTROL_REG & UART_ACS_CTRL_HD_SEND) == 0u)
 565:Generated_Source\PSoC5/UART_ACS.c ****                         {   /* In Half duplex mode return RX mask only if
 566:Generated_Source\PSoC5/UART_ACS.c ****                             *  RX configuration set, otherwise
 567:Generated_Source\PSoC5/UART_ACS.c ****                             *  mask will be returned in LoadRxConfig() API.
 568:Generated_Source\PSoC5/UART_ACS.c ****                             */
 569:Generated_Source\PSoC5/UART_ACS.c ****                             UART_ACS_RXSTATUS_MASK_REG |= UART_ACS_RX_STS_FIFO_NOTEMPTY;
 570:Generated_Source\PSoC5/UART_ACS.c ****                         }
 571:Generated_Source\PSoC5/UART_ACS.c ****                     #else
 572:Generated_Source\PSoC5/UART_ACS.c ****                         UART_ACS_RXSTATUS_MASK_REG |= UART_ACS_RX_STS_FIFO_NOTEMPTY;
 573:Generated_Source\PSoC5/UART_ACS.c ****                     #endif /* end UART_ACS_HD_ENABLED */
 574:Generated_Source\PSoC5/UART_ACS.c ****                 #endif /* UART_ACS_RX_INTERRUPT_ENABLED and Hardware flow control*/
 575:Generated_Source\PSoC5/UART_ACS.c ****             }
 576:Generated_Source\PSoC5/UART_ACS.c **** 
 577:Generated_Source\PSoC5/UART_ACS.c ****         }
 578:Generated_Source\PSoC5/UART_ACS.c ****         else
 579:Generated_Source\PSoC5/UART_ACS.c ****         {   rxStatus = UART_ACS_RXSTATUS_REG;
 476              		.loc 1 579 0
 477 0038 0B4B     		ldr	r3, .L52+12
 478              	.LVL29:
 479 003a 1B78     		ldrb	r3, [r3]	@ zero_extendqisi2
 480 003c DBB2     		uxtb	r3, r3
 481              	.LVL30:
 580:Generated_Source\PSoC5/UART_ACS.c ****             if((rxStatus & UART_ACS_RX_STS_FIFO_NOTEMPTY) != 0u)
 482              		.loc 1 580 0
 483 003e 03F02002 		and	r2, r3, #32
 484 0042 02F0FF00 		and	r0, r2, #255
 485 0046 2AB1     		cbz	r2, .L45
 581:Generated_Source\PSoC5/UART_ACS.c ****             {   /* Read received data from FIFO */
 582:Generated_Source\PSoC5/UART_ACS.c ****                 rxData = UART_ACS_RXDATA_REG;
ARM GAS  C:\Users\yqh\AppData\Local\Temp\ccOHgKzc.s 			page 20


 486              		.loc 1 582 0
 487 0048 084A     		ldr	r2, .L52+16
 583:Generated_Source\PSoC5/UART_ACS.c ****                 /*Check status on error*/
 584:Generated_Source\PSoC5/UART_ACS.c ****                 if((rxStatus & (UART_ACS_RX_STS_BREAK | UART_ACS_RX_STS_PAR_ERROR |
 585:Generated_Source\PSoC5/UART_ACS.c ****                                 UART_ACS_RX_STS_STOP_ERROR | UART_ACS_RX_STS_OVERRUN)) != 0u)
 586:Generated_Source\PSoC5/UART_ACS.c ****                 {
 587:Generated_Source\PSoC5/UART_ACS.c ****                     rxData = 0u;
 488              		.loc 1 587 0
 489 004a 13F01E0F 		tst	r3, #30
 582:Generated_Source\PSoC5/UART_ACS.c ****                 /*Check status on error*/
 490              		.loc 1 582 0
 491 004e 1078     		ldrb	r0, [r2]	@ zero_extendqisi2
 492              	.LVL31:
 493              		.loc 1 587 0
 494 0050 18BF     		it	ne
 495 0052 0020     		movne	r0, #0
 496              	.LVL32:
 497              	.L45:
 588:Generated_Source\PSoC5/UART_ACS.c ****                 }
 589:Generated_Source\PSoC5/UART_ACS.c ****             }
 590:Generated_Source\PSoC5/UART_ACS.c ****         }
 591:Generated_Source\PSoC5/UART_ACS.c **** 
 592:Generated_Source\PSoC5/UART_ACS.c ****         UART_ACS_EnableRxInt();
 498              		.loc 1 592 0
 499 0054 064B     		ldr	r3, .L52+20
 500 0056 0222     		movs	r2, #2
 501 0058 1A60     		str	r2, [r3]
 593:Generated_Source\PSoC5/UART_ACS.c **** 
 594:Generated_Source\PSoC5/UART_ACS.c ****     #else
 595:Generated_Source\PSoC5/UART_ACS.c **** 
 596:Generated_Source\PSoC5/UART_ACS.c ****         rxStatus =UART_ACS_RXSTATUS_REG;
 597:Generated_Source\PSoC5/UART_ACS.c ****         if((rxStatus & UART_ACS_RX_STS_FIFO_NOTEMPTY) != 0u)
 598:Generated_Source\PSoC5/UART_ACS.c ****         {
 599:Generated_Source\PSoC5/UART_ACS.c ****             /* Read received data from FIFO */
 600:Generated_Source\PSoC5/UART_ACS.c ****             rxData = UART_ACS_RXDATA_REG;
 601:Generated_Source\PSoC5/UART_ACS.c **** 
 602:Generated_Source\PSoC5/UART_ACS.c ****             /*Check status on error*/
 603:Generated_Source\PSoC5/UART_ACS.c ****             if((rxStatus & (UART_ACS_RX_STS_BREAK | UART_ACS_RX_STS_PAR_ERROR |
 604:Generated_Source\PSoC5/UART_ACS.c ****                             UART_ACS_RX_STS_STOP_ERROR | UART_ACS_RX_STS_OVERRUN)) != 0u)
 605:Generated_Source\PSoC5/UART_ACS.c ****             {
 606:Generated_Source\PSoC5/UART_ACS.c ****                 rxData = 0u;
 607:Generated_Source\PSoC5/UART_ACS.c ****             }
 608:Generated_Source\PSoC5/UART_ACS.c ****         }
 609:Generated_Source\PSoC5/UART_ACS.c ****     #endif /* (UART_ACS_RX_INTERRUPT_ENABLED) */
 610:Generated_Source\PSoC5/UART_ACS.c **** 
 611:Generated_Source\PSoC5/UART_ACS.c ****         return(rxData);
 612:Generated_Source\PSoC5/UART_ACS.c ****     }
 502              		.loc 1 612 0
 503 005a 7047     		bx	lr
 504              	.L53:
 505              		.align	2
 506              	.L52:
 507 005c 80E100E0 		.word	-536813184
 508 0060 00000000 		.word	.LANCHOR0
 509 0064 00000000 		.word	UART_ACS_rxBuffer
 510 0068 6A650040 		.word	1073767786
 511 006c 49640040 		.word	1073767497
ARM GAS  C:\Users\yqh\AppData\Local\Temp\ccOHgKzc.s 			page 21


 512 0070 00E100E0 		.word	-536813312
 513              		.cfi_endproc
 514              	.LFE9:
 515              		.size	UART_ACS_GetChar, .-UART_ACS_GetChar
 516              		.section	.text.UART_ACS_GetByte,"ax",%progbits
 517              		.align	1
 518              		.global	UART_ACS_GetByte
 519              		.thumb
 520              		.thumb_func
 521              		.type	UART_ACS_GetByte, %function
 522              	UART_ACS_GetByte:
 523              	.LFB10:
 613:Generated_Source\PSoC5/UART_ACS.c **** 
 614:Generated_Source\PSoC5/UART_ACS.c **** 
 615:Generated_Source\PSoC5/UART_ACS.c ****     /*******************************************************************************
 616:Generated_Source\PSoC5/UART_ACS.c ****     * Function Name: UART_ACS_GetByte
 617:Generated_Source\PSoC5/UART_ACS.c ****     ********************************************************************************
 618:Generated_Source\PSoC5/UART_ACS.c ****     *
 619:Generated_Source\PSoC5/UART_ACS.c ****     * Summary:
 620:Generated_Source\PSoC5/UART_ACS.c ****     *  Reads UART RX buffer immediately, returns received character and error
 621:Generated_Source\PSoC5/UART_ACS.c ****     *  condition.
 622:Generated_Source\PSoC5/UART_ACS.c ****     *
 623:Generated_Source\PSoC5/UART_ACS.c ****     * Parameters:
 624:Generated_Source\PSoC5/UART_ACS.c ****     *  None.
 625:Generated_Source\PSoC5/UART_ACS.c ****     *
 626:Generated_Source\PSoC5/UART_ACS.c ****     * Return:
 627:Generated_Source\PSoC5/UART_ACS.c ****     *  MSB contains status and LSB contains UART RX data. If the MSB is nonzero,
 628:Generated_Source\PSoC5/UART_ACS.c ****     *  an error has occurred.
 629:Generated_Source\PSoC5/UART_ACS.c ****     *
 630:Generated_Source\PSoC5/UART_ACS.c ****     * Reentrant:
 631:Generated_Source\PSoC5/UART_ACS.c ****     *  No.
 632:Generated_Source\PSoC5/UART_ACS.c ****     *
 633:Generated_Source\PSoC5/UART_ACS.c ****     *******************************************************************************/
 634:Generated_Source\PSoC5/UART_ACS.c ****     uint16 UART_ACS_GetByte(void) 
 635:Generated_Source\PSoC5/UART_ACS.c ****     {
 524              		.loc 1 635 0
 525              		.cfi_startproc
 526              		@ args = 0, pretend = 0, frame = 0
 527              		@ frame_needed = 0, uses_anonymous_args = 0
 528 0000 10B5     		push	{r4, lr}
 529              		.cfi_def_cfa_offset 8
 530              		.cfi_offset 4, -8
 531              		.cfi_offset 14, -4
 636:Generated_Source\PSoC5/UART_ACS.c ****         
 637:Generated_Source\PSoC5/UART_ACS.c ****     #if (UART_ACS_RX_INTERRUPT_ENABLED)
 638:Generated_Source\PSoC5/UART_ACS.c ****         uint16 locErrorStatus;
 639:Generated_Source\PSoC5/UART_ACS.c ****         /* Protect variables that could change on interrupt */
 640:Generated_Source\PSoC5/UART_ACS.c ****         UART_ACS_DisableRxInt();
 532              		.loc 1 640 0
 533 0002 074A     		ldr	r2, .L55
 534 0004 0223     		movs	r3, #2
 535 0006 1360     		str	r3, [r2]
 641:Generated_Source\PSoC5/UART_ACS.c ****         locErrorStatus = (uint16)UART_ACS_errorStatus;
 536              		.loc 1 641 0
 537 0008 064A     		ldr	r2, .L55+4
 642:Generated_Source\PSoC5/UART_ACS.c ****         UART_ACS_errorStatus = 0u;
 538              		.loc 1 642 0
ARM GAS  C:\Users\yqh\AppData\Local\Temp\ccOHgKzc.s 			page 22


 539 000a 0021     		movs	r1, #0
 641:Generated_Source\PSoC5/UART_ACS.c ****         locErrorStatus = (uint16)UART_ACS_errorStatus;
 540              		.loc 1 641 0
 541 000c 1478     		ldrb	r4, [r2]	@ zero_extendqisi2
 542              	.LVL33:
 543              		.loc 1 642 0
 544 000e 1170     		strb	r1, [r2]
 643:Generated_Source\PSoC5/UART_ACS.c ****         UART_ACS_EnableRxInt();
 545              		.loc 1 643 0
 546 0010 054A     		ldr	r2, .L55+8
 547 0012 1360     		str	r3, [r2]
 644:Generated_Source\PSoC5/UART_ACS.c ****         return ( (uint16)(locErrorStatus << 8u) | UART_ACS_ReadRxData() );
 548              		.loc 1 644 0
 549 0014 FFF7FEFF 		bl	UART_ACS_ReadRxData
 550              	.LVL34:
 551 0018 40EA0420 		orr	r0, r0, r4, lsl #8
 645:Generated_Source\PSoC5/UART_ACS.c ****     #else
 646:Generated_Source\PSoC5/UART_ACS.c ****         return ( ((uint16)UART_ACS_ReadRxStatus() << 8u) | UART_ACS_ReadRxData() );
 647:Generated_Source\PSoC5/UART_ACS.c ****     #endif /* UART_ACS_RX_INTERRUPT_ENABLED */
 648:Generated_Source\PSoC5/UART_ACS.c ****         
 649:Generated_Source\PSoC5/UART_ACS.c ****     }
 552              		.loc 1 649 0
 553 001c 80B2     		uxth	r0, r0
 554 001e 10BD     		pop	{r4, pc}
 555              	.LVL35:
 556              	.L56:
 557              		.align	2
 558              	.L55:
 559 0020 80E100E0 		.word	-536813184
 560 0024 00000000 		.word	.LANCHOR0
 561 0028 00E100E0 		.word	-536813312
 562              		.cfi_endproc
 563              	.LFE10:
 564              		.size	UART_ACS_GetByte, .-UART_ACS_GetByte
 565              		.section	.text.UART_ACS_GetRxBufferSize,"ax",%progbits
 566              		.align	1
 567              		.global	UART_ACS_GetRxBufferSize
 568              		.thumb
 569              		.thumb_func
 570              		.type	UART_ACS_GetRxBufferSize, %function
 571              	UART_ACS_GetRxBufferSize:
 572              	.LFB11:
 650:Generated_Source\PSoC5/UART_ACS.c **** 
 651:Generated_Source\PSoC5/UART_ACS.c **** 
 652:Generated_Source\PSoC5/UART_ACS.c ****     /*******************************************************************************
 653:Generated_Source\PSoC5/UART_ACS.c ****     * Function Name: UART_ACS_GetRxBufferSize
 654:Generated_Source\PSoC5/UART_ACS.c ****     ********************************************************************************
 655:Generated_Source\PSoC5/UART_ACS.c ****     *
 656:Generated_Source\PSoC5/UART_ACS.c ****     * Summary:
 657:Generated_Source\PSoC5/UART_ACS.c ****     *  Returns the number of received bytes available in the RX buffer.
 658:Generated_Source\PSoC5/UART_ACS.c ****     *  * RX software buffer is disabled (RX Buffer Size parameter is equal to 4): 
 659:Generated_Source\PSoC5/UART_ACS.c ****     *    returns 0 for empty RX FIFO or 1 for not empty RX FIFO.
 660:Generated_Source\PSoC5/UART_ACS.c ****     *  * RX software buffer is enabled: returns the number of bytes available in 
 661:Generated_Source\PSoC5/UART_ACS.c ****     *    the RX software buffer. Bytes available in the RX FIFO do not take to 
 662:Generated_Source\PSoC5/UART_ACS.c ****     *    account.
 663:Generated_Source\PSoC5/UART_ACS.c ****     *
 664:Generated_Source\PSoC5/UART_ACS.c ****     * Parameters:
ARM GAS  C:\Users\yqh\AppData\Local\Temp\ccOHgKzc.s 			page 23


 665:Generated_Source\PSoC5/UART_ACS.c ****     *  None.
 666:Generated_Source\PSoC5/UART_ACS.c ****     *
 667:Generated_Source\PSoC5/UART_ACS.c ****     * Return:
 668:Generated_Source\PSoC5/UART_ACS.c ****     *  uint16: Number of bytes in the RX buffer. 
 669:Generated_Source\PSoC5/UART_ACS.c ****     *    Return value type depends on RX Buffer Size parameter.
 670:Generated_Source\PSoC5/UART_ACS.c ****     *
 671:Generated_Source\PSoC5/UART_ACS.c ****     * Global Variables:
 672:Generated_Source\PSoC5/UART_ACS.c ****     *  UART_ACS_rxBufferWrite - used to calculate left bytes.
 673:Generated_Source\PSoC5/UART_ACS.c ****     *  UART_ACS_rxBufferRead - used to calculate left bytes.
 674:Generated_Source\PSoC5/UART_ACS.c ****     *  UART_ACS_rxBufferLoopDetect - checked to decide left bytes amount.
 675:Generated_Source\PSoC5/UART_ACS.c ****     *
 676:Generated_Source\PSoC5/UART_ACS.c ****     * Reentrant:
 677:Generated_Source\PSoC5/UART_ACS.c ****     *  No.
 678:Generated_Source\PSoC5/UART_ACS.c ****     *
 679:Generated_Source\PSoC5/UART_ACS.c ****     * Theory:
 680:Generated_Source\PSoC5/UART_ACS.c ****     *  Allows the user to find out how full the RX Buffer is.
 681:Generated_Source\PSoC5/UART_ACS.c ****     *
 682:Generated_Source\PSoC5/UART_ACS.c ****     *******************************************************************************/
 683:Generated_Source\PSoC5/UART_ACS.c ****     uint16 UART_ACS_GetRxBufferSize(void)
 684:Generated_Source\PSoC5/UART_ACS.c ****                                                             
 685:Generated_Source\PSoC5/UART_ACS.c ****     {
 573              		.loc 1 685 0
 574              		.cfi_startproc
 575              		@ args = 0, pretend = 0, frame = 0
 576              		@ frame_needed = 0, uses_anonymous_args = 0
 577              		@ link register save eliminated.
 686:Generated_Source\PSoC5/UART_ACS.c ****         uint16 size;
 687:Generated_Source\PSoC5/UART_ACS.c **** 
 688:Generated_Source\PSoC5/UART_ACS.c ****     #if (UART_ACS_RX_INTERRUPT_ENABLED)
 689:Generated_Source\PSoC5/UART_ACS.c **** 
 690:Generated_Source\PSoC5/UART_ACS.c ****         /* Protect variables that could change on interrupt */
 691:Generated_Source\PSoC5/UART_ACS.c ****         UART_ACS_DisableRxInt();
 578              		.loc 1 691 0
 579 0000 124B     		ldr	r3, .L63
 580 0002 0222     		movs	r2, #2
 581 0004 1A60     		str	r2, [r3]
 692:Generated_Source\PSoC5/UART_ACS.c **** 
 693:Generated_Source\PSoC5/UART_ACS.c ****         if(UART_ACS_rxBufferRead == UART_ACS_rxBufferWrite)
 582              		.loc 1 693 0
 583 0006 124A     		ldr	r2, .L63+4
 584 0008 5188     		ldrh	r1, [r2, #2]
 585 000a 9388     		ldrh	r3, [r2, #4]
 586 000c 89B2     		uxth	r1, r1
 587 000e 9BB2     		uxth	r3, r3
 588 0010 9942     		cmp	r1, r3
 589 0012 06D1     		bne	.L58
 694:Generated_Source\PSoC5/UART_ACS.c ****         {
 695:Generated_Source\PSoC5/UART_ACS.c ****             if(UART_ACS_rxBufferLoopDetect != 0u)
 590              		.loc 1 695 0
 591 0014 9379     		ldrb	r3, [r2, #6]	@ zero_extendqisi2
 592 0016 002B     		cmp	r3, #0
 696:Generated_Source\PSoC5/UART_ACS.c ****             {
 697:Generated_Source\PSoC5/UART_ACS.c ****                 size = UART_ACS_RX_BUFFER_SIZE;
 698:Generated_Source\PSoC5/UART_ACS.c ****             }
 699:Generated_Source\PSoC5/UART_ACS.c ****             else
 700:Generated_Source\PSoC5/UART_ACS.c ****             {
 701:Generated_Source\PSoC5/UART_ACS.c ****                 size = 0u;
ARM GAS  C:\Users\yqh\AppData\Local\Temp\ccOHgKzc.s 			page 24


 593              		.loc 1 701 0
 594 0018 14BF     		ite	ne
 595 001a 4FF48070 		movne	r0, #256
 596 001e 0020     		moveq	r0, #0
 597 0020 10E0     		b	.L59
 598              	.L58:
 702:Generated_Source\PSoC5/UART_ACS.c ****             }
 703:Generated_Source\PSoC5/UART_ACS.c ****         }
 704:Generated_Source\PSoC5/UART_ACS.c ****         else if(UART_ACS_rxBufferRead < UART_ACS_rxBufferWrite)
 599              		.loc 1 704 0
 600 0022 5188     		ldrh	r1, [r2, #2]
 601 0024 9388     		ldrh	r3, [r2, #4]
 602 0026 89B2     		uxth	r1, r1
 603 0028 9BB2     		uxth	r3, r3
 604 002a 9942     		cmp	r1, r3
 705:Generated_Source\PSoC5/UART_ACS.c ****         {
 706:Generated_Source\PSoC5/UART_ACS.c ****             size = (UART_ACS_rxBufferWrite - UART_ACS_rxBufferRead);
 707:Generated_Source\PSoC5/UART_ACS.c ****         }
 708:Generated_Source\PSoC5/UART_ACS.c ****         else
 709:Generated_Source\PSoC5/UART_ACS.c ****         {
 710:Generated_Source\PSoC5/UART_ACS.c ****             size = (UART_ACS_RX_BUFFER_SIZE - UART_ACS_rxBufferRead) + UART_ACS_rxBufferWrite;
 605              		.loc 1 710 0
 606 002c 2BBF     		itete	cs
 607 002e 9088     		ldrhcs	r0, [r2, #4]
 706:Generated_Source\PSoC5/UART_ACS.c ****         }
 608              		.loc 1 706 0
 609 0030 9388     		ldrhcc	r3, [r2, #4]
 610              		.loc 1 710 0
 611 0032 80B2     		uxthcs	r0, r0
 706:Generated_Source\PSoC5/UART_ACS.c ****         }
 612              		.loc 1 706 0
 613 0034 5088     		ldrhcc	r0, [r2, #2]
 614              		.loc 1 710 0
 615 0036 25BF     		ittet	cs
 616 0038 5388     		ldrhcs	r3, [r2, #2]
 617 003a 00F58070 		addcs	r0, r0, #256
 706:Generated_Source\PSoC5/UART_ACS.c ****         }
 618              		.loc 1 706 0
 619 003e 181A     		subcc	r0, r3, r0
 620              		.loc 1 710 0
 621 0040 C01A     		subcs	r0, r0, r3
 622 0042 80B2     		uxth	r0, r0
 623              	.LVL36:
 624              	.L59:
 711:Generated_Source\PSoC5/UART_ACS.c ****         }
 712:Generated_Source\PSoC5/UART_ACS.c **** 
 713:Generated_Source\PSoC5/UART_ACS.c ****         UART_ACS_EnableRxInt();
 625              		.loc 1 713 0
 626 0044 034B     		ldr	r3, .L63+8
 627 0046 0222     		movs	r2, #2
 628 0048 1A60     		str	r2, [r3]
 714:Generated_Source\PSoC5/UART_ACS.c **** 
 715:Generated_Source\PSoC5/UART_ACS.c ****     #else
 716:Generated_Source\PSoC5/UART_ACS.c **** 
 717:Generated_Source\PSoC5/UART_ACS.c ****         /* We can only know if there is data in the fifo. */
 718:Generated_Source\PSoC5/UART_ACS.c ****         size = ((UART_ACS_RXSTATUS_REG & UART_ACS_RX_STS_FIFO_NOTEMPTY) != 0u) ? 1u : 0u;
 719:Generated_Source\PSoC5/UART_ACS.c **** 
ARM GAS  C:\Users\yqh\AppData\Local\Temp\ccOHgKzc.s 			page 25


 720:Generated_Source\PSoC5/UART_ACS.c ****     #endif /* (UART_ACS_RX_INTERRUPT_ENABLED) */
 721:Generated_Source\PSoC5/UART_ACS.c **** 
 722:Generated_Source\PSoC5/UART_ACS.c ****         return(size);
 723:Generated_Source\PSoC5/UART_ACS.c ****     }
 629              		.loc 1 723 0
 630 004a 7047     		bx	lr
 631              	.L64:
 632              		.align	2
 633              	.L63:
 634 004c 80E100E0 		.word	-536813184
 635 0050 00000000 		.word	.LANCHOR0
 636 0054 00E100E0 		.word	-536813312
 637              		.cfi_endproc
 638              	.LFE11:
 639              		.size	UART_ACS_GetRxBufferSize, .-UART_ACS_GetRxBufferSize
 640              		.section	.text.UART_ACS_ClearRxBuffer,"ax",%progbits
 641              		.align	1
 642              		.global	UART_ACS_ClearRxBuffer
 643              		.thumb
 644              		.thumb_func
 645              		.type	UART_ACS_ClearRxBuffer, %function
 646              	UART_ACS_ClearRxBuffer:
 647              	.LFB12:
 724:Generated_Source\PSoC5/UART_ACS.c **** 
 725:Generated_Source\PSoC5/UART_ACS.c **** 
 726:Generated_Source\PSoC5/UART_ACS.c ****     /*******************************************************************************
 727:Generated_Source\PSoC5/UART_ACS.c ****     * Function Name: UART_ACS_ClearRxBuffer
 728:Generated_Source\PSoC5/UART_ACS.c ****     ********************************************************************************
 729:Generated_Source\PSoC5/UART_ACS.c ****     *
 730:Generated_Source\PSoC5/UART_ACS.c ****     * Summary:
 731:Generated_Source\PSoC5/UART_ACS.c ****     *  Clears the receiver memory buffer and hardware RX FIFO of all received data.
 732:Generated_Source\PSoC5/UART_ACS.c ****     *
 733:Generated_Source\PSoC5/UART_ACS.c ****     * Parameters:
 734:Generated_Source\PSoC5/UART_ACS.c ****     *  None.
 735:Generated_Source\PSoC5/UART_ACS.c ****     *
 736:Generated_Source\PSoC5/UART_ACS.c ****     * Return:
 737:Generated_Source\PSoC5/UART_ACS.c ****     *  None.
 738:Generated_Source\PSoC5/UART_ACS.c ****     *
 739:Generated_Source\PSoC5/UART_ACS.c ****     * Global Variables:
 740:Generated_Source\PSoC5/UART_ACS.c ****     *  UART_ACS_rxBufferWrite - cleared to zero.
 741:Generated_Source\PSoC5/UART_ACS.c ****     *  UART_ACS_rxBufferRead - cleared to zero.
 742:Generated_Source\PSoC5/UART_ACS.c ****     *  UART_ACS_rxBufferLoopDetect - cleared to zero.
 743:Generated_Source\PSoC5/UART_ACS.c ****     *  UART_ACS_rxBufferOverflow - cleared to zero.
 744:Generated_Source\PSoC5/UART_ACS.c ****     *
 745:Generated_Source\PSoC5/UART_ACS.c ****     * Reentrant:
 746:Generated_Source\PSoC5/UART_ACS.c ****     *  No.
 747:Generated_Source\PSoC5/UART_ACS.c ****     *
 748:Generated_Source\PSoC5/UART_ACS.c ****     * Theory:
 749:Generated_Source\PSoC5/UART_ACS.c ****     *  Setting the pointers to zero makes the system believe there is no data to
 750:Generated_Source\PSoC5/UART_ACS.c ****     *  read and writing will resume at address 0 overwriting any data that may
 751:Generated_Source\PSoC5/UART_ACS.c ****     *  have remained in the RAM.
 752:Generated_Source\PSoC5/UART_ACS.c ****     *
 753:Generated_Source\PSoC5/UART_ACS.c ****     * Side Effects:
 754:Generated_Source\PSoC5/UART_ACS.c ****     *  Any received data not read from the RAM or FIFO buffer will be lost.
 755:Generated_Source\PSoC5/UART_ACS.c ****     *
 756:Generated_Source\PSoC5/UART_ACS.c ****     *******************************************************************************/
 757:Generated_Source\PSoC5/UART_ACS.c ****     void UART_ACS_ClearRxBuffer(void) 
ARM GAS  C:\Users\yqh\AppData\Local\Temp\ccOHgKzc.s 			page 26


 758:Generated_Source\PSoC5/UART_ACS.c ****     {
 648              		.loc 1 758 0
 649              		.cfi_startproc
 650              		@ args = 0, pretend = 0, frame = 0
 651              		@ frame_needed = 0, uses_anonymous_args = 0
 652 0000 08B5     		push	{r3, lr}
 653              		.cfi_def_cfa_offset 8
 654              		.cfi_offset 3, -8
 655              		.cfi_offset 14, -4
 759:Generated_Source\PSoC5/UART_ACS.c ****         uint8 enableInterrupts;
 760:Generated_Source\PSoC5/UART_ACS.c **** 
 761:Generated_Source\PSoC5/UART_ACS.c ****         /* Clear the HW FIFO */
 762:Generated_Source\PSoC5/UART_ACS.c ****         enableInterrupts = CyEnterCriticalSection();
 656              		.loc 1 762 0
 657 0002 FFF7FEFF 		bl	CyEnterCriticalSection
 658              	.LVL37:
 763:Generated_Source\PSoC5/UART_ACS.c ****         UART_ACS_RXDATA_AUX_CTL_REG |= (uint8)  UART_ACS_RX_FIFO_CLR;
 659              		.loc 1 763 0
 660 0006 0B4B     		ldr	r3, .L66
 661 0008 1A78     		ldrb	r2, [r3]	@ zero_extendqisi2
 662 000a 42F00102 		orr	r2, r2, #1
 663 000e 1A70     		strb	r2, [r3]
 764:Generated_Source\PSoC5/UART_ACS.c ****         UART_ACS_RXDATA_AUX_CTL_REG &= (uint8) ~UART_ACS_RX_FIFO_CLR;
 664              		.loc 1 764 0
 665 0010 1A78     		ldrb	r2, [r3]	@ zero_extendqisi2
 666 0012 02F0FE02 		and	r2, r2, #254
 667 0016 1A70     		strb	r2, [r3]
 765:Generated_Source\PSoC5/UART_ACS.c ****         CyExitCriticalSection(enableInterrupts);
 668              		.loc 1 765 0
 669 0018 FFF7FEFF 		bl	CyExitCriticalSection
 670              	.LVL38:
 766:Generated_Source\PSoC5/UART_ACS.c **** 
 767:Generated_Source\PSoC5/UART_ACS.c ****     #if (UART_ACS_RX_INTERRUPT_ENABLED)
 768:Generated_Source\PSoC5/UART_ACS.c **** 
 769:Generated_Source\PSoC5/UART_ACS.c ****         /* Protect variables that could change on interrupt. */
 770:Generated_Source\PSoC5/UART_ACS.c ****         UART_ACS_DisableRxInt();
 671              		.loc 1 770 0
 672 001c 064B     		ldr	r3, .L66+4
 673 001e 0221     		movs	r1, #2
 674 0020 1960     		str	r1, [r3]
 771:Generated_Source\PSoC5/UART_ACS.c **** 
 772:Generated_Source\PSoC5/UART_ACS.c ****         UART_ACS_rxBufferRead = 0u;
 675              		.loc 1 772 0
 676 0022 064B     		ldr	r3, .L66+8
 677 0024 0022     		movs	r2, #0
 678 0026 5A80     		strh	r2, [r3, #2]	@ movhi
 773:Generated_Source\PSoC5/UART_ACS.c ****         UART_ACS_rxBufferWrite = 0u;
 679              		.loc 1 773 0
 680 0028 9A80     		strh	r2, [r3, #4]	@ movhi
 774:Generated_Source\PSoC5/UART_ACS.c ****         UART_ACS_rxBufferLoopDetect = 0u;
 681              		.loc 1 774 0
 682 002a 9A71     		strb	r2, [r3, #6]
 775:Generated_Source\PSoC5/UART_ACS.c ****         UART_ACS_rxBufferOverflow = 0u;
 683              		.loc 1 775 0
 684 002c DA71     		strb	r2, [r3, #7]
 776:Generated_Source\PSoC5/UART_ACS.c **** 
 777:Generated_Source\PSoC5/UART_ACS.c ****         UART_ACS_EnableRxInt();
ARM GAS  C:\Users\yqh\AppData\Local\Temp\ccOHgKzc.s 			page 27


 685              		.loc 1 777 0
 686 002e 044B     		ldr	r3, .L66+12
 687 0030 1960     		str	r1, [r3]
 688 0032 08BD     		pop	{r3, pc}
 689              	.L67:
 690              		.align	2
 691              	.L66:
 692 0034 99640040 		.word	1073767577
 693 0038 80E100E0 		.word	-536813184
 694 003c 00000000 		.word	.LANCHOR0
 695 0040 00E100E0 		.word	-536813312
 696              		.cfi_endproc
 697              	.LFE12:
 698              		.size	UART_ACS_ClearRxBuffer, .-UART_ACS_ClearRxBuffer
 699              		.section	.text.UART_ACS_SetRxAddressMode,"ax",%progbits
 700              		.align	1
 701              		.global	UART_ACS_SetRxAddressMode
 702              		.thumb
 703              		.thumb_func
 704              		.type	UART_ACS_SetRxAddressMode, %function
 705              	UART_ACS_SetRxAddressMode:
 706              	.LFB13:
 778:Generated_Source\PSoC5/UART_ACS.c **** 
 779:Generated_Source\PSoC5/UART_ACS.c ****     #endif /* (UART_ACS_RX_INTERRUPT_ENABLED) */
 780:Generated_Source\PSoC5/UART_ACS.c **** 
 781:Generated_Source\PSoC5/UART_ACS.c ****     }
 782:Generated_Source\PSoC5/UART_ACS.c **** 
 783:Generated_Source\PSoC5/UART_ACS.c **** 
 784:Generated_Source\PSoC5/UART_ACS.c ****     /*******************************************************************************
 785:Generated_Source\PSoC5/UART_ACS.c ****     * Function Name: UART_ACS_SetRxAddressMode
 786:Generated_Source\PSoC5/UART_ACS.c ****     ********************************************************************************
 787:Generated_Source\PSoC5/UART_ACS.c ****     *
 788:Generated_Source\PSoC5/UART_ACS.c ****     * Summary:
 789:Generated_Source\PSoC5/UART_ACS.c ****     *  Sets the software controlled Addressing mode used by the RX portion of the
 790:Generated_Source\PSoC5/UART_ACS.c ****     *  UART.
 791:Generated_Source\PSoC5/UART_ACS.c ****     *
 792:Generated_Source\PSoC5/UART_ACS.c ****     * Parameters:
 793:Generated_Source\PSoC5/UART_ACS.c ****     *  addressMode: Enumerated value indicating the mode of RX addressing
 794:Generated_Source\PSoC5/UART_ACS.c ****     *  UART_ACS__B_UART__AM_SW_BYTE_BYTE -  Software Byte-by-Byte address
 795:Generated_Source\PSoC5/UART_ACS.c ****     *                                               detection
 796:Generated_Source\PSoC5/UART_ACS.c ****     *  UART_ACS__B_UART__AM_SW_DETECT_TO_BUFFER - Software Detect to Buffer
 797:Generated_Source\PSoC5/UART_ACS.c ****     *                                               address detection
 798:Generated_Source\PSoC5/UART_ACS.c ****     *  UART_ACS__B_UART__AM_HW_BYTE_BY_BYTE - Hardware Byte-by-Byte address
 799:Generated_Source\PSoC5/UART_ACS.c ****     *                                               detection
 800:Generated_Source\PSoC5/UART_ACS.c ****     *  UART_ACS__B_UART__AM_HW_DETECT_TO_BUFFER - Hardware Detect to Buffer
 801:Generated_Source\PSoC5/UART_ACS.c ****     *                                               address detection
 802:Generated_Source\PSoC5/UART_ACS.c ****     *  UART_ACS__B_UART__AM_NONE - No address detection
 803:Generated_Source\PSoC5/UART_ACS.c ****     *
 804:Generated_Source\PSoC5/UART_ACS.c ****     * Return:
 805:Generated_Source\PSoC5/UART_ACS.c ****     *  None.
 806:Generated_Source\PSoC5/UART_ACS.c ****     *
 807:Generated_Source\PSoC5/UART_ACS.c ****     * Global Variables:
 808:Generated_Source\PSoC5/UART_ACS.c ****     *  UART_ACS_rxAddressMode - the parameter stored in this variable for
 809:Generated_Source\PSoC5/UART_ACS.c ****     *   the farther usage in RX ISR.
 810:Generated_Source\PSoC5/UART_ACS.c ****     *  UART_ACS_rxAddressDetected - set to initial state (0).
 811:Generated_Source\PSoC5/UART_ACS.c ****     *
 812:Generated_Source\PSoC5/UART_ACS.c ****     *******************************************************************************/
ARM GAS  C:\Users\yqh\AppData\Local\Temp\ccOHgKzc.s 			page 28


 813:Generated_Source\PSoC5/UART_ACS.c ****     void UART_ACS_SetRxAddressMode(uint8 addressMode)
 814:Generated_Source\PSoC5/UART_ACS.c ****                                                         
 815:Generated_Source\PSoC5/UART_ACS.c ****     {
 707              		.loc 1 815 0
 708              		.cfi_startproc
 709              		@ args = 0, pretend = 0, frame = 0
 710              		@ frame_needed = 0, uses_anonymous_args = 0
 711              		@ link register save eliminated.
 712              	.LVL39:
 713 0000 7047     		bx	lr
 714              		.cfi_endproc
 715              	.LFE13:
 716              		.size	UART_ACS_SetRxAddressMode, .-UART_ACS_SetRxAddressMode
 717              		.section	.text.UART_ACS_SetRxAddress1,"ax",%progbits
 718              		.align	1
 719              		.global	UART_ACS_SetRxAddress1
 720              		.thumb
 721              		.thumb_func
 722              		.type	UART_ACS_SetRxAddress1, %function
 723              	UART_ACS_SetRxAddress1:
 724              	.LFB14:
 816:Generated_Source\PSoC5/UART_ACS.c ****         #if(UART_ACS_RXHW_ADDRESS_ENABLED)
 817:Generated_Source\PSoC5/UART_ACS.c ****             #if(UART_ACS_CONTROL_REG_REMOVED)
 818:Generated_Source\PSoC5/UART_ACS.c ****                 if(0u != addressMode)
 819:Generated_Source\PSoC5/UART_ACS.c ****                 {
 820:Generated_Source\PSoC5/UART_ACS.c ****                     /* Suppress compiler warning */
 821:Generated_Source\PSoC5/UART_ACS.c ****                 }
 822:Generated_Source\PSoC5/UART_ACS.c ****             #else /* UART_ACS_CONTROL_REG_REMOVED */
 823:Generated_Source\PSoC5/UART_ACS.c ****                 uint8 tmpCtrl;
 824:Generated_Source\PSoC5/UART_ACS.c ****                 tmpCtrl = UART_ACS_CONTROL_REG & (uint8)~UART_ACS_CTRL_RXADDR_MODE_MASK;
 825:Generated_Source\PSoC5/UART_ACS.c ****                 tmpCtrl |= (uint8)(addressMode << UART_ACS_CTRL_RXADDR_MODE0_SHIFT);
 826:Generated_Source\PSoC5/UART_ACS.c ****                 UART_ACS_CONTROL_REG = tmpCtrl;
 827:Generated_Source\PSoC5/UART_ACS.c **** 
 828:Generated_Source\PSoC5/UART_ACS.c ****                 #if(UART_ACS_RX_INTERRUPT_ENABLED && \
 829:Generated_Source\PSoC5/UART_ACS.c ****                    (UART_ACS_RXBUFFERSIZE > UART_ACS_FIFO_LENGTH) )
 830:Generated_Source\PSoC5/UART_ACS.c ****                     UART_ACS_rxAddressMode = addressMode;
 831:Generated_Source\PSoC5/UART_ACS.c ****                     UART_ACS_rxAddressDetected = 0u;
 832:Generated_Source\PSoC5/UART_ACS.c ****                 #endif /* End UART_ACS_RXBUFFERSIZE > UART_ACS_FIFO_LENGTH*/
 833:Generated_Source\PSoC5/UART_ACS.c ****             #endif /* End UART_ACS_CONTROL_REG_REMOVED */
 834:Generated_Source\PSoC5/UART_ACS.c ****         #else /* UART_ACS_RXHW_ADDRESS_ENABLED */
 835:Generated_Source\PSoC5/UART_ACS.c ****             if(0u != addressMode)
 836:Generated_Source\PSoC5/UART_ACS.c ****             {
 837:Generated_Source\PSoC5/UART_ACS.c ****                 /* Suppress compiler warning */
 838:Generated_Source\PSoC5/UART_ACS.c ****             }
 839:Generated_Source\PSoC5/UART_ACS.c ****         #endif /* End UART_ACS_RXHW_ADDRESS_ENABLED */
 840:Generated_Source\PSoC5/UART_ACS.c ****     }
 841:Generated_Source\PSoC5/UART_ACS.c **** 
 842:Generated_Source\PSoC5/UART_ACS.c **** 
 843:Generated_Source\PSoC5/UART_ACS.c ****     /*******************************************************************************
 844:Generated_Source\PSoC5/UART_ACS.c ****     * Function Name: UART_ACS_SetRxAddress1
 845:Generated_Source\PSoC5/UART_ACS.c ****     ********************************************************************************
 846:Generated_Source\PSoC5/UART_ACS.c ****     *
 847:Generated_Source\PSoC5/UART_ACS.c ****     * Summary:
 848:Generated_Source\PSoC5/UART_ACS.c ****     *  Sets the first of two hardware-detectable receiver addresses.
 849:Generated_Source\PSoC5/UART_ACS.c ****     *
 850:Generated_Source\PSoC5/UART_ACS.c ****     * Parameters:
 851:Generated_Source\PSoC5/UART_ACS.c ****     *  address: Address #1 for hardware address detection.
ARM GAS  C:\Users\yqh\AppData\Local\Temp\ccOHgKzc.s 			page 29


 852:Generated_Source\PSoC5/UART_ACS.c ****     *
 853:Generated_Source\PSoC5/UART_ACS.c ****     * Return:
 854:Generated_Source\PSoC5/UART_ACS.c ****     *  None.
 855:Generated_Source\PSoC5/UART_ACS.c ****     *
 856:Generated_Source\PSoC5/UART_ACS.c ****     *******************************************************************************/
 857:Generated_Source\PSoC5/UART_ACS.c ****     void UART_ACS_SetRxAddress1(uint8 address) 
 858:Generated_Source\PSoC5/UART_ACS.c ****     {
 725              		.loc 1 858 0
 726              		.cfi_startproc
 727              		@ args = 0, pretend = 0, frame = 0
 728              		@ frame_needed = 0, uses_anonymous_args = 0
 729              		@ link register save eliminated.
 730              	.LVL40:
 859:Generated_Source\PSoC5/UART_ACS.c ****         UART_ACS_RXADDRESS1_REG = address;
 731              		.loc 1 859 0
 732 0000 014B     		ldr	r3, .L70
 733 0002 1870     		strb	r0, [r3]
 734 0004 7047     		bx	lr
 735              	.L71:
 736 0006 00BF     		.align	2
 737              	.L70:
 738 0008 29640040 		.word	1073767465
 739              		.cfi_endproc
 740              	.LFE14:
 741              		.size	UART_ACS_SetRxAddress1, .-UART_ACS_SetRxAddress1
 742              		.section	.text.UART_ACS_SetRxAddress2,"ax",%progbits
 743              		.align	1
 744              		.global	UART_ACS_SetRxAddress2
 745              		.thumb
 746              		.thumb_func
 747              		.type	UART_ACS_SetRxAddress2, %function
 748              	UART_ACS_SetRxAddress2:
 749              	.LFB15:
 860:Generated_Source\PSoC5/UART_ACS.c ****     }
 861:Generated_Source\PSoC5/UART_ACS.c **** 
 862:Generated_Source\PSoC5/UART_ACS.c **** 
 863:Generated_Source\PSoC5/UART_ACS.c ****     /*******************************************************************************
 864:Generated_Source\PSoC5/UART_ACS.c ****     * Function Name: UART_ACS_SetRxAddress2
 865:Generated_Source\PSoC5/UART_ACS.c ****     ********************************************************************************
 866:Generated_Source\PSoC5/UART_ACS.c ****     *
 867:Generated_Source\PSoC5/UART_ACS.c ****     * Summary:
 868:Generated_Source\PSoC5/UART_ACS.c ****     *  Sets the second of two hardware-detectable receiver addresses.
 869:Generated_Source\PSoC5/UART_ACS.c ****     *
 870:Generated_Source\PSoC5/UART_ACS.c ****     * Parameters:
 871:Generated_Source\PSoC5/UART_ACS.c ****     *  address: Address #2 for hardware address detection.
 872:Generated_Source\PSoC5/UART_ACS.c ****     *
 873:Generated_Source\PSoC5/UART_ACS.c ****     * Return:
 874:Generated_Source\PSoC5/UART_ACS.c ****     *  None.
 875:Generated_Source\PSoC5/UART_ACS.c ****     *
 876:Generated_Source\PSoC5/UART_ACS.c ****     *******************************************************************************/
 877:Generated_Source\PSoC5/UART_ACS.c ****     void UART_ACS_SetRxAddress2(uint8 address) 
 878:Generated_Source\PSoC5/UART_ACS.c ****     {
 750              		.loc 1 878 0
 751              		.cfi_startproc
 752              		@ args = 0, pretend = 0, frame = 0
 753              		@ frame_needed = 0, uses_anonymous_args = 0
 754              		@ link register save eliminated.
ARM GAS  C:\Users\yqh\AppData\Local\Temp\ccOHgKzc.s 			page 30


 755              	.LVL41:
 879:Generated_Source\PSoC5/UART_ACS.c ****         UART_ACS_RXADDRESS2_REG = address;
 756              		.loc 1 879 0
 757 0000 014B     		ldr	r3, .L73
 758 0002 1870     		strb	r0, [r3]
 759 0004 7047     		bx	lr
 760              	.L74:
 761 0006 00BF     		.align	2
 762              	.L73:
 763 0008 39640040 		.word	1073767481
 764              		.cfi_endproc
 765              	.LFE15:
 766              		.size	UART_ACS_SetRxAddress2, .-UART_ACS_SetRxAddress2
 767              		.section	.text.UART_ACS_SetTxInterruptMode,"ax",%progbits
 768              		.align	1
 769              		.global	UART_ACS_SetTxInterruptMode
 770              		.thumb
 771              		.thumb_func
 772              		.type	UART_ACS_SetTxInterruptMode, %function
 773              	UART_ACS_SetTxInterruptMode:
 774              	.LFB16:
 880:Generated_Source\PSoC5/UART_ACS.c ****     }
 881:Generated_Source\PSoC5/UART_ACS.c **** 
 882:Generated_Source\PSoC5/UART_ACS.c **** #endif  /* UART_ACS_RX_ENABLED || UART_ACS_HD_ENABLED*/
 883:Generated_Source\PSoC5/UART_ACS.c **** 
 884:Generated_Source\PSoC5/UART_ACS.c **** 
 885:Generated_Source\PSoC5/UART_ACS.c **** #if( (UART_ACS_TX_ENABLED) || (UART_ACS_HD_ENABLED) )
 886:Generated_Source\PSoC5/UART_ACS.c ****     /*******************************************************************************
 887:Generated_Source\PSoC5/UART_ACS.c ****     * Function Name: UART_ACS_SetTxInterruptMode
 888:Generated_Source\PSoC5/UART_ACS.c ****     ********************************************************************************
 889:Generated_Source\PSoC5/UART_ACS.c ****     *
 890:Generated_Source\PSoC5/UART_ACS.c ****     * Summary:
 891:Generated_Source\PSoC5/UART_ACS.c ****     *  Configures the TX interrupt sources to be enabled, but does not enable the
 892:Generated_Source\PSoC5/UART_ACS.c ****     *  interrupt.
 893:Generated_Source\PSoC5/UART_ACS.c ****     *
 894:Generated_Source\PSoC5/UART_ACS.c ****     * Parameters:
 895:Generated_Source\PSoC5/UART_ACS.c ****     *  intSrc: Bit field containing the TX interrupt sources to enable
 896:Generated_Source\PSoC5/UART_ACS.c ****     *   UART_ACS_TX_STS_COMPLETE        Interrupt on TX byte complete
 897:Generated_Source\PSoC5/UART_ACS.c ****     *   UART_ACS_TX_STS_FIFO_EMPTY      Interrupt when TX FIFO is empty
 898:Generated_Source\PSoC5/UART_ACS.c ****     *   UART_ACS_TX_STS_FIFO_FULL       Interrupt when TX FIFO is full
 899:Generated_Source\PSoC5/UART_ACS.c ****     *   UART_ACS_TX_STS_FIFO_NOT_FULL   Interrupt when TX FIFO is not full
 900:Generated_Source\PSoC5/UART_ACS.c ****     *
 901:Generated_Source\PSoC5/UART_ACS.c ****     * Return:
 902:Generated_Source\PSoC5/UART_ACS.c ****     *  None.
 903:Generated_Source\PSoC5/UART_ACS.c ****     *
 904:Generated_Source\PSoC5/UART_ACS.c ****     * Theory:
 905:Generated_Source\PSoC5/UART_ACS.c ****     *  Enables the output of specific status bits to the interrupt controller
 906:Generated_Source\PSoC5/UART_ACS.c ****     *
 907:Generated_Source\PSoC5/UART_ACS.c ****     *******************************************************************************/
 908:Generated_Source\PSoC5/UART_ACS.c ****     void UART_ACS_SetTxInterruptMode(uint8 intSrc) 
 909:Generated_Source\PSoC5/UART_ACS.c ****     {
 775              		.loc 1 909 0
 776              		.cfi_startproc
 777              		@ args = 0, pretend = 0, frame = 0
 778              		@ frame_needed = 0, uses_anonymous_args = 0
 779              		@ link register save eliminated.
 780              	.LVL42:
ARM GAS  C:\Users\yqh\AppData\Local\Temp\ccOHgKzc.s 			page 31


 910:Generated_Source\PSoC5/UART_ACS.c ****         UART_ACS_TXSTATUS_MASK_REG = intSrc;
 781              		.loc 1 910 0
 782 0000 014B     		ldr	r3, .L76
 783 0002 1870     		strb	r0, [r3]
 784 0004 7047     		bx	lr
 785              	.L77:
 786 0006 00BF     		.align	2
 787              	.L76:
 788 0008 8A650040 		.word	1073767818
 789              		.cfi_endproc
 790              	.LFE16:
 791              		.size	UART_ACS_SetTxInterruptMode, .-UART_ACS_SetTxInterruptMode
 792              		.section	.text.UART_ACS_WriteTxData,"ax",%progbits
 793              		.align	1
 794              		.global	UART_ACS_WriteTxData
 795              		.thumb
 796              		.thumb_func
 797              		.type	UART_ACS_WriteTxData, %function
 798              	UART_ACS_WriteTxData:
 799              	.LFB17:
 911:Generated_Source\PSoC5/UART_ACS.c ****     }
 912:Generated_Source\PSoC5/UART_ACS.c **** 
 913:Generated_Source\PSoC5/UART_ACS.c **** 
 914:Generated_Source\PSoC5/UART_ACS.c ****     /*******************************************************************************
 915:Generated_Source\PSoC5/UART_ACS.c ****     * Function Name: UART_ACS_WriteTxData
 916:Generated_Source\PSoC5/UART_ACS.c ****     ********************************************************************************
 917:Generated_Source\PSoC5/UART_ACS.c ****     *
 918:Generated_Source\PSoC5/UART_ACS.c ****     * Summary:
 919:Generated_Source\PSoC5/UART_ACS.c ****     *  Places a byte of data into the transmit buffer to be sent when the bus is
 920:Generated_Source\PSoC5/UART_ACS.c ****     *  available without checking the TX status register. You must check status
 921:Generated_Source\PSoC5/UART_ACS.c ****     *  separately.
 922:Generated_Source\PSoC5/UART_ACS.c ****     *
 923:Generated_Source\PSoC5/UART_ACS.c ****     * Parameters:
 924:Generated_Source\PSoC5/UART_ACS.c ****     *  txDataByte: data byte
 925:Generated_Source\PSoC5/UART_ACS.c ****     *
 926:Generated_Source\PSoC5/UART_ACS.c ****     * Return:
 927:Generated_Source\PSoC5/UART_ACS.c ****     * None.
 928:Generated_Source\PSoC5/UART_ACS.c ****     *
 929:Generated_Source\PSoC5/UART_ACS.c ****     * Global Variables:
 930:Generated_Source\PSoC5/UART_ACS.c ****     *  UART_ACS_txBuffer - RAM buffer pointer for save data for transmission
 931:Generated_Source\PSoC5/UART_ACS.c ****     *  UART_ACS_txBufferWrite - cyclic index for write to txBuffer,
 932:Generated_Source\PSoC5/UART_ACS.c ****     *    incremented after each byte saved to buffer.
 933:Generated_Source\PSoC5/UART_ACS.c ****     *  UART_ACS_txBufferRead - cyclic index for read from txBuffer,
 934:Generated_Source\PSoC5/UART_ACS.c ****     *    checked to identify the condition to write to FIFO directly or to TX buffer
 935:Generated_Source\PSoC5/UART_ACS.c ****     *  UART_ACS_initVar - checked to identify that the component has been
 936:Generated_Source\PSoC5/UART_ACS.c ****     *    initialized.
 937:Generated_Source\PSoC5/UART_ACS.c ****     *
 938:Generated_Source\PSoC5/UART_ACS.c ****     * Reentrant:
 939:Generated_Source\PSoC5/UART_ACS.c ****     *  No.
 940:Generated_Source\PSoC5/UART_ACS.c ****     *
 941:Generated_Source\PSoC5/UART_ACS.c ****     *******************************************************************************/
 942:Generated_Source\PSoC5/UART_ACS.c ****     void UART_ACS_WriteTxData(uint8 txDataByte) 
 943:Generated_Source\PSoC5/UART_ACS.c ****     {
 800              		.loc 1 943 0
 801              		.cfi_startproc
 802              		@ args = 0, pretend = 0, frame = 0
 803              		@ frame_needed = 0, uses_anonymous_args = 0
ARM GAS  C:\Users\yqh\AppData\Local\Temp\ccOHgKzc.s 			page 32


 804              		@ link register save eliminated.
 805              	.LVL43:
 944:Generated_Source\PSoC5/UART_ACS.c ****         /* If not Initialized then skip this function*/
 945:Generated_Source\PSoC5/UART_ACS.c ****         if(UART_ACS_initVar != 0u)
 806              		.loc 1 945 0
 807 0000 024B     		ldr	r3, .L83
 808 0002 5B78     		ldrb	r3, [r3, #1]	@ zero_extendqisi2
 809 0004 0BB1     		cbz	r3, .L78
 946:Generated_Source\PSoC5/UART_ACS.c ****         {
 947:Generated_Source\PSoC5/UART_ACS.c ****         #if (UART_ACS_TX_INTERRUPT_ENABLED)
 948:Generated_Source\PSoC5/UART_ACS.c **** 
 949:Generated_Source\PSoC5/UART_ACS.c ****             /* Protect variables that could change on interrupt. */
 950:Generated_Source\PSoC5/UART_ACS.c ****             UART_ACS_DisableTxInt();
 951:Generated_Source\PSoC5/UART_ACS.c **** 
 952:Generated_Source\PSoC5/UART_ACS.c ****             if( (UART_ACS_txBufferRead == UART_ACS_txBufferWrite) &&
 953:Generated_Source\PSoC5/UART_ACS.c ****                 ((UART_ACS_TXSTATUS_REG & UART_ACS_TX_STS_FIFO_FULL) == 0u) )
 954:Generated_Source\PSoC5/UART_ACS.c ****             {
 955:Generated_Source\PSoC5/UART_ACS.c ****                 /* Add directly to the FIFO. */
 956:Generated_Source\PSoC5/UART_ACS.c ****                 UART_ACS_TXDATA_REG = txDataByte;
 957:Generated_Source\PSoC5/UART_ACS.c ****             }
 958:Generated_Source\PSoC5/UART_ACS.c ****             else
 959:Generated_Source\PSoC5/UART_ACS.c ****             {
 960:Generated_Source\PSoC5/UART_ACS.c ****                 if(UART_ACS_txBufferWrite >= UART_ACS_TX_BUFFER_SIZE)
 961:Generated_Source\PSoC5/UART_ACS.c ****                 {
 962:Generated_Source\PSoC5/UART_ACS.c ****                     UART_ACS_txBufferWrite = 0u;
 963:Generated_Source\PSoC5/UART_ACS.c ****                 }
 964:Generated_Source\PSoC5/UART_ACS.c **** 
 965:Generated_Source\PSoC5/UART_ACS.c ****                 UART_ACS_txBuffer[UART_ACS_txBufferWrite] = txDataByte;
 966:Generated_Source\PSoC5/UART_ACS.c **** 
 967:Generated_Source\PSoC5/UART_ACS.c ****                 /* Add to the software buffer. */
 968:Generated_Source\PSoC5/UART_ACS.c ****                 UART_ACS_txBufferWrite++;
 969:Generated_Source\PSoC5/UART_ACS.c ****             }
 970:Generated_Source\PSoC5/UART_ACS.c **** 
 971:Generated_Source\PSoC5/UART_ACS.c ****             UART_ACS_EnableTxInt();
 972:Generated_Source\PSoC5/UART_ACS.c **** 
 973:Generated_Source\PSoC5/UART_ACS.c ****         #else
 974:Generated_Source\PSoC5/UART_ACS.c **** 
 975:Generated_Source\PSoC5/UART_ACS.c ****             /* Add directly to the FIFO. */
 976:Generated_Source\PSoC5/UART_ACS.c ****             UART_ACS_TXDATA_REG = txDataByte;
 810              		.loc 1 976 0
 811 0006 024B     		ldr	r3, .L83+4
 812 0008 1870     		strb	r0, [r3]
 813              	.L78:
 814 000a 7047     		bx	lr
 815              	.L84:
 816              		.align	2
 817              	.L83:
 818 000c 00000000 		.word	.LANCHOR0
 819 0010 59640040 		.word	1073767513
 820              		.cfi_endproc
 821              	.LFE17:
 822              		.size	UART_ACS_WriteTxData, .-UART_ACS_WriteTxData
 823              		.section	.text.UART_ACS_ReadTxStatus,"ax",%progbits
 824              		.align	1
 825              		.global	UART_ACS_ReadTxStatus
 826              		.thumb
 827              		.thumb_func
ARM GAS  C:\Users\yqh\AppData\Local\Temp\ccOHgKzc.s 			page 33


 828              		.type	UART_ACS_ReadTxStatus, %function
 829              	UART_ACS_ReadTxStatus:
 830              	.LFB18:
 977:Generated_Source\PSoC5/UART_ACS.c **** 
 978:Generated_Source\PSoC5/UART_ACS.c ****         #endif /*(UART_ACS_TX_INTERRUPT_ENABLED) */
 979:Generated_Source\PSoC5/UART_ACS.c ****         }
 980:Generated_Source\PSoC5/UART_ACS.c ****     }
 981:Generated_Source\PSoC5/UART_ACS.c **** 
 982:Generated_Source\PSoC5/UART_ACS.c **** 
 983:Generated_Source\PSoC5/UART_ACS.c ****     /*******************************************************************************
 984:Generated_Source\PSoC5/UART_ACS.c ****     * Function Name: UART_ACS_ReadTxStatus
 985:Generated_Source\PSoC5/UART_ACS.c ****     ********************************************************************************
 986:Generated_Source\PSoC5/UART_ACS.c ****     *
 987:Generated_Source\PSoC5/UART_ACS.c ****     * Summary:
 988:Generated_Source\PSoC5/UART_ACS.c ****     *  Reads the status register for the TX portion of the UART.
 989:Generated_Source\PSoC5/UART_ACS.c ****     *
 990:Generated_Source\PSoC5/UART_ACS.c ****     * Parameters:
 991:Generated_Source\PSoC5/UART_ACS.c ****     *  None.
 992:Generated_Source\PSoC5/UART_ACS.c ****     *
 993:Generated_Source\PSoC5/UART_ACS.c ****     * Return:
 994:Generated_Source\PSoC5/UART_ACS.c ****     *  Contents of the status register
 995:Generated_Source\PSoC5/UART_ACS.c ****     *
 996:Generated_Source\PSoC5/UART_ACS.c ****     * Theory:
 997:Generated_Source\PSoC5/UART_ACS.c ****     *  This function reads the TX status register, which is cleared on read.
 998:Generated_Source\PSoC5/UART_ACS.c ****     *  It is up to the user to handle all bits in this return value accordingly,
 999:Generated_Source\PSoC5/UART_ACS.c ****     *  even if the bit was not enabled as an interrupt source the event happened
1000:Generated_Source\PSoC5/UART_ACS.c ****     *  and must be handled accordingly.
1001:Generated_Source\PSoC5/UART_ACS.c ****     *
1002:Generated_Source\PSoC5/UART_ACS.c ****     *******************************************************************************/
1003:Generated_Source\PSoC5/UART_ACS.c ****     uint8 UART_ACS_ReadTxStatus(void) 
1004:Generated_Source\PSoC5/UART_ACS.c ****     {
 831              		.loc 1 1004 0
 832              		.cfi_startproc
 833              		@ args = 0, pretend = 0, frame = 0
 834              		@ frame_needed = 0, uses_anonymous_args = 0
 835              		@ link register save eliminated.
1005:Generated_Source\PSoC5/UART_ACS.c ****         return(UART_ACS_TXSTATUS_REG);
 836              		.loc 1 1005 0
 837 0000 014B     		ldr	r3, .L86
 838 0002 1878     		ldrb	r0, [r3]	@ zero_extendqisi2
1006:Generated_Source\PSoC5/UART_ACS.c ****     }
 839              		.loc 1 1006 0
 840 0004 7047     		bx	lr
 841              	.L87:
 842 0006 00BF     		.align	2
 843              	.L86:
 844 0008 6A650040 		.word	1073767786
 845              		.cfi_endproc
 846              	.LFE18:
 847              		.size	UART_ACS_ReadTxStatus, .-UART_ACS_ReadTxStatus
 848              		.section	.text.UART_ACS_PutChar,"ax",%progbits
 849              		.align	1
 850              		.global	UART_ACS_PutChar
 851              		.thumb
 852              		.thumb_func
 853              		.type	UART_ACS_PutChar, %function
 854              	UART_ACS_PutChar:
ARM GAS  C:\Users\yqh\AppData\Local\Temp\ccOHgKzc.s 			page 34


 855              	.LFB19:
1007:Generated_Source\PSoC5/UART_ACS.c **** 
1008:Generated_Source\PSoC5/UART_ACS.c **** 
1009:Generated_Source\PSoC5/UART_ACS.c ****     /*******************************************************************************
1010:Generated_Source\PSoC5/UART_ACS.c ****     * Function Name: UART_ACS_PutChar
1011:Generated_Source\PSoC5/UART_ACS.c ****     ********************************************************************************
1012:Generated_Source\PSoC5/UART_ACS.c ****     *
1013:Generated_Source\PSoC5/UART_ACS.c ****     * Summary:
1014:Generated_Source\PSoC5/UART_ACS.c ****     *  Puts a byte of data into the transmit buffer to be sent when the bus is
1015:Generated_Source\PSoC5/UART_ACS.c ****     *  available. This is a blocking API that waits until the TX buffer has room to
1016:Generated_Source\PSoC5/UART_ACS.c ****     *  hold the data.
1017:Generated_Source\PSoC5/UART_ACS.c ****     *
1018:Generated_Source\PSoC5/UART_ACS.c ****     * Parameters:
1019:Generated_Source\PSoC5/UART_ACS.c ****     *  txDataByte: Byte containing the data to transmit
1020:Generated_Source\PSoC5/UART_ACS.c ****     *
1021:Generated_Source\PSoC5/UART_ACS.c ****     * Return:
1022:Generated_Source\PSoC5/UART_ACS.c ****     *  None.
1023:Generated_Source\PSoC5/UART_ACS.c ****     *
1024:Generated_Source\PSoC5/UART_ACS.c ****     * Global Variables:
1025:Generated_Source\PSoC5/UART_ACS.c ****     *  UART_ACS_txBuffer - RAM buffer pointer for save data for transmission
1026:Generated_Source\PSoC5/UART_ACS.c ****     *  UART_ACS_txBufferWrite - cyclic index for write to txBuffer,
1027:Generated_Source\PSoC5/UART_ACS.c ****     *     checked to identify free space in txBuffer and incremented after each byte
1028:Generated_Source\PSoC5/UART_ACS.c ****     *     saved to buffer.
1029:Generated_Source\PSoC5/UART_ACS.c ****     *  UART_ACS_txBufferRead - cyclic index for read from txBuffer,
1030:Generated_Source\PSoC5/UART_ACS.c ****     *     checked to identify free space in txBuffer.
1031:Generated_Source\PSoC5/UART_ACS.c ****     *  UART_ACS_initVar - checked to identify that the component has been
1032:Generated_Source\PSoC5/UART_ACS.c ****     *     initialized.
1033:Generated_Source\PSoC5/UART_ACS.c ****     *
1034:Generated_Source\PSoC5/UART_ACS.c ****     * Reentrant:
1035:Generated_Source\PSoC5/UART_ACS.c ****     *  No.
1036:Generated_Source\PSoC5/UART_ACS.c ****     *
1037:Generated_Source\PSoC5/UART_ACS.c ****     * Theory:
1038:Generated_Source\PSoC5/UART_ACS.c ****     *  Allows the user to transmit any byte of data in a single transfer
1039:Generated_Source\PSoC5/UART_ACS.c ****     *
1040:Generated_Source\PSoC5/UART_ACS.c ****     *******************************************************************************/
1041:Generated_Source\PSoC5/UART_ACS.c ****     void UART_ACS_PutChar(uint8 txDataByte) 
1042:Generated_Source\PSoC5/UART_ACS.c ****     {
 856              		.loc 1 1042 0
 857              		.cfi_startproc
 858              		@ args = 0, pretend = 0, frame = 0
 859              		@ frame_needed = 0, uses_anonymous_args = 0
 860              		@ link register save eliminated.
 861              	.LVL44:
 862              	.L89:
1043:Generated_Source\PSoC5/UART_ACS.c ****     #if (UART_ACS_TX_INTERRUPT_ENABLED)
1044:Generated_Source\PSoC5/UART_ACS.c ****         /* The temporary output pointer is used since it takes two instructions
1045:Generated_Source\PSoC5/UART_ACS.c ****         *  to increment with a wrap, and we can't risk doing that with the real
1046:Generated_Source\PSoC5/UART_ACS.c ****         *  pointer and getting an interrupt in between instructions.
1047:Generated_Source\PSoC5/UART_ACS.c ****         */
1048:Generated_Source\PSoC5/UART_ACS.c ****         uint8 locTxBufferWrite;
1049:Generated_Source\PSoC5/UART_ACS.c ****         uint8 locTxBufferRead;
1050:Generated_Source\PSoC5/UART_ACS.c **** 
1051:Generated_Source\PSoC5/UART_ACS.c ****         do
1052:Generated_Source\PSoC5/UART_ACS.c ****         { /* Block if software buffer is full, so we don't overwrite. */
1053:Generated_Source\PSoC5/UART_ACS.c **** 
1054:Generated_Source\PSoC5/UART_ACS.c ****         #if ((UART_ACS_TX_BUFFER_SIZE > UART_ACS_MAX_BYTE_VALUE) && (CY_PSOC3))
1055:Generated_Source\PSoC5/UART_ACS.c ****             /* Disable TX interrupt to protect variables from modification */
ARM GAS  C:\Users\yqh\AppData\Local\Temp\ccOHgKzc.s 			page 35


1056:Generated_Source\PSoC5/UART_ACS.c ****             UART_ACS_DisableTxInt();
1057:Generated_Source\PSoC5/UART_ACS.c ****         #endif /* (UART_ACS_TX_BUFFER_SIZE > UART_ACS_MAX_BYTE_VALUE) && (CY_PSOC3) */
1058:Generated_Source\PSoC5/UART_ACS.c **** 
1059:Generated_Source\PSoC5/UART_ACS.c ****             locTxBufferWrite = UART_ACS_txBufferWrite;
1060:Generated_Source\PSoC5/UART_ACS.c ****             locTxBufferRead  = UART_ACS_txBufferRead;
1061:Generated_Source\PSoC5/UART_ACS.c **** 
1062:Generated_Source\PSoC5/UART_ACS.c ****         #if ((UART_ACS_TX_BUFFER_SIZE > UART_ACS_MAX_BYTE_VALUE) && (CY_PSOC3))
1063:Generated_Source\PSoC5/UART_ACS.c ****             /* Enable interrupt to continue transmission */
1064:Generated_Source\PSoC5/UART_ACS.c ****             UART_ACS_EnableTxInt();
1065:Generated_Source\PSoC5/UART_ACS.c ****         #endif /* (UART_ACS_TX_BUFFER_SIZE > UART_ACS_MAX_BYTE_VALUE) && (CY_PSOC3) */
1066:Generated_Source\PSoC5/UART_ACS.c ****         }
1067:Generated_Source\PSoC5/UART_ACS.c ****         while( (locTxBufferWrite < locTxBufferRead) ? (locTxBufferWrite == (locTxBufferRead - 1u)) 
1068:Generated_Source\PSoC5/UART_ACS.c ****                                 ((locTxBufferWrite - locTxBufferRead) ==
1069:Generated_Source\PSoC5/UART_ACS.c ****                                 (uint8)(UART_ACS_TX_BUFFER_SIZE - 1u)) );
1070:Generated_Source\PSoC5/UART_ACS.c **** 
1071:Generated_Source\PSoC5/UART_ACS.c ****         if( (locTxBufferRead == locTxBufferWrite) &&
1072:Generated_Source\PSoC5/UART_ACS.c ****             ((UART_ACS_TXSTATUS_REG & UART_ACS_TX_STS_FIFO_FULL) == 0u) )
1073:Generated_Source\PSoC5/UART_ACS.c ****         {
1074:Generated_Source\PSoC5/UART_ACS.c ****             /* Add directly to the FIFO */
1075:Generated_Source\PSoC5/UART_ACS.c ****             UART_ACS_TXDATA_REG = txDataByte;
1076:Generated_Source\PSoC5/UART_ACS.c ****         }
1077:Generated_Source\PSoC5/UART_ACS.c ****         else
1078:Generated_Source\PSoC5/UART_ACS.c ****         {
1079:Generated_Source\PSoC5/UART_ACS.c ****             if(locTxBufferWrite >= UART_ACS_TX_BUFFER_SIZE)
1080:Generated_Source\PSoC5/UART_ACS.c ****             {
1081:Generated_Source\PSoC5/UART_ACS.c ****                 locTxBufferWrite = 0u;
1082:Generated_Source\PSoC5/UART_ACS.c ****             }
1083:Generated_Source\PSoC5/UART_ACS.c ****             /* Add to the software buffer. */
1084:Generated_Source\PSoC5/UART_ACS.c ****             UART_ACS_txBuffer[locTxBufferWrite] = txDataByte;
1085:Generated_Source\PSoC5/UART_ACS.c ****             locTxBufferWrite++;
1086:Generated_Source\PSoC5/UART_ACS.c **** 
1087:Generated_Source\PSoC5/UART_ACS.c ****             /* Finally, update the real output pointer */
1088:Generated_Source\PSoC5/UART_ACS.c ****         #if ((UART_ACS_TX_BUFFER_SIZE > UART_ACS_MAX_BYTE_VALUE) && (CY_PSOC3))
1089:Generated_Source\PSoC5/UART_ACS.c ****             UART_ACS_DisableTxInt();
1090:Generated_Source\PSoC5/UART_ACS.c ****         #endif /* (UART_ACS_TX_BUFFER_SIZE > UART_ACS_MAX_BYTE_VALUE) && (CY_PSOC3) */
1091:Generated_Source\PSoC5/UART_ACS.c **** 
1092:Generated_Source\PSoC5/UART_ACS.c ****             UART_ACS_txBufferWrite = locTxBufferWrite;
1093:Generated_Source\PSoC5/UART_ACS.c **** 
1094:Generated_Source\PSoC5/UART_ACS.c ****         #if ((UART_ACS_TX_BUFFER_SIZE > UART_ACS_MAX_BYTE_VALUE) && (CY_PSOC3))
1095:Generated_Source\PSoC5/UART_ACS.c ****             UART_ACS_EnableTxInt();
1096:Generated_Source\PSoC5/UART_ACS.c ****         #endif /* (UART_ACS_TX_BUFFER_SIZE > UART_ACS_MAX_BYTE_VALUE) && (CY_PSOC3) */
1097:Generated_Source\PSoC5/UART_ACS.c **** 
1098:Generated_Source\PSoC5/UART_ACS.c ****             if(0u != (UART_ACS_TXSTATUS_REG & UART_ACS_TX_STS_FIFO_EMPTY))
1099:Generated_Source\PSoC5/UART_ACS.c ****             {
1100:Generated_Source\PSoC5/UART_ACS.c ****                 /* Trigger TX interrupt to send software buffer */
1101:Generated_Source\PSoC5/UART_ACS.c ****                 UART_ACS_SetPendingTxInt();
1102:Generated_Source\PSoC5/UART_ACS.c ****             }
1103:Generated_Source\PSoC5/UART_ACS.c ****         }
1104:Generated_Source\PSoC5/UART_ACS.c **** 
1105:Generated_Source\PSoC5/UART_ACS.c ****     #else
1106:Generated_Source\PSoC5/UART_ACS.c **** 
1107:Generated_Source\PSoC5/UART_ACS.c ****         while((UART_ACS_TXSTATUS_REG & UART_ACS_TX_STS_FIFO_FULL) != 0u)
 863              		.loc 1 1107 0 discriminator 1
 864 0000 034B     		ldr	r3, .L91
 865 0002 1B78     		ldrb	r3, [r3]	@ zero_extendqisi2
 866 0004 9B06     		lsls	r3, r3, #26
 867 0006 FBD4     		bmi	.L89
ARM GAS  C:\Users\yqh\AppData\Local\Temp\ccOHgKzc.s 			page 36


1108:Generated_Source\PSoC5/UART_ACS.c ****         {
1109:Generated_Source\PSoC5/UART_ACS.c ****             /* Wait for room in the FIFO */
1110:Generated_Source\PSoC5/UART_ACS.c ****         }
1111:Generated_Source\PSoC5/UART_ACS.c **** 
1112:Generated_Source\PSoC5/UART_ACS.c ****         /* Add directly to the FIFO */
1113:Generated_Source\PSoC5/UART_ACS.c ****         UART_ACS_TXDATA_REG = txDataByte;
 868              		.loc 1 1113 0
 869 0008 024B     		ldr	r3, .L91+4
 870 000a 1870     		strb	r0, [r3]
 871 000c 7047     		bx	lr
 872              	.L92:
 873 000e 00BF     		.align	2
 874              	.L91:
 875 0010 6A650040 		.word	1073767786
 876 0014 59640040 		.word	1073767513
 877              		.cfi_endproc
 878              	.LFE19:
 879              		.size	UART_ACS_PutChar, .-UART_ACS_PutChar
 880              		.section	.text.UART_ACS_PutString,"ax",%progbits
 881              		.align	1
 882              		.global	UART_ACS_PutString
 883              		.thumb
 884              		.thumb_func
 885              		.type	UART_ACS_PutString, %function
 886              	UART_ACS_PutString:
 887              	.LFB20:
1114:Generated_Source\PSoC5/UART_ACS.c **** 
1115:Generated_Source\PSoC5/UART_ACS.c ****     #endif /* UART_ACS_TX_INTERRUPT_ENABLED */
1116:Generated_Source\PSoC5/UART_ACS.c ****     }
1117:Generated_Source\PSoC5/UART_ACS.c **** 
1118:Generated_Source\PSoC5/UART_ACS.c **** 
1119:Generated_Source\PSoC5/UART_ACS.c ****     /*******************************************************************************
1120:Generated_Source\PSoC5/UART_ACS.c ****     * Function Name: UART_ACS_PutString
1121:Generated_Source\PSoC5/UART_ACS.c ****     ********************************************************************************
1122:Generated_Source\PSoC5/UART_ACS.c ****     *
1123:Generated_Source\PSoC5/UART_ACS.c ****     * Summary:
1124:Generated_Source\PSoC5/UART_ACS.c ****     *  Sends a NULL terminated string to the TX buffer for transmission.
1125:Generated_Source\PSoC5/UART_ACS.c ****     *
1126:Generated_Source\PSoC5/UART_ACS.c ****     * Parameters:
1127:Generated_Source\PSoC5/UART_ACS.c ****     *  string[]: Pointer to the null terminated string array residing in RAM or ROM
1128:Generated_Source\PSoC5/UART_ACS.c ****     *
1129:Generated_Source\PSoC5/UART_ACS.c ****     * Return:
1130:Generated_Source\PSoC5/UART_ACS.c ****     *  None.
1131:Generated_Source\PSoC5/UART_ACS.c ****     *
1132:Generated_Source\PSoC5/UART_ACS.c ****     * Global Variables:
1133:Generated_Source\PSoC5/UART_ACS.c ****     *  UART_ACS_initVar - checked to identify that the component has been
1134:Generated_Source\PSoC5/UART_ACS.c ****     *     initialized.
1135:Generated_Source\PSoC5/UART_ACS.c ****     *
1136:Generated_Source\PSoC5/UART_ACS.c ****     * Reentrant:
1137:Generated_Source\PSoC5/UART_ACS.c ****     *  No.
1138:Generated_Source\PSoC5/UART_ACS.c ****     *
1139:Generated_Source\PSoC5/UART_ACS.c ****     * Theory:
1140:Generated_Source\PSoC5/UART_ACS.c ****     *  If there is not enough memory in the TX buffer for the entire string, this
1141:Generated_Source\PSoC5/UART_ACS.c ****     *  function blocks until the last character of the string is loaded into the
1142:Generated_Source\PSoC5/UART_ACS.c ****     *  TX buffer.
1143:Generated_Source\PSoC5/UART_ACS.c ****     *
1144:Generated_Source\PSoC5/UART_ACS.c ****     *******************************************************************************/
ARM GAS  C:\Users\yqh\AppData\Local\Temp\ccOHgKzc.s 			page 37


1145:Generated_Source\PSoC5/UART_ACS.c ****     void UART_ACS_PutString(const char8 string[]) 
1146:Generated_Source\PSoC5/UART_ACS.c ****     {
 888              		.loc 1 1146 0
 889              		.cfi_startproc
 890              		@ args = 0, pretend = 0, frame = 0
 891              		@ frame_needed = 0, uses_anonymous_args = 0
 892              	.LVL45:
 893 0000 38B5     		push	{r3, r4, r5, lr}
 894              		.cfi_def_cfa_offset 16
 895              		.cfi_offset 3, -16
 896              		.cfi_offset 4, -12
 897              		.cfi_offset 5, -8
 898              		.cfi_offset 14, -4
1147:Generated_Source\PSoC5/UART_ACS.c ****         uint16 bufIndex = 0u;
1148:Generated_Source\PSoC5/UART_ACS.c **** 
1149:Generated_Source\PSoC5/UART_ACS.c ****         /* If not Initialized then skip this function */
1150:Generated_Source\PSoC5/UART_ACS.c ****         if(UART_ACS_initVar != 0u)
 899              		.loc 1 1150 0
 900 0002 074B     		ldr	r3, .L99
1146:Generated_Source\PSoC5/UART_ACS.c ****         uint16 bufIndex = 0u;
 901              		.loc 1 1146 0
 902 0004 0546     		mov	r5, r0
 903              		.loc 1 1150 0
 904 0006 5B78     		ldrb	r3, [r3, #1]	@ zero_extendqisi2
 905 0008 03B9     		cbnz	r3, .L97
 906 000a 38BD     		pop	{r3, r4, r5, pc}
 907              	.L97:
 908 000c 0024     		movs	r4, #0
 909              	.LVL46:
 910              	.L94:
1151:Generated_Source\PSoC5/UART_ACS.c ****         {
1152:Generated_Source\PSoC5/UART_ACS.c ****             /* This is a blocking function, it will not exit until all data is sent */
1153:Generated_Source\PSoC5/UART_ACS.c ****             while(string[bufIndex] != (char8) 0)
 911              		.loc 1 1153 0
 912 000e A3B2     		uxth	r3, r4
 913              	.LVL47:
 914 0010 E85C     		ldrb	r0, [r5, r3]	@ zero_extendqisi2
 915 0012 0134     		adds	r4, r4, #1
 916 0014 10B1     		cbz	r0, .L98
1154:Generated_Source\PSoC5/UART_ACS.c ****             {
1155:Generated_Source\PSoC5/UART_ACS.c ****                 UART_ACS_PutChar((uint8)string[bufIndex]);
 917              		.loc 1 1155 0
 918 0016 FFF7FEFF 		bl	UART_ACS_PutChar
 919              	.LVL48:
 920 001a F8E7     		b	.L94
 921              	.LVL49:
 922              	.L98:
 923 001c 38BD     		pop	{r3, r4, r5, pc}
 924              	.LVL50:
 925              	.L100:
 926 001e 00BF     		.align	2
 927              	.L99:
 928 0020 00000000 		.word	.LANCHOR0
 929              		.cfi_endproc
 930              	.LFE20:
 931              		.size	UART_ACS_PutString, .-UART_ACS_PutString
 932              		.section	.text.UART_ACS_PutArray,"ax",%progbits
ARM GAS  C:\Users\yqh\AppData\Local\Temp\ccOHgKzc.s 			page 38


 933              		.align	1
 934              		.global	UART_ACS_PutArray
 935              		.thumb
 936              		.thumb_func
 937              		.type	UART_ACS_PutArray, %function
 938              	UART_ACS_PutArray:
 939              	.LFB21:
1156:Generated_Source\PSoC5/UART_ACS.c ****                 bufIndex++;
1157:Generated_Source\PSoC5/UART_ACS.c ****             }
1158:Generated_Source\PSoC5/UART_ACS.c ****         }
1159:Generated_Source\PSoC5/UART_ACS.c ****     }
1160:Generated_Source\PSoC5/UART_ACS.c **** 
1161:Generated_Source\PSoC5/UART_ACS.c **** 
1162:Generated_Source\PSoC5/UART_ACS.c ****     /*******************************************************************************
1163:Generated_Source\PSoC5/UART_ACS.c ****     * Function Name: UART_ACS_PutArray
1164:Generated_Source\PSoC5/UART_ACS.c ****     ********************************************************************************
1165:Generated_Source\PSoC5/UART_ACS.c ****     *
1166:Generated_Source\PSoC5/UART_ACS.c ****     * Summary:
1167:Generated_Source\PSoC5/UART_ACS.c ****     *  Places N bytes of data from a memory array into the TX buffer for
1168:Generated_Source\PSoC5/UART_ACS.c ****     *  transmission.
1169:Generated_Source\PSoC5/UART_ACS.c ****     *
1170:Generated_Source\PSoC5/UART_ACS.c ****     * Parameters:
1171:Generated_Source\PSoC5/UART_ACS.c ****     *  string[]: Address of the memory array residing in RAM or ROM.
1172:Generated_Source\PSoC5/UART_ACS.c ****     *  byteCount: Number of bytes to be transmitted. The type depends on TX Buffer
1173:Generated_Source\PSoC5/UART_ACS.c ****     *             Size parameter.
1174:Generated_Source\PSoC5/UART_ACS.c ****     *
1175:Generated_Source\PSoC5/UART_ACS.c ****     * Return:
1176:Generated_Source\PSoC5/UART_ACS.c ****     *  None.
1177:Generated_Source\PSoC5/UART_ACS.c ****     *
1178:Generated_Source\PSoC5/UART_ACS.c ****     * Global Variables:
1179:Generated_Source\PSoC5/UART_ACS.c ****     *  UART_ACS_initVar - checked to identify that the component has been
1180:Generated_Source\PSoC5/UART_ACS.c ****     *     initialized.
1181:Generated_Source\PSoC5/UART_ACS.c ****     *
1182:Generated_Source\PSoC5/UART_ACS.c ****     * Reentrant:
1183:Generated_Source\PSoC5/UART_ACS.c ****     *  No.
1184:Generated_Source\PSoC5/UART_ACS.c ****     *
1185:Generated_Source\PSoC5/UART_ACS.c ****     * Theory:
1186:Generated_Source\PSoC5/UART_ACS.c ****     *  If there is not enough memory in the TX buffer for the entire string, this
1187:Generated_Source\PSoC5/UART_ACS.c ****     *  function blocks until the last character of the string is loaded into the
1188:Generated_Source\PSoC5/UART_ACS.c ****     *  TX buffer.
1189:Generated_Source\PSoC5/UART_ACS.c ****     *
1190:Generated_Source\PSoC5/UART_ACS.c ****     *******************************************************************************/
1191:Generated_Source\PSoC5/UART_ACS.c ****     void UART_ACS_PutArray(const uint8 string[], uint8 byteCount)
1192:Generated_Source\PSoC5/UART_ACS.c ****                                                                     
1193:Generated_Source\PSoC5/UART_ACS.c ****     {
 940              		.loc 1 1193 0
 941              		.cfi_startproc
 942              		@ args = 0, pretend = 0, frame = 0
 943              		@ frame_needed = 0, uses_anonymous_args = 0
 944              	.LVL51:
 945 0000 38B5     		push	{r3, r4, r5, lr}
 946              		.cfi_def_cfa_offset 16
 947              		.cfi_offset 3, -16
 948              		.cfi_offset 4, -12
 949              		.cfi_offset 5, -8
 950              		.cfi_offset 14, -4
1194:Generated_Source\PSoC5/UART_ACS.c ****         uint8 bufIndex = 0u;
ARM GAS  C:\Users\yqh\AppData\Local\Temp\ccOHgKzc.s 			page 39


1195:Generated_Source\PSoC5/UART_ACS.c **** 
1196:Generated_Source\PSoC5/UART_ACS.c ****         /* If not Initialized then skip this function */
1197:Generated_Source\PSoC5/UART_ACS.c ****         if(UART_ACS_initVar != 0u)
 951              		.loc 1 1197 0
 952 0002 074B     		ldr	r3, .L106
 953 0004 5B78     		ldrb	r3, [r3, #1]	@ zero_extendqisi2
 954 0006 4BB1     		cbz	r3, .L101
 955 0008 0139     		subs	r1, r1, #1
 956              	.LVL52:
 957 000a 451E     		subs	r5, r0, #1
 958 000c 4418     		adds	r4, r0, r1
 959              	.LVL53:
 960              	.L103:
1198:Generated_Source\PSoC5/UART_ACS.c ****         {
1199:Generated_Source\PSoC5/UART_ACS.c ****             while(bufIndex < byteCount)
 961              		.loc 1 1199 0
 962 000e A542     		cmp	r5, r4
 963 0010 04D0     		beq	.L101
1200:Generated_Source\PSoC5/UART_ACS.c ****             {
1201:Generated_Source\PSoC5/UART_ACS.c ****                 UART_ACS_PutChar(string[bufIndex]);
 964              		.loc 1 1201 0
 965 0012 15F8010F 		ldrb	r0, [r5, #1]!	@ zero_extendqisi2
 966              	.LVL54:
 967 0016 FFF7FEFF 		bl	UART_ACS_PutChar
 968              	.LVL55:
 969 001a F8E7     		b	.L103
 970              	.LVL56:
 971              	.L101:
 972 001c 38BD     		pop	{r3, r4, r5, pc}
 973              	.L107:
 974 001e 00BF     		.align	2
 975              	.L106:
 976 0020 00000000 		.word	.LANCHOR0
 977              		.cfi_endproc
 978              	.LFE21:
 979              		.size	UART_ACS_PutArray, .-UART_ACS_PutArray
 980              		.section	.text.UART_ACS_PutCRLF,"ax",%progbits
 981              		.align	1
 982              		.global	UART_ACS_PutCRLF
 983              		.thumb
 984              		.thumb_func
 985              		.type	UART_ACS_PutCRLF, %function
 986              	UART_ACS_PutCRLF:
 987              	.LFB22:
1202:Generated_Source\PSoC5/UART_ACS.c ****                 bufIndex++;
1203:Generated_Source\PSoC5/UART_ACS.c ****             }
1204:Generated_Source\PSoC5/UART_ACS.c ****         }
1205:Generated_Source\PSoC5/UART_ACS.c ****     }
1206:Generated_Source\PSoC5/UART_ACS.c **** 
1207:Generated_Source\PSoC5/UART_ACS.c **** 
1208:Generated_Source\PSoC5/UART_ACS.c ****     /*******************************************************************************
1209:Generated_Source\PSoC5/UART_ACS.c ****     * Function Name: UART_ACS_PutCRLF
1210:Generated_Source\PSoC5/UART_ACS.c ****     ********************************************************************************
1211:Generated_Source\PSoC5/UART_ACS.c ****     *
1212:Generated_Source\PSoC5/UART_ACS.c ****     * Summary:
1213:Generated_Source\PSoC5/UART_ACS.c ****     *  Writes a byte of data followed by a carriage return (0x0D) and line feed
1214:Generated_Source\PSoC5/UART_ACS.c ****     *  (0x0A) to the transmit buffer.
ARM GAS  C:\Users\yqh\AppData\Local\Temp\ccOHgKzc.s 			page 40


1215:Generated_Source\PSoC5/UART_ACS.c ****     *
1216:Generated_Source\PSoC5/UART_ACS.c ****     * Parameters:
1217:Generated_Source\PSoC5/UART_ACS.c ****     *  txDataByte: Data byte to transmit before the carriage return and line feed.
1218:Generated_Source\PSoC5/UART_ACS.c ****     *
1219:Generated_Source\PSoC5/UART_ACS.c ****     * Return:
1220:Generated_Source\PSoC5/UART_ACS.c ****     *  None.
1221:Generated_Source\PSoC5/UART_ACS.c ****     *
1222:Generated_Source\PSoC5/UART_ACS.c ****     * Global Variables:
1223:Generated_Source\PSoC5/UART_ACS.c ****     *  UART_ACS_initVar - checked to identify that the component has been
1224:Generated_Source\PSoC5/UART_ACS.c ****     *     initialized.
1225:Generated_Source\PSoC5/UART_ACS.c ****     *
1226:Generated_Source\PSoC5/UART_ACS.c ****     * Reentrant:
1227:Generated_Source\PSoC5/UART_ACS.c ****     *  No.
1228:Generated_Source\PSoC5/UART_ACS.c ****     *
1229:Generated_Source\PSoC5/UART_ACS.c ****     *******************************************************************************/
1230:Generated_Source\PSoC5/UART_ACS.c ****     void UART_ACS_PutCRLF(uint8 txDataByte) 
1231:Generated_Source\PSoC5/UART_ACS.c ****     {
 988              		.loc 1 1231 0
 989              		.cfi_startproc
 990              		@ args = 0, pretend = 0, frame = 0
 991              		@ frame_needed = 0, uses_anonymous_args = 0
 992              	.LVL57:
 993 0000 08B5     		push	{r3, lr}
 994              		.cfi_def_cfa_offset 8
 995              		.cfi_offset 3, -8
 996              		.cfi_offset 14, -4
1232:Generated_Source\PSoC5/UART_ACS.c ****         /* If not Initialized then skip this function */
1233:Generated_Source\PSoC5/UART_ACS.c ****         if(UART_ACS_initVar != 0u)
 997              		.loc 1 1233 0
 998 0002 074B     		ldr	r3, .L110
 999 0004 5B78     		ldrb	r3, [r3, #1]	@ zero_extendqisi2
 1000 0006 4BB1     		cbz	r3, .L108
1234:Generated_Source\PSoC5/UART_ACS.c ****         {
1235:Generated_Source\PSoC5/UART_ACS.c ****             UART_ACS_PutChar(txDataByte);
 1001              		.loc 1 1235 0
 1002 0008 FFF7FEFF 		bl	UART_ACS_PutChar
 1003              	.LVL58:
1236:Generated_Source\PSoC5/UART_ACS.c ****             UART_ACS_PutChar(0x0Du);
 1004              		.loc 1 1236 0
 1005 000c 0D20     		movs	r0, #13
 1006 000e FFF7FEFF 		bl	UART_ACS_PutChar
 1007              	.LVL59:
1237:Generated_Source\PSoC5/UART_ACS.c ****             UART_ACS_PutChar(0x0Au);
1238:Generated_Source\PSoC5/UART_ACS.c ****         }
1239:Generated_Source\PSoC5/UART_ACS.c ****     }
 1008              		.loc 1 1239 0
 1009 0012 BDE80840 		pop	{r3, lr}
 1010              		.cfi_remember_state
 1011              		.cfi_restore 14
 1012              		.cfi_restore 3
 1013              		.cfi_def_cfa_offset 0
1237:Generated_Source\PSoC5/UART_ACS.c ****             UART_ACS_PutChar(0x0Au);
 1014              		.loc 1 1237 0
 1015 0016 0A20     		movs	r0, #10
 1016 0018 FFF7FEBF 		b	UART_ACS_PutChar
 1017              	.LVL60:
 1018              	.L108:
ARM GAS  C:\Users\yqh\AppData\Local\Temp\ccOHgKzc.s 			page 41


 1019              		.cfi_restore_state
 1020 001c 08BD     		pop	{r3, pc}
 1021              	.L111:
 1022 001e 00BF     		.align	2
 1023              	.L110:
 1024 0020 00000000 		.word	.LANCHOR0
 1025              		.cfi_endproc
 1026              	.LFE22:
 1027              		.size	UART_ACS_PutCRLF, .-UART_ACS_PutCRLF
 1028              		.section	.text.UART_ACS_GetTxBufferSize,"ax",%progbits
 1029              		.align	1
 1030              		.global	UART_ACS_GetTxBufferSize
 1031              		.thumb
 1032              		.thumb_func
 1033              		.type	UART_ACS_GetTxBufferSize, %function
 1034              	UART_ACS_GetTxBufferSize:
 1035              	.LFB23:
1240:Generated_Source\PSoC5/UART_ACS.c **** 
1241:Generated_Source\PSoC5/UART_ACS.c **** 
1242:Generated_Source\PSoC5/UART_ACS.c ****     /*******************************************************************************
1243:Generated_Source\PSoC5/UART_ACS.c ****     * Function Name: UART_ACS_GetTxBufferSize
1244:Generated_Source\PSoC5/UART_ACS.c ****     ********************************************************************************
1245:Generated_Source\PSoC5/UART_ACS.c ****     *
1246:Generated_Source\PSoC5/UART_ACS.c ****     * Summary:
1247:Generated_Source\PSoC5/UART_ACS.c ****     *  Returns the number of bytes in the TX buffer which are waiting to be 
1248:Generated_Source\PSoC5/UART_ACS.c ****     *  transmitted.
1249:Generated_Source\PSoC5/UART_ACS.c ****     *  * TX software buffer is disabled (TX Buffer Size parameter is equal to 4): 
1250:Generated_Source\PSoC5/UART_ACS.c ****     *    returns 0 for empty TX FIFO, 1 for not full TX FIFO or 4 for full TX FIFO.
1251:Generated_Source\PSoC5/UART_ACS.c ****     *  * TX software buffer is enabled: returns the number of bytes in the TX 
1252:Generated_Source\PSoC5/UART_ACS.c ****     *    software buffer which are waiting to be transmitted. Bytes available in the
1253:Generated_Source\PSoC5/UART_ACS.c ****     *    TX FIFO do not count.
1254:Generated_Source\PSoC5/UART_ACS.c ****     *
1255:Generated_Source\PSoC5/UART_ACS.c ****     * Parameters:
1256:Generated_Source\PSoC5/UART_ACS.c ****     *  None.
1257:Generated_Source\PSoC5/UART_ACS.c ****     *
1258:Generated_Source\PSoC5/UART_ACS.c ****     * Return:
1259:Generated_Source\PSoC5/UART_ACS.c ****     *  Number of bytes used in the TX buffer. Return value type depends on the TX 
1260:Generated_Source\PSoC5/UART_ACS.c ****     *  Buffer Size parameter.
1261:Generated_Source\PSoC5/UART_ACS.c ****     *
1262:Generated_Source\PSoC5/UART_ACS.c ****     * Global Variables:
1263:Generated_Source\PSoC5/UART_ACS.c ****     *  UART_ACS_txBufferWrite - used to calculate left space.
1264:Generated_Source\PSoC5/UART_ACS.c ****     *  UART_ACS_txBufferRead - used to calculate left space.
1265:Generated_Source\PSoC5/UART_ACS.c ****     *
1266:Generated_Source\PSoC5/UART_ACS.c ****     * Reentrant:
1267:Generated_Source\PSoC5/UART_ACS.c ****     *  No.
1268:Generated_Source\PSoC5/UART_ACS.c ****     *
1269:Generated_Source\PSoC5/UART_ACS.c ****     * Theory:
1270:Generated_Source\PSoC5/UART_ACS.c ****     *  Allows the user to find out how full the TX Buffer is.
1271:Generated_Source\PSoC5/UART_ACS.c ****     *
1272:Generated_Source\PSoC5/UART_ACS.c ****     *******************************************************************************/
1273:Generated_Source\PSoC5/UART_ACS.c ****     uint8 UART_ACS_GetTxBufferSize(void)
1274:Generated_Source\PSoC5/UART_ACS.c ****                                                             
1275:Generated_Source\PSoC5/UART_ACS.c ****     {
 1036              		.loc 1 1275 0
 1037              		.cfi_startproc
 1038              		@ args = 0, pretend = 0, frame = 0
 1039              		@ frame_needed = 0, uses_anonymous_args = 0
ARM GAS  C:\Users\yqh\AppData\Local\Temp\ccOHgKzc.s 			page 42


 1040              		@ link register save eliminated.
1276:Generated_Source\PSoC5/UART_ACS.c ****         uint8 size;
1277:Generated_Source\PSoC5/UART_ACS.c **** 
1278:Generated_Source\PSoC5/UART_ACS.c ****     #if (UART_ACS_TX_INTERRUPT_ENABLED)
1279:Generated_Source\PSoC5/UART_ACS.c **** 
1280:Generated_Source\PSoC5/UART_ACS.c ****         /* Protect variables that could change on interrupt. */
1281:Generated_Source\PSoC5/UART_ACS.c ****         UART_ACS_DisableTxInt();
1282:Generated_Source\PSoC5/UART_ACS.c **** 
1283:Generated_Source\PSoC5/UART_ACS.c ****         if(UART_ACS_txBufferRead == UART_ACS_txBufferWrite)
1284:Generated_Source\PSoC5/UART_ACS.c ****         {
1285:Generated_Source\PSoC5/UART_ACS.c ****             size = 0u;
1286:Generated_Source\PSoC5/UART_ACS.c ****         }
1287:Generated_Source\PSoC5/UART_ACS.c ****         else if(UART_ACS_txBufferRead < UART_ACS_txBufferWrite)
1288:Generated_Source\PSoC5/UART_ACS.c ****         {
1289:Generated_Source\PSoC5/UART_ACS.c ****             size = (UART_ACS_txBufferWrite - UART_ACS_txBufferRead);
1290:Generated_Source\PSoC5/UART_ACS.c ****         }
1291:Generated_Source\PSoC5/UART_ACS.c ****         else
1292:Generated_Source\PSoC5/UART_ACS.c ****         {
1293:Generated_Source\PSoC5/UART_ACS.c ****             size = (UART_ACS_TX_BUFFER_SIZE - UART_ACS_txBufferRead) +
1294:Generated_Source\PSoC5/UART_ACS.c ****                     UART_ACS_txBufferWrite;
1295:Generated_Source\PSoC5/UART_ACS.c ****         }
1296:Generated_Source\PSoC5/UART_ACS.c **** 
1297:Generated_Source\PSoC5/UART_ACS.c ****         UART_ACS_EnableTxInt();
1298:Generated_Source\PSoC5/UART_ACS.c **** 
1299:Generated_Source\PSoC5/UART_ACS.c ****     #else
1300:Generated_Source\PSoC5/UART_ACS.c **** 
1301:Generated_Source\PSoC5/UART_ACS.c ****         size = UART_ACS_TXSTATUS_REG;
 1041              		.loc 1 1301 0
 1042 0000 054B     		ldr	r3, .L115
 1043 0002 1878     		ldrb	r0, [r3]	@ zero_extendqisi2
 1044 0004 C0B2     		uxtb	r0, r0
 1045              	.LVL61:
1302:Generated_Source\PSoC5/UART_ACS.c **** 
1303:Generated_Source\PSoC5/UART_ACS.c ****         /* Is the fifo is full. */
1304:Generated_Source\PSoC5/UART_ACS.c ****         if((size & UART_ACS_TX_STS_FIFO_FULL) != 0u)
 1046              		.loc 1 1304 0
 1047 0006 8306     		lsls	r3, r0, #26
1305:Generated_Source\PSoC5/UART_ACS.c ****         {
1306:Generated_Source\PSoC5/UART_ACS.c ****             size = UART_ACS_FIFO_LENGTH;
1307:Generated_Source\PSoC5/UART_ACS.c ****         }
1308:Generated_Source\PSoC5/UART_ACS.c ****         else if((size & UART_ACS_TX_STS_FIFO_EMPTY) != 0u)
 1048              		.loc 1 1308 0
 1049 0008 5ABF     		itte	pl
 1050 000a 80F00200 		eorpl	r0, r0, #2
 1051              	.LVL62:
 1052 000e C0F34000 		ubfxpl	r0, r0, #1, #1
1306:Generated_Source\PSoC5/UART_ACS.c ****         }
 1053              		.loc 1 1306 0
 1054 0012 0420     		movmi	r0, #4
 1055              	.LVL63:
1309:Generated_Source\PSoC5/UART_ACS.c ****         {
1310:Generated_Source\PSoC5/UART_ACS.c ****             size = 0u;
1311:Generated_Source\PSoC5/UART_ACS.c ****         }
1312:Generated_Source\PSoC5/UART_ACS.c ****         else
1313:Generated_Source\PSoC5/UART_ACS.c ****         {
1314:Generated_Source\PSoC5/UART_ACS.c ****             /* We only know there is data in the fifo. */
1315:Generated_Source\PSoC5/UART_ACS.c ****             size = 1u;
ARM GAS  C:\Users\yqh\AppData\Local\Temp\ccOHgKzc.s 			page 43


1316:Generated_Source\PSoC5/UART_ACS.c ****         }
1317:Generated_Source\PSoC5/UART_ACS.c **** 
1318:Generated_Source\PSoC5/UART_ACS.c ****     #endif /* (UART_ACS_TX_INTERRUPT_ENABLED) */
1319:Generated_Source\PSoC5/UART_ACS.c **** 
1320:Generated_Source\PSoC5/UART_ACS.c ****     return(size);
1321:Generated_Source\PSoC5/UART_ACS.c ****     }
 1056              		.loc 1 1321 0
 1057 0014 7047     		bx	lr
 1058              	.L116:
 1059 0016 00BF     		.align	2
 1060              	.L115:
 1061 0018 6A650040 		.word	1073767786
 1062              		.cfi_endproc
 1063              	.LFE23:
 1064              		.size	UART_ACS_GetTxBufferSize, .-UART_ACS_GetTxBufferSize
 1065              		.section	.text.UART_ACS_ClearTxBuffer,"ax",%progbits
 1066              		.align	1
 1067              		.global	UART_ACS_ClearTxBuffer
 1068              		.thumb
 1069              		.thumb_func
 1070              		.type	UART_ACS_ClearTxBuffer, %function
 1071              	UART_ACS_ClearTxBuffer:
 1072              	.LFB24:
1322:Generated_Source\PSoC5/UART_ACS.c **** 
1323:Generated_Source\PSoC5/UART_ACS.c **** 
1324:Generated_Source\PSoC5/UART_ACS.c ****     /*******************************************************************************
1325:Generated_Source\PSoC5/UART_ACS.c ****     * Function Name: UART_ACS_ClearTxBuffer
1326:Generated_Source\PSoC5/UART_ACS.c ****     ********************************************************************************
1327:Generated_Source\PSoC5/UART_ACS.c ****     *
1328:Generated_Source\PSoC5/UART_ACS.c ****     * Summary:
1329:Generated_Source\PSoC5/UART_ACS.c ****     *  Clears all data from the TX buffer and hardware TX FIFO.
1330:Generated_Source\PSoC5/UART_ACS.c ****     *
1331:Generated_Source\PSoC5/UART_ACS.c ****     * Parameters:
1332:Generated_Source\PSoC5/UART_ACS.c ****     *  None.
1333:Generated_Source\PSoC5/UART_ACS.c ****     *
1334:Generated_Source\PSoC5/UART_ACS.c ****     * Return:
1335:Generated_Source\PSoC5/UART_ACS.c ****     *  None.
1336:Generated_Source\PSoC5/UART_ACS.c ****     *
1337:Generated_Source\PSoC5/UART_ACS.c ****     * Global Variables:
1338:Generated_Source\PSoC5/UART_ACS.c ****     *  UART_ACS_txBufferWrite - cleared to zero.
1339:Generated_Source\PSoC5/UART_ACS.c ****     *  UART_ACS_txBufferRead - cleared to zero.
1340:Generated_Source\PSoC5/UART_ACS.c ****     *
1341:Generated_Source\PSoC5/UART_ACS.c ****     * Reentrant:
1342:Generated_Source\PSoC5/UART_ACS.c ****     *  No.
1343:Generated_Source\PSoC5/UART_ACS.c ****     *
1344:Generated_Source\PSoC5/UART_ACS.c ****     * Theory:
1345:Generated_Source\PSoC5/UART_ACS.c ****     *  Setting the pointers to zero makes the system believe there is no data to
1346:Generated_Source\PSoC5/UART_ACS.c ****     *  read and writing will resume at address 0 overwriting any data that may have
1347:Generated_Source\PSoC5/UART_ACS.c ****     *  remained in the RAM.
1348:Generated_Source\PSoC5/UART_ACS.c ****     *
1349:Generated_Source\PSoC5/UART_ACS.c ****     * Side Effects:
1350:Generated_Source\PSoC5/UART_ACS.c ****     *  Data waiting in the transmit buffer is not sent; a byte that is currently
1351:Generated_Source\PSoC5/UART_ACS.c ****     *  transmitting finishes transmitting.
1352:Generated_Source\PSoC5/UART_ACS.c ****     *
1353:Generated_Source\PSoC5/UART_ACS.c ****     *******************************************************************************/
1354:Generated_Source\PSoC5/UART_ACS.c ****     void UART_ACS_ClearTxBuffer(void) 
1355:Generated_Source\PSoC5/UART_ACS.c ****     {
ARM GAS  C:\Users\yqh\AppData\Local\Temp\ccOHgKzc.s 			page 44


 1073              		.loc 1 1355 0
 1074              		.cfi_startproc
 1075              		@ args = 0, pretend = 0, frame = 0
 1076              		@ frame_needed = 0, uses_anonymous_args = 0
 1077 0000 08B5     		push	{r3, lr}
 1078              		.cfi_def_cfa_offset 8
 1079              		.cfi_offset 3, -8
 1080              		.cfi_offset 14, -4
1356:Generated_Source\PSoC5/UART_ACS.c ****         uint8 enableInterrupts;
1357:Generated_Source\PSoC5/UART_ACS.c **** 
1358:Generated_Source\PSoC5/UART_ACS.c ****         enableInterrupts = CyEnterCriticalSection();
 1081              		.loc 1 1358 0
 1082 0002 FFF7FEFF 		bl	CyEnterCriticalSection
 1083              	.LVL64:
1359:Generated_Source\PSoC5/UART_ACS.c ****         /* Clear the HW FIFO */
1360:Generated_Source\PSoC5/UART_ACS.c ****         UART_ACS_TXDATA_AUX_CTL_REG |= (uint8)  UART_ACS_TX_FIFO_CLR;
 1084              		.loc 1 1360 0
 1085 0006 064B     		ldr	r3, .L118
 1086 0008 1A78     		ldrb	r2, [r3]	@ zero_extendqisi2
 1087 000a 42F00202 		orr	r2, r2, #2
 1088 000e 1A70     		strb	r2, [r3]
1361:Generated_Source\PSoC5/UART_ACS.c ****         UART_ACS_TXDATA_AUX_CTL_REG &= (uint8) ~UART_ACS_TX_FIFO_CLR;
 1089              		.loc 1 1361 0
 1090 0010 1A78     		ldrb	r2, [r3]	@ zero_extendqisi2
 1091 0012 02F0FD02 		and	r2, r2, #253
 1092 0016 1A70     		strb	r2, [r3]
1362:Generated_Source\PSoC5/UART_ACS.c ****         CyExitCriticalSection(enableInterrupts);
1363:Generated_Source\PSoC5/UART_ACS.c **** 
1364:Generated_Source\PSoC5/UART_ACS.c ****     #if (UART_ACS_TX_INTERRUPT_ENABLED)
1365:Generated_Source\PSoC5/UART_ACS.c **** 
1366:Generated_Source\PSoC5/UART_ACS.c ****         /* Protect variables that could change on interrupt. */
1367:Generated_Source\PSoC5/UART_ACS.c ****         UART_ACS_DisableTxInt();
1368:Generated_Source\PSoC5/UART_ACS.c **** 
1369:Generated_Source\PSoC5/UART_ACS.c ****         UART_ACS_txBufferRead = 0u;
1370:Generated_Source\PSoC5/UART_ACS.c ****         UART_ACS_txBufferWrite = 0u;
1371:Generated_Source\PSoC5/UART_ACS.c **** 
1372:Generated_Source\PSoC5/UART_ACS.c ****         /* Enable Tx interrupt. */
1373:Generated_Source\PSoC5/UART_ACS.c ****         UART_ACS_EnableTxInt();
1374:Generated_Source\PSoC5/UART_ACS.c **** 
1375:Generated_Source\PSoC5/UART_ACS.c ****     #endif /* (UART_ACS_TX_INTERRUPT_ENABLED) */
1376:Generated_Source\PSoC5/UART_ACS.c ****     }
 1093              		.loc 1 1376 0
 1094 0018 BDE80840 		pop	{r3, lr}
 1095              		.cfi_restore 14
 1096              		.cfi_restore 3
 1097              		.cfi_def_cfa_offset 0
1362:Generated_Source\PSoC5/UART_ACS.c ****         CyExitCriticalSection(enableInterrupts);
 1098              		.loc 1 1362 0
 1099 001c FFF7FEBF 		b	CyExitCriticalSection
 1100              	.LVL65:
 1101              	.L119:
 1102              		.align	2
 1103              	.L118:
 1104 0020 99640040 		.word	1073767577
 1105              		.cfi_endproc
 1106              	.LFE24:
 1107              		.size	UART_ACS_ClearTxBuffer, .-UART_ACS_ClearTxBuffer
ARM GAS  C:\Users\yqh\AppData\Local\Temp\ccOHgKzc.s 			page 45


 1108              		.section	.text.UART_ACS_SendBreak,"ax",%progbits
 1109              		.align	1
 1110              		.global	UART_ACS_SendBreak
 1111              		.thumb
 1112              		.thumb_func
 1113              		.type	UART_ACS_SendBreak, %function
 1114              	UART_ACS_SendBreak:
 1115              	.LFB25:
1377:Generated_Source\PSoC5/UART_ACS.c **** 
1378:Generated_Source\PSoC5/UART_ACS.c **** 
1379:Generated_Source\PSoC5/UART_ACS.c ****     /*******************************************************************************
1380:Generated_Source\PSoC5/UART_ACS.c ****     * Function Name: UART_ACS_SendBreak
1381:Generated_Source\PSoC5/UART_ACS.c ****     ********************************************************************************
1382:Generated_Source\PSoC5/UART_ACS.c ****     *
1383:Generated_Source\PSoC5/UART_ACS.c ****     * Summary:
1384:Generated_Source\PSoC5/UART_ACS.c ****     *  Transmits a break signal on the bus.
1385:Generated_Source\PSoC5/UART_ACS.c ****     *
1386:Generated_Source\PSoC5/UART_ACS.c ****     * Parameters:
1387:Generated_Source\PSoC5/UART_ACS.c ****     *  uint8 retMode:  Send Break return mode. See the following table for options.
1388:Generated_Source\PSoC5/UART_ACS.c ****     *   UART_ACS_SEND_BREAK - Initialize registers for break, send the Break
1389:Generated_Source\PSoC5/UART_ACS.c ****     *       signal and return immediately.
1390:Generated_Source\PSoC5/UART_ACS.c ****     *   UART_ACS_WAIT_FOR_COMPLETE_REINIT - Wait until break transmission is
1391:Generated_Source\PSoC5/UART_ACS.c ****     *       complete, reinitialize registers to normal transmission mode then return
1392:Generated_Source\PSoC5/UART_ACS.c ****     *   UART_ACS_REINIT - Reinitialize registers to normal transmission mode
1393:Generated_Source\PSoC5/UART_ACS.c ****     *       then return.
1394:Generated_Source\PSoC5/UART_ACS.c ****     *   UART_ACS_SEND_WAIT_REINIT - Performs both options: 
1395:Generated_Source\PSoC5/UART_ACS.c ****     *      UART_ACS_SEND_BREAK and UART_ACS_WAIT_FOR_COMPLETE_REINIT.
1396:Generated_Source\PSoC5/UART_ACS.c ****     *      This option is recommended for most cases.
1397:Generated_Source\PSoC5/UART_ACS.c ****     *
1398:Generated_Source\PSoC5/UART_ACS.c ****     * Return:
1399:Generated_Source\PSoC5/UART_ACS.c ****     *  None.
1400:Generated_Source\PSoC5/UART_ACS.c ****     *
1401:Generated_Source\PSoC5/UART_ACS.c ****     * Global Variables:
1402:Generated_Source\PSoC5/UART_ACS.c ****     *  UART_ACS_initVar - checked to identify that the component has been
1403:Generated_Source\PSoC5/UART_ACS.c ****     *     initialized.
1404:Generated_Source\PSoC5/UART_ACS.c ****     *  txPeriod - static variable, used for keeping TX period configuration.
1405:Generated_Source\PSoC5/UART_ACS.c ****     *
1406:Generated_Source\PSoC5/UART_ACS.c ****     * Reentrant:
1407:Generated_Source\PSoC5/UART_ACS.c ****     *  No.
1408:Generated_Source\PSoC5/UART_ACS.c ****     *
1409:Generated_Source\PSoC5/UART_ACS.c ****     * Theory:
1410:Generated_Source\PSoC5/UART_ACS.c ****     *  SendBreak function initializes registers to send 13-bit break signal. It is
1411:Generated_Source\PSoC5/UART_ACS.c ****     *  important to return the registers configuration to normal for continue 8-bit
1412:Generated_Source\PSoC5/UART_ACS.c ****     *  operation.
1413:Generated_Source\PSoC5/UART_ACS.c ****     *  There are 3 variants for this API usage:
1414:Generated_Source\PSoC5/UART_ACS.c ****     *  1) SendBreak(3) - function will send the Break signal and take care on the
1415:Generated_Source\PSoC5/UART_ACS.c ****     *     configuration returning. Function will block CPU until transmission
1416:Generated_Source\PSoC5/UART_ACS.c ****     *     complete.
1417:Generated_Source\PSoC5/UART_ACS.c ****     *  2) User may want to use blocking time if UART configured to the low speed
1418:Generated_Source\PSoC5/UART_ACS.c ****     *     operation
1419:Generated_Source\PSoC5/UART_ACS.c ****     *     Example for this case:
1420:Generated_Source\PSoC5/UART_ACS.c ****     *     SendBreak(0);     - initialize Break signal transmission
1421:Generated_Source\PSoC5/UART_ACS.c ****     *         Add your code here to use CPU time
1422:Generated_Source\PSoC5/UART_ACS.c ****     *     SendBreak(1);     - complete Break operation
1423:Generated_Source\PSoC5/UART_ACS.c ****     *  3) Same to 2) but user may want to initialize and use the interrupt to
1424:Generated_Source\PSoC5/UART_ACS.c ****     *     complete break operation.
1425:Generated_Source\PSoC5/UART_ACS.c ****     *     Example for this case:
ARM GAS  C:\Users\yqh\AppData\Local\Temp\ccOHgKzc.s 			page 46


1426:Generated_Source\PSoC5/UART_ACS.c ****     *     Initialize TX interrupt with "TX - On TX Complete" parameter
1427:Generated_Source\PSoC5/UART_ACS.c ****     *     SendBreak(0);     - initialize Break signal transmission
1428:Generated_Source\PSoC5/UART_ACS.c ****     *         Add your code here to use CPU time
1429:Generated_Source\PSoC5/UART_ACS.c ****     *     When interrupt appear with UART_ACS_TX_STS_COMPLETE status:
1430:Generated_Source\PSoC5/UART_ACS.c ****     *     SendBreak(2);     - complete Break operation
1431:Generated_Source\PSoC5/UART_ACS.c ****     *
1432:Generated_Source\PSoC5/UART_ACS.c ****     * Side Effects:
1433:Generated_Source\PSoC5/UART_ACS.c ****     *  The UART_ACS_SendBreak() function initializes registers to send a
1434:Generated_Source\PSoC5/UART_ACS.c ****     *  break signal.
1435:Generated_Source\PSoC5/UART_ACS.c ****     *  Break signal length depends on the break signal bits configuration.
1436:Generated_Source\PSoC5/UART_ACS.c ****     *  The register configuration should be reinitialized before normal 8-bit
1437:Generated_Source\PSoC5/UART_ACS.c ****     *  communication can continue.
1438:Generated_Source\PSoC5/UART_ACS.c ****     *
1439:Generated_Source\PSoC5/UART_ACS.c ****     *******************************************************************************/
1440:Generated_Source\PSoC5/UART_ACS.c ****     void UART_ACS_SendBreak(uint8 retMode) 
1441:Generated_Source\PSoC5/UART_ACS.c ****     {
 1116              		.loc 1 1441 0
 1117              		.cfi_startproc
 1118              		@ args = 0, pretend = 0, frame = 0
 1119              		@ frame_needed = 0, uses_anonymous_args = 0
 1120              		@ link register save eliminated.
 1121              	.LVL66:
1442:Generated_Source\PSoC5/UART_ACS.c **** 
1443:Generated_Source\PSoC5/UART_ACS.c ****         /* If not Initialized then skip this function*/
1444:Generated_Source\PSoC5/UART_ACS.c ****         if(UART_ACS_initVar != 0u)
 1122              		.loc 1 1444 0
 1123 0000 134B     		ldr	r3, .L143
 1124 0002 5B78     		ldrb	r3, [r3, #1]	@ zero_extendqisi2
 1125 0004 1BB3     		cbz	r3, .L120
 1126              	.LBB31:
1445:Generated_Source\PSoC5/UART_ACS.c ****         {
1446:Generated_Source\PSoC5/UART_ACS.c ****             /* Set the Counter to 13-bits and transmit a 00 byte */
1447:Generated_Source\PSoC5/UART_ACS.c ****             /* When that is done then reset the counter value back */
1448:Generated_Source\PSoC5/UART_ACS.c ****             uint8 tmpStat;
1449:Generated_Source\PSoC5/UART_ACS.c **** 
1450:Generated_Source\PSoC5/UART_ACS.c ****         #if(UART_ACS_HD_ENABLED) /* Half Duplex mode*/
1451:Generated_Source\PSoC5/UART_ACS.c **** 
1452:Generated_Source\PSoC5/UART_ACS.c ****             if( (retMode == UART_ACS_SEND_BREAK) ||
 1127              		.loc 1 1452 0
 1128 0006 08B1     		cbz	r0, .L123
 1129              		.loc 1 1452 0 is_stmt 0 discriminator 1
 1130 0008 0328     		cmp	r0, #3
 1131 000a 1ED1     		bne	.L124
 1132              	.L123:
 1133              	.LBB32:
 1134              	.LBB33:
 300:Generated_Source\PSoC5/UART_ACS.c ****     #endif /* (UART_ACS_CONTROL_REG_REMOVED) */
 1135              		.loc 1 300 0 is_stmt 1
 1136 000c 114A     		ldr	r2, .L143+4
 1137 000e 1378     		ldrb	r3, [r2]	@ zero_extendqisi2
 1138              	.LBE33:
 1139              	.LBE32:
1453:Generated_Source\PSoC5/UART_ACS.c ****                 (retMode == UART_ACS_SEND_WAIT_REINIT ) )
1454:Generated_Source\PSoC5/UART_ACS.c ****             {
1455:Generated_Source\PSoC5/UART_ACS.c ****                 /* CTRL_HD_SEND_BREAK - sends break bits in HD mode */
1456:Generated_Source\PSoC5/UART_ACS.c ****                 UART_ACS_WriteControlRegister(UART_ACS_ReadControlRegister() |
 1140              		.loc 1 1456 0
ARM GAS  C:\Users\yqh\AppData\Local\Temp\ccOHgKzc.s 			page 47


 1141 0010 43F00203 		orr	r3, r3, #2
 1142              	.LVL67:
 1143              	.LBB34:
 1144              	.LBB35:
 327:Generated_Source\PSoC5/UART_ACS.c ****     #endif /* (UART_ACS_CONTROL_REG_REMOVED) */
 1145              		.loc 1 327 0
 1146 0014 1370     		strb	r3, [r2]
 1147              	.LBE35:
 1148              	.LBE34:
1457:Generated_Source\PSoC5/UART_ACS.c ****                                                       UART_ACS_CTRL_HD_SEND_BREAK);
1458:Generated_Source\PSoC5/UART_ACS.c ****                 /* Send zeros */
1459:Generated_Source\PSoC5/UART_ACS.c ****                 UART_ACS_TXDATA_REG = 0u;
 1149              		.loc 1 1459 0
 1150 0016 104B     		ldr	r3, .L143+8
 1151              	.LVL68:
 1152 0018 0022     		movs	r2, #0
 1153              	.LVL69:
 1154 001a 1A70     		strb	r2, [r3]
 1155              	.LVL70:
 1156              	.L125:
1460:Generated_Source\PSoC5/UART_ACS.c **** 
1461:Generated_Source\PSoC5/UART_ACS.c ****                 do /* Wait until transmit starts */
1462:Generated_Source\PSoC5/UART_ACS.c ****                 {
1463:Generated_Source\PSoC5/UART_ACS.c ****                     tmpStat = UART_ACS_TXSTATUS_REG;
 1157              		.loc 1 1463 0 discriminator 1
 1158 001c 0F4B     		ldr	r3, .L143+12
 1159 001e 1B78     		ldrb	r3, [r3]	@ zero_extendqisi2
 1160              	.LVL71:
1464:Generated_Source\PSoC5/UART_ACS.c ****                 }
1465:Generated_Source\PSoC5/UART_ACS.c ****                 while((tmpStat & UART_ACS_TX_STS_FIFO_EMPTY) != 0u);
 1161              		.loc 1 1465 0 discriminator 1
 1162 0020 9A07     		lsls	r2, r3, #30
 1163 0022 FBD4     		bmi	.L125
1466:Generated_Source\PSoC5/UART_ACS.c ****             }
1467:Generated_Source\PSoC5/UART_ACS.c **** 
1468:Generated_Source\PSoC5/UART_ACS.c ****             if( (retMode == UART_ACS_WAIT_FOR_COMPLETE_REINIT) ||
 1164              		.loc 1 1468 0
 1165 0024 00F0FD03 		and	r3, r0, #253
 1166              	.LVL72:
 1167 0028 012B     		cmp	r3, #1
 1168              	.L142:
 1169 002a 03D0     		beq	.L129
 1170              	.L130:
1469:Generated_Source\PSoC5/UART_ACS.c ****                 (retMode == UART_ACS_SEND_WAIT_REINIT) )
1470:Generated_Source\PSoC5/UART_ACS.c ****             {
1471:Generated_Source\PSoC5/UART_ACS.c ****                 do /* Wait until transmit complete */
1472:Generated_Source\PSoC5/UART_ACS.c ****                 {
1473:Generated_Source\PSoC5/UART_ACS.c ****                     tmpStat = UART_ACS_TXSTATUS_REG;
1474:Generated_Source\PSoC5/UART_ACS.c ****                 }
1475:Generated_Source\PSoC5/UART_ACS.c ****                 while(((uint8)~tmpStat & UART_ACS_TX_STS_COMPLETE) != 0u);
1476:Generated_Source\PSoC5/UART_ACS.c ****             }
1477:Generated_Source\PSoC5/UART_ACS.c **** 
1478:Generated_Source\PSoC5/UART_ACS.c ****             if( (retMode == UART_ACS_WAIT_FOR_COMPLETE_REINIT) ||
 1171              		.loc 1 1478 0
 1172 002c 0138     		subs	r0, r0, #1
 1173              	.LVL73:
 1174 002e 0228     		cmp	r0, #2
ARM GAS  C:\Users\yqh\AppData\Local\Temp\ccOHgKzc.s 			page 48


 1175 0030 05D9     		bls	.L127
 1176 0032 7047     		bx	lr
 1177              	.LVL74:
 1178              	.L129:
1473:Generated_Source\PSoC5/UART_ACS.c ****                 }
 1179              		.loc 1 1473 0 discriminator 1
 1180 0034 094B     		ldr	r3, .L143+12
 1181 0036 1B78     		ldrb	r3, [r3]	@ zero_extendqisi2
 1182              	.LVL75:
1475:Generated_Source\PSoC5/UART_ACS.c ****             }
 1183              		.loc 1 1475 0 discriminator 1
 1184 0038 DB07     		lsls	r3, r3, #31
 1185              	.LVL76:
 1186 003a FBD5     		bpl	.L129
 1187 003c F6E7     		b	.L130
 1188              	.LVL77:
 1189              	.L127:
 1190              	.LBB36:
 1191              	.LBB37:
 300:Generated_Source\PSoC5/UART_ACS.c ****     #endif /* (UART_ACS_CONTROL_REG_REMOVED) */
 1192              		.loc 1 300 0
 1193 003e 054A     		ldr	r2, .L143+4
 1194 0040 1378     		ldrb	r3, [r2]	@ zero_extendqisi2
 1195              	.LBE37:
 1196              	.LBE36:
1479:Generated_Source\PSoC5/UART_ACS.c ****                 (retMode == UART_ACS_REINIT) ||
1480:Generated_Source\PSoC5/UART_ACS.c ****                 (retMode == UART_ACS_SEND_WAIT_REINIT) )
1481:Generated_Source\PSoC5/UART_ACS.c ****             {
1482:Generated_Source\PSoC5/UART_ACS.c ****                 UART_ACS_WriteControlRegister(UART_ACS_ReadControlRegister() &
 1197              		.loc 1 1482 0
 1198 0042 03F0FD03 		and	r3, r3, #253
 1199              	.LVL78:
 1200              	.LBB38:
 1201              	.LBB39:
 327:Generated_Source\PSoC5/UART_ACS.c ****     #endif /* (UART_ACS_CONTROL_REG_REMOVED) */
 1202              		.loc 1 327 0
 1203 0046 1370     		strb	r3, [r2]
 1204 0048 7047     		bx	lr
 1205              	.LVL79:
 1206              	.L124:
 1207              	.LBE39:
 1208              	.LBE38:
1468:Generated_Source\PSoC5/UART_ACS.c ****                 (retMode == UART_ACS_SEND_WAIT_REINIT) )
 1209              		.loc 1 1468 0
 1210 004a 0128     		cmp	r0, #1
 1211 004c EDE7     		b	.L142
 1212              	.L120:
 1213 004e 7047     		bx	lr
 1214              	.L144:
 1215              		.align	2
 1216              	.L143:
 1217 0050 00000000 		.word	.LANCHOR0
 1218 0054 74650040 		.word	1073767796
 1219 0058 59640040 		.word	1073767513
 1220 005c 6A650040 		.word	1073767786
 1221              	.LBE31:
 1222              		.cfi_endproc
ARM GAS  C:\Users\yqh\AppData\Local\Temp\ccOHgKzc.s 			page 49


 1223              	.LFE25:
 1224              		.size	UART_ACS_SendBreak, .-UART_ACS_SendBreak
 1225              		.section	.text.UART_ACS_SetTxAddressMode,"ax",%progbits
 1226              		.align	1
 1227              		.global	UART_ACS_SetTxAddressMode
 1228              		.thumb
 1229              		.thumb_func
 1230              		.type	UART_ACS_SetTxAddressMode, %function
 1231              	UART_ACS_SetTxAddressMode:
 1232              	.LFB26:
1483:Generated_Source\PSoC5/UART_ACS.c ****                                               (uint8)~UART_ACS_CTRL_HD_SEND_BREAK);
1484:Generated_Source\PSoC5/UART_ACS.c ****             }
1485:Generated_Source\PSoC5/UART_ACS.c **** 
1486:Generated_Source\PSoC5/UART_ACS.c ****         #else /* UART_ACS_HD_ENABLED Full Duplex mode */
1487:Generated_Source\PSoC5/UART_ACS.c **** 
1488:Generated_Source\PSoC5/UART_ACS.c ****             static uint8 txPeriod;
1489:Generated_Source\PSoC5/UART_ACS.c **** 
1490:Generated_Source\PSoC5/UART_ACS.c ****             if( (retMode == UART_ACS_SEND_BREAK) ||
1491:Generated_Source\PSoC5/UART_ACS.c ****                 (retMode == UART_ACS_SEND_WAIT_REINIT) )
1492:Generated_Source\PSoC5/UART_ACS.c ****             {
1493:Generated_Source\PSoC5/UART_ACS.c ****                 /* CTRL_HD_SEND_BREAK - skip to send parity bit at Break signal in Full Duplex mode
1494:Generated_Source\PSoC5/UART_ACS.c ****                 #if( (UART_ACS_PARITY_TYPE != UART_ACS__B_UART__NONE_REVB) || \
1495:Generated_Source\PSoC5/UART_ACS.c ****                                     (UART_ACS_PARITY_TYPE_SW != 0u) )
1496:Generated_Source\PSoC5/UART_ACS.c ****                     UART_ACS_WriteControlRegister(UART_ACS_ReadControlRegister() |
1497:Generated_Source\PSoC5/UART_ACS.c ****                                                           UART_ACS_CTRL_HD_SEND_BREAK);
1498:Generated_Source\PSoC5/UART_ACS.c ****                 #endif /* End UART_ACS_PARITY_TYPE != UART_ACS__B_UART__NONE_REVB  */
1499:Generated_Source\PSoC5/UART_ACS.c **** 
1500:Generated_Source\PSoC5/UART_ACS.c ****                 #if(UART_ACS_TXCLKGEN_DP)
1501:Generated_Source\PSoC5/UART_ACS.c ****                     txPeriod = UART_ACS_TXBITCLKTX_COMPLETE_REG;
1502:Generated_Source\PSoC5/UART_ACS.c ****                     UART_ACS_TXBITCLKTX_COMPLETE_REG = UART_ACS_TXBITCTR_BREAKBITS;
1503:Generated_Source\PSoC5/UART_ACS.c ****                 #else
1504:Generated_Source\PSoC5/UART_ACS.c ****                     txPeriod = UART_ACS_TXBITCTR_PERIOD_REG;
1505:Generated_Source\PSoC5/UART_ACS.c ****                     UART_ACS_TXBITCTR_PERIOD_REG = UART_ACS_TXBITCTR_BREAKBITS8X;
1506:Generated_Source\PSoC5/UART_ACS.c ****                 #endif /* End UART_ACS_TXCLKGEN_DP */
1507:Generated_Source\PSoC5/UART_ACS.c **** 
1508:Generated_Source\PSoC5/UART_ACS.c ****                 /* Send zeros */
1509:Generated_Source\PSoC5/UART_ACS.c ****                 UART_ACS_TXDATA_REG = 0u;
1510:Generated_Source\PSoC5/UART_ACS.c **** 
1511:Generated_Source\PSoC5/UART_ACS.c ****                 do /* Wait until transmit starts */
1512:Generated_Source\PSoC5/UART_ACS.c ****                 {
1513:Generated_Source\PSoC5/UART_ACS.c ****                     tmpStat = UART_ACS_TXSTATUS_REG;
1514:Generated_Source\PSoC5/UART_ACS.c ****                 }
1515:Generated_Source\PSoC5/UART_ACS.c ****                 while((tmpStat & UART_ACS_TX_STS_FIFO_EMPTY) != 0u);
1516:Generated_Source\PSoC5/UART_ACS.c ****             }
1517:Generated_Source\PSoC5/UART_ACS.c **** 
1518:Generated_Source\PSoC5/UART_ACS.c ****             if( (retMode == UART_ACS_WAIT_FOR_COMPLETE_REINIT) ||
1519:Generated_Source\PSoC5/UART_ACS.c ****                 (retMode == UART_ACS_SEND_WAIT_REINIT) )
1520:Generated_Source\PSoC5/UART_ACS.c ****             {
1521:Generated_Source\PSoC5/UART_ACS.c ****                 do /* Wait until transmit complete */
1522:Generated_Source\PSoC5/UART_ACS.c ****                 {
1523:Generated_Source\PSoC5/UART_ACS.c ****                     tmpStat = UART_ACS_TXSTATUS_REG;
1524:Generated_Source\PSoC5/UART_ACS.c ****                 }
1525:Generated_Source\PSoC5/UART_ACS.c ****                 while(((uint8)~tmpStat & UART_ACS_TX_STS_COMPLETE) != 0u);
1526:Generated_Source\PSoC5/UART_ACS.c ****             }
1527:Generated_Source\PSoC5/UART_ACS.c **** 
1528:Generated_Source\PSoC5/UART_ACS.c ****             if( (retMode == UART_ACS_WAIT_FOR_COMPLETE_REINIT) ||
1529:Generated_Source\PSoC5/UART_ACS.c ****                 (retMode == UART_ACS_REINIT) ||
ARM GAS  C:\Users\yqh\AppData\Local\Temp\ccOHgKzc.s 			page 50


1530:Generated_Source\PSoC5/UART_ACS.c ****                 (retMode == UART_ACS_SEND_WAIT_REINIT) )
1531:Generated_Source\PSoC5/UART_ACS.c ****             {
1532:Generated_Source\PSoC5/UART_ACS.c **** 
1533:Generated_Source\PSoC5/UART_ACS.c ****             #if(UART_ACS_TXCLKGEN_DP)
1534:Generated_Source\PSoC5/UART_ACS.c ****                 UART_ACS_TXBITCLKTX_COMPLETE_REG = txPeriod;
1535:Generated_Source\PSoC5/UART_ACS.c ****             #else
1536:Generated_Source\PSoC5/UART_ACS.c ****                 UART_ACS_TXBITCTR_PERIOD_REG = txPeriod;
1537:Generated_Source\PSoC5/UART_ACS.c ****             #endif /* End UART_ACS_TXCLKGEN_DP */
1538:Generated_Source\PSoC5/UART_ACS.c **** 
1539:Generated_Source\PSoC5/UART_ACS.c ****             #if( (UART_ACS_PARITY_TYPE != UART_ACS__B_UART__NONE_REVB) || \
1540:Generated_Source\PSoC5/UART_ACS.c ****                  (UART_ACS_PARITY_TYPE_SW != 0u) )
1541:Generated_Source\PSoC5/UART_ACS.c ****                 UART_ACS_WriteControlRegister(UART_ACS_ReadControlRegister() &
1542:Generated_Source\PSoC5/UART_ACS.c ****                                                       (uint8) ~UART_ACS_CTRL_HD_SEND_BREAK);
1543:Generated_Source\PSoC5/UART_ACS.c ****             #endif /* End UART_ACS_PARITY_TYPE != NONE */
1544:Generated_Source\PSoC5/UART_ACS.c ****             }
1545:Generated_Source\PSoC5/UART_ACS.c ****         #endif    /* End UART_ACS_HD_ENABLED */
1546:Generated_Source\PSoC5/UART_ACS.c ****         }
1547:Generated_Source\PSoC5/UART_ACS.c ****     }
1548:Generated_Source\PSoC5/UART_ACS.c **** 
1549:Generated_Source\PSoC5/UART_ACS.c **** 
1550:Generated_Source\PSoC5/UART_ACS.c ****     /*******************************************************************************
1551:Generated_Source\PSoC5/UART_ACS.c ****     * Function Name: UART_ACS_SetTxAddressMode
1552:Generated_Source\PSoC5/UART_ACS.c ****     ********************************************************************************
1553:Generated_Source\PSoC5/UART_ACS.c ****     *
1554:Generated_Source\PSoC5/UART_ACS.c ****     * Summary:
1555:Generated_Source\PSoC5/UART_ACS.c ****     *  Configures the transmitter to signal the next bytes is address or data.
1556:Generated_Source\PSoC5/UART_ACS.c ****     *
1557:Generated_Source\PSoC5/UART_ACS.c ****     * Parameters:
1558:Generated_Source\PSoC5/UART_ACS.c ****     *  addressMode: 
1559:Generated_Source\PSoC5/UART_ACS.c ****     *       UART_ACS_SET_SPACE - Configure the transmitter to send the next
1560:Generated_Source\PSoC5/UART_ACS.c ****     *                                    byte as a data.
1561:Generated_Source\PSoC5/UART_ACS.c ****     *       UART_ACS_SET_MARK  - Configure the transmitter to send the next
1562:Generated_Source\PSoC5/UART_ACS.c ****     *                                    byte as an address.
1563:Generated_Source\PSoC5/UART_ACS.c ****     *
1564:Generated_Source\PSoC5/UART_ACS.c ****     * Return:
1565:Generated_Source\PSoC5/UART_ACS.c ****     *  None.
1566:Generated_Source\PSoC5/UART_ACS.c ****     *
1567:Generated_Source\PSoC5/UART_ACS.c ****     * Side Effects:
1568:Generated_Source\PSoC5/UART_ACS.c ****     *  This function sets and clears UART_ACS_CTRL_MARK bit in the Control
1569:Generated_Source\PSoC5/UART_ACS.c ****     *  register.
1570:Generated_Source\PSoC5/UART_ACS.c ****     *
1571:Generated_Source\PSoC5/UART_ACS.c ****     *******************************************************************************/
1572:Generated_Source\PSoC5/UART_ACS.c ****     void UART_ACS_SetTxAddressMode(uint8 addressMode) 
1573:Generated_Source\PSoC5/UART_ACS.c ****     {
 1233              		.loc 1 1573 0
 1234              		.cfi_startproc
 1235              		@ args = 0, pretend = 0, frame = 0
 1236              		@ frame_needed = 0, uses_anonymous_args = 0
 1237              		@ link register save eliminated.
 1238              	.LVL80:
 1239 0000 044B     		ldr	r3, .L149
 1240              	.LBB40:
 1241              	.LBB41:
 300:Generated_Source\PSoC5/UART_ACS.c ****     #endif /* (UART_ACS_CONTROL_REG_REMOVED) */
 1242              		.loc 1 300 0
 1243 0002 1A78     		ldrb	r2, [r3]	@ zero_extendqisi2
 1244              	.LBE41:
ARM GAS  C:\Users\yqh\AppData\Local\Temp\ccOHgKzc.s 			page 51


 1245              	.LBE40:
1574:Generated_Source\PSoC5/UART_ACS.c ****         /* Mark/Space sending enable */
1575:Generated_Source\PSoC5/UART_ACS.c ****         if(addressMode != 0u)
 1246              		.loc 1 1575 0
 1247 0004 10B1     		cbz	r0, .L146
1576:Generated_Source\PSoC5/UART_ACS.c ****         {
1577:Generated_Source\PSoC5/UART_ACS.c ****         #if( UART_ACS_CONTROL_REG_REMOVED == 0u )
1578:Generated_Source\PSoC5/UART_ACS.c ****             UART_ACS_WriteControlRegister(UART_ACS_ReadControlRegister() |
 1248              		.loc 1 1578 0
 1249 0006 42F00402 		orr	r2, r2, #4
 1250              	.LVL81:
 1251 000a 01E0     		b	.L148
 1252              	.LVL82:
 1253              	.L146:
1579:Generated_Source\PSoC5/UART_ACS.c ****                                                   UART_ACS_CTRL_MARK);
1580:Generated_Source\PSoC5/UART_ACS.c ****         #endif /* End UART_ACS_CONTROL_REG_REMOVED == 0u */
1581:Generated_Source\PSoC5/UART_ACS.c ****         }
1582:Generated_Source\PSoC5/UART_ACS.c ****         else
1583:Generated_Source\PSoC5/UART_ACS.c ****         {
1584:Generated_Source\PSoC5/UART_ACS.c ****         #if( UART_ACS_CONTROL_REG_REMOVED == 0u )
1585:Generated_Source\PSoC5/UART_ACS.c ****             UART_ACS_WriteControlRegister(UART_ACS_ReadControlRegister() &
 1254              		.loc 1 1585 0
 1255 000c 02F0FB02 		and	r2, r2, #251
 1256              	.L148:
 1257              	.LVL83:
 1258              	.LBB42:
 1259              	.LBB43:
 327:Generated_Source\PSoC5/UART_ACS.c ****     #endif /* (UART_ACS_CONTROL_REG_REMOVED) */
 1260              		.loc 1 327 0
 1261 0010 1A70     		strb	r2, [r3]
 1262 0012 7047     		bx	lr
 1263              	.L150:
 1264              		.align	2
 1265              	.L149:
 1266 0014 74650040 		.word	1073767796
 1267              	.LBE43:
 1268              	.LBE42:
 1269              		.cfi_endproc
 1270              	.LFE26:
 1271              		.size	UART_ACS_SetTxAddressMode, .-UART_ACS_SetTxAddressMode
 1272              		.section	.text.UART_ACS_LoadRxConfig,"ax",%progbits
 1273              		.align	1
 1274              		.global	UART_ACS_LoadRxConfig
 1275              		.thumb
 1276              		.thumb_func
 1277              		.type	UART_ACS_LoadRxConfig, %function
 1278              	UART_ACS_LoadRxConfig:
 1279              	.LFB27:
1586:Generated_Source\PSoC5/UART_ACS.c ****                                                   (uint8) ~UART_ACS_CTRL_MARK);
1587:Generated_Source\PSoC5/UART_ACS.c ****         #endif /* End UART_ACS_CONTROL_REG_REMOVED == 0u */
1588:Generated_Source\PSoC5/UART_ACS.c ****         }
1589:Generated_Source\PSoC5/UART_ACS.c ****     }
1590:Generated_Source\PSoC5/UART_ACS.c **** 
1591:Generated_Source\PSoC5/UART_ACS.c **** #endif  /* EndUART_ACS_TX_ENABLED */
1592:Generated_Source\PSoC5/UART_ACS.c **** 
1593:Generated_Source\PSoC5/UART_ACS.c **** #if(UART_ACS_HD_ENABLED)
1594:Generated_Source\PSoC5/UART_ACS.c **** 
ARM GAS  C:\Users\yqh\AppData\Local\Temp\ccOHgKzc.s 			page 52


1595:Generated_Source\PSoC5/UART_ACS.c **** 
1596:Generated_Source\PSoC5/UART_ACS.c ****     /*******************************************************************************
1597:Generated_Source\PSoC5/UART_ACS.c ****     * Function Name: UART_ACS_LoadRxConfig
1598:Generated_Source\PSoC5/UART_ACS.c ****     ********************************************************************************
1599:Generated_Source\PSoC5/UART_ACS.c ****     *
1600:Generated_Source\PSoC5/UART_ACS.c ****     * Summary:
1601:Generated_Source\PSoC5/UART_ACS.c ****     *  Loads the receiver configuration in half duplex mode. After calling this
1602:Generated_Source\PSoC5/UART_ACS.c ****     *  function, the UART is ready to receive data.
1603:Generated_Source\PSoC5/UART_ACS.c ****     *
1604:Generated_Source\PSoC5/UART_ACS.c ****     * Parameters:
1605:Generated_Source\PSoC5/UART_ACS.c ****     *  None.
1606:Generated_Source\PSoC5/UART_ACS.c ****     *
1607:Generated_Source\PSoC5/UART_ACS.c ****     * Return:
1608:Generated_Source\PSoC5/UART_ACS.c ****     *  None.
1609:Generated_Source\PSoC5/UART_ACS.c ****     *
1610:Generated_Source\PSoC5/UART_ACS.c ****     * Side Effects:
1611:Generated_Source\PSoC5/UART_ACS.c ****     *  Valid only in half duplex mode. You must make sure that the previous
1612:Generated_Source\PSoC5/UART_ACS.c ****     *  transaction is complete and it is safe to unload the transmitter
1613:Generated_Source\PSoC5/UART_ACS.c ****     *  configuration.
1614:Generated_Source\PSoC5/UART_ACS.c ****     *
1615:Generated_Source\PSoC5/UART_ACS.c ****     *******************************************************************************/
1616:Generated_Source\PSoC5/UART_ACS.c ****     void UART_ACS_LoadRxConfig(void) 
1617:Generated_Source\PSoC5/UART_ACS.c ****     {
 1280              		.loc 1 1617 0
 1281              		.cfi_startproc
 1282              		@ args = 0, pretend = 0, frame = 0
 1283              		@ frame_needed = 0, uses_anonymous_args = 0
 1284              		@ link register save eliminated.
 1285              	.LBB44:
 1286              	.LBB45:
 300:Generated_Source\PSoC5/UART_ACS.c ****     #endif /* (UART_ACS_CONTROL_REG_REMOVED) */
 1287              		.loc 1 300 0
 1288 0000 054A     		ldr	r2, .L152
 1289 0002 1378     		ldrb	r3, [r2]	@ zero_extendqisi2
 1290              	.LBE45:
 1291              	.LBE44:
1618:Generated_Source\PSoC5/UART_ACS.c ****         UART_ACS_WriteControlRegister(UART_ACS_ReadControlRegister() &
 1292              		.loc 1 1618 0
 1293 0004 03F0FE03 		and	r3, r3, #254
 1294              	.LVL84:
 1295              	.LBB46:
 1296              	.LBB47:
 327:Generated_Source\PSoC5/UART_ACS.c ****     #endif /* (UART_ACS_CONTROL_REG_REMOVED) */
 1297              		.loc 1 327 0
 1298 0008 1370     		strb	r3, [r2]
 1299              	.LBE47:
 1300              	.LBE46:
1619:Generated_Source\PSoC5/UART_ACS.c ****                                                 (uint8)~UART_ACS_CTRL_HD_SEND);
1620:Generated_Source\PSoC5/UART_ACS.c ****         UART_ACS_RXBITCTR_PERIOD_REG = UART_ACS_HD_RXBITCTR_INIT;
 1301              		.loc 1 1620 0
 1302 000a 044B     		ldr	r3, .L152+4
 1303              	.LVL85:
 1304 000c 7222     		movs	r2, #114
 1305              	.LVL86:
 1306 000e 1A70     		strb	r2, [r3]
 1307              	.LVL87:
 1308              	.LBB48:
ARM GAS  C:\Users\yqh\AppData\Local\Temp\ccOHgKzc.s 			page 53


 1309              	.LBB49:
 361:Generated_Source\PSoC5/UART_ACS.c ****     }
 1310              		.loc 1 361 0
 1311 0010 2022     		movs	r2, #32
 1312 0012 83F80021 		strb	r2, [r3, #256]
 1313 0016 7047     		bx	lr
 1314              	.L153:
 1315              		.align	2
 1316              	.L152:
 1317 0018 74650040 		.word	1073767796
 1318 001c 8A640040 		.word	1073767562
 1319              	.LBE49:
 1320              	.LBE48:
 1321              		.cfi_endproc
 1322              	.LFE27:
 1323              		.size	UART_ACS_LoadRxConfig, .-UART_ACS_LoadRxConfig
 1324              		.section	.text.UART_ACS_LoadTxConfig,"ax",%progbits
 1325              		.align	1
 1326              		.global	UART_ACS_LoadTxConfig
 1327              		.thumb
 1328              		.thumb_func
 1329              		.type	UART_ACS_LoadTxConfig, %function
 1330              	UART_ACS_LoadTxConfig:
 1331              	.LFB28:
1621:Generated_Source\PSoC5/UART_ACS.c **** 
1622:Generated_Source\PSoC5/UART_ACS.c ****     #if (UART_ACS_RX_INTERRUPT_ENABLED)
1623:Generated_Source\PSoC5/UART_ACS.c ****         /* Enable RX interrupt after set RX configuration */
1624:Generated_Source\PSoC5/UART_ACS.c ****         UART_ACS_SetRxInterruptMode(UART_ACS_INIT_RX_INTERRUPTS_MASK);
1625:Generated_Source\PSoC5/UART_ACS.c ****     #endif /* (UART_ACS_RX_INTERRUPT_ENABLED) */
1626:Generated_Source\PSoC5/UART_ACS.c ****     }
1627:Generated_Source\PSoC5/UART_ACS.c **** 
1628:Generated_Source\PSoC5/UART_ACS.c **** 
1629:Generated_Source\PSoC5/UART_ACS.c ****     /*******************************************************************************
1630:Generated_Source\PSoC5/UART_ACS.c ****     * Function Name: UART_ACS_LoadTxConfig
1631:Generated_Source\PSoC5/UART_ACS.c ****     ********************************************************************************
1632:Generated_Source\PSoC5/UART_ACS.c ****     *
1633:Generated_Source\PSoC5/UART_ACS.c ****     * Summary:
1634:Generated_Source\PSoC5/UART_ACS.c ****     *  Loads the transmitter configuration in half duplex mode. After calling this
1635:Generated_Source\PSoC5/UART_ACS.c ****     *  function, the UART is ready to transmit data.
1636:Generated_Source\PSoC5/UART_ACS.c ****     *
1637:Generated_Source\PSoC5/UART_ACS.c ****     * Parameters:
1638:Generated_Source\PSoC5/UART_ACS.c ****     *  None.
1639:Generated_Source\PSoC5/UART_ACS.c ****     *
1640:Generated_Source\PSoC5/UART_ACS.c ****     * Return:
1641:Generated_Source\PSoC5/UART_ACS.c ****     *  None.
1642:Generated_Source\PSoC5/UART_ACS.c ****     *
1643:Generated_Source\PSoC5/UART_ACS.c ****     * Side Effects:
1644:Generated_Source\PSoC5/UART_ACS.c ****     *  Valid only in half duplex mode. You must make sure that the previous
1645:Generated_Source\PSoC5/UART_ACS.c ****     *  transaction is complete and it is safe to unload the receiver configuration.
1646:Generated_Source\PSoC5/UART_ACS.c ****     *
1647:Generated_Source\PSoC5/UART_ACS.c ****     *******************************************************************************/
1648:Generated_Source\PSoC5/UART_ACS.c ****     void UART_ACS_LoadTxConfig(void) 
1649:Generated_Source\PSoC5/UART_ACS.c ****     {
 1332              		.loc 1 1649 0
 1333              		.cfi_startproc
 1334              		@ args = 0, pretend = 0, frame = 0
 1335              		@ frame_needed = 0, uses_anonymous_args = 0
ARM GAS  C:\Users\yqh\AppData\Local\Temp\ccOHgKzc.s 			page 54


 1336              		@ link register save eliminated.
 1337              	.LVL88:
 1338              	.LBB50:
 1339              	.LBB51:
 361:Generated_Source\PSoC5/UART_ACS.c ****     }
 1340              		.loc 1 361 0
 1341 0000 054B     		ldr	r3, .L155
 1342 0002 0022     		movs	r2, #0
 1343 0004 1A70     		strb	r2, [r3]
 1344              	.LBE51:
 1345              	.LBE50:
 1346              	.LBB52:
 1347              	.LBB53:
 300:Generated_Source\PSoC5/UART_ACS.c ****     #endif /* (UART_ACS_CONTROL_REG_REMOVED) */
 1348              		.loc 1 300 0
 1349 0006 054A     		ldr	r2, .L155+4
 1350 0008 1378     		ldrb	r3, [r2]	@ zero_extendqisi2
 1351              	.LBE53:
 1352              	.LBE52:
1650:Generated_Source\PSoC5/UART_ACS.c ****     #if (UART_ACS_RX_INTERRUPT_ENABLED)
1651:Generated_Source\PSoC5/UART_ACS.c ****         /* Disable RX interrupts before set TX configuration */
1652:Generated_Source\PSoC5/UART_ACS.c ****         UART_ACS_SetRxInterruptMode(0u);
1653:Generated_Source\PSoC5/UART_ACS.c ****     #endif /* (UART_ACS_RX_INTERRUPT_ENABLED) */
1654:Generated_Source\PSoC5/UART_ACS.c **** 
1655:Generated_Source\PSoC5/UART_ACS.c ****         UART_ACS_WriteControlRegister(UART_ACS_ReadControlRegister() | UART_ACS_CTRL_HD_SEND);
 1353              		.loc 1 1655 0
 1354 000a 43F00103 		orr	r3, r3, #1
 1355              	.LVL89:
 1356              	.LBB54:
 1357              	.LBB55:
 327:Generated_Source\PSoC5/UART_ACS.c ****     #endif /* (UART_ACS_CONTROL_REG_REMOVED) */
 1358              		.loc 1 327 0
 1359 000e 1370     		strb	r3, [r2]
 1360              	.LBE55:
 1361              	.LBE54:
1656:Generated_Source\PSoC5/UART_ACS.c ****         UART_ACS_RXBITCTR_PERIOD_REG = UART_ACS_HD_TXBITCTR_INIT;
 1362              		.loc 1 1656 0
 1363 0010 034B     		ldr	r3, .L155+8
 1364              	.LVL90:
 1365 0012 6F22     		movs	r2, #111
 1366              	.LVL91:
 1367 0014 1A70     		strb	r2, [r3]
 1368              	.LVL92:
 1369 0016 7047     		bx	lr
 1370              	.L156:
 1371              		.align	2
 1372              	.L155:
 1373 0018 8A650040 		.word	1073767818
 1374 001c 74650040 		.word	1073767796
 1375 0020 8A640040 		.word	1073767562
 1376              		.cfi_endproc
 1377              	.LFE28:
 1378              		.size	UART_ACS_LoadTxConfig, .-UART_ACS_LoadTxConfig
 1379              		.global	UART_ACS_rxBufferOverflow
 1380              		.global	UART_ACS_rxBufferLoopDetect
 1381              		.global	UART_ACS_rxBufferWrite
 1382              		.global	UART_ACS_rxBufferRead
ARM GAS  C:\Users\yqh\AppData\Local\Temp\ccOHgKzc.s 			page 55


 1383              		.comm	UART_ACS_rxBuffer,256,1
 1384              		.global	UART_ACS_errorStatus
 1385              		.global	UART_ACS_initVar
 1386              		.bss
 1387              		.align	1
 1388              		.set	.LANCHOR0,. + 0
 1389              		.type	UART_ACS_errorStatus, %object
 1390              		.size	UART_ACS_errorStatus, 1
 1391              	UART_ACS_errorStatus:
 1392 0000 00       		.space	1
 1393              		.type	UART_ACS_initVar, %object
 1394              		.size	UART_ACS_initVar, 1
 1395              	UART_ACS_initVar:
 1396 0001 00       		.space	1
 1397              		.type	UART_ACS_rxBufferRead, %object
 1398              		.size	UART_ACS_rxBufferRead, 2
 1399              	UART_ACS_rxBufferRead:
 1400 0002 0000     		.space	2
 1401              		.type	UART_ACS_rxBufferWrite, %object
 1402              		.size	UART_ACS_rxBufferWrite, 2
 1403              	UART_ACS_rxBufferWrite:
 1404 0004 0000     		.space	2
 1405              		.type	UART_ACS_rxBufferLoopDetect, %object
 1406              		.size	UART_ACS_rxBufferLoopDetect, 1
 1407              	UART_ACS_rxBufferLoopDetect:
 1408 0006 00       		.space	1
 1409              		.type	UART_ACS_rxBufferOverflow, %object
 1410              		.size	UART_ACS_rxBufferOverflow, 1
 1411              	UART_ACS_rxBufferOverflow:
 1412 0007 00       		.space	1
 1413              		.text
 1414              	.Letext0:
 1415              		.file 2 "Generated_Source\\PSoC5\\cytypes.h"
 1416              		.file 3 "Generated_Source\\PSoC5\\CyLib.h"