ARM GAS  C:\Users\ilya\AppData\Local\Temp\ccUxctiq.s 			page 1


   1              		.syntax unified
   2              		.cpu cortex-m0
   3              		.fpu softvfp
   4              		.eabi_attribute 20, 1
   5              		.eabi_attribute 21, 1
   6              		.eabi_attribute 23, 3
   7              		.eabi_attribute 24, 1
   8              		.eabi_attribute 25, 1
   9              		.eabi_attribute 26, 1
  10              		.eabi_attribute 30, 6
  11              		.eabi_attribute 34, 0
  12              		.eabi_attribute 18, 4
  13              		.thumb
  14              		.syntax unified
  15              		.file	"Comp_ISENSE.c"
  16              		.text
  17              	.Ltext0:
  18              		.cfi_sections	.debug_frame
  19              		.global	Comp_ISENSE_initVar
  20              		.bss
  21              		.type	Comp_ISENSE_initVar, %object
  22              		.size	Comp_ISENSE_initVar, 1
  23              	Comp_ISENSE_initVar:
  24 0000 00       		.space	1
  25 0001 000000   		.align	2
  26              	Comp_ISENSE_internalSpeed:
  27 0004 00000000 		.space	4
  28              		.section	.text.Comp_ISENSE_Init,"ax",%progbits
  29              		.align	2
  30              		.global	Comp_ISENSE_Init
  31              		.code	16
  32              		.thumb_func
  33              		.type	Comp_ISENSE_Init, %function
  34              	Comp_ISENSE_Init:
  35              	.LFB0:
  36              		.file 1 "Generated_Source\\PSoC4\\Comp_ISENSE.c"
   1:Generated_Source\PSoC4/Comp_ISENSE.c **** /*******************************************************************************
   2:Generated_Source\PSoC4/Comp_ISENSE.c **** * File Name: Comp_ISENSE.c
   3:Generated_Source\PSoC4/Comp_ISENSE.c **** * Version 1.20
   4:Generated_Source\PSoC4/Comp_ISENSE.c **** *
   5:Generated_Source\PSoC4/Comp_ISENSE.c **** * Description:
   6:Generated_Source\PSoC4/Comp_ISENSE.c **** *  This file provides the source code to the API for the Comparator component
   7:Generated_Source\PSoC4/Comp_ISENSE.c **** *
   8:Generated_Source\PSoC4/Comp_ISENSE.c **** * Note:
   9:Generated_Source\PSoC4/Comp_ISENSE.c **** *  None
  10:Generated_Source\PSoC4/Comp_ISENSE.c **** *
  11:Generated_Source\PSoC4/Comp_ISENSE.c **** ********************************************************************************
  12:Generated_Source\PSoC4/Comp_ISENSE.c **** * Copyright 2013-2015, Cypress Semiconductor Corporation.  All rights reserved.
  13:Generated_Source\PSoC4/Comp_ISENSE.c **** * You may use this file only in accordance with the license, terms, conditions,
  14:Generated_Source\PSoC4/Comp_ISENSE.c **** * disclaimers, and limitations in the end user license agreement accompanying
  15:Generated_Source\PSoC4/Comp_ISENSE.c **** * the software package with which this file was provided.
  16:Generated_Source\PSoC4/Comp_ISENSE.c **** *******************************************************************************/
  17:Generated_Source\PSoC4/Comp_ISENSE.c **** 
  18:Generated_Source\PSoC4/Comp_ISENSE.c **** #include "Comp_ISENSE.h"
  19:Generated_Source\PSoC4/Comp_ISENSE.c **** 
  20:Generated_Source\PSoC4/Comp_ISENSE.c **** uint8 Comp_ISENSE_initVar = 0u; /* Defines if component was initialized */
  21:Generated_Source\PSoC4/Comp_ISENSE.c **** static uint32 Comp_ISENSE_internalSpeed = 0u; /* Defines component Speed value */
ARM GAS  C:\Users\ilya\AppData\Local\Temp\ccUxctiq.s 			page 2


  22:Generated_Source\PSoC4/Comp_ISENSE.c **** 
  23:Generated_Source\PSoC4/Comp_ISENSE.c **** 
  24:Generated_Source\PSoC4/Comp_ISENSE.c **** /*******************************************************************************
  25:Generated_Source\PSoC4/Comp_ISENSE.c **** * Function Name: Comp_ISENSE_Init
  26:Generated_Source\PSoC4/Comp_ISENSE.c **** ********************************************************************************
  27:Generated_Source\PSoC4/Comp_ISENSE.c **** *
  28:Generated_Source\PSoC4/Comp_ISENSE.c **** * Summary:
  29:Generated_Source\PSoC4/Comp_ISENSE.c **** *  Initializes or restores the component according to the customizer Configure 
  30:Generated_Source\PSoC4/Comp_ISENSE.c **** *  dialog settings. It is not necessary to call Init() because the Start() API 
  31:Generated_Source\PSoC4/Comp_ISENSE.c **** *  calls this function and is the preferred method to begin the component operation.
  32:Generated_Source\PSoC4/Comp_ISENSE.c **** *
  33:Generated_Source\PSoC4/Comp_ISENSE.c **** * Parameters:
  34:Generated_Source\PSoC4/Comp_ISENSE.c **** *  None
  35:Generated_Source\PSoC4/Comp_ISENSE.c **** *
  36:Generated_Source\PSoC4/Comp_ISENSE.c **** * Return:
  37:Generated_Source\PSoC4/Comp_ISENSE.c **** *  None
  38:Generated_Source\PSoC4/Comp_ISENSE.c **** *
  39:Generated_Source\PSoC4/Comp_ISENSE.c **** *******************************************************************************/
  40:Generated_Source\PSoC4/Comp_ISENSE.c **** void Comp_ISENSE_Init(void)
  41:Generated_Source\PSoC4/Comp_ISENSE.c **** {
  37              		.loc 1 41 0
  38              		.cfi_startproc
  39              		@ args = 0, pretend = 0, frame = 8
  40              		@ frame_needed = 1, uses_anonymous_args = 0
  41 0000 90B5     		push	{r4, r7, lr}
  42              		.cfi_def_cfa_offset 12
  43              		.cfi_offset 4, -12
  44              		.cfi_offset 7, -8
  45              		.cfi_offset 14, -4
  46 0002 83B0     		sub	sp, sp, #12
  47              		.cfi_def_cfa_offset 24
  48 0004 00AF     		add	r7, sp, #0
  49              		.cfi_def_cfa_register 7
  42:Generated_Source\PSoC4/Comp_ISENSE.c ****     uint8 enableInterrupts;
  43:Generated_Source\PSoC4/Comp_ISENSE.c ****     
  44:Generated_Source\PSoC4/Comp_ISENSE.c ****     Comp_ISENSE_internalSpeed = Comp_ISENSE_POWER;
  50              		.loc 1 44 0
  51 0006 0E4B     		ldr	r3, .L2
  52 0008 0222     		movs	r2, #2
  53 000a 1A60     		str	r2, [r3]
  45:Generated_Source\PSoC4/Comp_ISENSE.c ****     Comp_ISENSE_CTB_CTRL_REG = Comp_ISENSE_DEFAULT_CTB_CTRL;
  54              		.loc 1 45 0
  55 000c 0D4B     		ldr	r3, .L2+4
  56 000e 8022     		movs	r2, #128
  57 0010 1206     		lsls	r2, r2, #24
  58 0012 1A60     		str	r2, [r3]
  46:Generated_Source\PSoC4/Comp_ISENSE.c ****     Comp_ISENSE_OA_RES_CTRL_REG = Comp_ISENSE_DEFAULT_OA_RES_CTRL;
  59              		.loc 1 46 0
  60 0014 0C4B     		ldr	r3, .L2+8
  61 0016 A822     		movs	r2, #168
  62 0018 5200     		lsls	r2, r2, #1
  63 001a 1A60     		str	r2, [r3]
  47:Generated_Source\PSoC4/Comp_ISENSE.c ****     
  48:Generated_Source\PSoC4/Comp_ISENSE.c ****     enableInterrupts = CyEnterCriticalSection();
  64              		.loc 1 48 0
  65 001c FC1D     		adds	r4, r7, #7
  66 001e FFF7FEFF 		bl	CyEnterCriticalSection
ARM GAS  C:\Users\ilya\AppData\Local\Temp\ccUxctiq.s 			page 3


  67 0022 0300     		movs	r3, r0
  68 0024 2370     		strb	r3, [r4]
  49:Generated_Source\PSoC4/Comp_ISENSE.c ****     Comp_ISENSE_INTR_MASK_REG |= Comp_ISENSE_INTR_MASK_REG_DEFAULT;
  69              		.loc 1 49 0
  70 0026 094B     		ldr	r3, .L2+12
  71 0028 084A     		ldr	r2, .L2+12
  72 002a 1268     		ldr	r2, [r2]
  73 002c 1A60     		str	r2, [r3]
  50:Generated_Source\PSoC4/Comp_ISENSE.c ****     CyExitCriticalSection(enableInterrupts);
  74              		.loc 1 50 0
  75 002e FB1D     		adds	r3, r7, #7
  76 0030 1B78     		ldrb	r3, [r3]
  77 0032 1800     		movs	r0, r3
  78 0034 FFF7FEFF 		bl	CyExitCriticalSection
  51:Generated_Source\PSoC4/Comp_ISENSE.c **** }
  79              		.loc 1 51 0
  80 0038 C046     		nop
  81 003a BD46     		mov	sp, r7
  82 003c 03B0     		add	sp, sp, #12
  83              		@ sp needed
  84 003e 90BD     		pop	{r4, r7, pc}
  85              	.L3:
  86              		.align	2
  87              	.L2:
  88 0040 04000000 		.word	Comp_ISENSE_internalSpeed
  89 0044 00001040 		.word	1074790400
  90 0048 04001040 		.word	1074790404
  91 004c 28001040 		.word	1074790440
  92              		.cfi_endproc
  93              	.LFE0:
  94              		.size	Comp_ISENSE_Init, .-Comp_ISENSE_Init
  95              		.section	.text.Comp_ISENSE_Enable,"ax",%progbits
  96              		.align	2
  97              		.global	Comp_ISENSE_Enable
  98              		.code	16
  99              		.thumb_func
 100              		.type	Comp_ISENSE_Enable, %function
 101              	Comp_ISENSE_Enable:
 102              	.LFB1:
  52:Generated_Source\PSoC4/Comp_ISENSE.c **** 
  53:Generated_Source\PSoC4/Comp_ISENSE.c **** 
  54:Generated_Source\PSoC4/Comp_ISENSE.c **** /*******************************************************************************
  55:Generated_Source\PSoC4/Comp_ISENSE.c **** * Function Name: Comp_ISENSE_Enable
  56:Generated_Source\PSoC4/Comp_ISENSE.c **** ********************************************************************************
  57:Generated_Source\PSoC4/Comp_ISENSE.c **** *
  58:Generated_Source\PSoC4/Comp_ISENSE.c **** * Summary:
  59:Generated_Source\PSoC4/Comp_ISENSE.c **** *  Activates the hardware and begins the component operation. It is not necessary to 
  60:Generated_Source\PSoC4/Comp_ISENSE.c **** *  call Enable() because the Start() API calls this function, which is the 
  61:Generated_Source\PSoC4/Comp_ISENSE.c **** *  preferred method to begin the component operation.
  62:Generated_Source\PSoC4/Comp_ISENSE.c **** *
  63:Generated_Source\PSoC4/Comp_ISENSE.c **** * Parameters:
  64:Generated_Source\PSoC4/Comp_ISENSE.c **** *  None
  65:Generated_Source\PSoC4/Comp_ISENSE.c **** *
  66:Generated_Source\PSoC4/Comp_ISENSE.c **** * Return:
  67:Generated_Source\PSoC4/Comp_ISENSE.c **** *  None
  68:Generated_Source\PSoC4/Comp_ISENSE.c **** *
  69:Generated_Source\PSoC4/Comp_ISENSE.c **** *******************************************************************************/
ARM GAS  C:\Users\ilya\AppData\Local\Temp\ccUxctiq.s 			page 4


  70:Generated_Source\PSoC4/Comp_ISENSE.c **** void Comp_ISENSE_Enable(void)
  71:Generated_Source\PSoC4/Comp_ISENSE.c **** {
 103              		.loc 1 71 0
 104              		.cfi_startproc
 105              		@ args = 0, pretend = 0, frame = 0
 106              		@ frame_needed = 1, uses_anonymous_args = 0
 107 0000 80B5     		push	{r7, lr}
 108              		.cfi_def_cfa_offset 8
 109              		.cfi_offset 7, -8
 110              		.cfi_offset 14, -4
 111 0002 00AF     		add	r7, sp, #0
 112              		.cfi_def_cfa_register 7
  72:Generated_Source\PSoC4/Comp_ISENSE.c ****     Comp_ISENSE_OA_RES_CTRL_REG |= Comp_ISENSE_internalSpeed | \
 113              		.loc 1 72 0
 114 0004 064A     		ldr	r2, .L5
 115 0006 064B     		ldr	r3, .L5
 116 0008 1968     		ldr	r1, [r3]
 117 000a 064B     		ldr	r3, .L5+4
 118 000c 1B68     		ldr	r3, [r3]
 119 000e 0B43     		orrs	r3, r1
 120 0010 8021     		movs	r1, #128
 121 0012 0901     		lsls	r1, r1, #4
 122 0014 0B43     		orrs	r3, r1
 123 0016 1360     		str	r3, [r2]
  73:Generated_Source\PSoC4/Comp_ISENSE.c ****                                         Comp_ISENSE_OA_PUMP_EN;
  74:Generated_Source\PSoC4/Comp_ISENSE.c **** }
 124              		.loc 1 74 0
 125 0018 C046     		nop
 126 001a BD46     		mov	sp, r7
 127              		@ sp needed
 128 001c 80BD     		pop	{r7, pc}
 129              	.L6:
 130 001e C046     		.align	2
 131              	.L5:
 132 0020 04001040 		.word	1074790404
 133 0024 04000000 		.word	Comp_ISENSE_internalSpeed
 134              		.cfi_endproc
 135              	.LFE1:
 136              		.size	Comp_ISENSE_Enable, .-Comp_ISENSE_Enable
 137              		.section	.text.Comp_ISENSE_Start,"ax",%progbits
 138              		.align	2
 139              		.global	Comp_ISENSE_Start
 140              		.code	16
 141              		.thumb_func
 142              		.type	Comp_ISENSE_Start, %function
 143              	Comp_ISENSE_Start:
 144              	.LFB2:
  75:Generated_Source\PSoC4/Comp_ISENSE.c **** 
  76:Generated_Source\PSoC4/Comp_ISENSE.c **** 
  77:Generated_Source\PSoC4/Comp_ISENSE.c **** /*******************************************************************************
  78:Generated_Source\PSoC4/Comp_ISENSE.c **** * Function Name: Comp_ISENSE_Start
  79:Generated_Source\PSoC4/Comp_ISENSE.c **** ********************************************************************************
  80:Generated_Source\PSoC4/Comp_ISENSE.c **** *
  81:Generated_Source\PSoC4/Comp_ISENSE.c **** * Summary:
  82:Generated_Source\PSoC4/Comp_ISENSE.c **** *  Performs all of the required initialization for the component and enables 
  83:Generated_Source\PSoC4/Comp_ISENSE.c **** *  power to the block. The first time the routine is executed, the speed/power 
  84:Generated_Source\PSoC4/Comp_ISENSE.c **** *  level, and hysteresis are set. When called to restart the comparator 
ARM GAS  C:\Users\ilya\AppData\Local\Temp\ccUxctiq.s 			page 5


  85:Generated_Source\PSoC4/Comp_ISENSE.c **** *  following a Stop() call, the current component parameter settings are retained.
  86:Generated_Source\PSoC4/Comp_ISENSE.c **** *
  87:Generated_Source\PSoC4/Comp_ISENSE.c **** * Parameters:
  88:Generated_Source\PSoC4/Comp_ISENSE.c **** *  None
  89:Generated_Source\PSoC4/Comp_ISENSE.c **** *
  90:Generated_Source\PSoC4/Comp_ISENSE.c **** * Return:
  91:Generated_Source\PSoC4/Comp_ISENSE.c **** *  None
  92:Generated_Source\PSoC4/Comp_ISENSE.c **** *
  93:Generated_Source\PSoC4/Comp_ISENSE.c **** * Global variables:
  94:Generated_Source\PSoC4/Comp_ISENSE.c **** *  Comp_ISENSE_initVar: Is modified when this function is called for the
  95:Generated_Source\PSoC4/Comp_ISENSE.c **** *   first time. Is used to ensure that initialization happens only once.
  96:Generated_Source\PSoC4/Comp_ISENSE.c **** *
  97:Generated_Source\PSoC4/Comp_ISENSE.c **** *******************************************************************************/
  98:Generated_Source\PSoC4/Comp_ISENSE.c **** void Comp_ISENSE_Start(void)
  99:Generated_Source\PSoC4/Comp_ISENSE.c **** {
 145              		.loc 1 99 0
 146              		.cfi_startproc
 147              		@ args = 0, pretend = 0, frame = 0
 148              		@ frame_needed = 1, uses_anonymous_args = 0
 149 0000 80B5     		push	{r7, lr}
 150              		.cfi_def_cfa_offset 8
 151              		.cfi_offset 7, -8
 152              		.cfi_offset 14, -4
 153 0002 00AF     		add	r7, sp, #0
 154              		.cfi_def_cfa_register 7
 100:Generated_Source\PSoC4/Comp_ISENSE.c ****     if( 0u == Comp_ISENSE_initVar)
 155              		.loc 1 100 0
 156 0004 064B     		ldr	r3, .L9
 157 0006 1B78     		ldrb	r3, [r3]
 158 0008 002B     		cmp	r3, #0
 159 000a 04D1     		bne	.L8
 101:Generated_Source\PSoC4/Comp_ISENSE.c ****     {
 102:Generated_Source\PSoC4/Comp_ISENSE.c ****         Comp_ISENSE_Init();
 160              		.loc 1 102 0
 161 000c FFF7FEFF 		bl	Comp_ISENSE_Init
 103:Generated_Source\PSoC4/Comp_ISENSE.c ****         Comp_ISENSE_initVar = 1u;
 162              		.loc 1 103 0
 163 0010 034B     		ldr	r3, .L9
 164 0012 0122     		movs	r2, #1
 165 0014 1A70     		strb	r2, [r3]
 166              	.L8:
 104:Generated_Source\PSoC4/Comp_ISENSE.c ****     }
 105:Generated_Source\PSoC4/Comp_ISENSE.c ****     Comp_ISENSE_Enable();
 167              		.loc 1 105 0
 168 0016 FFF7FEFF 		bl	Comp_ISENSE_Enable
 106:Generated_Source\PSoC4/Comp_ISENSE.c **** }
 169              		.loc 1 106 0
 170 001a C046     		nop
 171 001c BD46     		mov	sp, r7
 172              		@ sp needed
 173 001e 80BD     		pop	{r7, pc}
 174              	.L10:
 175              		.align	2
 176              	.L9:
 177 0020 00000000 		.word	Comp_ISENSE_initVar
 178              		.cfi_endproc
 179              	.LFE2:
ARM GAS  C:\Users\ilya\AppData\Local\Temp\ccUxctiq.s 			page 6


 180              		.size	Comp_ISENSE_Start, .-Comp_ISENSE_Start
 181              		.section	.text.Comp_ISENSE_Stop,"ax",%progbits
 182              		.align	2
 183              		.global	Comp_ISENSE_Stop
 184              		.code	16
 185              		.thumb_func
 186              		.type	Comp_ISENSE_Stop, %function
 187              	Comp_ISENSE_Stop:
 188              	.LFB3:
 107:Generated_Source\PSoC4/Comp_ISENSE.c **** 
 108:Generated_Source\PSoC4/Comp_ISENSE.c **** 
 109:Generated_Source\PSoC4/Comp_ISENSE.c **** /*******************************************************************************
 110:Generated_Source\PSoC4/Comp_ISENSE.c **** * Function Name: Comp_ISENSE_Stop
 111:Generated_Source\PSoC4/Comp_ISENSE.c **** ********************************************************************************
 112:Generated_Source\PSoC4/Comp_ISENSE.c **** *
 113:Generated_Source\PSoC4/Comp_ISENSE.c **** * Summary:
 114:Generated_Source\PSoC4/Comp_ISENSE.c **** *  Turns off the comparator block.
 115:Generated_Source\PSoC4/Comp_ISENSE.c **** *
 116:Generated_Source\PSoC4/Comp_ISENSE.c **** * Parameters:
 117:Generated_Source\PSoC4/Comp_ISENSE.c **** *  None
 118:Generated_Source\PSoC4/Comp_ISENSE.c **** *
 119:Generated_Source\PSoC4/Comp_ISENSE.c **** * Return:
 120:Generated_Source\PSoC4/Comp_ISENSE.c **** *  None
 121:Generated_Source\PSoC4/Comp_ISENSE.c **** *
 122:Generated_Source\PSoC4/Comp_ISENSE.c **** * Side Effects:
 123:Generated_Source\PSoC4/Comp_ISENSE.c **** *  Does not affect the comparator speed settings.
 124:Generated_Source\PSoC4/Comp_ISENSE.c **** *
 125:Generated_Source\PSoC4/Comp_ISENSE.c **** *******************************************************************************/
 126:Generated_Source\PSoC4/Comp_ISENSE.c **** void Comp_ISENSE_Stop(void)
 127:Generated_Source\PSoC4/Comp_ISENSE.c **** {
 189              		.loc 1 127 0
 190              		.cfi_startproc
 191              		@ args = 0, pretend = 0, frame = 0
 192              		@ frame_needed = 1, uses_anonymous_args = 0
 193 0000 80B5     		push	{r7, lr}
 194              		.cfi_def_cfa_offset 8
 195              		.cfi_offset 7, -8
 196              		.cfi_offset 14, -4
 197 0002 00AF     		add	r7, sp, #0
 198              		.cfi_def_cfa_register 7
 128:Generated_Source\PSoC4/Comp_ISENSE.c ****     Comp_ISENSE_OA_CTRL_REG &= ((uint32)~(Comp_ISENSE_OA_PWR_MODE_MASK | \
 199              		.loc 1 128 0
 200 0004 044B     		ldr	r3, .L12
 201 0006 044A     		ldr	r2, .L12
 202 0008 1268     		ldr	r2, [r2]
 203 000a 0449     		ldr	r1, .L12+4
 204 000c 0A40     		ands	r2, r1
 205 000e 1A60     		str	r2, [r3]
 129:Generated_Source\PSoC4/Comp_ISENSE.c ****                                                Comp_ISENSE_OA_PUMP_EN));
 130:Generated_Source\PSoC4/Comp_ISENSE.c **** }
 206              		.loc 1 130 0
 207 0010 C046     		nop
 208 0012 BD46     		mov	sp, r7
 209              		@ sp needed
 210 0014 80BD     		pop	{r7, pc}
 211              	.L13:
 212 0016 C046     		.align	2
ARM GAS  C:\Users\ilya\AppData\Local\Temp\ccUxctiq.s 			page 7


 213              	.L12:
 214 0018 04001040 		.word	1074790404
 215 001c FCF7FFFF 		.word	-2052
 216              		.cfi_endproc
 217              	.LFE3:
 218              		.size	Comp_ISENSE_Stop, .-Comp_ISENSE_Stop
 219              		.section	.text.Comp_ISENSE_SetSpeed,"ax",%progbits
 220              		.align	2
 221              		.global	Comp_ISENSE_SetSpeed
 222              		.code	16
 223              		.thumb_func
 224              		.type	Comp_ISENSE_SetSpeed, %function
 225              	Comp_ISENSE_SetSpeed:
 226              	.LFB4:
 131:Generated_Source\PSoC4/Comp_ISENSE.c **** 
 132:Generated_Source\PSoC4/Comp_ISENSE.c **** 
 133:Generated_Source\PSoC4/Comp_ISENSE.c **** /*******************************************************************************
 134:Generated_Source\PSoC4/Comp_ISENSE.c **** * Function Name: Comp_ISENSE_SetSpeed
 135:Generated_Source\PSoC4/Comp_ISENSE.c **** ********************************************************************************
 136:Generated_Source\PSoC4/Comp_ISENSE.c **** *
 137:Generated_Source\PSoC4/Comp_ISENSE.c **** * Summary:
 138:Generated_Source\PSoC4/Comp_ISENSE.c **** *  Sets the speed to one of three settings: slow, medium, or fast.
 139:Generated_Source\PSoC4/Comp_ISENSE.c **** *
 140:Generated_Source\PSoC4/Comp_ISENSE.c **** * Parameters:
 141:Generated_Source\PSoC4/Comp_ISENSE.c **** *  speed: Enumerated speed mode value.
 142:Generated_Source\PSoC4/Comp_ISENSE.c **** *   Comp_ISENSE_SLOW_SPEED  - Slow speed
 143:Generated_Source\PSoC4/Comp_ISENSE.c **** *   Comp_ISENSE_MED_SPEED   - Medium speed
 144:Generated_Source\PSoC4/Comp_ISENSE.c **** *   Comp_ISENSE_FAST_SPEED  - Fast speed
 145:Generated_Source\PSoC4/Comp_ISENSE.c **** *
 146:Generated_Source\PSoC4/Comp_ISENSE.c **** * Return:
 147:Generated_Source\PSoC4/Comp_ISENSE.c **** *  None
 148:Generated_Source\PSoC4/Comp_ISENSE.c **** *
 149:Generated_Source\PSoC4/Comp_ISENSE.c **** *******************************************************************************/
 150:Generated_Source\PSoC4/Comp_ISENSE.c **** void Comp_ISENSE_SetSpeed(uint32 speed)
 151:Generated_Source\PSoC4/Comp_ISENSE.c **** {
 227              		.loc 1 151 0
 228              		.cfi_startproc
 229              		@ args = 0, pretend = 0, frame = 16
 230              		@ frame_needed = 1, uses_anonymous_args = 0
 231 0000 80B5     		push	{r7, lr}
 232              		.cfi_def_cfa_offset 8
 233              		.cfi_offset 7, -8
 234              		.cfi_offset 14, -4
 235 0002 84B0     		sub	sp, sp, #16
 236              		.cfi_def_cfa_offset 24
 237 0004 00AF     		add	r7, sp, #0
 238              		.cfi_def_cfa_register 7
 239 0006 7860     		str	r0, [r7, #4]
 152:Generated_Source\PSoC4/Comp_ISENSE.c ****     uint32 tmp;
 153:Generated_Source\PSoC4/Comp_ISENSE.c ****     
 154:Generated_Source\PSoC4/Comp_ISENSE.c ****     Comp_ISENSE_internalSpeed = Comp_ISENSE_GET_OA_PWR_MODE(speed);
 240              		.loc 1 154 0
 241 0008 7B68     		ldr	r3, [r7, #4]
 242 000a 0322     		movs	r2, #3
 243 000c 1A40     		ands	r2, r3
 244 000e 084B     		ldr	r3, .L15
 245 0010 1A60     		str	r2, [r3]
ARM GAS  C:\Users\ilya\AppData\Local\Temp\ccUxctiq.s 			page 8


 155:Generated_Source\PSoC4/Comp_ISENSE.c ****     tmp = Comp_ISENSE_OA_RES_CTRL_REG & \
 246              		.loc 1 155 0
 247 0012 084B     		ldr	r3, .L15+4
 248 0014 1B68     		ldr	r3, [r3]
 249 0016 0322     		movs	r2, #3
 250 0018 9343     		bics	r3, r2
 251 001a FB60     		str	r3, [r7, #12]
 156:Generated_Source\PSoC4/Comp_ISENSE.c ****            (uint32)~Comp_ISENSE_OA_PWR_MODE_MASK;
 157:Generated_Source\PSoC4/Comp_ISENSE.c ****     Comp_ISENSE_OA_RES_CTRL_REG = tmp | Comp_ISENSE_internalSpeed;
 252              		.loc 1 157 0
 253 001c 054A     		ldr	r2, .L15+4
 254 001e 044B     		ldr	r3, .L15
 255 0020 1968     		ldr	r1, [r3]
 256 0022 FB68     		ldr	r3, [r7, #12]
 257 0024 0B43     		orrs	r3, r1
 258 0026 1360     		str	r3, [r2]
 158:Generated_Source\PSoC4/Comp_ISENSE.c **** }
 259              		.loc 1 158 0
 260 0028 C046     		nop
 261 002a BD46     		mov	sp, r7
 262 002c 04B0     		add	sp, sp, #16
 263              		@ sp needed
 264 002e 80BD     		pop	{r7, pc}
 265              	.L16:
 266              		.align	2
 267              	.L15:
 268 0030 04000000 		.word	Comp_ISENSE_internalSpeed
 269 0034 04001040 		.word	1074790404
 270              		.cfi_endproc
 271              	.LFE4:
 272              		.size	Comp_ISENSE_SetSpeed, .-Comp_ISENSE_SetSpeed
 273              		.section	.text.Comp_ISENSE_ZeroCal,"ax",%progbits
 274              		.align	2
 275              		.global	Comp_ISENSE_ZeroCal
 276              		.code	16
 277              		.thumb_func
 278              		.type	Comp_ISENSE_ZeroCal, %function
 279              	Comp_ISENSE_ZeroCal:
 280              	.LFB5:
 159:Generated_Source\PSoC4/Comp_ISENSE.c **** 
 160:Generated_Source\PSoC4/Comp_ISENSE.c **** 
 161:Generated_Source\PSoC4/Comp_ISENSE.c **** /*******************************************************************************
 162:Generated_Source\PSoC4/Comp_ISENSE.c **** * Function Name: Comp_ISENSE_ZeroCal
 163:Generated_Source\PSoC4/Comp_ISENSE.c **** ********************************************************************************
 164:Generated_Source\PSoC4/Comp_ISENSE.c **** *
 165:Generated_Source\PSoC4/Comp_ISENSE.c **** * Summary:
 166:Generated_Source\PSoC4/Comp_ISENSE.c **** *  Performs custom calibration of the input offset to minimize the error for a 
 167:Generated_Source\PSoC4/Comp_ISENSE.c **** *  specific set of conditions: the comparator reference voltage, supply voltage, 
 168:Generated_Source\PSoC4/Comp_ISENSE.c **** *  and operating temperature. A reference voltage in the range at which the 
 169:Generated_Source\PSoC4/Comp_ISENSE.c **** *  comparator will be used must be applied to the Negative and Positive inputs 
 170:Generated_Source\PSoC4/Comp_ISENSE.c **** *  of the comparator while the offset calibration is performed. This can be done 
 171:Generated_Source\PSoC4/Comp_ISENSE.c **** *  external to the device or by using an internal analog mux on the positive input 
 172:Generated_Source\PSoC4/Comp_ISENSE.c **** *  that selects between the positive input signal for normal operation and the 
 173:Generated_Source\PSoC4/Comp_ISENSE.c **** *  negative input signal for calibration.
 174:Generated_Source\PSoC4/Comp_ISENSE.c **** *
 175:Generated_Source\PSoC4/Comp_ISENSE.c **** * Parameters:
 176:Generated_Source\PSoC4/Comp_ISENSE.c **** *  None
ARM GAS  C:\Users\ilya\AppData\Local\Temp\ccUxctiq.s 			page 9


 177:Generated_Source\PSoC4/Comp_ISENSE.c **** *
 178:Generated_Source\PSoC4/Comp_ISENSE.c **** * Return:
 179:Generated_Source\PSoC4/Comp_ISENSE.c **** *  (uint32): The value from the comparator trim register after the offset 
 180:Generated_Source\PSoC4/Comp_ISENSE.c **** *  calibration is complete. This value has the same format as the input parameter 
 181:Generated_Source\PSoC4/Comp_ISENSE.c **** *  for the LoadTrim() API routine.
 182:Generated_Source\PSoC4/Comp_ISENSE.c **** *
 183:Generated_Source\PSoC4/Comp_ISENSE.c **** *
 184:Generated_Source\PSoC4/Comp_ISENSE.c **** * Side Effects:
 185:Generated_Source\PSoC4/Comp_ISENSE.c **** *  During the calibration procedure, the comparator output may behave erratically. 
 186:Generated_Source\PSoC4/Comp_ISENSE.c **** *  The comparator output should be ignored during calibration.
 187:Generated_Source\PSoC4/Comp_ISENSE.c **** *
 188:Generated_Source\PSoC4/Comp_ISENSE.c **** *******************************************************************************/
 189:Generated_Source\PSoC4/Comp_ISENSE.c **** uint32 Comp_ISENSE_ZeroCal(void)
 190:Generated_Source\PSoC4/Comp_ISENSE.c **** {
 281              		.loc 1 190 0
 282              		.cfi_startproc
 283              		@ args = 0, pretend = 0, frame = 8
 284              		@ frame_needed = 1, uses_anonymous_args = 0
 285 0000 80B5     		push	{r7, lr}
 286              		.cfi_def_cfa_offset 8
 287              		.cfi_offset 7, -8
 288              		.cfi_offset 14, -4
 289 0002 82B0     		sub	sp, sp, #8
 290              		.cfi_def_cfa_offset 16
 291 0004 00AF     		add	r7, sp, #0
 292              		.cfi_def_cfa_register 7
 191:Generated_Source\PSoC4/Comp_ISENSE.c ****     uint32 cmpOut;
 192:Generated_Source\PSoC4/Comp_ISENSE.c ****     uint32 i;
 193:Generated_Source\PSoC4/Comp_ISENSE.c ****     
 194:Generated_Source\PSoC4/Comp_ISENSE.c ****     /* Clear trim registers before trimming */
 195:Generated_Source\PSoC4/Comp_ISENSE.c ****     Comp_ISENSE_OA_OFFSET_TRIM_REG       = 0u;
 293              		.loc 1 195 0
 294 0006 184B     		ldr	r3, .L25
 295 0008 0022     		movs	r2, #0
 296 000a 1A60     		str	r2, [r3]
 196:Generated_Source\PSoC4/Comp_ISENSE.c ****     Comp_ISENSE_OA_SLOPE_OFFSET_TRIM_REG = 0u;
 297              		.loc 1 196 0
 298 000c 174B     		ldr	r3, .L25+4
 299 000e 0022     		movs	r2, #0
 300 0010 1A60     		str	r2, [r3]
 197:Generated_Source\PSoC4/Comp_ISENSE.c ****     
 198:Generated_Source\PSoC4/Comp_ISENSE.c ****     /* Check comparator's output state */
 199:Generated_Source\PSoC4/Comp_ISENSE.c ****     cmpOut = Comp_ISENSE_GetCompare();
 301              		.loc 1 199 0
 302 0012 FFF7FEFF 		bl	Comp_ISENSE_GetCompare
 303 0016 0300     		movs	r3, r0
 304 0018 3B60     		str	r3, [r7]
 200:Generated_Source\PSoC4/Comp_ISENSE.c ****     
 201:Generated_Source\PSoC4/Comp_ISENSE.c ****     /* Connect the outputs of trim IDACs to the positive
 202:Generated_Source\PSoC4/Comp_ISENSE.c ****     * output leg of the folded cascade 
 203:Generated_Source\PSoC4/Comp_ISENSE.c ****     */
 204:Generated_Source\PSoC4/Comp_ISENSE.c ****     if(cmpOut == 0u)
 305              		.loc 1 204 0
 306 001a 3B68     		ldr	r3, [r7]
 307 001c 002B     		cmp	r3, #0
 308 001e 05D1     		bne	.L18
 205:Generated_Source\PSoC4/Comp_ISENSE.c ****     {
ARM GAS  C:\Users\ilya\AppData\Local\Temp\ccUxctiq.s 			page 10


 206:Generated_Source\PSoC4/Comp_ISENSE.c ****         Comp_ISENSE_OA_OFFSET_TRIM_REG       = ((uint32) 1u << Comp_ISENSE_COMP_TRIM_SIGN_SHIFT);
 309              		.loc 1 206 0
 310 0020 114B     		ldr	r3, .L25
 311 0022 2022     		movs	r2, #32
 312 0024 1A60     		str	r2, [r3]
 207:Generated_Source\PSoC4/Comp_ISENSE.c ****         Comp_ISENSE_OA_SLOPE_OFFSET_TRIM_REG = ((uint32) 1u << Comp_ISENSE_COMP_TRIM_SIGN_SHIFT);
 313              		.loc 1 207 0
 314 0026 114B     		ldr	r3, .L25+4
 315 0028 2022     		movs	r2, #32
 316 002a 1A60     		str	r2, [r3]
 317              	.L18:
 208:Generated_Source\PSoC4/Comp_ISENSE.c ****     }
 209:Generated_Source\PSoC4/Comp_ISENSE.c ****         
 210:Generated_Source\PSoC4/Comp_ISENSE.c ****     /* Searching offset trim setting, 
 211:Generated_Source\PSoC4/Comp_ISENSE.c ****     * that flips comparator output 
 212:Generated_Source\PSoC4/Comp_ISENSE.c ****     */
 213:Generated_Source\PSoC4/Comp_ISENSE.c ****     for(i = Comp_ISENSE_COMP_TRIM_MAX_VALUE; i != 0u; i--)
 318              		.loc 1 213 0
 319 002c 2023     		movs	r3, #32
 320 002e 7B60     		str	r3, [r7, #4]
 321 0030 0FE0     		b	.L19
 322              	.L22:
 214:Generated_Source\PSoC4/Comp_ISENSE.c ****     {
 215:Generated_Source\PSoC4/Comp_ISENSE.c ****         Comp_ISENSE_OA_OFFSET_TRIM_REG++;
 323              		.loc 1 215 0
 324 0032 0D4B     		ldr	r3, .L25
 325 0034 1A68     		ldr	r2, [r3]
 326 0036 0132     		adds	r2, r2, #1
 327 0038 1A60     		str	r2, [r3]
 216:Generated_Source\PSoC4/Comp_ISENSE.c ****         CyDelayUs(Comp_ISENSE_COMP_CALIBRATION_DELAY);
 328              		.loc 1 216 0
 329 003a 0A20     		movs	r0, #10
 330 003c FFF7FEFF 		bl	CyDelayUs
 217:Generated_Source\PSoC4/Comp_ISENSE.c ****         if(cmpOut != Comp_ISENSE_GetCompare())
 331              		.loc 1 217 0
 332 0040 FFF7FEFF 		bl	Comp_ISENSE_GetCompare
 333 0044 0200     		movs	r2, r0
 334 0046 3B68     		ldr	r3, [r7]
 335 0048 9A42     		cmp	r2, r3
 336 004a 06D1     		bne	.L24
 213:Generated_Source\PSoC4/Comp_ISENSE.c ****     {
 337              		.loc 1 213 0 discriminator 2
 338 004c 7B68     		ldr	r3, [r7, #4]
 339 004e 013B     		subs	r3, r3, #1
 340 0050 7B60     		str	r3, [r7, #4]
 341              	.L19:
 213:Generated_Source\PSoC4/Comp_ISENSE.c ****     {
 342              		.loc 1 213 0 is_stmt 0 discriminator 1
 343 0052 7B68     		ldr	r3, [r7, #4]
 344 0054 002B     		cmp	r3, #0
 345 0056 ECD1     		bne	.L22
 346 0058 00E0     		b	.L21
 347              	.L24:
 218:Generated_Source\PSoC4/Comp_ISENSE.c ****         {
 219:Generated_Source\PSoC4/Comp_ISENSE.c ****             break;
 348              		.loc 1 219 0 is_stmt 1
 349 005a C046     		nop
ARM GAS  C:\Users\ilya\AppData\Local\Temp\ccUxctiq.s 			page 11


 350              	.L21:
 220:Generated_Source\PSoC4/Comp_ISENSE.c ****         }
 221:Generated_Source\PSoC4/Comp_ISENSE.c ****     }
 222:Generated_Source\PSoC4/Comp_ISENSE.c ****     
 223:Generated_Source\PSoC4/Comp_ISENSE.c ****     /* Returns offset trim value */
 224:Generated_Source\PSoC4/Comp_ISENSE.c ****     return (Comp_ISENSE_OA_OFFSET_TRIM_REG);
 351              		.loc 1 224 0
 352 005c 024B     		ldr	r3, .L25
 353 005e 1B68     		ldr	r3, [r3]
 225:Generated_Source\PSoC4/Comp_ISENSE.c **** }
 354              		.loc 1 225 0
 355 0060 1800     		movs	r0, r3
 356 0062 BD46     		mov	sp, r7
 357 0064 02B0     		add	sp, sp, #8
 358              		@ sp needed
 359 0066 80BD     		pop	{r7, pc}
 360              	.L26:
 361              		.align	2
 362              	.L25:
 363 0068 000F1040 		.word	1074794240
 364 006c 040F1040 		.word	1074794244
 365              		.cfi_endproc
 366              	.LFE5:
 367              		.size	Comp_ISENSE_ZeroCal, .-Comp_ISENSE_ZeroCal
 368              		.section	.text.Comp_ISENSE_LoadTrim,"ax",%progbits
 369              		.align	2
 370              		.global	Comp_ISENSE_LoadTrim
 371              		.code	16
 372              		.thumb_func
 373              		.type	Comp_ISENSE_LoadTrim, %function
 374              	Comp_ISENSE_LoadTrim:
 375              	.LFB6:
 226:Generated_Source\PSoC4/Comp_ISENSE.c **** 
 227:Generated_Source\PSoC4/Comp_ISENSE.c **** 
 228:Generated_Source\PSoC4/Comp_ISENSE.c **** /*******************************************************************************
 229:Generated_Source\PSoC4/Comp_ISENSE.c **** * Function Name: Comp_ISENSE_LoadTrim
 230:Generated_Source\PSoC4/Comp_ISENSE.c **** ********************************************************************************
 231:Generated_Source\PSoC4/Comp_ISENSE.c **** *
 232:Generated_Source\PSoC4/Comp_ISENSE.c **** * Summary:
 233:Generated_Source\PSoC4/Comp_ISENSE.c **** *  This function writes a value into the comparator offset trim register.
 234:Generated_Source\PSoC4/Comp_ISENSE.c **** *
 235:Generated_Source\PSoC4/Comp_ISENSE.c **** * Parameters:
 236:Generated_Source\PSoC4/Comp_ISENSE.c **** *  uint32 trimVal: Value to be stored in the comparator offset trim register. 
 237:Generated_Source\PSoC4/Comp_ISENSE.c **** *  This value has the same format as the parameter returned by the ZeroCal() 
 238:Generated_Source\PSoC4/Comp_ISENSE.c **** *  routine.
 239:Generated_Source\PSoC4/Comp_ISENSE.c **** *
 240:Generated_Source\PSoC4/Comp_ISENSE.c **** * Return:
 241:Generated_Source\PSoC4/Comp_ISENSE.c **** *  None
 242:Generated_Source\PSoC4/Comp_ISENSE.c **** *
 243:Generated_Source\PSoC4/Comp_ISENSE.c **** *******************************************************************************/
 244:Generated_Source\PSoC4/Comp_ISENSE.c **** void Comp_ISENSE_LoadTrim(uint32 trimVal)
 245:Generated_Source\PSoC4/Comp_ISENSE.c **** {
 376              		.loc 1 245 0
 377              		.cfi_startproc
 378              		@ args = 0, pretend = 0, frame = 8
 379              		@ frame_needed = 1, uses_anonymous_args = 0
 380 0000 80B5     		push	{r7, lr}
ARM GAS  C:\Users\ilya\AppData\Local\Temp\ccUxctiq.s 			page 12


 381              		.cfi_def_cfa_offset 8
 382              		.cfi_offset 7, -8
 383              		.cfi_offset 14, -4
 384 0002 82B0     		sub	sp, sp, #8
 385              		.cfi_def_cfa_offset 16
 386 0004 00AF     		add	r7, sp, #0
 387              		.cfi_def_cfa_register 7
 388 0006 7860     		str	r0, [r7, #4]
 246:Generated_Source\PSoC4/Comp_ISENSE.c ****     Comp_ISENSE_OA_OFFSET_TRIM_REG = trimVal;
 389              		.loc 1 246 0
 390 0008 034B     		ldr	r3, .L28
 391 000a 7A68     		ldr	r2, [r7, #4]
 392 000c 1A60     		str	r2, [r3]
 247:Generated_Source\PSoC4/Comp_ISENSE.c **** }
 393              		.loc 1 247 0
 394 000e C046     		nop
 395 0010 BD46     		mov	sp, r7
 396 0012 02B0     		add	sp, sp, #8
 397              		@ sp needed
 398 0014 80BD     		pop	{r7, pc}
 399              	.L29:
 400 0016 C046     		.align	2
 401              	.L28:
 402 0018 000F1040 		.word	1074794240
 403              		.cfi_endproc
 404              	.LFE6:
 405              		.size	Comp_ISENSE_LoadTrim, .-Comp_ISENSE_LoadTrim
 406              		.section	.text.Comp_ISENSE_GetCompare,"ax",%progbits
 407              		.align	2
 408              		.global	Comp_ISENSE_GetCompare
 409              		.code	16
 410              		.thumb_func
 411              		.type	Comp_ISENSE_GetCompare, %function
 412              	Comp_ISENSE_GetCompare:
 413              	.LFB7:
 248:Generated_Source\PSoC4/Comp_ISENSE.c **** 
 249:Generated_Source\PSoC4/Comp_ISENSE.c **** 
 250:Generated_Source\PSoC4/Comp_ISENSE.c **** /*******************************************************************************
 251:Generated_Source\PSoC4/Comp_ISENSE.c **** * Function Name: Comp_ISENSE_GetCompare
 252:Generated_Source\PSoC4/Comp_ISENSE.c **** ********************************************************************************
 253:Generated_Source\PSoC4/Comp_ISENSE.c **** *
 254:Generated_Source\PSoC4/Comp_ISENSE.c **** * Summary:
 255:Generated_Source\PSoC4/Comp_ISENSE.c **** *  This function returns a non-zero value when the voltage connected to the positive 
 256:Generated_Source\PSoC4/Comp_ISENSE.c **** *  input is greater than the negative input voltage. This value is not affected by 
 257:Generated_Source\PSoC4/Comp_ISENSE.c **** *  the Polarity parameter. This value always reflects a non-inverted state 
 258:Generated_Source\PSoC4/Comp_ISENSE.c **** *  configuration.
 259:Generated_Source\PSoC4/Comp_ISENSE.c **** *  This function reads the direct (unflopped) comparator output which can also be 
 260:Generated_Source\PSoC4/Comp_ISENSE.c **** *  metastable (since it may result in incorrect data).
 261:Generated_Source\PSoC4/Comp_ISENSE.c **** *
 262:Generated_Source\PSoC4/Comp_ISENSE.c **** * Parameters:
 263:Generated_Source\PSoC4/Comp_ISENSE.c **** *   None
 264:Generated_Source\PSoC4/Comp_ISENSE.c **** *
 265:Generated_Source\PSoC4/Comp_ISENSE.c **** * Return:
 266:Generated_Source\PSoC4/Comp_ISENSE.c **** *  The comparator output state. A non-zero value when the positive input voltage is 
 267:Generated_Source\PSoC4/Comp_ISENSE.c **** *  greater than the negative input voltage; otherwise, the return value is zero.
 268:Generated_Source\PSoC4/Comp_ISENSE.c **** *
 269:Generated_Source\PSoC4/Comp_ISENSE.c **** *******************************************************************************/
ARM GAS  C:\Users\ilya\AppData\Local\Temp\ccUxctiq.s 			page 13


 270:Generated_Source\PSoC4/Comp_ISENSE.c **** uint32 Comp_ISENSE_GetCompare(void)
 271:Generated_Source\PSoC4/Comp_ISENSE.c **** {
 414              		.loc 1 271 0
 415              		.cfi_startproc
 416              		@ args = 0, pretend = 0, frame = 0
 417              		@ frame_needed = 1, uses_anonymous_args = 0
 418 0000 80B5     		push	{r7, lr}
 419              		.cfi_def_cfa_offset 8
 420              		.cfi_offset 7, -8
 421              		.cfi_offset 14, -4
 422 0002 00AF     		add	r7, sp, #0
 423              		.cfi_def_cfa_register 7
 272:Generated_Source\PSoC4/Comp_ISENSE.c ****     return ((uint32)(Comp_ISENSE_OA_COMP_STAT_REG >> Comp_ISENSE_OA_COMP_SHIFT) & 1u);
 424              		.loc 1 272 0
 425 0004 034B     		ldr	r3, .L32
 426 0006 1B68     		ldr	r3, [r3]
 427 0008 0122     		movs	r2, #1
 428 000a 1340     		ands	r3, r2
 273:Generated_Source\PSoC4/Comp_ISENSE.c **** }
 429              		.loc 1 273 0
 430 000c 1800     		movs	r0, r3
 431 000e BD46     		mov	sp, r7
 432              		@ sp needed
 433 0010 80BD     		pop	{r7, pc}
 434              	.L33:
 435 0012 C046     		.align	2
 436              	.L32:
 437 0014 0C001040 		.word	1074790412
 438              		.cfi_endproc
 439              	.LFE7:
 440              		.size	Comp_ISENSE_GetCompare, .-Comp_ISENSE_GetCompare
 441              		.section	.text.Comp_ISENSE_GetInterruptSource,"ax",%progbits
 442              		.align	2
 443              		.global	Comp_ISENSE_GetInterruptSource
 444              		.code	16
 445              		.thumb_func
 446              		.type	Comp_ISENSE_GetInterruptSource, %function
 447              	Comp_ISENSE_GetInterruptSource:
 448              	.LFB8:
 274:Generated_Source\PSoC4/Comp_ISENSE.c **** 
 275:Generated_Source\PSoC4/Comp_ISENSE.c **** 
 276:Generated_Source\PSoC4/Comp_ISENSE.c **** /*******************************************************************************
 277:Generated_Source\PSoC4/Comp_ISENSE.c **** * Function Name: Comp_ISENSE_GetInterruptSource
 278:Generated_Source\PSoC4/Comp_ISENSE.c **** ********************************************************************************
 279:Generated_Source\PSoC4/Comp_ISENSE.c **** *
 280:Generated_Source\PSoC4/Comp_ISENSE.c **** * Summary:
 281:Generated_Source\PSoC4/Comp_ISENSE.c **** *  Gets the interrupt requests. This function is for use when using the combined
 282:Generated_Source\PSoC4/Comp_ISENSE.c **** *  interrupt signal from the global signal reference. This function from either
 283:Generated_Source\PSoC4/Comp_ISENSE.c **** *  component instance can be used to determine the interrupt source for all the
 284:Generated_Source\PSoC4/Comp_ISENSE.c **** *  comparator interrupts combined.
 285:Generated_Source\PSoC4/Comp_ISENSE.c **** *
 286:Generated_Source\PSoC4/Comp_ISENSE.c **** * Parameters:
 287:Generated_Source\PSoC4/Comp_ISENSE.c **** *  None
 288:Generated_Source\PSoC4/Comp_ISENSE.c **** *
 289:Generated_Source\PSoC4/Comp_ISENSE.c **** * Return:
 290:Generated_Source\PSoC4/Comp_ISENSE.c **** *  uint32: Interrupt source. Each component instance has a mask value:
 291:Generated_Source\PSoC4/Comp_ISENSE.c **** *  Comp_ISENSE_INTR.
ARM GAS  C:\Users\ilya\AppData\Local\Temp\ccUxctiq.s 			page 14


 292:Generated_Source\PSoC4/Comp_ISENSE.c **** *
 293:Generated_Source\PSoC4/Comp_ISENSE.c **** *******************************************************************************/
 294:Generated_Source\PSoC4/Comp_ISENSE.c **** uint32 Comp_ISENSE_GetInterruptSource(void)
 295:Generated_Source\PSoC4/Comp_ISENSE.c **** {
 449              		.loc 1 295 0
 450              		.cfi_startproc
 451              		@ args = 0, pretend = 0, frame = 0
 452              		@ frame_needed = 1, uses_anonymous_args = 0
 453 0000 80B5     		push	{r7, lr}
 454              		.cfi_def_cfa_offset 8
 455              		.cfi_offset 7, -8
 456              		.cfi_offset 14, -4
 457 0002 00AF     		add	r7, sp, #0
 458              		.cfi_def_cfa_register 7
 296:Generated_Source\PSoC4/Comp_ISENSE.c ****     return (Comp_ISENSE_INTR_REG); 
 459              		.loc 1 296 0
 460 0004 024B     		ldr	r3, .L36
 461 0006 1B68     		ldr	r3, [r3]
 297:Generated_Source\PSoC4/Comp_ISENSE.c **** }
 462              		.loc 1 297 0
 463 0008 1800     		movs	r0, r3
 464 000a BD46     		mov	sp, r7
 465              		@ sp needed
 466 000c 80BD     		pop	{r7, pc}
 467              	.L37:
 468 000e C046     		.align	2
 469              	.L36:
 470 0010 20001040 		.word	1074790432
 471              		.cfi_endproc
 472              	.LFE8:
 473              		.size	Comp_ISENSE_GetInterruptSource, .-Comp_ISENSE_GetInterruptSource
 474              		.section	.text.Comp_ISENSE_ClearInterrupt,"ax",%progbits
 475              		.align	2
 476              		.global	Comp_ISENSE_ClearInterrupt
 477              		.code	16
 478              		.thumb_func
 479              		.type	Comp_ISENSE_ClearInterrupt, %function
 480              	Comp_ISENSE_ClearInterrupt:
 481              	.LFB9:
 298:Generated_Source\PSoC4/Comp_ISENSE.c **** 
 299:Generated_Source\PSoC4/Comp_ISENSE.c **** 
 300:Generated_Source\PSoC4/Comp_ISENSE.c **** /*******************************************************************************
 301:Generated_Source\PSoC4/Comp_ISENSE.c **** * Function Name: Comp_ISENSE_ClearInterrupt
 302:Generated_Source\PSoC4/Comp_ISENSE.c **** ********************************************************************************
 303:Generated_Source\PSoC4/Comp_ISENSE.c **** *
 304:Generated_Source\PSoC4/Comp_ISENSE.c **** * Summary:
 305:Generated_Source\PSoC4/Comp_ISENSE.c **** *  Clears the interrupt request. This function is for use when using the
 306:Generated_Source\PSoC4/Comp_ISENSE.c **** *  combined interrupt signal from the global signal reference. This function
 307:Generated_Source\PSoC4/Comp_ISENSE.c **** *  from either component instance can be used to clear either or both
 308:Generated_Source\PSoC4/Comp_ISENSE.c **** *  interrupts.
 309:Generated_Source\PSoC4/Comp_ISENSE.c **** *
 310:Generated_Source\PSoC4/Comp_ISENSE.c **** * Parameters:
 311:Generated_Source\PSoC4/Comp_ISENSE.c **** *  uint32 interruptMask: Mask of interrupts to clear. Each component instance
 312:Generated_Source\PSoC4/Comp_ISENSE.c **** *  has a mask value: Comp_ISENSE_INTR.
 313:Generated_Source\PSoC4/Comp_ISENSE.c **** *
 314:Generated_Source\PSoC4/Comp_ISENSE.c **** * Return:
 315:Generated_Source\PSoC4/Comp_ISENSE.c **** *  None
ARM GAS  C:\Users\ilya\AppData\Local\Temp\ccUxctiq.s 			page 15


 316:Generated_Source\PSoC4/Comp_ISENSE.c **** *
 317:Generated_Source\PSoC4/Comp_ISENSE.c **** *******************************************************************************/
 318:Generated_Source\PSoC4/Comp_ISENSE.c **** void Comp_ISENSE_ClearInterrupt(uint32 interruptMask)
 319:Generated_Source\PSoC4/Comp_ISENSE.c **** {   
 482              		.loc 1 319 0
 483              		.cfi_startproc
 484              		@ args = 0, pretend = 0, frame = 8
 485              		@ frame_needed = 1, uses_anonymous_args = 0
 486 0000 80B5     		push	{r7, lr}
 487              		.cfi_def_cfa_offset 8
 488              		.cfi_offset 7, -8
 489              		.cfi_offset 14, -4
 490 0002 82B0     		sub	sp, sp, #8
 491              		.cfi_def_cfa_offset 16
 492 0004 00AF     		add	r7, sp, #0
 493              		.cfi_def_cfa_register 7
 494 0006 7860     		str	r0, [r7, #4]
 320:Generated_Source\PSoC4/Comp_ISENSE.c ****     Comp_ISENSE_INTR_REG = interruptMask;
 495              		.loc 1 320 0
 496 0008 034B     		ldr	r3, .L39
 497 000a 7A68     		ldr	r2, [r7, #4]
 498 000c 1A60     		str	r2, [r3]
 321:Generated_Source\PSoC4/Comp_ISENSE.c **** }
 499              		.loc 1 321 0
 500 000e C046     		nop
 501 0010 BD46     		mov	sp, r7
 502 0012 02B0     		add	sp, sp, #8
 503              		@ sp needed
 504 0014 80BD     		pop	{r7, pc}
 505              	.L40:
 506 0016 C046     		.align	2
 507              	.L39:
 508 0018 20001040 		.word	1074790432
 509              		.cfi_endproc
 510              	.LFE9:
 511              		.size	Comp_ISENSE_ClearInterrupt, .-Comp_ISENSE_ClearInterrupt
 512              		.section	.text.Comp_ISENSE_SetInterrupt,"ax",%progbits
 513              		.align	2
 514              		.global	Comp_ISENSE_SetInterrupt
 515              		.code	16
 516              		.thumb_func
 517              		.type	Comp_ISENSE_SetInterrupt, %function
 518              	Comp_ISENSE_SetInterrupt:
 519              	.LFB10:
 322:Generated_Source\PSoC4/Comp_ISENSE.c **** 
 323:Generated_Source\PSoC4/Comp_ISENSE.c **** 
 324:Generated_Source\PSoC4/Comp_ISENSE.c **** /*******************************************************************************
 325:Generated_Source\PSoC4/Comp_ISENSE.c **** * Function Name: Comp_ISENSE_SetInterrupt
 326:Generated_Source\PSoC4/Comp_ISENSE.c **** ********************************************************************************
 327:Generated_Source\PSoC4/Comp_ISENSE.c **** *
 328:Generated_Source\PSoC4/Comp_ISENSE.c **** * Summary:
 329:Generated_Source\PSoC4/Comp_ISENSE.c **** *  Sets a software interrupt request. This function is for use when using the
 330:Generated_Source\PSoC4/Comp_ISENSE.c **** *  combined interrupt signal from the global signal reference. This function
 331:Generated_Source\PSoC4/Comp_ISENSE.c **** *  from either component instance can be used to trigger either or both software
 332:Generated_Source\PSoC4/Comp_ISENSE.c **** *  interrupts.
 333:Generated_Source\PSoC4/Comp_ISENSE.c **** *
 334:Generated_Source\PSoC4/Comp_ISENSE.c **** * Parameters:
ARM GAS  C:\Users\ilya\AppData\Local\Temp\ccUxctiq.s 			page 16


 335:Generated_Source\PSoC4/Comp_ISENSE.c **** *  uint32 interruptMask: Mask of interrupts to set. Each component instance has
 336:Generated_Source\PSoC4/Comp_ISENSE.c **** *  a mask value: Comp_ISENSE_INTR_SET.
 337:Generated_Source\PSoC4/Comp_ISENSE.c **** *
 338:Generated_Source\PSoC4/Comp_ISENSE.c **** * Return:
 339:Generated_Source\PSoC4/Comp_ISENSE.c **** *  None
 340:Generated_Source\PSoC4/Comp_ISENSE.c **** *
 341:Generated_Source\PSoC4/Comp_ISENSE.c **** *******************************************************************************/
 342:Generated_Source\PSoC4/Comp_ISENSE.c **** void Comp_ISENSE_SetInterrupt(uint32 interruptMask)
 343:Generated_Source\PSoC4/Comp_ISENSE.c **** {
 520              		.loc 1 343 0
 521              		.cfi_startproc
 522              		@ args = 0, pretend = 0, frame = 16
 523              		@ frame_needed = 1, uses_anonymous_args = 0
 524 0000 90B5     		push	{r4, r7, lr}
 525              		.cfi_def_cfa_offset 12
 526              		.cfi_offset 4, -12
 527              		.cfi_offset 7, -8
 528              		.cfi_offset 14, -4
 529 0002 85B0     		sub	sp, sp, #20
 530              		.cfi_def_cfa_offset 32
 531 0004 00AF     		add	r7, sp, #0
 532              		.cfi_def_cfa_register 7
 533 0006 7860     		str	r0, [r7, #4]
 344:Generated_Source\PSoC4/Comp_ISENSE.c ****     uint8 enableInterrupts;
 345:Generated_Source\PSoC4/Comp_ISENSE.c ****     
 346:Generated_Source\PSoC4/Comp_ISENSE.c ****     enableInterrupts = CyEnterCriticalSection();
 534              		.loc 1 346 0
 535 0008 0F23     		movs	r3, #15
 536 000a FC18     		adds	r4, r7, r3
 537 000c FFF7FEFF 		bl	CyEnterCriticalSection
 538 0010 0300     		movs	r3, r0
 539 0012 2370     		strb	r3, [r4]
 347:Generated_Source\PSoC4/Comp_ISENSE.c ****     Comp_ISENSE_INTR_SET_REG |= interruptMask;
 540              		.loc 1 347 0
 541 0014 074B     		ldr	r3, .L42
 542 0016 074A     		ldr	r2, .L42
 543 0018 1168     		ldr	r1, [r2]
 544 001a 7A68     		ldr	r2, [r7, #4]
 545 001c 0A43     		orrs	r2, r1
 546 001e 1A60     		str	r2, [r3]
 348:Generated_Source\PSoC4/Comp_ISENSE.c ****     CyExitCriticalSection(enableInterrupts);
 547              		.loc 1 348 0
 548 0020 0F23     		movs	r3, #15
 549 0022 FB18     		adds	r3, r7, r3
 550 0024 1B78     		ldrb	r3, [r3]
 551 0026 1800     		movs	r0, r3
 552 0028 FFF7FEFF 		bl	CyExitCriticalSection
 349:Generated_Source\PSoC4/Comp_ISENSE.c **** }
 553              		.loc 1 349 0
 554 002c C046     		nop
 555 002e BD46     		mov	sp, r7
 556 0030 05B0     		add	sp, sp, #20
 557              		@ sp needed
 558 0032 90BD     		pop	{r4, r7, pc}
 559              	.L43:
 560              		.align	2
 561              	.L42:
ARM GAS  C:\Users\ilya\AppData\Local\Temp\ccUxctiq.s 			page 17


 562 0034 24001040 		.word	1074790436
 563              		.cfi_endproc
 564              	.LFE10:
 565              		.size	Comp_ISENSE_SetInterrupt, .-Comp_ISENSE_SetInterrupt
 566              		.section	.text.Comp_ISENSE_SetInterruptMask,"ax",%progbits
 567              		.align	2
 568              		.global	Comp_ISENSE_SetInterruptMask
 569              		.code	16
 570              		.thumb_func
 571              		.type	Comp_ISENSE_SetInterruptMask, %function
 572              	Comp_ISENSE_SetInterruptMask:
 573              	.LFB11:
 350:Generated_Source\PSoC4/Comp_ISENSE.c **** 
 351:Generated_Source\PSoC4/Comp_ISENSE.c **** 
 352:Generated_Source\PSoC4/Comp_ISENSE.c **** /*******************************************************************************
 353:Generated_Source\PSoC4/Comp_ISENSE.c **** * Function Name: Comp_ISENSE_SetInterruptMask
 354:Generated_Source\PSoC4/Comp_ISENSE.c **** ********************************************************************************
 355:Generated_Source\PSoC4/Comp_ISENSE.c **** *
 356:Generated_Source\PSoC4/Comp_ISENSE.c **** * Summary:
 357:Generated_Source\PSoC4/Comp_ISENSE.c **** *  Configures the interrupt mask for all comparators in the system.
 358:Generated_Source\PSoC4/Comp_ISENSE.c **** *
 359:Generated_Source\PSoC4/Comp_ISENSE.c **** * Parameters:
 360:Generated_Source\PSoC4/Comp_ISENSE.c **** *  uint32 interruptMask: Bit-mask of interrupt sources to be enabled. Each 
 361:Generated_Source\PSoC4/Comp_ISENSE.c **** *  component instance has a mask value: Comp_ISENSE_INTR_MASK.
 362:Generated_Source\PSoC4/Comp_ISENSE.c **** *
 363:Generated_Source\PSoC4/Comp_ISENSE.c **** * Return:
 364:Generated_Source\PSoC4/Comp_ISENSE.c **** *  None
 365:Generated_Source\PSoC4/Comp_ISENSE.c **** *
 366:Generated_Source\PSoC4/Comp_ISENSE.c **** *******************************************************************************/
 367:Generated_Source\PSoC4/Comp_ISENSE.c **** void Comp_ISENSE_SetInterruptMask(uint32 interruptMask)
 368:Generated_Source\PSoC4/Comp_ISENSE.c **** {
 574              		.loc 1 368 0
 575              		.cfi_startproc
 576              		@ args = 0, pretend = 0, frame = 8
 577              		@ frame_needed = 1, uses_anonymous_args = 0
 578 0000 80B5     		push	{r7, lr}
 579              		.cfi_def_cfa_offset 8
 580              		.cfi_offset 7, -8
 581              		.cfi_offset 14, -4
 582 0002 82B0     		sub	sp, sp, #8
 583              		.cfi_def_cfa_offset 16
 584 0004 00AF     		add	r7, sp, #0
 585              		.cfi_def_cfa_register 7
 586 0006 7860     		str	r0, [r7, #4]
 369:Generated_Source\PSoC4/Comp_ISENSE.c ****     Comp_ISENSE_INTR_MASK_REG = interruptMask;
 587              		.loc 1 369 0
 588 0008 034B     		ldr	r3, .L45
 589 000a 7A68     		ldr	r2, [r7, #4]
 590 000c 1A60     		str	r2, [r3]
 370:Generated_Source\PSoC4/Comp_ISENSE.c **** }
 591              		.loc 1 370 0
 592 000e C046     		nop
 593 0010 BD46     		mov	sp, r7
 594 0012 02B0     		add	sp, sp, #8
 595              		@ sp needed
 596 0014 80BD     		pop	{r7, pc}
 597              	.L46:
ARM GAS  C:\Users\ilya\AppData\Local\Temp\ccUxctiq.s 			page 18


 598 0016 C046     		.align	2
 599              	.L45:
 600 0018 28001040 		.word	1074790440
 601              		.cfi_endproc
 602              	.LFE11:
 603              		.size	Comp_ISENSE_SetInterruptMask, .-Comp_ISENSE_SetInterruptMask
 604              		.section	.text.Comp_ISENSE_GetInterruptMask,"ax",%progbits
 605              		.align	2
 606              		.global	Comp_ISENSE_GetInterruptMask
 607              		.code	16
 608              		.thumb_func
 609              		.type	Comp_ISENSE_GetInterruptMask, %function
 610              	Comp_ISENSE_GetInterruptMask:
 611              	.LFB12:
 371:Generated_Source\PSoC4/Comp_ISENSE.c **** 
 372:Generated_Source\PSoC4/Comp_ISENSE.c **** 
 373:Generated_Source\PSoC4/Comp_ISENSE.c **** /*******************************************************************************
 374:Generated_Source\PSoC4/Comp_ISENSE.c **** * Function Name: Comp_ISENSE_GetInterruptMask
 375:Generated_Source\PSoC4/Comp_ISENSE.c **** ********************************************************************************
 376:Generated_Source\PSoC4/Comp_ISENSE.c **** *
 377:Generated_Source\PSoC4/Comp_ISENSE.c **** * Summary:
 378:Generated_Source\PSoC4/Comp_ISENSE.c **** *  Returns interrupt mask for all comparators.
 379:Generated_Source\PSoC4/Comp_ISENSE.c **** *
 380:Generated_Source\PSoC4/Comp_ISENSE.c **** * Parameters:
 381:Generated_Source\PSoC4/Comp_ISENSE.c **** *  None
 382:Generated_Source\PSoC4/Comp_ISENSE.c **** *
 383:Generated_Source\PSoC4/Comp_ISENSE.c **** * Return:
 384:Generated_Source\PSoC4/Comp_ISENSE.c **** *  uint32:  Mask of enabled interrupt source. Each component instance 
 385:Generated_Source\PSoC4/Comp_ISENSE.c **** *  has a mask value: Comp_ISENSE_INTR_MASK.
 386:Generated_Source\PSoC4/Comp_ISENSE.c **** *
 387:Generated_Source\PSoC4/Comp_ISENSE.c **** *******************************************************************************/
 388:Generated_Source\PSoC4/Comp_ISENSE.c **** uint32 Comp_ISENSE_GetInterruptMask(void)
 389:Generated_Source\PSoC4/Comp_ISENSE.c **** {
 612              		.loc 1 389 0
 613              		.cfi_startproc
 614              		@ args = 0, pretend = 0, frame = 0
 615              		@ frame_needed = 1, uses_anonymous_args = 0
 616 0000 80B5     		push	{r7, lr}
 617              		.cfi_def_cfa_offset 8
 618              		.cfi_offset 7, -8
 619              		.cfi_offset 14, -4
 620 0002 00AF     		add	r7, sp, #0
 621              		.cfi_def_cfa_register 7
 390:Generated_Source\PSoC4/Comp_ISENSE.c ****     return (Comp_ISENSE_INTR_MASK_REG);
 622              		.loc 1 390 0
 623 0004 024B     		ldr	r3, .L49
 624 0006 1B68     		ldr	r3, [r3]
 391:Generated_Source\PSoC4/Comp_ISENSE.c **** }
 625              		.loc 1 391 0
 626 0008 1800     		movs	r0, r3
 627 000a BD46     		mov	sp, r7
 628              		@ sp needed
 629 000c 80BD     		pop	{r7, pc}
 630              	.L50:
 631 000e C046     		.align	2
 632              	.L49:
 633 0010 28001040 		.word	1074790440
ARM GAS  C:\Users\ilya\AppData\Local\Temp\ccUxctiq.s 			page 19


 634              		.cfi_endproc
 635              	.LFE12:
 636              		.size	Comp_ISENSE_GetInterruptMask, .-Comp_ISENSE_GetInterruptMask
 637              		.section	.text.Comp_ISENSE_GetInterruptSourceMasked,"ax",%progbits
 638              		.align	2
 639              		.global	Comp_ISENSE_GetInterruptSourceMasked
 640              		.code	16
 641              		.thumb_func
 642              		.type	Comp_ISENSE_GetInterruptSourceMasked, %function
 643              	Comp_ISENSE_GetInterruptSourceMasked:
 644              	.LFB13:
 392:Generated_Source\PSoC4/Comp_ISENSE.c **** 
 393:Generated_Source\PSoC4/Comp_ISENSE.c **** 
 394:Generated_Source\PSoC4/Comp_ISENSE.c **** /*******************************************************************************
 395:Generated_Source\PSoC4/Comp_ISENSE.c **** * Function Name: Comp_ISENSE_GetInterruptSourceMasked
 396:Generated_Source\PSoC4/Comp_ISENSE.c **** ********************************************************************************
 397:Generated_Source\PSoC4/Comp_ISENSE.c **** *
 398:Generated_Source\PSoC4/Comp_ISENSE.c **** * Summary:
 399:Generated_Source\PSoC4/Comp_ISENSE.c **** *  Returns interrupt request register masked by interrupt mask for all comparators. 
 400:Generated_Source\PSoC4/Comp_ISENSE.c **** *  Returns the result of bitwise AND operation between corresponding interrupt 
 401:Generated_Source\PSoC4/Comp_ISENSE.c **** *  request and mask bits.
 402:Generated_Source\PSoC4/Comp_ISENSE.c **** *
 403:Generated_Source\PSoC4/Comp_ISENSE.c **** * Parameters:
 404:Generated_Source\PSoC4/Comp_ISENSE.c **** *  None
 405:Generated_Source\PSoC4/Comp_ISENSE.c **** *
 406:Generated_Source\PSoC4/Comp_ISENSE.c **** * Return:
 407:Generated_Source\PSoC4/Comp_ISENSE.c **** *  uint32: Status of enabled interrupt source. Each component instance 
 408:Generated_Source\PSoC4/Comp_ISENSE.c **** *  has a mask value: Comp_ISENSE_INTR_MASKED.
 409:Generated_Source\PSoC4/Comp_ISENSE.c **** *
 410:Generated_Source\PSoC4/Comp_ISENSE.c **** *******************************************************************************/
 411:Generated_Source\PSoC4/Comp_ISENSE.c **** uint32 Comp_ISENSE_GetInterruptSourceMasked(void)
 412:Generated_Source\PSoC4/Comp_ISENSE.c **** {
 645              		.loc 1 412 0
 646              		.cfi_startproc
 647              		@ args = 0, pretend = 0, frame = 0
 648              		@ frame_needed = 1, uses_anonymous_args = 0
 649 0000 80B5     		push	{r7, lr}
 650              		.cfi_def_cfa_offset 8
 651              		.cfi_offset 7, -8
 652              		.cfi_offset 14, -4
 653 0002 00AF     		add	r7, sp, #0
 654              		.cfi_def_cfa_register 7
 413:Generated_Source\PSoC4/Comp_ISENSE.c ****     return (Comp_ISENSE_INTR_MASKED_REG);
 655              		.loc 1 413 0
 656 0004 024B     		ldr	r3, .L53
 657 0006 1B68     		ldr	r3, [r3]
 414:Generated_Source\PSoC4/Comp_ISENSE.c **** }
 658              		.loc 1 414 0
 659 0008 1800     		movs	r0, r3
 660 000a BD46     		mov	sp, r7
 661              		@ sp needed
 662 000c 80BD     		pop	{r7, pc}
 663              	.L54:
 664 000e C046     		.align	2
 665              	.L53:
 666 0010 2C001040 		.word	1074790444
 667              		.cfi_endproc
ARM GAS  C:\Users\ilya\AppData\Local\Temp\ccUxctiq.s 			page 20


 668              	.LFE13:
 669              		.size	Comp_ISENSE_GetInterruptSourceMasked, .-Comp_ISENSE_GetInterruptSourceMasked
 670              		.section	.text.Comp_ISENSE_SetInterruptMode,"ax",%progbits
 671              		.align	2
 672              		.global	Comp_ISENSE_SetInterruptMode
 673              		.code	16
 674              		.thumb_func
 675              		.type	Comp_ISENSE_SetInterruptMode, %function
 676              	Comp_ISENSE_SetInterruptMode:
 677              	.LFB14:
 415:Generated_Source\PSoC4/Comp_ISENSE.c **** 
 416:Generated_Source\PSoC4/Comp_ISENSE.c **** /*******************************************************************************
 417:Generated_Source\PSoC4/Comp_ISENSE.c **** * Function Name: Comp_ISENSE_SetInterruptMode
 418:Generated_Source\PSoC4/Comp_ISENSE.c **** ********************************************************************************
 419:Generated_Source\PSoC4/Comp_ISENSE.c **** *
 420:Generated_Source\PSoC4/Comp_ISENSE.c **** * Summary:
 421:Generated_Source\PSoC4/Comp_ISENSE.c **** *  Sets the interrupt edge detect mode.
 422:Generated_Source\PSoC4/Comp_ISENSE.c **** *
 423:Generated_Source\PSoC4/Comp_ISENSE.c **** * Parameters:
 424:Generated_Source\PSoC4/Comp_ISENSE.c **** *  uint32 mode: Enumerated edge detect mode value:
 425:Generated_Source\PSoC4/Comp_ISENSE.c **** *  Comp_ISENSE_INTR_DISABLE - Disable
 426:Generated_Source\PSoC4/Comp_ISENSE.c **** *  Comp_ISENSE_INTR_RISING  - Rising edge detect
 427:Generated_Source\PSoC4/Comp_ISENSE.c **** *  Comp_ISENSE_INTR_FALLING - Falling edge detect
 428:Generated_Source\PSoC4/Comp_ISENSE.c **** *  Comp_ISENSE_INTR_BOTH    - Detect both edges
 429:Generated_Source\PSoC4/Comp_ISENSE.c **** *
 430:Generated_Source\PSoC4/Comp_ISENSE.c **** * Return:
 431:Generated_Source\PSoC4/Comp_ISENSE.c **** *  None
 432:Generated_Source\PSoC4/Comp_ISENSE.c **** *
 433:Generated_Source\PSoC4/Comp_ISENSE.c **** *******************************************************************************/
 434:Generated_Source\PSoC4/Comp_ISENSE.c **** void Comp_ISENSE_SetInterruptMode(uint32 mode)
 435:Generated_Source\PSoC4/Comp_ISENSE.c **** {
 678              		.loc 1 435 0
 679              		.cfi_startproc
 680              		@ args = 0, pretend = 0, frame = 16
 681              		@ frame_needed = 1, uses_anonymous_args = 0
 682 0000 80B5     		push	{r7, lr}
 683              		.cfi_def_cfa_offset 8
 684              		.cfi_offset 7, -8
 685              		.cfi_offset 14, -4
 686 0002 84B0     		sub	sp, sp, #16
 687              		.cfi_def_cfa_offset 24
 688 0004 00AF     		add	r7, sp, #0
 689              		.cfi_def_cfa_register 7
 690 0006 7860     		str	r0, [r7, #4]
 436:Generated_Source\PSoC4/Comp_ISENSE.c ****     uint32 tmp;
 437:Generated_Source\PSoC4/Comp_ISENSE.c **** 
 438:Generated_Source\PSoC4/Comp_ISENSE.c ****     tmp = Comp_ISENSE_OA_RES_CTRL_REG & (uint32)~Comp_ISENSE_OA_COMPINT_MASK;
 691              		.loc 1 438 0
 692 0008 084B     		ldr	r3, .L56
 693 000a 1B68     		ldr	r3, [r3]
 694 000c 084A     		ldr	r2, .L56+4
 695 000e 1340     		ands	r3, r2
 696 0010 FB60     		str	r3, [r7, #12]
 439:Generated_Source\PSoC4/Comp_ISENSE.c ****     Comp_ISENSE_OA_RES_CTRL_REG = tmp | Comp_ISENSE_GET_OA_COMPINT(mode);
 697              		.loc 1 439 0
 698 0012 064B     		ldr	r3, .L56
 699 0014 7A68     		ldr	r2, [r7, #4]
ARM GAS  C:\Users\ilya\AppData\Local\Temp\ccUxctiq.s 			page 21


 700 0016 1102     		lsls	r1, r2, #8
 701 0018 C022     		movs	r2, #192
 702 001a 9200     		lsls	r2, r2, #2
 703 001c 1140     		ands	r1, r2
 704 001e FA68     		ldr	r2, [r7, #12]
 705 0020 0A43     		orrs	r2, r1
 706 0022 1A60     		str	r2, [r3]
 440:Generated_Source\PSoC4/Comp_ISENSE.c **** }
 707              		.loc 1 440 0
 708 0024 C046     		nop
 709 0026 BD46     		mov	sp, r7
 710 0028 04B0     		add	sp, sp, #16
 711              		@ sp needed
 712 002a 80BD     		pop	{r7, pc}
 713              	.L57:
 714              		.align	2
 715              	.L56:
 716 002c 04001040 		.word	1074790404
 717 0030 FFFCFFFF 		.word	-769
 718              		.cfi_endproc
 719              	.LFE14:
 720              		.size	Comp_ISENSE_SetInterruptMode, .-Comp_ISENSE_SetInterruptMode
 721              		.section	.text.Comp_ISENSE_DisableInterruptOutput,"ax",%progbits
 722              		.align	2
 723              		.global	Comp_ISENSE_DisableInterruptOutput
 724              		.code	16
 725              		.thumb_func
 726              		.type	Comp_ISENSE_DisableInterruptOutput, %function
 727              	Comp_ISENSE_DisableInterruptOutput:
 728              	.LFB15:
 441:Generated_Source\PSoC4/Comp_ISENSE.c **** 
 442:Generated_Source\PSoC4/Comp_ISENSE.c **** /*******************************************************************************
 443:Generated_Source\PSoC4/Comp_ISENSE.c **** * Function Name: Comp_ISENSE_DisableInterruptOutput
 444:Generated_Source\PSoC4/Comp_ISENSE.c **** ********************************************************************************
 445:Generated_Source\PSoC4/Comp_ISENSE.c **** *
 446:Generated_Source\PSoC4/Comp_ISENSE.c **** * Summary:
 447:Generated_Source\PSoC4/Comp_ISENSE.c **** *  Disables the interrupt output so that it will not be ORed to the global 
 448:Generated_Source\PSoC4/Comp_ISENSE.c **** *  Signal CTBmInt with the other comparator interrupt outputs.  
 449:Generated_Source\PSoC4/Comp_ISENSE.c **** *
 450:Generated_Source\PSoC4/Comp_ISENSE.c **** * Parameters:
 451:Generated_Source\PSoC4/Comp_ISENSE.c **** *  None
 452:Generated_Source\PSoC4/Comp_ISENSE.c **** *
 453:Generated_Source\PSoC4/Comp_ISENSE.c **** * Return:
 454:Generated_Source\PSoC4/Comp_ISENSE.c **** *  None
 455:Generated_Source\PSoC4/Comp_ISENSE.c **** *
 456:Generated_Source\PSoC4/Comp_ISENSE.c **** *******************************************************************************/
 457:Generated_Source\PSoC4/Comp_ISENSE.c **** void Comp_ISENSE_DisableInterruptOutput(void)
 458:Generated_Source\PSoC4/Comp_ISENSE.c **** {
 729              		.loc 1 458 0
 730              		.cfi_startproc
 731              		@ args = 0, pretend = 0, frame = 8
 732              		@ frame_needed = 1, uses_anonymous_args = 0
 733 0000 90B5     		push	{r4, r7, lr}
 734              		.cfi_def_cfa_offset 12
 735              		.cfi_offset 4, -12
 736              		.cfi_offset 7, -8
 737              		.cfi_offset 14, -4
ARM GAS  C:\Users\ilya\AppData\Local\Temp\ccUxctiq.s 			page 22


 738 0002 83B0     		sub	sp, sp, #12
 739              		.cfi_def_cfa_offset 24
 740 0004 00AF     		add	r7, sp, #0
 741              		.cfi_def_cfa_register 7
 459:Generated_Source\PSoC4/Comp_ISENSE.c ****     uint8 enableInterrupts;
 460:Generated_Source\PSoC4/Comp_ISENSE.c **** 
 461:Generated_Source\PSoC4/Comp_ISENSE.c ****     enableInterrupts = CyEnterCriticalSection();
 742              		.loc 1 461 0
 743 0006 FC1D     		adds	r4, r7, #7
 744 0008 FFF7FEFF 		bl	CyEnterCriticalSection
 745 000c 0300     		movs	r3, r0
 746 000e 2370     		strb	r3, [r4]
 462:Generated_Source\PSoC4/Comp_ISENSE.c ****     Comp_ISENSE_INTR_MASK_REG &= ~Comp_ISENSE_INTR_MASK;
 747              		.loc 1 462 0
 748 0010 074B     		ldr	r3, .L59
 749 0012 074A     		ldr	r2, .L59
 750 0014 1268     		ldr	r2, [r2]
 751 0016 0121     		movs	r1, #1
 752 0018 8A43     		bics	r2, r1
 753 001a 1A60     		str	r2, [r3]
 463:Generated_Source\PSoC4/Comp_ISENSE.c ****     CyExitCriticalSection(enableInterrupts);
 754              		.loc 1 463 0
 755 001c FB1D     		adds	r3, r7, #7
 756 001e 1B78     		ldrb	r3, [r3]
 757 0020 1800     		movs	r0, r3
 758 0022 FFF7FEFF 		bl	CyExitCriticalSection
 464:Generated_Source\PSoC4/Comp_ISENSE.c **** }
 759              		.loc 1 464 0
 760 0026 C046     		nop
 761 0028 BD46     		mov	sp, r7
 762 002a 03B0     		add	sp, sp, #12
 763              		@ sp needed
 764 002c 90BD     		pop	{r4, r7, pc}
 765              	.L60:
 766 002e C046     		.align	2
 767              	.L59:
 768 0030 28001040 		.word	1074790440
 769              		.cfi_endproc
 770              	.LFE15:
 771              		.size	Comp_ISENSE_DisableInterruptOutput, .-Comp_ISENSE_DisableInterruptOutput
 772              		.text
 773              	.Letext0:
 774              		.file 2 "Generated_Source\\PSoC4\\cytypes.h"