ARM GAS  C:\Users\ilya\AppData\Local\Temp\ccqXZXQC.s 			page 1


   1              		.syntax unified
   2              		.cpu cortex-m0
   3              		.fpu softvfp
   4              		.eabi_attribute 20, 1
   5              		.eabi_attribute 21, 1
   6              		.eabi_attribute 23, 3
   7              		.eabi_attribute 24, 1
   8              		.eabi_attribute 25, 1
   9              		.eabi_attribute 26, 1
  10              		.eabi_attribute 30, 6
  11              		.eabi_attribute 34, 0
  12              		.eabi_attribute 18, 4
  13              		.thumb
  14              		.syntax unified
  15              		.file	"isr_DAC.c"
  16              		.text
  17              	.Ltext0:
  18              		.cfi_sections	.debug_frame
  19              		.section	.text.isr_DAC_Start,"ax",%progbits
  20              		.align	2
  21              		.global	isr_DAC_Start
  22              		.code	16
  23              		.thumb_func
  24              		.type	isr_DAC_Start, %function
  25              	isr_DAC_Start:
  26              	.LFB0:
  27              		.file 1 "Generated_Source\\PSoC4\\isr_DAC.c"
   1:Generated_Source\PSoC4/isr_DAC.c **** /*******************************************************************************
   2:Generated_Source\PSoC4/isr_DAC.c **** * File Name: isr_DAC.c  
   3:Generated_Source\PSoC4/isr_DAC.c **** * Version 1.70
   4:Generated_Source\PSoC4/isr_DAC.c **** *
   5:Generated_Source\PSoC4/isr_DAC.c **** *  Description:
   6:Generated_Source\PSoC4/isr_DAC.c **** *   API for controlling the state of an interrupt.
   7:Generated_Source\PSoC4/isr_DAC.c **** *
   8:Generated_Source\PSoC4/isr_DAC.c **** *
   9:Generated_Source\PSoC4/isr_DAC.c **** *  Note:
  10:Generated_Source\PSoC4/isr_DAC.c **** *
  11:Generated_Source\PSoC4/isr_DAC.c **** ********************************************************************************
  12:Generated_Source\PSoC4/isr_DAC.c **** * Copyright 2008-2015, Cypress Semiconductor Corporation.  All rights reserved.
  13:Generated_Source\PSoC4/isr_DAC.c **** * You may use this file only in accordance with the license, terms, conditions, 
  14:Generated_Source\PSoC4/isr_DAC.c **** * disclaimers, and limitations in the end user license agreement accompanying 
  15:Generated_Source\PSoC4/isr_DAC.c **** * the software package with which this file was provided.
  16:Generated_Source\PSoC4/isr_DAC.c **** *******************************************************************************/
  17:Generated_Source\PSoC4/isr_DAC.c **** 
  18:Generated_Source\PSoC4/isr_DAC.c **** 
  19:Generated_Source\PSoC4/isr_DAC.c **** #include <cydevice_trm.h>
  20:Generated_Source\PSoC4/isr_DAC.c **** #include <CyLib.h>
  21:Generated_Source\PSoC4/isr_DAC.c **** #include <isr_DAC.h>
  22:Generated_Source\PSoC4/isr_DAC.c **** #include "cyapicallbacks.h"
  23:Generated_Source\PSoC4/isr_DAC.c **** 
  24:Generated_Source\PSoC4/isr_DAC.c **** #if !defined(isr_DAC__REMOVED) /* Check for removal by optimization */
  25:Generated_Source\PSoC4/isr_DAC.c **** 
  26:Generated_Source\PSoC4/isr_DAC.c **** /*******************************************************************************
  27:Generated_Source\PSoC4/isr_DAC.c **** *  Place your includes, defines and code here 
  28:Generated_Source\PSoC4/isr_DAC.c **** ********************************************************************************/
  29:Generated_Source\PSoC4/isr_DAC.c **** /* `#START isr_DAC_intc` */
  30:Generated_Source\PSoC4/isr_DAC.c **** 
ARM GAS  C:\Users\ilya\AppData\Local\Temp\ccqXZXQC.s 			page 2


  31:Generated_Source\PSoC4/isr_DAC.c **** /* `#END` */
  32:Generated_Source\PSoC4/isr_DAC.c **** 
  33:Generated_Source\PSoC4/isr_DAC.c **** extern cyisraddress CyRamVectors[CYINT_IRQ_BASE + CY_NUM_INTERRUPTS];
  34:Generated_Source\PSoC4/isr_DAC.c **** 
  35:Generated_Source\PSoC4/isr_DAC.c **** /* Declared in startup, used to set unused interrupts to. */
  36:Generated_Source\PSoC4/isr_DAC.c **** CY_ISR_PROTO(IntDefaultHandler);
  37:Generated_Source\PSoC4/isr_DAC.c **** 
  38:Generated_Source\PSoC4/isr_DAC.c **** 
  39:Generated_Source\PSoC4/isr_DAC.c **** /*******************************************************************************
  40:Generated_Source\PSoC4/isr_DAC.c **** * Function Name: isr_DAC_Start
  41:Generated_Source\PSoC4/isr_DAC.c **** ********************************************************************************
  42:Generated_Source\PSoC4/isr_DAC.c **** *
  43:Generated_Source\PSoC4/isr_DAC.c **** * Summary:
  44:Generated_Source\PSoC4/isr_DAC.c **** *  Set up the interrupt and enable it. This function disables the interrupt, 
  45:Generated_Source\PSoC4/isr_DAC.c **** *  sets the default interrupt vector, sets the priority from the value in the
  46:Generated_Source\PSoC4/isr_DAC.c **** *  Design Wide Resources Interrupt Editor, then enables the interrupt to the 
  47:Generated_Source\PSoC4/isr_DAC.c **** *  interrupt controller.
  48:Generated_Source\PSoC4/isr_DAC.c **** *
  49:Generated_Source\PSoC4/isr_DAC.c **** * Parameters:  
  50:Generated_Source\PSoC4/isr_DAC.c **** *   None
  51:Generated_Source\PSoC4/isr_DAC.c **** *
  52:Generated_Source\PSoC4/isr_DAC.c **** * Return:
  53:Generated_Source\PSoC4/isr_DAC.c **** *   None
  54:Generated_Source\PSoC4/isr_DAC.c **** *
  55:Generated_Source\PSoC4/isr_DAC.c **** *******************************************************************************/
  56:Generated_Source\PSoC4/isr_DAC.c **** void isr_DAC_Start(void)
  57:Generated_Source\PSoC4/isr_DAC.c **** {
  28              		.loc 1 57 0
  29              		.cfi_startproc
  30              		@ args = 0, pretend = 0, frame = 0
  31              		@ frame_needed = 1, uses_anonymous_args = 0
  32 0000 80B5     		push	{r7, lr}
  33              		.cfi_def_cfa_offset 8
  34              		.cfi_offset 7, -8
  35              		.cfi_offset 14, -4
  36 0002 00AF     		add	r7, sp, #0
  37              		.cfi_def_cfa_register 7
  58:Generated_Source\PSoC4/isr_DAC.c ****     /* For all we know the interrupt is active. */
  59:Generated_Source\PSoC4/isr_DAC.c ****     isr_DAC_Disable();
  38              		.loc 1 59 0
  39 0004 FFF7FEFF 		bl	isr_DAC_Disable
  60:Generated_Source\PSoC4/isr_DAC.c **** 
  61:Generated_Source\PSoC4/isr_DAC.c ****     /* Set the ISR to point to the isr_DAC Interrupt. */
  62:Generated_Source\PSoC4/isr_DAC.c ****     isr_DAC_SetVector(&isr_DAC_Interrupt);
  40              		.loc 1 62 0
  41 0008 054B     		ldr	r3, .L2
  42 000a 1800     		movs	r0, r3
  43 000c FFF7FEFF 		bl	isr_DAC_SetVector
  63:Generated_Source\PSoC4/isr_DAC.c **** 
  64:Generated_Source\PSoC4/isr_DAC.c ****     /* Set the priority. */
  65:Generated_Source\PSoC4/isr_DAC.c ****     isr_DAC_SetPriority((uint8)isr_DAC_INTC_PRIOR_NUMBER);
  44              		.loc 1 65 0
  45 0010 0320     		movs	r0, #3
  46 0012 FFF7FEFF 		bl	isr_DAC_SetPriority
  66:Generated_Source\PSoC4/isr_DAC.c **** 
  67:Generated_Source\PSoC4/isr_DAC.c ****     /* Enable it. */
  68:Generated_Source\PSoC4/isr_DAC.c ****     isr_DAC_Enable();
ARM GAS  C:\Users\ilya\AppData\Local\Temp\ccqXZXQC.s 			page 3


  47              		.loc 1 68 0
  48 0016 FFF7FEFF 		bl	isr_DAC_Enable
  69:Generated_Source\PSoC4/isr_DAC.c **** }
  49              		.loc 1 69 0
  50 001a C046     		nop
  51 001c BD46     		mov	sp, r7
  52              		@ sp needed
  53 001e 80BD     		pop	{r7, pc}
  54              	.L3:
  55              		.align	2
  56              	.L2:
  57 0020 00000000 		.word	isr_DAC_Interrupt
  58              		.cfi_endproc
  59              	.LFE0:
  60              		.size	isr_DAC_Start, .-isr_DAC_Start
  61              		.section	.text.isr_DAC_StartEx,"ax",%progbits
  62              		.align	2
  63              		.global	isr_DAC_StartEx
  64              		.code	16
  65              		.thumb_func
  66              		.type	isr_DAC_StartEx, %function
  67              	isr_DAC_StartEx:
  68              	.LFB1:
  70:Generated_Source\PSoC4/isr_DAC.c **** 
  71:Generated_Source\PSoC4/isr_DAC.c **** 
  72:Generated_Source\PSoC4/isr_DAC.c **** /*******************************************************************************
  73:Generated_Source\PSoC4/isr_DAC.c **** * Function Name: isr_DAC_StartEx
  74:Generated_Source\PSoC4/isr_DAC.c **** ********************************************************************************
  75:Generated_Source\PSoC4/isr_DAC.c **** *
  76:Generated_Source\PSoC4/isr_DAC.c **** * Summary:
  77:Generated_Source\PSoC4/isr_DAC.c **** *  Sets up the interrupt and enables it. This function disables the interrupt,
  78:Generated_Source\PSoC4/isr_DAC.c **** *  sets the interrupt vector based on the address passed in, sets the priority 
  79:Generated_Source\PSoC4/isr_DAC.c **** *  from the value in the Design Wide Resources Interrupt Editor, then enables 
  80:Generated_Source\PSoC4/isr_DAC.c **** *  the interrupt to the interrupt controller.
  81:Generated_Source\PSoC4/isr_DAC.c **** *  
  82:Generated_Source\PSoC4/isr_DAC.c **** *  When defining ISR functions, the CY_ISR and CY_ISR_PROTO macros should be 
  83:Generated_Source\PSoC4/isr_DAC.c **** *  used to provide consistent definition across compilers:
  84:Generated_Source\PSoC4/isr_DAC.c **** *  
  85:Generated_Source\PSoC4/isr_DAC.c **** *  Function definition example:
  86:Generated_Source\PSoC4/isr_DAC.c **** *   CY_ISR(MyISR)
  87:Generated_Source\PSoC4/isr_DAC.c **** *   {
  88:Generated_Source\PSoC4/isr_DAC.c **** *   }
  89:Generated_Source\PSoC4/isr_DAC.c **** *   Function prototype example:
  90:Generated_Source\PSoC4/isr_DAC.c **** *   CY_ISR_PROTO(MyISR);
  91:Generated_Source\PSoC4/isr_DAC.c **** *
  92:Generated_Source\PSoC4/isr_DAC.c **** * Parameters:  
  93:Generated_Source\PSoC4/isr_DAC.c **** *   address: Address of the ISR to set in the interrupt vector table.
  94:Generated_Source\PSoC4/isr_DAC.c **** *
  95:Generated_Source\PSoC4/isr_DAC.c **** * Return:
  96:Generated_Source\PSoC4/isr_DAC.c **** *   None
  97:Generated_Source\PSoC4/isr_DAC.c **** *
  98:Generated_Source\PSoC4/isr_DAC.c **** *******************************************************************************/
  99:Generated_Source\PSoC4/isr_DAC.c **** void isr_DAC_StartEx(cyisraddress address)
 100:Generated_Source\PSoC4/isr_DAC.c **** {
  69              		.loc 1 100 0
  70              		.cfi_startproc
  71              		@ args = 0, pretend = 0, frame = 8
ARM GAS  C:\Users\ilya\AppData\Local\Temp\ccqXZXQC.s 			page 4


  72              		@ frame_needed = 1, uses_anonymous_args = 0
  73 0000 80B5     		push	{r7, lr}
  74              		.cfi_def_cfa_offset 8
  75              		.cfi_offset 7, -8
  76              		.cfi_offset 14, -4
  77 0002 82B0     		sub	sp, sp, #8
  78              		.cfi_def_cfa_offset 16
  79 0004 00AF     		add	r7, sp, #0
  80              		.cfi_def_cfa_register 7
  81 0006 7860     		str	r0, [r7, #4]
 101:Generated_Source\PSoC4/isr_DAC.c ****     /* For all we know the interrupt is active. */
 102:Generated_Source\PSoC4/isr_DAC.c ****     isr_DAC_Disable();
  82              		.loc 1 102 0
  83 0008 FFF7FEFF 		bl	isr_DAC_Disable
 103:Generated_Source\PSoC4/isr_DAC.c **** 
 104:Generated_Source\PSoC4/isr_DAC.c ****     /* Set the ISR to point to the isr_DAC Interrupt. */
 105:Generated_Source\PSoC4/isr_DAC.c ****     isr_DAC_SetVector(address);
  84              		.loc 1 105 0
  85 000c 7B68     		ldr	r3, [r7, #4]
  86 000e 1800     		movs	r0, r3
  87 0010 FFF7FEFF 		bl	isr_DAC_SetVector
 106:Generated_Source\PSoC4/isr_DAC.c **** 
 107:Generated_Source\PSoC4/isr_DAC.c ****     /* Set the priority. */
 108:Generated_Source\PSoC4/isr_DAC.c ****     isr_DAC_SetPriority((uint8)isr_DAC_INTC_PRIOR_NUMBER);
  88              		.loc 1 108 0
  89 0014 0320     		movs	r0, #3
  90 0016 FFF7FEFF 		bl	isr_DAC_SetPriority
 109:Generated_Source\PSoC4/isr_DAC.c **** 
 110:Generated_Source\PSoC4/isr_DAC.c ****     /* Enable it. */
 111:Generated_Source\PSoC4/isr_DAC.c ****     isr_DAC_Enable();
  91              		.loc 1 111 0
  92 001a FFF7FEFF 		bl	isr_DAC_Enable
 112:Generated_Source\PSoC4/isr_DAC.c **** }
  93              		.loc 1 112 0
  94 001e C046     		nop
  95 0020 BD46     		mov	sp, r7
  96 0022 02B0     		add	sp, sp, #8
  97              		@ sp needed
  98 0024 80BD     		pop	{r7, pc}
  99              		.cfi_endproc
 100              	.LFE1:
 101              		.size	isr_DAC_StartEx, .-isr_DAC_StartEx
 102 0026 C046     		.section	.text.isr_DAC_Stop,"ax",%progbits
 103              		.align	2
 104              		.global	isr_DAC_Stop
 105              		.code	16
 106              		.thumb_func
 107              		.type	isr_DAC_Stop, %function
 108              	isr_DAC_Stop:
 109              	.LFB2:
 113:Generated_Source\PSoC4/isr_DAC.c **** 
 114:Generated_Source\PSoC4/isr_DAC.c **** 
 115:Generated_Source\PSoC4/isr_DAC.c **** /*******************************************************************************
 116:Generated_Source\PSoC4/isr_DAC.c **** * Function Name: isr_DAC_Stop
 117:Generated_Source\PSoC4/isr_DAC.c **** ********************************************************************************
 118:Generated_Source\PSoC4/isr_DAC.c **** *
 119:Generated_Source\PSoC4/isr_DAC.c **** * Summary:
ARM GAS  C:\Users\ilya\AppData\Local\Temp\ccqXZXQC.s 			page 5


 120:Generated_Source\PSoC4/isr_DAC.c **** *   Disables and removes the interrupt.
 121:Generated_Source\PSoC4/isr_DAC.c **** *
 122:Generated_Source\PSoC4/isr_DAC.c **** * Parameters:  
 123:Generated_Source\PSoC4/isr_DAC.c **** *   None
 124:Generated_Source\PSoC4/isr_DAC.c **** *
 125:Generated_Source\PSoC4/isr_DAC.c **** * Return:
 126:Generated_Source\PSoC4/isr_DAC.c **** *   None
 127:Generated_Source\PSoC4/isr_DAC.c **** *
 128:Generated_Source\PSoC4/isr_DAC.c **** *******************************************************************************/
 129:Generated_Source\PSoC4/isr_DAC.c **** void isr_DAC_Stop(void)
 130:Generated_Source\PSoC4/isr_DAC.c **** {
 110              		.loc 1 130 0
 111              		.cfi_startproc
 112              		@ args = 0, pretend = 0, frame = 0
 113              		@ frame_needed = 1, uses_anonymous_args = 0
 114 0000 80B5     		push	{r7, lr}
 115              		.cfi_def_cfa_offset 8
 116              		.cfi_offset 7, -8
 117              		.cfi_offset 14, -4
 118 0002 00AF     		add	r7, sp, #0
 119              		.cfi_def_cfa_register 7
 131:Generated_Source\PSoC4/isr_DAC.c ****     /* Disable this interrupt. */
 132:Generated_Source\PSoC4/isr_DAC.c ****     isr_DAC_Disable();
 120              		.loc 1 132 0
 121 0004 FFF7FEFF 		bl	isr_DAC_Disable
 133:Generated_Source\PSoC4/isr_DAC.c **** 
 134:Generated_Source\PSoC4/isr_DAC.c ****     /* Set the ISR to point to the passive one. */
 135:Generated_Source\PSoC4/isr_DAC.c ****     isr_DAC_SetVector(&IntDefaultHandler);
 122              		.loc 1 135 0
 123 0008 034B     		ldr	r3, .L6
 124 000a 1800     		movs	r0, r3
 125 000c FFF7FEFF 		bl	isr_DAC_SetVector
 136:Generated_Source\PSoC4/isr_DAC.c **** }
 126              		.loc 1 136 0
 127 0010 C046     		nop
 128 0012 BD46     		mov	sp, r7
 129              		@ sp needed
 130 0014 80BD     		pop	{r7, pc}
 131              	.L7:
 132 0016 C046     		.align	2
 133              	.L6:
 134 0018 00000000 		.word	IntDefaultHandler
 135              		.cfi_endproc
 136              	.LFE2:
 137              		.size	isr_DAC_Stop, .-isr_DAC_Stop
 138              		.section	.text.isr_DAC_Interrupt,"ax",%progbits
 139              		.align	2
 140              		.global	isr_DAC_Interrupt
 141              		.code	16
 142              		.thumb_func
 143              		.type	isr_DAC_Interrupt, %function
 144              	isr_DAC_Interrupt:
 145              	.LFB3:
 137:Generated_Source\PSoC4/isr_DAC.c **** 
 138:Generated_Source\PSoC4/isr_DAC.c **** 
 139:Generated_Source\PSoC4/isr_DAC.c **** /*******************************************************************************
 140:Generated_Source\PSoC4/isr_DAC.c **** * Function Name: isr_DAC_Interrupt
ARM GAS  C:\Users\ilya\AppData\Local\Temp\ccqXZXQC.s 			page 6


 141:Generated_Source\PSoC4/isr_DAC.c **** ********************************************************************************
 142:Generated_Source\PSoC4/isr_DAC.c **** *
 143:Generated_Source\PSoC4/isr_DAC.c **** * Summary:
 144:Generated_Source\PSoC4/isr_DAC.c **** *   The default Interrupt Service Routine for isr_DAC.
 145:Generated_Source\PSoC4/isr_DAC.c **** *
 146:Generated_Source\PSoC4/isr_DAC.c **** *   Add custom code between the START and END comments to keep the next version
 147:Generated_Source\PSoC4/isr_DAC.c **** *   of this file from over-writing your code.
 148:Generated_Source\PSoC4/isr_DAC.c **** *
 149:Generated_Source\PSoC4/isr_DAC.c **** *   Note You may use either the default ISR by using this API, or you may define
 150:Generated_Source\PSoC4/isr_DAC.c **** *   your own separate ISR through ISR_StartEx().
 151:Generated_Source\PSoC4/isr_DAC.c **** *
 152:Generated_Source\PSoC4/isr_DAC.c **** * Parameters:  
 153:Generated_Source\PSoC4/isr_DAC.c **** *   None
 154:Generated_Source\PSoC4/isr_DAC.c **** *
 155:Generated_Source\PSoC4/isr_DAC.c **** * Return:
 156:Generated_Source\PSoC4/isr_DAC.c **** *   None
 157:Generated_Source\PSoC4/isr_DAC.c **** *
 158:Generated_Source\PSoC4/isr_DAC.c **** *******************************************************************************/
 159:Generated_Source\PSoC4/isr_DAC.c **** CY_ISR(isr_DAC_Interrupt)
 160:Generated_Source\PSoC4/isr_DAC.c **** {
 146              		.loc 1 160 0
 147              		.cfi_startproc
 148              		@ args = 0, pretend = 0, frame = 0
 149              		@ frame_needed = 1, uses_anonymous_args = 0
 150 0000 80B5     		push	{r7, lr}
 151              		.cfi_def_cfa_offset 8
 152              		.cfi_offset 7, -8
 153              		.cfi_offset 14, -4
 154 0002 00AF     		add	r7, sp, #0
 155              		.cfi_def_cfa_register 7
 156              	.LBB2:
 161:Generated_Source\PSoC4/isr_DAC.c ****     #ifdef isr_DAC_INTERRUPT_INTERRUPT_CALLBACK
 162:Generated_Source\PSoC4/isr_DAC.c ****         isr_DAC_Interrupt_InterruptCallback();
 163:Generated_Source\PSoC4/isr_DAC.c ****     #endif /* isr_DAC_INTERRUPT_INTERRUPT_CALLBACK */ 
 164:Generated_Source\PSoC4/isr_DAC.c **** 
 165:Generated_Source\PSoC4/isr_DAC.c ****     /*  Place your Interrupt code here. */
 166:Generated_Source\PSoC4/isr_DAC.c ****     /* `#START isr_DAC_Interrupt` */
 167:Generated_Source\PSoC4/isr_DAC.c **** 
 168:Generated_Source\PSoC4/isr_DAC.c ****     
 169:Generated_Source\PSoC4/isr_DAC.c ****     {
 170:Generated_Source\PSoC4/isr_DAC.c ****         void DoDac();
 171:Generated_Source\PSoC4/isr_DAC.c ****         DoDac();
 157              		.loc 1 171 0
 158 0004 FFF7FEFF 		bl	DoDac
 159              	.LBE2:
 172:Generated_Source\PSoC4/isr_DAC.c **** 
 173:Generated_Source\PSoC4/isr_DAC.c ****     }
 174:Generated_Source\PSoC4/isr_DAC.c ****     /* `#END` */
 175:Generated_Source\PSoC4/isr_DAC.c **** }
 160              		.loc 1 175 0
 161 0008 C046     		nop
 162 000a BD46     		mov	sp, r7
 163              		@ sp needed
 164 000c 80BD     		pop	{r7, pc}
 165              		.cfi_endproc
 166              	.LFE3:
 167              		.size	isr_DAC_Interrupt, .-isr_DAC_Interrupt
ARM GAS  C:\Users\ilya\AppData\Local\Temp\ccqXZXQC.s 			page 7


 168 000e C046     		.section	.text.isr_DAC_SetVector,"ax",%progbits
 169              		.align	2
 170              		.global	isr_DAC_SetVector
 171              		.code	16
 172              		.thumb_func
 173              		.type	isr_DAC_SetVector, %function
 174              	isr_DAC_SetVector:
 175              	.LFB4:
 176:Generated_Source\PSoC4/isr_DAC.c **** 
 177:Generated_Source\PSoC4/isr_DAC.c **** 
 178:Generated_Source\PSoC4/isr_DAC.c **** /*******************************************************************************
 179:Generated_Source\PSoC4/isr_DAC.c **** * Function Name: isr_DAC_SetVector
 180:Generated_Source\PSoC4/isr_DAC.c **** ********************************************************************************
 181:Generated_Source\PSoC4/isr_DAC.c **** *
 182:Generated_Source\PSoC4/isr_DAC.c **** * Summary:
 183:Generated_Source\PSoC4/isr_DAC.c **** *   Change the ISR vector for the Interrupt. Note calling isr_DAC_Start
 184:Generated_Source\PSoC4/isr_DAC.c **** *   will override any effect this method would have had. To set the vector 
 185:Generated_Source\PSoC4/isr_DAC.c **** *   before the component has been started use isr_DAC_StartEx instead.
 186:Generated_Source\PSoC4/isr_DAC.c **** * 
 187:Generated_Source\PSoC4/isr_DAC.c **** *   When defining ISR functions, the CY_ISR and CY_ISR_PROTO macros should be 
 188:Generated_Source\PSoC4/isr_DAC.c **** *   used to provide consistent definition across compilers:
 189:Generated_Source\PSoC4/isr_DAC.c **** *
 190:Generated_Source\PSoC4/isr_DAC.c **** *   Function definition example:
 191:Generated_Source\PSoC4/isr_DAC.c **** *   CY_ISR(MyISR)
 192:Generated_Source\PSoC4/isr_DAC.c **** *   {
 193:Generated_Source\PSoC4/isr_DAC.c **** *   }
 194:Generated_Source\PSoC4/isr_DAC.c **** *
 195:Generated_Source\PSoC4/isr_DAC.c **** *   Function prototype example:
 196:Generated_Source\PSoC4/isr_DAC.c **** *     CY_ISR_PROTO(MyISR);
 197:Generated_Source\PSoC4/isr_DAC.c **** *
 198:Generated_Source\PSoC4/isr_DAC.c **** * Parameters:
 199:Generated_Source\PSoC4/isr_DAC.c **** *   address: Address of the ISR to set in the interrupt vector table.
 200:Generated_Source\PSoC4/isr_DAC.c **** *
 201:Generated_Source\PSoC4/isr_DAC.c **** * Return:
 202:Generated_Source\PSoC4/isr_DAC.c **** *   None
 203:Generated_Source\PSoC4/isr_DAC.c **** *
 204:Generated_Source\PSoC4/isr_DAC.c **** *******************************************************************************/
 205:Generated_Source\PSoC4/isr_DAC.c **** void isr_DAC_SetVector(cyisraddress address)
 206:Generated_Source\PSoC4/isr_DAC.c **** {
 176              		.loc 1 206 0
 177              		.cfi_startproc
 178              		@ args = 0, pretend = 0, frame = 8
 179              		@ frame_needed = 1, uses_anonymous_args = 0
 180 0000 80B5     		push	{r7, lr}
 181              		.cfi_def_cfa_offset 8
 182              		.cfi_offset 7, -8
 183              		.cfi_offset 14, -4
 184 0002 82B0     		sub	sp, sp, #8
 185              		.cfi_def_cfa_offset 16
 186 0004 00AF     		add	r7, sp, #0
 187              		.cfi_def_cfa_register 7
 188 0006 7860     		str	r0, [r7, #4]
 207:Generated_Source\PSoC4/isr_DAC.c ****     CyRamVectors[CYINT_IRQ_BASE + isr_DAC__INTC_NUMBER] = address;
 189              		.loc 1 207 0
 190 0008 034B     		ldr	r3, .L10
 191 000a 8821     		movs	r1, #136
 192 000c 7A68     		ldr	r2, [r7, #4]
ARM GAS  C:\Users\ilya\AppData\Local\Temp\ccqXZXQC.s 			page 8


 193 000e 5A50     		str	r2, [r3, r1]
 208:Generated_Source\PSoC4/isr_DAC.c **** }
 194              		.loc 1 208 0
 195 0010 C046     		nop
 196 0012 BD46     		mov	sp, r7
 197 0014 02B0     		add	sp, sp, #8
 198              		@ sp needed
 199 0016 80BD     		pop	{r7, pc}
 200              	.L11:
 201              		.align	2
 202              	.L10:
 203 0018 00000000 		.word	CyRamVectors
 204              		.cfi_endproc
 205              	.LFE4:
 206              		.size	isr_DAC_SetVector, .-isr_DAC_SetVector
 207              		.section	.text.isr_DAC_GetVector,"ax",%progbits
 208              		.align	2
 209              		.global	isr_DAC_GetVector
 210              		.code	16
 211              		.thumb_func
 212              		.type	isr_DAC_GetVector, %function
 213              	isr_DAC_GetVector:
 214              	.LFB5:
 209:Generated_Source\PSoC4/isr_DAC.c **** 
 210:Generated_Source\PSoC4/isr_DAC.c **** 
 211:Generated_Source\PSoC4/isr_DAC.c **** /*******************************************************************************
 212:Generated_Source\PSoC4/isr_DAC.c **** * Function Name: isr_DAC_GetVector
 213:Generated_Source\PSoC4/isr_DAC.c **** ********************************************************************************
 214:Generated_Source\PSoC4/isr_DAC.c **** *
 215:Generated_Source\PSoC4/isr_DAC.c **** * Summary:
 216:Generated_Source\PSoC4/isr_DAC.c **** *   Gets the "address" of the current ISR vector for the Interrupt.
 217:Generated_Source\PSoC4/isr_DAC.c **** *
 218:Generated_Source\PSoC4/isr_DAC.c **** * Parameters:
 219:Generated_Source\PSoC4/isr_DAC.c **** *   None
 220:Generated_Source\PSoC4/isr_DAC.c **** *
 221:Generated_Source\PSoC4/isr_DAC.c **** * Return:
 222:Generated_Source\PSoC4/isr_DAC.c **** *   Address of the ISR in the interrupt vector table.
 223:Generated_Source\PSoC4/isr_DAC.c **** *
 224:Generated_Source\PSoC4/isr_DAC.c **** *******************************************************************************/
 225:Generated_Source\PSoC4/isr_DAC.c **** cyisraddress isr_DAC_GetVector(void)
 226:Generated_Source\PSoC4/isr_DAC.c **** {
 215              		.loc 1 226 0
 216              		.cfi_startproc
 217              		@ args = 0, pretend = 0, frame = 0
 218              		@ frame_needed = 1, uses_anonymous_args = 0
 219 0000 80B5     		push	{r7, lr}
 220              		.cfi_def_cfa_offset 8
 221              		.cfi_offset 7, -8
 222              		.cfi_offset 14, -4
 223 0002 00AF     		add	r7, sp, #0
 224              		.cfi_def_cfa_register 7
 227:Generated_Source\PSoC4/isr_DAC.c ****     return CyRamVectors[CYINT_IRQ_BASE + isr_DAC__INTC_NUMBER];
 225              		.loc 1 227 0
 226 0004 024B     		ldr	r3, .L14
 227 0006 8822     		movs	r2, #136
 228 0008 9B58     		ldr	r3, [r3, r2]
 228:Generated_Source\PSoC4/isr_DAC.c **** }
ARM GAS  C:\Users\ilya\AppData\Local\Temp\ccqXZXQC.s 			page 9


 229              		.loc 1 228 0
 230 000a 1800     		movs	r0, r3
 231 000c BD46     		mov	sp, r7
 232              		@ sp needed
 233 000e 80BD     		pop	{r7, pc}
 234              	.L15:
 235              		.align	2
 236              	.L14:
 237 0010 00000000 		.word	CyRamVectors
 238              		.cfi_endproc
 239              	.LFE5:
 240              		.size	isr_DAC_GetVector, .-isr_DAC_GetVector
 241              		.section	.text.isr_DAC_SetPriority,"ax",%progbits
 242              		.align	2
 243              		.global	isr_DAC_SetPriority
 244              		.code	16
 245              		.thumb_func
 246              		.type	isr_DAC_SetPriority, %function
 247              	isr_DAC_SetPriority:
 248              	.LFB6:
 229:Generated_Source\PSoC4/isr_DAC.c **** 
 230:Generated_Source\PSoC4/isr_DAC.c **** 
 231:Generated_Source\PSoC4/isr_DAC.c **** /*******************************************************************************
 232:Generated_Source\PSoC4/isr_DAC.c **** * Function Name: isr_DAC_SetPriority
 233:Generated_Source\PSoC4/isr_DAC.c **** ********************************************************************************
 234:Generated_Source\PSoC4/isr_DAC.c **** *
 235:Generated_Source\PSoC4/isr_DAC.c **** * Summary:
 236:Generated_Source\PSoC4/isr_DAC.c **** *   Sets the Priority of the Interrupt. 
 237:Generated_Source\PSoC4/isr_DAC.c **** *
 238:Generated_Source\PSoC4/isr_DAC.c **** *   Note calling isr_DAC_Start or isr_DAC_StartEx will 
 239:Generated_Source\PSoC4/isr_DAC.c **** *   override any effect this API would have had. This API should only be called
 240:Generated_Source\PSoC4/isr_DAC.c **** *   after isr_DAC_Start or isr_DAC_StartEx has been called. 
 241:Generated_Source\PSoC4/isr_DAC.c **** *   To set the initial priority for the component, use the Design-Wide Resources
 242:Generated_Source\PSoC4/isr_DAC.c **** *   Interrupt Editor.
 243:Generated_Source\PSoC4/isr_DAC.c **** *
 244:Generated_Source\PSoC4/isr_DAC.c **** *   Note This API has no effect on Non-maskable interrupt NMI).
 245:Generated_Source\PSoC4/isr_DAC.c **** *
 246:Generated_Source\PSoC4/isr_DAC.c **** * Parameters:
 247:Generated_Source\PSoC4/isr_DAC.c **** *   priority: Priority of the interrupt, 0 being the highest priority
 248:Generated_Source\PSoC4/isr_DAC.c **** *             PSoC 3 and PSoC 5LP: Priority is from 0 to 7.
 249:Generated_Source\PSoC4/isr_DAC.c **** *             PSoC 4: Priority is from 0 to 3.
 250:Generated_Source\PSoC4/isr_DAC.c **** *
 251:Generated_Source\PSoC4/isr_DAC.c **** * Return:
 252:Generated_Source\PSoC4/isr_DAC.c **** *   None
 253:Generated_Source\PSoC4/isr_DAC.c **** *
 254:Generated_Source\PSoC4/isr_DAC.c **** *******************************************************************************/
 255:Generated_Source\PSoC4/isr_DAC.c **** void isr_DAC_SetPriority(uint8 priority)
 256:Generated_Source\PSoC4/isr_DAC.c **** {
 249              		.loc 1 256 0
 250              		.cfi_startproc
 251              		@ args = 0, pretend = 0, frame = 16
 252              		@ frame_needed = 1, uses_anonymous_args = 0
 253 0000 90B5     		push	{r4, r7, lr}
 254              		.cfi_def_cfa_offset 12
 255              		.cfi_offset 4, -12
 256              		.cfi_offset 7, -8
 257              		.cfi_offset 14, -4
ARM GAS  C:\Users\ilya\AppData\Local\Temp\ccqXZXQC.s 			page 10


 258 0002 85B0     		sub	sp, sp, #20
 259              		.cfi_def_cfa_offset 32
 260 0004 00AF     		add	r7, sp, #0
 261              		.cfi_def_cfa_register 7
 262 0006 0200     		movs	r2, r0
 263 0008 FB1D     		adds	r3, r7, #7
 264 000a 1A70     		strb	r2, [r3]
 257:Generated_Source\PSoC4/isr_DAC.c **** 	uint8 interruptState;
 258:Generated_Source\PSoC4/isr_DAC.c ****     uint32 priorityOffset = ((isr_DAC__INTC_NUMBER % 4u) * 8u) + 6u;
 265              		.loc 1 258 0
 266 000c 1623     		movs	r3, #22
 267 000e FB60     		str	r3, [r7, #12]
 259:Generated_Source\PSoC4/isr_DAC.c ****     
 260:Generated_Source\PSoC4/isr_DAC.c **** 	interruptState = CyEnterCriticalSection();
 268              		.loc 1 260 0
 269 0010 0B23     		movs	r3, #11
 270 0012 FC18     		adds	r4, r7, r3
 271 0014 FFF7FEFF 		bl	CyEnterCriticalSection
 272 0018 0300     		movs	r3, r0
 273 001a 2370     		strb	r3, [r4]
 261:Generated_Source\PSoC4/isr_DAC.c ****     *isr_DAC_INTC_PRIOR = (*isr_DAC_INTC_PRIOR & (uint32)(~isr_DAC__INTC_PRIOR_MASK)) |
 274              		.loc 1 261 0
 275 001c 0A4B     		ldr	r3, .L17
 276 001e 0A4A     		ldr	r2, .L17
 277 0020 1268     		ldr	r2, [r2]
 278 0022 0A49     		ldr	r1, .L17+4
 279 0024 1140     		ands	r1, r2
 262:Generated_Source\PSoC4/isr_DAC.c ****                                     ((uint32)priority << priorityOffset);
 280              		.loc 1 262 0
 281 0026 FA1D     		adds	r2, r7, #7
 282 0028 1078     		ldrb	r0, [r2]
 283 002a FA68     		ldr	r2, [r7, #12]
 284 002c 9040     		lsls	r0, r0, r2
 285 002e 0200     		movs	r2, r0
 261:Generated_Source\PSoC4/isr_DAC.c ****     *isr_DAC_INTC_PRIOR = (*isr_DAC_INTC_PRIOR & (uint32)(~isr_DAC__INTC_PRIOR_MASK)) |
 286              		.loc 1 261 0
 287 0030 0A43     		orrs	r2, r1
 288 0032 1A60     		str	r2, [r3]
 263:Generated_Source\PSoC4/isr_DAC.c **** 	CyExitCriticalSection(interruptState);
 289              		.loc 1 263 0
 290 0034 0B23     		movs	r3, #11
 291 0036 FB18     		adds	r3, r7, r3
 292 0038 1B78     		ldrb	r3, [r3]
 293 003a 1800     		movs	r0, r3
 294 003c FFF7FEFF 		bl	CyExitCriticalSection
 264:Generated_Source\PSoC4/isr_DAC.c **** }
 295              		.loc 1 264 0
 296 0040 C046     		nop
 297 0042 BD46     		mov	sp, r7
 298 0044 05B0     		add	sp, sp, #20
 299              		@ sp needed
 300 0046 90BD     		pop	{r4, r7, pc}
 301              	.L18:
 302              		.align	2
 303              	.L17:
 304 0048 10E400E0 		.word	-536812528
 305 004c FFFF3FFF 		.word	-12582913
ARM GAS  C:\Users\ilya\AppData\Local\Temp\ccqXZXQC.s 			page 11


 306              		.cfi_endproc
 307              	.LFE6:
 308              		.size	isr_DAC_SetPriority, .-isr_DAC_SetPriority
 309              		.section	.text.isr_DAC_GetPriority,"ax",%progbits
 310              		.align	2
 311              		.global	isr_DAC_GetPriority
 312              		.code	16
 313              		.thumb_func
 314              		.type	isr_DAC_GetPriority, %function
 315              	isr_DAC_GetPriority:
 316              	.LFB7:
 265:Generated_Source\PSoC4/isr_DAC.c **** 
 266:Generated_Source\PSoC4/isr_DAC.c **** 
 267:Generated_Source\PSoC4/isr_DAC.c **** /*******************************************************************************
 268:Generated_Source\PSoC4/isr_DAC.c **** * Function Name: isr_DAC_GetPriority
 269:Generated_Source\PSoC4/isr_DAC.c **** ********************************************************************************
 270:Generated_Source\PSoC4/isr_DAC.c **** *
 271:Generated_Source\PSoC4/isr_DAC.c **** * Summary:
 272:Generated_Source\PSoC4/isr_DAC.c **** *   Gets the Priority of the Interrupt.
 273:Generated_Source\PSoC4/isr_DAC.c **** *
 274:Generated_Source\PSoC4/isr_DAC.c **** * Parameters:
 275:Generated_Source\PSoC4/isr_DAC.c **** *   None
 276:Generated_Source\PSoC4/isr_DAC.c **** *
 277:Generated_Source\PSoC4/isr_DAC.c **** * Return:
 278:Generated_Source\PSoC4/isr_DAC.c **** *   Priority of the interrupt, 0 being the highest priority
 279:Generated_Source\PSoC4/isr_DAC.c **** *    PSoC 3 and PSoC 5LP: Priority is from 0 to 7.
 280:Generated_Source\PSoC4/isr_DAC.c **** *    PSoC 4: Priority is from 0 to 3.
 281:Generated_Source\PSoC4/isr_DAC.c **** *
 282:Generated_Source\PSoC4/isr_DAC.c **** *******************************************************************************/
 283:Generated_Source\PSoC4/isr_DAC.c **** uint8 isr_DAC_GetPriority(void)
 284:Generated_Source\PSoC4/isr_DAC.c **** {
 317              		.loc 1 284 0
 318              		.cfi_startproc
 319              		@ args = 0, pretend = 0, frame = 8
 320              		@ frame_needed = 1, uses_anonymous_args = 0
 321 0000 80B5     		push	{r7, lr}
 322              		.cfi_def_cfa_offset 8
 323              		.cfi_offset 7, -8
 324              		.cfi_offset 14, -4
 325 0002 82B0     		sub	sp, sp, #8
 326              		.cfi_def_cfa_offset 16
 327 0004 00AF     		add	r7, sp, #0
 328              		.cfi_def_cfa_register 7
 285:Generated_Source\PSoC4/isr_DAC.c ****     uint32 priority;
 286:Generated_Source\PSoC4/isr_DAC.c **** 	uint32 priorityOffset = ((isr_DAC__INTC_NUMBER % 4u) * 8u) + 6u;
 329              		.loc 1 286 0
 330 0006 1623     		movs	r3, #22
 331 0008 7B60     		str	r3, [r7, #4]
 287:Generated_Source\PSoC4/isr_DAC.c **** 
 288:Generated_Source\PSoC4/isr_DAC.c ****     priority = (*isr_DAC_INTC_PRIOR & isr_DAC__INTC_PRIOR_MASK) >> priorityOffset;
 332              		.loc 1 288 0
 333 000a 074B     		ldr	r3, .L21
 334 000c 1A68     		ldr	r2, [r3]
 335 000e C023     		movs	r3, #192
 336 0010 1B04     		lsls	r3, r3, #16
 337 0012 1A40     		ands	r2, r3
 338 0014 7B68     		ldr	r3, [r7, #4]
ARM GAS  C:\Users\ilya\AppData\Local\Temp\ccqXZXQC.s 			page 12


 339 0016 DA40     		lsrs	r2, r2, r3
 340 0018 1300     		movs	r3, r2
 341 001a 3B60     		str	r3, [r7]
 289:Generated_Source\PSoC4/isr_DAC.c **** 
 290:Generated_Source\PSoC4/isr_DAC.c ****     return (uint8)priority;
 342              		.loc 1 290 0
 343 001c 3B68     		ldr	r3, [r7]
 344 001e DBB2     		uxtb	r3, r3
 291:Generated_Source\PSoC4/isr_DAC.c **** }
 345              		.loc 1 291 0
 346 0020 1800     		movs	r0, r3
 347 0022 BD46     		mov	sp, r7
 348 0024 02B0     		add	sp, sp, #8
 349              		@ sp needed
 350 0026 80BD     		pop	{r7, pc}
 351              	.L22:
 352              		.align	2
 353              	.L21:
 354 0028 10E400E0 		.word	-536812528
 355              		.cfi_endproc
 356              	.LFE7:
 357              		.size	isr_DAC_GetPriority, .-isr_DAC_GetPriority
 358              		.section	.text.isr_DAC_Enable,"ax",%progbits
 359              		.align	2
 360              		.global	isr_DAC_Enable
 361              		.code	16
 362              		.thumb_func
 363              		.type	isr_DAC_Enable, %function
 364              	isr_DAC_Enable:
 365              	.LFB8:
 292:Generated_Source\PSoC4/isr_DAC.c **** 
 293:Generated_Source\PSoC4/isr_DAC.c **** 
 294:Generated_Source\PSoC4/isr_DAC.c **** /*******************************************************************************
 295:Generated_Source\PSoC4/isr_DAC.c **** * Function Name: isr_DAC_Enable
 296:Generated_Source\PSoC4/isr_DAC.c **** ********************************************************************************
 297:Generated_Source\PSoC4/isr_DAC.c **** *
 298:Generated_Source\PSoC4/isr_DAC.c **** * Summary:
 299:Generated_Source\PSoC4/isr_DAC.c **** *   Enables the interrupt to the interrupt controller. Do not call this function
 300:Generated_Source\PSoC4/isr_DAC.c **** *   unless ISR_Start() has been called or the functionality of the ISR_Start() 
 301:Generated_Source\PSoC4/isr_DAC.c **** *   function, which sets the vector and the priority, has been called.
 302:Generated_Source\PSoC4/isr_DAC.c **** *
 303:Generated_Source\PSoC4/isr_DAC.c **** * Parameters:
 304:Generated_Source\PSoC4/isr_DAC.c **** *   None
 305:Generated_Source\PSoC4/isr_DAC.c **** *
 306:Generated_Source\PSoC4/isr_DAC.c **** * Return:
 307:Generated_Source\PSoC4/isr_DAC.c **** *   None
 308:Generated_Source\PSoC4/isr_DAC.c **** *
 309:Generated_Source\PSoC4/isr_DAC.c **** *******************************************************************************/
 310:Generated_Source\PSoC4/isr_DAC.c **** void isr_DAC_Enable(void)
 311:Generated_Source\PSoC4/isr_DAC.c **** {
 366              		.loc 1 311 0
 367              		.cfi_startproc
 368              		@ args = 0, pretend = 0, frame = 0
 369              		@ frame_needed = 1, uses_anonymous_args = 0
 370 0000 80B5     		push	{r7, lr}
 371              		.cfi_def_cfa_offset 8
 372              		.cfi_offset 7, -8
ARM GAS  C:\Users\ilya\AppData\Local\Temp\ccqXZXQC.s 			page 13


 373              		.cfi_offset 14, -4
 374 0002 00AF     		add	r7, sp, #0
 375              		.cfi_def_cfa_register 7
 312:Generated_Source\PSoC4/isr_DAC.c ****     /* Enable the general interrupt. */
 313:Generated_Source\PSoC4/isr_DAC.c ****     *isr_DAC_INTC_SET_EN = isr_DAC__INTC_MASK;
 376              		.loc 1 313 0
 377 0004 034B     		ldr	r3, .L24
 378 0006 8022     		movs	r2, #128
 379 0008 D202     		lsls	r2, r2, #11
 380 000a 1A60     		str	r2, [r3]
 314:Generated_Source\PSoC4/isr_DAC.c **** }
 381              		.loc 1 314 0
 382 000c C046     		nop
 383 000e BD46     		mov	sp, r7
 384              		@ sp needed
 385 0010 80BD     		pop	{r7, pc}
 386              	.L25:
 387 0012 C046     		.align	2
 388              	.L24:
 389 0014 00E100E0 		.word	-536813312
 390              		.cfi_endproc
 391              	.LFE8:
 392              		.size	isr_DAC_Enable, .-isr_DAC_Enable
 393              		.section	.text.isr_DAC_GetState,"ax",%progbits
 394              		.align	2
 395              		.global	isr_DAC_GetState
 396              		.code	16
 397              		.thumb_func
 398              		.type	isr_DAC_GetState, %function
 399              	isr_DAC_GetState:
 400              	.LFB9:
 315:Generated_Source\PSoC4/isr_DAC.c **** 
 316:Generated_Source\PSoC4/isr_DAC.c **** 
 317:Generated_Source\PSoC4/isr_DAC.c **** /*******************************************************************************
 318:Generated_Source\PSoC4/isr_DAC.c **** * Function Name: isr_DAC_GetState
 319:Generated_Source\PSoC4/isr_DAC.c **** ********************************************************************************
 320:Generated_Source\PSoC4/isr_DAC.c **** *
 321:Generated_Source\PSoC4/isr_DAC.c **** * Summary:
 322:Generated_Source\PSoC4/isr_DAC.c **** *   Gets the state (enabled, disabled) of the Interrupt.
 323:Generated_Source\PSoC4/isr_DAC.c **** *
 324:Generated_Source\PSoC4/isr_DAC.c **** * Parameters:
 325:Generated_Source\PSoC4/isr_DAC.c **** *   None
 326:Generated_Source\PSoC4/isr_DAC.c **** *
 327:Generated_Source\PSoC4/isr_DAC.c **** * Return:
 328:Generated_Source\PSoC4/isr_DAC.c **** *   1 if enabled, 0 if disabled.
 329:Generated_Source\PSoC4/isr_DAC.c **** *
 330:Generated_Source\PSoC4/isr_DAC.c **** *******************************************************************************/
 331:Generated_Source\PSoC4/isr_DAC.c **** uint8 isr_DAC_GetState(void)
 332:Generated_Source\PSoC4/isr_DAC.c **** {
 401              		.loc 1 332 0
 402              		.cfi_startproc
 403              		@ args = 0, pretend = 0, frame = 0
 404              		@ frame_needed = 1, uses_anonymous_args = 0
 405 0000 80B5     		push	{r7, lr}
 406              		.cfi_def_cfa_offset 8
 407              		.cfi_offset 7, -8
 408              		.cfi_offset 14, -4
ARM GAS  C:\Users\ilya\AppData\Local\Temp\ccqXZXQC.s 			page 14


 409 0002 00AF     		add	r7, sp, #0
 410              		.cfi_def_cfa_register 7
 333:Generated_Source\PSoC4/isr_DAC.c ****     /* Get the state of the general interrupt. */
 334:Generated_Source\PSoC4/isr_DAC.c ****     return ((*isr_DAC_INTC_SET_EN & (uint32)isr_DAC__INTC_MASK) != 0u) ? 1u:0u;
 411              		.loc 1 334 0
 412 0004 054B     		ldr	r3, .L30
 413 0006 1A68     		ldr	r2, [r3]
 414 0008 8023     		movs	r3, #128
 415 000a DB02     		lsls	r3, r3, #11
 416 000c 1340     		ands	r3, r2
 417 000e 01D0     		beq	.L27
 418              		.loc 1 334 0 is_stmt 0 discriminator 1
 419 0010 0123     		movs	r3, #1
 420 0012 00E0     		b	.L28
 421              	.L27:
 422              		.loc 1 334 0 discriminator 2
 423 0014 0023     		movs	r3, #0
 424              	.L28:
 335:Generated_Source\PSoC4/isr_DAC.c **** }
 425              		.loc 1 335 0 is_stmt 1 discriminator 4
 426 0016 1800     		movs	r0, r3
 427 0018 BD46     		mov	sp, r7
 428              		@ sp needed
 429 001a 80BD     		pop	{r7, pc}
 430              	.L31:
 431              		.align	2
 432              	.L30:
 433 001c 00E100E0 		.word	-536813312
 434              		.cfi_endproc
 435              	.LFE9:
 436              		.size	isr_DAC_GetState, .-isr_DAC_GetState
 437              		.section	.text.isr_DAC_Disable,"ax",%progbits
 438              		.align	2
 439              		.global	isr_DAC_Disable
 440              		.code	16
 441              		.thumb_func
 442              		.type	isr_DAC_Disable, %function
 443              	isr_DAC_Disable:
 444              	.LFB10:
 336:Generated_Source\PSoC4/isr_DAC.c **** 
 337:Generated_Source\PSoC4/isr_DAC.c **** 
 338:Generated_Source\PSoC4/isr_DAC.c **** /*******************************************************************************
 339:Generated_Source\PSoC4/isr_DAC.c **** * Function Name: isr_DAC_Disable
 340:Generated_Source\PSoC4/isr_DAC.c **** ********************************************************************************
 341:Generated_Source\PSoC4/isr_DAC.c **** *
 342:Generated_Source\PSoC4/isr_DAC.c **** * Summary:
 343:Generated_Source\PSoC4/isr_DAC.c **** *   Disables the Interrupt in the interrupt controller.
 344:Generated_Source\PSoC4/isr_DAC.c **** *
 345:Generated_Source\PSoC4/isr_DAC.c **** * Parameters:
 346:Generated_Source\PSoC4/isr_DAC.c **** *   None
 347:Generated_Source\PSoC4/isr_DAC.c **** *
 348:Generated_Source\PSoC4/isr_DAC.c **** * Return:
 349:Generated_Source\PSoC4/isr_DAC.c **** *   None
 350:Generated_Source\PSoC4/isr_DAC.c **** *
 351:Generated_Source\PSoC4/isr_DAC.c **** *******************************************************************************/
 352:Generated_Source\PSoC4/isr_DAC.c **** void isr_DAC_Disable(void)
 353:Generated_Source\PSoC4/isr_DAC.c **** {
ARM GAS  C:\Users\ilya\AppData\Local\Temp\ccqXZXQC.s 			page 15


 445              		.loc 1 353 0
 446              		.cfi_startproc
 447              		@ args = 0, pretend = 0, frame = 0
 448              		@ frame_needed = 1, uses_anonymous_args = 0
 449 0000 80B5     		push	{r7, lr}
 450              		.cfi_def_cfa_offset 8
 451              		.cfi_offset 7, -8
 452              		.cfi_offset 14, -4
 453 0002 00AF     		add	r7, sp, #0
 454              		.cfi_def_cfa_register 7
 354:Generated_Source\PSoC4/isr_DAC.c ****     /* Disable the general interrupt. */
 355:Generated_Source\PSoC4/isr_DAC.c ****     *isr_DAC_INTC_CLR_EN = isr_DAC__INTC_MASK;
 455              		.loc 1 355 0
 456 0004 034B     		ldr	r3, .L33
 457 0006 8022     		movs	r2, #128
 458 0008 D202     		lsls	r2, r2, #11
 459 000a 1A60     		str	r2, [r3]
 356:Generated_Source\PSoC4/isr_DAC.c **** }
 460              		.loc 1 356 0
 461 000c C046     		nop
 462 000e BD46     		mov	sp, r7
 463              		@ sp needed
 464 0010 80BD     		pop	{r7, pc}
 465              	.L34:
 466 0012 C046     		.align	2
 467              	.L33:
 468 0014 80E100E0 		.word	-536813184
 469              		.cfi_endproc
 470              	.LFE10:
 471              		.size	isr_DAC_Disable, .-isr_DAC_Disable
 472              		.section	.text.isr_DAC_SetPending,"ax",%progbits
 473              		.align	2
 474              		.global	isr_DAC_SetPending
 475              		.code	16
 476              		.thumb_func
 477              		.type	isr_DAC_SetPending, %function
 478              	isr_DAC_SetPending:
 479              	.LFB11:
 357:Generated_Source\PSoC4/isr_DAC.c **** 
 358:Generated_Source\PSoC4/isr_DAC.c **** 
 359:Generated_Source\PSoC4/isr_DAC.c **** /*******************************************************************************
 360:Generated_Source\PSoC4/isr_DAC.c **** * Function Name: isr_DAC_SetPending
 361:Generated_Source\PSoC4/isr_DAC.c **** ********************************************************************************
 362:Generated_Source\PSoC4/isr_DAC.c **** *
 363:Generated_Source\PSoC4/isr_DAC.c **** * Summary:
 364:Generated_Source\PSoC4/isr_DAC.c **** *   Causes the Interrupt to enter the pending state, a software method of
 365:Generated_Source\PSoC4/isr_DAC.c **** *   generating the interrupt.
 366:Generated_Source\PSoC4/isr_DAC.c **** *
 367:Generated_Source\PSoC4/isr_DAC.c **** * Parameters:
 368:Generated_Source\PSoC4/isr_DAC.c **** *   None
 369:Generated_Source\PSoC4/isr_DAC.c **** *
 370:Generated_Source\PSoC4/isr_DAC.c **** * Return:
 371:Generated_Source\PSoC4/isr_DAC.c **** *   None
 372:Generated_Source\PSoC4/isr_DAC.c **** *
 373:Generated_Source\PSoC4/isr_DAC.c **** * Side Effects:
 374:Generated_Source\PSoC4/isr_DAC.c **** *   If interrupts are enabled and the interrupt is set up properly, the ISR is
 375:Generated_Source\PSoC4/isr_DAC.c **** *   entered (depending on the priority of this interrupt and other pending 
ARM GAS  C:\Users\ilya\AppData\Local\Temp\ccqXZXQC.s 			page 16


 376:Generated_Source\PSoC4/isr_DAC.c **** *   interrupts).
 377:Generated_Source\PSoC4/isr_DAC.c **** *
 378:Generated_Source\PSoC4/isr_DAC.c **** *******************************************************************************/
 379:Generated_Source\PSoC4/isr_DAC.c **** void isr_DAC_SetPending(void)
 380:Generated_Source\PSoC4/isr_DAC.c **** {
 480              		.loc 1 380 0
 481              		.cfi_startproc
 482              		@ args = 0, pretend = 0, frame = 0
 483              		@ frame_needed = 1, uses_anonymous_args = 0
 484 0000 80B5     		push	{r7, lr}
 485              		.cfi_def_cfa_offset 8
 486              		.cfi_offset 7, -8
 487              		.cfi_offset 14, -4
 488 0002 00AF     		add	r7, sp, #0
 489              		.cfi_def_cfa_register 7
 381:Generated_Source\PSoC4/isr_DAC.c ****     *isr_DAC_INTC_SET_PD = isr_DAC__INTC_MASK;
 490              		.loc 1 381 0
 491 0004 034B     		ldr	r3, .L36
 492 0006 8022     		movs	r2, #128
 493 0008 D202     		lsls	r2, r2, #11
 494 000a 1A60     		str	r2, [r3]
 382:Generated_Source\PSoC4/isr_DAC.c **** }
 495              		.loc 1 382 0
 496 000c C046     		nop
 497 000e BD46     		mov	sp, r7
 498              		@ sp needed
 499 0010 80BD     		pop	{r7, pc}
 500              	.L37:
 501 0012 C046     		.align	2
 502              	.L36:
 503 0014 00E200E0 		.word	-536813056
 504              		.cfi_endproc
 505              	.LFE11:
 506              		.size	isr_DAC_SetPending, .-isr_DAC_SetPending
 507              		.section	.text.isr_DAC_ClearPending,"ax",%progbits
 508              		.align	2
 509              		.global	isr_DAC_ClearPending
 510              		.code	16
 511              		.thumb_func
 512              		.type	isr_DAC_ClearPending, %function
 513              	isr_DAC_ClearPending:
 514              	.LFB12:
 383:Generated_Source\PSoC4/isr_DAC.c **** 
 384:Generated_Source\PSoC4/isr_DAC.c **** 
 385:Generated_Source\PSoC4/isr_DAC.c **** /*******************************************************************************
 386:Generated_Source\PSoC4/isr_DAC.c **** * Function Name: isr_DAC_ClearPending
 387:Generated_Source\PSoC4/isr_DAC.c **** ********************************************************************************
 388:Generated_Source\PSoC4/isr_DAC.c **** *
 389:Generated_Source\PSoC4/isr_DAC.c **** * Summary:
 390:Generated_Source\PSoC4/isr_DAC.c **** *   Clears a pending interrupt in the interrupt controller.
 391:Generated_Source\PSoC4/isr_DAC.c **** *
 392:Generated_Source\PSoC4/isr_DAC.c **** *   Note Some interrupt sources are clear-on-read and require the block 
 393:Generated_Source\PSoC4/isr_DAC.c **** *   interrupt/status register to be read/cleared with the appropriate block API 
 394:Generated_Source\PSoC4/isr_DAC.c **** *   (GPIO, UART, and so on). Otherwise the ISR will continue to remain in 
 395:Generated_Source\PSoC4/isr_DAC.c **** *   pending state even though the interrupt itself is cleared using this API.
 396:Generated_Source\PSoC4/isr_DAC.c **** *
 397:Generated_Source\PSoC4/isr_DAC.c **** * Parameters:
ARM GAS  C:\Users\ilya\AppData\Local\Temp\ccqXZXQC.s 			page 17


 398:Generated_Source\PSoC4/isr_DAC.c **** *   None
 399:Generated_Source\PSoC4/isr_DAC.c **** *
 400:Generated_Source\PSoC4/isr_DAC.c **** * Return:
 401:Generated_Source\PSoC4/isr_DAC.c **** *   None
 402:Generated_Source\PSoC4/isr_DAC.c **** *
 403:Generated_Source\PSoC4/isr_DAC.c **** *******************************************************************************/
 404:Generated_Source\PSoC4/isr_DAC.c **** void isr_DAC_ClearPending(void)
 405:Generated_Source\PSoC4/isr_DAC.c **** {
 515              		.loc 1 405 0
 516              		.cfi_startproc
 517              		@ args = 0, pretend = 0, frame = 0
 518              		@ frame_needed = 1, uses_anonymous_args = 0
 519 0000 80B5     		push	{r7, lr}
 520              		.cfi_def_cfa_offset 8
 521              		.cfi_offset 7, -8
 522              		.cfi_offset 14, -4
 523 0002 00AF     		add	r7, sp, #0
 524              		.cfi_def_cfa_register 7
 406:Generated_Source\PSoC4/isr_DAC.c ****     *isr_DAC_INTC_CLR_PD = isr_DAC__INTC_MASK;
 525              		.loc 1 406 0
 526 0004 034B     		ldr	r3, .L39
 527 0006 8022     		movs	r2, #128
 528 0008 D202     		lsls	r2, r2, #11
 529 000a 1A60     		str	r2, [r3]
 407:Generated_Source\PSoC4/isr_DAC.c **** }
 530              		.loc 1 407 0
 531 000c C046     		nop
 532 000e BD46     		mov	sp, r7
 533              		@ sp needed
 534 0010 80BD     		pop	{r7, pc}
 535              	.L40:
 536 0012 C046     		.align	2
 537              	.L39:
 538 0014 80E200E0 		.word	-536812928
 539              		.cfi_endproc
 540              	.LFE12:
 541              		.size	isr_DAC_ClearPending, .-isr_DAC_ClearPending
 542              		.text
 543              	.Letext0:
 544              		.file 2 "Generated_Source\\PSoC4/cytypes.h"