ARM GAS  C:\Users\ilya\AppData\Local\Temp\ccVJhMtK.s 			page 1


   1              		.syntax unified
   2              		.cpu cortex-m0
   3              		.fpu softvfp
   4              		.eabi_attribute 20, 1
   5              		.eabi_attribute 21, 1
   6              		.eabi_attribute 23, 3
   7              		.eabi_attribute 24, 1
   8              		.eabi_attribute 25, 1
   9              		.eabi_attribute 26, 1
  10              		.eabi_attribute 30, 6
  11              		.eabi_attribute 34, 0
  12              		.eabi_attribute 18, 4
  13              		.thumb
  14              		.syntax unified
  15              		.file	"motor.c"
  16              		.text
  17              	.Ltext0:
  18              		.cfi_sections	.debug_frame
  19              		.comm	set,38,4
  20              		.comm	mot_start,4,4
  21              		.comm	mot_decel_start,4,4
  22              		.comm	mot_target,4,4
  23              		.comm	half_dist,4,4
  24              		.global	mot_active
  25              		.bss
  26              		.type	mot_active, %object
  27              		.size	mot_active, 1
  28              	mot_active:
  29 0000 00       		.space	1
  30              		.global	mot_homed
  31              		.type	mot_homed, %object
  32              		.size	mot_homed, 1
  33              	mot_homed:
  34 0001 00       		.space	1
  35              		.comm	mot_pos,4,4
  36              		.section	.text.MotGetPos,"ax",%progbits
  37              		.align	2
  38              		.global	MotGetPos
  39              		.code	16
  40              		.thumb_func
  41              		.type	MotGetPos, %function
  42              	MotGetPos:
  43              	.LFB34:
  44              		.file 1 "motor.c"
   1:motor.c       **** /* ========================================
   2:motor.c       ****  *
   3:motor.c       ****  * Copyright YOUR COMPANY, THE YEAR
   4:motor.c       ****  * All Rights Reserved
   5:motor.c       ****  * UNPUBLISHED, LICENSED SOFTWARE.
   6:motor.c       ****  *
   7:motor.c       ****  * CONFIDENTIAL AND PROPRIETARY INFORMATION
   8:motor.c       ****  * WHICH IS THE PROPERTY OF your company.
   9:motor.c       ****  *
  10:motor.c       ****  * ========================================
  11:motor.c       **** */
  12:motor.c       **** 
  13:motor.c       **** #include "project.h"
ARM GAS  C:\Users\ilya\AppData\Local\Temp\ccVJhMtK.s 			page 2


  14:motor.c       **** #include "settings.h"
  15:motor.c       **** 
  16:motor.c       **** int mot_start;
  17:motor.c       **** int mot_decel_start;
  18:motor.c       **** int mot_target,half_dist;
  19:motor.c       **** uint8 mot_active =0;
  20:motor.c       **** uint8 mot_homed=0;
  21:motor.c       **** int mot_pos;
  22:motor.c       **** 
  23:motor.c       **** #define ACCEL (set.mot_accel*10)
  24:motor.c       **** #define MAX_V 250
  25:motor.c       **** #define MIN_SPEED_ACCEL set.mot_min_speed_a//100
  26:motor.c       **** #define MIN_SPEED_DECEL set.mot_min_speed_d//100/2
  27:motor.c       **** #define HOME_SPEED set.mot_home_speed
  28:motor.c       **** 
  29:motor.c       **** #define AMPS_PER_BIT_DAC .0000024
  30:motor.c       **** #define DAC_R 4700
  31:motor.c       **** #define VOLTS_PER_BIT_DAC (AMPS_PER_BIT_DAC * DAC_R)
  32:motor.c       **** #define VOLTS_PER_BIT .00024
  33:motor.c       **** #define AMPS_PER_BIT VOLTS_PER_BIT
  34:motor.c       **** 
  35:motor.c       **** #define HOME_I 20
  36:motor.c       **** #define RUN_I 60
  37:motor.c       **** #define RUN_I_COUNTER_SPRING 60
  38:motor.c       **** #define MAX_ACTIVE 500000
  39:motor.c       **** #include "math.h"
  40:motor.c       **** #include "motor.h"
  41:motor.c       **** 
  42:motor.c       **** int MotGetPos(void)
  43:motor.c       **** {
  45              		.loc 1 43 0
  46              		.cfi_startproc
  47              		@ args = 0, pretend = 0, frame = 0
  48              		@ frame_needed = 1, uses_anonymous_args = 0
  49 0000 80B5     		push	{r7, lr}
  50              		.cfi_def_cfa_offset 8
  51              		.cfi_offset 7, -8
  52              		.cfi_offset 14, -4
  53 0002 00AF     		add	r7, sp, #0
  54              		.cfi_def_cfa_register 7
  44:motor.c       ****     return mot_pos;
  55              		.loc 1 44 0
  56 0004 024B     		ldr	r3, .L3
  57 0006 1B68     		ldr	r3, [r3]
  45:motor.c       **** }
  58              		.loc 1 45 0
  59 0008 1800     		movs	r0, r3
  60 000a BD46     		mov	sp, r7
  61              		@ sp needed
  62 000c 80BD     		pop	{r7, pc}
  63              	.L4:
  64 000e C046     		.align	2
  65              	.L3:
  66 0010 00000000 		.word	mot_pos
  67              		.cfi_endproc
  68              	.LFE34:
  69              		.size	MotGetPos, .-MotGetPos
ARM GAS  C:\Users\ilya\AppData\Local\Temp\ccVJhMtK.s 			page 3


  70              		.comm	last_count,4,4
  71              		.section	.text.MotSetTrip,"ax",%progbits
  72              		.align	2
  73              		.global	MotSetTrip
  74              		.code	16
  75              		.thumb_func
  76              		.type	MotSetTrip, %function
  77              	MotSetTrip:
  78              	.LFB35:
  46:motor.c       **** 
  47:motor.c       **** #define TO_HOME_STEP 50000
  48:motor.c       ****  int last_count;
  49:motor.c       **** 
  50:motor.c       **** void MotSetTrip(int val)
  51:motor.c       **** {
  79              		.loc 1 51 0
  80              		.cfi_startproc
  81              		@ args = 0, pretend = 0, frame = 16
  82              		@ frame_needed = 1, uses_anonymous_args = 0
  83 0000 80B5     		push	{r7, lr}
  84              		.cfi_def_cfa_offset 8
  85              		.cfi_offset 7, -8
  86              		.cfi_offset 14, -4
  87 0002 84B0     		sub	sp, sp, #16
  88              		.cfi_def_cfa_offset 24
  89 0004 00AF     		add	r7, sp, #0
  90              		.cfi_def_cfa_register 7
  91 0006 7860     		str	r0, [r7, #4]
  52:motor.c       ****     int v1;
  53:motor.c       ****     v1= val>255?255:val;
  92              		.loc 1 53 0
  93 0008 7B68     		ldr	r3, [r7, #4]
  94 000a FF2B     		cmp	r3, #255
  95 000c 00DD     		ble	.L6
  96 000e FF23     		movs	r3, #255
  97              	.L6:
  98 0010 FB60     		str	r3, [r7, #12]
  54:motor.c       ****     IDAC_1_SetValue(v1);
  99              		.loc 1 54 0
 100 0012 FB68     		ldr	r3, [r7, #12]
 101 0014 1800     		movs	r0, r3
 102 0016 FFF7FEFF 		bl	IDAC_1_SetValue
  55:motor.c       ****     IDAC_2_SetValue(val-v1);
 103              		.loc 1 55 0
 104 001a 7A68     		ldr	r2, [r7, #4]
 105 001c FB68     		ldr	r3, [r7, #12]
 106 001e D31A     		subs	r3, r2, r3
 107 0020 1800     		movs	r0, r3
 108 0022 FFF7FEFF 		bl	IDAC_2_SetValue
  56:motor.c       **** }
 109              		.loc 1 56 0
 110 0026 C046     		nop
 111 0028 BD46     		mov	sp, r7
 112 002a 04B0     		add	sp, sp, #16
 113              		@ sp needed
 114 002c 80BD     		pop	{r7, pc}
 115              		.cfi_endproc
ARM GAS  C:\Users\ilya\AppData\Local\Temp\ccVJhMtK.s 			page 4


 116              	.LFE35:
 117              		.size	MotSetTrip, .-MotSetTrip
 118 002e C046     		.section	.text.MotHome,"ax",%progbits
 119              		.align	2
 120              		.global	MotHome
 121              		.code	16
 122              		.thumb_func
 123              		.type	MotHome, %function
 124              	MotHome:
 125              	.LFB36:
  57:motor.c       **** void MotHome()
  58:motor.c       **** {
 126              		.loc 1 58 0
 127              		.cfi_startproc
 128              		@ args = 0, pretend = 0, frame = 16
 129              		@ frame_needed = 1, uses_anonymous_args = 0
 130 0000 80B5     		push	{r7, lr}
 131              		.cfi_def_cfa_offset 8
 132              		.cfi_offset 7, -8
 133              		.cfi_offset 14, -4
 134 0002 84B0     		sub	sp, sp, #16
 135              		.cfi_def_cfa_offset 24
 136 0004 00AF     		add	r7, sp, #0
 137              		.cfi_def_cfa_register 7
  59:motor.c       ****     int x,lp=0;
 138              		.loc 1 59 0
 139 0006 0023     		movs	r3, #0
 140 0008 FB60     		str	r3, [r7, #12]
  60:motor.c       ****     
  61:motor.c       ****     int to=TO_HOME_STEP;
 141              		.loc 1 61 0
 142 000a 304B     		ldr	r3, .L14
 143 000c BB60     		str	r3, [r7, #8]
  62:motor.c       ****     int count;
  63:motor.c       ****     MotSetTrip(HOME_I);
 144              		.loc 1 63 0
 145 000e 1420     		movs	r0, #20
 146 0010 FFF7FEFF 		bl	MotSetTrip
  64:motor.c       ****    
  65:motor.c       ****     PWM_M_WriteCompare1(HOME_SPEED);
 147              		.loc 1 65 0
 148 0014 2E4B     		ldr	r3, .L14+4
 149 0016 DB7B     		ldrb	r3, [r3, #15]
 150 0018 DBB2     		uxtb	r3, r3
 151 001a 1800     		movs	r0, r3
 152 001c FFF7FEFF 		bl	PWM_M_WriteCompare1
  66:motor.c       ****     CW_Write(1);
 153              		.loc 1 66 0
 154 0020 0120     		movs	r0, #1
 155 0022 FFF7FEFF 		bl	CW_Write
  67:motor.c       ****     STEP_COUNT_WriteCounter(1000);
 156              		.loc 1 67 0
 157 0026 FA23     		movs	r3, #250
 158 0028 9B00     		lsls	r3, r3, #2
 159 002a 1800     		movs	r0, r3
 160 002c FFF7FEFF 		bl	STEP_COUNT_WriteCounter
  68:motor.c       ****    // while(((x=STEP_COUNT_ReadCounter())<10008) && (to--))
ARM GAS  C:\Users\ilya\AppData\Local\Temp\ccVJhMtK.s 			page 5


  69:motor.c       ****    //     CyDelayUs(100);
  70:motor.c       ****  #define MIN_HOMING_MOVES 10
  71:motor.c       ****         
  72:motor.c       ****     last_count=STEP_COUNT_ReadCounter()+MIN_HOMING_MOVES;
 161              		.loc 1 72 0
 162 0030 FFF7FEFF 		bl	STEP_COUNT_ReadCounter
 163 0034 0300     		movs	r3, r0
 164 0036 0A33     		adds	r3, r3, #10
 165 0038 1A00     		movs	r2, r3
 166 003a 264B     		ldr	r3, .L14+8
 167 003c 1A60     		str	r2, [r3]
 168              	.L13:
  73:motor.c       ****  
  74:motor.c       ****     //add timeout for homing
  75:motor.c       ****     while (1)
  76:motor.c       ****         {
  77:motor.c       ****          to--;
 169              		.loc 1 77 0
 170 003e BB68     		ldr	r3, [r7, #8]
 171 0040 013B     		subs	r3, r3, #1
 172 0042 BB60     		str	r3, [r7, #8]
  78:motor.c       ****          CyDelayUs(50000);
 173              		.loc 1 78 0
 174 0044 214B     		ldr	r3, .L14
 175 0046 1800     		movs	r0, r3
 176 0048 FFF7FEFF 		bl	CyDelayUs
  79:motor.c       ****          lp++;
 177              		.loc 1 79 0
 178 004c FB68     		ldr	r3, [r7, #12]
 179 004e 0133     		adds	r3, r3, #1
 180 0050 FB60     		str	r3, [r7, #12]
  80:motor.c       ****         // wait some amount of time before we detect stop condition
  81:motor.c       ****          if (lp>2)
 181              		.loc 1 81 0
 182 0052 FB68     		ldr	r3, [r7, #12]
 183 0054 022B     		cmp	r3, #2
 184 0056 2BDD     		ble	.L8
  82:motor.c       ****             {
  83:motor.c       ****              // stop if we over current
  84:motor.c       ****             //    if (1)
  85:motor.c       ****             if (Comp_ISENSE_GetCompare()==1)
 185              		.loc 1 85 0
 186 0058 FFF7FEFF 		bl	Comp_ISENSE_GetCompare
 187 005c 0300     		movs	r3, r0
 188 005e 012B     		cmp	r3, #1
 189 0060 0CD1     		bne	.L9
  86:motor.c       ****                {
  87:motor.c       ****                 mot_active=0;
 190              		.loc 1 87 0
 191 0062 1D4B     		ldr	r3, .L14+12
 192 0064 0022     		movs	r2, #0
 193 0066 1A70     		strb	r2, [r3]
  88:motor.c       ****                 PWM_M_WriteCompare1(0);
 194              		.loc 1 88 0
 195 0068 0020     		movs	r0, #0
 196 006a FFF7FEFF 		bl	PWM_M_WriteCompare1
  89:motor.c       ****                 mot_pos=0;
ARM GAS  C:\Users\ilya\AppData\Local\Temp\ccVJhMtK.s 			page 6


 197              		.loc 1 89 0
 198 006e 1B4B     		ldr	r3, .L14+16
 199 0070 0022     		movs	r2, #0
 200 0072 1A60     		str	r2, [r3]
  90:motor.c       ****                 mot_homed=1;
 201              		.loc 1 90 0
 202 0074 1A4B     		ldr	r3, .L14+20
 203 0076 0122     		movs	r2, #1
 204 0078 1A70     		strb	r2, [r3]
  91:motor.c       ****                 break;
 205              		.loc 1 91 0
 206 007a 22E0     		b	.L10
 207              	.L9:
  92:motor.c       ****                }
  93:motor.c       ****             // stop if we are no longer moving
  94:motor.c       ****            count=STEP_COUNT_ReadCounter();
 208              		.loc 1 94 0
 209 007c FFF7FEFF 		bl	STEP_COUNT_ReadCounter
 210 0080 0300     		movs	r3, r0
 211 0082 7B60     		str	r3, [r7, #4]
  95:motor.c       ****            if ((count-last_count)< MIN_HOMING_MOVES)
 212              		.loc 1 95 0
 213 0084 134B     		ldr	r3, .L14+8
 214 0086 1B68     		ldr	r3, [r3]
 215 0088 7A68     		ldr	r2, [r7, #4]
 216 008a D31A     		subs	r3, r2, r3
 217 008c 092B     		cmp	r3, #9
 218 008e 0CDC     		bgt	.L11
  96:motor.c       ****                 {
  97:motor.c       ****                 mot_active=0;
 219              		.loc 1 97 0
 220 0090 114B     		ldr	r3, .L14+12
 221 0092 0022     		movs	r2, #0
 222 0094 1A70     		strb	r2, [r3]
  98:motor.c       ****                 PWM_M_WriteCompare1(0);
 223              		.loc 1 98 0
 224 0096 0020     		movs	r0, #0
 225 0098 FFF7FEFF 		bl	PWM_M_WriteCompare1
  99:motor.c       ****                 mot_pos=0;
 226              		.loc 1 99 0
 227 009c 0F4B     		ldr	r3, .L14+16
 228 009e 0022     		movs	r2, #0
 229 00a0 1A60     		str	r2, [r3]
 100:motor.c       ****                 mot_homed=1;
 230              		.loc 1 100 0
 231 00a2 0F4B     		ldr	r3, .L14+20
 232 00a4 0122     		movs	r2, #1
 233 00a6 1A70     		strb	r2, [r3]
 101:motor.c       ****                 break;
 234              		.loc 1 101 0
 235 00a8 0BE0     		b	.L10
 236              	.L11:
 102:motor.c       ****                 }
 103:motor.c       ****             last_count = count;           
 237              		.loc 1 103 0
 238 00aa 0A4B     		ldr	r3, .L14+8
 239 00ac 7A68     		ldr	r2, [r7, #4]
ARM GAS  C:\Users\ilya\AppData\Local\Temp\ccVJhMtK.s 			page 7


 240 00ae 1A60     		str	r2, [r3]
 241              	.L8:
 104:motor.c       ****             }
 105:motor.c       ****         if (to<0)
 242              		.loc 1 105 0
 243 00b0 BB68     		ldr	r3, [r7, #8]
 244 00b2 002B     		cmp	r3, #0
 245 00b4 C3DA     		bge	.L13
 106:motor.c       ****            {
 107:motor.c       ****             mot_pos=0;
 246              		.loc 1 107 0
 247 00b6 094B     		ldr	r3, .L14+16
 248 00b8 0022     		movs	r2, #0
 249 00ba 1A60     		str	r2, [r3]
 108:motor.c       ****             PWM_M_WriteCompare1(0);
 250              		.loc 1 108 0
 251 00bc 0020     		movs	r0, #0
 252 00be FFF7FEFF 		bl	PWM_M_WriteCompare1
 253              	.L10:
 109:motor.c       ****             break;
 110:motor.c       ****             }
 111:motor.c       ****         }
 112:motor.c       **** }
 254              		.loc 1 112 0
 255 00c2 C046     		nop
 256 00c4 BD46     		mov	sp, r7
 257 00c6 04B0     		add	sp, sp, #16
 258              		@ sp needed
 259 00c8 80BD     		pop	{r7, pc}
 260              	.L15:
 261 00ca C046     		.align	2
 262              	.L14:
 263 00cc 50C30000 		.word	50000
 264 00d0 00000000 		.word	set
 265 00d4 00000000 		.word	last_count
 266 00d8 00000000 		.word	mot_active
 267 00dc 00000000 		.word	mot_pos
 268 00e0 00000000 		.word	mot_homed
 269              		.cfi_endproc
 270              	.LFE36:
 271              		.size	MotHome, .-MotHome
 272              		.section	.text.isqrt,"ax",%progbits
 273              		.align	2
 274              		.global	isqrt
 275              		.code	16
 276              		.thumb_func
 277              		.type	isqrt, %function
 278              	isqrt:
 279              	.LFB37:
 113:motor.c       **** unsigned short isqrt(unsigned long a) {
 280              		.loc 1 113 0
 281              		.cfi_startproc
 282              		@ args = 0, pretend = 0, frame = 24
 283              		@ frame_needed = 1, uses_anonymous_args = 0
 284 0000 80B5     		push	{r7, lr}
 285              		.cfi_def_cfa_offset 8
 286              		.cfi_offset 7, -8
ARM GAS  C:\Users\ilya\AppData\Local\Temp\ccVJhMtK.s 			page 8


 287              		.cfi_offset 14, -4
 288 0002 86B0     		sub	sp, sp, #24
 289              		.cfi_def_cfa_offset 32
 290 0004 00AF     		add	r7, sp, #0
 291              		.cfi_def_cfa_register 7
 292 0006 7860     		str	r0, [r7, #4]
 114:motor.c       ****     unsigned long rem = 0;
 293              		.loc 1 114 0
 294 0008 0023     		movs	r3, #0
 295 000a 7B61     		str	r3, [r7, #20]
 115:motor.c       ****     int root = 0;
 296              		.loc 1 115 0
 297 000c 0023     		movs	r3, #0
 298 000e 3B61     		str	r3, [r7, #16]
 116:motor.c       ****     int i;
 117:motor.c       **** 
 118:motor.c       ****     for (i = 0; i < 16; i++) {
 299              		.loc 1 118 0
 300 0010 0023     		movs	r3, #0
 301 0012 FB60     		str	r3, [r7, #12]
 302 0014 1EE0     		b	.L17
 303              	.L19:
 119:motor.c       ****         root <<= 1;
 304              		.loc 1 119 0
 305 0016 3B69     		ldr	r3, [r7, #16]
 306 0018 5B00     		lsls	r3, r3, #1
 307 001a 3B61     		str	r3, [r7, #16]
 120:motor.c       ****         rem <<= 2;
 308              		.loc 1 120 0
 309 001c 7B69     		ldr	r3, [r7, #20]
 310 001e 9B00     		lsls	r3, r3, #2
 311 0020 7B61     		str	r3, [r7, #20]
 121:motor.c       ****         rem += a >> 30;
 312              		.loc 1 121 0
 313 0022 7B68     		ldr	r3, [r7, #4]
 314 0024 9B0F     		lsrs	r3, r3, #30
 315 0026 7A69     		ldr	r2, [r7, #20]
 316 0028 D318     		adds	r3, r2, r3
 317 002a 7B61     		str	r3, [r7, #20]
 122:motor.c       ****         a <<= 2;
 318              		.loc 1 122 0
 319 002c 7B68     		ldr	r3, [r7, #4]
 320 002e 9B00     		lsls	r3, r3, #2
 321 0030 7B60     		str	r3, [r7, #4]
 123:motor.c       **** 
 124:motor.c       ****         if (root < rem) {
 322              		.loc 1 124 0
 323 0032 3A69     		ldr	r2, [r7, #16]
 324 0034 7B69     		ldr	r3, [r7, #20]
 325 0036 9A42     		cmp	r2, r3
 326 0038 09D2     		bcs	.L18
 125:motor.c       ****             root++;
 327              		.loc 1 125 0
 328 003a 3B69     		ldr	r3, [r7, #16]
 329 003c 0133     		adds	r3, r3, #1
 330 003e 3B61     		str	r3, [r7, #16]
 126:motor.c       ****             rem -= root;
ARM GAS  C:\Users\ilya\AppData\Local\Temp\ccVJhMtK.s 			page 9


 331              		.loc 1 126 0
 332 0040 3B69     		ldr	r3, [r7, #16]
 333 0042 7A69     		ldr	r2, [r7, #20]
 334 0044 D31A     		subs	r3, r2, r3
 335 0046 7B61     		str	r3, [r7, #20]
 127:motor.c       ****             root++;
 336              		.loc 1 127 0
 337 0048 3B69     		ldr	r3, [r7, #16]
 338 004a 0133     		adds	r3, r3, #1
 339 004c 3B61     		str	r3, [r7, #16]
 340              	.L18:
 118:motor.c       ****         root <<= 1;
 341              		.loc 1 118 0 discriminator 2
 342 004e FB68     		ldr	r3, [r7, #12]
 343 0050 0133     		adds	r3, r3, #1
 344 0052 FB60     		str	r3, [r7, #12]
 345              	.L17:
 118:motor.c       ****         root <<= 1;
 346              		.loc 1 118 0 is_stmt 0 discriminator 1
 347 0054 FB68     		ldr	r3, [r7, #12]
 348 0056 0F2B     		cmp	r3, #15
 349 0058 DDDD     		ble	.L19
 128:motor.c       ****         }
 129:motor.c       ****     }
 130:motor.c       **** 
 131:motor.c       ****     return (unsigned short) (root >> 1);
 350              		.loc 1 131 0 is_stmt 1
 351 005a 3B69     		ldr	r3, [r7, #16]
 352 005c 5B10     		asrs	r3, r3, #1
 353 005e 9BB2     		uxth	r3, r3
 132:motor.c       **** }
 354              		.loc 1 132 0
 355 0060 1800     		movs	r0, r3
 356 0062 BD46     		mov	sp, r7
 357 0064 06B0     		add	sp, sp, #24
 358              		@ sp needed
 359 0066 80BD     		pop	{r7, pc}
 360              		.cfi_endproc
 361              	.LFE37:
 362              		.size	isqrt, .-isqrt
 363              		.global	active_count
 364              		.bss
 365 0002 0000     		.align	2
 366              		.type	active_count, %object
 367              		.size	active_count, 4
 368              	active_count:
 369 0004 00000000 		.space	4
 370              		.section	.text.MotMoveRel,"ax",%progbits
 371              		.align	2
 372              		.global	MotMoveRel
 373              		.code	16
 374              		.thumb_func
 375              		.type	MotMoveRel, %function
 376              	MotMoveRel:
 377              	.LFB38:
 133:motor.c       **** int active_count=0;
 134:motor.c       **** 
ARM GAS  C:\Users\ilya\AppData\Local\Temp\ccVJhMtK.s 			page 10


 135:motor.c       **** uint8 MotMoveRel(int steps)
 136:motor.c       **** {
 378              		.loc 1 136 0
 379              		.cfi_startproc
 380              		@ args = 0, pretend = 0, frame = 8
 381              		@ frame_needed = 1, uses_anonymous_args = 0
 382 0000 80B5     		push	{r7, lr}
 383              		.cfi_def_cfa_offset 8
 384              		.cfi_offset 7, -8
 385              		.cfi_offset 14, -4
 386 0002 82B0     		sub	sp, sp, #8
 387              		.cfi_def_cfa_offset 16
 388 0004 00AF     		add	r7, sp, #0
 389              		.cfi_def_cfa_register 7
 390 0006 7860     		str	r0, [r7, #4]
 137:motor.c       ****     if ( mot_active)
 391              		.loc 1 137 0
 392 0008 274B     		ldr	r3, .L28
 393 000a 1B78     		ldrb	r3, [r3]
 394 000c 002B     		cmp	r3, #0
 395 000e 01D0     		beq	.L22
 138:motor.c       ****       return 0;
 396              		.loc 1 138 0
 397 0010 0023     		movs	r3, #0
 398 0012 45E0     		b	.L23
 399              	.L22:
 139:motor.c       ****     if (steps==0)
 400              		.loc 1 139 0
 401 0014 7B68     		ldr	r3, [r7, #4]
 402 0016 002B     		cmp	r3, #0
 403 0018 01D1     		bne	.L24
 140:motor.c       ****       return 1;
 404              		.loc 1 140 0
 405 001a 0123     		movs	r3, #1
 406 001c 40E0     		b	.L23
 407              	.L24:
 141:motor.c       ****     active_count=0;
 408              		.loc 1 141 0
 409 001e 234B     		ldr	r3, .L28+4
 410 0020 0022     		movs	r2, #0
 411 0022 1A60     		str	r2, [r3]
 142:motor.c       ****      IDAC_1_SetValue(RUN_I);
 412              		.loc 1 142 0
 413 0024 3C20     		movs	r0, #60
 414 0026 FFF7FEFF 		bl	IDAC_1_SetValue
 143:motor.c       ****     mot_pos+=steps;
 415              		.loc 1 143 0
 416 002a 214B     		ldr	r3, .L28+8
 417 002c 1A68     		ldr	r2, [r3]
 418 002e 7B68     		ldr	r3, [r7, #4]
 419 0030 D218     		adds	r2, r2, r3
 420 0032 1F4B     		ldr	r3, .L28+8
 421 0034 1A60     		str	r2, [r3]
 144:motor.c       ****     if (steps>0)
 422              		.loc 1 144 0
 423 0036 7B68     		ldr	r3, [r7, #4]
 424 0038 002B     		cmp	r3, #0
ARM GAS  C:\Users\ilya\AppData\Local\Temp\ccVJhMtK.s 			page 11


 425 003a 06DD     		ble	.L25
 145:motor.c       ****     {
 146:motor.c       ****        CW_Write(0);
 426              		.loc 1 146 0
 427 003c 0020     		movs	r0, #0
 428 003e FFF7FEFF 		bl	CW_Write
 147:motor.c       ****     MotSetTrip(RUN_I_COUNTER_SPRING);
 429              		.loc 1 147 0
 430 0042 3C20     		movs	r0, #60
 431 0044 FFF7FEFF 		bl	MotSetTrip
 432 0048 08E0     		b	.L26
 433              	.L25:
 148:motor.c       ****     }
 149:motor.c       ****     else
 150:motor.c       ****        {
 151:motor.c       ****         CW_Write(1);
 434              		.loc 1 151 0
 435 004a 0120     		movs	r0, #1
 436 004c FFF7FEFF 		bl	CW_Write
 152:motor.c       ****         steps=-steps;
 437              		.loc 1 152 0
 438 0050 7B68     		ldr	r3, [r7, #4]
 439 0052 5B42     		rsbs	r3, r3, #0
 440 0054 7B60     		str	r3, [r7, #4]
 153:motor.c       ****         MotSetTrip(RUN_I);
 441              		.loc 1 153 0
 442 0056 3C20     		movs	r0, #60
 443 0058 FFF7FEFF 		bl	MotSetTrip
 444              	.L26:
 154:motor.c       ****        }
 155:motor.c       ****     
 156:motor.c       ****     STEP_COUNT_WriteCounter(10000);
 445              		.loc 1 156 0
 446 005c 154B     		ldr	r3, .L28+12
 447 005e 1800     		movs	r0, r3
 448 0060 FFF7FEFF 		bl	STEP_COUNT_WriteCounter
 157:motor.c       ****     mot_start=STEP_COUNT_ReadCounter();
 449              		.loc 1 157 0
 450 0064 FFF7FEFF 		bl	STEP_COUNT_ReadCounter
 451 0068 0300     		movs	r3, r0
 452 006a 1A00     		movs	r2, r3
 453 006c 124B     		ldr	r3, .L28+16
 454 006e 1A60     		str	r2, [r3]
 158:motor.c       ****     mot_target = mot_start +steps;
 455              		.loc 1 158 0
 456 0070 114B     		ldr	r3, .L28+16
 457 0072 1A68     		ldr	r2, [r3]
 458 0074 7B68     		ldr	r3, [r7, #4]
 459 0076 D218     		adds	r2, r2, r3
 460 0078 104B     		ldr	r3, .L28+20
 461 007a 1A60     		str	r2, [r3]
 159:motor.c       ****     half_dist = mot_start +steps/2;
 462              		.loc 1 159 0
 463 007c 7B68     		ldr	r3, [r7, #4]
 464 007e 002B     		cmp	r3, #0
 465 0080 00DA     		bge	.L27
 466 0082 0133     		adds	r3, r3, #1
ARM GAS  C:\Users\ilya\AppData\Local\Temp\ccVJhMtK.s 			page 12


 467              	.L27:
 468 0084 5B10     		asrs	r3, r3, #1
 469 0086 1A00     		movs	r2, r3
 470 0088 0B4B     		ldr	r3, .L28+16
 471 008a 1B68     		ldr	r3, [r3]
 472 008c D218     		adds	r2, r2, r3
 473 008e 0C4B     		ldr	r3, .L28+24
 474 0090 1A60     		str	r2, [r3]
 160:motor.c       ****     active_count=0;
 475              		.loc 1 160 0
 476 0092 064B     		ldr	r3, .L28+4
 477 0094 0022     		movs	r2, #0
 478 0096 1A60     		str	r2, [r3]
 161:motor.c       ****     mot_active=1;
 479              		.loc 1 161 0
 480 0098 034B     		ldr	r3, .L28
 481 009a 0122     		movs	r2, #1
 482 009c 1A70     		strb	r2, [r3]
 162:motor.c       ****     return 1;
 483              		.loc 1 162 0
 484 009e 0123     		movs	r3, #1
 485              	.L23:
 163:motor.c       **** }
 486              		.loc 1 163 0
 487 00a0 1800     		movs	r0, r3
 488 00a2 BD46     		mov	sp, r7
 489 00a4 02B0     		add	sp, sp, #8
 490              		@ sp needed
 491 00a6 80BD     		pop	{r7, pc}
 492              	.L29:
 493              		.align	2
 494              	.L28:
 495 00a8 00000000 		.word	mot_active
 496 00ac 00000000 		.word	active_count
 497 00b0 00000000 		.word	mot_pos
 498 00b4 10270000 		.word	10000
 499 00b8 00000000 		.word	mot_start
 500 00bc 00000000 		.word	mot_target
 501 00c0 00000000 		.word	half_dist
 502              		.cfi_endproc
 503              	.LFE38:
 504              		.size	MotMoveRel, .-MotMoveRel
 505              		.comm	last_p,4,4
 506              		.comm	last_x,4,4
 507              		.section	.text.MotTask,"ax",%progbits
 508              		.align	2
 509              		.global	MotTask
 510              		.code	16
 511              		.thumb_func
 512              		.type	MotTask, %function
 513              	MotTask:
 514              	.LFB39:
 164:motor.c       **** int last_p, last_x;
 165:motor.c       **** int MotTask()
 166:motor.c       **** {
 515              		.loc 1 166 0
 516              		.cfi_startproc
ARM GAS  C:\Users\ilya\AppData\Local\Temp\ccVJhMtK.s 			page 13


 517              		@ args = 0, pretend = 0, frame = 8
 518              		@ frame_needed = 1, uses_anonymous_args = 0
 519 0000 80B5     		push	{r7, lr}
 520              		.cfi_def_cfa_offset 8
 521              		.cfi_offset 7, -8
 522              		.cfi_offset 14, -4
 523 0002 82B0     		sub	sp, sp, #8
 524              		.cfi_def_cfa_offset 16
 525 0004 00AF     		add	r7, sp, #0
 526              		.cfi_def_cfa_register 7
 167:motor.c       ****    int x,p;
 168:motor.c       ****     
 169:motor.c       ****    if (mot_active)
 527              		.loc 1 169 0
 528 0006 434B     		ldr	r3, .L41
 529 0008 1B78     		ldrb	r3, [r3]
 530 000a 002B     		cmp	r3, #0
 531 000c 00D1     		bne	.LCB405
 532 000e 7BE0     		b	.L31	@long jump
 533              	.LCB405:
 170:motor.c       ****        {
 171:motor.c       ****         active_count++;
 534              		.loc 1 171 0
 535 0010 414B     		ldr	r3, .L41+4
 536 0012 1B68     		ldr	r3, [r3]
 537 0014 5A1C     		adds	r2, r3, #1
 538 0016 404B     		ldr	r3, .L41+4
 539 0018 1A60     		str	r2, [r3]
 172:motor.c       ****         x=STEP_COUNT_ReadCounter();
 540              		.loc 1 172 0
 541 001a FFF7FEFF 		bl	STEP_COUNT_ReadCounter
 542 001e 0300     		movs	r3, r0
 543 0020 3B60     		str	r3, [r7]
 173:motor.c       ****         if ((active_count>MAX_ACTIVE)||(Comp_ISENSE_GetCompare()==1))
 544              		.loc 1 173 0
 545 0022 3D4B     		ldr	r3, .L41+4
 546 0024 1B68     		ldr	r3, [r3]
 547 0026 3D4A     		ldr	r2, .L41+8
 548 0028 9342     		cmp	r3, r2
 549 002a 04DC     		bgt	.L32
 550              		.loc 1 173 0 is_stmt 0 discriminator 1
 551 002c FFF7FEFF 		bl	Comp_ISENSE_GetCompare
 552 0030 0300     		movs	r3, r0
 553 0032 012B     		cmp	r3, #1
 554 0034 0ED1     		bne	.L33
 555              	.L32:
 174:motor.c       ****            {
 175:motor.c       ****             mot_active=0;
 556              		.loc 1 175 0 is_stmt 1
 557 0036 374B     		ldr	r3, .L41
 558 0038 0022     		movs	r2, #0
 559 003a 1A70     		strb	r2, [r3]
 176:motor.c       ****             PWM_M_WriteCompare1(0);
 560              		.loc 1 176 0
 561 003c 0020     		movs	r0, #0
 562 003e FFF7FEFF 		bl	PWM_M_WriteCompare1
 177:motor.c       ****             if ((Comp_ISENSE_GetCompare()==1))
ARM GAS  C:\Users\ilya\AppData\Local\Temp\ccVJhMtK.s 			page 14


 563              		.loc 1 177 0
 564 0042 FFF7FEFF 		bl	Comp_ISENSE_GetCompare
 565 0046 0300     		movs	r3, r0
 566 0048 012B     		cmp	r3, #1
 567 004a 01D1     		bne	.L34
 568              	.LBB2:
 178:motor.c       ****                {
 179:motor.c       ****                 void ShowMotError();
 180:motor.c       ****                 ShowMotError();
 569              		.loc 1 180 0
 570 004c FFF7FEFF 		bl	ShowMotError
 571              	.L34:
 572              	.LBE2:
 181:motor.c       ****                 }
 182:motor.c       ****             
 183:motor.c       ****             return 0;
 573              		.loc 1 183 0
 574 0050 0023     		movs	r3, #0
 575 0052 5AE0     		b	.L35
 576              	.L33:
 184:motor.c       ****            }
 185:motor.c       ****        
 186:motor.c       ****        if (x<half_dist)
 577              		.loc 1 186 0
 578 0054 324B     		ldr	r3, .L41+12
 579 0056 1B68     		ldr	r3, [r3]
 580 0058 3A68     		ldr	r2, [r7]
 581 005a 9A42     		cmp	r2, r3
 582 005c 17DA     		bge	.L36
 187:motor.c       ****             p = isqrt((x-mot_start)*ACCEL*2)+MIN_SPEED_ACCEL;
 583              		.loc 1 187 0
 584 005e 314B     		ldr	r3, .L41+16
 585 0060 1B68     		ldr	r3, [r3]
 586 0062 3A68     		ldr	r2, [r7]
 587 0064 D21A     		subs	r2, r2, r3
 588 0066 304B     		ldr	r3, .L41+20
 589 0068 9B7B     		ldrb	r3, [r3, #14]
 590 006a DBB2     		uxtb	r3, r3
 591 006c 1900     		movs	r1, r3
 592 006e 0B00     		movs	r3, r1
 593 0070 9B00     		lsls	r3, r3, #2
 594 0072 5B18     		adds	r3, r3, r1
 595 0074 9B00     		lsls	r3, r3, #2
 596 0076 5343     		muls	r3, r2
 597 0078 1800     		movs	r0, r3
 598 007a FFF7FEFF 		bl	isqrt
 599 007e 0300     		movs	r3, r0
 600 0080 1A00     		movs	r2, r3
 601 0082 294B     		ldr	r3, .L41+20
 602 0084 1B7B     		ldrb	r3, [r3, #12]
 603 0086 DBB2     		uxtb	r3, r3
 604 0088 D318     		adds	r3, r2, r3
 605 008a 7B60     		str	r3, [r7, #4]
 606 008c 1FE0     		b	.L37
 607              	.L36:
 188:motor.c       ****        else
 189:motor.c       ****                if (mot_target-x>0)
ARM GAS  C:\Users\ilya\AppData\Local\Temp\ccVJhMtK.s 			page 15


 608              		.loc 1 189 0
 609 008e 274B     		ldr	r3, .L41+24
 610 0090 1A68     		ldr	r2, [r3]
 611 0092 3B68     		ldr	r3, [r7]
 612 0094 D31A     		subs	r3, r2, r3
 613 0096 002B     		cmp	r3, #0
 614 0098 17DD     		ble	.L38
 190:motor.c       ****                     p = isqrt((mot_target-x)*ACCEL*2)+MIN_SPEED_DECEL;
 615              		.loc 1 190 0
 616 009a 244B     		ldr	r3, .L41+24
 617 009c 1A68     		ldr	r2, [r3]
 618 009e 3B68     		ldr	r3, [r7]
 619 00a0 D21A     		subs	r2, r2, r3
 620 00a2 214B     		ldr	r3, .L41+20
 621 00a4 9B7B     		ldrb	r3, [r3, #14]
 622 00a6 DBB2     		uxtb	r3, r3
 623 00a8 1900     		movs	r1, r3
 624 00aa 0B00     		movs	r3, r1
 625 00ac 9B00     		lsls	r3, r3, #2
 626 00ae 5B18     		adds	r3, r3, r1
 627 00b0 9B00     		lsls	r3, r3, #2
 628 00b2 5343     		muls	r3, r2
 629 00b4 1800     		movs	r0, r3
 630 00b6 FFF7FEFF 		bl	isqrt
 631 00ba 0300     		movs	r3, r0
 632 00bc 1A00     		movs	r2, r3
 633 00be 1A4B     		ldr	r3, .L41+20
 634 00c0 5B7B     		ldrb	r3, [r3, #13]
 635 00c2 DBB2     		uxtb	r3, r3
 636 00c4 D318     		adds	r3, r2, r3
 637 00c6 7B60     		str	r3, [r7, #4]
 638 00c8 01E0     		b	.L37
 639              	.L38:
 191:motor.c       ****                else
 192:motor.c       ****                     p=0;
 640              		.loc 1 192 0
 641 00ca 0023     		movs	r3, #0
 642 00cc 7B60     		str	r3, [r7, #4]
 643              	.L37:
 193:motor.c       ****        if (p>MAX_V)
 644              		.loc 1 193 0
 645 00ce 7B68     		ldr	r3, [r7, #4]
 646 00d0 FA2B     		cmp	r3, #250
 647 00d2 01DD     		ble	.L39
 194:motor.c       ****           p=MAX_V;
 648              		.loc 1 194 0
 649 00d4 FA23     		movs	r3, #250
 650 00d6 7B60     		str	r3, [r7, #4]
 651              	.L39:
 195:motor.c       ****        PWM_M_WriteCompare1(p);
 652              		.loc 1 195 0
 653 00d8 7B68     		ldr	r3, [r7, #4]
 654 00da DBB2     		uxtb	r3, r3
 655 00dc 1800     		movs	r0, r3
 656 00de FFF7FEFF 		bl	PWM_M_WriteCompare1
 196:motor.c       ****        if (x>=mot_target)
 657              		.loc 1 196 0
ARM GAS  C:\Users\ilya\AppData\Local\Temp\ccVJhMtK.s 			page 16


 658 00e2 124B     		ldr	r3, .L41+24
 659 00e4 1B68     		ldr	r3, [r3]
 660 00e6 3A68     		ldr	r2, [r7]
 661 00e8 9A42     		cmp	r2, r3
 662 00ea 05DB     		blt	.L40
 197:motor.c       ****           {
 198:motor.c       ****           mot_active=0;
 663              		.loc 1 198 0
 664 00ec 094B     		ldr	r3, .L41
 665 00ee 0022     		movs	r2, #0
 666 00f0 1A70     		strb	r2, [r3]
 199:motor.c       ****           PWM_M_WriteCompare1(0);
 667              		.loc 1 199 0
 668 00f2 0020     		movs	r0, #0
 669 00f4 FFF7FEFF 		bl	PWM_M_WriteCompare1
 670              	.L40:
 200:motor.c       ****           }
 201:motor.c       ****          last_p=p;
 671              		.loc 1 201 0
 672 00f8 0D4B     		ldr	r3, .L41+28
 673 00fa 7A68     		ldr	r2, [r7, #4]
 674 00fc 1A60     		str	r2, [r3]
 202:motor.c       ****          last_x=x;
 675              		.loc 1 202 0
 676 00fe 0D4B     		ldr	r3, .L41+32
 677 0100 3A68     		ldr	r2, [r7]
 678 0102 1A60     		str	r2, [r3]
 203:motor.c       ****         return 1;
 679              		.loc 1 203 0
 680 0104 0123     		movs	r3, #1
 681 0106 00E0     		b	.L35
 682              	.L31:
 204:motor.c       ****      }
 205:motor.c       **** 
 206:motor.c       ****     return 0;
 683              		.loc 1 206 0
 684 0108 0023     		movs	r3, #0
 685              	.L35:
 207:motor.c       **** }
 686              		.loc 1 207 0
 687 010a 1800     		movs	r0, r3
 688 010c BD46     		mov	sp, r7
 689 010e 02B0     		add	sp, sp, #8
 690              		@ sp needed
 691 0110 80BD     		pop	{r7, pc}
 692              	.L42:
 693 0112 C046     		.align	2
 694              	.L41:
 695 0114 00000000 		.word	mot_active
 696 0118 00000000 		.word	active_count
 697 011c 20A10700 		.word	500000
 698 0120 00000000 		.word	half_dist
 699 0124 00000000 		.word	mot_start
 700 0128 00000000 		.word	set
 701 012c 00000000 		.word	mot_target
 702 0130 00000000 		.word	last_p
 703 0134 00000000 		.word	last_x
ARM GAS  C:\Users\ilya\AppData\Local\Temp\ccVJhMtK.s 			page 17


 704              		.cfi_endproc
 705              	.LFE39:
 706              		.size	MotTask, .-MotTask
 707              		.text
 708              	.Letext0:
 709              		.file 2 "settings.h"
 710              		.file 3 "Generated_Source\\PSoC4/cytypes.h"