ARM GAS  C:\Users\ilya\AppData\Local\Temp\ccGij5YZ.s 			page 1


   1              		.syntax unified
   2              		.cpu cortex-m0
   3              		.fpu softvfp
   4              		.eabi_attribute 20, 1
   5              		.eabi_attribute 21, 1
   6              		.eabi_attribute 23, 3
   7              		.eabi_attribute 24, 1
   8              		.eabi_attribute 25, 1
   9              		.eabi_attribute 26, 1
  10              		.eabi_attribute 30, 6
  11              		.eabi_attribute 34, 0
  12              		.eabi_attribute 18, 4
  13              		.thumb
  14              		.syntax unified
  15              		.file	"tof_coms.c"
  16              		.text
  17              	.Ltext0:
  18              		.cfi_sections	.debug_frame
  19              		.section	.text.myprintf,"ax",%progbits
  20              		.align	2
  21              		.global	myprintf
  22              		.code	16
  23              		.thumb_func
  24              		.type	myprintf, %function
  25              	myprintf:
  26              	.LFB35:
  27              		.file 1 "tof_coms.c"
   1:tof_coms.c    **** /* ========================================
   2:tof_coms.c    ****  *
   3:tof_coms.c    ****  * Copyright YOUR COMPANY, THE YEAR
   4:tof_coms.c    ****  * All Rights Reserved
   5:tof_coms.c    ****  * UNPUBLISHED, LICENSED SOFTWARE.
   6:tof_coms.c    ****  *
   7:tof_coms.c    ****  * CONFIDENTIAL AND PROPRIETARY INFORMATION
   8:tof_coms.c    ****  * WHICH IS THE PROPERTY OF your company.
   9:tof_coms.c    ****  *
  10:tof_coms.c    ****  * ========================================
  11:tof_coms.c    **** */
  12:tof_coms.c    **** /*
  13:tof_coms.c    ****  * COPYRIGHT (C) STMicroelectronics 2015. All rights reserved.
  14:tof_coms.c    ****  *
  15:tof_coms.c    ****  * This software is the confidential and proprietary information of
  16:tof_coms.c    ****  * STMicroelectronics ("Confidential Information").  You shall not
  17:tof_coms.c    ****  * disclose such Confidential Information and shall use it only in
  18:tof_coms.c    ****  * accordance with the terms of the license agreement you entered into
  19:tof_coms.c    ****  * with STMicroelectronics
  20:tof_coms.c    ****  *
  21:tof_coms.c    ****  * Programming Golden Rule: Keep it Simple!
  22:tof_coms.c    ****  *
  23:tof_coms.c    ****  */
  24:tof_coms.c    **** 
  25:tof_coms.c    **** /*!
  26:tof_coms.c    ****  * \file   VL53L0X_platform.c
  27:tof_coms.c    ****  * \brief  Code function defintions for Doppler Testchip Platform Layer
  28:tof_coms.c    ****  *
  29:tof_coms.c    ****  */
  30:tof_coms.c    **** 
ARM GAS  C:\Users\ilya\AppData\Local\Temp\ccGij5YZ.s 			page 2


  31:tof_coms.c    **** 
  32:tof_coms.c    **** #include <stdio.h>    // sprintf(), vsnprintf(), printf()
  33:tof_coms.c    **** 
  34:tof_coms.c    **** #ifdef _MSC_VER
  35:tof_coms.c    **** #define snprintf _snprintf
  36:tof_coms.c    **** #endif
  37:tof_coms.c    **** 
  38:tof_coms.c    **** #include "vl53l0x_i2c_platform.h"
  39:tof_coms.c    **** #include "vl53l0x_def.h"
  40:tof_coms.c    **** 
  41:tof_coms.c    **** #include <stdio.h>
  42:tof_coms.c    **** #include <stdlib.h>
  43:tof_coms.c    **** #include <project.h>
  44:tof_coms.c    **** 
  45:tof_coms.c    **** #define DWORD int
  46:tof_coms.c    **** #define TOF_BASE I2C_OPENCORES_0_BASE
  47:tof_coms.c    **** //#include "comms_platform.h"
  48:tof_coms.c    **** 
  49:tof_coms.c    **** #include "vl53l0x_platform_log.h"
  50:tof_coms.c    **** 
  51:tof_coms.c    **** #ifdef VL53L0X_LOG_ENABLE
  52:tof_coms.c    **** #define trace_print(level, ...) trace_print_module_function(TRACE_MODULE_PLATFORM, level, TRACE_FUN
  53:tof_coms.c    **** #define trace_i2c(...) trace_print_module_function(TRACE_MODULE_NONE, TRACE_LEVEL_NONE, TRACE_FUNCT
  54:tof_coms.c    **** #endif
  55:tof_coms.c    **** 
  56:tof_coms.c    **** 
  57:tof_coms.c    **** #define printf myprintf
  58:tof_coms.c    **** 
  59:tof_coms.c    **** 
  60:tof_coms.c    **** void myprintf(const char *fmt, ...)
  61:tof_coms.c    **** 	{
  28              		.loc 1 61 0
  29              		.cfi_startproc
  30              		@ args = 4, pretend = 16, frame = 0
  31              		@ frame_needed = 1, uses_anonymous_args = 1
  32 0000 0FB4     		push	{r0, r1, r2, r3}
  33              		.cfi_def_cfa_offset 16
  34 0002 80B5     		push	{r7, lr}
  35              		.cfi_def_cfa_offset 24
  36              		.cfi_offset 7, -24
  37              		.cfi_offset 14, -20
  38 0004 00AF     		add	r7, sp, #0
  39              		.cfi_def_cfa_register 7
  62:tof_coms.c    **** 	}
  40              		.loc 1 62 0
  41 0006 C046     		nop
  42 0008 BD46     		mov	sp, r7
  43              		@ sp needed
  44 000a 80BC     		pop	{r7}
  45 000c 08BC     		pop	{r3}
  46 000e 04B0     		add	sp, sp, #16
  47 0010 1847     		bx	r3
  48              		.cfi_endproc
  49              	.LFE35:
  50              		.size	myprintf, .-myprintf
  51              		.comm	debug_string,256,4
  52              		.global	cached_page
ARM GAS  C:\Users\ilya\AppData\Local\Temp\ccGij5YZ.s 			page 3


  53 0012 C046     		.bss
  54              		.type	cached_page, %object
  55              		.size	cached_page, 1
  56              	cached_page:
  57 0000 00       		.space	1
  58 0001 000000   		.align	2
  59              	_dataBytes:
  60 0004 00000000 		.space	100
  60      00000000 
  60      00000000 
  60      00000000 
  60      00000000 
  61              		.section	.text._check_min_version,"ax",%progbits
  62              		.align	2
  63              		.global	_check_min_version
  64              		.code	16
  65              		.thumb_func
  66              		.type	_check_min_version, %function
  67              	_check_min_version:
  68              	.LFB36:
  63:tof_coms.c    **** char  debug_string[VL53L0X_MAX_STRING_LENGTH_PLT];
  64:tof_coms.c    **** 
  65:tof_coms.c    **** uint8_t cached_page = 0;
  66:tof_coms.c    **** 
  67:tof_coms.c    **** #define MIN_COMMS_VERSION_MAJOR     1
  68:tof_coms.c    **** #define MIN_COMMS_VERSION_MINOR     8
  69:tof_coms.c    **** #define MIN_COMMS_VERSION_BUILD     1
  70:tof_coms.c    **** #define MIN_COMMS_VERSION_REVISION  0
  71:tof_coms.c    **** 
  72:tof_coms.c    **** 
  73:tof_coms.c    **** #define MAX_STR_SIZE 255
  74:tof_coms.c    **** #define MAX_MSG_SIZE 100
  75:tof_coms.c    **** #define MAX_DEVICES 4
  76:tof_coms.c    **** #define STATUS_OK              0x00
  77:tof_coms.c    **** #define STATUS_FAIL            0x01
  78:tof_coms.c    **** 
  79:tof_coms.c    **** static unsigned char _dataBytes[MAX_MSG_SIZE];
  80:tof_coms.c    **** 
  81:tof_coms.c    **** bool_t _check_min_version(void)
  82:tof_coms.c    **** {
  69              		.loc 1 82 0
  70              		.cfi_startproc
  71              		@ args = 0, pretend = 0, frame = 0
  72              		@ frame_needed = 1, uses_anonymous_args = 0
  73 0000 80B5     		push	{r7, lr}
  74              		.cfi_def_cfa_offset 8
  75              		.cfi_offset 7, -8
  76              		.cfi_offset 14, -4
  77 0002 00AF     		add	r7, sp, #0
  78              		.cfi_def_cfa_register 7
  83:tof_coms.c    ****     return 1;
  79              		.loc 1 83 0
  80 0004 0123     		movs	r3, #1
  84:tof_coms.c    **** }
  81              		.loc 1 84 0
  82 0006 1800     		movs	r0, r3
  83 0008 BD46     		mov	sp, r7
ARM GAS  C:\Users\ilya\AppData\Local\Temp\ccGij5YZ.s 			page 4


  84              		@ sp needed
  85 000a 80BD     		pop	{r7, pc}
  86              		.cfi_endproc
  87              	.LFE36:
  88              		.size	_check_min_version, .-_check_min_version
  89              		.section	.text.VL53L0X_i2c_init,"ax",%progbits
  90              		.align	2
  91              		.global	VL53L0X_i2c_init
  92              		.code	16
  93              		.thumb_func
  94              		.type	VL53L0X_i2c_init, %function
  95              	VL53L0X_i2c_init:
  96              	.LFB37:
  85:tof_coms.c    **** 
  86:tof_coms.c    **** int VL53L0X_i2c_init(char *comPortStr, unsigned int baudRate) // mja
  87:tof_coms.c    **** {
  97              		.loc 1 87 0
  98              		.cfi_startproc
  99              		@ args = 0, pretend = 0, frame = 8
 100              		@ frame_needed = 1, uses_anonymous_args = 0
 101 0000 80B5     		push	{r7, lr}
 102              		.cfi_def_cfa_offset 8
 103              		.cfi_offset 7, -8
 104              		.cfi_offset 14, -4
 105 0002 82B0     		sub	sp, sp, #8
 106              		.cfi_def_cfa_offset 16
 107 0004 00AF     		add	r7, sp, #0
 108              		.cfi_def_cfa_register 7
 109 0006 7860     		str	r0, [r7, #4]
 110 0008 3960     		str	r1, [r7]
  88:tof_coms.c    ****    
  89:tof_coms.c    ****     return STATUS_OK;
 111              		.loc 1 89 0
 112 000a 0023     		movs	r3, #0
  90:tof_coms.c    **** }
 113              		.loc 1 90 0
 114 000c 1800     		movs	r0, r3
 115 000e BD46     		mov	sp, r7
 116 0010 02B0     		add	sp, sp, #8
 117              		@ sp needed
 118 0012 80BD     		pop	{r7, pc}
 119              		.cfi_endproc
 120              	.LFE37:
 121              		.size	VL53L0X_i2c_init, .-VL53L0X_i2c_init
 122              		.section	.text.VL53L0X_comms_close,"ax",%progbits
 123              		.align	2
 124              		.global	VL53L0X_comms_close
 125              		.code	16
 126              		.thumb_func
 127              		.type	VL53L0X_comms_close, %function
 128              	VL53L0X_comms_close:
 129              	.LFB38:
  91:tof_coms.c    **** int32_t VL53L0X_comms_close(void)
  92:tof_coms.c    **** {
 130              		.loc 1 92 0
 131              		.cfi_startproc
 132              		@ args = 0, pretend = 0, frame = 0
ARM GAS  C:\Users\ilya\AppData\Local\Temp\ccGij5YZ.s 			page 5


 133              		@ frame_needed = 1, uses_anonymous_args = 0
 134 0000 80B5     		push	{r7, lr}
 135              		.cfi_def_cfa_offset 8
 136              		.cfi_offset 7, -8
 137              		.cfi_offset 14, -4
 138 0002 00AF     		add	r7, sp, #0
 139              		.cfi_def_cfa_register 7
  93:tof_coms.c    ****     return STATUS_OK;
 140              		.loc 1 93 0
 141 0004 0023     		movs	r3, #0
  94:tof_coms.c    **** }
 142              		.loc 1 94 0
 143 0006 1800     		movs	r0, r3
 144 0008 BD46     		mov	sp, r7
 145              		@ sp needed
 146 000a 80BD     		pop	{r7, pc}
 147              		.cfi_endproc
 148              	.LFE38:
 149              		.size	VL53L0X_comms_close, .-VL53L0X_comms_close
 150              		.section	.text.VL53L0X_write_multi,"ax",%progbits
 151              		.align	2
 152              		.global	VL53L0X_write_multi
 153              		.code	16
 154              		.thumb_func
 155              		.type	VL53L0X_write_multi, %function
 156              	VL53L0X_write_multi:
 157              	.LFB39:
  95:tof_coms.c    **** 
  96:tof_coms.c    **** int32_t VL53L0X_write_multi(uint8_t address, uint8_t reg, uint8_t *pdata, int32_t count)
  97:tof_coms.c    **** {
 158              		.loc 1 97 0
 159              		.cfi_startproc
 160              		@ args = 0, pretend = 0, frame = 40
 161              		@ frame_needed = 1, uses_anonymous_args = 0
 162 0000 80B5     		push	{r7, lr}
 163              		.cfi_def_cfa_offset 8
 164              		.cfi_offset 7, -8
 165              		.cfi_offset 14, -4
 166 0002 8AB0     		sub	sp, sp, #40
 167              		.cfi_def_cfa_offset 48
 168 0004 00AF     		add	r7, sp, #0
 169              		.cfi_def_cfa_register 7
 170 0006 BA60     		str	r2, [r7, #8]
 171 0008 7B60     		str	r3, [r7, #4]
 172 000a 0F23     		movs	r3, #15
 173 000c FB18     		adds	r3, r7, r3
 174 000e 021C     		adds	r2, r0, #0
 175 0010 1A70     		strb	r2, [r3]
 176 0012 0E23     		movs	r3, #14
 177 0014 FB18     		adds	r3, r7, r3
 178 0016 0A1C     		adds	r2, r1, #0
 179 0018 1A70     		strb	r2, [r3]
  98:tof_coms.c    ****     int32_t status = STATUS_OK;
 180              		.loc 1 98 0
 181 001a 0023     		movs	r3, #0
 182 001c 3B62     		str	r3, [r7, #32]
  99:tof_coms.c    ****     int c;
ARM GAS  C:\Users\ilya\AppData\Local\Temp\ccGij5YZ.s 			page 6


 100:tof_coms.c    **** 
 101:tof_coms.c    ****     unsigned int retries = 3;
 183              		.loc 1 101 0
 184 001e 0323     		movs	r3, #3
 185 0020 FB61     		str	r3, [r7, #28]
 102:tof_coms.c    ****     uint8_t *pWriteData    = pdata;
 186              		.loc 1 102 0
 187 0022 BB68     		ldr	r3, [r7, #8]
 188 0024 BB61     		str	r3, [r7, #24]
 103:tof_coms.c    ****     uint8_t writeDataCount = count;
 189              		.loc 1 103 0
 190 0026 1723     		movs	r3, #23
 191 0028 FB18     		adds	r3, r7, r3
 192 002a 7A68     		ldr	r2, [r7, #4]
 193 002c 1A70     		strb	r2, [r3]
 104:tof_coms.c    ****     uint8_t writeReg       = reg;
 194              		.loc 1 104 0
 195 002e 1623     		movs	r3, #22
 196 0030 FB18     		adds	r3, r7, r3
 197 0032 0E22     		movs	r2, #14
 198 0034 BA18     		adds	r2, r7, r2
 199 0036 1278     		ldrb	r2, [r2]
 200 0038 1A70     		strb	r2, [r3]
 105:tof_coms.c    ****     int r;
 106:tof_coms.c    **** 
 107:tof_coms.c    ****     
 108:tof_coms.c    ****     r=I2C_LED_I2CMasterSendStart(address,0);
 201              		.loc 1 108 0
 202 003a 0F23     		movs	r3, #15
 203 003c FB18     		adds	r3, r7, r3
 204 003e 1B78     		ldrb	r3, [r3]
 205 0040 0021     		movs	r1, #0
 206 0042 1800     		movs	r0, r3
 207 0044 FFF7FEFF 		bl	I2C_LED_I2CMasterSendStart
 208 0048 0300     		movs	r3, r0
 209 004a 3B61     		str	r3, [r7, #16]
 109:tof_coms.c    ****     if(r!=0)
 210              		.loc 1 109 0
 211 004c 3B69     		ldr	r3, [r7, #16]
 212 004e 002B     		cmp	r3, #0
 213 0050 01D0     		beq	.L9
 110:tof_coms.c    ****         return 1;
 214              		.loc 1 110 0
 215 0052 0123     		movs	r3, #1
 216 0054 19E0     		b	.L10
 217              	.L9:
 111:tof_coms.c    ****     
 112:tof_coms.c    ****     I2C_LED_I2CMasterWriteByte(reg);
 218              		.loc 1 112 0
 219 0056 0E23     		movs	r3, #14
 220 0058 FB18     		adds	r3, r7, r3
 221 005a 1B78     		ldrb	r3, [r3]
 222 005c 1800     		movs	r0, r3
 223 005e FFF7FEFF 		bl	I2C_LED_I2CMasterWriteByte
 113:tof_coms.c    ****     for (c=0;c<count;c++)
 224              		.loc 1 113 0
 225 0062 0023     		movs	r3, #0
ARM GAS  C:\Users\ilya\AppData\Local\Temp\ccGij5YZ.s 			page 7


 226 0064 7B62     		str	r3, [r7, #36]
 227 0066 09E0     		b	.L11
 228              	.L12:
 114:tof_coms.c    ****          I2C_LED_I2CMasterWriteByte(*pdata++);
 229              		.loc 1 114 0 discriminator 3
 230 0068 BB68     		ldr	r3, [r7, #8]
 231 006a 5A1C     		adds	r2, r3, #1
 232 006c BA60     		str	r2, [r7, #8]
 233 006e 1B78     		ldrb	r3, [r3]
 234 0070 1800     		movs	r0, r3
 235 0072 FFF7FEFF 		bl	I2C_LED_I2CMasterWriteByte
 113:tof_coms.c    ****     for (c=0;c<count;c++)
 236              		.loc 1 113 0 discriminator 3
 237 0076 7B6A     		ldr	r3, [r7, #36]
 238 0078 0133     		adds	r3, r3, #1
 239 007a 7B62     		str	r3, [r7, #36]
 240              	.L11:
 113:tof_coms.c    ****     for (c=0;c<count;c++)
 241              		.loc 1 113 0 is_stmt 0 discriminator 1
 242 007c 7A6A     		ldr	r2, [r7, #36]
 243 007e 7B68     		ldr	r3, [r7, #4]
 244 0080 9A42     		cmp	r2, r3
 245 0082 F1DB     		blt	.L12
 115:tof_coms.c    ****     
 116:tof_coms.c    ****     I2C_LED_I2CMasterSendStop();
 246              		.loc 1 116 0 is_stmt 1
 247 0084 FFF7FEFF 		bl	I2C_LED_I2CMasterSendStop
 117:tof_coms.c    ****     
 118:tof_coms.c    ****     return STATUS_OK;
 248              		.loc 1 118 0
 249 0088 0023     		movs	r3, #0
 250              	.L10:
 119:tof_coms.c    **** }
 251              		.loc 1 119 0
 252 008a 1800     		movs	r0, r3
 253 008c BD46     		mov	sp, r7
 254 008e 0AB0     		add	sp, sp, #40
 255              		@ sp needed
 256 0090 80BD     		pop	{r7, pc}
 257              		.cfi_endproc
 258              	.LFE39:
 259              		.size	VL53L0X_write_multi, .-VL53L0X_write_multi
 260 0092 C046     		.section	.text.VL53L0X_read_multi,"ax",%progbits
 261              		.align	2
 262              		.global	VL53L0X_read_multi
 263              		.code	16
 264              		.thumb_func
 265              		.type	VL53L0X_read_multi, %function
 266              	VL53L0X_read_multi:
 267              	.LFB40:
 120:tof_coms.c    **** 
 121:tof_coms.c    **** int32_t VL53L0X_read_multi(uint8_t address, uint8_t index, uint8_t *pdata, int32_t count)
 122:tof_coms.c    **** {
 268              		.loc 1 122 0
 269              		.cfi_startproc
 270              		@ args = 0, pretend = 0, frame = 24
 271              		@ frame_needed = 1, uses_anonymous_args = 0
ARM GAS  C:\Users\ilya\AppData\Local\Temp\ccGij5YZ.s 			page 8


 272 0000 90B5     		push	{r4, r7, lr}
 273              		.cfi_def_cfa_offset 12
 274              		.cfi_offset 4, -12
 275              		.cfi_offset 7, -8
 276              		.cfi_offset 14, -4
 277 0002 87B0     		sub	sp, sp, #28
 278              		.cfi_def_cfa_offset 40
 279 0004 00AF     		add	r7, sp, #0
 280              		.cfi_def_cfa_register 7
 281 0006 BA60     		str	r2, [r7, #8]
 282 0008 7B60     		str	r3, [r7, #4]
 283 000a 0F23     		movs	r3, #15
 284 000c FB18     		adds	r3, r7, r3
 285 000e 021C     		adds	r2, r0, #0
 286 0010 1A70     		strb	r2, [r3]
 287 0012 0E23     		movs	r3, #14
 288 0014 FB18     		adds	r3, r7, r3
 289 0016 0A1C     		adds	r2, r1, #0
 290 0018 1A70     		strb	r2, [r3]
 123:tof_coms.c    ****     int c;
 124:tof_coms.c    ****     int r;
 125:tof_coms.c    ****    
 126:tof_coms.c    ****         
 127:tof_coms.c    ****         
 128:tof_coms.c    ****     r=I2C_LED_I2CMasterSendStart(address,0);
 291              		.loc 1 128 0
 292 001a 0F23     		movs	r3, #15
 293 001c FB18     		adds	r3, r7, r3
 294 001e 1B78     		ldrb	r3, [r3]
 295 0020 0021     		movs	r1, #0
 296 0022 1800     		movs	r0, r3
 297 0024 FFF7FEFF 		bl	I2C_LED_I2CMasterSendStart
 298 0028 0300     		movs	r3, r0
 299 002a 3B61     		str	r3, [r7, #16]
 129:tof_coms.c    ****     if(r!=0)
 300              		.loc 1 129 0
 301 002c 3B69     		ldr	r3, [r7, #16]
 302 002e 002B     		cmp	r3, #0
 303 0030 01D0     		beq	.L14
 130:tof_coms.c    ****         return 1;
 304              		.loc 1 130 0
 305 0032 0123     		movs	r3, #1
 306 0034 22E0     		b	.L15
 307              	.L14:
 131:tof_coms.c    ****     
 132:tof_coms.c    ****     I2C_LED_I2CMasterWriteByte(index);
 308              		.loc 1 132 0
 309 0036 0E23     		movs	r3, #14
 310 0038 FB18     		adds	r3, r7, r3
 311 003a 1B78     		ldrb	r3, [r3]
 312 003c 1800     		movs	r0, r3
 313 003e FFF7FEFF 		bl	I2C_LED_I2CMasterWriteByte
 133:tof_coms.c    ****     I2C_LED_I2CMasterSendRestart(address,1);
 314              		.loc 1 133 0
 315 0042 0F23     		movs	r3, #15
 316 0044 FB18     		adds	r3, r7, r3
 317 0046 1B78     		ldrb	r3, [r3]
ARM GAS  C:\Users\ilya\AppData\Local\Temp\ccGij5YZ.s 			page 9


 318 0048 0121     		movs	r1, #1
 319 004a 1800     		movs	r0, r3
 320 004c FFF7FEFF 		bl	I2C_LED_I2CMasterSendRestart
 134:tof_coms.c    ****     for (c=0;c<count;c++)
 321              		.loc 1 134 0
 322 0050 0023     		movs	r3, #0
 323 0052 7B61     		str	r3, [r7, #20]
 324 0054 0BE0     		b	.L16
 325              	.L17:
 135:tof_coms.c    ****           *pdata++=I2C_LED_I2CMasterReadByte( I2C_LED_I2C_ACK_DATA);
 326              		.loc 1 135 0 discriminator 3
 327 0056 BC68     		ldr	r4, [r7, #8]
 328 0058 631C     		adds	r3, r4, #1
 329 005a BB60     		str	r3, [r7, #8]
 330 005c 0020     		movs	r0, #0
 331 005e FFF7FEFF 		bl	I2C_LED_I2CMasterReadByte
 332 0062 0300     		movs	r3, r0
 333 0064 DBB2     		uxtb	r3, r3
 334 0066 2370     		strb	r3, [r4]
 134:tof_coms.c    ****     for (c=0;c<count;c++)
 335              		.loc 1 134 0 discriminator 3
 336 0068 7B69     		ldr	r3, [r7, #20]
 337 006a 0133     		adds	r3, r3, #1
 338 006c 7B61     		str	r3, [r7, #20]
 339              	.L16:
 134:tof_coms.c    ****     for (c=0;c<count;c++)
 340              		.loc 1 134 0 is_stmt 0 discriminator 1
 341 006e 7A69     		ldr	r2, [r7, #20]
 342 0070 7B68     		ldr	r3, [r7, #4]
 343 0072 9A42     		cmp	r2, r3
 344 0074 EFDB     		blt	.L17
 136:tof_coms.c    ****     
 137:tof_coms.c    ****     I2C_LED_I2CMasterSendStop();
 345              		.loc 1 137 0 is_stmt 1
 346 0076 FFF7FEFF 		bl	I2C_LED_I2CMasterSendStop
 138:tof_coms.c    ****     
 139:tof_coms.c    ****     return STATUS_OK;
 347              		.loc 1 139 0
 348 007a 0023     		movs	r3, #0
 349              	.L15:
 140:tof_coms.c    **** }
 350              		.loc 1 140 0
 351 007c 1800     		movs	r0, r3
 352 007e BD46     		mov	sp, r7
 353 0080 07B0     		add	sp, sp, #28
 354              		@ sp needed
 355 0082 90BD     		pop	{r4, r7, pc}
 356              		.cfi_endproc
 357              	.LFE40:
 358              		.size	VL53L0X_read_multi, .-VL53L0X_read_multi
 359              		.section	.text.VL53L0X_write_byte,"ax",%progbits
 360              		.align	2
 361              		.global	VL53L0X_write_byte
 362              		.code	16
 363              		.thumb_func
 364              		.type	VL53L0X_write_byte, %function
 365              	VL53L0X_write_byte:
ARM GAS  C:\Users\ilya\AppData\Local\Temp\ccGij5YZ.s 			page 10


 366              	.LFB41:
 141:tof_coms.c    **** 
 142:tof_coms.c    **** 
 143:tof_coms.c    **** int32_t VL53L0X_write_byte(uint8_t address, uint8_t index, uint8_t data)
 144:tof_coms.c    **** {
 367              		.loc 1 144 0
 368              		.cfi_startproc
 369              		@ args = 0, pretend = 0, frame = 16
 370              		@ frame_needed = 1, uses_anonymous_args = 0
 371 0000 90B5     		push	{r4, r7, lr}
 372              		.cfi_def_cfa_offset 12
 373              		.cfi_offset 4, -12
 374              		.cfi_offset 7, -8
 375              		.cfi_offset 14, -4
 376 0002 85B0     		sub	sp, sp, #20
 377              		.cfi_def_cfa_offset 32
 378 0004 00AF     		add	r7, sp, #0
 379              		.cfi_def_cfa_register 7
 380 0006 0400     		movs	r4, r0
 381 0008 0800     		movs	r0, r1
 382 000a 1100     		movs	r1, r2
 383 000c FB1D     		adds	r3, r7, #7
 384 000e 221C     		adds	r2, r4, #0
 385 0010 1A70     		strb	r2, [r3]
 386 0012 BB1D     		adds	r3, r7, #6
 387 0014 021C     		adds	r2, r0, #0
 388 0016 1A70     		strb	r2, [r3]
 389 0018 7B1D     		adds	r3, r7, #5
 390 001a 0A1C     		adds	r2, r1, #0
 391 001c 1A70     		strb	r2, [r3]
 145:tof_coms.c    ****     int32_t status = STATUS_OK;
 392              		.loc 1 145 0
 393 001e 0023     		movs	r3, #0
 394 0020 FB60     		str	r3, [r7, #12]
 146:tof_coms.c    ****     const int32_t cbyte_count = 1;
 395              		.loc 1 146 0
 396 0022 0123     		movs	r3, #1
 397 0024 BB60     		str	r3, [r7, #8]
 147:tof_coms.c    **** 
 148:tof_coms.c    **** #ifdef VL53L0X_LOG_ENABLE
 149:tof_coms.c    ****     trace_print(TRACE_LEVEL_INFO,"Write reg : 0x%02X, Val : 0x%02X\n", index, data);
 150:tof_coms.c    **** #endif
 151:tof_coms.c    **** 
 152:tof_coms.c    ****     status = VL53L0X_write_multi(address, index, &data, cbyte_count);
 398              		.loc 1 152 0
 399 0026 BC68     		ldr	r4, [r7, #8]
 400 0028 7A1D     		adds	r2, r7, #5
 401 002a BB1D     		adds	r3, r7, #6
 402 002c 1978     		ldrb	r1, [r3]
 403 002e FB1D     		adds	r3, r7, #7
 404 0030 1878     		ldrb	r0, [r3]
 405 0032 2300     		movs	r3, r4
 406 0034 FFF7FEFF 		bl	VL53L0X_write_multi
 407 0038 0300     		movs	r3, r0
 408 003a FB60     		str	r3, [r7, #12]
 153:tof_coms.c    **** 
 154:tof_coms.c    ****     return status;
ARM GAS  C:\Users\ilya\AppData\Local\Temp\ccGij5YZ.s 			page 11


 409              		.loc 1 154 0
 410 003c FB68     		ldr	r3, [r7, #12]
 155:tof_coms.c    **** 
 156:tof_coms.c    **** }
 411              		.loc 1 156 0
 412 003e 1800     		movs	r0, r3
 413 0040 BD46     		mov	sp, r7
 414 0042 05B0     		add	sp, sp, #20
 415              		@ sp needed
 416 0044 90BD     		pop	{r4, r7, pc}
 417              		.cfi_endproc
 418              	.LFE41:
 419              		.size	VL53L0X_write_byte, .-VL53L0X_write_byte
 420 0046 C046     		.section	.text.VL53L0X_write_word,"ax",%progbits
 421              		.align	2
 422              		.global	VL53L0X_write_word
 423              		.code	16
 424              		.thumb_func
 425              		.type	VL53L0X_write_word, %function
 426              	VL53L0X_write_word:
 427              	.LFB42:
 157:tof_coms.c    **** 
 158:tof_coms.c    **** 
 159:tof_coms.c    **** int32_t VL53L0X_write_word(uint8_t address, uint8_t index, uint16_t data)
 160:tof_coms.c    **** {
 428              		.loc 1 160 0
 429              		.cfi_startproc
 430              		@ args = 0, pretend = 0, frame = 16
 431              		@ frame_needed = 1, uses_anonymous_args = 0
 432 0000 90B5     		push	{r4, r7, lr}
 433              		.cfi_def_cfa_offset 12
 434              		.cfi_offset 4, -12
 435              		.cfi_offset 7, -8
 436              		.cfi_offset 14, -4
 437 0002 85B0     		sub	sp, sp, #20
 438              		.cfi_def_cfa_offset 32
 439 0004 00AF     		add	r7, sp, #0
 440              		.cfi_def_cfa_register 7
 441 0006 0400     		movs	r4, r0
 442 0008 0800     		movs	r0, r1
 443 000a 1100     		movs	r1, r2
 444 000c FB1D     		adds	r3, r7, #7
 445 000e 221C     		adds	r2, r4, #0
 446 0010 1A70     		strb	r2, [r3]
 447 0012 BB1D     		adds	r3, r7, #6
 448 0014 021C     		adds	r2, r0, #0
 449 0016 1A70     		strb	r2, [r3]
 450 0018 3B1D     		adds	r3, r7, #4
 451 001a 0A1C     		adds	r2, r1, #0
 452 001c 1A80     		strh	r2, [r3]
 161:tof_coms.c    ****     int32_t status = STATUS_OK;
 453              		.loc 1 161 0
 454 001e 0023     		movs	r3, #0
 455 0020 FB60     		str	r3, [r7, #12]
 162:tof_coms.c    **** 
 163:tof_coms.c    ****     uint8_t  buffer[BYTES_PER_WORD];
 164:tof_coms.c    **** 
ARM GAS  C:\Users\ilya\AppData\Local\Temp\ccGij5YZ.s 			page 12


 165:tof_coms.c    ****     // Split 16-bit word into MS and LS uint8_t
 166:tof_coms.c    ****     buffer[0] = (uint8_t)(data >> 8);
 456              		.loc 1 166 0
 457 0022 3B1D     		adds	r3, r7, #4
 458 0024 1B88     		ldrh	r3, [r3]
 459 0026 1B0A     		lsrs	r3, r3, #8
 460 0028 9BB2     		uxth	r3, r3
 461 002a DAB2     		uxtb	r2, r3
 462 002c 0823     		movs	r3, #8
 463 002e FB18     		adds	r3, r7, r3
 464 0030 1A70     		strb	r2, [r3]
 167:tof_coms.c    ****     buffer[1] = (uint8_t)(data &  0x00FF);
 465              		.loc 1 167 0
 466 0032 3B1D     		adds	r3, r7, #4
 467 0034 1B88     		ldrh	r3, [r3]
 468 0036 DAB2     		uxtb	r2, r3
 469 0038 0823     		movs	r3, #8
 470 003a FB18     		adds	r3, r7, r3
 471 003c 5A70     		strb	r2, [r3, #1]
 168:tof_coms.c    **** 
 169:tof_coms.c    ****     if(index%2 == 1)
 472              		.loc 1 169 0
 473 003e BB1D     		adds	r3, r7, #6
 474 0040 1B78     		ldrb	r3, [r3]
 475 0042 0122     		movs	r2, #1
 476 0044 1340     		ands	r3, r2
 477 0046 DBB2     		uxtb	r3, r3
 478 0048 002B     		cmp	r3, #0
 479 004a 19D0     		beq	.L21
 170:tof_coms.c    ****     {
 171:tof_coms.c    ****         status = VL53L0X_write_multi(address, index, &buffer[0], 1);
 480              		.loc 1 171 0
 481 004c 0823     		movs	r3, #8
 482 004e FA18     		adds	r2, r7, r3
 483 0050 BB1D     		adds	r3, r7, #6
 484 0052 1978     		ldrb	r1, [r3]
 485 0054 FB1D     		adds	r3, r7, #7
 486 0056 1878     		ldrb	r0, [r3]
 487 0058 0123     		movs	r3, #1
 488 005a FFF7FEFF 		bl	VL53L0X_write_multi
 489 005e 0300     		movs	r3, r0
 490 0060 FB60     		str	r3, [r7, #12]
 172:tof_coms.c    ****         status = VL53L0X_write_multi(address, index + 1, &buffer[1], 1);
 491              		.loc 1 172 0
 492 0062 BB1D     		adds	r3, r7, #6
 493 0064 1B78     		ldrb	r3, [r3]
 494 0066 0133     		adds	r3, r3, #1
 495 0068 D9B2     		uxtb	r1, r3
 496 006a 0823     		movs	r3, #8
 497 006c FB18     		adds	r3, r7, r3
 498 006e 5A1C     		adds	r2, r3, #1
 499 0070 FB1D     		adds	r3, r7, #7
 500 0072 1878     		ldrb	r0, [r3]
 501 0074 0123     		movs	r3, #1
 502 0076 FFF7FEFF 		bl	VL53L0X_write_multi
 503 007a 0300     		movs	r3, r0
 504 007c FB60     		str	r3, [r7, #12]
ARM GAS  C:\Users\ilya\AppData\Local\Temp\ccGij5YZ.s 			page 13


 505 007e 0AE0     		b	.L22
 506              	.L21:
 173:tof_coms.c    ****         // serial comms cannot handle word writes to non 2-byte aligned registers.
 174:tof_coms.c    ****     }
 175:tof_coms.c    ****     else
 176:tof_coms.c    ****     {
 177:tof_coms.c    ****         status = VL53L0X_write_multi(address, index, buffer, BYTES_PER_WORD);
 507              		.loc 1 177 0
 508 0080 0823     		movs	r3, #8
 509 0082 FA18     		adds	r2, r7, r3
 510 0084 BB1D     		adds	r3, r7, #6
 511 0086 1978     		ldrb	r1, [r3]
 512 0088 FB1D     		adds	r3, r7, #7
 513 008a 1878     		ldrb	r0, [r3]
 514 008c 0223     		movs	r3, #2
 515 008e FFF7FEFF 		bl	VL53L0X_write_multi
 516 0092 0300     		movs	r3, r0
 517 0094 FB60     		str	r3, [r7, #12]
 518              	.L22:
 178:tof_coms.c    ****     }
 179:tof_coms.c    **** 
 180:tof_coms.c    ****     return status;
 519              		.loc 1 180 0
 520 0096 FB68     		ldr	r3, [r7, #12]
 181:tof_coms.c    **** 
 182:tof_coms.c    **** }
 521              		.loc 1 182 0
 522 0098 1800     		movs	r0, r3
 523 009a BD46     		mov	sp, r7
 524 009c 05B0     		add	sp, sp, #20
 525              		@ sp needed
 526 009e 90BD     		pop	{r4, r7, pc}
 527              		.cfi_endproc
 528              	.LFE42:
 529              		.size	VL53L0X_write_word, .-VL53L0X_write_word
 530              		.section	.text.VL53L0X_write_dword,"ax",%progbits
 531              		.align	2
 532              		.global	VL53L0X_write_dword
 533              		.code	16
 534              		.thumb_func
 535              		.type	VL53L0X_write_dword, %function
 536              	VL53L0X_write_dword:
 537              	.LFB43:
 183:tof_coms.c    **** 
 184:tof_coms.c    **** 
 185:tof_coms.c    **** int32_t VL53L0X_write_dword(uint8_t address, uint8_t index, uint32_t data)
 186:tof_coms.c    **** {
 538              		.loc 1 186 0
 539              		.cfi_startproc
 540              		@ args = 0, pretend = 0, frame = 16
 541              		@ frame_needed = 1, uses_anonymous_args = 0
 542 0000 80B5     		push	{r7, lr}
 543              		.cfi_def_cfa_offset 8
 544              		.cfi_offset 7, -8
 545              		.cfi_offset 14, -4
 546 0002 84B0     		sub	sp, sp, #16
 547              		.cfi_def_cfa_offset 24
ARM GAS  C:\Users\ilya\AppData\Local\Temp\ccGij5YZ.s 			page 14


 548 0004 00AF     		add	r7, sp, #0
 549              		.cfi_def_cfa_register 7
 550 0006 3A60     		str	r2, [r7]
 551 0008 FB1D     		adds	r3, r7, #7
 552 000a 021C     		adds	r2, r0, #0
 553 000c 1A70     		strb	r2, [r3]
 554 000e BB1D     		adds	r3, r7, #6
 555 0010 0A1C     		adds	r2, r1, #0
 556 0012 1A70     		strb	r2, [r3]
 187:tof_coms.c    ****     int32_t status = STATUS_OK;
 557              		.loc 1 187 0
 558 0014 0023     		movs	r3, #0
 559 0016 FB60     		str	r3, [r7, #12]
 188:tof_coms.c    ****     uint8_t  buffer[BYTES_PER_DWORD];
 189:tof_coms.c    **** 
 190:tof_coms.c    ****     // Split 32-bit word into MS ... LS bytes
 191:tof_coms.c    ****     buffer[0] = (uint8_t) (data >> 24);
 560              		.loc 1 191 0
 561 0018 3B68     		ldr	r3, [r7]
 562 001a 1B0E     		lsrs	r3, r3, #24
 563 001c DAB2     		uxtb	r2, r3
 564 001e 0823     		movs	r3, #8
 565 0020 FB18     		adds	r3, r7, r3
 566 0022 1A70     		strb	r2, [r3]
 192:tof_coms.c    ****     buffer[1] = (uint8_t)((data &  0x00FF0000) >> 16);
 567              		.loc 1 192 0
 568 0024 3B68     		ldr	r3, [r7]
 569 0026 1B0C     		lsrs	r3, r3, #16
 570 0028 DAB2     		uxtb	r2, r3
 571 002a 0823     		movs	r3, #8
 572 002c FB18     		adds	r3, r7, r3
 573 002e 5A70     		strb	r2, [r3, #1]
 193:tof_coms.c    ****     buffer[2] = (uint8_t)((data &  0x0000FF00) >> 8);
 574              		.loc 1 193 0
 575 0030 3B68     		ldr	r3, [r7]
 576 0032 1B0A     		lsrs	r3, r3, #8
 577 0034 DAB2     		uxtb	r2, r3
 578 0036 0823     		movs	r3, #8
 579 0038 FB18     		adds	r3, r7, r3
 580 003a 9A70     		strb	r2, [r3, #2]
 194:tof_coms.c    ****     buffer[3] = (uint8_t) (data &  0x000000FF);
 581              		.loc 1 194 0
 582 003c 3B68     		ldr	r3, [r7]
 583 003e DAB2     		uxtb	r2, r3
 584 0040 0823     		movs	r3, #8
 585 0042 FB18     		adds	r3, r7, r3
 586 0044 DA70     		strb	r2, [r3, #3]
 195:tof_coms.c    **** 
 196:tof_coms.c    ****     status = VL53L0X_write_multi(address, index, buffer, BYTES_PER_DWORD);
 587              		.loc 1 196 0
 588 0046 0823     		movs	r3, #8
 589 0048 FA18     		adds	r2, r7, r3
 590 004a BB1D     		adds	r3, r7, #6
 591 004c 1978     		ldrb	r1, [r3]
 592 004e FB1D     		adds	r3, r7, #7
 593 0050 1878     		ldrb	r0, [r3]
 594 0052 0423     		movs	r3, #4
ARM GAS  C:\Users\ilya\AppData\Local\Temp\ccGij5YZ.s 			page 15


 595 0054 FFF7FEFF 		bl	VL53L0X_write_multi
 596 0058 0300     		movs	r3, r0
 597 005a FB60     		str	r3, [r7, #12]
 197:tof_coms.c    **** 
 198:tof_coms.c    ****     return status;
 598              		.loc 1 198 0
 599 005c FB68     		ldr	r3, [r7, #12]
 199:tof_coms.c    **** 
 200:tof_coms.c    **** }
 600              		.loc 1 200 0
 601 005e 1800     		movs	r0, r3
 602 0060 BD46     		mov	sp, r7
 603 0062 04B0     		add	sp, sp, #16
 604              		@ sp needed
 605 0064 80BD     		pop	{r7, pc}
 606              		.cfi_endproc
 607              	.LFE43:
 608              		.size	VL53L0X_write_dword, .-VL53L0X_write_dword
 609 0066 C046     		.section	.text.VL53L0X_read_byte,"ax",%progbits
 610              		.align	2
 611              		.global	VL53L0X_read_byte
 612              		.code	16
 613              		.thumb_func
 614              		.type	VL53L0X_read_byte, %function
 615              	VL53L0X_read_byte:
 616              	.LFB44:
 201:tof_coms.c    **** 
 202:tof_coms.c    **** 
 203:tof_coms.c    **** int32_t VL53L0X_read_byte(uint8_t address, uint8_t index, uint8_t *pdata)
 204:tof_coms.c    **** {
 617              		.loc 1 204 0
 618              		.cfi_startproc
 619              		@ args = 0, pretend = 0, frame = 16
 620              		@ frame_needed = 1, uses_anonymous_args = 0
 621 0000 90B5     		push	{r4, r7, lr}
 622              		.cfi_def_cfa_offset 12
 623              		.cfi_offset 4, -12
 624              		.cfi_offset 7, -8
 625              		.cfi_offset 14, -4
 626 0002 85B0     		sub	sp, sp, #20
 627              		.cfi_def_cfa_offset 32
 628 0004 00AF     		add	r7, sp, #0
 629              		.cfi_def_cfa_register 7
 630 0006 3A60     		str	r2, [r7]
 631 0008 FB1D     		adds	r3, r7, #7
 632 000a 021C     		adds	r2, r0, #0
 633 000c 1A70     		strb	r2, [r3]
 634 000e BB1D     		adds	r3, r7, #6
 635 0010 0A1C     		adds	r2, r1, #0
 636 0012 1A70     		strb	r2, [r3]
 205:tof_coms.c    ****     int32_t status = STATUS_OK;
 637              		.loc 1 205 0
 638 0014 0023     		movs	r3, #0
 639 0016 FB60     		str	r3, [r7, #12]
 206:tof_coms.c    ****     int32_t cbyte_count = 1;
 640              		.loc 1 206 0
 641 0018 0123     		movs	r3, #1
ARM GAS  C:\Users\ilya\AppData\Local\Temp\ccGij5YZ.s 			page 16


 642 001a BB60     		str	r3, [r7, #8]
 207:tof_coms.c    **** 
 208:tof_coms.c    ****     status = VL53L0X_read_multi(address, index, pdata, cbyte_count);
 643              		.loc 1 208 0
 644 001c BC68     		ldr	r4, [r7, #8]
 645 001e 3A68     		ldr	r2, [r7]
 646 0020 BB1D     		adds	r3, r7, #6
 647 0022 1978     		ldrb	r1, [r3]
 648 0024 FB1D     		adds	r3, r7, #7
 649 0026 1878     		ldrb	r0, [r3]
 650 0028 2300     		movs	r3, r4
 651 002a FFF7FEFF 		bl	VL53L0X_read_multi
 652 002e 0300     		movs	r3, r0
 653 0030 FB60     		str	r3, [r7, #12]
 209:tof_coms.c    **** 
 210:tof_coms.c    **** #ifdef VL53L0X_LOG_ENABLE
 211:tof_coms.c    ****     trace_print(TRACE_LEVEL_INFO,"Read reg : 0x%02X, Val : 0x%02X\n", index, *pdata);
 212:tof_coms.c    **** #endif
 213:tof_coms.c    **** 
 214:tof_coms.c    ****     return status;
 654              		.loc 1 214 0
 655 0032 FB68     		ldr	r3, [r7, #12]
 215:tof_coms.c    **** 
 216:tof_coms.c    **** }
 656              		.loc 1 216 0
 657 0034 1800     		movs	r0, r3
 658 0036 BD46     		mov	sp, r7
 659 0038 05B0     		add	sp, sp, #20
 660              		@ sp needed
 661 003a 90BD     		pop	{r4, r7, pc}
 662              		.cfi_endproc
 663              	.LFE44:
 664              		.size	VL53L0X_read_byte, .-VL53L0X_read_byte
 665              		.section	.text.VL53L0X_read_word,"ax",%progbits
 666              		.align	2
 667              		.global	VL53L0X_read_word
 668              		.code	16
 669              		.thumb_func
 670              		.type	VL53L0X_read_word, %function
 671              	VL53L0X_read_word:
 672              	.LFB45:
 217:tof_coms.c    **** 
 218:tof_coms.c    **** 
 219:tof_coms.c    **** int32_t VL53L0X_read_word(uint8_t address, uint8_t index, uint16_t *pdata)
 220:tof_coms.c    **** {
 673              		.loc 1 220 0
 674              		.cfi_startproc
 675              		@ args = 0, pretend = 0, frame = 16
 676              		@ frame_needed = 1, uses_anonymous_args = 0
 677 0000 80B5     		push	{r7, lr}
 678              		.cfi_def_cfa_offset 8
 679              		.cfi_offset 7, -8
 680              		.cfi_offset 14, -4
 681 0002 84B0     		sub	sp, sp, #16
 682              		.cfi_def_cfa_offset 24
 683 0004 00AF     		add	r7, sp, #0
 684              		.cfi_def_cfa_register 7
ARM GAS  C:\Users\ilya\AppData\Local\Temp\ccGij5YZ.s 			page 17


 685 0006 3A60     		str	r2, [r7]
 686 0008 FB1D     		adds	r3, r7, #7
 687 000a 021C     		adds	r2, r0, #0
 688 000c 1A70     		strb	r2, [r3]
 689 000e BB1D     		adds	r3, r7, #6
 690 0010 0A1C     		adds	r2, r1, #0
 691 0012 1A70     		strb	r2, [r3]
 221:tof_coms.c    ****     int32_t  status = STATUS_OK;
 692              		.loc 1 221 0
 693 0014 0023     		movs	r3, #0
 694 0016 FB60     		str	r3, [r7, #12]
 222:tof_coms.c    **** 	uint8_t  buffer[BYTES_PER_WORD];
 223:tof_coms.c    **** 
 224:tof_coms.c    ****     status = VL53L0X_read_multi(address, index, buffer, BYTES_PER_WORD);
 695              		.loc 1 224 0
 696 0018 0823     		movs	r3, #8
 697 001a FA18     		adds	r2, r7, r3
 698 001c BB1D     		adds	r3, r7, #6
 699 001e 1978     		ldrb	r1, [r3]
 700 0020 FB1D     		adds	r3, r7, #7
 701 0022 1878     		ldrb	r0, [r3]
 702 0024 0223     		movs	r3, #2
 703 0026 FFF7FEFF 		bl	VL53L0X_read_multi
 704 002a 0300     		movs	r3, r0
 705 002c FB60     		str	r3, [r7, #12]
 225:tof_coms.c    **** 	*pdata = ((uint16_t)buffer[0]<<8) + (uint16_t)buffer[1];
 706              		.loc 1 225 0
 707 002e 0823     		movs	r3, #8
 708 0030 FB18     		adds	r3, r7, r3
 709 0032 1B78     		ldrb	r3, [r3]
 710 0034 9BB2     		uxth	r3, r3
 711 0036 1B02     		lsls	r3, r3, #8
 712 0038 9AB2     		uxth	r2, r3
 713 003a 0823     		movs	r3, #8
 714 003c FB18     		adds	r3, r7, r3
 715 003e 5B78     		ldrb	r3, [r3, #1]
 716 0040 9BB2     		uxth	r3, r3
 717 0042 D318     		adds	r3, r2, r3
 718 0044 9AB2     		uxth	r2, r3
 719 0046 3B68     		ldr	r3, [r7]
 720 0048 1A80     		strh	r2, [r3]
 226:tof_coms.c    **** 
 227:tof_coms.c    ****     return status;
 721              		.loc 1 227 0
 722 004a FB68     		ldr	r3, [r7, #12]
 228:tof_coms.c    **** 
 229:tof_coms.c    **** }
 723              		.loc 1 229 0
 724 004c 1800     		movs	r0, r3
 725 004e BD46     		mov	sp, r7
 726 0050 04B0     		add	sp, sp, #16
 727              		@ sp needed
 728 0052 80BD     		pop	{r7, pc}
 729              		.cfi_endproc
 730              	.LFE45:
 731              		.size	VL53L0X_read_word, .-VL53L0X_read_word
 732              		.section	.text.VL53L0X_read_dword,"ax",%progbits
ARM GAS  C:\Users\ilya\AppData\Local\Temp\ccGij5YZ.s 			page 18


 733              		.align	2
 734              		.global	VL53L0X_read_dword
 735              		.code	16
 736              		.thumb_func
 737              		.type	VL53L0X_read_dword, %function
 738              	VL53L0X_read_dword:
 739              	.LFB46:
 230:tof_coms.c    **** 
 231:tof_coms.c    **** int32_t VL53L0X_read_dword(uint8_t address, uint8_t index, uint32_t *pdata)
 232:tof_coms.c    **** {
 740              		.loc 1 232 0
 741              		.cfi_startproc
 742              		@ args = 0, pretend = 0, frame = 16
 743              		@ frame_needed = 1, uses_anonymous_args = 0
 744 0000 80B5     		push	{r7, lr}
 745              		.cfi_def_cfa_offset 8
 746              		.cfi_offset 7, -8
 747              		.cfi_offset 14, -4
 748 0002 84B0     		sub	sp, sp, #16
 749              		.cfi_def_cfa_offset 24
 750 0004 00AF     		add	r7, sp, #0
 751              		.cfi_def_cfa_register 7
 752 0006 3A60     		str	r2, [r7]
 753 0008 FB1D     		adds	r3, r7, #7
 754 000a 021C     		adds	r2, r0, #0
 755 000c 1A70     		strb	r2, [r3]
 756 000e BB1D     		adds	r3, r7, #6
 757 0010 0A1C     		adds	r2, r1, #0
 758 0012 1A70     		strb	r2, [r3]
 233:tof_coms.c    ****     int32_t status = STATUS_OK;
 759              		.loc 1 233 0
 760 0014 0023     		movs	r3, #0
 761 0016 FB60     		str	r3, [r7, #12]
 234:tof_coms.c    **** 	uint8_t  buffer[BYTES_PER_DWORD];
 235:tof_coms.c    **** 
 236:tof_coms.c    ****     status = VL53L0X_read_multi(address, index, buffer, BYTES_PER_DWORD);
 762              		.loc 1 236 0
 763 0018 0823     		movs	r3, #8
 764 001a FA18     		adds	r2, r7, r3
 765 001c BB1D     		adds	r3, r7, #6
 766 001e 1978     		ldrb	r1, [r3]
 767 0020 FB1D     		adds	r3, r7, #7
 768 0022 1878     		ldrb	r0, [r3]
 769 0024 0423     		movs	r3, #4
 770 0026 FFF7FEFF 		bl	VL53L0X_read_multi
 771 002a 0300     		movs	r3, r0
 772 002c FB60     		str	r3, [r7, #12]
 237:tof_coms.c    ****     *pdata = ((uint32_t)buffer[0]<<24) + ((uint32_t)buffer[1]<<16) + ((uint32_t)buffer[2]<<8) + (ui
 773              		.loc 1 237 0
 774 002e 0823     		movs	r3, #8
 775 0030 FB18     		adds	r3, r7, r3
 776 0032 1B78     		ldrb	r3, [r3]
 777 0034 1A06     		lsls	r2, r3, #24
 778 0036 0823     		movs	r3, #8
 779 0038 FB18     		adds	r3, r7, r3
 780 003a 5B78     		ldrb	r3, [r3, #1]
 781 003c 1B04     		lsls	r3, r3, #16
ARM GAS  C:\Users\ilya\AppData\Local\Temp\ccGij5YZ.s 			page 19


 782 003e D218     		adds	r2, r2, r3
 783 0040 0823     		movs	r3, #8
 784 0042 FB18     		adds	r3, r7, r3
 785 0044 9B78     		ldrb	r3, [r3, #2]
 786 0046 1B02     		lsls	r3, r3, #8
 787 0048 D318     		adds	r3, r2, r3
 788 004a 0822     		movs	r2, #8
 789 004c BA18     		adds	r2, r7, r2
 790 004e D278     		ldrb	r2, [r2, #3]
 791 0050 9A18     		adds	r2, r3, r2
 792 0052 3B68     		ldr	r3, [r7]
 793 0054 1A60     		str	r2, [r3]
 238:tof_coms.c    **** 
 239:tof_coms.c    ****     return status;
 794              		.loc 1 239 0
 795 0056 FB68     		ldr	r3, [r7, #12]
 240:tof_coms.c    **** 
 241:tof_coms.c    **** }
 796              		.loc 1 241 0
 797 0058 1800     		movs	r0, r3
 798 005a BD46     		mov	sp, r7
 799 005c 04B0     		add	sp, sp, #16
 800              		@ sp needed
 801 005e 80BD     		pop	{r7, pc}
 802              		.cfi_endproc
 803              	.LFE46:
 804              		.size	VL53L0X_read_dword, .-VL53L0X_read_dword
 805              		.section	.text.VL53L0X_write_multi16,"ax",%progbits
 806              		.align	2
 807              		.global	VL53L0X_write_multi16
 808              		.code	16
 809              		.thumb_func
 810              		.type	VL53L0X_write_multi16, %function
 811              	VL53L0X_write_multi16:
 812              	.LFB47:
 242:tof_coms.c    **** 
 243:tof_coms.c    **** 
 244:tof_coms.c    **** 
 245:tof_coms.c    **** // 16 bit address functions
 246:tof_coms.c    **** 
 247:tof_coms.c    **** 
 248:tof_coms.c    **** int32_t VL53L0X_write_multi16(uint8_t address, uint16_t index, uint8_t *pdata, int32_t count)
 249:tof_coms.c    **** {
 813              		.loc 1 249 0
 814              		.cfi_startproc
 815              		@ args = 0, pretend = 0, frame = 32
 816              		@ frame_needed = 1, uses_anonymous_args = 0
 817 0000 80B5     		push	{r7, lr}
 818              		.cfi_def_cfa_offset 8
 819              		.cfi_offset 7, -8
 820              		.cfi_offset 14, -4
 821 0002 88B0     		sub	sp, sp, #32
 822              		.cfi_def_cfa_offset 40
 823 0004 00AF     		add	r7, sp, #0
 824              		.cfi_def_cfa_register 7
 825 0006 BA60     		str	r2, [r7, #8]
 826 0008 7B60     		str	r3, [r7, #4]
ARM GAS  C:\Users\ilya\AppData\Local\Temp\ccGij5YZ.s 			page 20


 827 000a 0F23     		movs	r3, #15
 828 000c FB18     		adds	r3, r7, r3
 829 000e 021C     		adds	r2, r0, #0
 830 0010 1A70     		strb	r2, [r3]
 831 0012 0C23     		movs	r3, #12
 832 0014 FB18     		adds	r3, r7, r3
 833 0016 0A1C     		adds	r2, r1, #0
 834 0018 1A80     		strh	r2, [r3]
 250:tof_coms.c    ****     int32_t status = STATUS_OK;
 835              		.loc 1 250 0
 836 001a 0023     		movs	r3, #0
 837 001c BB61     		str	r3, [r7, #24]
 251:tof_coms.c    ****     unsigned int retries = 3;
 838              		.loc 1 251 0
 839 001e 0323     		movs	r3, #3
 840 0020 7B61     		str	r3, [r7, #20]
 252:tof_coms.c    ****     int c,r;
 253:tof_coms.c    ****     DWORD dwWaitResult;
 254:tof_coms.c    ****       r=I2C_LED_I2CMasterSendStart(address,0);
 841              		.loc 1 254 0
 842 0022 0F23     		movs	r3, #15
 843 0024 FB18     		adds	r3, r7, r3
 844 0026 1B78     		ldrb	r3, [r3]
 845 0028 0021     		movs	r1, #0
 846 002a 1800     		movs	r0, r3
 847 002c FFF7FEFF 		bl	I2C_LED_I2CMasterSendStart
 848 0030 0300     		movs	r3, r0
 849 0032 3B61     		str	r3, [r7, #16]
 255:tof_coms.c    ****     if(r!=0)
 850              		.loc 1 255 0
 851 0034 3B69     		ldr	r3, [r7, #16]
 852 0036 002B     		cmp	r3, #0
 853 0038 01D0     		beq	.L33
 256:tof_coms.c    ****         return 1;
 854              		.loc 1 256 0
 855 003a 0123     		movs	r3, #1
 856 003c 23E0     		b	.L34
 857              	.L33:
 257:tof_coms.c    ****     
 258:tof_coms.c    ****     I2C_LED_I2CMasterWriteByte(index>>8);
 858              		.loc 1 258 0
 859 003e 0C23     		movs	r3, #12
 860 0040 FB18     		adds	r3, r7, r3
 861 0042 1B88     		ldrh	r3, [r3]
 862 0044 1B0A     		lsrs	r3, r3, #8
 863 0046 9BB2     		uxth	r3, r3
 864 0048 1800     		movs	r0, r3
 865 004a FFF7FEFF 		bl	I2C_LED_I2CMasterWriteByte
 259:tof_coms.c    ****     I2C_LED_I2CMasterWriteByte(index&0xff);
 866              		.loc 1 259 0
 867 004e 0C23     		movs	r3, #12
 868 0050 FB18     		adds	r3, r7, r3
 869 0052 1B88     		ldrh	r3, [r3]
 870 0054 FF22     		movs	r2, #255
 871 0056 1340     		ands	r3, r2
 872 0058 1800     		movs	r0, r3
 873 005a FFF7FEFF 		bl	I2C_LED_I2CMasterWriteByte
ARM GAS  C:\Users\ilya\AppData\Local\Temp\ccGij5YZ.s 			page 21


 260:tof_coms.c    ****     for (c=0;c<count;c++)
 874              		.loc 1 260 0
 875 005e 0023     		movs	r3, #0
 876 0060 FB61     		str	r3, [r7, #28]
 877 0062 09E0     		b	.L35
 878              	.L36:
 261:tof_coms.c    ****          I2C_LED_I2CMasterWriteByte(*pdata++);
 879              		.loc 1 261 0 discriminator 3
 880 0064 BB68     		ldr	r3, [r7, #8]
 881 0066 5A1C     		adds	r2, r3, #1
 882 0068 BA60     		str	r2, [r7, #8]
 883 006a 1B78     		ldrb	r3, [r3]
 884 006c 1800     		movs	r0, r3
 885 006e FFF7FEFF 		bl	I2C_LED_I2CMasterWriteByte
 260:tof_coms.c    ****     for (c=0;c<count;c++)
 886              		.loc 1 260 0 discriminator 3
 887 0072 FB69     		ldr	r3, [r7, #28]
 888 0074 0133     		adds	r3, r3, #1
 889 0076 FB61     		str	r3, [r7, #28]
 890              	.L35:
 260:tof_coms.c    ****     for (c=0;c<count;c++)
 891              		.loc 1 260 0 is_stmt 0 discriminator 1
 892 0078 FA69     		ldr	r2, [r7, #28]
 893 007a 7B68     		ldr	r3, [r7, #4]
 894 007c 9A42     		cmp	r2, r3
 895 007e F1DB     		blt	.L36
 262:tof_coms.c    ****     
 263:tof_coms.c    ****     I2C_LED_I2CMasterSendStop();
 896              		.loc 1 263 0 is_stmt 1
 897 0080 FFF7FEFF 		bl	I2C_LED_I2CMasterSendStop
 264:tof_coms.c    **** /*
 265:tof_coms.c    ****     I2C_start(TOF_BASE,address,0);
 266:tof_coms.c    ****     I2C_write(TOF_BASE,index>>8,0);
 267:tof_coms.c    ****     I2C_write(TOF_BASE,index,0);
 268:tof_coms.c    **** 
 269:tof_coms.c    ****        for (c=0;c<count;c++)
 270:tof_coms.c    ****    	I2C_write(TOF_BASE,*pdata++,c==count-1?1:0);
 271:tof_coms.c    **** */
 272:tof_coms.c    ****     return STATUS_OK;
 898              		.loc 1 272 0
 899 0084 0023     		movs	r3, #0
 900              	.L34:
 273:tof_coms.c    **** }
 901              		.loc 1 273 0
 902 0086 1800     		movs	r0, r3
 903 0088 BD46     		mov	sp, r7
 904 008a 08B0     		add	sp, sp, #32
 905              		@ sp needed
 906 008c 80BD     		pop	{r7, pc}
 907              		.cfi_endproc
 908              	.LFE47:
 909              		.size	VL53L0X_write_multi16, .-VL53L0X_write_multi16
 910 008e C046     		.section	.text.VL53L0X_read_multi16,"ax",%progbits
 911              		.align	2
 912              		.global	VL53L0X_read_multi16
 913              		.code	16
 914              		.thumb_func
ARM GAS  C:\Users\ilya\AppData\Local\Temp\ccGij5YZ.s 			page 22


 915              		.type	VL53L0X_read_multi16, %function
 916              	VL53L0X_read_multi16:
 917              	.LFB48:
 274:tof_coms.c    **** 
 275:tof_coms.c    **** int32_t VL53L0X_read_multi16(uint8_t address, uint16_t index, uint8_t *pdata, int32_t count)
 276:tof_coms.c    **** {
 918              		.loc 1 276 0
 919              		.cfi_startproc
 920              		@ args = 0, pretend = 0, frame = 32
 921              		@ frame_needed = 1, uses_anonymous_args = 0
 922 0000 90B5     		push	{r4, r7, lr}
 923              		.cfi_def_cfa_offset 12
 924              		.cfi_offset 4, -12
 925              		.cfi_offset 7, -8
 926              		.cfi_offset 14, -4
 927 0002 89B0     		sub	sp, sp, #36
 928              		.cfi_def_cfa_offset 48
 929 0004 00AF     		add	r7, sp, #0
 930              		.cfi_def_cfa_register 7
 931 0006 BA60     		str	r2, [r7, #8]
 932 0008 7B60     		str	r3, [r7, #4]
 933 000a 0F23     		movs	r3, #15
 934 000c FB18     		adds	r3, r7, r3
 935 000e 021C     		adds	r2, r0, #0
 936 0010 1A70     		strb	r2, [r3]
 937 0012 0C23     		movs	r3, #12
 938 0014 FB18     		adds	r3, r7, r3
 939 0016 0A1C     		adds	r2, r1, #0
 940 0018 1A80     		strh	r2, [r3]
 277:tof_coms.c    ****     int32_t status = STATUS_OK;
 941              		.loc 1 277 0
 942 001a 0023     		movs	r3, #0
 943 001c BB61     		str	r3, [r7, #24]
 278:tof_coms.c    ****     unsigned int retries = 3;
 944              		.loc 1 278 0
 945 001e 0323     		movs	r3, #3
 946 0020 7B61     		str	r3, [r7, #20]
 279:tof_coms.c    ****     int c,r;
 280:tof_coms.c    ****     DWORD dwWaitResult;
 281:tof_coms.c    ****         r=I2C_LED_I2CMasterSendStart(address,0);
 947              		.loc 1 281 0
 948 0022 0F23     		movs	r3, #15
 949 0024 FB18     		adds	r3, r7, r3
 950 0026 1B78     		ldrb	r3, [r3]
 951 0028 0021     		movs	r1, #0
 952 002a 1800     		movs	r0, r3
 953 002c FFF7FEFF 		bl	I2C_LED_I2CMasterSendStart
 954 0030 0300     		movs	r3, r0
 955 0032 3B61     		str	r3, [r7, #16]
 282:tof_coms.c    ****     if(r!=0)
 956              		.loc 1 282 0
 957 0034 3B69     		ldr	r3, [r7, #16]
 958 0036 002B     		cmp	r3, #0
 959 0038 01D0     		beq	.L38
 283:tof_coms.c    ****         return 1;
 960              		.loc 1 283 0
 961 003a 0123     		movs	r3, #1
ARM GAS  C:\Users\ilya\AppData\Local\Temp\ccGij5YZ.s 			page 23


 962 003c 2CE0     		b	.L39
 963              	.L38:
 284:tof_coms.c    ****     
 285:tof_coms.c    ****     I2C_LED_I2CMasterWriteByte(index>>8);
 964              		.loc 1 285 0
 965 003e 0C23     		movs	r3, #12
 966 0040 FB18     		adds	r3, r7, r3
 967 0042 1B88     		ldrh	r3, [r3]
 968 0044 1B0A     		lsrs	r3, r3, #8
 969 0046 9BB2     		uxth	r3, r3
 970 0048 1800     		movs	r0, r3
 971 004a FFF7FEFF 		bl	I2C_LED_I2CMasterWriteByte
 286:tof_coms.c    ****         I2C_LED_I2CMasterWriteByte(index&0xff);
 972              		.loc 1 286 0
 973 004e 0C23     		movs	r3, #12
 974 0050 FB18     		adds	r3, r7, r3
 975 0052 1B88     		ldrh	r3, [r3]
 976 0054 FF22     		movs	r2, #255
 977 0056 1340     		ands	r3, r2
 978 0058 1800     		movs	r0, r3
 979 005a FFF7FEFF 		bl	I2C_LED_I2CMasterWriteByte
 287:tof_coms.c    ****     I2C_LED_I2CMasterSendRestart(address,1);
 980              		.loc 1 287 0
 981 005e 0F23     		movs	r3, #15
 982 0060 FB18     		adds	r3, r7, r3
 983 0062 1B78     		ldrb	r3, [r3]
 984 0064 0121     		movs	r1, #1
 985 0066 1800     		movs	r0, r3
 986 0068 FFF7FEFF 		bl	I2C_LED_I2CMasterSendRestart
 288:tof_coms.c    ****     for (c=0;c<count;c++)
 987              		.loc 1 288 0
 988 006c 0023     		movs	r3, #0
 989 006e FB61     		str	r3, [r7, #28]
 990 0070 0BE0     		b	.L40
 991              	.L41:
 289:tof_coms.c    ****           *pdata++=I2C_LED_I2CMasterReadByte( I2C_LED_I2C_ACK_DATA);
 992              		.loc 1 289 0 discriminator 3
 993 0072 BC68     		ldr	r4, [r7, #8]
 994 0074 631C     		adds	r3, r4, #1
 995 0076 BB60     		str	r3, [r7, #8]
 996 0078 0020     		movs	r0, #0
 997 007a FFF7FEFF 		bl	I2C_LED_I2CMasterReadByte
 998 007e 0300     		movs	r3, r0
 999 0080 DBB2     		uxtb	r3, r3
 1000 0082 2370     		strb	r3, [r4]
 288:tof_coms.c    ****     for (c=0;c<count;c++)
 1001              		.loc 1 288 0 discriminator 3
 1002 0084 FB69     		ldr	r3, [r7, #28]
 1003 0086 0133     		adds	r3, r3, #1
 1004 0088 FB61     		str	r3, [r7, #28]
 1005              	.L40:
 288:tof_coms.c    ****     for (c=0;c<count;c++)
 1006              		.loc 1 288 0 is_stmt 0 discriminator 1
 1007 008a FA69     		ldr	r2, [r7, #28]
 1008 008c 7B68     		ldr	r3, [r7, #4]
 1009 008e 9A42     		cmp	r2, r3
 1010 0090 EFDB     		blt	.L41
ARM GAS  C:\Users\ilya\AppData\Local\Temp\ccGij5YZ.s 			page 24


 290:tof_coms.c    ****     
 291:tof_coms.c    ****     I2C_LED_I2CMasterSendStop();
 1011              		.loc 1 291 0 is_stmt 1
 1012 0092 FFF7FEFF 		bl	I2C_LED_I2CMasterSendStop
 292:tof_coms.c    **** /*
 293:tof_coms.c    ****     I2C_start(TOF_BASE,address,0);
 294:tof_coms.c    ****     	I2C_write(TOF_BASE,index>>8,0);  // upper 16 bits
 295:tof_coms.c    ****     	I2C_write(TOF_BASE,index&0xff,0);  // upper 16 bits
 296:tof_coms.c    ****     	I2C_start(TOF_BASE,address,1);
 297:tof_coms.c    ****     	 for (c=0;c<count;c++)
 298:tof_coms.c    ****     	     *pdata++=I2C_read(TOF_BASE,c==count-1?1:0);
 299:tof_coms.c    ****         return STATUS_OK;
 300:tof_coms.c    ****     */
 301:tof_coms.c    ****     return STATUS_OK;
 1013              		.loc 1 301 0
 1014 0096 0023     		movs	r3, #0
 1015              	.L39:
 302:tof_coms.c    **** 
 303:tof_coms.c    **** 
 304:tof_coms.c    **** }
 1016              		.loc 1 304 0
 1017 0098 1800     		movs	r0, r3
 1018 009a BD46     		mov	sp, r7
 1019 009c 09B0     		add	sp, sp, #36
 1020              		@ sp needed
 1021 009e 90BD     		pop	{r4, r7, pc}
 1022              		.cfi_endproc
 1023              	.LFE48:
 1024              		.size	VL53L0X_read_multi16, .-VL53L0X_read_multi16
 1025              		.section	.text.VL53L0X_write_byte16,"ax",%progbits
 1026              		.align	2
 1027              		.global	VL53L0X_write_byte16
 1028              		.code	16
 1029              		.thumb_func
 1030              		.type	VL53L0X_write_byte16, %function
 1031              	VL53L0X_write_byte16:
 1032              	.LFB49:
 305:tof_coms.c    **** 
 306:tof_coms.c    **** 
 307:tof_coms.c    **** 
 308:tof_coms.c    **** int32_t VL53L0X_write_byte16(uint8_t address, uint16_t index, uint8_t data)
 309:tof_coms.c    **** {
 1033              		.loc 1 309 0
 1034              		.cfi_startproc
 1035              		@ args = 0, pretend = 0, frame = 16
 1036              		@ frame_needed = 1, uses_anonymous_args = 0
 1037 0000 90B5     		push	{r4, r7, lr}
 1038              		.cfi_def_cfa_offset 12
 1039              		.cfi_offset 4, -12
 1040              		.cfi_offset 7, -8
 1041              		.cfi_offset 14, -4
 1042 0002 85B0     		sub	sp, sp, #20
 1043              		.cfi_def_cfa_offset 32
 1044 0004 00AF     		add	r7, sp, #0
 1045              		.cfi_def_cfa_register 7
 1046 0006 0400     		movs	r4, r0
 1047 0008 0800     		movs	r0, r1
ARM GAS  C:\Users\ilya\AppData\Local\Temp\ccGij5YZ.s 			page 25


 1048 000a 1100     		movs	r1, r2
 1049 000c FB1D     		adds	r3, r7, #7
 1050 000e 221C     		adds	r2, r4, #0
 1051 0010 1A70     		strb	r2, [r3]
 1052 0012 3B1D     		adds	r3, r7, #4
 1053 0014 021C     		adds	r2, r0, #0
 1054 0016 1A80     		strh	r2, [r3]
 1055 0018 BB1D     		adds	r3, r7, #6
 1056 001a 0A1C     		adds	r2, r1, #0
 1057 001c 1A70     		strb	r2, [r3]
 310:tof_coms.c    ****     int32_t status = STATUS_OK;
 1058              		.loc 1 310 0
 1059 001e 0023     		movs	r3, #0
 1060 0020 FB60     		str	r3, [r7, #12]
 311:tof_coms.c    ****     const int32_t cbyte_count = 1;
 1061              		.loc 1 311 0
 1062 0022 0123     		movs	r3, #1
 1063 0024 BB60     		str	r3, [r7, #8]
 312:tof_coms.c    **** 
 313:tof_coms.c    **** #ifdef VL53L0X_LOG_ENABLE
 314:tof_coms.c    ****     trace_print(TRACE_LEVEL_INFO,"Write reg : 0x%02X, Val : 0x%02X\n", index, data);
 315:tof_coms.c    **** #endif
 316:tof_coms.c    **** 
 317:tof_coms.c    ****     status = VL53L0X_write_multi16(address, index, &data, cbyte_count);
 1064              		.loc 1 317 0
 1065 0026 BC68     		ldr	r4, [r7, #8]
 1066 0028 BA1D     		adds	r2, r7, #6
 1067 002a 3B1D     		adds	r3, r7, #4
 1068 002c 1988     		ldrh	r1, [r3]
 1069 002e FB1D     		adds	r3, r7, #7
 1070 0030 1878     		ldrb	r0, [r3]
 1071 0032 2300     		movs	r3, r4
 1072 0034 FFF7FEFF 		bl	VL53L0X_write_multi16
 1073 0038 0300     		movs	r3, r0
 1074 003a FB60     		str	r3, [r7, #12]
 318:tof_coms.c    **** 
 319:tof_coms.c    ****     return status;
 1075              		.loc 1 319 0
 1076 003c FB68     		ldr	r3, [r7, #12]
 320:tof_coms.c    **** 
 321:tof_coms.c    **** }
 1077              		.loc 1 321 0
 1078 003e 1800     		movs	r0, r3
 1079 0040 BD46     		mov	sp, r7
 1080 0042 05B0     		add	sp, sp, #20
 1081              		@ sp needed
 1082 0044 90BD     		pop	{r4, r7, pc}
 1083              		.cfi_endproc
 1084              	.LFE49:
 1085              		.size	VL53L0X_write_byte16, .-VL53L0X_write_byte16
 1086 0046 C046     		.section	.text.VL53L0X_write_word16,"ax",%progbits
 1087              		.align	2
 1088              		.global	VL53L0X_write_word16
 1089              		.code	16
 1090              		.thumb_func
 1091              		.type	VL53L0X_write_word16, %function
 1092              	VL53L0X_write_word16:
ARM GAS  C:\Users\ilya\AppData\Local\Temp\ccGij5YZ.s 			page 26


 1093              	.LFB50:
 322:tof_coms.c    **** 
 323:tof_coms.c    **** 
 324:tof_coms.c    **** int32_t VL53L0X_write_word16(uint8_t address, uint16_t index, uint16_t data)
 325:tof_coms.c    **** {
 1094              		.loc 1 325 0
 1095              		.cfi_startproc
 1096              		@ args = 0, pretend = 0, frame = 16
 1097              		@ frame_needed = 1, uses_anonymous_args = 0
 1098 0000 90B5     		push	{r4, r7, lr}
 1099              		.cfi_def_cfa_offset 12
 1100              		.cfi_offset 4, -12
 1101              		.cfi_offset 7, -8
 1102              		.cfi_offset 14, -4
 1103 0002 85B0     		sub	sp, sp, #20
 1104              		.cfi_def_cfa_offset 32
 1105 0004 00AF     		add	r7, sp, #0
 1106              		.cfi_def_cfa_register 7
 1107 0006 0400     		movs	r4, r0
 1108 0008 0800     		movs	r0, r1
 1109 000a 1100     		movs	r1, r2
 1110 000c FB1D     		adds	r3, r7, #7
 1111 000e 221C     		adds	r2, r4, #0
 1112 0010 1A70     		strb	r2, [r3]
 1113 0012 3B1D     		adds	r3, r7, #4
 1114 0014 021C     		adds	r2, r0, #0
 1115 0016 1A80     		strh	r2, [r3]
 1116 0018 BB1C     		adds	r3, r7, #2
 1117 001a 0A1C     		adds	r2, r1, #0
 1118 001c 1A80     		strh	r2, [r3]
 326:tof_coms.c    ****     int32_t status = STATUS_OK;
 1119              		.loc 1 326 0
 1120 001e 0023     		movs	r3, #0
 1121 0020 FB60     		str	r3, [r7, #12]
 327:tof_coms.c    **** 
 328:tof_coms.c    ****     uint8_t  buffer[BYTES_PER_WORD];
 329:tof_coms.c    **** 
 330:tof_coms.c    ****     // Split 16-bit word into MS and LS uint8_t
 331:tof_coms.c    ****     buffer[0] = (uint8_t)(data >> 8);
 1122              		.loc 1 331 0
 1123 0022 BB1C     		adds	r3, r7, #2
 1124 0024 1B88     		ldrh	r3, [r3]
 1125 0026 1B0A     		lsrs	r3, r3, #8
 1126 0028 9BB2     		uxth	r3, r3
 1127 002a DAB2     		uxtb	r2, r3
 1128 002c 0823     		movs	r3, #8
 1129 002e FB18     		adds	r3, r7, r3
 1130 0030 1A70     		strb	r2, [r3]
 332:tof_coms.c    ****     buffer[1] = (uint8_t)(data &  0x00FF);
 1131              		.loc 1 332 0
 1132 0032 BB1C     		adds	r3, r7, #2
 1133 0034 1B88     		ldrh	r3, [r3]
 1134 0036 DAB2     		uxtb	r2, r3
 1135 0038 0823     		movs	r3, #8
 1136 003a FB18     		adds	r3, r7, r3
 1137 003c 5A70     		strb	r2, [r3, #1]
 333:tof_coms.c    **** 
ARM GAS  C:\Users\ilya\AppData\Local\Temp\ccGij5YZ.s 			page 27


 334:tof_coms.c    ****     if(index%2 == 1)
 1138              		.loc 1 334 0
 1139 003e 3B1D     		adds	r3, r7, #4
 1140 0040 1B88     		ldrh	r3, [r3]
 1141 0042 0122     		movs	r2, #1
 1142 0044 1340     		ands	r3, r2
 1143 0046 9BB2     		uxth	r3, r3
 1144 0048 002B     		cmp	r3, #0
 1145 004a 19D0     		beq	.L45
 335:tof_coms.c    ****     {
 336:tof_coms.c    ****         status = VL53L0X_write_multi16(address, index, &buffer[0], 1);
 1146              		.loc 1 336 0
 1147 004c 0823     		movs	r3, #8
 1148 004e FA18     		adds	r2, r7, r3
 1149 0050 3B1D     		adds	r3, r7, #4
 1150 0052 1988     		ldrh	r1, [r3]
 1151 0054 FB1D     		adds	r3, r7, #7
 1152 0056 1878     		ldrb	r0, [r3]
 1153 0058 0123     		movs	r3, #1
 1154 005a FFF7FEFF 		bl	VL53L0X_write_multi16
 1155 005e 0300     		movs	r3, r0
 1156 0060 FB60     		str	r3, [r7, #12]
 337:tof_coms.c    ****         status = VL53L0X_write_multi16(address, index + 1, &buffer[1], 1);
 1157              		.loc 1 337 0
 1158 0062 3B1D     		adds	r3, r7, #4
 1159 0064 1B88     		ldrh	r3, [r3]
 1160 0066 0133     		adds	r3, r3, #1
 1161 0068 99B2     		uxth	r1, r3
 1162 006a 0823     		movs	r3, #8
 1163 006c FB18     		adds	r3, r7, r3
 1164 006e 5A1C     		adds	r2, r3, #1
 1165 0070 FB1D     		adds	r3, r7, #7
 1166 0072 1878     		ldrb	r0, [r3]
 1167 0074 0123     		movs	r3, #1
 1168 0076 FFF7FEFF 		bl	VL53L0X_write_multi16
 1169 007a 0300     		movs	r3, r0
 1170 007c FB60     		str	r3, [r7, #12]
 1171 007e 0AE0     		b	.L46
 1172              	.L45:
 338:tof_coms.c    ****         // serial comms cannot handle word writes to non 2-byte aligned registers.
 339:tof_coms.c    ****     }
 340:tof_coms.c    ****     else
 341:tof_coms.c    ****     {
 342:tof_coms.c    ****         status = VL53L0X_write_multi16(address, index, buffer, BYTES_PER_WORD);
 1173              		.loc 1 342 0
 1174 0080 0823     		movs	r3, #8
 1175 0082 FA18     		adds	r2, r7, r3
 1176 0084 3B1D     		adds	r3, r7, #4
 1177 0086 1988     		ldrh	r1, [r3]
 1178 0088 FB1D     		adds	r3, r7, #7
 1179 008a 1878     		ldrb	r0, [r3]
 1180 008c 0223     		movs	r3, #2
 1181 008e FFF7FEFF 		bl	VL53L0X_write_multi16
 1182 0092 0300     		movs	r3, r0
 1183 0094 FB60     		str	r3, [r7, #12]
 1184              	.L46:
 343:tof_coms.c    ****     }
ARM GAS  C:\Users\ilya\AppData\Local\Temp\ccGij5YZ.s 			page 28


 344:tof_coms.c    **** 
 345:tof_coms.c    ****     return status;
 1185              		.loc 1 345 0
 1186 0096 FB68     		ldr	r3, [r7, #12]
 346:tof_coms.c    **** 
 347:tof_coms.c    **** }
 1187              		.loc 1 347 0
 1188 0098 1800     		movs	r0, r3
 1189 009a BD46     		mov	sp, r7
 1190 009c 05B0     		add	sp, sp, #20
 1191              		@ sp needed
 1192 009e 90BD     		pop	{r4, r7, pc}
 1193              		.cfi_endproc
 1194              	.LFE50:
 1195              		.size	VL53L0X_write_word16, .-VL53L0X_write_word16
 1196              		.section	.text.VL53L0X_write_dword16,"ax",%progbits
 1197              		.align	2
 1198              		.global	VL53L0X_write_dword16
 1199              		.code	16
 1200              		.thumb_func
 1201              		.type	VL53L0X_write_dword16, %function
 1202              	VL53L0X_write_dword16:
 1203              	.LFB51:
 348:tof_coms.c    **** 
 349:tof_coms.c    **** 
 350:tof_coms.c    **** int32_t VL53L0X_write_dword16(uint8_t address, uint16_t index, uint32_t data)
 351:tof_coms.c    **** {
 1204              		.loc 1 351 0
 1205              		.cfi_startproc
 1206              		@ args = 0, pretend = 0, frame = 16
 1207              		@ frame_needed = 1, uses_anonymous_args = 0
 1208 0000 80B5     		push	{r7, lr}
 1209              		.cfi_def_cfa_offset 8
 1210              		.cfi_offset 7, -8
 1211              		.cfi_offset 14, -4
 1212 0002 84B0     		sub	sp, sp, #16
 1213              		.cfi_def_cfa_offset 24
 1214 0004 00AF     		add	r7, sp, #0
 1215              		.cfi_def_cfa_register 7
 1216 0006 3A60     		str	r2, [r7]
 1217 0008 FB1D     		adds	r3, r7, #7
 1218 000a 021C     		adds	r2, r0, #0
 1219 000c 1A70     		strb	r2, [r3]
 1220 000e 3B1D     		adds	r3, r7, #4
 1221 0010 0A1C     		adds	r2, r1, #0
 1222 0012 1A80     		strh	r2, [r3]
 352:tof_coms.c    ****     int32_t status = STATUS_OK;
 1223              		.loc 1 352 0
 1224 0014 0023     		movs	r3, #0
 1225 0016 FB60     		str	r3, [r7, #12]
 353:tof_coms.c    ****     uint8_t  buffer[BYTES_PER_DWORD];
 354:tof_coms.c    **** 
 355:tof_coms.c    ****     // Split 32-bit word into MS ... LS bytes
 356:tof_coms.c    ****     buffer[0] = (uint8_t) (data >> 24);
 1226              		.loc 1 356 0
 1227 0018 3B68     		ldr	r3, [r7]
 1228 001a 1B0E     		lsrs	r3, r3, #24
ARM GAS  C:\Users\ilya\AppData\Local\Temp\ccGij5YZ.s 			page 29


 1229 001c DAB2     		uxtb	r2, r3
 1230 001e 0823     		movs	r3, #8
 1231 0020 FB18     		adds	r3, r7, r3
 1232 0022 1A70     		strb	r2, [r3]
 357:tof_coms.c    ****     buffer[1] = (uint8_t)((data &  0x00FF0000) > 16);
 1233              		.loc 1 357 0
 1234 0024 3A68     		ldr	r2, [r7]
 1235 0026 FF23     		movs	r3, #255
 1236 0028 1B04     		lsls	r3, r3, #16
 1237 002a 1340     		ands	r3, r2
 1238 002c 1022     		movs	r2, #16
 1239 002e 9A42     		cmp	r2, r3
 1240 0030 9B41     		sbcs	r3, r3, r3
 1241 0032 5B42     		rsbs	r3, r3, #0
 1242 0034 DBB2     		uxtb	r3, r3
 1243 0036 1A00     		movs	r2, r3
 1244 0038 0823     		movs	r3, #8
 1245 003a FB18     		adds	r3, r7, r3
 1246 003c 5A70     		strb	r2, [r3, #1]
 358:tof_coms.c    ****     buffer[2] = (uint8_t)((data &  0x0000FF00) > 8);
 1247              		.loc 1 358 0
 1248 003e 3A68     		ldr	r2, [r7]
 1249 0040 FF23     		movs	r3, #255
 1250 0042 1B02     		lsls	r3, r3, #8
 1251 0044 1340     		ands	r3, r2
 1252 0046 0822     		movs	r2, #8
 1253 0048 9A42     		cmp	r2, r3
 1254 004a 9B41     		sbcs	r3, r3, r3
 1255 004c 5B42     		rsbs	r3, r3, #0
 1256 004e DBB2     		uxtb	r3, r3
 1257 0050 1A00     		movs	r2, r3
 1258 0052 0823     		movs	r3, #8
 1259 0054 FB18     		adds	r3, r7, r3
 1260 0056 9A70     		strb	r2, [r3, #2]
 359:tof_coms.c    ****     buffer[3] = (uint8_t) (data &  0x000000FF);
 1261              		.loc 1 359 0
 1262 0058 3B68     		ldr	r3, [r7]
 1263 005a DAB2     		uxtb	r2, r3
 1264 005c 0823     		movs	r3, #8
 1265 005e FB18     		adds	r3, r7, r3
 1266 0060 DA70     		strb	r2, [r3, #3]
 360:tof_coms.c    **** 
 361:tof_coms.c    ****     status = VL53L0X_write_multi16(address, index, buffer, BYTES_PER_DWORD);
 1267              		.loc 1 361 0
 1268 0062 0823     		movs	r3, #8
 1269 0064 FA18     		adds	r2, r7, r3
 1270 0066 3B1D     		adds	r3, r7, #4
 1271 0068 1988     		ldrh	r1, [r3]
 1272 006a FB1D     		adds	r3, r7, #7
 1273 006c 1878     		ldrb	r0, [r3]
 1274 006e 0423     		movs	r3, #4
 1275 0070 FFF7FEFF 		bl	VL53L0X_write_multi16
 1276 0074 0300     		movs	r3, r0
 1277 0076 FB60     		str	r3, [r7, #12]
 362:tof_coms.c    **** 
 363:tof_coms.c    ****     return status;
 1278              		.loc 1 363 0
ARM GAS  C:\Users\ilya\AppData\Local\Temp\ccGij5YZ.s 			page 30


 1279 0078 FB68     		ldr	r3, [r7, #12]
 364:tof_coms.c    **** 
 365:tof_coms.c    **** }
 1280              		.loc 1 365 0
 1281 007a 1800     		movs	r0, r3
 1282 007c BD46     		mov	sp, r7
 1283 007e 04B0     		add	sp, sp, #16
 1284              		@ sp needed
 1285 0080 80BD     		pop	{r7, pc}
 1286              		.cfi_endproc
 1287              	.LFE51:
 1288              		.size	VL53L0X_write_dword16, .-VL53L0X_write_dword16
 1289 0082 C046     		.section	.text.VL53L0X_read_byte16,"ax",%progbits
 1290              		.align	2
 1291              		.global	VL53L0X_read_byte16
 1292              		.code	16
 1293              		.thumb_func
 1294              		.type	VL53L0X_read_byte16, %function
 1295              	VL53L0X_read_byte16:
 1296              	.LFB52:
 366:tof_coms.c    **** 
 367:tof_coms.c    **** 
 368:tof_coms.c    **** int32_t VL53L0X_read_byte16(uint8_t address, uint16_t index, uint8_t *pdata)
 369:tof_coms.c    **** {
 1297              		.loc 1 369 0
 1298              		.cfi_startproc
 1299              		@ args = 0, pretend = 0, frame = 16
 1300              		@ frame_needed = 1, uses_anonymous_args = 0
 1301 0000 90B5     		push	{r4, r7, lr}
 1302              		.cfi_def_cfa_offset 12
 1303              		.cfi_offset 4, -12
 1304              		.cfi_offset 7, -8
 1305              		.cfi_offset 14, -4
 1306 0002 85B0     		sub	sp, sp, #20
 1307              		.cfi_def_cfa_offset 32
 1308 0004 00AF     		add	r7, sp, #0
 1309              		.cfi_def_cfa_register 7
 1310 0006 3A60     		str	r2, [r7]
 1311 0008 FB1D     		adds	r3, r7, #7
 1312 000a 021C     		adds	r2, r0, #0
 1313 000c 1A70     		strb	r2, [r3]
 1314 000e 3B1D     		adds	r3, r7, #4
 1315 0010 0A1C     		adds	r2, r1, #0
 1316 0012 1A80     		strh	r2, [r3]
 370:tof_coms.c    ****     int32_t status = STATUS_OK;
 1317              		.loc 1 370 0
 1318 0014 0023     		movs	r3, #0
 1319 0016 FB60     		str	r3, [r7, #12]
 371:tof_coms.c    ****     int32_t cbyte_count = 1;
 1320              		.loc 1 371 0
 1321 0018 0123     		movs	r3, #1
 1322 001a BB60     		str	r3, [r7, #8]
 372:tof_coms.c    **** 
 373:tof_coms.c    ****     status = VL53L0X_read_multi16(address, index, pdata, cbyte_count);
 1323              		.loc 1 373 0
 1324 001c BC68     		ldr	r4, [r7, #8]
 1325 001e 3A68     		ldr	r2, [r7]
ARM GAS  C:\Users\ilya\AppData\Local\Temp\ccGij5YZ.s 			page 31


 1326 0020 3B1D     		adds	r3, r7, #4
 1327 0022 1988     		ldrh	r1, [r3]
 1328 0024 FB1D     		adds	r3, r7, #7
 1329 0026 1878     		ldrb	r0, [r3]
 1330 0028 2300     		movs	r3, r4
 1331 002a FFF7FEFF 		bl	VL53L0X_read_multi16
 1332 002e 0300     		movs	r3, r0
 1333 0030 FB60     		str	r3, [r7, #12]
 374:tof_coms.c    **** 
 375:tof_coms.c    **** #ifdef VL53L0X_LOG_ENABLE
 376:tof_coms.c    ****     trace_print(TRACE_LEVEL_INFO,"Read reg : 0x%02X, Val : 0x%02X\n", index, *pdata);
 377:tof_coms.c    **** #endif
 378:tof_coms.c    **** 
 379:tof_coms.c    ****     return status;
 1334              		.loc 1 379 0
 1335 0032 FB68     		ldr	r3, [r7, #12]
 380:tof_coms.c    **** 
 381:tof_coms.c    **** }
 1336              		.loc 1 381 0
 1337 0034 1800     		movs	r0, r3
 1338 0036 BD46     		mov	sp, r7
 1339 0038 05B0     		add	sp, sp, #20
 1340              		@ sp needed
 1341 003a 90BD     		pop	{r4, r7, pc}
 1342              		.cfi_endproc
 1343              	.LFE52:
 1344              		.size	VL53L0X_read_byte16, .-VL53L0X_read_byte16
 1345              		.section	.text.VL53L0X_read_word16,"ax",%progbits
 1346              		.align	2
 1347              		.global	VL53L0X_read_word16
 1348              		.code	16
 1349              		.thumb_func
 1350              		.type	VL53L0X_read_word16, %function
 1351              	VL53L0X_read_word16:
 1352              	.LFB53:
 382:tof_coms.c    **** 
 383:tof_coms.c    **** 
 384:tof_coms.c    **** int32_t VL53L0X_read_word16(uint8_t address, uint16_t index, uint16_t *pdata)
 385:tof_coms.c    **** {
 1353              		.loc 1 385 0
 1354              		.cfi_startproc
 1355              		@ args = 0, pretend = 0, frame = 16
 1356              		@ frame_needed = 1, uses_anonymous_args = 0
 1357 0000 80B5     		push	{r7, lr}
 1358              		.cfi_def_cfa_offset 8
 1359              		.cfi_offset 7, -8
 1360              		.cfi_offset 14, -4
 1361 0002 84B0     		sub	sp, sp, #16
 1362              		.cfi_def_cfa_offset 24
 1363 0004 00AF     		add	r7, sp, #0
 1364              		.cfi_def_cfa_register 7
 1365 0006 3A60     		str	r2, [r7]
 1366 0008 FB1D     		adds	r3, r7, #7
 1367 000a 021C     		adds	r2, r0, #0
 1368 000c 1A70     		strb	r2, [r3]
 1369 000e 3B1D     		adds	r3, r7, #4
 1370 0010 0A1C     		adds	r2, r1, #0
ARM GAS  C:\Users\ilya\AppData\Local\Temp\ccGij5YZ.s 			page 32


 1371 0012 1A80     		strh	r2, [r3]
 386:tof_coms.c    ****     int32_t  status = STATUS_OK;
 1372              		.loc 1 386 0
 1373 0014 0023     		movs	r3, #0
 1374 0016 FB60     		str	r3, [r7, #12]
 387:tof_coms.c    ****     uint8_t  buffer[BYTES_PER_WORD];
 388:tof_coms.c    **** 
 389:tof_coms.c    ****     status = VL53L0X_read_multi16(address, index, buffer, BYTES_PER_WORD);
 1375              		.loc 1 389 0
 1376 0018 0823     		movs	r3, #8
 1377 001a FA18     		adds	r2, r7, r3
 1378 001c 3B1D     		adds	r3, r7, #4
 1379 001e 1988     		ldrh	r1, [r3]
 1380 0020 FB1D     		adds	r3, r7, #7
 1381 0022 1878     		ldrb	r0, [r3]
 1382 0024 0223     		movs	r3, #2
 1383 0026 FFF7FEFF 		bl	VL53L0X_read_multi16
 1384 002a 0300     		movs	r3, r0
 1385 002c FB60     		str	r3, [r7, #12]
 390:tof_coms.c    ****     *pdata = ((uint16_t)buffer[0]<<8) + (uint16_t)buffer[1];
 1386              		.loc 1 390 0
 1387 002e 0823     		movs	r3, #8
 1388 0030 FB18     		adds	r3, r7, r3
 1389 0032 1B78     		ldrb	r3, [r3]
 1390 0034 9BB2     		uxth	r3, r3
 1391 0036 1B02     		lsls	r3, r3, #8
 1392 0038 9AB2     		uxth	r2, r3
 1393 003a 0823     		movs	r3, #8
 1394 003c FB18     		adds	r3, r7, r3
 1395 003e 5B78     		ldrb	r3, [r3, #1]
 1396 0040 9BB2     		uxth	r3, r3
 1397 0042 D318     		adds	r3, r2, r3
 1398 0044 9AB2     		uxth	r2, r3
 1399 0046 3B68     		ldr	r3, [r7]
 1400 0048 1A80     		strh	r2, [r3]
 391:tof_coms.c    **** 
 392:tof_coms.c    ****     return status;
 1401              		.loc 1 392 0
 1402 004a FB68     		ldr	r3, [r7, #12]
 393:tof_coms.c    **** 
 394:tof_coms.c    **** }
 1403              		.loc 1 394 0
 1404 004c 1800     		movs	r0, r3
 1405 004e BD46     		mov	sp, r7
 1406 0050 04B0     		add	sp, sp, #16
 1407              		@ sp needed
 1408 0052 80BD     		pop	{r7, pc}
 1409              		.cfi_endproc
 1410              	.LFE53:
 1411              		.size	VL53L0X_read_word16, .-VL53L0X_read_word16
 1412              		.section	.text.VL53L0X_read_dword16,"ax",%progbits
 1413              		.align	2
 1414              		.global	VL53L0X_read_dword16
 1415              		.code	16
 1416              		.thumb_func
 1417              		.type	VL53L0X_read_dword16, %function
 1418              	VL53L0X_read_dword16:
ARM GAS  C:\Users\ilya\AppData\Local\Temp\ccGij5YZ.s 			page 33


 1419              	.LFB54:
 395:tof_coms.c    **** 
 396:tof_coms.c    **** int32_t VL53L0X_read_dword16(uint8_t address, uint16_t index, uint32_t *pdata)
 397:tof_coms.c    **** {
 1420              		.loc 1 397 0
 1421              		.cfi_startproc
 1422              		@ args = 0, pretend = 0, frame = 16
 1423              		@ frame_needed = 1, uses_anonymous_args = 0
 1424 0000 80B5     		push	{r7, lr}
 1425              		.cfi_def_cfa_offset 8
 1426              		.cfi_offset 7, -8
 1427              		.cfi_offset 14, -4
 1428 0002 84B0     		sub	sp, sp, #16
 1429              		.cfi_def_cfa_offset 24
 1430 0004 00AF     		add	r7, sp, #0
 1431              		.cfi_def_cfa_register 7
 1432 0006 3A60     		str	r2, [r7]
 1433 0008 FB1D     		adds	r3, r7, #7
 1434 000a 021C     		adds	r2, r0, #0
 1435 000c 1A70     		strb	r2, [r3]
 1436 000e 3B1D     		adds	r3, r7, #4
 1437 0010 0A1C     		adds	r2, r1, #0
 1438 0012 1A80     		strh	r2, [r3]
 398:tof_coms.c    ****     int32_t status = STATUS_OK;
 1439              		.loc 1 398 0
 1440 0014 0023     		movs	r3, #0
 1441 0016 FB60     		str	r3, [r7, #12]
 399:tof_coms.c    ****     uint8_t  buffer[BYTES_PER_DWORD];
 400:tof_coms.c    **** 
 401:tof_coms.c    ****     status = VL53L0X_read_multi16(address, index, buffer, BYTES_PER_DWORD);
 1442              		.loc 1 401 0
 1443 0018 0823     		movs	r3, #8
 1444 001a FA18     		adds	r2, r7, r3
 1445 001c 3B1D     		adds	r3, r7, #4
 1446 001e 1988     		ldrh	r1, [r3]
 1447 0020 FB1D     		adds	r3, r7, #7
 1448 0022 1878     		ldrb	r0, [r3]
 1449 0024 0423     		movs	r3, #4
 1450 0026 FFF7FEFF 		bl	VL53L0X_read_multi16
 1451 002a 0300     		movs	r3, r0
 1452 002c FB60     		str	r3, [r7, #12]
 402:tof_coms.c    ****     *pdata = ((uint32_t)buffer[0]<<24) + ((uint32_t)buffer[1]<<16) + ((uint32_t)buffer[2]<<8) + (ui
 1453              		.loc 1 402 0
 1454 002e 0823     		movs	r3, #8
 1455 0030 FB18     		adds	r3, r7, r3
 1456 0032 1B78     		ldrb	r3, [r3]
 1457 0034 1A06     		lsls	r2, r3, #24
 1458 0036 0823     		movs	r3, #8
 1459 0038 FB18     		adds	r3, r7, r3
 1460 003a 5B78     		ldrb	r3, [r3, #1]
 1461 003c 1B04     		lsls	r3, r3, #16
 1462 003e D218     		adds	r2, r2, r3
 1463 0040 0823     		movs	r3, #8
 1464 0042 FB18     		adds	r3, r7, r3
 1465 0044 9B78     		ldrb	r3, [r3, #2]
 1466 0046 1B02     		lsls	r3, r3, #8
 1467 0048 D318     		adds	r3, r2, r3
ARM GAS  C:\Users\ilya\AppData\Local\Temp\ccGij5YZ.s 			page 34


 1468 004a 0822     		movs	r2, #8
 1469 004c BA18     		adds	r2, r7, r2
 1470 004e D278     		ldrb	r2, [r2, #3]
 1471 0050 9A18     		adds	r2, r3, r2
 1472 0052 3B68     		ldr	r3, [r7]
 1473 0054 1A60     		str	r2, [r3]
 403:tof_coms.c    **** 
 404:tof_coms.c    ****     return status;
 1474              		.loc 1 404 0
 1475 0056 FB68     		ldr	r3, [r7, #12]
 405:tof_coms.c    **** 
 406:tof_coms.c    **** }
 1476              		.loc 1 406 0
 1477 0058 1800     		movs	r0, r3
 1478 005a BD46     		mov	sp, r7
 1479 005c 04B0     		add	sp, sp, #16
 1480              		@ sp needed
 1481 005e 80BD     		pop	{r7, pc}
 1482              		.cfi_endproc
 1483              	.LFE54:
 1484              		.size	VL53L0X_read_dword16, .-VL53L0X_read_dword16
 1485              		.global	__aeabi_i2f
 1486              		.global	__aeabi_fdiv
 1487              		.section	.text.VL53L0X_platform_wait_us,"ax",%progbits
 1488              		.align	2
 1489              		.global	VL53L0X_platform_wait_us
 1490              		.code	16
 1491              		.thumb_func
 1492              		.type	VL53L0X_platform_wait_us, %function
 1493              	VL53L0X_platform_wait_us:
 1494              	.LFB55:
 407:tof_coms.c    **** 
 408:tof_coms.c    **** 
 409:tof_coms.c    **** 
 410:tof_coms.c    **** 
 411:tof_coms.c    **** int32_t VL53L0X_platform_wait_us(int32_t wait_us)
 412:tof_coms.c    **** {
 1495              		.loc 1 412 0
 1496              		.cfi_startproc
 1497              		@ args = 0, pretend = 0, frame = 16
 1498              		@ frame_needed = 1, uses_anonymous_args = 0
 1499 0000 80B5     		push	{r7, lr}
 1500              		.cfi_def_cfa_offset 8
 1501              		.cfi_offset 7, -8
 1502              		.cfi_offset 14, -4
 1503 0002 84B0     		sub	sp, sp, #16
 1504              		.cfi_def_cfa_offset 24
 1505 0004 00AF     		add	r7, sp, #0
 1506              		.cfi_def_cfa_register 7
 1507 0006 7860     		str	r0, [r7, #4]
 413:tof_coms.c    ****     int32_t status = STATUS_OK;
 1508              		.loc 1 413 0
 1509 0008 0023     		movs	r3, #0
 1510 000a FB60     		str	r3, [r7, #12]
 414:tof_coms.c    ****     float wait_ms = (float)wait_us/1000.0f;
 1511              		.loc 1 414 0
 1512 000c 7868     		ldr	r0, [r7, #4]
ARM GAS  C:\Users\ilya\AppData\Local\Temp\ccGij5YZ.s 			page 35


 1513 000e FFF7FEFF 		bl	__aeabi_i2f
 1514 0012 031C     		adds	r3, r0, #0
 1515 0014 0549     		ldr	r1, .L58
 1516 0016 181C     		adds	r0, r3, #0
 1517 0018 FFF7FEFF 		bl	__aeabi_fdiv
 1518 001c 031C     		adds	r3, r0, #0
 1519 001e BB60     		str	r3, [r7, #8]
 415:tof_coms.c    **** 
 416:tof_coms.c    **** 
 417:tof_coms.c    **** 
 418:tof_coms.c    **** #ifdef VL53L0X_LOG_ENABLE
 419:tof_coms.c    ****     trace_i2c("Wait us : %6d\n", wait_us);
 420:tof_coms.c    **** #endif
 421:tof_coms.c    **** 
 422:tof_coms.c    ****     return status;
 1520              		.loc 1 422 0
 1521 0020 FB68     		ldr	r3, [r7, #12]
 423:tof_coms.c    **** 
 424:tof_coms.c    **** }
 1522              		.loc 1 424 0
 1523 0022 1800     		movs	r0, r3
 1524 0024 BD46     		mov	sp, r7
 1525 0026 04B0     		add	sp, sp, #16
 1526              		@ sp needed
 1527 0028 80BD     		pop	{r7, pc}
 1528              	.L59:
 1529 002a C046     		.align	2
 1530              	.L58:
 1531 002c 00007A44 		.word	1148846080
 1532              		.cfi_endproc
 1533              	.LFE55:
 1534              		.size	VL53L0X_platform_wait_us, .-VL53L0X_platform_wait_us
 1535              		.section	.text.VL53L0X_wait_ms,"ax",%progbits
 1536              		.align	2
 1537              		.global	VL53L0X_wait_ms
 1538              		.code	16
 1539              		.thumb_func
 1540              		.type	VL53L0X_wait_ms, %function
 1541              	VL53L0X_wait_ms:
 1542              	.LFB56:
 425:tof_coms.c    **** 
 426:tof_coms.c    **** 
 427:tof_coms.c    **** int32_t VL53L0X_wait_ms(int32_t wait_ms)
 428:tof_coms.c    **** {
 1543              		.loc 1 428 0
 1544              		.cfi_startproc
 1545              		@ args = 0, pretend = 0, frame = 16
 1546              		@ frame_needed = 1, uses_anonymous_args = 0
 1547 0000 80B5     		push	{r7, lr}
 1548              		.cfi_def_cfa_offset 8
 1549              		.cfi_offset 7, -8
 1550              		.cfi_offset 14, -4
 1551 0002 84B0     		sub	sp, sp, #16
 1552              		.cfi_def_cfa_offset 24
 1553 0004 00AF     		add	r7, sp, #0
 1554              		.cfi_def_cfa_register 7
 1555 0006 7860     		str	r0, [r7, #4]
ARM GAS  C:\Users\ilya\AppData\Local\Temp\ccGij5YZ.s 			page 36


 429:tof_coms.c    ****     int32_t status = STATUS_OK;
 1556              		.loc 1 429 0
 1557 0008 0023     		movs	r3, #0
 1558 000a FB60     		str	r3, [r7, #12]
 430:tof_coms.c    **** 
 431:tof_coms.c    **** 
 432:tof_coms.c    **** 
 433:tof_coms.c    **** #ifdef VL53L0X_LOG_ENABLE
 434:tof_coms.c    ****     trace_i2c("Wait ms : %6d\n", wait_ms);
 435:tof_coms.c    **** #endif
 436:tof_coms.c    **** 
 437:tof_coms.c    ****     return status;
 1559              		.loc 1 437 0
 1560 000c FB68     		ldr	r3, [r7, #12]
 438:tof_coms.c    **** 
 439:tof_coms.c    **** }
 1561              		.loc 1 439 0
 1562 000e 1800     		movs	r0, r3
 1563 0010 BD46     		mov	sp, r7
 1564 0012 04B0     		add	sp, sp, #16
 1565              		@ sp needed
 1566 0014 80BD     		pop	{r7, pc}
 1567              		.cfi_endproc
 1568              	.LFE56:
 1569              		.size	VL53L0X_wait_ms, .-VL53L0X_wait_ms
 1570 0016 C046     		.section	.text.VL53L0X_set_gpio,"ax",%progbits
 1571              		.align	2
 1572              		.global	VL53L0X_set_gpio
 1573              		.code	16
 1574              		.thumb_func
 1575              		.type	VL53L0X_set_gpio, %function
 1576              	VL53L0X_set_gpio:
 1577              	.LFB57:
 440:tof_coms.c    **** 
 441:tof_coms.c    **** 
 442:tof_coms.c    **** int32_t VL53L0X_set_gpio(uint8_t level)
 443:tof_coms.c    **** {
 1578              		.loc 1 443 0
 1579              		.cfi_startproc
 1580              		@ args = 0, pretend = 0, frame = 16
 1581              		@ frame_needed = 1, uses_anonymous_args = 0
 1582 0000 80B5     		push	{r7, lr}
 1583              		.cfi_def_cfa_offset 8
 1584              		.cfi_offset 7, -8
 1585              		.cfi_offset 14, -4
 1586 0002 84B0     		sub	sp, sp, #16
 1587              		.cfi_def_cfa_offset 24
 1588 0004 00AF     		add	r7, sp, #0
 1589              		.cfi_def_cfa_register 7
 1590 0006 0200     		movs	r2, r0
 1591 0008 FB1D     		adds	r3, r7, #7
 1592 000a 1A70     		strb	r2, [r3]
 444:tof_coms.c    ****     int32_t status = STATUS_OK;
 1593              		.loc 1 444 0
 1594 000c 0023     		movs	r3, #0
 1595 000e FB60     		str	r3, [r7, #12]
 445:tof_coms.c    ****     //status = VL53L0X_set_gpio_sv(level);
ARM GAS  C:\Users\ilya\AppData\Local\Temp\ccGij5YZ.s 			page 37


 446:tof_coms.c    **** #ifdef VL53L0X_LOG_ENABLE
 447:tof_coms.c    ****     trace_i2c("// Set GPIO = %d;\n", level);
 448:tof_coms.c    **** #endif
 449:tof_coms.c    ****     return status;
 1596              		.loc 1 449 0
 1597 0010 FB68     		ldr	r3, [r7, #12]
 450:tof_coms.c    **** 
 451:tof_coms.c    **** }
 1598              		.loc 1 451 0
 1599 0012 1800     		movs	r0, r3
 1600 0014 BD46     		mov	sp, r7
 1601 0016 04B0     		add	sp, sp, #16
 1602              		@ sp needed
 1603 0018 80BD     		pop	{r7, pc}
 1604              		.cfi_endproc
 1605              	.LFE57:
 1606              		.size	VL53L0X_set_gpio, .-VL53L0X_set_gpio
 1607 001a C046     		.section	.text.VL53L0X_get_gpio,"ax",%progbits
 1608              		.align	2
 1609              		.global	VL53L0X_get_gpio
 1610              		.code	16
 1611              		.thumb_func
 1612              		.type	VL53L0X_get_gpio, %function
 1613              	VL53L0X_get_gpio:
 1614              	.LFB58:
 452:tof_coms.c    **** 
 453:tof_coms.c    **** 
 454:tof_coms.c    **** int32_t VL53L0X_get_gpio(uint8_t *plevel)
 455:tof_coms.c    **** {
 1615              		.loc 1 455 0
 1616              		.cfi_startproc
 1617              		@ args = 0, pretend = 0, frame = 16
 1618              		@ frame_needed = 1, uses_anonymous_args = 0
 1619 0000 80B5     		push	{r7, lr}
 1620              		.cfi_def_cfa_offset 8
 1621              		.cfi_offset 7, -8
 1622              		.cfi_offset 14, -4
 1623 0002 84B0     		sub	sp, sp, #16
 1624              		.cfi_def_cfa_offset 24
 1625 0004 00AF     		add	r7, sp, #0
 1626              		.cfi_def_cfa_register 7
 1627 0006 7860     		str	r0, [r7, #4]
 456:tof_coms.c    ****     int32_t status = STATUS_OK;
 1628              		.loc 1 456 0
 1629 0008 0023     		movs	r3, #0
 1630 000a FB60     		str	r3, [r7, #12]
 457:tof_coms.c    **** #ifdef VL53L0X_LOG_ENABLE
 458:tof_coms.c    ****     trace_i2c("// Get GPIO = %d;\n", *plevel);
 459:tof_coms.c    **** #endif
 460:tof_coms.c    ****     return status;
 1631              		.loc 1 460 0
 1632 000c FB68     		ldr	r3, [r7, #12]
 461:tof_coms.c    **** }
 1633              		.loc 1 461 0
 1634 000e 1800     		movs	r0, r3
 1635 0010 BD46     		mov	sp, r7
 1636 0012 04B0     		add	sp, sp, #16
ARM GAS  C:\Users\ilya\AppData\Local\Temp\ccGij5YZ.s 			page 38


 1637              		@ sp needed
 1638 0014 80BD     		pop	{r7, pc}
 1639              		.cfi_endproc
 1640              	.LFE58:
 1641              		.size	VL53L0X_get_gpio, .-VL53L0X_get_gpio
 1642 0016 C046     		.section	.text.VL53L0X_release_gpio,"ax",%progbits
 1643              		.align	2
 1644              		.global	VL53L0X_release_gpio
 1645              		.code	16
 1646              		.thumb_func
 1647              		.type	VL53L0X_release_gpio, %function
 1648              	VL53L0X_release_gpio:
 1649              	.LFB59:
 462:tof_coms.c    **** 
 463:tof_coms.c    **** 
 464:tof_coms.c    **** int32_t VL53L0X_release_gpio(void)
 465:tof_coms.c    **** {
 1650              		.loc 1 465 0
 1651              		.cfi_startproc
 1652              		@ args = 0, pretend = 0, frame = 8
 1653              		@ frame_needed = 1, uses_anonymous_args = 0
 1654 0000 80B5     		push	{r7, lr}
 1655              		.cfi_def_cfa_offset 8
 1656              		.cfi_offset 7, -8
 1657              		.cfi_offset 14, -4
 1658 0002 82B0     		sub	sp, sp, #8
 1659              		.cfi_def_cfa_offset 16
 1660 0004 00AF     		add	r7, sp, #0
 1661              		.cfi_def_cfa_register 7
 466:tof_coms.c    ****     int32_t status = STATUS_OK;
 1662              		.loc 1 466 0
 1663 0006 0023     		movs	r3, #0
 1664 0008 7B60     		str	r3, [r7, #4]
 467:tof_coms.c    **** #ifdef VL53L0X_LOG_ENABLE
 468:tof_coms.c    ****     trace_i2c("// Releasing force on GPIO\n");
 469:tof_coms.c    **** #endif
 470:tof_coms.c    ****     return status;
 1665              		.loc 1 470 0
 1666 000a 7B68     		ldr	r3, [r7, #4]
 471:tof_coms.c    **** 
 472:tof_coms.c    **** }
 1667              		.loc 1 472 0
 1668 000c 1800     		movs	r0, r3
 1669 000e BD46     		mov	sp, r7
 1670 0010 02B0     		add	sp, sp, #8
 1671              		@ sp needed
 1672 0012 80BD     		pop	{r7, pc}
 1673              		.cfi_endproc
 1674              	.LFE59:
 1675              		.size	VL53L0X_release_gpio, .-VL53L0X_release_gpio
 1676              		.section	.text.VL53L0X_cycle_power,"ax",%progbits
 1677              		.align	2
 1678              		.global	VL53L0X_cycle_power
 1679              		.code	16
 1680              		.thumb_func
 1681              		.type	VL53L0X_cycle_power, %function
 1682              	VL53L0X_cycle_power:
ARM GAS  C:\Users\ilya\AppData\Local\Temp\ccGij5YZ.s 			page 39


 1683              	.LFB60:
 473:tof_coms.c    **** 
 474:tof_coms.c    **** int32_t VL53L0X_cycle_power(void)
 475:tof_coms.c    **** {
 1684              		.loc 1 475 0
 1685              		.cfi_startproc
 1686              		@ args = 0, pretend = 0, frame = 8
 1687              		@ frame_needed = 1, uses_anonymous_args = 0
 1688 0000 80B5     		push	{r7, lr}
 1689              		.cfi_def_cfa_offset 8
 1690              		.cfi_offset 7, -8
 1691              		.cfi_offset 14, -4
 1692 0002 82B0     		sub	sp, sp, #8
 1693              		.cfi_def_cfa_offset 16
 1694 0004 00AF     		add	r7, sp, #0
 1695              		.cfi_def_cfa_register 7
 476:tof_coms.c    ****     int32_t status = STATUS_OK;
 1696              		.loc 1 476 0
 1697 0006 0023     		movs	r3, #0
 1698 0008 7B60     		str	r3, [r7, #4]
 477:tof_coms.c    **** #ifdef VL53L0X_LOG_ENABLE
 478:tof_coms.c    ****     trace_i2c("// cycle sensor power\n");
 479:tof_coms.c    **** #endif
 480:tof_coms.c    **** 	return status;
 1699              		.loc 1 480 0
 1700 000a 7B68     		ldr	r3, [r7, #4]
 481:tof_coms.c    **** }
 1701              		.loc 1 481 0
 1702 000c 1800     		movs	r0, r3
 1703 000e BD46     		mov	sp, r7
 1704 0010 02B0     		add	sp, sp, #8
 1705              		@ sp needed
 1706 0012 80BD     		pop	{r7, pc}
 1707              		.cfi_endproc
 1708              	.LFE60:
 1709              		.size	VL53L0X_cycle_power, .-VL53L0X_cycle_power
 1710              		.section	.text.VL53L0X_get_timer_frequency,"ax",%progbits
 1711              		.align	2
 1712              		.global	VL53L0X_get_timer_frequency
 1713              		.code	16
 1714              		.thumb_func
 1715              		.type	VL53L0X_get_timer_frequency, %function
 1716              	VL53L0X_get_timer_frequency:
 1717              	.LFB61:
 482:tof_coms.c    **** 
 483:tof_coms.c    **** 
 484:tof_coms.c    **** int32_t VL53L0X_get_timer_frequency(int32_t *ptimer_freq_hz)
 485:tof_coms.c    **** {
 1718              		.loc 1 485 0
 1719              		.cfi_startproc
 1720              		@ args = 0, pretend = 0, frame = 8
 1721              		@ frame_needed = 1, uses_anonymous_args = 0
 1722 0000 80B5     		push	{r7, lr}
 1723              		.cfi_def_cfa_offset 8
 1724              		.cfi_offset 7, -8
 1725              		.cfi_offset 14, -4
 1726 0002 82B0     		sub	sp, sp, #8
ARM GAS  C:\Users\ilya\AppData\Local\Temp\ccGij5YZ.s 			page 40


 1727              		.cfi_def_cfa_offset 16
 1728 0004 00AF     		add	r7, sp, #0
 1729              		.cfi_def_cfa_register 7
 1730 0006 7860     		str	r0, [r7, #4]
 486:tof_coms.c    ****        *ptimer_freq_hz = 0;
 1731              		.loc 1 486 0
 1732 0008 7B68     		ldr	r3, [r7, #4]
 1733 000a 0022     		movs	r2, #0
 1734 000c 1A60     		str	r2, [r3]
 487:tof_coms.c    ****        return STATUS_FAIL;
 1735              		.loc 1 487 0
 1736 000e 0123     		movs	r3, #1
 488:tof_coms.c    **** }
 1737              		.loc 1 488 0
 1738 0010 1800     		movs	r0, r3
 1739 0012 BD46     		mov	sp, r7
 1740 0014 02B0     		add	sp, sp, #8
 1741              		@ sp needed
 1742 0016 80BD     		pop	{r7, pc}
 1743              		.cfi_endproc
 1744              	.LFE61:
 1745              		.size	VL53L0X_get_timer_frequency, .-VL53L0X_get_timer_frequency
 1746              		.section	.text.VL53L0X_get_timer_value,"ax",%progbits
 1747              		.align	2
 1748              		.global	VL53L0X_get_timer_value
 1749              		.code	16
 1750              		.thumb_func
 1751              		.type	VL53L0X_get_timer_value, %function
 1752              	VL53L0X_get_timer_value:
 1753              	.LFB62:
 489:tof_coms.c    **** 
 490:tof_coms.c    **** 
 491:tof_coms.c    **** int32_t VL53L0X_get_timer_value(int32_t *ptimer_count)
 492:tof_coms.c    **** {
 1754              		.loc 1 492 0
 1755              		.cfi_startproc
 1756              		@ args = 0, pretend = 0, frame = 8
 1757              		@ frame_needed = 1, uses_anonymous_args = 0
 1758 0000 80B5     		push	{r7, lr}
 1759              		.cfi_def_cfa_offset 8
 1760              		.cfi_offset 7, -8
 1761              		.cfi_offset 14, -4
 1762 0002 82B0     		sub	sp, sp, #8
 1763              		.cfi_def_cfa_offset 16
 1764 0004 00AF     		add	r7, sp, #0
 1765              		.cfi_def_cfa_register 7
 1766 0006 7860     		str	r0, [r7, #4]
 493:tof_coms.c    ****        *ptimer_count = 0;
 1767              		.loc 1 493 0
 1768 0008 7B68     		ldr	r3, [r7, #4]
 1769 000a 0022     		movs	r2, #0
 1770 000c 1A60     		str	r2, [r3]
 494:tof_coms.c    ****        return STATUS_FAIL;
 1771              		.loc 1 494 0
 1772 000e 0123     		movs	r3, #1
 495:tof_coms.c    **** }
 1773              		.loc 1 495 0
ARM GAS  C:\Users\ilya\AppData\Local\Temp\ccGij5YZ.s 			page 41


 1774 0010 1800     		movs	r0, r3
 1775 0012 BD46     		mov	sp, r7
 1776 0014 02B0     		add	sp, sp, #8
 1777              		@ sp needed
 1778 0016 80BD     		pop	{r7, pc}
 1779              		.cfi_endproc
 1780              	.LFE62:
 1781              		.size	VL53L0X_get_timer_value, .-VL53L0X_get_timer_value
 1782              		.section	.rodata
 1783              		.align	2
 1784              	.LC0:
 1785 0000 41504920 		.ascii	"API Status: %i : %s\012\000"
 1785      53746174 
 1785      75733A20 
 1785      2569203A 
 1785      2025730A 
 1786              		.section	.text.print_pal_error,"ax",%progbits
 1787              		.align	2
 1788              		.global	print_pal_error
 1789              		.code	16
 1790              		.thumb_func
 1791              		.type	print_pal_error, %function
 1792              	print_pal_error:
 1793              	.LFB63:
 496:tof_coms.c    **** 
 497:tof_coms.c    **** 
 498:tof_coms.c    **** /*
 499:tof_coms.c    ****  * tof.c
 500:tof_coms.c    ****  *
 501:tof_coms.c    ****  *  Created on: Mar 16, 2018
 502:tof_coms.c    ****  *      Author: PTG
 503:tof_coms.c    ****  */
 504:tof_coms.c    **** #include "vl53l0x_api.h"
 505:tof_coms.c    **** #include "vl53l0x_platform.h"
 506:tof_coms.c    **** //#include "required_version.h"
 507:tof_coms.c    **** //#include "get_nucleo_serial_comm.h"
 508:tof_coms.c    **** //#include <malloc.h>
 509:tof_coms.c    **** 
 510:tof_coms.c    **** 
 511:tof_coms.c    **** void print_pal_error(VL53L0X_Error Status){
 1794              		.loc 1 511 0
 1795              		.cfi_startproc
 1796              		@ args = 0, pretend = 0, frame = 40
 1797              		@ frame_needed = 1, uses_anonymous_args = 0
 1798 0000 80B5     		push	{r7, lr}
 1799              		.cfi_def_cfa_offset 8
 1800              		.cfi_offset 7, -8
 1801              		.cfi_offset 14, -4
 1802 0002 8AB0     		sub	sp, sp, #40
 1803              		.cfi_def_cfa_offset 48
 1804 0004 00AF     		add	r7, sp, #0
 1805              		.cfi_def_cfa_register 7
 1806 0006 0200     		movs	r2, r0
 1807 0008 FB1D     		adds	r3, r7, #7
 1808 000a 1A70     		strb	r2, [r3]
 512:tof_coms.c    ****     char buf[VL53L0X_MAX_STRING_LENGTH];
 513:tof_coms.c    ****     VL53L0X_GetPalErrorString(Status, buf);
ARM GAS  C:\Users\ilya\AppData\Local\Temp\ccGij5YZ.s 			page 42


 1809              		.loc 1 513 0
 1810 000c 0823     		movs	r3, #8
 1811 000e FA18     		adds	r2, r7, r3
 1812 0010 FB1D     		adds	r3, r7, #7
 1813 0012 1B78     		ldrb	r3, [r3]
 1814 0014 5BB2     		sxtb	r3, r3
 1815 0016 1100     		movs	r1, r2
 1816 0018 1800     		movs	r0, r3
 1817 001a FFF7FEFF 		bl	VL53L0X_GetPalErrorString
 514:tof_coms.c    ****     printf("API Status: %i : %s\n", Status, buf);
 1818              		.loc 1 514 0
 1819 001e FB1D     		adds	r3, r7, #7
 1820 0020 0021     		movs	r1, #0
 1821 0022 5956     		ldrsb	r1, [r3, r1]
 1822 0024 0823     		movs	r3, #8
 1823 0026 FA18     		adds	r2, r7, r3
 1824 0028 034B     		ldr	r3, .L75
 1825 002a 1800     		movs	r0, r3
 1826 002c FFF7FEFF 		bl	myprintf
 515:tof_coms.c    **** }
 1827              		.loc 1 515 0
 1828 0030 C046     		nop
 1829 0032 BD46     		mov	sp, r7
 1830 0034 0AB0     		add	sp, sp, #40
 1831              		@ sp needed
 1832 0036 80BD     		pop	{r7, pc}
 1833              	.L76:
 1834              		.align	2
 1835              	.L75:
 1836 0038 00000000 		.word	.LC0
 1837              		.cfi_endproc
 1838              	.LFE63:
 1839              		.size	print_pal_error, .-print_pal_error
 1840              		.section	.rodata
 1841 0015 000000   		.align	2
 1842              	.LC2:
 1843 0018 52616E67 		.ascii	"Range Status: %i : %s\012\000"
 1843      65205374 
 1843      61747573 
 1843      3A202569 
 1843      203A2025 
 1844              		.section	.text.print_range_status,"ax",%progbits
 1845              		.align	2
 1846              		.global	print_range_status
 1847              		.code	16
 1848              		.thumb_func
 1849              		.type	print_range_status, %function
 1850              	print_range_status:
 1851              	.LFB64:
 516:tof_coms.c    **** 
 517:tof_coms.c    **** void print_range_status(VL53L0X_RangingMeasurementData_t* pRangingMeasurementData){
 1852              		.loc 1 517 0
 1853              		.cfi_startproc
 1854              		@ args = 0, pretend = 0, frame = 48
 1855              		@ frame_needed = 1, uses_anonymous_args = 0
 1856 0000 80B5     		push	{r7, lr}
 1857              		.cfi_def_cfa_offset 8
ARM GAS  C:\Users\ilya\AppData\Local\Temp\ccGij5YZ.s 			page 43


 1858              		.cfi_offset 7, -8
 1859              		.cfi_offset 14, -4
 1860 0002 8CB0     		sub	sp, sp, #48
 1861              		.cfi_def_cfa_offset 56
 1862 0004 00AF     		add	r7, sp, #0
 1863              		.cfi_def_cfa_register 7
 1864 0006 7860     		str	r0, [r7, #4]
 518:tof_coms.c    ****     char buf[VL53L0X_MAX_STRING_LENGTH];
 519:tof_coms.c    ****     uint8_t RangeStatus;
 520:tof_coms.c    **** 
 521:tof_coms.c    ****     /*
 522:tof_coms.c    ****      * New Range Status: data is valid when pRangingMeasurementData->RangeStatus = 0
 523:tof_coms.c    ****      */
 524:tof_coms.c    **** 
 525:tof_coms.c    ****     RangeStatus = pRangingMeasurementData->RangeStatus;
 1865              		.loc 1 525 0
 1866 0008 2F23     		movs	r3, #47
 1867 000a FB18     		adds	r3, r7, r3
 1868 000c 7A68     		ldr	r2, [r7, #4]
 1869 000e 127E     		ldrb	r2, [r2, #24]
 1870 0010 1A70     		strb	r2, [r3]
 526:tof_coms.c    **** 
 527:tof_coms.c    ****     VL53L0X_GetRangeStatusString(RangeStatus, buf);
 1871              		.loc 1 527 0
 1872 0012 0C23     		movs	r3, #12
 1873 0014 FA18     		adds	r2, r7, r3
 1874 0016 2F23     		movs	r3, #47
 1875 0018 FB18     		adds	r3, r7, r3
 1876 001a 1B78     		ldrb	r3, [r3]
 1877 001c 1100     		movs	r1, r2
 1878 001e 1800     		movs	r0, r3
 1879 0020 FFF7FEFF 		bl	VL53L0X_GetRangeStatusString
 528:tof_coms.c    ****     printf("Range Status: %i : %s\n", RangeStatus, buf);
 1880              		.loc 1 528 0
 1881 0024 2F23     		movs	r3, #47
 1882 0026 FB18     		adds	r3, r7, r3
 1883 0028 1978     		ldrb	r1, [r3]
 1884 002a 0C23     		movs	r3, #12
 1885 002c FA18     		adds	r2, r7, r3
 1886 002e 044B     		ldr	r3, .L78
 1887 0030 1800     		movs	r0, r3
 1888 0032 FFF7FEFF 		bl	myprintf
 529:tof_coms.c    **** 
 530:tof_coms.c    **** }
 1889              		.loc 1 530 0
 1890 0036 C046     		nop
 1891 0038 BD46     		mov	sp, r7
 1892 003a 0CB0     		add	sp, sp, #48
 1893              		@ sp needed
 1894 003c 80BD     		pop	{r7, pc}
 1895              	.L79:
 1896 003e C046     		.align	2
 1897              	.L78:
 1898 0040 18000000 		.word	.LC2
 1899              		.cfi_endproc
 1900              	.LFE64:
 1901              		.size	print_range_status, .-print_range_status
ARM GAS  C:\Users\ilya\AppData\Local\Temp\ccGij5YZ.s 			page 44


 1902              		.section	.rodata
 1903 002f 00       		.align	2
 1904              	.LC4:
 1905 0030 43616C6C 		.ascii	"Call of VL53L0X_StaticInit\012\000"
 1905      206F6620 
 1905      564C3533 
 1905      4C30585F 
 1905      53746174 
 1906              		.align	2
 1907              	.LC6:
 1908 004c 43616C6C 		.ascii	"Call of VL53L0X_PerformRefCalibration\012\000"
 1908      206F6620 
 1908      564C3533 
 1908      4C30585F 
 1908      50657266 
 1909 0073 00       		.align	2
 1910              	.LC8:
 1911 0074 43616C6C 		.ascii	"Call of VL53L0X_PerformRefSpadManagement\012\000"
 1911      206F6620 
 1911      564C3533 
 1911      4C30585F 
 1911      50657266 
 1912 009e 0000     		.align	2
 1913              	.LC10:
 1914 00a0 72656653 		.ascii	"refSpadCount = %d, isApertureSpads = %d\012\000"
 1914      70616443 
 1914      6F756E74 
 1914      203D2025 
 1914      642C2069 
 1915 00c9 000000   		.align	2
 1916              	.LC12:
 1917 00cc 43616C6C 		.ascii	"Call of VL53L0X_SetDeviceMode\012\000"
 1917      206F6620 
 1917      564C3533 
 1917      4C30585F 
 1917      53657444 
 1918 00eb 00       		.align	2
 1919              	.LC14:
 1920 00ec 43616C6C 		.ascii	"Call of VL53L0X_PerformSingleRangingMeasurement\012"
 1920      206F6620 
 1920      564C3533 
 1920      4C30585F 
 1920      50657266 
 1921 011c 00       		.ascii	"\000"
 1922              		.global	__aeabi_ui2f
 1923              		.global	__aeabi_f2d
 1924              		.global	__aeabi_ddiv
 1925 011d 000000   		.align	2
 1926              	.LC16:
 1927 0120 52414E47 		.ascii	"RANGE IGNORE THRESHOLD: %f\012\012\000"
 1927      45204947 
 1927      4E4F5245 
 1927      20544852 
 1927      4553484F 
 1928 013d 000000   		.align	2
 1929              	.LC18:
 1930 0140 4D656173 		.ascii	"Measured distance: %i\012\012\000"
ARM GAS  C:\Users\ilya\AppData\Local\Temp\ccGij5YZ.s 			page 45


 1930      75726564 
 1930      20646973 
 1930      74616E63 
 1930      653A2025 
 1931              		.section	.text.rangingTest,"ax",%progbits
 1932              		.align	2
 1933              		.global	rangingTest
 1934              		.code	16
 1935              		.thumb_func
 1936              		.type	rangingTest, %function
 1937              	rangingTest:
 1938              	.LFB65:
 531:tof_coms.c    **** 
 532:tof_coms.c    **** 
 533:tof_coms.c    **** VL53L0X_Error rangingTest(VL53L0X_Dev_t *pMyDevice)
 534:tof_coms.c    **** {
 1939              		.loc 1 534 0
 1940              		.cfi_startproc
 1941              		@ args = 0, pretend = 0, frame = 56
 1942              		@ frame_needed = 1, uses_anonymous_args = 0
 1943 0000 90B5     		push	{r4, r7, lr}
 1944              		.cfi_def_cfa_offset 12
 1945              		.cfi_offset 4, -12
 1946              		.cfi_offset 7, -8
 1947              		.cfi_offset 14, -4
 1948 0002 8FB0     		sub	sp, sp, #60
 1949              		.cfi_def_cfa_offset 72
 1950 0004 00AF     		add	r7, sp, #0
 1951              		.cfi_def_cfa_register 7
 1952 0006 7860     		str	r0, [r7, #4]
 535:tof_coms.c    ****     VL53L0X_Error Status = VL53L0X_ERROR_NONE;
 1953              		.loc 1 535 0
 1954 0008 3723     		movs	r3, #55
 1955 000a FB18     		adds	r3, r7, r3
 1956 000c 0022     		movs	r2, #0
 1957 000e 1A70     		strb	r2, [r3]
 536:tof_coms.c    ****     VL53L0X_RangingMeasurementData_t    RangingMeasurementData;
 537:tof_coms.c    ****     int i;
 538:tof_coms.c    ****     FixPoint1616_t LimitCheckCurrent;
 539:tof_coms.c    ****     uint32_t refSpadCount;
 540:tof_coms.c    ****     uint8_t isApertureSpads;
 541:tof_coms.c    ****     uint8_t VhvSettings;
 542:tof_coms.c    ****     uint8_t PhaseCal;
 543:tof_coms.c    **** 
 544:tof_coms.c    ****     if(Status == VL53L0X_ERROR_NONE)
 1958              		.loc 1 544 0
 1959 0010 3723     		movs	r3, #55
 1960 0012 FB18     		adds	r3, r7, r3
 1961 0014 1B78     		ldrb	r3, [r3]
 1962 0016 5BB2     		sxtb	r3, r3
 1963 0018 002B     		cmp	r3, #0
 1964 001a 12D1     		bne	.L81
 545:tof_coms.c    ****     {
 546:tof_coms.c    ****         printf ("Call of VL53L0X_StaticInit\n");
 1965              		.loc 1 546 0
 1966 001c 864B     		ldr	r3, .L95
 1967 001e 1800     		movs	r0, r3
ARM GAS  C:\Users\ilya\AppData\Local\Temp\ccGij5YZ.s 			page 46


 1968 0020 FFF7FEFF 		bl	myprintf
 547:tof_coms.c    ****         Status = VL53L0X_StaticInit(pMyDevice); // Device Initialization
 1969              		.loc 1 547 0
 1970 0024 3723     		movs	r3, #55
 1971 0026 FC18     		adds	r4, r7, r3
 1972 0028 7B68     		ldr	r3, [r7, #4]
 1973 002a 1800     		movs	r0, r3
 1974 002c FFF7FEFF 		bl	VL53L0X_StaticInit
 1975 0030 0300     		movs	r3, r0
 1976 0032 2370     		strb	r3, [r4]
 548:tof_coms.c    ****         print_pal_error(Status);
 1977              		.loc 1 548 0
 1978 0034 3723     		movs	r3, #55
 1979 0036 FB18     		adds	r3, r7, r3
 1980 0038 1B78     		ldrb	r3, [r3]
 1981 003a 5BB2     		sxtb	r3, r3
 1982 003c 1800     		movs	r0, r3
 1983 003e FFF7FEFF 		bl	print_pal_error
 1984              	.L81:
 549:tof_coms.c    ****     }
 550:tof_coms.c    **** 
 551:tof_coms.c    ****     if(Status == VL53L0X_ERROR_NONE)
 1985              		.loc 1 551 0
 1986 0042 3723     		movs	r3, #55
 1987 0044 FB18     		adds	r3, r7, r3
 1988 0046 1B78     		ldrb	r3, [r3]
 1989 0048 5BB2     		sxtb	r3, r3
 1990 004a 002B     		cmp	r3, #0
 1991 004c 16D1     		bne	.L82
 552:tof_coms.c    ****     {
 553:tof_coms.c    ****         printf ("Call of VL53L0X_PerformRefCalibration\n");
 1992              		.loc 1 553 0
 1993 004e 7B4B     		ldr	r3, .L95+4
 1994 0050 1800     		movs	r0, r3
 1995 0052 FFF7FEFF 		bl	myprintf
 554:tof_coms.c    ****         Status = VL53L0X_PerformRefCalibration(pMyDevice,
 1996              		.loc 1 554 0
 1997 0056 3723     		movs	r3, #55
 1998 0058 FC18     		adds	r4, r7, r3
 1999 005a 0923     		movs	r3, #9
 2000 005c FA18     		adds	r2, r7, r3
 2001 005e 0A23     		movs	r3, #10
 2002 0060 F918     		adds	r1, r7, r3
 2003 0062 7B68     		ldr	r3, [r7, #4]
 2004 0064 1800     		movs	r0, r3
 2005 0066 FFF7FEFF 		bl	VL53L0X_PerformRefCalibration
 2006 006a 0300     		movs	r3, r0
 2007 006c 2370     		strb	r3, [r4]
 555:tof_coms.c    ****         		&VhvSettings, &PhaseCal); // Device Initialization
 556:tof_coms.c    ****         print_pal_error(Status);
 2008              		.loc 1 556 0
 2009 006e 3723     		movs	r3, #55
 2010 0070 FB18     		adds	r3, r7, r3
 2011 0072 1B78     		ldrb	r3, [r3]
 2012 0074 5BB2     		sxtb	r3, r3
 2013 0076 1800     		movs	r0, r3
 2014 0078 FFF7FEFF 		bl	print_pal_error
ARM GAS  C:\Users\ilya\AppData\Local\Temp\ccGij5YZ.s 			page 47


 2015              	.L82:
 557:tof_coms.c    ****     }
 558:tof_coms.c    **** 
 559:tof_coms.c    ****     if(Status == VL53L0X_ERROR_NONE)
 2016              		.loc 1 559 0
 2017 007c 3723     		movs	r3, #55
 2018 007e FB18     		adds	r3, r7, r3
 2019 0080 1B78     		ldrb	r3, [r3]
 2020 0082 5BB2     		sxtb	r3, r3
 2021 0084 002B     		cmp	r3, #0
 2022 0086 1FD1     		bne	.L83
 560:tof_coms.c    ****     {
 561:tof_coms.c    ****         printf ("Call of VL53L0X_PerformRefSpadManagement\n");
 2023              		.loc 1 561 0
 2024 0088 6D4B     		ldr	r3, .L95+8
 2025 008a 1800     		movs	r0, r3
 2026 008c FFF7FEFF 		bl	myprintf
 562:tof_coms.c    ****         Status = VL53L0X_PerformRefSpadManagement(pMyDevice,
 2027              		.loc 1 562 0
 2028 0090 3723     		movs	r3, #55
 2029 0092 FC18     		adds	r4, r7, r3
 2030 0094 0B23     		movs	r3, #11
 2031 0096 FA18     		adds	r2, r7, r3
 2032 0098 0C23     		movs	r3, #12
 2033 009a F918     		adds	r1, r7, r3
 2034 009c 7B68     		ldr	r3, [r7, #4]
 2035 009e 1800     		movs	r0, r3
 2036 00a0 FFF7FEFF 		bl	VL53L0X_PerformRefSpadManagement
 2037 00a4 0300     		movs	r3, r0
 2038 00a6 2370     		strb	r3, [r4]
 563:tof_coms.c    ****         		&refSpadCount, &isApertureSpads); // Device Initialization
 564:tof_coms.c    ****         printf ("refSpadCount = %d, isApertureSpads = %d\n", refSpadCount, isApertureSpads);
 2039              		.loc 1 564 0
 2040 00a8 F968     		ldr	r1, [r7, #12]
 2041 00aa 0B23     		movs	r3, #11
 2042 00ac FB18     		adds	r3, r7, r3
 2043 00ae 1B78     		ldrb	r3, [r3]
 2044 00b0 1A00     		movs	r2, r3
 2045 00b2 644B     		ldr	r3, .L95+12
 2046 00b4 1800     		movs	r0, r3
 2047 00b6 FFF7FEFF 		bl	myprintf
 565:tof_coms.c    ****         print_pal_error(Status);
 2048              		.loc 1 565 0
 2049 00ba 3723     		movs	r3, #55
 2050 00bc FB18     		adds	r3, r7, r3
 2051 00be 1B78     		ldrb	r3, [r3]
 2052 00c0 5BB2     		sxtb	r3, r3
 2053 00c2 1800     		movs	r0, r3
 2054 00c4 FFF7FEFF 		bl	print_pal_error
 2055              	.L83:
 566:tof_coms.c    ****     }
 567:tof_coms.c    **** 
 568:tof_coms.c    ****     if(Status == VL53L0X_ERROR_NONE)
 2056              		.loc 1 568 0
 2057 00c8 3723     		movs	r3, #55
 2058 00ca FB18     		adds	r3, r7, r3
 2059 00cc 1B78     		ldrb	r3, [r3]
ARM GAS  C:\Users\ilya\AppData\Local\Temp\ccGij5YZ.s 			page 48


 2060 00ce 5BB2     		sxtb	r3, r3
 2061 00d0 002B     		cmp	r3, #0
 2062 00d2 13D1     		bne	.L84
 569:tof_coms.c    ****     {
 570:tof_coms.c    **** 
 571:tof_coms.c    ****         // no need to do this when we use VL53L0X_PerformSingleRangingMeasurement
 572:tof_coms.c    ****         printf ("Call of VL53L0X_SetDeviceMode\n");
 2063              		.loc 1 572 0
 2064 00d4 5C4B     		ldr	r3, .L95+16
 2065 00d6 1800     		movs	r0, r3
 2066 00d8 FFF7FEFF 		bl	myprintf
 573:tof_coms.c    ****         Status = VL53L0X_SetDeviceMode(pMyDevice, VL53L0X_DEVICEMODE_SINGLE_RANGING); // Setup in s
 2067              		.loc 1 573 0
 2068 00dc 3723     		movs	r3, #55
 2069 00de FC18     		adds	r4, r7, r3
 2070 00e0 7B68     		ldr	r3, [r7, #4]
 2071 00e2 0021     		movs	r1, #0
 2072 00e4 1800     		movs	r0, r3
 2073 00e6 FFF7FEFF 		bl	VL53L0X_SetDeviceMode
 2074 00ea 0300     		movs	r3, r0
 2075 00ec 2370     		strb	r3, [r4]
 574:tof_coms.c    ****         print_pal_error(Status);
 2076              		.loc 1 574 0
 2077 00ee 3723     		movs	r3, #55
 2078 00f0 FB18     		adds	r3, r7, r3
 2079 00f2 1B78     		ldrb	r3, [r3]
 2080 00f4 5BB2     		sxtb	r3, r3
 2081 00f6 1800     		movs	r0, r3
 2082 00f8 FFF7FEFF 		bl	print_pal_error
 2083              	.L84:
 575:tof_coms.c    ****     }
 576:tof_coms.c    **** 
 577:tof_coms.c    **** 
 578:tof_coms.c    **** //#define LONGRANGE
 579:tof_coms.c    **** #ifdef LONGRANGE
 580:tof_coms.c    ****     if (Status == VL53L0X_ERROR_NONE) {
 581:tof_coms.c    ****           Status = VL53L0X_SetLimitCheckEnable(pMyDevice,
 582:tof_coms.c    ****           		VL53L0X_CHECKENABLE_SIGMA_FINAL_RANGE, 1);
 583:tof_coms.c    ****       }
 584:tof_coms.c    ****       if (Status == VL53L0X_ERROR_NONE) {
 585:tof_coms.c    ****           Status = VL53L0X_SetLimitCheckEnable(pMyDevice,
 586:tof_coms.c    ****           		VL53L0X_CHECKENABLE_SIGNAL_RATE_FINAL_RANGE, 1);
 587:tof_coms.c    ****       }
 588:tof_coms.c    **** 
 589:tof_coms.c    ****       if (Status == VL53L0X_ERROR_NONE) {
 590:tof_coms.c    ****           Status = VL53L0X_SetLimitCheckValue(pMyDevice,
 591:tof_coms.c    ****           		VL53L0X_CHECKENABLE_SIGNAL_RATE_FINAL_RANGE,
 592:tof_coms.c    ****           		(FixPoint1616_t)(0.1*65536));
 593:tof_coms.c    ****   	}
 594:tof_coms.c    ****       if (Status == VL53L0X_ERROR_NONE) {
 595:tof_coms.c    ****           Status = VL53L0X_SetLimitCheckValue(pMyDevice,
 596:tof_coms.c    ****           		VL53L0X_CHECKENABLE_SIGMA_FINAL_RANGE,
 597:tof_coms.c    ****           		(FixPoint1616_t)(60*65536));
 598:tof_coms.c    ****       }
 599:tof_coms.c    ****       if (Status == VL53L0X_ERROR_NONE) {
 600:tof_coms.c    ****           Status = VL53L0X_SetMeasurementTimingBudgetMicroSeconds(pMyDevice,
 601:tof_coms.c    ****           		33000);
ARM GAS  C:\Users\ilya\AppData\Local\Temp\ccGij5YZ.s 			page 49


 602:tof_coms.c    ****   	}
 603:tof_coms.c    **** 
 604:tof_coms.c    ****       if (Status == VL53L0X_ERROR_NONE) {
 605:tof_coms.c    ****           Status = VL53L0X_SetVcselPulsePeriod(pMyDevice,
 606:tof_coms.c    ****   		        VL53L0X_VCSEL_PERIOD_PRE_RANGE, 18);
 607:tof_coms.c    ****       }
 608:tof_coms.c    ****       if (Status == VL53L0X_ERROR_NONE) {
 609:tof_coms.c    ****           Status = VL53L0X_SetVcselPulsePeriod(pMyDevice,
 610:tof_coms.c    ****   		        VL53L0X_VCSEL_PERIOD_FINAL_RANGE, 14);
 611:tof_coms.c    ****       }
 612:tof_coms.c    **** 
 613:tof_coms.c    **** 
 614:tof_coms.c    **** 
 615:tof_coms.c    **** 
 616:tof_coms.c    **** 
 617:tof_coms.c    **** #else
 618:tof_coms.c    **** 
 619:tof_coms.c    ****     // Enable/Disable Sigma and Signal check
 620:tof_coms.c    ****     if (Status == VL53L0X_ERROR_NONE) {
 2084              		.loc 1 620 0
 2085 00fc 3723     		movs	r3, #55
 2086 00fe FB18     		adds	r3, r7, r3
 2087 0100 1B78     		ldrb	r3, [r3]
 2088 0102 5BB2     		sxtb	r3, r3
 2089 0104 002B     		cmp	r3, #0
 2090 0106 09D1     		bne	.L85
 621:tof_coms.c    ****         Status = VL53L0X_SetLimitCheckEnable(pMyDevice,
 2091              		.loc 1 621 0
 2092 0108 3723     		movs	r3, #55
 2093 010a FC18     		adds	r4, r7, r3
 2094 010c 7B68     		ldr	r3, [r7, #4]
 2095 010e 0122     		movs	r2, #1
 2096 0110 0021     		movs	r1, #0
 2097 0112 1800     		movs	r0, r3
 2098 0114 FFF7FEFF 		bl	VL53L0X_SetLimitCheckEnable
 2099 0118 0300     		movs	r3, r0
 2100 011a 2370     		strb	r3, [r4]
 2101              	.L85:
 622:tof_coms.c    ****         		VL53L0X_CHECKENABLE_SIGMA_FINAL_RANGE, 1);
 623:tof_coms.c    ****     }
 624:tof_coms.c    ****     if (Status == VL53L0X_ERROR_NONE) {
 2102              		.loc 1 624 0
 2103 011c 3723     		movs	r3, #55
 2104 011e FB18     		adds	r3, r7, r3
 2105 0120 1B78     		ldrb	r3, [r3]
 2106 0122 5BB2     		sxtb	r3, r3
 2107 0124 002B     		cmp	r3, #0
 2108 0126 09D1     		bne	.L86
 625:tof_coms.c    ****         Status = VL53L0X_SetLimitCheckEnable(pMyDevice,
 2109              		.loc 1 625 0
 2110 0128 3723     		movs	r3, #55
 2111 012a FC18     		adds	r4, r7, r3
 2112 012c 7B68     		ldr	r3, [r7, #4]
 2113 012e 0122     		movs	r2, #1
 2114 0130 0121     		movs	r1, #1
 2115 0132 1800     		movs	r0, r3
 2116 0134 FFF7FEFF 		bl	VL53L0X_SetLimitCheckEnable
ARM GAS  C:\Users\ilya\AppData\Local\Temp\ccGij5YZ.s 			page 50


 2117 0138 0300     		movs	r3, r0
 2118 013a 2370     		strb	r3, [r4]
 2119              	.L86:
 626:tof_coms.c    ****         		VL53L0X_CHECKENABLE_SIGNAL_RATE_FINAL_RANGE, 1);
 627:tof_coms.c    ****     }
 628:tof_coms.c    **** 
 629:tof_coms.c    ****     if (Status == VL53L0X_ERROR_NONE) {
 2120              		.loc 1 629 0
 2121 013c 3723     		movs	r3, #55
 2122 013e FB18     		adds	r3, r7, r3
 2123 0140 1B78     		ldrb	r3, [r3]
 2124 0142 5BB2     		sxtb	r3, r3
 2125 0144 002B     		cmp	r3, #0
 2126 0146 09D1     		bne	.L87
 630:tof_coms.c    ****         Status = VL53L0X_SetLimitCheckEnable(pMyDevice,
 2127              		.loc 1 630 0
 2128 0148 3723     		movs	r3, #55
 2129 014a FC18     		adds	r4, r7, r3
 2130 014c 7B68     		ldr	r3, [r7, #4]
 2131 014e 0122     		movs	r2, #1
 2132 0150 0321     		movs	r1, #3
 2133 0152 1800     		movs	r0, r3
 2134 0154 FFF7FEFF 		bl	VL53L0X_SetLimitCheckEnable
 2135 0158 0300     		movs	r3, r0
 2136 015a 2370     		strb	r3, [r4]
 2137              	.L87:
 631:tof_coms.c    ****         		VL53L0X_CHECKENABLE_RANGE_IGNORE_THRESHOLD, 1);
 632:tof_coms.c    ****     }
 633:tof_coms.c    **** 
 634:tof_coms.c    ****     if (Status == VL53L0X_ERROR_NONE) {
 2138              		.loc 1 634 0
 2139 015c 3723     		movs	r3, #55
 2140 015e FB18     		adds	r3, r7, r3
 2141 0160 1B78     		ldrb	r3, [r3]
 2142 0162 5BB2     		sxtb	r3, r3
 2143 0164 002B     		cmp	r3, #0
 2144 0166 09D1     		bne	.L88
 635:tof_coms.c    ****         Status = VL53L0X_SetLimitCheckValue(pMyDevice,
 2145              		.loc 1 635 0
 2146 0168 3723     		movs	r3, #55
 2147 016a FC18     		adds	r4, r7, r3
 2148 016c 374A     		ldr	r2, .L95+20
 2149 016e 7B68     		ldr	r3, [r7, #4]
 2150 0170 0321     		movs	r1, #3
 2151 0172 1800     		movs	r0, r3
 2152 0174 FFF7FEFF 		bl	VL53L0X_SetLimitCheckValue
 2153 0178 0300     		movs	r3, r0
 2154 017a 2370     		strb	r3, [r4]
 2155              	.L88:
 636:tof_coms.c    ****         		VL53L0X_CHECKENABLE_RANGE_IGNORE_THRESHOLD,
 637:tof_coms.c    ****         		(FixPoint1616_t)(1.5*0.023*65536));
 638:tof_coms.c    ****     }
 639:tof_coms.c    **** #endif
 640:tof_coms.c    **** 
 641:tof_coms.c    ****     /*
 642:tof_coms.c    ****      *  Step  4 : Test ranging mode
 643:tof_coms.c    ****      */
ARM GAS  C:\Users\ilya\AppData\Local\Temp\ccGij5YZ.s 			page 51


 644:tof_coms.c    **** 
 645:tof_coms.c    ****     if(Status == VL53L0X_ERROR_NONE)
 2156              		.loc 1 645 0
 2157 017c 3723     		movs	r3, #55
 2158 017e FB18     		adds	r3, r7, r3
 2159 0180 1B78     		ldrb	r3, [r3]
 2160 0182 5BB2     		sxtb	r3, r3
 2161 0184 002B     		cmp	r3, #0
 2162 0186 4FD1     		bne	.L89
 646:tof_coms.c    ****     {
 647:tof_coms.c    ****         for(i=0;i<10;i++){
 2163              		.loc 1 647 0
 2164 0188 0023     		movs	r3, #0
 2165 018a 3B63     		str	r3, [r7, #48]
 2166 018c 47E0     		b	.L90
 2167              	.L92:
 648:tof_coms.c    ****             printf ("Call of VL53L0X_PerformSingleRangingMeasurement\n");
 2168              		.loc 1 648 0
 2169 018e 304B     		ldr	r3, .L95+24
 2170 0190 1800     		movs	r0, r3
 2171 0192 FFF7FEFF 		bl	myprintf
 649:tof_coms.c    ****             Status = VL53L0X_PerformSingleRangingMeasurement(pMyDevice,
 2172              		.loc 1 649 0
 2173 0196 3723     		movs	r3, #55
 2174 0198 FC18     		adds	r4, r7, r3
 2175 019a 1423     		movs	r3, #20
 2176 019c FA18     		adds	r2, r7, r3
 2177 019e 7B68     		ldr	r3, [r7, #4]
 2178 01a0 1100     		movs	r1, r2
 2179 01a2 1800     		movs	r0, r3
 2180 01a4 FFF7FEFF 		bl	VL53L0X_PerformSingleRangingMeasurement
 2181 01a8 0300     		movs	r3, r0
 2182 01aa 2370     		strb	r3, [r4]
 650:tof_coms.c    ****             		&RangingMeasurementData);
 651:tof_coms.c    **** 
 652:tof_coms.c    ****             print_pal_error(Status);
 2183              		.loc 1 652 0
 2184 01ac 3723     		movs	r3, #55
 2185 01ae FB18     		adds	r3, r7, r3
 2186 01b0 1B78     		ldrb	r3, [r3]
 2187 01b2 5BB2     		sxtb	r3, r3
 2188 01b4 1800     		movs	r0, r3
 2189 01b6 FFF7FEFF 		bl	print_pal_error
 653:tof_coms.c    ****             print_range_status(&RangingMeasurementData);
 2190              		.loc 1 653 0
 2191 01ba 1423     		movs	r3, #20
 2192 01bc FB18     		adds	r3, r7, r3
 2193 01be 1800     		movs	r0, r3
 2194 01c0 FFF7FEFF 		bl	print_range_status
 654:tof_coms.c    **** 
 655:tof_coms.c    ****             VL53L0X_GetLimitCheckCurrent(pMyDevice,
 2195              		.loc 1 655 0
 2196 01c4 1023     		movs	r3, #16
 2197 01c6 FA18     		adds	r2, r7, r3
 2198 01c8 7B68     		ldr	r3, [r7, #4]
 2199 01ca 0321     		movs	r1, #3
 2200 01cc 1800     		movs	r0, r3
ARM GAS  C:\Users\ilya\AppData\Local\Temp\ccGij5YZ.s 			page 52


 2201 01ce FFF7FEFF 		bl	VL53L0X_GetLimitCheckCurrent
 656:tof_coms.c    ****             		VL53L0X_CHECKENABLE_RANGE_IGNORE_THRESHOLD, &LimitCheckCurrent);
 657:tof_coms.c    **** 
 658:tof_coms.c    ****             printf("RANGE IGNORE THRESHOLD: %f\n\n", (float)LimitCheckCurrent/65536.0);
 2202              		.loc 1 658 0
 2203 01d2 3B69     		ldr	r3, [r7, #16]
 2204 01d4 1800     		movs	r0, r3
 2205 01d6 FFF7FEFF 		bl	__aeabi_ui2f
 2206 01da 031C     		adds	r3, r0, #0
 2207 01dc 181C     		adds	r0, r3, #0
 2208 01de FFF7FEFF 		bl	__aeabi_f2d
 2209 01e2 0022     		movs	r2, #0
 2210 01e4 1B4B     		ldr	r3, .L95+28
 2211 01e6 FFF7FEFF 		bl	__aeabi_ddiv
 2212 01ea 0300     		movs	r3, r0
 2213 01ec 0C00     		movs	r4, r1
 2214 01ee 1A49     		ldr	r1, .L95+32
 2215 01f0 1A00     		movs	r2, r3
 2216 01f2 2300     		movs	r3, r4
 2217 01f4 0800     		movs	r0, r1
 2218 01f6 FFF7FEFF 		bl	myprintf
 659:tof_coms.c    **** 
 660:tof_coms.c    **** 
 661:tof_coms.c    ****             if (Status != VL53L0X_ERROR_NONE) break;
 2219              		.loc 1 661 0
 2220 01fa 3723     		movs	r3, #55
 2221 01fc FB18     		adds	r3, r7, r3
 2222 01fe 1B78     		ldrb	r3, [r3]
 2223 0200 5BB2     		sxtb	r3, r3
 2224 0202 002B     		cmp	r3, #0
 2225 0204 0FD1     		bne	.L94
 662:tof_coms.c    **** 
 663:tof_coms.c    ****             printf("Measured distance: %i\n\n", RangingMeasurementData.RangeMilliMeter);
 2226              		.loc 1 663 0 discriminator 2
 2227 0206 1423     		movs	r3, #20
 2228 0208 FB18     		adds	r3, r7, r3
 2229 020a 1B89     		ldrh	r3, [r3, #8]
 2230 020c 1A00     		movs	r2, r3
 2231 020e 134B     		ldr	r3, .L95+36
 2232 0210 1100     		movs	r1, r2
 2233 0212 1800     		movs	r0, r3
 2234 0214 FFF7FEFF 		bl	myprintf
 647:tof_coms.c    ****             printf ("Call of VL53L0X_PerformSingleRangingMeasurement\n");
 2235              		.loc 1 647 0 discriminator 2
 2236 0218 3B6B     		ldr	r3, [r7, #48]
 2237 021a 0133     		adds	r3, r3, #1
 2238 021c 3B63     		str	r3, [r7, #48]
 2239              	.L90:
 647:tof_coms.c    ****             printf ("Call of VL53L0X_PerformSingleRangingMeasurement\n");
 2240              		.loc 1 647 0 is_stmt 0 discriminator 1
 2241 021e 3B6B     		ldr	r3, [r7, #48]
 2242 0220 092B     		cmp	r3, #9
 2243 0222 B4DD     		ble	.L92
 2244 0224 00E0     		b	.L89
 2245              	.L94:
 661:tof_coms.c    **** 
 2246              		.loc 1 661 0 is_stmt 1
ARM GAS  C:\Users\ilya\AppData\Local\Temp\ccGij5YZ.s 			page 53


 2247 0226 C046     		nop
 2248              	.L89:
 664:tof_coms.c    **** 
 665:tof_coms.c    **** 
 666:tof_coms.c    ****         }
 667:tof_coms.c    ****     }
 668:tof_coms.c    ****     return Status;
 2249              		.loc 1 668 0
 2250 0228 3723     		movs	r3, #55
 2251 022a FB18     		adds	r3, r7, r3
 2252 022c 1B78     		ldrb	r3, [r3]
 2253 022e 5BB2     		sxtb	r3, r3
 669:tof_coms.c    **** }
 2254              		.loc 1 669 0
 2255 0230 1800     		movs	r0, r3
 2256 0232 BD46     		mov	sp, r7
 2257 0234 0FB0     		add	sp, sp, #60
 2258              		@ sp needed
 2259 0236 90BD     		pop	{r4, r7, pc}
 2260              	.L96:
 2261              		.align	2
 2262              	.L95:
 2263 0238 30000000 		.word	.LC4
 2264 023c 4C000000 		.word	.LC6
 2265 0240 74000000 		.word	.LC8
 2266 0244 A0000000 		.word	.LC10
 2267 0248 CC000000 		.word	.LC12
 2268 024c D4080000 		.word	2260
 2269 0250 EC000000 		.word	.LC14
 2270 0254 0000F040 		.word	1089470464
 2271 0258 20010000 		.word	.LC16
 2272 025c 40010000 		.word	.LC18
 2273              		.cfi_endproc
 2274              	.LFE65:
 2275              		.size	rangingTest, .-rangingTest
 2276              		.comm	MyDevice,352,4
 2277              		.global	pMyDevice
 2278              		.data
 2279              		.align	2
 2280              		.type	pMyDevice, %object
 2281              		.size	pMyDevice, 4
 2282              	pMyDevice:
 2283 0000 00000000 		.word	MyDevice
 2284              		.section	.rodata
 2285              		.align	2
 2286              	.LC22:
 2287 0158 00       		.ascii	"\000"
 2288              		.section	.text.tof_init,"ax",%progbits
 2289              		.align	2
 2290              		.global	tof_init
 2291              		.code	16
 2292              		.thumb_func
 2293              		.type	tof_init, %function
 2294              	tof_init:
 2295              	.LFB66:
 670:tof_coms.c    **** VL53L0X_Dev_t MyDevice;
 671:tof_coms.c    **** VL53L0X_Dev_t *pMyDevice = &MyDevice;
ARM GAS  C:\Users\ilya\AppData\Local\Temp\ccGij5YZ.s 			page 54


 672:tof_coms.c    **** int tof_init()
 673:tof_coms.c    **** {
 2296              		.loc 1 673 0
 2297              		.cfi_startproc
 2298              		@ args = 0, pretend = 0, frame = 136
 2299              		@ frame_needed = 1, uses_anonymous_args = 0
 2300 0000 90B5     		push	{r4, r7, lr}
 2301              		.cfi_def_cfa_offset 12
 2302              		.cfi_offset 4, -12
 2303              		.cfi_offset 7, -8
 2304              		.cfi_offset 14, -4
 2305 0002 A3B0     		sub	sp, sp, #140
 2306              		.cfi_def_cfa_offset 152
 2307 0004 00AF     		add	r7, sp, #0
 2308              		.cfi_def_cfa_register 7
 674:tof_coms.c    ****     VL53L0X_Error Status = VL53L0X_ERROR_NONE;
 2309              		.loc 1 674 0
 2310 0006 8723     		movs	r3, #135
 2311 0008 FB18     		adds	r3, r7, r3
 2312 000a 0022     		movs	r2, #0
 2313 000c 1A70     		strb	r2, [r3]
 675:tof_coms.c    **** 
 676:tof_coms.c    ****     VL53L0X_Version_t                   Version;
 677:tof_coms.c    ****     VL53L0X_Version_t                  *pVersion   = &Version;
 2314              		.loc 1 677 0
 2315 000e 6823     		movs	r3, #104
 2316 0010 FB18     		adds	r3, r7, r3
 2317 0012 8022     		movs	r2, #128
 2318 0014 BA18     		adds	r2, r7, r2
 2319 0016 1360     		str	r3, [r2]
 678:tof_coms.c    ****     VL53L0X_DeviceInfo_t                DeviceInfo;
 679:tof_coms.c    **** 
 680:tof_coms.c    ****     int32_t status_int;
 681:tof_coms.c    ****     int32_t init_done = 0;
 2320              		.loc 1 681 0
 2321 0018 0023     		movs	r3, #0
 2322 001a FB67     		str	r3, [r7, #124]
 682:tof_coms.c    ****     int NecleoComStatus = 0;
 2323              		.loc 1 682 0
 2324 001c 0023     		movs	r3, #0
 2325 001e BB67     		str	r3, [r7, #120]
 683:tof_coms.c    ****     int NecleoAutoCom = 1;
 2326              		.loc 1 683 0
 2327 0020 0123     		movs	r3, #1
 2328 0022 7B67     		str	r3, [r7, #116]
 684:tof_coms.c    **** 
 685:tof_coms.c    **** 
 686:tof_coms.c    ****     memset(&MyDevice,0,sizeof(MyDevice));
 2329              		.loc 1 686 0
 2330 0024 B023     		movs	r3, #176
 2331 0026 5A00     		lsls	r2, r3, #1
 2332 0028 524B     		ldr	r3, .L107
 2333 002a 0021     		movs	r1, #0
 2334 002c 1800     		movs	r0, r3
 2335 002e FFF7FEFF 		bl	memset
 687:tof_coms.c    ****     // Initialize Comms
 688:tof_coms.c    ****     pMyDevice->I2cDevAddr      = 0x52/2;
ARM GAS  C:\Users\ilya\AppData\Local\Temp\ccGij5YZ.s 			page 55


 2336              		.loc 1 688 0
 2337 0032 514B     		ldr	r3, .L107+4
 2338 0034 1A68     		ldr	r2, [r3]
 2339 0036 AE23     		movs	r3, #174
 2340 0038 5B00     		lsls	r3, r3, #1
 2341 003a 2921     		movs	r1, #41
 2342 003c D154     		strb	r1, [r2, r3]
 689:tof_coms.c    ****     pMyDevice->comms_type      =  1;
 2343              		.loc 1 689 0
 2344 003e 4E4B     		ldr	r3, .L107+4
 2345 0040 1A68     		ldr	r2, [r3]
 2346 0042 5E23     		movs	r3, #94
 2347 0044 FF33     		adds	r3, r3, #255
 2348 0046 0121     		movs	r1, #1
 2349 0048 D154     		strb	r1, [r2, r3]
 690:tof_coms.c    ****     pMyDevice->comms_speed_khz =  400;
 2350              		.loc 1 690 0
 2351 004a 4B4B     		ldr	r3, .L107+4
 2352 004c 1A68     		ldr	r2, [r3]
 2353 004e AF23     		movs	r3, #175
 2354 0050 5B00     		lsls	r3, r3, #1
 2355 0052 C821     		movs	r1, #200
 2356 0054 4900     		lsls	r1, r1, #1
 2357 0056 D152     		strh	r1, [r2, r3]
 691:tof_coms.c    **** 
 692:tof_coms.c    ****     Status = VL53L0X_i2c_init("", 460800);
 2358              		.loc 1 692 0
 2359 0058 E123     		movs	r3, #225
 2360 005a DA02     		lsls	r2, r3, #11
 2361 005c 474B     		ldr	r3, .L107+8
 2362 005e 1100     		movs	r1, r2
 2363 0060 1800     		movs	r0, r3
 2364 0062 FFF7FEFF 		bl	VL53L0X_i2c_init
 2365 0066 0200     		movs	r2, r0
 2366 0068 8723     		movs	r3, #135
 2367 006a FB18     		adds	r3, r7, r3
 2368 006c 1A70     		strb	r2, [r3]
 693:tof_coms.c    ****     if (Status != VL53L0X_ERROR_NONE) {
 2369              		.loc 1 693 0
 2370 006e 8723     		movs	r3, #135
 2371 0070 FB18     		adds	r3, r7, r3
 2372 0072 1B78     		ldrb	r3, [r3]
 2373 0074 5BB2     		sxtb	r3, r3
 2374 0076 002B     		cmp	r3, #0
 2375 0078 05D0     		beq	.L98
 694:tof_coms.c    ****         Status = VL53L0X_ERROR_CONTROL_INTERFACE;
 2376              		.loc 1 694 0
 2377 007a 8723     		movs	r3, #135
 2378 007c FB18     		adds	r3, r7, r3
 2379 007e EC22     		movs	r2, #236
 2380 0080 1A70     		strb	r2, [r3]
 695:tof_coms.c    ****         init_done = 1;
 2381              		.loc 1 695 0
 2382 0082 0123     		movs	r3, #1
 2383 0084 FB67     		str	r3, [r7, #124]
 2384              	.L98:
 696:tof_coms.c    ****     } //else
ARM GAS  C:\Users\ilya\AppData\Local\Temp\ccGij5YZ.s 			page 56


 697:tof_coms.c    ****        // printf ("Init Comms\n");
 698:tof_coms.c    **** 
 699:tof_coms.c    ****     /*
 700:tof_coms.c    ****      * Disable VL53L0X API logging if you want to run at full speed
 701:tof_coms.c    ****      */
 702:tof_coms.c    **** #ifdef VL53L0X_LOG_ENABLE
 703:tof_coms.c    ****     VL53L0X_trace_config("test.log", TRACE_MODULE_ALL, TRACE_LEVEL_ALL, TRACE_FUNCTION_ALL);
 704:tof_coms.c    **** #endif
 705:tof_coms.c    **** 
 706:tof_coms.c    ****     /*
 707:tof_coms.c    ****      *  Get the version of the VL53L0X API running in the firmware
 708:tof_coms.c    ****      */
 709:tof_coms.c    **** 
 710:tof_coms.c    ****     if(Status == VL53L0X_ERROR_NONE)
 2385              		.loc 1 710 0
 2386 0086 8723     		movs	r3, #135
 2387 0088 FB18     		adds	r3, r7, r3
 2388 008a 1B78     		ldrb	r3, [r3]
 2389 008c 5BB2     		sxtb	r3, r3
 2390 008e 002B     		cmp	r3, #0
 2391 0090 0ED1     		bne	.L105
 711:tof_coms.c    ****     {
 712:tof_coms.c    ****         status_int = VL53L0X_GetVersion(pVersion);
 2392              		.loc 1 712 0
 2393 0092 8023     		movs	r3, #128
 2394 0094 FB18     		adds	r3, r7, r3
 2395 0096 1B68     		ldr	r3, [r3]
 2396 0098 1800     		movs	r0, r3
 2397 009a FFF7FEFF 		bl	VL53L0X_GetVersion
 2398 009e 0300     		movs	r3, r0
 2399 00a0 3B67     		str	r3, [r7, #112]
 713:tof_coms.c    ****         if (status_int != 0)
 2400              		.loc 1 713 0
 2401 00a2 3B6F     		ldr	r3, [r7, #112]
 2402 00a4 002B     		cmp	r3, #0
 2403 00a6 03D0     		beq	.L105
 714:tof_coms.c    ****             Status = VL53L0X_ERROR_CONTROL_INTERFACE;
 2404              		.loc 1 714 0
 2405 00a8 8723     		movs	r3, #135
 2406 00aa FB18     		adds	r3, r7, r3
 2407 00ac EC22     		movs	r2, #236
 2408 00ae 1A70     		strb	r2, [r3]
 2409              	.L105:
 715:tof_coms.c    ****     }
 716:tof_coms.c    **** 
 717:tof_coms.c    ****     /*
 718:tof_coms.c    ****      *  Verify the version of the VL53L0X API running in the firmware
 719:tof_coms.c    ****      */
 720:tof_coms.c    **** 
 721:tof_coms.c    ****     if(Status == VL53L0X_ERROR_NONE)
 722:tof_coms.c    ****     {
 723:tof_coms.c    **** 
 724:tof_coms.c    ****     }
 725:tof_coms.c    **** 
 726:tof_coms.c    **** 
 727:tof_coms.c    ****     if(Status == VL53L0X_ERROR_NONE)
 2410              		.loc 1 727 0
ARM GAS  C:\Users\ilya\AppData\Local\Temp\ccGij5YZ.s 			page 57


 2411 00b0 8723     		movs	r3, #135
 2412 00b2 FB18     		adds	r3, r7, r3
 2413 00b4 1B78     		ldrb	r3, [r3]
 2414 00b6 5BB2     		sxtb	r3, r3
 2415 00b8 002B     		cmp	r3, #0
 2416 00ba 0ED1     		bne	.L106
 728:tof_coms.c    ****     {
 729:tof_coms.c    ****        // printf ("Call of VL53L0X_DataInit\n");
 730:tof_coms.c    ****         Status = VL53L0X_DataInit(&MyDevice); // Data initialization
 2417              		.loc 1 730 0
 2418 00bc 8723     		movs	r3, #135
 2419 00be FC18     		adds	r4, r7, r3
 2420 00c0 2C4B     		ldr	r3, .L107
 2421 00c2 1800     		movs	r0, r3
 2422 00c4 FFF7FEFF 		bl	VL53L0X_DataInit
 2423 00c8 0300     		movs	r3, r0
 2424 00ca 2370     		strb	r3, [r4]
 731:tof_coms.c    ****         print_pal_error(Status);
 2425              		.loc 1 731 0
 2426 00cc 8723     		movs	r3, #135
 2427 00ce FB18     		adds	r3, r7, r3
 2428 00d0 1B78     		ldrb	r3, [r3]
 2429 00d2 5BB2     		sxtb	r3, r3
 2430 00d4 1800     		movs	r0, r3
 2431 00d6 FFF7FEFF 		bl	print_pal_error
 2432              	.L106:
 732:tof_coms.c    ****     }
 733:tof_coms.c    **** if(1)
 734:tof_coms.c    ****     if(Status == VL53L0X_ERROR_NONE)
 2433              		.loc 1 734 0
 2434 00da 8723     		movs	r3, #135
 2435 00dc FB18     		adds	r3, r7, r3
 2436 00de 1B78     		ldrb	r3, [r3]
 2437 00e0 5BB2     		sxtb	r3, r3
 2438 00e2 002B     		cmp	r3, #0
 2439 00e4 24D1     		bne	.L101
 735:tof_coms.c    ****     {
 736:tof_coms.c    ****         Status = VL53L0X_GetDeviceInfo(&MyDevice, &DeviceInfo);
 2440              		.loc 1 736 0
 2441 00e6 8723     		movs	r3, #135
 2442 00e8 FC18     		adds	r4, r7, r3
 2443 00ea 3A1D     		adds	r2, r7, #4
 2444 00ec 214B     		ldr	r3, .L107
 2445 00ee 1100     		movs	r1, r2
 2446 00f0 1800     		movs	r0, r3
 2447 00f2 FFF7FEFF 		bl	VL53L0X_GetDeviceInfo
 2448 00f6 0300     		movs	r3, r0
 2449 00f8 2370     		strb	r3, [r4]
 737:tof_coms.c    ****         if(Status == VL53L0X_ERROR_NONE)
 2450              		.loc 1 737 0
 2451 00fa 8723     		movs	r3, #135
 2452 00fc FB18     		adds	r3, r7, r3
 2453 00fe 1B78     		ldrb	r3, [r3]
 2454 0100 5BB2     		sxtb	r3, r3
 2455 0102 002B     		cmp	r3, #0
 2456 0104 0DD1     		bne	.L102
 738:tof_coms.c    ****         {
ARM GAS  C:\Users\ilya\AppData\Local\Temp\ccGij5YZ.s 			page 58


 739:tof_coms.c    ****             #if 0
 740:tof_coms.c    ****             printf("VL53L0X_GetDeviceInfo:\n");
 741:tof_coms.c    ****             printf("Device Name : %s\n", DeviceInfo.Name);
 742:tof_coms.c    ****             printf("Device Type : %s\n", DeviceInfo.Type);
 743:tof_coms.c    ****             printf("Device ID : %s\n", DeviceInfo.ProductId);
 744:tof_coms.c    ****             printf("ProductRevisionMajor : %d\n", DeviceInfo.ProductRevisionMajor);
 745:tof_coms.c    ****         printf("ProductRevisionMinor : %d\n", DeviceInfo.ProductRevisionMinor);
 746:tof_coms.c    **** #endif
 747:tof_coms.c    ****         if ((DeviceInfo.ProductRevisionMinor != 1) && (DeviceInfo.ProductRevisionMinor != 1)) {
 2457              		.loc 1 747 0
 2458 0106 3B1D     		adds	r3, r7, #4
 2459 0108 6222     		movs	r2, #98
 2460 010a 9B5C     		ldrb	r3, [r3, r2]
 2461 010c 012B     		cmp	r3, #1
 2462 010e 08D0     		beq	.L102
 2463              		.loc 1 747 0 is_stmt 0 discriminator 1
 2464 0110 3B1D     		adds	r3, r7, #4
 2465 0112 6222     		movs	r2, #98
 2466 0114 9B5C     		ldrb	r3, [r3, r2]
 2467 0116 012B     		cmp	r3, #1
 2468 0118 03D0     		beq	.L102
 748:tof_coms.c    ****         	//printf("Error expected cut 1.1 but found cut %d.%d\n",
 749:tof_coms.c    ****            //            DeviceInfo.ProductRevisionMajor, DeviceInfo.ProductRevisionMinor);
 750:tof_coms.c    ****                 Status = VL53L0X_ERROR_NOT_SUPPORTED;
 2469              		.loc 1 750 0 is_stmt 1
 2470 011a 8723     		movs	r3, #135
 2471 011c FB18     		adds	r3, r7, r3
 2472 011e FB22     		movs	r2, #251
 2473 0120 1A70     		strb	r2, [r3]
 2474              	.L102:
 751:tof_coms.c    ****             
 752:tof_coms.c    ****             }
 753:tof_coms.c    ****         }
 754:tof_coms.c    ****         print_pal_error(Status);
 2475              		.loc 1 754 0
 2476 0122 8723     		movs	r3, #135
 2477 0124 FB18     		adds	r3, r7, r3
 2478 0126 1B78     		ldrb	r3, [r3]
 2479 0128 5BB2     		sxtb	r3, r3
 2480 012a 1800     		movs	r0, r3
 2481 012c FFF7FEFF 		bl	print_pal_error
 2482              	.L101:
 755:tof_coms.c    ****     }
 756:tof_coms.c    **** 
 757:tof_coms.c    ****     if(Status == VL53L0X_ERROR_NONE)
 2483              		.loc 1 757 0
 2484 0130 8723     		movs	r3, #135
 2485 0132 FB18     		adds	r3, r7, r3
 2486 0134 1B78     		ldrb	r3, [r3]
 2487 0136 5BB2     		sxtb	r3, r3
 2488 0138 002B     		cmp	r3, #0
 2489 013a 08D1     		bne	.L103
 758:tof_coms.c    ****     {
 759:tof_coms.c    ****         Status = rangingTest(pMyDevice);
 2490              		.loc 1 759 0
 2491 013c 0E4B     		ldr	r3, .L107+4
 2492 013e 1B68     		ldr	r3, [r3]
ARM GAS  C:\Users\ilya\AppData\Local\Temp\ccGij5YZ.s 			page 59


 2493 0140 8722     		movs	r2, #135
 2494 0142 BC18     		adds	r4, r7, r2
 2495 0144 1800     		movs	r0, r3
 2496 0146 FFF7FEFF 		bl	rangingTest
 2497 014a 0300     		movs	r3, r0
 2498 014c 2370     		strb	r3, [r4]
 2499              	.L103:
 760:tof_coms.c    ****     }
 761:tof_coms.c    **** 
 762:tof_coms.c    ****     print_pal_error(Status);
 2500              		.loc 1 762 0
 2501 014e 8723     		movs	r3, #135
 2502 0150 FB18     		adds	r3, r7, r3
 2503 0152 1B78     		ldrb	r3, [r3]
 2504 0154 5BB2     		sxtb	r3, r3
 2505 0156 1800     		movs	r0, r3
 2506 0158 FFF7FEFF 		bl	print_pal_error
 763:tof_coms.c    **** 
 764:tof_coms.c    **** 
 765:tof_coms.c    **** 
 766:tof_coms.c    ****     print_pal_error(Status);
 2507              		.loc 1 766 0
 2508 015c 8723     		movs	r3, #135
 2509 015e FB18     		adds	r3, r7, r3
 2510 0160 1B78     		ldrb	r3, [r3]
 2511 0162 5BB2     		sxtb	r3, r3
 2512 0164 1800     		movs	r0, r3
 2513 0166 FFF7FEFF 		bl	print_pal_error
 767:tof_coms.c    **** 
 768:tof_coms.c    **** //    printf ("\nPress a Key to continue!");
 769:tof_coms.c    **** //    getchar();
 770:tof_coms.c    **** 
 771:tof_coms.c    ****     return (0);
 2514              		.loc 1 771 0
 2515 016a 0023     		movs	r3, #0
 772:tof_coms.c    **** }
 2516              		.loc 1 772 0
 2517 016c 1800     		movs	r0, r3
 2518 016e BD46     		mov	sp, r7
 2519 0170 23B0     		add	sp, sp, #140
 2520              		@ sp needed
 2521 0172 90BD     		pop	{r4, r7, pc}
 2522              	.L108:
 2523              		.align	2
 2524              	.L107:
 2525 0174 00000000 		.word	MyDevice
 2526 0178 00000000 		.word	pMyDevice
 2527 017c 58010000 		.word	.LC22
 2528              		.cfi_endproc
 2529              	.LFE66:
 2530              		.size	tof_init, .-tof_init
 2531              		.section	.text.tof_measure,"ax",%progbits
 2532              		.align	2
 2533              		.global	tof_measure
 2534              		.code	16
 2535              		.thumb_func
 2536              		.type	tof_measure, %function
ARM GAS  C:\Users\ilya\AppData\Local\Temp\ccGij5YZ.s 			page 60


 2537              	tof_measure:
 2538              	.LFB67:
 773:tof_coms.c    **** 
 774:tof_coms.c    **** 
 775:tof_coms.c    **** int tof_measure(void)
 776:tof_coms.c    ****     {
 2539              		.loc 1 776 0
 2540              		.cfi_startproc
 2541              		@ args = 0, pretend = 0, frame = 32
 2542              		@ frame_needed = 1, uses_anonymous_args = 0
 2543 0000 90B5     		push	{r4, r7, lr}
 2544              		.cfi_def_cfa_offset 12
 2545              		.cfi_offset 4, -12
 2546              		.cfi_offset 7, -8
 2547              		.cfi_offset 14, -4
 2548 0002 89B0     		sub	sp, sp, #36
 2549              		.cfi_def_cfa_offset 48
 2550 0004 00AF     		add	r7, sp, #0
 2551              		.cfi_def_cfa_register 7
 777:tof_coms.c    ****     VL53L0X_Error Status = VL53L0X_ERROR_NONE;
 2552              		.loc 1 777 0
 2553 0006 1F23     		movs	r3, #31
 2554 0008 FB18     		adds	r3, r7, r3
 2555 000a 0022     		movs	r2, #0
 2556 000c 1A70     		strb	r2, [r3]
 778:tof_coms.c    ****     VL53L0X_RangingMeasurementData_t    RangingMeasurementData;
 779:tof_coms.c    ****     Status = VL53L0X_PerformSingleRangingMeasurement(pMyDevice,
 2557              		.loc 1 779 0
 2558 000e 084B     		ldr	r3, .L111
 2559 0010 1B68     		ldr	r3, [r3]
 2560 0012 1F22     		movs	r2, #31
 2561 0014 BC18     		adds	r4, r7, r2
 2562 0016 3A00     		movs	r2, r7
 2563 0018 1100     		movs	r1, r2
 2564 001a 1800     		movs	r0, r3
 2565 001c FFF7FEFF 		bl	VL53L0X_PerformSingleRangingMeasurement
 2566 0020 0300     		movs	r3, r0
 2567 0022 2370     		strb	r3, [r4]
 780:tof_coms.c    ****               		&RangingMeasurementData);
 781:tof_coms.c    **** 
 782:tof_coms.c    **** 
 783:tof_coms.c    ****   //  printf("Measured distance: %i\n\n", RangingMeasurementData.RangeMilliMeter);
 784:tof_coms.c    **** 
 785:tof_coms.c    ****     return RangingMeasurementData.RangeMilliMeter;
 2568              		.loc 1 785 0
 2569 0024 3B00     		movs	r3, r7
 2570 0026 1B89     		ldrh	r3, [r3, #8]
 786:tof_coms.c    ****     }
 2571              		.loc 1 786 0
 2572 0028 1800     		movs	r0, r3
 2573 002a BD46     		mov	sp, r7
 2574 002c 09B0     		add	sp, sp, #36
 2575              		@ sp needed
 2576 002e 90BD     		pop	{r4, r7, pc}
 2577              	.L112:
 2578              		.align	2
 2579              	.L111:
ARM GAS  C:\Users\ilya\AppData\Local\Temp\ccGij5YZ.s 			page 61


 2580 0030 00000000 		.word	pMyDevice
 2581              		.cfi_endproc
 2582              	.LFE67:
 2583              		.size	tof_measure, .-tof_measure
 2584              		.text
 2585              	.Letext0:
 2586              		.file 2 "c:\\program files (x86)\\cypress\\psoc creator\\4.2\\psoc creator\\import\\gnu\\arm\\5.4.
 2587              		.file 3 "c:\\program files (x86)\\cypress\\psoc creator\\4.2\\psoc creator\\import\\gnu\\arm\\5.4.
 2588              		.file 4 ".\\Api\\platform\\inc/vl53l0x_types.h"
 2589              		.file 5 ".\\Api\\core\\inc/vl53l0x_device.h"
 2590              		.file 6 ".\\Api\\core\\inc/vl53l0x_def.h"
 2591              		.file 7 ".\\Api\\platform\\inc/vl53l0x_i2c_platform.h"
 2592              		.file 8 ".\\Api\\platform\\inc/vl53l0x_platform.h"