ARM GAS  C:\Users\ilya\AppData\Local\Temp\ccGij5YZ.s 			page 1


   1              		.syntax unified
   2              		.cpu cortex-m0
   3              		.fpu softvfp
   4              		.eabi_attribute 20, 1
   5              		.eabi_attribute 21, 1
   6              		.eabi_attribute 23, 3
   7              		.eabi_attribute 24, 1
   8              		.eabi_attribute 25, 1
   9              		.eabi_attribute 26, 1
  10              		.eabi_attribute 30, 6
  11              		.eabi_attribute 34, 0
  12              		.eabi_attribute 18, 4
  13              		.thumb
  14              		.syntax unified
  15              		.file	"tof_coms.c"
  16              		.text
  17              	.Ltext0:
  18              		.cfi_sections	.debug_frame
  19              		.section	.text.myprintf,"ax",%progbits
  20              		.align	2
  21              		.global	myprintf
  22              		.code	16
  23              		.thumb_func
  24              		.type	myprintf, %function
  25              	myprintf:
  26              	.LFB35:
  27              		.file 1 "tof_coms.c"
   1:tof_coms.c    **** /* ========================================
   2:tof_coms.c    ****  *
   3:tof_coms.c    ****  * Copyright YOUR COMPANY, THE YEAR
   4:tof_coms.c    ****  * All Rights Reserved
   5:tof_coms.c    ****  * UNPUBLISHED, LICENSED SOFTWARE.
   6:tof_coms.c    ****  *
   7:tof_coms.c    ****  * CONFIDENTIAL AND PROPRIETARY INFORMATION
   8:tof_coms.c    ****  * WHICH IS THE PROPERTY OF your company.
   9:tof_coms.c    ****  *
  10:tof_coms.c    ****  * ========================================
  11:tof_coms.c    **** */
  12:tof_coms.c    **** /*
  13:tof_coms.c    ****  * COPYRIGHT (C) STMicroelectronics 2015. All rights reserved.
  14:tof_coms.c    ****  *
  15:tof_coms.c    ****  * This software is the confidential and proprietary information of
  16:tof_coms.c    ****  * STMicroelectronics ("Confidential Information").  You shall not
  17:tof_coms.c    ****  * disclose such Confidential Information and shall use it only in
  18:tof_coms.c    ****  * accordance with the terms of the license agreement you entered into
  19:tof_coms.c    ****  * with STMicroelectronics
  20:tof_coms.c    ****  *
  21:tof_coms.c    ****  * Programming Golden Rule: Keep it Simple!
  22:tof_coms.c    ****  *
  23:tof_coms.c    ****  */
  24:tof_coms.c    **** 
  25:tof_coms.c    **** /*!
  26:tof_coms.c    ****  * \file   VL53L0X_platform.c
  27:tof_coms.c    ****  * \brief  Code function defintions for Doppler Testchip Platform Layer
  28:tof_coms.c    ****  *
  29:tof_coms.c    ****  */
  30:tof_coms.c    **** 
ARM GAS  C:\Users\ilya\AppData\Local\Temp\ccGij5YZ.s 			page 2


  31:tof_coms.c    **** 
  32:tof_coms.c    **** #include <stdio.h>    // sprintf(), vsnprintf(), printf()
  33:tof_coms.c    **** 
  34:tof_coms.c    **** #ifdef _MSC_VER
  35:tof_coms.c    **** #define snprintf _snprintf
  36:tof_coms.c    **** #endif
  37:tof_coms.c    **** 
  38:tof_coms.c    **** #include "vl53l0x_i2c_platform.h"
  39:tof_coms.c    **** #include "vl53l0x_def.h"
  40:tof_coms.c    **** 
  41:tof_coms.c    **** #include <stdio.h>
  42:tof_coms.c    **** #include <stdlib.h>
  43:tof_coms.c    **** #include <project.h>
  44:tof_coms.c    **** 
  45:tof_coms.c    **** #define DWORD int
  46:tof_coms.c    **** #define TOF_BASE I2C_OPENCORES_0_BASE
  47:tof_coms.c    **** //#include "comms_platform.h"
  48:tof_coms.c    **** 
  49:tof_coms.c    **** #include "vl53l0x_platform_log.h"
  50:tof_coms.c    **** 
  51:tof_coms.c    **** #ifdef VL53L0X_LOG_ENABLE
  52:tof_coms.c    **** #define trace_print(level, ...) trace_print_module_function(TRACE_MODULE_PLATFORM, level, TRACE_FUN
  53:tof_coms.c    **** #define trace_i2c(...) trace_print_module_function(TRACE_MODULE_NONE, TRACE_LEVEL_NONE, TRACE_FUNCT
  54:tof_coms.c    **** #endif
  55:tof_coms.c    **** 
  56:tof_coms.c    **** 
  57:tof_coms.c    **** #define printf myprintf
  58:tof_coms.c    **** 
  59:tof_coms.c    **** 
  60:tof_coms.c    **** void myprintf(const char *fmt, ...)
  61:tof_coms.c    **** 	{
  28              		.loc 1 61 0
  29              		.cfi_startproc
  30              		@ args = 4, pretend = 16, frame = 0
  31              		@ frame_needed = 1, uses_anonymous_args = 1
  32 0000 0FB4     		push	{r0, r1, r2, r3}
  33              		.cfi_def_cfa_offset 16
  34 0002 80B5     		push	{r7, lr}
  35              		.cfi_def_cfa_offset 24
  36              		.cfi_offset 7, -24
  37              		.cfi_offset 14, -20
  38 0004 00AF     		add	r7, sp, #0
  39              		.cfi_def_cfa_register 7
  62:tof_coms.c    **** 	}
  40              		.loc 1 62 0
  41 0006 C046     		nop
  42 0008 BD46     		mov	sp, r7
  43              		@ sp needed
  44 000a 80BC     		pop	{r7}
  45 000c 08BC     		pop	{r3}
  46 000e 04B0     		add	sp, sp, #16
  47 0010 1847     		bx	r3
  48              		.cfi_endproc
  49              	.LFE35:
  50              		.size	myprintf, .-myprintf
  51              		.comm	debug_string,256,4
  52              		.global	cached_page
ARM GAS  C:\Users\ilya\AppData\Local\Temp\ccGij5YZ.s 			page 3


  53 0012 C046     		.bss
  54              		.type	cached_page, %object
  55              		.size	cached_page, 1
  56              	cached_page:
  57 0000 00       		.space	1
  58 0001 000000   		.align	2
  59              	_dataBytes:
  60 0004 00000000 		.space	100
  60      00000000 
  60      00000000 
  60      00000000 
  60      00000000 
  61              		.section	.text._check_min_version,"ax",%progbits
  62              		.align	2
  63              		.global	_check_min_version
  64              		.code	16
  65              		.thumb_func
  66              		.type	_check_min_version, %function
  67              	_check_min_version:
  68              	.LFB36:
  63:tof_coms.c    **** char  debug_string[VL53L0X_MAX_STRING_LENGTH_PLT];
  64:tof_coms.c    **** 
  65:tof_coms.c    **** uint8_t cached_page = 0;
  66:tof_coms.c    **** 
  67:tof_coms.c    **** #define MIN_COMMS_VERSION_MAJOR     1
  68:tof_coms.c    **** #define MIN_COMMS_VERSION_MINOR     8
  69:tof_coms.c    **** #define MIN_COMMS_VERSION_BUILD     1
  70:tof_coms.c    **** #define MIN_COMMS_VERSION_REVISION  0
  71:tof_coms.c    **** 
  72:tof_coms.c    **** 
  73:tof_coms.c    **** #define MAX_STR_SIZE 255
  74:tof_coms.c    **** #define MAX_MSG_SIZE 100
  75:tof_coms.c    **** #define MAX_DEVICES 4
  76:tof_coms.c    **** #define STATUS_OK              0x00
  77:tof_coms.c    **** #define STATUS_FAIL            0x01
  78:tof_coms.c    **** 
  79:tof_coms.c    **** static unsigned char _dataBytes[MAX_MSG_SIZE];
  80:tof_coms.c    **** 
  81:tof_coms.c    **** bool_t _check_min_version(void)
  82:tof_coms.c    **** {
  69              		.loc 1 82 0
  70              		.cfi_startproc
  71              		@ args = 0, pretend = 0, frame = 0
  72              		@ frame_needed = 1, uses_anonymous_args = 0
  73 0000 80B5     		push	{r7, lr}
  74              		.cfi_def_cfa_offset 8
  75              		.cfi_offset 7, -8
  76              		.cfi_offset 14, -4
  77 0002 00AF     		add	r7, sp, #0
  78              		.cfi_def_cfa_register 7
  83:tof_coms.c    ****     return 1;
  79              		.loc 1 83 0
  80 0004 0123     		movs	r3, #1
  84:tof_coms.c    **** }
  81              		.loc 1 84 0
  82 0006 1800     		movs	r0, r3
  83 0008 BD46     		mov	sp, r7
ARM GAS  C:\Users\ilya\AppData\Local\Temp\ccGij5YZ.s 			page 4


  84              		@ sp needed
  85 000a 80BD     		pop	{r7, pc}
  86              		.cfi_endproc
  87              	.LFE36:
  88              		.size	_check_min_version, .-_check_min_version
  89              		.section	.text.VL53L0X_i2c_init,"ax",%progbits
  90              		.align	2
  91              		.global	VL53L0X_i2c_init
  92              		.code	16
  93              		.thumb_func
  94              		.type	VL53L0X_i2c_init, %function
  95              	VL53L0X_i2c_init:
  96              	.LFB37:
  85:tof_coms.c    **** 
  86:tof_coms.c    **** int VL53L0X_i2c_init(char *comPortStr, unsigned int baudRate) // mja
  87:tof_coms.c    **** {
  97              		.loc 1 87 0
  98              		.cfi_startproc
  99              		@ args = 0, pretend = 0, frame = 8
 100              		@ frame_needed = 1, uses_anonymous_args = 0
 101 0000 80B5     		push	{r7, lr}
 102              		.cfi_def_cfa_offset 8
 103              		.cfi_offset 7, -8
 104              		.cfi_offset 14, -4
 105 0002 82B0     		sub	sp, sp, #8
 106              		.cfi_def_cfa_offset 16
 107 0004 00AF     		add	r7, sp, #0
 108              		.cfi_def_cfa_register 7
 109 0006 7860     		str	r0, [r7, #4]
 110 0008 3960     		str	r1, [r7]
  88:tof_coms.c    ****    
  89:tof_coms.c    ****     return STATUS_OK;
 111              		.loc 1 89 0
 112 000a 0023     		movs	r3, #0
  90:tof_coms.c    **** }
 113              		.loc 1 90 0
 114 000c 1800     		movs	r0, r3
 115 000e BD46     		mov	sp, r7
 116 0010 02B0     		add	sp, sp, #8
 117              		@ sp needed
 118 0012 80BD     		pop	{r7, pc}
 119              		.cfi_endproc
 120              	.LFE37:
 121              		.size	VL53L0X_i2c_init, .-VL53L0X_i2c_init
 122              		.section	.text.VL53L0X_comms_close,"ax",%progbits
 123              		.align	2
 124              		.global	VL53L0X_comms_close
 125              		.code	16
 126              		.thumb_func
 127              		.type	VL53L0X_comms_close, %function
 128              	VL53L0X_comms_close:
 129              	.LFB38:
  91:tof_coms.c    **** int32_t VL53L0X_comms_close(void)
  92:tof_coms.c    **** {
 130              		.loc 1 92 0
 131              		.cfi_startproc
 132              		@ args = 0, pretend = 0, frame = 0
ARM GAS  C:\Users\ilya\AppData\Local\Temp\ccGij5YZ.s 			page 5


 133              		@ frame_needed = 1, uses_anonymous_args = 0
 134 0000 80B5     		push	{r7, lr}
 135              		.cfi_def_cfa_offset 8
 136              		.cfi_offset 7, -8
 137              		.cfi_offset 14, -4
 138 0002 00AF     		add	r7, sp, #0
 139              		.cfi_def_cfa_register 7
  93:tof_coms.c    ****     return STATUS_OK;
 140              		.loc 1 93 0
 141 0004 0023     		movs	r3, #0
  94:tof_coms.c    **** }
 142              		.loc 1 94 0
 143 0006 1800     		movs	r0, r3
 144 0008 BD46     		mov	sp, r7
 145              		@ sp needed
 146 000a 80BD     		pop	{r7, pc}
 147              		.cfi_endproc
 148              	.LFE38:
 149              		.size	VL53L0X_comms_close, .-VL53L0X_comms_close
 150              		.section	.text.VL53L0X_write_multi,"ax",%progbits
 151              		.align	2
 152              		.global	VL53L0X_write_multi
 153              		.code	16
 154              		.thumb_func
 155              		.type	VL53L0X_write_multi, %function
 156              	VL53L0X_write_multi:
 157              	.LFB39:
  95:tof_coms.c    **** 
  96:tof_coms.c    **** int32_t VL53L0X_write_multi(uint8_t address, uint8_t reg, uint8_t *pdata, int32_t count)
  97:tof_coms.c    **** {
 158              		.loc 1 97 0
 159              		.cfi_startproc
 160              		@ args = 0, pretend = 0, frame = 40
 161              		@ frame_needed = 1, uses_anonymous_args = 0
 162 0000 80B5     		push	{r7, lr}
 163              		.cfi_def_cfa_offset 8
 164              		.cfi_offset 7, -8
 165              		.cfi_offset 14, -4
 166 0002 8AB0     		sub	sp, sp, #40
 167              		.cfi_def_cfa_offset 48
 168 0004 00AF     		add	r7, sp, #0
 169              		.cfi_def_cfa_register 7
 170 0006 BA60     		str	r2, [r7, #8]
 171 0008 7B60     		str	r3, [r7, #4]
 172 000a 0F23     		movs	r3, #15
 173 000c FB18     		adds	r3, r7, r3
 174 000e 021C     		adds	r2, r0, #0
 175 0010 1A70     		strb	r2, [r3]
 176 0012 0E23     		movs	r3, #14
 177 0014 FB18     		adds	r3, r7, r3
 178 0016 0A1C     		adds	r2, r1, #0
 179 0018 1A70     		strb	r2, [r3]
  98:tof_coms.c    ****     int32_t status = STATUS_OK;
 180              		.loc 1 98 0
 181 001a 0023     		movs	r3, #0
 182 001c 3B62     		str	r3, [r7, #32]
  99:tof_coms.c    ****     int c;
ARM GAS  C:\Users\ilya\AppData\Local\Temp\ccGij5YZ.s 			page 6


 100:tof_coms.c    **** 
 101:tof_coms.c    ****     unsigned int retries = 3;
 183              		.loc 1 101 0
 184 001e 0323     		movs	r3, #3
 185 0020 FB61     		str	r3, [r7, #28]
 102:tof_coms.c    ****     uint8_t *pWriteData    = pdata;
 186              		.loc 1 102 0
 187 0022 BB68     		ldr	r3, [r7, #8]
 188 0024 BB61     		str	r3, [r7, #24]
 103:tof_coms.c    ****     uint8_t writeDataCount = count;
 189              		.loc 1 103 0
 190 0026 1723     		movs	r3, #23
 191 0028 FB18     		adds	r3, r7, r3
 192 002a 7A68     		ldr	r2, [r7, #4]
 193 002c 1A70     		strb	r2, [r3]
 104:tof_coms.c    ****     uint8_t writeReg       = reg;
 194              		.loc 1 104 0
 195 002e 1623     		movs	r3, #22
 196 0030 FB18     		adds	r3, r7, r3
 197 0032 0E22     		movs	r2, #14
 198 0034 BA18     		adds	r2, r7, r2
 199 0036 1278     		ldrb	r2, [r2]
 200 0038 1A70     		strb	r2, [r3]
 105:tof_coms.c    ****     int r;
 106:tof_coms.c    **** 
 107:tof_coms.c    ****     
 108:tof_coms.c    ****     r=I2C_LED_I2CMasterSendStart(address,0);
 201              		.loc 1 108 0
 202 003a 0F23     		movs	r3, #15
 203 003c FB18     		adds	r3, r7, r3
 204 003e 1B78     		ldrb	r3, [r3]
 205 0040 0021     		movs	r1, #0
 206 0042 1800     		movs	r0, r3
 207 0044 FFF7FEFF 		bl	I2C_LED_I2CMasterSendStart
 208 0048 0300     		movs	r3, r0
 209 004a 3B61     		str	r3, [r7, #16]
 109:tof_coms.c    ****     if(r!=0)
 210              		.loc 1 109 0
 211 004c 3B69     		ldr	r3, [r7, #16]
 212 004e 002B     		cmp	r3, #0
 213 0050 01D0     		beq	.L9
 110:tof_coms.c    ****         return 1;
 214              		.loc 1 110 0
 215 0052 0123     		movs	r3, #1
 216 0054 19E0     		b	.L10
 217              	.L9:
 111:tof_coms.c    ****     
 112:tof_coms.c    ****     I2C_LED_I2CMasterWriteByte(reg);
 218              		.loc 1 112 0
 219 0056 0E23     		movs	r3, #14
 220 0058 FB18     		adds	r3, r7, r3
 221 005a 1B78     		ldrb	r3, [r3]
 222 005c 1800     		movs	r0, r3
 223 005e FFF7FEFF 		bl	I2C_LED_I2CMasterWriteByte
 113:tof_coms.c    ****     for (c=0;c<count;c++)
 224              		.loc 1 113 0
 225 0062 0023     		movs	r3, #0
ARM GAS  C:\Users\ilya\AppData\Local\Temp\ccGij5YZ.s 			page 7


 226 0064 7B62     		str	r3, [r7, #36]
 227 0066 09E0     		b	.L11
 228              	.L12:
 114:tof_coms.c    ****          I2C_LED_I2CMasterWriteByte(*pdata++);
 229              		.loc 1 114 0 discriminator 3
 230 0068 BB68     		ldr	r3, [r7, #8]
 231 006a 5A1C     		adds	r2, r3, #1
 232 006c BA60     		str	r2, [r7, #8]
 233 006e 1B78     		ldrb	r3, [r3]
 234 0070 1800     		movs	r0, r3
 235 0072 FFF7FEFF 		bl	I2C_LED_I2CMasterWriteByte
 113:tof_coms.c    ****     for (c=0;c<count;c++)
 236              		.loc 1 113 0 discriminator 3
 237 0076 7B6A     		ldr	r3, [r7, #36]
 238 0078 0133     		adds	r3, r3, #1
 239 007a 7B62     		str	r3, [r7, #36]
 240              	.L11:
 113:tof_coms.c    ****     for (c=0;c<count;c++)
 241              		.loc 1 113 0 is_stmt 0 discriminator 1
 242 007c 7A6A     		ldr	r2, [r7, #36]
 243 007e 7B68     		ldr	r3, [r7, #4]
 244 0080 9A42     		cmp	r2, r3
 245 0082 F1DB     		blt	.L12
 115:tof_coms.c    ****     
 116:tof_coms.c    ****     I2C_LED_I2CMasterSendStop();
 246              		.loc 1 116 0 is_stmt 1
 247 0084 FFF7FEFF 		bl	I2C_LED_I2CMasterSendStop
 117:tof_coms.c    ****     
 118:tof_coms.c    ****     return STATUS_OK;
 248              		.loc 1 118 0
 249 0088 0023     		movs	r3, #0
 250              	.L10:
 119:tof_coms.c    **** }
 251              		.loc 1 119 0
 252 008a 1800     		movs	r0, r3
 253 008c BD46     		mov	sp, r7
 254 008e 0AB0     		add	sp, sp, #40
 255              		@ sp needed
 256 0090 80BD     		pop	{r7, pc}
 257              		.cfi_endproc
 258              	.LFE39:
 259              		.size	VL53L0X_write_multi, .-VL53L0X_write_multi
 260 0092 C046     		.section	.text.VL53L0X_read_multi,"ax",%progbits
 261              		.align	2
 262              		.global	VL53L0X_read_multi
 263              		.code	16
 264              		.thumb_func
 265              		.type	VL53L0X_read_multi, %function
 266              	VL53L0X_read_multi:
 267              	.LFB40:
 120:tof_coms.c    **** 
 121:tof_coms.c    **** int32_t VL53L0X_read_multi(uint8_t address, uint8_t index, uint8_t *pdata, int32_t count)
 122:tof_coms.c    **** {
 268              		.loc 1 122 0
 269              		.cfi_startproc
 270              		@ args = 0, pretend = 0, frame = 24
 271              		@ frame_needed = 1, uses_anonymous_args = 0
ARM GAS  C:\Users\ilya\AppData\Local\Temp\ccGij5YZ.s 			page 8


 272 0000 90B5     		push	{r4, r7, lr}
 273              		.cfi_def_cfa_offset 12
 274              		.cfi_offset 4, -12
 275              		.cfi_offset 7, -8
 276              		.cfi_offset 14, -4
 277 0002 87B0     		sub	sp, sp, #28
 278              		.cfi_def_cfa_offset 40
 279 0004 00AF     		add	r7, sp, #0
 280              		.cfi_def_cfa_register 7
 281 0006 BA60     		str	r2, [r7, #8]
 282 0008 7B60     		str	r3, [r7, #4]
 283 000a 0F23     		movs	r3, #15
 284 000c FB18     		adds	r3, r7, r3
 285 000e 021C     		adds	r2, r0, #0
 286 0010 1A70     		strb	r2, [r3]
 287 0012 0E23     		movs	r3, #14
 288 0014 FB18     		adds	r3, r7, r3
 289 0016 0A1C     		adds	r2, r1, #0
 290 0018 1A70     		strb	r2, [r3]
 123:tof_coms.c    ****     int c;
 124:tof_coms.c    ****     int r;
 125:tof_coms.c    ****    
 126:tof_coms.c    ****         
 127:tof_coms.c    ****         
 128:tof_coms.c    ****     r=I2C_LED_I2CMasterSendStart(address,0);
 291              		.loc 1 128 0
 292 001a 0F23     		movs	r3, #15
 293 001c FB18     		adds	r3, r7, r3
 294 001e 1B78     		ldrb	r3, [r3]
 295 0020 0021     		movs	r1, #0
 296 0022 1800     		movs	r0, r3
 297 0024 FFF7FEFF 		bl	I2C_LED_I2CMasterSendStart
 298 0028 0300     		movs	r3, r0
 299 002a 3B61     		str	r3, [r7, #16]
 129:tof_coms.c    ****     if(r!=0)
 300              		.loc 1 129 0
 301 002c 3B69     		ldr	r3, [r7, #16]
 302 002e 002B     		cmp	r3, #0
 303 0030 01D0     		beq	.L14
 130:tof_coms.c    ****         return 1;
 304              		.loc 1 130 0
 305 0032 0123     		movs	r3, #1
 306 0034 22E0     		b	.L15
 307              	.L14:
 131:tof_coms.c    ****     
 132:tof_coms.c    ****     I2C_LED_I2CMasterWriteByte(index);
 308              		.loc 1 132 0
 309 0036 0E23     		movs	r3, #14
 310 0038 FB18     		adds	r3, r7, r3
 311 003a 1B78     		ldrb	r3, [r3]
 312 003c 1800     		movs	r0, r3
 313 003e FFF7FEFF 		bl	I2C_LED_I2CMasterWriteByte
 133:tof_coms.c    ****     I2C_LED_I2CMasterSendRestart(address,1);
 314              		.loc 1 133 0
 315 0042 0F23     		movs	r3, #15
 316 0044 FB18     		adds	r3, r7, r3
 317 0046 1B78     		ldrb	r3, [r3]
ARM GAS  C:\Users\ilya\AppData\Local\Temp\ccGij5YZ.s 			page 9


 318 0048 0121     		movs	r1, #1
 319 004a 1800     		movs	r0, r3
 320 004c FFF7FEFF 		bl	I2C_LED_I2CMasterSendRestart
 134:tof_coms.c    ****     for (c=0;c<count;c++)
 321              		.loc 1 134 0
 322 0050 0023     		movs	r3, #0
 323 0052 7B61     		str	r3, [r7, #20]
 324 0054 0BE0     		b	.L16
 325              	.L17:
 135:tof_coms.c    ****           *pdata++=I2C_LED_I2CMasterReadByte( I2C_LED_I2C_ACK_DATA);
 326              		.loc 1 135 0 discriminator 3
 327 0056 BC68     		ldr	r4, [r7, #8]
 328 0058 631C     		adds	r3, r4, #1
 329 005a BB60     		str	r3, [r7, #8]
 330 005c 0020     		movs	r0, #0
 331 005e FFF7FEFF 		bl	I2C_LED_I2CMasterReadByte
 332 0062 0300     		movs	r3, r0
 333 0064 DBB2     		uxtb	r3, r3
 334 0066 2370     		strb	r3, [r4]
 134:tof_coms.c    ****     for (c=0;c<count;c++)
 335              		.loc 1 134 0 discriminator 3
 336 0068 7B69     		ldr	r3, [r7, #20]
 337 006a 0133     		adds	r3, r3, #1
 338 006c 7B61     		str	r3, [r7, #20]
 339              	.L16:
 134:tof_coms.c    ****     for (c=0;c<count;c++)
 340              		.loc 1 134 0 is_stmt 0 discriminator 1
 341 006e 7A69     		ldr	r2, [r7, #20]
 342 0070 7B68     		ldr	r3, [r7, #4]
 343 0072 9A42     		cmp	r2, r3
 344 0074 EFDB     		blt	.L17
 136:tof_coms.c    ****     
 137:tof_coms.c    ****     I2C_LED_I2CMasterSendStop();
 345              		.loc 1 137 0 is_stmt 1
 346 0076 FFF7FEFF 		bl	I2C_LED_I2CMasterSendStop
 138:tof_coms.c    ****     
 139:tof_coms.c    ****     return STATUS_OK;
 347              		.loc 1 139 0
 348 007a 0023     		movs	r3, #0
 349              	.L15:
 140:tof_coms.c    **** }
 350              		.loc 1 140 0
 351 007c 1800     		movs	r0, r3
 352 007e BD46     		mov	sp, r7
 353 0080 07B0     		add	sp, sp, #28
 354              		@ sp needed
 355 0082 90BD     		pop	{r4, r7, pc}
 356              		.cfi_endproc
 357              	.LFE40:
 358              		.size	VL53L0X_read_multi, .-VL53L0X_read_multi
 359              		.section	.text.VL53L0X_write_byte,"ax",%progbits
 360              		.align	2
 361              		.global	VL53L0X_write_byte
 362              		.code	16
 363              		.thumb_func
 364              		.type	VL53L0X_write_byte, %function
 365              	VL53L0X_write_byte:
ARM GAS  C:\Users\ilya\AppData\Local\Temp\ccGij5YZ.s 			page 10


 366              	.LFB41:
 141:tof_coms.c    **** 
 142:tof_coms.c    **** 
 143:tof_coms.c    **** int32_t VL53L0X_write_byte(uint8_t address, uint8_t index, uint8_t data)
 144:tof_coms.c    **** {
 367              		.loc 1 144 0
 368              		.cfi_startproc
 369              		@ args = 0, pretend = 0, frame = 16
 370              		@ frame_needed = 1, uses_anonymous_args = 0
 371 0000 90B5     		push	{r4, r7, lr}
 372              		.cfi_def_cfa_offset 12
 373              		.cfi_offset 4, -12
 374              		.cfi_offset 7, -8
 375              		.cfi_offset 14, -4
 376 0002 85B0     		sub	sp, sp, #20
 377              		.cfi_def_cfa_offset 32
 378 0004 00AF     		add	r7, sp, #0
 379              		.cfi_def_cfa_register 7
 380 0006 0400     		movs	r4, r0
 381 0008 0800     		movs	r0, r1
 382 000a 1100     		movs	r1, r2
 383 000c FB1D     		adds	r3, r7, #7
 384 000e 221C     		adds	r2, r4, #0
 385 0010 1A70     		strb	r2, [r3]
 386 0012 BB1D     		adds	r3, r7, #6
 387 0014 021C     		adds	r2, r0, #0
 388 0016 1A70     		strb	r2, [r3]
 389 0018 7B1D     		adds	r3, r7, #5
 390 001a 0A1C     		adds	r2, r1, #0
 391 001c 1A70     		strb	r2, [r3]
 145:tof_coms.c    ****     int32_t status = STATUS_OK;
 392              		.loc 1 145 0
 393 001e 0023     		movs	r3, #0
 394 0020 FB60     		str	r3, [r7, #12]
 146:tof_coms.c    ****     const int32_t cbyte_count = 1;
 395              		.loc 1 146 0
 396 0022 0123     		movs	r3, #1
 397 0024 BB60     		str	r3, [r7, #8]
 147:tof_coms.c    **** 
 148:tof_coms.c    **** #ifdef VL53L0X_LOG_ENABLE
 149:tof_coms.c    ****     trace_print(TRACE_LEVEL_INFO,"Write reg : 0x%02X, Val : 0x%02X\n", index, data);
 150:tof_coms.c    **** #endif
 151:tof_coms.c    **** 
 152:tof_coms.c    ****     status = VL53L0X_write_multi(address, index, &data, cbyte_count);
 398              		.loc 1 152 0
 399 0026 BC68     		ldr	r4, [r7, #8]
 400 0028 7A1D     		adds	r2, r7, #5
 401 002a BB1D     		adds	r3, r7, #6
 402 002c 1978     		ldrb	r1, [r3]
 403 002e FB1D     		adds	r3, r7, #7
 404 0030 1878     		ldrb	r0, [r3]
 405 0032 2300     		movs	r3, r4
 406 0034 FFF7FEFF 		bl	VL53L0X_write_multi
 407 0038 0300     		movs	r3, r0
 408 003a FB60     		str	r3, [r7, #12]
 153:tof_coms.c    **** 
 154:tof_coms.c    ****     return status;
ARM GAS  C:\Users\ilya\AppData\Local\Temp\ccGij5YZ.s 			page 11


 409              		.loc 1 154 0
 410 003c FB68     		ldr	r3, [r7, #12]
 155:tof_coms.c    **** 
 156:tof_coms.c    **** }
 411              		.loc 1 156 0
 412 003e 1800     		movs	r0, r3
 413 0040 BD46     		mov	sp, r7
 414 0042 05B0     		add	sp, sp, #20
 415              		@ sp needed
 416 0044 90BD     		pop	{r4, r7, pc}
 417              		.cfi_endproc
 418              	.LFE41:
 419              		.size	VL53L0X_write_byte, .-VL53L0X_write_byte
 420 0046 C046     		.section	.text.VL53L0X_write_word,"ax",%progbits
 421              		.align	2
 422              		.global	VL53L0X_write_word
 423              		.code	16
 424              		.thumb_func
 425              		.type	VL53L0X_write_word, %function
 426              	VL53L0X_write_word:
 427              	.LFB42:
 157:tof_coms.c    **** 
 158:tof_coms.c    **** 
 159:tof_coms.c    **** int32_t VL53L0X_write_word(uint8_t address, uint8_t index, uint16_t data)
 160:tof_coms.c    **** {
 428              		.loc 1 160 0
 429              		.cfi_startproc
 430              		@ args = 0, pretend = 0, frame = 16
 431              		@ frame_needed = 1, uses_anonymous_args = 0
 432 0000 90B5     		push	{r4, r7, lr}
 433              		.cfi_def_cfa_offset 12
 434              		.cfi_offset 4, -12
 435              		.cfi_offset 7, -8
 436              		.cfi_offset 14, -4
 437 0002 85B0     		sub	sp, sp, #20
 438              		.cfi_def_cfa_offset 32
 439 0004 00AF     		add	r7, sp, #0
 440              		.cfi_def_cfa_register 7
 441 0006 0400     		movs	r4, r0
 442 0008 0800     		movs	r0, r1
 443 000a 1100     		movs	r1, r2
 444 000c FB1D     		adds	r3, r7, #7
 445 000e 221C     		adds	r2, r4, #0
 446 0010 1A70     		strb	r2, [r3]
 447 0012 BB1D     		adds	r3, r7, #6
 448 0014 021C     		adds	r2, r0, #0
 449 0016 1A70     		strb	r2, [r3]
 450 0018 3B1D     		adds	r3, r7, #4
 451 001a 0A1C     		adds	r2, r1, #0
 452 001c 1A80     		strh	r2, [r3]
 161:tof_coms.c    ****     int32_t status = STATUS_OK;
 453              		.loc 1 161 0
 454 001e 0023     		movs	r3, #0
 455 0020 FB60     		str	r3, [r7, #12]
 162:tof_coms.c    **** 
 163:tof_coms.c    ****     uint8_t  buffer[BYTES_PER_WORD];
 164:tof_coms.c    **** 
ARM GAS  C:\Users\ilya\AppData\Local\Temp\ccGij5YZ.s 			page 12


 165:tof_coms.c    ****     // Split 16-bit word into MS and LS uint8_t
 166:tof_coms.c    ****     buffer[0] = (uint8_t)(data >> 8);
 456              		.loc 1 166 0
 457 0022 3B1D     		adds	r3, r7, #4
 458 0024 1B88     		ldrh	r3, [r3]
 459 0026 1B0A     		lsrs	r3, r3, #8
 460 0028 9BB2     		uxth	r3, r3
 461 002a DAB2     		uxtb	r2, r3
 462 002c 0823     		movs	r3, #8
 463 002e FB18     		adds	r3, r7, r3
 464 0030 1A70     		strb	r2, [r3]
 167:tof_coms.c    ****     buffer[1] = (uint8_t)(data &  0x00FF);
 465              		.loc 1 167 0
 466 0032 3B1D     		adds	r3, r7, #4
 467 0034 1B88     		ldrh	r3, [r3]
 468 0036 DAB2     		uxtb	r2, r3
 469 0038 0823     		movs	r3, #8
 470 003a FB18     		adds	r3, r7, r3
 471 003c 5A70     		strb	r2, [r3, #1]
 168:tof_coms.c    **** 
 169:tof_coms.c    ****     if(index%2 == 1)
 472              		.loc 1 169 0
 473 003e BB1D     		adds	r3, r7, #6
 474 0040 1B78     		ldrb	r3, [r3]
 475 0042 0122     		movs	r2, #1
 476 0044 1340     		ands	r3, r2
 477 0046 DBB2     		uxtb	r3, r3
 478 0048 002B     		cmp	r3, #0
 479 004a 19D0     		beq	.L21
 170:tof_coms.c    ****     {
 171:tof_coms.c    ****         status = VL53L0X_write_multi(address, index, &buffer[0], 1);
 480              		.loc 1 171 0
 481 004c 0823     		movs	r3, #8
 482 004e FA18     		adds	r2, r7, r3
 483 0050 BB1D     		adds	r3, r7, #6
 484 0052 1978     		ldrb	r1, [r3]
 485 0054 FB1D     		adds	r3, r7, #7
 486 0056 1878     		ldrb	r0, [r3]
 487 0058 0123     		movs	r3, #1
 488 005a FFF7FEFF 		bl	VL53L0X_write_multi
 489 005e 0300     		movs	r3, r0
 490 0060 FB60     		str	r3, [r7, #12]
 172:tof_coms.c    ****         status = VL53L0X_write_multi(address, index + 1, &buffer[1], 1);
 491              		.loc 1 172 0
 492 0062 BB1D     		adds	r3, r7, #6
 493 0064 1B78     		ldrb	r3, [r3]
 494 0066 0133     		adds	r3, r3, #1
 495 0068 D9B2     		uxtb	r1, r3
 496 006a 0823     		movs	r3, #8
 497 006c FB18     		adds	r3, r7, r3
 498 006e 5A1C     		adds	r2, r3, #1
 499 0070 FB1D     		adds	r3, r7, #7
 500 0072 1878     		ldrb	r0, [r3]
 501 0074 0123     		movs	r3, #1
 502 0076 FFF7FEFF 		bl	VL53L0X_write_multi
 503 007a 0300     		movs	r3, r0
 504 007c FB60     		str	r3, [r7, #12]
ARM GAS  C:\Users\ilya\AppData\Local\Temp\ccGij5YZ.s 			page 13


 505 007e 0AE0     		b	.L22
 506              	.L21:
 173:tof_coms.c    ****         // serial comms cannot handle word writes to non 2-byte aligned registers.
 174:tof_coms.c    ****     }
 175:tof_coms.c    ****     else
 176:tof_coms.c    ****     {
 177:tof_coms.c    ****         status = VL53L0X_write_multi(address, index, buffer, BYTES_PER_WORD);
 507              		.loc 1 177 0
 508 0080 0823     		movs	r3, #8
 509 0082 FA18     		adds	r2, r7, r3
 510 0084 BB1D     		adds	r3, r7, #6
 511 0086 1978     		ldrb	r1, [r3]
 512 0088 FB1D     		adds	r3, r7, #7
 513 008a 1878     		ldrb	r0, [r3]
 514 008c 0223     		movs	r3, #2
 515 008e FFF7FEFF 		bl	VL53L0X_write_multi
 516 0092 0300     		movs	r3, r0
 517 0094 FB60     		str	r3, [r7, #12]
 518              	.L22:
 178:tof_coms.c    ****     }
 179:tof_coms.c    **** 
 180:tof_coms.c    ****     return status;
 519              		.loc 1 180 0
 520 0096 FB68     		ldr	r3, [r7, #12]
 181:tof_coms.c    **** 
 182:tof_coms.c    **** }
 521              		.loc 1 182 0
 522 0098 1800     		movs	r0, r3
 523 009a BD46     		mov	sp, r7
 524 009c 05B0     		add	sp, sp, #20
 525              		@ sp needed
 526 009e 90BD     		pop	{r4, r7, pc}
 527              		.cfi_endproc
 528              	.LFE42:
 529              		.size	VL53L0X_write_word, .-VL53L0X_write_word
 530              		.section	.text.VL53L0X_write_dword,"ax",%progbits
 531              		.align	2
 532              		.global	VL53L0X_write_dword
 533              		.code	16
 534              		.thumb_func
 535              		.type	VL53L0X_write_dword, %function
 536              	VL53L0X_write_dword:
 537              	.LFB43:
 183:tof_coms.c    **** 
 184:tof_coms.c    **** 
 185:tof_coms.c    **** int32_t VL53L0X_write_dword(uint8_t address, uint8_t index, uint32_t data)
 186:tof_coms.c    **** {
 538              		.loc 1 186 0
 539              		.cfi_startproc
 540              		@ args = 0, pretend = 0, frame = 16
 541              		@ frame_needed = 1, uses_anonymous_args = 0
 542 0000 80B5     		push	{r7, lr}
 543              		.cfi_def_cfa_offset 8
 544              		.cfi_offset 7, -8
 545              		.cfi_offset 14, -4
 546 0002 84B0     		sub	sp, sp, #16
 547              		.cfi_def_cfa_offset 24
ARM GAS  C:\Users\ilya\AppData\Local\Temp\ccGij5YZ.s 			page 14


 548 0004 00AF     		add	r7, sp, #0
 549              		.cfi_def_cfa_register 7
 550 0006 3A60     		str	r2, [r7]
 551 0008 FB1D     		adds	r3, r7, #7
 552 000a 021C     		adds	r2, r0, #0
 553 000c 1A70     		strb	r2, [r3]
 554 000e BB1D     		adds	r3, r7, #6
 555 0010 0A1C     		adds	r2, r1, #0
 556 0012 1A70     		strb	r2, [r3]
 187:tof_coms.c    ****     int32_t status = STATUS_OK;
 557              		.loc 1 187 0
 558 0014 0023     		movs	r3, #0
 559 0016 FB60     		str	r3, [r7, #12]
 188:tof_coms.c    ****     uint8_t  buffer[BYTES_PER_DWORD];
 189:tof_coms.c    **** 
 190:tof_coms.c    ****     // Split 32-bit word into MS ... LS bytes
 191:tof_coms.c    ****     buffer[0] = (uint8_t) (data >> 24);
 560              		.loc 1 191 0
 561 0018 3B68     		ldr	r3, [r7]
 562 001a 1B0E     		lsrs	r3, r3, #24
 563 001c DAB2     		uxtb	r2, r3
 564 001e 0823     		movs	r3, #8
 565 0020 FB18     		adds	r3, r7, r3
 566 0022 1A70     		strb	r2, [r3]
 192:tof_coms.c    ****     buffer[1] = (uint8_t)((data &  0x00FF0000) >> 16);
 567              		.loc 1 192 0
 568 0024 3B68     		ldr	r3, [r7]
 569 0026 1B0C     		lsrs	r3, r3, #16
 570 0028 DAB2     		uxtb	r2, r3
 571 002a 0823     		movs	r3, #8
 572 002c FB18     		adds	r3, r7, r3
 573 002e 5A70     		strb	r2, [r3, #1]
 193:tof_coms.c    ****     buffer[2] = (uint8_t)((data &  0x0000FF00) >> 8);
 574              		.loc 1 193 0
 575 0030 3B68     		ldr	r3, [r7]
 576 0032 1B0A     		lsrs	r3, r3, #8
 577 0034 DAB2     		uxtb	r2, r3
 578 0036 0823     		movs	r3, #8
 579 0038 FB18     		adds	r3, r7, r3
 580 003a 9A70     		strb	r2, [r3, #2]
 194:tof_coms.c    ****     buffer[3] = (uint8_t) (data &  0x000000FF);
 581              		.loc 1 194 0
 582 003c 3B68     		ldr	r3, [r7]
 583 003e DAB2     		uxtb	r2, r3
 584 0040 0823     		movs	r3, #8
 585 0042 FB18     		adds	r3, r7, r3
 586 0044 DA70     		strb	r2, [r3, #3]
 195:tof_coms.c    **** 
 196:tof_coms.c    ****     status = VL53L0X_write_multi(address, index, buffer, BYTES_PER_DWORD);
 587              		.loc 1 196 0
 588 0046 0823     		movs	r3, #8
 589 0048 FA18     		adds	r2, r7, r3
 590 004a BB1D     		adds	r3, r7, #6
 591 004c 1978     		ldrb	r1, [r3]
 592 004e FB1D     		adds	r3, r7, #7
 593 0050 1878     		ldrb	r0, [r3]
 594 0052 0423     		movs	r3, #4
ARM GAS  C:\Users\ilya\AppData\Local\Temp\ccGij5YZ.s 			page 15


 595 0054 FFF7FEFF 		bl	VL53L0X_write_multi
 596 0058 0300     		movs	r3, r0
 597 005a FB60     		str	r3, [r7, #12]
 197:tof_coms.c    **** 
 198:tof_coms.c    ****     return status;
 598              		.loc 1 198 0
 599 005c FB68     		ldr	r3, [r7, #12]
 199:tof_coms.c    **** 
 200:tof_coms.c    **** }
 600              		.loc 1 200 0
 601 005e 1800     		movs	r0, r3
 602 0060 BD46     		mov	sp, r7
 603 0062 04B0     		add	sp, sp, #16
 604              		@ sp needed
 605 0064 80BD     		pop	{r7, pc}
 606              		.cfi_endproc
 607              	.LFE43:
 608              		.size	VL53L0X_write_dword, .-VL53L0X_write_dword
 609 0066 C046     		.section	.text.VL53L0X_read_byte,"ax",%progbits
 610              		.align	2
 611              		.global	VL53L0X_read_byte
 612              		.code	16
 613              		.thumb_func
 614              		.type	VL53L0X_read_byte, %function
 615              	VL53L0X_read_byte:
 616              	.LFB44:
 201:tof_coms.c    **** 
 202:tof_coms.c    **** 
 203:tof_coms.c    **** int32_t VL53L0X_read_byte(uint8_t address, uint8_t index, uint8_t *pdata)
 204:tof_coms.c    **** {
 617              		.loc 1 204 0
 618              		.cfi_startproc
 619              		@ args = 0, pretend = 0, frame = 16
 620              		@ frame_needed = 1, uses_anonymous_args = 0
 621 0000 90B5     		push	{r4, r7, lr}
 622              		.cfi_def_cfa_offset 12
 623              		.cfi_offset 4, -12
 624              		.cfi_offset 7, -8
 625              		.cfi_offset 14, -4
 626 0002 85B0     		sub	sp, sp, #20
 627              		.cfi_def_cfa_offset 32
 628 0004 00AF     		add	r7, sp, #0
 629              		.cfi_def_cfa_register 7
 630 0006 3A60     		str	r2, [r7]
 631 0008 FB1D     		adds	r3, r7, #7
 632 000a 021C     		adds	r2, r0, #0
 633 000c 1A70     		strb	r2, [r3]
 634 000e BB1D     		adds	r3, r7, #6
 635 0010 0A1C     		adds	r2, r1, #0
 636 0012 1A70     		strb	r2, [r3]
 205:tof_coms.c    ****     int32_t status = STATUS_OK;
 637              		.loc 1 205 0
 638 0014 0023     		movs	r3, #0
 639 0016 FB60     		str	r3, [r7, #12]
 206:tof_coms.c    ****     int32_t cbyte_count = 1;
 640              		.loc 1 206 0
 641 0018 0123     		movs	r3, #1
ARM GAS  C:\Users\ilya\AppData\Local\Temp\ccGij5YZ.s 			page 16


 642 001a BB60     		str	r3, [r7, #8]
 207:tof_coms.c    **** 
 208:tof_coms.c    ****     status = VL53L0X_read_multi(address, index, pdata, cbyte_count);
 643              		.loc 1 208 0
 644 001c BC68     		ldr	r4, [r7, #8]
 645 001e 3A68     		ldr	r2, [r7]
 646 0020 BB1D     		adds	r3, r7, #6
 647 0022 1978     		ldrb	r1, [r3]
 648 0024 FB1D     		adds	r3, r7, #7
 649 0026 1878     		ldrb	r0, [r3]
 650 0028 2300     		movs	r3, r4
 651 002a FFF7FEFF 		bl	VL53L0X_read_multi
 652 002e 0300     		movs	r3, r0
 653 0030 FB60     		str	r3, [r7, #12]
 209:tof_coms.c    **** 
 210:tof_coms.c    **** #ifdef VL53L0X_LOG_ENABLE
 211:tof_coms.c    ****     trace_print(TRACE_LEVEL_INFO,"Read reg : 0x%02X, Val : 0x%02X\n", index, *pdata);
 212:tof_coms.c    **** #endif
 213:tof_coms.c    **** 
 214:tof_coms.c    ****     return status;
 654              		.loc 1 214 0
 655 0032 FB68     		ldr	r3, [r7, #12]
 215:tof_coms.c    **** 
 216:tof_coms.c    **** }
 656              		.loc 1 216 0
 657 0034 1800     		movs	r0, r3
 658 0036 BD46     		mov	sp, r7
 659 0038 05B0     		add	sp, sp, #20
 660              		@ sp needed
 661 003a 90BD     		pop	{r4, r7, pc}
 662              		.cfi_endproc
 663              	.LFE44:
 664              		.size	VL53L0X_read_byte, .-VL53L0X_read_byte
 665              		.section	.text.VL53L0X_read_word,"ax",%progbits
 666              		.align	2
 667              		.global	VL53L0X_read_word
 668              		.code	16
 669              		.thumb_func
 670              		.type	VL53L0X_read_word, %function
 671              	VL53L0X_read_word:
 672              	.LFB45:
 217:tof_coms.c    **** 
 218:tof_coms.c    **** 
 219:tof_coms.c    **** int32_t VL53L0X_read_word(uint8_t address, uint8_t index, uint16_t *pdata)
 220:tof_coms.c    **** {
 673              		.loc 1 220 0
 674              		.cfi_startproc
 675              		@ args = 0, pretend = 0, frame = 16
 676              		@ frame_needed = 1, uses_anonymous_args = 0
 677 0000 80B5     		push	{r7, lr}
 678              		.cfi_def_cfa_offset 8
 679              		.cfi_offset 7, -8
 680              		.cfi_offset 14, -4
 681 0002 84B0     		sub	sp, sp, #16
 682              		.cfi_def_cfa_offset 24
 683 0004 00AF     		add	r7, sp, #0
 684              		.cfi_def_cfa_register 7
ARM GAS  C:\Users\ilya\AppData\Local\Temp\ccGij5YZ.s 			page 17


 685 0006 3A60     		str	r2, [r7]
 686 0008 FB1D     		adds	r3, r7, #7
 687 000a 021C     		adds	r2, r0, #0
 688 000c 1A70     		strb	r2, [r3]
 689 000e BB1D     		adds	r3, r7, #6
 690 0010 0A1C     		adds	r2, r1, #0
 691 0012 1A70     		strb	r2, [r3]
 221:tof_coms.c    ****     int32_t  status = STATUS_OK;
 692              		.loc 1 221 0
 693 0014 0023     		movs	r3, #0
 694 0016 FB60     		str	r3, [r7, #12]
 222:tof_coms.c    **** 	uint8_t  buffer[BYTES_PER_WORD];
 223:tof_coms.c    **** 
 224:tof_coms.c    ****     status = VL53L0X_read_multi(address, index, buffer, BYTES_PER_WORD);
 695              		.loc 1 224 0
 696 0018 0823     		movs	r3, #8
 697 001a FA18     		adds	r2, r7, r3
 698 001c BB1D     		adds	r3, r7, #6
 699 001e 1978     		ldrb	r1, [r3]
 700 0020 FB1D     		adds	r3, r7, #7
 701 0022 1878     		ldrb	r0, [r3]
 702 0024 0223     		movs	r3, #2
 703 0026 FFF7FEFF 		bl	VL53L0X_read_multi
 704 002a 0300     		movs	r3, r0
 705 002c FB60     		str	r3, [r7, #12]
 225:tof_coms.c    **** 	*pdata = ((uint16_t)buffer[0]<<8) + (uint16_t)buffer[1];
 706              		.loc 1 225 0
 707 002e 0823     		movs	r3, #8
 708 0030 FB18     		adds	r3, r7, r3
 709 0032 1B78     		ldrb	r3, [r3]
 710 0034 9BB2     		uxth	r3, r3
 711 0036 1B02     		lsls	r3, r3, #8
 712 0038 9AB2     		uxth	r2, r3
 713 003a 0823     		movs	r3, #8
 714 003c FB18     		adds	r3, r7, r3
 715 003e 5B78     		ldrb	r3, [r3, #1]
 716 0040 9BB2     		uxth	r3, r3
 717 0042 D318     		adds	r3, r2, r3
 718 0044 9AB2     		uxth	r2, r3
 719 0046 3B68     		ldr	r3, [r7]
 720 0048 1A80     		strh	r2, [r3]
 226:tof_coms.c    **** 
 227:tof_coms.c    ****     return status;
 721              		.loc 1 227 0
 722 004a FB68     		ldr	r3, [r7, #12]
 228:tof_coms.c    **** 
 229:tof_coms.c    **** }
 723              		.loc 1 229 0
 724 004c 1800     		movs	r0, r3
 725 004e BD46     		mov	sp, r7
 726 0050 04B0     		add	sp, sp, #16
 727              		@ sp needed
 728 0052 80BD     		pop	{r7, pc}
 729              		.cfi_endproc
 730              	.LFE45:
 731              		.size	VL53L0X_read_word, .-VL53L0X_read_word
 732              		.section	.text.VL53L0X_read_dword,"ax",%progbits
ARM GAS  C:\Users\ilya\AppData\Local\Temp\ccGij5YZ.s 			page 18


 733              		.align	2
 734              		.global	VL53L0X_read_dword
 735              		.code	16
 736              		.thumb_func
 737              		.type	VL53L0X_read_dword, %function
 738              	VL53L0X_read_dword:
 739              	.LFB46:
 230:tof_coms.c    **** 
 231:tof_coms.c    **** int32_t VL53L0X_read_dword(uint8_t address, uint8_t index, uint32_t *pdata)
 232:tof_coms.c    **** {
 740              		.loc 1 232 0
 741              		.cfi_startproc
 742              		@ args = 0, pretend = 0, frame = 16
 743              		@ frame_needed = 1, uses_anonymous_args = 0
 744 0000 80B5     		push	{r7, lr}
 745              		.cfi_def_cfa_offset 8
 746              		.cfi_offset 7, -8
 747              		.cfi_offset 14, -4
 748 0002 84B0     		sub	sp, sp, #16
 749              		.cfi_def_cfa_offset 24
 750 0004 00AF     		add	r7, sp, #0
 751              		.cfi_def_cfa_register 7
 752 0006 3A60     		str	r2, [r7]
 753 0008 FB1D     		adds	r3, r7, #7
 754 000a 021C     		adds	r2, r0, #0
 755 000c 1A70     		strb	r2, [r3]
 756 000e BB1D     		adds	r3, r7, #6
 757 0010 0A1C     		adds	r2, r1, #0
 758 0012 1A70     		strb	r2, [r3]
 233:tof_coms.c    ****     int32_t status = STATUS_OK;
 759              		.loc 1 233 0
 760 0014 0023     		movs	r3, #0
 761 0016 FB60     		str	r3, [r7, #12]
 234:tof_coms.c    **** 	uint8_t  buffer[BYTES_PER_DWORD];
 235:tof_coms.c    **** 
 236:tof_coms.c    ****     status = VL53L0X_read_multi(address, index, buffer, BYTES_PER_DWORD);
 762              		.loc 1 236 0
 763 0018 0823     		movs	r3, #8
 764 001a FA18     		adds	r2, r7, r3
 765 001c BB1D     		adds	r3, r7, #6
 766 001e 1978     		ldrb	r1, [r3]
 767 0020 FB1D     		adds	r3, r7, #7
 768 0022 1878     		ldrb	r0, [r3]
 769 0024 0423     		movs	r3, #4
 770 0026 FFF7FEFF 		bl	VL53L0X_read_multi
 771 002a 0300     		movs	r3, r0
 772 002c FB60     		str	r3, [r7, #12]
 237:tof_coms.c    ****     *pdata = ((uint32_t)buffer[0]<<24) + ((uint32_t)buffer[1]<<16) + ((uint32_t)buffer[2]<<8) + (ui
 773              		.loc 1 237 0
 774 002e 0823     		movs	r3, #8
 775 0030 FB18     		adds	r3, r7, r3
 776 0032 1B78     		ldrb	r3, [r3]
 777 0034 1A06     		lsls	r2, r3, #24
 778 0036 0823     		movs	r3, #8
 779 0038 FB18     		adds	r3, r7, r3
 780 003a 5B78     		ldrb	r3, [r3, #1]
 781 003c 1B04     		lsls	r3, r3, #16
ARM GAS  C:\Users\ilya\AppData\Local\Temp\ccGij5YZ.s 			page 19


 782 003e D218     		adds	r2, r2, r3
 783 0040 0823     		movs	r3, #8
 784 0042 FB18     		adds	r3, r7, r3
 785 0044 9B78     		ldrb	r3, [r3, #2]
 786 0046 1B02     		lsls	r3, r3, #8
 787 0048 D318     		adds	r3, r2, r3
 788 004a 0822     		movs	r2, #8
 789 004c BA18     		adds	r2, r7, r2
 790 004e D278     		ldrb	r2, [r2, #3]
 791 0050 9A18     		adds	r2, r3, r2
 792 0052 3B68     		ldr	r3, [r7]
 793 0054 1A60     		str	r2, [r3]
 238:tof_coms.c    **** 
 239:tof_coms.c    ****     return status;
 794              		.loc 1 239 0
 795 0056 FB68     		ldr	r3, [r7, #12]
 240:tof_coms.c    **** 
 241:tof_coms.c    **** }
 796              		.loc 1 241 0
 797 0058 1800     		movs	r0, r3
 798 005a BD46     		mov	sp, r7
 799 005c 04B0     		add	sp, sp, #16
 800              		@ sp needed
 801 005e 80BD     		pop	{r7, pc}
 802              		.cfi_endproc
 803              	.LFE46:
 804              		.size	VL53L0X_read_dword, .-VL53L0X_read_dword
 805              		.section	.text.VL53L0X_write_multi16,"ax",%progbits
 806              		.align	2
 807              		.global	VL53L0X_write_multi16
 808              		.code	16
 809              		.thumb_func
 810              		.type	VL53L0X_write_multi16, %function
 811              	VL53L0X_write_multi16:
 812              	.LFB47:
 242:tof_coms.c    **** 
 243:tof_coms.c    **** 
 244:tof_coms.c    **** 
 245:tof_coms.c    **** // 16 bit address functions
 246:tof_coms.c    **** 
 247:tof_coms.c    **** 
 248:tof_coms.c    **** int32_t VL53L0X_write_multi16(uint8_t address, uint16_t index, uint8_t *pdata, int32_t count)
 249:tof_coms.c    **** {
 813              		.loc 1 249 0
 814              		.cfi_startproc
 815              		@ args = 0, pretend = 0, frame = 32
 816              		@ frame_needed = 1, uses_anonymous_args = 0
 817 0000 80B5     		push	{r7, lr}
 818              		.cfi_def_cfa_offset 8
 819              		.cfi_offset 7, -8
 820              		.cfi_offset 14, -4
 821 0002 88B0     		sub	sp, sp, #32
 822              		.cfi_def_cfa_offset 40
 823 0004 00AF     		add	r7, sp, #0
 824              		.cfi_def_cfa_register 7
 825 0006 BA60     		str	r2, [r7, #8]
 826 0008 7B60     		str	r3, [r7, #4]
ARM GAS  C:\Users\ilya\AppData\Local\Temp\ccGij5YZ.s 			page 20


 827 000a 0F23     		movs	r3, #15
 828 000c FB18     		adds	r3, r7, r3
 829 000e 021C     		adds	r2, r0, #0
 830 0010 1A70     		strb	r2, [r3]
 831 0012 0C23     		movs	r3, #12
 832 0014 FB18     		adds	r3, r7, r3
 833 0016 0A1C     		adds	r2, r1, #0
 834 0018 1A80     		strh	r2, [r3]
 250:tof_coms.c    ****     int32_t status = STATUS_OK;
 835              		.loc 1 250 0
 836 001a 0023     		movs	r3, #0
 837 001c BB61     		str	r3, [r7, #24]
 251:tof_coms.c    ****     unsigned int retries = 3;
 838              		.loc 1 251 0
 839 001e 0323     		movs	r3, #3
 840 0020 7B61     		str	r3, [r7, #20]
 252:tof_coms.c    ****     int c,r;
 253:tof_coms.c    ****     DWORD dwWaitResult;
 254:tof_coms.c    ****       r=I2C_LED_I2CMasterSendStart(address,0);
 841              		.loc 1 254 0
 842 0022 0F23     		movs	r3, #15
 843 0024 FB18     		adds	r3, r7, r3
 844 0026 1B78     		ldrb	r3, [r3]
 845 0028 0021     		movs	r1, #0
 846 002a 1800     		movs	r0, r3
 847 002c FFF7FEFF 		bl	I2C_LED_I2CMasterSendStart
 848 0030 0300     		movs	r3, r0
 849 0032 3B61     		str	r3, [r7, #16]
 255:tof_coms.c    ****     if(r!=0)
 850              		.loc 1 255 0
 851 0034 3B69     		ldr	r3, [r7, #16]
 852 0036 002B     		cmp	r3, #0
 853 0038 01D0     		beq	.L33
 256:tof_coms.c    ****         return 1;
 854              		.loc 1 256 0
 855 003a 0123     		movs	r3, #1
 856 003c 23E0     		b	.L34
 857              	.L33:
 257:tof_coms.c    ****     
 258:tof_coms.c    ****     I2C_LED_I2CMasterWriteByte(index>>8);
 858              		.loc 1 258 0
 859 003e 0C23     		movs	r3, #12
 860 0040 FB18     		adds	r3, r7, r3
 861 0042 1B88     		ldrh	r3, [r3]
 862 0044 1B0A     		lsrs	r3, r3, #8
 863 0046 9BB2     		uxth	r3, r3
 864 0048 1800     		movs	r0, r3
 865 004a FFF7FEFF 		bl	I2C_LED_I2CMasterWriteByte
 259:tof_coms.c    ****     I2C_LED_I2CMasterWriteByte(index&0xff);
 866              		.loc 1 259 0
 867 004e 0C23     		movs	r3, #12
 868 0050 FB18     		adds	r3, r7, r3
 869 0052 1B88     		ldrh	r3, [r3]
 870 0054 FF22     		movs	r2, #255
 871 0056 1340     		ands	r3, r2
 872 0058 1800     		movs	r0, r3
 873 005a FFF7FEFF 		bl	I2C_LED_I2CMasterWriteByte
ARM GAS  C:\Users\ilya\AppData\Local\Temp\ccGij5YZ.s 			page 21


 260:tof_coms.c    ****     for (c=0;c<count;c++)
 874              		.loc 1 260 0
 875 005e 0023     		movs	r3, #0
 876 0060 FB61     		str	r3, [r7, #28]
 877 0062 09E0     		b	.L35
 878              	.L36:
 261:tof_coms.c    ****          I2C_LED_I2CMasterWriteByte(*pdata++);
 879              		.loc 1 261 0 discriminator 3
 880 0064 BB68     		ldr	r3, [r7, #8]
 881 0066 5A1C     		adds	r2, r3, #1
 882 0068 BA60     		str	r2, [r7, #8]
 883 006a 1B78     		ldrb	r3, [r3]
 884 006c 1800     		movs	r0, r3
 885 006e FFF7FEFF 		bl	I2C_LED_I2CMasterWriteByte
 260:tof_coms.c    ****     for (c=0;c<count;c++)
 886              		.loc 1 260 0 discriminator 3
 887 0072 FB69     		ldr	r3, [r7, #28]
 888 0074 0133     		adds	r3, r3, #1
 889 0076 FB61     		str	r3, [r7, #28]
 890              	.L35:
 260:tof_coms.c    ****     for (c=0;c<count;c++)
 891              		.loc 1 260 0 is_stmt 0 discriminator 1
 892 0078 FA69     		ldr	r2, [r7, #28]
 893 007a 7B68     		ldr	r3, [r7, #4]
 894 007c 9A42     		cmp	r2, r3
 895 007e F1DB     		blt	.L36
 262:tof_coms.c    ****     
 263:tof_coms.c    ****     I2C_LED_I2CMasterSendStop();
 896              		.loc 1 263 0 is_stmt 1
 897 0080 FFF7FEFF 		bl	I2C_LED_I2CMasterSendStop
 264:tof_coms.c    **** /*
 265:tof_coms.c    ****     I2C_start(TOF_BASE,address,0);
 266:tof_coms.c    ****     I2C_write(TOF_BASE,index>>8,0);
 267:tof_coms.c    ****     I2C_write(TOF_BASE,index,0);
 268:tof_coms.c    **** 
 269:tof_coms.c    ****        for (c=0;c<count;c++)
 270:tof_coms.c    ****    	I2C_write(TOF_BASE,*pdata++,c==count-1?1:0);
 271:tof_coms.c    **** */
 272:tof_coms.c    ****     return STATUS_OK;
 898              		.loc 1 272 0
 899 0084 0023     		movs	r3, #0
 900              	.L34:
 273:tof_coms.c    **** }
 901              		.loc 1 273 0
 902 0086 1800     		movs	r0, r3
 903 0088 BD46     		mov	sp, r7
 904 008a 08B0     		add	sp, sp, #32
 905              		@ sp needed
 906 008c 80BD     		pop	{r7, pc}
 907              		.cfi_endproc
 908              	.LFE47:
 909              		.size	VL53L0X_write_multi16, .-VL53L0X_write_multi16
 910 008e C046     		.section	.text.VL53L0X_read_multi16,"ax",%progbits
 911              		.align	2
 912              		.global	VL53L0X_read_multi16
 913              		.code	16
 914              		.thumb_func
ARM GAS  C:\Users\ilya\AppData\Local\Temp\ccGij5YZ.s 			page 22


 915              		.type	VL53L0X_read_multi16, %function
 916              	VL53L0X_read_multi16:
 917              	.LFB48:
 274:tof_coms.c    **** 
 275:tof_coms.c    **** int32_t VL53L0X_read_multi16(uint8_t address, uint16_t index, uint8_t *pdata, int32_t count)
 276:tof_coms.c    **** {
 918              		.loc 1 276 0
 919              		.cfi_startproc
 920              		@ args = 0, pretend = 0, frame = 32
 921              		@ frame_needed = 1, uses_anonymous_args = 0
 922 0000 90B5     		push	{r4, r7, lr}
 923              		.cfi_def_cfa_offset 12
 924              		.cfi_offset 4, -12
 925              		.cfi_offset 7, -8
 926              		.cfi_offset 14, -4
 927 0002 89B0     		sub	sp, sp, #36
 928              		.cfi_def_cfa_offset 48
 929 0004 00AF     		add	r7, sp, #0
 930              		.cfi_def_cfa_register 7
 931 0006 BA60     		str	r2, [r7, #8]
 932 0008 7B60     		str	r3, [r7, #4]
 933 000a 0F23     		movs	r3, #15
 934 000c FB18     		adds	r3, r7, r3
 935 000e 021C     		adds	r2, r0, #0
 936 0010 1A70     		strb	r2, [r3]
 937 0012 0C23     		movs	r3, #12
 938 0014 FB18     		adds	r3, r7, r3
 939 0016 0A1C     		adds	r2, r1, #0
 940 0018 1A80     		strh	r2, [r3]
 277:tof_coms.c    ****     int32_t status = STATUS_OK;
 941              		.loc 1 277 0
 942 001a 0023     		movs	r3, #0
 943 001c BB61     		str	r3, [r7, #24]
 278:tof_coms.c    ****     unsigned int retries = 3;
 944              		.loc 1 278 0
 945 001e 0323     		movs	r3, #3
 946 0020 7B61     		str	r3, [r7, #20]
 279:tof_coms.c    ****     int c,r;
 280:tof_coms.c    ****     DWORD dwWaitResult;
 281:tof_coms.c    ****         r=I2C_LED_I2CMasterSendStart(address,0);
 947              		.loc 1 281 0
 948 0022 0F23     		movs	r3, #15
 949 0024 FB18     		adds	r3, r7, r3
 950 0026 1B78     		ldrb	r3, [r3]
 951 0028 0021     		movs	r1, #0
 952 002a 1800     		movs	r0, r3
 953 002c FFF7FEFF 		bl	I2C_LED_I2CMasterSendStart
 954 0030 0300     		movs	r3, r0
 955 0032 3B61     		str	r3, [r7, #16]
 282:tof_coms.c    ****     if(r!=0)
 956              		.loc 1 282 0
 957 0034 3B69     		ldr	r3, [r7, #16]
 958 0036 002B     		cmp	r3, #0
 959 0038 01D0     		beq	.L38
 283:tof_coms.c    ****         return 1;
 960              		.loc 1 283 0
 961 003a 0123     		movs	r3, #1
ARM GAS  C:\Users\ilya\AppData\Local\Temp\ccGij5YZ.s 			page 23


 962 003c 2CE0     		b	.L39
 963              	.L38:
 284:tof_coms.c    ****     
 285:tof_coms.c    ****     I2C_LED_I2CMasterWriteByte(index>>8);
 964              		.loc 1 285 0
 965 003e 0C23     		movs	r3, #12
 966 0040 FB18     		adds	r3, r7, r3
 967 0042 1B88     		ldrh	r3, [r3]
 968 0044 1B0A     		lsrs	r3, r3, #8
 969 0046 9BB2     		uxth	r3, r3
 970 0048 1800     		movs	r0, r3
 971 004a FFF7FEFF 		bl	I2C_LED_I2CMasterWriteByte
 286:tof_coms.c    ****         I2C_LED_I2CMasterWriteByte(index&0xff);
 972              		.loc 1 286 0
 973 004e 0C23     		movs	r3, #12
 974 0050 FB18     		adds	r3, r7, r3
 975 0052 1B88     		ldrh	r3, [r3]
 976 0054 FF22     		movs	r2, #255
 977 0056 1340     		ands	r3, r2
 978 0058 1800     		movs	r0, r3
 979 005a FFF7FEFF 		bl	I2C_LED_I2CMasterWriteByte
 287:tof_coms.c    ****     I2C_LED_I2CMasterSendRestart(address,1);
 980              		.loc 1 287 0
 981 005e 0F23     		movs	r3, #15
 982 0060 FB18     		adds	r3, r7, r3
 983 0062 1B78     		ldrb	r3, [r3]
 984 0064 0121     		movs	r1, #1
 985 0066 1800     		movs	r0, r3
 986 0068 FFF7FEFF 		bl	I2C_LED_I2CMasterSendRestart
 288:tof_coms.c    ****     for (c=0;c<count;c++)
 987              		.loc 1 288 0
 988 006c 0023     		movs	r3, #0
 989 006e FB61     		str	r3, [r7, #28]
 990 0070 0BE0     		b	.L40
 991              	.L41:
 289:tof_coms.c    ****           *pdata++=I2C_LED_I2CMasterReadByte( I2C_LED_I2C_ACK_DATA);
 992              		.loc 1 289 0 discriminator 3
 993 0072 BC68     		ldr	r4, [r7, #8]
 994 0074 631C     		adds	r3, r4, #1
 995 0076 BB60     		str	r3, [r7, #8]
 996 0078 0020     		movs	r0, #0
 997 007a FFF7FEFF 		bl	I2C_LED_I2CMasterReadByte
 998 007e 0300     		movs	r3, r0
 999 0080 DBB2     		uxtb	r3, r3
 1000 0082 2370     		strb	r3, [r4]
 288:tof_coms.c    ****     for (c=0;c<count;c++)
 1001              		.loc 1 288 0 discriminator 3
 1002 0084 FB69     		ldr	r3, [r7, #28]
 1003 0086 0133     		adds	r3, r3, #1
 1004 0088 FB61     		str	r3, [r7, #28]
 1005              	.L40:
 288:tof_coms.c    ****     for (c=0;c<count;c++)
 1006              		.loc 1 288 0 is_stmt 0 discriminator 1
 1007 008a FA69     		ldr	r2, [r7, #28]
 1008 008c 7B68     		ldr	r3, [r7, #4]
 1009 008e 9A42     		cmp	r2, r3
 1010 0090 EFDB     		blt	.L41
ARM GAS  C:\Users\ilya\AppData\Local\Temp\ccGij5YZ.s 			page 24


 290:tof_coms.c    ****     
 291:tof_coms.c    ****     I2C_LED_I2CMasterSendStop();
 1011              		.loc 1 291 0 is_stmt 1
 1012 0092 FFF7FEFF 		bl	I2C_LED_I2CMasterSendStop
 292:tof_coms.c    **** /*
 293:tof_coms.c    ****     I2C_start(TOF_BASE,address,0);
 294:tof_coms.c    ****     	I2C_write(TOF_BASE,index>>8,0);  // upper 16 bits
 295:tof_coms.c    ****     	I2C_write(TOF_BASE,index&0xff,0);  // upper 16 bits
 296:tof_coms.c    ****     	I2C_start(TOF_BASE,address,1);
 297:tof_coms.c    ****     	 for (c=0;c<count;c++)
 298:tof_coms.c    ****     	     *pdata++=I2C_read(TOF_BASE,c==count-1?1:0);
 299:tof_coms.c    ****         return STATUS_OK;
 300:tof_coms.c    ****     */
 301:tof_coms.c    ****     return STATUS_OK;
 1013              		.loc 1 301 0
 1014 0096 0023     		movs	r3, #0
 1015              	.L39:
 302:tof_coms.c    **** 
 303:tof_coms.c    **** 
 304:tof_coms.c    **** }
 1016              		.loc 1 304 0
 1017 0098 1800     		movs	r0, r3
 1018 009a BD46     		mov	sp, r7
 1019 009c 09B0     		add	sp, sp, #36
 1020              		@ sp needed
 1021 009e 90BD     		pop	{r4, r7, pc}
 1022              		.cfi_endproc
 1023              	.LFE48:
 1024              		.size	VL53L0X_read_multi16, .-VL53L0X_read_multi16
 1025              		.section	.text.VL53L0X_write_byte16,"ax",%progbits
 1026              		.align	2
 1027              		.global	VL53L0X_write_byte16
 1028              		.code	16
 1029              		.thumb_func
 1030              		.type	VL53L0X_write_byte16, %function
 1031              	VL53L0X_write_byte16:
 1032              	.LFB49:
 305:tof_coms.c    **** 
 306:tof_coms.c    **** 
 307:tof_coms.c    **** 
 308:tof_coms.c    **** int32_t VL53L0X_write_byte16(uint8_t address, uint16_t index, uint8_t data)
 309:tof_coms.c    **** {
 1033              		.loc 1 309 0
 1034              		.cfi_startproc
 1035              		@ args = 0, pretend = 0, frame = 16
 1036              		@ frame_needed = 1, uses_anonymous_args = 0
 1037 0000 90B5     		push	{r4, r7, lr}
 1038              		.cfi_def_cfa_offset 12
 1039              		.cfi_offset 4, -12
 1040              		.cfi_offset 7, -8
 1041              		.cfi_offset 14, -4
 1042 0002 85B0     		sub	sp, sp, #20
 1043              		.cfi_def_cfa_offset 32
 1044 0004 00AF     		add	r7, sp, #0
 1045              		.cfi_def_cfa_register 7
 1046 0006 0400     		movs	r4, r0
 1047 0008 0800     		movs	r0, r1
ARM GAS  C:\Users\ilya\AppData\Local\Temp\ccGij5YZ.s 			page 25


 1048 000a 1100     		movs	r1, r2
 1049 000c FB1D     		adds	r3, r7, #7
 1050 000e 221C     		adds	r2, r4, #0
 1051 0010 1A70     		strb	r2, [r3]
 1052 0012 3B1D     		adds	r3, r7, #4
 1053 0014 021C     		adds	r2, r0, #0
 1054 0016 1A80     		strh	r2, [r3]
 1055 0018 BB1D     		adds	r3, r7, #6
 1056 001a 0A1C     		adds	r2, r1, #0
 1057 001c 1A70     		strb	r2, [r3]
 310:tof_coms.c    ****     int32_t status = STATUS_OK;
 1058              		.loc 1 310 0
 1059 001e 0023     		movs	r3, #0
 1060 0020 FB60     		str	r3, [r7, #12]
 311:tof_coms.c    ****     const int32_t cbyte_count = 1;
 1061              		.loc 1 311 0
 1062 0022 0123     		movs	r3, #1
 1063 0024 BB60     		str	r3, [r7, #8]
 312:tof_coms.c    **** 
 313:tof_coms.c    **** #ifdef VL53L0X_LOG_ENABLE
 314:tof_coms.c    ****     trace_print(TRACE_LEVEL_INFO,"Write reg : 0x%02X, Val : 0x%02X\n", index, data);
 315:tof_coms.c    **** #endif
 316:tof_coms.c    **** 
 317:tof_coms.c    ****     status = VL53L0X_write_multi16(address, index, &data, cbyte_count);
 1064              		.loc 1 317 0
 1065 0026 BC68     		ldr	r4, [r7, #8]
 1066 0028 BA1D     		adds	r2, r7, #6
 1067 002a 3B1D     		adds	r3, r7, #4
 1068 002c 1988     		ldrh	r1, [r3]
 1069 002e FB1D     		adds	r3, r7, #7
 1070 0030 1878     		ldrb	r0, [r3]
 1071 0032 2300     		movs	r3, r4
 1072 0034 FFF7FEFF 		bl	VL53L0X_write_multi16
 1073 0038 0300     		movs	r3, r0
 1074 003a FB60     		str	r3, [r7, #12]
 318:tof_coms.c    **** 
 319:tof_coms.c    ****     return status;
 1075              		.loc 1 319 0
 1076 003c FB68     		ldr	r3, [r7, #12]
 320:tof_coms.c    **** 
 321:tof_coms.c    **** }
 1077              		.loc 1 321 0
 1078 003e 1800     		movs	r0, r3
 1079 0040 BD46     		mov	sp, r7
 1080 0042 05B0     		add	sp, sp, #20
 1081              		@ sp needed
 1082 0044 90BD     		pop	{r4, r7, pc}
 1083              		.cfi_endproc
 1084              	.LFE49:
 1085              		.size	VL53L0X_write_byte16, .-VL53L0X_write_byte16
 1086 0046 C046     		.section	.text.VL53L0X_write_word16,"ax",%progbits
 1087              		.align	2
 1088              		.global	VL53L0X_write_word16
 1089              		.code	16
 1090              		.thumb_func
 1091              		.type	VL53L0X_write_word16, %function
 1092              	VL53L0X_write_word16:
ARM GAS  C:\Users\ilya\AppData\Local\Temp\ccGij5YZ.s 			page 26


 1093              	.LFB50:
 322:tof_coms.c    **** 
 323:tof_coms.c    **** 
 324:tof_coms.c    **** int32_t VL53L0X_write_word16(uint8_t address, uint16_t index, uint16_t data)
 325:tof_coms.c    **** {
 1094              		.loc 1 325 0
 1095              		.cfi_startproc
 1096              		@ args = 0, pretend = 0, frame = 16
 1097              		@ frame_needed = 1, uses_anonymous_args = 0
 1098 0000 90B5     		push	{r4, r7, lr}
 1099              		.cfi_def_cfa_offset 12
 1100              		.cfi_offset 4, -12
 1101              		.cfi_offset 7, -8
 1102              		.cfi_offset 14, -4
 1103 0002 85B0     		sub	sp, sp, #20
 1104              		.cfi_def_cfa_offset 32
 1105 0004 00AF     		add	r7, sp, #0
 1106              		.cfi_def_cfa_register 7
 1107 0006 0400     		movs	r4, r0
 1108 0008 0800     		movs	r0, r1
 1109 000a 1100     		movs	r1, r2
 1110 000c FB1D     		adds	r3, r7, #7
 1111 000e 221C     		adds	r2, r4, #0
 1112 0010 1A70     		strb	r2, [r3]
 1113 0012 3B1D     		adds	r3, r7, #4
 1114 0014 021C     		adds	r2, r0, #0
 1115 0016 1A80     		strh	r2, [r3]
 1116 0018 BB1C     		adds	r3, r7, #2
 1117 001a 0A1C     		adds	r2, r1, #0
 1118 001c 1A80     		strh	r2, [r3]
 326:tof_coms.c    ****     int32_t status = STATUS_OK;
 1119              		.loc 1 326 0
 1120 001e 0023     		movs	r3, #0
 1121 0020 FB60     		str	r3, [r7, #12]
 327:tof_coms.c    **** 
 328:tof_coms.c    ****     uint8_t  buffer[BYTES_PER_WORD];
 329:tof_coms.c    **** 
 330:tof_coms.c    ****     // Split 16-bit word into MS and LS uint8_t
 331:tof_coms.c    ****     buffer[0] = (uint8_t)(data >> 8);
 1122              		.loc 1 331 0
 1123 0022 BB1C     		adds	r3, r7, #2
 1124 0024 1B88     		ldrh	r3, [r3]
 1125 0026 1B0A     		lsrs	r3, r3, #8
 1126 0028 9BB2     		uxth	r3, r3
 1127 002a DAB2     		uxtb	r2, r3
 1128 002c 0823     		movs	r3, #8
 1129 002e FB18     		adds	r3, r7, r3
 1130 0030 1A70     		strb	r2, [r3]
 332:tof_coms.c    ****     buffer[1] = (uint8_t)(data &  0x00FF);
 1131              		.loc 1 332 0
 1132 0032 BB1C     		adds	r3, r7, #2
 1133 0034 1B88     		ldrh	r3, [r3]
 1134 0036 DAB2     		uxtb	r2, r3
 1135 0038 0823     		movs	r3, #8
 1136 003a FB18     		adds	r3, r7, r3
 1137 003c 5A70     		strb	r2, [r3, #1]
 333:tof_coms.c    **** 
ARM GAS  C:\Users\ilya\AppData\Local\Temp\ccGij5YZ.s 			page 27


 334:tof_coms.c    ****     if(index%2 == 1)
 1138              		.loc 1 334 0
 1139 003e 3B1D     		adds	r3, r7, #4
 1140 0040 1B88     		ldrh	r3, [r3]
 1141 0042 0122     		movs	r2, #1
 1142 0044 1340     		ands	r3, r2
 1143 0046 9BB2     		uxth	r3, r3
 1144 0048 002B     		cmp	r3, #0
 1145 004a 19D0     		beq	.L45
 335:tof_coms.c    ****     {
 336:tof_coms.c    ****         status = VL53L0X_write_multi16(address, index, &buffer[0], 1);
 1146              		.loc 1 336 0
 1147 004c 0823     		movs	r3, #8
 1148 004e FA18     		adds	r2, r7, r3
 1149 0050 3B1D     		adds	r3, r7, #4
 1150 0052 1988     		ldrh	r1, [r3]
 1151 0054 FB1D     		adds	r3, r7, #7
 1152 0056 1878     		ldrb	r0, [r3]
 1153 0058 0123     		movs	r3, #1
 1154 005a FFF7FEFF 		bl	VL53L0X_write_multi16
 1155 005e 0300     		movs	r3, r0
 1156 0060 FB60     		str	r3, [r7, #12]
 337:tof_coms.c    ****         status = VL53L0X_write_multi16(address, index + 1, &buffer[1], 1);
 1157              		.loc 1 337 0
 1158 0062 3B1D     		adds	r3, r7, #4
 1159 0064 1B88     		ldrh	r3, [r3]
 1160 0066 0133     		adds	r3, r3, #1
 1161 0068 99B2     		uxth	r1, r3
 1162 006a 0823     		movs	r3, #8
 1163 006c FB18     		adds	r3, r7, r3
 1164 006e 5A1C     		adds	r2, r3, #1
 1165 0070 FB1D     		adds	r3, r7, #7
 1166 0072 1878     		ldrb	r0, [r3]
 1167 0074 0123     		movs	r3, #1
 1168 0076 FFF7FEFF 		bl	VL53L0X_write_multi16
 1169 007a 0300     		movs	r3, r0
 1170 007c FB60     		str	r3, [r7, #12]
 1171 007e 0AE0     		b	.L46
 1172              	.L45:
 338:tof_coms.c    ****         // serial comms cannot handle word writes to non 2-byte aligned registers.
 339:tof_coms.c    ****     }
 340:tof_coms.c    ****     else
 341:tof_coms.c    ****     {
 342:tof_coms.c    ****         status = VL53L0X_write_multi16(address, index, buffer, BYTES_PER_WORD);
 1173              		.loc 1 342 0
 1174 0080 0823     		movs	r3, #8
 1175 0082 FA18     		adds	r2, r7, r3
 1176 0084 3B1D     		adds	r3, r7, #4
 1177 0086 1988     		ldrh	r1, [r3]
 1178 0088 FB1D     		adds	r3, r7, #7
 1179 008a 1878     		ldrb	r0, [r3]
 1180 008c 0223     		movs	r3, #2
 1181 008e FFF7FEFF 		bl	VL53L0X_write_multi16
 1182 0092 0300     		movs	r3, r0
 1183 0094 FB60     		str	r3, [r7, #12]
 1184              	.L46:
 343:tof_coms.c    ****     }
ARM GAS  C:\Users\ilya\AppData\Local\Temp\ccGij5YZ.s 			page 28


 344:tof_coms.c    **** 
 345:tof_coms.c    ****     return status;
 1185              		.loc 1 345 0
 1186 0096 FB68     		ldr	r3, [r7, #12]
 346:tof_coms.c    **** 
 347:tof_coms.c    **** }
 1187              		.loc 1 347 0
 1188 0098 1800     		movs	r0, r3
 1189 009a BD46     		mov	sp, r7
 1190 009c 05B0     		add	sp, sp, #20
 1191              		@ sp needed
 1192 009e 90BD     		pop	{r4, r7, pc}
 1193              		.cfi_endproc
 1194              	.LFE50:
 1195              		.size	VL53L0X_write_word16, .-VL53L0X_write_word16
 1196              		.section	.text.VL53L0X_write_dword16,"ax",%progbits
 1197              		.align	2
 1198              		.global	VL53L0X_write_dword16
 1199              		.code	16
 1200              		.thumb_func
 1201              		.type	VL53L0X_write_dword16, %function
 1202              	VL53L0X_write_dword16:
 1203              	.LFB51:
 348:tof_coms.c    **** 
 349:tof_coms.c    **** 
 350:tof_coms.c    **** int32_t VL53L0X_write_dword16(uint8_t address, uint16_t index, uint32_t data)
 351:tof_coms.c    **** {
 1204              		.loc 1 351 0
 1205              		.cfi_startproc
 1206              		@ args = 0, pretend = 0, frame = 16
 1207              		@ frame_needed = 1, uses_anonymous_args = 0
 1208 0000 80B5     		push	{r7, lr}
 1209              		.cfi_def_cfa_offset 8
 1210              		.cfi_offset 7, -8
 1211              		.cfi_offset 14, -4
 1212 0002 84B0     		sub	sp, sp, #16
 1213              		.cfi_def_cfa_offset 24
 1214 0004 00AF     		add	r7, sp, #0
 1215              		.cfi_def_cfa_register 7
 1216 0006 3A60     		str	r2, [r7]
 1217 0008 FB1D     		adds	r3, r7, #7
 1218 000a 021C     		adds	r2, r0, #0
 1219 000c 1A70     		strb	r2, [r3]
 1220 000e 3B1D     		adds	r3, r7, #4
 1221 0010 0A1C     		adds	r2, r1, #0
 1222 0012 1A80     		strh	r2, [r3]
 352:tof_coms.c    ****     int32_t status = STATUS_OK;
 1223              		.loc 1 352 0
 1224 0014 0023     		movs	r3, #0
 1225 0016 FB60     		str	r3, [r7, #12]
 353:tof_coms.c    ****     uint8_t  buffer[BYTES_PER_DWORD];
 354:tof_coms.c    **** 
 355:tof_coms.c    ****     // Split 32-bit word into MS ... LS bytes
 356:tof_coms.c    ****     buffer[0] = (uint8_t) (data >> 24);
 1226              		.loc 1 356 0
 1227 0018 3B68     		ldr	r3, [r7]
 1228 001a 1B0E     		lsrs	r3, r3, #24
ARM GAS  C:\Users\ilya\AppData\Local\Temp\ccGij5YZ.s 			page 29


 1229 001c DAB2     		uxtb	r2, r3
 1230 001e 0823     		movs	r3, #8
 1231 0020 FB18     		adds	r3, r7, r3
 1232 0022 1A70     		strb	r2, [r3]
 357:tof_coms.c    ****     buffer[1] = (uint8_t)((data &  0x00FF0000) > 16);
 1233              		.loc 1 357 0
 1234 0024 3A68     		ldr	r2, [r7]
 1235 0026 FF23     		movs	r3, #255
 1236 0028 1B04     		lsls	r3, r3, #16
 1237 002a 1340     		ands	r3, r2
 1238 002c 1022     		movs	r2, #16
 1239 002e 9A42     		cmp	r2, r3
 1240 0030 9B41     		sbcs	r3, r3, r3
 1241 0032 5B42     		rsbs	r3, r3, #0
 1242 0034 DBB2     		uxtb	r3, r3
 1243 0036 1A00     		movs	r2, r3
 1244 0038 0823     		movs	r3, #8
 1245 003a FB18     		adds	r3, r7, r3
 1246 003c 5A70     		strb	r2, [r3, #1]
 358:tof_coms.c    ****     buffer[2] = (uint8_t)((data &  0x0000FF00) > 8);
 1247              		.loc 1 358 0
 1248 003e 3A68     		ldr	r2, [r7]
 1249 0040 FF23     		movs	r3, #255
 1250 0042 1B02     		lsls	r3, r3, #8
 1251 0044 1340     		ands	r3, r2
 1252 0046 0822     		movs	r2, #8
 1253 0048 9A42     		cmp	r2, r3
 1254 004a 9B41     		sbcs	r3, r3, r3
 1255 004c 5B42     		rsbs	r3, r3, #0
 1256 004e DBB2     		uxtb	r3, r3
 1257 0050 1A00     		movs	r2, r3
 1258 0052 0823     		movs	r3, #8
 1259 0054 FB18     		adds	r3, r7, r3
 1260 0056 9A70     		strb	r2, [r3, #2]
 359:tof_coms.c    ****     buffer[3] = (uint8_t) (data &  0x000000FF);
 1261              		.loc 1 359 0
 1262 0058 3B68     		ldr	r3, [r7]
 1263 005a DAB2     		uxtb	r2, r3
 1264 005c 0823     		movs	r3, #8
 1265 005e FB18     		adds	r3, r7, r3
 1266 0060 DA70     		strb	r2, [r3, #3]
 360:tof_coms.c    **** 
 361:tof_coms.c    ****     status = VL53L0X_write_multi16(address, index, buffer, BYTES_PER_DWORD);
 1267              		.loc 1 361 0
 1268 0062 0823     		movs	r3, #8
 1269 0064 FA18     		adds	r2, r7, r3
 1270 0066 3B1D     		adds	r3, r7, #4
 1271 0068 1988     		ldrh	r1, [r3]
 1272 006a FB1D     		adds	r3, r7, #7
 1273 006c 1878     		ldrb	r0, [r3]
 1274 006e 0423     		movs	r3, #4
 1275 0070 FFF7FEFF 		bl	VL53L0X_write_multi16
 1276 0074 0300     		movs	r3, r0
 1277 0076 FB60     		str	r3, [r7, #12]
 362:tof_coms.c    **** 
 363:tof_coms.c    ****     return status;
 1278              		.loc 1 363 0
ARM GAS  C:\Users\ilya\AppData\Local\Temp\ccGij5YZ.s 			page 30


 1279 0078 FB68     		ldr	r3, [r7, #12]
 364:tof_coms.c    **** 
 365:tof_coms.c    **** }
 1280              		.loc 1 365 0
 1281 007a 1800     		movs	r0, r3
 1282 007c BD46     		mov	sp, r7
 1283 007e 04B0     		add	sp, sp, #16
 1284              		@ sp needed
 1285 0080 80BD     		pop	{r7, pc}
 1286              		.cfi_endproc
 1287              	.LFE51:
 1288              		.size	VL53L0X_write_dword16, .-VL53L0X_write_dword16
 1289 0082 C046     		.section	.text.VL53L0X_read_byte16,"ax",%progbits
 1290              		.align	2
 1291              		.global	VL53L0X_read_byte16
 1292              		.code	16
 1293              		.thumb_func
 1294              		.type	VL53L0X_read_byte16, %function
 1295              	VL53L0X_read_byte16:
 1296              	.LFB52:
 366:tof_coms.c    **** 
 367:tof_coms.c    **** 
 368:tof_coms.c    **** int32_t VL53L0X_read_byte16(uint8_t address, uint16_t index, uint8_t *pdata)
 369:tof_coms.c    **** {
 1297              		.loc 1 369 0
 1298              		.cfi_startproc
 1299              		@ args = 0, pretend = 0, frame = 16
 1300              		@ frame_needed = 1, uses_anonymous_args = 0
 1301 0000 90B5     		push	{r4, r7, lr}
 1302              		.cfi_def_cfa_offset 12
 1303              		.cfi_offset 4, -12
 1304              		.cfi_offset 7, -8
 1305              		.cfi_offset 14, -4
 1306 0002 85B0     		sub	sp, sp, #20
 1307              		.cfi_def_cfa_offset 32
 1308 0004 00AF     		add	r7, sp, #0
 1309              		.cfi_def_cfa_register 7
 1310 0006 3A60     		str	r2, [r7]
 1311 0008 FB1D     		adds	r3, r7, #7
 1312 000a 021C     		adds	r2, r0, #0
 1313 000c 1A70     		strb	r2, [r3]
 1314 000e 3B1D     		adds	r3, r7, #4
 1315 0010 0A1C     		adds	r2, r1, #0
 1316 0012 1A80     		strh	r2, [r3]
 370:tof_coms.c    ****     int32_t status = STATUS_OK;
 1317              		.loc 1 370 0
 1318 0014 0023     		movs	r3, #0
 1319 0016 FB60     		str	r3, [r7, #12]
 371:tof_coms.c    ****     int32_t cbyte_count = 1;
 1320              		.loc 1 371 0
 1321 0018 0123     		movs	r3, #1
 1322 001a BB60     		str	r3, [r7, #8]
 372:tof_coms.c    **** 
 373:tof_coms.c    ****     status = VL53L0X_read_multi16(address, index, pdata, cbyte_count);
 1323              		.loc 1 373 0
 1324 001c BC68     		ldr	r4, [r7, #8]
 1325 001e 3A68     		ldr	r2, [r7]
ARM GAS  C:\Users\ilya\AppData\Local\Temp\ccGij5YZ.s 			page 31


 1326 0020 3B1D     		adds	r3, r7, #4
 1327 0022 1988     		ldrh	r1, [r3]
 1328 0024 FB1D     		adds	r3, r7, #7
 1329 0026 1878     		ldrb	r0, [r3]
 1330 0028 2300     		movs	r3, r4
 1331 002a FFF7FEFF 		bl	VL53L0X_read_multi16
 1332 002e 0300     		movs	r3, r0
 1333 0030 FB60     		str	r3, [r7, #12]
 374:tof_coms.c    **** 
 375:tof_coms.c    **** #ifdef VL53L0X_LOG_ENABLE
 376:tof_coms.c    ****     trace_print(TRACE_LEVEL_INFO,"Read reg : 0x%02X, Val : 0x%02X\n", index, *pdata);
 377:tof_coms.c    **** #endif
 378:tof_coms.c    **** 
 379:tof_coms.c    ****     return status;
 1334              		.loc 1 379 0
 1335 0032 FB68     		ldr	r3, [r7, #12]
 380:tof_coms.c    **** 
 381:tof_coms.c    **** }
 1336              		.loc 1 381 0
 1337 0034 1800     		movs	r0, r3
 1338 0036 BD46     		mov	sp, r7
 1339 0038 05B0     		add	sp, sp, #20
 1340              		@ sp needed
 1341 003a 90BD     		pop	{r4, r7, pc}
 1342              		.cfi_endproc
 1343              	.LFE52:
 1344              		.size	VL53L0X_read_byte16, .-VL53L0X_read_byte16
 1345              		.section	.text.VL53L0X_read_word16,"ax",%progbits
 1346              		.align	2
 1347              		.global	VL53L0X_read_word16
 1348              		.code	16
 1349              		.thumb_func
 1350              		.type	VL53L0X_read_word16, %function
 1351              	VL53L0X_read_word16:
 1352              	.LFB53:
 382:tof_coms.c    **** 
 383:tof_coms.c    **** 
 384:tof_coms.c    **** int32_t VL53L0X_read_word16(uint8_t address, uint16_t index, uint16_t *pdata)
 385:tof_coms.c    **** {
 1353              		.loc 1 385 0
 1354              		.cfi_startproc
 1355              		@ args = 0, pretend = 0, frame = 16
 1356              		@ frame_needed = 1, uses_anonymous_args = 0
 1357 0000 80B5     		push	{r7, lr}
 1358              		.cfi_def_cfa_offset 8
 1359              		.cfi_offset 7, -8
 1360              		.cfi_offset 14, -4
 1361 0002 84B0     		sub	sp, sp, #16
 1362              		.cfi_def_cfa_offset 24
 1363 0004 00AF     		add	r7, sp, #0
 1364              		.cfi_def_cfa_register 7
 1365 0006 3A60     		str	r2, [r7]
 1366 0008 FB1D     		adds	r3, r7, #7
 1367 000a 021C     		adds	r2, r0, #0
 1368 000c 1A70     		strb	r2, [r3]
 1369 000e 3B1D     		adds	r3, r7, #4
 1370 0010 0A1C     		adds	r2, r1, #0
ARM GAS  C:\Users\ilya\AppData\Local\Temp\ccGij5YZ.s 			page 32


 1371 0012 1A80     		strh	r2, [r3]
 386:tof_coms.c    ****     int32_t  status = STATUS_OK;
 1372              		.loc 1 386 0
 1373 0014 0023     		movs	r3, #0
 1374 0016 FB60     		str	r3, [r7, #12]
 387:tof_coms.c    ****     uint8_t  buffer[BYTES_PER_WORD];
 388:tof_coms.c    **** 
 389:tof_coms.c    ****     status = VL53L0X_read_multi16(address, index, buffer, BYTES_PER_WORD);
 1375              		.loc 1 389 0
 1376 0018 0823     		movs	r3, #8
 1377 001a FA18     		adds	r2, r7, r3
 1378 001c 3B1D     		adds	r3, r7, #4
 1379 001e 1988     		ldrh	r1, [r3]
 1380 0020 FB1D     		adds	r3, r7, #7
 1381 0022 1878     		ldrb	r0, [r3]
 1382 0024 0223     		movs	r3, #2
 1383 0026 FFF7FEFF 		bl	VL53L0X_read_multi16
 1384 002a 0300     		movs	r3, r0
 1385 002c FB60     		str	r3, [r7, #12]
 390:tof_coms.c    ****     *pdata = ((uint16_t)buffer[0]<<8) + (uint16_t)buffer[1];
 1386              		.loc 1 390 0
 1387 002e 0823     		movs	r3, #8
 1388 0030 FB18     		adds	r3, r7, r3
 1389 0032 1B78     		ldrb	r3, [r3]
 1390 0034 9BB2     		uxth	r3, r3
 1391 0036 1B02     		lsls	r3, r3, #8
 1392 0038 9AB2     		uxth	r2, r3
 1393 003a 0823     		movs	r3, #8
 1394 003c FB18     		adds	r3, r7, r3
 1395 003e 5B78     		ldrb	r3, [r3, #1]
 1396 0040 9BB2     		uxth	r3, r3
 1397 0042 D318     		adds	r3, r2, r3
 1398 0044 9AB2     		uxth	r2, r3
 1399 0046 3B68     		ldr	r3, [r7]
 1400 0048 1A80     		strh	r2, [r3]
 391:tof_coms.c    **** 
 392:tof_coms.c    ****     return status;
 1401              		.loc 1 392 0
 1402 004a FB68     		ldr	r3, [r7, #12]
 393:tof_coms.c    **** 
 394:tof_coms.c    **** }
 1403              		.loc 1 394 0
 1404 004c 1800     		movs	r0, r3
 1405 004e BD46     		mov	sp, r7
 1406 0050 04B0     		add	sp, sp, #16
 1407              		@ sp needed
 1408 0052 80BD     		pop	{r7, pc}
 1409              		.cfi_endproc
 1410              	.LFE53:
 1411              		.size	VL53L0X_read_word16, .-VL53L0X_read_word16
 1412              		.section	.text.VL53L0X_read_dword16,"ax",%progbits
 1413              		.align	2
 1414              		.global	VL53L0X_read_dword16
 1415              		.code	16
 1416              		.thumb_func
 1417              		.type	VL53L0X_read_dword16, %function
 1418              	VL53L0X_read_dword16:
ARM GAS  C:\Users\ilya\AppData\Local\Temp\ccGij5YZ.s 			page 33


 1419              	.LFB54:
 395:tof_coms.c    **** 
 396:tof_coms.c    **** int32_t VL53L0X_read_dword16(uint8_t address, uint16_t index, uint32_t *pdata)
 397:tof_coms.c    **** {
 1420              		.loc 1 397 0
 1421              		.cfi_startproc
 1422              		@ args = 0, pretend = 0, frame = 16
 1423              		@ frame_needed = 1, uses_anonymous_args = 0
 1424 0000 80B5     		push	{r7, lr}
 1425              		.cfi_def_cfa_offset 8
 1426              		.cfi_offset 7, -8
 1427              		.cfi_offset 14, -4
 1428 0002 84B0     		sub	sp, sp, #16
 1429              		.cfi_def_cfa_offset 24
 1430 0004 00AF     		add	r7, sp, #0
 1431              		.cfi_def_cfa_register 7
 1432 0006 3A60     		str	r2, [r7]
 1433 0008 FB1D     		adds	r3, r7, #7
 1434 000a 021C     		adds	r2, r0, #0
 1435 000c 1A70     		strb	r2, [r3]
 1436 000e 3B1D     		adds	r3, r7, #4
 1437 0010 0A1C     		adds	r2, r1, #0
 1438 0012 1A80     		strh	r2, [r3]
 398:tof_coms.c    ****     int32_t status = STATUS_OK;
 1439              		.loc 1 398 0
 1440 0014 0023     		movs	r3, #0
 1441 0016 FB60     		str	r3, [r7, #12]
 399:tof_coms.c    ****     uint8_t  buffer[BYTES_PER_DWORD];
 400:tof_coms.c    **** 
 401:tof_coms.c    ****     status = VL53L0X_read_multi16(address, index, buffer, BYTES_PER_DWORD);
 1442              		.loc 1 401 0
 1443 0018 0823     		movs	r3, #8
 1444 001a FA18     		adds	r2, r7, r3
 1445 001c 3B1D     		adds	r3, r7, #4
 1446 001e 1988     		ldrh	r1, [r3]
 1447 0020 FB1D     		adds	r3, r7, #7
 1448 0022 1878     		ldrb	r0, [r3]
 1449 0024 0423     		movs	r3, #4
 1450 0026 FFF7FEFF 		bl	VL53L0X_read_multi16
 1451 002a 0300     		movs	r3, r0
 1452 002c FB60     		str	r3, [r7, #12]
 402:tof_coms.c    ****     *pdata = ((uint32_t)buffer[0]<<24) + ((uint32_t)buffer[1]<<16) + ((uint32_t)buffer[2]<<8) + (ui
 1453              		.loc 1 402 0
 1454 002e 0823     		movs	r3, #8
 1455 0030 FB18     		adds	r3, r7, r3
 1456 0032 1B78     		ldrb	r3, [r3]
 1457 0034 1A06     		lsls	r2, r3, #24
 1458 0036 0823     		movs	r3, #8
 1459 0038 FB18     		adds	r3, r7, r3
 1460 003a 5B78     		ldrb	r3, [r3, #1]
 1461 003c 1B04     		lsls	r3, r3, #16
 1462 003e D218     		adds	r2, r2, r3
 1463 0040 0823     		movs	r3, #8
 1464 0042 FB18     		adds	r3, r7, r3
 1465 0044 9B78     		ldrb	r3, [r3, #2]
 1466 0046 1B02     		lsls	r3, r3, #8
 1467 0048 D318     		adds	r3, r2, r3
ARM GAS  C:\Users\ilya\AppData\Local\Temp\ccGij5YZ.s 			page 34


 1468 004a 0822     		movs	r2, #8
 1469 004c BA18     		adds	r2, r7, r2
 1470 004e D278     		ldrb	r2, [r2, #3]
 1471 0050 9A18     		adds	r2, r3, r2
 1472 0052 3B68     		ldr	r3, [r7]
 1473 0054 1A60     		str	r2, [r3]
 403:tof_coms.c    **** 
 404:tof_coms.c    ****     return status;
 1474              		.loc 1 404 0
 1475 0056 FB68     		ldr	r3, [r7, #12]
 405:tof_coms.c    **** 
 406:tof_coms.c    **** }
 1476              		.loc 1 406 0
 1477 0058 1800     		movs	r0, r3
 1478 005a BD46     		mov	sp, r7
 1479 005c 04B0     		add	sp, sp, #16
 1480              		@ sp needed
 1481 005e 80BD     		pop	{r7, pc}
 1482              		.cfi_endproc
 1483              	.LFE54:
 1484              		.size	VL53L0X_read_dword16, .-VL53L0X_read_dword16
 1485              		.global	__aeabi_i2f
 1486              		.global	__aeabi_fdiv
 1487              		.section	.text.VL53L0X_platform_wait_us,"ax",%progbits
 1488              		.align	2
 1489              		.global	VL53L0X_platform_wait_us
 1490              		.code	16
 1491              		.thumb_func
 1492              		.type	VL53L0X_platform_wait_us, %function
 1493              	VL53L0X_platform_wait_us:
 1494              	.LFB55:
 407:tof_coms.c    **** 
 408:tof_coms.c    **** 
 409:tof_coms.c    **** 
 410:tof_coms.c    **** 
 411:tof_coms.c    **** int32_t VL53L0X_platform_wait_us(int32_t wait_us)
 412:tof_coms.c    **** {
 1495              		.loc 1 412 0
 1496              		.cfi_startproc
 1497              		@ args = 0, pretend = 0, frame = 16
 1498              		@ frame_needed = 1, uses_anonymous_args = 0
 1499 0000 80B5     		push	{r7, lr}
 1500              		.cfi_def_cfa_offset 8
 1501              		.cfi_offset 7, -8
 1502              		.cfi_offset 14, -4
 1503 0002 84B0     		sub	sp, sp, #16
 1504              		.cfi_def_cfa_offset 24
 1505 0004 00AF     		add	r7, sp, #0
 1506              		.cfi_def_cfa_register 7
 1507 0006 7860     		str	r0, [r7, #4]
 413:tof_coms.c    ****     int32_t status = STATUS_OK;
 1508              		.loc 1 413 0
 1509 0008 0023     		movs	r3, #0
 1510 000a FB60     		str	r3, [r7, #12]
 414:tof_coms.c    ****     float wait_ms = (float)wait_us/1000.0f;
 1511              		.loc 1 414 0
 1512 000c 7868     		ldr	r0, [r7, #4]
ARM GAS  C:\Users\ilya\AppData\Local\Temp\ccGij5YZ.s 			page 35


 1513 000e FFF7FEFF 		bl	__aeabi_i2f
 1514 0012 031C     		adds	r3, r0, #0
 1515 0014 0549     		ldr	r1, .L58
 1516 0016 181C     		adds	r0, r3, #0
 1517 0018 FFF7FEFF 		bl	__aeabi_fdiv
 1518 001c 031C     		adds	r3, r0, #0
 1519 001e BB60     		str	r3, [r7, #8]
 415:tof_coms.c    **** 
 416:tof_coms.c    **** 
 417:tof_coms.c    **** 
 418:tof_coms.c    **** #ifdef VL53L0X_LOG_ENABLE
 419:tof_coms.c    ****     trace_i2c("Wait us : %6d\n", wait_us);
 420:tof_coms.c    **** #endif
 421:tof_coms.c    **** 
 422:tof_coms.c    ****     return status;
 1520              		.loc 1 422 0
 1521 0020 FB68     		ldr	r3, [r7, #12]
 423:tof_coms.c    **** 
 424:tof_coms.c    **** }
 1522              		.loc 1 424 0
 1523 0022 1800     		movs	r0, r3
 1524 0024 BD46     		mov	sp, r7
 1525 0026 04B0     		add	sp, sp, #16
 1526              		@ sp needed
 1527 0028 80BD     		pop	{r7, pc}
 1528              	.L59:
 1529 002a C046     		.align	2
 1530              	.L58:
 1531 002c 00007A44 		.word	1148846080
 1532              		.cfi_endproc
 1533              	.LFE55:
 1534              		.size	VL53L0X_platform_wait_us, .-VL53L0X_platform_wait_us
 1535              		.section	.text.VL53L0X_wait_ms,"ax",%progbits
 1536              		.align	2
 1537              		.global	VL53L0X_wait_ms
 1538              		.code	16
 1539              		.thumb_func
 1540              		.type	VL53L0X_wait_ms, %function
 1541              	VL53L0X_wait_ms:
 1542              	.LFB56:
 425:tof_coms.c    **** 
 426:tof_coms.c    **** 
 427:tof_coms.c    **** int32_t VL53L0X_wait_ms(int32_t wait_ms)
 428:tof_coms.c    **** {
 1543              		.loc 1 428 0
 1544              		.cfi_startproc
 1545              		@ args = 0, pretend = 0, frame = 16
 1546              		@ frame_needed = 1, uses_anonymous_args = 0
 1547 0000 80B5     		push	{r7, lr}
 1548              		.cfi_def_cfa_offset 8
 1549              		.cfi_offset 7, -8
 1550              		.cfi_offset 14, -4
 1551 0002 84B0     		sub	sp, sp, #16
 1552              		.cfi_def_cfa_offset 24
 1553 0004 00AF     		add	r7, sp, #0
 1554              		.cfi_def_cfa_register 7
 1555 0006 7860     		str	r0, [r7, #4]
ARM GAS  C:\Users\ilya\AppData\Local\Temp\ccGij5YZ.s 			page 36


 429:tof_coms.c    ****     int32_t status = STATUS_OK;
 1556              		.loc 1 429 0
 1557 0008 0023     		movs	r3, #0
 1558 000a FB60     		str	r3, [r7, #12]
 430:tof_coms.c    **** 
 431:tof_coms.c    **** 
 432:tof_coms.c    **** 
 433:tof_coms.c    **** #ifdef VL53L0X_LOG_ENABLE
 434:tof_coms.c    ****     trace_i2c("Wait ms : %6d\n", wait_ms);
 435:tof_coms.c    **** #endif
 436:tof_coms.c    **** 
 437:tof_coms.c    ****     return status;
 1559              		.loc 1 437 0
 1560 000c FB68     		ldr	r3, [r7, #12]
 438:tof_coms.c    **** 
 439:tof_coms.c    **** }
 1561              		.loc 1 439 0
 1562 000e 1800     		movs	r0, r3
 1563 0010 BD46     		mov	sp, r7
 1564 0012 04B0     		add	sp, sp, #16
 1565              		@ sp needed
 1566 0014 80BD     		pop	{r7, pc}
 1567              		.cfi_endproc
 1568              	.LFE56:
 1569              		.size	VL53L0X_wait_ms, .-VL53L0X_wait_ms
 1570 0016 C046     		.section	.text.VL53L0X_set_gpio,"ax",%progbits
 1571              		.align	2
 1572              		.global	VL53L0X_set_gpio
 1573              		.code	16
 1574              		.thumb_func
 1575              		.type	VL53L0X_set_gpio, %function
 1576              	VL53L0X_set_gpio:
 1577              	.LFB57:
 440:tof_coms.c    **** 
 441:tof_coms.c    **** 
 442:tof_coms.c    **** int32_t VL53L0X_set_gpio(uint8_t level)
 443:tof_coms.c    **** {
 1578              		.loc 1 443 0
 1579              		.cfi_startproc
 1580              		@ args = 0, pretend = 0, frame = 16
 1581              		@ frame_needed = 1, uses_anonymous_args = 0
 1582 0000 80B5     		push	{r7, lr}
 1583              		.cfi_def_cfa_offset 8
 1584              		.cfi_offset 7, -8
 1585              		.cfi_offset 14, -4
 1586 0002 84B0     		sub	sp, sp, #16
 1587              		.cfi_def_cfa_offset 24
 1588 0004 00AF     		add	r7, sp, #0
 1589              		.cfi_def_cfa_register 7
 1590 0006 0200     		movs	r2, r0
 1591 0008 FB1D     		adds	r3, r7, #7
 1592 000a 1A70     		strb	r2, [r3]
 444:tof_coms.c    ****     int32_t status = STATUS_OK;
 1593              		.loc 1 444 0
 1594 000c 0023     		movs	r3, #0
 1595 000e FB60     		str	r3, [r7, #12]
 445:tof_coms.c    ****     //status = VL53L0X_set_gpio_sv(level);
ARM GAS  C:\Users\ilya\AppData\Local\Temp\ccGij5YZ.s 			page 37


 446:tof_coms.c    **** #ifdef VL53L0X_LOG_ENABLE
 447:tof_coms.c    ****     trace_i2c("// Set GPIO = %d;\n", level);
 448:tof_coms.c    **** #endif
 449:tof_coms.c    ****     return status;
 1596              		.loc 1 449 0
 1597 0010 FB68     		ldr	r3, [r7, #12]
 450:tof_coms.c    **** 
 451:tof_coms.c    **** }
 1598              		.loc 1 451 0
 1599 0012 1800     		movs	r0, r3
 1600 0014 BD46     		mov	sp, r7
 1601 0016 04B0     		add	sp, sp, #16
 1602              		@ sp needed
 1603 0018 80BD     		pop	{r7, pc}
 1604              		.cfi_endproc
 1605              	.LFE57:
 1606              		.size	VL53L0X_set_gpio, .-VL53L0X_set_gpio
 1607 001a C046     		.section	.text.VL53L0X_get_gpio,"ax",%progbits
 1608              		.align	2
 1609              		.global	VL53L0X_get_gpio
 1610              		.code	16
 1611              		.thumb_func
 1612              		.type	VL53L0X_get_gpio, %function
 1613              	VL53L0X_get_gpio:
 1614              	.LFB58:
 452:tof_coms.c    **** 
 453:tof_coms.c    **** 
 454:tof_coms.c    **** int32_t VL53L0X_get_gpio(uint8_t *plevel)
 455:tof_coms.c    **** {
 1615              		.loc 1 455 0
 1616              		.cfi_startproc
 1617              		@ args = 0, pretend = 0, frame = 16
 1618              		@ frame_needed = 1, uses_anonymous_args = 0
 1619 0000 80B5     		push	{r7, lr}
 1620              		.cfi_def_cfa_offset 8
 1621              		.cfi_offset 7, -8
 1622              		.cfi_offset 14, -4
 1623 0002 84B0     		sub	sp, sp, #16
 1624              		.cfi_def_cfa_offset 24
 1625 0004 00AF     		add	r7, sp, #0
 1626              		.cfi_def_cfa_register 7
 1627 0006 7860     		str	r0, [r7, #4]
 456:tof_coms.c    ****     int32_t status = STATUS_OK;
 1628              		.loc 1 456 0
 1629 0008 0023     		movs	r3, #0
 1630 000a FB60     		str	r3, [r7, #12]
 457:tof_coms.c    **** #ifdef VL53L0X_LOG_ENABLE
 458:tof_coms.c    ****     trace_i2c("// Get GPIO = %d;\n", *plevel);
 459:tof_coms.c    **** #endif
 460:tof_coms.c    ****     return status;
 1631              		.loc 1 460 0
 1632 000c FB68     		ldr	r3, [r7, #12]
 461:tof_coms.c    **** }
 1633              		.loc 1 461 0
 1634 000e 1800     		movs	r0, r3
 1635 0010 BD46     		mov	sp, r7
 1636 0012 04B0     		add	sp, sp, #16
ARM GAS  C:\Users\ilya\AppData\Local\Temp\ccGij5YZ.s 			page 38


 1637              		@ sp needed
 1638 0014 80BD     		pop	{r7, pc}
 1639              		.cfi_endproc
 1640              	.LFE58:
 1641              		.size	VL53L0X_get_gpio, .-VL53L0X_get_gpio
 1642 0016 C046     		.section	.text.VL53L0X_release_gpio,"ax",%progbits
 1643              		.align	2
 1644              		.global	VL53L0X_release_gpio
 1645              		.code	16
 1646              		.thumb_func
 1647              		.type	VL53L0X_release_gpio, %function
 1648              	VL53L0X_release_gpio:
 1649              	.LFB59:
 462:tof_coms.c    **** 
 463:tof_coms.c    **** 
 464:tof_coms.c    **** int32_t VL53L0X_release_gpio(void)
 465:tof_coms.c    **** {
 1650              		.loc 1 465 0
 1651              		.cfi_startproc
 1652              		@ args = 0, pretend = 0, frame = 8
 1653              		@ frame_needed = 1, uses_anonymous_args = 0
 1654 0000 80B5     		push	{r7, lr}
 1655              		.cfi_def_cfa_offset 8
 1656              		.cfi_offset 7, -8
 1657              		.cfi_offset 14, -4
 1658 0002 82B0     		sub	sp, sp, #8
 1659              		.cfi_def_cfa_offset 16
 1660 0004 00AF     		add	r7, sp, #0
 1661              		.cfi_def_cfa_register 7
 466:tof_coms.c    ****     int32_t status = STATUS_OK;
 1662              		.loc 1 466 0
 1663 0006 0023     		movs	r3, #0
 1664 0008 7B60     		str	r3, [r7, #4]
 467:tof_coms.c    **** #ifdef VL53L0X_LOG_ENABLE
 468:tof_coms.c    ****     trace_i2c("// Releasing force on GPIO\n");
 469:tof_coms.c    **** #endif
 470:tof_coms.c    ****     return status;
 1665              		.loc 1 470 0
 1666 000a 7B68     		ldr	r3, [r7, #4]
 471:tof_coms.c    **** 
 472:tof_coms.c    **** }
 1667              		.loc 1 472 0
 1668 000c 1800     		movs	r0, r3
 1669 000e BD46     		mov	sp, r7
 1670 0010 02B0     		add	sp, sp, #8
 1671              		@ sp needed
 1672 0012 80BD     		pop	{r7, pc}
 1673              		.cfi_endproc
 1674              	.LFE59:
 1675              		.size	VL53L0X_release_gpio, .-VL53L0X_release_gpio
 1676              		.section	.text.VL53L0X_cycle_power,"ax",%progbits
 1677              		.align	2
 1678              		.global	VL53L0X_cycle_power
 1679              		.code	16
 1680              		.thumb_func
 1681              		.type	VL53L0X_cycle_power, %function
 1682              	VL53L0X_cycle_power:
ARM GAS  C:\Users\ilya\AppData\Local\Temp\ccGij5YZ.s 			page 39


 1683              	.LFB60:
 473:tof_coms.c    **** 
 474:tof_coms.c    **** int32_t VL53L0X_cycle_power(void)
 475:tof_coms.c    **** {
 1684              		.loc 1 475 0
 1685              		.cfi_startproc
 1686              		@ args = 0, pretend = 0, frame = 8
 1687              		@ frame_needed = 1, uses_anonymous_args = 0
 1688 0000 80B5     		push	{r7, lr}
 1689              		.cfi_def_cfa_offset 8
 1690              		.cfi_offset 7, -8
 1691              		.cfi_offset 14, -4
 1692 0002 82B0     		sub	sp, sp, #8
 1693              		.cfi_def_cfa_offset 16
 1694 0004 00AF     		add	r7, sp, #0
 1695              		.cfi_def_cfa_register 7
 476:tof_coms.c    ****     int32_t status = STATUS_OK;
 1696              		.loc 1 476 0
 1697 0006 0023     		movs	r3, #0
 1698 0008 7B60     		str	r3, [r7, #4]
 477:tof_coms.c    **** #ifdef VL53L0X_LOG_ENABLE
 478:tof_coms.c    ****     trace_i2c("// cycle sensor power\n");
 479:tof_coms.c    **** #endif
 480:tof_coms.c    **** 	return status;
 1699              		.loc 1 480 0
 1700 000a 7B68     		ldr	r3, [r7, #4]
 481:tof_coms.c    **** }
 1701              		.loc 1 481 0
 1702 000c 1800     		movs	r0, r3
 1703 000e BD46     		mov	sp, r7
 1704 0010 02B0     		add	sp, sp, #8
 1705              		@ sp needed
 1706 0012 80BD     		pop	{r7, pc}
 1707              		.cfi_endproc
 1708              	.LFE60:
 1709              		.size	VL53L0X_cycle_power, .-VL53L0X_cycle_power
 1710              		.section	.text.VL53L0X_get_timer_frequency,"ax",%progbits
 1711              		.align	2
 1712              		.global	VL53L0X_get_timer_frequency
 1713              		.code	16
 1714              		.thumb_func
 1715              		.type	VL53L0X_get_timer_frequency, %function
 1716              	VL53L0X_get_timer_frequency:
 1717              	.LFB61:
 482:tof_coms.c    **** 
 483:tof_coms.c    **** 
 484:tof_coms.c    **** int32_t VL53L0X_get_timer_frequency(int32_t *ptimer_freq_hz)
 485:tof_coms.c    **** {
 1718              		.loc 1 485 0
 1719              		.cfi_startproc
 1720              		@ args = 0, pretend = 0, frame = 8
 1721              		@ frame_needed = 1, uses_anonymous_args = 0
 1722 0000 80B5     		push	{r7, lr}
 1723              		.cfi_def_cfa_offset 8
 1724              		.cfi_offset 7, -8
 1725              		.cfi_offset 14, -4
 1726 0002 82B0     		sub	sp, sp, #8
ARM GAS  C:\Users\ilya\AppData\Local\Temp\ccGij5YZ.s 			page 40


 1727              		.cfi_def_cfa_offset 16
 1728 0004 00AF     		add	r7, sp, #0
 1729              		.cfi_def_cfa_register 7
 1730 0006 7860     		str	r0, [r7, #4]
 486:tof_coms.c    ****        *ptimer_freq_hz = 0;
 1731              		.loc 1 486 0
 1732 0008 7B68     		ldr	r3, [r7, #4]
 1733 000a 0022     		movs	r2, #0
 1734 000c 1A60     		str	r2, [r3]
 487:tof_coms.c    ****        return STATUS_FAIL;
 1735              		.loc 1 487 0
 1736 000e 0123     		movs	r3, #1
 488:tof_coms.c    **** }
 1737              		.loc 1 488 0
 1738 0010 1800     		movs	r0, r3
 1739 0012 BD46     		mov	sp, r7
 1740 0014 02B0     		add	sp, sp, #8
 1741              		@ sp needed
 1742 0016 80BD     		pop	{r7, pc}
 1743              		.cfi_endproc
 1744              	.LFE61:
 1745              		.size	VL53L0X_get_timer_frequency, .-VL53L0X_get_timer_frequency
 1746              		.section	.text.VL53L0X_get_timer_value,"ax",%progbits
 1747              		.align	2
 1748              		.global	VL53L0X_get_timer_value
 1749              		.code	16
 1750              		.thumb_func
 1751              		.type	VL53L0X_get_timer_value, %function
 1752              	VL53L0X_get_timer_value:
 1753              	.LFB62:
 489:tof_coms.c    **** 
 490:tof_coms.c    **** 
 491:tof_coms.c    **** int32_t VL53L0X_get_timer_value(int32_t *ptimer_count)
 492:tof_coms.c    **** {
 1754              		.loc 1 492 0
 1755              		.cfi_startproc
 1756              		@ args = 0, pretend = 0, frame = 8
 1757              		@ frame_needed = 1, uses_anonymous_args = 0
 1758 0000 80B5     		push	{r7, lr}
 1759              		.cfi_def_cfa_offset 8
 1760              		.cfi_offset 7, -8
 1761              		.cfi_offset 14, -4
 1762 0002 82B0     		sub	sp, sp, #8
 1763              		.cfi_def_cfa_offset 16
 1764 0004 00AF     		add	r7, sp, #0
 1765              		.cfi_def_cfa_register 7
 1766 0006 7860     		str	r0, [r7, #4]
 493:tof_coms.c    ****        *ptimer_count = 0;
 1767              		.loc 1 493 0
 1768 0008 7B68     		ldr	r3, [r7, #4]
 1769 000a 0022     		movs	r2, #0
 1770 000c 1A60     		str	r2, [r3]
 494:tof_coms.c    ****        return STATUS_FAIL;
 1771              		.loc 1 494 0
 1772 000e 0123     		movs	r3, #1
 495:tof_coms.c    **** }
 1773              		.loc 1 495 0
ARM GAS  C:\Users\ilya\AppData\Local\Temp\ccGij5YZ.s 			page 41


 1774 0010 1800     		movs	r0, r3
 1775 0012 BD46     		mov	sp, r7
 1776 0014 02B0     		add	sp, sp, #8
 1777              		@ sp needed
 1778 0016 80BD     		pop	{r7, pc}
 1779              		.cfi_endproc
 1780              	.LFE62:
 1781              		.size	VL53L0X_get_timer_value, .-VL53L0X_get_timer_value
 1782              		.section	.rodata
 1783              		.align	2
 1784              	.LC0:
 1785 0000 41504920 		.ascii	"API Status: %i : %s\012\000"
 1785      53746174 
 1785      75733A20 
 1785      2569203A 
 1785      2025730A 
 1786              		.section	.text.print_pal_error,"ax",%progbits
 1787              		.align	2
 1788              		.global	print_pal_error
 1789              		.code	16
 1790              		.thumb_func
 1791              		.type	print_pal_error, %function
 1792              	print_pal_error:
 1793              	.LFB63:
 496:tof_coms.c    **** 
 497:tof_coms.c    **** 
 498:tof_coms.c    **** /*
 499:tof_coms.c    ****  * tof.c
 500:tof_coms.c    ****  *
 501:tof_coms.c    ****  *  Created on: Mar 16, 2018
 502:tof_coms.c    ****  *      Author: PTG
 503:tof_coms.c    ****  */
 504:tof_coms.c    **** #include "vl53l0x_api.h"
 505:tof_coms.c    **** #include "vl53l0x_platform.h"
 506:tof_coms.c    **** //#include "required_version.h"
 507:tof_coms.c    **** //#include "get_nucleo_serial_comm.h"
 508:tof_coms.c    **** //#include <malloc.h>
 509:tof_coms.c    **** 
 510:tof_coms.c    **** 
 511:tof_coms.c    **** void print_pal_error(VL53L0X_Error Status){
 1794              		.loc 1 511 0
 1795              		.cfi_startproc
 1796              		@ args = 0, pretend = 0, frame = 40
 1797              		@ frame_needed = 1, uses_anonymous_args = 0
 1798 0000 80B5     		push	{r7, lr}
 1799              		.cfi_def_cfa_offset 8
 1800              		.cfi_offset 7, -8
 1801              		.cfi_offset 14, -4
 1802 0002 8AB0     		sub	sp, sp, #40
 1803              		.cfi_def_cfa_offset 48
 1804 0004 00AF     		add	r7, sp, #0
 1805              		.cfi_def_cfa_register 7
 1806 0006 0200     		movs	r2, r0
 1807 0008 FB1D     		adds	r3, r7, #7
 1808 000a 1A70     		strb	r2, [r3]
 512:tof_coms.c    ****     char buf[VL53L0X_MAX_STRING_LENGTH];
 513:tof_coms.c    ****     VL53L0X_GetPalErrorString(Status, buf);
ARM GAS  C:\Users\ilya\AppData\Local\Temp\ccGij5YZ.s 			page 42


 1809              		.loc 1 513 0
 1810 000c 0823     		movs	r3, #8
 1811 000e FA18     		adds	r2, r7, r3
 1812 0010 FB1D     		adds	r3, r7, #7
 1813 0012 1B78     		ldrb	r3, [r3]
 1814 0014 5BB2     		sxtb	r3, r3
 1815 0016 1100     		movs	r1, r2
 1816 0018 1800     		movs	r0, r3
 1817 001a FFF7FEFF 		bl	VL53L0X_GetPalErrorString
 514:tof_coms.c    ****     printf("API Status: %i : %s\n", Status, buf);
 1818              		.loc 1 514 0
 1819 001e FB1D     		adds	r3, r7, #7
 1820 0020 0021     		movs	r1, #0
 1821 0022 5956     		ldrsb	r1, [r3, r1]
 1822 0024 0823     		movs	r3, #8
 1823 0026 FA18     		adds	r2, r7, r3
 1824 0028 034B     		ldr	r3, .L75
 1825 002a 1800     		movs	r0, r3
 1826 002c FFF7FEFF 		bl	myprintf
 515:tof_coms.c    **** }
 1827              		.loc 1 515 0
 1828 0030 C046     		nop
 1829 0032 BD46     		mov	sp, r7
 1830 0034 0AB0     		add	sp, sp, #40
 1831              		@ sp needed
 1832 0036 80BD     		pop	{r7, pc}
 1833              	.L76:
 1834              		.align	2
 1835              	.L75:
 1836 0038 00000000 		.word	.LC0
 1837              		.cfi_endproc
 1838              	.LFE63:
 1839              		.size	print_pal_error, .-print_pal_error
 1840              		.section	.rodata
 1841 0015 000000   		.align	2
 1842              	.LC2:
 1843 0018 52616E67 		.ascii	"Range Status: %i : %s\012\000"
 1843      65205374 
 1843      61747573 
 1843      3A202569 
 1843      203A2025 
 1844              		.section	.text.print_range_status,"ax",%progbits
 1845              		.align	2
 1846              		.global	print_range_status
 1847              		.code	16
 1848              		.thumb_func
 1849              		.type	print_range_status, %function
 1850              	print_range_status:
 1851              	.LFB64:
 516:tof_coms.c    **** 
 517:tof_coms.c    **** void print_range_status(VL53L0X_RangingMeasurementData_t* pRangingMeasurementData){
 1852              		.loc 1 517 0
 1853              		.cfi_startproc
 1854              		@ args = 0, pretend = 0, frame = 48
 1855              		@ frame_needed = 1, uses_anonymous_args = 0
 1856 0000 80B5     		push	{r7, lr}
 1857              		.cfi_def_cfa_offset 8
ARM GAS  C:\Users\ilya\AppData\Local\Temp\ccGij5YZ.s 			page 43


 1858              		.cfi_offset 7, -8
 1859              		.cfi_offset 14, -4
 1860 0002 8CB0     		sub	sp, sp, #48
 1861              		.cfi_def_cfa_offset 56
 1862 0004 00AF     		add	r7, sp, #0
 1863              		.cfi_def_cfa_register 7
 1864 0006 7860     		str	r0, [r7, #4]
 518:tof_coms.c    ****     char buf[VL53L0X_MAX_STRING_LENGTH];
 519:tof_coms.c    ****     uint8_t RangeStatus;
 520:tof_coms.c    **** 
 521:tof_coms.c    ****     /*
 522:tof_coms.c    ****      * New Range Status: data is valid when pRangingMeasurementData->RangeStatus = 0
 523:tof_coms.c    ****      */
 524:tof_coms.c    **** 
 525:tof_coms.c    ****     RangeStatus = pRangingMeasurementData->RangeStatus;
 1865              		.loc 1 525 0
 1866 0008 2F23     		movs	r3, #47
 1867 000a FB18     		adds	r3, r7, r3
 1868 000c 7A68     		ldr	r2, [r7, #4]
 1869 000e 127E     		ldrb	r2, [r2, #24]
 1870 0010 1A70     		strb	r2, [r3]
 526:tof_coms.c    **** 
 527:tof_coms.c    ****     VL53L0X_GetRangeStatusString(RangeStatus, buf);
 1871              		.loc 1 527 0
 1872 0012 0C23     		movs	r3, #12
 1873 0014 FA18     		adds	r2, r7, r3
 1874 0016 2F23     		movs	r3, #47
 1875 0018 FB18     		adds	r3, r7, r3
 1876 001a 1B78     		ldrb	r3, [r3]
 1877 001c 1100     		movs	r1, r2
 1878 001e 1800     		movs	r0, r3
 1879 0020 FFF7FEFF 		bl	VL53L0X_GetRangeStatusString
 528:tof_coms.c    ****     printf("Range Status: %i : %s\n", RangeStatus, buf);
 1880              		.loc 1 528 0
 1881 0024 2F23     		movs	r3, #47
 1882 0026 FB18     		adds	r3, r7, r3
 1883 0028 1978     		ldrb	r1, [r3]
 1884 002a 0C23     		movs	r3, #12
 1885 002c FA18     		adds	r2, r7, r3
 1886 002e 044B     		ldr	r3, .L78
 1887 0030 1800     		movs	r0, r3
 1888 0032 FFF7FEFF 		bl	myprintf
 529:tof_coms.c    **** 
 530:tof_coms.c    **** }
 1889              		.loc 1 530 0
 1890 0036 C046     		nop
 1891 0038 BD46     		mov	sp, r7
 1892 003a 0CB0     		add	sp, sp, #48
 1893              		@ sp needed
 1894 003c 80BD     		pop	{r7, pc}
 1895              	.L79:
 1896 003e C046     		.align	2
 1897              	.L78:
 1898 0040 18000000 		.word	.LC2
 1899              		.cfi_endproc
 1900              	.LFE64:
 1901              		.size	print_range_status, .-print_range_status
ARM GAS  C:\Users\ilya\AppData\Local\Temp\ccGij5YZ.s 			page 44


 1902              		.section	.rodata
 1903 002f 00       		.align	2
 1904              	.LC4:
 1905 0030 43616C6C 		.ascii	"Call of VL53L0X_StaticInit\012\000"
 1905      206F6620 
 1905      564C3533 
 1905      4C30585F 
 1905      53746174 
 1906              		.align	2
 1907              	.LC6:
 1908 004c 43616C6C 		.ascii	"Call of VL53L0X_PerformRefCalibration\012\000"
 1908      206F6620 
 1908      564C3533 
 1908      4C30585F 
 1908      50657266 
 1909 0073 00       		.align	2
 1910              	.LC8:
 1911 0074 43616C6C 		.ascii	"Call of VL53L0X_PerformRefSpadManagement\012\000"
 1911      206F6620 
 1911      564C3533 
 1911      4C30585F 
 1911      50657266 
 1912 009e 0000     		.align	2
 1913              	.LC10:
 1914 00a0 72656653 		.ascii	"refSpadCount = %d, isApertureSpads = %d\012\000"
 1914      70616443 
 1914      6F756E74 
 1914      203D2025 
 1914      642C2069 
 1915 00c9 000000   		.align	2
 1916              	.LC12:
 1917 00cc 43616C6C 		.ascii	"Call of VL53L0X_SetDeviceMode\012\000"
 1917      206F6620 
 1917      564C3533 
 1917      4C30585F 
 1917      53657444 
 1918 00eb 00       		.align	2
 1919              	.LC14:
 1920 00ec 43616C6C 		.ascii	"Call of VL53L0X_PerformSingleRangingMeasurement\012"
 1920      206F6620 
 1920      564C3533 
 1920      4C30585F 
 1920      50657266 
 1921 011c 00       		.ascii	"\000"
 1922              		.global	__aeabi_ui2f
 1923              		.global	__aeabi_f2d
 1924              		.global	__aeabi_ddiv
 1925 011d 000000   		.align	2
 1926              	.LC16:
 1927 0120 52414E47 		.ascii	"RANGE IGNORE THRESHOLD: %f\012\012\000"
 1927      45204947 
 1927      4E4F5245 
 1927      20544852 
 1927      4553484F 
 1928 013d 000000   		.align	2
 1929              	.LC18:
 1930 0140 4D656173 		.ascii	"Measured distance: %i\012\012\000"
ARM GAS  C:\Users\ilya\AppData\Local\Temp\ccGij5YZ.s 			page 45


 1930      75726564 
 1930      20646973 
 1930      74616E63 
 1930      653A2025 
 1931              		.section	.text.rangingTest,"ax",%progbits
 1932              		.align	2
 1933              		.global	rangingTest
 1934              		.code	16
 1935              		.thumb_func
 1936              		.type	rangingTest, %function
 1937              	rangingTest:
 1938              	.LFB65:
 531:tof_coms.c    **** 
 532:tof_coms.c    **** 
 533:tof_coms.c    **** VL53L0X_Error rangingTest(VL53L0X_Dev_t *pMyDevice)
 534:tof_coms.c    **** {
 1939              		.loc 1 534 0
 1940              		.cfi_startproc
 1941              		@ args = 0, pretend = 0, frame = 56
 1942              		@ frame_needed = 1, uses_anonymous_args = 0
 1943 0000 90B5     		push	{r4, r7, lr}
 1944              		.cfi_def_cfa_offset 12
 1945              		.cfi_offset 4, -12
 1946              		.cfi_offset 7, -8
 1947              		.cfi_offset 14, -4
 1948 0002 8FB0     		sub	sp, sp, #60
 1949              		.cfi_def_cfa_offset 72
 1950 0004 00AF     		add	r7, sp, #0
 1951              		.cfi_def_cfa_register 7
 1952 0006 7860     		str	r0, [r7, #4]
 535:tof_coms.c    ****     VL53L0X_Error Status = VL53L0X_ERROR_NONE;
 1953              		.loc 1 535 0
 1954 0008 3723     		movs	r3, #55
 1955 000a FB18     		adds	r3, r7, r3
 1956 000c 0022     		movs	r2, #0
 1957 000e 1A70     		strb	r2, [r3]
 536:tof_coms.c    ****     VL53L0X_RangingMeasurementData_t    RangingMeasurementData;
 537:tof_coms.c    ****     int i;
 538:tof_coms.c    ****     FixPoint1616_t LimitCheckCurrent;
 539:tof_coms.c    ****     uint32_t refSpadCount;
 540:tof_coms.c    ****     uint8_t isApertureSpads;
 541:tof_coms.c    ****     uint8_t VhvSettings;
 542:tof_coms.c    ****     uint8_t PhaseCal;
 543:tof_coms.c    **** 
 544:tof_coms.c    ****     if(Status == VL53L0X_ERROR_NONE)
 1958              		.loc 1 544 0
 1959 0010 3723     		movs	r3, #55
 1960 0012 FB18     		adds	r3, r7, r3
 1961 0014 1B78     		ldrb	r3, [r3]
 1962 0016 5BB2     		sxtb	r3, r3
 1963 0018 002B     		cmp	r3, #0
 1964 001a 12D1     		bne	.L81
 545:tof_coms.c    ****     {
 546:tof_coms.c    ****         printf ("Call of VL53L0X_StaticInit\n");
 1965              		.loc 1 546 0
 1966 001c 864B     		ldr	r3, .L95
 1967 001e 1800     		movs	r0, r3
ARM GAS  C:\Users\ilya\AppData\Local\Temp\ccGij5YZ.s 			page 46


 1968 0020 FFF7FEFF 		bl	myprintf
 547:tof_coms.c    ****         Status = VL53L0X_StaticInit(pMyDevice); // Device Initialization
 1969              		.loc 1 547 0
 1970 0024 3723     		movs	r3, #55
 1971 0026 FC18     		adds	r4, r7, r3
 1972 0028 7B68     		ldr	r3, [r7, #4]
 1973 002a 1800     		movs	r0, r3
 1974 002c FFF7FEFF 		bl	VL53L0X_StaticInit
 1975 0030 0300     		movs	r3, r0
 1976 0032 2370     		strb	r3, [r4]
 548:tof_coms.c    ****         print_pal_error(Status);
 1977              		.loc 1 548 0
 1978 0034 3723     		movs	r3, #55
 1979 0036 FB18     		adds	r3, r7, r3
 1980 0038 1B78     		ldrb	r3, [r3]
 1981 003a 5BB2     		sxtb	r3, r3
 1982 003c 1800     		movs	r0, r3
 1983 003e FFF7FEFF 		bl	print_pal_error
 1984              	.L81:
 549:tof_coms.c    ****     }
 550:tof_coms.c    **** 
 551:tof_coms.c    ****     if(Status == VL53L0X_ERROR_NONE)
 1985              		.loc 1 551 0
 1986 0042 3723     		movs	r3, #55
 1987 0044 FB18     		adds	r3, r7, r3
 1988 0046 1B78     		ldrb	r3, [r3]
 1989 0048 5BB2     		sxtb	r3, r3
 1990 004a 002B     		cmp	r3, #0
 1991 004c 16D1     		bne	.L82
 552:tof_coms.c    ****     {
 553:tof_coms.c    ****         printf ("Call of VL53L0X_PerformRefCalibration\n");
 1992              		.loc 1 553 0
 1993 004e 7B4B     		ldr	r3, .L95+4
 1994 0050 1800     		movs	r0, r3
 1995 0052 FFF7FEFF 		bl	myprintf
 554:tof_coms.c    ****         Status = VL53L0X_PerformRefCalibration(pMyDevice,
 1996              		.loc 1 554 0
 1997 0056 3723     		movs	r3, #55
 1998 0058 FC18     		adds	r4, r7, r3
 1999 005a 0923     		movs	r3, #9
 2000 005c FA18     		adds	r2, r7, r3
 2001 005e 0A23     		movs	r3, #10
 2002 0060 F918     		adds	r1, r7, r3
 2003 0062 7B68     		ldr	r3, [r7, #4]
 2004 0064 1800     		movs	r0, r3
 2005 0066 FFF7FEFF 		bl	VL53L0X_PerformRefCalibration
 2006 006a 0300     		movs	r3, r0
 2007 006c 2370     		strb	r3, [r4]
 555:tof_coms.c    ****         		&VhvSettings, &PhaseCal); // Device Initialization
 556:tof_coms.c    ****         print_pal_error(Status);
 2008              		.loc 1 556 0
 2009 006e 3723     		movs	r3, #55
 2010 0070 FB18     		adds	r3, r7, r3
 2011 0072 1B78     		ldrb	r3, [r3]
 2012 0074 5BB2     		sxtb	r3, r3
 2013 0076 1800     		movs	r0, r3
 2014 0078 FFF7FEFF 		bl	print_pal_error
ARM GAS  C:\Users\ilya\AppData\Local\Temp\ccGij5YZ.s 			page 47


 2015              	.L82:
 557:tof_coms.c    ****     }
 558:tof_coms.c    **** 
 559:tof_coms.c    ****     if(Status == VL53L0X_ERROR_NONE)
 2016              		.loc 1 559 0
 2017 007c 3723     		movs	r3, #55
 2018 007e FB18     		adds	r3, r7, r3
 2019 0080 1B78     		ldrb	r3, [r3]
 2020 0082 5BB2     		sxtb	r3, r3
 2021 0084 002B     		cmp	r3, #0
 2022 0086 1FD1     		bne	.L83
 560:tof_coms.c    ****     {
 561:tof_coms.c    ****         printf ("Call of VL53L0X_PerformRefSpadManagement\n");
 2023              		.loc 1 561 0
 2024 0088 6D4B     		ldr	r3, .L95+8
 2025 008a 1800     		movs	r0, r3
 2026 008c FFF7FEFF 		bl	myprintf
 562:tof_coms.c    ****         Status = VL53L0X_PerformRefSpadManagement(pMyDevice,
 2027              		.loc 1 562 0
 2028 0090 3723     		movs	r3, #55
 2029 0092 FC18     		adds	r4, r7, r3
 2030 0094 0B23     		movs	r3, #11
 2031 0096 FA18     		adds	r2, r7, r3
 2032 0098 0C23     		movs	r3, #12
 2033 009a F918     		adds	r1, r7, r3
 2034 009c 7B68     		ldr	r3, [r7, #4]
 2035 009e 1800     		movs	r0, r3
 2036 00a0 FFF7FEFF 		bl	VL53L0X_PerformRefSpadManagement
 2037 00a4 0300     		movs	r3, r0
 2038 00a6 2370     		strb	r3, [r4]
 563:tof_coms.c    ****         		&refSpadCount, &isApertureSpads); // Device Initialization
 564:tof_coms.c    ****         printf ("refSpadCount = %d, isApertureSpads = %d\n", refSpadCount, isApertureSpads);
 2039              		.loc 1 564 0
 2040 00a8 F968     		ldr	r1, [r7, #12]
 2041 00aa 0B23     		movs	r3, #11
 2042 00ac FB18     		adds	r3, r7, r3
 2043 00ae 1B78     		ldrb	r3, [r3]
 2044 00b0 1A00     		movs	r2, r3
 2045 00b2 644B     		ldr	r3, .L95+12
 2046 00b4 1800     		movs	r0, r3
 2047 00b6 FFF7FEFF 		bl	myprintf
 565:tof_coms.c    ****         print_pal_error(Status);
 2048              		.loc 1 565 0
 2049 00ba 3723     		movs	r3, #55
 2050 00bc FB18     		adds	r3, r7, r3
 2051 00be 1B78     		ldrb	r3, [r3]
 2052 00c0 5BB2     		sxtb	r3, r3
 2053 00c2 1800     		movs	r0, r3
 2054 00c4 FFF7FEFF 		bl	print_pal_error
 2055              	.L83:
 566:tof_coms.c    ****     }
 567:tof_coms.c    **** 
 568:tof_coms.c    ****     if(Status == VL53L0X_ERROR_NONE)
 2056              		.loc 1 568 0
 2057 00c8 3723     		movs	r3, #55
 2058 00ca FB18     		adds	r3, r7, r3
 2059 00cc 1B78     		ldrb	r3, [r3]
ARM GAS  C:\Users\ilya\AppData\Local\Temp\ccGij5YZ.s 			page 48


 2060 00ce 5BB2     		sxtb	r3, r3
 2061 00d0 002B     		cmp	r3, #0
 2062 00d2 13D1     		bne	.L84
 569:tof_coms.c    ****     {
 570:tof_coms.c    **** 
 571:tof_coms.c    ****         // no need to do this when we use VL53L0X_PerformSingleRangingMeasurement
 572:tof_coms.c    ****         printf ("Call of VL53L0X_SetDeviceMode\n");
 2063              		.loc 1 572 0
 2064 00d4 5C4B     		ldr	r3, .L95+16
 2065 00d6 1800     		movs	r0, r3
 2066 00d8 FFF7FEFF 		bl	myprintf
 573:tof_coms.c    ****         Status = VL53L0X_SetDeviceMode(pMyDevice, VL53L0X_DEVICEMODE_SINGLE_RANGING); // Setup in s
 2067              		.loc 1 573 0
 2068 00dc 3723     		movs	r3, #55
 2069 00de FC18     		adds	r4, r7, r3
 2070 00e0 7B68     		ldr	r3, [r7, #4]
 2071 00e2 0021     		movs	r1, #0
 2072 00e4 1800     		movs	r0, r3
 2073 00e6 FFF7FEFF 		bl	VL53L0X_SetDeviceMode
 2074 00ea 0300     		movs	r3, r0
 2075 00ec 2370     		strb	r3, [r4]
 574:tof_coms.c    ****         print_pal_error(Status);
 2076              		.loc 1 574 0
 2077 00ee 3723     		movs	r3, #55
 2078 00f0 FB18     		adds	r3, r7, r3
 2079 00f2 1B78     		ldrb	r3, [r3]
 2080 00f4 5BB2     		sxtb	r3, r3
 2081 00f6 1800     		movs	r0, r3
 2082 00f8 FFF7FEFF 		bl	print_pal_error
 2083              	.L84:
 575:tof_coms.c    ****     }
 576:tof_coms.c    **** 
 577:tof_coms.c    **** 
 578:tof_coms.c    **** //#define LONGRANGE
 579:tof_coms.c    **** #ifdef LONGRANGE
 580:tof_coms.c    ****     if (Status == VL53L0X_ERROR_NONE) {
 581:tof_coms.c    ****           Status = VL53L0X_SetLimitCheckEnable(pMyDevice,
 582:tof_coms.c    ****           		VL53L0X_CHECKENABLE_SIGMA_FINAL_RANGE, 1);
 583:tof_coms.c    ****       }
 584:tof_coms.c    ****       if (Status == VL53L0X_ERROR_NONE) {
 585:tof_coms.c    ****           Status = VL53L0X_SetLimitCheckEnable(pMyDevice,
 586:tof_coms.c    ****           		VL53L0X_CHECKENABLE_SIGNAL_RATE_FINAL_RANGE, 1);
 587:tof_coms.c    ****       }
 588:tof_coms.c    **** 
 589:tof_coms.c    ****       if (Status == VL53L0X_ERROR_NONE) {
 590:tof_coms.c    ****           Status = VL53L0X_SetLimitCheckValue(pMyDevice,
 591:tof_coms.c    ****           		VL53L0X_CHECKENABLE_SIGNAL_RATE_FINAL_RANGE,
 592:tof_coms.c    ****           		(FixPoint1616_t)(0.1*65536));
 593:tof_coms.c    ****   	}
 594:tof_coms.c    ****       if (Status == VL53L0X_ERROR_NONE) {
 595:tof_coms.c    ****           Status = VL53L0X_SetLimitCheckValue(pMyDevice,
 596:tof_coms.c    ****           		VL53L0X_CHECKENABLE_SIGMA_FINAL_RANGE,
 597:tof_coms.c    ****           		(FixPoint1616_t)(60*65536));
 598:tof_coms.c    ****       }
 599:tof_coms.c    ****       if (Status == VL53L0X_ERROR_NONE) {
 600:tof_coms.c    ****           Status = VL53L0X_SetMeasurementTimingBudgetMicroSeconds(pMyDevice,
 601:tof_coms.c    ****           		33000);
ARM GAS  C:\Users\ilya\AppData\Local\Temp\ccGij5YZ.s 			page 49


 602:tof_coms.c    ****   	}
 603:tof_coms.c    **** 
 604:tof_coms.c    ****       if (Status == VL53L0X_ERROR_NONE) {
 605:tof_coms.c    ****           Status = VL53L0X_SetVcselPulsePeriod(pMyDevice,
 606:tof_coms.c    ****   		        VL53L0X_VCSEL_PERIOD_PRE_RANGE, 18);
 607:tof_coms.c    ****       }
 608:tof_coms.c    ****       if (Status == VL53L0X_ERROR_NONE) {
 609:tof_coms.c    ****           Status = VL53L0X_SetVcselPulsePeriod(pMyDevice,
 610:tof_coms.c    ****   		        VL53L0X_VCSEL_PERIOD_FINAL_RANGE, 14);
 611:tof_coms.c    ****       }
 612:tof_coms.c    **** 
 613:tof_coms.c    **** 
 614:tof_coms.c    **** 
 615:tof_coms.c    **** 
 616:tof_coms.c    **** 
 617:tof_coms.c    **** #else
 618:tof_coms.c    **** 
 619:tof_coms.c    ****     // Enable/Disable Sigma and Signal check
 620:tof_coms.c    ****     if (Status == VL53L0X_ERROR_NONE) {
 2084              		.loc 1 620 0
 2085 00fc 3723     		movs	r3, #55
 2086 00fe FB18     		adds	r3, r7, r3
 2087 0100 1B78     		ldrb	r3, [r3]
 2088 0102 5BB2     		sxtb	r3, r3
 2089 0104 002B     		cmp	r3, #0
 2090 0106 09D1     		bne	.L85
 621:tof_coms.c    ****         Status = VL53L0X_SetLimitCheckEnable(pMyDevice,
 2091              		.loc 1 621 0
 2092 0108 3723     		movs	r3, #55
 2093 010a FC18     		adds	r4, r7, r3
 2094 010c 7B68     		ldr	r3, [r7, #4]
 2095 010e 0122     		movs	r2, #1
 2096 0110 0021     		movs	r1, #0
 2097 0112 1800     		movs	r0, r3
 2098 0114 FFF7FEFF 		bl	VL53L0X_SetLimitCheckEnable
 2099 0118 0300     		movs	r3, r0
 2100 011a 2370     		strb	r3, [r4]
 2101              	.L85:
 622:tof_coms.c    ****         		VL53L0X_CHECKENABLE_SIGMA_FINAL_RANGE, 1);
 623:tof_coms.c    ****     }
 624:tof_coms.c    ****     if (Status == VL53L0X_ERROR_NONE) {
 2102              		.loc 1 624 0
 2103 011c 3723     		movs	r3, #55
 2104 011e FB18     		adds	r3, r7, r3
 2105 0120 1B78     		ldrb	r3, [r3]
 2106 0122 5BB2     		sxtb	r3, r3
 2107 0124 002B     		cmp	r3, #0
 2108 0126 09D1     		bne	.L86
 625:tof_coms.c    ****         Status = VL53L0X_SetLimitCheckEnable(pMyDevice,
 2109              		.loc 1 625 0
 2110 0128 3723     		movs	r3, #55
 2111 012a FC18     		adds	r4, r7, r3
 2112 012c 7B68     		ldr	r3, [r7, #4]
 2113 012e 0122     		movs	r2, #1
 2114 0130 0121     		movs	r1, #1
 2115 0132 1800     		movs	r0, r3
 2116 0134 FFF7FEFF 		bl	VL53L0X_SetLimitCheckEnable
ARM GAS  C:\Users\ilya\AppData\Local\Temp\ccGij5YZ.s 			page 50


 2117 0138 0300     		movs	r3, r0
 2118 013a 2370     		strb	r3, [r4]
 2119              	.L86:
 626:tof_coms.c    ****         		VL53L0X_CHECKENABLE_SIGNAL_RATE_FINAL_RANGE, 1);
 627:tof_coms.c    ****     }
 628:tof_coms.c    **** 
 629:tof_coms.c    ****     if (Status == VL53L0X_ERROR_NONE) {
 2120              		.loc 1 629 0
 2121 013c 3723     		movs	r3, #55
 2122 013e FB18     		adds	r3, r7, r3
 2123 0140 1B78     		ldrb	r3, [r3]
 2124 0142 5BB2     		sxtb	r3, r3
 2125 0144 002B     		cmp	r3, #0
 2126 0146 09D1     		bne	.L87
 630:tof_coms.c    ****         Status = VL53L0X_SetLimitCheckEnable(pMyDevice,
 2127              		.loc 1 630 0
 2128 0148 3723     		movs	r3, #55
 2129 014a FC18     		adds	r4, r7, r3
 2130 014c 7B68     		ldr	r3, [r7, #4]
 2131 014e 0122     		movs	r2, #1
 2132 0150 0321     		movs	r1, #3
 2133 0152 1800     		movs	r0, r3
 2134 0154 FFF7FEFF 		bl	VL53L0X_SetLimitCheckEnable
 2135 0158 0300     		movs	r3, r0
 2136 015a 2370     		strb	r3, [r4]
 2137              	.L87:
 631:tof_coms.c    ****         		VL53L0X_CHECKENABLE_RANGE_IGNORE_THRESHOLD, 1);
 632:tof_coms.c    ****     }
 633:tof_coms.c    **** 
 634:tof_coms.c    ****     if (Status == VL53L0X_ERROR_NONE) {
 2138              		.loc 1 634 0
 2139 015c 3723     		movs	r3, #55
 2140 015e FB18     		adds	r3, r7, r3
 2141 0160 1B78     		ldrb	r3, [r3]
 2142 0162 5BB2     		sxtb	r3, r3
 2143 0164 002B     		cmp	r3, #0
 2144 0166 09D1     		bne	.L88
 635:tof_coms.c    ****         Status = VL53L0X_SetLimitCheckValue(pMyDevice,
 2145              		.loc 1 635 0
 2146 0168 3723     		movs	r3, #55
 2147 016a FC18     		adds	r4, r7, r3
 2148 016c 374A     		ldr	r2, .L95+20
 2149 016e 7B68     		ldr	r3, [r7, #4]
 2150 0170 0321     		movs	r1, #3
 2151 0172 1800     		movs	r0, r3
 2152 0174 FFF7FEFF 		bl	VL53L0X_SetLimitCheckValue
 2153 0178 0300     		movs	r3, r0
 2154 017a 2370     		strb	r3, [r4]
 2155              	.L88:
 636:tof_coms.c    ****         		VL53L0X_CHECKENABLE_RANGE_IGNORE_THRESHOLD,
 637:tof_coms.c    ****         		(FixPoint1616_t)(1.5*0.023*65536));
 638:tof_coms.c    ****     }
 639:tof_coms.c    **** #endif
 640:tof_coms.c    **** 
 641:tof_coms.c    ****     /*
 642:tof_coms.c    ****      *  Step  4 : Test ranging mode
 643:tof_coms.c    ****      */
ARM GAS  C:\Users\ilya\AppData\Local\Temp\ccGij5YZ.s 			page 51


 644:tof_coms.c    **** 
 645:tof_coms.c    ****     if(Status == VL53L0X_ERROR_NONE)
 2156              		.loc 1 645 0
 2157 017c 3723     		movs	r3, #55
 2158 017e FB18     		adds	r3, r7, r3
 2159 0180 1B78     		ldrb	r3, [r3]
 2160 0182 5BB2     		sxtb	r3, r3
 2161 0184 002B     		cmp	r3, #0
 2162 0186 4FD1     		bne	.L89
 646:tof_coms.c    ****     {
 647:tof_coms.c    ****         for(i=0;i<10;i++){
 2163              		.loc 1 647 0
 2164 0188 0023     		movs	r3, #0
 2165 018a 3B63     		str	r3, [r7, #48]
 2166 018c 47E0     		b	.L90
 2167              	.L92:
 648:tof_coms.c    ****             printf ("Call of VL53L0X_PerformSingleRangingMeasurement\n");
 2168              		.loc 1 648 0
 2169 018e 304B     		ldr	r3, .L95+24
 2170 0190 1800     		movs	r0, r3
 2171 0192 FFF7FEFF 		bl	myprintf
 649:tof_coms.c    ****             Status = VL53L0X_PerformSingleRangingMeasurement(pMyDevice,
 2172              		.loc 1 649 0
 2173 0196 3723     		movs	r3, #55
 2174 0198 FC18     		adds	r4, r7, r3
 2175 019a 1423     		movs	r3, #20
 2176 019c FA18     		adds	r2, r7, r3
 2177 019e 7B68     		ldr	r3, [r7, #4]
 2178 01a0 1100     		movs	r1, r2
 2179 01a2 1800     		movs	r0, r3
 2180 01a4 FFF7FEFF 		bl	VL53L0X_PerformSingleRangingMeasurement
 2181 01a8 0300     		movs	r3, r0
 2182 01aa 2370     		strb	r3, [r4]
 650:tof_coms.c    ****             		&RangingMeasurementData);
 651:tof_coms.c    **** 
 652:tof_coms.c    ****             print_pal_error(Status);
 2183              		.loc 1 652 0
 2184 01ac 3723     		movs	r3, #55
 2185 01ae FB18     		adds	r3, r7, r3
 2186 01b0 1B78     		ldrb	r3, [r3]
 2187 01b2 5BB2     		sxtb	r3, r3
 2188 01b4 1800     		movs	r0, r3
 2189 01b6 FFF7FEFF 		bl	print_pal_error
 653:tof_coms.c    ****             print_range_status(&RangingMeasurementData);
 2190              		.loc 1 653 0
 2191 01ba 1423     		movs	r3, #20
 2192 01bc FB18     		adds	r3, r7, r3
 2193 01be 1800     		movs	r0, r3
 2194 01c0 FFF7FEFF 		bl	print_range_status
 654:tof_coms.c    **** 
 655:tof_coms.c    ****             VL53L0X_GetLimitCheckCurrent(pMyDevice,
 2195              		.loc 1 655 0
 2196 01c4 1023     		movs	r3, #16
 2197 01c6 FA18     		adds	r2, r7, r3
 2198 01c8 7B68     		ldr	r3, [r7, #4]
 2199 01ca 0321     		movs	r1, #3
 2200 01cc 1800     		movs	r0, r3
ARM GAS  C:\Users\ilya\AppData\Local\Temp\ccGij5YZ.s 			page 52


 2201 01ce FFF7FEFF 		bl	VL53L0X_GetLimitCheckCurrent
 656:tof_coms.c    ****             		VL53L0X_CHECKENABLE_RANGE_IGNORE_THRESHOLD, &LimitCheckCurrent);
 657:tof_coms.c    **** 
 658:tof_coms.c    ****             printf("RANGE IGNORE THRESHOLD: %f\n\n", (float)LimitCheckCurrent/65536.0);
 2202              		.loc 1 658 0
 2203 01d2 3B69     		ldr	r3, [r7, #16]
 2204 01d4 1800     		movs	r0, r3
 2205 01d6 FFF7FEFF 		bl	__aeabi_ui2f
 2206 01da 031C     		adds	r3, r0, #0
 2207 01dc 181C     		adds	r0, r3, #0
 2208 01de FFF7FEFF 		bl	__aeabi_f2d
 2209 01e2 0022     		movs	r2, #0
 2210 01e4 1B4B     		ldr	r3, .L95+28
 2211 01e6 FFF7FEFF 		bl	__aeabi_ddiv
 2212 01ea 0300     		movs	r3, r0
 2213 01ec 0C00     		movs	r4, r1
 2214 01ee 1A49     		ldr	r1, .L95+32
 2215 01f0 1A00     		movs	r2, r3
 2216 01f2 2300     		movs	r3, r4
 2217 01f4 0800     		movs	r0, r1
 2218 01f6 FFF7FEFF 		bl	myprintf
 659:tof_coms.c    **** 
 660:tof_coms.c    **** 
 661:tof_coms.c    ****             if (Status != VL53L0X_ERROR_NONE) break;
 2219              		.loc 1 661 0
 2220 01fa 3723     		movs	r3, #55
 2221 01fc FB18     		adds	r3, r7, r3
 2222 01fe 1B78     		ldrb	r3, [r3]
 2223 0200 5BB2     		sxtb	r3, r3
 2224 0202 002B     		cmp	r3, #0
 2225 0204 0FD1     		bne	.L94
 662:tof_coms.c    **** 
 663:tof_coms.c    ****             printf("Measured distance: %i\n\n", RangingMeasurementData.RangeMilliMeter);
 2226              		.loc 1 663 0 discriminator 2
 2227 0206 1423     		movs	r3, #20
 2228 0208 FB18     		adds	r3, r7, r3
 2229 020a 1B89     		ldrh	r3, [r3, #8]
 2230 020c 1A00     		movs	r2, r3
 2231 020e 134B     		ldr	r3, .L95+36
 2232 0210 1100     		movs	r1, r2
 2233 0212 1800     		movs	r0, r3
 2234 0214 FFF7FEFF 		bl	myprintf
 647:tof_coms.c    ****             printf ("Call of VL53L0X_PerformSingleRangingMeasurement\n");
 2235              		.loc 1 647 0 discriminator 2
 2236 0218 3B6B     		ldr	r3, [r7, #48]
 2237 021a 0133     		adds	r3, r3, #1
 2238 021c 3B63     		str	r3, [r7, #48]
 2239              	.L90:
 647:tof_coms.c    ****             printf ("Call of VL53L0X_PerformSingleRangingMeasurement\n");
 2240              		.loc 1 647 0 is_stmt 0 discriminator 1
 2241 021e 3B6B     		ldr	r3, [r7, #48]
 2242 0220 092B     		cmp	r3, #9
 2243 0222 B4DD     		ble	.L92
 2244 0224 00E0     		b	.L89
 2245              	.L94:
 661:tof_coms.c    **** 
 2246              		.loc 1 661 0 is_stmt 1
ARM GAS  C:\Users\ilya\AppData\Local\Temp\ccGij5YZ.s 			page 53


 2247 0226 C046     		nop
 2248              	.L89:
 664:tof_coms.c    **** 
 665:tof_coms.c    **** 
 666:tof_coms.c    ****         }
 667:tof_coms.c    ****     }
 668:tof_coms.c    ****     return Status;
 2249              		.loc 1 668 0
 2250 0228 3723     		movs	r3, #55
 2251 022a FB18     		adds	r3, r7, r3
 2252 022c 1B78     		ldrb	r3, [r3]
 2253 022e 5BB2     		sxtb	r3, r3
 669:tof_coms.c    **** }
 2254              		.loc 1 669 0
 2255 0230 1800     		movs	r0, r3
 2256 0232 BD46     		mov	sp, r7
 2257 0234 0FB0     		add	sp, sp, #60
 2258              		@ sp needed
 2259 0236 90BD     		pop	{r4, r7, pc}
 2260              	.L96:
 2261              		.align	2
 2262              	.L95:
 2263 0238 30000000 		.word	.LC4
 2264 023c 4C000000 		.word	.LC6
 2265 0240 74000000 		.word	.LC8
 2266 0244 A0000000 		.word	.LC10
 2267 0248 CC000000 		.word	.LC12
 2268 024c D4080000 		.word	2260
 2269 0250 EC000000 		.word	.LC14
 2270 0254 0000F040 		.word	1089470464
 2271 0258 20010000 		.word	.LC16
 2272 025c 40010000 		.word	.LC18
 2273              		.cfi_endproc
 2274              	.LFE65:
 2275              		.size	rangingTest, .-rangingTest
 2276              		.comm	MyDevice,352,4
 2277              		.global	pMyDevice
 2278              		.data
 2279              		.align	2
 2280              		.type	pMyDevice, %object
 2281              		.size	pMyDevice, 4
 2282              	pMyDevice:
 2283 0000 00000000 		.word	MyDevice
 2284              		.section	.rodata
 2285              		.align	2
 2286              	.LC22:
 2287 0158 00       		.ascii	"\000"
 2288              		.section	.text.tof_init,"ax",%progbits
 2289              		.align	2
 2290              		.global	tof_init
 2291              		.code	16
 2292              		.thumb_func
 2293              		.type	tof_init, %function
 2294              	tof_init:
 2295              	.LFB66:
 670:tof_coms.c    **** VL53L0X_Dev_t MyDevice;
 671:tof_coms.c    **** VL53L0X_Dev_t *pMyDevice = &MyDevice;
ARM GAS  C:\Users\ilya\AppData\Local\Temp\ccGij5YZ.s 			page 54


 672:tof_coms.c    **** int tof_init()
 673:tof_coms.c    **** {
 2296              		.loc 1 673 0
 2297              		.cfi_startproc
 2298              		@ args = 0, pretend = 0, frame = 136
 2299              		@ frame_needed = 1, uses_anonymous_args = 0
 2300 0000 90B5     		push	{r4, r7, lr}
 2301              		.cfi_def_cfa_offset 12
 2302              		.cfi_offset 4, -12
 2303              		.cfi_offset 7, -8
 2304              		.cfi_offset 14, -4
 2305 0002 A3B0     		sub	sp, sp, #140
 2306              		.cfi_def_cfa_offset 152
 2307 0004 00AF     		add	r7, sp, #0
 2308              		.cfi_def_cfa_register 7
 674:tof_coms.c    ****     VL53L0X_Error Status = VL53L0X_ERROR_NONE;
 2309              		.loc 1 674 0
 2310 0006 8723     		movs	r3, #135
 2311 0008 FB18     		adds	r3, r7, r3
 2312 000a 0022     		movs	r2, #0
 2313 000c 1A70     		strb	r2, [r3]
 675:tof_coms.c    **** 
 676:tof_coms.c    ****     VL53L0X_Version_t                   Version;
 677:tof_coms.c    ****     VL53L0X_Version_t                  *pVersion   = &Version;
 2314              		.loc 1 677 0
 2315 000e 6823     		movs	r3, #104
 2316 0010 FB18     		adds	r3, r7, r3
 2317 0012 8022     		movs	r2, #128
 2318 0014 BA18     		adds	r2, r7, r2
 2319 0016 1360     		str	r3, [r2]
 678:tof_coms.c    ****     VL53L0X_DeviceInfo_t                DeviceInfo;
 679:tof_coms.c    **** 
 680:tof_coms.c    ****     int32_t status_int;
 681:tof_coms.c    ****     int32_t init_done = 0;
 2320              		.loc 1 681 0
 2321 0018 0023     		movs	r3, #0
 2322 001a FB67     		str	r3, [r7, #124]
 682:tof_coms.c    ****     int NecleoComStatus = 0;
 2323              		.loc 1 682 0
 2324 001c 0023     		movs	r3, #0
 2325 001e BB67     		str	r3, [r7, #120]
 683:tof_coms.c    ****     int NecleoAutoCom = 1;
 2326              		.loc 1 683 0
 2327 0020 0123     		movs	r3, #1
 2328 0022 7B67     		str	r3, [r7, #116]
 684:tof_coms.c    **** 
 685:tof_coms.c    **** 
 686:tof_coms.c    ****     memset(&MyDevice,0,sizeof(MyDevice));
 2329              		.loc 1 686 0
 2330 0024 B023     		movs	r3, #176
 2331 0026 5A00     		lsls	r2, r3, #1
 2332 0028 524B     		ldr	r3, .L107
 2333 002a 0021     		movs	r1, #0
 2334 002c 1800     		movs	r0, r3
 2335 002e FFF7FEFF 		bl	memset
 687:tof_coms.c    ****     // Initialize Comms
 688:tof_coms.c    ****     pMyDevice->I2cDevAddr      = 0x52/2;
ARM GAS  C:\Users\ilya\AppData\Local\Temp\ccGij5YZ.s 			page 55


 2336              		.loc 1 688 0
 2337 0032 514B     		ldr	r3, .L107+4
 2338 0034 1A68     		ldr	r2, [r3]
 2339 0036 AE23     		movs	r3, #174
 2340 0038 5B00     		lsls	r3, r3, #1
 2341 003a 2921     		movs	r1, #41
 2342 003c D154     		strb	r1, [r2, r3]
 689:tof_coms.c    ****     pMyDevice->comms_type      =  1;
 2343              		.loc 1 689 0
 2344 003e 4E4B     		ldr	r3, .L107+4
 2345 0040 1A68     		ldr	r2, [r3]
 2346 0042 5E23     		movs	r3, #94
 2347 0044 FF33     		adds	r3, r3, #255
 2348 0046 0121     		movs	r1, #1
 2349 0048 D154     		strb	r1, [r2, r3]
 690:tof_coms.c    ****     pMyDevice->comms_speed_khz =  400;
 2350              		.loc 1 690 0
 2351 004a 4B4B     		ldr	r3, .L107+4
 2352 004c 1A68     		ldr	r2, [r3]
 2353 004e AF23     		movs	r3, #175
 2354 0050 5B00     		lsls	r3, r3, #1
 2355 0052 C821     		movs	r1, #200
 2356 0054 4900     		lsls	r1, r1, #1
 2357 0056 D152     		strh	r1, [r2, r3]
 691:tof_coms.c    **** 
 692:tof_coms.c    ****     Status = VL53L0X_i2c_init("", 460800);
 2358              		.loc 1 692 0
 2359 0058 E123     		movs	r3, #225
 2360 005a DA02     		lsls	r2, r3, #11
 2361 005c 474B     		ldr	r3, .L107+8
 2362 005e 1100     		movs	r1, r2
 2363 0060 1800     		movs	r0, r3
 2364 0062 FFF7FEFF 		bl	VL53L0X_i2c_init
 2365 0066 0200     		movs	r2, r0
 2366 0068 8723     		movs	r3, #135
 2367 006a FB18     		adds	r3, r7, r3
 2368 006c 1A70     		strb	r2, [r3]
 693:tof_coms.c    ****     if (Status != VL53L0X_ERROR_NONE) {
 2369              		.loc 1 693 0
 2370 006e 8723     		movs	r3, #135
 2371 0070 FB18     		adds	r3, r7, r3
 2372 0072 1B78     		ldrb	r3, [r3]
 2373 0074 5BB2     		sxtb	r3, r3
 2374 0076 002B     		cmp	r3, #0
 2375 0078 05D0     		beq	.L98
 694:tof_coms.c    ****         Status = VL53L0X_ERROR_CONTROL_INTERFACE;
 2376              		.loc 1 694 0
 2377 007a 8723     		movs	r3, #135
 2378 007c FB18     		adds	r3, r7, r3
 2379 007e EC22     		movs	r2, #236
 2380 0080 1A70     		strb	r2, [r3]
 695:tof_coms.c    ****         init_done = 1;
 2381              		.loc 1 695 0
 2382 0082 0123     		movs	r3, #1
 2383 0084 FB67     		str	r3, [r7, #124]
 2384              	.L98:
 696:tof_coms.c    ****     } //else
ARM GAS  C:\Users\ilya\AppData\Local\Temp\ccGij5YZ.s 			page 56


 697:tof_coms.c    ****        // printf ("Init Comms\n");
 698:tof_coms.c    **** 
 699:tof_coms.c    ****     /*
 700:tof_coms.c    ****      * Disable VL53L0X API logging if you want to run at full speed
 701:tof_coms.c    ****      */
 702:tof_coms.c    **** #ifdef VL53L0X_LOG_ENABLE
 703:tof_coms.c    ****     VL53L0X_trace_config("test.log", TRACE_MODULE_ALL, TRACE_LEVEL_ALL, TRACE_FUNCTION_ALL);
 704:tof_coms.c    **** #endif
 705:tof_coms.c    **** 
 706:tof_coms.c    ****     /*
 707:tof_coms.c    ****      *  Get the version of the VL53L0X API running in the firmware
 708:tof_coms.c    ****      */
 709:tof_coms.c    **** 
 710:tof_coms.c    ****     if(Status == VL53L0X_ERROR_NONE)
 2385              		.loc 1 710 0
 2386 0086 8723     		movs	r3, #135
 2387 0088 FB18     		adds	r3, r7, r3
 2388 008a 1B78     		ldrb	r3, [r3]
 2389 008c 5BB2     		sxtb	r3, r3
 2390 008e 002B     		cmp	r3, #0
 2391 0090 0ED1     		bne	.L105
 711:tof_coms.c    ****     {
 712:tof_coms.c    ****         status_int = VL53L0X_GetVersion(pVersion);
 2392              		.loc 1 712 0
 2393 0092 8023     		movs	r3, #128
 2394 0094 FB18     		adds	r3, r7, r3
 2395 0096 1B68     		ldr	r3, [r3]
 2396 0098 1800     		movs	r0, r3
 2397 009a FFF7FEFF 		bl	VL53L0X_GetVersion
 2398 009e 0300     		movs	r3, r0
 2399 00a0 3B67     		str	r3, [r7, #112]
 713:tof_coms.c    ****         if (status_int != 0)
 2400              		.loc 1 713 0
 2401 00a2 3B6F     		ldr	r3, [r7, #112]
 2402 00a4 002B     		cmp	r3, #0
 2403 00a6 03D0     		beq	.L105
 714:tof_coms.c    ****             Status = VL53L0X_ERROR_CONTROL_INTERFACE;
 2404              		.loc 1 714 0
 2405 00a8 8723     		movs	r3, #135
 2406 00aa FB18     		adds	r3, r7, r3
 2407 00ac EC22     		movs	r2, #236
 2408 00ae 1A70     		strb	r2, [r3]
 2409              	.L105:
 715:tof_coms.c    ****     }
 716:tof_coms.c    **** 
 717:tof_coms.c    ****     /*
 718:tof_coms.c    ****      *  Verify the version of the VL53L0X API running in the firmware
 719:tof_coms.c    ****      */
 720:tof_coms.c    **** 
 721:tof_coms.c    ****     if(Status == VL53L0X_ERROR_NONE)
 722:tof_coms.c    ****     {
 723:tof_coms.c    **** 
 724:tof_coms.c    ****     }
 725:tof_coms.c    **** 
 726:tof_coms.c    **** 
 727:tof_coms.c    ****     if(Status == VL53L0X_ERROR_NONE)
 2410              		.loc 1 727 0
ARM GAS  C:\Users\ilya\AppData\Local\Temp\ccGij5YZ.s 			page 57


 2411 00b0 8723     		movs	r3, #135
 2412 00b2 FB18     		adds	r3, r7, r3
 2413 00b4 1B78     		ldrb	r3, [r3]
 2414 00b6 5BB2     		sxtb	r3, r3
 2415 00b8 002B     		cmp	r3, #0
 2416 00ba 0ED1     		bne	.L106
 728:tof_coms.c    ****     {
 729:tof_coms.c    ****        // printf ("Call of VL53L0X_DataInit\n");
 730:tof_coms.c    ****         Status = VL53L0X_DataInit(&MyDevice); // Data initialization
 2417              		.loc 1 730 0
 2418 00bc 8723     		movs	r3, #135
 2419 00be FC18     		adds	r4, r7, r3
 2420 00c0 2C4B     		ldr	r3, .L107
 2421 00c2 1800     		movs	r0, r3
 2422 00c4 FFF7FEFF 		bl	VL53L0X_DataInit
 2423 00c8 0300     		movs	r3, r0
 2424 00ca 2370     		strb	r3, [r4]
 731:tof_coms.c    ****         print_pal_error(Status);
 2425              		.loc 1 731 0
 2426 00cc 8723     		movs	r3, #135
 2427 00ce FB18     		adds	r3, r7, r3
 2428 00d0 1B78     		ldrb	r3, [r3]
 2429 00d2 5BB2     		sxtb	r3, r3
 2430 00d4 1800     		movs	r0, r3
 2431 00d6 FFF7FEFF 		bl	print_pal_error
 2432              	.L106:
 732:tof_coms.c    ****     }
 733:tof_coms.c    **** if(1)
 734:tof_coms.c    ****     if(Status == VL53L0X_ERROR_NONE)
 2433              		.loc 1 734 0
 2434 00da 8723     		movs	r3, #135
 2435 00dc FB18     		adds	r3, r7, r3
 2436 00de 1B78     		ldrb	r3, [r3]
 2437 00e0 5BB2     		sxtb	r3, r3
 2438 00e2 002B     		cmp	r3, #0
 2439 00e4 24D1     		bne	.L101
 735:tof_coms.c    ****     {
 736:tof_coms.c    ****         Status = VL53L0X_GetDeviceInfo(&MyDevice, &DeviceInfo);
 2440              		.loc 1 736 0
 2441 00e6 8723     		movs	r3, #135
 2442 00e8 FC18     		adds	r4, r7, r3
 2443 00ea 3A1D     		adds	r2, r7, #4
 2444 00ec 214B     		ldr	r3, .L107
 2445 00ee 1100     		movs	r1, r2
 2446 00f0 1800     		movs	r0, r3
 2447 00f2 FFF7FEFF 		bl	VL53L0X_GetDeviceInfo
 2448 00f6 0300     		movs	r3, r0
 2449 00f8 2370     		strb	r3, [r4]
 737:tof_coms.c    ****         if(Status == VL53L0X_ERROR_NONE)
 2450              		.loc 1 737 0
 2451 00fa 8723     		movs	r3, #135
 2452 00fc FB18     		adds	r3, r7, r3
 2453 00fe 1B78     		ldrb	r3, [r3]
 2454 0100 5BB2     		sxtb	r3, r3
 2455 0102 002B     		cmp	r3, #0
 2456 0104 0DD1     		bne	.L102
 738:tof_coms.c    ****         {
ARM GAS  C:\Users\ilya\AppData\Local\Temp\ccGij5YZ.s 			page 58


 739:tof_coms.c    ****             #if 0
 740:tof_coms.c    ****             printf("VL53L0X_GetDeviceInfo:\n");
 741:tof_coms.c    ****             printf("Device Name : %s\n", DeviceInfo.Name);
 742:tof_coms.c    ****             printf("Device Type : %s\n", DeviceInfo.Type);
 743:tof_coms.c    ****             printf("Device ID : %s\n", DeviceInfo.ProductId);
 744:tof_coms.c    ****             printf("ProductRevisionMajor : %d\n", DeviceInfo.ProductRevisionMajor);
 745:tof_coms.c    ****         printf("ProductRevisionMinor : %d\n", DeviceInfo.ProductRevisionMinor);
 746:tof_coms.c    **** #endif
 747:tof_coms.c    ****         if ((DeviceInfo.ProductRevisionMinor != 1) && (DeviceInfo.ProductRevisionMinor != 1)) {
 2457              		.loc 1 747 0
 2458 0106 3B1D     		adds	r3, r7, #4
 2459 0108 6222     		movs	r2, #98
 2460 010a 9B5C     		ldrb	r3, [r3, r2]
 2461 010c 012B     		cmp	r3, #1
 2462 010e 08D0     		beq	.L102
 2463              		.loc 1 747 0 is_stmt 0 discriminator 1
 2464 0110 3B1D     		adds	r3, r7, #4
 2465 0112 6222     		movs	r2, #98
 2466 0114 9B5C     		ldrb	r3, [r3, r2]
 2467 0116 012B     		cmp	r3, #1
 2468 0118 03D0     		beq	.L102
 748:tof_coms.c    ****         	//printf("Error expected cut 1.1 but found cut %d.%d\n",
 749:tof_coms.c    ****            //            DeviceInfo.ProductRevisionMajor, DeviceInfo.ProductRevisionMinor);
 750:tof_coms.c    ****                 Status = VL53L0X_ERROR_NOT_SUPPORTED;
 2469              		.loc 1 750 0 is_stmt 1
 2470 011a 8723     		movs	r3, #135
 2471 011c FB18     		adds	r3, r7, r3
 2472 011e FB22     		movs	r2, #251
 2473 0120 1A70     		strb	r2, [r3]
 2474              	.L102:
 751:tof_coms.c    ****             
 752:tof_coms.c    ****             }
 753:tof_coms.c    ****         }
 754:tof_coms.c    ****         print_pal_error(Status);
 2475              		.loc 1 754 0
 2476 0122 8723     		movs	r3, #135
 2477 0124 FB18     		adds	r3, r7, r3
 2478 0126 1B78     		ldrb	r3, [r3]
 2479 0128 5BB2     		sxtb	r3, r3
 2480 012a 1800     		movs	r0, r3
 2481 012c FFF7FEFF 		bl	print_pal_error
 2482              	.L101:
 755:tof_coms.c    ****     }
 756:tof_coms.c    **** 
 757:tof_coms.c    ****     if(Status == VL53L0X_ERROR_NONE)
 2483              		.loc 1 757 0
 2484 0130 8723     		movs	r3, #135
 2485 0132 FB18     		adds	r3, r7, r3
 2486 0134 1B78     		ldrb	r3, [r3]
 2487 0136 5BB2     		sxtb	r3, r3
 2488 0138 002B     		cmp	r3, #0
 2489 013a 08D1     		bne	.L103
 758:tof_coms.c    ****     {
 759:tof_coms.c    ****         Status = rangingTest(pMyDevice);
 2490              		.loc 1 759 0
 2491 013c 0E4B     		ldr	r3, .L107+4
 2492 013e 1B68     		ldr	r3, [r3]
ARM GAS  C:\Users\ilya\AppData\Local\Temp\ccGij5YZ.s 			page 59


 2493 0140 8722     		movs	r2, #135
 2494 0142 BC18     		adds	r4, r7, r2
 2495 0144 1800     		movs	r0, r3
 2496 0146 FFF7FEFF 		bl	rangingTest
 2497 014a 0300     		movs	r3, r0
 2498 014c 2370     		strb	r3, [r4]
 2499              	.L103:
 760:tof_coms.c    ****     }
 761:tof_coms.c    **** 
 762:tof_coms.c    ****     print_pal_error(Status);
 2500              		.loc 1 762 0
 2501 014e 8723     		movs	r3, #135
 2502 0150 FB18     		adds	r3, r7, r3
 2503 0152 1B78     		ldrb	r3, [r3]
 2504 0154 5BB2     		sxtb	r3, r3
 2505 0156 1800     		movs	r0, r3
 2506 0158 FFF7FEFF 		bl	print_pal_error
 763:tof_coms.c    **** 
 764:tof_coms.c    **** 
 765:tof_coms.c    **** 
 766:tof_coms.c    ****     print_pal_error(Status);
 2507              		.loc 1 766 0
 2508 015c 8723     		movs	r3, #135
 2509 015e FB18     		adds	r3, r7, r3
 2510 0160 1B78     		ldrb	r3, [r3]
 2511 0162 5BB2     		sxtb	r3, r3
 2512 0164 1800     		movs	r0, r3
 2513 0166 FFF7FEFF 		bl	print_pal_error
 767:tof_coms.c    **** 
 768:tof_coms.c    **** //    printf ("\nPress a Key to continue!");
 769:tof_coms.c    **** //    getchar();
 770:tof_coms.c    **** 
 771:tof_coms.c    ****     return (0);
 2514              		.loc 1 771 0
 2515 016a 0023     		movs	r3, #0
 772:tof_coms.c    **** }
 2516              		.loc 1 772 0
 2517 016c 1800     		movs	r0, r3
 2518 016e BD46     		mov	sp, r7
 2519 0170 23B0     		add	sp, sp, #140
 2520              		@ sp needed
 2521 0172 90BD     		pop	{r4, r7, pc}
 2522              	.L108:
 2523              		.align	2
 2524              	.L107:
 2525 0174 00000000 		.word	MyDevice
 2526 0178 00000000 		.word	pMyDevice
 2527 017c 58010000 		.word	.LC22
 2528              		.cfi_endproc
 2529              	.LFE66:
 2530              		.size	tof_init, .-tof_init
 2531              		.section	.text.tof_measure,"ax",%progbits
 2532              		.align	2
 2533              		.global	tof_measure
 2534              		.code	16
 2535              		.thumb_func
 2536              		.type	tof_measure, %function
ARM GAS  C:\Users\ilya\AppData\Local\Temp\ccGij5YZ.s 			page 60


 2537              	tof_measure:
 2538              	.LFB67:
 773:tof_coms.c    **** 
 774:tof_coms.c    **** 
 775:tof_coms.c    **** int tof_measure(void)
 776:tof_coms.c    ****     {
 2539              		.loc 1 776 0
 2540              		.cfi_startproc
 2541              		@ args = 0, pretend = 0, frame = 32
 2542              		@ frame_needed = 1, uses_anonymous_args = 0
 2543 0000 90B5     		push	{r4, r7, lr}
 2544              		.cfi_def_cfa_offset 12
 2545              		.cfi_offset 4, -12
 2546              		.cfi_offset 7, -8
 2547              		.cfi_offset 14, -4
 2548 0002 89B0     		sub	sp, sp, #36
 2549              		.cfi_def_cfa_offset 48
 2550 0004 00AF     		add	r7, sp, #0
 2551              		.cfi_def_cfa_register 7
 777:tof_coms.c    ****     VL53L0X_Error Status = VL53L0X_ERROR_NONE;
 2552              		.loc 1 777 0
 2553 0006 1F23     		movs	r3, #31
 2554 0008 FB18     		adds	r3, r7, r3
 2555 000a 0022     		movs	r2, #0
 2556 000c 1A70     		strb	r2, [r3]
 778:tof_coms.c    ****     VL53L0X_RangingMeasurementData_t    RangingMeasurementData;
 779:tof_coms.c    ****     Status = VL53L0X_PerformSingleRangingMeasurement(pMyDevice,
 2557              		.loc 1 779 0
 2558 000e 084B     		ldr	r3, .L111
 2559 0010 1B68     		ldr	r3, [r3]
 2560 0012 1F22     		movs	r2, #31
 2561 0014 BC18     		adds	r4, r7, r2
 2562 0016 3A00     		movs	r2, r7
 2563 0018 1100     		movs	r1, r2
 2564 001a 1800     		movs	r0, r3
 2565 001c FFF7FEFF 		bl	VL53L0X_PerformSingleRangingMeasurement
 2566 0020 0300     		movs	r3, r0
 2567 0022 2370     		strb	r3, [r4]
 780:tof_coms.c    ****               		&RangingMeasurementData);
 781:tof_coms.c    **** 
 782:tof_coms.c    **** 
 783:tof_coms.c    ****   //  printf("Measured distance: %i\n\n", RangingMeasurementData.RangeMilliMeter);
 784:tof_coms.c    **** 
 785:tof_coms.c    ****     return RangingMeasurementData.RangeMilliMeter;
 2568              		.loc 1 785 0
 2569 0024 3B00     		movs	r3, r7
 2570 0026 1B89     		ldrh	r3, [r3, #8]
 786:tof_coms.c    ****     }
 2571              		.loc 1 786 0
 2572 0028 1800     		movs	r0, r3
 2573 002a BD46     		mov	sp, r7
 2574 002c 09B0     		add	sp, sp, #36
 2575              		@ sp needed
 2576 002e 90BD     		pop	{r4, r7, pc}
 2577              	.L112:
 2578              		.align	2
 2579              	.L111:
ARM GAS  C:\Users\ilya\AppData\Local\Temp\ccGij5YZ.s 			page 61


 2580 0030 00000000 		.word	pMyDevice
 2581              		.cfi_endproc
 2582              	.LFE67:
 2583              		.size	tof_measure, .-tof_measure
 2584              		.text
 2585              	.Letext0:
 2586              		.file 2 "c:\\program files (x86)\\cypress\\psoc creator\\4.2\\psoc creator\\import\\gnu\\arm\\5.4.
 2587              		.file 3 "c:\\program files (x86)\\cypress\\psoc creator\\4.2\\psoc creator\\import\\gnu\\arm\\5.4.
 2588              		.file 4 ".\\Api\\platform\\inc/vl53l0x_types.h"
 2589              		.file 5 ".\\Api\\core\\inc/vl53l0x_device.h"
 2590              		.file 6 ".\\Api\\core\\inc/vl53l0x_def.h"
 2591              		.file 7 ".\\Api\\platform\\inc/vl53l0x_i2c_platform.h"
 2592              		.file 8 ".\\Api\\platform\\inc/vl53l0x_platform.h"
 2593              		.section	.debug_info,"",%progbits
 2594              	.Ldebug_info0:
 2595 0000 D9120000 		.4byte	0x12d9
 2596 0004 0400     		.2byte	0x4
 2597 0006 00000000 		.4byte	.Ldebug_abbrev0
 2598 000a 04       		.byte	0x4
 2599 000b 01       		.uleb128 0x1
 2600 000c 72010000 		.4byte	.LASF204
 2601 0010 0C       		.byte	0xc
 2602 0011 83070000 		.4byte	.LASF205
 2603 0015 50030000 		.4byte	.LASF206
 2604 0019 00000000 		.4byte	.Ldebug_ranges0+0
 2605 001d 00000000 		.4byte	0
 2606 0021 00000000 		.4byte	.Ldebug_line0
 2607 0025 02       		.uleb128 0x2
 2608 0026 79080000 		.4byte	.LASF0
 2609 002a 02       		.byte	0x2
 2610 002b 1B       		.byte	0x1b
 2611 002c 30000000 		.4byte	0x30
 2612 0030 03       		.uleb128 0x3
 2613 0031 01       		.byte	0x1
 2614 0032 06       		.byte	0x6
 2615 0033 4B0C0000 		.4byte	.LASF2
 2616 0037 02       		.uleb128 0x2
 2617 0038 FC090000 		.4byte	.LASF1
 2618 003c 02       		.byte	0x2
 2619 003d 1D       		.byte	0x1d
 2620 003e 42000000 		.4byte	0x42
 2621 0042 03       		.uleb128 0x3
 2622 0043 01       		.byte	0x1
 2623 0044 08       		.byte	0x8
 2624 0045 0A0B0000 		.4byte	.LASF3
 2625 0049 03       		.uleb128 0x3
 2626 004a 02       		.byte	0x2
 2627 004b 05       		.byte	0x5
 2628 004c 38090000 		.4byte	.LASF4
 2629 0050 02       		.uleb128 0x2
 2630 0051 6A040000 		.4byte	.LASF5
 2631 0055 02       		.byte	0x2
 2632 0056 2B       		.byte	0x2b
 2633 0057 5B000000 		.4byte	0x5b
 2634 005b 03       		.uleb128 0x3
 2635 005c 02       		.byte	0x2
 2636 005d 07       		.byte	0x7
ARM GAS  C:\Users\ilya\AppData\Local\Temp\ccGij5YZ.s 			page 62


 2637 005e 6C0C0000 		.4byte	.LASF6
 2638 0062 02       		.uleb128 0x2
 2639 0063 68010000 		.4byte	.LASF7
 2640 0067 02       		.byte	0x2
 2641 0068 3F       		.byte	0x3f
 2642 0069 6D000000 		.4byte	0x6d
 2643 006d 03       		.uleb128 0x3
 2644 006e 04       		.byte	0x4
 2645 006f 05       		.byte	0x5
 2646 0070 42090000 		.4byte	.LASF8
 2647 0074 02       		.uleb128 0x2
 2648 0075 3E0B0000 		.4byte	.LASF9
 2649 0079 02       		.byte	0x2
 2650 007a 41       		.byte	0x41
 2651 007b 7F000000 		.4byte	0x7f
 2652 007f 03       		.uleb128 0x3
 2653 0080 04       		.byte	0x4
 2654 0081 07       		.byte	0x7
 2655 0082 6A0A0000 		.4byte	.LASF10
 2656 0086 03       		.uleb128 0x3
 2657 0087 08       		.byte	0x8
 2658 0088 05       		.byte	0x5
 2659 0089 61070000 		.4byte	.LASF11
 2660 008d 03       		.uleb128 0x3
 2661 008e 08       		.byte	0x8
 2662 008f 07       		.byte	0x7
 2663 0090 13040000 		.4byte	.LASF12
 2664 0094 04       		.uleb128 0x4
 2665 0095 04       		.byte	0x4
 2666 0096 05       		.byte	0x5
 2667 0097 696E7400 		.ascii	"int\000"
 2668 009b 03       		.uleb128 0x3
 2669 009c 04       		.byte	0x4
 2670 009d 07       		.byte	0x7
 2671 009e E2000000 		.4byte	.LASF13
 2672 00a2 03       		.uleb128 0x3
 2673 00a3 08       		.byte	0x8
 2674 00a4 04       		.byte	0x4
 2675 00a5 C5080000 		.4byte	.LASF14
 2676 00a9 03       		.uleb128 0x3
 2677 00aa 04       		.byte	0x4
 2678 00ab 07       		.byte	0x7
 2679 00ac 4F0A0000 		.4byte	.LASF15
 2680 00b0 05       		.uleb128 0x5
 2681 00b1 04       		.byte	0x4
 2682 00b2 B6000000 		.4byte	0xb6
 2683 00b6 03       		.uleb128 0x3
 2684 00b7 01       		.byte	0x1
 2685 00b8 08       		.byte	0x8
 2686 00b9 34060000 		.4byte	.LASF16
 2687 00bd 05       		.uleb128 0x5
 2688 00be 04       		.byte	0x4
 2689 00bf C3000000 		.4byte	0xc3
 2690 00c3 06       		.uleb128 0x6
 2691 00c4 B6000000 		.4byte	0xb6
 2692 00c8 02       		.uleb128 0x2
 2693 00c9 17030000 		.4byte	.LASF17
ARM GAS  C:\Users\ilya\AppData\Local\Temp\ccGij5YZ.s 			page 63


 2694 00cd 03       		.byte	0x3
 2695 00ce 14       		.byte	0x14
 2696 00cf 25000000 		.4byte	0x25
 2697 00d3 02       		.uleb128 0x2
 2698 00d4 D6060000 		.4byte	.LASF18
 2699 00d8 03       		.byte	0x3
 2700 00d9 18       		.byte	0x18
 2701 00da 37000000 		.4byte	0x37
 2702 00de 02       		.uleb128 0x2
 2703 00df DA080000 		.4byte	.LASF19
 2704 00e3 03       		.byte	0x3
 2705 00e4 24       		.byte	0x24
 2706 00e5 50000000 		.4byte	0x50
 2707 00e9 02       		.uleb128 0x2
 2708 00ea B40A0000 		.4byte	.LASF20
 2709 00ee 03       		.byte	0x3
 2710 00ef 2C       		.byte	0x2c
 2711 00f0 62000000 		.4byte	0x62
 2712 00f4 02       		.uleb128 0x2
 2713 00f5 0E030000 		.4byte	.LASF21
 2714 00f9 03       		.byte	0x3
 2715 00fa 30       		.byte	0x30
 2716 00fb 74000000 		.4byte	0x74
 2717 00ff 02       		.uleb128 0x2
 2718 0100 C8020000 		.4byte	.LASF22
 2719 0104 04       		.byte	0x4
 2720 0105 6D       		.byte	0x6d
 2721 0106 F4000000 		.4byte	0xf4
 2722 010a 02       		.uleb128 0x2
 2723 010b A0030000 		.4byte	.LASF23
 2724 010f 05       		.byte	0x5
 2725 0110 36       		.byte	0x36
 2726 0111 D3000000 		.4byte	0xd3
 2727 0115 02       		.uleb128 0x2
 2728 0116 E5060000 		.4byte	.LASF24
 2729 011a 05       		.byte	0x5
 2730 011b 64       		.byte	0x64
 2731 011c D3000000 		.4byte	0xd3
 2732 0120 07       		.uleb128 0x7
 2733 0121 08       		.byte	0x8
 2734 0122 06       		.byte	0x6
 2735 0123 64       		.byte	0x64
 2736 0124 59010000 		.4byte	0x159
 2737 0128 08       		.uleb128 0x8
 2738 0129 9D060000 		.4byte	.LASF25
 2739 012d 06       		.byte	0x6
 2740 012e 65       		.byte	0x65
 2741 012f F4000000 		.4byte	0xf4
 2742 0133 00       		.byte	0
 2743 0134 08       		.uleb128 0x8
 2744 0135 C0050000 		.4byte	.LASF26
 2745 0139 06       		.byte	0x6
 2746 013a 66       		.byte	0x66
 2747 013b D3000000 		.4byte	0xd3
 2748 013f 04       		.byte	0x4
 2749 0140 08       		.uleb128 0x8
 2750 0141 3F080000 		.4byte	.LASF27
ARM GAS  C:\Users\ilya\AppData\Local\Temp\ccGij5YZ.s 			page 64


 2751 0145 06       		.byte	0x6
 2752 0146 67       		.byte	0x67
 2753 0147 D3000000 		.4byte	0xd3
 2754 014b 05       		.byte	0x5
 2755 014c 08       		.uleb128 0x8
 2756 014d 16020000 		.4byte	.LASF28
 2757 0151 06       		.byte	0x6
 2758 0152 68       		.byte	0x68
 2759 0153 D3000000 		.4byte	0xd3
 2760 0157 06       		.byte	0x6
 2761 0158 00       		.byte	0
 2762 0159 02       		.uleb128 0x2
 2763 015a 26090000 		.4byte	.LASF29
 2764 015e 06       		.byte	0x6
 2765 015f 69       		.byte	0x69
 2766 0160 20010000 		.4byte	0x120
 2767 0164 07       		.uleb128 0x7
 2768 0165 63       		.byte	0x63
 2769 0166 06       		.byte	0x6
 2770 0167 6E       		.byte	0x6e
 2771 0168 B5010000 		.4byte	0x1b5
 2772 016c 08       		.uleb128 0x8
 2773 016d A8040000 		.4byte	.LASF30
 2774 0171 06       		.byte	0x6
 2775 0172 6F       		.byte	0x6f
 2776 0173 B5010000 		.4byte	0x1b5
 2777 0177 00       		.byte	0
 2778 0178 08       		.uleb128 0x8
 2779 0179 29070000 		.4byte	.LASF31
 2780 017d 06       		.byte	0x6
 2781 017e 71       		.byte	0x71
 2782 017f B5010000 		.4byte	0x1b5
 2783 0183 20       		.byte	0x20
 2784 0184 08       		.uleb128 0x8
 2785 0185 2A010000 		.4byte	.LASF32
 2786 0189 06       		.byte	0x6
 2787 018a 73       		.byte	0x73
 2788 018b B5010000 		.4byte	0x1b5
 2789 018f 40       		.byte	0x40
 2790 0190 08       		.uleb128 0x8
 2791 0191 C00B0000 		.4byte	.LASF33
 2792 0195 06       		.byte	0x6
 2793 0196 75       		.byte	0x75
 2794 0197 D3000000 		.4byte	0xd3
 2795 019b 60       		.byte	0x60
 2796 019c 08       		.uleb128 0x8
 2797 019d 40000000 		.4byte	.LASF34
 2798 01a1 06       		.byte	0x6
 2799 01a2 77       		.byte	0x77
 2800 01a3 D3000000 		.4byte	0xd3
 2801 01a7 61       		.byte	0x61
 2802 01a8 08       		.uleb128 0x8
 2803 01a9 C2030000 		.4byte	.LASF35
 2804 01ad 06       		.byte	0x6
 2805 01ae 79       		.byte	0x79
 2806 01af D3000000 		.4byte	0xd3
 2807 01b3 62       		.byte	0x62
ARM GAS  C:\Users\ilya\AppData\Local\Temp\ccGij5YZ.s 			page 65


 2808 01b4 00       		.byte	0
 2809 01b5 09       		.uleb128 0x9
 2810 01b6 B6000000 		.4byte	0xb6
 2811 01ba C5010000 		.4byte	0x1c5
 2812 01be 0A       		.uleb128 0xa
 2813 01bf A9000000 		.4byte	0xa9
 2814 01c3 1F       		.byte	0x1f
 2815 01c4 00       		.byte	0
 2816 01c5 02       		.uleb128 0x2
 2817 01c6 96020000 		.4byte	.LASF36
 2818 01ca 06       		.byte	0x6
 2819 01cb 7B       		.byte	0x7b
 2820 01cc 64010000 		.4byte	0x164
 2821 01d0 02       		.uleb128 0x2
 2822 01d1 210A0000 		.4byte	.LASF37
 2823 01d5 06       		.byte	0x6
 2824 01d6 83       		.byte	0x83
 2825 01d7 C8000000 		.4byte	0xc8
 2826 01db 02       		.uleb128 0x2
 2827 01dc 6F070000 		.4byte	.LASF38
 2828 01e0 06       		.byte	0x6
 2829 01e1 B5       		.byte	0xb5
 2830 01e2 D3000000 		.4byte	0xd3
 2831 01e6 02       		.uleb128 0x2
 2832 01e7 35070000 		.4byte	.LASF39
 2833 01eb 06       		.byte	0x6
 2834 01ec C7       		.byte	0xc7
 2835 01ed D3000000 		.4byte	0xd3
 2836 01f1 02       		.uleb128 0x2
 2837 01f2 17010000 		.4byte	.LASF40
 2838 01f6 06       		.byte	0x6
 2839 01f7 DA       		.byte	0xda
 2840 01f8 D3000000 		.4byte	0xd3
 2841 01fc 07       		.uleb128 0x7
 2842 01fd 40       		.byte	0x40
 2843 01fe 06       		.byte	0x6
 2844 01ff EA       		.byte	0xea
 2845 0200 98020000 		.4byte	0x298
 2846 0204 08       		.uleb128 0x8
 2847 0205 9D080000 		.4byte	.LASF41
 2848 0209 06       		.byte	0x6
 2849 020a EB       		.byte	0xeb
 2850 020b DB010000 		.4byte	0x1db
 2851 020f 00       		.byte	0
 2852 0210 08       		.uleb128 0x8
 2853 0211 55000000 		.4byte	.LASF42
 2854 0215 06       		.byte	0x6
 2855 0216 ED       		.byte	0xed
 2856 0217 E6010000 		.4byte	0x1e6
 2857 021b 01       		.byte	0x1
 2858 021c 08       		.uleb128 0x8
 2859 021d 68060000 		.4byte	.LASF43
 2860 0221 06       		.byte	0x6
 2861 0222 F0       		.byte	0xf0
 2862 0223 F4000000 		.4byte	0xf4
 2863 0227 04       		.byte	0x4
 2864 0228 08       		.uleb128 0x8
ARM GAS  C:\Users\ilya\AppData\Local\Temp\ccGij5YZ.s 			page 66


 2865 0229 1B050000 		.4byte	.LASF44
 2866 022d 06       		.byte	0x6
 2867 022e F2       		.byte	0xf2
 2868 022f F4000000 		.4byte	0xf4
 2869 0233 08       		.byte	0x8
 2870 0234 08       		.uleb128 0x8
 2871 0235 7E000000 		.4byte	.LASF45
 2872 0239 06       		.byte	0x6
 2873 023a F5       		.byte	0xf5
 2874 023b D3000000 		.4byte	0xd3
 2875 023f 0C       		.byte	0xc
 2876 0240 08       		.uleb128 0x8
 2877 0241 EF000000 		.4byte	.LASF46
 2878 0245 06       		.byte	0x6
 2879 0246 F7       		.byte	0xf7
 2880 0247 DE000000 		.4byte	0xde
 2881 024b 0E       		.byte	0xe
 2882 024c 08       		.uleb128 0x8
 2883 024d A8080000 		.4byte	.LASF47
 2884 0251 06       		.byte	0x6
 2885 0252 F9       		.byte	0xf9
 2886 0253 FF000000 		.4byte	0xff
 2887 0257 10       		.byte	0x10
 2888 0258 08       		.uleb128 0x8
 2889 0259 C6050000 		.4byte	.LASF48
 2890 025d 06       		.byte	0x6
 2891 025e FC       		.byte	0xfc
 2892 025f E9000000 		.4byte	0xe9
 2893 0263 14       		.byte	0x14
 2894 0264 08       		.uleb128 0x8
 2895 0265 34010000 		.4byte	.LASF49
 2896 0269 06       		.byte	0x6
 2897 026a FF       		.byte	0xff
 2898 026b 98020000 		.4byte	0x298
 2899 026f 18       		.byte	0x18
 2900 0270 0B       		.uleb128 0xb
 2901 0271 67020000 		.4byte	.LASF50
 2902 0275 06       		.byte	0x6
 2903 0276 0101     		.2byte	0x101
 2904 0278 98020000 		.4byte	0x298
 2905 027c 1E       		.byte	0x1e
 2906 027d 0B       		.uleb128 0xb
 2907 027e 8C050000 		.4byte	.LASF51
 2908 0282 06       		.byte	0x6
 2909 0283 0401     		.2byte	0x104
 2910 0285 A8020000 		.4byte	0x2a8
 2911 0289 24       		.byte	0x24
 2912 028a 0B       		.uleb128 0xb
 2913 028b 47020000 		.4byte	.LASF52
 2914 028f 06       		.byte	0x6
 2915 0290 0701     		.2byte	0x107
 2916 0292 D3000000 		.4byte	0xd3
 2917 0296 3C       		.byte	0x3c
 2918 0297 00       		.byte	0
 2919 0298 09       		.uleb128 0x9
 2920 0299 D3000000 		.4byte	0xd3
 2921 029d A8020000 		.4byte	0x2a8
ARM GAS  C:\Users\ilya\AppData\Local\Temp\ccGij5YZ.s 			page 67


 2922 02a1 0A       		.uleb128 0xa
 2923 02a2 A9000000 		.4byte	0xa9
 2924 02a6 05       		.byte	0x5
 2925 02a7 00       		.byte	0
 2926 02a8 09       		.uleb128 0x9
 2927 02a9 FF000000 		.4byte	0xff
 2928 02ad B8020000 		.4byte	0x2b8
 2929 02b1 0A       		.uleb128 0xa
 2930 02b2 A9000000 		.4byte	0xa9
 2931 02b6 05       		.byte	0x5
 2932 02b7 00       		.byte	0
 2933 02b8 0C       		.uleb128 0xc
 2934 02b9 79030000 		.4byte	.LASF53
 2935 02bd 06       		.byte	0x6
 2936 02be 0901     		.2byte	0x109
 2937 02c0 FC010000 		.4byte	0x1fc
 2938 02c4 0C       		.uleb128 0xc
 2939 02c5 4B080000 		.4byte	.LASF54
 2940 02c9 06       		.byte	0x6
 2941 02ca 1101     		.2byte	0x111
 2942 02cc D3000000 		.4byte	0xd3
 2943 02d0 0D       		.uleb128 0xd
 2944 02d1 08       		.byte	0x8
 2945 02d2 06       		.byte	0x6
 2946 02d3 2701     		.2byte	0x127
 2947 02d5 F4020000 		.4byte	0x2f4
 2948 02d9 0B       		.uleb128 0xb
 2949 02da 2A040000 		.4byte	.LASF55
 2950 02de 06       		.byte	0x6
 2951 02df 2801     		.2byte	0x128
 2952 02e1 E9000000 		.4byte	0xe9
 2953 02e5 00       		.byte	0
 2954 02e6 0B       		.uleb128 0xb
 2955 02e7 30080000 		.4byte	.LASF56
 2956 02eb 06       		.byte	0x6
 2957 02ec 2A01     		.2byte	0x12a
 2958 02ee E9000000 		.4byte	0xe9
 2959 02f2 04       		.byte	0x4
 2960 02f3 00       		.byte	0
 2961 02f4 0C       		.uleb128 0xc
 2962 02f5 66080000 		.4byte	.LASF57
 2963 02f9 06       		.byte	0x6
 2964 02fa 2C01     		.2byte	0x12c
 2965 02fc D0020000 		.4byte	0x2d0
 2966 0300 0D       		.uleb128 0xd
 2967 0301 1C       		.byte	0x1c
 2968 0302 06       		.byte	0x6
 2969 0303 3201     		.2byte	0x132
 2970 0305 8C030000 		.4byte	0x38c
 2971 0309 0B       		.uleb128 0xb
 2972 030a 2C0D0000 		.4byte	.LASF58
 2973 030e 06       		.byte	0x6
 2974 030f 3301     		.2byte	0x133
 2975 0311 F4000000 		.4byte	0xf4
 2976 0315 00       		.byte	0
 2977 0316 0B       		.uleb128 0xb
 2978 0317 20060000 		.4byte	.LASF59
ARM GAS  C:\Users\ilya\AppData\Local\Temp\ccGij5YZ.s 			page 68


 2979 031b 06       		.byte	0x6
 2980 031c 3401     		.2byte	0x134
 2981 031e F4000000 		.4byte	0xf4
 2982 0322 04       		.byte	0x4
 2983 0323 0B       		.uleb128 0xb
 2984 0324 BC0C0000 		.4byte	.LASF60
 2985 0328 06       		.byte	0x6
 2986 0329 3901     		.2byte	0x139
 2987 032b DE000000 		.4byte	0xde
 2988 032f 08       		.byte	0x8
 2989 0330 0B       		.uleb128 0xb
 2990 0331 79020000 		.4byte	.LASF61
 2991 0335 06       		.byte	0x6
 2992 0336 3B01     		.2byte	0x13b
 2993 0338 DE000000 		.4byte	0xde
 2994 033c 0A       		.byte	0xa
 2995 033d 0B       		.uleb128 0xb
 2996 033e 1E000000 		.4byte	.LASF62
 2997 0342 06       		.byte	0x6
 2998 0343 4001     		.2byte	0x140
 2999 0345 FF000000 		.4byte	0xff
 3000 0349 0C       		.byte	0xc
 3001 034a 0B       		.uleb128 0xb
 3002 034b 52010000 		.4byte	.LASF63
 3003 034f 06       		.byte	0x6
 3004 0350 4401     		.2byte	0x144
 3005 0352 FF000000 		.4byte	0xff
 3006 0356 10       		.byte	0x10
 3007 0357 0B       		.uleb128 0xb
 3008 0358 FC040000 		.4byte	.LASF64
 3009 035c 06       		.byte	0x6
 3010 035d 4901     		.2byte	0x149
 3011 035f DE000000 		.4byte	0xde
 3012 0363 14       		.byte	0x14
 3013 0364 0B       		.uleb128 0xb
 3014 0365 CB090000 		.4byte	.LASF65
 3015 0369 06       		.byte	0x6
 3016 036a 4D01     		.2byte	0x14d
 3017 036c D3000000 		.4byte	0xd3
 3018 0370 16       		.byte	0x16
 3019 0371 0B       		.uleb128 0xb
 3020 0372 F20C0000 		.4byte	.LASF66
 3021 0376 06       		.byte	0x6
 3022 0377 5001     		.2byte	0x150
 3023 0379 D3000000 		.4byte	0xd3
 3024 037d 17       		.byte	0x17
 3025 037e 0B       		.uleb128 0xb
 3026 037f 4C070000 		.4byte	.LASF67
 3027 0383 06       		.byte	0x6
 3028 0384 5301     		.2byte	0x153
 3029 0386 D3000000 		.4byte	0xd3
 3030 038a 18       		.byte	0x18
 3031 038b 00       		.byte	0
 3032 038c 0C       		.uleb128 0xc
 3033 038d E3080000 		.4byte	.LASF68
 3034 0391 06       		.byte	0x6
 3035 0392 5701     		.2byte	0x157
ARM GAS  C:\Users\ilya\AppData\Local\Temp\ccGij5YZ.s 			page 69


 3036 0394 00030000 		.4byte	0x300
 3037 0398 0D       		.uleb128 0xd
 3038 0399 68       		.byte	0x68
 3039 039a 06       		.byte	0x6
 3040 039b 6001     		.2byte	0x160
 3041 039d F0030000 		.4byte	0x3f0
 3042 03a1 0B       		.uleb128 0xb
 3043 03a2 75050000 		.4byte	.LASF69
 3044 03a6 06       		.byte	0x6
 3045 03a7 6201     		.2byte	0x162
 3046 03a9 F0030000 		.4byte	0x3f0
 3047 03ad 00       		.byte	0
 3048 03ae 0B       		.uleb128 0xb
 3049 03af 31030000 		.4byte	.LASF70
 3050 03b3 06       		.byte	0x6
 3051 03b4 6401     		.2byte	0x164
 3052 03b6 D3000000 		.4byte	0xd3
 3053 03ba 60       		.byte	0x60
 3054 03bb 0B       		.uleb128 0xb
 3055 03bc 58070000 		.4byte	.LASF71
 3056 03c0 06       		.byte	0x6
 3057 03c1 6601     		.2byte	0x166
 3058 03c3 D3000000 		.4byte	0xd3
 3059 03c7 61       		.byte	0x61
 3060 03c8 0B       		.uleb128 0xb
 3061 03c9 A6060000 		.4byte	.LASF72
 3062 03cd 06       		.byte	0x6
 3063 03ce 6701     		.2byte	0x167
 3064 03d0 D3000000 		.4byte	0xd3
 3065 03d4 62       		.byte	0x62
 3066 03d5 0B       		.uleb128 0xb
 3067 03d6 180B0000 		.4byte	.LASF73
 3068 03da 06       		.byte	0x6
 3069 03db 6801     		.2byte	0x168
 3070 03dd D3000000 		.4byte	0xd3
 3071 03e1 63       		.byte	0x63
 3072 03e2 0B       		.uleb128 0xb
 3073 03e3 46010000 		.4byte	.LASF74
 3074 03e7 06       		.byte	0x6
 3075 03e8 6B01     		.2byte	0x16b
 3076 03ea 0A010000 		.4byte	0x10a
 3077 03ee 64       		.byte	0x64
 3078 03ef 00       		.byte	0
 3079 03f0 09       		.uleb128 0x9
 3080 03f1 F4000000 		.4byte	0xf4
 3081 03f5 00040000 		.4byte	0x400
 3082 03f9 0A       		.uleb128 0xa
 3083 03fa A9000000 		.4byte	0xa9
 3084 03fe 17       		.byte	0x17
 3085 03ff 00       		.byte	0
 3086 0400 0C       		.uleb128 0xc
 3087 0401 360D0000 		.4byte	.LASF75
 3088 0405 06       		.byte	0x6
 3089 0406 6E01     		.2byte	0x16e
 3090 0408 98030000 		.4byte	0x398
 3091 040c 0D       		.uleb128 0xd
 3092 040d 0C       		.byte	0xc
ARM GAS  C:\Users\ilya\AppData\Local\Temp\ccGij5YZ.s 			page 70


 3093 040e 06       		.byte	0x6
 3094 040f 7601     		.2byte	0x176
 3095 0411 30040000 		.4byte	0x430
 3096 0415 0B       		.uleb128 0xb
 3097 0416 99040000 		.4byte	.LASF76
 3098 041a 06       		.byte	0x6
 3099 041b 7701     		.2byte	0x177
 3100 041d 98020000 		.4byte	0x298
 3101 0421 00       		.byte	0
 3102 0422 0B       		.uleb128 0xb
 3103 0423 120A0000 		.4byte	.LASF77
 3104 0427 06       		.byte	0x6
 3105 0428 7901     		.2byte	0x179
 3106 042a 98020000 		.4byte	0x298
 3107 042e 06       		.byte	0x6
 3108 042f 00       		.byte	0
 3109 0430 0C       		.uleb128 0xc
 3110 0431 C3060000 		.4byte	.LASF78
 3111 0435 06       		.byte	0x6
 3112 0436 7B01     		.2byte	0x17b
 3113 0438 0C040000 		.4byte	0x40c
 3114 043c 0D       		.uleb128 0xd
 3115 043d 50       		.byte	0x50
 3116 043e 06       		.byte	0x6
 3117 043f 7D01     		.2byte	0x17d
 3118 0441 4A050000 		.4byte	0x54a
 3119 0445 0B       		.uleb128 0xb
 3120 0446 5A040000 		.4byte	.LASF79
 3121 044a 06       		.byte	0x6
 3122 044b 7E01     		.2byte	0x17e
 3123 044d FF000000 		.4byte	0xff
 3124 0451 00       		.byte	0
 3125 0452 0B       		.uleb128 0xb
 3126 0453 060D0000 		.4byte	.LASF80
 3127 0457 06       		.byte	0x6
 3128 0458 8001     		.2byte	0x180
 3129 045a DE000000 		.4byte	0xde
 3130 045e 04       		.byte	0x4
 3131 045f 0B       		.uleb128 0xb
 3132 0460 CC0B0000 		.4byte	.LASF81
 3133 0464 06       		.byte	0x6
 3134 0465 8301     		.2byte	0x183
 3135 0467 15010000 		.4byte	0x115
 3136 046b 06       		.byte	0x6
 3137 046c 0B       		.uleb128 0xb
 3138 046d B0090000 		.4byte	.LASF82
 3139 0471 06       		.byte	0x6
 3140 0472 8601     		.2byte	0x186
 3141 0474 F4000000 		.4byte	0xf4
 3142 0478 08       		.byte	0x8
 3143 0479 0B       		.uleb128 0xb
 3144 047a 650B0000 		.4byte	.LASF83
 3145 047e 06       		.byte	0x6
 3146 047f 8801     		.2byte	0x188
 3147 0481 D3000000 		.4byte	0xd3
 3148 0485 0C       		.byte	0xc
 3149 0486 0B       		.uleb128 0xb
ARM GAS  C:\Users\ilya\AppData\Local\Temp\ccGij5YZ.s 			page 71


 3150 0487 250B0000 		.4byte	.LASF84
 3151 048b 06       		.byte	0x6
 3152 048c 8A01     		.2byte	0x18a
 3153 048e F4000000 		.4byte	0xf4
 3154 0492 10       		.byte	0x10
 3155 0493 0B       		.uleb128 0xb
 3156 0494 A9000000 		.4byte	.LASF85
 3157 0498 06       		.byte	0x6
 3158 0499 8C01     		.2byte	0x18c
 3159 049b D3000000 		.4byte	0xd3
 3160 049f 14       		.byte	0x14
 3161 04a0 0B       		.uleb128 0xb
 3162 04a1 DA0C0000 		.4byte	.LASF86
 3163 04a5 06       		.byte	0x6
 3164 04a6 8F01     		.2byte	0x18f
 3165 04a8 DE000000 		.4byte	0xde
 3166 04ac 16       		.byte	0x16
 3167 04ad 0B       		.uleb128 0xb
 3168 04ae F4050000 		.4byte	.LASF87
 3169 04b2 06       		.byte	0x6
 3170 04b3 9101     		.2byte	0x191
 3171 04b5 DE000000 		.4byte	0xde
 3172 04b9 18       		.byte	0x18
 3173 04ba 0B       		.uleb128 0xb
 3174 04bb E10A0000 		.4byte	.LASF88
 3175 04bf 06       		.byte	0x6
 3176 04c0 9401     		.2byte	0x194
 3177 04c2 DE000000 		.4byte	0xde
 3178 04c6 1A       		.byte	0x1a
 3179 04c7 0B       		.uleb128 0xb
 3180 04c8 51060000 		.4byte	.LASF89
 3181 04cc 06       		.byte	0x6
 3182 04cd 9901     		.2byte	0x199
 3183 04cf D3000000 		.4byte	0xd3
 3184 04d3 1C       		.byte	0x1c
 3185 04d4 0B       		.uleb128 0xb
 3186 04d5 6C050000 		.4byte	.LASF90
 3187 04d9 06       		.byte	0x6
 3188 04da 9B01     		.2byte	0x19b
 3189 04dc D3000000 		.4byte	0xd3
 3190 04e0 1D       		.byte	0x1d
 3191 04e1 0B       		.uleb128 0xb
 3192 04e2 8D020000 		.4byte	.LASF91
 3193 04e6 06       		.byte	0x6
 3194 04e7 9C01     		.2byte	0x19c
 3195 04e9 D3000000 		.4byte	0xd3
 3196 04ed 1E       		.byte	0x1e
 3197 04ee 0B       		.uleb128 0xb
 3198 04ef 2A010000 		.4byte	.LASF32
 3199 04f3 06       		.byte	0x6
 3200 04f4 9D01     		.2byte	0x19d
 3201 04f6 B5010000 		.4byte	0x1b5
 3202 04fa 1F       		.byte	0x1f
 3203 04fb 0B       		.uleb128 0xb
 3204 04fc 3E050000 		.4byte	.LASF92
 3205 0500 06       		.byte	0x6
 3206 0501 9F01     		.2byte	0x19f
ARM GAS  C:\Users\ilya\AppData\Local\Temp\ccGij5YZ.s 			page 72


 3207 0503 D3000000 		.4byte	0xd3
 3208 0507 3F       		.byte	0x3f
 3209 0508 0B       		.uleb128 0xb
 3210 0509 0C000000 		.4byte	.LASF93
 3211 050d 06       		.byte	0x6
 3212 050e A001     		.2byte	0x1a0
 3213 0510 D3000000 		.4byte	0xd3
 3214 0514 40       		.byte	0x40
 3215 0515 0B       		.uleb128 0xb
 3216 0516 8E070000 		.4byte	.LASF94
 3217 051a 06       		.byte	0x6
 3218 051b A101     		.2byte	0x1a1
 3219 051d D3000000 		.4byte	0xd3
 3220 0521 41       		.byte	0x41
 3221 0522 0B       		.uleb128 0xb
 3222 0523 53090000 		.4byte	.LASF95
 3223 0527 06       		.byte	0x6
 3224 0528 A201     		.2byte	0x1a2
 3225 052a F4000000 		.4byte	0xf4
 3226 052e 44       		.byte	0x44
 3227 052f 0B       		.uleb128 0xb
 3228 0530 33000000 		.4byte	.LASF96
 3229 0534 06       		.byte	0x6
 3230 0535 A301     		.2byte	0x1a3
 3231 0537 F4000000 		.4byte	0xf4
 3232 053b 48       		.byte	0x48
 3233 053c 0B       		.uleb128 0xb
 3234 053d 5E0D0000 		.4byte	.LASF97
 3235 0541 06       		.byte	0x6
 3236 0542 A401     		.2byte	0x1a4
 3237 0544 FF000000 		.4byte	0xff
 3238 0548 4C       		.byte	0x4c
 3239 0549 00       		.byte	0
 3240 054a 0C       		.uleb128 0xc
 3241 054b D7020000 		.4byte	.LASF98
 3242 054f 06       		.byte	0x6
 3243 0550 A701     		.2byte	0x1a7
 3244 0552 3C040000 		.4byte	0x43c
 3245 0556 0E       		.uleb128 0xe
 3246 0557 5C01     		.2byte	0x15c
 3247 0559 06       		.byte	0x6
 3248 055a B101     		.2byte	0x1b1
 3249 055c B8060000 		.4byte	0x6b8
 3250 0560 0B       		.uleb128 0xb
 3251 0561 17060000 		.4byte	.LASF99
 3252 0565 06       		.byte	0x6
 3253 0566 B201     		.2byte	0x1b2
 3254 0568 F4020000 		.4byte	0x2f4
 3255 056c 00       		.byte	0
 3256 056d 0B       		.uleb128 0xb
 3257 056e AB020000 		.4byte	.LASF100
 3258 0572 06       		.byte	0x6
 3259 0573 B401     		.2byte	0x1b4
 3260 0575 E9000000 		.4byte	0xe9
 3261 0579 08       		.byte	0x8
 3262 057a 0B       		.uleb128 0xb
 3263 057b EC030000 		.4byte	.LASF101
ARM GAS  C:\Users\ilya\AppData\Local\Temp\ccGij5YZ.s 			page 73


 3264 057f 06       		.byte	0x6
 3265 0580 B601     		.2byte	0x1b6
 3266 0582 E9000000 		.4byte	0xe9
 3267 0586 0C       		.byte	0xc
 3268 0587 0B       		.uleb128 0xb
 3269 0588 580A0000 		.4byte	.LASF102
 3270 058c 06       		.byte	0x6
 3271 058d B801     		.2byte	0x1b8
 3272 058f B8020000 		.4byte	0x2b8
 3273 0593 10       		.byte	0x10
 3274 0594 0B       		.uleb128 0xb
 3275 0595 8C060000 		.4byte	.LASF103
 3276 0599 06       		.byte	0x6
 3277 059a BA01     		.2byte	0x1ba
 3278 059c 8C030000 		.4byte	0x38c
 3279 05a0 50       		.byte	0x50
 3280 05a1 0B       		.uleb128 0xb
 3281 05a2 570C0000 		.4byte	.LASF104
 3282 05a6 06       		.byte	0x6
 3283 05a7 BC01     		.2byte	0x1bc
 3284 05a9 00040000 		.4byte	0x400
 3285 05ad 6C       		.byte	0x6c
 3286 05ae 0B       		.uleb128 0xb
 3287 05af 840A0000 		.4byte	.LASF105
 3288 05b3 06       		.byte	0x6
 3289 05b4 BE01     		.2byte	0x1be
 3290 05b6 4A050000 		.4byte	0x54a
 3291 05ba D4       		.byte	0xd4
 3292 05bb 0F       		.uleb128 0xf
 3293 05bc 12050000 		.4byte	.LASF106
 3294 05c0 06       		.byte	0x6
 3295 05c1 C001     		.2byte	0x1c0
 3296 05c3 30040000 		.4byte	0x430
 3297 05c7 2401     		.2byte	0x124
 3298 05c9 0F       		.uleb128 0xf
 3299 05ca 17090000 		.4byte	.LASF107
 3300 05ce 06       		.byte	0x6
 3301 05cf C201     		.2byte	0x1c2
 3302 05d1 D3000000 		.4byte	0xd3
 3303 05d5 3001     		.2byte	0x130
 3304 05d7 0F       		.uleb128 0xf
 3305 05d8 920C0000 		.4byte	.LASF108
 3306 05dc 06       		.byte	0x6
 3307 05dd C401     		.2byte	0x1c4
 3308 05df D3000000 		.4byte	0xd3
 3309 05e3 3101     		.2byte	0x131
 3310 05e5 0F       		.uleb128 0xf
 3311 05e6 230D0000 		.4byte	.LASF109
 3312 05ea 06       		.byte	0x6
 3313 05eb C601     		.2byte	0x1c6
 3314 05ed C4020000 		.4byte	0x2c4
 3315 05f1 3201     		.2byte	0x132
 3316 05f3 0F       		.uleb128 0xf
 3317 05f4 5D020000 		.4byte	.LASF110
 3318 05f8 06       		.byte	0x6
 3319 05f9 C801     		.2byte	0x1c8
 3320 05fb F1010000 		.4byte	0x1f1
ARM GAS  C:\Users\ilya\AppData\Local\Temp\ccGij5YZ.s 			page 74


 3321 05ff 3301     		.2byte	0x133
 3322 0601 0F       		.uleb128 0xf
 3323 0602 DA0C0000 		.4byte	.LASF86
 3324 0606 06       		.byte	0x6
 3325 0607 CA01     		.2byte	0x1ca
 3326 0609 DE000000 		.4byte	0xde
 3327 060d 3401     		.2byte	0x134
 3328 060f 0F       		.uleb128 0xf
 3329 0610 F4050000 		.4byte	.LASF87
 3330 0614 06       		.byte	0x6
 3331 0615 CC01     		.2byte	0x1cc
 3332 0617 DE000000 		.4byte	0xde
 3333 061b 3601     		.2byte	0x136
 3334 061d 0F       		.uleb128 0xf
 3335 061e E10A0000 		.4byte	.LASF88
 3336 0622 06       		.byte	0x6
 3337 0623 CF01     		.2byte	0x1cf
 3338 0625 DE000000 		.4byte	0xde
 3339 0629 3801     		.2byte	0x138
 3340 062b 0F       		.uleb128 0xf
 3341 062c 0A060000 		.4byte	.LASF111
 3342 0630 06       		.byte	0x6
 3343 0631 D201     		.2byte	0x1d2
 3344 0633 D3000000 		.4byte	0xd3
 3345 0637 3A01     		.2byte	0x13a
 3346 0639 0F       		.uleb128 0xf
 3347 063a B4030000 		.4byte	.LASF112
 3348 063e 06       		.byte	0x6
 3349 063f D401     		.2byte	0x1d4
 3350 0641 DE000000 		.4byte	0xde
 3351 0645 3C01     		.2byte	0x13c
 3352 0647 0F       		.uleb128 0xf
 3353 0648 CC0C0000 		.4byte	.LASF113
 3354 064c 06       		.byte	0x6
 3355 064d D601     		.2byte	0x1d6
 3356 064f FF000000 		.4byte	0xff
 3357 0653 4001     		.2byte	0x140
 3358 0655 0F       		.uleb128 0xf
 3359 0656 60090000 		.4byte	.LASF114
 3360 065a 06       		.byte	0x6
 3361 065b D901     		.2byte	0x1d9
 3362 065d FF000000 		.4byte	0xff
 3363 0661 4401     		.2byte	0x144
 3364 0663 0F       		.uleb128 0xf
 3365 0664 9E090000 		.4byte	.LASF115
 3366 0668 06       		.byte	0x6
 3367 0669 DB01     		.2byte	0x1db
 3368 066b FF000000 		.4byte	0xff
 3369 066f 4801     		.2byte	0x148
 3370 0671 0F       		.uleb128 0xf
 3371 0672 9D0A0000 		.4byte	.LASF116
 3372 0676 06       		.byte	0x6
 3373 0677 DD01     		.2byte	0x1dd
 3374 0679 B8060000 		.4byte	0x6b8
 3375 067d 4C01     		.2byte	0x14c
 3376 067f 0F       		.uleb128 0xf
 3377 0680 AD040000 		.4byte	.LASF117
ARM GAS  C:\Users\ilya\AppData\Local\Temp\ccGij5YZ.s 			page 75


 3378 0684 06       		.byte	0x6
 3379 0685 DF01     		.2byte	0x1df
 3380 0687 D3000000 		.4byte	0xd3
 3381 068b 5001     		.2byte	0x150
 3382 068d 0F       		.uleb128 0xf
 3383 068e E4040000 		.4byte	.LASF118
 3384 0692 06       		.byte	0x6
 3385 0693 E101     		.2byte	0x1e1
 3386 0695 DE000000 		.4byte	0xde
 3387 0699 5201     		.2byte	0x152
 3388 069b 0F       		.uleb128 0xf
 3389 069c DD050000 		.4byte	.LASF119
 3390 06a0 06       		.byte	0x6
 3391 06a1 E301     		.2byte	0x1e3
 3392 06a3 DE000000 		.4byte	0xde
 3393 06a7 5401     		.2byte	0x154
 3394 06a9 0F       		.uleb128 0xf
 3395 06aa 490B0000 		.4byte	.LASF120
 3396 06ae 06       		.byte	0x6
 3397 06af E501     		.2byte	0x1e5
 3398 06b1 FF000000 		.4byte	0xff
 3399 06b5 5801     		.2byte	0x158
 3400 06b7 00       		.byte	0
 3401 06b8 05       		.uleb128 0x5
 3402 06b9 04       		.byte	0x4
 3403 06ba D3000000 		.4byte	0xd3
 3404 06be 0C       		.uleb128 0xc
 3405 06bf 9C0B0000 		.4byte	.LASF121
 3406 06c3 06       		.byte	0x6
 3407 06c4 E801     		.2byte	0x1e8
 3408 06c6 56050000 		.4byte	0x556
 3409 06ca 02       		.uleb128 0x2
 3410 06cb 51050000 		.4byte	.LASF122
 3411 06cf 07       		.byte	0x7
 3412 06d0 33       		.byte	0x33
 3413 06d1 42000000 		.4byte	0x42
 3414 06d5 03       		.uleb128 0x3
 3415 06d6 04       		.byte	0x4
 3416 06d7 04       		.byte	0x4
 3417 06d8 3F030000 		.4byte	.LASF123
 3418 06dc 03       		.uleb128 0x3
 3419 06dd 08       		.byte	0x8
 3420 06de 04       		.byte	0x4
 3421 06df EB0C0000 		.4byte	.LASF124
 3422 06e3 10       		.uleb128 0x10
 3423 06e4 6001     		.2byte	0x160
 3424 06e6 08       		.byte	0x8
 3425 06e7 3A       		.byte	0x3a
 3426 06e8 20070000 		.4byte	0x720
 3427 06ec 08       		.uleb128 0x8
 3428 06ed 590D0000 		.4byte	.LASF125
 3429 06f1 08       		.byte	0x8
 3430 06f2 3B       		.byte	0x3b
 3431 06f3 BE060000 		.4byte	0x6be
 3432 06f7 00       		.byte	0
 3433 06f8 11       		.uleb128 0x11
 3434 06f9 92080000 		.4byte	.LASF126
ARM GAS  C:\Users\ilya\AppData\Local\Temp\ccGij5YZ.s 			page 76


 3435 06fd 08       		.byte	0x8
 3436 06fe 3E       		.byte	0x3e
 3437 06ff D3000000 		.4byte	0xd3
 3438 0703 5C01     		.2byte	0x15c
 3439 0705 11       		.uleb128 0x11
 3440 0706 2F0A0000 		.4byte	.LASF127
 3441 070a 08       		.byte	0x8
 3442 070b 3F       		.byte	0x3f
 3443 070c D3000000 		.4byte	0xd3
 3444 0710 5D01     		.2byte	0x15d
 3445 0712 11       		.uleb128 0x11
 3446 0713 9D050000 		.4byte	.LASF128
 3447 0717 08       		.byte	0x8
 3448 0718 40       		.byte	0x40
 3449 0719 DE000000 		.4byte	0xde
 3450 071d 5E01     		.2byte	0x15e
 3451 071f 00       		.byte	0
 3452 0720 02       		.uleb128 0x2
 3453 0721 2E020000 		.4byte	.LASF129
 3454 0725 08       		.byte	0x8
 3455 0726 42       		.byte	0x42
 3456 0727 E3060000 		.4byte	0x6e3
 3457 072b 05       		.uleb128 0x5
 3458 072c 04       		.byte	0x4
 3459 072d 20070000 		.4byte	0x720
 3460 0731 12       		.uleb128 0x12
 3461 0732 A2070000 		.4byte	.LASF178
 3462 0736 01       		.byte	0x1
 3463 0737 3C       		.byte	0x3c
 3464 0738 00000000 		.4byte	.LFB35
 3465 073c 12000000 		.4byte	.LFE35-.LFB35
 3466 0740 01       		.uleb128 0x1
 3467 0741 9C       		.byte	0x9c
 3468 0742 56070000 		.4byte	0x756
 3469 0746 13       		.uleb128 0x13
 3470 0747 666D7400 		.ascii	"fmt\000"
 3471 074b 01       		.byte	0x1
 3472 074c 3C       		.byte	0x3c
 3473 074d BD000000 		.4byte	0xbd
 3474 0751 02       		.uleb128 0x2
 3475 0752 91       		.byte	0x91
 3476 0753 70       		.sleb128 -16
 3477 0754 14       		.uleb128 0x14
 3478 0755 00       		.byte	0
 3479 0756 15       		.uleb128 0x15
 3480 0757 7F0C0000 		.4byte	.LASF132
 3481 075b 01       		.byte	0x1
 3482 075c 51       		.byte	0x51
 3483 075d CA060000 		.4byte	0x6ca
 3484 0761 00000000 		.4byte	.LFB36
 3485 0765 0C000000 		.4byte	.LFE36-.LFB36
 3486 0769 01       		.uleb128 0x1
 3487 076a 9C       		.byte	0x9c
 3488 076b 16       		.uleb128 0x16
 3489 076c EB090000 		.4byte	.LASF134
 3490 0770 01       		.byte	0x1
 3491 0771 56       		.byte	0x56
ARM GAS  C:\Users\ilya\AppData\Local\Temp\ccGij5YZ.s 			page 77


 3492 0772 94000000 		.4byte	0x94
 3493 0776 00000000 		.4byte	.LFB37
 3494 077a 14000000 		.4byte	.LFE37-.LFB37
 3495 077e 01       		.uleb128 0x1
 3496 077f 9C       		.byte	0x9c
 3497 0780 A1070000 		.4byte	0x7a1
 3498 0784 17       		.uleb128 0x17
 3499 0785 E0090000 		.4byte	.LASF130
 3500 0789 01       		.byte	0x1
 3501 078a 56       		.byte	0x56
 3502 078b B0000000 		.4byte	0xb0
 3503 078f 02       		.uleb128 0x2
 3504 0790 91       		.byte	0x91
 3505 0791 74       		.sleb128 -12
 3506 0792 17       		.uleb128 0x17
 3507 0793 D1080000 		.4byte	.LASF131
 3508 0797 01       		.byte	0x1
 3509 0798 56       		.byte	0x56
 3510 0799 9B000000 		.4byte	0x9b
 3511 079d 02       		.uleb128 0x2
 3512 079e 91       		.byte	0x91
 3513 079f 70       		.sleb128 -16
 3514 07a0 00       		.byte	0
 3515 07a1 15       		.uleb128 0x15
 3516 07a2 FC070000 		.4byte	.LASF133
 3517 07a6 01       		.byte	0x1
 3518 07a7 5B       		.byte	0x5b
 3519 07a8 E9000000 		.4byte	0xe9
 3520 07ac 00000000 		.4byte	.LFB38
 3521 07b0 0C000000 		.4byte	.LFE38-.LFB38
 3522 07b4 01       		.uleb128 0x1
 3523 07b5 9C       		.byte	0x9c
 3524 07b6 18       		.uleb128 0x18
 3525 07b7 A80C0000 		.4byte	.LASF135
 3526 07bb 01       		.byte	0x1
 3527 07bc 60       		.byte	0x60
 3528 07bd E9000000 		.4byte	0xe9
 3529 07c1 00000000 		.4byte	.LFB39
 3530 07c5 92000000 		.4byte	.LFE39-.LFB39
 3531 07c9 01       		.uleb128 0x1
 3532 07ca 9C       		.byte	0x9c
 3533 07cb 66080000 		.4byte	0x866
 3534 07cf 17       		.uleb128 0x17
 3535 07d0 7C0A0000 		.4byte	.LASF136
 3536 07d4 01       		.byte	0x1
 3537 07d5 60       		.byte	0x60
 3538 07d6 D3000000 		.4byte	0xd3
 3539 07da 02       		.uleb128 0x2
 3540 07db 91       		.byte	0x91
 3541 07dc 5F       		.sleb128 -33
 3542 07dd 13       		.uleb128 0x13
 3543 07de 72656700 		.ascii	"reg\000"
 3544 07e2 01       		.byte	0x1
 3545 07e3 60       		.byte	0x60
 3546 07e4 D3000000 		.4byte	0xd3
 3547 07e8 02       		.uleb128 0x2
 3548 07e9 91       		.byte	0x91
ARM GAS  C:\Users\ilya\AppData\Local\Temp\ccGij5YZ.s 			page 78


 3549 07ea 5E       		.sleb128 -34
 3550 07eb 17       		.uleb128 0x17
 3551 07ec 45080000 		.4byte	.LASF137
 3552 07f0 01       		.byte	0x1
 3553 07f1 60       		.byte	0x60
 3554 07f2 B8060000 		.4byte	0x6b8
 3555 07f6 02       		.uleb128 0x2
 3556 07f7 91       		.byte	0x91
 3557 07f8 58       		.sleb128 -40
 3558 07f9 17       		.uleb128 0x17
 3559 07fa 94030000 		.4byte	.LASF138
 3560 07fe 01       		.byte	0x1
 3561 07ff 60       		.byte	0x60
 3562 0800 E9000000 		.4byte	0xe9
 3563 0804 02       		.uleb128 0x2
 3564 0805 91       		.byte	0x91
 3565 0806 54       		.sleb128 -44
 3566 0807 19       		.uleb128 0x19
 3567 0808 DE060000 		.4byte	.LASF139
 3568 080c 01       		.byte	0x1
 3569 080d 62       		.byte	0x62
 3570 080e E9000000 		.4byte	0xe9
 3571 0812 02       		.uleb128 0x2
 3572 0813 91       		.byte	0x91
 3573 0814 70       		.sleb128 -16
 3574 0815 1A       		.uleb128 0x1a
 3575 0816 6300     		.ascii	"c\000"
 3576 0818 01       		.byte	0x1
 3577 0819 63       		.byte	0x63
 3578 081a 94000000 		.4byte	0x94
 3579 081e 02       		.uleb128 0x2
 3580 081f 91       		.byte	0x91
 3581 0820 74       		.sleb128 -12
 3582 0821 19       		.uleb128 0x19
 3583 0822 100C0000 		.4byte	.LASF140
 3584 0826 01       		.byte	0x1
 3585 0827 65       		.byte	0x65
 3586 0828 9B000000 		.4byte	0x9b
 3587 082c 02       		.uleb128 0x2
 3588 082d 91       		.byte	0x91
 3589 082e 6C       		.sleb128 -20
 3590 082f 19       		.uleb128 0x19
 3591 0830 3C020000 		.4byte	.LASF141
 3592 0834 01       		.byte	0x1
 3593 0835 66       		.byte	0x66
 3594 0836 B8060000 		.4byte	0x6b8
 3595 083a 02       		.uleb128 0x2
 3596 083b 91       		.byte	0x91
 3597 083c 68       		.sleb128 -24
 3598 083d 19       		.uleb128 0x19
 3599 083e 010C0000 		.4byte	.LASF142
 3600 0842 01       		.byte	0x1
 3601 0843 67       		.byte	0x67
 3602 0844 D3000000 		.4byte	0xd3
 3603 0848 02       		.uleb128 0x2
 3604 0849 91       		.byte	0x91
 3605 084a 67       		.sleb128 -25
ARM GAS  C:\Users\ilya\AppData\Local\Temp\ccGij5YZ.s 			page 79


 3606 084b 19       		.uleb128 0x19
 3607 084c AE0B0000 		.4byte	.LASF143
 3608 0850 01       		.byte	0x1
 3609 0851 68       		.byte	0x68
 3610 0852 D3000000 		.4byte	0xd3
 3611 0856 02       		.uleb128 0x2
 3612 0857 91       		.byte	0x91
 3613 0858 66       		.sleb128 -26
 3614 0859 1A       		.uleb128 0x1a
 3615 085a 7200     		.ascii	"r\000"
 3616 085c 01       		.byte	0x1
 3617 085d 69       		.byte	0x69
 3618 085e 94000000 		.4byte	0x94
 3619 0862 02       		.uleb128 0x2
 3620 0863 91       		.byte	0x91
 3621 0864 60       		.sleb128 -32
 3622 0865 00       		.byte	0
 3623 0866 18       		.uleb128 0x18
 3624 0867 8B090000 		.4byte	.LASF144
 3625 086b 01       		.byte	0x1
 3626 086c 79       		.byte	0x79
 3627 086d E9000000 		.4byte	0xe9
 3628 0871 00000000 		.4byte	.LFB40
 3629 0875 84000000 		.4byte	.LFE40-.LFB40
 3630 0879 01       		.uleb128 0x1
 3631 087a 9C       		.byte	0x9c
 3632 087b D0080000 		.4byte	0x8d0
 3633 087f 17       		.uleb128 0x17
 3634 0880 7C0A0000 		.4byte	.LASF136
 3635 0884 01       		.byte	0x1
 3636 0885 79       		.byte	0x79
 3637 0886 D3000000 		.4byte	0xd3
 3638 088a 02       		.uleb128 0x2
 3639 088b 91       		.byte	0x91
 3640 088c 67       		.sleb128 -25
 3641 088d 17       		.uleb128 0x17
 3642 088e 9A030000 		.4byte	.LASF145
 3643 0892 01       		.byte	0x1
 3644 0893 79       		.byte	0x79
 3645 0894 D3000000 		.4byte	0xd3
 3646 0898 02       		.uleb128 0x2
 3647 0899 91       		.byte	0x91
 3648 089a 66       		.sleb128 -26
 3649 089b 17       		.uleb128 0x17
 3650 089c 45080000 		.4byte	.LASF137
 3651 08a0 01       		.byte	0x1
 3652 08a1 79       		.byte	0x79
 3653 08a2 B8060000 		.4byte	0x6b8
 3654 08a6 02       		.uleb128 0x2
 3655 08a7 91       		.byte	0x91
 3656 08a8 60       		.sleb128 -32
 3657 08a9 17       		.uleb128 0x17
 3658 08aa 94030000 		.4byte	.LASF138
 3659 08ae 01       		.byte	0x1
 3660 08af 79       		.byte	0x79
 3661 08b0 E9000000 		.4byte	0xe9
 3662 08b4 02       		.uleb128 0x2
ARM GAS  C:\Users\ilya\AppData\Local\Temp\ccGij5YZ.s 			page 80


 3663 08b5 91       		.byte	0x91
 3664 08b6 5C       		.sleb128 -36
 3665 08b7 1A       		.uleb128 0x1a
 3666 08b8 6300     		.ascii	"c\000"
 3667 08ba 01       		.byte	0x1
 3668 08bb 7B       		.byte	0x7b
 3669 08bc 94000000 		.4byte	0x94
 3670 08c0 02       		.uleb128 0x2
 3671 08c1 91       		.byte	0x91
 3672 08c2 6C       		.sleb128 -20
 3673 08c3 1A       		.uleb128 0x1a
 3674 08c4 7200     		.ascii	"r\000"
 3675 08c6 01       		.byte	0x1
 3676 08c7 7C       		.byte	0x7c
 3677 08c8 94000000 		.4byte	0x94
 3678 08cc 02       		.uleb128 0x2
 3679 08cd 91       		.byte	0x91
 3680 08ce 68       		.sleb128 -24
 3681 08cf 00       		.byte	0
 3682 08d0 18       		.uleb128 0x18
 3683 08d1 04090000 		.4byte	.LASF146
 3684 08d5 01       		.byte	0x1
 3685 08d6 8F       		.byte	0x8f
 3686 08d7 E9000000 		.4byte	0xe9
 3687 08db 00000000 		.4byte	.LFB41
 3688 08df 46000000 		.4byte	.LFE41-.LFB41
 3689 08e3 01       		.uleb128 0x1
 3690 08e4 9C       		.byte	0x9c
 3691 08e5 30090000 		.4byte	0x930
 3692 08e9 17       		.uleb128 0x17
 3693 08ea 7C0A0000 		.4byte	.LASF136
 3694 08ee 01       		.byte	0x1
 3695 08ef 8F       		.byte	0x8f
 3696 08f0 D3000000 		.4byte	0xd3
 3697 08f4 02       		.uleb128 0x2
 3698 08f5 91       		.byte	0x91
 3699 08f6 67       		.sleb128 -25
 3700 08f7 17       		.uleb128 0x17
 3701 08f8 9A030000 		.4byte	.LASF145
 3702 08fc 01       		.byte	0x1
 3703 08fd 8F       		.byte	0x8f
 3704 08fe D3000000 		.4byte	0xd3
 3705 0902 02       		.uleb128 0x2
 3706 0903 91       		.byte	0x91
 3707 0904 66       		.sleb128 -26
 3708 0905 17       		.uleb128 0x17
 3709 0906 BE060000 		.4byte	.LASF147
 3710 090a 01       		.byte	0x1
 3711 090b 8F       		.byte	0x8f
 3712 090c D3000000 		.4byte	0xd3
 3713 0910 02       		.uleb128 0x2
 3714 0911 91       		.byte	0x91
 3715 0912 65       		.sleb128 -27
 3716 0913 19       		.uleb128 0x19
 3717 0914 DE060000 		.4byte	.LASF139
 3718 0918 01       		.byte	0x1
 3719 0919 91       		.byte	0x91
ARM GAS  C:\Users\ilya\AppData\Local\Temp\ccGij5YZ.s 			page 81


 3720 091a E9000000 		.4byte	0xe9
 3721 091e 02       		.uleb128 0x2
 3722 091f 91       		.byte	0x91
 3723 0920 6C       		.sleb128 -20
 3724 0921 19       		.uleb128 0x19
 3725 0922 180C0000 		.4byte	.LASF148
 3726 0926 01       		.byte	0x1
 3727 0927 92       		.byte	0x92
 3728 0928 30090000 		.4byte	0x930
 3729 092c 02       		.uleb128 0x2
 3730 092d 91       		.byte	0x91
 3731 092e 68       		.sleb128 -24
 3732 092f 00       		.byte	0
 3733 0930 06       		.uleb128 0x6
 3734 0931 E9000000 		.4byte	0xe9
 3735 0935 18       		.uleb128 0x18
 3736 0936 1E030000 		.4byte	.LASF149
 3737 093a 01       		.byte	0x1
 3738 093b 9F       		.byte	0x9f
 3739 093c E9000000 		.4byte	0xe9
 3740 0940 00000000 		.4byte	.LFB42
 3741 0944 A0000000 		.4byte	.LFE42-.LFB42
 3742 0948 01       		.uleb128 0x1
 3743 0949 9C       		.byte	0x9c
 3744 094a 95090000 		.4byte	0x995
 3745 094e 17       		.uleb128 0x17
 3746 094f 7C0A0000 		.4byte	.LASF136
 3747 0953 01       		.byte	0x1
 3748 0954 9F       		.byte	0x9f
 3749 0955 D3000000 		.4byte	0xd3
 3750 0959 02       		.uleb128 0x2
 3751 095a 91       		.byte	0x91
 3752 095b 67       		.sleb128 -25
 3753 095c 17       		.uleb128 0x17
 3754 095d 9A030000 		.4byte	.LASF145
 3755 0961 01       		.byte	0x1
 3756 0962 9F       		.byte	0x9f
 3757 0963 D3000000 		.4byte	0xd3
 3758 0967 02       		.uleb128 0x2
 3759 0968 91       		.byte	0x91
 3760 0969 66       		.sleb128 -26
 3761 096a 17       		.uleb128 0x17
 3762 096b BE060000 		.4byte	.LASF147
 3763 096f 01       		.byte	0x1
 3764 0970 9F       		.byte	0x9f
 3765 0971 DE000000 		.4byte	0xde
 3766 0975 02       		.uleb128 0x2
 3767 0976 91       		.byte	0x91
 3768 0977 64       		.sleb128 -28
 3769 0978 19       		.uleb128 0x19
 3770 0979 DE060000 		.4byte	.LASF139
 3771 097d 01       		.byte	0x1
 3772 097e A1       		.byte	0xa1
 3773 097f E9000000 		.4byte	0xe9
 3774 0983 02       		.uleb128 0x2
 3775 0984 91       		.byte	0x91
 3776 0985 6C       		.sleb128 -20
ARM GAS  C:\Users\ilya\AppData\Local\Temp\ccGij5YZ.s 			page 82


 3777 0986 19       		.uleb128 0x19
 3778 0987 C2000000 		.4byte	.LASF150
 3779 098b 01       		.byte	0x1
 3780 098c A3       		.byte	0xa3
 3781 098d 95090000 		.4byte	0x995
 3782 0991 02       		.uleb128 0x2
 3783 0992 91       		.byte	0x91
 3784 0993 68       		.sleb128 -24
 3785 0994 00       		.byte	0
 3786 0995 09       		.uleb128 0x9
 3787 0996 D3000000 		.4byte	0xd3
 3788 099a A5090000 		.4byte	0x9a5
 3789 099e 0A       		.uleb128 0xa
 3790 099f A9000000 		.4byte	0xa9
 3791 09a3 01       		.byte	0x1
 3792 09a4 00       		.byte	0
 3793 09a5 18       		.uleb128 0x18
 3794 09a6 75040000 		.4byte	.LASF151
 3795 09aa 01       		.byte	0x1
 3796 09ab B9       		.byte	0xb9
 3797 09ac E9000000 		.4byte	0xe9
 3798 09b0 00000000 		.4byte	.LFB43
 3799 09b4 66000000 		.4byte	.LFE43-.LFB43
 3800 09b8 01       		.uleb128 0x1
 3801 09b9 9C       		.byte	0x9c
 3802 09ba 050A0000 		.4byte	0xa05
 3803 09be 17       		.uleb128 0x17
 3804 09bf 7C0A0000 		.4byte	.LASF136
 3805 09c3 01       		.byte	0x1
 3806 09c4 B9       		.byte	0xb9
 3807 09c5 D3000000 		.4byte	0xd3
 3808 09c9 02       		.uleb128 0x2
 3809 09ca 91       		.byte	0x91
 3810 09cb 6F       		.sleb128 -17
 3811 09cc 17       		.uleb128 0x17
 3812 09cd 9A030000 		.4byte	.LASF145
 3813 09d1 01       		.byte	0x1
 3814 09d2 B9       		.byte	0xb9
 3815 09d3 D3000000 		.4byte	0xd3
 3816 09d7 02       		.uleb128 0x2
 3817 09d8 91       		.byte	0x91
 3818 09d9 6E       		.sleb128 -18
 3819 09da 17       		.uleb128 0x17
 3820 09db BE060000 		.4byte	.LASF147
 3821 09df 01       		.byte	0x1
 3822 09e0 B9       		.byte	0xb9
 3823 09e1 F4000000 		.4byte	0xf4
 3824 09e5 02       		.uleb128 0x2
 3825 09e6 91       		.byte	0x91
 3826 09e7 68       		.sleb128 -24
 3827 09e8 19       		.uleb128 0x19
 3828 09e9 DE060000 		.4byte	.LASF139
 3829 09ed 01       		.byte	0x1
 3830 09ee BB       		.byte	0xbb
 3831 09ef E9000000 		.4byte	0xe9
 3832 09f3 02       		.uleb128 0x2
 3833 09f4 91       		.byte	0x91
ARM GAS  C:\Users\ilya\AppData\Local\Temp\ccGij5YZ.s 			page 83


 3834 09f5 74       		.sleb128 -12
 3835 09f6 19       		.uleb128 0x19
 3836 09f7 C2000000 		.4byte	.LASF150
 3837 09fb 01       		.byte	0x1
 3838 09fc BC       		.byte	0xbc
 3839 09fd 050A0000 		.4byte	0xa05
 3840 0a01 02       		.uleb128 0x2
 3841 0a02 91       		.byte	0x91
 3842 0a03 70       		.sleb128 -16
 3843 0a04 00       		.byte	0
 3844 0a05 09       		.uleb128 0x9
 3845 0a06 D3000000 		.4byte	0xd3
 3846 0a0a 150A0000 		.4byte	0xa15
 3847 0a0e 0A       		.uleb128 0xa
 3848 0a0f A9000000 		.4byte	0xa9
 3849 0a13 03       		.byte	0x3
 3850 0a14 00       		.byte	0
 3851 0a15 18       		.uleb128 0x18
 3852 0a16 E20B0000 		.4byte	.LASF152
 3853 0a1a 01       		.byte	0x1
 3854 0a1b CB       		.byte	0xcb
 3855 0a1c E9000000 		.4byte	0xe9
 3856 0a20 00000000 		.4byte	.LFB44
 3857 0a24 3C000000 		.4byte	.LFE44-.LFB44
 3858 0a28 01       		.uleb128 0x1
 3859 0a29 9C       		.byte	0x9c
 3860 0a2a 750A0000 		.4byte	0xa75
 3861 0a2e 17       		.uleb128 0x17
 3862 0a2f 7C0A0000 		.4byte	.LASF136
 3863 0a33 01       		.byte	0x1
 3864 0a34 CB       		.byte	0xcb
 3865 0a35 D3000000 		.4byte	0xd3
 3866 0a39 02       		.uleb128 0x2
 3867 0a3a 91       		.byte	0x91
 3868 0a3b 67       		.sleb128 -25
 3869 0a3c 17       		.uleb128 0x17
 3870 0a3d 9A030000 		.4byte	.LASF145
 3871 0a41 01       		.byte	0x1
 3872 0a42 CB       		.byte	0xcb
 3873 0a43 D3000000 		.4byte	0xd3
 3874 0a47 02       		.uleb128 0x2
 3875 0a48 91       		.byte	0x91
 3876 0a49 66       		.sleb128 -26
 3877 0a4a 17       		.uleb128 0x17
 3878 0a4b 45080000 		.4byte	.LASF137
 3879 0a4f 01       		.byte	0x1
 3880 0a50 CB       		.byte	0xcb
 3881 0a51 B8060000 		.4byte	0x6b8
 3882 0a55 02       		.uleb128 0x2
 3883 0a56 91       		.byte	0x91
 3884 0a57 60       		.sleb128 -32
 3885 0a58 19       		.uleb128 0x19
 3886 0a59 DE060000 		.4byte	.LASF139
 3887 0a5d 01       		.byte	0x1
 3888 0a5e CD       		.byte	0xcd
 3889 0a5f E9000000 		.4byte	0xe9
 3890 0a63 02       		.uleb128 0x2
ARM GAS  C:\Users\ilya\AppData\Local\Temp\ccGij5YZ.s 			page 84


 3891 0a64 91       		.byte	0x91
 3892 0a65 6C       		.sleb128 -20
 3893 0a66 19       		.uleb128 0x19
 3894 0a67 180C0000 		.4byte	.LASF148
 3895 0a6b 01       		.byte	0x1
 3896 0a6c CE       		.byte	0xce
 3897 0a6d E9000000 		.4byte	0xe9
 3898 0a71 02       		.uleb128 0x2
 3899 0a72 91       		.byte	0x91
 3900 0a73 68       		.sleb128 -24
 3901 0a74 00       		.byte	0
 3902 0a75 18       		.uleb128 0x18
 3903 0a76 240C0000 		.4byte	.LASF153
 3904 0a7a 01       		.byte	0x1
 3905 0a7b DB       		.byte	0xdb
 3906 0a7c E9000000 		.4byte	0xe9
 3907 0a80 00000000 		.4byte	.LFB45
 3908 0a84 54000000 		.4byte	.LFE45-.LFB45
 3909 0a88 01       		.uleb128 0x1
 3910 0a89 9C       		.byte	0x9c
 3911 0a8a D50A0000 		.4byte	0xad5
 3912 0a8e 17       		.uleb128 0x17
 3913 0a8f 7C0A0000 		.4byte	.LASF136
 3914 0a93 01       		.byte	0x1
 3915 0a94 DB       		.byte	0xdb
 3916 0a95 D3000000 		.4byte	0xd3
 3917 0a99 02       		.uleb128 0x2
 3918 0a9a 91       		.byte	0x91
 3919 0a9b 6F       		.sleb128 -17
 3920 0a9c 17       		.uleb128 0x17
 3921 0a9d 9A030000 		.4byte	.LASF145
 3922 0aa1 01       		.byte	0x1
 3923 0aa2 DB       		.byte	0xdb
 3924 0aa3 D3000000 		.4byte	0xd3
 3925 0aa7 02       		.uleb128 0x2
 3926 0aa8 91       		.byte	0x91
 3927 0aa9 6E       		.sleb128 -18
 3928 0aaa 17       		.uleb128 0x17
 3929 0aab 45080000 		.4byte	.LASF137
 3930 0aaf 01       		.byte	0x1
 3931 0ab0 DB       		.byte	0xdb
 3932 0ab1 D50A0000 		.4byte	0xad5
 3933 0ab5 02       		.uleb128 0x2
 3934 0ab6 91       		.byte	0x91
 3935 0ab7 68       		.sleb128 -24
 3936 0ab8 19       		.uleb128 0x19
 3937 0ab9 DE060000 		.4byte	.LASF139
 3938 0abd 01       		.byte	0x1
 3939 0abe DD       		.byte	0xdd
 3940 0abf E9000000 		.4byte	0xe9
 3941 0ac3 02       		.uleb128 0x2
 3942 0ac4 91       		.byte	0x91
 3943 0ac5 74       		.sleb128 -12
 3944 0ac6 19       		.uleb128 0x19
 3945 0ac7 C2000000 		.4byte	.LASF150
 3946 0acb 01       		.byte	0x1
 3947 0acc DE       		.byte	0xde
ARM GAS  C:\Users\ilya\AppData\Local\Temp\ccGij5YZ.s 			page 85


 3948 0acd 95090000 		.4byte	0x995
 3949 0ad1 02       		.uleb128 0x2
 3950 0ad2 91       		.byte	0x91
 3951 0ad3 70       		.sleb128 -16
 3952 0ad4 00       		.byte	0
 3953 0ad5 05       		.uleb128 0x5
 3954 0ad6 04       		.byte	0x4
 3955 0ad7 DE000000 		.4byte	0xde
 3956 0adb 18       		.uleb128 0x18
 3957 0adc 96000000 		.4byte	.LASF154
 3958 0ae0 01       		.byte	0x1
 3959 0ae1 E7       		.byte	0xe7
 3960 0ae2 E9000000 		.4byte	0xe9
 3961 0ae6 00000000 		.4byte	.LFB46
 3962 0aea 60000000 		.4byte	.LFE46-.LFB46
 3963 0aee 01       		.uleb128 0x1
 3964 0aef 9C       		.byte	0x9c
 3965 0af0 3B0B0000 		.4byte	0xb3b
 3966 0af4 17       		.uleb128 0x17
 3967 0af5 7C0A0000 		.4byte	.LASF136
 3968 0af9 01       		.byte	0x1
 3969 0afa E7       		.byte	0xe7
 3970 0afb D3000000 		.4byte	0xd3
 3971 0aff 02       		.uleb128 0x2
 3972 0b00 91       		.byte	0x91
 3973 0b01 6F       		.sleb128 -17
 3974 0b02 17       		.uleb128 0x17
 3975 0b03 9A030000 		.4byte	.LASF145
 3976 0b07 01       		.byte	0x1
 3977 0b08 E7       		.byte	0xe7
 3978 0b09 D3000000 		.4byte	0xd3
 3979 0b0d 02       		.uleb128 0x2
 3980 0b0e 91       		.byte	0x91
 3981 0b0f 6E       		.sleb128 -18
 3982 0b10 17       		.uleb128 0x17
 3983 0b11 45080000 		.4byte	.LASF137
 3984 0b15 01       		.byte	0x1
 3985 0b16 E7       		.byte	0xe7
 3986 0b17 3B0B0000 		.4byte	0xb3b
 3987 0b1b 02       		.uleb128 0x2
 3988 0b1c 91       		.byte	0x91
 3989 0b1d 68       		.sleb128 -24
 3990 0b1e 19       		.uleb128 0x19
 3991 0b1f DE060000 		.4byte	.LASF139
 3992 0b23 01       		.byte	0x1
 3993 0b24 E9       		.byte	0xe9
 3994 0b25 E9000000 		.4byte	0xe9
 3995 0b29 02       		.uleb128 0x2
 3996 0b2a 91       		.byte	0x91
 3997 0b2b 74       		.sleb128 -12
 3998 0b2c 19       		.uleb128 0x19
 3999 0b2d C2000000 		.4byte	.LASF150
 4000 0b31 01       		.byte	0x1
 4001 0b32 EA       		.byte	0xea
 4002 0b33 050A0000 		.4byte	0xa05
 4003 0b37 02       		.uleb128 0x2
 4004 0b38 91       		.byte	0x91
ARM GAS  C:\Users\ilya\AppData\Local\Temp\ccGij5YZ.s 			page 86


 4005 0b39 70       		.sleb128 -16
 4006 0b3a 00       		.byte	0
 4007 0b3b 05       		.uleb128 0x5
 4008 0b3c 04       		.byte	0x4
 4009 0b3d F4000000 		.4byte	0xf4
 4010 0b41 18       		.uleb128 0x18
 4011 0b42 E6070000 		.4byte	.LASF155
 4012 0b46 01       		.byte	0x1
 4013 0b47 F8       		.byte	0xf8
 4014 0b48 E9000000 		.4byte	0xe9
 4015 0b4c 00000000 		.4byte	.LFB47
 4016 0b50 8E000000 		.4byte	.LFE47-.LFB47
 4017 0b54 01       		.uleb128 0x1
 4018 0b55 9C       		.byte	0x9c
 4019 0b56 D20B0000 		.4byte	0xbd2
 4020 0b5a 17       		.uleb128 0x17
 4021 0b5b 7C0A0000 		.4byte	.LASF136
 4022 0b5f 01       		.byte	0x1
 4023 0b60 F8       		.byte	0xf8
 4024 0b61 D3000000 		.4byte	0xd3
 4025 0b65 02       		.uleb128 0x2
 4026 0b66 91       		.byte	0x91
 4027 0b67 67       		.sleb128 -25
 4028 0b68 17       		.uleb128 0x17
 4029 0b69 9A030000 		.4byte	.LASF145
 4030 0b6d 01       		.byte	0x1
 4031 0b6e F8       		.byte	0xf8
 4032 0b6f DE000000 		.4byte	0xde
 4033 0b73 02       		.uleb128 0x2
 4034 0b74 91       		.byte	0x91
 4035 0b75 64       		.sleb128 -28
 4036 0b76 17       		.uleb128 0x17
 4037 0b77 45080000 		.4byte	.LASF137
 4038 0b7b 01       		.byte	0x1
 4039 0b7c F8       		.byte	0xf8
 4040 0b7d B8060000 		.4byte	0x6b8
 4041 0b81 02       		.uleb128 0x2
 4042 0b82 91       		.byte	0x91
 4043 0b83 60       		.sleb128 -32
 4044 0b84 17       		.uleb128 0x17
 4045 0b85 94030000 		.4byte	.LASF138
 4046 0b89 01       		.byte	0x1
 4047 0b8a F8       		.byte	0xf8
 4048 0b8b E9000000 		.4byte	0xe9
 4049 0b8f 02       		.uleb128 0x2
 4050 0b90 91       		.byte	0x91
 4051 0b91 5C       		.sleb128 -36
 4052 0b92 19       		.uleb128 0x19
 4053 0b93 DE060000 		.4byte	.LASF139
 4054 0b97 01       		.byte	0x1
 4055 0b98 FA       		.byte	0xfa
 4056 0b99 E9000000 		.4byte	0xe9
 4057 0b9d 02       		.uleb128 0x2
 4058 0b9e 91       		.byte	0x91
 4059 0b9f 70       		.sleb128 -16
 4060 0ba0 19       		.uleb128 0x19
 4061 0ba1 100C0000 		.4byte	.LASF140
ARM GAS  C:\Users\ilya\AppData\Local\Temp\ccGij5YZ.s 			page 87


 4062 0ba5 01       		.byte	0x1
 4063 0ba6 FB       		.byte	0xfb
 4064 0ba7 9B000000 		.4byte	0x9b
 4065 0bab 02       		.uleb128 0x2
 4066 0bac 91       		.byte	0x91
 4067 0bad 6C       		.sleb128 -20
 4068 0bae 1A       		.uleb128 0x1a
 4069 0baf 6300     		.ascii	"c\000"
 4070 0bb1 01       		.byte	0x1
 4071 0bb2 FC       		.byte	0xfc
 4072 0bb3 94000000 		.4byte	0x94
 4073 0bb7 02       		.uleb128 0x2
 4074 0bb8 91       		.byte	0x91
 4075 0bb9 74       		.sleb128 -12
 4076 0bba 1A       		.uleb128 0x1a
 4077 0bbb 7200     		.ascii	"r\000"
 4078 0bbd 01       		.byte	0x1
 4079 0bbe FC       		.byte	0xfc
 4080 0bbf 94000000 		.4byte	0x94
 4081 0bc3 02       		.uleb128 0x2
 4082 0bc4 91       		.byte	0x91
 4083 0bc5 68       		.sleb128 -24
 4084 0bc6 1B       		.uleb128 0x1b
 4085 0bc7 1C070000 		.4byte	.LASF157
 4086 0bcb 01       		.byte	0x1
 4087 0bcc FD       		.byte	0xfd
 4088 0bcd 94000000 		.4byte	0x94
 4089 0bd1 00       		.byte	0
 4090 0bd2 1C       		.uleb128 0x1c
 4091 0bd3 BC0A0000 		.4byte	.LASF156
 4092 0bd7 01       		.byte	0x1
 4093 0bd8 1301     		.2byte	0x113
 4094 0bda E9000000 		.4byte	0xe9
 4095 0bde 00000000 		.4byte	.LFB48
 4096 0be2 A0000000 		.4byte	.LFE48-.LFB48
 4097 0be6 01       		.uleb128 0x1
 4098 0be7 9C       		.byte	0x9c
 4099 0be8 6D0C0000 		.4byte	0xc6d
 4100 0bec 1D       		.uleb128 0x1d
 4101 0bed 7C0A0000 		.4byte	.LASF136
 4102 0bf1 01       		.byte	0x1
 4103 0bf2 1301     		.2byte	0x113
 4104 0bf4 D3000000 		.4byte	0xd3
 4105 0bf8 02       		.uleb128 0x2
 4106 0bf9 91       		.byte	0x91
 4107 0bfa 5F       		.sleb128 -33
 4108 0bfb 1D       		.uleb128 0x1d
 4109 0bfc 9A030000 		.4byte	.LASF145
 4110 0c00 01       		.byte	0x1
 4111 0c01 1301     		.2byte	0x113
 4112 0c03 DE000000 		.4byte	0xde
 4113 0c07 02       		.uleb128 0x2
 4114 0c08 91       		.byte	0x91
 4115 0c09 5C       		.sleb128 -36
 4116 0c0a 1D       		.uleb128 0x1d
 4117 0c0b 45080000 		.4byte	.LASF137
 4118 0c0f 01       		.byte	0x1
ARM GAS  C:\Users\ilya\AppData\Local\Temp\ccGij5YZ.s 			page 88


 4119 0c10 1301     		.2byte	0x113
 4120 0c12 B8060000 		.4byte	0x6b8
 4121 0c16 02       		.uleb128 0x2
 4122 0c17 91       		.byte	0x91
 4123 0c18 58       		.sleb128 -40
 4124 0c19 1D       		.uleb128 0x1d
 4125 0c1a 94030000 		.4byte	.LASF138
 4126 0c1e 01       		.byte	0x1
 4127 0c1f 1301     		.2byte	0x113
 4128 0c21 E9000000 		.4byte	0xe9
 4129 0c25 02       		.uleb128 0x2
 4130 0c26 91       		.byte	0x91
 4131 0c27 54       		.sleb128 -44
 4132 0c28 1E       		.uleb128 0x1e
 4133 0c29 DE060000 		.4byte	.LASF139
 4134 0c2d 01       		.byte	0x1
 4135 0c2e 1501     		.2byte	0x115
 4136 0c30 E9000000 		.4byte	0xe9
 4137 0c34 02       		.uleb128 0x2
 4138 0c35 91       		.byte	0x91
 4139 0c36 68       		.sleb128 -24
 4140 0c37 1E       		.uleb128 0x1e
 4141 0c38 100C0000 		.4byte	.LASF140
 4142 0c3c 01       		.byte	0x1
 4143 0c3d 1601     		.2byte	0x116
 4144 0c3f 9B000000 		.4byte	0x9b
 4145 0c43 02       		.uleb128 0x2
 4146 0c44 91       		.byte	0x91
 4147 0c45 64       		.sleb128 -28
 4148 0c46 1F       		.uleb128 0x1f
 4149 0c47 6300     		.ascii	"c\000"
 4150 0c49 01       		.byte	0x1
 4151 0c4a 1701     		.2byte	0x117
 4152 0c4c 94000000 		.4byte	0x94
 4153 0c50 02       		.uleb128 0x2
 4154 0c51 91       		.byte	0x91
 4155 0c52 6C       		.sleb128 -20
 4156 0c53 1F       		.uleb128 0x1f
 4157 0c54 7200     		.ascii	"r\000"
 4158 0c56 01       		.byte	0x1
 4159 0c57 1701     		.2byte	0x117
 4160 0c59 94000000 		.4byte	0x94
 4161 0c5d 02       		.uleb128 0x2
 4162 0c5e 91       		.byte	0x91
 4163 0c5f 60       		.sleb128 -32
 4164 0c60 20       		.uleb128 0x20
 4165 0c61 1C070000 		.4byte	.LASF157
 4166 0c65 01       		.byte	0x1
 4167 0c66 1801     		.2byte	0x118
 4168 0c68 94000000 		.4byte	0x94
 4169 0c6c 00       		.byte	0
 4170 0c6d 1C       		.uleb128 0x1c
 4171 0c6e F50A0000 		.4byte	.LASF158
 4172 0c72 01       		.byte	0x1
 4173 0c73 3401     		.2byte	0x134
 4174 0c75 E9000000 		.4byte	0xe9
 4175 0c79 00000000 		.4byte	.LFB49
ARM GAS  C:\Users\ilya\AppData\Local\Temp\ccGij5YZ.s 			page 89


 4176 0c7d 46000000 		.4byte	.LFE49-.LFB49
 4177 0c81 01       		.uleb128 0x1
 4178 0c82 9C       		.byte	0x9c
 4179 0c83 D30C0000 		.4byte	0xcd3
 4180 0c87 1D       		.uleb128 0x1d
 4181 0c88 7C0A0000 		.4byte	.LASF136
 4182 0c8c 01       		.byte	0x1
 4183 0c8d 3401     		.2byte	0x134
 4184 0c8f D3000000 		.4byte	0xd3
 4185 0c93 02       		.uleb128 0x2
 4186 0c94 91       		.byte	0x91
 4187 0c95 67       		.sleb128 -25
 4188 0c96 1D       		.uleb128 0x1d
 4189 0c97 9A030000 		.4byte	.LASF145
 4190 0c9b 01       		.byte	0x1
 4191 0c9c 3401     		.2byte	0x134
 4192 0c9e DE000000 		.4byte	0xde
 4193 0ca2 02       		.uleb128 0x2
 4194 0ca3 91       		.byte	0x91
 4195 0ca4 64       		.sleb128 -28
 4196 0ca5 1D       		.uleb128 0x1d
 4197 0ca6 BE060000 		.4byte	.LASF147
 4198 0caa 01       		.byte	0x1
 4199 0cab 3401     		.2byte	0x134
 4200 0cad D3000000 		.4byte	0xd3
 4201 0cb1 02       		.uleb128 0x2
 4202 0cb2 91       		.byte	0x91
 4203 0cb3 66       		.sleb128 -26
 4204 0cb4 1E       		.uleb128 0x1e
 4205 0cb5 DE060000 		.4byte	.LASF139
 4206 0cb9 01       		.byte	0x1
 4207 0cba 3601     		.2byte	0x136
 4208 0cbc E9000000 		.4byte	0xe9
 4209 0cc0 02       		.uleb128 0x2
 4210 0cc1 91       		.byte	0x91
 4211 0cc2 6C       		.sleb128 -20
 4212 0cc3 1E       		.uleb128 0x1e
 4213 0cc4 180C0000 		.4byte	.LASF148
 4214 0cc8 01       		.byte	0x1
 4215 0cc9 3701     		.2byte	0x137
 4216 0ccb 30090000 		.4byte	0x930
 4217 0ccf 02       		.uleb128 0x2
 4218 0cd0 91       		.byte	0x91
 4219 0cd1 68       		.sleb128 -24
 4220 0cd2 00       		.byte	0
 4221 0cd3 1C       		.uleb128 0x1c
 4222 0cd4 D7030000 		.4byte	.LASF159
 4223 0cd8 01       		.byte	0x1
 4224 0cd9 4401     		.2byte	0x144
 4225 0cdb E9000000 		.4byte	0xe9
 4226 0cdf 00000000 		.4byte	.LFB50
 4227 0ce3 A0000000 		.4byte	.LFE50-.LFB50
 4228 0ce7 01       		.uleb128 0x1
 4229 0ce8 9C       		.byte	0x9c
 4230 0ce9 390D0000 		.4byte	0xd39
 4231 0ced 1D       		.uleb128 0x1d
 4232 0cee 7C0A0000 		.4byte	.LASF136
ARM GAS  C:\Users\ilya\AppData\Local\Temp\ccGij5YZ.s 			page 90


 4233 0cf2 01       		.byte	0x1
 4234 0cf3 4401     		.2byte	0x144
 4235 0cf5 D3000000 		.4byte	0xd3
 4236 0cf9 02       		.uleb128 0x2
 4237 0cfa 91       		.byte	0x91
 4238 0cfb 67       		.sleb128 -25
 4239 0cfc 1D       		.uleb128 0x1d
 4240 0cfd 9A030000 		.4byte	.LASF145
 4241 0d01 01       		.byte	0x1
 4242 0d02 4401     		.2byte	0x144
 4243 0d04 DE000000 		.4byte	0xde
 4244 0d08 02       		.uleb128 0x2
 4245 0d09 91       		.byte	0x91
 4246 0d0a 64       		.sleb128 -28
 4247 0d0b 1D       		.uleb128 0x1d
 4248 0d0c BE060000 		.4byte	.LASF147
 4249 0d10 01       		.byte	0x1
 4250 0d11 4401     		.2byte	0x144
 4251 0d13 DE000000 		.4byte	0xde
 4252 0d17 02       		.uleb128 0x2
 4253 0d18 91       		.byte	0x91
 4254 0d19 62       		.sleb128 -30
 4255 0d1a 1E       		.uleb128 0x1e
 4256 0d1b DE060000 		.4byte	.LASF139
 4257 0d1f 01       		.byte	0x1
 4258 0d20 4601     		.2byte	0x146
 4259 0d22 E9000000 		.4byte	0xe9
 4260 0d26 02       		.uleb128 0x2
 4261 0d27 91       		.byte	0x91
 4262 0d28 6C       		.sleb128 -20
 4263 0d29 1E       		.uleb128 0x1e
 4264 0d2a C2000000 		.4byte	.LASF150
 4265 0d2e 01       		.byte	0x1
 4266 0d2f 4801     		.2byte	0x148
 4267 0d31 95090000 		.4byte	0x995
 4268 0d35 02       		.uleb128 0x2
 4269 0d36 91       		.byte	0x91
 4270 0d37 68       		.sleb128 -24
 4271 0d38 00       		.byte	0
 4272 0d39 1C       		.uleb128 0x1c
 4273 0d3a 1A080000 		.4byte	.LASF160
 4274 0d3e 01       		.byte	0x1
 4275 0d3f 5E01     		.2byte	0x15e
 4276 0d41 E9000000 		.4byte	0xe9
 4277 0d45 00000000 		.4byte	.LFB51
 4278 0d49 82000000 		.4byte	.LFE51-.LFB51
 4279 0d4d 01       		.uleb128 0x1
 4280 0d4e 9C       		.byte	0x9c
 4281 0d4f 9F0D0000 		.4byte	0xd9f
 4282 0d53 1D       		.uleb128 0x1d
 4283 0d54 7C0A0000 		.4byte	.LASF136
 4284 0d58 01       		.byte	0x1
 4285 0d59 5E01     		.2byte	0x15e
 4286 0d5b D3000000 		.4byte	0xd3
 4287 0d5f 02       		.uleb128 0x2
 4288 0d60 91       		.byte	0x91
 4289 0d61 6F       		.sleb128 -17
ARM GAS  C:\Users\ilya\AppData\Local\Temp\ccGij5YZ.s 			page 91


 4290 0d62 1D       		.uleb128 0x1d
 4291 0d63 9A030000 		.4byte	.LASF145
 4292 0d67 01       		.byte	0x1
 4293 0d68 5E01     		.2byte	0x15e
 4294 0d6a DE000000 		.4byte	0xde
 4295 0d6e 02       		.uleb128 0x2
 4296 0d6f 91       		.byte	0x91
 4297 0d70 6C       		.sleb128 -20
 4298 0d71 1D       		.uleb128 0x1d
 4299 0d72 BE060000 		.4byte	.LASF147
 4300 0d76 01       		.byte	0x1
 4301 0d77 5E01     		.2byte	0x15e
 4302 0d79 F4000000 		.4byte	0xf4
 4303 0d7d 02       		.uleb128 0x2
 4304 0d7e 91       		.byte	0x91
 4305 0d7f 68       		.sleb128 -24
 4306 0d80 1E       		.uleb128 0x1e
 4307 0d81 DE060000 		.4byte	.LASF139
 4308 0d85 01       		.byte	0x1
 4309 0d86 6001     		.2byte	0x160
 4310 0d88 E9000000 		.4byte	0xe9
 4311 0d8c 02       		.uleb128 0x2
 4312 0d8d 91       		.byte	0x91
 4313 0d8e 74       		.sleb128 -12
 4314 0d8f 1E       		.uleb128 0x1e
 4315 0d90 C2000000 		.4byte	.LASF150
 4316 0d94 01       		.byte	0x1
 4317 0d95 6101     		.2byte	0x161
 4318 0d97 050A0000 		.4byte	0xa05
 4319 0d9b 02       		.uleb128 0x2
 4320 0d9c 91       		.byte	0x91
 4321 0d9d 70       		.sleb128 -16
 4322 0d9e 00       		.byte	0
 4323 0d9f 1C       		.uleb128 0x1c
 4324 0da0 FF060000 		.4byte	.LASF161
 4325 0da4 01       		.byte	0x1
 4326 0da5 7001     		.2byte	0x170
 4327 0da7 E9000000 		.4byte	0xe9
 4328 0dab 00000000 		.4byte	.LFB52
 4329 0daf 3C000000 		.4byte	.LFE52-.LFB52
 4330 0db3 01       		.uleb128 0x1
 4331 0db4 9C       		.byte	0x9c
 4332 0db5 050E0000 		.4byte	0xe05
 4333 0db9 1D       		.uleb128 0x1d
 4334 0dba 7C0A0000 		.4byte	.LASF136
 4335 0dbe 01       		.byte	0x1
 4336 0dbf 7001     		.2byte	0x170
 4337 0dc1 D3000000 		.4byte	0xd3
 4338 0dc5 02       		.uleb128 0x2
 4339 0dc6 91       		.byte	0x91
 4340 0dc7 67       		.sleb128 -25
 4341 0dc8 1D       		.uleb128 0x1d
 4342 0dc9 9A030000 		.4byte	.LASF145
 4343 0dcd 01       		.byte	0x1
 4344 0dce 7001     		.2byte	0x170
 4345 0dd0 DE000000 		.4byte	0xde
 4346 0dd4 02       		.uleb128 0x2
ARM GAS  C:\Users\ilya\AppData\Local\Temp\ccGij5YZ.s 			page 92


 4347 0dd5 91       		.byte	0x91
 4348 0dd6 64       		.sleb128 -28
 4349 0dd7 1D       		.uleb128 0x1d
 4350 0dd8 45080000 		.4byte	.LASF137
 4351 0ddc 01       		.byte	0x1
 4352 0ddd 7001     		.2byte	0x170
 4353 0ddf B8060000 		.4byte	0x6b8
 4354 0de3 02       		.uleb128 0x2
 4355 0de4 91       		.byte	0x91
 4356 0de5 60       		.sleb128 -32
 4357 0de6 1E       		.uleb128 0x1e
 4358 0de7 DE060000 		.4byte	.LASF139
 4359 0deb 01       		.byte	0x1
 4360 0dec 7201     		.2byte	0x172
 4361 0dee E9000000 		.4byte	0xe9
 4362 0df2 02       		.uleb128 0x2
 4363 0df3 91       		.byte	0x91
 4364 0df4 6C       		.sleb128 -20
 4365 0df5 1E       		.uleb128 0x1e
 4366 0df6 180C0000 		.4byte	.LASF148
 4367 0dfa 01       		.byte	0x1
 4368 0dfb 7301     		.2byte	0x173
 4369 0dfd E9000000 		.4byte	0xe9
 4370 0e01 02       		.uleb128 0x2
 4371 0e02 91       		.byte	0x91
 4372 0e03 68       		.sleb128 -24
 4373 0e04 00       		.byte	0
 4374 0e05 1C       		.uleb128 0x1c
 4375 0e06 FA020000 		.4byte	.LASF162
 4376 0e0a 01       		.byte	0x1
 4377 0e0b 8001     		.2byte	0x180
 4378 0e0d E9000000 		.4byte	0xe9
 4379 0e11 00000000 		.4byte	.LFB53
 4380 0e15 54000000 		.4byte	.LFE53-.LFB53
 4381 0e19 01       		.uleb128 0x1
 4382 0e1a 9C       		.byte	0x9c
 4383 0e1b 6B0E0000 		.4byte	0xe6b
 4384 0e1f 1D       		.uleb128 0x1d
 4385 0e20 7C0A0000 		.4byte	.LASF136
 4386 0e24 01       		.byte	0x1
 4387 0e25 8001     		.2byte	0x180
 4388 0e27 D3000000 		.4byte	0xd3
 4389 0e2b 02       		.uleb128 0x2
 4390 0e2c 91       		.byte	0x91
 4391 0e2d 6F       		.sleb128 -17
 4392 0e2e 1D       		.uleb128 0x1d
 4393 0e2f 9A030000 		.4byte	.LASF145
 4394 0e33 01       		.byte	0x1
 4395 0e34 8001     		.2byte	0x180
 4396 0e36 DE000000 		.4byte	0xde
 4397 0e3a 02       		.uleb128 0x2
 4398 0e3b 91       		.byte	0x91
 4399 0e3c 6C       		.sleb128 -20
 4400 0e3d 1D       		.uleb128 0x1d
 4401 0e3e 45080000 		.4byte	.LASF137
 4402 0e42 01       		.byte	0x1
 4403 0e43 8001     		.2byte	0x180
ARM GAS  C:\Users\ilya\AppData\Local\Temp\ccGij5YZ.s 			page 93


 4404 0e45 D50A0000 		.4byte	0xad5
 4405 0e49 02       		.uleb128 0x2
 4406 0e4a 91       		.byte	0x91
 4407 0e4b 68       		.sleb128 -24
 4408 0e4c 1E       		.uleb128 0x1e
 4409 0e4d DE060000 		.4byte	.LASF139
 4410 0e51 01       		.byte	0x1
 4411 0e52 8201     		.2byte	0x182
 4412 0e54 E9000000 		.4byte	0xe9
 4413 0e58 02       		.uleb128 0x2
 4414 0e59 91       		.byte	0x91
 4415 0e5a 74       		.sleb128 -12
 4416 0e5b 1E       		.uleb128 0x1e
 4417 0e5c C2000000 		.4byte	.LASF150
 4418 0e60 01       		.byte	0x1
 4419 0e61 8301     		.2byte	0x183
 4420 0e63 95090000 		.4byte	0x995
 4421 0e67 02       		.uleb128 0x2
 4422 0e68 91       		.byte	0x91
 4423 0e69 70       		.sleb128 -16
 4424 0e6a 00       		.byte	0
 4425 0e6b 1C       		.uleb128 0x1c
 4426 0e6c 360C0000 		.4byte	.LASF163
 4427 0e70 01       		.byte	0x1
 4428 0e71 8C01     		.2byte	0x18c
 4429 0e73 E9000000 		.4byte	0xe9
 4430 0e77 00000000 		.4byte	.LFB54
 4431 0e7b 60000000 		.4byte	.LFE54-.LFB54
 4432 0e7f 01       		.uleb128 0x1
 4433 0e80 9C       		.byte	0x9c
 4434 0e81 D10E0000 		.4byte	0xed1
 4435 0e85 1D       		.uleb128 0x1d
 4436 0e86 7C0A0000 		.4byte	.LASF136
 4437 0e8a 01       		.byte	0x1
 4438 0e8b 8C01     		.2byte	0x18c
 4439 0e8d D3000000 		.4byte	0xd3
 4440 0e91 02       		.uleb128 0x2
 4441 0e92 91       		.byte	0x91
 4442 0e93 6F       		.sleb128 -17
 4443 0e94 1D       		.uleb128 0x1d
 4444 0e95 9A030000 		.4byte	.LASF145
 4445 0e99 01       		.byte	0x1
 4446 0e9a 8C01     		.2byte	0x18c
 4447 0e9c DE000000 		.4byte	0xde
 4448 0ea0 02       		.uleb128 0x2
 4449 0ea1 91       		.byte	0x91
 4450 0ea2 6C       		.sleb128 -20
 4451 0ea3 1D       		.uleb128 0x1d
 4452 0ea4 45080000 		.4byte	.LASF137
 4453 0ea8 01       		.byte	0x1
 4454 0ea9 8C01     		.2byte	0x18c
 4455 0eab 3B0B0000 		.4byte	0xb3b
 4456 0eaf 02       		.uleb128 0x2
 4457 0eb0 91       		.byte	0x91
 4458 0eb1 68       		.sleb128 -24
 4459 0eb2 1E       		.uleb128 0x1e
 4460 0eb3 DE060000 		.4byte	.LASF139
ARM GAS  C:\Users\ilya\AppData\Local\Temp\ccGij5YZ.s 			page 94


 4461 0eb7 01       		.byte	0x1
 4462 0eb8 8E01     		.2byte	0x18e
 4463 0eba E9000000 		.4byte	0xe9
 4464 0ebe 02       		.uleb128 0x2
 4465 0ebf 91       		.byte	0x91
 4466 0ec0 74       		.sleb128 -12
 4467 0ec1 1E       		.uleb128 0x1e
 4468 0ec2 C2000000 		.4byte	.LASF150
 4469 0ec6 01       		.byte	0x1
 4470 0ec7 8F01     		.2byte	0x18f
 4471 0ec9 050A0000 		.4byte	0xa05
 4472 0ecd 02       		.uleb128 0x2
 4473 0ece 91       		.byte	0x91
 4474 0ecf 70       		.sleb128 -16
 4475 0ed0 00       		.byte	0
 4476 0ed1 1C       		.uleb128 0x1c
 4477 0ed2 C9000000 		.4byte	.LASF164
 4478 0ed6 01       		.byte	0x1
 4479 0ed7 9B01     		.2byte	0x19b
 4480 0ed9 E9000000 		.4byte	0xe9
 4481 0edd 00000000 		.4byte	.LFB55
 4482 0ee1 30000000 		.4byte	.LFE55-.LFB55
 4483 0ee5 01       		.uleb128 0x1
 4484 0ee6 9C       		.byte	0x9c
 4485 0ee7 190F0000 		.4byte	0xf19
 4486 0eeb 1D       		.uleb128 0x1d
 4487 0eec 4B090000 		.4byte	.LASF165
 4488 0ef0 01       		.byte	0x1
 4489 0ef1 9B01     		.2byte	0x19b
 4490 0ef3 E9000000 		.4byte	0xe9
 4491 0ef7 02       		.uleb128 0x2
 4492 0ef8 91       		.byte	0x91
 4493 0ef9 6C       		.sleb128 -20
 4494 0efa 1E       		.uleb128 0x1e
 4495 0efb DE060000 		.4byte	.LASF139
 4496 0eff 01       		.byte	0x1
 4497 0f00 9D01     		.2byte	0x19d
 4498 0f02 E9000000 		.4byte	0xe9
 4499 0f06 02       		.uleb128 0x2
 4500 0f07 91       		.byte	0x91
 4501 0f08 74       		.sleb128 -12
 4502 0f09 1E       		.uleb128 0x1e
 4503 0f0a D90A0000 		.4byte	.LASF166
 4504 0f0e 01       		.byte	0x1
 4505 0f0f 9E01     		.2byte	0x19e
 4506 0f11 D5060000 		.4byte	0x6d5
 4507 0f15 02       		.uleb128 0x2
 4508 0f16 91       		.byte	0x91
 4509 0f17 70       		.sleb128 -16
 4510 0f18 00       		.byte	0
 4511 0f19 21       		.uleb128 0x21
 4512 0f1a 89040000 		.4byte	.LASF167
 4513 0f1e 01       		.byte	0x1
 4514 0f1f AB01     		.2byte	0x1ab
 4515 0f21 E9000000 		.4byte	0xe9
 4516 0f25 00000000 		.4byte	.LFB56
 4517 0f29 16000000 		.4byte	.LFE56-.LFB56
ARM GAS  C:\Users\ilya\AppData\Local\Temp\ccGij5YZ.s 			page 95


 4518 0f2d 01       		.uleb128 0x1
 4519 0f2e 9C       		.byte	0x9c
 4520 0f2f 520F0000 		.4byte	0xf52
 4521 0f33 1D       		.uleb128 0x1d
 4522 0f34 D90A0000 		.4byte	.LASF166
 4523 0f38 01       		.byte	0x1
 4524 0f39 AB01     		.2byte	0x1ab
 4525 0f3b E9000000 		.4byte	0xe9
 4526 0f3f 02       		.uleb128 0x2
 4527 0f40 91       		.byte	0x91
 4528 0f41 6C       		.sleb128 -20
 4529 0f42 1E       		.uleb128 0x1e
 4530 0f43 DE060000 		.4byte	.LASF139
 4531 0f47 01       		.byte	0x1
 4532 0f48 AD01     		.2byte	0x1ad
 4533 0f4a E9000000 		.4byte	0xe9
 4534 0f4e 02       		.uleb128 0x2
 4535 0f4f 91       		.byte	0x91
 4536 0f50 74       		.sleb128 -12
 4537 0f51 00       		.byte	0
 4538 0f52 21       		.uleb128 0x21
 4539 0f53 7A090000 		.4byte	.LASF168
 4540 0f57 01       		.byte	0x1
 4541 0f58 BA01     		.2byte	0x1ba
 4542 0f5a E9000000 		.4byte	0xe9
 4543 0f5e 00000000 		.4byte	.LFB57
 4544 0f62 1A000000 		.4byte	.LFE57-.LFB57
 4545 0f66 01       		.uleb128 0x1
 4546 0f67 9C       		.byte	0x9c
 4547 0f68 8B0F0000 		.4byte	0xf8b
 4548 0f6c 1D       		.uleb128 0x1d
 4549 0f6d 00020000 		.4byte	.LASF169
 4550 0f71 01       		.byte	0x1
 4551 0f72 BA01     		.2byte	0x1ba
 4552 0f74 D3000000 		.4byte	0xd3
 4553 0f78 02       		.uleb128 0x2
 4554 0f79 91       		.byte	0x91
 4555 0f7a 6F       		.sleb128 -17
 4556 0f7b 1E       		.uleb128 0x1e
 4557 0f7c DE060000 		.4byte	.LASF139
 4558 0f80 01       		.byte	0x1
 4559 0f81 BC01     		.2byte	0x1bc
 4560 0f83 E9000000 		.4byte	0xe9
 4561 0f87 02       		.uleb128 0x2
 4562 0f88 91       		.byte	0x91
 4563 0f89 74       		.sleb128 -12
 4564 0f8a 00       		.byte	0
 4565 0f8b 21       		.uleb128 0x21
 4566 0f8c D3040000 		.4byte	.LASF170
 4567 0f90 01       		.byte	0x1
 4568 0f91 C601     		.2byte	0x1c6
 4569 0f93 E9000000 		.4byte	0xe9
 4570 0f97 00000000 		.4byte	.LFB58
 4571 0f9b 16000000 		.4byte	.LFE58-.LFB58
 4572 0f9f 01       		.uleb128 0x1
 4573 0fa0 9C       		.byte	0x9c
 4574 0fa1 C40F0000 		.4byte	0xfc4
ARM GAS  C:\Users\ilya\AppData\Local\Temp\ccGij5YZ.s 			page 96


 4575 0fa5 1D       		.uleb128 0x1d
 4576 0fa6 2E070000 		.4byte	.LASF171
 4577 0faa 01       		.byte	0x1
 4578 0fab C601     		.2byte	0x1c6
 4579 0fad B8060000 		.4byte	0x6b8
 4580 0fb1 02       		.uleb128 0x2
 4581 0fb2 91       		.byte	0x91
 4582 0fb3 6C       		.sleb128 -20
 4583 0fb4 1E       		.uleb128 0x1e
 4584 0fb5 DE060000 		.4byte	.LASF139
 4585 0fb9 01       		.byte	0x1
 4586 0fba C801     		.2byte	0x1c8
 4587 0fbc E9000000 		.4byte	0xe9
 4588 0fc0 02       		.uleb128 0x2
 4589 0fc1 91       		.byte	0x91
 4590 0fc2 74       		.sleb128 -12
 4591 0fc3 00       		.byte	0
 4592 0fc4 21       		.uleb128 0x21
 4593 0fc5 3A0A0000 		.4byte	.LASF172
 4594 0fc9 01       		.byte	0x1
 4595 0fca D001     		.2byte	0x1d0
 4596 0fcc E9000000 		.4byte	0xe9
 4597 0fd0 00000000 		.4byte	.LFB59
 4598 0fd4 14000000 		.4byte	.LFE59-.LFB59
 4599 0fd8 01       		.uleb128 0x1
 4600 0fd9 9C       		.byte	0x9c
 4601 0fda EE0F0000 		.4byte	0xfee
 4602 0fde 1E       		.uleb128 0x1e
 4603 0fdf DE060000 		.4byte	.LASF139
 4604 0fe3 01       		.byte	0x1
 4605 0fe4 D201     		.2byte	0x1d2
 4606 0fe6 E9000000 		.4byte	0xe9
 4607 0fea 02       		.uleb128 0x2
 4608 0feb 91       		.byte	0x91
 4609 0fec 74       		.sleb128 -12
 4610 0fed 00       		.byte	0
 4611 0fee 21       		.uleb128 0x21
 4612 0fef 58050000 		.4byte	.LASF173
 4613 0ff3 01       		.byte	0x1
 4614 0ff4 DA01     		.2byte	0x1da
 4615 0ff6 E9000000 		.4byte	0xe9
 4616 0ffa 00000000 		.4byte	.LFB60
 4617 0ffe 14000000 		.4byte	.LFE60-.LFB60
 4618 1002 01       		.uleb128 0x1
 4619 1003 9C       		.byte	0x9c
 4620 1004 18100000 		.4byte	0x1018
 4621 1008 1E       		.uleb128 0x1e
 4622 1009 DE060000 		.4byte	.LASF139
 4623 100d 01       		.byte	0x1
 4624 100e DC01     		.2byte	0x1dc
 4625 1010 E9000000 		.4byte	0xe9
 4626 1014 02       		.uleb128 0x2
 4627 1015 91       		.byte	0x91
 4628 1016 74       		.sleb128 -12
 4629 1017 00       		.byte	0
 4630 1018 21       		.uleb128 0x21
 4631 1019 800B0000 		.4byte	.LASF174
ARM GAS  C:\Users\ilya\AppData\Local\Temp\ccGij5YZ.s 			page 97


 4632 101d 01       		.byte	0x1
 4633 101e E401     		.2byte	0x1e4
 4634 1020 E9000000 		.4byte	0xe9
 4635 1024 00000000 		.4byte	.LFB61
 4636 1028 18000000 		.4byte	.LFE61-.LFB61
 4637 102c 01       		.uleb128 0x1
 4638 102d 9C       		.byte	0x9c
 4639 102e 42100000 		.4byte	0x1042
 4640 1032 1D       		.uleb128 0x1d
 4641 1033 4B040000 		.4byte	.LASF175
 4642 1037 01       		.byte	0x1
 4643 1038 E401     		.2byte	0x1e4
 4644 103a 42100000 		.4byte	0x1042
 4645 103e 02       		.uleb128 0x2
 4646 103f 91       		.byte	0x91
 4647 1040 74       		.sleb128 -12
 4648 1041 00       		.byte	0
 4649 1042 05       		.uleb128 0x5
 4650 1043 04       		.byte	0x4
 4651 1044 E9000000 		.4byte	0xe9
 4652 1048 21       		.uleb128 0x21
 4653 1049 C2070000 		.4byte	.LASF176
 4654 104d 01       		.byte	0x1
 4655 104e EB01     		.2byte	0x1eb
 4656 1050 E9000000 		.4byte	0xe9
 4657 1054 00000000 		.4byte	.LFB62
 4658 1058 18000000 		.4byte	.LFE62-.LFB62
 4659 105c 01       		.uleb128 0x1
 4660 105d 9C       		.byte	0x9c
 4661 105e 72100000 		.4byte	0x1072
 4662 1062 1D       		.uleb128 0x1d
 4663 1063 59080000 		.4byte	.LASF177
 4664 1067 01       		.byte	0x1
 4665 1068 EB01     		.2byte	0x1eb
 4666 106a 42100000 		.4byte	0x1042
 4667 106e 02       		.uleb128 0x2
 4668 106f 91       		.byte	0x91
 4669 1070 74       		.sleb128 -12
 4670 1071 00       		.byte	0
 4671 1072 22       		.uleb128 0x22
 4672 1073 82080000 		.4byte	.LASF179
 4673 1077 01       		.byte	0x1
 4674 1078 FF01     		.2byte	0x1ff
 4675 107a 00000000 		.4byte	.LFB63
 4676 107e 3C000000 		.4byte	.LFE63-.LFB63
 4677 1082 01       		.uleb128 0x1
 4678 1083 9C       		.byte	0x9c
 4679 1084 A7100000 		.4byte	0x10a7
 4680 1088 1D       		.uleb128 0x1d
 4681 1089 10010000 		.4byte	.LASF180
 4682 108d 01       		.byte	0x1
 4683 108e FF01     		.2byte	0x1ff
 4684 1090 D0010000 		.4byte	0x1d0
 4685 1094 02       		.uleb128 0x2
 4686 1095 91       		.byte	0x91
 4687 1096 57       		.sleb128 -41
 4688 1097 1F       		.uleb128 0x1f
ARM GAS  C:\Users\ilya\AppData\Local\Temp\ccGij5YZ.s 			page 98


 4689 1098 62756600 		.ascii	"buf\000"
 4690 109c 01       		.byte	0x1
 4691 109d 0002     		.2byte	0x200
 4692 109f B5010000 		.4byte	0x1b5
 4693 10a3 02       		.uleb128 0x2
 4694 10a4 91       		.byte	0x91
 4695 10a5 58       		.sleb128 -40
 4696 10a6 00       		.byte	0
 4697 10a7 22       		.uleb128 0x22
 4698 10a8 AD050000 		.4byte	.LASF181
 4699 10ac 01       		.byte	0x1
 4700 10ad 0502     		.2byte	0x205
 4701 10af 00000000 		.4byte	.LFB64
 4702 10b3 44000000 		.4byte	.LFE64-.LFB64
 4703 10b7 01       		.uleb128 0x1
 4704 10b8 9C       		.byte	0x9c
 4705 10b9 EB100000 		.4byte	0x10eb
 4706 10bd 1D       		.uleb128 0x1d
 4707 10be 39060000 		.4byte	.LASF182
 4708 10c2 01       		.byte	0x1
 4709 10c3 0502     		.2byte	0x205
 4710 10c5 EB100000 		.4byte	0x10eb
 4711 10c9 02       		.uleb128 0x2
 4712 10ca 91       		.byte	0x91
 4713 10cb 4C       		.sleb128 -52
 4714 10cc 1F       		.uleb128 0x1f
 4715 10cd 62756600 		.ascii	"buf\000"
 4716 10d1 01       		.byte	0x1
 4717 10d2 0602     		.2byte	0x206
 4718 10d4 B5010000 		.4byte	0x1b5
 4719 10d8 02       		.uleb128 0x2
 4720 10d9 91       		.byte	0x91
 4721 10da 54       		.sleb128 -44
 4722 10db 1E       		.uleb128 0x1e
 4723 10dc 4C070000 		.4byte	.LASF67
 4724 10e0 01       		.byte	0x1
 4725 10e1 0702     		.2byte	0x207
 4726 10e3 D3000000 		.4byte	0xd3
 4727 10e7 02       		.uleb128 0x2
 4728 10e8 91       		.byte	0x91
 4729 10e9 77       		.sleb128 -9
 4730 10ea 00       		.byte	0
 4731 10eb 05       		.uleb128 0x5
 4732 10ec 04       		.byte	0x4
 4733 10ed 8C030000 		.4byte	0x38c
 4734 10f1 1C       		.uleb128 0x1c
 4735 10f2 DA070000 		.4byte	.LASF183
 4736 10f6 01       		.byte	0x1
 4737 10f7 1502     		.2byte	0x215
 4738 10f9 D0010000 		.4byte	0x1d0
 4739 10fd 00000000 		.4byte	.LFB65
 4740 1101 60020000 		.4byte	.LFE65-.LFB65
 4741 1105 01       		.uleb128 0x1
 4742 1106 9C       		.byte	0x9c
 4743 1107 92110000 		.4byte	0x1192
 4744 110b 1D       		.uleb128 0x1d
 4745 110c 190D0000 		.4byte	.LASF184
ARM GAS  C:\Users\ilya\AppData\Local\Temp\ccGij5YZ.s 			page 99


 4746 1110 01       		.byte	0x1
 4747 1111 1502     		.2byte	0x215
 4748 1113 2B070000 		.4byte	0x72b
 4749 1117 03       		.uleb128 0x3
 4750 1118 91       		.byte	0x91
 4751 1119 BC7F     		.sleb128 -68
 4752 111b 1E       		.uleb128 0x1e
 4753 111c 10010000 		.4byte	.LASF180
 4754 1120 01       		.byte	0x1
 4755 1121 1702     		.2byte	0x217
 4756 1123 D0010000 		.4byte	0x1d0
 4757 1127 02       		.uleb128 0x2
 4758 1128 91       		.byte	0x91
 4759 1129 6F       		.sleb128 -17
 4760 112a 1E       		.uleb128 0x1e
 4761 112b AB070000 		.4byte	.LASF185
 4762 112f 01       		.byte	0x1
 4763 1130 1802     		.2byte	0x218
 4764 1132 8C030000 		.4byte	0x38c
 4765 1136 02       		.uleb128 0x2
 4766 1137 91       		.byte	0x91
 4767 1138 4C       		.sleb128 -52
 4768 1139 1F       		.uleb128 0x1f
 4769 113a 6900     		.ascii	"i\000"
 4770 113c 01       		.byte	0x1
 4771 113d 1902     		.2byte	0x219
 4772 113f 94000000 		.4byte	0x94
 4773 1143 02       		.uleb128 0x2
 4774 1144 91       		.byte	0x91
 4775 1145 68       		.sleb128 -24
 4776 1146 1E       		.uleb128 0x1e
 4777 1147 1C020000 		.4byte	.LASF186
 4778 114b 01       		.byte	0x1
 4779 114c 1A02     		.2byte	0x21a
 4780 114e FF000000 		.4byte	0xff
 4781 1152 02       		.uleb128 0x2
 4782 1153 91       		.byte	0x91
 4783 1154 48       		.sleb128 -56
 4784 1155 1E       		.uleb128 0x1e
 4785 1156 B1060000 		.4byte	.LASF187
 4786 115a 01       		.byte	0x1
 4787 115b 1B02     		.2byte	0x21b
 4788 115d F4000000 		.4byte	0xf4
 4789 1161 02       		.uleb128 0x2
 4790 1162 91       		.byte	0x91
 4791 1163 44       		.sleb128 -60
 4792 1164 1E       		.uleb128 0x1e
 4793 1165 06020000 		.4byte	.LASF188
 4794 1169 01       		.byte	0x1
 4795 116a 1C02     		.2byte	0x21c
 4796 116c D3000000 		.4byte	0xd3
 4797 1170 02       		.uleb128 0x2
 4798 1171 91       		.byte	0x91
 4799 1172 43       		.sleb128 -61
 4800 1173 1E       		.uleb128 0x1e
 4801 1174 060A0000 		.4byte	.LASF189
 4802 1178 01       		.byte	0x1
ARM GAS  C:\Users\ilya\AppData\Local\Temp\ccGij5YZ.s 			page 100


 4803 1179 1D02     		.2byte	0x21d
 4804 117b D3000000 		.4byte	0xd3
 4805 117f 02       		.uleb128 0x2
 4806 1180 91       		.byte	0x91
 4807 1181 42       		.sleb128 -62
 4808 1182 1E       		.uleb128 0x1e
 4809 1183 13070000 		.4byte	.LASF190
 4810 1187 01       		.byte	0x1
 4811 1188 1E02     		.2byte	0x21e
 4812 118a D3000000 		.4byte	0xd3
 4813 118e 02       		.uleb128 0x2
 4814 118f 91       		.byte	0x91
 4815 1190 41       		.sleb128 -63
 4816 1191 00       		.byte	0
 4817 1192 23       		.uleb128 0x23
 4818 1193 83050000 		.4byte	.LASF191
 4819 1197 01       		.byte	0x1
 4820 1198 A002     		.2byte	0x2a0
 4821 119a 94000000 		.4byte	0x94
 4822 119e 00000000 		.4byte	.LFB66
 4823 11a2 80010000 		.4byte	.LFE66-.LFB66
 4824 11a6 01       		.uleb128 0x1
 4825 11a7 9C       		.byte	0x9c
 4826 11a8 26120000 		.4byte	0x1226
 4827 11ac 1E       		.uleb128 0x1e
 4828 11ad 10010000 		.4byte	.LASF180
 4829 11b1 01       		.byte	0x1
 4830 11b2 A202     		.2byte	0x2a2
 4831 11b4 D0010000 		.4byte	0x1d0
 4832 11b8 02       		.uleb128 0x2
 4833 11b9 91       		.byte	0x91
 4834 11ba 6F       		.sleb128 -17
 4835 11bb 1E       		.uleb128 0x1e
 4836 11bc D10A0000 		.4byte	.LASF192
 4837 11c0 01       		.byte	0x1
 4838 11c1 A402     		.2byte	0x2a4
 4839 11c3 59010000 		.4byte	0x159
 4840 11c7 02       		.uleb128 0x2
 4841 11c8 91       		.byte	0x91
 4842 11c9 50       		.sleb128 -48
 4843 11ca 1E       		.uleb128 0x1e
 4844 11cb B70B0000 		.4byte	.LASF193
 4845 11cf 01       		.byte	0x1
 4846 11d0 A502     		.2byte	0x2a5
 4847 11d2 26120000 		.4byte	0x1226
 4848 11d6 02       		.uleb128 0x2
 4849 11d7 91       		.byte	0x91
 4850 11d8 68       		.sleb128 -24
 4851 11d9 1E       		.uleb128 0x1e
 4852 11da 73000000 		.4byte	.LASF194
 4853 11de 01       		.byte	0x1
 4854 11df A602     		.2byte	0x2a6
 4855 11e1 C5010000 		.4byte	0x1c5
 4856 11e5 03       		.uleb128 0x3
 4857 11e6 91       		.byte	0x91
 4858 11e7 EC7E     		.sleb128 -148
 4859 11e9 1E       		.uleb128 0x1e
ARM GAS  C:\Users\ilya\AppData\Local\Temp\ccGij5YZ.s 			page 101


 4860 11ea 45030000 		.4byte	.LASF195
 4861 11ee 01       		.byte	0x1
 4862 11ef A802     		.2byte	0x2a8
 4863 11f1 E9000000 		.4byte	0xe9
 4864 11f5 02       		.uleb128 0x2
 4865 11f6 91       		.byte	0x91
 4866 11f7 58       		.sleb128 -40
 4867 11f8 1E       		.uleb128 0x1e
 4868 11f9 10080000 		.4byte	.LASF196
 4869 11fd 01       		.byte	0x1
 4870 11fe A902     		.2byte	0x2a9
 4871 1200 E9000000 		.4byte	0xe9
 4872 1204 02       		.uleb128 0x2
 4873 1205 91       		.byte	0x91
 4874 1206 64       		.sleb128 -28
 4875 1207 1E       		.uleb128 0x1e
 4876 1208 63000000 		.4byte	.LASF197
 4877 120c 01       		.byte	0x1
 4878 120d AA02     		.2byte	0x2aa
 4879 120f 94000000 		.4byte	0x94
 4880 1213 02       		.uleb128 0x2
 4881 1214 91       		.byte	0x91
 4882 1215 60       		.sleb128 -32
 4883 1216 1E       		.uleb128 0x1e
 4884 1217 D2090000 		.4byte	.LASF198
 4885 121b 01       		.byte	0x1
 4886 121c AB02     		.2byte	0x2ab
 4887 121e 94000000 		.4byte	0x94
 4888 1222 02       		.uleb128 0x2
 4889 1223 91       		.byte	0x91
 4890 1224 5C       		.sleb128 -36
 4891 1225 00       		.byte	0
 4892 1226 05       		.uleb128 0x5
 4893 1227 04       		.byte	0x4
 4894 1228 59010000 		.4byte	0x159
 4895 122c 1C       		.uleb128 0x1c
 4896 122d C7040000 		.4byte	.LASF199
 4897 1231 01       		.byte	0x1
 4898 1232 0703     		.2byte	0x307
 4899 1234 94000000 		.4byte	0x94
 4900 1238 00000000 		.4byte	.LFB67
 4901 123c 34000000 		.4byte	.LFE67-.LFB67
 4902 1240 01       		.uleb128 0x1
 4903 1241 9C       		.byte	0x9c
 4904 1242 65120000 		.4byte	0x1265
 4905 1246 1E       		.uleb128 0x1e
 4906 1247 10010000 		.4byte	.LASF180
 4907 124b 01       		.byte	0x1
 4908 124c 0903     		.2byte	0x309
 4909 124e D0010000 		.4byte	0x1d0
 4910 1252 02       		.uleb128 0x2
 4911 1253 91       		.byte	0x91
 4912 1254 6F       		.sleb128 -17
 4913 1255 1E       		.uleb128 0x1e
 4914 1256 AB070000 		.4byte	.LASF185
 4915 125a 01       		.byte	0x1
 4916 125b 0A03     		.2byte	0x30a
ARM GAS  C:\Users\ilya\AppData\Local\Temp\ccGij5YZ.s 			page 102


 4917 125d 8C030000 		.4byte	0x38c
 4918 1261 02       		.uleb128 0x2
 4919 1262 91       		.byte	0x91
 4920 1263 50       		.sleb128 -48
 4921 1264 00       		.byte	0
 4922 1265 09       		.uleb128 0x9
 4923 1266 42000000 		.4byte	0x42
 4924 126a 75120000 		.4byte	0x1275
 4925 126e 0A       		.uleb128 0xa
 4926 126f A9000000 		.4byte	0xa9
 4927 1273 63       		.byte	0x63
 4928 1274 00       		.byte	0
 4929 1275 19       		.uleb128 0x19
 4930 1276 6F090000 		.4byte	.LASF200
 4931 127a 01       		.byte	0x1
 4932 127b 4F       		.byte	0x4f
 4933 127c 65120000 		.4byte	0x1265
 4934 1280 05       		.uleb128 0x5
 4935 1281 03       		.byte	0x3
 4936 1282 04000000 		.4byte	_dataBytes
 4937 1286 09       		.uleb128 0x9
 4938 1287 B6000000 		.4byte	0xb6
 4939 128b 96120000 		.4byte	0x1296
 4940 128f 0A       		.uleb128 0xa
 4941 1290 A9000000 		.4byte	0xa9
 4942 1294 FF       		.byte	0xff
 4943 1295 00       		.byte	0
 4944 1296 24       		.uleb128 0x24
 4945 1297 F40B0000 		.4byte	.LASF201
 4946 129b 01       		.byte	0x1
 4947 129c 3F       		.byte	0x3f
 4948 129d 86120000 		.4byte	0x1286
 4949 12a1 05       		.uleb128 0x5
 4950 12a2 03       		.byte	0x3
 4951 12a3 00000000 		.4byte	debug_string
 4952 12a7 24       		.uleb128 0x24
 4953 12a8 00000000 		.4byte	.LASF202
 4954 12ac 01       		.byte	0x1
 4955 12ad 41       		.byte	0x41
 4956 12ae D3000000 		.4byte	0xd3
 4957 12b2 05       		.uleb128 0x5
 4958 12b3 03       		.byte	0x3
 4959 12b4 00000000 		.4byte	cached_page
 4960 12b8 25       		.uleb128 0x25
 4961 12b9 42040000 		.4byte	.LASF203
 4962 12bd 01       		.byte	0x1
 4963 12be 9E02     		.2byte	0x29e
 4964 12c0 20070000 		.4byte	0x720
 4965 12c4 05       		.uleb128 0x5
 4966 12c5 03       		.byte	0x3
 4967 12c6 00000000 		.4byte	MyDevice
 4968 12ca 25       		.uleb128 0x25
 4969 12cb 190D0000 		.4byte	.LASF184
 4970 12cf 01       		.byte	0x1
 4971 12d0 9F02     		.2byte	0x29f
 4972 12d2 2B070000 		.4byte	0x72b
 4973 12d6 05       		.uleb128 0x5
ARM GAS  C:\Users\ilya\AppData\Local\Temp\ccGij5YZ.s 			page 103


 4974 12d7 03       		.byte	0x3
 4975 12d8 00000000 		.4byte	pMyDevice
 4976 12dc 00       		.byte	0
 4977              		.section	.debug_abbrev,"",%progbits
 4978              	.Ldebug_abbrev0:
 4979 0000 01       		.uleb128 0x1
 4980 0001 11       		.uleb128 0x11
 4981 0002 01       		.byte	0x1
 4982 0003 25       		.uleb128 0x25
 4983 0004 0E       		.uleb128 0xe
 4984 0005 13       		.uleb128 0x13
 4985 0006 0B       		.uleb128 0xb
 4986 0007 03       		.uleb128 0x3
 4987 0008 0E       		.uleb128 0xe
 4988 0009 1B       		.uleb128 0x1b
 4989 000a 0E       		.uleb128 0xe
 4990 000b 55       		.uleb128 0x55
 4991 000c 17       		.uleb128 0x17
 4992 000d 11       		.uleb128 0x11
 4993 000e 01       		.uleb128 0x1
 4994 000f 10       		.uleb128 0x10
 4995 0010 17       		.uleb128 0x17
 4996 0011 00       		.byte	0
 4997 0012 00       		.byte	0
 4998 0013 02       		.uleb128 0x2
 4999 0014 16       		.uleb128 0x16
 5000 0015 00       		.byte	0
 5001 0016 03       		.uleb128 0x3
 5002 0017 0E       		.uleb128 0xe
 5003 0018 3A       		.uleb128 0x3a
 5004 0019 0B       		.uleb128 0xb
 5005 001a 3B       		.uleb128 0x3b
 5006 001b 0B       		.uleb128 0xb
 5007 001c 49       		.uleb128 0x49
 5008 001d 13       		.uleb128 0x13
 5009 001e 00       		.byte	0
 5010 001f 00       		.byte	0
 5011 0020 03       		.uleb128 0x3
 5012 0021 24       		.uleb128 0x24
 5013 0022 00       		.byte	0
 5014 0023 0B       		.uleb128 0xb
 5015 0024 0B       		.uleb128 0xb
 5016 0025 3E       		.uleb128 0x3e
 5017 0026 0B       		.uleb128 0xb
 5018 0027 03       		.uleb128 0x3
 5019 0028 0E       		.uleb128 0xe
 5020 0029 00       		.byte	0
 5021 002a 00       		.byte	0
 5022 002b 04       		.uleb128 0x4
 5023 002c 24       		.uleb128 0x24
 5024 002d 00       		.byte	0
 5025 002e 0B       		.uleb128 0xb
 5026 002f 0B       		.uleb128 0xb
 5027 0030 3E       		.uleb128 0x3e
 5028 0031 0B       		.uleb128 0xb
 5029 0032 03       		.uleb128 0x3
 5030 0033 08       		.uleb128 0x8
ARM GAS  C:\Users\ilya\AppData\Local\Temp\ccGij5YZ.s 			page 104


 5031 0034 00       		.byte	0
 5032 0035 00       		.byte	0
 5033 0036 05       		.uleb128 0x5
 5034 0037 0F       		.uleb128 0xf
 5035 0038 00       		.byte	0
 5036 0039 0B       		.uleb128 0xb
 5037 003a 0B       		.uleb128 0xb
 5038 003b 49       		.uleb128 0x49
 5039 003c 13       		.uleb128 0x13
 5040 003d 00       		.byte	0
 5041 003e 00       		.byte	0
 5042 003f 06       		.uleb128 0x6
 5043 0040 26       		.uleb128 0x26
 5044 0041 00       		.byte	0
 5045 0042 49       		.uleb128 0x49
 5046 0043 13       		.uleb128 0x13
 5047 0044 00       		.byte	0
 5048 0045 00       		.byte	0
 5049 0046 07       		.uleb128 0x7
 5050 0047 13       		.uleb128 0x13
 5051 0048 01       		.byte	0x1
 5052 0049 0B       		.uleb128 0xb
 5053 004a 0B       		.uleb128 0xb
 5054 004b 3A       		.uleb128 0x3a
 5055 004c 0B       		.uleb128 0xb
 5056 004d 3B       		.uleb128 0x3b
 5057 004e 0B       		.uleb128 0xb
 5058 004f 01       		.uleb128 0x1
 5059 0050 13       		.uleb128 0x13
 5060 0051 00       		.byte	0
 5061 0052 00       		.byte	0
 5062 0053 08       		.uleb128 0x8
 5063 0054 0D       		.uleb128 0xd
 5064 0055 00       		.byte	0
 5065 0056 03       		.uleb128 0x3
 5066 0057 0E       		.uleb128 0xe
 5067 0058 3A       		.uleb128 0x3a
 5068 0059 0B       		.uleb128 0xb
 5069 005a 3B       		.uleb128 0x3b
 5070 005b 0B       		.uleb128 0xb
 5071 005c 49       		.uleb128 0x49
 5072 005d 13       		.uleb128 0x13
 5073 005e 38       		.uleb128 0x38
 5074 005f 0B       		.uleb128 0xb
 5075 0060 00       		.byte	0
 5076 0061 00       		.byte	0
 5077 0062 09       		.uleb128 0x9
 5078 0063 01       		.uleb128 0x1
 5079 0064 01       		.byte	0x1
 5080 0065 49       		.uleb128 0x49
 5081 0066 13       		.uleb128 0x13
 5082 0067 01       		.uleb128 0x1
 5083 0068 13       		.uleb128 0x13
 5084 0069 00       		.byte	0
 5085 006a 00       		.byte	0
 5086 006b 0A       		.uleb128 0xa
 5087 006c 21       		.uleb128 0x21
ARM GAS  C:\Users\ilya\AppData\Local\Temp\ccGij5YZ.s 			page 105


 5088 006d 00       		.byte	0
 5089 006e 49       		.uleb128 0x49
 5090 006f 13       		.uleb128 0x13
 5091 0070 2F       		.uleb128 0x2f
 5092 0071 0B       		.uleb128 0xb
 5093 0072 00       		.byte	0
 5094 0073 00       		.byte	0
 5095 0074 0B       		.uleb128 0xb
 5096 0075 0D       		.uleb128 0xd
 5097 0076 00       		.byte	0
 5098 0077 03       		.uleb128 0x3
 5099 0078 0E       		.uleb128 0xe
 5100 0079 3A       		.uleb128 0x3a
 5101 007a 0B       		.uleb128 0xb
 5102 007b 3B       		.uleb128 0x3b
 5103 007c 05       		.uleb128 0x5
 5104 007d 49       		.uleb128 0x49
 5105 007e 13       		.uleb128 0x13
 5106 007f 38       		.uleb128 0x38
 5107 0080 0B       		.uleb128 0xb
 5108 0081 00       		.byte	0
 5109 0082 00       		.byte	0
 5110 0083 0C       		.uleb128 0xc
 5111 0084 16       		.uleb128 0x16
 5112 0085 00       		.byte	0
 5113 0086 03       		.uleb128 0x3
 5114 0087 0E       		.uleb128 0xe
 5115 0088 3A       		.uleb128 0x3a
 5116 0089 0B       		.uleb128 0xb
 5117 008a 3B       		.uleb128 0x3b
 5118 008b 05       		.uleb128 0x5
 5119 008c 49       		.uleb128 0x49
 5120 008d 13       		.uleb128 0x13
 5121 008e 00       		.byte	0
 5122 008f 00       		.byte	0
 5123 0090 0D       		.uleb128 0xd
 5124 0091 13       		.uleb128 0x13
 5125 0092 01       		.byte	0x1
 5126 0093 0B       		.uleb128 0xb
 5127 0094 0B       		.uleb128 0xb
 5128 0095 3A       		.uleb128 0x3a
 5129 0096 0B       		.uleb128 0xb
 5130 0097 3B       		.uleb128 0x3b
 5131 0098 05       		.uleb128 0x5
 5132 0099 01       		.uleb128 0x1
 5133 009a 13       		.uleb128 0x13
 5134 009b 00       		.byte	0
 5135 009c 00       		.byte	0
 5136 009d 0E       		.uleb128 0xe
 5137 009e 13       		.uleb128 0x13
 5138 009f 01       		.byte	0x1
 5139 00a0 0B       		.uleb128 0xb
 5140 00a1 05       		.uleb128 0x5
 5141 00a2 3A       		.uleb128 0x3a
 5142 00a3 0B       		.uleb128 0xb
 5143 00a4 3B       		.uleb128 0x3b
 5144 00a5 05       		.uleb128 0x5
ARM GAS  C:\Users\ilya\AppData\Local\Temp\ccGij5YZ.s 			page 106


 5145 00a6 01       		.uleb128 0x1
 5146 00a7 13       		.uleb128 0x13
 5147 00a8 00       		.byte	0
 5148 00a9 00       		.byte	0
 5149 00aa 0F       		.uleb128 0xf
 5150 00ab 0D       		.uleb128 0xd
 5151 00ac 00       		.byte	0
 5152 00ad 03       		.uleb128 0x3
 5153 00ae 0E       		.uleb128 0xe
 5154 00af 3A       		.uleb128 0x3a
 5155 00b0 0B       		.uleb128 0xb
 5156 00b1 3B       		.uleb128 0x3b
 5157 00b2 05       		.uleb128 0x5
 5158 00b3 49       		.uleb128 0x49
 5159 00b4 13       		.uleb128 0x13
 5160 00b5 38       		.uleb128 0x38
 5161 00b6 05       		.uleb128 0x5
 5162 00b7 00       		.byte	0
 5163 00b8 00       		.byte	0
 5164 00b9 10       		.uleb128 0x10
 5165 00ba 13       		.uleb128 0x13
 5166 00bb 01       		.byte	0x1
 5167 00bc 0B       		.uleb128 0xb
 5168 00bd 05       		.uleb128 0x5
 5169 00be 3A       		.uleb128 0x3a
 5170 00bf 0B       		.uleb128 0xb
 5171 00c0 3B       		.uleb128 0x3b
 5172 00c1 0B       		.uleb128 0xb
 5173 00c2 01       		.uleb128 0x1
 5174 00c3 13       		.uleb128 0x13
 5175 00c4 00       		.byte	0
 5176 00c5 00       		.byte	0
 5177 00c6 11       		.uleb128 0x11
 5178 00c7 0D       		.uleb128 0xd
 5179 00c8 00       		.byte	0
 5180 00c9 03       		.uleb128 0x3
 5181 00ca 0E       		.uleb128 0xe
 5182 00cb 3A       		.uleb128 0x3a
 5183 00cc 0B       		.uleb128 0xb
 5184 00cd 3B       		.uleb128 0x3b
 5185 00ce 0B       		.uleb128 0xb
 5186 00cf 49       		.uleb128 0x49
 5187 00d0 13       		.uleb128 0x13
 5188 00d1 38       		.uleb128 0x38
 5189 00d2 05       		.uleb128 0x5
 5190 00d3 00       		.byte	0
 5191 00d4 00       		.byte	0
 5192 00d5 12       		.uleb128 0x12
 5193 00d6 2E       		.uleb128 0x2e
 5194 00d7 01       		.byte	0x1
 5195 00d8 3F       		.uleb128 0x3f
 5196 00d9 19       		.uleb128 0x19
 5197 00da 03       		.uleb128 0x3
 5198 00db 0E       		.uleb128 0xe
 5199 00dc 3A       		.uleb128 0x3a
 5200 00dd 0B       		.uleb128 0xb
 5201 00de 3B       		.uleb128 0x3b
ARM GAS  C:\Users\ilya\AppData\Local\Temp\ccGij5YZ.s 			page 107


 5202 00df 0B       		.uleb128 0xb
 5203 00e0 27       		.uleb128 0x27
 5204 00e1 19       		.uleb128 0x19
 5205 00e2 11       		.uleb128 0x11
 5206 00e3 01       		.uleb128 0x1
 5207 00e4 12       		.uleb128 0x12
 5208 00e5 06       		.uleb128 0x6
 5209 00e6 40       		.uleb128 0x40
 5210 00e7 18       		.uleb128 0x18
 5211 00e8 9742     		.uleb128 0x2117
 5212 00ea 19       		.uleb128 0x19
 5213 00eb 01       		.uleb128 0x1
 5214 00ec 13       		.uleb128 0x13
 5215 00ed 00       		.byte	0
 5216 00ee 00       		.byte	0
 5217 00ef 13       		.uleb128 0x13
 5218 00f0 05       		.uleb128 0x5
 5219 00f1 00       		.byte	0
 5220 00f2 03       		.uleb128 0x3
 5221 00f3 08       		.uleb128 0x8
 5222 00f4 3A       		.uleb128 0x3a
 5223 00f5 0B       		.uleb128 0xb
 5224 00f6 3B       		.uleb128 0x3b
 5225 00f7 0B       		.uleb128 0xb
 5226 00f8 49       		.uleb128 0x49
 5227 00f9 13       		.uleb128 0x13
 5228 00fa 02       		.uleb128 0x2
 5229 00fb 18       		.uleb128 0x18
 5230 00fc 00       		.byte	0
 5231 00fd 00       		.byte	0
 5232 00fe 14       		.uleb128 0x14
 5233 00ff 18       		.uleb128 0x18
 5234 0100 00       		.byte	0
 5235 0101 00       		.byte	0
 5236 0102 00       		.byte	0
 5237 0103 15       		.uleb128 0x15
 5238 0104 2E       		.uleb128 0x2e
 5239 0105 00       		.byte	0
 5240 0106 3F       		.uleb128 0x3f
 5241 0107 19       		.uleb128 0x19
 5242 0108 03       		.uleb128 0x3
 5243 0109 0E       		.uleb128 0xe
 5244 010a 3A       		.uleb128 0x3a
 5245 010b 0B       		.uleb128 0xb
 5246 010c 3B       		.uleb128 0x3b
 5247 010d 0B       		.uleb128 0xb
 5248 010e 27       		.uleb128 0x27
 5249 010f 19       		.uleb128 0x19
 5250 0110 49       		.uleb128 0x49
 5251 0111 13       		.uleb128 0x13
 5252 0112 11       		.uleb128 0x11
 5253 0113 01       		.uleb128 0x1
 5254 0114 12       		.uleb128 0x12
 5255 0115 06       		.uleb128 0x6
 5256 0116 40       		.uleb128 0x40
 5257 0117 18       		.uleb128 0x18
 5258 0118 9742     		.uleb128 0x2117
ARM GAS  C:\Users\ilya\AppData\Local\Temp\ccGij5YZ.s 			page 108


 5259 011a 19       		.uleb128 0x19
 5260 011b 00       		.byte	0
 5261 011c 00       		.byte	0
 5262 011d 16       		.uleb128 0x16
 5263 011e 2E       		.uleb128 0x2e
 5264 011f 01       		.byte	0x1
 5265 0120 3F       		.uleb128 0x3f
 5266 0121 19       		.uleb128 0x19
 5267 0122 03       		.uleb128 0x3
 5268 0123 0E       		.uleb128 0xe
 5269 0124 3A       		.uleb128 0x3a
 5270 0125 0B       		.uleb128 0xb
 5271 0126 3B       		.uleb128 0x3b
 5272 0127 0B       		.uleb128 0xb
 5273 0128 27       		.uleb128 0x27
 5274 0129 19       		.uleb128 0x19
 5275 012a 49       		.uleb128 0x49
 5276 012b 13       		.uleb128 0x13
 5277 012c 11       		.uleb128 0x11
 5278 012d 01       		.uleb128 0x1
 5279 012e 12       		.uleb128 0x12
 5280 012f 06       		.uleb128 0x6
 5281 0130 40       		.uleb128 0x40
 5282 0131 18       		.uleb128 0x18
 5283 0132 9742     		.uleb128 0x2117
 5284 0134 19       		.uleb128 0x19
 5285 0135 01       		.uleb128 0x1
 5286 0136 13       		.uleb128 0x13
 5287 0137 00       		.byte	0
 5288 0138 00       		.byte	0
 5289 0139 17       		.uleb128 0x17
 5290 013a 05       		.uleb128 0x5
 5291 013b 00       		.byte	0
 5292 013c 03       		.uleb128 0x3
 5293 013d 0E       		.uleb128 0xe
 5294 013e 3A       		.uleb128 0x3a
 5295 013f 0B       		.uleb128 0xb
 5296 0140 3B       		.uleb128 0x3b
 5297 0141 0B       		.uleb128 0xb
 5298 0142 49       		.uleb128 0x49
 5299 0143 13       		.uleb128 0x13
 5300 0144 02       		.uleb128 0x2
 5301 0145 18       		.uleb128 0x18
 5302 0146 00       		.byte	0
 5303 0147 00       		.byte	0
 5304 0148 18       		.uleb128 0x18
 5305 0149 2E       		.uleb128 0x2e
 5306 014a 01       		.byte	0x1
 5307 014b 3F       		.uleb128 0x3f
 5308 014c 19       		.uleb128 0x19
 5309 014d 03       		.uleb128 0x3
 5310 014e 0E       		.uleb128 0xe
 5311 014f 3A       		.uleb128 0x3a
 5312 0150 0B       		.uleb128 0xb
 5313 0151 3B       		.uleb128 0x3b
 5314 0152 0B       		.uleb128 0xb
 5315 0153 27       		.uleb128 0x27
ARM GAS  C:\Users\ilya\AppData\Local\Temp\ccGij5YZ.s 			page 109


 5316 0154 19       		.uleb128 0x19
 5317 0155 49       		.uleb128 0x49
 5318 0156 13       		.uleb128 0x13
 5319 0157 11       		.uleb128 0x11
 5320 0158 01       		.uleb128 0x1
 5321 0159 12       		.uleb128 0x12
 5322 015a 06       		.uleb128 0x6
 5323 015b 40       		.uleb128 0x40
 5324 015c 18       		.uleb128 0x18
 5325 015d 9642     		.uleb128 0x2116
 5326 015f 19       		.uleb128 0x19
 5327 0160 01       		.uleb128 0x1
 5328 0161 13       		.uleb128 0x13
 5329 0162 00       		.byte	0
 5330 0163 00       		.byte	0
 5331 0164 19       		.uleb128 0x19
 5332 0165 34       		.uleb128 0x34
 5333 0166 00       		.byte	0
 5334 0167 03       		.uleb128 0x3
 5335 0168 0E       		.uleb128 0xe
 5336 0169 3A       		.uleb128 0x3a
 5337 016a 0B       		.uleb128 0xb
 5338 016b 3B       		.uleb128 0x3b
 5339 016c 0B       		.uleb128 0xb
 5340 016d 49       		.uleb128 0x49
 5341 016e 13       		.uleb128 0x13
 5342 016f 02       		.uleb128 0x2
 5343 0170 18       		.uleb128 0x18
 5344 0171 00       		.byte	0
 5345 0172 00       		.byte	0
 5346 0173 1A       		.uleb128 0x1a
 5347 0174 34       		.uleb128 0x34
 5348 0175 00       		.byte	0
 5349 0176 03       		.uleb128 0x3
 5350 0177 08       		.uleb128 0x8
 5351 0178 3A       		.uleb128 0x3a
 5352 0179 0B       		.uleb128 0xb
 5353 017a 3B       		.uleb128 0x3b
 5354 017b 0B       		.uleb128 0xb
 5355 017c 49       		.uleb128 0x49
 5356 017d 13       		.uleb128 0x13
 5357 017e 02       		.uleb128 0x2
 5358 017f 18       		.uleb128 0x18
 5359 0180 00       		.byte	0
 5360 0181 00       		.byte	0
 5361 0182 1B       		.uleb128 0x1b
 5362 0183 34       		.uleb128 0x34
 5363 0184 00       		.byte	0
 5364 0185 03       		.uleb128 0x3
 5365 0186 0E       		.uleb128 0xe
 5366 0187 3A       		.uleb128 0x3a
 5367 0188 0B       		.uleb128 0xb
 5368 0189 3B       		.uleb128 0x3b
 5369 018a 0B       		.uleb128 0xb
 5370 018b 49       		.uleb128 0x49
 5371 018c 13       		.uleb128 0x13
 5372 018d 00       		.byte	0
ARM GAS  C:\Users\ilya\AppData\Local\Temp\ccGij5YZ.s 			page 110


 5373 018e 00       		.byte	0
 5374 018f 1C       		.uleb128 0x1c
 5375 0190 2E       		.uleb128 0x2e
 5376 0191 01       		.byte	0x1
 5377 0192 3F       		.uleb128 0x3f
 5378 0193 19       		.uleb128 0x19
 5379 0194 03       		.uleb128 0x3
 5380 0195 0E       		.uleb128 0xe
 5381 0196 3A       		.uleb128 0x3a
 5382 0197 0B       		.uleb128 0xb
 5383 0198 3B       		.uleb128 0x3b
 5384 0199 05       		.uleb128 0x5
 5385 019a 27       		.uleb128 0x27
 5386 019b 19       		.uleb128 0x19
 5387 019c 49       		.uleb128 0x49
 5388 019d 13       		.uleb128 0x13
 5389 019e 11       		.uleb128 0x11
 5390 019f 01       		.uleb128 0x1
 5391 01a0 12       		.uleb128 0x12
 5392 01a1 06       		.uleb128 0x6
 5393 01a2 40       		.uleb128 0x40
 5394 01a3 18       		.uleb128 0x18
 5395 01a4 9642     		.uleb128 0x2116
 5396 01a6 19       		.uleb128 0x19
 5397 01a7 01       		.uleb128 0x1
 5398 01a8 13       		.uleb128 0x13
 5399 01a9 00       		.byte	0
 5400 01aa 00       		.byte	0
 5401 01ab 1D       		.uleb128 0x1d
 5402 01ac 05       		.uleb128 0x5
 5403 01ad 00       		.byte	0
 5404 01ae 03       		.uleb128 0x3
 5405 01af 0E       		.uleb128 0xe
 5406 01b0 3A       		.uleb128 0x3a
 5407 01b1 0B       		.uleb128 0xb
 5408 01b2 3B       		.uleb128 0x3b
 5409 01b3 05       		.uleb128 0x5
 5410 01b4 49       		.uleb128 0x49
 5411 01b5 13       		.uleb128 0x13
 5412 01b6 02       		.uleb128 0x2
 5413 01b7 18       		.uleb128 0x18
 5414 01b8 00       		.byte	0
 5415 01b9 00       		.byte	0
 5416 01ba 1E       		.uleb128 0x1e
 5417 01bb 34       		.uleb128 0x34
 5418 01bc 00       		.byte	0
 5419 01bd 03       		.uleb128 0x3
 5420 01be 0E       		.uleb128 0xe
 5421 01bf 3A       		.uleb128 0x3a
 5422 01c0 0B       		.uleb128 0xb
 5423 01c1 3B       		.uleb128 0x3b
 5424 01c2 05       		.uleb128 0x5
 5425 01c3 49       		.uleb128 0x49
 5426 01c4 13       		.uleb128 0x13
 5427 01c5 02       		.uleb128 0x2
 5428 01c6 18       		.uleb128 0x18
 5429 01c7 00       		.byte	0
ARM GAS  C:\Users\ilya\AppData\Local\Temp\ccGij5YZ.s 			page 111


 5430 01c8 00       		.byte	0
 5431 01c9 1F       		.uleb128 0x1f
 5432 01ca 34       		.uleb128 0x34
 5433 01cb 00       		.byte	0
 5434 01cc 03       		.uleb128 0x3
 5435 01cd 08       		.uleb128 0x8
 5436 01ce 3A       		.uleb128 0x3a
 5437 01cf 0B       		.uleb128 0xb
 5438 01d0 3B       		.uleb128 0x3b
 5439 01d1 05       		.uleb128 0x5
 5440 01d2 49       		.uleb128 0x49
 5441 01d3 13       		.uleb128 0x13
 5442 01d4 02       		.uleb128 0x2
 5443 01d5 18       		.uleb128 0x18
 5444 01d6 00       		.byte	0
 5445 01d7 00       		.byte	0
 5446 01d8 20       		.uleb128 0x20
 5447 01d9 34       		.uleb128 0x34
 5448 01da 00       		.byte	0
 5449 01db 03       		.uleb128 0x3
 5450 01dc 0E       		.uleb128 0xe
 5451 01dd 3A       		.uleb128 0x3a
 5452 01de 0B       		.uleb128 0xb
 5453 01df 3B       		.uleb128 0x3b
 5454 01e0 05       		.uleb128 0x5
 5455 01e1 49       		.uleb128 0x49
 5456 01e2 13       		.uleb128 0x13
 5457 01e3 00       		.byte	0
 5458 01e4 00       		.byte	0
 5459 01e5 21       		.uleb128 0x21
 5460 01e6 2E       		.uleb128 0x2e
 5461 01e7 01       		.byte	0x1
 5462 01e8 3F       		.uleb128 0x3f
 5463 01e9 19       		.uleb128 0x19
 5464 01ea 03       		.uleb128 0x3
 5465 01eb 0E       		.uleb128 0xe
 5466 01ec 3A       		.uleb128 0x3a
 5467 01ed 0B       		.uleb128 0xb
 5468 01ee 3B       		.uleb128 0x3b
 5469 01ef 05       		.uleb128 0x5
 5470 01f0 27       		.uleb128 0x27
 5471 01f1 19       		.uleb128 0x19
 5472 01f2 49       		.uleb128 0x49
 5473 01f3 13       		.uleb128 0x13
 5474 01f4 11       		.uleb128 0x11
 5475 01f5 01       		.uleb128 0x1
 5476 01f6 12       		.uleb128 0x12
 5477 01f7 06       		.uleb128 0x6
 5478 01f8 40       		.uleb128 0x40
 5479 01f9 18       		.uleb128 0x18
 5480 01fa 9742     		.uleb128 0x2117
 5481 01fc 19       		.uleb128 0x19
 5482 01fd 01       		.uleb128 0x1
 5483 01fe 13       		.uleb128 0x13
 5484 01ff 00       		.byte	0
 5485 0200 00       		.byte	0
 5486 0201 22       		.uleb128 0x22
ARM GAS  C:\Users\ilya\AppData\Local\Temp\ccGij5YZ.s 			page 112


 5487 0202 2E       		.uleb128 0x2e
 5488 0203 01       		.byte	0x1
 5489 0204 3F       		.uleb128 0x3f
 5490 0205 19       		.uleb128 0x19
 5491 0206 03       		.uleb128 0x3
 5492 0207 0E       		.uleb128 0xe
 5493 0208 3A       		.uleb128 0x3a
 5494 0209 0B       		.uleb128 0xb
 5495 020a 3B       		.uleb128 0x3b
 5496 020b 05       		.uleb128 0x5
 5497 020c 27       		.uleb128 0x27
 5498 020d 19       		.uleb128 0x19
 5499 020e 11       		.uleb128 0x11
 5500 020f 01       		.uleb128 0x1
 5501 0210 12       		.uleb128 0x12
 5502 0211 06       		.uleb128 0x6
 5503 0212 40       		.uleb128 0x40
 5504 0213 18       		.uleb128 0x18
 5505 0214 9642     		.uleb128 0x2116
 5506 0216 19       		.uleb128 0x19
 5507 0217 01       		.uleb128 0x1
 5508 0218 13       		.uleb128 0x13
 5509 0219 00       		.byte	0
 5510 021a 00       		.byte	0
 5511 021b 23       		.uleb128 0x23
 5512 021c 2E       		.uleb128 0x2e
 5513 021d 01       		.byte	0x1
 5514 021e 3F       		.uleb128 0x3f
 5515 021f 19       		.uleb128 0x19
 5516 0220 03       		.uleb128 0x3
 5517 0221 0E       		.uleb128 0xe
 5518 0222 3A       		.uleb128 0x3a
 5519 0223 0B       		.uleb128 0xb
 5520 0224 3B       		.uleb128 0x3b
 5521 0225 05       		.uleb128 0x5
 5522 0226 49       		.uleb128 0x49
 5523 0227 13       		.uleb128 0x13
 5524 0228 11       		.uleb128 0x11
 5525 0229 01       		.uleb128 0x1
 5526 022a 12       		.uleb128 0x12
 5527 022b 06       		.uleb128 0x6
 5528 022c 40       		.uleb128 0x40
 5529 022d 18       		.uleb128 0x18
 5530 022e 9642     		.uleb128 0x2116
 5531 0230 19       		.uleb128 0x19
 5532 0231 01       		.uleb128 0x1
 5533 0232 13       		.uleb128 0x13
 5534 0233 00       		.byte	0
 5535 0234 00       		.byte	0
 5536 0235 24       		.uleb128 0x24
 5537 0236 34       		.uleb128 0x34
 5538 0237 00       		.byte	0
 5539 0238 03       		.uleb128 0x3
 5540 0239 0E       		.uleb128 0xe
 5541 023a 3A       		.uleb128 0x3a
 5542 023b 0B       		.uleb128 0xb
 5543 023c 3B       		.uleb128 0x3b
ARM GAS  C:\Users\ilya\AppData\Local\Temp\ccGij5YZ.s 			page 113


 5544 023d 0B       		.uleb128 0xb
 5545 023e 49       		.uleb128 0x49
 5546 023f 13       		.uleb128 0x13
 5547 0240 3F       		.uleb128 0x3f
 5548 0241 19       		.uleb128 0x19
 5549 0242 02       		.uleb128 0x2
 5550 0243 18       		.uleb128 0x18
 5551 0244 00       		.byte	0
 5552 0245 00       		.byte	0
 5553 0246 25       		.uleb128 0x25
 5554 0247 34       		.uleb128 0x34
 5555 0248 00       		.byte	0
 5556 0249 03       		.uleb128 0x3
 5557 024a 0E       		.uleb128 0xe
 5558 024b 3A       		.uleb128 0x3a
 5559 024c 0B       		.uleb128 0xb
 5560 024d 3B       		.uleb128 0x3b
 5561 024e 05       		.uleb128 0x5
 5562 024f 49       		.uleb128 0x49
 5563 0250 13       		.uleb128 0x13
 5564 0251 3F       		.uleb128 0x3f
 5565 0252 19       		.uleb128 0x19
 5566 0253 02       		.uleb128 0x2
 5567 0254 18       		.uleb128 0x18
 5568 0255 00       		.byte	0
 5569 0256 00       		.byte	0
 5570 0257 00       		.byte	0
 5571              		.section	.debug_aranges,"",%progbits
 5572 0000 1C010000 		.4byte	0x11c
 5573 0004 0200     		.2byte	0x2
 5574 0006 00000000 		.4byte	.Ldebug_info0
 5575 000a 04       		.byte	0x4
 5576 000b 00       		.byte	0
 5577 000c 0000     		.2byte	0
 5578 000e 0000     		.2byte	0
 5579 0010 00000000 		.4byte	.LFB35
 5580 0014 12000000 		.4byte	.LFE35-.LFB35
 5581 0018 00000000 		.4byte	.LFB36
 5582 001c 0C000000 		.4byte	.LFE36-.LFB36
 5583 0020 00000000 		.4byte	.LFB37
 5584 0024 14000000 		.4byte	.LFE37-.LFB37
 5585 0028 00000000 		.4byte	.LFB38
 5586 002c 0C000000 		.4byte	.LFE38-.LFB38
 5587 0030 00000000 		.4byte	.LFB39
 5588 0034 92000000 		.4byte	.LFE39-.LFB39
 5589 0038 00000000 		.4byte	.LFB40
 5590 003c 84000000 		.4byte	.LFE40-.LFB40
 5591 0040 00000000 		.4byte	.LFB41
 5592 0044 46000000 		.4byte	.LFE41-.LFB41
 5593 0048 00000000 		.4byte	.LFB42
 5594 004c A0000000 		.4byte	.LFE42-.LFB42
 5595 0050 00000000 		.4byte	.LFB43
 5596 0054 66000000 		.4byte	.LFE43-.LFB43
 5597 0058 00000000 		.4byte	.LFB44
 5598 005c 3C000000 		.4byte	.LFE44-.LFB44
 5599 0060 00000000 		.4byte	.LFB45
 5600 0064 54000000 		.4byte	.LFE45-.LFB45
ARM GAS  C:\Users\ilya\AppData\Local\Temp\ccGij5YZ.s 			page 114


 5601 0068 00000000 		.4byte	.LFB46
 5602 006c 60000000 		.4byte	.LFE46-.LFB46
 5603 0070 00000000 		.4byte	.LFB47
 5604 0074 8E000000 		.4byte	.LFE47-.LFB47
 5605 0078 00000000 		.4byte	.LFB48
 5606 007c A0000000 		.4byte	.LFE48-.LFB48
 5607 0080 00000000 		.4byte	.LFB49
 5608 0084 46000000 		.4byte	.LFE49-.LFB49
 5609 0088 00000000 		.4byte	.LFB50
 5610 008c A0000000 		.4byte	.LFE50-.LFB50
 5611 0090 00000000 		.4byte	.LFB51
 5612 0094 82000000 		.4byte	.LFE51-.LFB51
 5613 0098 00000000 		.4byte	.LFB52
 5614 009c 3C000000 		.4byte	.LFE52-.LFB52
 5615 00a0 00000000 		.4byte	.LFB53
 5616 00a4 54000000 		.4byte	.LFE53-.LFB53
 5617 00a8 00000000 		.4byte	.LFB54
 5618 00ac 60000000 		.4byte	.LFE54-.LFB54
 5619 00b0 00000000 		.4byte	.LFB55
 5620 00b4 30000000 		.4byte	.LFE55-.LFB55
 5621 00b8 00000000 		.4byte	.LFB56
 5622 00bc 16000000 		.4byte	.LFE56-.LFB56
 5623 00c0 00000000 		.4byte	.LFB57
 5624 00c4 1A000000 		.4byte	.LFE57-.LFB57
 5625 00c8 00000000 		.4byte	.LFB58
 5626 00cc 16000000 		.4byte	.LFE58-.LFB58
 5627 00d0 00000000 		.4byte	.LFB59
 5628 00d4 14000000 		.4byte	.LFE59-.LFB59
 5629 00d8 00000000 		.4byte	.LFB60
 5630 00dc 14000000 		.4byte	.LFE60-.LFB60
 5631 00e0 00000000 		.4byte	.LFB61
 5632 00e4 18000000 		.4byte	.LFE61-.LFB61
 5633 00e8 00000000 		.4byte	.LFB62
 5634 00ec 18000000 		.4byte	.LFE62-.LFB62
 5635 00f0 00000000 		.4byte	.LFB63
 5636 00f4 3C000000 		.4byte	.LFE63-.LFB63
 5637 00f8 00000000 		.4byte	.LFB64
 5638 00fc 44000000 		.4byte	.LFE64-.LFB64
 5639 0100 00000000 		.4byte	.LFB65
 5640 0104 60020000 		.4byte	.LFE65-.LFB65
 5641 0108 00000000 		.4byte	.LFB66
 5642 010c 80010000 		.4byte	.LFE66-.LFB66
 5643 0110 00000000 		.4byte	.LFB67
 5644 0114 34000000 		.4byte	.LFE67-.LFB67
 5645 0118 00000000 		.4byte	0
 5646 011c 00000000 		.4byte	0
 5647              		.section	.debug_ranges,"",%progbits
 5648              	.Ldebug_ranges0:
 5649 0000 00000000 		.4byte	.LFB35
 5650 0004 12000000 		.4byte	.LFE35
 5651 0008 00000000 		.4byte	.LFB36
 5652 000c 0C000000 		.4byte	.LFE36
 5653 0010 00000000 		.4byte	.LFB37
 5654 0014 14000000 		.4byte	.LFE37
 5655 0018 00000000 		.4byte	.LFB38
 5656 001c 0C000000 		.4byte	.LFE38
 5657 0020 00000000 		.4byte	.LFB39
ARM GAS  C:\Users\ilya\AppData\Local\Temp\ccGij5YZ.s 			page 115


 5658 0024 92000000 		.4byte	.LFE39
 5659 0028 00000000 		.4byte	.LFB40
 5660 002c 84000000 		.4byte	.LFE40
 5661 0030 00000000 		.4byte	.LFB41
 5662 0034 46000000 		.4byte	.LFE41
 5663 0038 00000000 		.4byte	.LFB42
 5664 003c A0000000 		.4byte	.LFE42
 5665 0040 00000000 		.4byte	.LFB43
 5666 0044 66000000 		.4byte	.LFE43
 5667 0048 00000000 		.4byte	.LFB44
 5668 004c 3C000000 		.4byte	.LFE44
 5669 0050 00000000 		.4byte	.LFB45
 5670 0054 54000000 		.4byte	.LFE45
 5671 0058 00000000 		.4byte	.LFB46
 5672 005c 60000000 		.4byte	.LFE46
 5673 0060 00000000 		.4byte	.LFB47
 5674 0064 8E000000 		.4byte	.LFE47
 5675 0068 00000000 		.4byte	.LFB48
 5676 006c A0000000 		.4byte	.LFE48
 5677 0070 00000000 		.4byte	.LFB49
 5678 0074 46000000 		.4byte	.LFE49
 5679 0078 00000000 		.4byte	.LFB50
 5680 007c A0000000 		.4byte	.LFE50
 5681 0080 00000000 		.4byte	.LFB51
 5682 0084 82000000 		.4byte	.LFE51
 5683 0088 00000000 		.4byte	.LFB52
 5684 008c 3C000000 		.4byte	.LFE52
 5685 0090 00000000 		.4byte	.LFB53
 5686 0094 54000000 		.4byte	.LFE53
 5687 0098 00000000 		.4byte	.LFB54
 5688 009c 60000000 		.4byte	.LFE54
 5689 00a0 00000000 		.4byte	.LFB55
 5690 00a4 30000000 		.4byte	.LFE55
 5691 00a8 00000000 		.4byte	.LFB56
 5692 00ac 16000000 		.4byte	.LFE56
 5693 00b0 00000000 		.4byte	.LFB57
 5694 00b4 1A000000 		.4byte	.LFE57
 5695 00b8 00000000 		.4byte	.LFB58
 5696 00bc 16000000 		.4byte	.LFE58
 5697 00c0 00000000 		.4byte	.LFB59
 5698 00c4 14000000 		.4byte	.LFE59
 5699 00c8 00000000 		.4byte	.LFB60
 5700 00cc 14000000 		.4byte	.LFE60
 5701 00d0 00000000 		.4byte	.LFB61
 5702 00d4 18000000 		.4byte	.LFE61
 5703 00d8 00000000 		.4byte	.LFB62
 5704 00dc 18000000 		.4byte	.LFE62
 5705 00e0 00000000 		.4byte	.LFB63
 5706 00e4 3C000000 		.4byte	.LFE63
 5707 00e8 00000000 		.4byte	.LFB64
 5708 00ec 44000000 		.4byte	.LFE64
 5709 00f0 00000000 		.4byte	.LFB65
 5710 00f4 60020000 		.4byte	.LFE65
 5711 00f8 00000000 		.4byte	.LFB66
 5712 00fc 80010000 		.4byte	.LFE66
 5713 0100 00000000 		.4byte	.LFB67
 5714 0104 34000000 		.4byte	.LFE67
ARM GAS  C:\Users\ilya\AppData\Local\Temp\ccGij5YZ.s 			page 116


 5715 0108 00000000 		.4byte	0
 5716 010c 00000000 		.4byte	0
 5717              		.section	.debug_line,"",%progbits
 5718              	.Ldebug_line0:
 5719 0000 18050000 		.section	.debug_str,"MS",%progbits,1
 5719      0200A801 
 5719      00000201 
 5719      FB0E0D00 
 5719      01010101 
 5720              	.LASF202:
 5721 0000 63616368 		.ascii	"cached_page\000"
 5721      65645F70 
 5721      61676500 
 5722              	.LASF93:
 5723 000c 52656665 		.ascii	"ReferenceSpadType\000"
 5723      72656E63 
 5723      65537061 
 5723      64547970 
 5723      6500
 5724              	.LASF62:
 5725 001e 5369676E 		.ascii	"SignalRateRtnMegaCps\000"
 5725      616C5261 
 5725      74655274 
 5725      6E4D6567 
 5725      61437073 
 5726              	.LASF96:
 5727 0033 50617274 		.ascii	"PartUIDLower\000"
 5727      5549444C 
 5727      6F776572 
 5727      00
 5728              	.LASF34:
 5729 0040 50726F64 		.ascii	"ProductRevisionMajor\000"
 5729      75637452 
 5729      65766973 
 5729      696F6E4D 
 5729      616A6F72 
 5730              	.LASF42:
 5731 0055 48697374 		.ascii	"HistogramMode\000"
 5731      6F677261 
 5731      6D4D6F64 
 5731      6500
 5732              	.LASF197:
 5733 0063 4E65636C 		.ascii	"NecleoComStatus\000"
 5733      656F436F 
 5733      6D537461 
 5733      74757300 
 5734              	.LASF194:
 5735 0073 44657669 		.ascii	"DeviceInfo\000"
 5735      6365496E 
 5735      666F00
 5736              	.LASF45:
 5737 007e 5854616C 		.ascii	"XTalkCompensationEnable\000"
 5737      6B436F6D 
 5737      70656E73 
 5737      6174696F 
 5737      6E456E61 
 5738              	.LASF154:
ARM GAS  C:\Users\ilya\AppData\Local\Temp\ccGij5YZ.s 			page 117


 5739 0096 564C3533 		.ascii	"VL53L0X_read_dword\000"
 5739      4C30585F 
 5739      72656164 
 5739      5F64776F 
 5739      726400
 5740              	.LASF85:
 5741 00a9 50726552 		.ascii	"PreRangeVcselPulsePeriod\000"
 5741      616E6765 
 5741      56637365 
 5741      6C50756C 
 5741      73655065 
 5742              	.LASF150:
 5743 00c2 62756666 		.ascii	"buffer\000"
 5743      657200
 5744              	.LASF164:
 5745 00c9 564C3533 		.ascii	"VL53L0X_platform_wait_us\000"
 5745      4C30585F 
 5745      706C6174 
 5745      666F726D 
 5745      5F776169 
 5746              	.LASF13:
 5747 00e2 756E7369 		.ascii	"unsigned int\000"
 5747      676E6564 
 5747      20696E74 
 5747      00
 5748              	.LASF46:
 5749 00ef 5854616C 		.ascii	"XTalkCompensationRangeMilliMeter\000"
 5749      6B436F6D 
 5749      70656E73 
 5749      6174696F 
 5749      6E52616E 
 5750              	.LASF180:
 5751 0110 53746174 		.ascii	"Status\000"
 5751      757300
 5752              	.LASF40:
 5753 0117 564C3533 		.ascii	"VL53L0X_PowerModes\000"
 5753      4C30585F 
 5753      506F7765 
 5753      724D6F64 
 5753      657300
 5754              	.LASF32:
 5755 012a 50726F64 		.ascii	"ProductId\000"
 5755      75637449 
 5755      6400
 5756              	.LASF49:
 5757 0134 4C696D69 		.ascii	"LimitChecksEnable\000"
 5757      74436865 
 5757      636B7345 
 5757      6E61626C 
 5757      6500
 5758              	.LASF74:
 5759 0146 4572726F 		.ascii	"ErrorStatus\000"
 5759      72537461 
 5759      74757300 
 5760              	.LASF63:
 5761 0152 416D6269 		.ascii	"AmbientRateRtnMegaCps\000"
 5761      656E7452 
ARM GAS  C:\Users\ilya\AppData\Local\Temp\ccGij5YZ.s 			page 118


 5761      61746552 
 5761      746E4D65 
 5761      67614370 
 5762              	.LASF7:
 5763 0168 5F5F696E 		.ascii	"__int32_t\000"
 5763      7433325F 
 5763      7400
 5764              	.LASF204:
 5765 0172 474E5520 		.ascii	"GNU C11 5.4.1 20160609 (release) [ARM/embedded-5-br"
 5765      43313120 
 5765      352E342E 
 5765      31203230 
 5765      31363036 
 5766 01a5 616E6368 		.ascii	"anch revision 237715] -mcpu=cortex-m0 -mthumb -g -O"
 5766      20726576 
 5766      6973696F 
 5766      6E203233 
 5766      37373135 
 5767 01d8 30202D66 		.ascii	"0 -ffunction-sections -ffat-lto-objects\000"
 5767      66756E63 
 5767      74696F6E 
 5767      2D736563 
 5767      74696F6E 
 5768              	.LASF169:
 5769 0200 6C657665 		.ascii	"level\000"
 5769      6C00
 5770              	.LASF188:
 5771 0206 69734170 		.ascii	"isApertureSpads\000"
 5771      65727475 
 5771      72655370 
 5771      61647300 
 5772              	.LASF28:
 5773 0216 6275696C 		.ascii	"build\000"
 5773      6400
 5774              	.LASF186:
 5775 021c 4C696D69 		.ascii	"LimitCheckCurrent\000"
 5775      74436865 
 5775      636B4375 
 5775      7272656E 
 5775      7400
 5776              	.LASF129:
 5777 022e 564C3533 		.ascii	"VL53L0X_Dev_t\000"
 5777      4C30585F 
 5777      4465765F 
 5777      7400
 5778              	.LASF141:
 5779 023c 70577269 		.ascii	"pWriteData\000"
 5779      74654461 
 5779      746100
 5780              	.LASF52:
 5781 0247 57726170 		.ascii	"WrapAroundCheckEnable\000"
 5781      41726F75 
 5781      6E644368 
 5781      65636B45 
 5781      6E61626C 
 5782              	.LASF110:
 5783 025d 506F7765 		.ascii	"PowerMode\000"
ARM GAS  C:\Users\ilya\AppData\Local\Temp\ccGij5YZ.s 			page 119


 5783      724D6F64 
 5783      6500
 5784              	.LASF50:
 5785 0267 4C696D69 		.ascii	"LimitChecksStatus\000"
 5785      74436865 
 5785      636B7353 
 5785      74617475 
 5785      7300
 5786              	.LASF61:
 5787 0279 52616E67 		.ascii	"RangeDMaxMilliMeter\000"
 5787      65444D61 
 5787      784D696C 
 5787      6C694D65 
 5787      74657200 
 5788              	.LASF91:
 5789 028d 52657669 		.ascii	"Revision\000"
 5789      73696F6E 
 5789      00
 5790              	.LASF36:
 5791 0296 564C3533 		.ascii	"VL53L0X_DeviceInfo_t\000"
 5791      4C30585F 
 5791      44657669 
 5791      6365496E 
 5791      666F5F74 
 5792              	.LASF100:
 5793 02ab 50617274 		.ascii	"Part2PartOffsetNVMMicroMeter\000"
 5793      32506172 
 5793      744F6666 
 5793      7365744E 
 5793      564D4D69 
 5794              	.LASF22:
 5795 02c8 46697850 		.ascii	"FixPoint1616_t\000"
 5795      6F696E74 
 5795      31363136 
 5795      5F7400
 5796              	.LASF98:
 5797 02d7 564C3533 		.ascii	"VL53L0X_DeviceSpecificParameters_t\000"
 5797      4C30585F 
 5797      44657669 
 5797      63655370 
 5797      65636966 
 5798              	.LASF162:
 5799 02fa 564C3533 		.ascii	"VL53L0X_read_word16\000"
 5799      4C30585F 
 5799      72656164 
 5799      5F776F72 
 5799      64313600 
 5800              	.LASF21:
 5801 030e 75696E74 		.ascii	"uint32_t\000"
 5801      33325F74 
 5801      00
 5802              	.LASF17:
 5803 0317 696E7438 		.ascii	"int8_t\000"
 5803      5F7400
 5804              	.LASF149:
 5805 031e 564C3533 		.ascii	"VL53L0X_write_word\000"
 5805      4C30585F 
ARM GAS  C:\Users\ilya\AppData\Local\Temp\ccGij5YZ.s 			page 120


 5805      77726974 
 5805      655F776F 
 5805      726400
 5806              	.LASF70:
 5807 0331 48697374 		.ascii	"HistogramType\000"
 5807      6F677261 
 5807      6D547970 
 5807      6500
 5808              	.LASF123:
 5809 033f 666C6F61 		.ascii	"float\000"
 5809      7400
 5810              	.LASF195:
 5811 0345 73746174 		.ascii	"status_int\000"
 5811      75735F69 
 5811      6E7400
 5812              	.LASF206:
 5813 0350 433A5C70 		.ascii	"C:\\psoc\\chamonix\\fixed\\Fixed\\fixed.cydsn\000"
 5813      736F635C 
 5813      6368616D 
 5813      6F6E6978 
 5813      5C666978 
 5814              	.LASF53:
 5815 0379 564C3533 		.ascii	"VL53L0X_DeviceParameters_t\000"
 5815      4C30585F 
 5815      44657669 
 5815      63655061 
 5815      72616D65 
 5816              	.LASF138:
 5817 0394 636F756E 		.ascii	"count\000"
 5817      7400
 5818              	.LASF145:
 5819 039a 696E6465 		.ascii	"index\000"
 5819      7800
 5820              	.LASF23:
 5821 03a0 564C3533 		.ascii	"VL53L0X_DeviceError\000"
 5821      4C30585F 
 5821      44657669 
 5821      63654572 
 5821      726F7200 
 5822              	.LASF112:
 5823 03b4 74617267 		.ascii	"targetRefRate\000"
 5823      65745265 
 5823      66526174 
 5823      6500
 5824              	.LASF35:
 5825 03c2 50726F64 		.ascii	"ProductRevisionMinor\000"
 5825      75637452 
 5825      65766973 
 5825      696F6E4D 
 5825      696E6F72 
 5826              	.LASF159:
 5827 03d7 564C3533 		.ascii	"VL53L0X_write_word16\000"
 5827      4C30585F 
 5827      77726974 
 5827      655F776F 
 5827      72643136 
 5828              	.LASF101:
ARM GAS  C:\Users\ilya\AppData\Local\Temp\ccGij5YZ.s 			page 121


 5829 03ec 50617274 		.ascii	"Part2PartOffsetAdjustmentNVMMicroMeter\000"
 5829      32506172 
 5829      744F6666 
 5829      73657441 
 5829      646A7573 
 5830              	.LASF12:
 5831 0413 6C6F6E67 		.ascii	"long long unsigned int\000"
 5831      206C6F6E 
 5831      6720756E 
 5831      7369676E 
 5831      65642069 
 5832              	.LASF55:
 5833 042a 416D6254 		.ascii	"AmbTuningWindowFactor_K\000"
 5833      756E696E 
 5833      6757696E 
 5833      646F7746 
 5833      6163746F 
 5834              	.LASF203:
 5835 0442 4D794465 		.ascii	"MyDevice\000"
 5835      76696365 
 5835      00
 5836              	.LASF175:
 5837 044b 7074696D 		.ascii	"ptimer_freq_hz\000"
 5837      65725F66 
 5837      7265715F 
 5837      687A00
 5838              	.LASF79:
 5839 045a 4F736346 		.ascii	"OscFrequencyMHz\000"
 5839      72657175 
 5839      656E6379 
 5839      4D487A00 
 5840              	.LASF5:
 5841 046a 5F5F7569 		.ascii	"__uint16_t\000"
 5841      6E743136 
 5841      5F7400
 5842              	.LASF151:
 5843 0475 564C3533 		.ascii	"VL53L0X_write_dword\000"
 5843      4C30585F 
 5843      77726974 
 5843      655F6477 
 5843      6F726400 
 5844              	.LASF167:
 5845 0489 564C3533 		.ascii	"VL53L0X_wait_ms\000"
 5845      4C30585F 
 5845      77616974 
 5845      5F6D7300 
 5846              	.LASF76:
 5847 0499 52656653 		.ascii	"RefSpadEnables\000"
 5847      70616445 
 5847      6E61626C 
 5847      657300
 5848              	.LASF30:
 5849 04a8 4E616D65 		.ascii	"Name\000"
 5849      00
 5850              	.LASF117:
 5851 04ad 55736549 		.ascii	"UseInternalTuningSettings\000"
 5851      6E746572 
ARM GAS  C:\Users\ilya\AppData\Local\Temp\ccGij5YZ.s 			page 122


 5851      6E616C54 
 5851      756E696E 
 5851      67536574 
 5852              	.LASF199:
 5853 04c7 746F665F 		.ascii	"tof_measure\000"
 5853      6D656173 
 5853      75726500 
 5854              	.LASF170:
 5855 04d3 564C3533 		.ascii	"VL53L0X_get_gpio\000"
 5855      4C30585F 
 5855      6765745F 
 5855      6770696F 
 5855      00
 5856              	.LASF118:
 5857 04e4 4C696E65 		.ascii	"LinearityCorrectiveGain\000"
 5857      61726974 
 5857      79436F72 
 5857      72656374 
 5857      69766547 
 5858              	.LASF64:
 5859 04fc 45666665 		.ascii	"EffectiveSpadRtnCount\000"
 5859      63746976 
 5859      65537061 
 5859      6452746E 
 5859      436F756E 
 5860              	.LASF106:
 5861 0512 53706164 		.ascii	"SpadData\000"
 5861      44617461 
 5861      00
 5862              	.LASF44:
 5863 051b 496E7465 		.ascii	"InterMeasurementPeriodMilliSeconds\000"
 5863      724D6561 
 5863      73757265 
 5863      6D656E74 
 5863      50657269 
 5864              	.LASF92:
 5865 053e 52656665 		.ascii	"ReferenceSpadCount\000"
 5865      72656E63 
 5865      65537061 
 5865      64436F75 
 5865      6E7400
 5866              	.LASF122:
 5867 0551 626F6F6C 		.ascii	"bool_t\000"
 5867      5F7400
 5868              	.LASF173:
 5869 0558 564C3533 		.ascii	"VL53L0X_cycle_power\000"
 5869      4C30585F 
 5869      6379636C 
 5869      655F706F 
 5869      77657200 
 5870              	.LASF90:
 5871 056c 4D6F6475 		.ascii	"ModuleId\000"
 5871      6C654964 
 5871      00
 5872              	.LASF69:
 5873 0575 48697374 		.ascii	"HistogramData\000"
 5873      6F677261 
ARM GAS  C:\Users\ilya\AppData\Local\Temp\ccGij5YZ.s 			page 123


 5873      6D446174 
 5873      6100
 5874              	.LASF191:
 5875 0583 746F665F 		.ascii	"tof_init\000"
 5875      696E6974 
 5875      00
 5876              	.LASF51:
 5877 058c 4C696D69 		.ascii	"LimitChecksValue\000"
 5877      74436865 
 5877      636B7356 
 5877      616C7565 
 5877      00
 5878              	.LASF128:
 5879 059d 636F6D6D 		.ascii	"comms_speed_khz\000"
 5879      735F7370 
 5879      6565645F 
 5879      6B687A00 
 5880              	.LASF181:
 5881 05ad 7072696E 		.ascii	"print_range_status\000"
 5881      745F7261 
 5881      6E67655F 
 5881      73746174 
 5881      757300
 5882              	.LASF26:
 5883 05c0 6D616A6F 		.ascii	"major\000"
 5883      7200
 5884              	.LASF48:
 5885 05c6 52616E67 		.ascii	"RangeOffsetMicroMeters\000"
 5885      654F6666 
 5885      7365744D 
 5885      6963726F 
 5885      4D657465 
 5886              	.LASF119:
 5887 05dd 446D6178 		.ascii	"DmaxCalRangeMilliMeter\000"
 5887      43616C52 
 5887      616E6765 
 5887      4D696C6C 
 5887      694D6574 
 5888              	.LASF87:
 5889 05f4 5369676D 		.ascii	"SigmaEstEffPulseWidth\000"
 5889      61457374 
 5889      45666650 
 5889      756C7365 
 5889      57696474 
 5890              	.LASF111:
 5891 060a 53746F70 		.ascii	"StopVariable\000"
 5891      56617269 
 5891      61626C65 
 5891      00
 5892              	.LASF99:
 5893 0617 444D6178 		.ascii	"DMaxData\000"
 5893      44617461 
 5893      00
 5894              	.LASF59:
 5895 0620 4D656173 		.ascii	"MeasurementTimeUsec\000"
 5895      7572656D 
 5895      656E7454 
ARM GAS  C:\Users\ilya\AppData\Local\Temp\ccGij5YZ.s 			page 124


 5895      696D6555 
 5895      73656300 
 5896              	.LASF16:
 5897 0634 63686172 		.ascii	"char\000"
 5897      00
 5898              	.LASF182:
 5899 0639 7052616E 		.ascii	"pRangingMeasurementData\000"
 5899      67696E67 
 5899      4D656173 
 5899      7572656D 
 5899      656E7444 
 5900              	.LASF89:
 5901 0651 52656164 		.ascii	"ReadDataFromDeviceDone\000"
 5901      44617461 
 5901      46726F6D 
 5901      44657669 
 5901      6365446F 
 5902              	.LASF43:
 5903 0668 4D656173 		.ascii	"MeasurementTimingBudgetMicroSeconds\000"
 5903      7572656D 
 5903      656E7454 
 5903      696D696E 
 5903      67427564 
 5904              	.LASF103:
 5905 068c 4C617374 		.ascii	"LastRangeMeasure\000"
 5905      52616E67 
 5905      654D6561 
 5905      73757265 
 5905      00
 5906              	.LASF25:
 5907 069d 72657669 		.ascii	"revision\000"
 5907      73696F6E 
 5907      00
 5908              	.LASF72:
 5909 06a6 42756666 		.ascii	"BufferSize\000"
 5909      65725369 
 5909      7A6500
 5910              	.LASF187:
 5911 06b1 72656653 		.ascii	"refSpadCount\000"
 5911      70616443 
 5911      6F756E74 
 5911      00
 5912              	.LASF147:
 5913 06be 64617461 		.ascii	"data\000"
 5913      00
 5914              	.LASF78:
 5915 06c3 564C3533 		.ascii	"VL53L0X_SpadData_t\000"
 5915      4C30585F 
 5915      53706164 
 5915      44617461 
 5915      5F7400
 5916              	.LASF18:
 5917 06d6 75696E74 		.ascii	"uint8_t\000"
 5917      385F7400 
 5918              	.LASF139:
 5919 06de 73746174 		.ascii	"status\000"
 5919      757300
ARM GAS  C:\Users\ilya\AppData\Local\Temp\ccGij5YZ.s 			page 125


 5920              	.LASF24:
 5921 06e5 564C3533 		.ascii	"VL53L0X_GpioFunctionality\000"
 5921      4C30585F 
 5921      4770696F 
 5921      46756E63 
 5921      74696F6E 
 5922              	.LASF161:
 5923 06ff 564C3533 		.ascii	"VL53L0X_read_byte16\000"
 5923      4C30585F 
 5923      72656164 
 5923      5F627974 
 5923      65313600 
 5924              	.LASF190:
 5925 0713 50686173 		.ascii	"PhaseCal\000"
 5925      6543616C 
 5925      00
 5926              	.LASF157:
 5927 071c 64775761 		.ascii	"dwWaitResult\000"
 5927      69745265 
 5927      73756C74 
 5927      00
 5928              	.LASF31:
 5929 0729 54797065 		.ascii	"Type\000"
 5929      00
 5930              	.LASF171:
 5931 072e 706C6576 		.ascii	"plevel\000"
 5931      656C00
 5932              	.LASF39:
 5933 0735 564C3533 		.ascii	"VL53L0X_HistogramModes\000"
 5933      4C30585F 
 5933      48697374 
 5933      6F677261 
 5933      6D4D6F64 
 5934              	.LASF67:
 5935 074c 52616E67 		.ascii	"RangeStatus\000"
 5935      65537461 
 5935      74757300 
 5936              	.LASF71:
 5937 0758 46697273 		.ascii	"FirstBin\000"
 5937      7442696E 
 5937      00
 5938              	.LASF11:
 5939 0761 6C6F6E67 		.ascii	"long long int\000"
 5939      206C6F6E 
 5939      6720696E 
 5939      7400
 5940              	.LASF38:
 5941 076f 564C3533 		.ascii	"VL53L0X_DeviceModes\000"
 5941      4C30585F 
 5941      44657669 
 5941      63654D6F 
 5941      64657300 
 5942              	.LASF205:
 5943 0783 746F665F 		.ascii	"tof_coms.c\000"
 5943      636F6D73 
 5943      2E6300
 5944              	.LASF94:
ARM GAS  C:\Users\ilya\AppData\Local\Temp\ccGij5YZ.s 			page 126


 5945 078e 52656653 		.ascii	"RefSpadsInitialised\000"
 5945      70616473 
 5945      496E6974 
 5945      69616C69 
 5945      73656400 
 5946              	.LASF178:
 5947 07a2 6D797072 		.ascii	"myprintf\000"
 5947      696E7466 
 5947      00
 5948              	.LASF185:
 5949 07ab 52616E67 		.ascii	"RangingMeasurementData\000"
 5949      696E674D 
 5949      65617375 
 5949      72656D65 
 5949      6E744461 
 5950              	.LASF176:
 5951 07c2 564C3533 		.ascii	"VL53L0X_get_timer_value\000"
 5951      4C30585F 
 5951      6765745F 
 5951      74696D65 
 5951      725F7661 
 5952              	.LASF183:
 5953 07da 72616E67 		.ascii	"rangingTest\000"
 5953      696E6754 
 5953      65737400 
 5954              	.LASF155:
 5955 07e6 564C3533 		.ascii	"VL53L0X_write_multi16\000"
 5955      4C30585F 
 5955      77726974 
 5955      655F6D75 
 5955      6C746931 
 5956              	.LASF133:
 5957 07fc 564C3533 		.ascii	"VL53L0X_comms_close\000"
 5957      4C30585F 
 5957      636F6D6D 
 5957      735F636C 
 5957      6F736500 
 5958              	.LASF196:
 5959 0810 696E6974 		.ascii	"init_done\000"
 5959      5F646F6E 
 5959      6500
 5960              	.LASF160:
 5961 081a 564C3533 		.ascii	"VL53L0X_write_dword16\000"
 5961      4C30585F 
 5961      77726974 
 5961      655F6477 
 5961      6F726431 
 5962              	.LASF56:
 5963 0830 52657453 		.ascii	"RetSignalAt0mm\000"
 5963      69676E61 
 5963      6C417430 
 5963      6D6D00
 5964              	.LASF27:
 5965 083f 6D696E6F 		.ascii	"minor\000"
 5965      7200
 5966              	.LASF137:
 5967 0845 70646174 		.ascii	"pdata\000"
ARM GAS  C:\Users\ilya\AppData\Local\Temp\ccGij5YZ.s 			page 127


 5967      6100
 5968              	.LASF54:
 5969 084b 564C3533 		.ascii	"VL53L0X_State\000"
 5969      4C30585F 
 5969      53746174 
 5969      6500
 5970              	.LASF177:
 5971 0859 7074696D 		.ascii	"ptimer_count\000"
 5971      65725F63 
 5971      6F756E74 
 5971      00
 5972              	.LASF57:
 5973 0866 564C3533 		.ascii	"VL53L0X_DMaxData_t\000"
 5973      4C30585F 
 5973      444D6178 
 5973      44617461 
 5973      5F7400
 5974              	.LASF0:
 5975 0879 5F5F696E 		.ascii	"__int8_t\000"
 5975      74385F74 
 5975      00
 5976              	.LASF179:
 5977 0882 7072696E 		.ascii	"print_pal_error\000"
 5977      745F7061 
 5977      6C5F6572 
 5977      726F7200 
 5978              	.LASF126:
 5979 0892 49326344 		.ascii	"I2cDevAddr\000"
 5979      65764164 
 5979      647200
 5980              	.LASF41:
 5981 089d 44657669 		.ascii	"DeviceMode\000"
 5981      63654D6F 
 5981      646500
 5982              	.LASF47:
 5983 08a8 5854616C 		.ascii	"XTalkCompensationRateMegaCps\000"
 5983      6B436F6D 
 5983      70656E73 
 5983      6174696F 
 5983      6E526174 
 5984              	.LASF14:
 5985 08c5 6C6F6E67 		.ascii	"long double\000"
 5985      20646F75 
 5985      626C6500 
 5986              	.LASF131:
 5987 08d1 62617564 		.ascii	"baudRate\000"
 5987      52617465 
 5987      00
 5988              	.LASF19:
 5989 08da 75696E74 		.ascii	"uint16_t\000"
 5989      31365F74 
 5989      00
 5990              	.LASF68:
 5991 08e3 564C3533 		.ascii	"VL53L0X_RangingMeasurementData_t\000"
 5991      4C30585F 
 5991      52616E67 
 5991      696E674D 
ARM GAS  C:\Users\ilya\AppData\Local\Temp\ccGij5YZ.s 			page 128


 5991      65617375 
 5992              	.LASF146:
 5993 0904 564C3533 		.ascii	"VL53L0X_write_byte\000"
 5993      4C30585F 
 5993      77726974 
 5993      655F6279 
 5993      746500
 5994              	.LASF107:
 5995 0917 53657175 		.ascii	"SequenceConfig\000"
 5995      656E6365 
 5995      436F6E66 
 5995      696700
 5996              	.LASF29:
 5997 0926 564C3533 		.ascii	"VL53L0X_Version_t\000"
 5997      4C30585F 
 5997      56657273 
 5997      696F6E5F 
 5997      7400
 5998              	.LASF4:
 5999 0938 73686F72 		.ascii	"short int\000"
 5999      7420696E 
 5999      7400
 6000              	.LASF8:
 6001 0942 6C6F6E67 		.ascii	"long int\000"
 6001      20696E74 
 6001      00
 6002              	.LASF165:
 6003 094b 77616974 		.ascii	"wait_us\000"
 6003      5F757300 
 6004              	.LASF95:
 6005 0953 50617274 		.ascii	"PartUIDUpper\000"
 6005      55494455 
 6005      70706572 
 6005      00
 6006              	.LASF114:
 6007 0960 5369676E 		.ascii	"SignalEstimate\000"
 6007      616C4573 
 6007      74696D61 
 6007      746500
 6008              	.LASF200:
 6009 096f 5F646174 		.ascii	"_dataBytes\000"
 6009      61427974 
 6009      657300
 6010              	.LASF168:
 6011 097a 564C3533 		.ascii	"VL53L0X_set_gpio\000"
 6011      4C30585F 
 6011      7365745F 
 6011      6770696F 
 6011      00
 6012              	.LASF144:
 6013 098b 564C3533 		.ascii	"VL53L0X_read_multi\000"
 6013      4C30585F 
 6013      72656164 
 6013      5F6D756C 
 6013      746900
 6014              	.LASF115:
 6015 099e 4C617374 		.ascii	"LastSignalRefMcps\000"
ARM GAS  C:\Users\ilya\AppData\Local\Temp\ccGij5YZ.s 			page 129


 6015      5369676E 
 6015      616C5265 
 6015      664D6370 
 6015      7300
 6016              	.LASF82:
 6017 09b0 46696E61 		.ascii	"FinalRangeTimeoutMicroSecs\000"
 6017      6C52616E 
 6017      67655469 
 6017      6D656F75 
 6017      744D6963 
 6018              	.LASF65:
 6019 09cb 5A6F6E65 		.ascii	"ZoneId\000"
 6019      496400
 6020              	.LASF198:
 6021 09d2 4E65636C 		.ascii	"NecleoAutoCom\000"
 6021      656F4175 
 6021      746F436F 
 6021      6D00
 6022              	.LASF130:
 6023 09e0 636F6D50 		.ascii	"comPortStr\000"
 6023      6F727453 
 6023      747200
 6024              	.LASF134:
 6025 09eb 564C3533 		.ascii	"VL53L0X_i2c_init\000"
 6025      4C30585F 
 6025      6932635F 
 6025      696E6974 
 6025      00
 6026              	.LASF1:
 6027 09fc 5F5F7569 		.ascii	"__uint8_t\000"
 6027      6E74385F 
 6027      7400
 6028              	.LASF189:
 6029 0a06 56687653 		.ascii	"VhvSettings\000"
 6029      65747469 
 6029      6E677300 
 6030              	.LASF77:
 6031 0a12 52656647 		.ascii	"RefGoodSpadMap\000"
 6031      6F6F6453 
 6031      7061644D 
 6031      617000
 6032              	.LASF37:
 6033 0a21 564C3533 		.ascii	"VL53L0X_Error\000"
 6033      4C30585F 
 6033      4572726F 
 6033      7200
 6034              	.LASF127:
 6035 0a2f 636F6D6D 		.ascii	"comms_type\000"
 6035      735F7479 
 6035      706500
 6036              	.LASF172:
 6037 0a3a 564C3533 		.ascii	"VL53L0X_release_gpio\000"
 6037      4C30585F 
 6037      72656C65 
 6037      6173655F 
 6037      6770696F 
 6038              	.LASF15:
ARM GAS  C:\Users\ilya\AppData\Local\Temp\ccGij5YZ.s 			page 130


 6039 0a4f 73697A65 		.ascii	"sizetype\000"
 6039      74797065 
 6039      00
 6040              	.LASF102:
 6041 0a58 43757272 		.ascii	"CurrentParameters\000"
 6041      656E7450 
 6041      6172616D 
 6041      65746572 
 6041      7300
 6042              	.LASF10:
 6043 0a6a 6C6F6E67 		.ascii	"long unsigned int\000"
 6043      20756E73 
 6043      69676E65 
 6043      6420696E 
 6043      7400
 6044              	.LASF136:
 6045 0a7c 61646472 		.ascii	"address\000"
 6045      65737300 
 6046              	.LASF105:
 6047 0a84 44657669 		.ascii	"DeviceSpecificParameters\000"
 6047      63655370 
 6047      65636966 
 6047      69635061 
 6047      72616D65 
 6048              	.LASF116:
 6049 0a9d 7054756E 		.ascii	"pTuningSettingsPointer\000"
 6049      696E6753 
 6049      65747469 
 6049      6E677350 
 6049      6F696E74 
 6050              	.LASF20:
 6051 0ab4 696E7433 		.ascii	"int32_t\000"
 6051      325F7400 
 6052              	.LASF156:
 6053 0abc 564C3533 		.ascii	"VL53L0X_read_multi16\000"
 6053      4C30585F 
 6053      72656164 
 6053      5F6D756C 
 6053      74693136 
 6054              	.LASF192:
 6055 0ad1 56657273 		.ascii	"Version\000"
 6055      696F6E00 
 6056              	.LASF166:
 6057 0ad9 77616974 		.ascii	"wait_ms\000"
 6057      5F6D7300 
 6058              	.LASF88:
 6059 0ae1 5369676D 		.ascii	"SigmaEstEffAmbWidth\000"
 6059      61457374 
 6059      45666641 
 6059      6D625769 
 6059      64746800 
 6060              	.LASF158:
 6061 0af5 564C3533 		.ascii	"VL53L0X_write_byte16\000"
 6061      4C30585F 
 6061      77726974 
 6061      655F6279 
 6061      74653136 
ARM GAS  C:\Users\ilya\AppData\Local\Temp\ccGij5YZ.s 			page 131


 6062              	.LASF3:
 6063 0b0a 756E7369 		.ascii	"unsigned char\000"
 6063      676E6564 
 6063      20636861 
 6063      7200
 6064              	.LASF73:
 6065 0b18 4E756D62 		.ascii	"NumberOfBins\000"
 6065      65724F66 
 6065      42696E73 
 6065      00
 6066              	.LASF84:
 6067 0b25 50726552 		.ascii	"PreRangeTimeoutMicroSecs\000"
 6067      616E6765 
 6067      54696D65 
 6067      6F75744D 
 6067      6963726F 
 6068              	.LASF9:
 6069 0b3e 5F5F7569 		.ascii	"__uint32_t\000"
 6069      6E743332 
 6069      5F7400
 6070              	.LASF120:
 6071 0b49 446D6178 		.ascii	"DmaxCalSignalRateRtnMegaCps\000"
 6071      43616C53 
 6071      69676E61 
 6071      6C526174 
 6071      6552746E 
 6072              	.LASF83:
 6073 0b65 46696E61 		.ascii	"FinalRangeVcselPulsePeriod\000"
 6073      6C52616E 
 6073      67655663 
 6073      73656C50 
 6073      756C7365 
 6074              	.LASF174:
 6075 0b80 564C3533 		.ascii	"VL53L0X_get_timer_frequency\000"
 6075      4C30585F 
 6075      6765745F 
 6075      74696D65 
 6075      725F6672 
 6076              	.LASF121:
 6077 0b9c 564C3533 		.ascii	"VL53L0X_DevData_t\000"
 6077      4C30585F 
 6077      44657644 
 6077      6174615F 
 6077      7400
 6078              	.LASF143:
 6079 0bae 77726974 		.ascii	"writeReg\000"
 6079      65526567 
 6079      00
 6080              	.LASF193:
 6081 0bb7 70566572 		.ascii	"pVersion\000"
 6081      73696F6E 
 6081      00
 6082              	.LASF33:
 6083 0bc0 50726F64 		.ascii	"ProductType\000"
 6083      75637454 
 6083      79706500 
 6084              	.LASF81:
ARM GAS  C:\Users\ilya\AppData\Local\Temp\ccGij5YZ.s 			page 132


 6085 0bcc 50696E30 		.ascii	"Pin0GpioFunctionality\000"
 6085      4770696F 
 6085      46756E63 
 6085      74696F6E 
 6085      616C6974 
 6086              	.LASF152:
 6087 0be2 564C3533 		.ascii	"VL53L0X_read_byte\000"
 6087      4C30585F 
 6087      72656164 
 6087      5F627974 
 6087      6500
 6088              	.LASF201:
 6089 0bf4 64656275 		.ascii	"debug_string\000"
 6089      675F7374 
 6089      72696E67 
 6089      00
 6090              	.LASF142:
 6091 0c01 77726974 		.ascii	"writeDataCount\000"
 6091      65446174 
 6091      61436F75 
 6091      6E7400
 6092              	.LASF140:
 6093 0c10 72657472 		.ascii	"retries\000"
 6093      69657300 
 6094              	.LASF148:
 6095 0c18 63627974 		.ascii	"cbyte_count\000"
 6095      655F636F 
 6095      756E7400 
 6096              	.LASF153:
 6097 0c24 564C3533 		.ascii	"VL53L0X_read_word\000"
 6097      4C30585F 
 6097      72656164 
 6097      5F776F72 
 6097      6400
 6098              	.LASF163:
 6099 0c36 564C3533 		.ascii	"VL53L0X_read_dword16\000"
 6099      4C30585F 
 6099      72656164 
 6099      5F64776F 
 6099      72643136 
 6100              	.LASF2:
 6101 0c4b 7369676E 		.ascii	"signed char\000"
 6101      65642063 
 6101      68617200 
 6102              	.LASF104:
 6103 0c57 4C617374 		.ascii	"LastHistogramMeasure\000"
 6103      48697374 
 6103      6F677261 
 6103      6D4D6561 
 6103      73757265 
 6104              	.LASF6:
 6105 0c6c 73686F72 		.ascii	"short unsigned int\000"
 6105      7420756E 
 6105      7369676E 
 6105      65642069 
 6105      6E7400
 6106              	.LASF132:
ARM GAS  C:\Users\ilya\AppData\Local\Temp\ccGij5YZ.s 			page 133


 6107 0c7f 5F636865 		.ascii	"_check_min_version\000"
 6107      636B5F6D 
 6107      696E5F76 
 6107      65727369 
 6107      6F6E00
 6108              	.LASF108:
 6109 0c92 52616E67 		.ascii	"RangeFractionalEnable\000"
 6109      65467261 
 6109      6374696F 
 6109      6E616C45 
 6109      6E61626C 
 6110              	.LASF135:
 6111 0ca8 564C3533 		.ascii	"VL53L0X_write_multi\000"
 6111      4C30585F 
 6111      77726974 
 6111      655F6D75 
 6111      6C746900 
 6112              	.LASF60:
 6113 0cbc 52616E67 		.ascii	"RangeMilliMeter\000"
 6113      654D696C 
 6113      6C694D65 
 6113      74657200 
 6114              	.LASF113:
 6115 0ccc 5369676D 		.ascii	"SigmaEstimate\000"
 6115      61457374 
 6115      696D6174 
 6115      6500
 6116              	.LASF86:
 6117 0cda 5369676D 		.ascii	"SigmaEstRefArray\000"
 6117      61457374 
 6117      52656641 
 6117      72726179 
 6117      00
 6118              	.LASF124:
 6119 0ceb 646F7562 		.ascii	"double\000"
 6119      6C6500
 6120              	.LASF66:
 6121 0cf2 52616E67 		.ascii	"RangeFractionalPart\000"
 6121      65467261 
 6121      6374696F 
 6121      6E616C50 
 6121      61727400 
 6122              	.LASF80:
 6123 0d06 4C617374 		.ascii	"LastEncodedTimeout\000"
 6123      456E636F 
 6123      64656454 
 6123      696D656F 
 6123      757400
 6124              	.LASF184:
 6125 0d19 704D7944 		.ascii	"pMyDevice\000"
 6125      65766963 
 6125      6500
 6126              	.LASF109:
 6127 0d23 50616C53 		.ascii	"PalState\000"
 6127      74617465 
 6127      00
 6128              	.LASF58:
ARM GAS  C:\Users\ilya\AppData\Local\Temp\ccGij5YZ.s 			page 134


 6129 0d2c 54696D65 		.ascii	"TimeStamp\000"
 6129      5374616D 
 6129      7000
 6130              	.LASF75:
 6131 0d36 564C3533 		.ascii	"VL53L0X_HistogramMeasurementData_t\000"
 6131      4C30585F 
 6131      48697374 
 6131      6F677261 
 6131      6D4D6561 
 6132              	.LASF125:
 6133 0d59 44617461 		.ascii	"Data\000"
 6133      00
 6134              	.LASF97:
 6135 0d5e 5369676E 		.ascii	"SignalRateMeasFixed400mm\000"
 6135      616C5261 
 6135      74654D65 
 6135      61734669 
 6135      78656434 
 6136              		.ident	"GCC: (GNU Tools for ARM Embedded Processors) 5.4.1 20160609 (release) [ARM/embedded-5-bran
