ARM GAS  C:\Users\ilya\AppData\Local\Temp\ccpEIuqL.s 			page 1


   1              		.syntax unified
   2              		.cpu cortex-m0
   3              		.fpu softvfp
   4              		.eabi_attribute 20, 1
   5              		.eabi_attribute 21, 1
   6              		.eabi_attribute 23, 3
   7              		.eabi_attribute 24, 1
   8              		.eabi_attribute 25, 1
   9              		.eabi_attribute 26, 1
  10              		.eabi_attribute 30, 6
  11              		.eabi_attribute 34, 0
  12              		.eabi_attribute 18, 4
  13              		.thumb
  14              		.syntax unified
  15              		.file	"vl53l0x_api.c"
  16              		.text
  17              	.Ltext0:
  18              		.cfi_sections	.debug_frame
  19              		.global	DefaultTuningSettings
  20              		.data
  21              		.align	2
  22              		.type	DefaultTuningSettings, %object
  23              		.size	DefaultTuningSettings, 243
  24              	DefaultTuningSettings:
  25 0000 01       		.byte	1
  26 0001 FF       		.byte	-1
  27 0002 01       		.byte	1
  28 0003 01       		.byte	1
  29 0004 00       		.byte	0
  30 0005 00       		.byte	0
  31 0006 01       		.byte	1
  32 0007 FF       		.byte	-1
  33 0008 00       		.byte	0
  34 0009 01       		.byte	1
  35 000a 09       		.byte	9
  36 000b 00       		.byte	0
  37 000c 01       		.byte	1
  38 000d 10       		.byte	16
  39 000e 00       		.byte	0
  40 000f 01       		.byte	1
  41 0010 11       		.byte	17
  42 0011 00       		.byte	0
  43 0012 01       		.byte	1
  44 0013 24       		.byte	36
  45 0014 01       		.byte	1
  46 0015 01       		.byte	1
  47 0016 25       		.byte	37
  48 0017 FF       		.byte	-1
  49 0018 01       		.byte	1
  50 0019 75       		.byte	117
  51 001a 00       		.byte	0
  52 001b 01       		.byte	1
  53 001c FF       		.byte	-1
  54 001d 01       		.byte	1
  55 001e 01       		.byte	1
  56 001f 4E       		.byte	78
  57 0020 2C       		.byte	44
ARM GAS  C:\Users\ilya\AppData\Local\Temp\ccpEIuqL.s 			page 2


  58 0021 01       		.byte	1
  59 0022 48       		.byte	72
  60 0023 00       		.byte	0
  61 0024 01       		.byte	1
  62 0025 30       		.byte	48
  63 0026 20       		.byte	32
  64 0027 01       		.byte	1
  65 0028 FF       		.byte	-1
  66 0029 00       		.byte	0
  67 002a 01       		.byte	1
  68 002b 30       		.byte	48
  69 002c 09       		.byte	9
  70 002d 01       		.byte	1
  71 002e 54       		.byte	84
  72 002f 00       		.byte	0
  73 0030 01       		.byte	1
  74 0031 31       		.byte	49
  75 0032 04       		.byte	4
  76 0033 01       		.byte	1
  77 0034 32       		.byte	50
  78 0035 03       		.byte	3
  79 0036 01       		.byte	1
  80 0037 40       		.byte	64
  81 0038 83       		.byte	-125
  82 0039 01       		.byte	1
  83 003a 46       		.byte	70
  84 003b 25       		.byte	37
  85 003c 01       		.byte	1
  86 003d 60       		.byte	96
  87 003e 00       		.byte	0
  88 003f 01       		.byte	1
  89 0040 27       		.byte	39
  90 0041 00       		.byte	0
  91 0042 01       		.byte	1
  92 0043 50       		.byte	80
  93 0044 06       		.byte	6
  94 0045 01       		.byte	1
  95 0046 51       		.byte	81
  96 0047 00       		.byte	0
  97 0048 01       		.byte	1
  98 0049 52       		.byte	82
  99 004a 96       		.byte	-106
 100 004b 01       		.byte	1
 101 004c 56       		.byte	86
 102 004d 08       		.byte	8
 103 004e 01       		.byte	1
 104 004f 57       		.byte	87
 105 0050 30       		.byte	48
 106 0051 01       		.byte	1
 107 0052 61       		.byte	97
 108 0053 00       		.byte	0
 109 0054 01       		.byte	1
 110 0055 62       		.byte	98
 111 0056 00       		.byte	0
 112 0057 01       		.byte	1
 113 0058 64       		.byte	100
 114 0059 00       		.byte	0
ARM GAS  C:\Users\ilya\AppData\Local\Temp\ccpEIuqL.s 			page 3


 115 005a 01       		.byte	1
 116 005b 65       		.byte	101
 117 005c 00       		.byte	0
 118 005d 01       		.byte	1
 119 005e 66       		.byte	102
 120 005f A0       		.byte	-96
 121 0060 01       		.byte	1
 122 0061 FF       		.byte	-1
 123 0062 01       		.byte	1
 124 0063 01       		.byte	1
 125 0064 22       		.byte	34
 126 0065 32       		.byte	50
 127 0066 01       		.byte	1
 128 0067 47       		.byte	71
 129 0068 14       		.byte	20
 130 0069 01       		.byte	1
 131 006a 49       		.byte	73
 132 006b FF       		.byte	-1
 133 006c 01       		.byte	1
 134 006d 4A       		.byte	74
 135 006e 00       		.byte	0
 136 006f 01       		.byte	1
 137 0070 FF       		.byte	-1
 138 0071 00       		.byte	0
 139 0072 01       		.byte	1
 140 0073 7A       		.byte	122
 141 0074 0A       		.byte	10
 142 0075 01       		.byte	1
 143 0076 7B       		.byte	123
 144 0077 00       		.byte	0
 145 0078 01       		.byte	1
 146 0079 78       		.byte	120
 147 007a 21       		.byte	33
 148 007b 01       		.byte	1
 149 007c FF       		.byte	-1
 150 007d 01       		.byte	1
 151 007e 01       		.byte	1
 152 007f 23       		.byte	35
 153 0080 34       		.byte	52
 154 0081 01       		.byte	1
 155 0082 42       		.byte	66
 156 0083 00       		.byte	0
 157 0084 01       		.byte	1
 158 0085 44       		.byte	68
 159 0086 FF       		.byte	-1
 160 0087 01       		.byte	1
 161 0088 45       		.byte	69
 162 0089 26       		.byte	38
 163 008a 01       		.byte	1
 164 008b 46       		.byte	70
 165 008c 05       		.byte	5
 166 008d 01       		.byte	1
 167 008e 40       		.byte	64
 168 008f 40       		.byte	64
 169 0090 01       		.byte	1
 170 0091 0E       		.byte	14
 171 0092 06       		.byte	6
ARM GAS  C:\Users\ilya\AppData\Local\Temp\ccpEIuqL.s 			page 4


 172 0093 01       		.byte	1
 173 0094 20       		.byte	32
 174 0095 1A       		.byte	26
 175 0096 01       		.byte	1
 176 0097 43       		.byte	67
 177 0098 40       		.byte	64
 178 0099 01       		.byte	1
 179 009a FF       		.byte	-1
 180 009b 00       		.byte	0
 181 009c 01       		.byte	1
 182 009d 34       		.byte	52
 183 009e 03       		.byte	3
 184 009f 01       		.byte	1
 185 00a0 35       		.byte	53
 186 00a1 44       		.byte	68
 187 00a2 01       		.byte	1
 188 00a3 FF       		.byte	-1
 189 00a4 01       		.byte	1
 190 00a5 01       		.byte	1
 191 00a6 31       		.byte	49
 192 00a7 04       		.byte	4
 193 00a8 01       		.byte	1
 194 00a9 4B       		.byte	75
 195 00aa 09       		.byte	9
 196 00ab 01       		.byte	1
 197 00ac 4C       		.byte	76
 198 00ad 05       		.byte	5
 199 00ae 01       		.byte	1
 200 00af 4D       		.byte	77
 201 00b0 04       		.byte	4
 202 00b1 01       		.byte	1
 203 00b2 FF       		.byte	-1
 204 00b3 00       		.byte	0
 205 00b4 01       		.byte	1
 206 00b5 44       		.byte	68
 207 00b6 00       		.byte	0
 208 00b7 01       		.byte	1
 209 00b8 45       		.byte	69
 210 00b9 20       		.byte	32
 211 00ba 01       		.byte	1
 212 00bb 47       		.byte	71
 213 00bc 08       		.byte	8
 214 00bd 01       		.byte	1
 215 00be 48       		.byte	72
 216 00bf 28       		.byte	40
 217 00c0 01       		.byte	1
 218 00c1 67       		.byte	103
 219 00c2 00       		.byte	0
 220 00c3 01       		.byte	1
 221 00c4 70       		.byte	112
 222 00c5 04       		.byte	4
 223 00c6 01       		.byte	1
 224 00c7 71       		.byte	113
 225 00c8 01       		.byte	1
 226 00c9 01       		.byte	1
 227 00ca 72       		.byte	114
 228 00cb FE       		.byte	-2
ARM GAS  C:\Users\ilya\AppData\Local\Temp\ccpEIuqL.s 			page 5


 229 00cc 01       		.byte	1
 230 00cd 76       		.byte	118
 231 00ce 00       		.byte	0
 232 00cf 01       		.byte	1
 233 00d0 77       		.byte	119
 234 00d1 00       		.byte	0
 235 00d2 01       		.byte	1
 236 00d3 FF       		.byte	-1
 237 00d4 01       		.byte	1
 238 00d5 01       		.byte	1
 239 00d6 0D       		.byte	13
 240 00d7 01       		.byte	1
 241 00d8 01       		.byte	1
 242 00d9 FF       		.byte	-1
 243 00da 00       		.byte	0
 244 00db 01       		.byte	1
 245 00dc 80       		.byte	-128
 246 00dd 01       		.byte	1
 247 00de 01       		.byte	1
 248 00df 01       		.byte	1
 249 00e0 F8       		.byte	-8
 250 00e1 01       		.byte	1
 251 00e2 FF       		.byte	-1
 252 00e3 01       		.byte	1
 253 00e4 01       		.byte	1
 254 00e5 8E       		.byte	-114
 255 00e6 01       		.byte	1
 256 00e7 01       		.byte	1
 257 00e8 00       		.byte	0
 258 00e9 01       		.byte	1
 259 00ea 01       		.byte	1
 260 00eb FF       		.byte	-1
 261 00ec 00       		.byte	0
 262 00ed 01       		.byte	1
 263 00ee 80       		.byte	-128
 264 00ef 00       		.byte	0
 265 00f0 00       		.byte	0
 266 00f1 00       		.byte	0
 267 00f2 00       		.byte	0
 268              		.global	InterruptThresholdSettings
 269 00f3 00       		.align	2
 270              		.type	InterruptThresholdSettings, %object
 271              		.size	InterruptThresholdSettings, 438
 272              	InterruptThresholdSettings:
 273 00f4 01       		.byte	1
 274 00f5 FF       		.byte	-1
 275 00f6 00       		.byte	0
 276 00f7 01       		.byte	1
 277 00f8 80       		.byte	-128
 278 00f9 01       		.byte	1
 279 00fa 01       		.byte	1
 280 00fb FF       		.byte	-1
 281 00fc 01       		.byte	1
 282 00fd 01       		.byte	1
 283 00fe 00       		.byte	0
 284 00ff 00       		.byte	0
 285 0100 01       		.byte	1
ARM GAS  C:\Users\ilya\AppData\Local\Temp\ccpEIuqL.s 			page 6


 286 0101 FF       		.byte	-1
 287 0102 01       		.byte	1
 288 0103 01       		.byte	1
 289 0104 4F       		.byte	79
 290 0105 02       		.byte	2
 291 0106 01       		.byte	1
 292 0107 FF       		.byte	-1
 293 0108 0E       		.byte	14
 294 0109 01       		.byte	1
 295 010a 00       		.byte	0
 296 010b 03       		.byte	3
 297 010c 01       		.byte	1
 298 010d 01       		.byte	1
 299 010e 84       		.byte	-124
 300 010f 01       		.byte	1
 301 0110 02       		.byte	2
 302 0111 0A       		.byte	10
 303 0112 01       		.byte	1
 304 0113 03       		.byte	3
 305 0114 03       		.byte	3
 306 0115 01       		.byte	1
 307 0116 04       		.byte	4
 308 0117 08       		.byte	8
 309 0118 01       		.byte	1
 310 0119 05       		.byte	5
 311 011a C8       		.byte	-56
 312 011b 01       		.byte	1
 313 011c 06       		.byte	6
 314 011d 03       		.byte	3
 315 011e 01       		.byte	1
 316 011f 07       		.byte	7
 317 0120 8D       		.byte	-115
 318 0121 01       		.byte	1
 319 0122 08       		.byte	8
 320 0123 08       		.byte	8
 321 0124 01       		.byte	1
 322 0125 09       		.byte	9
 323 0126 C6       		.byte	-58
 324 0127 01       		.byte	1
 325 0128 0A       		.byte	10
 326 0129 01       		.byte	1
 327 012a 01       		.byte	1
 328 012b 0B       		.byte	11
 329 012c 02       		.byte	2
 330 012d 01       		.byte	1
 331 012e 0C       		.byte	12
 332 012f 00       		.byte	0
 333 0130 01       		.byte	1
 334 0131 0D       		.byte	13
 335 0132 D5       		.byte	-43
 336 0133 01       		.byte	1
 337 0134 0E       		.byte	14
 338 0135 18       		.byte	24
 339 0136 01       		.byte	1
 340 0137 0F       		.byte	15
 341 0138 12       		.byte	18
 342 0139 01       		.byte	1
ARM GAS  C:\Users\ilya\AppData\Local\Temp\ccpEIuqL.s 			page 7


 343 013a 10       		.byte	16
 344 013b 01       		.byte	1
 345 013c 01       		.byte	1
 346 013d 11       		.byte	17
 347 013e 82       		.byte	-126
 348 013f 01       		.byte	1
 349 0140 12       		.byte	18
 350 0141 00       		.byte	0
 351 0142 01       		.byte	1
 352 0143 13       		.byte	19
 353 0144 D5       		.byte	-43
 354 0145 01       		.byte	1
 355 0146 14       		.byte	20
 356 0147 18       		.byte	24
 357 0148 01       		.byte	1
 358 0149 15       		.byte	21
 359 014a 13       		.byte	19
 360 014b 01       		.byte	1
 361 014c 16       		.byte	22
 362 014d 03       		.byte	3
 363 014e 01       		.byte	1
 364 014f 17       		.byte	23
 365 0150 86       		.byte	-122
 366 0151 01       		.byte	1
 367 0152 18       		.byte	24
 368 0153 0A       		.byte	10
 369 0154 01       		.byte	1
 370 0155 19       		.byte	25
 371 0156 09       		.byte	9
 372 0157 01       		.byte	1
 373 0158 1A       		.byte	26
 374 0159 08       		.byte	8
 375 015a 01       		.byte	1
 376 015b 1B       		.byte	27
 377 015c C2       		.byte	-62
 378 015d 01       		.byte	1
 379 015e 1C       		.byte	28
 380 015f 03       		.byte	3
 381 0160 01       		.byte	1
 382 0161 1D       		.byte	29
 383 0162 8F       		.byte	-113
 384 0163 01       		.byte	1
 385 0164 1E       		.byte	30
 386 0165 0A       		.byte	10
 387 0166 01       		.byte	1
 388 0167 1F       		.byte	31
 389 0168 06       		.byte	6
 390 0169 01       		.byte	1
 391 016a 20       		.byte	32
 392 016b 01       		.byte	1
 393 016c 01       		.byte	1
 394 016d 21       		.byte	33
 395 016e 02       		.byte	2
 396 016f 01       		.byte	1
 397 0170 22       		.byte	34
 398 0171 00       		.byte	0
 399 0172 01       		.byte	1
ARM GAS  C:\Users\ilya\AppData\Local\Temp\ccpEIuqL.s 			page 8


 400 0173 23       		.byte	35
 401 0174 D5       		.byte	-43
 402 0175 01       		.byte	1
 403 0176 24       		.byte	36
 404 0177 18       		.byte	24
 405 0178 01       		.byte	1
 406 0179 25       		.byte	37
 407 017a 22       		.byte	34
 408 017b 01       		.byte	1
 409 017c 26       		.byte	38
 410 017d 01       		.byte	1
 411 017e 01       		.byte	1
 412 017f 27       		.byte	39
 413 0180 82       		.byte	-126
 414 0181 01       		.byte	1
 415 0182 28       		.byte	40
 416 0183 00       		.byte	0
 417 0184 01       		.byte	1
 418 0185 29       		.byte	41
 419 0186 D5       		.byte	-43
 420 0187 01       		.byte	1
 421 0188 2A       		.byte	42
 422 0189 18       		.byte	24
 423 018a 01       		.byte	1
 424 018b 2B       		.byte	43
 425 018c 0B       		.byte	11
 426 018d 01       		.byte	1
 427 018e 2C       		.byte	44
 428 018f 28       		.byte	40
 429 0190 01       		.byte	1
 430 0191 2D       		.byte	45
 431 0192 78       		.byte	120
 432 0193 01       		.byte	1
 433 0194 2E       		.byte	46
 434 0195 28       		.byte	40
 435 0196 01       		.byte	1
 436 0197 2F       		.byte	47
 437 0198 91       		.byte	-111
 438 0199 01       		.byte	1
 439 019a 30       		.byte	48
 440 019b 00       		.byte	0
 441 019c 01       		.byte	1
 442 019d 31       		.byte	49
 443 019e 0B       		.byte	11
 444 019f 01       		.byte	1
 445 01a0 32       		.byte	50
 446 01a1 00       		.byte	0
 447 01a2 01       		.byte	1
 448 01a3 33       		.byte	51
 449 01a4 0B       		.byte	11
 450 01a5 01       		.byte	1
 451 01a6 34       		.byte	52
 452 01a7 00       		.byte	0
 453 01a8 01       		.byte	1
 454 01a9 35       		.byte	53
 455 01aa A1       		.byte	-95
 456 01ab 01       		.byte	1
ARM GAS  C:\Users\ilya\AppData\Local\Temp\ccpEIuqL.s 			page 9


 457 01ac 36       		.byte	54
 458 01ad 00       		.byte	0
 459 01ae 01       		.byte	1
 460 01af 37       		.byte	55
 461 01b0 A0       		.byte	-96
 462 01b1 01       		.byte	1
 463 01b2 38       		.byte	56
 464 01b3 00       		.byte	0
 465 01b4 01       		.byte	1
 466 01b5 39       		.byte	57
 467 01b6 04       		.byte	4
 468 01b7 01       		.byte	1
 469 01b8 3A       		.byte	58
 470 01b9 28       		.byte	40
 471 01ba 01       		.byte	1
 472 01bb 3B       		.byte	59
 473 01bc 30       		.byte	48
 474 01bd 01       		.byte	1
 475 01be 3C       		.byte	60
 476 01bf 0C       		.byte	12
 477 01c0 01       		.byte	1
 478 01c1 3D       		.byte	61
 479 01c2 04       		.byte	4
 480 01c3 01       		.byte	1
 481 01c4 3E       		.byte	62
 482 01c5 0F       		.byte	15
 483 01c6 01       		.byte	1
 484 01c7 3F       		.byte	63
 485 01c8 79       		.byte	121
 486 01c9 01       		.byte	1
 487 01ca 40       		.byte	64
 488 01cb 28       		.byte	40
 489 01cc 01       		.byte	1
 490 01cd 41       		.byte	65
 491 01ce 1E       		.byte	30
 492 01cf 01       		.byte	1
 493 01d0 42       		.byte	66
 494 01d1 2F       		.byte	47
 495 01d2 01       		.byte	1
 496 01d3 43       		.byte	67
 497 01d4 87       		.byte	-121
 498 01d5 01       		.byte	1
 499 01d6 44       		.byte	68
 500 01d7 00       		.byte	0
 501 01d8 01       		.byte	1
 502 01d9 45       		.byte	69
 503 01da 0B       		.byte	11
 504 01db 01       		.byte	1
 505 01dc 46       		.byte	70
 506 01dd 00       		.byte	0
 507 01de 01       		.byte	1
 508 01df 47       		.byte	71
 509 01e0 0B       		.byte	11
 510 01e1 01       		.byte	1
 511 01e2 48       		.byte	72
 512 01e3 00       		.byte	0
 513 01e4 01       		.byte	1
ARM GAS  C:\Users\ilya\AppData\Local\Temp\ccpEIuqL.s 			page 10


 514 01e5 49       		.byte	73
 515 01e6 A7       		.byte	-89
 516 01e7 01       		.byte	1
 517 01e8 4A       		.byte	74
 518 01e9 00       		.byte	0
 519 01ea 01       		.byte	1
 520 01eb 4B       		.byte	75
 521 01ec A6       		.byte	-90
 522 01ed 01       		.byte	1
 523 01ee 4C       		.byte	76
 524 01ef 00       		.byte	0
 525 01f0 01       		.byte	1
 526 01f1 4D       		.byte	77
 527 01f2 04       		.byte	4
 528 01f3 01       		.byte	1
 529 01f4 4E       		.byte	78
 530 01f5 01       		.byte	1
 531 01f6 01       		.byte	1
 532 01f7 4F       		.byte	79
 533 01f8 00       		.byte	0
 534 01f9 01       		.byte	1
 535 01fa 50       		.byte	80
 536 01fb 00       		.byte	0
 537 01fc 01       		.byte	1
 538 01fd 51       		.byte	81
 539 01fe 80       		.byte	-128
 540 01ff 01       		.byte	1
 541 0200 52       		.byte	82
 542 0201 09       		.byte	9
 543 0202 01       		.byte	1
 544 0203 53       		.byte	83
 545 0204 08       		.byte	8
 546 0205 01       		.byte	1
 547 0206 54       		.byte	84
 548 0207 01       		.byte	1
 549 0208 01       		.byte	1
 550 0209 55       		.byte	85
 551 020a 00       		.byte	0
 552 020b 01       		.byte	1
 553 020c 56       		.byte	86
 554 020d 0F       		.byte	15
 555 020e 01       		.byte	1
 556 020f 57       		.byte	87
 557 0210 79       		.byte	121
 558 0211 01       		.byte	1
 559 0212 58       		.byte	88
 560 0213 09       		.byte	9
 561 0214 01       		.byte	1
 562 0215 59       		.byte	89
 563 0216 05       		.byte	5
 564 0217 01       		.byte	1
 565 0218 5A       		.byte	90
 566 0219 00       		.byte	0
 567 021a 01       		.byte	1
 568 021b 5B       		.byte	91
 569 021c 60       		.byte	96
 570 021d 01       		.byte	1
ARM GAS  C:\Users\ilya\AppData\Local\Temp\ccpEIuqL.s 			page 11


 571 021e 5C       		.byte	92
 572 021f 05       		.byte	5
 573 0220 01       		.byte	1
 574 0221 5D       		.byte	93
 575 0222 D1       		.byte	-47
 576 0223 01       		.byte	1
 577 0224 5E       		.byte	94
 578 0225 0C       		.byte	12
 579 0226 01       		.byte	1
 580 0227 5F       		.byte	95
 581 0228 3C       		.byte	60
 582 0229 01       		.byte	1
 583 022a 60       		.byte	96
 584 022b 00       		.byte	0
 585 022c 01       		.byte	1
 586 022d 61       		.byte	97
 587 022e D0       		.byte	-48
 588 022f 01       		.byte	1
 589 0230 62       		.byte	98
 590 0231 0B       		.byte	11
 591 0232 01       		.byte	1
 592 0233 63       		.byte	99
 593 0234 03       		.byte	3
 594 0235 01       		.byte	1
 595 0236 64       		.byte	100
 596 0237 28       		.byte	40
 597 0238 01       		.byte	1
 598 0239 65       		.byte	101
 599 023a 10       		.byte	16
 600 023b 01       		.byte	1
 601 023c 66       		.byte	102
 602 023d 2A       		.byte	42
 603 023e 01       		.byte	1
 604 023f 67       		.byte	103
 605 0240 39       		.byte	57
 606 0241 01       		.byte	1
 607 0242 68       		.byte	104
 608 0243 0B       		.byte	11
 609 0244 01       		.byte	1
 610 0245 69       		.byte	105
 611 0246 02       		.byte	2
 612 0247 01       		.byte	1
 613 0248 6A       		.byte	106
 614 0249 28       		.byte	40
 615 024a 01       		.byte	1
 616 024b 6B       		.byte	107
 617 024c 10       		.byte	16
 618 024d 01       		.byte	1
 619 024e 6C       		.byte	108
 620 024f 2A       		.byte	42
 621 0250 01       		.byte	1
 622 0251 6D       		.byte	109
 623 0252 61       		.byte	97
 624 0253 01       		.byte	1
 625 0254 6E       		.byte	110
 626 0255 0C       		.byte	12
 627 0256 01       		.byte	1
ARM GAS  C:\Users\ilya\AppData\Local\Temp\ccpEIuqL.s 			page 12


 628 0257 6F       		.byte	111
 629 0258 00       		.byte	0
 630 0259 01       		.byte	1
 631 025a 70       		.byte	112
 632 025b 0F       		.byte	15
 633 025c 01       		.byte	1
 634 025d 71       		.byte	113
 635 025e 79       		.byte	121
 636 025f 01       		.byte	1
 637 0260 72       		.byte	114
 638 0261 00       		.byte	0
 639 0262 01       		.byte	1
 640 0263 73       		.byte	115
 641 0264 0B       		.byte	11
 642 0265 01       		.byte	1
 643 0266 74       		.byte	116
 644 0267 00       		.byte	0
 645 0268 01       		.byte	1
 646 0269 75       		.byte	117
 647 026a 0B       		.byte	11
 648 026b 01       		.byte	1
 649 026c 76       		.byte	118
 650 026d 00       		.byte	0
 651 026e 01       		.byte	1
 652 026f 77       		.byte	119
 653 0270 A1       		.byte	-95
 654 0271 01       		.byte	1
 655 0272 78       		.byte	120
 656 0273 00       		.byte	0
 657 0274 01       		.byte	1
 658 0275 79       		.byte	121
 659 0276 A0       		.byte	-96
 660 0277 01       		.byte	1
 661 0278 7A       		.byte	122
 662 0279 00       		.byte	0
 663 027a 01       		.byte	1
 664 027b 7B       		.byte	123
 665 027c 04       		.byte	4
 666 027d 01       		.byte	1
 667 027e FF       		.byte	-1
 668 027f 04       		.byte	4
 669 0280 01       		.byte	1
 670 0281 79       		.byte	121
 671 0282 1D       		.byte	29
 672 0283 01       		.byte	1
 673 0284 7B       		.byte	123
 674 0285 27       		.byte	39
 675 0286 01       		.byte	1
 676 0287 96       		.byte	-106
 677 0288 0E       		.byte	14
 678 0289 01       		.byte	1
 679 028a 97       		.byte	-105
 680 028b FE       		.byte	-2
 681 028c 01       		.byte	1
 682 028d 98       		.byte	-104
 683 028e 03       		.byte	3
 684 028f 01       		.byte	1
ARM GAS  C:\Users\ilya\AppData\Local\Temp\ccpEIuqL.s 			page 13


 685 0290 99       		.byte	-103
 686 0291 EF       		.byte	-17
 687 0292 01       		.byte	1
 688 0293 9A       		.byte	-102
 689 0294 02       		.byte	2
 690 0295 01       		.byte	1
 691 0296 9B       		.byte	-101
 692 0297 44       		.byte	68
 693 0298 01       		.byte	1
 694 0299 73       		.byte	115
 695 029a 07       		.byte	7
 696 029b 01       		.byte	1
 697 029c 70       		.byte	112
 698 029d 01       		.byte	1
 699 029e 01       		.byte	1
 700 029f FF       		.byte	-1
 701 02a0 01       		.byte	1
 702 02a1 01       		.byte	1
 703 02a2 00       		.byte	0
 704 02a3 01       		.byte	1
 705 02a4 01       		.byte	1
 706 02a5 FF       		.byte	-1
 707 02a6 00       		.byte	0
 708 02a7 00       		.byte	0
 709 02a8 00       		.byte	0
 710 02a9 00       		.byte	0
 711              		.section	.text.VL53L0X_GetVersion,"ax",%progbits
 712              		.align	2
 713              		.global	VL53L0X_GetVersion
 714              		.code	16
 715              		.thumb_func
 716              		.type	VL53L0X_GetVersion, %function
 717              	VL53L0X_GetVersion:
 718              	.LFB1:
 719              		.file 1 "Api\\core\\src\\vl53l0x_api.c"
   1:Api\core\src/vl53l0x_api.c **** /*******************************************************************************
   2:Api\core\src/vl53l0x_api.c ****  Copyright © 2016, STMicroelectronics International N.V.
   3:Api\core\src/vl53l0x_api.c ****  All rights reserved.
   4:Api\core\src/vl53l0x_api.c **** 
   5:Api\core\src/vl53l0x_api.c ****  Redistribution and use in source and binary forms, with or without
   6:Api\core\src/vl53l0x_api.c ****  modification, are permitted provided that the following conditions are met:
   7:Api\core\src/vl53l0x_api.c ****  * Redistributions of source code must retain the above copyright
   8:Api\core\src/vl53l0x_api.c ****  notice, this list of conditions and the following disclaimer.
   9:Api\core\src/vl53l0x_api.c ****  * Redistributions in binary form must reproduce the above copyright
  10:Api\core\src/vl53l0x_api.c ****  notice, this list of conditions and the following disclaimer in the
  11:Api\core\src/vl53l0x_api.c ****  documentation and/or other materials provided with the distribution.
  12:Api\core\src/vl53l0x_api.c ****  * Neither the name of STMicroelectronics nor the
  13:Api\core\src/vl53l0x_api.c ****  names of its contributors may be used to endorse or promote products
  14:Api\core\src/vl53l0x_api.c ****  derived from this software without specific prior written permission.
  15:Api\core\src/vl53l0x_api.c **** 
  16:Api\core\src/vl53l0x_api.c ****  THIS SOFTWARE IS PROVIDED BY THE COPYRIGHT HOLDERS AND CONTRIBUTORS "AS IS" AND
  17:Api\core\src/vl53l0x_api.c ****  ANY EXPRESS OR IMPLIED WARRANTIES, INCLUDING, BUT NOT LIMITED TO, THE IMPLIED
  18:Api\core\src/vl53l0x_api.c ****  WARRANTIES OF MERCHANTABILITY, FITNESS FOR A PARTICULAR PURPOSE, AND
  19:Api\core\src/vl53l0x_api.c ****  NON-INFRINGEMENT OF INTELLECTUAL PROPERTY RIGHTS ARE DISCLAIMED.
  20:Api\core\src/vl53l0x_api.c ****  IN NO EVENT SHALL STMICROELECTRONICS INTERNATIONAL N.V. BE LIABLE FOR ANY
  21:Api\core\src/vl53l0x_api.c ****  DIRECT, INDIRECT, INCIDENTAL, SPECIAL, EXEMPLARY, OR CONSEQUENTIAL DAMAGES
  22:Api\core\src/vl53l0x_api.c ****  (INCLUDING, BUT NOT LIMITED TO, PROCUREMENT OF SUBSTITUTE GOODS OR SERVICES;
ARM GAS  C:\Users\ilya\AppData\Local\Temp\ccpEIuqL.s 			page 14


  23:Api\core\src/vl53l0x_api.c ****  LOSS OF USE, DATA, OR PROFITS; OR BUSINESS INTERRUPTION) HOWEVER CAUSED AND
  24:Api\core\src/vl53l0x_api.c ****  ON ANY THEORY OF LIABILITY, WHETHER IN CONTRACT, STRICT LIABILITY, OR TORT
  25:Api\core\src/vl53l0x_api.c ****  (INCLUDING NEGLIGENCE OR OTHERWISE) ARISING IN ANY WAY OUT OF THE USE OF THIS
  26:Api\core\src/vl53l0x_api.c ****  SOFTWARE, EVEN IF ADVISED OF THE POSSIBILITY OF SUCH DAMAGE.
  27:Api\core\src/vl53l0x_api.c ****  ******************************************************************************/
  28:Api\core\src/vl53l0x_api.c **** 
  29:Api\core\src/vl53l0x_api.c **** #include "vl53l0x_api.h"
  30:Api\core\src/vl53l0x_api.c **** #include "vl53l0x_tuning.h"
  31:Api\core\src/vl53l0x_api.c **** #include "vl53l0x_interrupt_threshold_settings.h"
  32:Api\core\src/vl53l0x_api.c **** #include "vl53l0x_api_core.h"
  33:Api\core\src/vl53l0x_api.c **** #include "vl53l0x_api_calibration.h"
  34:Api\core\src/vl53l0x_api.c **** #include "vl53l0x_api_strings.h"
  35:Api\core\src/vl53l0x_api.c **** 
  36:Api\core\src/vl53l0x_api.c **** #ifndef __KERNEL__
  37:Api\core\src/vl53l0x_api.c **** #include <stdlib.h>
  38:Api\core\src/vl53l0x_api.c **** #endif
  39:Api\core\src/vl53l0x_api.c **** #define LOG_FUNCTION_START(fmt, ...) \
  40:Api\core\src/vl53l0x_api.c **** 	_LOG_FUNCTION_START(TRACE_MODULE_API, fmt, ##__VA_ARGS__)
  41:Api\core\src/vl53l0x_api.c **** #define LOG_FUNCTION_END(status, ...) \
  42:Api\core\src/vl53l0x_api.c **** 	_LOG_FUNCTION_END(TRACE_MODULE_API, status, ##__VA_ARGS__)
  43:Api\core\src/vl53l0x_api.c **** #define LOG_FUNCTION_END_FMT(status, fmt, ...) \
  44:Api\core\src/vl53l0x_api.c **** 	_LOG_FUNCTION_END_FMT(TRACE_MODULE_API, status, fmt, ##__VA_ARGS__)
  45:Api\core\src/vl53l0x_api.c **** 
  46:Api\core\src/vl53l0x_api.c **** #ifdef VL53L0X_LOG_ENABLE
  47:Api\core\src/vl53l0x_api.c **** #define trace_print(level, ...) trace_print_module_function(TRACE_MODULE_API, \
  48:Api\core\src/vl53l0x_api.c **** 	level, TRACE_FUNCTION_NONE, ##__VA_ARGS__)
  49:Api\core\src/vl53l0x_api.c **** #endif
  50:Api\core\src/vl53l0x_api.c **** 
  51:Api\core\src/vl53l0x_api.c **** /* Group PAL General Functions */
  52:Api\core\src/vl53l0x_api.c **** 
  53:Api\core\src/vl53l0x_api.c **** VL53L0X_Error VL53L0X_GetVersion(VL53L0X_Version_t *pVersion)
  54:Api\core\src/vl53l0x_api.c **** {
 720              		.loc 1 54 0
 721              		.cfi_startproc
 722              		@ args = 0, pretend = 0, frame = 16
 723              		@ frame_needed = 1, uses_anonymous_args = 0
 724 0000 80B5     		push	{r7, lr}
 725              		.cfi_def_cfa_offset 8
 726              		.cfi_offset 7, -8
 727              		.cfi_offset 14, -4
 728 0002 84B0     		sub	sp, sp, #16
 729              		.cfi_def_cfa_offset 24
 730 0004 00AF     		add	r7, sp, #0
 731              		.cfi_def_cfa_register 7
 732 0006 7860     		str	r0, [r7, #4]
  55:Api\core\src/vl53l0x_api.c **** 	VL53L0X_Error Status = VL53L0X_ERROR_NONE;
 733              		.loc 1 55 0
 734 0008 0F23     		movs	r3, #15
 735 000a FB18     		adds	r3, r7, r3
 736 000c 0022     		movs	r2, #0
 737 000e 1A70     		strb	r2, [r3]
  56:Api\core\src/vl53l0x_api.c **** 	LOG_FUNCTION_START("");
  57:Api\core\src/vl53l0x_api.c **** 
  58:Api\core\src/vl53l0x_api.c **** 	pVersion->major = VL53L0X_IMPLEMENTATION_VER_MAJOR;
 738              		.loc 1 58 0
 739 0010 7B68     		ldr	r3, [r7, #4]
 740 0012 0122     		movs	r2, #1
ARM GAS  C:\Users\ilya\AppData\Local\Temp\ccpEIuqL.s 			page 15


 741 0014 1A71     		strb	r2, [r3, #4]
  59:Api\core\src/vl53l0x_api.c **** 	pVersion->minor = VL53L0X_IMPLEMENTATION_VER_MINOR;
 742              		.loc 1 59 0
 743 0016 7B68     		ldr	r3, [r7, #4]
 744 0018 0022     		movs	r2, #0
 745 001a 5A71     		strb	r2, [r3, #5]
  60:Api\core\src/vl53l0x_api.c **** 	pVersion->build = VL53L0X_IMPLEMENTATION_VER_SUB;
 746              		.loc 1 60 0
 747 001c 7B68     		ldr	r3, [r7, #4]
 748 001e 0222     		movs	r2, #2
 749 0020 9A71     		strb	r2, [r3, #6]
  61:Api\core\src/vl53l0x_api.c **** 
  62:Api\core\src/vl53l0x_api.c **** 	pVersion->revision = VL53L0X_IMPLEMENTATION_VER_REVISION;
 750              		.loc 1 62 0
 751 0022 7B68     		ldr	r3, [r7, #4]
 752 0024 044A     		ldr	r2, .L3
 753 0026 1A60     		str	r2, [r3]
  63:Api\core\src/vl53l0x_api.c **** 
  64:Api\core\src/vl53l0x_api.c **** 	LOG_FUNCTION_END(Status);
  65:Api\core\src/vl53l0x_api.c **** 	return Status;
 754              		.loc 1 65 0
 755 0028 0F23     		movs	r3, #15
 756 002a FB18     		adds	r3, r7, r3
 757 002c 1B78     		ldrb	r3, [r3]
 758 002e 5BB2     		sxtb	r3, r3
  66:Api\core\src/vl53l0x_api.c **** }
 759              		.loc 1 66 0
 760 0030 1800     		movs	r0, r3
 761 0032 BD46     		mov	sp, r7
 762 0034 04B0     		add	sp, sp, #16
 763              		@ sp needed
 764 0036 80BD     		pop	{r7, pc}
 765              	.L4:
 766              		.align	2
 767              	.L3:
 768 0038 D7120000 		.word	4823
 769              		.cfi_endproc
 770              	.LFE1:
 771              		.size	VL53L0X_GetVersion, .-VL53L0X_GetVersion
 772              		.section	.text.VL53L0X_GetPalSpecVersion,"ax",%progbits
 773              		.align	2
 774              		.global	VL53L0X_GetPalSpecVersion
 775              		.code	16
 776              		.thumb_func
 777              		.type	VL53L0X_GetPalSpecVersion, %function
 778              	VL53L0X_GetPalSpecVersion:
 779              	.LFB2:
  67:Api\core\src/vl53l0x_api.c **** 
  68:Api\core\src/vl53l0x_api.c **** VL53L0X_Error VL53L0X_GetPalSpecVersion(VL53L0X_Version_t *pPalSpecVersion)
  69:Api\core\src/vl53l0x_api.c **** {
 780              		.loc 1 69 0
 781              		.cfi_startproc
 782              		@ args = 0, pretend = 0, frame = 16
 783              		@ frame_needed = 1, uses_anonymous_args = 0
 784 0000 80B5     		push	{r7, lr}
 785              		.cfi_def_cfa_offset 8
 786              		.cfi_offset 7, -8
ARM GAS  C:\Users\ilya\AppData\Local\Temp\ccpEIuqL.s 			page 16


 787              		.cfi_offset 14, -4
 788 0002 84B0     		sub	sp, sp, #16
 789              		.cfi_def_cfa_offset 24
 790 0004 00AF     		add	r7, sp, #0
 791              		.cfi_def_cfa_register 7
 792 0006 7860     		str	r0, [r7, #4]
  70:Api\core\src/vl53l0x_api.c **** 	VL53L0X_Error Status = VL53L0X_ERROR_NONE;
 793              		.loc 1 70 0
 794 0008 0F23     		movs	r3, #15
 795 000a FB18     		adds	r3, r7, r3
 796 000c 0022     		movs	r2, #0
 797 000e 1A70     		strb	r2, [r3]
  71:Api\core\src/vl53l0x_api.c **** 
  72:Api\core\src/vl53l0x_api.c **** 	LOG_FUNCTION_START("");
  73:Api\core\src/vl53l0x_api.c **** 
  74:Api\core\src/vl53l0x_api.c **** 	pPalSpecVersion->major = VL53L0X_SPECIFICATION_VER_MAJOR;
 798              		.loc 1 74 0
 799 0010 7B68     		ldr	r3, [r7, #4]
 800 0012 0122     		movs	r2, #1
 801 0014 1A71     		strb	r2, [r3, #4]
  75:Api\core\src/vl53l0x_api.c **** 	pPalSpecVersion->minor = VL53L0X_SPECIFICATION_VER_MINOR;
 802              		.loc 1 75 0
 803 0016 7B68     		ldr	r3, [r7, #4]
 804 0018 0222     		movs	r2, #2
 805 001a 5A71     		strb	r2, [r3, #5]
  76:Api\core\src/vl53l0x_api.c **** 	pPalSpecVersion->build = VL53L0X_SPECIFICATION_VER_SUB;
 806              		.loc 1 76 0
 807 001c 7B68     		ldr	r3, [r7, #4]
 808 001e 0722     		movs	r2, #7
 809 0020 9A71     		strb	r2, [r3, #6]
  77:Api\core\src/vl53l0x_api.c **** 
  78:Api\core\src/vl53l0x_api.c **** 	pPalSpecVersion->revision = VL53L0X_SPECIFICATION_VER_REVISION;
 810              		.loc 1 78 0
 811 0022 7B68     		ldr	r3, [r7, #4]
 812 0024 B422     		movs	r2, #180
 813 0026 D200     		lsls	r2, r2, #3
 814 0028 1A60     		str	r2, [r3]
  79:Api\core\src/vl53l0x_api.c **** 
  80:Api\core\src/vl53l0x_api.c **** 	LOG_FUNCTION_END(Status);
  81:Api\core\src/vl53l0x_api.c **** 	return Status;
 815              		.loc 1 81 0
 816 002a 0F23     		movs	r3, #15
 817 002c FB18     		adds	r3, r7, r3
 818 002e 1B78     		ldrb	r3, [r3]
 819 0030 5BB2     		sxtb	r3, r3
  82:Api\core\src/vl53l0x_api.c **** }
 820              		.loc 1 82 0
 821 0032 1800     		movs	r0, r3
 822 0034 BD46     		mov	sp, r7
 823 0036 04B0     		add	sp, sp, #16
 824              		@ sp needed
 825 0038 80BD     		pop	{r7, pc}
 826              		.cfi_endproc
 827              	.LFE2:
 828              		.size	VL53L0X_GetPalSpecVersion, .-VL53L0X_GetPalSpecVersion
 829 003a C046     		.section	.text.VL53L0X_GetProductRevision,"ax",%progbits
 830              		.align	2
ARM GAS  C:\Users\ilya\AppData\Local\Temp\ccpEIuqL.s 			page 17


 831              		.global	VL53L0X_GetProductRevision
 832              		.code	16
 833              		.thumb_func
 834              		.type	VL53L0X_GetProductRevision, %function
 835              	VL53L0X_GetProductRevision:
 836              	.LFB3:
  83:Api\core\src/vl53l0x_api.c **** 
  84:Api\core\src/vl53l0x_api.c **** VL53L0X_Error VL53L0X_GetProductRevision(VL53L0X_DEV Dev,
  85:Api\core\src/vl53l0x_api.c **** 	uint8_t *pProductRevisionMajor, uint8_t *pProductRevisionMinor)
  86:Api\core\src/vl53l0x_api.c **** {
 837              		.loc 1 86 0
 838              		.cfi_startproc
 839              		@ args = 0, pretend = 0, frame = 24
 840              		@ frame_needed = 1, uses_anonymous_args = 0
 841 0000 90B5     		push	{r4, r7, lr}
 842              		.cfi_def_cfa_offset 12
 843              		.cfi_offset 4, -12
 844              		.cfi_offset 7, -8
 845              		.cfi_offset 14, -4
 846 0002 87B0     		sub	sp, sp, #28
 847              		.cfi_def_cfa_offset 40
 848 0004 00AF     		add	r7, sp, #0
 849              		.cfi_def_cfa_register 7
 850 0006 F860     		str	r0, [r7, #12]
 851 0008 B960     		str	r1, [r7, #8]
 852 000a 7A60     		str	r2, [r7, #4]
  87:Api\core\src/vl53l0x_api.c **** 	VL53L0X_Error Status = VL53L0X_ERROR_NONE;
 853              		.loc 1 87 0
 854 000c 1723     		movs	r3, #23
 855 000e FB18     		adds	r3, r7, r3
 856 0010 0022     		movs	r2, #0
 857 0012 1A70     		strb	r2, [r3]
  88:Api\core\src/vl53l0x_api.c **** 	uint8_t revision_id;
  89:Api\core\src/vl53l0x_api.c **** 
  90:Api\core\src/vl53l0x_api.c **** 	LOG_FUNCTION_START("");
  91:Api\core\src/vl53l0x_api.c **** 
  92:Api\core\src/vl53l0x_api.c **** 	Status = VL53L0X_RdByte(Dev, VL53L0X_REG_IDENTIFICATION_REVISION_ID,
 858              		.loc 1 92 0
 859 0014 1723     		movs	r3, #23
 860 0016 FC18     		adds	r4, r7, r3
 861 0018 1623     		movs	r3, #22
 862 001a FA18     		adds	r2, r7, r3
 863 001c FB68     		ldr	r3, [r7, #12]
 864 001e C221     		movs	r1, #194
 865 0020 1800     		movs	r0, r3
 866 0022 FFF7FEFF 		bl	VL53L0X_RdByte
 867 0026 0300     		movs	r3, r0
 868 0028 2370     		strb	r3, [r4]
  93:Api\core\src/vl53l0x_api.c **** 		&revision_id);
  94:Api\core\src/vl53l0x_api.c **** 	*pProductRevisionMajor = 1;
 869              		.loc 1 94 0
 870 002a BB68     		ldr	r3, [r7, #8]
 871 002c 0122     		movs	r2, #1
 872 002e 1A70     		strb	r2, [r3]
  95:Api\core\src/vl53l0x_api.c **** 	*pProductRevisionMinor = (revision_id & 0xF0) >> 4;
 873              		.loc 1 95 0
 874 0030 1623     		movs	r3, #22
ARM GAS  C:\Users\ilya\AppData\Local\Temp\ccpEIuqL.s 			page 18


 875 0032 FB18     		adds	r3, r7, r3
 876 0034 1B78     		ldrb	r3, [r3]
 877 0036 1B09     		lsrs	r3, r3, #4
 878 0038 DAB2     		uxtb	r2, r3
 879 003a 7B68     		ldr	r3, [r7, #4]
 880 003c 1A70     		strb	r2, [r3]
  96:Api\core\src/vl53l0x_api.c **** 
  97:Api\core\src/vl53l0x_api.c **** 	LOG_FUNCTION_END(Status);
  98:Api\core\src/vl53l0x_api.c **** 	return Status;
 881              		.loc 1 98 0
 882 003e 1723     		movs	r3, #23
 883 0040 FB18     		adds	r3, r7, r3
 884 0042 1B78     		ldrb	r3, [r3]
 885 0044 5BB2     		sxtb	r3, r3
  99:Api\core\src/vl53l0x_api.c **** 
 100:Api\core\src/vl53l0x_api.c **** }
 886              		.loc 1 100 0
 887 0046 1800     		movs	r0, r3
 888 0048 BD46     		mov	sp, r7
 889 004a 07B0     		add	sp, sp, #28
 890              		@ sp needed
 891 004c 90BD     		pop	{r4, r7, pc}
 892              		.cfi_endproc
 893              	.LFE3:
 894              		.size	VL53L0X_GetProductRevision, .-VL53L0X_GetProductRevision
 895 004e C046     		.section	.text.VL53L0X_GetDeviceInfo,"ax",%progbits
 896              		.align	2
 897              		.global	VL53L0X_GetDeviceInfo
 898              		.code	16
 899              		.thumb_func
 900              		.type	VL53L0X_GetDeviceInfo, %function
 901              	VL53L0X_GetDeviceInfo:
 902              	.LFB4:
 101:Api\core\src/vl53l0x_api.c **** 
 102:Api\core\src/vl53l0x_api.c **** VL53L0X_Error VL53L0X_GetDeviceInfo(VL53L0X_DEV Dev,
 103:Api\core\src/vl53l0x_api.c **** 	VL53L0X_DeviceInfo_t *pVL53L0X_DeviceInfo)
 104:Api\core\src/vl53l0x_api.c **** {
 903              		.loc 1 104 0
 904              		.cfi_startproc
 905              		@ args = 0, pretend = 0, frame = 16
 906              		@ frame_needed = 1, uses_anonymous_args = 0
 907 0000 90B5     		push	{r4, r7, lr}
 908              		.cfi_def_cfa_offset 12
 909              		.cfi_offset 4, -12
 910              		.cfi_offset 7, -8
 911              		.cfi_offset 14, -4
 912 0002 85B0     		sub	sp, sp, #20
 913              		.cfi_def_cfa_offset 32
 914 0004 00AF     		add	r7, sp, #0
 915              		.cfi_def_cfa_register 7
 916 0006 7860     		str	r0, [r7, #4]
 917 0008 3960     		str	r1, [r7]
 105:Api\core\src/vl53l0x_api.c **** 	VL53L0X_Error Status = VL53L0X_ERROR_NONE;
 918              		.loc 1 105 0
 919 000a 0F23     		movs	r3, #15
 920 000c FB18     		adds	r3, r7, r3
 921 000e 0022     		movs	r2, #0
ARM GAS  C:\Users\ilya\AppData\Local\Temp\ccpEIuqL.s 			page 19


 922 0010 1A70     		strb	r2, [r3]
 106:Api\core\src/vl53l0x_api.c **** 	LOG_FUNCTION_START("");
 107:Api\core\src/vl53l0x_api.c **** 
 108:Api\core\src/vl53l0x_api.c **** 	Status = VL53L0X_get_device_info(Dev, pVL53L0X_DeviceInfo);
 923              		.loc 1 108 0
 924 0012 0F23     		movs	r3, #15
 925 0014 FC18     		adds	r4, r7, r3
 926 0016 3A68     		ldr	r2, [r7]
 927 0018 7B68     		ldr	r3, [r7, #4]
 928 001a 1100     		movs	r1, r2
 929 001c 1800     		movs	r0, r3
 930 001e FFF7FEFF 		bl	VL53L0X_get_device_info
 931 0022 0300     		movs	r3, r0
 932 0024 2370     		strb	r3, [r4]
 109:Api\core\src/vl53l0x_api.c **** 
 110:Api\core\src/vl53l0x_api.c **** 	LOG_FUNCTION_END(Status);
 111:Api\core\src/vl53l0x_api.c **** 	return Status;
 933              		.loc 1 111 0
 934 0026 0F23     		movs	r3, #15
 935 0028 FB18     		adds	r3, r7, r3
 936 002a 1B78     		ldrb	r3, [r3]
 937 002c 5BB2     		sxtb	r3, r3
 112:Api\core\src/vl53l0x_api.c **** }
 938              		.loc 1 112 0
 939 002e 1800     		movs	r0, r3
 940 0030 BD46     		mov	sp, r7
 941 0032 05B0     		add	sp, sp, #20
 942              		@ sp needed
 943 0034 90BD     		pop	{r4, r7, pc}
 944              		.cfi_endproc
 945              	.LFE4:
 946              		.size	VL53L0X_GetDeviceInfo, .-VL53L0X_GetDeviceInfo
 947              		.section	.text.VL53L0X_GetDeviceErrorStatus,"ax",%progbits
 948              		.align	2
 949              		.global	VL53L0X_GetDeviceErrorStatus
 950              		.code	16
 951              		.thumb_func
 952              		.type	VL53L0X_GetDeviceErrorStatus, %function
 953              	VL53L0X_GetDeviceErrorStatus:
 954              	.LFB5:
 113:Api\core\src/vl53l0x_api.c **** 
 114:Api\core\src/vl53l0x_api.c **** VL53L0X_Error VL53L0X_GetDeviceErrorStatus(VL53L0X_DEV Dev,
 115:Api\core\src/vl53l0x_api.c **** 	VL53L0X_DeviceError *pDeviceErrorStatus)
 116:Api\core\src/vl53l0x_api.c **** {
 955              		.loc 1 116 0
 956              		.cfi_startproc
 957              		@ args = 0, pretend = 0, frame = 16
 958              		@ frame_needed = 1, uses_anonymous_args = 0
 959 0000 90B5     		push	{r4, r7, lr}
 960              		.cfi_def_cfa_offset 12
 961              		.cfi_offset 4, -12
 962              		.cfi_offset 7, -8
 963              		.cfi_offset 14, -4
 964 0002 85B0     		sub	sp, sp, #20
 965              		.cfi_def_cfa_offset 32
 966 0004 00AF     		add	r7, sp, #0
 967              		.cfi_def_cfa_register 7
ARM GAS  C:\Users\ilya\AppData\Local\Temp\ccpEIuqL.s 			page 20


 968 0006 7860     		str	r0, [r7, #4]
 969 0008 3960     		str	r1, [r7]
 117:Api\core\src/vl53l0x_api.c **** 	VL53L0X_Error Status = VL53L0X_ERROR_NONE;
 970              		.loc 1 117 0
 971 000a 0F23     		movs	r3, #15
 972 000c FB18     		adds	r3, r7, r3
 973 000e 0022     		movs	r2, #0
 974 0010 1A70     		strb	r2, [r3]
 118:Api\core\src/vl53l0x_api.c **** 	uint8_t RangeStatus;
 119:Api\core\src/vl53l0x_api.c **** 
 120:Api\core\src/vl53l0x_api.c **** 	LOG_FUNCTION_START("");
 121:Api\core\src/vl53l0x_api.c **** 
 122:Api\core\src/vl53l0x_api.c **** 	Status = VL53L0X_RdByte(Dev, VL53L0X_REG_RESULT_RANGE_STATUS,
 975              		.loc 1 122 0
 976 0012 0F23     		movs	r3, #15
 977 0014 FC18     		adds	r4, r7, r3
 978 0016 0E23     		movs	r3, #14
 979 0018 FA18     		adds	r2, r7, r3
 980 001a 7B68     		ldr	r3, [r7, #4]
 981 001c 1421     		movs	r1, #20
 982 001e 1800     		movs	r0, r3
 983 0020 FFF7FEFF 		bl	VL53L0X_RdByte
 984 0024 0300     		movs	r3, r0
 985 0026 2370     		strb	r3, [r4]
 123:Api\core\src/vl53l0x_api.c **** 		&RangeStatus);
 124:Api\core\src/vl53l0x_api.c **** 
 125:Api\core\src/vl53l0x_api.c **** 	*pDeviceErrorStatus = (VL53L0X_DeviceError)((RangeStatus & 0x78) >> 3);
 986              		.loc 1 125 0
 987 0028 0E23     		movs	r3, #14
 988 002a FB18     		adds	r3, r7, r3
 989 002c 1B78     		ldrb	r3, [r3]
 990 002e DB10     		asrs	r3, r3, #3
 991 0030 DBB2     		uxtb	r3, r3
 992 0032 0F22     		movs	r2, #15
 993 0034 1340     		ands	r3, r2
 994 0036 DAB2     		uxtb	r2, r3
 995 0038 3B68     		ldr	r3, [r7]
 996 003a 1A70     		strb	r2, [r3]
 126:Api\core\src/vl53l0x_api.c **** 
 127:Api\core\src/vl53l0x_api.c **** 	LOG_FUNCTION_END(Status);
 128:Api\core\src/vl53l0x_api.c **** 	return Status;
 997              		.loc 1 128 0
 998 003c 0F23     		movs	r3, #15
 999 003e FB18     		adds	r3, r7, r3
 1000 0040 1B78     		ldrb	r3, [r3]
 1001 0042 5BB2     		sxtb	r3, r3
 129:Api\core\src/vl53l0x_api.c **** }
 1002              		.loc 1 129 0
 1003 0044 1800     		movs	r0, r3
 1004 0046 BD46     		mov	sp, r7
 1005 0048 05B0     		add	sp, sp, #20
 1006              		@ sp needed
 1007 004a 90BD     		pop	{r4, r7, pc}
 1008              		.cfi_endproc
 1009              	.LFE5:
 1010              		.size	VL53L0X_GetDeviceErrorStatus, .-VL53L0X_GetDeviceErrorStatus
 1011              		.section	.text.VL53L0X_GetDeviceErrorString,"ax",%progbits
ARM GAS  C:\Users\ilya\AppData\Local\Temp\ccpEIuqL.s 			page 21


 1012              		.align	2
 1013              		.global	VL53L0X_GetDeviceErrorString
 1014              		.code	16
 1015              		.thumb_func
 1016              		.type	VL53L0X_GetDeviceErrorString, %function
 1017              	VL53L0X_GetDeviceErrorString:
 1018              	.LFB6:
 130:Api\core\src/vl53l0x_api.c **** 
 131:Api\core\src/vl53l0x_api.c **** 
 132:Api\core\src/vl53l0x_api.c **** VL53L0X_Error VL53L0X_GetDeviceErrorString(VL53L0X_DeviceError ErrorCode,
 133:Api\core\src/vl53l0x_api.c **** 	char *pDeviceErrorString)
 134:Api\core\src/vl53l0x_api.c **** {
 1019              		.loc 1 134 0
 1020              		.cfi_startproc
 1021              		@ args = 0, pretend = 0, frame = 16
 1022              		@ frame_needed = 1, uses_anonymous_args = 0
 1023 0000 90B5     		push	{r4, r7, lr}
 1024              		.cfi_def_cfa_offset 12
 1025              		.cfi_offset 4, -12
 1026              		.cfi_offset 7, -8
 1027              		.cfi_offset 14, -4
 1028 0002 85B0     		sub	sp, sp, #20
 1029              		.cfi_def_cfa_offset 32
 1030 0004 00AF     		add	r7, sp, #0
 1031              		.cfi_def_cfa_register 7
 1032 0006 0200     		movs	r2, r0
 1033 0008 3960     		str	r1, [r7]
 1034 000a FB1D     		adds	r3, r7, #7
 1035 000c 1A70     		strb	r2, [r3]
 135:Api\core\src/vl53l0x_api.c **** 	VL53L0X_Error Status = VL53L0X_ERROR_NONE;
 1036              		.loc 1 135 0
 1037 000e 0F23     		movs	r3, #15
 1038 0010 FB18     		adds	r3, r7, r3
 1039 0012 0022     		movs	r2, #0
 1040 0014 1A70     		strb	r2, [r3]
 136:Api\core\src/vl53l0x_api.c **** 
 137:Api\core\src/vl53l0x_api.c **** 	LOG_FUNCTION_START("");
 138:Api\core\src/vl53l0x_api.c **** 
 139:Api\core\src/vl53l0x_api.c **** 	Status = VL53L0X_get_device_error_string(ErrorCode, pDeviceErrorString);
 1041              		.loc 1 139 0
 1042 0016 0F23     		movs	r3, #15
 1043 0018 FC18     		adds	r4, r7, r3
 1044 001a 3A68     		ldr	r2, [r7]
 1045 001c FB1D     		adds	r3, r7, #7
 1046 001e 1B78     		ldrb	r3, [r3]
 1047 0020 1100     		movs	r1, r2
 1048 0022 1800     		movs	r0, r3
 1049 0024 FFF7FEFF 		bl	VL53L0X_get_device_error_string
 1050 0028 0300     		movs	r3, r0
 1051 002a 2370     		strb	r3, [r4]
 140:Api\core\src/vl53l0x_api.c **** 
 141:Api\core\src/vl53l0x_api.c **** 	LOG_FUNCTION_END(Status);
 142:Api\core\src/vl53l0x_api.c **** 	return Status;
 1052              		.loc 1 142 0
 1053 002c 0F23     		movs	r3, #15
 1054 002e FB18     		adds	r3, r7, r3
 1055 0030 1B78     		ldrb	r3, [r3]
ARM GAS  C:\Users\ilya\AppData\Local\Temp\ccpEIuqL.s 			page 22


 1056 0032 5BB2     		sxtb	r3, r3
 143:Api\core\src/vl53l0x_api.c **** }
 1057              		.loc 1 143 0
 1058 0034 1800     		movs	r0, r3
 1059 0036 BD46     		mov	sp, r7
 1060 0038 05B0     		add	sp, sp, #20
 1061              		@ sp needed
 1062 003a 90BD     		pop	{r4, r7, pc}
 1063              		.cfi_endproc
 1064              	.LFE6:
 1065              		.size	VL53L0X_GetDeviceErrorString, .-VL53L0X_GetDeviceErrorString
 1066              		.section	.text.VL53L0X_GetRangeStatusString,"ax",%progbits
 1067              		.align	2
 1068              		.global	VL53L0X_GetRangeStatusString
 1069              		.code	16
 1070              		.thumb_func
 1071              		.type	VL53L0X_GetRangeStatusString, %function
 1072              	VL53L0X_GetRangeStatusString:
 1073              	.LFB7:
 144:Api\core\src/vl53l0x_api.c **** 
 145:Api\core\src/vl53l0x_api.c **** VL53L0X_Error VL53L0X_GetRangeStatusString(uint8_t RangeStatus,
 146:Api\core\src/vl53l0x_api.c **** 	char *pRangeStatusString)
 147:Api\core\src/vl53l0x_api.c **** {
 1074              		.loc 1 147 0
 1075              		.cfi_startproc
 1076              		@ args = 0, pretend = 0, frame = 16
 1077              		@ frame_needed = 1, uses_anonymous_args = 0
 1078 0000 90B5     		push	{r4, r7, lr}
 1079              		.cfi_def_cfa_offset 12
 1080              		.cfi_offset 4, -12
 1081              		.cfi_offset 7, -8
 1082              		.cfi_offset 14, -4
 1083 0002 85B0     		sub	sp, sp, #20
 1084              		.cfi_def_cfa_offset 32
 1085 0004 00AF     		add	r7, sp, #0
 1086              		.cfi_def_cfa_register 7
 1087 0006 0200     		movs	r2, r0
 1088 0008 3960     		str	r1, [r7]
 1089 000a FB1D     		adds	r3, r7, #7
 1090 000c 1A70     		strb	r2, [r3]
 148:Api\core\src/vl53l0x_api.c **** 	VL53L0X_Error Status = VL53L0X_ERROR_NONE;
 1091              		.loc 1 148 0
 1092 000e 0F23     		movs	r3, #15
 1093 0010 FB18     		adds	r3, r7, r3
 1094 0012 0022     		movs	r2, #0
 1095 0014 1A70     		strb	r2, [r3]
 149:Api\core\src/vl53l0x_api.c **** 	LOG_FUNCTION_START("");
 150:Api\core\src/vl53l0x_api.c **** 
 151:Api\core\src/vl53l0x_api.c **** 	Status = VL53L0X_get_range_status_string(RangeStatus,
 1096              		.loc 1 151 0
 1097 0016 0F23     		movs	r3, #15
 1098 0018 FC18     		adds	r4, r7, r3
 1099 001a 3A68     		ldr	r2, [r7]
 1100 001c FB1D     		adds	r3, r7, #7
 1101 001e 1B78     		ldrb	r3, [r3]
 1102 0020 1100     		movs	r1, r2
 1103 0022 1800     		movs	r0, r3
ARM GAS  C:\Users\ilya\AppData\Local\Temp\ccpEIuqL.s 			page 23


 1104 0024 FFF7FEFF 		bl	VL53L0X_get_range_status_string
 1105 0028 0300     		movs	r3, r0
 1106 002a 2370     		strb	r3, [r4]
 152:Api\core\src/vl53l0x_api.c **** 		pRangeStatusString);
 153:Api\core\src/vl53l0x_api.c **** 
 154:Api\core\src/vl53l0x_api.c **** 	LOG_FUNCTION_END(Status);
 155:Api\core\src/vl53l0x_api.c **** 	return Status;
 1107              		.loc 1 155 0
 1108 002c 0F23     		movs	r3, #15
 1109 002e FB18     		adds	r3, r7, r3
 1110 0030 1B78     		ldrb	r3, [r3]
 1111 0032 5BB2     		sxtb	r3, r3
 156:Api\core\src/vl53l0x_api.c **** }
 1112              		.loc 1 156 0
 1113 0034 1800     		movs	r0, r3
 1114 0036 BD46     		mov	sp, r7
 1115 0038 05B0     		add	sp, sp, #20
 1116              		@ sp needed
 1117 003a 90BD     		pop	{r4, r7, pc}
 1118              		.cfi_endproc
 1119              	.LFE7:
 1120              		.size	VL53L0X_GetRangeStatusString, .-VL53L0X_GetRangeStatusString
 1121              		.section	.text.VL53L0X_GetPalErrorString,"ax",%progbits
 1122              		.align	2
 1123              		.global	VL53L0X_GetPalErrorString
 1124              		.code	16
 1125              		.thumb_func
 1126              		.type	VL53L0X_GetPalErrorString, %function
 1127              	VL53L0X_GetPalErrorString:
 1128              	.LFB8:
 157:Api\core\src/vl53l0x_api.c **** 
 158:Api\core\src/vl53l0x_api.c **** VL53L0X_Error VL53L0X_GetPalErrorString(VL53L0X_Error PalErrorCode,
 159:Api\core\src/vl53l0x_api.c **** 	char *pPalErrorString)
 160:Api\core\src/vl53l0x_api.c **** {
 1129              		.loc 1 160 0
 1130              		.cfi_startproc
 1131              		@ args = 0, pretend = 0, frame = 16
 1132              		@ frame_needed = 1, uses_anonymous_args = 0
 1133 0000 90B5     		push	{r4, r7, lr}
 1134              		.cfi_def_cfa_offset 12
 1135              		.cfi_offset 4, -12
 1136              		.cfi_offset 7, -8
 1137              		.cfi_offset 14, -4
 1138 0002 85B0     		sub	sp, sp, #20
 1139              		.cfi_def_cfa_offset 32
 1140 0004 00AF     		add	r7, sp, #0
 1141              		.cfi_def_cfa_register 7
 1142 0006 0200     		movs	r2, r0
 1143 0008 3960     		str	r1, [r7]
 1144 000a FB1D     		adds	r3, r7, #7
 1145 000c 1A70     		strb	r2, [r3]
 161:Api\core\src/vl53l0x_api.c **** 	VL53L0X_Error Status = VL53L0X_ERROR_NONE;
 1146              		.loc 1 161 0
 1147 000e 0F23     		movs	r3, #15
 1148 0010 FB18     		adds	r3, r7, r3
 1149 0012 0022     		movs	r2, #0
 1150 0014 1A70     		strb	r2, [r3]
ARM GAS  C:\Users\ilya\AppData\Local\Temp\ccpEIuqL.s 			page 24


 162:Api\core\src/vl53l0x_api.c **** 	LOG_FUNCTION_START("");
 163:Api\core\src/vl53l0x_api.c **** 
 164:Api\core\src/vl53l0x_api.c **** 	Status = VL53L0X_get_pal_error_string(PalErrorCode, pPalErrorString);
 1151              		.loc 1 164 0
 1152 0016 0F23     		movs	r3, #15
 1153 0018 FC18     		adds	r4, r7, r3
 1154 001a 3A68     		ldr	r2, [r7]
 1155 001c FB1D     		adds	r3, r7, #7
 1156 001e 1B78     		ldrb	r3, [r3]
 1157 0020 5BB2     		sxtb	r3, r3
 1158 0022 1100     		movs	r1, r2
 1159 0024 1800     		movs	r0, r3
 1160 0026 FFF7FEFF 		bl	VL53L0X_get_pal_error_string
 1161 002a 0300     		movs	r3, r0
 1162 002c 2370     		strb	r3, [r4]
 165:Api\core\src/vl53l0x_api.c **** 
 166:Api\core\src/vl53l0x_api.c **** 	LOG_FUNCTION_END(Status);
 167:Api\core\src/vl53l0x_api.c **** 	return Status;
 1163              		.loc 1 167 0
 1164 002e 0F23     		movs	r3, #15
 1165 0030 FB18     		adds	r3, r7, r3
 1166 0032 1B78     		ldrb	r3, [r3]
 1167 0034 5BB2     		sxtb	r3, r3
 168:Api\core\src/vl53l0x_api.c **** }
 1168              		.loc 1 168 0
 1169 0036 1800     		movs	r0, r3
 1170 0038 BD46     		mov	sp, r7
 1171 003a 05B0     		add	sp, sp, #20
 1172              		@ sp needed
 1173 003c 90BD     		pop	{r4, r7, pc}
 1174              		.cfi_endproc
 1175              	.LFE8:
 1176              		.size	VL53L0X_GetPalErrorString, .-VL53L0X_GetPalErrorString
 1177 003e C046     		.section	.text.VL53L0X_GetPalStateString,"ax",%progbits
 1178              		.align	2
 1179              		.global	VL53L0X_GetPalStateString
 1180              		.code	16
 1181              		.thumb_func
 1182              		.type	VL53L0X_GetPalStateString, %function
 1183              	VL53L0X_GetPalStateString:
 1184              	.LFB9:
 169:Api\core\src/vl53l0x_api.c **** 
 170:Api\core\src/vl53l0x_api.c **** VL53L0X_Error VL53L0X_GetPalStateString(VL53L0X_State PalStateCode,
 171:Api\core\src/vl53l0x_api.c **** 	char *pPalStateString)
 172:Api\core\src/vl53l0x_api.c **** {
 1185              		.loc 1 172 0
 1186              		.cfi_startproc
 1187              		@ args = 0, pretend = 0, frame = 16
 1188              		@ frame_needed = 1, uses_anonymous_args = 0
 1189 0000 90B5     		push	{r4, r7, lr}
 1190              		.cfi_def_cfa_offset 12
 1191              		.cfi_offset 4, -12
 1192              		.cfi_offset 7, -8
 1193              		.cfi_offset 14, -4
 1194 0002 85B0     		sub	sp, sp, #20
 1195              		.cfi_def_cfa_offset 32
 1196 0004 00AF     		add	r7, sp, #0
ARM GAS  C:\Users\ilya\AppData\Local\Temp\ccpEIuqL.s 			page 25


 1197              		.cfi_def_cfa_register 7
 1198 0006 0200     		movs	r2, r0
 1199 0008 3960     		str	r1, [r7]
 1200 000a FB1D     		adds	r3, r7, #7
 1201 000c 1A70     		strb	r2, [r3]
 173:Api\core\src/vl53l0x_api.c **** 	VL53L0X_Error Status = VL53L0X_ERROR_NONE;
 1202              		.loc 1 173 0
 1203 000e 0F23     		movs	r3, #15
 1204 0010 FB18     		adds	r3, r7, r3
 1205 0012 0022     		movs	r2, #0
 1206 0014 1A70     		strb	r2, [r3]
 174:Api\core\src/vl53l0x_api.c **** 	LOG_FUNCTION_START("");
 175:Api\core\src/vl53l0x_api.c **** 
 176:Api\core\src/vl53l0x_api.c **** 	Status = VL53L0X_get_pal_state_string(PalStateCode, pPalStateString);
 1207              		.loc 1 176 0
 1208 0016 0F23     		movs	r3, #15
 1209 0018 FC18     		adds	r4, r7, r3
 1210 001a 3A68     		ldr	r2, [r7]
 1211 001c FB1D     		adds	r3, r7, #7
 1212 001e 1B78     		ldrb	r3, [r3]
 1213 0020 1100     		movs	r1, r2
 1214 0022 1800     		movs	r0, r3
 1215 0024 FFF7FEFF 		bl	VL53L0X_get_pal_state_string
 1216 0028 0300     		movs	r3, r0
 1217 002a 2370     		strb	r3, [r4]
 177:Api\core\src/vl53l0x_api.c **** 
 178:Api\core\src/vl53l0x_api.c **** 	LOG_FUNCTION_END(Status);
 179:Api\core\src/vl53l0x_api.c **** 	return Status;
 1218              		.loc 1 179 0
 1219 002c 0F23     		movs	r3, #15
 1220 002e FB18     		adds	r3, r7, r3
 1221 0030 1B78     		ldrb	r3, [r3]
 1222 0032 5BB2     		sxtb	r3, r3
 180:Api\core\src/vl53l0x_api.c **** }
 1223              		.loc 1 180 0
 1224 0034 1800     		movs	r0, r3
 1225 0036 BD46     		mov	sp, r7
 1226 0038 05B0     		add	sp, sp, #20
 1227              		@ sp needed
 1228 003a 90BD     		pop	{r4, r7, pc}
 1229              		.cfi_endproc
 1230              	.LFE9:
 1231              		.size	VL53L0X_GetPalStateString, .-VL53L0X_GetPalStateString
 1232              		.section	.text.VL53L0X_GetPalState,"ax",%progbits
 1233              		.align	2
 1234              		.global	VL53L0X_GetPalState
 1235              		.code	16
 1236              		.thumb_func
 1237              		.type	VL53L0X_GetPalState, %function
 1238              	VL53L0X_GetPalState:
 1239              	.LFB10:
 181:Api\core\src/vl53l0x_api.c **** 
 182:Api\core\src/vl53l0x_api.c **** VL53L0X_Error VL53L0X_GetPalState(VL53L0X_DEV Dev, VL53L0X_State *pPalState)
 183:Api\core\src/vl53l0x_api.c **** {
 1240              		.loc 1 183 0
 1241              		.cfi_startproc
 1242              		@ args = 0, pretend = 0, frame = 16
ARM GAS  C:\Users\ilya\AppData\Local\Temp\ccpEIuqL.s 			page 26


 1243              		@ frame_needed = 1, uses_anonymous_args = 0
 1244 0000 80B5     		push	{r7, lr}
 1245              		.cfi_def_cfa_offset 8
 1246              		.cfi_offset 7, -8
 1247              		.cfi_offset 14, -4
 1248 0002 84B0     		sub	sp, sp, #16
 1249              		.cfi_def_cfa_offset 24
 1250 0004 00AF     		add	r7, sp, #0
 1251              		.cfi_def_cfa_register 7
 1252 0006 7860     		str	r0, [r7, #4]
 1253 0008 3960     		str	r1, [r7]
 184:Api\core\src/vl53l0x_api.c **** 	VL53L0X_Error Status = VL53L0X_ERROR_NONE;
 1254              		.loc 1 184 0
 1255 000a 0F23     		movs	r3, #15
 1256 000c FB18     		adds	r3, r7, r3
 1257 000e 0022     		movs	r2, #0
 1258 0010 1A70     		strb	r2, [r3]
 185:Api\core\src/vl53l0x_api.c **** 	LOG_FUNCTION_START("");
 186:Api\core\src/vl53l0x_api.c **** 
 187:Api\core\src/vl53l0x_api.c **** 	*pPalState = PALDevDataGet(Dev, PalState);
 1259              		.loc 1 187 0
 1260 0012 7A68     		ldr	r2, [r7, #4]
 1261 0014 9923     		movs	r3, #153
 1262 0016 5B00     		lsls	r3, r3, #1
 1263 0018 D25C     		ldrb	r2, [r2, r3]
 1264 001a 3B68     		ldr	r3, [r7]
 1265 001c 1A70     		strb	r2, [r3]
 188:Api\core\src/vl53l0x_api.c **** 
 189:Api\core\src/vl53l0x_api.c **** 	LOG_FUNCTION_END(Status);
 190:Api\core\src/vl53l0x_api.c **** 	return Status;
 1266              		.loc 1 190 0
 1267 001e 0F23     		movs	r3, #15
 1268 0020 FB18     		adds	r3, r7, r3
 1269 0022 1B78     		ldrb	r3, [r3]
 1270 0024 5BB2     		sxtb	r3, r3
 191:Api\core\src/vl53l0x_api.c **** }
 1271              		.loc 1 191 0
 1272 0026 1800     		movs	r0, r3
 1273 0028 BD46     		mov	sp, r7
 1274 002a 04B0     		add	sp, sp, #16
 1275              		@ sp needed
 1276 002c 80BD     		pop	{r7, pc}
 1277              		.cfi_endproc
 1278              	.LFE10:
 1279              		.size	VL53L0X_GetPalState, .-VL53L0X_GetPalState
 1280 002e C046     		.section	.text.VL53L0X_SetPowerMode,"ax",%progbits
 1281              		.align	2
 1282              		.global	VL53L0X_SetPowerMode
 1283              		.code	16
 1284              		.thumb_func
 1285              		.type	VL53L0X_SetPowerMode, %function
 1286              	VL53L0X_SetPowerMode:
 1287              	.LFB11:
 192:Api\core\src/vl53l0x_api.c **** 
 193:Api\core\src/vl53l0x_api.c **** VL53L0X_Error VL53L0X_SetPowerMode(VL53L0X_DEV Dev, VL53L0X_PowerModes PowerMode)
 194:Api\core\src/vl53l0x_api.c **** {
 1288              		.loc 1 194 0
ARM GAS  C:\Users\ilya\AppData\Local\Temp\ccpEIuqL.s 			page 27


 1289              		.cfi_startproc
 1290              		@ args = 0, pretend = 0, frame = 16
 1291              		@ frame_needed = 1, uses_anonymous_args = 0
 1292 0000 90B5     		push	{r4, r7, lr}
 1293              		.cfi_def_cfa_offset 12
 1294              		.cfi_offset 4, -12
 1295              		.cfi_offset 7, -8
 1296              		.cfi_offset 14, -4
 1297 0002 85B0     		sub	sp, sp, #20
 1298              		.cfi_def_cfa_offset 32
 1299 0004 00AF     		add	r7, sp, #0
 1300              		.cfi_def_cfa_register 7
 1301 0006 7860     		str	r0, [r7, #4]
 1302 0008 0A00     		movs	r2, r1
 1303 000a FB1C     		adds	r3, r7, #3
 1304 000c 1A70     		strb	r2, [r3]
 195:Api\core\src/vl53l0x_api.c **** 	VL53L0X_Error Status = VL53L0X_ERROR_NONE;
 1305              		.loc 1 195 0
 1306 000e 0F23     		movs	r3, #15
 1307 0010 FB18     		adds	r3, r7, r3
 1308 0012 0022     		movs	r2, #0
 1309 0014 1A70     		strb	r2, [r3]
 196:Api\core\src/vl53l0x_api.c **** 	LOG_FUNCTION_START("");
 197:Api\core\src/vl53l0x_api.c **** 
 198:Api\core\src/vl53l0x_api.c **** 	/* Only level1 of Power mode exists */
 199:Api\core\src/vl53l0x_api.c **** 	if ((PowerMode != VL53L0X_POWERMODE_STANDBY_LEVEL1)
 1310              		.loc 1 199 0
 1311 0016 FB1C     		adds	r3, r7, #3
 1312 0018 1B78     		ldrb	r3, [r3]
 1313 001a 002B     		cmp	r3, #0
 1314 001c 08D0     		beq	.L24
 200:Api\core\src/vl53l0x_api.c **** 		&& (PowerMode != VL53L0X_POWERMODE_IDLE_LEVEL1)) {
 1315              		.loc 1 200 0
 1316 001e FB1C     		adds	r3, r7, #3
 1317 0020 1B78     		ldrb	r3, [r3]
 1318 0022 022B     		cmp	r3, #2
 1319 0024 04D0     		beq	.L24
 201:Api\core\src/vl53l0x_api.c **** 		Status = VL53L0X_ERROR_MODE_NOT_SUPPORTED;
 1320              		.loc 1 201 0
 1321 0026 0F23     		movs	r3, #15
 1322 0028 FB18     		adds	r3, r7, r3
 1323 002a F822     		movs	r2, #248
 1324 002c 1A70     		strb	r2, [r3]
 1325 002e 41E0     		b	.L25
 1326              	.L24:
 202:Api\core\src/vl53l0x_api.c **** 	} else if (PowerMode == VL53L0X_POWERMODE_STANDBY_LEVEL1) {
 1327              		.loc 1 202 0
 1328 0030 FB1C     		adds	r3, r7, #3
 1329 0032 1B78     		ldrb	r3, [r3]
 1330 0034 002B     		cmp	r3, #0
 1331 0036 1AD1     		bne	.L26
 203:Api\core\src/vl53l0x_api.c **** 		/* set the standby level1 of power mode */
 204:Api\core\src/vl53l0x_api.c **** 		Status = VL53L0X_WrByte(Dev, 0x80, 0x00);
 1332              		.loc 1 204 0
 1333 0038 0F23     		movs	r3, #15
 1334 003a FC18     		adds	r4, r7, r3
 1335 003c 7B68     		ldr	r3, [r7, #4]
ARM GAS  C:\Users\ilya\AppData\Local\Temp\ccpEIuqL.s 			page 28


 1336 003e 0022     		movs	r2, #0
 1337 0040 8021     		movs	r1, #128
 1338 0042 1800     		movs	r0, r3
 1339 0044 FFF7FEFF 		bl	VL53L0X_WrByte
 1340 0048 0300     		movs	r3, r0
 1341 004a 2370     		strb	r3, [r4]
 205:Api\core\src/vl53l0x_api.c **** 		if (Status == VL53L0X_ERROR_NONE) {
 1342              		.loc 1 205 0
 1343 004c 0F23     		movs	r3, #15
 1344 004e FB18     		adds	r3, r7, r3
 1345 0050 1B78     		ldrb	r3, [r3]
 1346 0052 5BB2     		sxtb	r3, r3
 1347 0054 002B     		cmp	r3, #0
 1348 0056 2DD1     		bne	.L25
 206:Api\core\src/vl53l0x_api.c **** 			/* Set PAL State to standby */
 207:Api\core\src/vl53l0x_api.c **** 			PALDevDataSet(Dev, PalState, VL53L0X_STATE_STANDBY);
 1349              		.loc 1 207 0
 1350 0058 7A68     		ldr	r2, [r7, #4]
 1351 005a 9923     		movs	r3, #153
 1352 005c 5B00     		lsls	r3, r3, #1
 1353 005e 0221     		movs	r1, #2
 1354 0060 D154     		strb	r1, [r2, r3]
 208:Api\core\src/vl53l0x_api.c **** 			PALDevDataSet(Dev, PowerMode,
 1355              		.loc 1 208 0
 1356 0062 7A68     		ldr	r2, [r7, #4]
 1357 0064 3423     		movs	r3, #52
 1358 0066 FF33     		adds	r3, r3, #255
 1359 0068 0021     		movs	r1, #0
 1360 006a D154     		strb	r1, [r2, r3]
 1361 006c 22E0     		b	.L25
 1362              	.L26:
 209:Api\core\src/vl53l0x_api.c **** 				VL53L0X_POWERMODE_STANDBY_LEVEL1);
 210:Api\core\src/vl53l0x_api.c **** 		}
 211:Api\core\src/vl53l0x_api.c **** 
 212:Api\core\src/vl53l0x_api.c **** 	} else {
 213:Api\core\src/vl53l0x_api.c **** 		/* VL53L0X_POWERMODE_IDLE_LEVEL1 */
 214:Api\core\src/vl53l0x_api.c **** 		Status = VL53L0X_WrByte(Dev, 0x80, 0x00);
 1363              		.loc 1 214 0
 1364 006e 0F23     		movs	r3, #15
 1365 0070 FC18     		adds	r4, r7, r3
 1366 0072 7B68     		ldr	r3, [r7, #4]
 1367 0074 0022     		movs	r2, #0
 1368 0076 8021     		movs	r1, #128
 1369 0078 1800     		movs	r0, r3
 1370 007a FFF7FEFF 		bl	VL53L0X_WrByte
 1371 007e 0300     		movs	r3, r0
 1372 0080 2370     		strb	r3, [r4]
 215:Api\core\src/vl53l0x_api.c **** 		if (Status == VL53L0X_ERROR_NONE)
 1373              		.loc 1 215 0
 1374 0082 0F23     		movs	r3, #15
 1375 0084 FB18     		adds	r3, r7, r3
 1376 0086 1B78     		ldrb	r3, [r3]
 1377 0088 5BB2     		sxtb	r3, r3
 1378 008a 002B     		cmp	r3, #0
 1379 008c 07D1     		bne	.L28
 216:Api\core\src/vl53l0x_api.c **** 			Status = VL53L0X_StaticInit(Dev);
 1380              		.loc 1 216 0
ARM GAS  C:\Users\ilya\AppData\Local\Temp\ccpEIuqL.s 			page 29


 1381 008e 0F23     		movs	r3, #15
 1382 0090 FC18     		adds	r4, r7, r3
 1383 0092 7B68     		ldr	r3, [r7, #4]
 1384 0094 1800     		movs	r0, r3
 1385 0096 FFF7FEFF 		bl	VL53L0X_StaticInit
 1386 009a 0300     		movs	r3, r0
 1387 009c 2370     		strb	r3, [r4]
 1388              	.L28:
 217:Api\core\src/vl53l0x_api.c **** 
 218:Api\core\src/vl53l0x_api.c **** 		if (Status == VL53L0X_ERROR_NONE)
 1389              		.loc 1 218 0
 1390 009e 0F23     		movs	r3, #15
 1391 00a0 FB18     		adds	r3, r7, r3
 1392 00a2 1B78     		ldrb	r3, [r3]
 1393 00a4 5BB2     		sxtb	r3, r3
 1394 00a6 002B     		cmp	r3, #0
 1395 00a8 04D1     		bne	.L25
 219:Api\core\src/vl53l0x_api.c **** 			PALDevDataSet(Dev, PowerMode,
 1396              		.loc 1 219 0
 1397 00aa 7A68     		ldr	r2, [r7, #4]
 1398 00ac 3423     		movs	r3, #52
 1399 00ae FF33     		adds	r3, r3, #255
 1400 00b0 0221     		movs	r1, #2
 1401 00b2 D154     		strb	r1, [r2, r3]
 1402              	.L25:
 220:Api\core\src/vl53l0x_api.c **** 				VL53L0X_POWERMODE_IDLE_LEVEL1);
 221:Api\core\src/vl53l0x_api.c **** 
 222:Api\core\src/vl53l0x_api.c **** 	}
 223:Api\core\src/vl53l0x_api.c **** 
 224:Api\core\src/vl53l0x_api.c **** 	LOG_FUNCTION_END(Status);
 225:Api\core\src/vl53l0x_api.c **** 	return Status;
 1403              		.loc 1 225 0
 1404 00b4 0F23     		movs	r3, #15
 1405 00b6 FB18     		adds	r3, r7, r3
 1406 00b8 1B78     		ldrb	r3, [r3]
 1407 00ba 5BB2     		sxtb	r3, r3
 226:Api\core\src/vl53l0x_api.c **** }
 1408              		.loc 1 226 0
 1409 00bc 1800     		movs	r0, r3
 1410 00be BD46     		mov	sp, r7
 1411 00c0 05B0     		add	sp, sp, #20
 1412              		@ sp needed
 1413 00c2 90BD     		pop	{r4, r7, pc}
 1414              		.cfi_endproc
 1415              	.LFE11:
 1416              		.size	VL53L0X_SetPowerMode, .-VL53L0X_SetPowerMode
 1417              		.section	.text.VL53L0X_GetPowerMode,"ax",%progbits
 1418              		.align	2
 1419              		.global	VL53L0X_GetPowerMode
 1420              		.code	16
 1421              		.thumb_func
 1422              		.type	VL53L0X_GetPowerMode, %function
 1423              	VL53L0X_GetPowerMode:
 1424              	.LFB12:
 227:Api\core\src/vl53l0x_api.c **** 
 228:Api\core\src/vl53l0x_api.c **** VL53L0X_Error VL53L0X_GetPowerMode(VL53L0X_DEV Dev, VL53L0X_PowerModes *pPowerMode)
 229:Api\core\src/vl53l0x_api.c **** {
ARM GAS  C:\Users\ilya\AppData\Local\Temp\ccpEIuqL.s 			page 30


 1425              		.loc 1 229 0
 1426              		.cfi_startproc
 1427              		@ args = 0, pretend = 0, frame = 16
 1428              		@ frame_needed = 1, uses_anonymous_args = 0
 1429 0000 90B5     		push	{r4, r7, lr}
 1430              		.cfi_def_cfa_offset 12
 1431              		.cfi_offset 4, -12
 1432              		.cfi_offset 7, -8
 1433              		.cfi_offset 14, -4
 1434 0002 85B0     		sub	sp, sp, #20
 1435              		.cfi_def_cfa_offset 32
 1436 0004 00AF     		add	r7, sp, #0
 1437              		.cfi_def_cfa_register 7
 1438 0006 7860     		str	r0, [r7, #4]
 1439 0008 3960     		str	r1, [r7]
 230:Api\core\src/vl53l0x_api.c **** 	VL53L0X_Error Status = VL53L0X_ERROR_NONE;
 1440              		.loc 1 230 0
 1441 000a 0F23     		movs	r3, #15
 1442 000c FB18     		adds	r3, r7, r3
 1443 000e 0022     		movs	r2, #0
 1444 0010 1A70     		strb	r2, [r3]
 231:Api\core\src/vl53l0x_api.c **** 	uint8_t Byte;
 232:Api\core\src/vl53l0x_api.c **** 	LOG_FUNCTION_START("");
 233:Api\core\src/vl53l0x_api.c **** 
 234:Api\core\src/vl53l0x_api.c **** 	/* Only level1 of Power mode exists */
 235:Api\core\src/vl53l0x_api.c **** 	Status = VL53L0X_RdByte(Dev, 0x80, &Byte);
 1445              		.loc 1 235 0
 1446 0012 0F23     		movs	r3, #15
 1447 0014 FC18     		adds	r4, r7, r3
 1448 0016 0E23     		movs	r3, #14
 1449 0018 FA18     		adds	r2, r7, r3
 1450 001a 7B68     		ldr	r3, [r7, #4]
 1451 001c 8021     		movs	r1, #128
 1452 001e 1800     		movs	r0, r3
 1453 0020 FFF7FEFF 		bl	VL53L0X_RdByte
 1454 0024 0300     		movs	r3, r0
 1455 0026 2370     		strb	r3, [r4]
 236:Api\core\src/vl53l0x_api.c **** 
 237:Api\core\src/vl53l0x_api.c **** 	if (Status == VL53L0X_ERROR_NONE) {
 1456              		.loc 1 237 0
 1457 0028 0F23     		movs	r3, #15
 1458 002a FB18     		adds	r3, r7, r3
 1459 002c 1B78     		ldrb	r3, [r3]
 1460 002e 5BB2     		sxtb	r3, r3
 1461 0030 002B     		cmp	r3, #0
 1462 0032 0FD1     		bne	.L31
 238:Api\core\src/vl53l0x_api.c **** 		if (Byte == 1) {
 1463              		.loc 1 238 0
 1464 0034 0E23     		movs	r3, #14
 1465 0036 FB18     		adds	r3, r7, r3
 1466 0038 1B78     		ldrb	r3, [r3]
 1467 003a 012B     		cmp	r3, #1
 1468 003c 05D1     		bne	.L32
 239:Api\core\src/vl53l0x_api.c **** 			PALDevDataSet(Dev, PowerMode,
 1469              		.loc 1 239 0
 1470 003e 7A68     		ldr	r2, [r7, #4]
 1471 0040 3423     		movs	r3, #52
ARM GAS  C:\Users\ilya\AppData\Local\Temp\ccpEIuqL.s 			page 31


 1472 0042 FF33     		adds	r3, r3, #255
 1473 0044 0221     		movs	r1, #2
 1474 0046 D154     		strb	r1, [r2, r3]
 1475 0048 04E0     		b	.L31
 1476              	.L32:
 240:Api\core\src/vl53l0x_api.c **** 				VL53L0X_POWERMODE_IDLE_LEVEL1);
 241:Api\core\src/vl53l0x_api.c **** 		} else {
 242:Api\core\src/vl53l0x_api.c **** 			PALDevDataSet(Dev, PowerMode,
 1477              		.loc 1 242 0
 1478 004a 7A68     		ldr	r2, [r7, #4]
 1479 004c 3423     		movs	r3, #52
 1480 004e FF33     		adds	r3, r3, #255
 1481 0050 0021     		movs	r1, #0
 1482 0052 D154     		strb	r1, [r2, r3]
 1483              	.L31:
 243:Api\core\src/vl53l0x_api.c **** 				VL53L0X_POWERMODE_STANDBY_LEVEL1);
 244:Api\core\src/vl53l0x_api.c **** 		}
 245:Api\core\src/vl53l0x_api.c **** 	}
 246:Api\core\src/vl53l0x_api.c **** 
 247:Api\core\src/vl53l0x_api.c **** 	LOG_FUNCTION_END(Status);
 248:Api\core\src/vl53l0x_api.c **** 	return Status;
 1484              		.loc 1 248 0
 1485 0054 0F23     		movs	r3, #15
 1486 0056 FB18     		adds	r3, r7, r3
 1487 0058 1B78     		ldrb	r3, [r3]
 1488 005a 5BB2     		sxtb	r3, r3
 249:Api\core\src/vl53l0x_api.c **** }
 1489              		.loc 1 249 0
 1490 005c 1800     		movs	r0, r3
 1491 005e BD46     		mov	sp, r7
 1492 0060 05B0     		add	sp, sp, #20
 1493              		@ sp needed
 1494 0062 90BD     		pop	{r4, r7, pc}
 1495              		.cfi_endproc
 1496              	.LFE12:
 1497              		.size	VL53L0X_GetPowerMode, .-VL53L0X_GetPowerMode
 1498              		.section	.text.VL53L0X_SetOffsetCalibrationDataMicroMeter,"ax",%progbits
 1499              		.align	2
 1500              		.global	VL53L0X_SetOffsetCalibrationDataMicroMeter
 1501              		.code	16
 1502              		.thumb_func
 1503              		.type	VL53L0X_SetOffsetCalibrationDataMicroMeter, %function
 1504              	VL53L0X_SetOffsetCalibrationDataMicroMeter:
 1505              	.LFB13:
 250:Api\core\src/vl53l0x_api.c **** 
 251:Api\core\src/vl53l0x_api.c **** VL53L0X_Error VL53L0X_SetOffsetCalibrationDataMicroMeter(VL53L0X_DEV Dev,
 252:Api\core\src/vl53l0x_api.c **** 	int32_t OffsetCalibrationDataMicroMeter)
 253:Api\core\src/vl53l0x_api.c **** {
 1506              		.loc 1 253 0
 1507              		.cfi_startproc
 1508              		@ args = 0, pretend = 0, frame = 16
 1509              		@ frame_needed = 1, uses_anonymous_args = 0
 1510 0000 90B5     		push	{r4, r7, lr}
 1511              		.cfi_def_cfa_offset 12
 1512              		.cfi_offset 4, -12
 1513              		.cfi_offset 7, -8
 1514              		.cfi_offset 14, -4
ARM GAS  C:\Users\ilya\AppData\Local\Temp\ccpEIuqL.s 			page 32


 1515 0002 85B0     		sub	sp, sp, #20
 1516              		.cfi_def_cfa_offset 32
 1517 0004 00AF     		add	r7, sp, #0
 1518              		.cfi_def_cfa_register 7
 1519 0006 7860     		str	r0, [r7, #4]
 1520 0008 3960     		str	r1, [r7]
 254:Api\core\src/vl53l0x_api.c **** 	VL53L0X_Error Status = VL53L0X_ERROR_NONE;
 1521              		.loc 1 254 0
 1522 000a 0F23     		movs	r3, #15
 1523 000c FB18     		adds	r3, r7, r3
 1524 000e 0022     		movs	r2, #0
 1525 0010 1A70     		strb	r2, [r3]
 255:Api\core\src/vl53l0x_api.c **** 	LOG_FUNCTION_START("");
 256:Api\core\src/vl53l0x_api.c **** 
 257:Api\core\src/vl53l0x_api.c **** 	Status = VL53L0X_set_offset_calibration_data_micro_meter(Dev,
 1526              		.loc 1 257 0
 1527 0012 0F23     		movs	r3, #15
 1528 0014 FC18     		adds	r4, r7, r3
 1529 0016 3A68     		ldr	r2, [r7]
 1530 0018 7B68     		ldr	r3, [r7, #4]
 1531 001a 1100     		movs	r1, r2
 1532 001c 1800     		movs	r0, r3
 1533 001e FFF7FEFF 		bl	VL53L0X_set_offset_calibration_data_micro_meter
 1534 0022 0300     		movs	r3, r0
 1535 0024 2370     		strb	r3, [r4]
 258:Api\core\src/vl53l0x_api.c **** 		OffsetCalibrationDataMicroMeter);
 259:Api\core\src/vl53l0x_api.c **** 
 260:Api\core\src/vl53l0x_api.c **** 	LOG_FUNCTION_END(Status);
 261:Api\core\src/vl53l0x_api.c **** 	return Status;
 1536              		.loc 1 261 0
 1537 0026 0F23     		movs	r3, #15
 1538 0028 FB18     		adds	r3, r7, r3
 1539 002a 1B78     		ldrb	r3, [r3]
 1540 002c 5BB2     		sxtb	r3, r3
 262:Api\core\src/vl53l0x_api.c **** }
 1541              		.loc 1 262 0
 1542 002e 1800     		movs	r0, r3
 1543 0030 BD46     		mov	sp, r7
 1544 0032 05B0     		add	sp, sp, #20
 1545              		@ sp needed
 1546 0034 90BD     		pop	{r4, r7, pc}
 1547              		.cfi_endproc
 1548              	.LFE13:
 1549              		.size	VL53L0X_SetOffsetCalibrationDataMicroMeter, .-VL53L0X_SetOffsetCalibrationDataMicroMeter
 1550              		.section	.text.VL53L0X_GetOffsetCalibrationDataMicroMeter,"ax",%progbits
 1551              		.align	2
 1552              		.global	VL53L0X_GetOffsetCalibrationDataMicroMeter
 1553              		.code	16
 1554              		.thumb_func
 1555              		.type	VL53L0X_GetOffsetCalibrationDataMicroMeter, %function
 1556              	VL53L0X_GetOffsetCalibrationDataMicroMeter:
 1557              	.LFB14:
 263:Api\core\src/vl53l0x_api.c **** 
 264:Api\core\src/vl53l0x_api.c **** VL53L0X_Error VL53L0X_GetOffsetCalibrationDataMicroMeter(VL53L0X_DEV Dev,
 265:Api\core\src/vl53l0x_api.c **** 	int32_t *pOffsetCalibrationDataMicroMeter)
 266:Api\core\src/vl53l0x_api.c **** {
 1558              		.loc 1 266 0
ARM GAS  C:\Users\ilya\AppData\Local\Temp\ccpEIuqL.s 			page 33


 1559              		.cfi_startproc
 1560              		@ args = 0, pretend = 0, frame = 16
 1561              		@ frame_needed = 1, uses_anonymous_args = 0
 1562 0000 90B5     		push	{r4, r7, lr}
 1563              		.cfi_def_cfa_offset 12
 1564              		.cfi_offset 4, -12
 1565              		.cfi_offset 7, -8
 1566              		.cfi_offset 14, -4
 1567 0002 85B0     		sub	sp, sp, #20
 1568              		.cfi_def_cfa_offset 32
 1569 0004 00AF     		add	r7, sp, #0
 1570              		.cfi_def_cfa_register 7
 1571 0006 7860     		str	r0, [r7, #4]
 1572 0008 3960     		str	r1, [r7]
 267:Api\core\src/vl53l0x_api.c **** 	VL53L0X_Error Status = VL53L0X_ERROR_NONE;
 1573              		.loc 1 267 0
 1574 000a 0F23     		movs	r3, #15
 1575 000c FB18     		adds	r3, r7, r3
 1576 000e 0022     		movs	r2, #0
 1577 0010 1A70     		strb	r2, [r3]
 268:Api\core\src/vl53l0x_api.c **** 	LOG_FUNCTION_START("");
 269:Api\core\src/vl53l0x_api.c **** 
 270:Api\core\src/vl53l0x_api.c **** 	Status = VL53L0X_get_offset_calibration_data_micro_meter(Dev,
 1578              		.loc 1 270 0
 1579 0012 0F23     		movs	r3, #15
 1580 0014 FC18     		adds	r4, r7, r3
 1581 0016 3A68     		ldr	r2, [r7]
 1582 0018 7B68     		ldr	r3, [r7, #4]
 1583 001a 1100     		movs	r1, r2
 1584 001c 1800     		movs	r0, r3
 1585 001e FFF7FEFF 		bl	VL53L0X_get_offset_calibration_data_micro_meter
 1586 0022 0300     		movs	r3, r0
 1587 0024 2370     		strb	r3, [r4]
 271:Api\core\src/vl53l0x_api.c **** 		pOffsetCalibrationDataMicroMeter);
 272:Api\core\src/vl53l0x_api.c **** 
 273:Api\core\src/vl53l0x_api.c **** 	LOG_FUNCTION_END(Status);
 274:Api\core\src/vl53l0x_api.c **** 	return Status;
 1588              		.loc 1 274 0
 1589 0026 0F23     		movs	r3, #15
 1590 0028 FB18     		adds	r3, r7, r3
 1591 002a 1B78     		ldrb	r3, [r3]
 1592 002c 5BB2     		sxtb	r3, r3
 275:Api\core\src/vl53l0x_api.c **** }
 1593              		.loc 1 275 0
 1594 002e 1800     		movs	r0, r3
 1595 0030 BD46     		mov	sp, r7
 1596 0032 05B0     		add	sp, sp, #20
 1597              		@ sp needed
 1598 0034 90BD     		pop	{r4, r7, pc}
 1599              		.cfi_endproc
 1600              	.LFE14:
 1601              		.size	VL53L0X_GetOffsetCalibrationDataMicroMeter, .-VL53L0X_GetOffsetCalibrationDataMicroMeter
 1602              		.section	.text.VL53L0X_SetLinearityCorrectiveGain,"ax",%progbits
 1603              		.align	2
 1604              		.global	VL53L0X_SetLinearityCorrectiveGain
 1605              		.code	16
 1606              		.thumb_func
ARM GAS  C:\Users\ilya\AppData\Local\Temp\ccpEIuqL.s 			page 34


 1607              		.type	VL53L0X_SetLinearityCorrectiveGain, %function
 1608              	VL53L0X_SetLinearityCorrectiveGain:
 1609              	.LFB15:
 276:Api\core\src/vl53l0x_api.c **** 
 277:Api\core\src/vl53l0x_api.c **** VL53L0X_Error VL53L0X_SetLinearityCorrectiveGain(VL53L0X_DEV Dev,
 278:Api\core\src/vl53l0x_api.c **** 	int16_t LinearityCorrectiveGain)
 279:Api\core\src/vl53l0x_api.c **** {
 1610              		.loc 1 279 0
 1611              		.cfi_startproc
 1612              		@ args = 0, pretend = 0, frame = 16
 1613              		@ frame_needed = 1, uses_anonymous_args = 0
 1614 0000 90B5     		push	{r4, r7, lr}
 1615              		.cfi_def_cfa_offset 12
 1616              		.cfi_offset 4, -12
 1617              		.cfi_offset 7, -8
 1618              		.cfi_offset 14, -4
 1619 0002 85B0     		sub	sp, sp, #20
 1620              		.cfi_def_cfa_offset 32
 1621 0004 00AF     		add	r7, sp, #0
 1622              		.cfi_def_cfa_register 7
 1623 0006 7860     		str	r0, [r7, #4]
 1624 0008 0A00     		movs	r2, r1
 1625 000a BB1C     		adds	r3, r7, #2
 1626 000c 1A80     		strh	r2, [r3]
 280:Api\core\src/vl53l0x_api.c **** 	VL53L0X_Error Status = VL53L0X_ERROR_NONE;
 1627              		.loc 1 280 0
 1628 000e 0F23     		movs	r3, #15
 1629 0010 FB18     		adds	r3, r7, r3
 1630 0012 0022     		movs	r2, #0
 1631 0014 1A70     		strb	r2, [r3]
 281:Api\core\src/vl53l0x_api.c **** 	LOG_FUNCTION_START("");
 282:Api\core\src/vl53l0x_api.c **** 
 283:Api\core\src/vl53l0x_api.c **** 	if ((LinearityCorrectiveGain < 0) || (LinearityCorrectiveGain > 1000))
 1632              		.loc 1 283 0
 1633 0016 BB1C     		adds	r3, r7, #2
 1634 0018 0022     		movs	r2, #0
 1635 001a 9B5E     		ldrsh	r3, [r3, r2]
 1636 001c 002B     		cmp	r3, #0
 1637 001e 06DB     		blt	.L39
 1638              		.loc 1 283 0 is_stmt 0 discriminator 1
 1639 0020 BB1C     		adds	r3, r7, #2
 1640 0022 0022     		movs	r2, #0
 1641 0024 9A5E     		ldrsh	r2, [r3, r2]
 1642 0026 FA23     		movs	r3, #250
 1643 0028 9B00     		lsls	r3, r3, #2
 1644 002a 9A42     		cmp	r2, r3
 1645 002c 04DD     		ble	.L40
 1646              	.L39:
 284:Api\core\src/vl53l0x_api.c **** 		Status = VL53L0X_ERROR_INVALID_PARAMS;
 1647              		.loc 1 284 0 is_stmt 1
 1648 002e 0F23     		movs	r3, #15
 1649 0030 FB18     		adds	r3, r7, r3
 1650 0032 FC22     		movs	r2, #252
 1651 0034 1A70     		strb	r2, [r3]
 1652 0036 16E0     		b	.L41
 1653              	.L40:
 285:Api\core\src/vl53l0x_api.c **** 	else {
ARM GAS  C:\Users\ilya\AppData\Local\Temp\ccpEIuqL.s 			page 35


 286:Api\core\src/vl53l0x_api.c **** 		PALDevDataSet(Dev, LinearityCorrectiveGain,
 1654              		.loc 1 286 0
 1655 0038 BB1C     		adds	r3, r7, #2
 1656 003a 1988     		ldrh	r1, [r3]
 1657 003c 7A68     		ldr	r2, [r7, #4]
 1658 003e A923     		movs	r3, #169
 1659 0040 5B00     		lsls	r3, r3, #1
 1660 0042 D152     		strh	r1, [r2, r3]
 287:Api\core\src/vl53l0x_api.c **** 			LinearityCorrectiveGain);
 288:Api\core\src/vl53l0x_api.c **** 
 289:Api\core\src/vl53l0x_api.c **** 		if (LinearityCorrectiveGain != 1000) {
 1661              		.loc 1 289 0
 1662 0044 BB1C     		adds	r3, r7, #2
 1663 0046 0022     		movs	r2, #0
 1664 0048 9A5E     		ldrsh	r2, [r3, r2]
 1665 004a FA23     		movs	r3, #250
 1666 004c 9B00     		lsls	r3, r3, #2
 1667 004e 9A42     		cmp	r2, r3
 1668 0050 09D0     		beq	.L41
 290:Api\core\src/vl53l0x_api.c **** 			/* Disable FW Xtalk */
 291:Api\core\src/vl53l0x_api.c **** 			Status = VL53L0X_WrWord(Dev,
 1669              		.loc 1 291 0
 1670 0052 0F23     		movs	r3, #15
 1671 0054 FC18     		adds	r4, r7, r3
 1672 0056 7B68     		ldr	r3, [r7, #4]
 1673 0058 0022     		movs	r2, #0
 1674 005a 2021     		movs	r1, #32
 1675 005c 1800     		movs	r0, r3
 1676 005e FFF7FEFF 		bl	VL53L0X_WrWord
 1677 0062 0300     		movs	r3, r0
 1678 0064 2370     		strb	r3, [r4]
 1679              	.L41:
 292:Api\core\src/vl53l0x_api.c **** 			VL53L0X_REG_CROSSTALK_COMPENSATION_PEAK_RATE_MCPS, 0);
 293:Api\core\src/vl53l0x_api.c **** 		}
 294:Api\core\src/vl53l0x_api.c **** 	}
 295:Api\core\src/vl53l0x_api.c **** 
 296:Api\core\src/vl53l0x_api.c **** 	LOG_FUNCTION_END(Status);
 297:Api\core\src/vl53l0x_api.c **** 	return Status;
 1680              		.loc 1 297 0
 1681 0066 0F23     		movs	r3, #15
 1682 0068 FB18     		adds	r3, r7, r3
 1683 006a 1B78     		ldrb	r3, [r3]
 1684 006c 5BB2     		sxtb	r3, r3
 298:Api\core\src/vl53l0x_api.c **** }
 1685              		.loc 1 298 0
 1686 006e 1800     		movs	r0, r3
 1687 0070 BD46     		mov	sp, r7
 1688 0072 05B0     		add	sp, sp, #20
 1689              		@ sp needed
 1690 0074 90BD     		pop	{r4, r7, pc}
 1691              		.cfi_endproc
 1692              	.LFE15:
 1693              		.size	VL53L0X_SetLinearityCorrectiveGain, .-VL53L0X_SetLinearityCorrectiveGain
 1694 0076 C046     		.section	.text.VL53L0X_GetLinearityCorrectiveGain,"ax",%progbits
 1695              		.align	2
 1696              		.global	VL53L0X_GetLinearityCorrectiveGain
 1697              		.code	16
ARM GAS  C:\Users\ilya\AppData\Local\Temp\ccpEIuqL.s 			page 36


 1698              		.thumb_func
 1699              		.type	VL53L0X_GetLinearityCorrectiveGain, %function
 1700              	VL53L0X_GetLinearityCorrectiveGain:
 1701              	.LFB16:
 299:Api\core\src/vl53l0x_api.c **** 
 300:Api\core\src/vl53l0x_api.c **** VL53L0X_Error VL53L0X_GetLinearityCorrectiveGain(VL53L0X_DEV Dev,
 301:Api\core\src/vl53l0x_api.c **** 	uint16_t *pLinearityCorrectiveGain)
 302:Api\core\src/vl53l0x_api.c **** {
 1702              		.loc 1 302 0
 1703              		.cfi_startproc
 1704              		@ args = 0, pretend = 0, frame = 16
 1705              		@ frame_needed = 1, uses_anonymous_args = 0
 1706 0000 80B5     		push	{r7, lr}
 1707              		.cfi_def_cfa_offset 8
 1708              		.cfi_offset 7, -8
 1709              		.cfi_offset 14, -4
 1710 0002 84B0     		sub	sp, sp, #16
 1711              		.cfi_def_cfa_offset 24
 1712 0004 00AF     		add	r7, sp, #0
 1713              		.cfi_def_cfa_register 7
 1714 0006 7860     		str	r0, [r7, #4]
 1715 0008 3960     		str	r1, [r7]
 303:Api\core\src/vl53l0x_api.c **** 	VL53L0X_Error Status = VL53L0X_ERROR_NONE;
 1716              		.loc 1 303 0
 1717 000a 0F23     		movs	r3, #15
 1718 000c FB18     		adds	r3, r7, r3
 1719 000e 0022     		movs	r2, #0
 1720 0010 1A70     		strb	r2, [r3]
 304:Api\core\src/vl53l0x_api.c **** 	LOG_FUNCTION_START("");
 305:Api\core\src/vl53l0x_api.c **** 
 306:Api\core\src/vl53l0x_api.c **** 	*pLinearityCorrectiveGain = PALDevDataGet(Dev, LinearityCorrectiveGain);
 1721              		.loc 1 306 0
 1722 0012 7A68     		ldr	r2, [r7, #4]
 1723 0014 A923     		movs	r3, #169
 1724 0016 5B00     		lsls	r3, r3, #1
 1725 0018 D25A     		ldrh	r2, [r2, r3]
 1726 001a 3B68     		ldr	r3, [r7]
 1727 001c 1A80     		strh	r2, [r3]
 307:Api\core\src/vl53l0x_api.c **** 
 308:Api\core\src/vl53l0x_api.c **** 	LOG_FUNCTION_END(Status);
 309:Api\core\src/vl53l0x_api.c **** 	return Status;
 1728              		.loc 1 309 0
 1729 001e 0F23     		movs	r3, #15
 1730 0020 FB18     		adds	r3, r7, r3
 1731 0022 1B78     		ldrb	r3, [r3]
 1732 0024 5BB2     		sxtb	r3, r3
 310:Api\core\src/vl53l0x_api.c **** }
 1733              		.loc 1 310 0
 1734 0026 1800     		movs	r0, r3
 1735 0028 BD46     		mov	sp, r7
 1736 002a 04B0     		add	sp, sp, #16
 1737              		@ sp needed
 1738 002c 80BD     		pop	{r7, pc}
 1739              		.cfi_endproc
 1740              	.LFE16:
 1741              		.size	VL53L0X_GetLinearityCorrectiveGain, .-VL53L0X_GetLinearityCorrectiveGain
 1742 002e C046     		.section	.text.VL53L0X_SetGroupParamHold,"ax",%progbits
ARM GAS  C:\Users\ilya\AppData\Local\Temp\ccpEIuqL.s 			page 37


 1743              		.align	2
 1744              		.global	VL53L0X_SetGroupParamHold
 1745              		.code	16
 1746              		.thumb_func
 1747              		.type	VL53L0X_SetGroupParamHold, %function
 1748              	VL53L0X_SetGroupParamHold:
 1749              	.LFB17:
 311:Api\core\src/vl53l0x_api.c **** 
 312:Api\core\src/vl53l0x_api.c **** VL53L0X_Error VL53L0X_SetGroupParamHold(VL53L0X_DEV Dev, uint8_t GroupParamHold)
 313:Api\core\src/vl53l0x_api.c **** {
 1750              		.loc 1 313 0
 1751              		.cfi_startproc
 1752              		@ args = 0, pretend = 0, frame = 16
 1753              		@ frame_needed = 1, uses_anonymous_args = 0
 1754 0000 80B5     		push	{r7, lr}
 1755              		.cfi_def_cfa_offset 8
 1756              		.cfi_offset 7, -8
 1757              		.cfi_offset 14, -4
 1758 0002 84B0     		sub	sp, sp, #16
 1759              		.cfi_def_cfa_offset 24
 1760 0004 00AF     		add	r7, sp, #0
 1761              		.cfi_def_cfa_register 7
 1762 0006 7860     		str	r0, [r7, #4]
 1763 0008 0A00     		movs	r2, r1
 1764 000a FB1C     		adds	r3, r7, #3
 1765 000c 1A70     		strb	r2, [r3]
 314:Api\core\src/vl53l0x_api.c **** 	VL53L0X_Error Status = VL53L0X_ERROR_NOT_IMPLEMENTED;
 1766              		.loc 1 314 0
 1767 000e 0F23     		movs	r3, #15
 1768 0010 FB18     		adds	r3, r7, r3
 1769 0012 9D22     		movs	r2, #157
 1770 0014 1A70     		strb	r2, [r3]
 315:Api\core\src/vl53l0x_api.c **** 	LOG_FUNCTION_START("");
 316:Api\core\src/vl53l0x_api.c **** 
 317:Api\core\src/vl53l0x_api.c **** 	/* not implemented on VL53L0X */
 318:Api\core\src/vl53l0x_api.c **** 
 319:Api\core\src/vl53l0x_api.c **** 	LOG_FUNCTION_END(Status);
 320:Api\core\src/vl53l0x_api.c **** 	return Status;
 1771              		.loc 1 320 0
 1772 0016 0F23     		movs	r3, #15
 1773 0018 FB18     		adds	r3, r7, r3
 1774 001a 1B78     		ldrb	r3, [r3]
 1775 001c 5BB2     		sxtb	r3, r3
 321:Api\core\src/vl53l0x_api.c **** }
 1776              		.loc 1 321 0
 1777 001e 1800     		movs	r0, r3
 1778 0020 BD46     		mov	sp, r7
 1779 0022 04B0     		add	sp, sp, #16
 1780              		@ sp needed
 1781 0024 80BD     		pop	{r7, pc}
 1782              		.cfi_endproc
 1783              	.LFE17:
 1784              		.size	VL53L0X_SetGroupParamHold, .-VL53L0X_SetGroupParamHold
 1785 0026 C046     		.section	.text.VL53L0X_GetUpperLimitMilliMeter,"ax",%progbits
 1786              		.align	2
 1787              		.global	VL53L0X_GetUpperLimitMilliMeter
 1788              		.code	16
ARM GAS  C:\Users\ilya\AppData\Local\Temp\ccpEIuqL.s 			page 38


 1789              		.thumb_func
 1790              		.type	VL53L0X_GetUpperLimitMilliMeter, %function
 1791              	VL53L0X_GetUpperLimitMilliMeter:
 1792              	.LFB18:
 322:Api\core\src/vl53l0x_api.c **** 
 323:Api\core\src/vl53l0x_api.c **** VL53L0X_Error VL53L0X_GetUpperLimitMilliMeter(VL53L0X_DEV Dev,
 324:Api\core\src/vl53l0x_api.c **** 	uint16_t *pUpperLimitMilliMeter)
 325:Api\core\src/vl53l0x_api.c **** {
 1793              		.loc 1 325 0
 1794              		.cfi_startproc
 1795              		@ args = 0, pretend = 0, frame = 16
 1796              		@ frame_needed = 1, uses_anonymous_args = 0
 1797 0000 80B5     		push	{r7, lr}
 1798              		.cfi_def_cfa_offset 8
 1799              		.cfi_offset 7, -8
 1800              		.cfi_offset 14, -4
 1801 0002 84B0     		sub	sp, sp, #16
 1802              		.cfi_def_cfa_offset 24
 1803 0004 00AF     		add	r7, sp, #0
 1804              		.cfi_def_cfa_register 7
 1805 0006 7860     		str	r0, [r7, #4]
 1806 0008 3960     		str	r1, [r7]
 326:Api\core\src/vl53l0x_api.c **** 	VL53L0X_Error Status = VL53L0X_ERROR_NOT_IMPLEMENTED;
 1807              		.loc 1 326 0
 1808 000a 0F23     		movs	r3, #15
 1809 000c FB18     		adds	r3, r7, r3
 1810 000e 9D22     		movs	r2, #157
 1811 0010 1A70     		strb	r2, [r3]
 327:Api\core\src/vl53l0x_api.c **** 	LOG_FUNCTION_START("");
 328:Api\core\src/vl53l0x_api.c **** 
 329:Api\core\src/vl53l0x_api.c **** 	/* not implemented on VL53L0X */
 330:Api\core\src/vl53l0x_api.c **** 
 331:Api\core\src/vl53l0x_api.c **** 	LOG_FUNCTION_END(Status);
 332:Api\core\src/vl53l0x_api.c **** 	return Status;
 1812              		.loc 1 332 0
 1813 0012 0F23     		movs	r3, #15
 1814 0014 FB18     		adds	r3, r7, r3
 1815 0016 1B78     		ldrb	r3, [r3]
 1816 0018 5BB2     		sxtb	r3, r3
 333:Api\core\src/vl53l0x_api.c **** }
 1817              		.loc 1 333 0
 1818 001a 1800     		movs	r0, r3
 1819 001c BD46     		mov	sp, r7
 1820 001e 04B0     		add	sp, sp, #16
 1821              		@ sp needed
 1822 0020 80BD     		pop	{r7, pc}
 1823              		.cfi_endproc
 1824              	.LFE18:
 1825              		.size	VL53L0X_GetUpperLimitMilliMeter, .-VL53L0X_GetUpperLimitMilliMeter
 1826 0022 C046     		.section	.text.VL53L0X_GetTotalSignalRate,"ax",%progbits
 1827              		.align	2
 1828              		.global	VL53L0X_GetTotalSignalRate
 1829              		.code	16
 1830              		.thumb_func
 1831              		.type	VL53L0X_GetTotalSignalRate, %function
 1832              	VL53L0X_GetTotalSignalRate:
 1833              	.LFB19:
ARM GAS  C:\Users\ilya\AppData\Local\Temp\ccpEIuqL.s 			page 39


 334:Api\core\src/vl53l0x_api.c **** 
 335:Api\core\src/vl53l0x_api.c **** VL53L0X_Error VL53L0X_GetTotalSignalRate(VL53L0X_DEV Dev,
 336:Api\core\src/vl53l0x_api.c **** 	FixPoint1616_t *pTotalSignalRate)
 337:Api\core\src/vl53l0x_api.c **** {
 1834              		.loc 1 337 0
 1835              		.cfi_startproc
 1836              		@ args = 0, pretend = 0, frame = 40
 1837              		@ frame_needed = 1, uses_anonymous_args = 0
 1838 0000 90B5     		push	{r4, r7, lr}
 1839              		.cfi_def_cfa_offset 12
 1840              		.cfi_offset 4, -12
 1841              		.cfi_offset 7, -8
 1842              		.cfi_offset 14, -4
 1843 0002 8BB0     		sub	sp, sp, #44
 1844              		.cfi_def_cfa_offset 56
 1845 0004 00AF     		add	r7, sp, #0
 1846              		.cfi_def_cfa_register 7
 1847 0006 7860     		str	r0, [r7, #4]
 1848 0008 3960     		str	r1, [r7]
 338:Api\core\src/vl53l0x_api.c **** 	VL53L0X_Error Status = VL53L0X_ERROR_NONE;
 1849              		.loc 1 338 0
 1850 000a 2723     		movs	r3, #39
 1851 000c FB18     		adds	r3, r7, r3
 1852 000e 0022     		movs	r2, #0
 1853 0010 1A70     		strb	r2, [r3]
 339:Api\core\src/vl53l0x_api.c **** 	VL53L0X_RangingMeasurementData_t LastRangeDataBuffer;
 340:Api\core\src/vl53l0x_api.c **** 
 341:Api\core\src/vl53l0x_api.c **** 	LOG_FUNCTION_START("");
 342:Api\core\src/vl53l0x_api.c **** 
 343:Api\core\src/vl53l0x_api.c **** 	LastRangeDataBuffer = PALDevDataGet(Dev, LastRangeMeasure);
 1854              		.loc 1 343 0
 1855 0012 0823     		movs	r3, #8
 1856 0014 FA18     		adds	r2, r7, r3
 1857 0016 7B68     		ldr	r3, [r7, #4]
 1858 0018 5033     		adds	r3, r3, #80
 1859 001a 13CB     		ldmia	r3!, {r0, r1, r4}
 1860 001c 13C2     		stmia	r2!, {r0, r1, r4}
 1861 001e 13CB     		ldmia	r3!, {r0, r1, r4}
 1862 0020 13C2     		stmia	r2!, {r0, r1, r4}
 1863 0022 1B68     		ldr	r3, [r3]
 1864 0024 1360     		str	r3, [r2]
 344:Api\core\src/vl53l0x_api.c **** 
 345:Api\core\src/vl53l0x_api.c **** 	Status = VL53L0X_get_total_signal_rate(
 1865              		.loc 1 345 0
 1866 0026 2723     		movs	r3, #39
 1867 0028 FC18     		adds	r4, r7, r3
 1868 002a 3A68     		ldr	r2, [r7]
 1869 002c 0823     		movs	r3, #8
 1870 002e F918     		adds	r1, r7, r3
 1871 0030 7B68     		ldr	r3, [r7, #4]
 1872 0032 1800     		movs	r0, r3
 1873 0034 FFF7FEFF 		bl	VL53L0X_get_total_signal_rate
 1874 0038 0300     		movs	r3, r0
 1875 003a 2370     		strb	r3, [r4]
 346:Api\core\src/vl53l0x_api.c **** 		Dev, &LastRangeDataBuffer, pTotalSignalRate);
 347:Api\core\src/vl53l0x_api.c **** 
 348:Api\core\src/vl53l0x_api.c **** 	LOG_FUNCTION_END(Status);
ARM GAS  C:\Users\ilya\AppData\Local\Temp\ccpEIuqL.s 			page 40


 349:Api\core\src/vl53l0x_api.c **** 	return Status;
 1876              		.loc 1 349 0
 1877 003c 2723     		movs	r3, #39
 1878 003e FB18     		adds	r3, r7, r3
 1879 0040 1B78     		ldrb	r3, [r3]
 1880 0042 5BB2     		sxtb	r3, r3
 350:Api\core\src/vl53l0x_api.c **** }
 1881              		.loc 1 350 0
 1882 0044 1800     		movs	r0, r3
 1883 0046 BD46     		mov	sp, r7
 1884 0048 0BB0     		add	sp, sp, #44
 1885              		@ sp needed
 1886 004a 90BD     		pop	{r4, r7, pc}
 1887              		.cfi_endproc
 1888              	.LFE19:
 1889              		.size	VL53L0X_GetTotalSignalRate, .-VL53L0X_GetTotalSignalRate
 1890              		.section	.text.VL53L0X_SetDeviceAddress,"ax",%progbits
 1891              		.align	2
 1892              		.global	VL53L0X_SetDeviceAddress
 1893              		.code	16
 1894              		.thumb_func
 1895              		.type	VL53L0X_SetDeviceAddress, %function
 1896              	VL53L0X_SetDeviceAddress:
 1897              	.LFB20:
 351:Api\core\src/vl53l0x_api.c **** 
 352:Api\core\src/vl53l0x_api.c **** /* End Group PAL General Functions */
 353:Api\core\src/vl53l0x_api.c **** 
 354:Api\core\src/vl53l0x_api.c **** /* Group PAL Init Functions */
 355:Api\core\src/vl53l0x_api.c **** VL53L0X_Error VL53L0X_SetDeviceAddress(VL53L0X_DEV Dev, uint8_t DeviceAddress)
 356:Api\core\src/vl53l0x_api.c **** {
 1898              		.loc 1 356 0
 1899              		.cfi_startproc
 1900              		@ args = 0, pretend = 0, frame = 16
 1901              		@ frame_needed = 1, uses_anonymous_args = 0
 1902 0000 90B5     		push	{r4, r7, lr}
 1903              		.cfi_def_cfa_offset 12
 1904              		.cfi_offset 4, -12
 1905              		.cfi_offset 7, -8
 1906              		.cfi_offset 14, -4
 1907 0002 85B0     		sub	sp, sp, #20
 1908              		.cfi_def_cfa_offset 32
 1909 0004 00AF     		add	r7, sp, #0
 1910              		.cfi_def_cfa_register 7
 1911 0006 7860     		str	r0, [r7, #4]
 1912 0008 0A00     		movs	r2, r1
 1913 000a FB1C     		adds	r3, r7, #3
 1914 000c 1A70     		strb	r2, [r3]
 357:Api\core\src/vl53l0x_api.c **** 	VL53L0X_Error Status = VL53L0X_ERROR_NONE;
 1915              		.loc 1 357 0
 1916 000e 0F23     		movs	r3, #15
 1917 0010 FB18     		adds	r3, r7, r3
 1918 0012 0022     		movs	r2, #0
 1919 0014 1A70     		strb	r2, [r3]
 358:Api\core\src/vl53l0x_api.c **** 	LOG_FUNCTION_START("");
 359:Api\core\src/vl53l0x_api.c **** 
 360:Api\core\src/vl53l0x_api.c **** 	Status = VL53L0X_WrByte(Dev, VL53L0X_REG_I2C_SLAVE_DEVICE_ADDRESS,
 1920              		.loc 1 360 0
ARM GAS  C:\Users\ilya\AppData\Local\Temp\ccpEIuqL.s 			page 41


 1921 0016 FB1C     		adds	r3, r7, #3
 1922 0018 1B78     		ldrb	r3, [r3]
 1923 001a 5B08     		lsrs	r3, r3, #1
 1924 001c DAB2     		uxtb	r2, r3
 1925 001e 0F23     		movs	r3, #15
 1926 0020 FC18     		adds	r4, r7, r3
 1927 0022 7B68     		ldr	r3, [r7, #4]
 1928 0024 8A21     		movs	r1, #138
 1929 0026 1800     		movs	r0, r3
 1930 0028 FFF7FEFF 		bl	VL53L0X_WrByte
 1931 002c 0300     		movs	r3, r0
 1932 002e 2370     		strb	r3, [r4]
 361:Api\core\src/vl53l0x_api.c **** 		DeviceAddress / 2);
 362:Api\core\src/vl53l0x_api.c **** 
 363:Api\core\src/vl53l0x_api.c **** 	LOG_FUNCTION_END(Status);
 364:Api\core\src/vl53l0x_api.c **** 	return Status;
 1933              		.loc 1 364 0
 1934 0030 0F23     		movs	r3, #15
 1935 0032 FB18     		adds	r3, r7, r3
 1936 0034 1B78     		ldrb	r3, [r3]
 1937 0036 5BB2     		sxtb	r3, r3
 365:Api\core\src/vl53l0x_api.c **** }
 1938              		.loc 1 365 0
 1939 0038 1800     		movs	r0, r3
 1940 003a BD46     		mov	sp, r7
 1941 003c 05B0     		add	sp, sp, #20
 1942              		@ sp needed
 1943 003e 90BD     		pop	{r4, r7, pc}
 1944              		.cfi_endproc
 1945              	.LFE20:
 1946              		.size	VL53L0X_SetDeviceAddress, .-VL53L0X_SetDeviceAddress
 1947              		.section	.text.VL53L0X_DataInit,"ax",%progbits
 1948              		.align	2
 1949              		.global	VL53L0X_DataInit
 1950              		.code	16
 1951              		.thumb_func
 1952              		.type	VL53L0X_DataInit, %function
 1953              	VL53L0X_DataInit:
 1954              	.LFB21:
 366:Api\core\src/vl53l0x_api.c **** 
 367:Api\core\src/vl53l0x_api.c **** VL53L0X_Error VL53L0X_DataInit(VL53L0X_DEV Dev)
 368:Api\core\src/vl53l0x_api.c **** {
 1955              		.loc 1 368 0
 1956              		.cfi_startproc
 1957              		@ args = 0, pretend = 0, frame = 88
 1958              		@ frame_needed = 1, uses_anonymous_args = 0
 1959 0000 90B5     		push	{r4, r7, lr}
 1960              		.cfi_def_cfa_offset 12
 1961              		.cfi_offset 4, -12
 1962              		.cfi_offset 7, -8
 1963              		.cfi_offset 14, -4
 1964 0002 97B0     		sub	sp, sp, #92
 1965              		.cfi_def_cfa_offset 104
 1966 0004 00AF     		add	r7, sp, #0
 1967              		.cfi_def_cfa_register 7
 1968 0006 7860     		str	r0, [r7, #4]
 369:Api\core\src/vl53l0x_api.c **** 	VL53L0X_Error Status = VL53L0X_ERROR_NONE;
ARM GAS  C:\Users\ilya\AppData\Local\Temp\ccpEIuqL.s 			page 42


 1969              		.loc 1 369 0
 1970 0008 5723     		movs	r3, #87
 1971 000a FB18     		adds	r3, r7, r3
 1972 000c 0022     		movs	r2, #0
 1973 000e 1A70     		strb	r2, [r3]
 370:Api\core\src/vl53l0x_api.c **** 	VL53L0X_DeviceParameters_t CurrentParameters;
 371:Api\core\src/vl53l0x_api.c **** 	int i;
 372:Api\core\src/vl53l0x_api.c **** 	uint8_t StopVariable;
 373:Api\core\src/vl53l0x_api.c **** 
 374:Api\core\src/vl53l0x_api.c **** 	LOG_FUNCTION_START("");
 375:Api\core\src/vl53l0x_api.c **** 
 376:Api\core\src/vl53l0x_api.c **** 	/* by default the I2C is running at 1V8 if you want to change it you
 377:Api\core\src/vl53l0x_api.c **** 	 * need to include this define at compilation level. */
 378:Api\core\src/vl53l0x_api.c **** #ifdef USE_I2C_2V8
 379:Api\core\src/vl53l0x_api.c **** 	Status = VL53L0X_UpdateByte(Dev,
 380:Api\core\src/vl53l0x_api.c **** 		VL53L0X_REG_VHV_CONFIG_PAD_SCL_SDA__EXTSUP_HV,
 381:Api\core\src/vl53l0x_api.c **** 		0xFE,
 382:Api\core\src/vl53l0x_api.c **** 		0x01);
 383:Api\core\src/vl53l0x_api.c **** #endif
 384:Api\core\src/vl53l0x_api.c **** 
 385:Api\core\src/vl53l0x_api.c **** 	/* Set I2C standard mode */
 386:Api\core\src/vl53l0x_api.c **** 	if (Status == VL53L0X_ERROR_NONE)
 1974              		.loc 1 386 0
 1975 0010 5723     		movs	r3, #87
 1976 0012 FB18     		adds	r3, r7, r3
 1977 0014 1B78     		ldrb	r3, [r3]
 1978 0016 5BB2     		sxtb	r3, r3
 1979 0018 002B     		cmp	r3, #0
 1980 001a 09D1     		bne	.L54
 387:Api\core\src/vl53l0x_api.c **** 		Status = VL53L0X_WrByte(Dev, 0x88, 0x00);
 1981              		.loc 1 387 0
 1982 001c 5723     		movs	r3, #87
 1983 001e FC18     		adds	r4, r7, r3
 1984 0020 7B68     		ldr	r3, [r7, #4]
 1985 0022 0022     		movs	r2, #0
 1986 0024 8821     		movs	r1, #136
 1987 0026 1800     		movs	r0, r3
 1988 0028 FFF7FEFF 		bl	VL53L0X_WrByte
 1989 002c 0300     		movs	r3, r0
 1990 002e 2370     		strb	r3, [r4]
 1991              	.L54:
 388:Api\core\src/vl53l0x_api.c **** 
 389:Api\core\src/vl53l0x_api.c **** 	VL53L0X_SETDEVICESPECIFICPARAMETER(Dev, ReadDataFromDeviceDone, 0);
 1992              		.loc 1 389 0
 1993 0030 7B68     		ldr	r3, [r7, #4]
 1994 0032 F022     		movs	r2, #240
 1995 0034 0021     		movs	r1, #0
 1996 0036 9954     		strb	r1, [r3, r2]
 390:Api\core\src/vl53l0x_api.c **** 
 391:Api\core\src/vl53l0x_api.c **** #ifdef USE_IQC_STATION
 392:Api\core\src/vl53l0x_api.c **** 	if (Status == VL53L0X_ERROR_NONE)
 393:Api\core\src/vl53l0x_api.c **** 		Status = VL53L0X_apply_offset_adjustment(Dev);
 394:Api\core\src/vl53l0x_api.c **** #endif
 395:Api\core\src/vl53l0x_api.c **** 
 396:Api\core\src/vl53l0x_api.c **** 	/* Default value is 1000 for Linearity Corrective Gain */
 397:Api\core\src/vl53l0x_api.c **** 	PALDevDataSet(Dev, LinearityCorrectiveGain, 1000);
 1997              		.loc 1 397 0
ARM GAS  C:\Users\ilya\AppData\Local\Temp\ccpEIuqL.s 			page 43


 1998 0038 7A68     		ldr	r2, [r7, #4]
 1999 003a A923     		movs	r3, #169
 2000 003c 5B00     		lsls	r3, r3, #1
 2001 003e FA21     		movs	r1, #250
 2002 0040 8900     		lsls	r1, r1, #2
 2003 0042 D152     		strh	r1, [r2, r3]
 398:Api\core\src/vl53l0x_api.c **** 
 399:Api\core\src/vl53l0x_api.c **** 	/* Dmax default Parameter */
 400:Api\core\src/vl53l0x_api.c **** 	PALDevDataSet(Dev, DmaxCalRangeMilliMeter, 400);
 2004              		.loc 1 400 0
 2005 0044 7A68     		ldr	r2, [r7, #4]
 2006 0046 AA23     		movs	r3, #170
 2007 0048 5B00     		lsls	r3, r3, #1
 2008 004a C821     		movs	r1, #200
 2009 004c 4900     		lsls	r1, r1, #1
 2010 004e D152     		strh	r1, [r2, r3]
 401:Api\core\src/vl53l0x_api.c **** 	PALDevDataSet(Dev, DmaxCalSignalRateRtnMegaCps,
 2011              		.loc 1 401 0
 2012 0050 7A68     		ldr	r2, [r7, #4]
 2013 0052 AC23     		movs	r3, #172
 2014 0054 5B00     		lsls	r3, r3, #1
 2015 0056 C449     		ldr	r1, .L73
 2016 0058 D150     		str	r1, [r2, r3]
 402:Api\core\src/vl53l0x_api.c **** 		(FixPoint1616_t)((0x00016B85))); /* 1.42 No Cover Glass*/
 403:Api\core\src/vl53l0x_api.c **** 
 404:Api\core\src/vl53l0x_api.c **** 	/* Set Default static parameters
 405:Api\core\src/vl53l0x_api.c **** 	 *set first temporary values 9.44MHz * 65536 = 618660 */
 406:Api\core\src/vl53l0x_api.c **** 	VL53L0X_SETDEVICESPECIFICPARAMETER(Dev, OscFrequencyMHz, 618660);
 2017              		.loc 1 406 0
 2018 005a 7B68     		ldr	r3, [r7, #4]
 2019 005c D422     		movs	r2, #212
 2020 005e C349     		ldr	r1, .L73+4
 2021 0060 9950     		str	r1, [r3, r2]
 407:Api\core\src/vl53l0x_api.c **** 
 408:Api\core\src/vl53l0x_api.c **** 	/* Set Default XTalkCompensationRateMegaCps to 0  */
 409:Api\core\src/vl53l0x_api.c **** 	VL53L0X_SETPARAMETERFIELD(Dev, XTalkCompensationRateMegaCps, 0);
 2022              		.loc 1 409 0
 2023 0062 7B68     		ldr	r3, [r7, #4]
 2024 0064 0022     		movs	r2, #0
 2025 0066 1A62     		str	r2, [r3, #32]
 410:Api\core\src/vl53l0x_api.c **** 
 411:Api\core\src/vl53l0x_api.c **** 	/* Get default parameters */
 412:Api\core\src/vl53l0x_api.c **** 	Status = VL53L0X_GetDeviceParameters(Dev, &CurrentParameters);
 2026              		.loc 1 412 0
 2027 0068 5723     		movs	r3, #87
 2028 006a FC18     		adds	r4, r7, r3
 2029 006c 1023     		movs	r3, #16
 2030 006e FA18     		adds	r2, r7, r3
 2031 0070 7B68     		ldr	r3, [r7, #4]
 2032 0072 1100     		movs	r1, r2
 2033 0074 1800     		movs	r0, r3
 2034 0076 FFF7FEFF 		bl	VL53L0X_GetDeviceParameters
 2035 007a 0300     		movs	r3, r0
 2036 007c 2370     		strb	r3, [r4]
 413:Api\core\src/vl53l0x_api.c **** 	if (Status == VL53L0X_ERROR_NONE) {
 2037              		.loc 1 413 0
 2038 007e 5723     		movs	r3, #87
ARM GAS  C:\Users\ilya\AppData\Local\Temp\ccpEIuqL.s 			page 44


 2039 0080 FB18     		adds	r3, r7, r3
 2040 0082 1B78     		ldrb	r3, [r3]
 2041 0084 5BB2     		sxtb	r3, r3
 2042 0086 002B     		cmp	r3, #0
 2043 0088 10D1     		bne	.L55
 414:Api\core\src/vl53l0x_api.c **** 		/* initialize PAL values */
 415:Api\core\src/vl53l0x_api.c **** 		CurrentParameters.DeviceMode = VL53L0X_DEVICEMODE_SINGLE_RANGING;
 2044              		.loc 1 415 0
 2045 008a 1023     		movs	r3, #16
 2046 008c FB18     		adds	r3, r7, r3
 2047 008e 0022     		movs	r2, #0
 2048 0090 1A70     		strb	r2, [r3]
 416:Api\core\src/vl53l0x_api.c **** 		CurrentParameters.HistogramMode = VL53L0X_HISTOGRAMMODE_DISABLED;
 2049              		.loc 1 416 0
 2050 0092 1023     		movs	r3, #16
 2051 0094 FB18     		adds	r3, r7, r3
 2052 0096 0022     		movs	r2, #0
 2053 0098 5A70     		strb	r2, [r3, #1]
 417:Api\core\src/vl53l0x_api.c **** 		PALDevDataSet(Dev, CurrentParameters, CurrentParameters);
 2054              		.loc 1 417 0
 2055 009a 7B68     		ldr	r3, [r7, #4]
 2056 009c 1022     		movs	r2, #16
 2057 009e BA18     		adds	r2, r7, r2
 2058 00a0 1033     		adds	r3, r3, #16
 2059 00a2 1100     		movs	r1, r2
 2060 00a4 4022     		movs	r2, #64
 2061 00a6 1800     		movs	r0, r3
 2062 00a8 FFF7FEFF 		bl	memcpy
 2063              	.L55:
 418:Api\core\src/vl53l0x_api.c **** 	}
 419:Api\core\src/vl53l0x_api.c **** 
 420:Api\core\src/vl53l0x_api.c **** 	/* Sigma estimator variable */
 421:Api\core\src/vl53l0x_api.c **** 	PALDevDataSet(Dev, SigmaEstRefArray, 100);
 2064              		.loc 1 421 0
 2065 00ac 7A68     		ldr	r2, [r7, #4]
 2066 00ae 9A23     		movs	r3, #154
 2067 00b0 5B00     		lsls	r3, r3, #1
 2068 00b2 6421     		movs	r1, #100
 2069 00b4 D152     		strh	r1, [r2, r3]
 422:Api\core\src/vl53l0x_api.c **** 	PALDevDataSet(Dev, SigmaEstEffPulseWidth, 900);
 2070              		.loc 1 422 0
 2071 00b6 7A68     		ldr	r2, [r7, #4]
 2072 00b8 9B23     		movs	r3, #155
 2073 00ba 5B00     		lsls	r3, r3, #1
 2074 00bc E121     		movs	r1, #225
 2075 00be 8900     		lsls	r1, r1, #2
 2076 00c0 D152     		strh	r1, [r2, r3]
 423:Api\core\src/vl53l0x_api.c **** 	PALDevDataSet(Dev, SigmaEstEffAmbWidth, 500);
 2077              		.loc 1 423 0
 2078 00c2 7A68     		ldr	r2, [r7, #4]
 2079 00c4 9C23     		movs	r3, #156
 2080 00c6 5B00     		lsls	r3, r3, #1
 2081 00c8 FA21     		movs	r1, #250
 2082 00ca 4900     		lsls	r1, r1, #1
 2083 00cc D152     		strh	r1, [r2, r3]
 424:Api\core\src/vl53l0x_api.c **** 	PALDevDataSet(Dev, targetRefRate, 0x0A00); /* 20 MCPS in 9:7 format */
 2084              		.loc 1 424 0
ARM GAS  C:\Users\ilya\AppData\Local\Temp\ccpEIuqL.s 			page 45


 2085 00ce 7A68     		ldr	r2, [r7, #4]
 2086 00d0 9E23     		movs	r3, #158
 2087 00d2 5B00     		lsls	r3, r3, #1
 2088 00d4 A021     		movs	r1, #160
 2089 00d6 0901     		lsls	r1, r1, #4
 2090 00d8 D152     		strh	r1, [r2, r3]
 425:Api\core\src/vl53l0x_api.c **** 
 426:Api\core\src/vl53l0x_api.c **** 	/* Use internal default settings */
 427:Api\core\src/vl53l0x_api.c **** 	PALDevDataSet(Dev, UseInternalTuningSettings, 1);
 2091              		.loc 1 427 0
 2092 00da 7A68     		ldr	r2, [r7, #4]
 2093 00dc A823     		movs	r3, #168
 2094 00de 5B00     		lsls	r3, r3, #1
 2095 00e0 0121     		movs	r1, #1
 2096 00e2 D154     		strb	r1, [r2, r3]
 428:Api\core\src/vl53l0x_api.c **** 
 429:Api\core\src/vl53l0x_api.c **** 	Status |= VL53L0X_WrByte(Dev, 0x80, 0x01);
 2097              		.loc 1 429 0
 2098 00e4 7B68     		ldr	r3, [r7, #4]
 2099 00e6 0122     		movs	r2, #1
 2100 00e8 8021     		movs	r1, #128
 2101 00ea 1800     		movs	r0, r3
 2102 00ec FFF7FEFF 		bl	VL53L0X_WrByte
 2103 00f0 0300     		movs	r3, r0
 2104 00f2 1900     		movs	r1, r3
 2105 00f4 5723     		movs	r3, #87
 2106 00f6 FB18     		adds	r3, r7, r3
 2107 00f8 5722     		movs	r2, #87
 2108 00fa BA18     		adds	r2, r7, r2
 2109 00fc 1278     		ldrb	r2, [r2]
 2110 00fe 0A43     		orrs	r2, r1
 2111 0100 1A70     		strb	r2, [r3]
 430:Api\core\src/vl53l0x_api.c **** 	Status |= VL53L0X_WrByte(Dev, 0xFF, 0x01);
 2112              		.loc 1 430 0
 2113 0102 7B68     		ldr	r3, [r7, #4]
 2114 0104 0122     		movs	r2, #1
 2115 0106 FF21     		movs	r1, #255
 2116 0108 1800     		movs	r0, r3
 2117 010a FFF7FEFF 		bl	VL53L0X_WrByte
 2118 010e 0300     		movs	r3, r0
 2119 0110 1900     		movs	r1, r3
 2120 0112 5723     		movs	r3, #87
 2121 0114 FB18     		adds	r3, r7, r3
 2122 0116 5722     		movs	r2, #87
 2123 0118 BA18     		adds	r2, r7, r2
 2124 011a 1278     		ldrb	r2, [r2]
 2125 011c 0A43     		orrs	r2, r1
 2126 011e 1A70     		strb	r2, [r3]
 431:Api\core\src/vl53l0x_api.c **** 	Status |= VL53L0X_WrByte(Dev, 0x00, 0x00);
 2127              		.loc 1 431 0
 2128 0120 7B68     		ldr	r3, [r7, #4]
 2129 0122 0022     		movs	r2, #0
 2130 0124 0021     		movs	r1, #0
 2131 0126 1800     		movs	r0, r3
 2132 0128 FFF7FEFF 		bl	VL53L0X_WrByte
 2133 012c 0300     		movs	r3, r0
 2134 012e 1900     		movs	r1, r3
ARM GAS  C:\Users\ilya\AppData\Local\Temp\ccpEIuqL.s 			page 46


 2135 0130 5723     		movs	r3, #87
 2136 0132 FB18     		adds	r3, r7, r3
 2137 0134 5722     		movs	r2, #87
 2138 0136 BA18     		adds	r2, r7, r2
 2139 0138 1278     		ldrb	r2, [r2]
 2140 013a 0A43     		orrs	r2, r1
 2141 013c 1A70     		strb	r2, [r3]
 432:Api\core\src/vl53l0x_api.c **** 	Status |= VL53L0X_RdByte(Dev, 0x91, &StopVariable);
 2142              		.loc 1 432 0
 2143 013e 0F23     		movs	r3, #15
 2144 0140 FA18     		adds	r2, r7, r3
 2145 0142 7B68     		ldr	r3, [r7, #4]
 2146 0144 9121     		movs	r1, #145
 2147 0146 1800     		movs	r0, r3
 2148 0148 FFF7FEFF 		bl	VL53L0X_RdByte
 2149 014c 0300     		movs	r3, r0
 2150 014e 1900     		movs	r1, r3
 2151 0150 5723     		movs	r3, #87
 2152 0152 FB18     		adds	r3, r7, r3
 2153 0154 5722     		movs	r2, #87
 2154 0156 BA18     		adds	r2, r7, r2
 2155 0158 1278     		ldrb	r2, [r2]
 2156 015a 0A43     		orrs	r2, r1
 2157 015c 1A70     		strb	r2, [r3]
 433:Api\core\src/vl53l0x_api.c **** 	PALDevDataSet(Dev, StopVariable, StopVariable);
 2158              		.loc 1 433 0
 2159 015e 0F23     		movs	r3, #15
 2160 0160 FB18     		adds	r3, r7, r3
 2161 0162 1978     		ldrb	r1, [r3]
 2162 0164 7A68     		ldr	r2, [r7, #4]
 2163 0166 9D23     		movs	r3, #157
 2164 0168 5B00     		lsls	r3, r3, #1
 2165 016a D154     		strb	r1, [r2, r3]
 434:Api\core\src/vl53l0x_api.c **** 	Status |= VL53L0X_WrByte(Dev, 0x00, 0x01);
 2166              		.loc 1 434 0
 2167 016c 7B68     		ldr	r3, [r7, #4]
 2168 016e 0122     		movs	r2, #1
 2169 0170 0021     		movs	r1, #0
 2170 0172 1800     		movs	r0, r3
 2171 0174 FFF7FEFF 		bl	VL53L0X_WrByte
 2172 0178 0300     		movs	r3, r0
 2173 017a 1900     		movs	r1, r3
 2174 017c 5723     		movs	r3, #87
 2175 017e FB18     		adds	r3, r7, r3
 2176 0180 5722     		movs	r2, #87
 2177 0182 BA18     		adds	r2, r7, r2
 2178 0184 1278     		ldrb	r2, [r2]
 2179 0186 0A43     		orrs	r2, r1
 2180 0188 1A70     		strb	r2, [r3]
 435:Api\core\src/vl53l0x_api.c **** 	Status |= VL53L0X_WrByte(Dev, 0xFF, 0x00);
 2181              		.loc 1 435 0
 2182 018a 7B68     		ldr	r3, [r7, #4]
 2183 018c 0022     		movs	r2, #0
 2184 018e FF21     		movs	r1, #255
 2185 0190 1800     		movs	r0, r3
 2186 0192 FFF7FEFF 		bl	VL53L0X_WrByte
 2187 0196 0300     		movs	r3, r0
ARM GAS  C:\Users\ilya\AppData\Local\Temp\ccpEIuqL.s 			page 47


 2188 0198 1900     		movs	r1, r3
 2189 019a 5723     		movs	r3, #87
 2190 019c FB18     		adds	r3, r7, r3
 2191 019e 5722     		movs	r2, #87
 2192 01a0 BA18     		adds	r2, r7, r2
 2193 01a2 1278     		ldrb	r2, [r2]
 2194 01a4 0A43     		orrs	r2, r1
 2195 01a6 1A70     		strb	r2, [r3]
 436:Api\core\src/vl53l0x_api.c **** 	Status |= VL53L0X_WrByte(Dev, 0x80, 0x00);
 2196              		.loc 1 436 0
 2197 01a8 7B68     		ldr	r3, [r7, #4]
 2198 01aa 0022     		movs	r2, #0
 2199 01ac 8021     		movs	r1, #128
 2200 01ae 1800     		movs	r0, r3
 2201 01b0 FFF7FEFF 		bl	VL53L0X_WrByte
 2202 01b4 0300     		movs	r3, r0
 2203 01b6 1900     		movs	r1, r3
 2204 01b8 5723     		movs	r3, #87
 2205 01ba FB18     		adds	r3, r7, r3
 2206 01bc 5722     		movs	r2, #87
 2207 01be BA18     		adds	r2, r7, r2
 2208 01c0 1278     		ldrb	r2, [r2]
 2209 01c2 0A43     		orrs	r2, r1
 2210 01c4 1A70     		strb	r2, [r3]
 437:Api\core\src/vl53l0x_api.c **** 
 438:Api\core\src/vl53l0x_api.c **** 	/* Enable all check */
 439:Api\core\src/vl53l0x_api.c **** 	for (i = 0; i < VL53L0X_CHECKENABLE_NUMBER_OF_CHECKS; i++) {
 2211              		.loc 1 439 0
 2212 01c6 0023     		movs	r3, #0
 2213 01c8 3B65     		str	r3, [r7, #80]
 2214 01ca 18E0     		b	.L56
 2215              	.L60:
 440:Api\core\src/vl53l0x_api.c **** 		if (Status == VL53L0X_ERROR_NONE)
 2216              		.loc 1 440 0
 2217 01cc 5723     		movs	r3, #87
 2218 01ce FB18     		adds	r3, r7, r3
 2219 01d0 1B78     		ldrb	r3, [r3]
 2220 01d2 5BB2     		sxtb	r3, r3
 2221 01d4 002B     		cmp	r3, #0
 2222 01d6 16D1     		bne	.L72
 441:Api\core\src/vl53l0x_api.c **** 			Status |= VL53L0X_SetLimitCheckEnable(Dev, i, 1);
 2223              		.loc 1 441 0
 2224 01d8 3B6D     		ldr	r3, [r7, #80]
 2225 01da 99B2     		uxth	r1, r3
 2226 01dc 7B68     		ldr	r3, [r7, #4]
 2227 01de 0122     		movs	r2, #1
 2228 01e0 1800     		movs	r0, r3
 2229 01e2 FFF7FEFF 		bl	VL53L0X_SetLimitCheckEnable
 2230 01e6 0300     		movs	r3, r0
 2231 01e8 1900     		movs	r1, r3
 2232 01ea 5723     		movs	r3, #87
 2233 01ec FB18     		adds	r3, r7, r3
 2234 01ee 5722     		movs	r2, #87
 2235 01f0 BA18     		adds	r2, r7, r2
 2236 01f2 1278     		ldrb	r2, [r2]
 2237 01f4 0A43     		orrs	r2, r1
 2238 01f6 1A70     		strb	r2, [r3]
ARM GAS  C:\Users\ilya\AppData\Local\Temp\ccpEIuqL.s 			page 48


 439:Api\core\src/vl53l0x_api.c **** 		if (Status == VL53L0X_ERROR_NONE)
 2239              		.loc 1 439 0
 2240 01f8 3B6D     		ldr	r3, [r7, #80]
 2241 01fa 0133     		adds	r3, r3, #1
 2242 01fc 3B65     		str	r3, [r7, #80]
 2243              	.L56:
 439:Api\core\src/vl53l0x_api.c **** 		if (Status == VL53L0X_ERROR_NONE)
 2244              		.loc 1 439 0 is_stmt 0 discriminator 1
 2245 01fe 3B6D     		ldr	r3, [r7, #80]
 2246 0200 052B     		cmp	r3, #5
 2247 0202 E3DD     		ble	.L60
 2248 0204 00E0     		b	.L59
 2249              	.L72:
 442:Api\core\src/vl53l0x_api.c **** 		else
 443:Api\core\src/vl53l0x_api.c **** 			break;
 2250              		.loc 1 443 0 is_stmt 1
 2251 0206 C046     		nop
 2252              	.L59:
 444:Api\core\src/vl53l0x_api.c **** 
 445:Api\core\src/vl53l0x_api.c **** 	}
 446:Api\core\src/vl53l0x_api.c **** 
 447:Api\core\src/vl53l0x_api.c **** 	/* Disable the following checks */
 448:Api\core\src/vl53l0x_api.c **** 	if (Status == VL53L0X_ERROR_NONE)
 2253              		.loc 1 448 0
 2254 0208 5723     		movs	r3, #87
 2255 020a FB18     		adds	r3, r7, r3
 2256 020c 1B78     		ldrb	r3, [r3]
 2257 020e 5BB2     		sxtb	r3, r3
 2258 0210 002B     		cmp	r3, #0
 2259 0212 09D1     		bne	.L61
 449:Api\core\src/vl53l0x_api.c **** 		Status = VL53L0X_SetLimitCheckEnable(Dev,
 2260              		.loc 1 449 0
 2261 0214 5723     		movs	r3, #87
 2262 0216 FC18     		adds	r4, r7, r3
 2263 0218 7B68     		ldr	r3, [r7, #4]
 2264 021a 0022     		movs	r2, #0
 2265 021c 0221     		movs	r1, #2
 2266 021e 1800     		movs	r0, r3
 2267 0220 FFF7FEFF 		bl	VL53L0X_SetLimitCheckEnable
 2268 0224 0300     		movs	r3, r0
 2269 0226 2370     		strb	r3, [r4]
 2270              	.L61:
 450:Api\core\src/vl53l0x_api.c **** 			VL53L0X_CHECKENABLE_SIGNAL_REF_CLIP, 0);
 451:Api\core\src/vl53l0x_api.c **** 
 452:Api\core\src/vl53l0x_api.c **** 	if (Status == VL53L0X_ERROR_NONE)
 2271              		.loc 1 452 0
 2272 0228 5723     		movs	r3, #87
 2273 022a FB18     		adds	r3, r7, r3
 2274 022c 1B78     		ldrb	r3, [r3]
 2275 022e 5BB2     		sxtb	r3, r3
 2276 0230 002B     		cmp	r3, #0
 2277 0232 09D1     		bne	.L62
 453:Api\core\src/vl53l0x_api.c **** 		Status = VL53L0X_SetLimitCheckEnable(Dev,
 2278              		.loc 1 453 0
 2279 0234 5723     		movs	r3, #87
 2280 0236 FC18     		adds	r4, r7, r3
 2281 0238 7B68     		ldr	r3, [r7, #4]
ARM GAS  C:\Users\ilya\AppData\Local\Temp\ccpEIuqL.s 			page 49


 2282 023a 0022     		movs	r2, #0
 2283 023c 0321     		movs	r1, #3
 2284 023e 1800     		movs	r0, r3
 2285 0240 FFF7FEFF 		bl	VL53L0X_SetLimitCheckEnable
 2286 0244 0300     		movs	r3, r0
 2287 0246 2370     		strb	r3, [r4]
 2288              	.L62:
 454:Api\core\src/vl53l0x_api.c **** 			VL53L0X_CHECKENABLE_RANGE_IGNORE_THRESHOLD, 0);
 455:Api\core\src/vl53l0x_api.c **** 
 456:Api\core\src/vl53l0x_api.c **** 	if (Status == VL53L0X_ERROR_NONE)
 2289              		.loc 1 456 0
 2290 0248 5723     		movs	r3, #87
 2291 024a FB18     		adds	r3, r7, r3
 2292 024c 1B78     		ldrb	r3, [r3]
 2293 024e 5BB2     		sxtb	r3, r3
 2294 0250 002B     		cmp	r3, #0
 2295 0252 09D1     		bne	.L63
 457:Api\core\src/vl53l0x_api.c **** 		Status = VL53L0X_SetLimitCheckEnable(Dev,
 2296              		.loc 1 457 0
 2297 0254 5723     		movs	r3, #87
 2298 0256 FC18     		adds	r4, r7, r3
 2299 0258 7B68     		ldr	r3, [r7, #4]
 2300 025a 0022     		movs	r2, #0
 2301 025c 0421     		movs	r1, #4
 2302 025e 1800     		movs	r0, r3
 2303 0260 FFF7FEFF 		bl	VL53L0X_SetLimitCheckEnable
 2304 0264 0300     		movs	r3, r0
 2305 0266 2370     		strb	r3, [r4]
 2306              	.L63:
 458:Api\core\src/vl53l0x_api.c **** 			VL53L0X_CHECKENABLE_SIGNAL_RATE_MSRC, 0);
 459:Api\core\src/vl53l0x_api.c **** 
 460:Api\core\src/vl53l0x_api.c **** 	if (Status == VL53L0X_ERROR_NONE)
 2307              		.loc 1 460 0
 2308 0268 5723     		movs	r3, #87
 2309 026a FB18     		adds	r3, r7, r3
 2310 026c 1B78     		ldrb	r3, [r3]
 2311 026e 5BB2     		sxtb	r3, r3
 2312 0270 002B     		cmp	r3, #0
 2313 0272 09D1     		bne	.L64
 461:Api\core\src/vl53l0x_api.c **** 		Status = VL53L0X_SetLimitCheckEnable(Dev,
 2314              		.loc 1 461 0
 2315 0274 5723     		movs	r3, #87
 2316 0276 FC18     		adds	r4, r7, r3
 2317 0278 7B68     		ldr	r3, [r7, #4]
 2318 027a 0022     		movs	r2, #0
 2319 027c 0521     		movs	r1, #5
 2320 027e 1800     		movs	r0, r3
 2321 0280 FFF7FEFF 		bl	VL53L0X_SetLimitCheckEnable
 2322 0284 0300     		movs	r3, r0
 2323 0286 2370     		strb	r3, [r4]
 2324              	.L64:
 462:Api\core\src/vl53l0x_api.c **** 			VL53L0X_CHECKENABLE_SIGNAL_RATE_PRE_RANGE, 0);
 463:Api\core\src/vl53l0x_api.c **** 
 464:Api\core\src/vl53l0x_api.c **** 	/* Limit default values */
 465:Api\core\src/vl53l0x_api.c **** 	if (Status == VL53L0X_ERROR_NONE) {
 2325              		.loc 1 465 0
 2326 0288 5723     		movs	r3, #87
ARM GAS  C:\Users\ilya\AppData\Local\Temp\ccpEIuqL.s 			page 50


 2327 028a FB18     		adds	r3, r7, r3
 2328 028c 1B78     		ldrb	r3, [r3]
 2329 028e 5BB2     		sxtb	r3, r3
 2330 0290 002B     		cmp	r3, #0
 2331 0292 0AD1     		bne	.L65
 466:Api\core\src/vl53l0x_api.c **** 		Status = VL53L0X_SetLimitCheckValue(Dev,
 2332              		.loc 1 466 0
 2333 0294 5723     		movs	r3, #87
 2334 0296 FC18     		adds	r4, r7, r3
 2335 0298 9023     		movs	r3, #144
 2336 029a 5A03     		lsls	r2, r3, #13
 2337 029c 7B68     		ldr	r3, [r7, #4]
 2338 029e 0021     		movs	r1, #0
 2339 02a0 1800     		movs	r0, r3
 2340 02a2 FFF7FEFF 		bl	VL53L0X_SetLimitCheckValue
 2341 02a6 0300     		movs	r3, r0
 2342 02a8 2370     		strb	r3, [r4]
 2343              	.L65:
 467:Api\core\src/vl53l0x_api.c **** 			VL53L0X_CHECKENABLE_SIGMA_FINAL_RANGE,
 468:Api\core\src/vl53l0x_api.c **** 				(FixPoint1616_t)(18 * 65536));
 469:Api\core\src/vl53l0x_api.c **** 	}
 470:Api\core\src/vl53l0x_api.c **** 	if (Status == VL53L0X_ERROR_NONE) {
 2344              		.loc 1 470 0
 2345 02aa 5723     		movs	r3, #87
 2346 02ac FB18     		adds	r3, r7, r3
 2347 02ae 1B78     		ldrb	r3, [r3]
 2348 02b0 5BB2     		sxtb	r3, r3
 2349 02b2 002B     		cmp	r3, #0
 2350 02b4 0AD1     		bne	.L66
 471:Api\core\src/vl53l0x_api.c **** 		Status = VL53L0X_SetLimitCheckValue(Dev,
 2351              		.loc 1 471 0
 2352 02b6 5723     		movs	r3, #87
 2353 02b8 FC18     		adds	r4, r7, r3
 2354 02ba 8023     		movs	r3, #128
 2355 02bc DA01     		lsls	r2, r3, #7
 2356 02be 7B68     		ldr	r3, [r7, #4]
 2357 02c0 0121     		movs	r1, #1
 2358 02c2 1800     		movs	r0, r3
 2359 02c4 FFF7FEFF 		bl	VL53L0X_SetLimitCheckValue
 2360 02c8 0300     		movs	r3, r0
 2361 02ca 2370     		strb	r3, [r4]
 2362              	.L66:
 472:Api\core\src/vl53l0x_api.c **** 			VL53L0X_CHECKENABLE_SIGNAL_RATE_FINAL_RANGE,
 473:Api\core\src/vl53l0x_api.c **** 				(FixPoint1616_t)(25 * 65536 / 100));
 474:Api\core\src/vl53l0x_api.c **** 				/* 0.25 * 65536 */
 475:Api\core\src/vl53l0x_api.c **** 	}
 476:Api\core\src/vl53l0x_api.c **** 
 477:Api\core\src/vl53l0x_api.c **** 	if (Status == VL53L0X_ERROR_NONE) {
 2363              		.loc 1 477 0
 2364 02cc 5723     		movs	r3, #87
 2365 02ce FB18     		adds	r3, r7, r3
 2366 02d0 1B78     		ldrb	r3, [r3]
 2367 02d2 5BB2     		sxtb	r3, r3
 2368 02d4 002B     		cmp	r3, #0
 2369 02d6 0AD1     		bne	.L67
 478:Api\core\src/vl53l0x_api.c **** 		Status = VL53L0X_SetLimitCheckValue(Dev,
 2370              		.loc 1 478 0
ARM GAS  C:\Users\ilya\AppData\Local\Temp\ccpEIuqL.s 			page 51


 2371 02d8 5723     		movs	r3, #87
 2372 02da FC18     		adds	r4, r7, r3
 2373 02dc 8C23     		movs	r3, #140
 2374 02de 9A03     		lsls	r2, r3, #14
 2375 02e0 7B68     		ldr	r3, [r7, #4]
 2376 02e2 0221     		movs	r1, #2
 2377 02e4 1800     		movs	r0, r3
 2378 02e6 FFF7FEFF 		bl	VL53L0X_SetLimitCheckValue
 2379 02ea 0300     		movs	r3, r0
 2380 02ec 2370     		strb	r3, [r4]
 2381              	.L67:
 479:Api\core\src/vl53l0x_api.c **** 			VL53L0X_CHECKENABLE_SIGNAL_REF_CLIP,
 480:Api\core\src/vl53l0x_api.c **** 				(FixPoint1616_t)(35 * 65536));
 481:Api\core\src/vl53l0x_api.c **** 	}
 482:Api\core\src/vl53l0x_api.c **** 
 483:Api\core\src/vl53l0x_api.c **** 	if (Status == VL53L0X_ERROR_NONE) {
 2382              		.loc 1 483 0
 2383 02ee 5723     		movs	r3, #87
 2384 02f0 FB18     		adds	r3, r7, r3
 2385 02f2 1B78     		ldrb	r3, [r3]
 2386 02f4 5BB2     		sxtb	r3, r3
 2387 02f6 002B     		cmp	r3, #0
 2388 02f8 09D1     		bne	.L68
 484:Api\core\src/vl53l0x_api.c **** 		Status = VL53L0X_SetLimitCheckValue(Dev,
 2389              		.loc 1 484 0
 2390 02fa 5723     		movs	r3, #87
 2391 02fc FC18     		adds	r4, r7, r3
 2392 02fe 7B68     		ldr	r3, [r7, #4]
 2393 0300 0022     		movs	r2, #0
 2394 0302 0321     		movs	r1, #3
 2395 0304 1800     		movs	r0, r3
 2396 0306 FFF7FEFF 		bl	VL53L0X_SetLimitCheckValue
 2397 030a 0300     		movs	r3, r0
 2398 030c 2370     		strb	r3, [r4]
 2399              	.L68:
 485:Api\core\src/vl53l0x_api.c **** 			VL53L0X_CHECKENABLE_RANGE_IGNORE_THRESHOLD,
 486:Api\core\src/vl53l0x_api.c **** 				(FixPoint1616_t)(0 * 65536));
 487:Api\core\src/vl53l0x_api.c **** 	}
 488:Api\core\src/vl53l0x_api.c **** 
 489:Api\core\src/vl53l0x_api.c **** 	if (Status == VL53L0X_ERROR_NONE) {
 2400              		.loc 1 489 0
 2401 030e 5723     		movs	r3, #87
 2402 0310 FB18     		adds	r3, r7, r3
 2403 0312 1B78     		ldrb	r3, [r3]
 2404 0314 5BB2     		sxtb	r3, r3
 2405 0316 002B     		cmp	r3, #0
 2406 0318 13D1     		bne	.L69
 490:Api\core\src/vl53l0x_api.c **** 
 491:Api\core\src/vl53l0x_api.c **** 		PALDevDataSet(Dev, SequenceConfig, 0xFF);
 2407              		.loc 1 491 0
 2408 031a 7A68     		ldr	r2, [r7, #4]
 2409 031c 9823     		movs	r3, #152
 2410 031e 5B00     		lsls	r3, r3, #1
 2411 0320 FF21     		movs	r1, #255
 2412 0322 D154     		strb	r1, [r2, r3]
 492:Api\core\src/vl53l0x_api.c **** 		Status = VL53L0X_WrByte(Dev, VL53L0X_REG_SYSTEM_SEQUENCE_CONFIG,
 2413              		.loc 1 492 0
ARM GAS  C:\Users\ilya\AppData\Local\Temp\ccpEIuqL.s 			page 52


 2414 0324 5723     		movs	r3, #87
 2415 0326 FC18     		adds	r4, r7, r3
 2416 0328 7B68     		ldr	r3, [r7, #4]
 2417 032a FF22     		movs	r2, #255
 2418 032c 0121     		movs	r1, #1
 2419 032e 1800     		movs	r0, r3
 2420 0330 FFF7FEFF 		bl	VL53L0X_WrByte
 2421 0334 0300     		movs	r3, r0
 2422 0336 2370     		strb	r3, [r4]
 493:Api\core\src/vl53l0x_api.c **** 			0xFF);
 494:Api\core\src/vl53l0x_api.c **** 
 495:Api\core\src/vl53l0x_api.c **** 		/* Set PAL state to tell that we are waiting for call to
 496:Api\core\src/vl53l0x_api.c **** 		 * VL53L0X_StaticInit */
 497:Api\core\src/vl53l0x_api.c **** 		PALDevDataSet(Dev, PalState, VL53L0X_STATE_WAIT_STATICINIT);
 2423              		.loc 1 497 0
 2424 0338 7A68     		ldr	r2, [r7, #4]
 2425 033a 9923     		movs	r3, #153
 2426 033c 5B00     		lsls	r3, r3, #1
 2427 033e 0121     		movs	r1, #1
 2428 0340 D154     		strb	r1, [r2, r3]
 2429              	.L69:
 498:Api\core\src/vl53l0x_api.c **** 	}
 499:Api\core\src/vl53l0x_api.c **** 
 500:Api\core\src/vl53l0x_api.c **** 	if (Status == VL53L0X_ERROR_NONE)
 2430              		.loc 1 500 0
 2431 0342 5723     		movs	r3, #87
 2432 0344 FB18     		adds	r3, r7, r3
 2433 0346 1B78     		ldrb	r3, [r3]
 2434 0348 5BB2     		sxtb	r3, r3
 2435 034a 002B     		cmp	r3, #0
 2436 034c 04D1     		bne	.L70
 501:Api\core\src/vl53l0x_api.c **** 		VL53L0X_SETDEVICESPECIFICPARAMETER(Dev, RefSpadsInitialised, 0);
 2437              		.loc 1 501 0
 2438 034e 7A68     		ldr	r2, [r7, #4]
 2439 0350 1623     		movs	r3, #22
 2440 0352 FF33     		adds	r3, r3, #255
 2441 0354 0021     		movs	r1, #0
 2442 0356 D154     		strb	r1, [r2, r3]
 2443              	.L70:
 502:Api\core\src/vl53l0x_api.c **** 
 503:Api\core\src/vl53l0x_api.c **** 
 504:Api\core\src/vl53l0x_api.c **** 	LOG_FUNCTION_END(Status);
 505:Api\core\src/vl53l0x_api.c **** 	return Status;
 2444              		.loc 1 505 0
 2445 0358 5723     		movs	r3, #87
 2446 035a FB18     		adds	r3, r7, r3
 2447 035c 1B78     		ldrb	r3, [r3]
 2448 035e 5BB2     		sxtb	r3, r3
 506:Api\core\src/vl53l0x_api.c **** }
 2449              		.loc 1 506 0
 2450 0360 1800     		movs	r0, r3
 2451 0362 BD46     		mov	sp, r7
 2452 0364 17B0     		add	sp, sp, #92
 2453              		@ sp needed
 2454 0366 90BD     		pop	{r4, r7, pc}
 2455              	.L74:
 2456              		.align	2
ARM GAS  C:\Users\ilya\AppData\Local\Temp\ccpEIuqL.s 			page 53


 2457              	.L73:
 2458 0368 856B0100 		.word	93061
 2459 036c A4700900 		.word	618660
 2460              		.cfi_endproc
 2461              	.LFE21:
 2462              		.size	VL53L0X_DataInit, .-VL53L0X_DataInit
 2463              		.section	.text.VL53L0X_SetTuningSettingBuffer,"ax",%progbits
 2464              		.align	2
 2465              		.global	VL53L0X_SetTuningSettingBuffer
 2466              		.code	16
 2467              		.thumb_func
 2468              		.type	VL53L0X_SetTuningSettingBuffer, %function
 2469              	VL53L0X_SetTuningSettingBuffer:
 2470              	.LFB22:
 507:Api\core\src/vl53l0x_api.c **** 
 508:Api\core\src/vl53l0x_api.c **** VL53L0X_Error VL53L0X_SetTuningSettingBuffer(VL53L0X_DEV Dev,
 509:Api\core\src/vl53l0x_api.c **** 	uint8_t *pTuningSettingBuffer, uint8_t UseInternalTuningSettings)
 510:Api\core\src/vl53l0x_api.c **** {
 2471              		.loc 1 510 0
 2472              		.cfi_startproc
 2473              		@ args = 0, pretend = 0, frame = 24
 2474              		@ frame_needed = 1, uses_anonymous_args = 0
 2475 0000 80B5     		push	{r7, lr}
 2476              		.cfi_def_cfa_offset 8
 2477              		.cfi_offset 7, -8
 2478              		.cfi_offset 14, -4
 2479 0002 86B0     		sub	sp, sp, #24
 2480              		.cfi_def_cfa_offset 32
 2481 0004 00AF     		add	r7, sp, #0
 2482              		.cfi_def_cfa_register 7
 2483 0006 F860     		str	r0, [r7, #12]
 2484 0008 B960     		str	r1, [r7, #8]
 2485 000a FB1D     		adds	r3, r7, #7
 2486 000c 1A70     		strb	r2, [r3]
 511:Api\core\src/vl53l0x_api.c **** 	VL53L0X_Error Status = VL53L0X_ERROR_NONE;
 2487              		.loc 1 511 0
 2488 000e 1723     		movs	r3, #23
 2489 0010 FB18     		adds	r3, r7, r3
 2490 0012 0022     		movs	r2, #0
 2491 0014 1A70     		strb	r2, [r3]
 512:Api\core\src/vl53l0x_api.c **** 
 513:Api\core\src/vl53l0x_api.c **** 	LOG_FUNCTION_START("");
 514:Api\core\src/vl53l0x_api.c **** 
 515:Api\core\src/vl53l0x_api.c **** 	if (UseInternalTuningSettings == 1) {
 2492              		.loc 1 515 0
 2493 0016 FB1D     		adds	r3, r7, #7
 2494 0018 1B78     		ldrb	r3, [r3]
 2495 001a 012B     		cmp	r3, #1
 2496 001c 05D1     		bne	.L76
 516:Api\core\src/vl53l0x_api.c **** 		/* Force use internal settings */
 517:Api\core\src/vl53l0x_api.c **** 		PALDevDataSet(Dev, UseInternalTuningSettings, 1);
 2497              		.loc 1 517 0
 2498 001e FA68     		ldr	r2, [r7, #12]
 2499 0020 A823     		movs	r3, #168
 2500 0022 5B00     		lsls	r3, r3, #1
 2501 0024 0121     		movs	r1, #1
 2502 0026 D154     		strb	r1, [r2, r3]
ARM GAS  C:\Users\ilya\AppData\Local\Temp\ccpEIuqL.s 			page 54


 2503 0028 12E0     		b	.L77
 2504              	.L76:
 518:Api\core\src/vl53l0x_api.c **** 	} else {
 519:Api\core\src/vl53l0x_api.c **** 
 520:Api\core\src/vl53l0x_api.c **** 		/* check that the first byte is not 0 */
 521:Api\core\src/vl53l0x_api.c **** 		if (*pTuningSettingBuffer != 0) {
 2505              		.loc 1 521 0
 2506 002a BB68     		ldr	r3, [r7, #8]
 2507 002c 1B78     		ldrb	r3, [r3]
 2508 002e 002B     		cmp	r3, #0
 2509 0030 0AD0     		beq	.L78
 522:Api\core\src/vl53l0x_api.c **** 			PALDevDataSet(Dev, pTuningSettingsPointer,
 2510              		.loc 1 522 0
 2511 0032 FA68     		ldr	r2, [r7, #12]
 2512 0034 A623     		movs	r3, #166
 2513 0036 5B00     		lsls	r3, r3, #1
 2514 0038 B968     		ldr	r1, [r7, #8]
 2515 003a D150     		str	r1, [r2, r3]
 523:Api\core\src/vl53l0x_api.c **** 				pTuningSettingBuffer);
 524:Api\core\src/vl53l0x_api.c **** 			PALDevDataSet(Dev, UseInternalTuningSettings, 0);
 2516              		.loc 1 524 0
 2517 003c FA68     		ldr	r2, [r7, #12]
 2518 003e A823     		movs	r3, #168
 2519 0040 5B00     		lsls	r3, r3, #1
 2520 0042 0021     		movs	r1, #0
 2521 0044 D154     		strb	r1, [r2, r3]
 2522 0046 03E0     		b	.L77
 2523              	.L78:
 525:Api\core\src/vl53l0x_api.c **** 
 526:Api\core\src/vl53l0x_api.c **** 		} else {
 527:Api\core\src/vl53l0x_api.c **** 			Status = VL53L0X_ERROR_INVALID_PARAMS;
 2524              		.loc 1 527 0
 2525 0048 1723     		movs	r3, #23
 2526 004a FB18     		adds	r3, r7, r3
 2527 004c FC22     		movs	r2, #252
 2528 004e 1A70     		strb	r2, [r3]
 2529              	.L77:
 528:Api\core\src/vl53l0x_api.c **** 		}
 529:Api\core\src/vl53l0x_api.c **** 	}
 530:Api\core\src/vl53l0x_api.c **** 
 531:Api\core\src/vl53l0x_api.c **** 	LOG_FUNCTION_END(Status);
 532:Api\core\src/vl53l0x_api.c **** 	return Status;
 2530              		.loc 1 532 0
 2531 0050 1723     		movs	r3, #23
 2532 0052 FB18     		adds	r3, r7, r3
 2533 0054 1B78     		ldrb	r3, [r3]
 2534 0056 5BB2     		sxtb	r3, r3
 533:Api\core\src/vl53l0x_api.c **** }
 2535              		.loc 1 533 0
 2536 0058 1800     		movs	r0, r3
 2537 005a BD46     		mov	sp, r7
 2538 005c 06B0     		add	sp, sp, #24
 2539              		@ sp needed
 2540 005e 80BD     		pop	{r7, pc}
 2541              		.cfi_endproc
 2542              	.LFE22:
 2543              		.size	VL53L0X_SetTuningSettingBuffer, .-VL53L0X_SetTuningSettingBuffer
ARM GAS  C:\Users\ilya\AppData\Local\Temp\ccpEIuqL.s 			page 55


 2544              		.section	.text.VL53L0X_GetTuningSettingBuffer,"ax",%progbits
 2545              		.align	2
 2546              		.global	VL53L0X_GetTuningSettingBuffer
 2547              		.code	16
 2548              		.thumb_func
 2549              		.type	VL53L0X_GetTuningSettingBuffer, %function
 2550              	VL53L0X_GetTuningSettingBuffer:
 2551              	.LFB23:
 534:Api\core\src/vl53l0x_api.c **** 
 535:Api\core\src/vl53l0x_api.c **** VL53L0X_Error VL53L0X_GetTuningSettingBuffer(VL53L0X_DEV Dev,
 536:Api\core\src/vl53l0x_api.c **** 	uint8_t **ppTuningSettingBuffer, uint8_t *pUseInternalTuningSettings)
 537:Api\core\src/vl53l0x_api.c **** {
 2552              		.loc 1 537 0
 2553              		.cfi_startproc
 2554              		@ args = 0, pretend = 0, frame = 24
 2555              		@ frame_needed = 1, uses_anonymous_args = 0
 2556 0000 80B5     		push	{r7, lr}
 2557              		.cfi_def_cfa_offset 8
 2558              		.cfi_offset 7, -8
 2559              		.cfi_offset 14, -4
 2560 0002 86B0     		sub	sp, sp, #24
 2561              		.cfi_def_cfa_offset 32
 2562 0004 00AF     		add	r7, sp, #0
 2563              		.cfi_def_cfa_register 7
 2564 0006 F860     		str	r0, [r7, #12]
 2565 0008 B960     		str	r1, [r7, #8]
 2566 000a 7A60     		str	r2, [r7, #4]
 538:Api\core\src/vl53l0x_api.c **** 	VL53L0X_Error Status = VL53L0X_ERROR_NONE;
 2567              		.loc 1 538 0
 2568 000c 1723     		movs	r3, #23
 2569 000e FB18     		adds	r3, r7, r3
 2570 0010 0022     		movs	r2, #0
 2571 0012 1A70     		strb	r2, [r3]
 539:Api\core\src/vl53l0x_api.c **** 
 540:Api\core\src/vl53l0x_api.c **** 	LOG_FUNCTION_START("");
 541:Api\core\src/vl53l0x_api.c **** 
 542:Api\core\src/vl53l0x_api.c **** 	*ppTuningSettingBuffer = PALDevDataGet(Dev, pTuningSettingsPointer);
 2572              		.loc 1 542 0
 2573 0014 FA68     		ldr	r2, [r7, #12]
 2574 0016 A623     		movs	r3, #166
 2575 0018 5B00     		lsls	r3, r3, #1
 2576 001a D258     		ldr	r2, [r2, r3]
 2577 001c BB68     		ldr	r3, [r7, #8]
 2578 001e 1A60     		str	r2, [r3]
 543:Api\core\src/vl53l0x_api.c **** 	*pUseInternalTuningSettings = PALDevDataGet(Dev,
 2579              		.loc 1 543 0
 2580 0020 FA68     		ldr	r2, [r7, #12]
 2581 0022 A823     		movs	r3, #168
 2582 0024 5B00     		lsls	r3, r3, #1
 2583 0026 D25C     		ldrb	r2, [r2, r3]
 2584 0028 7B68     		ldr	r3, [r7, #4]
 2585 002a 1A70     		strb	r2, [r3]
 544:Api\core\src/vl53l0x_api.c **** 		UseInternalTuningSettings);
 545:Api\core\src/vl53l0x_api.c **** 
 546:Api\core\src/vl53l0x_api.c **** 	LOG_FUNCTION_END(Status);
 547:Api\core\src/vl53l0x_api.c **** 	return Status;
 2586              		.loc 1 547 0
ARM GAS  C:\Users\ilya\AppData\Local\Temp\ccpEIuqL.s 			page 56


 2587 002c 1723     		movs	r3, #23
 2588 002e FB18     		adds	r3, r7, r3
 2589 0030 1B78     		ldrb	r3, [r3]
 2590 0032 5BB2     		sxtb	r3, r3
 548:Api\core\src/vl53l0x_api.c **** }
 2591              		.loc 1 548 0
 2592 0034 1800     		movs	r0, r3
 2593 0036 BD46     		mov	sp, r7
 2594 0038 06B0     		add	sp, sp, #24
 2595              		@ sp needed
 2596 003a 80BD     		pop	{r7, pc}
 2597              		.cfi_endproc
 2598              	.LFE23:
 2599              		.size	VL53L0X_GetTuningSettingBuffer, .-VL53L0X_GetTuningSettingBuffer
 2600              		.section	.text.VL53L0X_StaticInit,"ax",%progbits
 2601              		.align	2
 2602              		.global	VL53L0X_StaticInit
 2603              		.code	16
 2604              		.thumb_func
 2605              		.type	VL53L0X_StaticInit, %function
 2606              	VL53L0X_StaticInit:
 2607              	.LFB24:
 549:Api\core\src/vl53l0x_api.c **** 
 550:Api\core\src/vl53l0x_api.c **** VL53L0X_Error VL53L0X_StaticInit(VL53L0X_DEV Dev)
 551:Api\core\src/vl53l0x_api.c **** {
 2608              		.loc 1 551 0
 2609              		.cfi_startproc
 2610              		@ args = 0, pretend = 0, frame = 112
 2611              		@ frame_needed = 1, uses_anonymous_args = 0
 2612 0000 90B5     		push	{r4, r7, lr}
 2613              		.cfi_def_cfa_offset 12
 2614              		.cfi_offset 4, -12
 2615              		.cfi_offset 7, -8
 2616              		.cfi_offset 14, -4
 2617 0002 9FB0     		sub	sp, sp, #124
 2618              		.cfi_def_cfa_offset 136
 2619 0004 02AF     		add	r7, sp, #8
 2620              		.cfi_def_cfa 7, 128
 2621 0006 7860     		str	r0, [r7, #4]
 552:Api\core\src/vl53l0x_api.c **** 	VL53L0X_Error Status = VL53L0X_ERROR_NONE;
 2622              		.loc 1 552 0
 2623 0008 6F23     		movs	r3, #111
 2624 000a FB18     		adds	r3, r7, r3
 2625 000c 0022     		movs	r2, #0
 2626 000e 1A70     		strb	r2, [r3]
 553:Api\core\src/vl53l0x_api.c **** 	VL53L0X_DeviceParameters_t CurrentParameters = {0};
 2627              		.loc 1 553 0
 2628 0010 1C23     		movs	r3, #28
 2629 0012 FB18     		adds	r3, r7, r3
 2630 0014 1800     		movs	r0, r3
 2631 0016 4023     		movs	r3, #64
 2632 0018 1A00     		movs	r2, r3
 2633 001a 0021     		movs	r1, #0
 2634 001c FFF7FEFF 		bl	memset
 554:Api\core\src/vl53l0x_api.c **** 	uint8_t *pTuningSettingBuffer;
 555:Api\core\src/vl53l0x_api.c **** 	uint16_t tempword = 0;
 2635              		.loc 1 555 0
ARM GAS  C:\Users\ilya\AppData\Local\Temp\ccpEIuqL.s 			page 57


 2636 0020 1A23     		movs	r3, #26
 2637 0022 FB18     		adds	r3, r7, r3
 2638 0024 0022     		movs	r2, #0
 2639 0026 1A80     		strh	r2, [r3]
 556:Api\core\src/vl53l0x_api.c **** 	uint8_t tempbyte = 0;
 2640              		.loc 1 556 0
 2641 0028 1923     		movs	r3, #25
 2642 002a FB18     		adds	r3, r7, r3
 2643 002c 0022     		movs	r2, #0
 2644 002e 1A70     		strb	r2, [r3]
 557:Api\core\src/vl53l0x_api.c **** 	uint8_t UseInternalTuningSettings = 0;
 2645              		.loc 1 557 0
 2646 0030 6723     		movs	r3, #103
 2647 0032 FB18     		adds	r3, r7, r3
 2648 0034 0022     		movs	r2, #0
 2649 0036 1A70     		strb	r2, [r3]
 558:Api\core\src/vl53l0x_api.c **** 	uint32_t count = 0;
 2650              		.loc 1 558 0
 2651 0038 0023     		movs	r3, #0
 2652 003a 3B66     		str	r3, [r7, #96]
 559:Api\core\src/vl53l0x_api.c **** 	uint8_t isApertureSpads = 0;
 2653              		.loc 1 559 0
 2654 003c 1823     		movs	r3, #24
 2655 003e FB18     		adds	r3, r7, r3
 2656 0040 0022     		movs	r2, #0
 2657 0042 1A70     		strb	r2, [r3]
 560:Api\core\src/vl53l0x_api.c **** 	uint32_t refSpadCount = 0;
 2658              		.loc 1 560 0
 2659 0044 0023     		movs	r3, #0
 2660 0046 7B61     		str	r3, [r7, #20]
 561:Api\core\src/vl53l0x_api.c **** 	uint8_t ApertureSpads = 0;
 2661              		.loc 1 561 0
 2662 0048 5F23     		movs	r3, #95
 2663 004a FB18     		adds	r3, r7, r3
 2664 004c 0022     		movs	r2, #0
 2665 004e 1A70     		strb	r2, [r3]
 562:Api\core\src/vl53l0x_api.c **** 	uint8_t vcselPulsePeriodPCLK;
 563:Api\core\src/vl53l0x_api.c **** 	uint32_t seqTimeoutMicroSecs;
 564:Api\core\src/vl53l0x_api.c **** 
 565:Api\core\src/vl53l0x_api.c **** 	LOG_FUNCTION_START("");
 566:Api\core\src/vl53l0x_api.c **** 
 567:Api\core\src/vl53l0x_api.c **** 	Status = VL53L0X_get_info_from_device(Dev, 1);
 2666              		.loc 1 567 0
 2667 0050 6F23     		movs	r3, #111
 2668 0052 FC18     		adds	r4, r7, r3
 2669 0054 7B68     		ldr	r3, [r7, #4]
 2670 0056 0121     		movs	r1, #1
 2671 0058 1800     		movs	r0, r3
 2672 005a FFF7FEFF 		bl	VL53L0X_get_info_from_device
 2673 005e 0300     		movs	r3, r0
 2674 0060 2370     		strb	r3, [r4]
 568:Api\core\src/vl53l0x_api.c **** 
 569:Api\core\src/vl53l0x_api.c **** 	/* set the ref spad from NVM */
 570:Api\core\src/vl53l0x_api.c **** 	count	= (uint32_t)VL53L0X_GETDEVICESPECIFICPARAMETER(Dev,
 2675              		.loc 1 570 0
 2676 0062 7A68     		ldr	r2, [r7, #4]
 2677 0064 1423     		movs	r3, #20
ARM GAS  C:\Users\ilya\AppData\Local\Temp\ccpEIuqL.s 			page 58


 2678 0066 FF33     		adds	r3, r3, #255
 2679 0068 D35C     		ldrb	r3, [r2, r3]
 2680 006a 3B66     		str	r3, [r7, #96]
 571:Api\core\src/vl53l0x_api.c **** 		ReferenceSpadCount);
 572:Api\core\src/vl53l0x_api.c **** 	ApertureSpads = VL53L0X_GETDEVICESPECIFICPARAMETER(Dev,
 2681              		.loc 1 572 0
 2682 006c 5F23     		movs	r3, #95
 2683 006e FB18     		adds	r3, r7, r3
 2684 0070 7968     		ldr	r1, [r7, #4]
 2685 0072 8A22     		movs	r2, #138
 2686 0074 5200     		lsls	r2, r2, #1
 2687 0076 8A5C     		ldrb	r2, [r1, r2]
 2688 0078 1A70     		strb	r2, [r3]
 573:Api\core\src/vl53l0x_api.c **** 		ReferenceSpadType);
 574:Api\core\src/vl53l0x_api.c **** 
 575:Api\core\src/vl53l0x_api.c **** 	/* NVM value invalid */
 576:Api\core\src/vl53l0x_api.c **** 	if ((ApertureSpads > 1) ||
 2689              		.loc 1 576 0
 2690 007a 5F23     		movs	r3, #95
 2691 007c FB18     		adds	r3, r7, r3
 2692 007e 1B78     		ldrb	r3, [r3]
 2693 0080 012B     		cmp	r3, #1
 2694 0082 0FD8     		bhi	.L83
 2695              		.loc 1 576 0 is_stmt 0 discriminator 1
 2696 0084 5F23     		movs	r3, #95
 2697 0086 FB18     		adds	r3, r7, r3
 2698 0088 1B78     		ldrb	r3, [r3]
 2699 008a 012B     		cmp	r3, #1
 2700 008c 02D1     		bne	.L84
 577:Api\core\src/vl53l0x_api.c **** 		((ApertureSpads == 1) && (count > 32)) ||
 2701              		.loc 1 577 0 is_stmt 1
 2702 008e 3B6E     		ldr	r3, [r7, #96]
 2703 0090 202B     		cmp	r3, #32
 2704 0092 07D8     		bhi	.L83
 2705              	.L84:
 2706              		.loc 1 577 0 is_stmt 0 discriminator 1
 2707 0094 5F23     		movs	r3, #95
 2708 0096 FB18     		adds	r3, r7, r3
 2709 0098 1B78     		ldrb	r3, [r3]
 2710 009a 002B     		cmp	r3, #0
 2711 009c 0FD1     		bne	.L85
 578:Api\core\src/vl53l0x_api.c **** 		((ApertureSpads == 0) && (count > 12)))
 2712              		.loc 1 578 0 is_stmt 1
 2713 009e 3B6E     		ldr	r3, [r7, #96]
 2714 00a0 0C2B     		cmp	r3, #12
 2715 00a2 0CD9     		bls	.L85
 2716              	.L83:
 579:Api\core\src/vl53l0x_api.c **** 		Status = VL53L0X_perform_ref_spad_management(Dev, &refSpadCount,
 2717              		.loc 1 579 0
 2718 00a4 6F23     		movs	r3, #111
 2719 00a6 FC18     		adds	r4, r7, r3
 2720 00a8 1823     		movs	r3, #24
 2721 00aa FA18     		adds	r2, r7, r3
 2722 00ac 1423     		movs	r3, #20
 2723 00ae F918     		adds	r1, r7, r3
 2724 00b0 7B68     		ldr	r3, [r7, #4]
 2725 00b2 1800     		movs	r0, r3
ARM GAS  C:\Users\ilya\AppData\Local\Temp\ccpEIuqL.s 			page 59


 2726 00b4 FFF7FEFF 		bl	VL53L0X_perform_ref_spad_management
 2727 00b8 0300     		movs	r3, r0
 2728 00ba 2370     		strb	r3, [r4]
 2729 00bc 0BE0     		b	.L86
 2730              	.L85:
 580:Api\core\src/vl53l0x_api.c **** 			&isApertureSpads);
 581:Api\core\src/vl53l0x_api.c **** 	else
 582:Api\core\src/vl53l0x_api.c **** 		Status = VL53L0X_set_reference_spads(Dev, count, ApertureSpads);
 2731              		.loc 1 582 0
 2732 00be 6F23     		movs	r3, #111
 2733 00c0 FC18     		adds	r4, r7, r3
 2734 00c2 5F23     		movs	r3, #95
 2735 00c4 FB18     		adds	r3, r7, r3
 2736 00c6 1A78     		ldrb	r2, [r3]
 2737 00c8 396E     		ldr	r1, [r7, #96]
 2738 00ca 7B68     		ldr	r3, [r7, #4]
 2739 00cc 1800     		movs	r0, r3
 2740 00ce FFF7FEFF 		bl	VL53L0X_set_reference_spads
 2741 00d2 0300     		movs	r3, r0
 2742 00d4 2370     		strb	r3, [r4]
 2743              	.L86:
 583:Api\core\src/vl53l0x_api.c **** 
 584:Api\core\src/vl53l0x_api.c **** 
 585:Api\core\src/vl53l0x_api.c **** 	/* Initialize tuning settings buffer to prevent compiler warning. */
 586:Api\core\src/vl53l0x_api.c **** 	pTuningSettingBuffer = DefaultTuningSettings;
 2744              		.loc 1 586 0
 2745 00d6 BD4B     		ldr	r3, .L109
 2746 00d8 BB66     		str	r3, [r7, #104]
 587:Api\core\src/vl53l0x_api.c **** 
 588:Api\core\src/vl53l0x_api.c **** 	if (Status == VL53L0X_ERROR_NONE) {
 2747              		.loc 1 588 0
 2748 00da 6F23     		movs	r3, #111
 2749 00dc FB18     		adds	r3, r7, r3
 2750 00de 1B78     		ldrb	r3, [r3]
 2751 00e0 5BB2     		sxtb	r3, r3
 2752 00e2 002B     		cmp	r3, #0
 2753 00e4 13D1     		bne	.L87
 589:Api\core\src/vl53l0x_api.c **** 		UseInternalTuningSettings = PALDevDataGet(Dev,
 2754              		.loc 1 589 0
 2755 00e6 6723     		movs	r3, #103
 2756 00e8 FB18     		adds	r3, r7, r3
 2757 00ea 7968     		ldr	r1, [r7, #4]
 2758 00ec A822     		movs	r2, #168
 2759 00ee 5200     		lsls	r2, r2, #1
 2760 00f0 8A5C     		ldrb	r2, [r1, r2]
 2761 00f2 1A70     		strb	r2, [r3]
 590:Api\core\src/vl53l0x_api.c **** 			UseInternalTuningSettings);
 591:Api\core\src/vl53l0x_api.c **** 
 592:Api\core\src/vl53l0x_api.c **** 		if (UseInternalTuningSettings == 0)
 2762              		.loc 1 592 0
 2763 00f4 6723     		movs	r3, #103
 2764 00f6 FB18     		adds	r3, r7, r3
 2765 00f8 1B78     		ldrb	r3, [r3]
 2766 00fa 002B     		cmp	r3, #0
 2767 00fc 05D1     		bne	.L88
 593:Api\core\src/vl53l0x_api.c **** 			pTuningSettingBuffer = PALDevDataGet(Dev,
 2768              		.loc 1 593 0
ARM GAS  C:\Users\ilya\AppData\Local\Temp\ccpEIuqL.s 			page 60


 2769 00fe 7A68     		ldr	r2, [r7, #4]
 2770 0100 A623     		movs	r3, #166
 2771 0102 5B00     		lsls	r3, r3, #1
 2772 0104 D358     		ldr	r3, [r2, r3]
 2773 0106 BB66     		str	r3, [r7, #104]
 2774 0108 01E0     		b	.L87
 2775              	.L88:
 594:Api\core\src/vl53l0x_api.c **** 				pTuningSettingsPointer);
 595:Api\core\src/vl53l0x_api.c **** 		else
 596:Api\core\src/vl53l0x_api.c **** 			pTuningSettingBuffer = DefaultTuningSettings;
 2776              		.loc 1 596 0
 2777 010a B04B     		ldr	r3, .L109
 2778 010c BB66     		str	r3, [r7, #104]
 2779              	.L87:
 597:Api\core\src/vl53l0x_api.c **** 
 598:Api\core\src/vl53l0x_api.c **** 	}
 599:Api\core\src/vl53l0x_api.c **** 
 600:Api\core\src/vl53l0x_api.c **** 	if (Status == VL53L0X_ERROR_NONE)
 2780              		.loc 1 600 0
 2781 010e 6F23     		movs	r3, #111
 2782 0110 FB18     		adds	r3, r7, r3
 2783 0112 1B78     		ldrb	r3, [r3]
 2784 0114 5BB2     		sxtb	r3, r3
 2785 0116 002B     		cmp	r3, #0
 2786 0118 09D1     		bne	.L89
 601:Api\core\src/vl53l0x_api.c **** 		Status = VL53L0X_load_tuning_settings(Dev, pTuningSettingBuffer);
 2787              		.loc 1 601 0
 2788 011a 6F23     		movs	r3, #111
 2789 011c FC18     		adds	r4, r7, r3
 2790 011e BA6E     		ldr	r2, [r7, #104]
 2791 0120 7B68     		ldr	r3, [r7, #4]
 2792 0122 1100     		movs	r1, r2
 2793 0124 1800     		movs	r0, r3
 2794 0126 FFF7FEFF 		bl	VL53L0X_load_tuning_settings
 2795 012a 0300     		movs	r3, r0
 2796 012c 2370     		strb	r3, [r4]
 2797              	.L89:
 602:Api\core\src/vl53l0x_api.c **** 
 603:Api\core\src/vl53l0x_api.c **** 
 604:Api\core\src/vl53l0x_api.c **** 	/* Set interrupt config to new sample ready */
 605:Api\core\src/vl53l0x_api.c **** 	if (Status == VL53L0X_ERROR_NONE) {
 2798              		.loc 1 605 0
 2799 012e 6F23     		movs	r3, #111
 2800 0130 FB18     		adds	r3, r7, r3
 2801 0132 1B78     		ldrb	r3, [r3]
 2802 0134 5BB2     		sxtb	r3, r3
 2803 0136 002B     		cmp	r3, #0
 2804 0138 0BD1     		bne	.L90
 606:Api\core\src/vl53l0x_api.c **** 		Status = VL53L0X_SetGpioConfig(Dev, 0, 0,
 2805              		.loc 1 606 0
 2806 013a 6F23     		movs	r3, #111
 2807 013c FC18     		adds	r4, r7, r3
 2808 013e 7868     		ldr	r0, [r7, #4]
 2809 0140 0023     		movs	r3, #0
 2810 0142 0093     		str	r3, [sp]
 2811 0144 0423     		movs	r3, #4
 2812 0146 0022     		movs	r2, #0
ARM GAS  C:\Users\ilya\AppData\Local\Temp\ccpEIuqL.s 			page 61


 2813 0148 0021     		movs	r1, #0
 2814 014a FFF7FEFF 		bl	VL53L0X_SetGpioConfig
 2815 014e 0300     		movs	r3, r0
 2816 0150 2370     		strb	r3, [r4]
 2817              	.L90:
 607:Api\core\src/vl53l0x_api.c **** 		VL53L0X_REG_SYSTEM_INTERRUPT_GPIO_NEW_SAMPLE_READY,
 608:Api\core\src/vl53l0x_api.c **** 		VL53L0X_INTERRUPTPOLARITY_LOW);
 609:Api\core\src/vl53l0x_api.c **** 	}
 610:Api\core\src/vl53l0x_api.c **** 
 611:Api\core\src/vl53l0x_api.c **** 	if (Status == VL53L0X_ERROR_NONE) {
 2818              		.loc 1 611 0
 2819 0152 6F23     		movs	r3, #111
 2820 0154 FB18     		adds	r3, r7, r3
 2821 0156 1B78     		ldrb	r3, [r3]
 2822 0158 5BB2     		sxtb	r3, r3
 2823 015a 002B     		cmp	r3, #0
 2824 015c 28D1     		bne	.L91
 612:Api\core\src/vl53l0x_api.c **** 		Status = VL53L0X_WrByte(Dev, 0xFF, 0x01);
 2825              		.loc 1 612 0
 2826 015e 6F23     		movs	r3, #111
 2827 0160 FC18     		adds	r4, r7, r3
 2828 0162 7B68     		ldr	r3, [r7, #4]
 2829 0164 0122     		movs	r2, #1
 2830 0166 FF21     		movs	r1, #255
 2831 0168 1800     		movs	r0, r3
 2832 016a FFF7FEFF 		bl	VL53L0X_WrByte
 2833 016e 0300     		movs	r3, r0
 2834 0170 2370     		strb	r3, [r4]
 613:Api\core\src/vl53l0x_api.c **** 		Status |= VL53L0X_RdWord(Dev, 0x84, &tempword);
 2835              		.loc 1 613 0
 2836 0172 1A23     		movs	r3, #26
 2837 0174 FA18     		adds	r2, r7, r3
 2838 0176 7B68     		ldr	r3, [r7, #4]
 2839 0178 8421     		movs	r1, #132
 2840 017a 1800     		movs	r0, r3
 2841 017c FFF7FEFF 		bl	VL53L0X_RdWord
 2842 0180 0300     		movs	r3, r0
 2843 0182 1900     		movs	r1, r3
 2844 0184 6F23     		movs	r3, #111
 2845 0186 FB18     		adds	r3, r7, r3
 2846 0188 6F22     		movs	r2, #111
 2847 018a BA18     		adds	r2, r7, r2
 2848 018c 1278     		ldrb	r2, [r2]
 2849 018e 0A43     		orrs	r2, r1
 2850 0190 1A70     		strb	r2, [r3]
 614:Api\core\src/vl53l0x_api.c **** 		Status |= VL53L0X_WrByte(Dev, 0xFF, 0x00);
 2851              		.loc 1 614 0
 2852 0192 7B68     		ldr	r3, [r7, #4]
 2853 0194 0022     		movs	r2, #0
 2854 0196 FF21     		movs	r1, #255
 2855 0198 1800     		movs	r0, r3
 2856 019a FFF7FEFF 		bl	VL53L0X_WrByte
 2857 019e 0300     		movs	r3, r0
 2858 01a0 1900     		movs	r1, r3
 2859 01a2 6F23     		movs	r3, #111
 2860 01a4 FB18     		adds	r3, r7, r3
 2861 01a6 6F22     		movs	r2, #111
ARM GAS  C:\Users\ilya\AppData\Local\Temp\ccpEIuqL.s 			page 62


 2862 01a8 BA18     		adds	r2, r7, r2
 2863 01aa 1278     		ldrb	r2, [r2]
 2864 01ac 0A43     		orrs	r2, r1
 2865 01ae 1A70     		strb	r2, [r3]
 2866              	.L91:
 615:Api\core\src/vl53l0x_api.c **** 	}
 616:Api\core\src/vl53l0x_api.c **** 
 617:Api\core\src/vl53l0x_api.c **** 	if (Status == VL53L0X_ERROR_NONE) {
 2867              		.loc 1 617 0
 2868 01b0 6F23     		movs	r3, #111
 2869 01b2 FB18     		adds	r3, r7, r3
 2870 01b4 1B78     		ldrb	r3, [r3]
 2871 01b6 5BB2     		sxtb	r3, r3
 2872 01b8 002B     		cmp	r3, #0
 2873 01ba 07D1     		bne	.L92
 618:Api\core\src/vl53l0x_api.c **** 		VL53L0X_SETDEVICESPECIFICPARAMETER(Dev, OscFrequencyMHz,
 2874              		.loc 1 618 0
 2875 01bc 1A23     		movs	r3, #26
 2876 01be FB18     		adds	r3, r7, r3
 2877 01c0 1B88     		ldrh	r3, [r3]
 2878 01c2 1B01     		lsls	r3, r3, #4
 2879 01c4 1900     		movs	r1, r3
 2880 01c6 7B68     		ldr	r3, [r7, #4]
 2881 01c8 D422     		movs	r2, #212
 2882 01ca 9950     		str	r1, [r3, r2]
 2883              	.L92:
 619:Api\core\src/vl53l0x_api.c **** 			VL53L0X_FIXPOINT412TOFIXPOINT1616(tempword));
 620:Api\core\src/vl53l0x_api.c **** 	}
 621:Api\core\src/vl53l0x_api.c **** 
 622:Api\core\src/vl53l0x_api.c **** 	/* After static init, some device parameters may be changed,
 623:Api\core\src/vl53l0x_api.c **** 	 * so update them */
 624:Api\core\src/vl53l0x_api.c **** 	if (Status == VL53L0X_ERROR_NONE)
 2884              		.loc 1 624 0
 2885 01cc 6F23     		movs	r3, #111
 2886 01ce FB18     		adds	r3, r7, r3
 2887 01d0 1B78     		ldrb	r3, [r3]
 2888 01d2 5BB2     		sxtb	r3, r3
 2889 01d4 002B     		cmp	r3, #0
 2890 01d6 0AD1     		bne	.L93
 625:Api\core\src/vl53l0x_api.c **** 		Status = VL53L0X_GetDeviceParameters(Dev, &CurrentParameters);
 2891              		.loc 1 625 0
 2892 01d8 6F23     		movs	r3, #111
 2893 01da FC18     		adds	r4, r7, r3
 2894 01dc 1C23     		movs	r3, #28
 2895 01de FA18     		adds	r2, r7, r3
 2896 01e0 7B68     		ldr	r3, [r7, #4]
 2897 01e2 1100     		movs	r1, r2
 2898 01e4 1800     		movs	r0, r3
 2899 01e6 FFF7FEFF 		bl	VL53L0X_GetDeviceParameters
 2900 01ea 0300     		movs	r3, r0
 2901 01ec 2370     		strb	r3, [r4]
 2902              	.L93:
 626:Api\core\src/vl53l0x_api.c **** 
 627:Api\core\src/vl53l0x_api.c **** 
 628:Api\core\src/vl53l0x_api.c **** 	if (Status == VL53L0X_ERROR_NONE) {
 2903              		.loc 1 628 0
 2904 01ee 6F23     		movs	r3, #111
ARM GAS  C:\Users\ilya\AppData\Local\Temp\ccpEIuqL.s 			page 63


 2905 01f0 FB18     		adds	r3, r7, r3
 2906 01f2 1B78     		ldrb	r3, [r3]
 2907 01f4 5BB2     		sxtb	r3, r3
 2908 01f6 002B     		cmp	r3, #0
 2909 01f8 17D1     		bne	.L94
 629:Api\core\src/vl53l0x_api.c **** 		Status = VL53L0X_GetFractionEnable(Dev, &tempbyte);
 2910              		.loc 1 629 0
 2911 01fa 6F23     		movs	r3, #111
 2912 01fc FC18     		adds	r4, r7, r3
 2913 01fe 1923     		movs	r3, #25
 2914 0200 FA18     		adds	r2, r7, r3
 2915 0202 7B68     		ldr	r3, [r7, #4]
 2916 0204 1100     		movs	r1, r2
 2917 0206 1800     		movs	r0, r3
 2918 0208 FFF7FEFF 		bl	VL53L0X_GetFractionEnable
 2919 020c 0300     		movs	r3, r0
 2920 020e 2370     		strb	r3, [r4]
 630:Api\core\src/vl53l0x_api.c **** 		if (Status == VL53L0X_ERROR_NONE)
 2921              		.loc 1 630 0
 2922 0210 6F23     		movs	r3, #111
 2923 0212 FB18     		adds	r3, r7, r3
 2924 0214 1B78     		ldrb	r3, [r3]
 2925 0216 5BB2     		sxtb	r3, r3
 2926 0218 002B     		cmp	r3, #0
 2927 021a 06D1     		bne	.L94
 631:Api\core\src/vl53l0x_api.c **** 			PALDevDataSet(Dev, RangeFractionalEnable, tempbyte);
 2928              		.loc 1 631 0
 2929 021c 1923     		movs	r3, #25
 2930 021e FB18     		adds	r3, r7, r3
 2931 0220 1978     		ldrb	r1, [r3]
 2932 0222 7A68     		ldr	r2, [r7, #4]
 2933 0224 3223     		movs	r3, #50
 2934 0226 FF33     		adds	r3, r3, #255
 2935 0228 D154     		strb	r1, [r2, r3]
 2936              	.L94:
 632:Api\core\src/vl53l0x_api.c **** 
 633:Api\core\src/vl53l0x_api.c **** 	}
 634:Api\core\src/vl53l0x_api.c **** 
 635:Api\core\src/vl53l0x_api.c **** 	if (Status == VL53L0X_ERROR_NONE)
 2937              		.loc 1 635 0
 2938 022a 6F23     		movs	r3, #111
 2939 022c FB18     		adds	r3, r7, r3
 2940 022e 1B78     		ldrb	r3, [r3]
 2941 0230 5BB2     		sxtb	r3, r3
 2942 0232 002B     		cmp	r3, #0
 2943 0234 08D1     		bne	.L95
 636:Api\core\src/vl53l0x_api.c **** 		PALDevDataSet(Dev, CurrentParameters, CurrentParameters);
 2944              		.loc 1 636 0
 2945 0236 7B68     		ldr	r3, [r7, #4]
 2946 0238 1C22     		movs	r2, #28
 2947 023a BA18     		adds	r2, r7, r2
 2948 023c 1033     		adds	r3, r3, #16
 2949 023e 1100     		movs	r1, r2
 2950 0240 4022     		movs	r2, #64
 2951 0242 1800     		movs	r0, r3
 2952 0244 FFF7FEFF 		bl	memcpy
 2953              	.L95:
ARM GAS  C:\Users\ilya\AppData\Local\Temp\ccpEIuqL.s 			page 64


 637:Api\core\src/vl53l0x_api.c **** 
 638:Api\core\src/vl53l0x_api.c **** 
 639:Api\core\src/vl53l0x_api.c **** 	/* read the sequence config and save it */
 640:Api\core\src/vl53l0x_api.c **** 	if (Status == VL53L0X_ERROR_NONE) {
 2954              		.loc 1 640 0
 2955 0248 6F23     		movs	r3, #111
 2956 024a FB18     		adds	r3, r7, r3
 2957 024c 1B78     		ldrb	r3, [r3]
 2958 024e 5BB2     		sxtb	r3, r3
 2959 0250 002B     		cmp	r3, #0
 2960 0252 17D1     		bne	.L96
 641:Api\core\src/vl53l0x_api.c **** 		Status = VL53L0X_RdByte(Dev,
 2961              		.loc 1 641 0
 2962 0254 6F23     		movs	r3, #111
 2963 0256 FC18     		adds	r4, r7, r3
 2964 0258 1923     		movs	r3, #25
 2965 025a FA18     		adds	r2, r7, r3
 2966 025c 7B68     		ldr	r3, [r7, #4]
 2967 025e 0121     		movs	r1, #1
 2968 0260 1800     		movs	r0, r3
 2969 0262 FFF7FEFF 		bl	VL53L0X_RdByte
 2970 0266 0300     		movs	r3, r0
 2971 0268 2370     		strb	r3, [r4]
 642:Api\core\src/vl53l0x_api.c **** 		VL53L0X_REG_SYSTEM_SEQUENCE_CONFIG, &tempbyte);
 643:Api\core\src/vl53l0x_api.c **** 		if (Status == VL53L0X_ERROR_NONE)
 2972              		.loc 1 643 0
 2973 026a 6F23     		movs	r3, #111
 2974 026c FB18     		adds	r3, r7, r3
 2975 026e 1B78     		ldrb	r3, [r3]
 2976 0270 5BB2     		sxtb	r3, r3
 2977 0272 002B     		cmp	r3, #0
 2978 0274 06D1     		bne	.L96
 644:Api\core\src/vl53l0x_api.c **** 			PALDevDataSet(Dev, SequenceConfig, tempbyte);
 2979              		.loc 1 644 0
 2980 0276 1923     		movs	r3, #25
 2981 0278 FB18     		adds	r3, r7, r3
 2982 027a 1978     		ldrb	r1, [r3]
 2983 027c 7A68     		ldr	r2, [r7, #4]
 2984 027e 9823     		movs	r3, #152
 2985 0280 5B00     		lsls	r3, r3, #1
 2986 0282 D154     		strb	r1, [r2, r3]
 2987              	.L96:
 645:Api\core\src/vl53l0x_api.c **** 
 646:Api\core\src/vl53l0x_api.c **** 	}
 647:Api\core\src/vl53l0x_api.c **** 
 648:Api\core\src/vl53l0x_api.c **** 	/* Disable MSRC and TCC by default */
 649:Api\core\src/vl53l0x_api.c **** 	if (Status == VL53L0X_ERROR_NONE)
 2988              		.loc 1 649 0
 2989 0284 6F23     		movs	r3, #111
 2990 0286 FB18     		adds	r3, r7, r3
 2991 0288 1B78     		ldrb	r3, [r3]
 2992 028a 5BB2     		sxtb	r3, r3
 2993 028c 002B     		cmp	r3, #0
 2994 028e 09D1     		bne	.L97
 650:Api\core\src/vl53l0x_api.c **** 		Status = VL53L0X_SetSequenceStepEnable(Dev,
 2995              		.loc 1 650 0
 2996 0290 6F23     		movs	r3, #111
ARM GAS  C:\Users\ilya\AppData\Local\Temp\ccpEIuqL.s 			page 65


 2997 0292 FC18     		adds	r4, r7, r3
 2998 0294 7B68     		ldr	r3, [r7, #4]
 2999 0296 0022     		movs	r2, #0
 3000 0298 0021     		movs	r1, #0
 3001 029a 1800     		movs	r0, r3
 3002 029c FFF7FEFF 		bl	VL53L0X_SetSequenceStepEnable
 3003 02a0 0300     		movs	r3, r0
 3004 02a2 2370     		strb	r3, [r4]
 3005              	.L97:
 651:Api\core\src/vl53l0x_api.c **** 					VL53L0X_SEQUENCESTEP_TCC, 0);
 652:Api\core\src/vl53l0x_api.c **** 
 653:Api\core\src/vl53l0x_api.c **** 
 654:Api\core\src/vl53l0x_api.c **** 	if (Status == VL53L0X_ERROR_NONE)
 3006              		.loc 1 654 0
 3007 02a4 6F23     		movs	r3, #111
 3008 02a6 FB18     		adds	r3, r7, r3
 3009 02a8 1B78     		ldrb	r3, [r3]
 3010 02aa 5BB2     		sxtb	r3, r3
 3011 02ac 002B     		cmp	r3, #0
 3012 02ae 09D1     		bne	.L98
 655:Api\core\src/vl53l0x_api.c **** 		Status = VL53L0X_SetSequenceStepEnable(Dev,
 3013              		.loc 1 655 0
 3014 02b0 6F23     		movs	r3, #111
 3015 02b2 FC18     		adds	r4, r7, r3
 3016 02b4 7B68     		ldr	r3, [r7, #4]
 3017 02b6 0022     		movs	r2, #0
 3018 02b8 0221     		movs	r1, #2
 3019 02ba 1800     		movs	r0, r3
 3020 02bc FFF7FEFF 		bl	VL53L0X_SetSequenceStepEnable
 3021 02c0 0300     		movs	r3, r0
 3022 02c2 2370     		strb	r3, [r4]
 3023              	.L98:
 656:Api\core\src/vl53l0x_api.c **** 		VL53L0X_SEQUENCESTEP_MSRC, 0);
 657:Api\core\src/vl53l0x_api.c **** 
 658:Api\core\src/vl53l0x_api.c **** 
 659:Api\core\src/vl53l0x_api.c **** 	/* Set PAL State to standby */
 660:Api\core\src/vl53l0x_api.c **** 	if (Status == VL53L0X_ERROR_NONE)
 3024              		.loc 1 660 0
 3025 02c4 6F23     		movs	r3, #111
 3026 02c6 FB18     		adds	r3, r7, r3
 3027 02c8 1B78     		ldrb	r3, [r3]
 3028 02ca 5BB2     		sxtb	r3, r3
 3029 02cc 002B     		cmp	r3, #0
 3030 02ce 04D1     		bne	.L99
 661:Api\core\src/vl53l0x_api.c **** 		PALDevDataSet(Dev, PalState, VL53L0X_STATE_IDLE);
 3031              		.loc 1 661 0
 3032 02d0 7A68     		ldr	r2, [r7, #4]
 3033 02d2 9923     		movs	r3, #153
 3034 02d4 5B00     		lsls	r3, r3, #1
 3035 02d6 0321     		movs	r1, #3
 3036 02d8 D154     		strb	r1, [r2, r3]
 3037              	.L99:
 662:Api\core\src/vl53l0x_api.c **** 
 663:Api\core\src/vl53l0x_api.c **** 
 664:Api\core\src/vl53l0x_api.c **** 
 665:Api\core\src/vl53l0x_api.c **** 	/* Store pre-range vcsel period */
 666:Api\core\src/vl53l0x_api.c **** 	if (Status == VL53L0X_ERROR_NONE) {
ARM GAS  C:\Users\ilya\AppData\Local\Temp\ccpEIuqL.s 			page 66


 3038              		.loc 1 666 0
 3039 02da 6F23     		movs	r3, #111
 3040 02dc FB18     		adds	r3, r7, r3
 3041 02de 1B78     		ldrb	r3, [r3]
 3042 02e0 5BB2     		sxtb	r3, r3
 3043 02e2 002B     		cmp	r3, #0
 3044 02e4 0AD1     		bne	.L100
 667:Api\core\src/vl53l0x_api.c **** 		Status = VL53L0X_GetVcselPulsePeriod(
 3045              		.loc 1 667 0
 3046 02e6 6F23     		movs	r3, #111
 3047 02e8 FC18     		adds	r4, r7, r3
 3048 02ea 1323     		movs	r3, #19
 3049 02ec FA18     		adds	r2, r7, r3
 3050 02ee 7B68     		ldr	r3, [r7, #4]
 3051 02f0 0021     		movs	r1, #0
 3052 02f2 1800     		movs	r0, r3
 3053 02f4 FFF7FEFF 		bl	VL53L0X_GetVcselPulsePeriod
 3054 02f8 0300     		movs	r3, r0
 3055 02fa 2370     		strb	r3, [r4]
 3056              	.L100:
 668:Api\core\src/vl53l0x_api.c **** 			Dev,
 669:Api\core\src/vl53l0x_api.c **** 			VL53L0X_VCSEL_PERIOD_PRE_RANGE,
 670:Api\core\src/vl53l0x_api.c **** 			&vcselPulsePeriodPCLK);
 671:Api\core\src/vl53l0x_api.c **** 	}
 672:Api\core\src/vl53l0x_api.c **** 
 673:Api\core\src/vl53l0x_api.c **** 	if (Status == VL53L0X_ERROR_NONE) {
 3057              		.loc 1 673 0
 3058 02fc 6F23     		movs	r3, #111
 3059 02fe FB18     		adds	r3, r7, r3
 3060 0300 1B78     		ldrb	r3, [r3]
 3061 0302 5BB2     		sxtb	r3, r3
 3062 0304 002B     		cmp	r3, #0
 3063 0306 05D1     		bne	.L101
 674:Api\core\src/vl53l0x_api.c **** 			VL53L0X_SETDEVICESPECIFICPARAMETER(
 3064              		.loc 1 674 0
 3065 0308 1323     		movs	r3, #19
 3066 030a FB18     		adds	r3, r7, r3
 3067 030c 1978     		ldrb	r1, [r3]
 3068 030e 7B68     		ldr	r3, [r7, #4]
 3069 0310 E822     		movs	r2, #232
 3070 0312 9954     		strb	r1, [r3, r2]
 3071              	.L101:
 675:Api\core\src/vl53l0x_api.c **** 				Dev,
 676:Api\core\src/vl53l0x_api.c **** 				PreRangeVcselPulsePeriod,
 677:Api\core\src/vl53l0x_api.c **** 				vcselPulsePeriodPCLK);
 678:Api\core\src/vl53l0x_api.c **** 	}
 679:Api\core\src/vl53l0x_api.c **** 
 680:Api\core\src/vl53l0x_api.c **** 	/* Store final-range vcsel period */
 681:Api\core\src/vl53l0x_api.c **** 	if (Status == VL53L0X_ERROR_NONE) {
 3072              		.loc 1 681 0
 3073 0314 6F23     		movs	r3, #111
 3074 0316 FB18     		adds	r3, r7, r3
 3075 0318 1B78     		ldrb	r3, [r3]
 3076 031a 5BB2     		sxtb	r3, r3
 3077 031c 002B     		cmp	r3, #0
 3078 031e 0AD1     		bne	.L102
 682:Api\core\src/vl53l0x_api.c **** 		Status = VL53L0X_GetVcselPulsePeriod(
ARM GAS  C:\Users\ilya\AppData\Local\Temp\ccpEIuqL.s 			page 67


 3079              		.loc 1 682 0
 3080 0320 6F23     		movs	r3, #111
 3081 0322 FC18     		adds	r4, r7, r3
 3082 0324 1323     		movs	r3, #19
 3083 0326 FA18     		adds	r2, r7, r3
 3084 0328 7B68     		ldr	r3, [r7, #4]
 3085 032a 0121     		movs	r1, #1
 3086 032c 1800     		movs	r0, r3
 3087 032e FFF7FEFF 		bl	VL53L0X_GetVcselPulsePeriod
 3088 0332 0300     		movs	r3, r0
 3089 0334 2370     		strb	r3, [r4]
 3090              	.L102:
 683:Api\core\src/vl53l0x_api.c **** 			Dev,
 684:Api\core\src/vl53l0x_api.c **** 			VL53L0X_VCSEL_PERIOD_FINAL_RANGE,
 685:Api\core\src/vl53l0x_api.c **** 			&vcselPulsePeriodPCLK);
 686:Api\core\src/vl53l0x_api.c **** 	}
 687:Api\core\src/vl53l0x_api.c **** 
 688:Api\core\src/vl53l0x_api.c **** 	if (Status == VL53L0X_ERROR_NONE) {
 3091              		.loc 1 688 0
 3092 0336 6F23     		movs	r3, #111
 3093 0338 FB18     		adds	r3, r7, r3
 3094 033a 1B78     		ldrb	r3, [r3]
 3095 033c 5BB2     		sxtb	r3, r3
 3096 033e 002B     		cmp	r3, #0
 3097 0340 05D1     		bne	.L103
 689:Api\core\src/vl53l0x_api.c **** 			VL53L0X_SETDEVICESPECIFICPARAMETER(
 3098              		.loc 1 689 0
 3099 0342 1323     		movs	r3, #19
 3100 0344 FB18     		adds	r3, r7, r3
 3101 0346 1978     		ldrb	r1, [r3]
 3102 0348 7B68     		ldr	r3, [r7, #4]
 3103 034a E022     		movs	r2, #224
 3104 034c 9954     		strb	r1, [r3, r2]
 3105              	.L103:
 690:Api\core\src/vl53l0x_api.c **** 				Dev,
 691:Api\core\src/vl53l0x_api.c **** 				FinalRangeVcselPulsePeriod,
 692:Api\core\src/vl53l0x_api.c **** 				vcselPulsePeriodPCLK);
 693:Api\core\src/vl53l0x_api.c **** 	}
 694:Api\core\src/vl53l0x_api.c **** 
 695:Api\core\src/vl53l0x_api.c **** 	/* Store pre-range timeout */
 696:Api\core\src/vl53l0x_api.c **** 	if (Status == VL53L0X_ERROR_NONE) {
 3106              		.loc 1 696 0
 3107 034e 6F23     		movs	r3, #111
 3108 0350 FB18     		adds	r3, r7, r3
 3109 0352 1B78     		ldrb	r3, [r3]
 3110 0354 5BB2     		sxtb	r3, r3
 3111 0356 002B     		cmp	r3, #0
 3112 0358 0AD1     		bne	.L104
 697:Api\core\src/vl53l0x_api.c **** 		Status = get_sequence_step_timeout(
 3113              		.loc 1 697 0
 3114 035a 6F23     		movs	r3, #111
 3115 035c FC18     		adds	r4, r7, r3
 3116 035e 0C23     		movs	r3, #12
 3117 0360 FA18     		adds	r2, r7, r3
 3118 0362 7B68     		ldr	r3, [r7, #4]
 3119 0364 0321     		movs	r1, #3
 3120 0366 1800     		movs	r0, r3
ARM GAS  C:\Users\ilya\AppData\Local\Temp\ccpEIuqL.s 			page 68


 3121 0368 FFF7FEFF 		bl	get_sequence_step_timeout
 3122 036c 0300     		movs	r3, r0
 3123 036e 2370     		strb	r3, [r4]
 3124              	.L104:
 698:Api\core\src/vl53l0x_api.c **** 			Dev,
 699:Api\core\src/vl53l0x_api.c **** 			VL53L0X_SEQUENCESTEP_PRE_RANGE,
 700:Api\core\src/vl53l0x_api.c **** 			&seqTimeoutMicroSecs);
 701:Api\core\src/vl53l0x_api.c **** 	}
 702:Api\core\src/vl53l0x_api.c **** 
 703:Api\core\src/vl53l0x_api.c **** 	if (Status == VL53L0X_ERROR_NONE) {
 3125              		.loc 1 703 0
 3126 0370 6F23     		movs	r3, #111
 3127 0372 FB18     		adds	r3, r7, r3
 3128 0374 1B78     		ldrb	r3, [r3]
 3129 0376 5BB2     		sxtb	r3, r3
 3130 0378 002B     		cmp	r3, #0
 3131 037a 03D1     		bne	.L105
 704:Api\core\src/vl53l0x_api.c **** 		VL53L0X_SETDEVICESPECIFICPARAMETER(
 3132              		.loc 1 704 0
 3133 037c FA68     		ldr	r2, [r7, #12]
 3134 037e 7B68     		ldr	r3, [r7, #4]
 3135 0380 E421     		movs	r1, #228
 3136 0382 5A50     		str	r2, [r3, r1]
 3137              	.L105:
 705:Api\core\src/vl53l0x_api.c **** 			Dev,
 706:Api\core\src/vl53l0x_api.c **** 			PreRangeTimeoutMicroSecs,
 707:Api\core\src/vl53l0x_api.c **** 			seqTimeoutMicroSecs);
 708:Api\core\src/vl53l0x_api.c **** 	}
 709:Api\core\src/vl53l0x_api.c **** 
 710:Api\core\src/vl53l0x_api.c **** 	/* Store final-range timeout */
 711:Api\core\src/vl53l0x_api.c **** 	if (Status == VL53L0X_ERROR_NONE) {
 3138              		.loc 1 711 0
 3139 0384 6F23     		movs	r3, #111
 3140 0386 FB18     		adds	r3, r7, r3
 3141 0388 1B78     		ldrb	r3, [r3]
 3142 038a 5BB2     		sxtb	r3, r3
 3143 038c 002B     		cmp	r3, #0
 3144 038e 0AD1     		bne	.L106
 712:Api\core\src/vl53l0x_api.c **** 		Status = get_sequence_step_timeout(
 3145              		.loc 1 712 0
 3146 0390 6F23     		movs	r3, #111
 3147 0392 FC18     		adds	r4, r7, r3
 3148 0394 0C23     		movs	r3, #12
 3149 0396 FA18     		adds	r2, r7, r3
 3150 0398 7B68     		ldr	r3, [r7, #4]
 3151 039a 0421     		movs	r1, #4
 3152 039c 1800     		movs	r0, r3
 3153 039e FFF7FEFF 		bl	get_sequence_step_timeout
 3154 03a2 0300     		movs	r3, r0
 3155 03a4 2370     		strb	r3, [r4]
 3156              	.L106:
 713:Api\core\src/vl53l0x_api.c **** 			Dev,
 714:Api\core\src/vl53l0x_api.c **** 			VL53L0X_SEQUENCESTEP_FINAL_RANGE,
 715:Api\core\src/vl53l0x_api.c **** 			&seqTimeoutMicroSecs);
 716:Api\core\src/vl53l0x_api.c **** 	}
 717:Api\core\src/vl53l0x_api.c **** 
 718:Api\core\src/vl53l0x_api.c **** 	if (Status == VL53L0X_ERROR_NONE) {
ARM GAS  C:\Users\ilya\AppData\Local\Temp\ccpEIuqL.s 			page 69


 3157              		.loc 1 718 0
 3158 03a6 6F23     		movs	r3, #111
 3159 03a8 FB18     		adds	r3, r7, r3
 3160 03aa 1B78     		ldrb	r3, [r3]
 3161 03ac 5BB2     		sxtb	r3, r3
 3162 03ae 002B     		cmp	r3, #0
 3163 03b0 03D1     		bne	.L107
 719:Api\core\src/vl53l0x_api.c **** 		VL53L0X_SETDEVICESPECIFICPARAMETER(
 3164              		.loc 1 719 0
 3165 03b2 FA68     		ldr	r2, [r7, #12]
 3166 03b4 7B68     		ldr	r3, [r7, #4]
 3167 03b6 DC21     		movs	r1, #220
 3168 03b8 5A50     		str	r2, [r3, r1]
 3169              	.L107:
 720:Api\core\src/vl53l0x_api.c **** 			Dev,
 721:Api\core\src/vl53l0x_api.c **** 			FinalRangeTimeoutMicroSecs,
 722:Api\core\src/vl53l0x_api.c **** 			seqTimeoutMicroSecs);
 723:Api\core\src/vl53l0x_api.c **** 	}
 724:Api\core\src/vl53l0x_api.c **** 
 725:Api\core\src/vl53l0x_api.c **** 	LOG_FUNCTION_END(Status);
 726:Api\core\src/vl53l0x_api.c **** 	return Status;
 3170              		.loc 1 726 0
 3171 03ba 6F23     		movs	r3, #111
 3172 03bc FB18     		adds	r3, r7, r3
 3173 03be 1B78     		ldrb	r3, [r3]
 3174 03c0 5BB2     		sxtb	r3, r3
 727:Api\core\src/vl53l0x_api.c **** }
 3175              		.loc 1 727 0
 3176 03c2 1800     		movs	r0, r3
 3177 03c4 BD46     		mov	sp, r7
 3178 03c6 1DB0     		add	sp, sp, #116
 3179              		@ sp needed
 3180 03c8 90BD     		pop	{r4, r7, pc}
 3181              	.L110:
 3182 03ca C046     		.align	2
 3183              	.L109:
 3184 03cc 00000000 		.word	DefaultTuningSettings
 3185              		.cfi_endproc
 3186              	.LFE24:
 3187              		.size	VL53L0X_StaticInit, .-VL53L0X_StaticInit
 3188              		.section	.text.VL53L0X_WaitDeviceBooted,"ax",%progbits
 3189              		.align	2
 3190              		.global	VL53L0X_WaitDeviceBooted
 3191              		.code	16
 3192              		.thumb_func
 3193              		.type	VL53L0X_WaitDeviceBooted, %function
 3194              	VL53L0X_WaitDeviceBooted:
 3195              	.LFB25:
 728:Api\core\src/vl53l0x_api.c **** 
 729:Api\core\src/vl53l0x_api.c **** VL53L0X_Error VL53L0X_WaitDeviceBooted(VL53L0X_DEV Dev)
 730:Api\core\src/vl53l0x_api.c **** {
 3196              		.loc 1 730 0
 3197              		.cfi_startproc
 3198              		@ args = 0, pretend = 0, frame = 16
 3199              		@ frame_needed = 1, uses_anonymous_args = 0
 3200 0000 80B5     		push	{r7, lr}
 3201              		.cfi_def_cfa_offset 8
ARM GAS  C:\Users\ilya\AppData\Local\Temp\ccpEIuqL.s 			page 70


 3202              		.cfi_offset 7, -8
 3203              		.cfi_offset 14, -4
 3204 0002 84B0     		sub	sp, sp, #16
 3205              		.cfi_def_cfa_offset 24
 3206 0004 00AF     		add	r7, sp, #0
 3207              		.cfi_def_cfa_register 7
 3208 0006 7860     		str	r0, [r7, #4]
 731:Api\core\src/vl53l0x_api.c **** 	VL53L0X_Error Status = VL53L0X_ERROR_NOT_IMPLEMENTED;
 3209              		.loc 1 731 0
 3210 0008 0F23     		movs	r3, #15
 3211 000a FB18     		adds	r3, r7, r3
 3212 000c 9D22     		movs	r2, #157
 3213 000e 1A70     		strb	r2, [r3]
 732:Api\core\src/vl53l0x_api.c **** 	LOG_FUNCTION_START("");
 733:Api\core\src/vl53l0x_api.c **** 
 734:Api\core\src/vl53l0x_api.c **** 	/* not implemented on VL53L0X */
 735:Api\core\src/vl53l0x_api.c **** 
 736:Api\core\src/vl53l0x_api.c **** 	LOG_FUNCTION_END(Status);
 737:Api\core\src/vl53l0x_api.c **** 	return Status;
 3214              		.loc 1 737 0
 3215 0010 0F23     		movs	r3, #15
 3216 0012 FB18     		adds	r3, r7, r3
 3217 0014 1B78     		ldrb	r3, [r3]
 3218 0016 5BB2     		sxtb	r3, r3
 738:Api\core\src/vl53l0x_api.c **** }
 3219              		.loc 1 738 0
 3220 0018 1800     		movs	r0, r3
 3221 001a BD46     		mov	sp, r7
 3222 001c 04B0     		add	sp, sp, #16
 3223              		@ sp needed
 3224 001e 80BD     		pop	{r7, pc}
 3225              		.cfi_endproc
 3226              	.LFE25:
 3227              		.size	VL53L0X_WaitDeviceBooted, .-VL53L0X_WaitDeviceBooted
 3228              		.section	.text.VL53L0X_ResetDevice,"ax",%progbits
 3229              		.align	2
 3230              		.global	VL53L0X_ResetDevice
 3231              		.code	16
 3232              		.thumb_func
 3233              		.type	VL53L0X_ResetDevice, %function
 3234              	VL53L0X_ResetDevice:
 3235              	.LFB26:
 739:Api\core\src/vl53l0x_api.c **** 
 740:Api\core\src/vl53l0x_api.c **** VL53L0X_Error VL53L0X_ResetDevice(VL53L0X_DEV Dev)
 741:Api\core\src/vl53l0x_api.c **** {
 3236              		.loc 1 741 0
 3237              		.cfi_startproc
 3238              		@ args = 0, pretend = 0, frame = 16
 3239              		@ frame_needed = 1, uses_anonymous_args = 0
 3240 0000 90B5     		push	{r4, r7, lr}
 3241              		.cfi_def_cfa_offset 12
 3242              		.cfi_offset 4, -12
 3243              		.cfi_offset 7, -8
 3244              		.cfi_offset 14, -4
 3245 0002 85B0     		sub	sp, sp, #20
 3246              		.cfi_def_cfa_offset 32
 3247 0004 00AF     		add	r7, sp, #0
ARM GAS  C:\Users\ilya\AppData\Local\Temp\ccpEIuqL.s 			page 71


 3248              		.cfi_def_cfa_register 7
 3249 0006 7860     		str	r0, [r7, #4]
 742:Api\core\src/vl53l0x_api.c **** 	VL53L0X_Error Status = VL53L0X_ERROR_NONE;
 3250              		.loc 1 742 0
 3251 0008 0F23     		movs	r3, #15
 3252 000a FB18     		adds	r3, r7, r3
 3253 000c 0022     		movs	r2, #0
 3254 000e 1A70     		strb	r2, [r3]
 743:Api\core\src/vl53l0x_api.c **** 	uint8_t Byte;
 744:Api\core\src/vl53l0x_api.c **** 	LOG_FUNCTION_START("");
 745:Api\core\src/vl53l0x_api.c **** 
 746:Api\core\src/vl53l0x_api.c **** 	/* Set reset bit */
 747:Api\core\src/vl53l0x_api.c **** 	Status = VL53L0X_WrByte(Dev, VL53L0X_REG_SOFT_RESET_GO2_SOFT_RESET_N,
 3255              		.loc 1 747 0
 3256 0010 0F23     		movs	r3, #15
 3257 0012 FC18     		adds	r4, r7, r3
 3258 0014 7B68     		ldr	r3, [r7, #4]
 3259 0016 0022     		movs	r2, #0
 3260 0018 BF21     		movs	r1, #191
 3261 001a 1800     		movs	r0, r3
 3262 001c FFF7FEFF 		bl	VL53L0X_WrByte
 3263 0020 0300     		movs	r3, r0
 3264 0022 2370     		strb	r3, [r4]
 748:Api\core\src/vl53l0x_api.c **** 		0x00);
 749:Api\core\src/vl53l0x_api.c **** 
 750:Api\core\src/vl53l0x_api.c **** 	/* Wait for some time */
 751:Api\core\src/vl53l0x_api.c **** 	if (Status == VL53L0X_ERROR_NONE) {
 3265              		.loc 1 751 0
 3266 0024 0F23     		movs	r3, #15
 3267 0026 FB18     		adds	r3, r7, r3
 3268 0028 1B78     		ldrb	r3, [r3]
 3269 002a 5BB2     		sxtb	r3, r3
 3270 002c 002B     		cmp	r3, #0
 3271 002e 0FD1     		bne	.L114
 3272              	.L115:
 752:Api\core\src/vl53l0x_api.c **** 		do {
 753:Api\core\src/vl53l0x_api.c **** 			Status = VL53L0X_RdByte(Dev,
 3273              		.loc 1 753 0 discriminator 1
 3274 0030 0F23     		movs	r3, #15
 3275 0032 FC18     		adds	r4, r7, r3
 3276 0034 0E23     		movs	r3, #14
 3277 0036 FA18     		adds	r2, r7, r3
 3278 0038 7B68     		ldr	r3, [r7, #4]
 3279 003a C021     		movs	r1, #192
 3280 003c 1800     		movs	r0, r3
 3281 003e FFF7FEFF 		bl	VL53L0X_RdByte
 3282 0042 0300     		movs	r3, r0
 3283 0044 2370     		strb	r3, [r4]
 754:Api\core\src/vl53l0x_api.c **** 			VL53L0X_REG_IDENTIFICATION_MODEL_ID, &Byte);
 755:Api\core\src/vl53l0x_api.c **** 		} while (Byte != 0x00);
 3284              		.loc 1 755 0 discriminator 1
 3285 0046 0E23     		movs	r3, #14
 3286 0048 FB18     		adds	r3, r7, r3
 3287 004a 1B78     		ldrb	r3, [r3]
 3288 004c 002B     		cmp	r3, #0
 3289 004e EFD1     		bne	.L115
 3290              	.L114:
ARM GAS  C:\Users\ilya\AppData\Local\Temp\ccpEIuqL.s 			page 72


 756:Api\core\src/vl53l0x_api.c **** 	}
 757:Api\core\src/vl53l0x_api.c **** 
 758:Api\core\src/vl53l0x_api.c **** 	VL53L0X_PollingDelay(Dev);
 3291              		.loc 1 758 0
 3292 0050 7B68     		ldr	r3, [r7, #4]
 3293 0052 1800     		movs	r0, r3
 3294 0054 FFF7FEFF 		bl	VL53L0X_PollingDelay
 759:Api\core\src/vl53l0x_api.c **** 
 760:Api\core\src/vl53l0x_api.c **** 	/* Release reset */
 761:Api\core\src/vl53l0x_api.c **** 	Status = VL53L0X_WrByte(Dev, VL53L0X_REG_SOFT_RESET_GO2_SOFT_RESET_N,
 3295              		.loc 1 761 0
 3296 0058 0F23     		movs	r3, #15
 3297 005a FC18     		adds	r4, r7, r3
 3298 005c 7B68     		ldr	r3, [r7, #4]
 3299 005e 0122     		movs	r2, #1
 3300 0060 BF21     		movs	r1, #191
 3301 0062 1800     		movs	r0, r3
 3302 0064 FFF7FEFF 		bl	VL53L0X_WrByte
 3303 0068 0300     		movs	r3, r0
 3304 006a 2370     		strb	r3, [r4]
 762:Api\core\src/vl53l0x_api.c **** 		0x01);
 763:Api\core\src/vl53l0x_api.c **** 
 764:Api\core\src/vl53l0x_api.c **** 	/* Wait until correct boot-up of the device */
 765:Api\core\src/vl53l0x_api.c **** 	if (Status == VL53L0X_ERROR_NONE) {
 3305              		.loc 1 765 0
 3306 006c 0F23     		movs	r3, #15
 3307 006e FB18     		adds	r3, r7, r3
 3308 0070 1B78     		ldrb	r3, [r3]
 3309 0072 5BB2     		sxtb	r3, r3
 3310 0074 002B     		cmp	r3, #0
 3311 0076 0FD1     		bne	.L116
 3312              	.L117:
 766:Api\core\src/vl53l0x_api.c **** 		do {
 767:Api\core\src/vl53l0x_api.c **** 			Status = VL53L0X_RdByte(Dev,
 3313              		.loc 1 767 0 discriminator 1
 3314 0078 0F23     		movs	r3, #15
 3315 007a FC18     		adds	r4, r7, r3
 3316 007c 0E23     		movs	r3, #14
 3317 007e FA18     		adds	r2, r7, r3
 3318 0080 7B68     		ldr	r3, [r7, #4]
 3319 0082 C021     		movs	r1, #192
 3320 0084 1800     		movs	r0, r3
 3321 0086 FFF7FEFF 		bl	VL53L0X_RdByte
 3322 008a 0300     		movs	r3, r0
 3323 008c 2370     		strb	r3, [r4]
 768:Api\core\src/vl53l0x_api.c **** 			VL53L0X_REG_IDENTIFICATION_MODEL_ID, &Byte);
 769:Api\core\src/vl53l0x_api.c **** 		} while (Byte == 0x00);
 3324              		.loc 1 769 0 discriminator 1
 3325 008e 0E23     		movs	r3, #14
 3326 0090 FB18     		adds	r3, r7, r3
 3327 0092 1B78     		ldrb	r3, [r3]
 3328 0094 002B     		cmp	r3, #0
 3329 0096 EFD0     		beq	.L117
 3330              	.L116:
 770:Api\core\src/vl53l0x_api.c **** 	}
 771:Api\core\src/vl53l0x_api.c **** 
 772:Api\core\src/vl53l0x_api.c **** 	VL53L0X_PollingDelay(Dev);
ARM GAS  C:\Users\ilya\AppData\Local\Temp\ccpEIuqL.s 			page 73


 3331              		.loc 1 772 0
 3332 0098 7B68     		ldr	r3, [r7, #4]
 3333 009a 1800     		movs	r0, r3
 3334 009c FFF7FEFF 		bl	VL53L0X_PollingDelay
 773:Api\core\src/vl53l0x_api.c **** 
 774:Api\core\src/vl53l0x_api.c **** 	/* Set PAL State to VL53L0X_STATE_POWERDOWN */
 775:Api\core\src/vl53l0x_api.c **** 	if (Status == VL53L0X_ERROR_NONE)
 3335              		.loc 1 775 0
 3336 00a0 0F23     		movs	r3, #15
 3337 00a2 FB18     		adds	r3, r7, r3
 3338 00a4 1B78     		ldrb	r3, [r3]
 3339 00a6 5BB2     		sxtb	r3, r3
 3340 00a8 002B     		cmp	r3, #0
 3341 00aa 04D1     		bne	.L118
 776:Api\core\src/vl53l0x_api.c **** 		PALDevDataSet(Dev, PalState, VL53L0X_STATE_POWERDOWN);
 3342              		.loc 1 776 0
 3343 00ac 7A68     		ldr	r2, [r7, #4]
 3344 00ae 9923     		movs	r3, #153
 3345 00b0 5B00     		lsls	r3, r3, #1
 3346 00b2 0021     		movs	r1, #0
 3347 00b4 D154     		strb	r1, [r2, r3]
 3348              	.L118:
 777:Api\core\src/vl53l0x_api.c **** 
 778:Api\core\src/vl53l0x_api.c **** 
 779:Api\core\src/vl53l0x_api.c **** 	LOG_FUNCTION_END(Status);
 780:Api\core\src/vl53l0x_api.c **** 	return Status;
 3349              		.loc 1 780 0
 3350 00b6 0F23     		movs	r3, #15
 3351 00b8 FB18     		adds	r3, r7, r3
 3352 00ba 1B78     		ldrb	r3, [r3]
 3353 00bc 5BB2     		sxtb	r3, r3
 781:Api\core\src/vl53l0x_api.c **** }
 3354              		.loc 1 781 0
 3355 00be 1800     		movs	r0, r3
 3356 00c0 BD46     		mov	sp, r7
 3357 00c2 05B0     		add	sp, sp, #20
 3358              		@ sp needed
 3359 00c4 90BD     		pop	{r4, r7, pc}
 3360              		.cfi_endproc
 3361              	.LFE26:
 3362              		.size	VL53L0X_ResetDevice, .-VL53L0X_ResetDevice
 3363 00c6 C046     		.section	.text.VL53L0X_SetDeviceParameters,"ax",%progbits
 3364              		.align	2
 3365              		.global	VL53L0X_SetDeviceParameters
 3366              		.code	16
 3367              		.thumb_func
 3368              		.type	VL53L0X_SetDeviceParameters, %function
 3369              	VL53L0X_SetDeviceParameters:
 3370              	.LFB27:
 782:Api\core\src/vl53l0x_api.c **** /* End Group PAL Init Functions */
 783:Api\core\src/vl53l0x_api.c **** 
 784:Api\core\src/vl53l0x_api.c **** /* Group PAL Parameters Functions */
 785:Api\core\src/vl53l0x_api.c **** VL53L0X_Error VL53L0X_SetDeviceParameters(VL53L0X_DEV Dev,
 786:Api\core\src/vl53l0x_api.c **** 	const VL53L0X_DeviceParameters_t *pDeviceParameters)
 787:Api\core\src/vl53l0x_api.c **** {
 3371              		.loc 1 787 0
 3372              		.cfi_startproc
ARM GAS  C:\Users\ilya\AppData\Local\Temp\ccpEIuqL.s 			page 74


 3373              		@ args = 0, pretend = 0, frame = 16
 3374              		@ frame_needed = 1, uses_anonymous_args = 0
 3375 0000 90B5     		push	{r4, r7, lr}
 3376              		.cfi_def_cfa_offset 12
 3377              		.cfi_offset 4, -12
 3378              		.cfi_offset 7, -8
 3379              		.cfi_offset 14, -4
 3380 0002 85B0     		sub	sp, sp, #20
 3381              		.cfi_def_cfa_offset 32
 3382 0004 00AF     		add	r7, sp, #0
 3383              		.cfi_def_cfa_register 7
 3384 0006 7860     		str	r0, [r7, #4]
 3385 0008 3960     		str	r1, [r7]
 788:Api\core\src/vl53l0x_api.c **** 	VL53L0X_Error Status = VL53L0X_ERROR_NONE;
 3386              		.loc 1 788 0
 3387 000a 0F23     		movs	r3, #15
 3388 000c FB18     		adds	r3, r7, r3
 3389 000e 0022     		movs	r2, #0
 3390 0010 1A70     		strb	r2, [r3]
 789:Api\core\src/vl53l0x_api.c **** 	int i;
 790:Api\core\src/vl53l0x_api.c **** 	LOG_FUNCTION_START("");
 791:Api\core\src/vl53l0x_api.c **** 	Status = VL53L0X_SetDeviceMode(Dev, pDeviceParameters->DeviceMode);
 3391              		.loc 1 791 0
 3392 0012 3B68     		ldr	r3, [r7]
 3393 0014 1A78     		ldrb	r2, [r3]
 3394 0016 0F23     		movs	r3, #15
 3395 0018 FC18     		adds	r4, r7, r3
 3396 001a 7B68     		ldr	r3, [r7, #4]
 3397 001c 1100     		movs	r1, r2
 3398 001e 1800     		movs	r0, r3
 3399 0020 FFF7FEFF 		bl	VL53L0X_SetDeviceMode
 3400 0024 0300     		movs	r3, r0
 3401 0026 2370     		strb	r3, [r4]
 792:Api\core\src/vl53l0x_api.c **** 
 793:Api\core\src/vl53l0x_api.c **** 	if (Status == VL53L0X_ERROR_NONE)
 3402              		.loc 1 793 0
 3403 0028 0F23     		movs	r3, #15
 3404 002a FB18     		adds	r3, r7, r3
 3405 002c 1B78     		ldrb	r3, [r3]
 3406 002e 5BB2     		sxtb	r3, r3
 3407 0030 002B     		cmp	r3, #0
 3408 0032 0AD1     		bne	.L121
 794:Api\core\src/vl53l0x_api.c **** 		Status = VL53L0X_SetInterMeasurementPeriodMilliSeconds(Dev,
 3409              		.loc 1 794 0
 3410 0034 3B68     		ldr	r3, [r7]
 3411 0036 9A68     		ldr	r2, [r3, #8]
 3412 0038 0F23     		movs	r3, #15
 3413 003a FC18     		adds	r4, r7, r3
 3414 003c 7B68     		ldr	r3, [r7, #4]
 3415 003e 1100     		movs	r1, r2
 3416 0040 1800     		movs	r0, r3
 3417 0042 FFF7FEFF 		bl	VL53L0X_SetInterMeasurementPeriodMilliSeconds
 3418 0046 0300     		movs	r3, r0
 3419 0048 2370     		strb	r3, [r4]
 3420              	.L121:
 795:Api\core\src/vl53l0x_api.c **** 			pDeviceParameters->InterMeasurementPeriodMilliSeconds);
 796:Api\core\src/vl53l0x_api.c **** 
ARM GAS  C:\Users\ilya\AppData\Local\Temp\ccpEIuqL.s 			page 75


 797:Api\core\src/vl53l0x_api.c **** 
 798:Api\core\src/vl53l0x_api.c **** 	if (Status == VL53L0X_ERROR_NONE)
 3421              		.loc 1 798 0
 3422 004a 0F23     		movs	r3, #15
 3423 004c FB18     		adds	r3, r7, r3
 3424 004e 1B78     		ldrb	r3, [r3]
 3425 0050 5BB2     		sxtb	r3, r3
 3426 0052 002B     		cmp	r3, #0
 3427 0054 0AD1     		bne	.L122
 799:Api\core\src/vl53l0x_api.c **** 		Status = VL53L0X_SetXTalkCompensationRateMegaCps(Dev,
 3428              		.loc 1 799 0
 3429 0056 3B68     		ldr	r3, [r7]
 3430 0058 1A69     		ldr	r2, [r3, #16]
 3431 005a 0F23     		movs	r3, #15
 3432 005c FC18     		adds	r4, r7, r3
 3433 005e 7B68     		ldr	r3, [r7, #4]
 3434 0060 1100     		movs	r1, r2
 3435 0062 1800     		movs	r0, r3
 3436 0064 FFF7FEFF 		bl	VL53L0X_SetXTalkCompensationRateMegaCps
 3437 0068 0300     		movs	r3, r0
 3438 006a 2370     		strb	r3, [r4]
 3439              	.L122:
 800:Api\core\src/vl53l0x_api.c **** 			pDeviceParameters->XTalkCompensationRateMegaCps);
 801:Api\core\src/vl53l0x_api.c **** 
 802:Api\core\src/vl53l0x_api.c **** 
 803:Api\core\src/vl53l0x_api.c **** 	if (Status == VL53L0X_ERROR_NONE)
 3440              		.loc 1 803 0
 3441 006c 0F23     		movs	r3, #15
 3442 006e FB18     		adds	r3, r7, r3
 3443 0070 1B78     		ldrb	r3, [r3]
 3444 0072 5BB2     		sxtb	r3, r3
 3445 0074 002B     		cmp	r3, #0
 3446 0076 0AD1     		bne	.L123
 804:Api\core\src/vl53l0x_api.c **** 		Status = VL53L0X_SetOffsetCalibrationDataMicroMeter(Dev,
 3447              		.loc 1 804 0
 3448 0078 3B68     		ldr	r3, [r7]
 3449 007a 5A69     		ldr	r2, [r3, #20]
 3450 007c 0F23     		movs	r3, #15
 3451 007e FC18     		adds	r4, r7, r3
 3452 0080 7B68     		ldr	r3, [r7, #4]
 3453 0082 1100     		movs	r1, r2
 3454 0084 1800     		movs	r0, r3
 3455 0086 FFF7FEFF 		bl	VL53L0X_SetOffsetCalibrationDataMicroMeter
 3456 008a 0300     		movs	r3, r0
 3457 008c 2370     		strb	r3, [r4]
 3458              	.L123:
 805:Api\core\src/vl53l0x_api.c **** 			pDeviceParameters->RangeOffsetMicroMeters);
 806:Api\core\src/vl53l0x_api.c **** 
 807:Api\core\src/vl53l0x_api.c **** 
 808:Api\core\src/vl53l0x_api.c **** 	for (i = 0; i < VL53L0X_CHECKENABLE_NUMBER_OF_CHECKS; i++) {
 3459              		.loc 1 808 0
 3460 008e 0023     		movs	r3, #0
 3461 0090 BB60     		str	r3, [r7, #8]
 3462 0092 38E0     		b	.L124
 3463              	.L130:
 809:Api\core\src/vl53l0x_api.c **** 		if (Status == VL53L0X_ERROR_NONE)
 3464              		.loc 1 809 0
ARM GAS  C:\Users\ilya\AppData\Local\Temp\ccpEIuqL.s 			page 76


 3465 0094 0F23     		movs	r3, #15
 3466 0096 FB18     		adds	r3, r7, r3
 3467 0098 1B78     		ldrb	r3, [r3]
 3468 009a 5BB2     		sxtb	r3, r3
 3469 009c 002B     		cmp	r3, #0
 3470 009e 36D1     		bne	.L134
 810:Api\core\src/vl53l0x_api.c **** 			Status |= VL53L0X_SetLimitCheckEnable(Dev, i,
 3471              		.loc 1 810 0
 3472 00a0 BB68     		ldr	r3, [r7, #8]
 3473 00a2 99B2     		uxth	r1, r3
 3474 00a4 3A68     		ldr	r2, [r7]
 3475 00a6 BB68     		ldr	r3, [r7, #8]
 3476 00a8 D318     		adds	r3, r2, r3
 3477 00aa 1833     		adds	r3, r3, #24
 3478 00ac 1A78     		ldrb	r2, [r3]
 3479 00ae 7B68     		ldr	r3, [r7, #4]
 3480 00b0 1800     		movs	r0, r3
 3481 00b2 FFF7FEFF 		bl	VL53L0X_SetLimitCheckEnable
 3482 00b6 0300     		movs	r3, r0
 3483 00b8 1900     		movs	r1, r3
 3484 00ba 0F23     		movs	r3, #15
 3485 00bc FB18     		adds	r3, r7, r3
 3486 00be 0F22     		movs	r2, #15
 3487 00c0 BA18     		adds	r2, r7, r2
 3488 00c2 1278     		ldrb	r2, [r2]
 3489 00c4 0A43     		orrs	r2, r1
 3490 00c6 1A70     		strb	r2, [r3]
 811:Api\core\src/vl53l0x_api.c **** 				pDeviceParameters->LimitChecksEnable[i]);
 812:Api\core\src/vl53l0x_api.c **** 		else
 813:Api\core\src/vl53l0x_api.c **** 			break;
 814:Api\core\src/vl53l0x_api.c **** 
 815:Api\core\src/vl53l0x_api.c **** 		if (Status == VL53L0X_ERROR_NONE)
 3491              		.loc 1 815 0
 3492 00c8 0F23     		movs	r3, #15
 3493 00ca FB18     		adds	r3, r7, r3
 3494 00cc 1B78     		ldrb	r3, [r3]
 3495 00ce 5BB2     		sxtb	r3, r3
 3496 00d0 002B     		cmp	r3, #0
 3497 00d2 1ED1     		bne	.L135
 816:Api\core\src/vl53l0x_api.c **** 			Status |= VL53L0X_SetLimitCheckValue(Dev, i,
 3498              		.loc 1 816 0
 3499 00d4 BB68     		ldr	r3, [r7, #8]
 3500 00d6 99B2     		uxth	r1, r3
 3501 00d8 3A68     		ldr	r2, [r7]
 3502 00da BB68     		ldr	r3, [r7, #8]
 3503 00dc 0833     		adds	r3, r3, #8
 3504 00de 9B00     		lsls	r3, r3, #2
 3505 00e0 D318     		adds	r3, r2, r3
 3506 00e2 0433     		adds	r3, r3, #4
 3507 00e4 1A68     		ldr	r2, [r3]
 3508 00e6 7B68     		ldr	r3, [r7, #4]
 3509 00e8 1800     		movs	r0, r3
 3510 00ea FFF7FEFF 		bl	VL53L0X_SetLimitCheckValue
 3511 00ee 0300     		movs	r3, r0
 3512 00f0 1900     		movs	r1, r3
 3513 00f2 0F23     		movs	r3, #15
 3514 00f4 FB18     		adds	r3, r7, r3
ARM GAS  C:\Users\ilya\AppData\Local\Temp\ccpEIuqL.s 			page 77


 3515 00f6 0F22     		movs	r2, #15
 3516 00f8 BA18     		adds	r2, r7, r2
 3517 00fa 1278     		ldrb	r2, [r2]
 3518 00fc 0A43     		orrs	r2, r1
 3519 00fe 1A70     		strb	r2, [r3]
 808:Api\core\src/vl53l0x_api.c **** 		if (Status == VL53L0X_ERROR_NONE)
 3520              		.loc 1 808 0
 3521 0100 BB68     		ldr	r3, [r7, #8]
 3522 0102 0133     		adds	r3, r3, #1
 3523 0104 BB60     		str	r3, [r7, #8]
 3524              	.L124:
 808:Api\core\src/vl53l0x_api.c **** 		if (Status == VL53L0X_ERROR_NONE)
 3525              		.loc 1 808 0 is_stmt 0 discriminator 1
 3526 0106 BB68     		ldr	r3, [r7, #8]
 3527 0108 052B     		cmp	r3, #5
 3528 010a C3DD     		ble	.L130
 3529 010c 02E0     		b	.L127
 3530              	.L134:
 813:Api\core\src/vl53l0x_api.c **** 
 3531              		.loc 1 813 0 is_stmt 1
 3532 010e C046     		nop
 3533 0110 00E0     		b	.L127
 3534              	.L135:
 817:Api\core\src/vl53l0x_api.c **** 				pDeviceParameters->LimitChecksValue[i]);
 818:Api\core\src/vl53l0x_api.c **** 		else
 819:Api\core\src/vl53l0x_api.c **** 			break;
 3535              		.loc 1 819 0
 3536 0112 C046     		nop
 3537              	.L127:
 820:Api\core\src/vl53l0x_api.c **** 
 821:Api\core\src/vl53l0x_api.c **** 	}
 822:Api\core\src/vl53l0x_api.c **** 
 823:Api\core\src/vl53l0x_api.c **** 	if (Status == VL53L0X_ERROR_NONE)
 3538              		.loc 1 823 0
 3539 0114 0F23     		movs	r3, #15
 3540 0116 FB18     		adds	r3, r7, r3
 3541 0118 1B78     		ldrb	r3, [r3]
 3542 011a 5BB2     		sxtb	r3, r3
 3543 011c 002B     		cmp	r3, #0
 3544 011e 0BD1     		bne	.L131
 824:Api\core\src/vl53l0x_api.c **** 		Status = VL53L0X_SetWrapAroundCheckEnable(Dev,
 3545              		.loc 1 824 0
 3546 0120 3B68     		ldr	r3, [r7]
 3547 0122 3C22     		movs	r2, #60
 3548 0124 9A5C     		ldrb	r2, [r3, r2]
 3549 0126 0F23     		movs	r3, #15
 3550 0128 FC18     		adds	r4, r7, r3
 3551 012a 7B68     		ldr	r3, [r7, #4]
 3552 012c 1100     		movs	r1, r2
 3553 012e 1800     		movs	r0, r3
 3554 0130 FFF7FEFF 		bl	VL53L0X_SetWrapAroundCheckEnable
 3555 0134 0300     		movs	r3, r0
 3556 0136 2370     		strb	r3, [r4]
 3557              	.L131:
 825:Api\core\src/vl53l0x_api.c **** 			pDeviceParameters->WrapAroundCheckEnable);
 826:Api\core\src/vl53l0x_api.c **** 
 827:Api\core\src/vl53l0x_api.c **** 	if (Status == VL53L0X_ERROR_NONE)
ARM GAS  C:\Users\ilya\AppData\Local\Temp\ccpEIuqL.s 			page 78


 3558              		.loc 1 827 0
 3559 0138 0F23     		movs	r3, #15
 3560 013a FB18     		adds	r3, r7, r3
 3561 013c 1B78     		ldrb	r3, [r3]
 3562 013e 5BB2     		sxtb	r3, r3
 3563 0140 002B     		cmp	r3, #0
 3564 0142 0AD1     		bne	.L132
 828:Api\core\src/vl53l0x_api.c **** 		Status = VL53L0X_SetMeasurementTimingBudgetMicroSeconds(Dev,
 3565              		.loc 1 828 0
 3566 0144 3B68     		ldr	r3, [r7]
 3567 0146 5A68     		ldr	r2, [r3, #4]
 3568 0148 0F23     		movs	r3, #15
 3569 014a FC18     		adds	r4, r7, r3
 3570 014c 7B68     		ldr	r3, [r7, #4]
 3571 014e 1100     		movs	r1, r2
 3572 0150 1800     		movs	r0, r3
 3573 0152 FFF7FEFF 		bl	VL53L0X_SetMeasurementTimingBudgetMicroSeconds
 3574 0156 0300     		movs	r3, r0
 3575 0158 2370     		strb	r3, [r4]
 3576              	.L132:
 829:Api\core\src/vl53l0x_api.c **** 			pDeviceParameters->MeasurementTimingBudgetMicroSeconds);
 830:Api\core\src/vl53l0x_api.c **** 
 831:Api\core\src/vl53l0x_api.c **** 
 832:Api\core\src/vl53l0x_api.c **** 	LOG_FUNCTION_END(Status);
 833:Api\core\src/vl53l0x_api.c **** 	return Status;
 3577              		.loc 1 833 0
 3578 015a 0F23     		movs	r3, #15
 3579 015c FB18     		adds	r3, r7, r3
 3580 015e 1B78     		ldrb	r3, [r3]
 3581 0160 5BB2     		sxtb	r3, r3
 834:Api\core\src/vl53l0x_api.c **** }
 3582              		.loc 1 834 0
 3583 0162 1800     		movs	r0, r3
 3584 0164 BD46     		mov	sp, r7
 3585 0166 05B0     		add	sp, sp, #20
 3586              		@ sp needed
 3587 0168 90BD     		pop	{r4, r7, pc}
 3588              		.cfi_endproc
 3589              	.LFE27:
 3590              		.size	VL53L0X_SetDeviceParameters, .-VL53L0X_SetDeviceParameters
 3591 016a C046     		.section	.text.VL53L0X_GetDeviceParameters,"ax",%progbits
 3592              		.align	2
 3593              		.global	VL53L0X_GetDeviceParameters
 3594              		.code	16
 3595              		.thumb_func
 3596              		.type	VL53L0X_GetDeviceParameters, %function
 3597              	VL53L0X_GetDeviceParameters:
 3598              	.LFB28:
 835:Api\core\src/vl53l0x_api.c **** 
 836:Api\core\src/vl53l0x_api.c **** VL53L0X_Error VL53L0X_GetDeviceParameters(VL53L0X_DEV Dev,
 837:Api\core\src/vl53l0x_api.c **** 	VL53L0X_DeviceParameters_t *pDeviceParameters)
 838:Api\core\src/vl53l0x_api.c **** {
 3599              		.loc 1 838 0
 3600              		.cfi_startproc
 3601              		@ args = 0, pretend = 0, frame = 16
 3602              		@ frame_needed = 1, uses_anonymous_args = 0
 3603 0000 90B5     		push	{r4, r7, lr}
ARM GAS  C:\Users\ilya\AppData\Local\Temp\ccpEIuqL.s 			page 79


 3604              		.cfi_def_cfa_offset 12
 3605              		.cfi_offset 4, -12
 3606              		.cfi_offset 7, -8
 3607              		.cfi_offset 14, -4
 3608 0002 85B0     		sub	sp, sp, #20
 3609              		.cfi_def_cfa_offset 32
 3610 0004 00AF     		add	r7, sp, #0
 3611              		.cfi_def_cfa_register 7
 3612 0006 7860     		str	r0, [r7, #4]
 3613 0008 3960     		str	r1, [r7]
 839:Api\core\src/vl53l0x_api.c **** 	VL53L0X_Error Status = VL53L0X_ERROR_NONE;
 3614              		.loc 1 839 0
 3615 000a 0F23     		movs	r3, #15
 3616 000c FB18     		adds	r3, r7, r3
 3617 000e 0022     		movs	r2, #0
 3618 0010 1A70     		strb	r2, [r3]
 840:Api\core\src/vl53l0x_api.c **** 	int i;
 841:Api\core\src/vl53l0x_api.c **** 
 842:Api\core\src/vl53l0x_api.c **** 	LOG_FUNCTION_START("");
 843:Api\core\src/vl53l0x_api.c **** 
 844:Api\core\src/vl53l0x_api.c **** 	Status = VL53L0X_GetDeviceMode(Dev, &(pDeviceParameters->DeviceMode));
 3619              		.loc 1 844 0
 3620 0012 3A68     		ldr	r2, [r7]
 3621 0014 0F23     		movs	r3, #15
 3622 0016 FC18     		adds	r4, r7, r3
 3623 0018 7B68     		ldr	r3, [r7, #4]
 3624 001a 1100     		movs	r1, r2
 3625 001c 1800     		movs	r0, r3
 3626 001e FFF7FEFF 		bl	VL53L0X_GetDeviceMode
 3627 0022 0300     		movs	r3, r0
 3628 0024 2370     		strb	r3, [r4]
 845:Api\core\src/vl53l0x_api.c **** 
 846:Api\core\src/vl53l0x_api.c **** 	if (Status == VL53L0X_ERROR_NONE)
 3629              		.loc 1 846 0
 3630 0026 0F23     		movs	r3, #15
 3631 0028 FB18     		adds	r3, r7, r3
 3632 002a 1B78     		ldrb	r3, [r3]
 3633 002c 5BB2     		sxtb	r3, r3
 3634 002e 002B     		cmp	r3, #0
 3635 0030 0BD1     		bne	.L137
 847:Api\core\src/vl53l0x_api.c **** 		Status = VL53L0X_GetInterMeasurementPeriodMilliSeconds(Dev,
 3636              		.loc 1 847 0
 3637 0032 3B68     		ldr	r3, [r7]
 3638 0034 0833     		adds	r3, r3, #8
 3639 0036 1A00     		movs	r2, r3
 3640 0038 0F23     		movs	r3, #15
 3641 003a FC18     		adds	r4, r7, r3
 3642 003c 7B68     		ldr	r3, [r7, #4]
 3643 003e 1100     		movs	r1, r2
 3644 0040 1800     		movs	r0, r3
 3645 0042 FFF7FEFF 		bl	VL53L0X_GetInterMeasurementPeriodMilliSeconds
 3646 0046 0300     		movs	r3, r0
 3647 0048 2370     		strb	r3, [r4]
 3648              	.L137:
 848:Api\core\src/vl53l0x_api.c **** 		&(pDeviceParameters->InterMeasurementPeriodMilliSeconds));
 849:Api\core\src/vl53l0x_api.c **** 
 850:Api\core\src/vl53l0x_api.c **** 
ARM GAS  C:\Users\ilya\AppData\Local\Temp\ccpEIuqL.s 			page 80


 851:Api\core\src/vl53l0x_api.c **** 	if (Status == VL53L0X_ERROR_NONE)
 3649              		.loc 1 851 0
 3650 004a 0F23     		movs	r3, #15
 3651 004c FB18     		adds	r3, r7, r3
 3652 004e 1B78     		ldrb	r3, [r3]
 3653 0050 5BB2     		sxtb	r3, r3
 3654 0052 002B     		cmp	r3, #0
 3655 0054 02D1     		bne	.L138
 852:Api\core\src/vl53l0x_api.c **** 		pDeviceParameters->XTalkCompensationEnable = 0;
 3656              		.loc 1 852 0
 3657 0056 3B68     		ldr	r3, [r7]
 3658 0058 0022     		movs	r2, #0
 3659 005a 1A73     		strb	r2, [r3, #12]
 3660              	.L138:
 853:Api\core\src/vl53l0x_api.c **** 
 854:Api\core\src/vl53l0x_api.c **** 	if (Status == VL53L0X_ERROR_NONE)
 3661              		.loc 1 854 0
 3662 005c 0F23     		movs	r3, #15
 3663 005e FB18     		adds	r3, r7, r3
 3664 0060 1B78     		ldrb	r3, [r3]
 3665 0062 5BB2     		sxtb	r3, r3
 3666 0064 002B     		cmp	r3, #0
 3667 0066 0BD1     		bne	.L139
 855:Api\core\src/vl53l0x_api.c **** 		Status = VL53L0X_GetXTalkCompensationRateMegaCps(Dev,
 3668              		.loc 1 855 0
 3669 0068 3B68     		ldr	r3, [r7]
 3670 006a 1033     		adds	r3, r3, #16
 3671 006c 1A00     		movs	r2, r3
 3672 006e 0F23     		movs	r3, #15
 3673 0070 FC18     		adds	r4, r7, r3
 3674 0072 7B68     		ldr	r3, [r7, #4]
 3675 0074 1100     		movs	r1, r2
 3676 0076 1800     		movs	r0, r3
 3677 0078 FFF7FEFF 		bl	VL53L0X_GetXTalkCompensationRateMegaCps
 3678 007c 0300     		movs	r3, r0
 3679 007e 2370     		strb	r3, [r4]
 3680              	.L139:
 856:Api\core\src/vl53l0x_api.c **** 			&(pDeviceParameters->XTalkCompensationRateMegaCps));
 857:Api\core\src/vl53l0x_api.c **** 
 858:Api\core\src/vl53l0x_api.c **** 
 859:Api\core\src/vl53l0x_api.c **** 	if (Status == VL53L0X_ERROR_NONE)
 3681              		.loc 1 859 0
 3682 0080 0F23     		movs	r3, #15
 3683 0082 FB18     		adds	r3, r7, r3
 3684 0084 1B78     		ldrb	r3, [r3]
 3685 0086 5BB2     		sxtb	r3, r3
 3686 0088 002B     		cmp	r3, #0
 3687 008a 0BD1     		bne	.L140
 860:Api\core\src/vl53l0x_api.c **** 		Status = VL53L0X_GetOffsetCalibrationDataMicroMeter(Dev,
 3688              		.loc 1 860 0
 3689 008c 3B68     		ldr	r3, [r7]
 3690 008e 1433     		adds	r3, r3, #20
 3691 0090 1A00     		movs	r2, r3
 3692 0092 0F23     		movs	r3, #15
 3693 0094 FC18     		adds	r4, r7, r3
 3694 0096 7B68     		ldr	r3, [r7, #4]
 3695 0098 1100     		movs	r1, r2
ARM GAS  C:\Users\ilya\AppData\Local\Temp\ccpEIuqL.s 			page 81


 3696 009a 1800     		movs	r0, r3
 3697 009c FFF7FEFF 		bl	VL53L0X_GetOffsetCalibrationDataMicroMeter
 3698 00a0 0300     		movs	r3, r0
 3699 00a2 2370     		strb	r3, [r4]
 3700              	.L140:
 861:Api\core\src/vl53l0x_api.c **** 			&(pDeviceParameters->RangeOffsetMicroMeters));
 862:Api\core\src/vl53l0x_api.c **** 
 863:Api\core\src/vl53l0x_api.c **** 
 864:Api\core\src/vl53l0x_api.c **** 	if (Status == VL53L0X_ERROR_NONE) {
 3701              		.loc 1 864 0
 3702 00a4 0F23     		movs	r3, #15
 3703 00a6 FB18     		adds	r3, r7, r3
 3704 00a8 1B78     		ldrb	r3, [r3]
 3705 00aa 5BB2     		sxtb	r3, r3
 3706 00ac 002B     		cmp	r3, #0
 3707 00ae 40D1     		bne	.L141
 865:Api\core\src/vl53l0x_api.c **** 		for (i = 0; i < VL53L0X_CHECKENABLE_NUMBER_OF_CHECKS; i++) {
 3708              		.loc 1 865 0
 3709 00b0 0023     		movs	r3, #0
 3710 00b2 BB60     		str	r3, [r7, #8]
 3711 00b4 36E0     		b	.L142
 3712              	.L147:
 866:Api\core\src/vl53l0x_api.c **** 			/* get first the values, then the enables.
 867:Api\core\src/vl53l0x_api.c **** 			 * VL53L0X_GetLimitCheckValue will modify the enable
 868:Api\core\src/vl53l0x_api.c **** 			 * flags
 869:Api\core\src/vl53l0x_api.c **** 			 */
 870:Api\core\src/vl53l0x_api.c **** 			if (Status == VL53L0X_ERROR_NONE) {
 3713              		.loc 1 870 0
 3714 00b6 0F23     		movs	r3, #15
 3715 00b8 FB18     		adds	r3, r7, r3
 3716 00ba 1B78     		ldrb	r3, [r3]
 3717 00bc 5BB2     		sxtb	r3, r3
 3718 00be 002B     		cmp	r3, #0
 3719 00c0 34D1     		bne	.L151
 871:Api\core\src/vl53l0x_api.c **** 				Status |= VL53L0X_GetLimitCheckValue(Dev, i,
 3720              		.loc 1 871 0
 3721 00c2 BB68     		ldr	r3, [r7, #8]
 3722 00c4 99B2     		uxth	r1, r3
 3723 00c6 BB68     		ldr	r3, [r7, #8]
 3724 00c8 0833     		adds	r3, r3, #8
 3725 00ca 9B00     		lsls	r3, r3, #2
 3726 00cc 3A68     		ldr	r2, [r7]
 3727 00ce D318     		adds	r3, r2, r3
 3728 00d0 1A1D     		adds	r2, r3, #4
 3729 00d2 7B68     		ldr	r3, [r7, #4]
 3730 00d4 1800     		movs	r0, r3
 3731 00d6 FFF7FEFF 		bl	VL53L0X_GetLimitCheckValue
 3732 00da 0300     		movs	r3, r0
 3733 00dc 1900     		movs	r1, r3
 3734 00de 0F23     		movs	r3, #15
 3735 00e0 FB18     		adds	r3, r7, r3
 3736 00e2 0F22     		movs	r2, #15
 3737 00e4 BA18     		adds	r2, r7, r2
 3738 00e6 1278     		ldrb	r2, [r2]
 3739 00e8 0A43     		orrs	r2, r1
 3740 00ea 1A70     		strb	r2, [r3]
 872:Api\core\src/vl53l0x_api.c **** 				&(pDeviceParameters->LimitChecksValue[i]));
ARM GAS  C:\Users\ilya\AppData\Local\Temp\ccpEIuqL.s 			page 82


 873:Api\core\src/vl53l0x_api.c **** 			} else {
 874:Api\core\src/vl53l0x_api.c **** 				break;
 875:Api\core\src/vl53l0x_api.c **** 			}
 876:Api\core\src/vl53l0x_api.c **** 			if (Status == VL53L0X_ERROR_NONE) {
 3741              		.loc 1 876 0
 3742 00ec 0F23     		movs	r3, #15
 3743 00ee FB18     		adds	r3, r7, r3
 3744 00f0 1B78     		ldrb	r3, [r3]
 3745 00f2 5BB2     		sxtb	r3, r3
 3746 00f4 002B     		cmp	r3, #0
 3747 00f6 1BD1     		bne	.L152
 877:Api\core\src/vl53l0x_api.c **** 				Status |= VL53L0X_GetLimitCheckEnable(Dev, i,
 3748              		.loc 1 877 0
 3749 00f8 BB68     		ldr	r3, [r7, #8]
 3750 00fa 99B2     		uxth	r1, r3
 3751 00fc BB68     		ldr	r3, [r7, #8]
 3752 00fe 1833     		adds	r3, r3, #24
 3753 0100 3A68     		ldr	r2, [r7]
 3754 0102 D218     		adds	r2, r2, r3
 3755 0104 7B68     		ldr	r3, [r7, #4]
 3756 0106 1800     		movs	r0, r3
 3757 0108 FFF7FEFF 		bl	VL53L0X_GetLimitCheckEnable
 3758 010c 0300     		movs	r3, r0
 3759 010e 1900     		movs	r1, r3
 3760 0110 0F23     		movs	r3, #15
 3761 0112 FB18     		adds	r3, r7, r3
 3762 0114 0F22     		movs	r2, #15
 3763 0116 BA18     		adds	r2, r7, r2
 3764 0118 1278     		ldrb	r2, [r2]
 3765 011a 0A43     		orrs	r2, r1
 3766 011c 1A70     		strb	r2, [r3]
 865:Api\core\src/vl53l0x_api.c **** 			/* get first the values, then the enables.
 3767              		.loc 1 865 0
 3768 011e BB68     		ldr	r3, [r7, #8]
 3769 0120 0133     		adds	r3, r3, #1
 3770 0122 BB60     		str	r3, [r7, #8]
 3771              	.L142:
 865:Api\core\src/vl53l0x_api.c **** 			/* get first the values, then the enables.
 3772              		.loc 1 865 0 is_stmt 0 discriminator 1
 3773 0124 BB68     		ldr	r3, [r7, #8]
 3774 0126 052B     		cmp	r3, #5
 3775 0128 C5DD     		ble	.L147
 3776 012a 02E0     		b	.L141
 3777              	.L151:
 874:Api\core\src/vl53l0x_api.c **** 			}
 3778              		.loc 1 874 0 is_stmt 1
 3779 012c C046     		nop
 3780 012e 00E0     		b	.L141
 3781              	.L152:
 878:Api\core\src/vl53l0x_api.c **** 				&(pDeviceParameters->LimitChecksEnable[i]));
 879:Api\core\src/vl53l0x_api.c **** 			} else {
 880:Api\core\src/vl53l0x_api.c **** 				break;
 3782              		.loc 1 880 0
 3783 0130 C046     		nop
 3784              	.L141:
 881:Api\core\src/vl53l0x_api.c **** 			}
 882:Api\core\src/vl53l0x_api.c **** 		}
ARM GAS  C:\Users\ilya\AppData\Local\Temp\ccpEIuqL.s 			page 83


 883:Api\core\src/vl53l0x_api.c **** 	}
 884:Api\core\src/vl53l0x_api.c **** 
 885:Api\core\src/vl53l0x_api.c **** 	if (Status == VL53L0X_ERROR_NONE) {
 3785              		.loc 1 885 0
 3786 0132 0F23     		movs	r3, #15
 3787 0134 FB18     		adds	r3, r7, r3
 3788 0136 1B78     		ldrb	r3, [r3]
 3789 0138 5BB2     		sxtb	r3, r3
 3790 013a 002B     		cmp	r3, #0
 3791 013c 0BD1     		bne	.L148
 886:Api\core\src/vl53l0x_api.c **** 		Status = VL53L0X_GetWrapAroundCheckEnable(Dev,
 3792              		.loc 1 886 0
 3793 013e 3B68     		ldr	r3, [r7]
 3794 0140 3C33     		adds	r3, r3, #60
 3795 0142 1A00     		movs	r2, r3
 3796 0144 0F23     		movs	r3, #15
 3797 0146 FC18     		adds	r4, r7, r3
 3798 0148 7B68     		ldr	r3, [r7, #4]
 3799 014a 1100     		movs	r1, r2
 3800 014c 1800     		movs	r0, r3
 3801 014e FFF7FEFF 		bl	VL53L0X_GetWrapAroundCheckEnable
 3802 0152 0300     		movs	r3, r0
 3803 0154 2370     		strb	r3, [r4]
 3804              	.L148:
 887:Api\core\src/vl53l0x_api.c **** 			&(pDeviceParameters->WrapAroundCheckEnable));
 888:Api\core\src/vl53l0x_api.c **** 	}
 889:Api\core\src/vl53l0x_api.c **** 
 890:Api\core\src/vl53l0x_api.c **** 	/* Need to be done at the end as it uses VCSELPulsePeriod */
 891:Api\core\src/vl53l0x_api.c **** 	if (Status == VL53L0X_ERROR_NONE) {
 3805              		.loc 1 891 0
 3806 0156 0F23     		movs	r3, #15
 3807 0158 FB18     		adds	r3, r7, r3
 3808 015a 1B78     		ldrb	r3, [r3]
 3809 015c 5BB2     		sxtb	r3, r3
 3810 015e 002B     		cmp	r3, #0
 3811 0160 0AD1     		bne	.L149
 892:Api\core\src/vl53l0x_api.c **** 		Status = VL53L0X_GetMeasurementTimingBudgetMicroSeconds(Dev,
 3812              		.loc 1 892 0
 3813 0162 3B68     		ldr	r3, [r7]
 3814 0164 1A1D     		adds	r2, r3, #4
 3815 0166 0F23     		movs	r3, #15
 3816 0168 FC18     		adds	r4, r7, r3
 3817 016a 7B68     		ldr	r3, [r7, #4]
 3818 016c 1100     		movs	r1, r2
 3819 016e 1800     		movs	r0, r3
 3820 0170 FFF7FEFF 		bl	VL53L0X_GetMeasurementTimingBudgetMicroSeconds
 3821 0174 0300     		movs	r3, r0
 3822 0176 2370     		strb	r3, [r4]
 3823              	.L149:
 893:Api\core\src/vl53l0x_api.c **** 		&(pDeviceParameters->MeasurementTimingBudgetMicroSeconds));
 894:Api\core\src/vl53l0x_api.c **** 	}
 895:Api\core\src/vl53l0x_api.c **** 
 896:Api\core\src/vl53l0x_api.c **** 	LOG_FUNCTION_END(Status);
 897:Api\core\src/vl53l0x_api.c **** 	return Status;
 3824              		.loc 1 897 0
 3825 0178 0F23     		movs	r3, #15
 3826 017a FB18     		adds	r3, r7, r3
ARM GAS  C:\Users\ilya\AppData\Local\Temp\ccpEIuqL.s 			page 84


 3827 017c 1B78     		ldrb	r3, [r3]
 3828 017e 5BB2     		sxtb	r3, r3
 898:Api\core\src/vl53l0x_api.c **** }
 3829              		.loc 1 898 0
 3830 0180 1800     		movs	r0, r3
 3831 0182 BD46     		mov	sp, r7
 3832 0184 05B0     		add	sp, sp, #20
 3833              		@ sp needed
 3834 0186 90BD     		pop	{r4, r7, pc}
 3835              		.cfi_endproc
 3836              	.LFE28:
 3837              		.size	VL53L0X_GetDeviceParameters, .-VL53L0X_GetDeviceParameters
 3838              		.section	.text.VL53L0X_SetDeviceMode,"ax",%progbits
 3839              		.align	2
 3840              		.global	VL53L0X_SetDeviceMode
 3841              		.code	16
 3842              		.thumb_func
 3843              		.type	VL53L0X_SetDeviceMode, %function
 3844              	VL53L0X_SetDeviceMode:
 3845              	.LFB29:
 899:Api\core\src/vl53l0x_api.c **** 
 900:Api\core\src/vl53l0x_api.c **** VL53L0X_Error VL53L0X_SetDeviceMode(VL53L0X_DEV Dev, VL53L0X_DeviceModes DeviceMode)
 901:Api\core\src/vl53l0x_api.c **** {
 3846              		.loc 1 901 0
 3847              		.cfi_startproc
 3848              		@ args = 0, pretend = 0, frame = 16
 3849              		@ frame_needed = 1, uses_anonymous_args = 0
 3850 0000 80B5     		push	{r7, lr}
 3851              		.cfi_def_cfa_offset 8
 3852              		.cfi_offset 7, -8
 3853              		.cfi_offset 14, -4
 3854 0002 84B0     		sub	sp, sp, #16
 3855              		.cfi_def_cfa_offset 24
 3856 0004 00AF     		add	r7, sp, #0
 3857              		.cfi_def_cfa_register 7
 3858 0006 7860     		str	r0, [r7, #4]
 3859 0008 0A00     		movs	r2, r1
 3860 000a FB1C     		adds	r3, r7, #3
 3861 000c 1A70     		strb	r2, [r3]
 902:Api\core\src/vl53l0x_api.c **** 	VL53L0X_Error Status = VL53L0X_ERROR_NONE;
 3862              		.loc 1 902 0
 3863 000e 0F23     		movs	r3, #15
 3864 0010 FB18     		adds	r3, r7, r3
 3865 0012 0022     		movs	r2, #0
 3866 0014 1A70     		strb	r2, [r3]
 903:Api\core\src/vl53l0x_api.c **** 
 904:Api\core\src/vl53l0x_api.c **** 	LOG_FUNCTION_START("%d", (int)DeviceMode);
 905:Api\core\src/vl53l0x_api.c **** 
 906:Api\core\src/vl53l0x_api.c **** 	switch (DeviceMode) {
 3867              		.loc 1 906 0
 3868 0016 FB1C     		adds	r3, r7, #3
 3869 0018 1B78     		ldrb	r3, [r3]
 3870 001a 152B     		cmp	r3, #21
 3871 001c 09D8     		bhi	.L154
 3872 001e 9A00     		lsls	r2, r3, #2
 3873 0020 0A4B     		ldr	r3, .L159
 3874 0022 D318     		adds	r3, r2, r3
ARM GAS  C:\Users\ilya\AppData\Local\Temp\ccpEIuqL.s 			page 85


 3875 0024 1B68     		ldr	r3, [r3]
 3876 0026 9F46     		mov	pc, r3
 3877              		.section	.rodata
 3878              		.align	2
 3879              	.L156:
 3880 0000 28000000 		.word	.L155
 3881 0004 28000000 		.word	.L155
 3882 0008 32000000 		.word	.L154
 3883 000c 28000000 		.word	.L155
 3884 0010 32000000 		.word	.L154
 3885 0014 32000000 		.word	.L154
 3886 0018 32000000 		.word	.L154
 3887 001c 32000000 		.word	.L154
 3888 0020 32000000 		.word	.L154
 3889 0024 32000000 		.word	.L154
 3890 0028 32000000 		.word	.L154
 3891 002c 32000000 		.word	.L154
 3892 0030 32000000 		.word	.L154
 3893 0034 32000000 		.word	.L154
 3894 0038 32000000 		.word	.L154
 3895 003c 32000000 		.word	.L154
 3896 0040 32000000 		.word	.L154
 3897 0044 32000000 		.word	.L154
 3898 0048 32000000 		.word	.L154
 3899 004c 32000000 		.word	.L154
 3900 0050 28000000 		.word	.L155
 3901 0054 28000000 		.word	.L155
 3902              		.section	.text.VL53L0X_SetDeviceMode
 3903              	.L155:
 907:Api\core\src/vl53l0x_api.c **** 	case VL53L0X_DEVICEMODE_SINGLE_RANGING:
 908:Api\core\src/vl53l0x_api.c **** 	case VL53L0X_DEVICEMODE_CONTINUOUS_RANGING:
 909:Api\core\src/vl53l0x_api.c **** 	case VL53L0X_DEVICEMODE_CONTINUOUS_TIMED_RANGING:
 910:Api\core\src/vl53l0x_api.c **** 	case VL53L0X_DEVICEMODE_GPIO_DRIVE:
 911:Api\core\src/vl53l0x_api.c **** 	case VL53L0X_DEVICEMODE_GPIO_OSC:
 912:Api\core\src/vl53l0x_api.c **** 		/* Supported modes */
 913:Api\core\src/vl53l0x_api.c **** 		VL53L0X_SETPARAMETERFIELD(Dev, DeviceMode, DeviceMode);
 3904              		.loc 1 913 0
 3905 0028 7B68     		ldr	r3, [r7, #4]
 3906 002a FA1C     		adds	r2, r7, #3
 3907 002c 1278     		ldrb	r2, [r2]
 3908 002e 1A74     		strb	r2, [r3, #16]
 914:Api\core\src/vl53l0x_api.c **** 		break;
 3909              		.loc 1 914 0
 3910 0030 03E0     		b	.L157
 3911              	.L154:
 915:Api\core\src/vl53l0x_api.c **** 	default:
 916:Api\core\src/vl53l0x_api.c **** 		/* Unsupported mode */
 917:Api\core\src/vl53l0x_api.c **** 		Status = VL53L0X_ERROR_MODE_NOT_SUPPORTED;
 3912              		.loc 1 917 0
 3913 0032 0F23     		movs	r3, #15
 3914 0034 FB18     		adds	r3, r7, r3
 3915 0036 F822     		movs	r2, #248
 3916 0038 1A70     		strb	r2, [r3]
 3917              	.L157:
 918:Api\core\src/vl53l0x_api.c **** 	}
 919:Api\core\src/vl53l0x_api.c **** 
 920:Api\core\src/vl53l0x_api.c **** 	LOG_FUNCTION_END(Status);
ARM GAS  C:\Users\ilya\AppData\Local\Temp\ccpEIuqL.s 			page 86


 921:Api\core\src/vl53l0x_api.c **** 	return Status;
 3918              		.loc 1 921 0
 3919 003a 0F23     		movs	r3, #15
 3920 003c FB18     		adds	r3, r7, r3
 3921 003e 1B78     		ldrb	r3, [r3]
 3922 0040 5BB2     		sxtb	r3, r3
 922:Api\core\src/vl53l0x_api.c **** }
 3923              		.loc 1 922 0
 3924 0042 1800     		movs	r0, r3
 3925 0044 BD46     		mov	sp, r7
 3926 0046 04B0     		add	sp, sp, #16
 3927              		@ sp needed
 3928 0048 80BD     		pop	{r7, pc}
 3929              	.L160:
 3930 004a C046     		.align	2
 3931              	.L159:
 3932 004c 00000000 		.word	.L156
 3933              		.cfi_endproc
 3934              	.LFE29:
 3935              		.size	VL53L0X_SetDeviceMode, .-VL53L0X_SetDeviceMode
 3936              		.section	.text.VL53L0X_GetDeviceMode,"ax",%progbits
 3937              		.align	2
 3938              		.global	VL53L0X_GetDeviceMode
 3939              		.code	16
 3940              		.thumb_func
 3941              		.type	VL53L0X_GetDeviceMode, %function
 3942              	VL53L0X_GetDeviceMode:
 3943              	.LFB30:
 923:Api\core\src/vl53l0x_api.c **** 
 924:Api\core\src/vl53l0x_api.c **** VL53L0X_Error VL53L0X_GetDeviceMode(VL53L0X_DEV Dev,
 925:Api\core\src/vl53l0x_api.c **** 	VL53L0X_DeviceModes *pDeviceMode)
 926:Api\core\src/vl53l0x_api.c **** {
 3944              		.loc 1 926 0
 3945              		.cfi_startproc
 3946              		@ args = 0, pretend = 0, frame = 16
 3947              		@ frame_needed = 1, uses_anonymous_args = 0
 3948 0000 80B5     		push	{r7, lr}
 3949              		.cfi_def_cfa_offset 8
 3950              		.cfi_offset 7, -8
 3951              		.cfi_offset 14, -4
 3952 0002 84B0     		sub	sp, sp, #16
 3953              		.cfi_def_cfa_offset 24
 3954 0004 00AF     		add	r7, sp, #0
 3955              		.cfi_def_cfa_register 7
 3956 0006 7860     		str	r0, [r7, #4]
 3957 0008 3960     		str	r1, [r7]
 927:Api\core\src/vl53l0x_api.c **** 	VL53L0X_Error Status = VL53L0X_ERROR_NONE;
 3958              		.loc 1 927 0
 3959 000a 0F23     		movs	r3, #15
 3960 000c FB18     		adds	r3, r7, r3
 3961 000e 0022     		movs	r2, #0
 3962 0010 1A70     		strb	r2, [r3]
 928:Api\core\src/vl53l0x_api.c **** 	LOG_FUNCTION_START("");
 929:Api\core\src/vl53l0x_api.c **** 
 930:Api\core\src/vl53l0x_api.c **** 	VL53L0X_GETPARAMETERFIELD(Dev, DeviceMode, *pDeviceMode);
 3963              		.loc 1 930 0
 3964 0012 7B68     		ldr	r3, [r7, #4]
ARM GAS  C:\Users\ilya\AppData\Local\Temp\ccpEIuqL.s 			page 87


 3965 0014 1A7C     		ldrb	r2, [r3, #16]
 3966 0016 3B68     		ldr	r3, [r7]
 3967 0018 1A70     		strb	r2, [r3]
 931:Api\core\src/vl53l0x_api.c **** 
 932:Api\core\src/vl53l0x_api.c **** 	LOG_FUNCTION_END(Status);
 933:Api\core\src/vl53l0x_api.c **** 	return Status;
 3968              		.loc 1 933 0
 3969 001a 0F23     		movs	r3, #15
 3970 001c FB18     		adds	r3, r7, r3
 3971 001e 1B78     		ldrb	r3, [r3]
 3972 0020 5BB2     		sxtb	r3, r3
 934:Api\core\src/vl53l0x_api.c **** }
 3973              		.loc 1 934 0
 3974 0022 1800     		movs	r0, r3
 3975 0024 BD46     		mov	sp, r7
 3976 0026 04B0     		add	sp, sp, #16
 3977              		@ sp needed
 3978 0028 80BD     		pop	{r7, pc}
 3979              		.cfi_endproc
 3980              	.LFE30:
 3981              		.size	VL53L0X_GetDeviceMode, .-VL53L0X_GetDeviceMode
 3982 002a C046     		.section	.text.VL53L0X_SetRangeFractionEnable,"ax",%progbits
 3983              		.align	2
 3984              		.global	VL53L0X_SetRangeFractionEnable
 3985              		.code	16
 3986              		.thumb_func
 3987              		.type	VL53L0X_SetRangeFractionEnable, %function
 3988              	VL53L0X_SetRangeFractionEnable:
 3989              	.LFB31:
 935:Api\core\src/vl53l0x_api.c **** 
 936:Api\core\src/vl53l0x_api.c **** VL53L0X_Error VL53L0X_SetRangeFractionEnable(VL53L0X_DEV Dev,	uint8_t Enable)
 937:Api\core\src/vl53l0x_api.c **** {
 3990              		.loc 1 937 0
 3991              		.cfi_startproc
 3992              		@ args = 0, pretend = 0, frame = 16
 3993              		@ frame_needed = 1, uses_anonymous_args = 0
 3994 0000 90B5     		push	{r4, r7, lr}
 3995              		.cfi_def_cfa_offset 12
 3996              		.cfi_offset 4, -12
 3997              		.cfi_offset 7, -8
 3998              		.cfi_offset 14, -4
 3999 0002 85B0     		sub	sp, sp, #20
 4000              		.cfi_def_cfa_offset 32
 4001 0004 00AF     		add	r7, sp, #0
 4002              		.cfi_def_cfa_register 7
 4003 0006 7860     		str	r0, [r7, #4]
 4004 0008 0A00     		movs	r2, r1
 4005 000a FB1C     		adds	r3, r7, #3
 4006 000c 1A70     		strb	r2, [r3]
 938:Api\core\src/vl53l0x_api.c **** 	VL53L0X_Error Status = VL53L0X_ERROR_NONE;
 4007              		.loc 1 938 0
 4008 000e 0F23     		movs	r3, #15
 4009 0010 FB18     		adds	r3, r7, r3
 4010 0012 0022     		movs	r2, #0
 4011 0014 1A70     		strb	r2, [r3]
 939:Api\core\src/vl53l0x_api.c **** 
 940:Api\core\src/vl53l0x_api.c **** 	LOG_FUNCTION_START("%d", (int)Enable);
ARM GAS  C:\Users\ilya\AppData\Local\Temp\ccpEIuqL.s 			page 88


 941:Api\core\src/vl53l0x_api.c **** 
 942:Api\core\src/vl53l0x_api.c **** 	Status = VL53L0X_WrByte(Dev, VL53L0X_REG_SYSTEM_RANGE_CONFIG, Enable);
 4012              		.loc 1 942 0
 4013 0016 0F23     		movs	r3, #15
 4014 0018 FC18     		adds	r4, r7, r3
 4015 001a FB1C     		adds	r3, r7, #3
 4016 001c 1A78     		ldrb	r2, [r3]
 4017 001e 7B68     		ldr	r3, [r7, #4]
 4018 0020 0921     		movs	r1, #9
 4019 0022 1800     		movs	r0, r3
 4020 0024 FFF7FEFF 		bl	VL53L0X_WrByte
 4021 0028 0300     		movs	r3, r0
 4022 002a 2370     		strb	r3, [r4]
 943:Api\core\src/vl53l0x_api.c **** 
 944:Api\core\src/vl53l0x_api.c **** 	if (Status == VL53L0X_ERROR_NONE)
 4023              		.loc 1 944 0
 4024 002c 0F23     		movs	r3, #15
 4025 002e FB18     		adds	r3, r7, r3
 4026 0030 1B78     		ldrb	r3, [r3]
 4027 0032 5BB2     		sxtb	r3, r3
 4028 0034 002B     		cmp	r3, #0
 4029 0036 05D1     		bne	.L164
 945:Api\core\src/vl53l0x_api.c **** 		PALDevDataSet(Dev, RangeFractionalEnable, Enable);
 4030              		.loc 1 945 0
 4031 0038 7A68     		ldr	r2, [r7, #4]
 4032 003a F91C     		adds	r1, r7, #3
 4033 003c 3223     		movs	r3, #50
 4034 003e FF33     		adds	r3, r3, #255
 4035 0040 0978     		ldrb	r1, [r1]
 4036 0042 D154     		strb	r1, [r2, r3]
 4037              	.L164:
 946:Api\core\src/vl53l0x_api.c **** 
 947:Api\core\src/vl53l0x_api.c **** 	LOG_FUNCTION_END(Status);
 948:Api\core\src/vl53l0x_api.c **** 	return Status;
 4038              		.loc 1 948 0
 4039 0044 0F23     		movs	r3, #15
 4040 0046 FB18     		adds	r3, r7, r3
 4041 0048 1B78     		ldrb	r3, [r3]
 4042 004a 5BB2     		sxtb	r3, r3
 949:Api\core\src/vl53l0x_api.c **** }
 4043              		.loc 1 949 0
 4044 004c 1800     		movs	r0, r3
 4045 004e BD46     		mov	sp, r7
 4046 0050 05B0     		add	sp, sp, #20
 4047              		@ sp needed
 4048 0052 90BD     		pop	{r4, r7, pc}
 4049              		.cfi_endproc
 4050              	.LFE31:
 4051              		.size	VL53L0X_SetRangeFractionEnable, .-VL53L0X_SetRangeFractionEnable
 4052              		.section	.text.VL53L0X_GetFractionEnable,"ax",%progbits
 4053              		.align	2
 4054              		.global	VL53L0X_GetFractionEnable
 4055              		.code	16
 4056              		.thumb_func
 4057              		.type	VL53L0X_GetFractionEnable, %function
 4058              	VL53L0X_GetFractionEnable:
 4059              	.LFB32:
ARM GAS  C:\Users\ilya\AppData\Local\Temp\ccpEIuqL.s 			page 89


 950:Api\core\src/vl53l0x_api.c **** 
 951:Api\core\src/vl53l0x_api.c **** VL53L0X_Error VL53L0X_GetFractionEnable(VL53L0X_DEV Dev, uint8_t *pEnabled)
 952:Api\core\src/vl53l0x_api.c **** {
 4060              		.loc 1 952 0
 4061              		.cfi_startproc
 4062              		@ args = 0, pretend = 0, frame = 16
 4063              		@ frame_needed = 1, uses_anonymous_args = 0
 4064 0000 90B5     		push	{r4, r7, lr}
 4065              		.cfi_def_cfa_offset 12
 4066              		.cfi_offset 4, -12
 4067              		.cfi_offset 7, -8
 4068              		.cfi_offset 14, -4
 4069 0002 85B0     		sub	sp, sp, #20
 4070              		.cfi_def_cfa_offset 32
 4071 0004 00AF     		add	r7, sp, #0
 4072              		.cfi_def_cfa_register 7
 4073 0006 7860     		str	r0, [r7, #4]
 4074 0008 3960     		str	r1, [r7]
 953:Api\core\src/vl53l0x_api.c **** 	VL53L0X_Error Status = VL53L0X_ERROR_NONE;
 4075              		.loc 1 953 0
 4076 000a 0F23     		movs	r3, #15
 4077 000c FB18     		adds	r3, r7, r3
 4078 000e 0022     		movs	r2, #0
 4079 0010 1A70     		strb	r2, [r3]
 954:Api\core\src/vl53l0x_api.c **** 	LOG_FUNCTION_START("");
 955:Api\core\src/vl53l0x_api.c **** 
 956:Api\core\src/vl53l0x_api.c **** 	Status = VL53L0X_RdByte(Dev, VL53L0X_REG_SYSTEM_RANGE_CONFIG, pEnabled);
 4080              		.loc 1 956 0
 4081 0012 0F23     		movs	r3, #15
 4082 0014 FC18     		adds	r4, r7, r3
 4083 0016 3A68     		ldr	r2, [r7]
 4084 0018 7B68     		ldr	r3, [r7, #4]
 4085 001a 0921     		movs	r1, #9
 4086 001c 1800     		movs	r0, r3
 4087 001e FFF7FEFF 		bl	VL53L0X_RdByte
 4088 0022 0300     		movs	r3, r0
 4089 0024 2370     		strb	r3, [r4]
 957:Api\core\src/vl53l0x_api.c **** 
 958:Api\core\src/vl53l0x_api.c **** 	if (Status == VL53L0X_ERROR_NONE)
 4090              		.loc 1 958 0
 4091 0026 0F23     		movs	r3, #15
 4092 0028 FB18     		adds	r3, r7, r3
 4093 002a 1B78     		ldrb	r3, [r3]
 4094 002c 5BB2     		sxtb	r3, r3
 4095 002e 002B     		cmp	r3, #0
 4096 0030 06D1     		bne	.L167
 959:Api\core\src/vl53l0x_api.c **** 		*pEnabled = (*pEnabled & 1);
 4097              		.loc 1 959 0
 4098 0032 3B68     		ldr	r3, [r7]
 4099 0034 1B78     		ldrb	r3, [r3]
 4100 0036 0122     		movs	r2, #1
 4101 0038 1340     		ands	r3, r2
 4102 003a DAB2     		uxtb	r2, r3
 4103 003c 3B68     		ldr	r3, [r7]
 4104 003e 1A70     		strb	r2, [r3]
 4105              	.L167:
 960:Api\core\src/vl53l0x_api.c **** 
ARM GAS  C:\Users\ilya\AppData\Local\Temp\ccpEIuqL.s 			page 90


 961:Api\core\src/vl53l0x_api.c **** 	LOG_FUNCTION_END(Status);
 962:Api\core\src/vl53l0x_api.c **** 	return Status;
 4106              		.loc 1 962 0
 4107 0040 0F23     		movs	r3, #15
 4108 0042 FB18     		adds	r3, r7, r3
 4109 0044 1B78     		ldrb	r3, [r3]
 4110 0046 5BB2     		sxtb	r3, r3
 963:Api\core\src/vl53l0x_api.c **** }
 4111              		.loc 1 963 0
 4112 0048 1800     		movs	r0, r3
 4113 004a BD46     		mov	sp, r7
 4114 004c 05B0     		add	sp, sp, #20
 4115              		@ sp needed
 4116 004e 90BD     		pop	{r4, r7, pc}
 4117              		.cfi_endproc
 4118              	.LFE32:
 4119              		.size	VL53L0X_GetFractionEnable, .-VL53L0X_GetFractionEnable
 4120              		.section	.text.VL53L0X_SetHistogramMode,"ax",%progbits
 4121              		.align	2
 4122              		.global	VL53L0X_SetHistogramMode
 4123              		.code	16
 4124              		.thumb_func
 4125              		.type	VL53L0X_SetHistogramMode, %function
 4126              	VL53L0X_SetHistogramMode:
 4127              	.LFB33:
 964:Api\core\src/vl53l0x_api.c **** 
 965:Api\core\src/vl53l0x_api.c **** VL53L0X_Error VL53L0X_SetHistogramMode(VL53L0X_DEV Dev,
 966:Api\core\src/vl53l0x_api.c **** 	VL53L0X_HistogramModes HistogramMode)
 967:Api\core\src/vl53l0x_api.c **** {
 4128              		.loc 1 967 0
 4129              		.cfi_startproc
 4130              		@ args = 0, pretend = 0, frame = 16
 4131              		@ frame_needed = 1, uses_anonymous_args = 0
 4132 0000 80B5     		push	{r7, lr}
 4133              		.cfi_def_cfa_offset 8
 4134              		.cfi_offset 7, -8
 4135              		.cfi_offset 14, -4
 4136 0002 84B0     		sub	sp, sp, #16
 4137              		.cfi_def_cfa_offset 24
 4138 0004 00AF     		add	r7, sp, #0
 4139              		.cfi_def_cfa_register 7
 4140 0006 7860     		str	r0, [r7, #4]
 4141 0008 0A00     		movs	r2, r1
 4142 000a FB1C     		adds	r3, r7, #3
 4143 000c 1A70     		strb	r2, [r3]
 968:Api\core\src/vl53l0x_api.c **** 	VL53L0X_Error Status = VL53L0X_ERROR_NOT_IMPLEMENTED;
 4144              		.loc 1 968 0
 4145 000e 0F23     		movs	r3, #15
 4146 0010 FB18     		adds	r3, r7, r3
 4147 0012 9D22     		movs	r2, #157
 4148 0014 1A70     		strb	r2, [r3]
 969:Api\core\src/vl53l0x_api.c **** 	LOG_FUNCTION_START("");
 970:Api\core\src/vl53l0x_api.c **** 
 971:Api\core\src/vl53l0x_api.c **** 	/* not implemented on VL53L0X */
 972:Api\core\src/vl53l0x_api.c **** 
 973:Api\core\src/vl53l0x_api.c **** 	LOG_FUNCTION_END(Status);
 974:Api\core\src/vl53l0x_api.c **** 	return Status;
ARM GAS  C:\Users\ilya\AppData\Local\Temp\ccpEIuqL.s 			page 91


 4149              		.loc 1 974 0
 4150 0016 0F23     		movs	r3, #15
 4151 0018 FB18     		adds	r3, r7, r3
 4152 001a 1B78     		ldrb	r3, [r3]
 4153 001c 5BB2     		sxtb	r3, r3
 975:Api\core\src/vl53l0x_api.c **** }
 4154              		.loc 1 975 0
 4155 001e 1800     		movs	r0, r3
 4156 0020 BD46     		mov	sp, r7
 4157 0022 04B0     		add	sp, sp, #16
 4158              		@ sp needed
 4159 0024 80BD     		pop	{r7, pc}
 4160              		.cfi_endproc
 4161              	.LFE33:
 4162              		.size	VL53L0X_SetHistogramMode, .-VL53L0X_SetHistogramMode
 4163 0026 C046     		.section	.text.VL53L0X_GetHistogramMode,"ax",%progbits
 4164              		.align	2
 4165              		.global	VL53L0X_GetHistogramMode
 4166              		.code	16
 4167              		.thumb_func
 4168              		.type	VL53L0X_GetHistogramMode, %function
 4169              	VL53L0X_GetHistogramMode:
 4170              	.LFB34:
 976:Api\core\src/vl53l0x_api.c **** 
 977:Api\core\src/vl53l0x_api.c **** VL53L0X_Error VL53L0X_GetHistogramMode(VL53L0X_DEV Dev,
 978:Api\core\src/vl53l0x_api.c **** 	VL53L0X_HistogramModes *pHistogramMode)
 979:Api\core\src/vl53l0x_api.c **** {
 4171              		.loc 1 979 0
 4172              		.cfi_startproc
 4173              		@ args = 0, pretend = 0, frame = 16
 4174              		@ frame_needed = 1, uses_anonymous_args = 0
 4175 0000 80B5     		push	{r7, lr}
 4176              		.cfi_def_cfa_offset 8
 4177              		.cfi_offset 7, -8
 4178              		.cfi_offset 14, -4
 4179 0002 84B0     		sub	sp, sp, #16
 4180              		.cfi_def_cfa_offset 24
 4181 0004 00AF     		add	r7, sp, #0
 4182              		.cfi_def_cfa_register 7
 4183 0006 7860     		str	r0, [r7, #4]
 4184 0008 3960     		str	r1, [r7]
 980:Api\core\src/vl53l0x_api.c **** 	VL53L0X_Error Status = VL53L0X_ERROR_NOT_IMPLEMENTED;
 4185              		.loc 1 980 0
 4186 000a 0F23     		movs	r3, #15
 4187 000c FB18     		adds	r3, r7, r3
 4188 000e 9D22     		movs	r2, #157
 4189 0010 1A70     		strb	r2, [r3]
 981:Api\core\src/vl53l0x_api.c **** 	LOG_FUNCTION_START("");
 982:Api\core\src/vl53l0x_api.c **** 
 983:Api\core\src/vl53l0x_api.c **** 	/* not implemented on VL53L0X */
 984:Api\core\src/vl53l0x_api.c **** 
 985:Api\core\src/vl53l0x_api.c **** 	LOG_FUNCTION_END(Status);
 986:Api\core\src/vl53l0x_api.c **** 	return Status;
 4190              		.loc 1 986 0
 4191 0012 0F23     		movs	r3, #15
 4192 0014 FB18     		adds	r3, r7, r3
 4193 0016 1B78     		ldrb	r3, [r3]
ARM GAS  C:\Users\ilya\AppData\Local\Temp\ccpEIuqL.s 			page 92


 4194 0018 5BB2     		sxtb	r3, r3
 987:Api\core\src/vl53l0x_api.c **** }
 4195              		.loc 1 987 0
 4196 001a 1800     		movs	r0, r3
 4197 001c BD46     		mov	sp, r7
 4198 001e 04B0     		add	sp, sp, #16
 4199              		@ sp needed
 4200 0020 80BD     		pop	{r7, pc}
 4201              		.cfi_endproc
 4202              	.LFE34:
 4203              		.size	VL53L0X_GetHistogramMode, .-VL53L0X_GetHistogramMode
 4204 0022 C046     		.section	.text.VL53L0X_SetMeasurementTimingBudgetMicroSeconds,"ax",%progbits
 4205              		.align	2
 4206              		.global	VL53L0X_SetMeasurementTimingBudgetMicroSeconds
 4207              		.code	16
 4208              		.thumb_func
 4209              		.type	VL53L0X_SetMeasurementTimingBudgetMicroSeconds, %function
 4210              	VL53L0X_SetMeasurementTimingBudgetMicroSeconds:
 4211              	.LFB35:
 988:Api\core\src/vl53l0x_api.c **** 
 989:Api\core\src/vl53l0x_api.c **** VL53L0X_Error VL53L0X_SetMeasurementTimingBudgetMicroSeconds(VL53L0X_DEV Dev,
 990:Api\core\src/vl53l0x_api.c **** 	uint32_t MeasurementTimingBudgetMicroSeconds)
 991:Api\core\src/vl53l0x_api.c **** {
 4212              		.loc 1 991 0
 4213              		.cfi_startproc
 4214              		@ args = 0, pretend = 0, frame = 16
 4215              		@ frame_needed = 1, uses_anonymous_args = 0
 4216 0000 90B5     		push	{r4, r7, lr}
 4217              		.cfi_def_cfa_offset 12
 4218              		.cfi_offset 4, -12
 4219              		.cfi_offset 7, -8
 4220              		.cfi_offset 14, -4
 4221 0002 85B0     		sub	sp, sp, #20
 4222              		.cfi_def_cfa_offset 32
 4223 0004 00AF     		add	r7, sp, #0
 4224              		.cfi_def_cfa_register 7
 4225 0006 7860     		str	r0, [r7, #4]
 4226 0008 3960     		str	r1, [r7]
 992:Api\core\src/vl53l0x_api.c **** 	VL53L0X_Error Status = VL53L0X_ERROR_NONE;
 4227              		.loc 1 992 0
 4228 000a 0F23     		movs	r3, #15
 4229 000c FB18     		adds	r3, r7, r3
 4230 000e 0022     		movs	r2, #0
 4231 0010 1A70     		strb	r2, [r3]
 993:Api\core\src/vl53l0x_api.c **** 	LOG_FUNCTION_START("");
 994:Api\core\src/vl53l0x_api.c **** 
 995:Api\core\src/vl53l0x_api.c **** 	Status = VL53L0X_set_measurement_timing_budget_micro_seconds(Dev,
 4232              		.loc 1 995 0
 4233 0012 0F23     		movs	r3, #15
 4234 0014 FC18     		adds	r4, r7, r3
 4235 0016 3A68     		ldr	r2, [r7]
 4236 0018 7B68     		ldr	r3, [r7, #4]
 4237 001a 1100     		movs	r1, r2
 4238 001c 1800     		movs	r0, r3
 4239 001e FFF7FEFF 		bl	VL53L0X_set_measurement_timing_budget_micro_seconds
 4240 0022 0300     		movs	r3, r0
 4241 0024 2370     		strb	r3, [r4]
ARM GAS  C:\Users\ilya\AppData\Local\Temp\ccpEIuqL.s 			page 93


 996:Api\core\src/vl53l0x_api.c **** 		MeasurementTimingBudgetMicroSeconds);
 997:Api\core\src/vl53l0x_api.c **** 
 998:Api\core\src/vl53l0x_api.c **** 	LOG_FUNCTION_END(Status);
 999:Api\core\src/vl53l0x_api.c **** 
1000:Api\core\src/vl53l0x_api.c **** 	return Status;
 4242              		.loc 1 1000 0
 4243 0026 0F23     		movs	r3, #15
 4244 0028 FB18     		adds	r3, r7, r3
 4245 002a 1B78     		ldrb	r3, [r3]
 4246 002c 5BB2     		sxtb	r3, r3
1001:Api\core\src/vl53l0x_api.c **** }
 4247              		.loc 1 1001 0
 4248 002e 1800     		movs	r0, r3
 4249 0030 BD46     		mov	sp, r7
 4250 0032 05B0     		add	sp, sp, #20
 4251              		@ sp needed
 4252 0034 90BD     		pop	{r4, r7, pc}
 4253              		.cfi_endproc
 4254              	.LFE35:
 4255              		.size	VL53L0X_SetMeasurementTimingBudgetMicroSeconds, .-VL53L0X_SetMeasurementTimingBudgetMicroSec
 4256              		.section	.text.VL53L0X_GetMeasurementTimingBudgetMicroSeconds,"ax",%progbits
 4257              		.align	2
 4258              		.global	VL53L0X_GetMeasurementTimingBudgetMicroSeconds
 4259              		.code	16
 4260              		.thumb_func
 4261              		.type	VL53L0X_GetMeasurementTimingBudgetMicroSeconds, %function
 4262              	VL53L0X_GetMeasurementTimingBudgetMicroSeconds:
 4263              	.LFB36:
1002:Api\core\src/vl53l0x_api.c **** 
1003:Api\core\src/vl53l0x_api.c **** VL53L0X_Error VL53L0X_GetMeasurementTimingBudgetMicroSeconds(VL53L0X_DEV Dev,
1004:Api\core\src/vl53l0x_api.c **** 	uint32_t *pMeasurementTimingBudgetMicroSeconds)
1005:Api\core\src/vl53l0x_api.c **** {
 4264              		.loc 1 1005 0
 4265              		.cfi_startproc
 4266              		@ args = 0, pretend = 0, frame = 16
 4267              		@ frame_needed = 1, uses_anonymous_args = 0
 4268 0000 90B5     		push	{r4, r7, lr}
 4269              		.cfi_def_cfa_offset 12
 4270              		.cfi_offset 4, -12
 4271              		.cfi_offset 7, -8
 4272              		.cfi_offset 14, -4
 4273 0002 85B0     		sub	sp, sp, #20
 4274              		.cfi_def_cfa_offset 32
 4275 0004 00AF     		add	r7, sp, #0
 4276              		.cfi_def_cfa_register 7
 4277 0006 7860     		str	r0, [r7, #4]
 4278 0008 3960     		str	r1, [r7]
1006:Api\core\src/vl53l0x_api.c **** 	VL53L0X_Error Status = VL53L0X_ERROR_NONE;
 4279              		.loc 1 1006 0
 4280 000a 0F23     		movs	r3, #15
 4281 000c FB18     		adds	r3, r7, r3
 4282 000e 0022     		movs	r2, #0
 4283 0010 1A70     		strb	r2, [r3]
1007:Api\core\src/vl53l0x_api.c **** 	LOG_FUNCTION_START("");
1008:Api\core\src/vl53l0x_api.c **** 
1009:Api\core\src/vl53l0x_api.c **** 	Status = VL53L0X_get_measurement_timing_budget_micro_seconds(Dev,
 4284              		.loc 1 1009 0
ARM GAS  C:\Users\ilya\AppData\Local\Temp\ccpEIuqL.s 			page 94


 4285 0012 0F23     		movs	r3, #15
 4286 0014 FC18     		adds	r4, r7, r3
 4287 0016 3A68     		ldr	r2, [r7]
 4288 0018 7B68     		ldr	r3, [r7, #4]
 4289 001a 1100     		movs	r1, r2
 4290 001c 1800     		movs	r0, r3
 4291 001e FFF7FEFF 		bl	VL53L0X_get_measurement_timing_budget_micro_seconds
 4292 0022 0300     		movs	r3, r0
 4293 0024 2370     		strb	r3, [r4]
1010:Api\core\src/vl53l0x_api.c **** 		pMeasurementTimingBudgetMicroSeconds);
1011:Api\core\src/vl53l0x_api.c **** 
1012:Api\core\src/vl53l0x_api.c **** 	LOG_FUNCTION_END(Status);
1013:Api\core\src/vl53l0x_api.c **** 	return Status;
 4294              		.loc 1 1013 0
 4295 0026 0F23     		movs	r3, #15
 4296 0028 FB18     		adds	r3, r7, r3
 4297 002a 1B78     		ldrb	r3, [r3]
 4298 002c 5BB2     		sxtb	r3, r3
1014:Api\core\src/vl53l0x_api.c **** }
 4299              		.loc 1 1014 0
 4300 002e 1800     		movs	r0, r3
 4301 0030 BD46     		mov	sp, r7
 4302 0032 05B0     		add	sp, sp, #20
 4303              		@ sp needed
 4304 0034 90BD     		pop	{r4, r7, pc}
 4305              		.cfi_endproc
 4306              	.LFE36:
 4307              		.size	VL53L0X_GetMeasurementTimingBudgetMicroSeconds, .-VL53L0X_GetMeasurementTimingBudgetMicroSec
 4308              		.section	.text.VL53L0X_SetVcselPulsePeriod,"ax",%progbits
 4309              		.align	2
 4310              		.global	VL53L0X_SetVcselPulsePeriod
 4311              		.code	16
 4312              		.thumb_func
 4313              		.type	VL53L0X_SetVcselPulsePeriod, %function
 4314              	VL53L0X_SetVcselPulsePeriod:
 4315              	.LFB37:
1015:Api\core\src/vl53l0x_api.c **** 
1016:Api\core\src/vl53l0x_api.c **** VL53L0X_Error VL53L0X_SetVcselPulsePeriod(VL53L0X_DEV Dev,
1017:Api\core\src/vl53l0x_api.c **** 	VL53L0X_VcselPeriod VcselPeriodType, uint8_t VCSELPulsePeriodPCLK)
1018:Api\core\src/vl53l0x_api.c **** {
 4316              		.loc 1 1018 0
 4317              		.cfi_startproc
 4318              		@ args = 0, pretend = 0, frame = 16
 4319              		@ frame_needed = 1, uses_anonymous_args = 0
 4320 0000 90B5     		push	{r4, r7, lr}
 4321              		.cfi_def_cfa_offset 12
 4322              		.cfi_offset 4, -12
 4323              		.cfi_offset 7, -8
 4324              		.cfi_offset 14, -4
 4325 0002 85B0     		sub	sp, sp, #20
 4326              		.cfi_def_cfa_offset 32
 4327 0004 00AF     		add	r7, sp, #0
 4328              		.cfi_def_cfa_register 7
 4329 0006 7860     		str	r0, [r7, #4]
 4330 0008 0800     		movs	r0, r1
 4331 000a 1100     		movs	r1, r2
 4332 000c FB1C     		adds	r3, r7, #3
ARM GAS  C:\Users\ilya\AppData\Local\Temp\ccpEIuqL.s 			page 95


 4333 000e 021C     		adds	r2, r0, #0
 4334 0010 1A70     		strb	r2, [r3]
 4335 0012 BB1C     		adds	r3, r7, #2
 4336 0014 0A1C     		adds	r2, r1, #0
 4337 0016 1A70     		strb	r2, [r3]
1019:Api\core\src/vl53l0x_api.c **** 	VL53L0X_Error Status = VL53L0X_ERROR_NONE;
 4338              		.loc 1 1019 0
 4339 0018 0F23     		movs	r3, #15
 4340 001a FB18     		adds	r3, r7, r3
 4341 001c 0022     		movs	r2, #0
 4342 001e 1A70     		strb	r2, [r3]
1020:Api\core\src/vl53l0x_api.c **** 	LOG_FUNCTION_START("");
1021:Api\core\src/vl53l0x_api.c **** 
1022:Api\core\src/vl53l0x_api.c **** 	Status = VL53L0X_set_vcsel_pulse_period(Dev, VcselPeriodType,
 4343              		.loc 1 1022 0
 4344 0020 0F23     		movs	r3, #15
 4345 0022 FC18     		adds	r4, r7, r3
 4346 0024 BB1C     		adds	r3, r7, #2
 4347 0026 1A78     		ldrb	r2, [r3]
 4348 0028 FB1C     		adds	r3, r7, #3
 4349 002a 1978     		ldrb	r1, [r3]
 4350 002c 7B68     		ldr	r3, [r7, #4]
 4351 002e 1800     		movs	r0, r3
 4352 0030 FFF7FEFF 		bl	VL53L0X_set_vcsel_pulse_period
 4353 0034 0300     		movs	r3, r0
 4354 0036 2370     		strb	r3, [r4]
1023:Api\core\src/vl53l0x_api.c **** 		VCSELPulsePeriodPCLK);
1024:Api\core\src/vl53l0x_api.c **** 
1025:Api\core\src/vl53l0x_api.c **** 	LOG_FUNCTION_END(Status);
1026:Api\core\src/vl53l0x_api.c **** 	return Status;
 4355              		.loc 1 1026 0
 4356 0038 0F23     		movs	r3, #15
 4357 003a FB18     		adds	r3, r7, r3
 4358 003c 1B78     		ldrb	r3, [r3]
 4359 003e 5BB2     		sxtb	r3, r3
1027:Api\core\src/vl53l0x_api.c **** }
 4360              		.loc 1 1027 0
 4361 0040 1800     		movs	r0, r3
 4362 0042 BD46     		mov	sp, r7
 4363 0044 05B0     		add	sp, sp, #20
 4364              		@ sp needed
 4365 0046 90BD     		pop	{r4, r7, pc}
 4366              		.cfi_endproc
 4367              	.LFE37:
 4368              		.size	VL53L0X_SetVcselPulsePeriod, .-VL53L0X_SetVcselPulsePeriod
 4369              		.section	.text.VL53L0X_GetVcselPulsePeriod,"ax",%progbits
 4370              		.align	2
 4371              		.global	VL53L0X_GetVcselPulsePeriod
 4372              		.code	16
 4373              		.thumb_func
 4374              		.type	VL53L0X_GetVcselPulsePeriod, %function
 4375              	VL53L0X_GetVcselPulsePeriod:
 4376              	.LFB38:
1028:Api\core\src/vl53l0x_api.c **** 
1029:Api\core\src/vl53l0x_api.c **** VL53L0X_Error VL53L0X_GetVcselPulsePeriod(VL53L0X_DEV Dev,
1030:Api\core\src/vl53l0x_api.c **** 	VL53L0X_VcselPeriod VcselPeriodType, uint8_t *pVCSELPulsePeriodPCLK)
1031:Api\core\src/vl53l0x_api.c **** {
ARM GAS  C:\Users\ilya\AppData\Local\Temp\ccpEIuqL.s 			page 96


 4377              		.loc 1 1031 0
 4378              		.cfi_startproc
 4379              		@ args = 0, pretend = 0, frame = 24
 4380              		@ frame_needed = 1, uses_anonymous_args = 0
 4381 0000 90B5     		push	{r4, r7, lr}
 4382              		.cfi_def_cfa_offset 12
 4383              		.cfi_offset 4, -12
 4384              		.cfi_offset 7, -8
 4385              		.cfi_offset 14, -4
 4386 0002 87B0     		sub	sp, sp, #28
 4387              		.cfi_def_cfa_offset 40
 4388 0004 00AF     		add	r7, sp, #0
 4389              		.cfi_def_cfa_register 7
 4390 0006 F860     		str	r0, [r7, #12]
 4391 0008 7A60     		str	r2, [r7, #4]
 4392 000a 0B23     		movs	r3, #11
 4393 000c FB18     		adds	r3, r7, r3
 4394 000e 0A1C     		adds	r2, r1, #0
 4395 0010 1A70     		strb	r2, [r3]
1032:Api\core\src/vl53l0x_api.c **** 	VL53L0X_Error Status = VL53L0X_ERROR_NONE;
 4396              		.loc 1 1032 0
 4397 0012 1723     		movs	r3, #23
 4398 0014 FB18     		adds	r3, r7, r3
 4399 0016 0022     		movs	r2, #0
 4400 0018 1A70     		strb	r2, [r3]
1033:Api\core\src/vl53l0x_api.c **** 	LOG_FUNCTION_START("");
1034:Api\core\src/vl53l0x_api.c **** 
1035:Api\core\src/vl53l0x_api.c **** 	Status = VL53L0X_get_vcsel_pulse_period(Dev, VcselPeriodType,
 4401              		.loc 1 1035 0
 4402 001a 1723     		movs	r3, #23
 4403 001c FC18     		adds	r4, r7, r3
 4404 001e 7A68     		ldr	r2, [r7, #4]
 4405 0020 0B23     		movs	r3, #11
 4406 0022 FB18     		adds	r3, r7, r3
 4407 0024 1978     		ldrb	r1, [r3]
 4408 0026 FB68     		ldr	r3, [r7, #12]
 4409 0028 1800     		movs	r0, r3
 4410 002a FFF7FEFF 		bl	VL53L0X_get_vcsel_pulse_period
 4411 002e 0300     		movs	r3, r0
 4412 0030 2370     		strb	r3, [r4]
1036:Api\core\src/vl53l0x_api.c **** 		pVCSELPulsePeriodPCLK);
1037:Api\core\src/vl53l0x_api.c **** 
1038:Api\core\src/vl53l0x_api.c **** 	LOG_FUNCTION_END(Status);
1039:Api\core\src/vl53l0x_api.c **** 	return Status;
 4413              		.loc 1 1039 0
 4414 0032 1723     		movs	r3, #23
 4415 0034 FB18     		adds	r3, r7, r3
 4416 0036 1B78     		ldrb	r3, [r3]
 4417 0038 5BB2     		sxtb	r3, r3
1040:Api\core\src/vl53l0x_api.c **** }
 4418              		.loc 1 1040 0
 4419 003a 1800     		movs	r0, r3
 4420 003c BD46     		mov	sp, r7
 4421 003e 07B0     		add	sp, sp, #28
 4422              		@ sp needed
 4423 0040 90BD     		pop	{r4, r7, pc}
 4424              		.cfi_endproc
ARM GAS  C:\Users\ilya\AppData\Local\Temp\ccpEIuqL.s 			page 97


 4425              	.LFE38:
 4426              		.size	VL53L0X_GetVcselPulsePeriod, .-VL53L0X_GetVcselPulsePeriod
 4427 0042 C046     		.section	.text.VL53L0X_SetSequenceStepEnable,"ax",%progbits
 4428              		.align	2
 4429              		.global	VL53L0X_SetSequenceStepEnable
 4430              		.code	16
 4431              		.thumb_func
 4432              		.type	VL53L0X_SetSequenceStepEnable, %function
 4433              	VL53L0X_SetSequenceStepEnable:
 4434              	.LFB39:
1041:Api\core\src/vl53l0x_api.c **** 
1042:Api\core\src/vl53l0x_api.c **** VL53L0X_Error VL53L0X_SetSequenceStepEnable(VL53L0X_DEV Dev,
1043:Api\core\src/vl53l0x_api.c **** 	VL53L0X_SequenceStepId SequenceStepId, uint8_t SequenceStepEnabled)
1044:Api\core\src/vl53l0x_api.c **** {
 4435              		.loc 1 1044 0
 4436              		.cfi_startproc
 4437              		@ args = 0, pretend = 0, frame = 24
 4438              		@ frame_needed = 1, uses_anonymous_args = 0
 4439 0000 90B5     		push	{r4, r7, lr}
 4440              		.cfi_def_cfa_offset 12
 4441              		.cfi_offset 4, -12
 4442              		.cfi_offset 7, -8
 4443              		.cfi_offset 14, -4
 4444 0002 87B0     		sub	sp, sp, #28
 4445              		.cfi_def_cfa_offset 40
 4446 0004 00AF     		add	r7, sp, #0
 4447              		.cfi_def_cfa_register 7
 4448 0006 7860     		str	r0, [r7, #4]
 4449 0008 0800     		movs	r0, r1
 4450 000a 1100     		movs	r1, r2
 4451 000c FB1C     		adds	r3, r7, #3
 4452 000e 021C     		adds	r2, r0, #0
 4453 0010 1A70     		strb	r2, [r3]
 4454 0012 BB1C     		adds	r3, r7, #2
 4455 0014 0A1C     		adds	r2, r1, #0
 4456 0016 1A70     		strb	r2, [r3]
1045:Api\core\src/vl53l0x_api.c **** 	VL53L0X_Error Status = VL53L0X_ERROR_NONE;
 4457              		.loc 1 1045 0
 4458 0018 1723     		movs	r3, #23
 4459 001a FB18     		adds	r3, r7, r3
 4460 001c 0022     		movs	r2, #0
 4461 001e 1A70     		strb	r2, [r3]
1046:Api\core\src/vl53l0x_api.c **** 	uint8_t SequenceConfig = 0;
 4462              		.loc 1 1046 0
 4463 0020 0F23     		movs	r3, #15
 4464 0022 FB18     		adds	r3, r7, r3
 4465 0024 0022     		movs	r2, #0
 4466 0026 1A70     		strb	r2, [r3]
1047:Api\core\src/vl53l0x_api.c **** 	uint8_t SequenceConfigNew = 0;
 4467              		.loc 1 1047 0
 4468 0028 1623     		movs	r3, #22
 4469 002a FB18     		adds	r3, r7, r3
 4470 002c 0022     		movs	r2, #0
 4471 002e 1A70     		strb	r2, [r3]
1048:Api\core\src/vl53l0x_api.c **** 	uint32_t MeasurementTimingBudgetMicroSeconds;
1049:Api\core\src/vl53l0x_api.c **** 	LOG_FUNCTION_START("");
1050:Api\core\src/vl53l0x_api.c **** 
ARM GAS  C:\Users\ilya\AppData\Local\Temp\ccpEIuqL.s 			page 98


1051:Api\core\src/vl53l0x_api.c **** 	Status = VL53L0X_RdByte(Dev, VL53L0X_REG_SYSTEM_SEQUENCE_CONFIG,
 4472              		.loc 1 1051 0
 4473 0030 1723     		movs	r3, #23
 4474 0032 FC18     		adds	r4, r7, r3
 4475 0034 0F23     		movs	r3, #15
 4476 0036 FA18     		adds	r2, r7, r3
 4477 0038 7B68     		ldr	r3, [r7, #4]
 4478 003a 0121     		movs	r1, #1
 4479 003c 1800     		movs	r0, r3
 4480 003e FFF7FEFF 		bl	VL53L0X_RdByte
 4481 0042 0300     		movs	r3, r0
 4482 0044 2370     		strb	r3, [r4]
1052:Api\core\src/vl53l0x_api.c **** 		&SequenceConfig);
1053:Api\core\src/vl53l0x_api.c **** 
1054:Api\core\src/vl53l0x_api.c **** 	SequenceConfigNew = SequenceConfig;
 4483              		.loc 1 1054 0
 4484 0046 1623     		movs	r3, #22
 4485 0048 FB18     		adds	r3, r7, r3
 4486 004a 0F22     		movs	r2, #15
 4487 004c BA18     		adds	r2, r7, r2
 4488 004e 1278     		ldrb	r2, [r2]
 4489 0050 1A70     		strb	r2, [r3]
1055:Api\core\src/vl53l0x_api.c **** 
1056:Api\core\src/vl53l0x_api.c **** 	if (Status == VL53L0X_ERROR_NONE) {
 4490              		.loc 1 1056 0
 4491 0052 1723     		movs	r3, #23
 4492 0054 FB18     		adds	r3, r7, r3
 4493 0056 1B78     		ldrb	r3, [r3]
 4494 0058 5BB2     		sxtb	r3, r3
 4495 005a 002B     		cmp	r3, #0
 4496 005c 00D0     		beq	.LCB3330
 4497 005e 79E0     		b	.L182	@long jump
 4498              	.LCB3330:
1057:Api\core\src/vl53l0x_api.c **** 		if (SequenceStepEnabled == 1) {
 4499              		.loc 1 1057 0
 4500 0060 BB1C     		adds	r3, r7, #2
 4501 0062 1B78     		ldrb	r3, [r3]
 4502 0064 012B     		cmp	r3, #1
 4503 0066 3BD1     		bne	.L183
1058:Api\core\src/vl53l0x_api.c **** 
1059:Api\core\src/vl53l0x_api.c **** 			/* Enable requested sequence step
1060:Api\core\src/vl53l0x_api.c **** 			 */
1061:Api\core\src/vl53l0x_api.c **** 			switch (SequenceStepId) {
 4504              		.loc 1 1061 0
 4505 0068 FB1C     		adds	r3, r7, #3
 4506 006a 1B78     		ldrb	r3, [r3]
 4507 006c 042B     		cmp	r3, #4
 4508 006e 32D8     		bhi	.L184
 4509 0070 9A00     		lsls	r2, r3, #2
 4510 0072 574B     		ldr	r3, .L203
 4511 0074 D318     		adds	r3, r2, r3
 4512 0076 1B68     		ldr	r3, [r3]
 4513 0078 9F46     		mov	pc, r3
 4514              		.section	.rodata
 4515              		.align	2
 4516              	.L186:
 4517 0058 7A000000 		.word	.L185
ARM GAS  C:\Users\ilya\AppData\Local\Temp\ccpEIuqL.s 			page 99


 4518 005c 8C000000 		.word	.L187
 4519 0060 9E000000 		.word	.L188
 4520 0064 B0000000 		.word	.L189
 4521 0068 C2000000 		.word	.L190
 4522              		.section	.text.VL53L0X_SetSequenceStepEnable
 4523              	.L185:
1062:Api\core\src/vl53l0x_api.c **** 			case VL53L0X_SEQUENCESTEP_TCC:
1063:Api\core\src/vl53l0x_api.c **** 				SequenceConfigNew |= 0x10;
 4524              		.loc 1 1063 0
 4525 007a 1623     		movs	r3, #22
 4526 007c FB18     		adds	r3, r7, r3
 4527 007e 1622     		movs	r2, #22
 4528 0080 BA18     		adds	r2, r7, r2
 4529 0082 1278     		ldrb	r2, [r2]
 4530 0084 1021     		movs	r1, #16
 4531 0086 0A43     		orrs	r2, r1
 4532 0088 1A70     		strb	r2, [r3]
1064:Api\core\src/vl53l0x_api.c **** 				break;
 4533              		.loc 1 1064 0
 4534 008a 63E0     		b	.L182
 4535              	.L187:
1065:Api\core\src/vl53l0x_api.c **** 			case VL53L0X_SEQUENCESTEP_DSS:
1066:Api\core\src/vl53l0x_api.c **** 				SequenceConfigNew |= 0x28;
 4536              		.loc 1 1066 0
 4537 008c 1623     		movs	r3, #22
 4538 008e FB18     		adds	r3, r7, r3
 4539 0090 1622     		movs	r2, #22
 4540 0092 BA18     		adds	r2, r7, r2
 4541 0094 1278     		ldrb	r2, [r2]
 4542 0096 2821     		movs	r1, #40
 4543 0098 0A43     		orrs	r2, r1
 4544 009a 1A70     		strb	r2, [r3]
1067:Api\core\src/vl53l0x_api.c **** 				break;
 4545              		.loc 1 1067 0
 4546 009c 5AE0     		b	.L182
 4547              	.L188:
1068:Api\core\src/vl53l0x_api.c **** 			case VL53L0X_SEQUENCESTEP_MSRC:
1069:Api\core\src/vl53l0x_api.c **** 				SequenceConfigNew |= 0x04;
 4548              		.loc 1 1069 0
 4549 009e 1623     		movs	r3, #22
 4550 00a0 FB18     		adds	r3, r7, r3
 4551 00a2 1622     		movs	r2, #22
 4552 00a4 BA18     		adds	r2, r7, r2
 4553 00a6 1278     		ldrb	r2, [r2]
 4554 00a8 0421     		movs	r1, #4
 4555 00aa 0A43     		orrs	r2, r1
 4556 00ac 1A70     		strb	r2, [r3]
1070:Api\core\src/vl53l0x_api.c **** 				break;
 4557              		.loc 1 1070 0
 4558 00ae 51E0     		b	.L182
 4559              	.L189:
1071:Api\core\src/vl53l0x_api.c **** 			case VL53L0X_SEQUENCESTEP_PRE_RANGE:
1072:Api\core\src/vl53l0x_api.c **** 				SequenceConfigNew |= 0x40;
 4560              		.loc 1 1072 0
 4561 00b0 1623     		movs	r3, #22
 4562 00b2 FB18     		adds	r3, r7, r3
 4563 00b4 1622     		movs	r2, #22
ARM GAS  C:\Users\ilya\AppData\Local\Temp\ccpEIuqL.s 			page 100


 4564 00b6 BA18     		adds	r2, r7, r2
 4565 00b8 1278     		ldrb	r2, [r2]
 4566 00ba 4021     		movs	r1, #64
 4567 00bc 0A43     		orrs	r2, r1
 4568 00be 1A70     		strb	r2, [r3]
1073:Api\core\src/vl53l0x_api.c **** 				break;
 4569              		.loc 1 1073 0
 4570 00c0 48E0     		b	.L182
 4571              	.L190:
1074:Api\core\src/vl53l0x_api.c **** 			case VL53L0X_SEQUENCESTEP_FINAL_RANGE:
1075:Api\core\src/vl53l0x_api.c **** 				SequenceConfigNew |= 0x80;
 4572              		.loc 1 1075 0
 4573 00c2 1623     		movs	r3, #22
 4574 00c4 FB18     		adds	r3, r7, r3
 4575 00c6 1622     		movs	r2, #22
 4576 00c8 BA18     		adds	r2, r7, r2
 4577 00ca 1278     		ldrb	r2, [r2]
 4578 00cc 8021     		movs	r1, #128
 4579 00ce 4942     		rsbs	r1, r1, #0
 4580 00d0 0A43     		orrs	r2, r1
 4581 00d2 1A70     		strb	r2, [r3]
