ARM GAS  C:\Users\ilya\AppData\Local\Temp\ccpEIuqL.s 			page 1


   1              		.syntax unified
   2              		.cpu cortex-m0
   3              		.fpu softvfp
   4              		.eabi_attribute 20, 1
   5              		.eabi_attribute 21, 1
   6              		.eabi_attribute 23, 3
   7              		.eabi_attribute 24, 1
   8              		.eabi_attribute 25, 1
   9              		.eabi_attribute 26, 1
  10              		.eabi_attribute 30, 6
  11              		.eabi_attribute 34, 0
  12              		.eabi_attribute 18, 4
  13              		.thumb
  14              		.syntax unified
  15              		.file	"vl53l0x_api.c"
  16              		.text
  17              	.Ltext0:
  18              		.cfi_sections	.debug_frame
  19              		.global	DefaultTuningSettings
  20              		.data
  21              		.align	2
  22              		.type	DefaultTuningSettings, %object
  23              		.size	DefaultTuningSettings, 243
  24              	DefaultTuningSettings:
  25 0000 01       		.byte	1
  26 0001 FF       		.byte	-1
  27 0002 01       		.byte	1
  28 0003 01       		.byte	1
  29 0004 00       		.byte	0
  30 0005 00       		.byte	0
  31 0006 01       		.byte	1
  32 0007 FF       		.byte	-1
  33 0008 00       		.byte	0
  34 0009 01       		.byte	1
  35 000a 09       		.byte	9
  36 000b 00       		.byte	0
  37 000c 01       		.byte	1
  38 000d 10       		.byte	16
  39 000e 00       		.byte	0
  40 000f 01       		.byte	1
  41 0010 11       		.byte	17
  42 0011 00       		.byte	0
  43 0012 01       		.byte	1
  44 0013 24       		.byte	36
  45 0014 01       		.byte	1
  46 0015 01       		.byte	1
  47 0016 25       		.byte	37
  48 0017 FF       		.byte	-1
  49 0018 01       		.byte	1
  50 0019 75       		.byte	117
  51 001a 00       		.byte	0
  52 001b 01       		.byte	1
  53 001c FF       		.byte	-1
  54 001d 01       		.byte	1
  55 001e 01       		.byte	1
  56 001f 4E       		.byte	78
  57 0020 2C       		.byte	44
ARM GAS  C:\Users\ilya\AppData\Local\Temp\ccpEIuqL.s 			page 2


  58 0021 01       		.byte	1
  59 0022 48       		.byte	72
  60 0023 00       		.byte	0
  61 0024 01       		.byte	1
  62 0025 30       		.byte	48
  63 0026 20       		.byte	32
  64 0027 01       		.byte	1
  65 0028 FF       		.byte	-1
  66 0029 00       		.byte	0
  67 002a 01       		.byte	1
  68 002b 30       		.byte	48
  69 002c 09       		.byte	9
  70 002d 01       		.byte	1
  71 002e 54       		.byte	84
  72 002f 00       		.byte	0
  73 0030 01       		.byte	1
  74 0031 31       		.byte	49
  75 0032 04       		.byte	4
  76 0033 01       		.byte	1
  77 0034 32       		.byte	50
  78 0035 03       		.byte	3
  79 0036 01       		.byte	1
  80 0037 40       		.byte	64
  81 0038 83       		.byte	-125
  82 0039 01       		.byte	1
  83 003a 46       		.byte	70
  84 003b 25       		.byte	37
  85 003c 01       		.byte	1
  86 003d 60       		.byte	96
  87 003e 00       		.byte	0
  88 003f 01       		.byte	1
  89 0040 27       		.byte	39
  90 0041 00       		.byte	0
  91 0042 01       		.byte	1
  92 0043 50       		.byte	80
  93 0044 06       		.byte	6
  94 0045 01       		.byte	1
  95 0046 51       		.byte	81
  96 0047 00       		.byte	0
  97 0048 01       		.byte	1
  98 0049 52       		.byte	82
  99 004a 96       		.byte	-106
 100 004b 01       		.byte	1
 101 004c 56       		.byte	86
 102 004d 08       		.byte	8
 103 004e 01       		.byte	1
 104 004f 57       		.byte	87
 105 0050 30       		.byte	48
 106 0051 01       		.byte	1
 107 0052 61       		.byte	97
 108 0053 00       		.byte	0
 109 0054 01       		.byte	1
 110 0055 62       		.byte	98
 111 0056 00       		.byte	0
 112 0057 01       		.byte	1
 113 0058 64       		.byte	100
 114 0059 00       		.byte	0
ARM GAS  C:\Users\ilya\AppData\Local\Temp\ccpEIuqL.s 			page 3


 115 005a 01       		.byte	1
 116 005b 65       		.byte	101
 117 005c 00       		.byte	0
 118 005d 01       		.byte	1
 119 005e 66       		.byte	102
 120 005f A0       		.byte	-96
 121 0060 01       		.byte	1
 122 0061 FF       		.byte	-1
 123 0062 01       		.byte	1
 124 0063 01       		.byte	1
 125 0064 22       		.byte	34
 126 0065 32       		.byte	50
 127 0066 01       		.byte	1
 128 0067 47       		.byte	71
 129 0068 14       		.byte	20
 130 0069 01       		.byte	1
 131 006a 49       		.byte	73
 132 006b FF       		.byte	-1
 133 006c 01       		.byte	1
 134 006d 4A       		.byte	74
 135 006e 00       		.byte	0
 136 006f 01       		.byte	1
 137 0070 FF       		.byte	-1
 138 0071 00       		.byte	0
 139 0072 01       		.byte	1
 140 0073 7A       		.byte	122
 141 0074 0A       		.byte	10
 142 0075 01       		.byte	1
 143 0076 7B       		.byte	123
 144 0077 00       		.byte	0
 145 0078 01       		.byte	1
 146 0079 78       		.byte	120
 147 007a 21       		.byte	33
 148 007b 01       		.byte	1
 149 007c FF       		.byte	-1
 150 007d 01       		.byte	1
 151 007e 01       		.byte	1
 152 007f 23       		.byte	35
 153 0080 34       		.byte	52
 154 0081 01       		.byte	1
 155 0082 42       		.byte	66
 156 0083 00       		.byte	0
 157 0084 01       		.byte	1
 158 0085 44       		.byte	68
 159 0086 FF       		.byte	-1
 160 0087 01       		.byte	1
 161 0088 45       		.byte	69
 162 0089 26       		.byte	38
 163 008a 01       		.byte	1
 164 008b 46       		.byte	70
 165 008c 05       		.byte	5
 166 008d 01       		.byte	1
 167 008e 40       		.byte	64
 168 008f 40       		.byte	64
 169 0090 01       		.byte	1
 170 0091 0E       		.byte	14
 171 0092 06       		.byte	6
ARM GAS  C:\Users\ilya\AppData\Local\Temp\ccpEIuqL.s 			page 4


 172 0093 01       		.byte	1
 173 0094 20       		.byte	32
 174 0095 1A       		.byte	26
 175 0096 01       		.byte	1
 176 0097 43       		.byte	67
 177 0098 40       		.byte	64
 178 0099 01       		.byte	1
 179 009a FF       		.byte	-1
 180 009b 00       		.byte	0
 181 009c 01       		.byte	1
 182 009d 34       		.byte	52
 183 009e 03       		.byte	3
 184 009f 01       		.byte	1
 185 00a0 35       		.byte	53
 186 00a1 44       		.byte	68
 187 00a2 01       		.byte	1
 188 00a3 FF       		.byte	-1
 189 00a4 01       		.byte	1
 190 00a5 01       		.byte	1
 191 00a6 31       		.byte	49
 192 00a7 04       		.byte	4
 193 00a8 01       		.byte	1
 194 00a9 4B       		.byte	75
 195 00aa 09       		.byte	9
 196 00ab 01       		.byte	1
 197 00ac 4C       		.byte	76
 198 00ad 05       		.byte	5
 199 00ae 01       		.byte	1
 200 00af 4D       		.byte	77
 201 00b0 04       		.byte	4
 202 00b1 01       		.byte	1
 203 00b2 FF       		.byte	-1
 204 00b3 00       		.byte	0
 205 00b4 01       		.byte	1
 206 00b5 44       		.byte	68
 207 00b6 00       		.byte	0
 208 00b7 01       		.byte	1
 209 00b8 45       		.byte	69
 210 00b9 20       		.byte	32
 211 00ba 01       		.byte	1
 212 00bb 47       		.byte	71
 213 00bc 08       		.byte	8
 214 00bd 01       		.byte	1
 215 00be 48       		.byte	72
 216 00bf 28       		.byte	40
 217 00c0 01       		.byte	1
 218 00c1 67       		.byte	103
 219 00c2 00       		.byte	0
 220 00c3 01       		.byte	1
 221 00c4 70       		.byte	112
 222 00c5 04       		.byte	4
 223 00c6 01       		.byte	1
 224 00c7 71       		.byte	113
 225 00c8 01       		.byte	1
 226 00c9 01       		.byte	1
 227 00ca 72       		.byte	114
 228 00cb FE       		.byte	-2
ARM GAS  C:\Users\ilya\AppData\Local\Temp\ccpEIuqL.s 			page 5


 229 00cc 01       		.byte	1
 230 00cd 76       		.byte	118
 231 00ce 00       		.byte	0
 232 00cf 01       		.byte	1
 233 00d0 77       		.byte	119
 234 00d1 00       		.byte	0
 235 00d2 01       		.byte	1
 236 00d3 FF       		.byte	-1
 237 00d4 01       		.byte	1
 238 00d5 01       		.byte	1
 239 00d6 0D       		.byte	13
 240 00d7 01       		.byte	1
 241 00d8 01       		.byte	1
 242 00d9 FF       		.byte	-1
 243 00da 00       		.byte	0
 244 00db 01       		.byte	1
 245 00dc 80       		.byte	-128
 246 00dd 01       		.byte	1
 247 00de 01       		.byte	1
 248 00df 01       		.byte	1
 249 00e0 F8       		.byte	-8
 250 00e1 01       		.byte	1
 251 00e2 FF       		.byte	-1
 252 00e3 01       		.byte	1
 253 00e4 01       		.byte	1
 254 00e5 8E       		.byte	-114
 255 00e6 01       		.byte	1
 256 00e7 01       		.byte	1
 257 00e8 00       		.byte	0
 258 00e9 01       		.byte	1
 259 00ea 01       		.byte	1
 260 00eb FF       		.byte	-1
 261 00ec 00       		.byte	0
 262 00ed 01       		.byte	1
 263 00ee 80       		.byte	-128
 264 00ef 00       		.byte	0
 265 00f0 00       		.byte	0
 266 00f1 00       		.byte	0
 267 00f2 00       		.byte	0
 268              		.global	InterruptThresholdSettings
 269 00f3 00       		.align	2
 270              		.type	InterruptThresholdSettings, %object
 271              		.size	InterruptThresholdSettings, 438
 272              	InterruptThresholdSettings:
 273 00f4 01       		.byte	1
 274 00f5 FF       		.byte	-1
 275 00f6 00       		.byte	0
 276 00f7 01       		.byte	1
 277 00f8 80       		.byte	-128
 278 00f9 01       		.byte	1
 279 00fa 01       		.byte	1
 280 00fb FF       		.byte	-1
 281 00fc 01       		.byte	1
 282 00fd 01       		.byte	1
 283 00fe 00       		.byte	0
 284 00ff 00       		.byte	0
 285 0100 01       		.byte	1
ARM GAS  C:\Users\ilya\AppData\Local\Temp\ccpEIuqL.s 			page 6


 286 0101 FF       		.byte	-1
 287 0102 01       		.byte	1
 288 0103 01       		.byte	1
 289 0104 4F       		.byte	79
 290 0105 02       		.byte	2
 291 0106 01       		.byte	1
 292 0107 FF       		.byte	-1
 293 0108 0E       		.byte	14
 294 0109 01       		.byte	1
 295 010a 00       		.byte	0
 296 010b 03       		.byte	3
 297 010c 01       		.byte	1
 298 010d 01       		.byte	1
 299 010e 84       		.byte	-124
 300 010f 01       		.byte	1
 301 0110 02       		.byte	2
 302 0111 0A       		.byte	10
 303 0112 01       		.byte	1
 304 0113 03       		.byte	3
 305 0114 03       		.byte	3
 306 0115 01       		.byte	1
 307 0116 04       		.byte	4
 308 0117 08       		.byte	8
 309 0118 01       		.byte	1
 310 0119 05       		.byte	5
 311 011a C8       		.byte	-56
 312 011b 01       		.byte	1
 313 011c 06       		.byte	6
 314 011d 03       		.byte	3
 315 011e 01       		.byte	1
 316 011f 07       		.byte	7
 317 0120 8D       		.byte	-115
 318 0121 01       		.byte	1
 319 0122 08       		.byte	8
 320 0123 08       		.byte	8
 321 0124 01       		.byte	1
 322 0125 09       		.byte	9
 323 0126 C6       		.byte	-58
 324 0127 01       		.byte	1
 325 0128 0A       		.byte	10
 326 0129 01       		.byte	1
 327 012a 01       		.byte	1
 328 012b 0B       		.byte	11
 329 012c 02       		.byte	2
 330 012d 01       		.byte	1
 331 012e 0C       		.byte	12
 332 012f 00       		.byte	0
 333 0130 01       		.byte	1
 334 0131 0D       		.byte	13
 335 0132 D5       		.byte	-43
 336 0133 01       		.byte	1
 337 0134 0E       		.byte	14
 338 0135 18       		.byte	24
 339 0136 01       		.byte	1
 340 0137 0F       		.byte	15
 341 0138 12       		.byte	18
 342 0139 01       		.byte	1
ARM GAS  C:\Users\ilya\AppData\Local\Temp\ccpEIuqL.s 			page 7


 343 013a 10       		.byte	16
 344 013b 01       		.byte	1
 345 013c 01       		.byte	1
 346 013d 11       		.byte	17
 347 013e 82       		.byte	-126
 348 013f 01       		.byte	1
 349 0140 12       		.byte	18
 350 0141 00       		.byte	0
 351 0142 01       		.byte	1
 352 0143 13       		.byte	19
 353 0144 D5       		.byte	-43
 354 0145 01       		.byte	1
 355 0146 14       		.byte	20
 356 0147 18       		.byte	24
 357 0148 01       		.byte	1
 358 0149 15       		.byte	21
 359 014a 13       		.byte	19
 360 014b 01       		.byte	1
 361 014c 16       		.byte	22
 362 014d 03       		.byte	3
 363 014e 01       		.byte	1
 364 014f 17       		.byte	23
 365 0150 86       		.byte	-122
 366 0151 01       		.byte	1
 367 0152 18       		.byte	24
 368 0153 0A       		.byte	10
 369 0154 01       		.byte	1
 370 0155 19       		.byte	25
 371 0156 09       		.byte	9
 372 0157 01       		.byte	1
 373 0158 1A       		.byte	26
 374 0159 08       		.byte	8
 375 015a 01       		.byte	1
 376 015b 1B       		.byte	27
 377 015c C2       		.byte	-62
 378 015d 01       		.byte	1
 379 015e 1C       		.byte	28
 380 015f 03       		.byte	3
 381 0160 01       		.byte	1
 382 0161 1D       		.byte	29
 383 0162 8F       		.byte	-113
 384 0163 01       		.byte	1
 385 0164 1E       		.byte	30
 386 0165 0A       		.byte	10
 387 0166 01       		.byte	1
 388 0167 1F       		.byte	31
 389 0168 06       		.byte	6
 390 0169 01       		.byte	1
 391 016a 20       		.byte	32
 392 016b 01       		.byte	1
 393 016c 01       		.byte	1
 394 016d 21       		.byte	33
 395 016e 02       		.byte	2
 396 016f 01       		.byte	1
 397 0170 22       		.byte	34
 398 0171 00       		.byte	0
 399 0172 01       		.byte	1
ARM GAS  C:\Users\ilya\AppData\Local\Temp\ccpEIuqL.s 			page 8


 400 0173 23       		.byte	35
 401 0174 D5       		.byte	-43
 402 0175 01       		.byte	1
 403 0176 24       		.byte	36
 404 0177 18       		.byte	24
 405 0178 01       		.byte	1
 406 0179 25       		.byte	37
 407 017a 22       		.byte	34
 408 017b 01       		.byte	1
 409 017c 26       		.byte	38
 410 017d 01       		.byte	1
 411 017e 01       		.byte	1
 412 017f 27       		.byte	39
 413 0180 82       		.byte	-126
 414 0181 01       		.byte	1
 415 0182 28       		.byte	40
 416 0183 00       		.byte	0
 417 0184 01       		.byte	1
 418 0185 29       		.byte	41
 419 0186 D5       		.byte	-43
 420 0187 01       		.byte	1
 421 0188 2A       		.byte	42
 422 0189 18       		.byte	24
 423 018a 01       		.byte	1
 424 018b 2B       		.byte	43
 425 018c 0B       		.byte	11
 426 018d 01       		.byte	1
 427 018e 2C       		.byte	44
 428 018f 28       		.byte	40
 429 0190 01       		.byte	1
 430 0191 2D       		.byte	45
 431 0192 78       		.byte	120
 432 0193 01       		.byte	1
 433 0194 2E       		.byte	46
 434 0195 28       		.byte	40
 435 0196 01       		.byte	1
 436 0197 2F       		.byte	47
 437 0198 91       		.byte	-111
 438 0199 01       		.byte	1
 439 019a 30       		.byte	48
 440 019b 00       		.byte	0
 441 019c 01       		.byte	1
 442 019d 31       		.byte	49
 443 019e 0B       		.byte	11
 444 019f 01       		.byte	1
 445 01a0 32       		.byte	50
 446 01a1 00       		.byte	0
 447 01a2 01       		.byte	1
 448 01a3 33       		.byte	51
 449 01a4 0B       		.byte	11
 450 01a5 01       		.byte	1
 451 01a6 34       		.byte	52
 452 01a7 00       		.byte	0
 453 01a8 01       		.byte	1
 454 01a9 35       		.byte	53
 455 01aa A1       		.byte	-95
 456 01ab 01       		.byte	1
ARM GAS  C:\Users\ilya\AppData\Local\Temp\ccpEIuqL.s 			page 9


 457 01ac 36       		.byte	54
 458 01ad 00       		.byte	0
 459 01ae 01       		.byte	1
 460 01af 37       		.byte	55
 461 01b0 A0       		.byte	-96
 462 01b1 01       		.byte	1
 463 01b2 38       		.byte	56
 464 01b3 00       		.byte	0
 465 01b4 01       		.byte	1
 466 01b5 39       		.byte	57
 467 01b6 04       		.byte	4
 468 01b7 01       		.byte	1
 469 01b8 3A       		.byte	58
 470 01b9 28       		.byte	40
 471 01ba 01       		.byte	1
 472 01bb 3B       		.byte	59
 473 01bc 30       		.byte	48
 474 01bd 01       		.byte	1
 475 01be 3C       		.byte	60
 476 01bf 0C       		.byte	12
 477 01c0 01       		.byte	1
 478 01c1 3D       		.byte	61
 479 01c2 04       		.byte	4
 480 01c3 01       		.byte	1
 481 01c4 3E       		.byte	62
 482 01c5 0F       		.byte	15
 483 01c6 01       		.byte	1
 484 01c7 3F       		.byte	63
 485 01c8 79       		.byte	121
 486 01c9 01       		.byte	1
 487 01ca 40       		.byte	64
 488 01cb 28       		.byte	40
 489 01cc 01       		.byte	1
 490 01cd 41       		.byte	65
 491 01ce 1E       		.byte	30
 492 01cf 01       		.byte	1
 493 01d0 42       		.byte	66
 494 01d1 2F       		.byte	47
 495 01d2 01       		.byte	1
 496 01d3 43       		.byte	67
 497 01d4 87       		.byte	-121
 498 01d5 01       		.byte	1
 499 01d6 44       		.byte	68
 500 01d7 00       		.byte	0
 501 01d8 01       		.byte	1
 502 01d9 45       		.byte	69
 503 01da 0B       		.byte	11
 504 01db 01       		.byte	1
 505 01dc 46       		.byte	70
 506 01dd 00       		.byte	0
 507 01de 01       		.byte	1
 508 01df 47       		.byte	71
 509 01e0 0B       		.byte	11
 510 01e1 01       		.byte	1
 511 01e2 48       		.byte	72
 512 01e3 00       		.byte	0
 513 01e4 01       		.byte	1
ARM GAS  C:\Users\ilya\AppData\Local\Temp\ccpEIuqL.s 			page 10


 514 01e5 49       		.byte	73
 515 01e6 A7       		.byte	-89
 516 01e7 01       		.byte	1
 517 01e8 4A       		.byte	74
 518 01e9 00       		.byte	0
 519 01ea 01       		.byte	1
 520 01eb 4B       		.byte	75
 521 01ec A6       		.byte	-90
 522 01ed 01       		.byte	1
 523 01ee 4C       		.byte	76
 524 01ef 00       		.byte	0
 525 01f0 01       		.byte	1
 526 01f1 4D       		.byte	77
 527 01f2 04       		.byte	4
 528 01f3 01       		.byte	1
 529 01f4 4E       		.byte	78
 530 01f5 01       		.byte	1
 531 01f6 01       		.byte	1
 532 01f7 4F       		.byte	79
 533 01f8 00       		.byte	0
 534 01f9 01       		.byte	1
 535 01fa 50       		.byte	80
 536 01fb 00       		.byte	0
 537 01fc 01       		.byte	1
 538 01fd 51       		.byte	81
 539 01fe 80       		.byte	-128
 540 01ff 01       		.byte	1
 541 0200 52       		.byte	82
 542 0201 09       		.byte	9
 543 0202 01       		.byte	1
 544 0203 53       		.byte	83
 545 0204 08       		.byte	8
 546 0205 01       		.byte	1
 547 0206 54       		.byte	84
 548 0207 01       		.byte	1
 549 0208 01       		.byte	1
 550 0209 55       		.byte	85
 551 020a 00       		.byte	0
 552 020b 01       		.byte	1
 553 020c 56       		.byte	86
 554 020d 0F       		.byte	15
 555 020e 01       		.byte	1
 556 020f 57       		.byte	87
 557 0210 79       		.byte	121
 558 0211 01       		.byte	1
 559 0212 58       		.byte	88
 560 0213 09       		.byte	9
 561 0214 01       		.byte	1
 562 0215 59       		.byte	89
 563 0216 05       		.byte	5
 564 0217 01       		.byte	1
 565 0218 5A       		.byte	90
 566 0219 00       		.byte	0
 567 021a 01       		.byte	1
 568 021b 5B       		.byte	91
 569 021c 60       		.byte	96
 570 021d 01       		.byte	1
ARM GAS  C:\Users\ilya\AppData\Local\Temp\ccpEIuqL.s 			page 11


 571 021e 5C       		.byte	92
 572 021f 05       		.byte	5
 573 0220 01       		.byte	1
 574 0221 5D       		.byte	93
 575 0222 D1       		.byte	-47
 576 0223 01       		.byte	1
 577 0224 5E       		.byte	94
 578 0225 0C       		.byte	12
 579 0226 01       		.byte	1
 580 0227 5F       		.byte	95
 581 0228 3C       		.byte	60
 582 0229 01       		.byte	1
 583 022a 60       		.byte	96
 584 022b 00       		.byte	0
 585 022c 01       		.byte	1
 586 022d 61       		.byte	97
 587 022e D0       		.byte	-48
 588 022f 01       		.byte	1
 589 0230 62       		.byte	98
 590 0231 0B       		.byte	11
 591 0232 01       		.byte	1
 592 0233 63       		.byte	99
 593 0234 03       		.byte	3
 594 0235 01       		.byte	1
 595 0236 64       		.byte	100
 596 0237 28       		.byte	40
 597 0238 01       		.byte	1
 598 0239 65       		.byte	101
 599 023a 10       		.byte	16
 600 023b 01       		.byte	1
 601 023c 66       		.byte	102
 602 023d 2A       		.byte	42
 603 023e 01       		.byte	1
 604 023f 67       		.byte	103
 605 0240 39       		.byte	57
 606 0241 01       		.byte	1
 607 0242 68       		.byte	104
 608 0243 0B       		.byte	11
 609 0244 01       		.byte	1
 610 0245 69       		.byte	105
 611 0246 02       		.byte	2
 612 0247 01       		.byte	1
 613 0248 6A       		.byte	106
 614 0249 28       		.byte	40
 615 024a 01       		.byte	1
 616 024b 6B       		.byte	107
 617 024c 10       		.byte	16
 618 024d 01       		.byte	1
 619 024e 6C       		.byte	108
 620 024f 2A       		.byte	42
 621 0250 01       		.byte	1
 622 0251 6D       		.byte	109
 623 0252 61       		.byte	97
 624 0253 01       		.byte	1
 625 0254 6E       		.byte	110
 626 0255 0C       		.byte	12
 627 0256 01       		.byte	1
ARM GAS  C:\Users\ilya\AppData\Local\Temp\ccpEIuqL.s 			page 12


 628 0257 6F       		.byte	111
 629 0258 00       		.byte	0
 630 0259 01       		.byte	1
 631 025a 70       		.byte	112
 632 025b 0F       		.byte	15
 633 025c 01       		.byte	1
 634 025d 71       		.byte	113
 635 025e 79       		.byte	121
 636 025f 01       		.byte	1
 637 0260 72       		.byte	114
 638 0261 00       		.byte	0
 639 0262 01       		.byte	1
 640 0263 73       		.byte	115
 641 0264 0B       		.byte	11
 642 0265 01       		.byte	1
 643 0266 74       		.byte	116
 644 0267 00       		.byte	0
 645 0268 01       		.byte	1
 646 0269 75       		.byte	117
 647 026a 0B       		.byte	11
 648 026b 01       		.byte	1
 649 026c 76       		.byte	118
 650 026d 00       		.byte	0
 651 026e 01       		.byte	1
 652 026f 77       		.byte	119
 653 0270 A1       		.byte	-95
 654 0271 01       		.byte	1
 655 0272 78       		.byte	120
 656 0273 00       		.byte	0
 657 0274 01       		.byte	1
 658 0275 79       		.byte	121
 659 0276 A0       		.byte	-96
 660 0277 01       		.byte	1
 661 0278 7A       		.byte	122
 662 0279 00       		.byte	0
 663 027a 01       		.byte	1
 664 027b 7B       		.byte	123
 665 027c 04       		.byte	4
 666 027d 01       		.byte	1
 667 027e FF       		.byte	-1
 668 027f 04       		.byte	4
 669 0280 01       		.byte	1
 670 0281 79       		.byte	121
 671 0282 1D       		.byte	29
 672 0283 01       		.byte	1
 673 0284 7B       		.byte	123
 674 0285 27       		.byte	39
 675 0286 01       		.byte	1
 676 0287 96       		.byte	-106
 677 0288 0E       		.byte	14
 678 0289 01       		.byte	1
 679 028a 97       		.byte	-105
 680 028b FE       		.byte	-2
 681 028c 01       		.byte	1
 682 028d 98       		.byte	-104
 683 028e 03       		.byte	3
 684 028f 01       		.byte	1
ARM GAS  C:\Users\ilya\AppData\Local\Temp\ccpEIuqL.s 			page 13


 685 0290 99       		.byte	-103
 686 0291 EF       		.byte	-17
 687 0292 01       		.byte	1
 688 0293 9A       		.byte	-102
 689 0294 02       		.byte	2
 690 0295 01       		.byte	1
 691 0296 9B       		.byte	-101
 692 0297 44       		.byte	68
 693 0298 01       		.byte	1
 694 0299 73       		.byte	115
 695 029a 07       		.byte	7
 696 029b 01       		.byte	1
 697 029c 70       		.byte	112
 698 029d 01       		.byte	1
 699 029e 01       		.byte	1
 700 029f FF       		.byte	-1
 701 02a0 01       		.byte	1
 702 02a1 01       		.byte	1
 703 02a2 00       		.byte	0
 704 02a3 01       		.byte	1
 705 02a4 01       		.byte	1
 706 02a5 FF       		.byte	-1
 707 02a6 00       		.byte	0
 708 02a7 00       		.byte	0
 709 02a8 00       		.byte	0
 710 02a9 00       		.byte	0
 711              		.section	.text.VL53L0X_GetVersion,"ax",%progbits
 712              		.align	2
 713              		.global	VL53L0X_GetVersion
 714              		.code	16
 715              		.thumb_func
 716              		.type	VL53L0X_GetVersion, %function
 717              	VL53L0X_GetVersion:
 718              	.LFB1:
 719              		.file 1 "Api\\core\\src\\vl53l0x_api.c"
   1:Api\core\src/vl53l0x_api.c **** /*******************************************************************************
   2:Api\core\src/vl53l0x_api.c ****  Copyright © 2016, STMicroelectronics International N.V.
   3:Api\core\src/vl53l0x_api.c ****  All rights reserved.
   4:Api\core\src/vl53l0x_api.c **** 
   5:Api\core\src/vl53l0x_api.c ****  Redistribution and use in source and binary forms, with or without
   6:Api\core\src/vl53l0x_api.c ****  modification, are permitted provided that the following conditions are met:
   7:Api\core\src/vl53l0x_api.c ****  * Redistributions of source code must retain the above copyright
   8:Api\core\src/vl53l0x_api.c ****  notice, this list of conditions and the following disclaimer.
   9:Api\core\src/vl53l0x_api.c ****  * Redistributions in binary form must reproduce the above copyright
  10:Api\core\src/vl53l0x_api.c ****  notice, this list of conditions and the following disclaimer in the
  11:Api\core\src/vl53l0x_api.c ****  documentation and/or other materials provided with the distribution.
  12:Api\core\src/vl53l0x_api.c ****  * Neither the name of STMicroelectronics nor the
  13:Api\core\src/vl53l0x_api.c ****  names of its contributors may be used to endorse or promote products
  14:Api\core\src/vl53l0x_api.c ****  derived from this software without specific prior written permission.
  15:Api\core\src/vl53l0x_api.c **** 
  16:Api\core\src/vl53l0x_api.c ****  THIS SOFTWARE IS PROVIDED BY THE COPYRIGHT HOLDERS AND CONTRIBUTORS "AS IS" AND
  17:Api\core\src/vl53l0x_api.c ****  ANY EXPRESS OR IMPLIED WARRANTIES, INCLUDING, BUT NOT LIMITED TO, THE IMPLIED
  18:Api\core\src/vl53l0x_api.c ****  WARRANTIES OF MERCHANTABILITY, FITNESS FOR A PARTICULAR PURPOSE, AND
  19:Api\core\src/vl53l0x_api.c ****  NON-INFRINGEMENT OF INTELLECTUAL PROPERTY RIGHTS ARE DISCLAIMED.
  20:Api\core\src/vl53l0x_api.c ****  IN NO EVENT SHALL STMICROELECTRONICS INTERNATIONAL N.V. BE LIABLE FOR ANY
  21:Api\core\src/vl53l0x_api.c ****  DIRECT, INDIRECT, INCIDENTAL, SPECIAL, EXEMPLARY, OR CONSEQUENTIAL DAMAGES
  22:Api\core\src/vl53l0x_api.c ****  (INCLUDING, BUT NOT LIMITED TO, PROCUREMENT OF SUBSTITUTE GOODS OR SERVICES;
ARM GAS  C:\Users\ilya\AppData\Local\Temp\ccpEIuqL.s 			page 14


  23:Api\core\src/vl53l0x_api.c ****  LOSS OF USE, DATA, OR PROFITS; OR BUSINESS INTERRUPTION) HOWEVER CAUSED AND
  24:Api\core\src/vl53l0x_api.c ****  ON ANY THEORY OF LIABILITY, WHETHER IN CONTRACT, STRICT LIABILITY, OR TORT
  25:Api\core\src/vl53l0x_api.c ****  (INCLUDING NEGLIGENCE OR OTHERWISE) ARISING IN ANY WAY OUT OF THE USE OF THIS
  26:Api\core\src/vl53l0x_api.c ****  SOFTWARE, EVEN IF ADVISED OF THE POSSIBILITY OF SUCH DAMAGE.
  27:Api\core\src/vl53l0x_api.c ****  ******************************************************************************/
  28:Api\core\src/vl53l0x_api.c **** 
  29:Api\core\src/vl53l0x_api.c **** #include "vl53l0x_api.h"
  30:Api\core\src/vl53l0x_api.c **** #include "vl53l0x_tuning.h"
  31:Api\core\src/vl53l0x_api.c **** #include "vl53l0x_interrupt_threshold_settings.h"
  32:Api\core\src/vl53l0x_api.c **** #include "vl53l0x_api_core.h"
  33:Api\core\src/vl53l0x_api.c **** #include "vl53l0x_api_calibration.h"
  34:Api\core\src/vl53l0x_api.c **** #include "vl53l0x_api_strings.h"
  35:Api\core\src/vl53l0x_api.c **** 
  36:Api\core\src/vl53l0x_api.c **** #ifndef __KERNEL__
  37:Api\core\src/vl53l0x_api.c **** #include <stdlib.h>
  38:Api\core\src/vl53l0x_api.c **** #endif
  39:Api\core\src/vl53l0x_api.c **** #define LOG_FUNCTION_START(fmt, ...) \
  40:Api\core\src/vl53l0x_api.c **** 	_LOG_FUNCTION_START(TRACE_MODULE_API, fmt, ##__VA_ARGS__)
  41:Api\core\src/vl53l0x_api.c **** #define LOG_FUNCTION_END(status, ...) \
  42:Api\core\src/vl53l0x_api.c **** 	_LOG_FUNCTION_END(TRACE_MODULE_API, status, ##__VA_ARGS__)
  43:Api\core\src/vl53l0x_api.c **** #define LOG_FUNCTION_END_FMT(status, fmt, ...) \
  44:Api\core\src/vl53l0x_api.c **** 	_LOG_FUNCTION_END_FMT(TRACE_MODULE_API, status, fmt, ##__VA_ARGS__)
  45:Api\core\src/vl53l0x_api.c **** 
  46:Api\core\src/vl53l0x_api.c **** #ifdef VL53L0X_LOG_ENABLE
  47:Api\core\src/vl53l0x_api.c **** #define trace_print(level, ...) trace_print_module_function(TRACE_MODULE_API, \
  48:Api\core\src/vl53l0x_api.c **** 	level, TRACE_FUNCTION_NONE, ##__VA_ARGS__)
  49:Api\core\src/vl53l0x_api.c **** #endif
  50:Api\core\src/vl53l0x_api.c **** 
  51:Api\core\src/vl53l0x_api.c **** /* Group PAL General Functions */
  52:Api\core\src/vl53l0x_api.c **** 
  53:Api\core\src/vl53l0x_api.c **** VL53L0X_Error VL53L0X_GetVersion(VL53L0X_Version_t *pVersion)
  54:Api\core\src/vl53l0x_api.c **** {
 720              		.loc 1 54 0
 721              		.cfi_startproc
 722              		@ args = 0, pretend = 0, frame = 16
 723              		@ frame_needed = 1, uses_anonymous_args = 0
 724 0000 80B5     		push	{r7, lr}
 725              		.cfi_def_cfa_offset 8
 726              		.cfi_offset 7, -8
 727              		.cfi_offset 14, -4
 728 0002 84B0     		sub	sp, sp, #16
 729              		.cfi_def_cfa_offset 24
 730 0004 00AF     		add	r7, sp, #0
 731              		.cfi_def_cfa_register 7
 732 0006 7860     		str	r0, [r7, #4]
  55:Api\core\src/vl53l0x_api.c **** 	VL53L0X_Error Status = VL53L0X_ERROR_NONE;
 733              		.loc 1 55 0
 734 0008 0F23     		movs	r3, #15
 735 000a FB18     		adds	r3, r7, r3
 736 000c 0022     		movs	r2, #0
 737 000e 1A70     		strb	r2, [r3]
  56:Api\core\src/vl53l0x_api.c **** 	LOG_FUNCTION_START("");
  57:Api\core\src/vl53l0x_api.c **** 
  58:Api\core\src/vl53l0x_api.c **** 	pVersion->major = VL53L0X_IMPLEMENTATION_VER_MAJOR;
 738              		.loc 1 58 0
 739 0010 7B68     		ldr	r3, [r7, #4]
 740 0012 0122     		movs	r2, #1
ARM GAS  C:\Users\ilya\AppData\Local\Temp\ccpEIuqL.s 			page 15


 741 0014 1A71     		strb	r2, [r3, #4]
  59:Api\core\src/vl53l0x_api.c **** 	pVersion->minor = VL53L0X_IMPLEMENTATION_VER_MINOR;
 742              		.loc 1 59 0
 743 0016 7B68     		ldr	r3, [r7, #4]
 744 0018 0022     		movs	r2, #0
 745 001a 5A71     		strb	r2, [r3, #5]
  60:Api\core\src/vl53l0x_api.c **** 	pVersion->build = VL53L0X_IMPLEMENTATION_VER_SUB;
 746              		.loc 1 60 0
 747 001c 7B68     		ldr	r3, [r7, #4]
 748 001e 0222     		movs	r2, #2
 749 0020 9A71     		strb	r2, [r3, #6]
  61:Api\core\src/vl53l0x_api.c **** 
  62:Api\core\src/vl53l0x_api.c **** 	pVersion->revision = VL53L0X_IMPLEMENTATION_VER_REVISION;
 750              		.loc 1 62 0
 751 0022 7B68     		ldr	r3, [r7, #4]
 752 0024 044A     		ldr	r2, .L3
 753 0026 1A60     		str	r2, [r3]
  63:Api\core\src/vl53l0x_api.c **** 
  64:Api\core\src/vl53l0x_api.c **** 	LOG_FUNCTION_END(Status);
  65:Api\core\src/vl53l0x_api.c **** 	return Status;
 754              		.loc 1 65 0
 755 0028 0F23     		movs	r3, #15
 756 002a FB18     		adds	r3, r7, r3
 757 002c 1B78     		ldrb	r3, [r3]
 758 002e 5BB2     		sxtb	r3, r3
  66:Api\core\src/vl53l0x_api.c **** }
 759              		.loc 1 66 0
 760 0030 1800     		movs	r0, r3
 761 0032 BD46     		mov	sp, r7
 762 0034 04B0     		add	sp, sp, #16
 763              		@ sp needed
 764 0036 80BD     		pop	{r7, pc}
 765              	.L4:
 766              		.align	2
 767              	.L3:
 768 0038 D7120000 		.word	4823
 769              		.cfi_endproc
 770              	.LFE1:
 771              		.size	VL53L0X_GetVersion, .-VL53L0X_GetVersion
 772              		.section	.text.VL53L0X_GetPalSpecVersion,"ax",%progbits
 773              		.align	2
 774              		.global	VL53L0X_GetPalSpecVersion
 775              		.code	16
 776              		.thumb_func
 777              		.type	VL53L0X_GetPalSpecVersion, %function
 778              	VL53L0X_GetPalSpecVersion:
 779              	.LFB2:
  67:Api\core\src/vl53l0x_api.c **** 
  68:Api\core\src/vl53l0x_api.c **** VL53L0X_Error VL53L0X_GetPalSpecVersion(VL53L0X_Version_t *pPalSpecVersion)
  69:Api\core\src/vl53l0x_api.c **** {
 780              		.loc 1 69 0
 781              		.cfi_startproc
 782              		@ args = 0, pretend = 0, frame = 16
 783              		@ frame_needed = 1, uses_anonymous_args = 0
 784 0000 80B5     		push	{r7, lr}
 785              		.cfi_def_cfa_offset 8
 786              		.cfi_offset 7, -8
ARM GAS  C:\Users\ilya\AppData\Local\Temp\ccpEIuqL.s 			page 16


 787              		.cfi_offset 14, -4
 788 0002 84B0     		sub	sp, sp, #16
 789              		.cfi_def_cfa_offset 24
 790 0004 00AF     		add	r7, sp, #0
 791              		.cfi_def_cfa_register 7
 792 0006 7860     		str	r0, [r7, #4]
  70:Api\core\src/vl53l0x_api.c **** 	VL53L0X_Error Status = VL53L0X_ERROR_NONE;
 793              		.loc 1 70 0
 794 0008 0F23     		movs	r3, #15
 795 000a FB18     		adds	r3, r7, r3
 796 000c 0022     		movs	r2, #0
 797 000e 1A70     		strb	r2, [r3]
  71:Api\core\src/vl53l0x_api.c **** 
  72:Api\core\src/vl53l0x_api.c **** 	LOG_FUNCTION_START("");
  73:Api\core\src/vl53l0x_api.c **** 
  74:Api\core\src/vl53l0x_api.c **** 	pPalSpecVersion->major = VL53L0X_SPECIFICATION_VER_MAJOR;
 798              		.loc 1 74 0
 799 0010 7B68     		ldr	r3, [r7, #4]
 800 0012 0122     		movs	r2, #1
 801 0014 1A71     		strb	r2, [r3, #4]
  75:Api\core\src/vl53l0x_api.c **** 	pPalSpecVersion->minor = VL53L0X_SPECIFICATION_VER_MINOR;
 802              		.loc 1 75 0
 803 0016 7B68     		ldr	r3, [r7, #4]
 804 0018 0222     		movs	r2, #2
 805 001a 5A71     		strb	r2, [r3, #5]
  76:Api\core\src/vl53l0x_api.c **** 	pPalSpecVersion->build = VL53L0X_SPECIFICATION_VER_SUB;
 806              		.loc 1 76 0
 807 001c 7B68     		ldr	r3, [r7, #4]
 808 001e 0722     		movs	r2, #7
 809 0020 9A71     		strb	r2, [r3, #6]
  77:Api\core\src/vl53l0x_api.c **** 
  78:Api\core\src/vl53l0x_api.c **** 	pPalSpecVersion->revision = VL53L0X_SPECIFICATION_VER_REVISION;
 810              		.loc 1 78 0
 811 0022 7B68     		ldr	r3, [r7, #4]
 812 0024 B422     		movs	r2, #180
 813 0026 D200     		lsls	r2, r2, #3
 814 0028 1A60     		str	r2, [r3]
  79:Api\core\src/vl53l0x_api.c **** 
  80:Api\core\src/vl53l0x_api.c **** 	LOG_FUNCTION_END(Status);
  81:Api\core\src/vl53l0x_api.c **** 	return Status;
 815              		.loc 1 81 0
 816 002a 0F23     		movs	r3, #15
 817 002c FB18     		adds	r3, r7, r3
 818 002e 1B78     		ldrb	r3, [r3]
 819 0030 5BB2     		sxtb	r3, r3
  82:Api\core\src/vl53l0x_api.c **** }
 820              		.loc 1 82 0
 821 0032 1800     		movs	r0, r3
 822 0034 BD46     		mov	sp, r7
 823 0036 04B0     		add	sp, sp, #16
 824              		@ sp needed
 825 0038 80BD     		pop	{r7, pc}
 826              		.cfi_endproc
 827              	.LFE2:
 828              		.size	VL53L0X_GetPalSpecVersion, .-VL53L0X_GetPalSpecVersion
 829 003a C046     		.section	.text.VL53L0X_GetProductRevision,"ax",%progbits
 830              		.align	2
ARM GAS  C:\Users\ilya\AppData\Local\Temp\ccpEIuqL.s 			page 17


 831              		.global	VL53L0X_GetProductRevision
 832              		.code	16
 833              		.thumb_func
 834              		.type	VL53L0X_GetProductRevision, %function
 835              	VL53L0X_GetProductRevision:
 836              	.LFB3:
  83:Api\core\src/vl53l0x_api.c **** 
  84:Api\core\src/vl53l0x_api.c **** VL53L0X_Error VL53L0X_GetProductRevision(VL53L0X_DEV Dev,
  85:Api\core\src/vl53l0x_api.c **** 	uint8_t *pProductRevisionMajor, uint8_t *pProductRevisionMinor)
  86:Api\core\src/vl53l0x_api.c **** {
 837              		.loc 1 86 0
 838              		.cfi_startproc
 839              		@ args = 0, pretend = 0, frame = 24
 840              		@ frame_needed = 1, uses_anonymous_args = 0
 841 0000 90B5     		push	{r4, r7, lr}
 842              		.cfi_def_cfa_offset 12
 843              		.cfi_offset 4, -12
 844              		.cfi_offset 7, -8
 845              		.cfi_offset 14, -4
 846 0002 87B0     		sub	sp, sp, #28
 847              		.cfi_def_cfa_offset 40
 848 0004 00AF     		add	r7, sp, #0
 849              		.cfi_def_cfa_register 7
 850 0006 F860     		str	r0, [r7, #12]
 851 0008 B960     		str	r1, [r7, #8]
 852 000a 7A60     		str	r2, [r7, #4]
  87:Api\core\src/vl53l0x_api.c **** 	VL53L0X_Error Status = VL53L0X_ERROR_NONE;
 853              		.loc 1 87 0
 854 000c 1723     		movs	r3, #23
 855 000e FB18     		adds	r3, r7, r3
 856 0010 0022     		movs	r2, #0
 857 0012 1A70     		strb	r2, [r3]
  88:Api\core\src/vl53l0x_api.c **** 	uint8_t revision_id;
  89:Api\core\src/vl53l0x_api.c **** 
  90:Api\core\src/vl53l0x_api.c **** 	LOG_FUNCTION_START("");
  91:Api\core\src/vl53l0x_api.c **** 
  92:Api\core\src/vl53l0x_api.c **** 	Status = VL53L0X_RdByte(Dev, VL53L0X_REG_IDENTIFICATION_REVISION_ID,
 858              		.loc 1 92 0
 859 0014 1723     		movs	r3, #23
 860 0016 FC18     		adds	r4, r7, r3
 861 0018 1623     		movs	r3, #22
 862 001a FA18     		adds	r2, r7, r3
 863 001c FB68     		ldr	r3, [r7, #12]
 864 001e C221     		movs	r1, #194
 865 0020 1800     		movs	r0, r3
 866 0022 FFF7FEFF 		bl	VL53L0X_RdByte
 867 0026 0300     		movs	r3, r0
 868 0028 2370     		strb	r3, [r4]
  93:Api\core\src/vl53l0x_api.c **** 		&revision_id);
  94:Api\core\src/vl53l0x_api.c **** 	*pProductRevisionMajor = 1;
 869              		.loc 1 94 0
 870 002a BB68     		ldr	r3, [r7, #8]
 871 002c 0122     		movs	r2, #1
 872 002e 1A70     		strb	r2, [r3]
  95:Api\core\src/vl53l0x_api.c **** 	*pProductRevisionMinor = (revision_id & 0xF0) >> 4;
 873              		.loc 1 95 0
 874 0030 1623     		movs	r3, #22
ARM GAS  C:\Users\ilya\AppData\Local\Temp\ccpEIuqL.s 			page 18


 875 0032 FB18     		adds	r3, r7, r3
 876 0034 1B78     		ldrb	r3, [r3]
 877 0036 1B09     		lsrs	r3, r3, #4
 878 0038 DAB2     		uxtb	r2, r3
 879 003a 7B68     		ldr	r3, [r7, #4]
 880 003c 1A70     		strb	r2, [r3]
  96:Api\core\src/vl53l0x_api.c **** 
  97:Api\core\src/vl53l0x_api.c **** 	LOG_FUNCTION_END(Status);
  98:Api\core\src/vl53l0x_api.c **** 	return Status;
 881              		.loc 1 98 0
 882 003e 1723     		movs	r3, #23
 883 0040 FB18     		adds	r3, r7, r3
 884 0042 1B78     		ldrb	r3, [r3]
 885 0044 5BB2     		sxtb	r3, r3
  99:Api\core\src/vl53l0x_api.c **** 
 100:Api\core\src/vl53l0x_api.c **** }
 886              		.loc 1 100 0
 887 0046 1800     		movs	r0, r3
 888 0048 BD46     		mov	sp, r7
 889 004a 07B0     		add	sp, sp, #28
 890              		@ sp needed
 891 004c 90BD     		pop	{r4, r7, pc}
 892              		.cfi_endproc
 893              	.LFE3:
 894              		.size	VL53L0X_GetProductRevision, .-VL53L0X_GetProductRevision
 895 004e C046     		.section	.text.VL53L0X_GetDeviceInfo,"ax",%progbits
 896              		.align	2
 897              		.global	VL53L0X_GetDeviceInfo
 898              		.code	16
 899              		.thumb_func
 900              		.type	VL53L0X_GetDeviceInfo, %function
 901              	VL53L0X_GetDeviceInfo:
 902              	.LFB4:
 101:Api\core\src/vl53l0x_api.c **** 
 102:Api\core\src/vl53l0x_api.c **** VL53L0X_Error VL53L0X_GetDeviceInfo(VL53L0X_DEV Dev,
 103:Api\core\src/vl53l0x_api.c **** 	VL53L0X_DeviceInfo_t *pVL53L0X_DeviceInfo)
 104:Api\core\src/vl53l0x_api.c **** {
 903              		.loc 1 104 0
 904              		.cfi_startproc
 905              		@ args = 0, pretend = 0, frame = 16
 906              		@ frame_needed = 1, uses_anonymous_args = 0
 907 0000 90B5     		push	{r4, r7, lr}
 908              		.cfi_def_cfa_offset 12
 909              		.cfi_offset 4, -12
 910              		.cfi_offset 7, -8
 911              		.cfi_offset 14, -4
 912 0002 85B0     		sub	sp, sp, #20
 913              		.cfi_def_cfa_offset 32
 914 0004 00AF     		add	r7, sp, #0
 915              		.cfi_def_cfa_register 7
 916 0006 7860     		str	r0, [r7, #4]
 917 0008 3960     		str	r1, [r7]
 105:Api\core\src/vl53l0x_api.c **** 	VL53L0X_Error Status = VL53L0X_ERROR_NONE;
 918              		.loc 1 105 0
 919 000a 0F23     		movs	r3, #15
 920 000c FB18     		adds	r3, r7, r3
 921 000e 0022     		movs	r2, #0
ARM GAS  C:\Users\ilya\AppData\Local\Temp\ccpEIuqL.s 			page 19


 922 0010 1A70     		strb	r2, [r3]
 106:Api\core\src/vl53l0x_api.c **** 	LOG_FUNCTION_START("");
 107:Api\core\src/vl53l0x_api.c **** 
 108:Api\core\src/vl53l0x_api.c **** 	Status = VL53L0X_get_device_info(Dev, pVL53L0X_DeviceInfo);
 923              		.loc 1 108 0
 924 0012 0F23     		movs	r3, #15
 925 0014 FC18     		adds	r4, r7, r3
 926 0016 3A68     		ldr	r2, [r7]
 927 0018 7B68     		ldr	r3, [r7, #4]
 928 001a 1100     		movs	r1, r2
 929 001c 1800     		movs	r0, r3
 930 001e FFF7FEFF 		bl	VL53L0X_get_device_info
 931 0022 0300     		movs	r3, r0
 932 0024 2370     		strb	r3, [r4]
 109:Api\core\src/vl53l0x_api.c **** 
 110:Api\core\src/vl53l0x_api.c **** 	LOG_FUNCTION_END(Status);
 111:Api\core\src/vl53l0x_api.c **** 	return Status;
 933              		.loc 1 111 0
 934 0026 0F23     		movs	r3, #15
 935 0028 FB18     		adds	r3, r7, r3
 936 002a 1B78     		ldrb	r3, [r3]
 937 002c 5BB2     		sxtb	r3, r3
 112:Api\core\src/vl53l0x_api.c **** }
 938              		.loc 1 112 0
 939 002e 1800     		movs	r0, r3
 940 0030 BD46     		mov	sp, r7
 941 0032 05B0     		add	sp, sp, #20
 942              		@ sp needed
 943 0034 90BD     		pop	{r4, r7, pc}
 944              		.cfi_endproc
 945              	.LFE4:
 946              		.size	VL53L0X_GetDeviceInfo, .-VL53L0X_GetDeviceInfo
 947              		.section	.text.VL53L0X_GetDeviceErrorStatus,"ax",%progbits
 948              		.align	2
 949              		.global	VL53L0X_GetDeviceErrorStatus
 950              		.code	16
 951              		.thumb_func
 952              		.type	VL53L0X_GetDeviceErrorStatus, %function
 953              	VL53L0X_GetDeviceErrorStatus:
 954              	.LFB5:
 113:Api\core\src/vl53l0x_api.c **** 
 114:Api\core\src/vl53l0x_api.c **** VL53L0X_Error VL53L0X_GetDeviceErrorStatus(VL53L0X_DEV Dev,
 115:Api\core\src/vl53l0x_api.c **** 	VL53L0X_DeviceError *pDeviceErrorStatus)
 116:Api\core\src/vl53l0x_api.c **** {
 955              		.loc 1 116 0
 956              		.cfi_startproc
 957              		@ args = 0, pretend = 0, frame = 16
 958              		@ frame_needed = 1, uses_anonymous_args = 0
 959 0000 90B5     		push	{r4, r7, lr}
 960              		.cfi_def_cfa_offset 12
 961              		.cfi_offset 4, -12
 962              		.cfi_offset 7, -8
 963              		.cfi_offset 14, -4
 964 0002 85B0     		sub	sp, sp, #20
 965              		.cfi_def_cfa_offset 32
 966 0004 00AF     		add	r7, sp, #0
 967              		.cfi_def_cfa_register 7
ARM GAS  C:\Users\ilya\AppData\Local\Temp\ccpEIuqL.s 			page 20


 968 0006 7860     		str	r0, [r7, #4]
 969 0008 3960     		str	r1, [r7]
 117:Api\core\src/vl53l0x_api.c **** 	VL53L0X_Error Status = VL53L0X_ERROR_NONE;
 970              		.loc 1 117 0
 971 000a 0F23     		movs	r3, #15
 972 000c FB18     		adds	r3, r7, r3
 973 000e 0022     		movs	r2, #0
 974 0010 1A70     		strb	r2, [r3]
 118:Api\core\src/vl53l0x_api.c **** 	uint8_t RangeStatus;
 119:Api\core\src/vl53l0x_api.c **** 
 120:Api\core\src/vl53l0x_api.c **** 	LOG_FUNCTION_START("");
 121:Api\core\src/vl53l0x_api.c **** 
 122:Api\core\src/vl53l0x_api.c **** 	Status = VL53L0X_RdByte(Dev, VL53L0X_REG_RESULT_RANGE_STATUS,
 975              		.loc 1 122 0
 976 0012 0F23     		movs	r3, #15
 977 0014 FC18     		adds	r4, r7, r3
 978 0016 0E23     		movs	r3, #14
 979 0018 FA18     		adds	r2, r7, r3
 980 001a 7B68     		ldr	r3, [r7, #4]
 981 001c 1421     		movs	r1, #20
 982 001e 1800     		movs	r0, r3
 983 0020 FFF7FEFF 		bl	VL53L0X_RdByte
 984 0024 0300     		movs	r3, r0
 985 0026 2370     		strb	r3, [r4]
 123:Api\core\src/vl53l0x_api.c **** 		&RangeStatus);
 124:Api\core\src/vl53l0x_api.c **** 
 125:Api\core\src/vl53l0x_api.c **** 	*pDeviceErrorStatus = (VL53L0X_DeviceError)((RangeStatus & 0x78) >> 3);
 986              		.loc 1 125 0
 987 0028 0E23     		movs	r3, #14
 988 002a FB18     		adds	r3, r7, r3
 989 002c 1B78     		ldrb	r3, [r3]
 990 002e DB10     		asrs	r3, r3, #3
 991 0030 DBB2     		uxtb	r3, r3
 992 0032 0F22     		movs	r2, #15
 993 0034 1340     		ands	r3, r2
 994 0036 DAB2     		uxtb	r2, r3
 995 0038 3B68     		ldr	r3, [r7]
 996 003a 1A70     		strb	r2, [r3]
 126:Api\core\src/vl53l0x_api.c **** 
 127:Api\core\src/vl53l0x_api.c **** 	LOG_FUNCTION_END(Status);
 128:Api\core\src/vl53l0x_api.c **** 	return Status;
 997              		.loc 1 128 0
 998 003c 0F23     		movs	r3, #15
 999 003e FB18     		adds	r3, r7, r3
 1000 0040 1B78     		ldrb	r3, [r3]
 1001 0042 5BB2     		sxtb	r3, r3
 129:Api\core\src/vl53l0x_api.c **** }
 1002              		.loc 1 129 0
 1003 0044 1800     		movs	r0, r3
 1004 0046 BD46     		mov	sp, r7
 1005 0048 05B0     		add	sp, sp, #20
 1006              		@ sp needed
 1007 004a 90BD     		pop	{r4, r7, pc}
 1008              		.cfi_endproc
 1009              	.LFE5:
 1010              		.size	VL53L0X_GetDeviceErrorStatus, .-VL53L0X_GetDeviceErrorStatus
 1011              		.section	.text.VL53L0X_GetDeviceErrorString,"ax",%progbits
ARM GAS  C:\Users\ilya\AppData\Local\Temp\ccpEIuqL.s 			page 21


 1012              		.align	2
 1013              		.global	VL53L0X_GetDeviceErrorString
 1014              		.code	16
 1015              		.thumb_func
 1016              		.type	VL53L0X_GetDeviceErrorString, %function
 1017              	VL53L0X_GetDeviceErrorString:
 1018              	.LFB6:
 130:Api\core\src/vl53l0x_api.c **** 
 131:Api\core\src/vl53l0x_api.c **** 
 132:Api\core\src/vl53l0x_api.c **** VL53L0X_Error VL53L0X_GetDeviceErrorString(VL53L0X_DeviceError ErrorCode,
 133:Api\core\src/vl53l0x_api.c **** 	char *pDeviceErrorString)
 134:Api\core\src/vl53l0x_api.c **** {
 1019              		.loc 1 134 0
 1020              		.cfi_startproc
 1021              		@ args = 0, pretend = 0, frame = 16
 1022              		@ frame_needed = 1, uses_anonymous_args = 0
 1023 0000 90B5     		push	{r4, r7, lr}
 1024              		.cfi_def_cfa_offset 12
 1025              		.cfi_offset 4, -12
 1026              		.cfi_offset 7, -8
 1027              		.cfi_offset 14, -4
 1028 0002 85B0     		sub	sp, sp, #20
 1029              		.cfi_def_cfa_offset 32
 1030 0004 00AF     		add	r7, sp, #0
 1031              		.cfi_def_cfa_register 7
 1032 0006 0200     		movs	r2, r0
 1033 0008 3960     		str	r1, [r7]
 1034 000a FB1D     		adds	r3, r7, #7
 1035 000c 1A70     		strb	r2, [r3]
 135:Api\core\src/vl53l0x_api.c **** 	VL53L0X_Error Status = VL53L0X_ERROR_NONE;
 1036              		.loc 1 135 0
 1037 000e 0F23     		movs	r3, #15
 1038 0010 FB18     		adds	r3, r7, r3
 1039 0012 0022     		movs	r2, #0
 1040 0014 1A70     		strb	r2, [r3]
 136:Api\core\src/vl53l0x_api.c **** 
 137:Api\core\src/vl53l0x_api.c **** 	LOG_FUNCTION_START("");
 138:Api\core\src/vl53l0x_api.c **** 
 139:Api\core\src/vl53l0x_api.c **** 	Status = VL53L0X_get_device_error_string(ErrorCode, pDeviceErrorString);
 1041              		.loc 1 139 0
 1042 0016 0F23     		movs	r3, #15
 1043 0018 FC18     		adds	r4, r7, r3
 1044 001a 3A68     		ldr	r2, [r7]
 1045 001c FB1D     		adds	r3, r7, #7
 1046 001e 1B78     		ldrb	r3, [r3]
 1047 0020 1100     		movs	r1, r2
 1048 0022 1800     		movs	r0, r3
 1049 0024 FFF7FEFF 		bl	VL53L0X_get_device_error_string
 1050 0028 0300     		movs	r3, r0
 1051 002a 2370     		strb	r3, [r4]
 140:Api\core\src/vl53l0x_api.c **** 
 141:Api\core\src/vl53l0x_api.c **** 	LOG_FUNCTION_END(Status);
 142:Api\core\src/vl53l0x_api.c **** 	return Status;
 1052              		.loc 1 142 0
 1053 002c 0F23     		movs	r3, #15
 1054 002e FB18     		adds	r3, r7, r3
 1055 0030 1B78     		ldrb	r3, [r3]
ARM GAS  C:\Users\ilya\AppData\Local\Temp\ccpEIuqL.s 			page 22


 1056 0032 5BB2     		sxtb	r3, r3
 143:Api\core\src/vl53l0x_api.c **** }
 1057              		.loc 1 143 0
 1058 0034 1800     		movs	r0, r3
 1059 0036 BD46     		mov	sp, r7
 1060 0038 05B0     		add	sp, sp, #20
 1061              		@ sp needed
 1062 003a 90BD     		pop	{r4, r7, pc}
 1063              		.cfi_endproc
 1064              	.LFE6:
 1065              		.size	VL53L0X_GetDeviceErrorString, .-VL53L0X_GetDeviceErrorString
 1066              		.section	.text.VL53L0X_GetRangeStatusString,"ax",%progbits
 1067              		.align	2
 1068              		.global	VL53L0X_GetRangeStatusString
 1069              		.code	16
 1070              		.thumb_func
 1071              		.type	VL53L0X_GetRangeStatusString, %function
 1072              	VL53L0X_GetRangeStatusString:
 1073              	.LFB7:
 144:Api\core\src/vl53l0x_api.c **** 
 145:Api\core\src/vl53l0x_api.c **** VL53L0X_Error VL53L0X_GetRangeStatusString(uint8_t RangeStatus,
 146:Api\core\src/vl53l0x_api.c **** 	char *pRangeStatusString)
 147:Api\core\src/vl53l0x_api.c **** {
 1074              		.loc 1 147 0
 1075              		.cfi_startproc
 1076              		@ args = 0, pretend = 0, frame = 16
 1077              		@ frame_needed = 1, uses_anonymous_args = 0
 1078 0000 90B5     		push	{r4, r7, lr}
 1079              		.cfi_def_cfa_offset 12
 1080              		.cfi_offset 4, -12
 1081              		.cfi_offset 7, -8
 1082              		.cfi_offset 14, -4
 1083 0002 85B0     		sub	sp, sp, #20
 1084              		.cfi_def_cfa_offset 32
 1085 0004 00AF     		add	r7, sp, #0
 1086              		.cfi_def_cfa_register 7
 1087 0006 0200     		movs	r2, r0
 1088 0008 3960     		str	r1, [r7]
 1089 000a FB1D     		adds	r3, r7, #7
 1090 000c 1A70     		strb	r2, [r3]
 148:Api\core\src/vl53l0x_api.c **** 	VL53L0X_Error Status = VL53L0X_ERROR_NONE;
 1091              		.loc 1 148 0
 1092 000e 0F23     		movs	r3, #15
 1093 0010 FB18     		adds	r3, r7, r3
 1094 0012 0022     		movs	r2, #0
 1095 0014 1A70     		strb	r2, [r3]
 149:Api\core\src/vl53l0x_api.c **** 	LOG_FUNCTION_START("");
 150:Api\core\src/vl53l0x_api.c **** 
 151:Api\core\src/vl53l0x_api.c **** 	Status = VL53L0X_get_range_status_string(RangeStatus,
 1096              		.loc 1 151 0
 1097 0016 0F23     		movs	r3, #15
 1098 0018 FC18     		adds	r4, r7, r3
 1099 001a 3A68     		ldr	r2, [r7]
 1100 001c FB1D     		adds	r3, r7, #7
 1101 001e 1B78     		ldrb	r3, [r3]
 1102 0020 1100     		movs	r1, r2
 1103 0022 1800     		movs	r0, r3
ARM GAS  C:\Users\ilya\AppData\Local\Temp\ccpEIuqL.s 			page 23


 1104 0024 FFF7FEFF 		bl	VL53L0X_get_range_status_string
 1105 0028 0300     		movs	r3, r0
 1106 002a 2370     		strb	r3, [r4]
 152:Api\core\src/vl53l0x_api.c **** 		pRangeStatusString);
 153:Api\core\src/vl53l0x_api.c **** 
 154:Api\core\src/vl53l0x_api.c **** 	LOG_FUNCTION_END(Status);
 155:Api\core\src/vl53l0x_api.c **** 	return Status;
 1107              		.loc 1 155 0
 1108 002c 0F23     		movs	r3, #15
 1109 002e FB18     		adds	r3, r7, r3
 1110 0030 1B78     		ldrb	r3, [r3]
 1111 0032 5BB2     		sxtb	r3, r3
 156:Api\core\src/vl53l0x_api.c **** }
 1112              		.loc 1 156 0
 1113 0034 1800     		movs	r0, r3
 1114 0036 BD46     		mov	sp, r7
 1115 0038 05B0     		add	sp, sp, #20
 1116              		@ sp needed
 1117 003a 90BD     		pop	{r4, r7, pc}
 1118              		.cfi_endproc
 1119              	.LFE7:
 1120              		.size	VL53L0X_GetRangeStatusString, .-VL53L0X_GetRangeStatusString
 1121              		.section	.text.VL53L0X_GetPalErrorString,"ax",%progbits
 1122              		.align	2
 1123              		.global	VL53L0X_GetPalErrorString
 1124              		.code	16
 1125              		.thumb_func
 1126              		.type	VL53L0X_GetPalErrorString, %function
 1127              	VL53L0X_GetPalErrorString:
 1128              	.LFB8:
 157:Api\core\src/vl53l0x_api.c **** 
 158:Api\core\src/vl53l0x_api.c **** VL53L0X_Error VL53L0X_GetPalErrorString(VL53L0X_Error PalErrorCode,
 159:Api\core\src/vl53l0x_api.c **** 	char *pPalErrorString)
 160:Api\core\src/vl53l0x_api.c **** {
 1129              		.loc 1 160 0
 1130              		.cfi_startproc
 1131              		@ args = 0, pretend = 0, frame = 16
 1132              		@ frame_needed = 1, uses_anonymous_args = 0
 1133 0000 90B5     		push	{r4, r7, lr}
 1134              		.cfi_def_cfa_offset 12
 1135              		.cfi_offset 4, -12
 1136              		.cfi_offset 7, -8
 1137              		.cfi_offset 14, -4
 1138 0002 85B0     		sub	sp, sp, #20
 1139              		.cfi_def_cfa_offset 32
 1140 0004 00AF     		add	r7, sp, #0
 1141              		.cfi_def_cfa_register 7
 1142 0006 0200     		movs	r2, r0
 1143 0008 3960     		str	r1, [r7]
 1144 000a FB1D     		adds	r3, r7, #7
 1145 000c 1A70     		strb	r2, [r3]
 161:Api\core\src/vl53l0x_api.c **** 	VL53L0X_Error Status = VL53L0X_ERROR_NONE;
 1146              		.loc 1 161 0
 1147 000e 0F23     		movs	r3, #15
 1148 0010 FB18     		adds	r3, r7, r3
 1149 0012 0022     		movs	r2, #0
 1150 0014 1A70     		strb	r2, [r3]
ARM GAS  C:\Users\ilya\AppData\Local\Temp\ccpEIuqL.s 			page 24


 162:Api\core\src/vl53l0x_api.c **** 	LOG_FUNCTION_START("");
 163:Api\core\src/vl53l0x_api.c **** 
 164:Api\core\src/vl53l0x_api.c **** 	Status = VL53L0X_get_pal_error_string(PalErrorCode, pPalErrorString);
 1151              		.loc 1 164 0
 1152 0016 0F23     		movs	r3, #15
 1153 0018 FC18     		adds	r4, r7, r3
 1154 001a 3A68     		ldr	r2, [r7]
 1155 001c FB1D     		adds	r3, r7, #7
 1156 001e 1B78     		ldrb	r3, [r3]
 1157 0020 5BB2     		sxtb	r3, r3
 1158 0022 1100     		movs	r1, r2
 1159 0024 1800     		movs	r0, r3
 1160 0026 FFF7FEFF 		bl	VL53L0X_get_pal_error_string
 1161 002a 0300     		movs	r3, r0
 1162 002c 2370     		strb	r3, [r4]
 165:Api\core\src/vl53l0x_api.c **** 
 166:Api\core\src/vl53l0x_api.c **** 	LOG_FUNCTION_END(Status);
 167:Api\core\src/vl53l0x_api.c **** 	return Status;
 1163              		.loc 1 167 0
 1164 002e 0F23     		movs	r3, #15
 1165 0030 FB18     		adds	r3, r7, r3
 1166 0032 1B78     		ldrb	r3, [r3]
 1167 0034 5BB2     		sxtb	r3, r3
 168:Api\core\src/vl53l0x_api.c **** }
 1168              		.loc 1 168 0
 1169 0036 1800     		movs	r0, r3
 1170 0038 BD46     		mov	sp, r7
 1171 003a 05B0     		add	sp, sp, #20
 1172              		@ sp needed
 1173 003c 90BD     		pop	{r4, r7, pc}
 1174              		.cfi_endproc
 1175              	.LFE8:
 1176              		.size	VL53L0X_GetPalErrorString, .-VL53L0X_GetPalErrorString
 1177 003e C046     		.section	.text.VL53L0X_GetPalStateString,"ax",%progbits
 1178              		.align	2
 1179              		.global	VL53L0X_GetPalStateString
 1180              		.code	16
 1181              		.thumb_func
 1182              		.type	VL53L0X_GetPalStateString, %function
 1183              	VL53L0X_GetPalStateString:
 1184              	.LFB9:
 169:Api\core\src/vl53l0x_api.c **** 
 170:Api\core\src/vl53l0x_api.c **** VL53L0X_Error VL53L0X_GetPalStateString(VL53L0X_State PalStateCode,
 171:Api\core\src/vl53l0x_api.c **** 	char *pPalStateString)
 172:Api\core\src/vl53l0x_api.c **** {
 1185              		.loc 1 172 0
 1186              		.cfi_startproc
 1187              		@ args = 0, pretend = 0, frame = 16
 1188              		@ frame_needed = 1, uses_anonymous_args = 0
 1189 0000 90B5     		push	{r4, r7, lr}
 1190              		.cfi_def_cfa_offset 12
 1191              		.cfi_offset 4, -12
 1192              		.cfi_offset 7, -8
 1193              		.cfi_offset 14, -4
 1194 0002 85B0     		sub	sp, sp, #20
 1195              		.cfi_def_cfa_offset 32
 1196 0004 00AF     		add	r7, sp, #0
ARM GAS  C:\Users\ilya\AppData\Local\Temp\ccpEIuqL.s 			page 25


 1197              		.cfi_def_cfa_register 7
 1198 0006 0200     		movs	r2, r0
 1199 0008 3960     		str	r1, [r7]
 1200 000a FB1D     		adds	r3, r7, #7
 1201 000c 1A70     		strb	r2, [r3]
 173:Api\core\src/vl53l0x_api.c **** 	VL53L0X_Error Status = VL53L0X_ERROR_NONE;
 1202              		.loc 1 173 0
 1203 000e 0F23     		movs	r3, #15
 1204 0010 FB18     		adds	r3, r7, r3
 1205 0012 0022     		movs	r2, #0
 1206 0014 1A70     		strb	r2, [r3]
 174:Api\core\src/vl53l0x_api.c **** 	LOG_FUNCTION_START("");
 175:Api\core\src/vl53l0x_api.c **** 
 176:Api\core\src/vl53l0x_api.c **** 	Status = VL53L0X_get_pal_state_string(PalStateCode, pPalStateString);
 1207              		.loc 1 176 0
 1208 0016 0F23     		movs	r3, #15
 1209 0018 FC18     		adds	r4, r7, r3
 1210 001a 3A68     		ldr	r2, [r7]
 1211 001c FB1D     		adds	r3, r7, #7
 1212 001e 1B78     		ldrb	r3, [r3]
 1213 0020 1100     		movs	r1, r2
 1214 0022 1800     		movs	r0, r3
 1215 0024 FFF7FEFF 		bl	VL53L0X_get_pal_state_string
 1216 0028 0300     		movs	r3, r0
 1217 002a 2370     		strb	r3, [r4]
 177:Api\core\src/vl53l0x_api.c **** 
 178:Api\core\src/vl53l0x_api.c **** 	LOG_FUNCTION_END(Status);
 179:Api\core\src/vl53l0x_api.c **** 	return Status;
 1218              		.loc 1 179 0
 1219 002c 0F23     		movs	r3, #15
 1220 002e FB18     		adds	r3, r7, r3
 1221 0030 1B78     		ldrb	r3, [r3]
 1222 0032 5BB2     		sxtb	r3, r3
 180:Api\core\src/vl53l0x_api.c **** }
 1223              		.loc 1 180 0
 1224 0034 1800     		movs	r0, r3
 1225 0036 BD46     		mov	sp, r7
 1226 0038 05B0     		add	sp, sp, #20
 1227              		@ sp needed
 1228 003a 90BD     		pop	{r4, r7, pc}
 1229              		.cfi_endproc
 1230              	.LFE9:
 1231              		.size	VL53L0X_GetPalStateString, .-VL53L0X_GetPalStateString
 1232              		.section	.text.VL53L0X_GetPalState,"ax",%progbits
 1233              		.align	2
 1234              		.global	VL53L0X_GetPalState
 1235              		.code	16
 1236              		.thumb_func
 1237              		.type	VL53L0X_GetPalState, %function
 1238              	VL53L0X_GetPalState:
 1239              	.LFB10:
 181:Api\core\src/vl53l0x_api.c **** 
 182:Api\core\src/vl53l0x_api.c **** VL53L0X_Error VL53L0X_GetPalState(VL53L0X_DEV Dev, VL53L0X_State *pPalState)
 183:Api\core\src/vl53l0x_api.c **** {
 1240              		.loc 1 183 0
 1241              		.cfi_startproc
 1242              		@ args = 0, pretend = 0, frame = 16
ARM GAS  C:\Users\ilya\AppData\Local\Temp\ccpEIuqL.s 			page 26


 1243              		@ frame_needed = 1, uses_anonymous_args = 0
 1244 0000 80B5     		push	{r7, lr}
 1245              		.cfi_def_cfa_offset 8
 1246              		.cfi_offset 7, -8
 1247              		.cfi_offset 14, -4
 1248 0002 84B0     		sub	sp, sp, #16
 1249              		.cfi_def_cfa_offset 24
 1250 0004 00AF     		add	r7, sp, #0
 1251              		.cfi_def_cfa_register 7
 1252 0006 7860     		str	r0, [r7, #4]
 1253 0008 3960     		str	r1, [r7]
 184:Api\core\src/vl53l0x_api.c **** 	VL53L0X_Error Status = VL53L0X_ERROR_NONE;
 1254              		.loc 1 184 0
 1255 000a 0F23     		movs	r3, #15
 1256 000c FB18     		adds	r3, r7, r3
 1257 000e 0022     		movs	r2, #0
 1258 0010 1A70     		strb	r2, [r3]
 185:Api\core\src/vl53l0x_api.c **** 	LOG_FUNCTION_START("");
 186:Api\core\src/vl53l0x_api.c **** 
 187:Api\core\src/vl53l0x_api.c **** 	*pPalState = PALDevDataGet(Dev, PalState);
 1259              		.loc 1 187 0
 1260 0012 7A68     		ldr	r2, [r7, #4]
 1261 0014 9923     		movs	r3, #153
 1262 0016 5B00     		lsls	r3, r3, #1
 1263 0018 D25C     		ldrb	r2, [r2, r3]
 1264 001a 3B68     		ldr	r3, [r7]
 1265 001c 1A70     		strb	r2, [r3]
 188:Api\core\src/vl53l0x_api.c **** 
 189:Api\core\src/vl53l0x_api.c **** 	LOG_FUNCTION_END(Status);
 190:Api\core\src/vl53l0x_api.c **** 	return Status;
 1266              		.loc 1 190 0
 1267 001e 0F23     		movs	r3, #15
 1268 0020 FB18     		adds	r3, r7, r3
 1269 0022 1B78     		ldrb	r3, [r3]
 1270 0024 5BB2     		sxtb	r3, r3
 191:Api\core\src/vl53l0x_api.c **** }
 1271              		.loc 1 191 0
 1272 0026 1800     		movs	r0, r3
 1273 0028 BD46     		mov	sp, r7
 1274 002a 04B0     		add	sp, sp, #16
 1275              		@ sp needed
 1276 002c 80BD     		pop	{r7, pc}
 1277              		.cfi_endproc
 1278              	.LFE10:
 1279              		.size	VL53L0X_GetPalState, .-VL53L0X_GetPalState
 1280 002e C046     		.section	.text.VL53L0X_SetPowerMode,"ax",%progbits
 1281              		.align	2
 1282              		.global	VL53L0X_SetPowerMode
 1283              		.code	16
 1284              		.thumb_func
 1285              		.type	VL53L0X_SetPowerMode, %function
 1286              	VL53L0X_SetPowerMode:
 1287              	.LFB11:
 192:Api\core\src/vl53l0x_api.c **** 
 193:Api\core\src/vl53l0x_api.c **** VL53L0X_Error VL53L0X_SetPowerMode(VL53L0X_DEV Dev, VL53L0X_PowerModes PowerMode)
 194:Api\core\src/vl53l0x_api.c **** {
 1288              		.loc 1 194 0
ARM GAS  C:\Users\ilya\AppData\Local\Temp\ccpEIuqL.s 			page 27


 1289              		.cfi_startproc
 1290              		@ args = 0, pretend = 0, frame = 16
 1291              		@ frame_needed = 1, uses_anonymous_args = 0
 1292 0000 90B5     		push	{r4, r7, lr}
 1293              		.cfi_def_cfa_offset 12
 1294              		.cfi_offset 4, -12
 1295              		.cfi_offset 7, -8
 1296              		.cfi_offset 14, -4
 1297 0002 85B0     		sub	sp, sp, #20
 1298              		.cfi_def_cfa_offset 32
 1299 0004 00AF     		add	r7, sp, #0
 1300              		.cfi_def_cfa_register 7
 1301 0006 7860     		str	r0, [r7, #4]
 1302 0008 0A00     		movs	r2, r1
 1303 000a FB1C     		adds	r3, r7, #3
 1304 000c 1A70     		strb	r2, [r3]
 195:Api\core\src/vl53l0x_api.c **** 	VL53L0X_Error Status = VL53L0X_ERROR_NONE;
 1305              		.loc 1 195 0
 1306 000e 0F23     		movs	r3, #15
 1307 0010 FB18     		adds	r3, r7, r3
 1308 0012 0022     		movs	r2, #0
 1309 0014 1A70     		strb	r2, [r3]
 196:Api\core\src/vl53l0x_api.c **** 	LOG_FUNCTION_START("");
 197:Api\core\src/vl53l0x_api.c **** 
 198:Api\core\src/vl53l0x_api.c **** 	/* Only level1 of Power mode exists */
 199:Api\core\src/vl53l0x_api.c **** 	if ((PowerMode != VL53L0X_POWERMODE_STANDBY_LEVEL1)
 1310              		.loc 1 199 0
 1311 0016 FB1C     		adds	r3, r7, #3
 1312 0018 1B78     		ldrb	r3, [r3]
 1313 001a 002B     		cmp	r3, #0
 1314 001c 08D0     		beq	.L24
 200:Api\core\src/vl53l0x_api.c **** 		&& (PowerMode != VL53L0X_POWERMODE_IDLE_LEVEL1)) {
 1315              		.loc 1 200 0
 1316 001e FB1C     		adds	r3, r7, #3
 1317 0020 1B78     		ldrb	r3, [r3]
 1318 0022 022B     		cmp	r3, #2
 1319 0024 04D0     		beq	.L24
 201:Api\core\src/vl53l0x_api.c **** 		Status = VL53L0X_ERROR_MODE_NOT_SUPPORTED;
 1320              		.loc 1 201 0
 1321 0026 0F23     		movs	r3, #15
 1322 0028 FB18     		adds	r3, r7, r3
 1323 002a F822     		movs	r2, #248
 1324 002c 1A70     		strb	r2, [r3]
 1325 002e 41E0     		b	.L25
 1326              	.L24:
 202:Api\core\src/vl53l0x_api.c **** 	} else if (PowerMode == VL53L0X_POWERMODE_STANDBY_LEVEL1) {
 1327              		.loc 1 202 0
 1328 0030 FB1C     		adds	r3, r7, #3
 1329 0032 1B78     		ldrb	r3, [r3]
 1330 0034 002B     		cmp	r3, #0
 1331 0036 1AD1     		bne	.L26
 203:Api\core\src/vl53l0x_api.c **** 		/* set the standby level1 of power mode */
 204:Api\core\src/vl53l0x_api.c **** 		Status = VL53L0X_WrByte(Dev, 0x80, 0x00);
 1332              		.loc 1 204 0
 1333 0038 0F23     		movs	r3, #15
 1334 003a FC18     		adds	r4, r7, r3
 1335 003c 7B68     		ldr	r3, [r7, #4]
ARM GAS  C:\Users\ilya\AppData\Local\Temp\ccpEIuqL.s 			page 28


 1336 003e 0022     		movs	r2, #0
 1337 0040 8021     		movs	r1, #128
 1338 0042 1800     		movs	r0, r3
 1339 0044 FFF7FEFF 		bl	VL53L0X_WrByte
 1340 0048 0300     		movs	r3, r0
 1341 004a 2370     		strb	r3, [r4]
 205:Api\core\src/vl53l0x_api.c **** 		if (Status == VL53L0X_ERROR_NONE) {
 1342              		.loc 1 205 0
 1343 004c 0F23     		movs	r3, #15
 1344 004e FB18     		adds	r3, r7, r3
 1345 0050 1B78     		ldrb	r3, [r3]
 1346 0052 5BB2     		sxtb	r3, r3
 1347 0054 002B     		cmp	r3, #0
 1348 0056 2DD1     		bne	.L25
 206:Api\core\src/vl53l0x_api.c **** 			/* Set PAL State to standby */
 207:Api\core\src/vl53l0x_api.c **** 			PALDevDataSet(Dev, PalState, VL53L0X_STATE_STANDBY);
 1349              		.loc 1 207 0
 1350 0058 7A68     		ldr	r2, [r7, #4]
 1351 005a 9923     		movs	r3, #153
 1352 005c 5B00     		lsls	r3, r3, #1
 1353 005e 0221     		movs	r1, #2
 1354 0060 D154     		strb	r1, [r2, r3]
 208:Api\core\src/vl53l0x_api.c **** 			PALDevDataSet(Dev, PowerMode,
 1355              		.loc 1 208 0
 1356 0062 7A68     		ldr	r2, [r7, #4]
 1357 0064 3423     		movs	r3, #52
 1358 0066 FF33     		adds	r3, r3, #255
 1359 0068 0021     		movs	r1, #0
 1360 006a D154     		strb	r1, [r2, r3]
 1361 006c 22E0     		b	.L25
 1362              	.L26:
 209:Api\core\src/vl53l0x_api.c **** 				VL53L0X_POWERMODE_STANDBY_LEVEL1);
 210:Api\core\src/vl53l0x_api.c **** 		}
 211:Api\core\src/vl53l0x_api.c **** 
 212:Api\core\src/vl53l0x_api.c **** 	} else {
 213:Api\core\src/vl53l0x_api.c **** 		/* VL53L0X_POWERMODE_IDLE_LEVEL1 */
 214:Api\core\src/vl53l0x_api.c **** 		Status = VL53L0X_WrByte(Dev, 0x80, 0x00);
 1363              		.loc 1 214 0
 1364 006e 0F23     		movs	r3, #15
 1365 0070 FC18     		adds	r4, r7, r3
 1366 0072 7B68     		ldr	r3, [r7, #4]
 1367 0074 0022     		movs	r2, #0
 1368 0076 8021     		movs	r1, #128
 1369 0078 1800     		movs	r0, r3
 1370 007a FFF7FEFF 		bl	VL53L0X_WrByte
 1371 007e 0300     		movs	r3, r0
 1372 0080 2370     		strb	r3, [r4]
 215:Api\core\src/vl53l0x_api.c **** 		if (Status == VL53L0X_ERROR_NONE)
 1373              		.loc 1 215 0
 1374 0082 0F23     		movs	r3, #15
 1375 0084 FB18     		adds	r3, r7, r3
 1376 0086 1B78     		ldrb	r3, [r3]
 1377 0088 5BB2     		sxtb	r3, r3
 1378 008a 002B     		cmp	r3, #0
 1379 008c 07D1     		bne	.L28
 216:Api\core\src/vl53l0x_api.c **** 			Status = VL53L0X_StaticInit(Dev);
 1380              		.loc 1 216 0
ARM GAS  C:\Users\ilya\AppData\Local\Temp\ccpEIuqL.s 			page 29


 1381 008e 0F23     		movs	r3, #15
 1382 0090 FC18     		adds	r4, r7, r3
 1383 0092 7B68     		ldr	r3, [r7, #4]
 1384 0094 1800     		movs	r0, r3
 1385 0096 FFF7FEFF 		bl	VL53L0X_StaticInit
 1386 009a 0300     		movs	r3, r0
 1387 009c 2370     		strb	r3, [r4]
 1388              	.L28:
 217:Api\core\src/vl53l0x_api.c **** 
 218:Api\core\src/vl53l0x_api.c **** 		if (Status == VL53L0X_ERROR_NONE)
 1389              		.loc 1 218 0
 1390 009e 0F23     		movs	r3, #15
 1391 00a0 FB18     		adds	r3, r7, r3
 1392 00a2 1B78     		ldrb	r3, [r3]
 1393 00a4 5BB2     		sxtb	r3, r3
 1394 00a6 002B     		cmp	r3, #0
 1395 00a8 04D1     		bne	.L25
 219:Api\core\src/vl53l0x_api.c **** 			PALDevDataSet(Dev, PowerMode,
 1396              		.loc 1 219 0
 1397 00aa 7A68     		ldr	r2, [r7, #4]
 1398 00ac 3423     		movs	r3, #52
 1399 00ae FF33     		adds	r3, r3, #255
 1400 00b0 0221     		movs	r1, #2
 1401 00b2 D154     		strb	r1, [r2, r3]
 1402              	.L25:
 220:Api\core\src/vl53l0x_api.c **** 				VL53L0X_POWERMODE_IDLE_LEVEL1);
 221:Api\core\src/vl53l0x_api.c **** 
 222:Api\core\src/vl53l0x_api.c **** 	}
 223:Api\core\src/vl53l0x_api.c **** 
 224:Api\core\src/vl53l0x_api.c **** 	LOG_FUNCTION_END(Status);
 225:Api\core\src/vl53l0x_api.c **** 	return Status;
 1403              		.loc 1 225 0
 1404 00b4 0F23     		movs	r3, #15
 1405 00b6 FB18     		adds	r3, r7, r3
 1406 00b8 1B78     		ldrb	r3, [r3]
 1407 00ba 5BB2     		sxtb	r3, r3
 226:Api\core\src/vl53l0x_api.c **** }
 1408              		.loc 1 226 0
 1409 00bc 1800     		movs	r0, r3
 1410 00be BD46     		mov	sp, r7
 1411 00c0 05B0     		add	sp, sp, #20
 1412              		@ sp needed
 1413 00c2 90BD     		pop	{r4, r7, pc}
 1414              		.cfi_endproc
 1415              	.LFE11:
 1416              		.size	VL53L0X_SetPowerMode, .-VL53L0X_SetPowerMode
 1417              		.section	.text.VL53L0X_GetPowerMode,"ax",%progbits
 1418              		.align	2
 1419              		.global	VL53L0X_GetPowerMode
 1420              		.code	16
 1421              		.thumb_func
 1422              		.type	VL53L0X_GetPowerMode, %function
 1423              	VL53L0X_GetPowerMode:
 1424              	.LFB12:
 227:Api\core\src/vl53l0x_api.c **** 
 228:Api\core\src/vl53l0x_api.c **** VL53L0X_Error VL53L0X_GetPowerMode(VL53L0X_DEV Dev, VL53L0X_PowerModes *pPowerMode)
 229:Api\core\src/vl53l0x_api.c **** {
ARM GAS  C:\Users\ilya\AppData\Local\Temp\ccpEIuqL.s 			page 30


 1425              		.loc 1 229 0
 1426              		.cfi_startproc
 1427              		@ args = 0, pretend = 0, frame = 16
 1428              		@ frame_needed = 1, uses_anonymous_args = 0
 1429 0000 90B5     		push	{r4, r7, lr}
 1430              		.cfi_def_cfa_offset 12
 1431              		.cfi_offset 4, -12
 1432              		.cfi_offset 7, -8
 1433              		.cfi_offset 14, -4
 1434 0002 85B0     		sub	sp, sp, #20
 1435              		.cfi_def_cfa_offset 32
 1436 0004 00AF     		add	r7, sp, #0
 1437              		.cfi_def_cfa_register 7
 1438 0006 7860     		str	r0, [r7, #4]
 1439 0008 3960     		str	r1, [r7]
 230:Api\core\src/vl53l0x_api.c **** 	VL53L0X_Error Status = VL53L0X_ERROR_NONE;
 1440              		.loc 1 230 0
 1441 000a 0F23     		movs	r3, #15
 1442 000c FB18     		adds	r3, r7, r3
 1443 000e 0022     		movs	r2, #0
 1444 0010 1A70     		strb	r2, [r3]
 231:Api\core\src/vl53l0x_api.c **** 	uint8_t Byte;
 232:Api\core\src/vl53l0x_api.c **** 	LOG_FUNCTION_START("");
 233:Api\core\src/vl53l0x_api.c **** 
 234:Api\core\src/vl53l0x_api.c **** 	/* Only level1 of Power mode exists */
 235:Api\core\src/vl53l0x_api.c **** 	Status = VL53L0X_RdByte(Dev, 0x80, &Byte);
 1445              		.loc 1 235 0
 1446 0012 0F23     		movs	r3, #15
 1447 0014 FC18     		adds	r4, r7, r3
 1448 0016 0E23     		movs	r3, #14
 1449 0018 FA18     		adds	r2, r7, r3
 1450 001a 7B68     		ldr	r3, [r7, #4]
 1451 001c 8021     		movs	r1, #128
 1452 001e 1800     		movs	r0, r3
 1453 0020 FFF7FEFF 		bl	VL53L0X_RdByte
 1454 0024 0300     		movs	r3, r0
 1455 0026 2370     		strb	r3, [r4]
 236:Api\core\src/vl53l0x_api.c **** 
 237:Api\core\src/vl53l0x_api.c **** 	if (Status == VL53L0X_ERROR_NONE) {
 1456              		.loc 1 237 0
 1457 0028 0F23     		movs	r3, #15
 1458 002a FB18     		adds	r3, r7, r3
 1459 002c 1B78     		ldrb	r3, [r3]
 1460 002e 5BB2     		sxtb	r3, r3
 1461 0030 002B     		cmp	r3, #0
 1462 0032 0FD1     		bne	.L31
 238:Api\core\src/vl53l0x_api.c **** 		if (Byte == 1) {
 1463              		.loc 1 238 0
 1464 0034 0E23     		movs	r3, #14
 1465 0036 FB18     		adds	r3, r7, r3
 1466 0038 1B78     		ldrb	r3, [r3]
 1467 003a 012B     		cmp	r3, #1
 1468 003c 05D1     		bne	.L32
 239:Api\core\src/vl53l0x_api.c **** 			PALDevDataSet(Dev, PowerMode,
 1469              		.loc 1 239 0
 1470 003e 7A68     		ldr	r2, [r7, #4]
 1471 0040 3423     		movs	r3, #52
ARM GAS  C:\Users\ilya\AppData\Local\Temp\ccpEIuqL.s 			page 31


 1472 0042 FF33     		adds	r3, r3, #255
 1473 0044 0221     		movs	r1, #2
 1474 0046 D154     		strb	r1, [r2, r3]
 1475 0048 04E0     		b	.L31
 1476              	.L32:
 240:Api\core\src/vl53l0x_api.c **** 				VL53L0X_POWERMODE_IDLE_LEVEL1);
 241:Api\core\src/vl53l0x_api.c **** 		} else {
 242:Api\core\src/vl53l0x_api.c **** 			PALDevDataSet(Dev, PowerMode,
 1477              		.loc 1 242 0
 1478 004a 7A68     		ldr	r2, [r7, #4]
 1479 004c 3423     		movs	r3, #52
 1480 004e FF33     		adds	r3, r3, #255
 1481 0050 0021     		movs	r1, #0
 1482 0052 D154     		strb	r1, [r2, r3]
 1483              	.L31:
 243:Api\core\src/vl53l0x_api.c **** 				VL53L0X_POWERMODE_STANDBY_LEVEL1);
 244:Api\core\src/vl53l0x_api.c **** 		}
 245:Api\core\src/vl53l0x_api.c **** 	}
 246:Api\core\src/vl53l0x_api.c **** 
 247:Api\core\src/vl53l0x_api.c **** 	LOG_FUNCTION_END(Status);
 248:Api\core\src/vl53l0x_api.c **** 	return Status;
 1484              		.loc 1 248 0
 1485 0054 0F23     		movs	r3, #15
 1486 0056 FB18     		adds	r3, r7, r3
 1487 0058 1B78     		ldrb	r3, [r3]
 1488 005a 5BB2     		sxtb	r3, r3
 249:Api\core\src/vl53l0x_api.c **** }
 1489              		.loc 1 249 0
 1490 005c 1800     		movs	r0, r3
 1491 005e BD46     		mov	sp, r7
 1492 0060 05B0     		add	sp, sp, #20
 1493              		@ sp needed
 1494 0062 90BD     		pop	{r4, r7, pc}
 1495              		.cfi_endproc
 1496              	.LFE12:
 1497              		.size	VL53L0X_GetPowerMode, .-VL53L0X_GetPowerMode
 1498              		.section	.text.VL53L0X_SetOffsetCalibrationDataMicroMeter,"ax",%progbits
 1499              		.align	2
 1500              		.global	VL53L0X_SetOffsetCalibrationDataMicroMeter
 1501              		.code	16
 1502              		.thumb_func
 1503              		.type	VL53L0X_SetOffsetCalibrationDataMicroMeter, %function
 1504              	VL53L0X_SetOffsetCalibrationDataMicroMeter:
 1505              	.LFB13:
 250:Api\core\src/vl53l0x_api.c **** 
 251:Api\core\src/vl53l0x_api.c **** VL53L0X_Error VL53L0X_SetOffsetCalibrationDataMicroMeter(VL53L0X_DEV Dev,
 252:Api\core\src/vl53l0x_api.c **** 	int32_t OffsetCalibrationDataMicroMeter)
 253:Api\core\src/vl53l0x_api.c **** {
 1506              		.loc 1 253 0
 1507              		.cfi_startproc
 1508              		@ args = 0, pretend = 0, frame = 16
 1509              		@ frame_needed = 1, uses_anonymous_args = 0
 1510 0000 90B5     		push	{r4, r7, lr}
 1511              		.cfi_def_cfa_offset 12
 1512              		.cfi_offset 4, -12
 1513              		.cfi_offset 7, -8
 1514              		.cfi_offset 14, -4
ARM GAS  C:\Users\ilya\AppData\Local\Temp\ccpEIuqL.s 			page 32


 1515 0002 85B0     		sub	sp, sp, #20
 1516              		.cfi_def_cfa_offset 32
 1517 0004 00AF     		add	r7, sp, #0
 1518              		.cfi_def_cfa_register 7
 1519 0006 7860     		str	r0, [r7, #4]
 1520 0008 3960     		str	r1, [r7]
 254:Api\core\src/vl53l0x_api.c **** 	VL53L0X_Error Status = VL53L0X_ERROR_NONE;
 1521              		.loc 1 254 0
 1522 000a 0F23     		movs	r3, #15
 1523 000c FB18     		adds	r3, r7, r3
 1524 000e 0022     		movs	r2, #0
 1525 0010 1A70     		strb	r2, [r3]
 255:Api\core\src/vl53l0x_api.c **** 	LOG_FUNCTION_START("");
 256:Api\core\src/vl53l0x_api.c **** 
 257:Api\core\src/vl53l0x_api.c **** 	Status = VL53L0X_set_offset_calibration_data_micro_meter(Dev,
 1526              		.loc 1 257 0
 1527 0012 0F23     		movs	r3, #15
 1528 0014 FC18     		adds	r4, r7, r3
 1529 0016 3A68     		ldr	r2, [r7]
 1530 0018 7B68     		ldr	r3, [r7, #4]
 1531 001a 1100     		movs	r1, r2
 1532 001c 1800     		movs	r0, r3
 1533 001e FFF7FEFF 		bl	VL53L0X_set_offset_calibration_data_micro_meter
 1534 0022 0300     		movs	r3, r0
 1535 0024 2370     		strb	r3, [r4]
 258:Api\core\src/vl53l0x_api.c **** 		OffsetCalibrationDataMicroMeter);
 259:Api\core\src/vl53l0x_api.c **** 
 260:Api\core\src/vl53l0x_api.c **** 	LOG_FUNCTION_END(Status);
 261:Api\core\src/vl53l0x_api.c **** 	return Status;
 1536              		.loc 1 261 0
 1537 0026 0F23     		movs	r3, #15
 1538 0028 FB18     		adds	r3, r7, r3
 1539 002a 1B78     		ldrb	r3, [r3]
 1540 002c 5BB2     		sxtb	r3, r3
 262:Api\core\src/vl53l0x_api.c **** }
 1541              		.loc 1 262 0
 1542 002e 1800     		movs	r0, r3
 1543 0030 BD46     		mov	sp, r7
 1544 0032 05B0     		add	sp, sp, #20
 1545              		@ sp needed
 1546 0034 90BD     		pop	{r4, r7, pc}
 1547              		.cfi_endproc
 1548              	.LFE13:
 1549              		.size	VL53L0X_SetOffsetCalibrationDataMicroMeter, .-VL53L0X_SetOffsetCalibrationDataMicroMeter
 1550              		.section	.text.VL53L0X_GetOffsetCalibrationDataMicroMeter,"ax",%progbits
 1551              		.align	2
 1552              		.global	VL53L0X_GetOffsetCalibrationDataMicroMeter
 1553              		.code	16
 1554              		.thumb_func
 1555              		.type	VL53L0X_GetOffsetCalibrationDataMicroMeter, %function
 1556              	VL53L0X_GetOffsetCalibrationDataMicroMeter:
 1557              	.LFB14:
 263:Api\core\src/vl53l0x_api.c **** 
 264:Api\core\src/vl53l0x_api.c **** VL53L0X_Error VL53L0X_GetOffsetCalibrationDataMicroMeter(VL53L0X_DEV Dev,
 265:Api\core\src/vl53l0x_api.c **** 	int32_t *pOffsetCalibrationDataMicroMeter)
 266:Api\core\src/vl53l0x_api.c **** {
 1558              		.loc 1 266 0
ARM GAS  C:\Users\ilya\AppData\Local\Temp\ccpEIuqL.s 			page 33


 1559              		.cfi_startproc
 1560              		@ args = 0, pretend = 0, frame = 16
 1561              		@ frame_needed = 1, uses_anonymous_args = 0
 1562 0000 90B5     		push	{r4, r7, lr}
 1563              		.cfi_def_cfa_offset 12
 1564              		.cfi_offset 4, -12
 1565              		.cfi_offset 7, -8
 1566              		.cfi_offset 14, -4
 1567 0002 85B0     		sub	sp, sp, #20
 1568              		.cfi_def_cfa_offset 32
 1569 0004 00AF     		add	r7, sp, #0
 1570              		.cfi_def_cfa_register 7
 1571 0006 7860     		str	r0, [r7, #4]
 1572 0008 3960     		str	r1, [r7]
 267:Api\core\src/vl53l0x_api.c **** 	VL53L0X_Error Status = VL53L0X_ERROR_NONE;
 1573              		.loc 1 267 0
 1574 000a 0F23     		movs	r3, #15
 1575 000c FB18     		adds	r3, r7, r3
 1576 000e 0022     		movs	r2, #0
 1577 0010 1A70     		strb	r2, [r3]
 268:Api\core\src/vl53l0x_api.c **** 	LOG_FUNCTION_START("");
 269:Api\core\src/vl53l0x_api.c **** 
 270:Api\core\src/vl53l0x_api.c **** 	Status = VL53L0X_get_offset_calibration_data_micro_meter(Dev,
 1578              		.loc 1 270 0
 1579 0012 0F23     		movs	r3, #15
 1580 0014 FC18     		adds	r4, r7, r3
 1581 0016 3A68     		ldr	r2, [r7]
 1582 0018 7B68     		ldr	r3, [r7, #4]
 1583 001a 1100     		movs	r1, r2
 1584 001c 1800     		movs	r0, r3
 1585 001e FFF7FEFF 		bl	VL53L0X_get_offset_calibration_data_micro_meter
 1586 0022 0300     		movs	r3, r0
 1587 0024 2370     		strb	r3, [r4]
 271:Api\core\src/vl53l0x_api.c **** 		pOffsetCalibrationDataMicroMeter);
 272:Api\core\src/vl53l0x_api.c **** 
 273:Api\core\src/vl53l0x_api.c **** 	LOG_FUNCTION_END(Status);
 274:Api\core\src/vl53l0x_api.c **** 	return Status;
 1588              		.loc 1 274 0
 1589 0026 0F23     		movs	r3, #15
 1590 0028 FB18     		adds	r3, r7, r3
 1591 002a 1B78     		ldrb	r3, [r3]
 1592 002c 5BB2     		sxtb	r3, r3
 275:Api\core\src/vl53l0x_api.c **** }
 1593              		.loc 1 275 0
 1594 002e 1800     		movs	r0, r3
 1595 0030 BD46     		mov	sp, r7
 1596 0032 05B0     		add	sp, sp, #20
 1597              		@ sp needed
 1598 0034 90BD     		pop	{r4, r7, pc}
 1599              		.cfi_endproc
 1600              	.LFE14:
 1601              		.size	VL53L0X_GetOffsetCalibrationDataMicroMeter, .-VL53L0X_GetOffsetCalibrationDataMicroMeter
 1602              		.section	.text.VL53L0X_SetLinearityCorrectiveGain,"ax",%progbits
 1603              		.align	2
 1604              		.global	VL53L0X_SetLinearityCorrectiveGain
 1605              		.code	16
 1606              		.thumb_func
ARM GAS  C:\Users\ilya\AppData\Local\Temp\ccpEIuqL.s 			page 34


 1607              		.type	VL53L0X_SetLinearityCorrectiveGain, %function
 1608              	VL53L0X_SetLinearityCorrectiveGain:
 1609              	.LFB15:
 276:Api\core\src/vl53l0x_api.c **** 
 277:Api\core\src/vl53l0x_api.c **** VL53L0X_Error VL53L0X_SetLinearityCorrectiveGain(VL53L0X_DEV Dev,
 278:Api\core\src/vl53l0x_api.c **** 	int16_t LinearityCorrectiveGain)
 279:Api\core\src/vl53l0x_api.c **** {
 1610              		.loc 1 279 0
 1611              		.cfi_startproc
 1612              		@ args = 0, pretend = 0, frame = 16
 1613              		@ frame_needed = 1, uses_anonymous_args = 0
 1614 0000 90B5     		push	{r4, r7, lr}
 1615              		.cfi_def_cfa_offset 12
 1616              		.cfi_offset 4, -12
 1617              		.cfi_offset 7, -8
 1618              		.cfi_offset 14, -4
 1619 0002 85B0     		sub	sp, sp, #20
 1620              		.cfi_def_cfa_offset 32
 1621 0004 00AF     		add	r7, sp, #0
 1622              		.cfi_def_cfa_register 7
 1623 0006 7860     		str	r0, [r7, #4]
 1624 0008 0A00     		movs	r2, r1
 1625 000a BB1C     		adds	r3, r7, #2
 1626 000c 1A80     		strh	r2, [r3]
 280:Api\core\src/vl53l0x_api.c **** 	VL53L0X_Error Status = VL53L0X_ERROR_NONE;
 1627              		.loc 1 280 0
 1628 000e 0F23     		movs	r3, #15
 1629 0010 FB18     		adds	r3, r7, r3
 1630 0012 0022     		movs	r2, #0
 1631 0014 1A70     		strb	r2, [r3]
 281:Api\core\src/vl53l0x_api.c **** 	LOG_FUNCTION_START("");
 282:Api\core\src/vl53l0x_api.c **** 
 283:Api\core\src/vl53l0x_api.c **** 	if ((LinearityCorrectiveGain < 0) || (LinearityCorrectiveGain > 1000))
 1632              		.loc 1 283 0
 1633 0016 BB1C     		adds	r3, r7, #2
 1634 0018 0022     		movs	r2, #0
 1635 001a 9B5E     		ldrsh	r3, [r3, r2]
 1636 001c 002B     		cmp	r3, #0
 1637 001e 06DB     		blt	.L39
 1638              		.loc 1 283 0 is_stmt 0 discriminator 1
 1639 0020 BB1C     		adds	r3, r7, #2
 1640 0022 0022     		movs	r2, #0
 1641 0024 9A5E     		ldrsh	r2, [r3, r2]
 1642 0026 FA23     		movs	r3, #250
 1643 0028 9B00     		lsls	r3, r3, #2
 1644 002a 9A42     		cmp	r2, r3
 1645 002c 04DD     		ble	.L40
 1646              	.L39:
 284:Api\core\src/vl53l0x_api.c **** 		Status = VL53L0X_ERROR_INVALID_PARAMS;
 1647              		.loc 1 284 0 is_stmt 1
 1648 002e 0F23     		movs	r3, #15
 1649 0030 FB18     		adds	r3, r7, r3
 1650 0032 FC22     		movs	r2, #252
 1651 0034 1A70     		strb	r2, [r3]
 1652 0036 16E0     		b	.L41
 1653              	.L40:
 285:Api\core\src/vl53l0x_api.c **** 	else {
ARM GAS  C:\Users\ilya\AppData\Local\Temp\ccpEIuqL.s 			page 35


 286:Api\core\src/vl53l0x_api.c **** 		PALDevDataSet(Dev, LinearityCorrectiveGain,
 1654              		.loc 1 286 0
 1655 0038 BB1C     		adds	r3, r7, #2
 1656 003a 1988     		ldrh	r1, [r3]
 1657 003c 7A68     		ldr	r2, [r7, #4]
 1658 003e A923     		movs	r3, #169
 1659 0040 5B00     		lsls	r3, r3, #1
 1660 0042 D152     		strh	r1, [r2, r3]
 287:Api\core\src/vl53l0x_api.c **** 			LinearityCorrectiveGain);
 288:Api\core\src/vl53l0x_api.c **** 
 289:Api\core\src/vl53l0x_api.c **** 		if (LinearityCorrectiveGain != 1000) {
 1661              		.loc 1 289 0
 1662 0044 BB1C     		adds	r3, r7, #2
 1663 0046 0022     		movs	r2, #0
 1664 0048 9A5E     		ldrsh	r2, [r3, r2]
 1665 004a FA23     		movs	r3, #250
 1666 004c 9B00     		lsls	r3, r3, #2
 1667 004e 9A42     		cmp	r2, r3
 1668 0050 09D0     		beq	.L41
 290:Api\core\src/vl53l0x_api.c **** 			/* Disable FW Xtalk */
 291:Api\core\src/vl53l0x_api.c **** 			Status = VL53L0X_WrWord(Dev,
 1669              		.loc 1 291 0
 1670 0052 0F23     		movs	r3, #15
 1671 0054 FC18     		adds	r4, r7, r3
 1672 0056 7B68     		ldr	r3, [r7, #4]
 1673 0058 0022     		movs	r2, #0
 1674 005a 2021     		movs	r1, #32
 1675 005c 1800     		movs	r0, r3
 1676 005e FFF7FEFF 		bl	VL53L0X_WrWord
 1677 0062 0300     		movs	r3, r0
 1678 0064 2370     		strb	r3, [r4]
 1679              	.L41:
 292:Api\core\src/vl53l0x_api.c **** 			VL53L0X_REG_CROSSTALK_COMPENSATION_PEAK_RATE_MCPS, 0);
 293:Api\core\src/vl53l0x_api.c **** 		}
 294:Api\core\src/vl53l0x_api.c **** 	}
 295:Api\core\src/vl53l0x_api.c **** 
 296:Api\core\src/vl53l0x_api.c **** 	LOG_FUNCTION_END(Status);
 297:Api\core\src/vl53l0x_api.c **** 	return Status;
 1680              		.loc 1 297 0
 1681 0066 0F23     		movs	r3, #15
 1682 0068 FB18     		adds	r3, r7, r3
 1683 006a 1B78     		ldrb	r3, [r3]
 1684 006c 5BB2     		sxtb	r3, r3
 298:Api\core\src/vl53l0x_api.c **** }
 1685              		.loc 1 298 0
 1686 006e 1800     		movs	r0, r3
 1687 0070 BD46     		mov	sp, r7
 1688 0072 05B0     		add	sp, sp, #20
 1689              		@ sp needed
 1690 0074 90BD     		pop	{r4, r7, pc}
 1691              		.cfi_endproc
 1692              	.LFE15:
 1693              		.size	VL53L0X_SetLinearityCorrectiveGain, .-VL53L0X_SetLinearityCorrectiveGain
 1694 0076 C046     		.section	.text.VL53L0X_GetLinearityCorrectiveGain,"ax",%progbits
 1695              		.align	2
 1696              		.global	VL53L0X_GetLinearityCorrectiveGain
 1697              		.code	16
ARM GAS  C:\Users\ilya\AppData\Local\Temp\ccpEIuqL.s 			page 36


 1698              		.thumb_func
 1699              		.type	VL53L0X_GetLinearityCorrectiveGain, %function
 1700              	VL53L0X_GetLinearityCorrectiveGain:
 1701              	.LFB16:
 299:Api\core\src/vl53l0x_api.c **** 
 300:Api\core\src/vl53l0x_api.c **** VL53L0X_Error VL53L0X_GetLinearityCorrectiveGain(VL53L0X_DEV Dev,
 301:Api\core\src/vl53l0x_api.c **** 	uint16_t *pLinearityCorrectiveGain)
 302:Api\core\src/vl53l0x_api.c **** {
 1702              		.loc 1 302 0
 1703              		.cfi_startproc
 1704              		@ args = 0, pretend = 0, frame = 16
 1705              		@ frame_needed = 1, uses_anonymous_args = 0
 1706 0000 80B5     		push	{r7, lr}
 1707              		.cfi_def_cfa_offset 8
 1708              		.cfi_offset 7, -8
 1709              		.cfi_offset 14, -4
 1710 0002 84B0     		sub	sp, sp, #16
 1711              		.cfi_def_cfa_offset 24
 1712 0004 00AF     		add	r7, sp, #0
 1713              		.cfi_def_cfa_register 7
 1714 0006 7860     		str	r0, [r7, #4]
 1715 0008 3960     		str	r1, [r7]
 303:Api\core\src/vl53l0x_api.c **** 	VL53L0X_Error Status = VL53L0X_ERROR_NONE;
 1716              		.loc 1 303 0
 1717 000a 0F23     		movs	r3, #15
 1718 000c FB18     		adds	r3, r7, r3
 1719 000e 0022     		movs	r2, #0
 1720 0010 1A70     		strb	r2, [r3]
 304:Api\core\src/vl53l0x_api.c **** 	LOG_FUNCTION_START("");
 305:Api\core\src/vl53l0x_api.c **** 
 306:Api\core\src/vl53l0x_api.c **** 	*pLinearityCorrectiveGain = PALDevDataGet(Dev, LinearityCorrectiveGain);
 1721              		.loc 1 306 0
 1722 0012 7A68     		ldr	r2, [r7, #4]
 1723 0014 A923     		movs	r3, #169
 1724 0016 5B00     		lsls	r3, r3, #1
 1725 0018 D25A     		ldrh	r2, [r2, r3]
 1726 001a 3B68     		ldr	r3, [r7]
 1727 001c 1A80     		strh	r2, [r3]
 307:Api\core\src/vl53l0x_api.c **** 
 308:Api\core\src/vl53l0x_api.c **** 	LOG_FUNCTION_END(Status);
 309:Api\core\src/vl53l0x_api.c **** 	return Status;
 1728              		.loc 1 309 0
 1729 001e 0F23     		movs	r3, #15
 1730 0020 FB18     		adds	r3, r7, r3
 1731 0022 1B78     		ldrb	r3, [r3]
 1732 0024 5BB2     		sxtb	r3, r3
 310:Api\core\src/vl53l0x_api.c **** }
 1733              		.loc 1 310 0
 1734 0026 1800     		movs	r0, r3
 1735 0028 BD46     		mov	sp, r7
 1736 002a 04B0     		add	sp, sp, #16
 1737              		@ sp needed
 1738 002c 80BD     		pop	{r7, pc}
 1739              		.cfi_endproc
 1740              	.LFE16:
 1741              		.size	VL53L0X_GetLinearityCorrectiveGain, .-VL53L0X_GetLinearityCorrectiveGain
 1742 002e C046     		.section	.text.VL53L0X_SetGroupParamHold,"ax",%progbits
ARM GAS  C:\Users\ilya\AppData\Local\Temp\ccpEIuqL.s 			page 37


 1743              		.align	2
 1744              		.global	VL53L0X_SetGroupParamHold
 1745              		.code	16
 1746              		.thumb_func
 1747              		.type	VL53L0X_SetGroupParamHold, %function
 1748              	VL53L0X_SetGroupParamHold:
 1749              	.LFB17:
 311:Api\core\src/vl53l0x_api.c **** 
 312:Api\core\src/vl53l0x_api.c **** VL53L0X_Error VL53L0X_SetGroupParamHold(VL53L0X_DEV Dev, uint8_t GroupParamHold)
 313:Api\core\src/vl53l0x_api.c **** {
 1750              		.loc 1 313 0
 1751              		.cfi_startproc
 1752              		@ args = 0, pretend = 0, frame = 16
 1753              		@ frame_needed = 1, uses_anonymous_args = 0
 1754 0000 80B5     		push	{r7, lr}
 1755              		.cfi_def_cfa_offset 8
 1756              		.cfi_offset 7, -8
 1757              		.cfi_offset 14, -4
 1758 0002 84B0     		sub	sp, sp, #16
 1759              		.cfi_def_cfa_offset 24
 1760 0004 00AF     		add	r7, sp, #0
 1761              		.cfi_def_cfa_register 7
 1762 0006 7860     		str	r0, [r7, #4]
 1763 0008 0A00     		movs	r2, r1
 1764 000a FB1C     		adds	r3, r7, #3
 1765 000c 1A70     		strb	r2, [r3]
 314:Api\core\src/vl53l0x_api.c **** 	VL53L0X_Error Status = VL53L0X_ERROR_NOT_IMPLEMENTED;
 1766              		.loc 1 314 0
 1767 000e 0F23     		movs	r3, #15
 1768 0010 FB18     		adds	r3, r7, r3
 1769 0012 9D22     		movs	r2, #157
 1770 0014 1A70     		strb	r2, [r3]
 315:Api\core\src/vl53l0x_api.c **** 	LOG_FUNCTION_START("");
 316:Api\core\src/vl53l0x_api.c **** 
 317:Api\core\src/vl53l0x_api.c **** 	/* not implemented on VL53L0X */
 318:Api\core\src/vl53l0x_api.c **** 
 319:Api\core\src/vl53l0x_api.c **** 	LOG_FUNCTION_END(Status);
 320:Api\core\src/vl53l0x_api.c **** 	return Status;
 1771              		.loc 1 320 0
 1772 0016 0F23     		movs	r3, #15
 1773 0018 FB18     		adds	r3, r7, r3
 1774 001a 1B78     		ldrb	r3, [r3]
 1775 001c 5BB2     		sxtb	r3, r3
 321:Api\core\src/vl53l0x_api.c **** }
 1776              		.loc 1 321 0
 1777 001e 1800     		movs	r0, r3
 1778 0020 BD46     		mov	sp, r7
 1779 0022 04B0     		add	sp, sp, #16
 1780              		@ sp needed
 1781 0024 80BD     		pop	{r7, pc}
 1782              		.cfi_endproc
 1783              	.LFE17:
 1784              		.size	VL53L0X_SetGroupParamHold, .-VL53L0X_SetGroupParamHold
 1785 0026 C046     		.section	.text.VL53L0X_GetUpperLimitMilliMeter,"ax",%progbits
 1786              		.align	2
 1787              		.global	VL53L0X_GetUpperLimitMilliMeter
 1788              		.code	16
ARM GAS  C:\Users\ilya\AppData\Local\Temp\ccpEIuqL.s 			page 38


 1789              		.thumb_func
 1790              		.type	VL53L0X_GetUpperLimitMilliMeter, %function
 1791              	VL53L0X_GetUpperLimitMilliMeter:
 1792              	.LFB18:
 322:Api\core\src/vl53l0x_api.c **** 
 323:Api\core\src/vl53l0x_api.c **** VL53L0X_Error VL53L0X_GetUpperLimitMilliMeter(VL53L0X_DEV Dev,
 324:Api\core\src/vl53l0x_api.c **** 	uint16_t *pUpperLimitMilliMeter)
 325:Api\core\src/vl53l0x_api.c **** {
 1793              		.loc 1 325 0
 1794              		.cfi_startproc
 1795              		@ args = 0, pretend = 0, frame = 16
 1796              		@ frame_needed = 1, uses_anonymous_args = 0
 1797 0000 80B5     		push	{r7, lr}
 1798              		.cfi_def_cfa_offset 8
 1799              		.cfi_offset 7, -8
 1800              		.cfi_offset 14, -4
 1801 0002 84B0     		sub	sp, sp, #16
 1802              		.cfi_def_cfa_offset 24
 1803 0004 00AF     		add	r7, sp, #0
 1804              		.cfi_def_cfa_register 7
 1805 0006 7860     		str	r0, [r7, #4]
 1806 0008 3960     		str	r1, [r7]
 326:Api\core\src/vl53l0x_api.c **** 	VL53L0X_Error Status = VL53L0X_ERROR_NOT_IMPLEMENTED;
 1807              		.loc 1 326 0
 1808 000a 0F23     		movs	r3, #15
 1809 000c FB18     		adds	r3, r7, r3
 1810 000e 9D22     		movs	r2, #157
 1811 0010 1A70     		strb	r2, [r3]
 327:Api\core\src/vl53l0x_api.c **** 	LOG_FUNCTION_START("");
 328:Api\core\src/vl53l0x_api.c **** 
 329:Api\core\src/vl53l0x_api.c **** 	/* not implemented on VL53L0X */
 330:Api\core\src/vl53l0x_api.c **** 
 331:Api\core\src/vl53l0x_api.c **** 	LOG_FUNCTION_END(Status);
 332:Api\core\src/vl53l0x_api.c **** 	return Status;
 1812              		.loc 1 332 0
 1813 0012 0F23     		movs	r3, #15
 1814 0014 FB18     		adds	r3, r7, r3
 1815 0016 1B78     		ldrb	r3, [r3]
 1816 0018 5BB2     		sxtb	r3, r3
 333:Api\core\src/vl53l0x_api.c **** }
 1817              		.loc 1 333 0
 1818 001a 1800     		movs	r0, r3
 1819 001c BD46     		mov	sp, r7
 1820 001e 04B0     		add	sp, sp, #16
 1821              		@ sp needed
 1822 0020 80BD     		pop	{r7, pc}
 1823              		.cfi_endproc
 1824              	.LFE18:
 1825              		.size	VL53L0X_GetUpperLimitMilliMeter, .-VL53L0X_GetUpperLimitMilliMeter
 1826 0022 C046     		.section	.text.VL53L0X_GetTotalSignalRate,"ax",%progbits
 1827              		.align	2
 1828              		.global	VL53L0X_GetTotalSignalRate
 1829              		.code	16
 1830              		.thumb_func
 1831              		.type	VL53L0X_GetTotalSignalRate, %function
 1832              	VL53L0X_GetTotalSignalRate:
 1833              	.LFB19:
ARM GAS  C:\Users\ilya\AppData\Local\Temp\ccpEIuqL.s 			page 39


 334:Api\core\src/vl53l0x_api.c **** 
 335:Api\core\src/vl53l0x_api.c **** VL53L0X_Error VL53L0X_GetTotalSignalRate(VL53L0X_DEV Dev,
 336:Api\core\src/vl53l0x_api.c **** 	FixPoint1616_t *pTotalSignalRate)
 337:Api\core\src/vl53l0x_api.c **** {
 1834              		.loc 1 337 0
 1835              		.cfi_startproc
 1836              		@ args = 0, pretend = 0, frame = 40
 1837              		@ frame_needed = 1, uses_anonymous_args = 0
 1838 0000 90B5     		push	{r4, r7, lr}
 1839              		.cfi_def_cfa_offset 12
 1840              		.cfi_offset 4, -12
 1841              		.cfi_offset 7, -8
 1842              		.cfi_offset 14, -4
 1843 0002 8BB0     		sub	sp, sp, #44
 1844              		.cfi_def_cfa_offset 56
 1845 0004 00AF     		add	r7, sp, #0
 1846              		.cfi_def_cfa_register 7
 1847 0006 7860     		str	r0, [r7, #4]
 1848 0008 3960     		str	r1, [r7]
 338:Api\core\src/vl53l0x_api.c **** 	VL53L0X_Error Status = VL53L0X_ERROR_NONE;
 1849              		.loc 1 338 0
 1850 000a 2723     		movs	r3, #39
 1851 000c FB18     		adds	r3, r7, r3
 1852 000e 0022     		movs	r2, #0
 1853 0010 1A70     		strb	r2, [r3]
 339:Api\core\src/vl53l0x_api.c **** 	VL53L0X_RangingMeasurementData_t LastRangeDataBuffer;
 340:Api\core\src/vl53l0x_api.c **** 
 341:Api\core\src/vl53l0x_api.c **** 	LOG_FUNCTION_START("");
 342:Api\core\src/vl53l0x_api.c **** 
 343:Api\core\src/vl53l0x_api.c **** 	LastRangeDataBuffer = PALDevDataGet(Dev, LastRangeMeasure);
 1854              		.loc 1 343 0
 1855 0012 0823     		movs	r3, #8
 1856 0014 FA18     		adds	r2, r7, r3
 1857 0016 7B68     		ldr	r3, [r7, #4]
 1858 0018 5033     		adds	r3, r3, #80
 1859 001a 13CB     		ldmia	r3!, {r0, r1, r4}
 1860 001c 13C2     		stmia	r2!, {r0, r1, r4}
 1861 001e 13CB     		ldmia	r3!, {r0, r1, r4}
 1862 0020 13C2     		stmia	r2!, {r0, r1, r4}
 1863 0022 1B68     		ldr	r3, [r3]
 1864 0024 1360     		str	r3, [r2]
 344:Api\core\src/vl53l0x_api.c **** 
 345:Api\core\src/vl53l0x_api.c **** 	Status = VL53L0X_get_total_signal_rate(
 1865              		.loc 1 345 0
 1866 0026 2723     		movs	r3, #39
 1867 0028 FC18     		adds	r4, r7, r3
 1868 002a 3A68     		ldr	r2, [r7]
 1869 002c 0823     		movs	r3, #8
 1870 002e F918     		adds	r1, r7, r3
 1871 0030 7B68     		ldr	r3, [r7, #4]
 1872 0032 1800     		movs	r0, r3
 1873 0034 FFF7FEFF 		bl	VL53L0X_get_total_signal_rate
 1874 0038 0300     		movs	r3, r0
 1875 003a 2370     		strb	r3, [r4]
 346:Api\core\src/vl53l0x_api.c **** 		Dev, &LastRangeDataBuffer, pTotalSignalRate);
 347:Api\core\src/vl53l0x_api.c **** 
 348:Api\core\src/vl53l0x_api.c **** 	LOG_FUNCTION_END(Status);
ARM GAS  C:\Users\ilya\AppData\Local\Temp\ccpEIuqL.s 			page 40


 349:Api\core\src/vl53l0x_api.c **** 	return Status;
 1876              		.loc 1 349 0
 1877 003c 2723     		movs	r3, #39
 1878 003e FB18     		adds	r3, r7, r3
 1879 0040 1B78     		ldrb	r3, [r3]
 1880 0042 5BB2     		sxtb	r3, r3
 350:Api\core\src/vl53l0x_api.c **** }
 1881              		.loc 1 350 0
 1882 0044 1800     		movs	r0, r3
 1883 0046 BD46     		mov	sp, r7
 1884 0048 0BB0     		add	sp, sp, #44
 1885              		@ sp needed
 1886 004a 90BD     		pop	{r4, r7, pc}
 1887              		.cfi_endproc
 1888              	.LFE19:
 1889              		.size	VL53L0X_GetTotalSignalRate, .-VL53L0X_GetTotalSignalRate
 1890              		.section	.text.VL53L0X_SetDeviceAddress,"ax",%progbits
 1891              		.align	2
 1892              		.global	VL53L0X_SetDeviceAddress
 1893              		.code	16
 1894              		.thumb_func
 1895              		.type	VL53L0X_SetDeviceAddress, %function
 1896              	VL53L0X_SetDeviceAddress:
 1897              	.LFB20:
 351:Api\core\src/vl53l0x_api.c **** 
 352:Api\core\src/vl53l0x_api.c **** /* End Group PAL General Functions */
 353:Api\core\src/vl53l0x_api.c **** 
 354:Api\core\src/vl53l0x_api.c **** /* Group PAL Init Functions */
 355:Api\core\src/vl53l0x_api.c **** VL53L0X_Error VL53L0X_SetDeviceAddress(VL53L0X_DEV Dev, uint8_t DeviceAddress)
 356:Api\core\src/vl53l0x_api.c **** {
 1898              		.loc 1 356 0
 1899              		.cfi_startproc
 1900              		@ args = 0, pretend = 0, frame = 16
 1901              		@ frame_needed = 1, uses_anonymous_args = 0
 1902 0000 90B5     		push	{r4, r7, lr}
 1903              		.cfi_def_cfa_offset 12
 1904              		.cfi_offset 4, -12
 1905              		.cfi_offset 7, -8
 1906              		.cfi_offset 14, -4
 1907 0002 85B0     		sub	sp, sp, #20
 1908              		.cfi_def_cfa_offset 32
 1909 0004 00AF     		add	r7, sp, #0
 1910              		.cfi_def_cfa_register 7
 1911 0006 7860     		str	r0, [r7, #4]
 1912 0008 0A00     		movs	r2, r1
 1913 000a FB1C     		adds	r3, r7, #3
 1914 000c 1A70     		strb	r2, [r3]
 357:Api\core\src/vl53l0x_api.c **** 	VL53L0X_Error Status = VL53L0X_ERROR_NONE;
 1915              		.loc 1 357 0
 1916 000e 0F23     		movs	r3, #15
 1917 0010 FB18     		adds	r3, r7, r3
 1918 0012 0022     		movs	r2, #0
 1919 0014 1A70     		strb	r2, [r3]
 358:Api\core\src/vl53l0x_api.c **** 	LOG_FUNCTION_START("");
 359:Api\core\src/vl53l0x_api.c **** 
 360:Api\core\src/vl53l0x_api.c **** 	Status = VL53L0X_WrByte(Dev, VL53L0X_REG_I2C_SLAVE_DEVICE_ADDRESS,
 1920              		.loc 1 360 0
ARM GAS  C:\Users\ilya\AppData\Local\Temp\ccpEIuqL.s 			page 41


 1921 0016 FB1C     		adds	r3, r7, #3
 1922 0018 1B78     		ldrb	r3, [r3]
 1923 001a 5B08     		lsrs	r3, r3, #1
 1924 001c DAB2     		uxtb	r2, r3
 1925 001e 0F23     		movs	r3, #15
 1926 0020 FC18     		adds	r4, r7, r3
 1927 0022 7B68     		ldr	r3, [r7, #4]
 1928 0024 8A21     		movs	r1, #138
 1929 0026 1800     		movs	r0, r3
 1930 0028 FFF7FEFF 		bl	VL53L0X_WrByte
 1931 002c 0300     		movs	r3, r0
 1932 002e 2370     		strb	r3, [r4]
 361:Api\core\src/vl53l0x_api.c **** 		DeviceAddress / 2);
 362:Api\core\src/vl53l0x_api.c **** 
 363:Api\core\src/vl53l0x_api.c **** 	LOG_FUNCTION_END(Status);
 364:Api\core\src/vl53l0x_api.c **** 	return Status;
 1933              		.loc 1 364 0
 1934 0030 0F23     		movs	r3, #15
 1935 0032 FB18     		adds	r3, r7, r3
 1936 0034 1B78     		ldrb	r3, [r3]
 1937 0036 5BB2     		sxtb	r3, r3
 365:Api\core\src/vl53l0x_api.c **** }
 1938              		.loc 1 365 0
 1939 0038 1800     		movs	r0, r3
 1940 003a BD46     		mov	sp, r7
 1941 003c 05B0     		add	sp, sp, #20
 1942              		@ sp needed
 1943 003e 90BD     		pop	{r4, r7, pc}
 1944              		.cfi_endproc
 1945              	.LFE20:
 1946              		.size	VL53L0X_SetDeviceAddress, .-VL53L0X_SetDeviceAddress
 1947              		.section	.text.VL53L0X_DataInit,"ax",%progbits
 1948              		.align	2
 1949              		.global	VL53L0X_DataInit
 1950              		.code	16
 1951              		.thumb_func
 1952              		.type	VL53L0X_DataInit, %function
 1953              	VL53L0X_DataInit:
 1954              	.LFB21:
 366:Api\core\src/vl53l0x_api.c **** 
 367:Api\core\src/vl53l0x_api.c **** VL53L0X_Error VL53L0X_DataInit(VL53L0X_DEV Dev)
 368:Api\core\src/vl53l0x_api.c **** {
 1955              		.loc 1 368 0
 1956              		.cfi_startproc
 1957              		@ args = 0, pretend = 0, frame = 88
 1958              		@ frame_needed = 1, uses_anonymous_args = 0
 1959 0000 90B5     		push	{r4, r7, lr}
 1960              		.cfi_def_cfa_offset 12
 1961              		.cfi_offset 4, -12
 1962              		.cfi_offset 7, -8
 1963              		.cfi_offset 14, -4
 1964 0002 97B0     		sub	sp, sp, #92
 1965              		.cfi_def_cfa_offset 104
 1966 0004 00AF     		add	r7, sp, #0
 1967              		.cfi_def_cfa_register 7
 1968 0006 7860     		str	r0, [r7, #4]
 369:Api\core\src/vl53l0x_api.c **** 	VL53L0X_Error Status = VL53L0X_ERROR_NONE;
ARM GAS  C:\Users\ilya\AppData\Local\Temp\ccpEIuqL.s 			page 42


 1969              		.loc 1 369 0
 1970 0008 5723     		movs	r3, #87
 1971 000a FB18     		adds	r3, r7, r3
 1972 000c 0022     		movs	r2, #0
 1973 000e 1A70     		strb	r2, [r3]
 370:Api\core\src/vl53l0x_api.c **** 	VL53L0X_DeviceParameters_t CurrentParameters;
 371:Api\core\src/vl53l0x_api.c **** 	int i;
 372:Api\core\src/vl53l0x_api.c **** 	uint8_t StopVariable;
 373:Api\core\src/vl53l0x_api.c **** 
 374:Api\core\src/vl53l0x_api.c **** 	LOG_FUNCTION_START("");
 375:Api\core\src/vl53l0x_api.c **** 
 376:Api\core\src/vl53l0x_api.c **** 	/* by default the I2C is running at 1V8 if you want to change it you
 377:Api\core\src/vl53l0x_api.c **** 	 * need to include this define at compilation level. */
 378:Api\core\src/vl53l0x_api.c **** #ifdef USE_I2C_2V8
 379:Api\core\src/vl53l0x_api.c **** 	Status = VL53L0X_UpdateByte(Dev,
 380:Api\core\src/vl53l0x_api.c **** 		VL53L0X_REG_VHV_CONFIG_PAD_SCL_SDA__EXTSUP_HV,
 381:Api\core\src/vl53l0x_api.c **** 		0xFE,
 382:Api\core\src/vl53l0x_api.c **** 		0x01);
 383:Api\core\src/vl53l0x_api.c **** #endif
 384:Api\core\src/vl53l0x_api.c **** 
 385:Api\core\src/vl53l0x_api.c **** 	/* Set I2C standard mode */
 386:Api\core\src/vl53l0x_api.c **** 	if (Status == VL53L0X_ERROR_NONE)
 1974              		.loc 1 386 0
 1975 0010 5723     		movs	r3, #87
 1976 0012 FB18     		adds	r3, r7, r3
 1977 0014 1B78     		ldrb	r3, [r3]
 1978 0016 5BB2     		sxtb	r3, r3
 1979 0018 002B     		cmp	r3, #0
 1980 001a 09D1     		bne	.L54
 387:Api\core\src/vl53l0x_api.c **** 		Status = VL53L0X_WrByte(Dev, 0x88, 0x00);
 1981              		.loc 1 387 0
 1982 001c 5723     		movs	r3, #87
 1983 001e FC18     		adds	r4, r7, r3
 1984 0020 7B68     		ldr	r3, [r7, #4]
 1985 0022 0022     		movs	r2, #0
 1986 0024 8821     		movs	r1, #136
 1987 0026 1800     		movs	r0, r3
 1988 0028 FFF7FEFF 		bl	VL53L0X_WrByte
 1989 002c 0300     		movs	r3, r0
 1990 002e 2370     		strb	r3, [r4]
 1991              	.L54:
 388:Api\core\src/vl53l0x_api.c **** 
 389:Api\core\src/vl53l0x_api.c **** 	VL53L0X_SETDEVICESPECIFICPARAMETER(Dev, ReadDataFromDeviceDone, 0);
 1992              		.loc 1 389 0
 1993 0030 7B68     		ldr	r3, [r7, #4]
 1994 0032 F022     		movs	r2, #240
 1995 0034 0021     		movs	r1, #0
 1996 0036 9954     		strb	r1, [r3, r2]
 390:Api\core\src/vl53l0x_api.c **** 
 391:Api\core\src/vl53l0x_api.c **** #ifdef USE_IQC_STATION
 392:Api\core\src/vl53l0x_api.c **** 	if (Status == VL53L0X_ERROR_NONE)
 393:Api\core\src/vl53l0x_api.c **** 		Status = VL53L0X_apply_offset_adjustment(Dev);
 394:Api\core\src/vl53l0x_api.c **** #endif
 395:Api\core\src/vl53l0x_api.c **** 
 396:Api\core\src/vl53l0x_api.c **** 	/* Default value is 1000 for Linearity Corrective Gain */
 397:Api\core\src/vl53l0x_api.c **** 	PALDevDataSet(Dev, LinearityCorrectiveGain, 1000);
 1997              		.loc 1 397 0
ARM GAS  C:\Users\ilya\AppData\Local\Temp\ccpEIuqL.s 			page 43


 1998 0038 7A68     		ldr	r2, [r7, #4]
 1999 003a A923     		movs	r3, #169
 2000 003c 5B00     		lsls	r3, r3, #1
 2001 003e FA21     		movs	r1, #250
 2002 0040 8900     		lsls	r1, r1, #2
 2003 0042 D152     		strh	r1, [r2, r3]
 398:Api\core\src/vl53l0x_api.c **** 
 399:Api\core\src/vl53l0x_api.c **** 	/* Dmax default Parameter */
 400:Api\core\src/vl53l0x_api.c **** 	PALDevDataSet(Dev, DmaxCalRangeMilliMeter, 400);
 2004              		.loc 1 400 0
 2005 0044 7A68     		ldr	r2, [r7, #4]
 2006 0046 AA23     		movs	r3, #170
 2007 0048 5B00     		lsls	r3, r3, #1
 2008 004a C821     		movs	r1, #200
 2009 004c 4900     		lsls	r1, r1, #1
 2010 004e D152     		strh	r1, [r2, r3]
 401:Api\core\src/vl53l0x_api.c **** 	PALDevDataSet(Dev, DmaxCalSignalRateRtnMegaCps,
 2011              		.loc 1 401 0
 2012 0050 7A68     		ldr	r2, [r7, #4]
 2013 0052 AC23     		movs	r3, #172
 2014 0054 5B00     		lsls	r3, r3, #1
 2015 0056 C449     		ldr	r1, .L73
 2016 0058 D150     		str	r1, [r2, r3]
 402:Api\core\src/vl53l0x_api.c **** 		(FixPoint1616_t)((0x00016B85))); /* 1.42 No Cover Glass*/
 403:Api\core\src/vl53l0x_api.c **** 
 404:Api\core\src/vl53l0x_api.c **** 	/* Set Default static parameters
 405:Api\core\src/vl53l0x_api.c **** 	 *set first temporary values 9.44MHz * 65536 = 618660 */
 406:Api\core\src/vl53l0x_api.c **** 	VL53L0X_SETDEVICESPECIFICPARAMETER(Dev, OscFrequencyMHz, 618660);
 2017              		.loc 1 406 0
 2018 005a 7B68     		ldr	r3, [r7, #4]
 2019 005c D422     		movs	r2, #212
 2020 005e C349     		ldr	r1, .L73+4
 2021 0060 9950     		str	r1, [r3, r2]
 407:Api\core\src/vl53l0x_api.c **** 
 408:Api\core\src/vl53l0x_api.c **** 	/* Set Default XTalkCompensationRateMegaCps to 0  */
 409:Api\core\src/vl53l0x_api.c **** 	VL53L0X_SETPARAMETERFIELD(Dev, XTalkCompensationRateMegaCps, 0);
 2022              		.loc 1 409 0
 2023 0062 7B68     		ldr	r3, [r7, #4]
 2024 0064 0022     		movs	r2, #0
 2025 0066 1A62     		str	r2, [r3, #32]
 410:Api\core\src/vl53l0x_api.c **** 
 411:Api\core\src/vl53l0x_api.c **** 	/* Get default parameters */
 412:Api\core\src/vl53l0x_api.c **** 	Status = VL53L0X_GetDeviceParameters(Dev, &CurrentParameters);
 2026              		.loc 1 412 0
 2027 0068 5723     		movs	r3, #87
 2028 006a FC18     		adds	r4, r7, r3
 2029 006c 1023     		movs	r3, #16
 2030 006e FA18     		adds	r2, r7, r3
 2031 0070 7B68     		ldr	r3, [r7, #4]
 2032 0072 1100     		movs	r1, r2
 2033 0074 1800     		movs	r0, r3
 2034 0076 FFF7FEFF 		bl	VL53L0X_GetDeviceParameters
 2035 007a 0300     		movs	r3, r0
 2036 007c 2370     		strb	r3, [r4]
 413:Api\core\src/vl53l0x_api.c **** 	if (Status == VL53L0X_ERROR_NONE) {
 2037              		.loc 1 413 0
 2038 007e 5723     		movs	r3, #87
ARM GAS  C:\Users\ilya\AppData\Local\Temp\ccpEIuqL.s 			page 44


 2039 0080 FB18     		adds	r3, r7, r3
 2040 0082 1B78     		ldrb	r3, [r3]
 2041 0084 5BB2     		sxtb	r3, r3
 2042 0086 002B     		cmp	r3, #0
 2043 0088 10D1     		bne	.L55
 414:Api\core\src/vl53l0x_api.c **** 		/* initialize PAL values */
 415:Api\core\src/vl53l0x_api.c **** 		CurrentParameters.DeviceMode = VL53L0X_DEVICEMODE_SINGLE_RANGING;
 2044              		.loc 1 415 0
 2045 008a 1023     		movs	r3, #16
 2046 008c FB18     		adds	r3, r7, r3
 2047 008e 0022     		movs	r2, #0
 2048 0090 1A70     		strb	r2, [r3]
 416:Api\core\src/vl53l0x_api.c **** 		CurrentParameters.HistogramMode = VL53L0X_HISTOGRAMMODE_DISABLED;
 2049              		.loc 1 416 0
 2050 0092 1023     		movs	r3, #16
 2051 0094 FB18     		adds	r3, r7, r3
 2052 0096 0022     		movs	r2, #0
 2053 0098 5A70     		strb	r2, [r3, #1]
 417:Api\core\src/vl53l0x_api.c **** 		PALDevDataSet(Dev, CurrentParameters, CurrentParameters);
 2054              		.loc 1 417 0
 2055 009a 7B68     		ldr	r3, [r7, #4]
 2056 009c 1022     		movs	r2, #16
 2057 009e BA18     		adds	r2, r7, r2
 2058 00a0 1033     		adds	r3, r3, #16
 2059 00a2 1100     		movs	r1, r2
 2060 00a4 4022     		movs	r2, #64
 2061 00a6 1800     		movs	r0, r3
 2062 00a8 FFF7FEFF 		bl	memcpy
 2063              	.L55:
 418:Api\core\src/vl53l0x_api.c **** 	}
 419:Api\core\src/vl53l0x_api.c **** 
 420:Api\core\src/vl53l0x_api.c **** 	/* Sigma estimator variable */
 421:Api\core\src/vl53l0x_api.c **** 	PALDevDataSet(Dev, SigmaEstRefArray, 100);
 2064              		.loc 1 421 0
 2065 00ac 7A68     		ldr	r2, [r7, #4]
 2066 00ae 9A23     		movs	r3, #154
 2067 00b0 5B00     		lsls	r3, r3, #1
 2068 00b2 6421     		movs	r1, #100
 2069 00b4 D152     		strh	r1, [r2, r3]
 422:Api\core\src/vl53l0x_api.c **** 	PALDevDataSet(Dev, SigmaEstEffPulseWidth, 900);
 2070              		.loc 1 422 0
 2071 00b6 7A68     		ldr	r2, [r7, #4]
 2072 00b8 9B23     		movs	r3, #155
 2073 00ba 5B00     		lsls	r3, r3, #1
 2074 00bc E121     		movs	r1, #225
 2075 00be 8900     		lsls	r1, r1, #2
 2076 00c0 D152     		strh	r1, [r2, r3]
 423:Api\core\src/vl53l0x_api.c **** 	PALDevDataSet(Dev, SigmaEstEffAmbWidth, 500);
 2077              		.loc 1 423 0
 2078 00c2 7A68     		ldr	r2, [r7, #4]
 2079 00c4 9C23     		movs	r3, #156
 2080 00c6 5B00     		lsls	r3, r3, #1
 2081 00c8 FA21     		movs	r1, #250
 2082 00ca 4900     		lsls	r1, r1, #1
 2083 00cc D152     		strh	r1, [r2, r3]
 424:Api\core\src/vl53l0x_api.c **** 	PALDevDataSet(Dev, targetRefRate, 0x0A00); /* 20 MCPS in 9:7 format */
 2084              		.loc 1 424 0
ARM GAS  C:\Users\ilya\AppData\Local\Temp\ccpEIuqL.s 			page 45


 2085 00ce 7A68     		ldr	r2, [r7, #4]
 2086 00d0 9E23     		movs	r3, #158
 2087 00d2 5B00     		lsls	r3, r3, #1
 2088 00d4 A021     		movs	r1, #160
 2089 00d6 0901     		lsls	r1, r1, #4
 2090 00d8 D152     		strh	r1, [r2, r3]
 425:Api\core\src/vl53l0x_api.c **** 
 426:Api\core\src/vl53l0x_api.c **** 	/* Use internal default settings */
 427:Api\core\src/vl53l0x_api.c **** 	PALDevDataSet(Dev, UseInternalTuningSettings, 1);
 2091              		.loc 1 427 0
 2092 00da 7A68     		ldr	r2, [r7, #4]
 2093 00dc A823     		movs	r3, #168
 2094 00de 5B00     		lsls	r3, r3, #1
 2095 00e0 0121     		movs	r1, #1
 2096 00e2 D154     		strb	r1, [r2, r3]
 428:Api\core\src/vl53l0x_api.c **** 
 429:Api\core\src/vl53l0x_api.c **** 	Status |= VL53L0X_WrByte(Dev, 0x80, 0x01);
 2097              		.loc 1 429 0
 2098 00e4 7B68     		ldr	r3, [r7, #4]
 2099 00e6 0122     		movs	r2, #1
 2100 00e8 8021     		movs	r1, #128
 2101 00ea 1800     		movs	r0, r3
 2102 00ec FFF7FEFF 		bl	VL53L0X_WrByte
 2103 00f0 0300     		movs	r3, r0
 2104 00f2 1900     		movs	r1, r3
 2105 00f4 5723     		movs	r3, #87
 2106 00f6 FB18     		adds	r3, r7, r3
 2107 00f8 5722     		movs	r2, #87
 2108 00fa BA18     		adds	r2, r7, r2
 2109 00fc 1278     		ldrb	r2, [r2]
 2110 00fe 0A43     		orrs	r2, r1
 2111 0100 1A70     		strb	r2, [r3]
 430:Api\core\src/vl53l0x_api.c **** 	Status |= VL53L0X_WrByte(Dev, 0xFF, 0x01);
 2112              		.loc 1 430 0
 2113 0102 7B68     		ldr	r3, [r7, #4]
 2114 0104 0122     		movs	r2, #1
 2115 0106 FF21     		movs	r1, #255
 2116 0108 1800     		movs	r0, r3
 2117 010a FFF7FEFF 		bl	VL53L0X_WrByte
 2118 010e 0300     		movs	r3, r0
 2119 0110 1900     		movs	r1, r3
 2120 0112 5723     		movs	r3, #87
 2121 0114 FB18     		adds	r3, r7, r3
 2122 0116 5722     		movs	r2, #87
 2123 0118 BA18     		adds	r2, r7, r2
 2124 011a 1278     		ldrb	r2, [r2]
 2125 011c 0A43     		orrs	r2, r1
 2126 011e 1A70     		strb	r2, [r3]
 431:Api\core\src/vl53l0x_api.c **** 	Status |= VL53L0X_WrByte(Dev, 0x00, 0x00);
 2127              		.loc 1 431 0
 2128 0120 7B68     		ldr	r3, [r7, #4]
 2129 0122 0022     		movs	r2, #0
 2130 0124 0021     		movs	r1, #0
 2131 0126 1800     		movs	r0, r3
 2132 0128 FFF7FEFF 		bl	VL53L0X_WrByte
 2133 012c 0300     		movs	r3, r0
 2134 012e 1900     		movs	r1, r3
ARM GAS  C:\Users\ilya\AppData\Local\Temp\ccpEIuqL.s 			page 46


 2135 0130 5723     		movs	r3, #87
 2136 0132 FB18     		adds	r3, r7, r3
 2137 0134 5722     		movs	r2, #87
 2138 0136 BA18     		adds	r2, r7, r2
 2139 0138 1278     		ldrb	r2, [r2]
 2140 013a 0A43     		orrs	r2, r1
 2141 013c 1A70     		strb	r2, [r3]
 432:Api\core\src/vl53l0x_api.c **** 	Status |= VL53L0X_RdByte(Dev, 0x91, &StopVariable);
 2142              		.loc 1 432 0
 2143 013e 0F23     		movs	r3, #15
 2144 0140 FA18     		adds	r2, r7, r3
 2145 0142 7B68     		ldr	r3, [r7, #4]
 2146 0144 9121     		movs	r1, #145
 2147 0146 1800     		movs	r0, r3
 2148 0148 FFF7FEFF 		bl	VL53L0X_RdByte
 2149 014c 0300     		movs	r3, r0
 2150 014e 1900     		movs	r1, r3
 2151 0150 5723     		movs	r3, #87
 2152 0152 FB18     		adds	r3, r7, r3
 2153 0154 5722     		movs	r2, #87
 2154 0156 BA18     		adds	r2, r7, r2
 2155 0158 1278     		ldrb	r2, [r2]
 2156 015a 0A43     		orrs	r2, r1
 2157 015c 1A70     		strb	r2, [r3]
 433:Api\core\src/vl53l0x_api.c **** 	PALDevDataSet(Dev, StopVariable, StopVariable);
 2158              		.loc 1 433 0
 2159 015e 0F23     		movs	r3, #15
 2160 0160 FB18     		adds	r3, r7, r3
 2161 0162 1978     		ldrb	r1, [r3]
 2162 0164 7A68     		ldr	r2, [r7, #4]
 2163 0166 9D23     		movs	r3, #157
 2164 0168 5B00     		lsls	r3, r3, #1
 2165 016a D154     		strb	r1, [r2, r3]
 434:Api\core\src/vl53l0x_api.c **** 	Status |= VL53L0X_WrByte(Dev, 0x00, 0x01);
 2166              		.loc 1 434 0
 2167 016c 7B68     		ldr	r3, [r7, #4]
 2168 016e 0122     		movs	r2, #1
 2169 0170 0021     		movs	r1, #0
 2170 0172 1800     		movs	r0, r3
 2171 0174 FFF7FEFF 		bl	VL53L0X_WrByte
 2172 0178 0300     		movs	r3, r0
 2173 017a 1900     		movs	r1, r3
 2174 017c 5723     		movs	r3, #87
 2175 017e FB18     		adds	r3, r7, r3
 2176 0180 5722     		movs	r2, #87
 2177 0182 BA18     		adds	r2, r7, r2
 2178 0184 1278     		ldrb	r2, [r2]
 2179 0186 0A43     		orrs	r2, r1
 2180 0188 1A70     		strb	r2, [r3]
 435:Api\core\src/vl53l0x_api.c **** 	Status |= VL53L0X_WrByte(Dev, 0xFF, 0x00);
 2181              		.loc 1 435 0
 2182 018a 7B68     		ldr	r3, [r7, #4]
 2183 018c 0022     		movs	r2, #0
 2184 018e FF21     		movs	r1, #255
 2185 0190 1800     		movs	r0, r3
 2186 0192 FFF7FEFF 		bl	VL53L0X_WrByte
 2187 0196 0300     		movs	r3, r0
ARM GAS  C:\Users\ilya\AppData\Local\Temp\ccpEIuqL.s 			page 47


 2188 0198 1900     		movs	r1, r3
 2189 019a 5723     		movs	r3, #87
 2190 019c FB18     		adds	r3, r7, r3
 2191 019e 5722     		movs	r2, #87
 2192 01a0 BA18     		adds	r2, r7, r2
 2193 01a2 1278     		ldrb	r2, [r2]
 2194 01a4 0A43     		orrs	r2, r1
 2195 01a6 1A70     		strb	r2, [r3]
 436:Api\core\src/vl53l0x_api.c **** 	Status |= VL53L0X_WrByte(Dev, 0x80, 0x00);
 2196              		.loc 1 436 0
 2197 01a8 7B68     		ldr	r3, [r7, #4]
 2198 01aa 0022     		movs	r2, #0
 2199 01ac 8021     		movs	r1, #128
 2200 01ae 1800     		movs	r0, r3
 2201 01b0 FFF7FEFF 		bl	VL53L0X_WrByte
 2202 01b4 0300     		movs	r3, r0
 2203 01b6 1900     		movs	r1, r3
 2204 01b8 5723     		movs	r3, #87
 2205 01ba FB18     		adds	r3, r7, r3
 2206 01bc 5722     		movs	r2, #87
 2207 01be BA18     		adds	r2, r7, r2
 2208 01c0 1278     		ldrb	r2, [r2]
 2209 01c2 0A43     		orrs	r2, r1
 2210 01c4 1A70     		strb	r2, [r3]
 437:Api\core\src/vl53l0x_api.c **** 
 438:Api\core\src/vl53l0x_api.c **** 	/* Enable all check */
 439:Api\core\src/vl53l0x_api.c **** 	for (i = 0; i < VL53L0X_CHECKENABLE_NUMBER_OF_CHECKS; i++) {
 2211              		.loc 1 439 0
 2212 01c6 0023     		movs	r3, #0
 2213 01c8 3B65     		str	r3, [r7, #80]
 2214 01ca 18E0     		b	.L56
 2215              	.L60:
 440:Api\core\src/vl53l0x_api.c **** 		if (Status == VL53L0X_ERROR_NONE)
 2216              		.loc 1 440 0
 2217 01cc 5723     		movs	r3, #87
 2218 01ce FB18     		adds	r3, r7, r3
 2219 01d0 1B78     		ldrb	r3, [r3]
 2220 01d2 5BB2     		sxtb	r3, r3
 2221 01d4 002B     		cmp	r3, #0
 2222 01d6 16D1     		bne	.L72
 441:Api\core\src/vl53l0x_api.c **** 			Status |= VL53L0X_SetLimitCheckEnable(Dev, i, 1);
 2223              		.loc 1 441 0
 2224 01d8 3B6D     		ldr	r3, [r7, #80]
 2225 01da 99B2     		uxth	r1, r3
 2226 01dc 7B68     		ldr	r3, [r7, #4]
 2227 01de 0122     		movs	r2, #1
 2228 01e0 1800     		movs	r0, r3
 2229 01e2 FFF7FEFF 		bl	VL53L0X_SetLimitCheckEnable
 2230 01e6 0300     		movs	r3, r0
 2231 01e8 1900     		movs	r1, r3
 2232 01ea 5723     		movs	r3, #87
 2233 01ec FB18     		adds	r3, r7, r3
 2234 01ee 5722     		movs	r2, #87
 2235 01f0 BA18     		adds	r2, r7, r2
 2236 01f2 1278     		ldrb	r2, [r2]
 2237 01f4 0A43     		orrs	r2, r1
 2238 01f6 1A70     		strb	r2, [r3]
ARM GAS  C:\Users\ilya\AppData\Local\Temp\ccpEIuqL.s 			page 48


 439:Api\core\src/vl53l0x_api.c **** 		if (Status == VL53L0X_ERROR_NONE)
 2239              		.loc 1 439 0
 2240 01f8 3B6D     		ldr	r3, [r7, #80]
 2241 01fa 0133     		adds	r3, r3, #1
 2242 01fc 3B65     		str	r3, [r7, #80]
 2243              	.L56:
 439:Api\core\src/vl53l0x_api.c **** 		if (Status == VL53L0X_ERROR_NONE)
 2244              		.loc 1 439 0 is_stmt 0 discriminator 1
 2245 01fe 3B6D     		ldr	r3, [r7, #80]
 2246 0200 052B     		cmp	r3, #5
 2247 0202 E3DD     		ble	.L60
 2248 0204 00E0     		b	.L59
 2249              	.L72:
 442:Api\core\src/vl53l0x_api.c **** 		else
 443:Api\core\src/vl53l0x_api.c **** 			break;
 2250              		.loc 1 443 0 is_stmt 1
 2251 0206 C046     		nop
 2252              	.L59:
 444:Api\core\src/vl53l0x_api.c **** 
 445:Api\core\src/vl53l0x_api.c **** 	}
 446:Api\core\src/vl53l0x_api.c **** 
 447:Api\core\src/vl53l0x_api.c **** 	/* Disable the following checks */
 448:Api\core\src/vl53l0x_api.c **** 	if (Status == VL53L0X_ERROR_NONE)
 2253              		.loc 1 448 0
 2254 0208 5723     		movs	r3, #87
 2255 020a FB18     		adds	r3, r7, r3
 2256 020c 1B78     		ldrb	r3, [r3]
 2257 020e 5BB2     		sxtb	r3, r3
 2258 0210 002B     		cmp	r3, #0
 2259 0212 09D1     		bne	.L61
 449:Api\core\src/vl53l0x_api.c **** 		Status = VL53L0X_SetLimitCheckEnable(Dev,
 2260              		.loc 1 449 0
 2261 0214 5723     		movs	r3, #87
 2262 0216 FC18     		adds	r4, r7, r3
 2263 0218 7B68     		ldr	r3, [r7, #4]
 2264 021a 0022     		movs	r2, #0
 2265 021c 0221     		movs	r1, #2
 2266 021e 1800     		movs	r0, r3
 2267 0220 FFF7FEFF 		bl	VL53L0X_SetLimitCheckEnable
 2268 0224 0300     		movs	r3, r0
 2269 0226 2370     		strb	r3, [r4]
 2270              	.L61:
 450:Api\core\src/vl53l0x_api.c **** 			VL53L0X_CHECKENABLE_SIGNAL_REF_CLIP, 0);
 451:Api\core\src/vl53l0x_api.c **** 
 452:Api\core\src/vl53l0x_api.c **** 	if (Status == VL53L0X_ERROR_NONE)
 2271              		.loc 1 452 0
 2272 0228 5723     		movs	r3, #87
 2273 022a FB18     		adds	r3, r7, r3
 2274 022c 1B78     		ldrb	r3, [r3]
 2275 022e 5BB2     		sxtb	r3, r3
 2276 0230 002B     		cmp	r3, #0
 2277 0232 09D1     		bne	.L62
 453:Api\core\src/vl53l0x_api.c **** 		Status = VL53L0X_SetLimitCheckEnable(Dev,
 2278              		.loc 1 453 0
 2279 0234 5723     		movs	r3, #87
 2280 0236 FC18     		adds	r4, r7, r3
 2281 0238 7B68     		ldr	r3, [r7, #4]
ARM GAS  C:\Users\ilya\AppData\Local\Temp\ccpEIuqL.s 			page 49


 2282 023a 0022     		movs	r2, #0
 2283 023c 0321     		movs	r1, #3
 2284 023e 1800     		movs	r0, r3
 2285 0240 FFF7FEFF 		bl	VL53L0X_SetLimitCheckEnable
 2286 0244 0300     		movs	r3, r0
 2287 0246 2370     		strb	r3, [r4]
 2288              	.L62:
 454:Api\core\src/vl53l0x_api.c **** 			VL53L0X_CHECKENABLE_RANGE_IGNORE_THRESHOLD, 0);
 455:Api\core\src/vl53l0x_api.c **** 
 456:Api\core\src/vl53l0x_api.c **** 	if (Status == VL53L0X_ERROR_NONE)
 2289              		.loc 1 456 0
 2290 0248 5723     		movs	r3, #87
 2291 024a FB18     		adds	r3, r7, r3
 2292 024c 1B78     		ldrb	r3, [r3]
 2293 024e 5BB2     		sxtb	r3, r3
 2294 0250 002B     		cmp	r3, #0
 2295 0252 09D1     		bne	.L63
 457:Api\core\src/vl53l0x_api.c **** 		Status = VL53L0X_SetLimitCheckEnable(Dev,
 2296              		.loc 1 457 0
 2297 0254 5723     		movs	r3, #87
 2298 0256 FC18     		adds	r4, r7, r3
 2299 0258 7B68     		ldr	r3, [r7, #4]
 2300 025a 0022     		movs	r2, #0
 2301 025c 0421     		movs	r1, #4
 2302 025e 1800     		movs	r0, r3
 2303 0260 FFF7FEFF 		bl	VL53L0X_SetLimitCheckEnable
 2304 0264 0300     		movs	r3, r0
 2305 0266 2370     		strb	r3, [r4]
 2306              	.L63:
 458:Api\core\src/vl53l0x_api.c **** 			VL53L0X_CHECKENABLE_SIGNAL_RATE_MSRC, 0);
 459:Api\core\src/vl53l0x_api.c **** 
 460:Api\core\src/vl53l0x_api.c **** 	if (Status == VL53L0X_ERROR_NONE)
 2307              		.loc 1 460 0
 2308 0268 5723     		movs	r3, #87
 2309 026a FB18     		adds	r3, r7, r3
 2310 026c 1B78     		ldrb	r3, [r3]
 2311 026e 5BB2     		sxtb	r3, r3
 2312 0270 002B     		cmp	r3, #0
 2313 0272 09D1     		bne	.L64
 461:Api\core\src/vl53l0x_api.c **** 		Status = VL53L0X_SetLimitCheckEnable(Dev,
 2314              		.loc 1 461 0
 2315 0274 5723     		movs	r3, #87
 2316 0276 FC18     		adds	r4, r7, r3
 2317 0278 7B68     		ldr	r3, [r7, #4]
 2318 027a 0022     		movs	r2, #0
 2319 027c 0521     		movs	r1, #5
 2320 027e 1800     		movs	r0, r3
 2321 0280 FFF7FEFF 		bl	VL53L0X_SetLimitCheckEnable
 2322 0284 0300     		movs	r3, r0
 2323 0286 2370     		strb	r3, [r4]
 2324              	.L64:
 462:Api\core\src/vl53l0x_api.c **** 			VL53L0X_CHECKENABLE_SIGNAL_RATE_PRE_RANGE, 0);
 463:Api\core\src/vl53l0x_api.c **** 
 464:Api\core\src/vl53l0x_api.c **** 	/* Limit default values */
 465:Api\core\src/vl53l0x_api.c **** 	if (Status == VL53L0X_ERROR_NONE) {
 2325              		.loc 1 465 0
 2326 0288 5723     		movs	r3, #87
ARM GAS  C:\Users\ilya\AppData\Local\Temp\ccpEIuqL.s 			page 50


 2327 028a FB18     		adds	r3, r7, r3
 2328 028c 1B78     		ldrb	r3, [r3]
 2329 028e 5BB2     		sxtb	r3, r3
 2330 0290 002B     		cmp	r3, #0
 2331 0292 0AD1     		bne	.L65
 466:Api\core\src/vl53l0x_api.c **** 		Status = VL53L0X_SetLimitCheckValue(Dev,
 2332              		.loc 1 466 0
 2333 0294 5723     		movs	r3, #87
 2334 0296 FC18     		adds	r4, r7, r3
 2335 0298 9023     		movs	r3, #144
 2336 029a 5A03     		lsls	r2, r3, #13
 2337 029c 7B68     		ldr	r3, [r7, #4]
 2338 029e 0021     		movs	r1, #0
 2339 02a0 1800     		movs	r0, r3
 2340 02a2 FFF7FEFF 		bl	VL53L0X_SetLimitCheckValue
 2341 02a6 0300     		movs	r3, r0
 2342 02a8 2370     		strb	r3, [r4]
 2343              	.L65:
 467:Api\core\src/vl53l0x_api.c **** 			VL53L0X_CHECKENABLE_SIGMA_FINAL_RANGE,
 468:Api\core\src/vl53l0x_api.c **** 				(FixPoint1616_t)(18 * 65536));
 469:Api\core\src/vl53l0x_api.c **** 	}
 470:Api\core\src/vl53l0x_api.c **** 	if (Status == VL53L0X_ERROR_NONE) {
 2344              		.loc 1 470 0
 2345 02aa 5723     		movs	r3, #87
 2346 02ac FB18     		adds	r3, r7, r3
 2347 02ae 1B78     		ldrb	r3, [r3]
 2348 02b0 5BB2     		sxtb	r3, r3
 2349 02b2 002B     		cmp	r3, #0
 2350 02b4 0AD1     		bne	.L66
 471:Api\core\src/vl53l0x_api.c **** 		Status = VL53L0X_SetLimitCheckValue(Dev,
 2351              		.loc 1 471 0
 2352 02b6 5723     		movs	r3, #87
 2353 02b8 FC18     		adds	r4, r7, r3
 2354 02ba 8023     		movs	r3, #128
 2355 02bc DA01     		lsls	r2, r3, #7
 2356 02be 7B68     		ldr	r3, [r7, #4]
 2357 02c0 0121     		movs	r1, #1
 2358 02c2 1800     		movs	r0, r3
 2359 02c4 FFF7FEFF 		bl	VL53L0X_SetLimitCheckValue
 2360 02c8 0300     		movs	r3, r0
 2361 02ca 2370     		strb	r3, [r4]
 2362              	.L66:
 472:Api\core\src/vl53l0x_api.c **** 			VL53L0X_CHECKENABLE_SIGNAL_RATE_FINAL_RANGE,
 473:Api\core\src/vl53l0x_api.c **** 				(FixPoint1616_t)(25 * 65536 / 100));
 474:Api\core\src/vl53l0x_api.c **** 				/* 0.25 * 65536 */
 475:Api\core\src/vl53l0x_api.c **** 	}
 476:Api\core\src/vl53l0x_api.c **** 
 477:Api\core\src/vl53l0x_api.c **** 	if (Status == VL53L0X_ERROR_NONE) {
 2363              		.loc 1 477 0
 2364 02cc 5723     		movs	r3, #87
 2365 02ce FB18     		adds	r3, r7, r3
 2366 02d0 1B78     		ldrb	r3, [r3]
 2367 02d2 5BB2     		sxtb	r3, r3
 2368 02d4 002B     		cmp	r3, #0
 2369 02d6 0AD1     		bne	.L67
 478:Api\core\src/vl53l0x_api.c **** 		Status = VL53L0X_SetLimitCheckValue(Dev,
 2370              		.loc 1 478 0
ARM GAS  C:\Users\ilya\AppData\Local\Temp\ccpEIuqL.s 			page 51


 2371 02d8 5723     		movs	r3, #87
 2372 02da FC18     		adds	r4, r7, r3
 2373 02dc 8C23     		movs	r3, #140
 2374 02de 9A03     		lsls	r2, r3, #14
 2375 02e0 7B68     		ldr	r3, [r7, #4]
 2376 02e2 0221     		movs	r1, #2
 2377 02e4 1800     		movs	r0, r3
 2378 02e6 FFF7FEFF 		bl	VL53L0X_SetLimitCheckValue
 2379 02ea 0300     		movs	r3, r0
 2380 02ec 2370     		strb	r3, [r4]
 2381              	.L67:
 479:Api\core\src/vl53l0x_api.c **** 			VL53L0X_CHECKENABLE_SIGNAL_REF_CLIP,
 480:Api\core\src/vl53l0x_api.c **** 				(FixPoint1616_t)(35 * 65536));
 481:Api\core\src/vl53l0x_api.c **** 	}
 482:Api\core\src/vl53l0x_api.c **** 
 483:Api\core\src/vl53l0x_api.c **** 	if (Status == VL53L0X_ERROR_NONE) {
 2382              		.loc 1 483 0
 2383 02ee 5723     		movs	r3, #87
 2384 02f0 FB18     		adds	r3, r7, r3
 2385 02f2 1B78     		ldrb	r3, [r3]
 2386 02f4 5BB2     		sxtb	r3, r3
 2387 02f6 002B     		cmp	r3, #0
 2388 02f8 09D1     		bne	.L68
 484:Api\core\src/vl53l0x_api.c **** 		Status = VL53L0X_SetLimitCheckValue(Dev,
 2389              		.loc 1 484 0
 2390 02fa 5723     		movs	r3, #87
 2391 02fc FC18     		adds	r4, r7, r3
 2392 02fe 7B68     		ldr	r3, [r7, #4]
 2393 0300 0022     		movs	r2, #0
 2394 0302 0321     		movs	r1, #3
 2395 0304 1800     		movs	r0, r3
 2396 0306 FFF7FEFF 		bl	VL53L0X_SetLimitCheckValue
 2397 030a 0300     		movs	r3, r0
 2398 030c 2370     		strb	r3, [r4]
 2399              	.L68:
 485:Api\core\src/vl53l0x_api.c **** 			VL53L0X_CHECKENABLE_RANGE_IGNORE_THRESHOLD,
 486:Api\core\src/vl53l0x_api.c **** 				(FixPoint1616_t)(0 * 65536));
 487:Api\core\src/vl53l0x_api.c **** 	}
 488:Api\core\src/vl53l0x_api.c **** 
 489:Api\core\src/vl53l0x_api.c **** 	if (Status == VL53L0X_ERROR_NONE) {
 2400              		.loc 1 489 0
 2401 030e 5723     		movs	r3, #87
 2402 0310 FB18     		adds	r3, r7, r3
 2403 0312 1B78     		ldrb	r3, [r3]
 2404 0314 5BB2     		sxtb	r3, r3
 2405 0316 002B     		cmp	r3, #0
 2406 0318 13D1     		bne	.L69
 490:Api\core\src/vl53l0x_api.c **** 
 491:Api\core\src/vl53l0x_api.c **** 		PALDevDataSet(Dev, SequenceConfig, 0xFF);
 2407              		.loc 1 491 0
 2408 031a 7A68     		ldr	r2, [r7, #4]
 2409 031c 9823     		movs	r3, #152
 2410 031e 5B00     		lsls	r3, r3, #1
 2411 0320 FF21     		movs	r1, #255
 2412 0322 D154     		strb	r1, [r2, r3]
 492:Api\core\src/vl53l0x_api.c **** 		Status = VL53L0X_WrByte(Dev, VL53L0X_REG_SYSTEM_SEQUENCE_CONFIG,
 2413              		.loc 1 492 0
ARM GAS  C:\Users\ilya\AppData\Local\Temp\ccpEIuqL.s 			page 52


 2414 0324 5723     		movs	r3, #87
 2415 0326 FC18     		adds	r4, r7, r3
 2416 0328 7B68     		ldr	r3, [r7, #4]
 2417 032a FF22     		movs	r2, #255
 2418 032c 0121     		movs	r1, #1
 2419 032e 1800     		movs	r0, r3
 2420 0330 FFF7FEFF 		bl	VL53L0X_WrByte
 2421 0334 0300     		movs	r3, r0
 2422 0336 2370     		strb	r3, [r4]
 493:Api\core\src/vl53l0x_api.c **** 			0xFF);
 494:Api\core\src/vl53l0x_api.c **** 
 495:Api\core\src/vl53l0x_api.c **** 		/* Set PAL state to tell that we are waiting for call to
 496:Api\core\src/vl53l0x_api.c **** 		 * VL53L0X_StaticInit */
 497:Api\core\src/vl53l0x_api.c **** 		PALDevDataSet(Dev, PalState, VL53L0X_STATE_WAIT_STATICINIT);
 2423              		.loc 1 497 0
 2424 0338 7A68     		ldr	r2, [r7, #4]
 2425 033a 9923     		movs	r3, #153
 2426 033c 5B00     		lsls	r3, r3, #1
 2427 033e 0121     		movs	r1, #1
 2428 0340 D154     		strb	r1, [r2, r3]
 2429              	.L69:
 498:Api\core\src/vl53l0x_api.c **** 	}
 499:Api\core\src/vl53l0x_api.c **** 
 500:Api\core\src/vl53l0x_api.c **** 	if (Status == VL53L0X_ERROR_NONE)
 2430              		.loc 1 500 0
 2431 0342 5723     		movs	r3, #87
 2432 0344 FB18     		adds	r3, r7, r3
 2433 0346 1B78     		ldrb	r3, [r3]
 2434 0348 5BB2     		sxtb	r3, r3
 2435 034a 002B     		cmp	r3, #0
 2436 034c 04D1     		bne	.L70
 501:Api\core\src/vl53l0x_api.c **** 		VL53L0X_SETDEVICESPECIFICPARAMETER(Dev, RefSpadsInitialised, 0);
 2437              		.loc 1 501 0
 2438 034e 7A68     		ldr	r2, [r7, #4]
 2439 0350 1623     		movs	r3, #22
 2440 0352 FF33     		adds	r3, r3, #255
 2441 0354 0021     		movs	r1, #0
 2442 0356 D154     		strb	r1, [r2, r3]
 2443              	.L70:
 502:Api\core\src/vl53l0x_api.c **** 
 503:Api\core\src/vl53l0x_api.c **** 
 504:Api\core\src/vl53l0x_api.c **** 	LOG_FUNCTION_END(Status);
 505:Api\core\src/vl53l0x_api.c **** 	return Status;
 2444              		.loc 1 505 0
 2445 0358 5723     		movs	r3, #87
 2446 035a FB18     		adds	r3, r7, r3
 2447 035c 1B78     		ldrb	r3, [r3]
 2448 035e 5BB2     		sxtb	r3, r3
 506:Api\core\src/vl53l0x_api.c **** }
 2449              		.loc 1 506 0
 2450 0360 1800     		movs	r0, r3
 2451 0362 BD46     		mov	sp, r7
 2452 0364 17B0     		add	sp, sp, #92
 2453              		@ sp needed
 2454 0366 90BD     		pop	{r4, r7, pc}
 2455              	.L74:
 2456              		.align	2
ARM GAS  C:\Users\ilya\AppData\Local\Temp\ccpEIuqL.s 			page 53


 2457              	.L73:
 2458 0368 856B0100 		.word	93061
 2459 036c A4700900 		.word	618660
 2460              		.cfi_endproc
 2461              	.LFE21:
 2462              		.size	VL53L0X_DataInit, .-VL53L0X_DataInit
 2463              		.section	.text.VL53L0X_SetTuningSettingBuffer,"ax",%progbits
 2464              		.align	2
 2465              		.global	VL53L0X_SetTuningSettingBuffer
 2466              		.code	16
 2467              		.thumb_func
 2468              		.type	VL53L0X_SetTuningSettingBuffer, %function
 2469              	VL53L0X_SetTuningSettingBuffer:
 2470              	.LFB22:
 507:Api\core\src/vl53l0x_api.c **** 
 508:Api\core\src/vl53l0x_api.c **** VL53L0X_Error VL53L0X_SetTuningSettingBuffer(VL53L0X_DEV Dev,
 509:Api\core\src/vl53l0x_api.c **** 	uint8_t *pTuningSettingBuffer, uint8_t UseInternalTuningSettings)
 510:Api\core\src/vl53l0x_api.c **** {
 2471              		.loc 1 510 0
 2472              		.cfi_startproc
 2473              		@ args = 0, pretend = 0, frame = 24
 2474              		@ frame_needed = 1, uses_anonymous_args = 0
 2475 0000 80B5     		push	{r7, lr}
 2476              		.cfi_def_cfa_offset 8
 2477              		.cfi_offset 7, -8
 2478              		.cfi_offset 14, -4
 2479 0002 86B0     		sub	sp, sp, #24
 2480              		.cfi_def_cfa_offset 32
 2481 0004 00AF     		add	r7, sp, #0
 2482              		.cfi_def_cfa_register 7
 2483 0006 F860     		str	r0, [r7, #12]
 2484 0008 B960     		str	r1, [r7, #8]
 2485 000a FB1D     		adds	r3, r7, #7
 2486 000c 1A70     		strb	r2, [r3]
 511:Api\core\src/vl53l0x_api.c **** 	VL53L0X_Error Status = VL53L0X_ERROR_NONE;
 2487              		.loc 1 511 0
 2488 000e 1723     		movs	r3, #23
 2489 0010 FB18     		adds	r3, r7, r3
 2490 0012 0022     		movs	r2, #0
 2491 0014 1A70     		strb	r2, [r3]
 512:Api\core\src/vl53l0x_api.c **** 
 513:Api\core\src/vl53l0x_api.c **** 	LOG_FUNCTION_START("");
 514:Api\core\src/vl53l0x_api.c **** 
 515:Api\core\src/vl53l0x_api.c **** 	if (UseInternalTuningSettings == 1) {
 2492              		.loc 1 515 0
 2493 0016 FB1D     		adds	r3, r7, #7
 2494 0018 1B78     		ldrb	r3, [r3]
 2495 001a 012B     		cmp	r3, #1
 2496 001c 05D1     		bne	.L76
 516:Api\core\src/vl53l0x_api.c **** 		/* Force use internal settings */
 517:Api\core\src/vl53l0x_api.c **** 		PALDevDataSet(Dev, UseInternalTuningSettings, 1);
 2497              		.loc 1 517 0
 2498 001e FA68     		ldr	r2, [r7, #12]
 2499 0020 A823     		movs	r3, #168
 2500 0022 5B00     		lsls	r3, r3, #1
 2501 0024 0121     		movs	r1, #1
 2502 0026 D154     		strb	r1, [r2, r3]
ARM GAS  C:\Users\ilya\AppData\Local\Temp\ccpEIuqL.s 			page 54


 2503 0028 12E0     		b	.L77
 2504              	.L76:
 518:Api\core\src/vl53l0x_api.c **** 	} else {
 519:Api\core\src/vl53l0x_api.c **** 
 520:Api\core\src/vl53l0x_api.c **** 		/* check that the first byte is not 0 */
 521:Api\core\src/vl53l0x_api.c **** 		if (*pTuningSettingBuffer != 0) {
 2505              		.loc 1 521 0
 2506 002a BB68     		ldr	r3, [r7, #8]
 2507 002c 1B78     		ldrb	r3, [r3]
 2508 002e 002B     		cmp	r3, #0
 2509 0030 0AD0     		beq	.L78
 522:Api\core\src/vl53l0x_api.c **** 			PALDevDataSet(Dev, pTuningSettingsPointer,
 2510              		.loc 1 522 0
 2511 0032 FA68     		ldr	r2, [r7, #12]
 2512 0034 A623     		movs	r3, #166
 2513 0036 5B00     		lsls	r3, r3, #1
 2514 0038 B968     		ldr	r1, [r7, #8]
 2515 003a D150     		str	r1, [r2, r3]
 523:Api\core\src/vl53l0x_api.c **** 				pTuningSettingBuffer);
 524:Api\core\src/vl53l0x_api.c **** 			PALDevDataSet(Dev, UseInternalTuningSettings, 0);
 2516              		.loc 1 524 0
 2517 003c FA68     		ldr	r2, [r7, #12]
 2518 003e A823     		movs	r3, #168
 2519 0040 5B00     		lsls	r3, r3, #1
 2520 0042 0021     		movs	r1, #0
 2521 0044 D154     		strb	r1, [r2, r3]
 2522 0046 03E0     		b	.L77
 2523              	.L78:
 525:Api\core\src/vl53l0x_api.c **** 
 526:Api\core\src/vl53l0x_api.c **** 		} else {
 527:Api\core\src/vl53l0x_api.c **** 			Status = VL53L0X_ERROR_INVALID_PARAMS;
 2524              		.loc 1 527 0
 2525 0048 1723     		movs	r3, #23
 2526 004a FB18     		adds	r3, r7, r3
 2527 004c FC22     		movs	r2, #252
 2528 004e 1A70     		strb	r2, [r3]
 2529              	.L77:
 528:Api\core\src/vl53l0x_api.c **** 		}
 529:Api\core\src/vl53l0x_api.c **** 	}
 530:Api\core\src/vl53l0x_api.c **** 
 531:Api\core\src/vl53l0x_api.c **** 	LOG_FUNCTION_END(Status);
 532:Api\core\src/vl53l0x_api.c **** 	return Status;
 2530              		.loc 1 532 0
 2531 0050 1723     		movs	r3, #23
 2532 0052 FB18     		adds	r3, r7, r3
 2533 0054 1B78     		ldrb	r3, [r3]
 2534 0056 5BB2     		sxtb	r3, r3
 533:Api\core\src/vl53l0x_api.c **** }
 2535              		.loc 1 533 0
 2536 0058 1800     		movs	r0, r3
 2537 005a BD46     		mov	sp, r7
 2538 005c 06B0     		add	sp, sp, #24
 2539              		@ sp needed
 2540 005e 80BD     		pop	{r7, pc}
 2541              		.cfi_endproc
 2542              	.LFE22:
 2543              		.size	VL53L0X_SetTuningSettingBuffer, .-VL53L0X_SetTuningSettingBuffer
ARM GAS  C:\Users\ilya\AppData\Local\Temp\ccpEIuqL.s 			page 55


 2544              		.section	.text.VL53L0X_GetTuningSettingBuffer,"ax",%progbits
 2545              		.align	2
 2546              		.global	VL53L0X_GetTuningSettingBuffer
 2547              		.code	16
 2548              		.thumb_func
 2549              		.type	VL53L0X_GetTuningSettingBuffer, %function
 2550              	VL53L0X_GetTuningSettingBuffer:
 2551              	.LFB23:
 534:Api\core\src/vl53l0x_api.c **** 
 535:Api\core\src/vl53l0x_api.c **** VL53L0X_Error VL53L0X_GetTuningSettingBuffer(VL53L0X_DEV Dev,
 536:Api\core\src/vl53l0x_api.c **** 	uint8_t **ppTuningSettingBuffer, uint8_t *pUseInternalTuningSettings)
 537:Api\core\src/vl53l0x_api.c **** {
 2552              		.loc 1 537 0
 2553              		.cfi_startproc
 2554              		@ args = 0, pretend = 0, frame = 24
 2555              		@ frame_needed = 1, uses_anonymous_args = 0
 2556 0000 80B5     		push	{r7, lr}
 2557              		.cfi_def_cfa_offset 8
 2558              		.cfi_offset 7, -8
 2559              		.cfi_offset 14, -4
 2560 0002 86B0     		sub	sp, sp, #24
 2561              		.cfi_def_cfa_offset 32
 2562 0004 00AF     		add	r7, sp, #0
 2563              		.cfi_def_cfa_register 7
 2564 0006 F860     		str	r0, [r7, #12]
 2565 0008 B960     		str	r1, [r7, #8]
 2566 000a 7A60     		str	r2, [r7, #4]
 538:Api\core\src/vl53l0x_api.c **** 	VL53L0X_Error Status = VL53L0X_ERROR_NONE;
 2567              		.loc 1 538 0
 2568 000c 1723     		movs	r3, #23
 2569 000e FB18     		adds	r3, r7, r3
 2570 0010 0022     		movs	r2, #0
 2571 0012 1A70     		strb	r2, [r3]
 539:Api\core\src/vl53l0x_api.c **** 
 540:Api\core\src/vl53l0x_api.c **** 	LOG_FUNCTION_START("");
 541:Api\core\src/vl53l0x_api.c **** 
 542:Api\core\src/vl53l0x_api.c **** 	*ppTuningSettingBuffer = PALDevDataGet(Dev, pTuningSettingsPointer);
 2572              		.loc 1 542 0
 2573 0014 FA68     		ldr	r2, [r7, #12]
 2574 0016 A623     		movs	r3, #166
 2575 0018 5B00     		lsls	r3, r3, #1
 2576 001a D258     		ldr	r2, [r2, r3]
 2577 001c BB68     		ldr	r3, [r7, #8]
 2578 001e 1A60     		str	r2, [r3]
 543:Api\core\src/vl53l0x_api.c **** 	*pUseInternalTuningSettings = PALDevDataGet(Dev,
 2579              		.loc 1 543 0
 2580 0020 FA68     		ldr	r2, [r7, #12]
 2581 0022 A823     		movs	r3, #168
 2582 0024 5B00     		lsls	r3, r3, #1
 2583 0026 D25C     		ldrb	r2, [r2, r3]
 2584 0028 7B68     		ldr	r3, [r7, #4]
 2585 002a 1A70     		strb	r2, [r3]
 544:Api\core\src/vl53l0x_api.c **** 		UseInternalTuningSettings);
 545:Api\core\src/vl53l0x_api.c **** 
 546:Api\core\src/vl53l0x_api.c **** 	LOG_FUNCTION_END(Status);
 547:Api\core\src/vl53l0x_api.c **** 	return Status;
 2586              		.loc 1 547 0
ARM GAS  C:\Users\ilya\AppData\Local\Temp\ccpEIuqL.s 			page 56


 2587 002c 1723     		movs	r3, #23
 2588 002e FB18     		adds	r3, r7, r3
 2589 0030 1B78     		ldrb	r3, [r3]
 2590 0032 5BB2     		sxtb	r3, r3
 548:Api\core\src/vl53l0x_api.c **** }
 2591              		.loc 1 548 0
 2592 0034 1800     		movs	r0, r3
 2593 0036 BD46     		mov	sp, r7
 2594 0038 06B0     		add	sp, sp, #24
 2595              		@ sp needed
 2596 003a 80BD     		pop	{r7, pc}
 2597              		.cfi_endproc
 2598              	.LFE23:
 2599              		.size	VL53L0X_GetTuningSettingBuffer, .-VL53L0X_GetTuningSettingBuffer
 2600              		.section	.text.VL53L0X_StaticInit,"ax",%progbits
 2601              		.align	2
 2602              		.global	VL53L0X_StaticInit
 2603              		.code	16
 2604              		.thumb_func
 2605              		.type	VL53L0X_StaticInit, %function
 2606              	VL53L0X_StaticInit:
 2607              	.LFB24:
 549:Api\core\src/vl53l0x_api.c **** 
 550:Api\core\src/vl53l0x_api.c **** VL53L0X_Error VL53L0X_StaticInit(VL53L0X_DEV Dev)
 551:Api\core\src/vl53l0x_api.c **** {
 2608              		.loc 1 551 0
 2609              		.cfi_startproc
 2610              		@ args = 0, pretend = 0, frame = 112
 2611              		@ frame_needed = 1, uses_anonymous_args = 0
 2612 0000 90B5     		push	{r4, r7, lr}
 2613              		.cfi_def_cfa_offset 12
 2614              		.cfi_offset 4, -12
 2615              		.cfi_offset 7, -8
 2616              		.cfi_offset 14, -4
 2617 0002 9FB0     		sub	sp, sp, #124
 2618              		.cfi_def_cfa_offset 136
 2619 0004 02AF     		add	r7, sp, #8
 2620              		.cfi_def_cfa 7, 128
 2621 0006 7860     		str	r0, [r7, #4]
 552:Api\core\src/vl53l0x_api.c **** 	VL53L0X_Error Status = VL53L0X_ERROR_NONE;
 2622              		.loc 1 552 0
 2623 0008 6F23     		movs	r3, #111
 2624 000a FB18     		adds	r3, r7, r3
 2625 000c 0022     		movs	r2, #0
 2626 000e 1A70     		strb	r2, [r3]
 553:Api\core\src/vl53l0x_api.c **** 	VL53L0X_DeviceParameters_t CurrentParameters = {0};
 2627              		.loc 1 553 0
 2628 0010 1C23     		movs	r3, #28
 2629 0012 FB18     		adds	r3, r7, r3
 2630 0014 1800     		movs	r0, r3
 2631 0016 4023     		movs	r3, #64
 2632 0018 1A00     		movs	r2, r3
 2633 001a 0021     		movs	r1, #0
 2634 001c FFF7FEFF 		bl	memset
 554:Api\core\src/vl53l0x_api.c **** 	uint8_t *pTuningSettingBuffer;
 555:Api\core\src/vl53l0x_api.c **** 	uint16_t tempword = 0;
 2635              		.loc 1 555 0
ARM GAS  C:\Users\ilya\AppData\Local\Temp\ccpEIuqL.s 			page 57


 2636 0020 1A23     		movs	r3, #26
 2637 0022 FB18     		adds	r3, r7, r3
 2638 0024 0022     		movs	r2, #0
 2639 0026 1A80     		strh	r2, [r3]
 556:Api\core\src/vl53l0x_api.c **** 	uint8_t tempbyte = 0;
 2640              		.loc 1 556 0
 2641 0028 1923     		movs	r3, #25
 2642 002a FB18     		adds	r3, r7, r3
 2643 002c 0022     		movs	r2, #0
 2644 002e 1A70     		strb	r2, [r3]
 557:Api\core\src/vl53l0x_api.c **** 	uint8_t UseInternalTuningSettings = 0;
 2645              		.loc 1 557 0
 2646 0030 6723     		movs	r3, #103
 2647 0032 FB18     		adds	r3, r7, r3
 2648 0034 0022     		movs	r2, #0
 2649 0036 1A70     		strb	r2, [r3]
 558:Api\core\src/vl53l0x_api.c **** 	uint32_t count = 0;
 2650              		.loc 1 558 0
 2651 0038 0023     		movs	r3, #0
 2652 003a 3B66     		str	r3, [r7, #96]
 559:Api\core\src/vl53l0x_api.c **** 	uint8_t isApertureSpads = 0;
 2653              		.loc 1 559 0
 2654 003c 1823     		movs	r3, #24
 2655 003e FB18     		adds	r3, r7, r3
 2656 0040 0022     		movs	r2, #0
 2657 0042 1A70     		strb	r2, [r3]
 560:Api\core\src/vl53l0x_api.c **** 	uint32_t refSpadCount = 0;
 2658              		.loc 1 560 0
 2659 0044 0023     		movs	r3, #0
 2660 0046 7B61     		str	r3, [r7, #20]
 561:Api\core\src/vl53l0x_api.c **** 	uint8_t ApertureSpads = 0;
 2661              		.loc 1 561 0
 2662 0048 5F23     		movs	r3, #95
 2663 004a FB18     		adds	r3, r7, r3
 2664 004c 0022     		movs	r2, #0
 2665 004e 1A70     		strb	r2, [r3]
 562:Api\core\src/vl53l0x_api.c **** 	uint8_t vcselPulsePeriodPCLK;
 563:Api\core\src/vl53l0x_api.c **** 	uint32_t seqTimeoutMicroSecs;
 564:Api\core\src/vl53l0x_api.c **** 
 565:Api\core\src/vl53l0x_api.c **** 	LOG_FUNCTION_START("");
 566:Api\core\src/vl53l0x_api.c **** 
 567:Api\core\src/vl53l0x_api.c **** 	Status = VL53L0X_get_info_from_device(Dev, 1);
 2666              		.loc 1 567 0
 2667 0050 6F23     		movs	r3, #111
 2668 0052 FC18     		adds	r4, r7, r3
 2669 0054 7B68     		ldr	r3, [r7, #4]
 2670 0056 0121     		movs	r1, #1
 2671 0058 1800     		movs	r0, r3
 2672 005a FFF7FEFF 		bl	VL53L0X_get_info_from_device
 2673 005e 0300     		movs	r3, r0
 2674 0060 2370     		strb	r3, [r4]
 568:Api\core\src/vl53l0x_api.c **** 
 569:Api\core\src/vl53l0x_api.c **** 	/* set the ref spad from NVM */
 570:Api\core\src/vl53l0x_api.c **** 	count	= (uint32_t)VL53L0X_GETDEVICESPECIFICPARAMETER(Dev,
 2675              		.loc 1 570 0
 2676 0062 7A68     		ldr	r2, [r7, #4]
 2677 0064 1423     		movs	r3, #20
ARM GAS  C:\Users\ilya\AppData\Local\Temp\ccpEIuqL.s 			page 58


 2678 0066 FF33     		adds	r3, r3, #255
 2679 0068 D35C     		ldrb	r3, [r2, r3]
 2680 006a 3B66     		str	r3, [r7, #96]
 571:Api\core\src/vl53l0x_api.c **** 		ReferenceSpadCount);
 572:Api\core\src/vl53l0x_api.c **** 	ApertureSpads = VL53L0X_GETDEVICESPECIFICPARAMETER(Dev,
 2681              		.loc 1 572 0
 2682 006c 5F23     		movs	r3, #95
 2683 006e FB18     		adds	r3, r7, r3
 2684 0070 7968     		ldr	r1, [r7, #4]
 2685 0072 8A22     		movs	r2, #138
 2686 0074 5200     		lsls	r2, r2, #1
 2687 0076 8A5C     		ldrb	r2, [r1, r2]
 2688 0078 1A70     		strb	r2, [r3]
 573:Api\core\src/vl53l0x_api.c **** 		ReferenceSpadType);
 574:Api\core\src/vl53l0x_api.c **** 
 575:Api\core\src/vl53l0x_api.c **** 	/* NVM value invalid */
 576:Api\core\src/vl53l0x_api.c **** 	if ((ApertureSpads > 1) ||
 2689              		.loc 1 576 0
 2690 007a 5F23     		movs	r3, #95
 2691 007c FB18     		adds	r3, r7, r3
 2692 007e 1B78     		ldrb	r3, [r3]
 2693 0080 012B     		cmp	r3, #1
 2694 0082 0FD8     		bhi	.L83
 2695              		.loc 1 576 0 is_stmt 0 discriminator 1
 2696 0084 5F23     		movs	r3, #95
 2697 0086 FB18     		adds	r3, r7, r3
 2698 0088 1B78     		ldrb	r3, [r3]
 2699 008a 012B     		cmp	r3, #1
 2700 008c 02D1     		bne	.L84
 577:Api\core\src/vl53l0x_api.c **** 		((ApertureSpads == 1) && (count > 32)) ||
 2701              		.loc 1 577 0 is_stmt 1
 2702 008e 3B6E     		ldr	r3, [r7, #96]
 2703 0090 202B     		cmp	r3, #32
 2704 0092 07D8     		bhi	.L83
 2705              	.L84:
 2706              		.loc 1 577 0 is_stmt 0 discriminator 1
 2707 0094 5F23     		movs	r3, #95
 2708 0096 FB18     		adds	r3, r7, r3
 2709 0098 1B78     		ldrb	r3, [r3]
 2710 009a 002B     		cmp	r3, #0
 2711 009c 0FD1     		bne	.L85
 578:Api\core\src/vl53l0x_api.c **** 		((ApertureSpads == 0) && (count > 12)))
 2712              		.loc 1 578 0 is_stmt 1
 2713 009e 3B6E     		ldr	r3, [r7, #96]
 2714 00a0 0C2B     		cmp	r3, #12
 2715 00a2 0CD9     		bls	.L85
 2716              	.L83:
 579:Api\core\src/vl53l0x_api.c **** 		Status = VL53L0X_perform_ref_spad_management(Dev, &refSpadCount,
 2717              		.loc 1 579 0
 2718 00a4 6F23     		movs	r3, #111
 2719 00a6 FC18     		adds	r4, r7, r3
 2720 00a8 1823     		movs	r3, #24
 2721 00aa FA18     		adds	r2, r7, r3
 2722 00ac 1423     		movs	r3, #20
 2723 00ae F918     		adds	r1, r7, r3
 2724 00b0 7B68     		ldr	r3, [r7, #4]
 2725 00b2 1800     		movs	r0, r3
ARM GAS  C:\Users\ilya\AppData\Local\Temp\ccpEIuqL.s 			page 59


 2726 00b4 FFF7FEFF 		bl	VL53L0X_perform_ref_spad_management
 2727 00b8 0300     		movs	r3, r0
 2728 00ba 2370     		strb	r3, [r4]
 2729 00bc 0BE0     		b	.L86
 2730              	.L85:
 580:Api\core\src/vl53l0x_api.c **** 			&isApertureSpads);
 581:Api\core\src/vl53l0x_api.c **** 	else
 582:Api\core\src/vl53l0x_api.c **** 		Status = VL53L0X_set_reference_spads(Dev, count, ApertureSpads);
 2731              		.loc 1 582 0
 2732 00be 6F23     		movs	r3, #111
 2733 00c0 FC18     		adds	r4, r7, r3
 2734 00c2 5F23     		movs	r3, #95
 2735 00c4 FB18     		adds	r3, r7, r3
 2736 00c6 1A78     		ldrb	r2, [r3]
 2737 00c8 396E     		ldr	r1, [r7, #96]
 2738 00ca 7B68     		ldr	r3, [r7, #4]
 2739 00cc 1800     		movs	r0, r3
 2740 00ce FFF7FEFF 		bl	VL53L0X_set_reference_spads
 2741 00d2 0300     		movs	r3, r0
 2742 00d4 2370     		strb	r3, [r4]
 2743              	.L86:
 583:Api\core\src/vl53l0x_api.c **** 
 584:Api\core\src/vl53l0x_api.c **** 
 585:Api\core\src/vl53l0x_api.c **** 	/* Initialize tuning settings buffer to prevent compiler warning. */
 586:Api\core\src/vl53l0x_api.c **** 	pTuningSettingBuffer = DefaultTuningSettings;
 2744              		.loc 1 586 0
 2745 00d6 BD4B     		ldr	r3, .L109
 2746 00d8 BB66     		str	r3, [r7, #104]
 587:Api\core\src/vl53l0x_api.c **** 
 588:Api\core\src/vl53l0x_api.c **** 	if (Status == VL53L0X_ERROR_NONE) {
 2747              		.loc 1 588 0
 2748 00da 6F23     		movs	r3, #111
 2749 00dc FB18     		adds	r3, r7, r3
 2750 00de 1B78     		ldrb	r3, [r3]
 2751 00e0 5BB2     		sxtb	r3, r3
 2752 00e2 002B     		cmp	r3, #0
 2753 00e4 13D1     		bne	.L87
 589:Api\core\src/vl53l0x_api.c **** 		UseInternalTuningSettings = PALDevDataGet(Dev,
 2754              		.loc 1 589 0
 2755 00e6 6723     		movs	r3, #103
 2756 00e8 FB18     		adds	r3, r7, r3
 2757 00ea 7968     		ldr	r1, [r7, #4]
 2758 00ec A822     		movs	r2, #168
 2759 00ee 5200     		lsls	r2, r2, #1
 2760 00f0 8A5C     		ldrb	r2, [r1, r2]
 2761 00f2 1A70     		strb	r2, [r3]
 590:Api\core\src/vl53l0x_api.c **** 			UseInternalTuningSettings);
 591:Api\core\src/vl53l0x_api.c **** 
 592:Api\core\src/vl53l0x_api.c **** 		if (UseInternalTuningSettings == 0)
 2762              		.loc 1 592 0
 2763 00f4 6723     		movs	r3, #103
 2764 00f6 FB18     		adds	r3, r7, r3
 2765 00f8 1B78     		ldrb	r3, [r3]
 2766 00fa 002B     		cmp	r3, #0
 2767 00fc 05D1     		bne	.L88
 593:Api\core\src/vl53l0x_api.c **** 			pTuningSettingBuffer = PALDevDataGet(Dev,
 2768              		.loc 1 593 0
ARM GAS  C:\Users\ilya\AppData\Local\Temp\ccpEIuqL.s 			page 60


 2769 00fe 7A68     		ldr	r2, [r7, #4]
 2770 0100 A623     		movs	r3, #166
 2771 0102 5B00     		lsls	r3, r3, #1
 2772 0104 D358     		ldr	r3, [r2, r3]
 2773 0106 BB66     		str	r3, [r7, #104]
 2774 0108 01E0     		b	.L87
 2775              	.L88:
 594:Api\core\src/vl53l0x_api.c **** 				pTuningSettingsPointer);
 595:Api\core\src/vl53l0x_api.c **** 		else
 596:Api\core\src/vl53l0x_api.c **** 			pTuningSettingBuffer = DefaultTuningSettings;
 2776              		.loc 1 596 0
 2777 010a B04B     		ldr	r3, .L109
 2778 010c BB66     		str	r3, [r7, #104]
 2779              	.L87:
 597:Api\core\src/vl53l0x_api.c **** 
 598:Api\core\src/vl53l0x_api.c **** 	}
 599:Api\core\src/vl53l0x_api.c **** 
 600:Api\core\src/vl53l0x_api.c **** 	if (Status == VL53L0X_ERROR_NONE)
 2780              		.loc 1 600 0
 2781 010e 6F23     		movs	r3, #111
 2782 0110 FB18     		adds	r3, r7, r3
 2783 0112 1B78     		ldrb	r3, [r3]
 2784 0114 5BB2     		sxtb	r3, r3
 2785 0116 002B     		cmp	r3, #0
 2786 0118 09D1     		bne	.L89
 601:Api\core\src/vl53l0x_api.c **** 		Status = VL53L0X_load_tuning_settings(Dev, pTuningSettingBuffer);
 2787              		.loc 1 601 0
 2788 011a 6F23     		movs	r3, #111
 2789 011c FC18     		adds	r4, r7, r3
 2790 011e BA6E     		ldr	r2, [r7, #104]
 2791 0120 7B68     		ldr	r3, [r7, #4]
 2792 0122 1100     		movs	r1, r2
 2793 0124 1800     		movs	r0, r3
 2794 0126 FFF7FEFF 		bl	VL53L0X_load_tuning_settings
 2795 012a 0300     		movs	r3, r0
 2796 012c 2370     		strb	r3, [r4]
 2797              	.L89:
 602:Api\core\src/vl53l0x_api.c **** 
 603:Api\core\src/vl53l0x_api.c **** 
 604:Api\core\src/vl53l0x_api.c **** 	/* Set interrupt config to new sample ready */
 605:Api\core\src/vl53l0x_api.c **** 	if (Status == VL53L0X_ERROR_NONE) {
 2798              		.loc 1 605 0
 2799 012e 6F23     		movs	r3, #111
 2800 0130 FB18     		adds	r3, r7, r3
 2801 0132 1B78     		ldrb	r3, [r3]
 2802 0134 5BB2     		sxtb	r3, r3
 2803 0136 002B     		cmp	r3, #0
 2804 0138 0BD1     		bne	.L90
 606:Api\core\src/vl53l0x_api.c **** 		Status = VL53L0X_SetGpioConfig(Dev, 0, 0,
 2805              		.loc 1 606 0
 2806 013a 6F23     		movs	r3, #111
 2807 013c FC18     		adds	r4, r7, r3
 2808 013e 7868     		ldr	r0, [r7, #4]
 2809 0140 0023     		movs	r3, #0
 2810 0142 0093     		str	r3, [sp]
 2811 0144 0423     		movs	r3, #4
 2812 0146 0022     		movs	r2, #0
ARM GAS  C:\Users\ilya\AppData\Local\Temp\ccpEIuqL.s 			page 61


 2813 0148 0021     		movs	r1, #0
 2814 014a FFF7FEFF 		bl	VL53L0X_SetGpioConfig
 2815 014e 0300     		movs	r3, r0
 2816 0150 2370     		strb	r3, [r4]
 2817              	.L90:
 607:Api\core\src/vl53l0x_api.c **** 		VL53L0X_REG_SYSTEM_INTERRUPT_GPIO_NEW_SAMPLE_READY,
 608:Api\core\src/vl53l0x_api.c **** 		VL53L0X_INTERRUPTPOLARITY_LOW);
 609:Api\core\src/vl53l0x_api.c **** 	}
 610:Api\core\src/vl53l0x_api.c **** 
 611:Api\core\src/vl53l0x_api.c **** 	if (Status == VL53L0X_ERROR_NONE) {
 2818              		.loc 1 611 0
 2819 0152 6F23     		movs	r3, #111
 2820 0154 FB18     		adds	r3, r7, r3
 2821 0156 1B78     		ldrb	r3, [r3]
 2822 0158 5BB2     		sxtb	r3, r3
 2823 015a 002B     		cmp	r3, #0
 2824 015c 28D1     		bne	.L91
 612:Api\core\src/vl53l0x_api.c **** 		Status = VL53L0X_WrByte(Dev, 0xFF, 0x01);
 2825              		.loc 1 612 0
 2826 015e 6F23     		movs	r3, #111
 2827 0160 FC18     		adds	r4, r7, r3
 2828 0162 7B68     		ldr	r3, [r7, #4]
 2829 0164 0122     		movs	r2, #1
 2830 0166 FF21     		movs	r1, #255
 2831 0168 1800     		movs	r0, r3
 2832 016a FFF7FEFF 		bl	VL53L0X_WrByte
 2833 016e 0300     		movs	r3, r0
 2834 0170 2370     		strb	r3, [r4]
 613:Api\core\src/vl53l0x_api.c **** 		Status |= VL53L0X_RdWord(Dev, 0x84, &tempword);
 2835              		.loc 1 613 0
 2836 0172 1A23     		movs	r3, #26
 2837 0174 FA18     		adds	r2, r7, r3
 2838 0176 7B68     		ldr	r3, [r7, #4]
 2839 0178 8421     		movs	r1, #132
 2840 017a 1800     		movs	r0, r3
 2841 017c FFF7FEFF 		bl	VL53L0X_RdWord
 2842 0180 0300     		movs	r3, r0
 2843 0182 1900     		movs	r1, r3
 2844 0184 6F23     		movs	r3, #111
 2845 0186 FB18     		adds	r3, r7, r3
 2846 0188 6F22     		movs	r2, #111
 2847 018a BA18     		adds	r2, r7, r2
 2848 018c 1278     		ldrb	r2, [r2]
 2849 018e 0A43     		orrs	r2, r1
 2850 0190 1A70     		strb	r2, [r3]
 614:Api\core\src/vl53l0x_api.c **** 		Status |= VL53L0X_WrByte(Dev, 0xFF, 0x00);
 2851              		.loc 1 614 0
 2852 0192 7B68     		ldr	r3, [r7, #4]
 2853 0194 0022     		movs	r2, #0
 2854 0196 FF21     		movs	r1, #255
 2855 0198 1800     		movs	r0, r3
 2856 019a FFF7FEFF 		bl	VL53L0X_WrByte
 2857 019e 0300     		movs	r3, r0
 2858 01a0 1900     		movs	r1, r3
 2859 01a2 6F23     		movs	r3, #111
 2860 01a4 FB18     		adds	r3, r7, r3
 2861 01a6 6F22     		movs	r2, #111
ARM GAS  C:\Users\ilya\AppData\Local\Temp\ccpEIuqL.s 			page 62


 2862 01a8 BA18     		adds	r2, r7, r2
 2863 01aa 1278     		ldrb	r2, [r2]
 2864 01ac 0A43     		orrs	r2, r1
 2865 01ae 1A70     		strb	r2, [r3]
 2866              	.L91:
 615:Api\core\src/vl53l0x_api.c **** 	}
 616:Api\core\src/vl53l0x_api.c **** 
 617:Api\core\src/vl53l0x_api.c **** 	if (Status == VL53L0X_ERROR_NONE) {
 2867              		.loc 1 617 0
 2868 01b0 6F23     		movs	r3, #111
 2869 01b2 FB18     		adds	r3, r7, r3
 2870 01b4 1B78     		ldrb	r3, [r3]
 2871 01b6 5BB2     		sxtb	r3, r3
 2872 01b8 002B     		cmp	r3, #0
 2873 01ba 07D1     		bne	.L92
 618:Api\core\src/vl53l0x_api.c **** 		VL53L0X_SETDEVICESPECIFICPARAMETER(Dev, OscFrequencyMHz,
 2874              		.loc 1 618 0
 2875 01bc 1A23     		movs	r3, #26
 2876 01be FB18     		adds	r3, r7, r3
 2877 01c0 1B88     		ldrh	r3, [r3]
 2878 01c2 1B01     		lsls	r3, r3, #4
 2879 01c4 1900     		movs	r1, r3
 2880 01c6 7B68     		ldr	r3, [r7, #4]
 2881 01c8 D422     		movs	r2, #212
 2882 01ca 9950     		str	r1, [r3, r2]
 2883              	.L92:
 619:Api\core\src/vl53l0x_api.c **** 			VL53L0X_FIXPOINT412TOFIXPOINT1616(tempword));
 620:Api\core\src/vl53l0x_api.c **** 	}
 621:Api\core\src/vl53l0x_api.c **** 
 622:Api\core\src/vl53l0x_api.c **** 	/* After static init, some device parameters may be changed,
 623:Api\core\src/vl53l0x_api.c **** 	 * so update them */
 624:Api\core\src/vl53l0x_api.c **** 	if (Status == VL53L0X_ERROR_NONE)
 2884              		.loc 1 624 0
 2885 01cc 6F23     		movs	r3, #111
 2886 01ce FB18     		adds	r3, r7, r3
 2887 01d0 1B78     		ldrb	r3, [r3]
 2888 01d2 5BB2     		sxtb	r3, r3
 2889 01d4 002B     		cmp	r3, #0
 2890 01d6 0AD1     		bne	.L93
 625:Api\core\src/vl53l0x_api.c **** 		Status = VL53L0X_GetDeviceParameters(Dev, &CurrentParameters);
 2891              		.loc 1 625 0
 2892 01d8 6F23     		movs	r3, #111
 2893 01da FC18     		adds	r4, r7, r3
 2894 01dc 1C23     		movs	r3, #28
 2895 01de FA18     		adds	r2, r7, r3
 2896 01e0 7B68     		ldr	r3, [r7, #4]
 2897 01e2 1100     		movs	r1, r2
 2898 01e4 1800     		movs	r0, r3
 2899 01e6 FFF7FEFF 		bl	VL53L0X_GetDeviceParameters
 2900 01ea 0300     		movs	r3, r0
 2901 01ec 2370     		strb	r3, [r4]
 2902              	.L93:
 626:Api\core\src/vl53l0x_api.c **** 
 627:Api\core\src/vl53l0x_api.c **** 
 628:Api\core\src/vl53l0x_api.c **** 	if (Status == VL53L0X_ERROR_NONE) {
 2903              		.loc 1 628 0
 2904 01ee 6F23     		movs	r3, #111
ARM GAS  C:\Users\ilya\AppData\Local\Temp\ccpEIuqL.s 			page 63


 2905 01f0 FB18     		adds	r3, r7, r3
 2906 01f2 1B78     		ldrb	r3, [r3]
 2907 01f4 5BB2     		sxtb	r3, r3
 2908 01f6 002B     		cmp	r3, #0
 2909 01f8 17D1     		bne	.L94
 629:Api\core\src/vl53l0x_api.c **** 		Status = VL53L0X_GetFractionEnable(Dev, &tempbyte);
 2910              		.loc 1 629 0
 2911 01fa 6F23     		movs	r3, #111
 2912 01fc FC18     		adds	r4, r7, r3
 2913 01fe 1923     		movs	r3, #25
 2914 0200 FA18     		adds	r2, r7, r3
 2915 0202 7B68     		ldr	r3, [r7, #4]
 2916 0204 1100     		movs	r1, r2
 2917 0206 1800     		movs	r0, r3
 2918 0208 FFF7FEFF 		bl	VL53L0X_GetFractionEnable
 2919 020c 0300     		movs	r3, r0
 2920 020e 2370     		strb	r3, [r4]
 630:Api\core\src/vl53l0x_api.c **** 		if (Status == VL53L0X_ERROR_NONE)
 2921              		.loc 1 630 0
 2922 0210 6F23     		movs	r3, #111
 2923 0212 FB18     		adds	r3, r7, r3
 2924 0214 1B78     		ldrb	r3, [r3]
 2925 0216 5BB2     		sxtb	r3, r3
 2926 0218 002B     		cmp	r3, #0
 2927 021a 06D1     		bne	.L94
 631:Api\core\src/vl53l0x_api.c **** 			PALDevDataSet(Dev, RangeFractionalEnable, tempbyte);
 2928              		.loc 1 631 0
 2929 021c 1923     		movs	r3, #25
 2930 021e FB18     		adds	r3, r7, r3
 2931 0220 1978     		ldrb	r1, [r3]
 2932 0222 7A68     		ldr	r2, [r7, #4]
 2933 0224 3223     		movs	r3, #50
 2934 0226 FF33     		adds	r3, r3, #255
 2935 0228 D154     		strb	r1, [r2, r3]
 2936              	.L94:
 632:Api\core\src/vl53l0x_api.c **** 
 633:Api\core\src/vl53l0x_api.c **** 	}
 634:Api\core\src/vl53l0x_api.c **** 
 635:Api\core\src/vl53l0x_api.c **** 	if (Status == VL53L0X_ERROR_NONE)
 2937              		.loc 1 635 0
 2938 022a 6F23     		movs	r3, #111
 2939 022c FB18     		adds	r3, r7, r3
 2940 022e 1B78     		ldrb	r3, [r3]
 2941 0230 5BB2     		sxtb	r3, r3
 2942 0232 002B     		cmp	r3, #0
 2943 0234 08D1     		bne	.L95
 636:Api\core\src/vl53l0x_api.c **** 		PALDevDataSet(Dev, CurrentParameters, CurrentParameters);
 2944              		.loc 1 636 0
 2945 0236 7B68     		ldr	r3, [r7, #4]
 2946 0238 1C22     		movs	r2, #28
 2947 023a BA18     		adds	r2, r7, r2
 2948 023c 1033     		adds	r3, r3, #16
 2949 023e 1100     		movs	r1, r2
 2950 0240 4022     		movs	r2, #64
 2951 0242 1800     		movs	r0, r3
 2952 0244 FFF7FEFF 		bl	memcpy
 2953              	.L95:
ARM GAS  C:\Users\ilya\AppData\Local\Temp\ccpEIuqL.s 			page 64


 637:Api\core\src/vl53l0x_api.c **** 
 638:Api\core\src/vl53l0x_api.c **** 
 639:Api\core\src/vl53l0x_api.c **** 	/* read the sequence config and save it */
 640:Api\core\src/vl53l0x_api.c **** 	if (Status == VL53L0X_ERROR_NONE) {
 2954              		.loc 1 640 0
 2955 0248 6F23     		movs	r3, #111
 2956 024a FB18     		adds	r3, r7, r3
 2957 024c 1B78     		ldrb	r3, [r3]
 2958 024e 5BB2     		sxtb	r3, r3
 2959 0250 002B     		cmp	r3, #0
 2960 0252 17D1     		bne	.L96
 641:Api\core\src/vl53l0x_api.c **** 		Status = VL53L0X_RdByte(Dev,
 2961              		.loc 1 641 0
 2962 0254 6F23     		movs	r3, #111
 2963 0256 FC18     		adds	r4, r7, r3
 2964 0258 1923     		movs	r3, #25
 2965 025a FA18     		adds	r2, r7, r3
 2966 025c 7B68     		ldr	r3, [r7, #4]
 2967 025e 0121     		movs	r1, #1
 2968 0260 1800     		movs	r0, r3
 2969 0262 FFF7FEFF 		bl	VL53L0X_RdByte
 2970 0266 0300     		movs	r3, r0
 2971 0268 2370     		strb	r3, [r4]
 642:Api\core\src/vl53l0x_api.c **** 		VL53L0X_REG_SYSTEM_SEQUENCE_CONFIG, &tempbyte);
 643:Api\core\src/vl53l0x_api.c **** 		if (Status == VL53L0X_ERROR_NONE)
 2972              		.loc 1 643 0
 2973 026a 6F23     		movs	r3, #111
 2974 026c FB18     		adds	r3, r7, r3
 2975 026e 1B78     		ldrb	r3, [r3]
 2976 0270 5BB2     		sxtb	r3, r3
 2977 0272 002B     		cmp	r3, #0
 2978 0274 06D1     		bne	.L96
 644:Api\core\src/vl53l0x_api.c **** 			PALDevDataSet(Dev, SequenceConfig, tempbyte);
 2979              		.loc 1 644 0
 2980 0276 1923     		movs	r3, #25
 2981 0278 FB18     		adds	r3, r7, r3
 2982 027a 1978     		ldrb	r1, [r3]
 2983 027c 7A68     		ldr	r2, [r7, #4]
 2984 027e 9823     		movs	r3, #152
 2985 0280 5B00     		lsls	r3, r3, #1
 2986 0282 D154     		strb	r1, [r2, r3]
 2987              	.L96:
 645:Api\core\src/vl53l0x_api.c **** 
 646:Api\core\src/vl53l0x_api.c **** 	}
 647:Api\core\src/vl53l0x_api.c **** 
 648:Api\core\src/vl53l0x_api.c **** 	/* Disable MSRC and TCC by default */
 649:Api\core\src/vl53l0x_api.c **** 	if (Status == VL53L0X_ERROR_NONE)
 2988              		.loc 1 649 0
 2989 0284 6F23     		movs	r3, #111
 2990 0286 FB18     		adds	r3, r7, r3
 2991 0288 1B78     		ldrb	r3, [r3]
 2992 028a 5BB2     		sxtb	r3, r3
 2993 028c 002B     		cmp	r3, #0
 2994 028e 09D1     		bne	.L97
 650:Api\core\src/vl53l0x_api.c **** 		Status = VL53L0X_SetSequenceStepEnable(Dev,
 2995              		.loc 1 650 0
 2996 0290 6F23     		movs	r3, #111
ARM GAS  C:\Users\ilya\AppData\Local\Temp\ccpEIuqL.s 			page 65


 2997 0292 FC18     		adds	r4, r7, r3
 2998 0294 7B68     		ldr	r3, [r7, #4]
 2999 0296 0022     		movs	r2, #0
 3000 0298 0021     		movs	r1, #0
 3001 029a 1800     		movs	r0, r3
 3002 029c FFF7FEFF 		bl	VL53L0X_SetSequenceStepEnable
 3003 02a0 0300     		movs	r3, r0
 3004 02a2 2370     		strb	r3, [r4]
 3005              	.L97:
 651:Api\core\src/vl53l0x_api.c **** 					VL53L0X_SEQUENCESTEP_TCC, 0);
 652:Api\core\src/vl53l0x_api.c **** 
 653:Api\core\src/vl53l0x_api.c **** 
 654:Api\core\src/vl53l0x_api.c **** 	if (Status == VL53L0X_ERROR_NONE)
 3006              		.loc 1 654 0
 3007 02a4 6F23     		movs	r3, #111
 3008 02a6 FB18     		adds	r3, r7, r3
 3009 02a8 1B78     		ldrb	r3, [r3]
 3010 02aa 5BB2     		sxtb	r3, r3
 3011 02ac 002B     		cmp	r3, #0
 3012 02ae 09D1     		bne	.L98
 655:Api\core\src/vl53l0x_api.c **** 		Status = VL53L0X_SetSequenceStepEnable(Dev,
 3013              		.loc 1 655 0
 3014 02b0 6F23     		movs	r3, #111
 3015 02b2 FC18     		adds	r4, r7, r3
 3016 02b4 7B68     		ldr	r3, [r7, #4]
 3017 02b6 0022     		movs	r2, #0
 3018 02b8 0221     		movs	r1, #2
 3019 02ba 1800     		movs	r0, r3
 3020 02bc FFF7FEFF 		bl	VL53L0X_SetSequenceStepEnable
 3021 02c0 0300     		movs	r3, r0
 3022 02c2 2370     		strb	r3, [r4]
 3023              	.L98:
 656:Api\core\src/vl53l0x_api.c **** 		VL53L0X_SEQUENCESTEP_MSRC, 0);
 657:Api\core\src/vl53l0x_api.c **** 
 658:Api\core\src/vl53l0x_api.c **** 
 659:Api\core\src/vl53l0x_api.c **** 	/* Set PAL State to standby */
 660:Api\core\src/vl53l0x_api.c **** 	if (Status == VL53L0X_ERROR_NONE)
 3024              		.loc 1 660 0
 3025 02c4 6F23     		movs	r3, #111
 3026 02c6 FB18     		adds	r3, r7, r3
 3027 02c8 1B78     		ldrb	r3, [r3]
 3028 02ca 5BB2     		sxtb	r3, r3
 3029 02cc 002B     		cmp	r3, #0
 3030 02ce 04D1     		bne	.L99
 661:Api\core\src/vl53l0x_api.c **** 		PALDevDataSet(Dev, PalState, VL53L0X_STATE_IDLE);
 3031              		.loc 1 661 0
 3032 02d0 7A68     		ldr	r2, [r7, #4]
 3033 02d2 9923     		movs	r3, #153
 3034 02d4 5B00     		lsls	r3, r3, #1
 3035 02d6 0321     		movs	r1, #3
 3036 02d8 D154     		strb	r1, [r2, r3]
 3037              	.L99:
 662:Api\core\src/vl53l0x_api.c **** 
 663:Api\core\src/vl53l0x_api.c **** 
 664:Api\core\src/vl53l0x_api.c **** 
 665:Api\core\src/vl53l0x_api.c **** 	/* Store pre-range vcsel period */
 666:Api\core\src/vl53l0x_api.c **** 	if (Status == VL53L0X_ERROR_NONE) {
ARM GAS  C:\Users\ilya\AppData\Local\Temp\ccpEIuqL.s 			page 66


 3038              		.loc 1 666 0
 3039 02da 6F23     		movs	r3, #111
 3040 02dc FB18     		adds	r3, r7, r3
 3041 02de 1B78     		ldrb	r3, [r3]
 3042 02e0 5BB2     		sxtb	r3, r3
 3043 02e2 002B     		cmp	r3, #0
 3044 02e4 0AD1     		bne	.L100
 667:Api\core\src/vl53l0x_api.c **** 		Status = VL53L0X_GetVcselPulsePeriod(
 3045              		.loc 1 667 0
 3046 02e6 6F23     		movs	r3, #111
 3047 02e8 FC18     		adds	r4, r7, r3
 3048 02ea 1323     		movs	r3, #19
 3049 02ec FA18     		adds	r2, r7, r3
 3050 02ee 7B68     		ldr	r3, [r7, #4]
 3051 02f0 0021     		movs	r1, #0
 3052 02f2 1800     		movs	r0, r3
 3053 02f4 FFF7FEFF 		bl	VL53L0X_GetVcselPulsePeriod
 3054 02f8 0300     		movs	r3, r0
 3055 02fa 2370     		strb	r3, [r4]
 3056              	.L100:
 668:Api\core\src/vl53l0x_api.c **** 			Dev,
 669:Api\core\src/vl53l0x_api.c **** 			VL53L0X_VCSEL_PERIOD_PRE_RANGE,
 670:Api\core\src/vl53l0x_api.c **** 			&vcselPulsePeriodPCLK);
 671:Api\core\src/vl53l0x_api.c **** 	}
 672:Api\core\src/vl53l0x_api.c **** 
 673:Api\core\src/vl53l0x_api.c **** 	if (Status == VL53L0X_ERROR_NONE) {
 3057              		.loc 1 673 0
 3058 02fc 6F23     		movs	r3, #111
 3059 02fe FB18     		adds	r3, r7, r3
 3060 0300 1B78     		ldrb	r3, [r3]
 3061 0302 5BB2     		sxtb	r3, r3
 3062 0304 002B     		cmp	r3, #0
 3063 0306 05D1     		bne	.L101
 674:Api\core\src/vl53l0x_api.c **** 			VL53L0X_SETDEVICESPECIFICPARAMETER(
 3064              		.loc 1 674 0
 3065 0308 1323     		movs	r3, #19
 3066 030a FB18     		adds	r3, r7, r3
 3067 030c 1978     		ldrb	r1, [r3]
 3068 030e 7B68     		ldr	r3, [r7, #4]
 3069 0310 E822     		movs	r2, #232
 3070 0312 9954     		strb	r1, [r3, r2]
 3071              	.L101:
 675:Api\core\src/vl53l0x_api.c **** 				Dev,
 676:Api\core\src/vl53l0x_api.c **** 				PreRangeVcselPulsePeriod,
 677:Api\core\src/vl53l0x_api.c **** 				vcselPulsePeriodPCLK);
 678:Api\core\src/vl53l0x_api.c **** 	}
 679:Api\core\src/vl53l0x_api.c **** 
 680:Api\core\src/vl53l0x_api.c **** 	/* Store final-range vcsel period */
 681:Api\core\src/vl53l0x_api.c **** 	if (Status == VL53L0X_ERROR_NONE) {
 3072              		.loc 1 681 0
 3073 0314 6F23     		movs	r3, #111
 3074 0316 FB18     		adds	r3, r7, r3
 3075 0318 1B78     		ldrb	r3, [r3]
 3076 031a 5BB2     		sxtb	r3, r3
 3077 031c 002B     		cmp	r3, #0
 3078 031e 0AD1     		bne	.L102
 682:Api\core\src/vl53l0x_api.c **** 		Status = VL53L0X_GetVcselPulsePeriod(
ARM GAS  C:\Users\ilya\AppData\Local\Temp\ccpEIuqL.s 			page 67


 3079              		.loc 1 682 0
 3080 0320 6F23     		movs	r3, #111
 3081 0322 FC18     		adds	r4, r7, r3
 3082 0324 1323     		movs	r3, #19
 3083 0326 FA18     		adds	r2, r7, r3
 3084 0328 7B68     		ldr	r3, [r7, #4]
 3085 032a 0121     		movs	r1, #1
 3086 032c 1800     		movs	r0, r3
 3087 032e FFF7FEFF 		bl	VL53L0X_GetVcselPulsePeriod
 3088 0332 0300     		movs	r3, r0
 3089 0334 2370     		strb	r3, [r4]
 3090              	.L102:
 683:Api\core\src/vl53l0x_api.c **** 			Dev,
 684:Api\core\src/vl53l0x_api.c **** 			VL53L0X_VCSEL_PERIOD_FINAL_RANGE,
 685:Api\core\src/vl53l0x_api.c **** 			&vcselPulsePeriodPCLK);
 686:Api\core\src/vl53l0x_api.c **** 	}
 687:Api\core\src/vl53l0x_api.c **** 
 688:Api\core\src/vl53l0x_api.c **** 	if (Status == VL53L0X_ERROR_NONE) {
 3091              		.loc 1 688 0
 3092 0336 6F23     		movs	r3, #111
 3093 0338 FB18     		adds	r3, r7, r3
 3094 033a 1B78     		ldrb	r3, [r3]
 3095 033c 5BB2     		sxtb	r3, r3
 3096 033e 002B     		cmp	r3, #0
 3097 0340 05D1     		bne	.L103
 689:Api\core\src/vl53l0x_api.c **** 			VL53L0X_SETDEVICESPECIFICPARAMETER(
 3098              		.loc 1 689 0
 3099 0342 1323     		movs	r3, #19
 3100 0344 FB18     		adds	r3, r7, r3
 3101 0346 1978     		ldrb	r1, [r3]
 3102 0348 7B68     		ldr	r3, [r7, #4]
 3103 034a E022     		movs	r2, #224
 3104 034c 9954     		strb	r1, [r3, r2]
 3105              	.L103:
 690:Api\core\src/vl53l0x_api.c **** 				Dev,
 691:Api\core\src/vl53l0x_api.c **** 				FinalRangeVcselPulsePeriod,
 692:Api\core\src/vl53l0x_api.c **** 				vcselPulsePeriodPCLK);
 693:Api\core\src/vl53l0x_api.c **** 	}
 694:Api\core\src/vl53l0x_api.c **** 
 695:Api\core\src/vl53l0x_api.c **** 	/* Store pre-range timeout */
 696:Api\core\src/vl53l0x_api.c **** 	if (Status == VL53L0X_ERROR_NONE) {
 3106              		.loc 1 696 0
 3107 034e 6F23     		movs	r3, #111
 3108 0350 FB18     		adds	r3, r7, r3
 3109 0352 1B78     		ldrb	r3, [r3]
 3110 0354 5BB2     		sxtb	r3, r3
 3111 0356 002B     		cmp	r3, #0
 3112 0358 0AD1     		bne	.L104
 697:Api\core\src/vl53l0x_api.c **** 		Status = get_sequence_step_timeout(
 3113              		.loc 1 697 0
 3114 035a 6F23     		movs	r3, #111
 3115 035c FC18     		adds	r4, r7, r3
 3116 035e 0C23     		movs	r3, #12
 3117 0360 FA18     		adds	r2, r7, r3
 3118 0362 7B68     		ldr	r3, [r7, #4]
 3119 0364 0321     		movs	r1, #3
 3120 0366 1800     		movs	r0, r3
ARM GAS  C:\Users\ilya\AppData\Local\Temp\ccpEIuqL.s 			page 68


 3121 0368 FFF7FEFF 		bl	get_sequence_step_timeout
 3122 036c 0300     		movs	r3, r0
 3123 036e 2370     		strb	r3, [r4]
 3124              	.L104:
 698:Api\core\src/vl53l0x_api.c **** 			Dev,
 699:Api\core\src/vl53l0x_api.c **** 			VL53L0X_SEQUENCESTEP_PRE_RANGE,
 700:Api\core\src/vl53l0x_api.c **** 			&seqTimeoutMicroSecs);
 701:Api\core\src/vl53l0x_api.c **** 	}
 702:Api\core\src/vl53l0x_api.c **** 
 703:Api\core\src/vl53l0x_api.c **** 	if (Status == VL53L0X_ERROR_NONE) {
 3125              		.loc 1 703 0
 3126 0370 6F23     		movs	r3, #111
 3127 0372 FB18     		adds	r3, r7, r3
 3128 0374 1B78     		ldrb	r3, [r3]
 3129 0376 5BB2     		sxtb	r3, r3
 3130 0378 002B     		cmp	r3, #0
 3131 037a 03D1     		bne	.L105
 704:Api\core\src/vl53l0x_api.c **** 		VL53L0X_SETDEVICESPECIFICPARAMETER(
 3132              		.loc 1 704 0
 3133 037c FA68     		ldr	r2, [r7, #12]
 3134 037e 7B68     		ldr	r3, [r7, #4]
 3135 0380 E421     		movs	r1, #228
 3136 0382 5A50     		str	r2, [r3, r1]
 3137              	.L105:
 705:Api\core\src/vl53l0x_api.c **** 			Dev,
 706:Api\core\src/vl53l0x_api.c **** 			PreRangeTimeoutMicroSecs,
 707:Api\core\src/vl53l0x_api.c **** 			seqTimeoutMicroSecs);
 708:Api\core\src/vl53l0x_api.c **** 	}
 709:Api\core\src/vl53l0x_api.c **** 
 710:Api\core\src/vl53l0x_api.c **** 	/* Store final-range timeout */
 711:Api\core\src/vl53l0x_api.c **** 	if (Status == VL53L0X_ERROR_NONE) {
 3138              		.loc 1 711 0
 3139 0384 6F23     		movs	r3, #111
 3140 0386 FB18     		adds	r3, r7, r3
 3141 0388 1B78     		ldrb	r3, [r3]
 3142 038a 5BB2     		sxtb	r3, r3
 3143 038c 002B     		cmp	r3, #0
 3144 038e 0AD1     		bne	.L106
 712:Api\core\src/vl53l0x_api.c **** 		Status = get_sequence_step_timeout(
 3145              		.loc 1 712 0
 3146 0390 6F23     		movs	r3, #111
 3147 0392 FC18     		adds	r4, r7, r3
 3148 0394 0C23     		movs	r3, #12
 3149 0396 FA18     		adds	r2, r7, r3
 3150 0398 7B68     		ldr	r3, [r7, #4]
 3151 039a 0421     		movs	r1, #4
 3152 039c 1800     		movs	r0, r3
 3153 039e FFF7FEFF 		bl	get_sequence_step_timeout
 3154 03a2 0300     		movs	r3, r0
 3155 03a4 2370     		strb	r3, [r4]
 3156              	.L106:
 713:Api\core\src/vl53l0x_api.c **** 			Dev,
 714:Api\core\src/vl53l0x_api.c **** 			VL53L0X_SEQUENCESTEP_FINAL_RANGE,
 715:Api\core\src/vl53l0x_api.c **** 			&seqTimeoutMicroSecs);
 716:Api\core\src/vl53l0x_api.c **** 	}
 717:Api\core\src/vl53l0x_api.c **** 
 718:Api\core\src/vl53l0x_api.c **** 	if (Status == VL53L0X_ERROR_NONE) {
ARM GAS  C:\Users\ilya\AppData\Local\Temp\ccpEIuqL.s 			page 69


 3157              		.loc 1 718 0
 3158 03a6 6F23     		movs	r3, #111
 3159 03a8 FB18     		adds	r3, r7, r3
 3160 03aa 1B78     		ldrb	r3, [r3]
 3161 03ac 5BB2     		sxtb	r3, r3
 3162 03ae 002B     		cmp	r3, #0
 3163 03b0 03D1     		bne	.L107
 719:Api\core\src/vl53l0x_api.c **** 		VL53L0X_SETDEVICESPECIFICPARAMETER(
 3164              		.loc 1 719 0
 3165 03b2 FA68     		ldr	r2, [r7, #12]
 3166 03b4 7B68     		ldr	r3, [r7, #4]
 3167 03b6 DC21     		movs	r1, #220
 3168 03b8 5A50     		str	r2, [r3, r1]
 3169              	.L107:
 720:Api\core\src/vl53l0x_api.c **** 			Dev,
 721:Api\core\src/vl53l0x_api.c **** 			FinalRangeTimeoutMicroSecs,
 722:Api\core\src/vl53l0x_api.c **** 			seqTimeoutMicroSecs);
 723:Api\core\src/vl53l0x_api.c **** 	}
 724:Api\core\src/vl53l0x_api.c **** 
 725:Api\core\src/vl53l0x_api.c **** 	LOG_FUNCTION_END(Status);
 726:Api\core\src/vl53l0x_api.c **** 	return Status;
 3170              		.loc 1 726 0
 3171 03ba 6F23     		movs	r3, #111
 3172 03bc FB18     		adds	r3, r7, r3
 3173 03be 1B78     		ldrb	r3, [r3]
 3174 03c0 5BB2     		sxtb	r3, r3
 727:Api\core\src/vl53l0x_api.c **** }
 3175              		.loc 1 727 0
 3176 03c2 1800     		movs	r0, r3
 3177 03c4 BD46     		mov	sp, r7
 3178 03c6 1DB0     		add	sp, sp, #116
 3179              		@ sp needed
 3180 03c8 90BD     		pop	{r4, r7, pc}
 3181              	.L110:
 3182 03ca C046     		.align	2
 3183              	.L109:
 3184 03cc 00000000 		.word	DefaultTuningSettings
 3185              		.cfi_endproc
 3186              	.LFE24:
 3187              		.size	VL53L0X_StaticInit, .-VL53L0X_StaticInit
 3188              		.section	.text.VL53L0X_WaitDeviceBooted,"ax",%progbits
 3189              		.align	2
 3190              		.global	VL53L0X_WaitDeviceBooted
 3191              		.code	16
 3192              		.thumb_func
 3193              		.type	VL53L0X_WaitDeviceBooted, %function
 3194              	VL53L0X_WaitDeviceBooted:
 3195              	.LFB25:
 728:Api\core\src/vl53l0x_api.c **** 
 729:Api\core\src/vl53l0x_api.c **** VL53L0X_Error VL53L0X_WaitDeviceBooted(VL53L0X_DEV Dev)
 730:Api\core\src/vl53l0x_api.c **** {
 3196              		.loc 1 730 0
 3197              		.cfi_startproc
 3198              		@ args = 0, pretend = 0, frame = 16
 3199              		@ frame_needed = 1, uses_anonymous_args = 0
 3200 0000 80B5     		push	{r7, lr}
 3201              		.cfi_def_cfa_offset 8
ARM GAS  C:\Users\ilya\AppData\Local\Temp\ccpEIuqL.s 			page 70


 3202              		.cfi_offset 7, -8
 3203              		.cfi_offset 14, -4
 3204 0002 84B0     		sub	sp, sp, #16
 3205              		.cfi_def_cfa_offset 24
 3206 0004 00AF     		add	r7, sp, #0
 3207              		.cfi_def_cfa_register 7
 3208 0006 7860     		str	r0, [r7, #4]
 731:Api\core\src/vl53l0x_api.c **** 	VL53L0X_Error Status = VL53L0X_ERROR_NOT_IMPLEMENTED;
 3209              		.loc 1 731 0
 3210 0008 0F23     		movs	r3, #15
 3211 000a FB18     		adds	r3, r7, r3
 3212 000c 9D22     		movs	r2, #157
 3213 000e 1A70     		strb	r2, [r3]
 732:Api\core\src/vl53l0x_api.c **** 	LOG_FUNCTION_START("");
 733:Api\core\src/vl53l0x_api.c **** 
 734:Api\core\src/vl53l0x_api.c **** 	/* not implemented on VL53L0X */
 735:Api\core\src/vl53l0x_api.c **** 
 736:Api\core\src/vl53l0x_api.c **** 	LOG_FUNCTION_END(Status);
 737:Api\core\src/vl53l0x_api.c **** 	return Status;
 3214              		.loc 1 737 0
 3215 0010 0F23     		movs	r3, #15
 3216 0012 FB18     		adds	r3, r7, r3
 3217 0014 1B78     		ldrb	r3, [r3]
 3218 0016 5BB2     		sxtb	r3, r3
 738:Api\core\src/vl53l0x_api.c **** }
 3219              		.loc 1 738 0
 3220 0018 1800     		movs	r0, r3
 3221 001a BD46     		mov	sp, r7
 3222 001c 04B0     		add	sp, sp, #16
 3223              		@ sp needed
 3224 001e 80BD     		pop	{r7, pc}
 3225              		.cfi_endproc
 3226              	.LFE25:
 3227              		.size	VL53L0X_WaitDeviceBooted, .-VL53L0X_WaitDeviceBooted
 3228              		.section	.text.VL53L0X_ResetDevice,"ax",%progbits
 3229              		.align	2
 3230              		.global	VL53L0X_ResetDevice
 3231              		.code	16
 3232              		.thumb_func
 3233              		.type	VL53L0X_ResetDevice, %function
 3234              	VL53L0X_ResetDevice:
 3235              	.LFB26:
 739:Api\core\src/vl53l0x_api.c **** 
 740:Api\core\src/vl53l0x_api.c **** VL53L0X_Error VL53L0X_ResetDevice(VL53L0X_DEV Dev)
 741:Api\core\src/vl53l0x_api.c **** {
 3236              		.loc 1 741 0
 3237              		.cfi_startproc
 3238              		@ args = 0, pretend = 0, frame = 16
 3239              		@ frame_needed = 1, uses_anonymous_args = 0
 3240 0000 90B5     		push	{r4, r7, lr}
 3241              		.cfi_def_cfa_offset 12
 3242              		.cfi_offset 4, -12
 3243              		.cfi_offset 7, -8
 3244              		.cfi_offset 14, -4
 3245 0002 85B0     		sub	sp, sp, #20
 3246              		.cfi_def_cfa_offset 32
 3247 0004 00AF     		add	r7, sp, #0
ARM GAS  C:\Users\ilya\AppData\Local\Temp\ccpEIuqL.s 			page 71


 3248              		.cfi_def_cfa_register 7
 3249 0006 7860     		str	r0, [r7, #4]
 742:Api\core\src/vl53l0x_api.c **** 	VL53L0X_Error Status = VL53L0X_ERROR_NONE;
 3250              		.loc 1 742 0
 3251 0008 0F23     		movs	r3, #15
 3252 000a FB18     		adds	r3, r7, r3
 3253 000c 0022     		movs	r2, #0
 3254 000e 1A70     		strb	r2, [r3]
 743:Api\core\src/vl53l0x_api.c **** 	uint8_t Byte;
 744:Api\core\src/vl53l0x_api.c **** 	LOG_FUNCTION_START("");
 745:Api\core\src/vl53l0x_api.c **** 
 746:Api\core\src/vl53l0x_api.c **** 	/* Set reset bit */
 747:Api\core\src/vl53l0x_api.c **** 	Status = VL53L0X_WrByte(Dev, VL53L0X_REG_SOFT_RESET_GO2_SOFT_RESET_N,
 3255              		.loc 1 747 0
 3256 0010 0F23     		movs	r3, #15
 3257 0012 FC18     		adds	r4, r7, r3
 3258 0014 7B68     		ldr	r3, [r7, #4]
 3259 0016 0022     		movs	r2, #0
 3260 0018 BF21     		movs	r1, #191
 3261 001a 1800     		movs	r0, r3
 3262 001c FFF7FEFF 		bl	VL53L0X_WrByte
 3263 0020 0300     		movs	r3, r0
 3264 0022 2370     		strb	r3, [r4]
 748:Api\core\src/vl53l0x_api.c **** 		0x00);
 749:Api\core\src/vl53l0x_api.c **** 
 750:Api\core\src/vl53l0x_api.c **** 	/* Wait for some time */
 751:Api\core\src/vl53l0x_api.c **** 	if (Status == VL53L0X_ERROR_NONE) {
 3265              		.loc 1 751 0
 3266 0024 0F23     		movs	r3, #15
 3267 0026 FB18     		adds	r3, r7, r3
 3268 0028 1B78     		ldrb	r3, [r3]
 3269 002a 5BB2     		sxtb	r3, r3
 3270 002c 002B     		cmp	r3, #0
 3271 002e 0FD1     		bne	.L114
 3272              	.L115:
 752:Api\core\src/vl53l0x_api.c **** 		do {
 753:Api\core\src/vl53l0x_api.c **** 			Status = VL53L0X_RdByte(Dev,
 3273              		.loc 1 753 0 discriminator 1
 3274 0030 0F23     		movs	r3, #15
 3275 0032 FC18     		adds	r4, r7, r3
 3276 0034 0E23     		movs	r3, #14
 3277 0036 FA18     		adds	r2, r7, r3
 3278 0038 7B68     		ldr	r3, [r7, #4]
 3279 003a C021     		movs	r1, #192
 3280 003c 1800     		movs	r0, r3
 3281 003e FFF7FEFF 		bl	VL53L0X_RdByte
 3282 0042 0300     		movs	r3, r0
 3283 0044 2370     		strb	r3, [r4]
 754:Api\core\src/vl53l0x_api.c **** 			VL53L0X_REG_IDENTIFICATION_MODEL_ID, &Byte);
 755:Api\core\src/vl53l0x_api.c **** 		} while (Byte != 0x00);
 3284              		.loc 1 755 0 discriminator 1
 3285 0046 0E23     		movs	r3, #14
 3286 0048 FB18     		adds	r3, r7, r3
 3287 004a 1B78     		ldrb	r3, [r3]
 3288 004c 002B     		cmp	r3, #0
 3289 004e EFD1     		bne	.L115
 3290              	.L114:
ARM GAS  C:\Users\ilya\AppData\Local\Temp\ccpEIuqL.s 			page 72


 756:Api\core\src/vl53l0x_api.c **** 	}
 757:Api\core\src/vl53l0x_api.c **** 
 758:Api\core\src/vl53l0x_api.c **** 	VL53L0X_PollingDelay(Dev);
 3291              		.loc 1 758 0
 3292 0050 7B68     		ldr	r3, [r7, #4]
 3293 0052 1800     		movs	r0, r3
 3294 0054 FFF7FEFF 		bl	VL53L0X_PollingDelay
 759:Api\core\src/vl53l0x_api.c **** 
 760:Api\core\src/vl53l0x_api.c **** 	/* Release reset */
 761:Api\core\src/vl53l0x_api.c **** 	Status = VL53L0X_WrByte(Dev, VL53L0X_REG_SOFT_RESET_GO2_SOFT_RESET_N,
 3295              		.loc 1 761 0
 3296 0058 0F23     		movs	r3, #15
 3297 005a FC18     		adds	r4, r7, r3
 3298 005c 7B68     		ldr	r3, [r7, #4]
 3299 005e 0122     		movs	r2, #1
 3300 0060 BF21     		movs	r1, #191
 3301 0062 1800     		movs	r0, r3
 3302 0064 FFF7FEFF 		bl	VL53L0X_WrByte
 3303 0068 0300     		movs	r3, r0
 3304 006a 2370     		strb	r3, [r4]
 762:Api\core\src/vl53l0x_api.c **** 		0x01);
 763:Api\core\src/vl53l0x_api.c **** 
 764:Api\core\src/vl53l0x_api.c **** 	/* Wait until correct boot-up of the device */
 765:Api\core\src/vl53l0x_api.c **** 	if (Status == VL53L0X_ERROR_NONE) {
 3305              		.loc 1 765 0
 3306 006c 0F23     		movs	r3, #15
 3307 006e FB18     		adds	r3, r7, r3
 3308 0070 1B78     		ldrb	r3, [r3]
 3309 0072 5BB2     		sxtb	r3, r3
 3310 0074 002B     		cmp	r3, #0
 3311 0076 0FD1     		bne	.L116
 3312              	.L117:
 766:Api\core\src/vl53l0x_api.c **** 		do {
 767:Api\core\src/vl53l0x_api.c **** 			Status = VL53L0X_RdByte(Dev,
 3313              		.loc 1 767 0 discriminator 1
 3314 0078 0F23     		movs	r3, #15
 3315 007a FC18     		adds	r4, r7, r3
 3316 007c 0E23     		movs	r3, #14
 3317 007e FA18     		adds	r2, r7, r3
 3318 0080 7B68     		ldr	r3, [r7, #4]
 3319 0082 C021     		movs	r1, #192
 3320 0084 1800     		movs	r0, r3
 3321 0086 FFF7FEFF 		bl	VL53L0X_RdByte
 3322 008a 0300     		movs	r3, r0
 3323 008c 2370     		strb	r3, [r4]
 768:Api\core\src/vl53l0x_api.c **** 			VL53L0X_REG_IDENTIFICATION_MODEL_ID, &Byte);
 769:Api\core\src/vl53l0x_api.c **** 		} while (Byte == 0x00);
 3324              		.loc 1 769 0 discriminator 1
 3325 008e 0E23     		movs	r3, #14
 3326 0090 FB18     		adds	r3, r7, r3
 3327 0092 1B78     		ldrb	r3, [r3]
 3328 0094 002B     		cmp	r3, #0
 3329 0096 EFD0     		beq	.L117
 3330              	.L116:
 770:Api\core\src/vl53l0x_api.c **** 	}
 771:Api\core\src/vl53l0x_api.c **** 
 772:Api\core\src/vl53l0x_api.c **** 	VL53L0X_PollingDelay(Dev);
ARM GAS  C:\Users\ilya\AppData\Local\Temp\ccpEIuqL.s 			page 73


 3331              		.loc 1 772 0
 3332 0098 7B68     		ldr	r3, [r7, #4]
 3333 009a 1800     		movs	r0, r3
 3334 009c FFF7FEFF 		bl	VL53L0X_PollingDelay
 773:Api\core\src/vl53l0x_api.c **** 
 774:Api\core\src/vl53l0x_api.c **** 	/* Set PAL State to VL53L0X_STATE_POWERDOWN */
 775:Api\core\src/vl53l0x_api.c **** 	if (Status == VL53L0X_ERROR_NONE)
 3335              		.loc 1 775 0
 3336 00a0 0F23     		movs	r3, #15
 3337 00a2 FB18     		adds	r3, r7, r3
 3338 00a4 1B78     		ldrb	r3, [r3]
 3339 00a6 5BB2     		sxtb	r3, r3
 3340 00a8 002B     		cmp	r3, #0
 3341 00aa 04D1     		bne	.L118
 776:Api\core\src/vl53l0x_api.c **** 		PALDevDataSet(Dev, PalState, VL53L0X_STATE_POWERDOWN);
 3342              		.loc 1 776 0
 3343 00ac 7A68     		ldr	r2, [r7, #4]
 3344 00ae 9923     		movs	r3, #153
 3345 00b0 5B00     		lsls	r3, r3, #1
 3346 00b2 0021     		movs	r1, #0
 3347 00b4 D154     		strb	r1, [r2, r3]
 3348              	.L118:
 777:Api\core\src/vl53l0x_api.c **** 
 778:Api\core\src/vl53l0x_api.c **** 
 779:Api\core\src/vl53l0x_api.c **** 	LOG_FUNCTION_END(Status);
 780:Api\core\src/vl53l0x_api.c **** 	return Status;
 3349              		.loc 1 780 0
 3350 00b6 0F23     		movs	r3, #15
 3351 00b8 FB18     		adds	r3, r7, r3
 3352 00ba 1B78     		ldrb	r3, [r3]
 3353 00bc 5BB2     		sxtb	r3, r3
 781:Api\core\src/vl53l0x_api.c **** }
 3354              		.loc 1 781 0
 3355 00be 1800     		movs	r0, r3
 3356 00c0 BD46     		mov	sp, r7
 3357 00c2 05B0     		add	sp, sp, #20
 3358              		@ sp needed
 3359 00c4 90BD     		pop	{r4, r7, pc}
 3360              		.cfi_endproc
 3361              	.LFE26:
 3362              		.size	VL53L0X_ResetDevice, .-VL53L0X_ResetDevice
 3363 00c6 C046     		.section	.text.VL53L0X_SetDeviceParameters,"ax",%progbits
 3364              		.align	2
 3365              		.global	VL53L0X_SetDeviceParameters
 3366              		.code	16
 3367              		.thumb_func
 3368              		.type	VL53L0X_SetDeviceParameters, %function
 3369              	VL53L0X_SetDeviceParameters:
 3370              	.LFB27:
 782:Api\core\src/vl53l0x_api.c **** /* End Group PAL Init Functions */
 783:Api\core\src/vl53l0x_api.c **** 
 784:Api\core\src/vl53l0x_api.c **** /* Group PAL Parameters Functions */
 785:Api\core\src/vl53l0x_api.c **** VL53L0X_Error VL53L0X_SetDeviceParameters(VL53L0X_DEV Dev,
 786:Api\core\src/vl53l0x_api.c **** 	const VL53L0X_DeviceParameters_t *pDeviceParameters)
 787:Api\core\src/vl53l0x_api.c **** {
 3371              		.loc 1 787 0
 3372              		.cfi_startproc
ARM GAS  C:\Users\ilya\AppData\Local\Temp\ccpEIuqL.s 			page 74


 3373              		@ args = 0, pretend = 0, frame = 16
 3374              		@ frame_needed = 1, uses_anonymous_args = 0
 3375 0000 90B5     		push	{r4, r7, lr}
 3376              		.cfi_def_cfa_offset 12
 3377              		.cfi_offset 4, -12
 3378              		.cfi_offset 7, -8
 3379              		.cfi_offset 14, -4
 3380 0002 85B0     		sub	sp, sp, #20
 3381              		.cfi_def_cfa_offset 32
 3382 0004 00AF     		add	r7, sp, #0
 3383              		.cfi_def_cfa_register 7
 3384 0006 7860     		str	r0, [r7, #4]
 3385 0008 3960     		str	r1, [r7]
 788:Api\core\src/vl53l0x_api.c **** 	VL53L0X_Error Status = VL53L0X_ERROR_NONE;
 3386              		.loc 1 788 0
 3387 000a 0F23     		movs	r3, #15
 3388 000c FB18     		adds	r3, r7, r3
 3389 000e 0022     		movs	r2, #0
 3390 0010 1A70     		strb	r2, [r3]
 789:Api\core\src/vl53l0x_api.c **** 	int i;
 790:Api\core\src/vl53l0x_api.c **** 	LOG_FUNCTION_START("");
 791:Api\core\src/vl53l0x_api.c **** 	Status = VL53L0X_SetDeviceMode(Dev, pDeviceParameters->DeviceMode);
 3391              		.loc 1 791 0
 3392 0012 3B68     		ldr	r3, [r7]
 3393 0014 1A78     		ldrb	r2, [r3]
 3394 0016 0F23     		movs	r3, #15
 3395 0018 FC18     		adds	r4, r7, r3
 3396 001a 7B68     		ldr	r3, [r7, #4]
 3397 001c 1100     		movs	r1, r2
 3398 001e 1800     		movs	r0, r3
 3399 0020 FFF7FEFF 		bl	VL53L0X_SetDeviceMode
 3400 0024 0300     		movs	r3, r0
 3401 0026 2370     		strb	r3, [r4]
 792:Api\core\src/vl53l0x_api.c **** 
 793:Api\core\src/vl53l0x_api.c **** 	if (Status == VL53L0X_ERROR_NONE)
 3402              		.loc 1 793 0
 3403 0028 0F23     		movs	r3, #15
 3404 002a FB18     		adds	r3, r7, r3
 3405 002c 1B78     		ldrb	r3, [r3]
 3406 002e 5BB2     		sxtb	r3, r3
 3407 0030 002B     		cmp	r3, #0
 3408 0032 0AD1     		bne	.L121
 794:Api\core\src/vl53l0x_api.c **** 		Status = VL53L0X_SetInterMeasurementPeriodMilliSeconds(Dev,
 3409              		.loc 1 794 0
 3410 0034 3B68     		ldr	r3, [r7]
 3411 0036 9A68     		ldr	r2, [r3, #8]
 3412 0038 0F23     		movs	r3, #15
 3413 003a FC18     		adds	r4, r7, r3
 3414 003c 7B68     		ldr	r3, [r7, #4]
 3415 003e 1100     		movs	r1, r2
 3416 0040 1800     		movs	r0, r3
 3417 0042 FFF7FEFF 		bl	VL53L0X_SetInterMeasurementPeriodMilliSeconds
 3418 0046 0300     		movs	r3, r0
 3419 0048 2370     		strb	r3, [r4]
 3420              	.L121:
 795:Api\core\src/vl53l0x_api.c **** 			pDeviceParameters->InterMeasurementPeriodMilliSeconds);
 796:Api\core\src/vl53l0x_api.c **** 
ARM GAS  C:\Users\ilya\AppData\Local\Temp\ccpEIuqL.s 			page 75


 797:Api\core\src/vl53l0x_api.c **** 
 798:Api\core\src/vl53l0x_api.c **** 	if (Status == VL53L0X_ERROR_NONE)
 3421              		.loc 1 798 0
 3422 004a 0F23     		movs	r3, #15
 3423 004c FB18     		adds	r3, r7, r3
 3424 004e 1B78     		ldrb	r3, [r3]
 3425 0050 5BB2     		sxtb	r3, r3
 3426 0052 002B     		cmp	r3, #0
 3427 0054 0AD1     		bne	.L122
 799:Api\core\src/vl53l0x_api.c **** 		Status = VL53L0X_SetXTalkCompensationRateMegaCps(Dev,
 3428              		.loc 1 799 0
 3429 0056 3B68     		ldr	r3, [r7]
 3430 0058 1A69     		ldr	r2, [r3, #16]
 3431 005a 0F23     		movs	r3, #15
 3432 005c FC18     		adds	r4, r7, r3
 3433 005e 7B68     		ldr	r3, [r7, #4]
 3434 0060 1100     		movs	r1, r2
 3435 0062 1800     		movs	r0, r3
 3436 0064 FFF7FEFF 		bl	VL53L0X_SetXTalkCompensationRateMegaCps
 3437 0068 0300     		movs	r3, r0
 3438 006a 2370     		strb	r3, [r4]
 3439              	.L122:
 800:Api\core\src/vl53l0x_api.c **** 			pDeviceParameters->XTalkCompensationRateMegaCps);
 801:Api\core\src/vl53l0x_api.c **** 
 802:Api\core\src/vl53l0x_api.c **** 
 803:Api\core\src/vl53l0x_api.c **** 	if (Status == VL53L0X_ERROR_NONE)
 3440              		.loc 1 803 0
 3441 006c 0F23     		movs	r3, #15
 3442 006e FB18     		adds	r3, r7, r3
 3443 0070 1B78     		ldrb	r3, [r3]
 3444 0072 5BB2     		sxtb	r3, r3
 3445 0074 002B     		cmp	r3, #0
 3446 0076 0AD1     		bne	.L123
 804:Api\core\src/vl53l0x_api.c **** 		Status = VL53L0X_SetOffsetCalibrationDataMicroMeter(Dev,
 3447              		.loc 1 804 0
 3448 0078 3B68     		ldr	r3, [r7]
 3449 007a 5A69     		ldr	r2, [r3, #20]
 3450 007c 0F23     		movs	r3, #15
 3451 007e FC18     		adds	r4, r7, r3
 3452 0080 7B68     		ldr	r3, [r7, #4]
 3453 0082 1100     		movs	r1, r2
 3454 0084 1800     		movs	r0, r3
 3455 0086 FFF7FEFF 		bl	VL53L0X_SetOffsetCalibrationDataMicroMeter
 3456 008a 0300     		movs	r3, r0
 3457 008c 2370     		strb	r3, [r4]
 3458              	.L123:
 805:Api\core\src/vl53l0x_api.c **** 			pDeviceParameters->RangeOffsetMicroMeters);
 806:Api\core\src/vl53l0x_api.c **** 
 807:Api\core\src/vl53l0x_api.c **** 
 808:Api\core\src/vl53l0x_api.c **** 	for (i = 0; i < VL53L0X_CHECKENABLE_NUMBER_OF_CHECKS; i++) {
 3459              		.loc 1 808 0
 3460 008e 0023     		movs	r3, #0
 3461 0090 BB60     		str	r3, [r7, #8]
 3462 0092 38E0     		b	.L124
 3463              	.L130:
 809:Api\core\src/vl53l0x_api.c **** 		if (Status == VL53L0X_ERROR_NONE)
 3464              		.loc 1 809 0
ARM GAS  C:\Users\ilya\AppData\Local\Temp\ccpEIuqL.s 			page 76


 3465 0094 0F23     		movs	r3, #15
 3466 0096 FB18     		adds	r3, r7, r3
 3467 0098 1B78     		ldrb	r3, [r3]
 3468 009a 5BB2     		sxtb	r3, r3
 3469 009c 002B     		cmp	r3, #0
 3470 009e 36D1     		bne	.L134
 810:Api\core\src/vl53l0x_api.c **** 			Status |= VL53L0X_SetLimitCheckEnable(Dev, i,
 3471              		.loc 1 810 0
 3472 00a0 BB68     		ldr	r3, [r7, #8]
 3473 00a2 99B2     		uxth	r1, r3
 3474 00a4 3A68     		ldr	r2, [r7]
 3475 00a6 BB68     		ldr	r3, [r7, #8]
 3476 00a8 D318     		adds	r3, r2, r3
 3477 00aa 1833     		adds	r3, r3, #24
 3478 00ac 1A78     		ldrb	r2, [r3]
 3479 00ae 7B68     		ldr	r3, [r7, #4]
 3480 00b0 1800     		movs	r0, r3
 3481 00b2 FFF7FEFF 		bl	VL53L0X_SetLimitCheckEnable
 3482 00b6 0300     		movs	r3, r0
 3483 00b8 1900     		movs	r1, r3
 3484 00ba 0F23     		movs	r3, #15
 3485 00bc FB18     		adds	r3, r7, r3
 3486 00be 0F22     		movs	r2, #15
 3487 00c0 BA18     		adds	r2, r7, r2
 3488 00c2 1278     		ldrb	r2, [r2]
 3489 00c4 0A43     		orrs	r2, r1
 3490 00c6 1A70     		strb	r2, [r3]
 811:Api\core\src/vl53l0x_api.c **** 				pDeviceParameters->LimitChecksEnable[i]);
 812:Api\core\src/vl53l0x_api.c **** 		else
 813:Api\core\src/vl53l0x_api.c **** 			break;
 814:Api\core\src/vl53l0x_api.c **** 
 815:Api\core\src/vl53l0x_api.c **** 		if (Status == VL53L0X_ERROR_NONE)
 3491              		.loc 1 815 0
 3492 00c8 0F23     		movs	r3, #15
 3493 00ca FB18     		adds	r3, r7, r3
 3494 00cc 1B78     		ldrb	r3, [r3]
 3495 00ce 5BB2     		sxtb	r3, r3
 3496 00d0 002B     		cmp	r3, #0
 3497 00d2 1ED1     		bne	.L135
 816:Api\core\src/vl53l0x_api.c **** 			Status |= VL53L0X_SetLimitCheckValue(Dev, i,
 3498              		.loc 1 816 0
 3499 00d4 BB68     		ldr	r3, [r7, #8]
 3500 00d6 99B2     		uxth	r1, r3
 3501 00d8 3A68     		ldr	r2, [r7]
 3502 00da BB68     		ldr	r3, [r7, #8]
 3503 00dc 0833     		adds	r3, r3, #8
 3504 00de 9B00     		lsls	r3, r3, #2
 3505 00e0 D318     		adds	r3, r2, r3
 3506 00e2 0433     		adds	r3, r3, #4
 3507 00e4 1A68     		ldr	r2, [r3]
 3508 00e6 7B68     		ldr	r3, [r7, #4]
 3509 00e8 1800     		movs	r0, r3
 3510 00ea FFF7FEFF 		bl	VL53L0X_SetLimitCheckValue
 3511 00ee 0300     		movs	r3, r0
 3512 00f0 1900     		movs	r1, r3
 3513 00f2 0F23     		movs	r3, #15
 3514 00f4 FB18     		adds	r3, r7, r3
ARM GAS  C:\Users\ilya\AppData\Local\Temp\ccpEIuqL.s 			page 77


 3515 00f6 0F22     		movs	r2, #15
 3516 00f8 BA18     		adds	r2, r7, r2
 3517 00fa 1278     		ldrb	r2, [r2]
 3518 00fc 0A43     		orrs	r2, r1
 3519 00fe 1A70     		strb	r2, [r3]
 808:Api\core\src/vl53l0x_api.c **** 		if (Status == VL53L0X_ERROR_NONE)
 3520              		.loc 1 808 0
 3521 0100 BB68     		ldr	r3, [r7, #8]
 3522 0102 0133     		adds	r3, r3, #1
 3523 0104 BB60     		str	r3, [r7, #8]
 3524              	.L124:
 808:Api\core\src/vl53l0x_api.c **** 		if (Status == VL53L0X_ERROR_NONE)
 3525              		.loc 1 808 0 is_stmt 0 discriminator 1
 3526 0106 BB68     		ldr	r3, [r7, #8]
 3527 0108 052B     		cmp	r3, #5
 3528 010a C3DD     		ble	.L130
 3529 010c 02E0     		b	.L127
 3530              	.L134:
 813:Api\core\src/vl53l0x_api.c **** 
 3531              		.loc 1 813 0 is_stmt 1
 3532 010e C046     		nop
 3533 0110 00E0     		b	.L127
 3534              	.L135:
 817:Api\core\src/vl53l0x_api.c **** 				pDeviceParameters->LimitChecksValue[i]);
 818:Api\core\src/vl53l0x_api.c **** 		else
 819:Api\core\src/vl53l0x_api.c **** 			break;
 3535              		.loc 1 819 0
 3536 0112 C046     		nop
 3537              	.L127:
 820:Api\core\src/vl53l0x_api.c **** 
 821:Api\core\src/vl53l0x_api.c **** 	}
 822:Api\core\src/vl53l0x_api.c **** 
 823:Api\core\src/vl53l0x_api.c **** 	if (Status == VL53L0X_ERROR_NONE)
 3538              		.loc 1 823 0
 3539 0114 0F23     		movs	r3, #15
 3540 0116 FB18     		adds	r3, r7, r3
 3541 0118 1B78     		ldrb	r3, [r3]
 3542 011a 5BB2     		sxtb	r3, r3
 3543 011c 002B     		cmp	r3, #0
 3544 011e 0BD1     		bne	.L131
 824:Api\core\src/vl53l0x_api.c **** 		Status = VL53L0X_SetWrapAroundCheckEnable(Dev,
 3545              		.loc 1 824 0
 3546 0120 3B68     		ldr	r3, [r7]
 3547 0122 3C22     		movs	r2, #60
 3548 0124 9A5C     		ldrb	r2, [r3, r2]
 3549 0126 0F23     		movs	r3, #15
 3550 0128 FC18     		adds	r4, r7, r3
 3551 012a 7B68     		ldr	r3, [r7, #4]
 3552 012c 1100     		movs	r1, r2
 3553 012e 1800     		movs	r0, r3
 3554 0130 FFF7FEFF 		bl	VL53L0X_SetWrapAroundCheckEnable
 3555 0134 0300     		movs	r3, r0
 3556 0136 2370     		strb	r3, [r4]
 3557              	.L131:
 825:Api\core\src/vl53l0x_api.c **** 			pDeviceParameters->WrapAroundCheckEnable);
 826:Api\core\src/vl53l0x_api.c **** 
 827:Api\core\src/vl53l0x_api.c **** 	if (Status == VL53L0X_ERROR_NONE)
ARM GAS  C:\Users\ilya\AppData\Local\Temp\ccpEIuqL.s 			page 78


 3558              		.loc 1 827 0
 3559 0138 0F23     		movs	r3, #15
 3560 013a FB18     		adds	r3, r7, r3
 3561 013c 1B78     		ldrb	r3, [r3]
 3562 013e 5BB2     		sxtb	r3, r3
 3563 0140 002B     		cmp	r3, #0
 3564 0142 0AD1     		bne	.L132
 828:Api\core\src/vl53l0x_api.c **** 		Status = VL53L0X_SetMeasurementTimingBudgetMicroSeconds(Dev,
 3565              		.loc 1 828 0
 3566 0144 3B68     		ldr	r3, [r7]
 3567 0146 5A68     		ldr	r2, [r3, #4]
 3568 0148 0F23     		movs	r3, #15
 3569 014a FC18     		adds	r4, r7, r3
 3570 014c 7B68     		ldr	r3, [r7, #4]
 3571 014e 1100     		movs	r1, r2
 3572 0150 1800     		movs	r0, r3
 3573 0152 FFF7FEFF 		bl	VL53L0X_SetMeasurementTimingBudgetMicroSeconds
 3574 0156 0300     		movs	r3, r0
 3575 0158 2370     		strb	r3, [r4]
 3576              	.L132:
 829:Api\core\src/vl53l0x_api.c **** 			pDeviceParameters->MeasurementTimingBudgetMicroSeconds);
 830:Api\core\src/vl53l0x_api.c **** 
 831:Api\core\src/vl53l0x_api.c **** 
 832:Api\core\src/vl53l0x_api.c **** 	LOG_FUNCTION_END(Status);
 833:Api\core\src/vl53l0x_api.c **** 	return Status;
 3577              		.loc 1 833 0
 3578 015a 0F23     		movs	r3, #15
 3579 015c FB18     		adds	r3, r7, r3
 3580 015e 1B78     		ldrb	r3, [r3]
 3581 0160 5BB2     		sxtb	r3, r3
 834:Api\core\src/vl53l0x_api.c **** }
 3582              		.loc 1 834 0
 3583 0162 1800     		movs	r0, r3
 3584 0164 BD46     		mov	sp, r7
 3585 0166 05B0     		add	sp, sp, #20
 3586              		@ sp needed
 3587 0168 90BD     		pop	{r4, r7, pc}
 3588              		.cfi_endproc
 3589              	.LFE27:
 3590              		.size	VL53L0X_SetDeviceParameters, .-VL53L0X_SetDeviceParameters
 3591 016a C046     		.section	.text.VL53L0X_GetDeviceParameters,"ax",%progbits
 3592              		.align	2
 3593              		.global	VL53L0X_GetDeviceParameters
 3594              		.code	16
 3595              		.thumb_func
 3596              		.type	VL53L0X_GetDeviceParameters, %function
 3597              	VL53L0X_GetDeviceParameters:
 3598              	.LFB28:
 835:Api\core\src/vl53l0x_api.c **** 
 836:Api\core\src/vl53l0x_api.c **** VL53L0X_Error VL53L0X_GetDeviceParameters(VL53L0X_DEV Dev,
 837:Api\core\src/vl53l0x_api.c **** 	VL53L0X_DeviceParameters_t *pDeviceParameters)
 838:Api\core\src/vl53l0x_api.c **** {
 3599              		.loc 1 838 0
 3600              		.cfi_startproc
 3601              		@ args = 0, pretend = 0, frame = 16
 3602              		@ frame_needed = 1, uses_anonymous_args = 0
 3603 0000 90B5     		push	{r4, r7, lr}
ARM GAS  C:\Users\ilya\AppData\Local\Temp\ccpEIuqL.s 			page 79


 3604              		.cfi_def_cfa_offset 12
 3605              		.cfi_offset 4, -12
 3606              		.cfi_offset 7, -8
 3607              		.cfi_offset 14, -4
 3608 0002 85B0     		sub	sp, sp, #20
 3609              		.cfi_def_cfa_offset 32
 3610 0004 00AF     		add	r7, sp, #0
 3611              		.cfi_def_cfa_register 7
 3612 0006 7860     		str	r0, [r7, #4]
 3613 0008 3960     		str	r1, [r7]
 839:Api\core\src/vl53l0x_api.c **** 	VL53L0X_Error Status = VL53L0X_ERROR_NONE;
 3614              		.loc 1 839 0
 3615 000a 0F23     		movs	r3, #15
 3616 000c FB18     		adds	r3, r7, r3
 3617 000e 0022     		movs	r2, #0
 3618 0010 1A70     		strb	r2, [r3]
 840:Api\core\src/vl53l0x_api.c **** 	int i;
 841:Api\core\src/vl53l0x_api.c **** 
 842:Api\core\src/vl53l0x_api.c **** 	LOG_FUNCTION_START("");
 843:Api\core\src/vl53l0x_api.c **** 
 844:Api\core\src/vl53l0x_api.c **** 	Status = VL53L0X_GetDeviceMode(Dev, &(pDeviceParameters->DeviceMode));
 3619              		.loc 1 844 0
 3620 0012 3A68     		ldr	r2, [r7]
 3621 0014 0F23     		movs	r3, #15
 3622 0016 FC18     		adds	r4, r7, r3
 3623 0018 7B68     		ldr	r3, [r7, #4]
 3624 001a 1100     		movs	r1, r2
 3625 001c 1800     		movs	r0, r3
 3626 001e FFF7FEFF 		bl	VL53L0X_GetDeviceMode
 3627 0022 0300     		movs	r3, r0
 3628 0024 2370     		strb	r3, [r4]
 845:Api\core\src/vl53l0x_api.c **** 
 846:Api\core\src/vl53l0x_api.c **** 	if (Status == VL53L0X_ERROR_NONE)
 3629              		.loc 1 846 0
 3630 0026 0F23     		movs	r3, #15
 3631 0028 FB18     		adds	r3, r7, r3
 3632 002a 1B78     		ldrb	r3, [r3]
 3633 002c 5BB2     		sxtb	r3, r3
 3634 002e 002B     		cmp	r3, #0
 3635 0030 0BD1     		bne	.L137
 847:Api\core\src/vl53l0x_api.c **** 		Status = VL53L0X_GetInterMeasurementPeriodMilliSeconds(Dev,
 3636              		.loc 1 847 0
 3637 0032 3B68     		ldr	r3, [r7]
 3638 0034 0833     		adds	r3, r3, #8
 3639 0036 1A00     		movs	r2, r3
 3640 0038 0F23     		movs	r3, #15
 3641 003a FC18     		adds	r4, r7, r3
 3642 003c 7B68     		ldr	r3, [r7, #4]
 3643 003e 1100     		movs	r1, r2
 3644 0040 1800     		movs	r0, r3
 3645 0042 FFF7FEFF 		bl	VL53L0X_GetInterMeasurementPeriodMilliSeconds
 3646 0046 0300     		movs	r3, r0
 3647 0048 2370     		strb	r3, [r4]
 3648              	.L137:
 848:Api\core\src/vl53l0x_api.c **** 		&(pDeviceParameters->InterMeasurementPeriodMilliSeconds));
 849:Api\core\src/vl53l0x_api.c **** 
 850:Api\core\src/vl53l0x_api.c **** 
ARM GAS  C:\Users\ilya\AppData\Local\Temp\ccpEIuqL.s 			page 80


 851:Api\core\src/vl53l0x_api.c **** 	if (Status == VL53L0X_ERROR_NONE)
 3649              		.loc 1 851 0
 3650 004a 0F23     		movs	r3, #15
 3651 004c FB18     		adds	r3, r7, r3
 3652 004e 1B78     		ldrb	r3, [r3]
 3653 0050 5BB2     		sxtb	r3, r3
 3654 0052 002B     		cmp	r3, #0
 3655 0054 02D1     		bne	.L138
 852:Api\core\src/vl53l0x_api.c **** 		pDeviceParameters->XTalkCompensationEnable = 0;
 3656              		.loc 1 852 0
 3657 0056 3B68     		ldr	r3, [r7]
 3658 0058 0022     		movs	r2, #0
 3659 005a 1A73     		strb	r2, [r3, #12]
 3660              	.L138:
 853:Api\core\src/vl53l0x_api.c **** 
 854:Api\core\src/vl53l0x_api.c **** 	if (Status == VL53L0X_ERROR_NONE)
 3661              		.loc 1 854 0
 3662 005c 0F23     		movs	r3, #15
 3663 005e FB18     		adds	r3, r7, r3
 3664 0060 1B78     		ldrb	r3, [r3]
 3665 0062 5BB2     		sxtb	r3, r3
 3666 0064 002B     		cmp	r3, #0
 3667 0066 0BD1     		bne	.L139
 855:Api\core\src/vl53l0x_api.c **** 		Status = VL53L0X_GetXTalkCompensationRateMegaCps(Dev,
 3668              		.loc 1 855 0
 3669 0068 3B68     		ldr	r3, [r7]
 3670 006a 1033     		adds	r3, r3, #16
 3671 006c 1A00     		movs	r2, r3
 3672 006e 0F23     		movs	r3, #15
 3673 0070 FC18     		adds	r4, r7, r3
 3674 0072 7B68     		ldr	r3, [r7, #4]
 3675 0074 1100     		movs	r1, r2
 3676 0076 1800     		movs	r0, r3
 3677 0078 FFF7FEFF 		bl	VL53L0X_GetXTalkCompensationRateMegaCps
 3678 007c 0300     		movs	r3, r0
 3679 007e 2370     		strb	r3, [r4]
 3680              	.L139:
 856:Api\core\src/vl53l0x_api.c **** 			&(pDeviceParameters->XTalkCompensationRateMegaCps));
 857:Api\core\src/vl53l0x_api.c **** 
 858:Api\core\src/vl53l0x_api.c **** 
 859:Api\core\src/vl53l0x_api.c **** 	if (Status == VL53L0X_ERROR_NONE)
 3681              		.loc 1 859 0
 3682 0080 0F23     		movs	r3, #15
 3683 0082 FB18     		adds	r3, r7, r3
 3684 0084 1B78     		ldrb	r3, [r3]
 3685 0086 5BB2     		sxtb	r3, r3
 3686 0088 002B     		cmp	r3, #0
 3687 008a 0BD1     		bne	.L140
 860:Api\core\src/vl53l0x_api.c **** 		Status = VL53L0X_GetOffsetCalibrationDataMicroMeter(Dev,
 3688              		.loc 1 860 0
 3689 008c 3B68     		ldr	r3, [r7]
 3690 008e 1433     		adds	r3, r3, #20
 3691 0090 1A00     		movs	r2, r3
 3692 0092 0F23     		movs	r3, #15
 3693 0094 FC18     		adds	r4, r7, r3
 3694 0096 7B68     		ldr	r3, [r7, #4]
 3695 0098 1100     		movs	r1, r2
ARM GAS  C:\Users\ilya\AppData\Local\Temp\ccpEIuqL.s 			page 81


 3696 009a 1800     		movs	r0, r3
 3697 009c FFF7FEFF 		bl	VL53L0X_GetOffsetCalibrationDataMicroMeter
 3698 00a0 0300     		movs	r3, r0
 3699 00a2 2370     		strb	r3, [r4]
 3700              	.L140:
 861:Api\core\src/vl53l0x_api.c **** 			&(pDeviceParameters->RangeOffsetMicroMeters));
 862:Api\core\src/vl53l0x_api.c **** 
 863:Api\core\src/vl53l0x_api.c **** 
 864:Api\core\src/vl53l0x_api.c **** 	if (Status == VL53L0X_ERROR_NONE) {
 3701              		.loc 1 864 0
 3702 00a4 0F23     		movs	r3, #15
 3703 00a6 FB18     		adds	r3, r7, r3
 3704 00a8 1B78     		ldrb	r3, [r3]
 3705 00aa 5BB2     		sxtb	r3, r3
 3706 00ac 002B     		cmp	r3, #0
 3707 00ae 40D1     		bne	.L141
 865:Api\core\src/vl53l0x_api.c **** 		for (i = 0; i < VL53L0X_CHECKENABLE_NUMBER_OF_CHECKS; i++) {
 3708              		.loc 1 865 0
 3709 00b0 0023     		movs	r3, #0
 3710 00b2 BB60     		str	r3, [r7, #8]
 3711 00b4 36E0     		b	.L142
 3712              	.L147:
 866:Api\core\src/vl53l0x_api.c **** 			/* get first the values, then the enables.
 867:Api\core\src/vl53l0x_api.c **** 			 * VL53L0X_GetLimitCheckValue will modify the enable
 868:Api\core\src/vl53l0x_api.c **** 			 * flags
 869:Api\core\src/vl53l0x_api.c **** 			 */
 870:Api\core\src/vl53l0x_api.c **** 			if (Status == VL53L0X_ERROR_NONE) {
 3713              		.loc 1 870 0
 3714 00b6 0F23     		movs	r3, #15
 3715 00b8 FB18     		adds	r3, r7, r3
 3716 00ba 1B78     		ldrb	r3, [r3]
 3717 00bc 5BB2     		sxtb	r3, r3
 3718 00be 002B     		cmp	r3, #0
 3719 00c0 34D1     		bne	.L151
 871:Api\core\src/vl53l0x_api.c **** 				Status |= VL53L0X_GetLimitCheckValue(Dev, i,
 3720              		.loc 1 871 0
 3721 00c2 BB68     		ldr	r3, [r7, #8]
 3722 00c4 99B2     		uxth	r1, r3
 3723 00c6 BB68     		ldr	r3, [r7, #8]
 3724 00c8 0833     		adds	r3, r3, #8
 3725 00ca 9B00     		lsls	r3, r3, #2
 3726 00cc 3A68     		ldr	r2, [r7]
 3727 00ce D318     		adds	r3, r2, r3
 3728 00d0 1A1D     		adds	r2, r3, #4
 3729 00d2 7B68     		ldr	r3, [r7, #4]
 3730 00d4 1800     		movs	r0, r3
 3731 00d6 FFF7FEFF 		bl	VL53L0X_GetLimitCheckValue
 3732 00da 0300     		movs	r3, r0
 3733 00dc 1900     		movs	r1, r3
 3734 00de 0F23     		movs	r3, #15
 3735 00e0 FB18     		adds	r3, r7, r3
 3736 00e2 0F22     		movs	r2, #15
 3737 00e4 BA18     		adds	r2, r7, r2
 3738 00e6 1278     		ldrb	r2, [r2]
 3739 00e8 0A43     		orrs	r2, r1
 3740 00ea 1A70     		strb	r2, [r3]
 872:Api\core\src/vl53l0x_api.c **** 				&(pDeviceParameters->LimitChecksValue[i]));
ARM GAS  C:\Users\ilya\AppData\Local\Temp\ccpEIuqL.s 			page 82


 873:Api\core\src/vl53l0x_api.c **** 			} else {
 874:Api\core\src/vl53l0x_api.c **** 				break;
 875:Api\core\src/vl53l0x_api.c **** 			}
 876:Api\core\src/vl53l0x_api.c **** 			if (Status == VL53L0X_ERROR_NONE) {
 3741              		.loc 1 876 0
 3742 00ec 0F23     		movs	r3, #15
 3743 00ee FB18     		adds	r3, r7, r3
 3744 00f0 1B78     		ldrb	r3, [r3]
 3745 00f2 5BB2     		sxtb	r3, r3
 3746 00f4 002B     		cmp	r3, #0
 3747 00f6 1BD1     		bne	.L152
 877:Api\core\src/vl53l0x_api.c **** 				Status |= VL53L0X_GetLimitCheckEnable(Dev, i,
 3748              		.loc 1 877 0
 3749 00f8 BB68     		ldr	r3, [r7, #8]
 3750 00fa 99B2     		uxth	r1, r3
 3751 00fc BB68     		ldr	r3, [r7, #8]
 3752 00fe 1833     		adds	r3, r3, #24
 3753 0100 3A68     		ldr	r2, [r7]
 3754 0102 D218     		adds	r2, r2, r3
 3755 0104 7B68     		ldr	r3, [r7, #4]
 3756 0106 1800     		movs	r0, r3
 3757 0108 FFF7FEFF 		bl	VL53L0X_GetLimitCheckEnable
 3758 010c 0300     		movs	r3, r0
 3759 010e 1900     		movs	r1, r3
 3760 0110 0F23     		movs	r3, #15
 3761 0112 FB18     		adds	r3, r7, r3
 3762 0114 0F22     		movs	r2, #15
 3763 0116 BA18     		adds	r2, r7, r2
 3764 0118 1278     		ldrb	r2, [r2]
 3765 011a 0A43     		orrs	r2, r1
 3766 011c 1A70     		strb	r2, [r3]
 865:Api\core\src/vl53l0x_api.c **** 			/* get first the values, then the enables.
 3767              		.loc 1 865 0
 3768 011e BB68     		ldr	r3, [r7, #8]
 3769 0120 0133     		adds	r3, r3, #1
 3770 0122 BB60     		str	r3, [r7, #8]
 3771              	.L142:
 865:Api\core\src/vl53l0x_api.c **** 			/* get first the values, then the enables.
 3772              		.loc 1 865 0 is_stmt 0 discriminator 1
 3773 0124 BB68     		ldr	r3, [r7, #8]
 3774 0126 052B     		cmp	r3, #5
 3775 0128 C5DD     		ble	.L147
 3776 012a 02E0     		b	.L141
 3777              	.L151:
 874:Api\core\src/vl53l0x_api.c **** 			}
 3778              		.loc 1 874 0 is_stmt 1
 3779 012c C046     		nop
 3780 012e 00E0     		b	.L141
 3781              	.L152:
 878:Api\core\src/vl53l0x_api.c **** 				&(pDeviceParameters->LimitChecksEnable[i]));
 879:Api\core\src/vl53l0x_api.c **** 			} else {
 880:Api\core\src/vl53l0x_api.c **** 				break;
 3782              		.loc 1 880 0
 3783 0130 C046     		nop
 3784              	.L141:
 881:Api\core\src/vl53l0x_api.c **** 			}
 882:Api\core\src/vl53l0x_api.c **** 		}
ARM GAS  C:\Users\ilya\AppData\Local\Temp\ccpEIuqL.s 			page 83


 883:Api\core\src/vl53l0x_api.c **** 	}
 884:Api\core\src/vl53l0x_api.c **** 
 885:Api\core\src/vl53l0x_api.c **** 	if (Status == VL53L0X_ERROR_NONE) {
 3785              		.loc 1 885 0
 3786 0132 0F23     		movs	r3, #15
 3787 0134 FB18     		adds	r3, r7, r3
 3788 0136 1B78     		ldrb	r3, [r3]
 3789 0138 5BB2     		sxtb	r3, r3
 3790 013a 002B     		cmp	r3, #0
 3791 013c 0BD1     		bne	.L148
 886:Api\core\src/vl53l0x_api.c **** 		Status = VL53L0X_GetWrapAroundCheckEnable(Dev,
 3792              		.loc 1 886 0
 3793 013e 3B68     		ldr	r3, [r7]
 3794 0140 3C33     		adds	r3, r3, #60
 3795 0142 1A00     		movs	r2, r3
 3796 0144 0F23     		movs	r3, #15
 3797 0146 FC18     		adds	r4, r7, r3
 3798 0148 7B68     		ldr	r3, [r7, #4]
 3799 014a 1100     		movs	r1, r2
 3800 014c 1800     		movs	r0, r3
 3801 014e FFF7FEFF 		bl	VL53L0X_GetWrapAroundCheckEnable
 3802 0152 0300     		movs	r3, r0
 3803 0154 2370     		strb	r3, [r4]
 3804              	.L148:
 887:Api\core\src/vl53l0x_api.c **** 			&(pDeviceParameters->WrapAroundCheckEnable));
 888:Api\core\src/vl53l0x_api.c **** 	}
 889:Api\core\src/vl53l0x_api.c **** 
 890:Api\core\src/vl53l0x_api.c **** 	/* Need to be done at the end as it uses VCSELPulsePeriod */
 891:Api\core\src/vl53l0x_api.c **** 	if (Status == VL53L0X_ERROR_NONE) {
 3805              		.loc 1 891 0
 3806 0156 0F23     		movs	r3, #15
 3807 0158 FB18     		adds	r3, r7, r3
 3808 015a 1B78     		ldrb	r3, [r3]
 3809 015c 5BB2     		sxtb	r3, r3
 3810 015e 002B     		cmp	r3, #0
 3811 0160 0AD1     		bne	.L149
 892:Api\core\src/vl53l0x_api.c **** 		Status = VL53L0X_GetMeasurementTimingBudgetMicroSeconds(Dev,
 3812              		.loc 1 892 0
 3813 0162 3B68     		ldr	r3, [r7]
 3814 0164 1A1D     		adds	r2, r3, #4
 3815 0166 0F23     		movs	r3, #15
 3816 0168 FC18     		adds	r4, r7, r3
 3817 016a 7B68     		ldr	r3, [r7, #4]
 3818 016c 1100     		movs	r1, r2
 3819 016e 1800     		movs	r0, r3
 3820 0170 FFF7FEFF 		bl	VL53L0X_GetMeasurementTimingBudgetMicroSeconds
 3821 0174 0300     		movs	r3, r0
 3822 0176 2370     		strb	r3, [r4]
 3823              	.L149:
 893:Api\core\src/vl53l0x_api.c **** 		&(pDeviceParameters->MeasurementTimingBudgetMicroSeconds));
 894:Api\core\src/vl53l0x_api.c **** 	}
 895:Api\core\src/vl53l0x_api.c **** 
 896:Api\core\src/vl53l0x_api.c **** 	LOG_FUNCTION_END(Status);
 897:Api\core\src/vl53l0x_api.c **** 	return Status;
 3824              		.loc 1 897 0
 3825 0178 0F23     		movs	r3, #15
 3826 017a FB18     		adds	r3, r7, r3
ARM GAS  C:\Users\ilya\AppData\Local\Temp\ccpEIuqL.s 			page 84


 3827 017c 1B78     		ldrb	r3, [r3]
 3828 017e 5BB2     		sxtb	r3, r3
 898:Api\core\src/vl53l0x_api.c **** }
 3829              		.loc 1 898 0
 3830 0180 1800     		movs	r0, r3
 3831 0182 BD46     		mov	sp, r7
 3832 0184 05B0     		add	sp, sp, #20
 3833              		@ sp needed
 3834 0186 90BD     		pop	{r4, r7, pc}
 3835              		.cfi_endproc
 3836              	.LFE28:
 3837              		.size	VL53L0X_GetDeviceParameters, .-VL53L0X_GetDeviceParameters
 3838              		.section	.text.VL53L0X_SetDeviceMode,"ax",%progbits
 3839              		.align	2
 3840              		.global	VL53L0X_SetDeviceMode
 3841              		.code	16
 3842              		.thumb_func
 3843              		.type	VL53L0X_SetDeviceMode, %function
 3844              	VL53L0X_SetDeviceMode:
 3845              	.LFB29:
 899:Api\core\src/vl53l0x_api.c **** 
 900:Api\core\src/vl53l0x_api.c **** VL53L0X_Error VL53L0X_SetDeviceMode(VL53L0X_DEV Dev, VL53L0X_DeviceModes DeviceMode)
 901:Api\core\src/vl53l0x_api.c **** {
 3846              		.loc 1 901 0
 3847              		.cfi_startproc
 3848              		@ args = 0, pretend = 0, frame = 16
 3849              		@ frame_needed = 1, uses_anonymous_args = 0
 3850 0000 80B5     		push	{r7, lr}
 3851              		.cfi_def_cfa_offset 8
 3852              		.cfi_offset 7, -8
 3853              		.cfi_offset 14, -4
 3854 0002 84B0     		sub	sp, sp, #16
 3855              		.cfi_def_cfa_offset 24
 3856 0004 00AF     		add	r7, sp, #0
 3857              		.cfi_def_cfa_register 7
 3858 0006 7860     		str	r0, [r7, #4]
 3859 0008 0A00     		movs	r2, r1
 3860 000a FB1C     		adds	r3, r7, #3
 3861 000c 1A70     		strb	r2, [r3]
 902:Api\core\src/vl53l0x_api.c **** 	VL53L0X_Error Status = VL53L0X_ERROR_NONE;
 3862              		.loc 1 902 0
 3863 000e 0F23     		movs	r3, #15
 3864 0010 FB18     		adds	r3, r7, r3
 3865 0012 0022     		movs	r2, #0
 3866 0014 1A70     		strb	r2, [r3]
 903:Api\core\src/vl53l0x_api.c **** 
 904:Api\core\src/vl53l0x_api.c **** 	LOG_FUNCTION_START("%d", (int)DeviceMode);
 905:Api\core\src/vl53l0x_api.c **** 
 906:Api\core\src/vl53l0x_api.c **** 	switch (DeviceMode) {
 3867              		.loc 1 906 0
 3868 0016 FB1C     		adds	r3, r7, #3
 3869 0018 1B78     		ldrb	r3, [r3]
 3870 001a 152B     		cmp	r3, #21
 3871 001c 09D8     		bhi	.L154
 3872 001e 9A00     		lsls	r2, r3, #2
 3873 0020 0A4B     		ldr	r3, .L159
 3874 0022 D318     		adds	r3, r2, r3
ARM GAS  C:\Users\ilya\AppData\Local\Temp\ccpEIuqL.s 			page 85


 3875 0024 1B68     		ldr	r3, [r3]
 3876 0026 9F46     		mov	pc, r3
 3877              		.section	.rodata
 3878              		.align	2
 3879              	.L156:
 3880 0000 28000000 		.word	.L155
 3881 0004 28000000 		.word	.L155
 3882 0008 32000000 		.word	.L154
 3883 000c 28000000 		.word	.L155
 3884 0010 32000000 		.word	.L154
 3885 0014 32000000 		.word	.L154
 3886 0018 32000000 		.word	.L154
 3887 001c 32000000 		.word	.L154
 3888 0020 32000000 		.word	.L154
 3889 0024 32000000 		.word	.L154
 3890 0028 32000000 		.word	.L154
 3891 002c 32000000 		.word	.L154
 3892 0030 32000000 		.word	.L154
 3893 0034 32000000 		.word	.L154
 3894 0038 32000000 		.word	.L154
 3895 003c 32000000 		.word	.L154
 3896 0040 32000000 		.word	.L154
 3897 0044 32000000 		.word	.L154
 3898 0048 32000000 		.word	.L154
 3899 004c 32000000 		.word	.L154
 3900 0050 28000000 		.word	.L155
 3901 0054 28000000 		.word	.L155
 3902              		.section	.text.VL53L0X_SetDeviceMode
 3903              	.L155:
 907:Api\core\src/vl53l0x_api.c **** 	case VL53L0X_DEVICEMODE_SINGLE_RANGING:
 908:Api\core\src/vl53l0x_api.c **** 	case VL53L0X_DEVICEMODE_CONTINUOUS_RANGING:
 909:Api\core\src/vl53l0x_api.c **** 	case VL53L0X_DEVICEMODE_CONTINUOUS_TIMED_RANGING:
 910:Api\core\src/vl53l0x_api.c **** 	case VL53L0X_DEVICEMODE_GPIO_DRIVE:
 911:Api\core\src/vl53l0x_api.c **** 	case VL53L0X_DEVICEMODE_GPIO_OSC:
 912:Api\core\src/vl53l0x_api.c **** 		/* Supported modes */
 913:Api\core\src/vl53l0x_api.c **** 		VL53L0X_SETPARAMETERFIELD(Dev, DeviceMode, DeviceMode);
 3904              		.loc 1 913 0
 3905 0028 7B68     		ldr	r3, [r7, #4]
 3906 002a FA1C     		adds	r2, r7, #3
 3907 002c 1278     		ldrb	r2, [r2]
 3908 002e 1A74     		strb	r2, [r3, #16]
 914:Api\core\src/vl53l0x_api.c **** 		break;
 3909              		.loc 1 914 0
 3910 0030 03E0     		b	.L157
 3911              	.L154:
 915:Api\core\src/vl53l0x_api.c **** 	default:
 916:Api\core\src/vl53l0x_api.c **** 		/* Unsupported mode */
 917:Api\core\src/vl53l0x_api.c **** 		Status = VL53L0X_ERROR_MODE_NOT_SUPPORTED;
 3912              		.loc 1 917 0
 3913 0032 0F23     		movs	r3, #15
 3914 0034 FB18     		adds	r3, r7, r3
 3915 0036 F822     		movs	r2, #248
 3916 0038 1A70     		strb	r2, [r3]
 3917              	.L157:
 918:Api\core\src/vl53l0x_api.c **** 	}
 919:Api\core\src/vl53l0x_api.c **** 
 920:Api\core\src/vl53l0x_api.c **** 	LOG_FUNCTION_END(Status);
ARM GAS  C:\Users\ilya\AppData\Local\Temp\ccpEIuqL.s 			page 86


 921:Api\core\src/vl53l0x_api.c **** 	return Status;
 3918              		.loc 1 921 0
 3919 003a 0F23     		movs	r3, #15
 3920 003c FB18     		adds	r3, r7, r3
 3921 003e 1B78     		ldrb	r3, [r3]
 3922 0040 5BB2     		sxtb	r3, r3
 922:Api\core\src/vl53l0x_api.c **** }
 3923              		.loc 1 922 0
 3924 0042 1800     		movs	r0, r3
 3925 0044 BD46     		mov	sp, r7
 3926 0046 04B0     		add	sp, sp, #16
 3927              		@ sp needed
 3928 0048 80BD     		pop	{r7, pc}
 3929              	.L160:
 3930 004a C046     		.align	2
 3931              	.L159:
 3932 004c 00000000 		.word	.L156
 3933              		.cfi_endproc
 3934              	.LFE29:
 3935              		.size	VL53L0X_SetDeviceMode, .-VL53L0X_SetDeviceMode
 3936              		.section	.text.VL53L0X_GetDeviceMode,"ax",%progbits
 3937              		.align	2
 3938              		.global	VL53L0X_GetDeviceMode
 3939              		.code	16
 3940              		.thumb_func
 3941              		.type	VL53L0X_GetDeviceMode, %function
 3942              	VL53L0X_GetDeviceMode:
 3943              	.LFB30:
 923:Api\core\src/vl53l0x_api.c **** 
 924:Api\core\src/vl53l0x_api.c **** VL53L0X_Error VL53L0X_GetDeviceMode(VL53L0X_DEV Dev,
 925:Api\core\src/vl53l0x_api.c **** 	VL53L0X_DeviceModes *pDeviceMode)
 926:Api\core\src/vl53l0x_api.c **** {
 3944              		.loc 1 926 0
 3945              		.cfi_startproc
 3946              		@ args = 0, pretend = 0, frame = 16
 3947              		@ frame_needed = 1, uses_anonymous_args = 0
 3948 0000 80B5     		push	{r7, lr}
 3949              		.cfi_def_cfa_offset 8
 3950              		.cfi_offset 7, -8
 3951              		.cfi_offset 14, -4
 3952 0002 84B0     		sub	sp, sp, #16
 3953              		.cfi_def_cfa_offset 24
 3954 0004 00AF     		add	r7, sp, #0
 3955              		.cfi_def_cfa_register 7
 3956 0006 7860     		str	r0, [r7, #4]
 3957 0008 3960     		str	r1, [r7]
 927:Api\core\src/vl53l0x_api.c **** 	VL53L0X_Error Status = VL53L0X_ERROR_NONE;
 3958              		.loc 1 927 0
 3959 000a 0F23     		movs	r3, #15
 3960 000c FB18     		adds	r3, r7, r3
 3961 000e 0022     		movs	r2, #0
 3962 0010 1A70     		strb	r2, [r3]
 928:Api\core\src/vl53l0x_api.c **** 	LOG_FUNCTION_START("");
 929:Api\core\src/vl53l0x_api.c **** 
 930:Api\core\src/vl53l0x_api.c **** 	VL53L0X_GETPARAMETERFIELD(Dev, DeviceMode, *pDeviceMode);
 3963              		.loc 1 930 0
 3964 0012 7B68     		ldr	r3, [r7, #4]
ARM GAS  C:\Users\ilya\AppData\Local\Temp\ccpEIuqL.s 			page 87


 3965 0014 1A7C     		ldrb	r2, [r3, #16]
 3966 0016 3B68     		ldr	r3, [r7]
 3967 0018 1A70     		strb	r2, [r3]
 931:Api\core\src/vl53l0x_api.c **** 
 932:Api\core\src/vl53l0x_api.c **** 	LOG_FUNCTION_END(Status);
 933:Api\core\src/vl53l0x_api.c **** 	return Status;
 3968              		.loc 1 933 0
 3969 001a 0F23     		movs	r3, #15
 3970 001c FB18     		adds	r3, r7, r3
 3971 001e 1B78     		ldrb	r3, [r3]
 3972 0020 5BB2     		sxtb	r3, r3
 934:Api\core\src/vl53l0x_api.c **** }
 3973              		.loc 1 934 0
 3974 0022 1800     		movs	r0, r3
 3975 0024 BD46     		mov	sp, r7
 3976 0026 04B0     		add	sp, sp, #16
 3977              		@ sp needed
 3978 0028 80BD     		pop	{r7, pc}
 3979              		.cfi_endproc
 3980              	.LFE30:
 3981              		.size	VL53L0X_GetDeviceMode, .-VL53L0X_GetDeviceMode
 3982 002a C046     		.section	.text.VL53L0X_SetRangeFractionEnable,"ax",%progbits
 3983              		.align	2
 3984              		.global	VL53L0X_SetRangeFractionEnable
 3985              		.code	16
 3986              		.thumb_func
 3987              		.type	VL53L0X_SetRangeFractionEnable, %function
 3988              	VL53L0X_SetRangeFractionEnable:
 3989              	.LFB31:
 935:Api\core\src/vl53l0x_api.c **** 
 936:Api\core\src/vl53l0x_api.c **** VL53L0X_Error VL53L0X_SetRangeFractionEnable(VL53L0X_DEV Dev,	uint8_t Enable)
 937:Api\core\src/vl53l0x_api.c **** {
 3990              		.loc 1 937 0
 3991              		.cfi_startproc
 3992              		@ args = 0, pretend = 0, frame = 16
 3993              		@ frame_needed = 1, uses_anonymous_args = 0
 3994 0000 90B5     		push	{r4, r7, lr}
 3995              		.cfi_def_cfa_offset 12
 3996              		.cfi_offset 4, -12
 3997              		.cfi_offset 7, -8
 3998              		.cfi_offset 14, -4
 3999 0002 85B0     		sub	sp, sp, #20
 4000              		.cfi_def_cfa_offset 32
 4001 0004 00AF     		add	r7, sp, #0
 4002              		.cfi_def_cfa_register 7
 4003 0006 7860     		str	r0, [r7, #4]
 4004 0008 0A00     		movs	r2, r1
 4005 000a FB1C     		adds	r3, r7, #3
 4006 000c 1A70     		strb	r2, [r3]
 938:Api\core\src/vl53l0x_api.c **** 	VL53L0X_Error Status = VL53L0X_ERROR_NONE;
 4007              		.loc 1 938 0
 4008 000e 0F23     		movs	r3, #15
 4009 0010 FB18     		adds	r3, r7, r3
 4010 0012 0022     		movs	r2, #0
 4011 0014 1A70     		strb	r2, [r3]
 939:Api\core\src/vl53l0x_api.c **** 
 940:Api\core\src/vl53l0x_api.c **** 	LOG_FUNCTION_START("%d", (int)Enable);
ARM GAS  C:\Users\ilya\AppData\Local\Temp\ccpEIuqL.s 			page 88


 941:Api\core\src/vl53l0x_api.c **** 
 942:Api\core\src/vl53l0x_api.c **** 	Status = VL53L0X_WrByte(Dev, VL53L0X_REG_SYSTEM_RANGE_CONFIG, Enable);
 4012              		.loc 1 942 0
 4013 0016 0F23     		movs	r3, #15
 4014 0018 FC18     		adds	r4, r7, r3
 4015 001a FB1C     		adds	r3, r7, #3
 4016 001c 1A78     		ldrb	r2, [r3]
 4017 001e 7B68     		ldr	r3, [r7, #4]
 4018 0020 0921     		movs	r1, #9
 4019 0022 1800     		movs	r0, r3
 4020 0024 FFF7FEFF 		bl	VL53L0X_WrByte
 4021 0028 0300     		movs	r3, r0
 4022 002a 2370     		strb	r3, [r4]
 943:Api\core\src/vl53l0x_api.c **** 
 944:Api\core\src/vl53l0x_api.c **** 	if (Status == VL53L0X_ERROR_NONE)
 4023              		.loc 1 944 0
 4024 002c 0F23     		movs	r3, #15
 4025 002e FB18     		adds	r3, r7, r3
 4026 0030 1B78     		ldrb	r3, [r3]
 4027 0032 5BB2     		sxtb	r3, r3
 4028 0034 002B     		cmp	r3, #0
 4029 0036 05D1     		bne	.L164
 945:Api\core\src/vl53l0x_api.c **** 		PALDevDataSet(Dev, RangeFractionalEnable, Enable);
 4030              		.loc 1 945 0
 4031 0038 7A68     		ldr	r2, [r7, #4]
 4032 003a F91C     		adds	r1, r7, #3
 4033 003c 3223     		movs	r3, #50
 4034 003e FF33     		adds	r3, r3, #255
 4035 0040 0978     		ldrb	r1, [r1]
 4036 0042 D154     		strb	r1, [r2, r3]
 4037              	.L164:
 946:Api\core\src/vl53l0x_api.c **** 
 947:Api\core\src/vl53l0x_api.c **** 	LOG_FUNCTION_END(Status);
 948:Api\core\src/vl53l0x_api.c **** 	return Status;
 4038              		.loc 1 948 0
 4039 0044 0F23     		movs	r3, #15
 4040 0046 FB18     		adds	r3, r7, r3
 4041 0048 1B78     		ldrb	r3, [r3]
 4042 004a 5BB2     		sxtb	r3, r3
 949:Api\core\src/vl53l0x_api.c **** }
 4043              		.loc 1 949 0
 4044 004c 1800     		movs	r0, r3
 4045 004e BD46     		mov	sp, r7
 4046 0050 05B0     		add	sp, sp, #20
 4047              		@ sp needed
 4048 0052 90BD     		pop	{r4, r7, pc}
 4049              		.cfi_endproc
 4050              	.LFE31:
 4051              		.size	VL53L0X_SetRangeFractionEnable, .-VL53L0X_SetRangeFractionEnable
 4052              		.section	.text.VL53L0X_GetFractionEnable,"ax",%progbits
 4053              		.align	2
 4054              		.global	VL53L0X_GetFractionEnable
 4055              		.code	16
 4056              		.thumb_func
 4057              		.type	VL53L0X_GetFractionEnable, %function
 4058              	VL53L0X_GetFractionEnable:
 4059              	.LFB32:
ARM GAS  C:\Users\ilya\AppData\Local\Temp\ccpEIuqL.s 			page 89


 950:Api\core\src/vl53l0x_api.c **** 
 951:Api\core\src/vl53l0x_api.c **** VL53L0X_Error VL53L0X_GetFractionEnable(VL53L0X_DEV Dev, uint8_t *pEnabled)
 952:Api\core\src/vl53l0x_api.c **** {
 4060              		.loc 1 952 0
 4061              		.cfi_startproc
 4062              		@ args = 0, pretend = 0, frame = 16
 4063              		@ frame_needed = 1, uses_anonymous_args = 0
 4064 0000 90B5     		push	{r4, r7, lr}
 4065              		.cfi_def_cfa_offset 12
 4066              		.cfi_offset 4, -12
 4067              		.cfi_offset 7, -8
 4068              		.cfi_offset 14, -4
 4069 0002 85B0     		sub	sp, sp, #20
 4070              		.cfi_def_cfa_offset 32
 4071 0004 00AF     		add	r7, sp, #0
 4072              		.cfi_def_cfa_register 7
 4073 0006 7860     		str	r0, [r7, #4]
 4074 0008 3960     		str	r1, [r7]
 953:Api\core\src/vl53l0x_api.c **** 	VL53L0X_Error Status = VL53L0X_ERROR_NONE;
 4075              		.loc 1 953 0
 4076 000a 0F23     		movs	r3, #15
 4077 000c FB18     		adds	r3, r7, r3
 4078 000e 0022     		movs	r2, #0
 4079 0010 1A70     		strb	r2, [r3]
 954:Api\core\src/vl53l0x_api.c **** 	LOG_FUNCTION_START("");
 955:Api\core\src/vl53l0x_api.c **** 
 956:Api\core\src/vl53l0x_api.c **** 	Status = VL53L0X_RdByte(Dev, VL53L0X_REG_SYSTEM_RANGE_CONFIG, pEnabled);
 4080              		.loc 1 956 0
 4081 0012 0F23     		movs	r3, #15
 4082 0014 FC18     		adds	r4, r7, r3
 4083 0016 3A68     		ldr	r2, [r7]
 4084 0018 7B68     		ldr	r3, [r7, #4]
 4085 001a 0921     		movs	r1, #9
 4086 001c 1800     		movs	r0, r3
 4087 001e FFF7FEFF 		bl	VL53L0X_RdByte
 4088 0022 0300     		movs	r3, r0
 4089 0024 2370     		strb	r3, [r4]
 957:Api\core\src/vl53l0x_api.c **** 
 958:Api\core\src/vl53l0x_api.c **** 	if (Status == VL53L0X_ERROR_NONE)
 4090              		.loc 1 958 0
 4091 0026 0F23     		movs	r3, #15
 4092 0028 FB18     		adds	r3, r7, r3
 4093 002a 1B78     		ldrb	r3, [r3]
 4094 002c 5BB2     		sxtb	r3, r3
 4095 002e 002B     		cmp	r3, #0
 4096 0030 06D1     		bne	.L167
 959:Api\core\src/vl53l0x_api.c **** 		*pEnabled = (*pEnabled & 1);
 4097              		.loc 1 959 0
 4098 0032 3B68     		ldr	r3, [r7]
 4099 0034 1B78     		ldrb	r3, [r3]
 4100 0036 0122     		movs	r2, #1
 4101 0038 1340     		ands	r3, r2
 4102 003a DAB2     		uxtb	r2, r3
 4103 003c 3B68     		ldr	r3, [r7]
 4104 003e 1A70     		strb	r2, [r3]
 4105              	.L167:
 960:Api\core\src/vl53l0x_api.c **** 
ARM GAS  C:\Users\ilya\AppData\Local\Temp\ccpEIuqL.s 			page 90


 961:Api\core\src/vl53l0x_api.c **** 	LOG_FUNCTION_END(Status);
 962:Api\core\src/vl53l0x_api.c **** 	return Status;
 4106              		.loc 1 962 0
 4107 0040 0F23     		movs	r3, #15
 4108 0042 FB18     		adds	r3, r7, r3
 4109 0044 1B78     		ldrb	r3, [r3]
 4110 0046 5BB2     		sxtb	r3, r3
 963:Api\core\src/vl53l0x_api.c **** }
 4111              		.loc 1 963 0
 4112 0048 1800     		movs	r0, r3
 4113 004a BD46     		mov	sp, r7
 4114 004c 05B0     		add	sp, sp, #20
 4115              		@ sp needed
 4116 004e 90BD     		pop	{r4, r7, pc}
 4117              		.cfi_endproc
 4118              	.LFE32:
 4119              		.size	VL53L0X_GetFractionEnable, .-VL53L0X_GetFractionEnable
 4120              		.section	.text.VL53L0X_SetHistogramMode,"ax",%progbits
 4121              		.align	2
 4122              		.global	VL53L0X_SetHistogramMode
 4123              		.code	16
 4124              		.thumb_func
 4125              		.type	VL53L0X_SetHistogramMode, %function
 4126              	VL53L0X_SetHistogramMode:
 4127              	.LFB33:
 964:Api\core\src/vl53l0x_api.c **** 
 965:Api\core\src/vl53l0x_api.c **** VL53L0X_Error VL53L0X_SetHistogramMode(VL53L0X_DEV Dev,
 966:Api\core\src/vl53l0x_api.c **** 	VL53L0X_HistogramModes HistogramMode)
 967:Api\core\src/vl53l0x_api.c **** {
 4128              		.loc 1 967 0
 4129              		.cfi_startproc
 4130              		@ args = 0, pretend = 0, frame = 16
 4131              		@ frame_needed = 1, uses_anonymous_args = 0
 4132 0000 80B5     		push	{r7, lr}
 4133              		.cfi_def_cfa_offset 8
 4134              		.cfi_offset 7, -8
 4135              		.cfi_offset 14, -4
 4136 0002 84B0     		sub	sp, sp, #16
 4137              		.cfi_def_cfa_offset 24
 4138 0004 00AF     		add	r7, sp, #0
 4139              		.cfi_def_cfa_register 7
 4140 0006 7860     		str	r0, [r7, #4]
 4141 0008 0A00     		movs	r2, r1
 4142 000a FB1C     		adds	r3, r7, #3
 4143 000c 1A70     		strb	r2, [r3]
 968:Api\core\src/vl53l0x_api.c **** 	VL53L0X_Error Status = VL53L0X_ERROR_NOT_IMPLEMENTED;
 4144              		.loc 1 968 0
 4145 000e 0F23     		movs	r3, #15
 4146 0010 FB18     		adds	r3, r7, r3
 4147 0012 9D22     		movs	r2, #157
 4148 0014 1A70     		strb	r2, [r3]
 969:Api\core\src/vl53l0x_api.c **** 	LOG_FUNCTION_START("");
 970:Api\core\src/vl53l0x_api.c **** 
 971:Api\core\src/vl53l0x_api.c **** 	/* not implemented on VL53L0X */
 972:Api\core\src/vl53l0x_api.c **** 
 973:Api\core\src/vl53l0x_api.c **** 	LOG_FUNCTION_END(Status);
 974:Api\core\src/vl53l0x_api.c **** 	return Status;
ARM GAS  C:\Users\ilya\AppData\Local\Temp\ccpEIuqL.s 			page 91


 4149              		.loc 1 974 0
 4150 0016 0F23     		movs	r3, #15
 4151 0018 FB18     		adds	r3, r7, r3
 4152 001a 1B78     		ldrb	r3, [r3]
 4153 001c 5BB2     		sxtb	r3, r3
 975:Api\core\src/vl53l0x_api.c **** }
 4154              		.loc 1 975 0
 4155 001e 1800     		movs	r0, r3
 4156 0020 BD46     		mov	sp, r7
 4157 0022 04B0     		add	sp, sp, #16
 4158              		@ sp needed
 4159 0024 80BD     		pop	{r7, pc}
 4160              		.cfi_endproc
 4161              	.LFE33:
 4162              		.size	VL53L0X_SetHistogramMode, .-VL53L0X_SetHistogramMode
 4163 0026 C046     		.section	.text.VL53L0X_GetHistogramMode,"ax",%progbits
 4164              		.align	2
 4165              		.global	VL53L0X_GetHistogramMode
 4166              		.code	16
 4167              		.thumb_func
 4168              		.type	VL53L0X_GetHistogramMode, %function
 4169              	VL53L0X_GetHistogramMode:
 4170              	.LFB34:
 976:Api\core\src/vl53l0x_api.c **** 
 977:Api\core\src/vl53l0x_api.c **** VL53L0X_Error VL53L0X_GetHistogramMode(VL53L0X_DEV Dev,
 978:Api\core\src/vl53l0x_api.c **** 	VL53L0X_HistogramModes *pHistogramMode)
 979:Api\core\src/vl53l0x_api.c **** {
 4171              		.loc 1 979 0
 4172              		.cfi_startproc
 4173              		@ args = 0, pretend = 0, frame = 16
 4174              		@ frame_needed = 1, uses_anonymous_args = 0
 4175 0000 80B5     		push	{r7, lr}
 4176              		.cfi_def_cfa_offset 8
 4177              		.cfi_offset 7, -8
 4178              		.cfi_offset 14, -4
 4179 0002 84B0     		sub	sp, sp, #16
 4180              		.cfi_def_cfa_offset 24
 4181 0004 00AF     		add	r7, sp, #0
 4182              		.cfi_def_cfa_register 7
 4183 0006 7860     		str	r0, [r7, #4]
 4184 0008 3960     		str	r1, [r7]
 980:Api\core\src/vl53l0x_api.c **** 	VL53L0X_Error Status = VL53L0X_ERROR_NOT_IMPLEMENTED;
 4185              		.loc 1 980 0
 4186 000a 0F23     		movs	r3, #15
 4187 000c FB18     		adds	r3, r7, r3
 4188 000e 9D22     		movs	r2, #157
 4189 0010 1A70     		strb	r2, [r3]
 981:Api\core\src/vl53l0x_api.c **** 	LOG_FUNCTION_START("");
 982:Api\core\src/vl53l0x_api.c **** 
 983:Api\core\src/vl53l0x_api.c **** 	/* not implemented on VL53L0X */
 984:Api\core\src/vl53l0x_api.c **** 
 985:Api\core\src/vl53l0x_api.c **** 	LOG_FUNCTION_END(Status);
 986:Api\core\src/vl53l0x_api.c **** 	return Status;
 4190              		.loc 1 986 0
 4191 0012 0F23     		movs	r3, #15
 4192 0014 FB18     		adds	r3, r7, r3
 4193 0016 1B78     		ldrb	r3, [r3]
ARM GAS  C:\Users\ilya\AppData\Local\Temp\ccpEIuqL.s 			page 92


 4194 0018 5BB2     		sxtb	r3, r3
 987:Api\core\src/vl53l0x_api.c **** }
 4195              		.loc 1 987 0
 4196 001a 1800     		movs	r0, r3
 4197 001c BD46     		mov	sp, r7
 4198 001e 04B0     		add	sp, sp, #16
 4199              		@ sp needed
 4200 0020 80BD     		pop	{r7, pc}
 4201              		.cfi_endproc
 4202              	.LFE34:
 4203              		.size	VL53L0X_GetHistogramMode, .-VL53L0X_GetHistogramMode
 4204 0022 C046     		.section	.text.VL53L0X_SetMeasurementTimingBudgetMicroSeconds,"ax",%progbits
 4205              		.align	2
 4206              		.global	VL53L0X_SetMeasurementTimingBudgetMicroSeconds
 4207              		.code	16
 4208              		.thumb_func
 4209              		.type	VL53L0X_SetMeasurementTimingBudgetMicroSeconds, %function
 4210              	VL53L0X_SetMeasurementTimingBudgetMicroSeconds:
 4211              	.LFB35:
 988:Api\core\src/vl53l0x_api.c **** 
 989:Api\core\src/vl53l0x_api.c **** VL53L0X_Error VL53L0X_SetMeasurementTimingBudgetMicroSeconds(VL53L0X_DEV Dev,
 990:Api\core\src/vl53l0x_api.c **** 	uint32_t MeasurementTimingBudgetMicroSeconds)
 991:Api\core\src/vl53l0x_api.c **** {
 4212              		.loc 1 991 0
 4213              		.cfi_startproc
 4214              		@ args = 0, pretend = 0, frame = 16
 4215              		@ frame_needed = 1, uses_anonymous_args = 0
 4216 0000 90B5     		push	{r4, r7, lr}
 4217              		.cfi_def_cfa_offset 12
 4218              		.cfi_offset 4, -12
 4219              		.cfi_offset 7, -8
 4220              		.cfi_offset 14, -4
 4221 0002 85B0     		sub	sp, sp, #20
 4222              		.cfi_def_cfa_offset 32
 4223 0004 00AF     		add	r7, sp, #0
 4224              		.cfi_def_cfa_register 7
 4225 0006 7860     		str	r0, [r7, #4]
 4226 0008 3960     		str	r1, [r7]
 992:Api\core\src/vl53l0x_api.c **** 	VL53L0X_Error Status = VL53L0X_ERROR_NONE;
 4227              		.loc 1 992 0
 4228 000a 0F23     		movs	r3, #15
 4229 000c FB18     		adds	r3, r7, r3
 4230 000e 0022     		movs	r2, #0
 4231 0010 1A70     		strb	r2, [r3]
 993:Api\core\src/vl53l0x_api.c **** 	LOG_FUNCTION_START("");
 994:Api\core\src/vl53l0x_api.c **** 
 995:Api\core\src/vl53l0x_api.c **** 	Status = VL53L0X_set_measurement_timing_budget_micro_seconds(Dev,
 4232              		.loc 1 995 0
 4233 0012 0F23     		movs	r3, #15
 4234 0014 FC18     		adds	r4, r7, r3
 4235 0016 3A68     		ldr	r2, [r7]
 4236 0018 7B68     		ldr	r3, [r7, #4]
 4237 001a 1100     		movs	r1, r2
 4238 001c 1800     		movs	r0, r3
 4239 001e FFF7FEFF 		bl	VL53L0X_set_measurement_timing_budget_micro_seconds
 4240 0022 0300     		movs	r3, r0
 4241 0024 2370     		strb	r3, [r4]
ARM GAS  C:\Users\ilya\AppData\Local\Temp\ccpEIuqL.s 			page 93


 996:Api\core\src/vl53l0x_api.c **** 		MeasurementTimingBudgetMicroSeconds);
 997:Api\core\src/vl53l0x_api.c **** 
 998:Api\core\src/vl53l0x_api.c **** 	LOG_FUNCTION_END(Status);
 999:Api\core\src/vl53l0x_api.c **** 
1000:Api\core\src/vl53l0x_api.c **** 	return Status;
 4242              		.loc 1 1000 0
 4243 0026 0F23     		movs	r3, #15
 4244 0028 FB18     		adds	r3, r7, r3
 4245 002a 1B78     		ldrb	r3, [r3]
 4246 002c 5BB2     		sxtb	r3, r3
1001:Api\core\src/vl53l0x_api.c **** }
 4247              		.loc 1 1001 0
 4248 002e 1800     		movs	r0, r3
 4249 0030 BD46     		mov	sp, r7
 4250 0032 05B0     		add	sp, sp, #20
 4251              		@ sp needed
 4252 0034 90BD     		pop	{r4, r7, pc}
 4253              		.cfi_endproc
 4254              	.LFE35:
 4255              		.size	VL53L0X_SetMeasurementTimingBudgetMicroSeconds, .-VL53L0X_SetMeasurementTimingBudgetMicroSec
 4256              		.section	.text.VL53L0X_GetMeasurementTimingBudgetMicroSeconds,"ax",%progbits
 4257              		.align	2
 4258              		.global	VL53L0X_GetMeasurementTimingBudgetMicroSeconds
 4259              		.code	16
 4260              		.thumb_func
 4261              		.type	VL53L0X_GetMeasurementTimingBudgetMicroSeconds, %function
 4262              	VL53L0X_GetMeasurementTimingBudgetMicroSeconds:
 4263              	.LFB36:
1002:Api\core\src/vl53l0x_api.c **** 
1003:Api\core\src/vl53l0x_api.c **** VL53L0X_Error VL53L0X_GetMeasurementTimingBudgetMicroSeconds(VL53L0X_DEV Dev,
1004:Api\core\src/vl53l0x_api.c **** 	uint32_t *pMeasurementTimingBudgetMicroSeconds)
1005:Api\core\src/vl53l0x_api.c **** {
 4264              		.loc 1 1005 0
 4265              		.cfi_startproc
 4266              		@ args = 0, pretend = 0, frame = 16
 4267              		@ frame_needed = 1, uses_anonymous_args = 0
 4268 0000 90B5     		push	{r4, r7, lr}
 4269              		.cfi_def_cfa_offset 12
 4270              		.cfi_offset 4, -12
 4271              		.cfi_offset 7, -8
 4272              		.cfi_offset 14, -4
 4273 0002 85B0     		sub	sp, sp, #20
 4274              		.cfi_def_cfa_offset 32
 4275 0004 00AF     		add	r7, sp, #0
 4276              		.cfi_def_cfa_register 7
 4277 0006 7860     		str	r0, [r7, #4]
 4278 0008 3960     		str	r1, [r7]
1006:Api\core\src/vl53l0x_api.c **** 	VL53L0X_Error Status = VL53L0X_ERROR_NONE;
 4279              		.loc 1 1006 0
 4280 000a 0F23     		movs	r3, #15
 4281 000c FB18     		adds	r3, r7, r3
 4282 000e 0022     		movs	r2, #0
 4283 0010 1A70     		strb	r2, [r3]
1007:Api\core\src/vl53l0x_api.c **** 	LOG_FUNCTION_START("");
1008:Api\core\src/vl53l0x_api.c **** 
1009:Api\core\src/vl53l0x_api.c **** 	Status = VL53L0X_get_measurement_timing_budget_micro_seconds(Dev,
 4284              		.loc 1 1009 0
ARM GAS  C:\Users\ilya\AppData\Local\Temp\ccpEIuqL.s 			page 94


 4285 0012 0F23     		movs	r3, #15
 4286 0014 FC18     		adds	r4, r7, r3
 4287 0016 3A68     		ldr	r2, [r7]
 4288 0018 7B68     		ldr	r3, [r7, #4]
 4289 001a 1100     		movs	r1, r2
 4290 001c 1800     		movs	r0, r3
 4291 001e FFF7FEFF 		bl	VL53L0X_get_measurement_timing_budget_micro_seconds
 4292 0022 0300     		movs	r3, r0
 4293 0024 2370     		strb	r3, [r4]
1010:Api\core\src/vl53l0x_api.c **** 		pMeasurementTimingBudgetMicroSeconds);
1011:Api\core\src/vl53l0x_api.c **** 
1012:Api\core\src/vl53l0x_api.c **** 	LOG_FUNCTION_END(Status);
1013:Api\core\src/vl53l0x_api.c **** 	return Status;
 4294              		.loc 1 1013 0
 4295 0026 0F23     		movs	r3, #15
 4296 0028 FB18     		adds	r3, r7, r3
 4297 002a 1B78     		ldrb	r3, [r3]
 4298 002c 5BB2     		sxtb	r3, r3
1014:Api\core\src/vl53l0x_api.c **** }
 4299              		.loc 1 1014 0
 4300 002e 1800     		movs	r0, r3
 4301 0030 BD46     		mov	sp, r7
 4302 0032 05B0     		add	sp, sp, #20
 4303              		@ sp needed
 4304 0034 90BD     		pop	{r4, r7, pc}
 4305              		.cfi_endproc
 4306              	.LFE36:
 4307              		.size	VL53L0X_GetMeasurementTimingBudgetMicroSeconds, .-VL53L0X_GetMeasurementTimingBudgetMicroSec
 4308              		.section	.text.VL53L0X_SetVcselPulsePeriod,"ax",%progbits
 4309              		.align	2
 4310              		.global	VL53L0X_SetVcselPulsePeriod
 4311              		.code	16
 4312              		.thumb_func
 4313              		.type	VL53L0X_SetVcselPulsePeriod, %function
 4314              	VL53L0X_SetVcselPulsePeriod:
 4315              	.LFB37:
1015:Api\core\src/vl53l0x_api.c **** 
1016:Api\core\src/vl53l0x_api.c **** VL53L0X_Error VL53L0X_SetVcselPulsePeriod(VL53L0X_DEV Dev,
1017:Api\core\src/vl53l0x_api.c **** 	VL53L0X_VcselPeriod VcselPeriodType, uint8_t VCSELPulsePeriodPCLK)
1018:Api\core\src/vl53l0x_api.c **** {
 4316              		.loc 1 1018 0
 4317              		.cfi_startproc
 4318              		@ args = 0, pretend = 0, frame = 16
 4319              		@ frame_needed = 1, uses_anonymous_args = 0
 4320 0000 90B5     		push	{r4, r7, lr}
 4321              		.cfi_def_cfa_offset 12
 4322              		.cfi_offset 4, -12
 4323              		.cfi_offset 7, -8
 4324              		.cfi_offset 14, -4
 4325 0002 85B0     		sub	sp, sp, #20
 4326              		.cfi_def_cfa_offset 32
 4327 0004 00AF     		add	r7, sp, #0
 4328              		.cfi_def_cfa_register 7
 4329 0006 7860     		str	r0, [r7, #4]
 4330 0008 0800     		movs	r0, r1
 4331 000a 1100     		movs	r1, r2
 4332 000c FB1C     		adds	r3, r7, #3
ARM GAS  C:\Users\ilya\AppData\Local\Temp\ccpEIuqL.s 			page 95


 4333 000e 021C     		adds	r2, r0, #0
 4334 0010 1A70     		strb	r2, [r3]
 4335 0012 BB1C     		adds	r3, r7, #2
 4336 0014 0A1C     		adds	r2, r1, #0
 4337 0016 1A70     		strb	r2, [r3]
1019:Api\core\src/vl53l0x_api.c **** 	VL53L0X_Error Status = VL53L0X_ERROR_NONE;
 4338              		.loc 1 1019 0
 4339 0018 0F23     		movs	r3, #15
 4340 001a FB18     		adds	r3, r7, r3
 4341 001c 0022     		movs	r2, #0
 4342 001e 1A70     		strb	r2, [r3]
1020:Api\core\src/vl53l0x_api.c **** 	LOG_FUNCTION_START("");
1021:Api\core\src/vl53l0x_api.c **** 
1022:Api\core\src/vl53l0x_api.c **** 	Status = VL53L0X_set_vcsel_pulse_period(Dev, VcselPeriodType,
 4343              		.loc 1 1022 0
 4344 0020 0F23     		movs	r3, #15
 4345 0022 FC18     		adds	r4, r7, r3
 4346 0024 BB1C     		adds	r3, r7, #2
 4347 0026 1A78     		ldrb	r2, [r3]
 4348 0028 FB1C     		adds	r3, r7, #3
 4349 002a 1978     		ldrb	r1, [r3]
 4350 002c 7B68     		ldr	r3, [r7, #4]
 4351 002e 1800     		movs	r0, r3
 4352 0030 FFF7FEFF 		bl	VL53L0X_set_vcsel_pulse_period
 4353 0034 0300     		movs	r3, r0
 4354 0036 2370     		strb	r3, [r4]
1023:Api\core\src/vl53l0x_api.c **** 		VCSELPulsePeriodPCLK);
1024:Api\core\src/vl53l0x_api.c **** 
1025:Api\core\src/vl53l0x_api.c **** 	LOG_FUNCTION_END(Status);
1026:Api\core\src/vl53l0x_api.c **** 	return Status;
 4355              		.loc 1 1026 0
 4356 0038 0F23     		movs	r3, #15
 4357 003a FB18     		adds	r3, r7, r3
 4358 003c 1B78     		ldrb	r3, [r3]
 4359 003e 5BB2     		sxtb	r3, r3
1027:Api\core\src/vl53l0x_api.c **** }
 4360              		.loc 1 1027 0
 4361 0040 1800     		movs	r0, r3
 4362 0042 BD46     		mov	sp, r7
 4363 0044 05B0     		add	sp, sp, #20
 4364              		@ sp needed
 4365 0046 90BD     		pop	{r4, r7, pc}
 4366              		.cfi_endproc
 4367              	.LFE37:
 4368              		.size	VL53L0X_SetVcselPulsePeriod, .-VL53L0X_SetVcselPulsePeriod
 4369              		.section	.text.VL53L0X_GetVcselPulsePeriod,"ax",%progbits
 4370              		.align	2
 4371              		.global	VL53L0X_GetVcselPulsePeriod
 4372              		.code	16
 4373              		.thumb_func
 4374              		.type	VL53L0X_GetVcselPulsePeriod, %function
 4375              	VL53L0X_GetVcselPulsePeriod:
 4376              	.LFB38:
1028:Api\core\src/vl53l0x_api.c **** 
1029:Api\core\src/vl53l0x_api.c **** VL53L0X_Error VL53L0X_GetVcselPulsePeriod(VL53L0X_DEV Dev,
1030:Api\core\src/vl53l0x_api.c **** 	VL53L0X_VcselPeriod VcselPeriodType, uint8_t *pVCSELPulsePeriodPCLK)
1031:Api\core\src/vl53l0x_api.c **** {
ARM GAS  C:\Users\ilya\AppData\Local\Temp\ccpEIuqL.s 			page 96


 4377              		.loc 1 1031 0
 4378              		.cfi_startproc
 4379              		@ args = 0, pretend = 0, frame = 24
 4380              		@ frame_needed = 1, uses_anonymous_args = 0
 4381 0000 90B5     		push	{r4, r7, lr}
 4382              		.cfi_def_cfa_offset 12
 4383              		.cfi_offset 4, -12
 4384              		.cfi_offset 7, -8
 4385              		.cfi_offset 14, -4
 4386 0002 87B0     		sub	sp, sp, #28
 4387              		.cfi_def_cfa_offset 40
 4388 0004 00AF     		add	r7, sp, #0
 4389              		.cfi_def_cfa_register 7
 4390 0006 F860     		str	r0, [r7, #12]
 4391 0008 7A60     		str	r2, [r7, #4]
 4392 000a 0B23     		movs	r3, #11
 4393 000c FB18     		adds	r3, r7, r3
 4394 000e 0A1C     		adds	r2, r1, #0
 4395 0010 1A70     		strb	r2, [r3]
1032:Api\core\src/vl53l0x_api.c **** 	VL53L0X_Error Status = VL53L0X_ERROR_NONE;
 4396              		.loc 1 1032 0
 4397 0012 1723     		movs	r3, #23
 4398 0014 FB18     		adds	r3, r7, r3
 4399 0016 0022     		movs	r2, #0
 4400 0018 1A70     		strb	r2, [r3]
1033:Api\core\src/vl53l0x_api.c **** 	LOG_FUNCTION_START("");
1034:Api\core\src/vl53l0x_api.c **** 
1035:Api\core\src/vl53l0x_api.c **** 	Status = VL53L0X_get_vcsel_pulse_period(Dev, VcselPeriodType,
 4401              		.loc 1 1035 0
 4402 001a 1723     		movs	r3, #23
 4403 001c FC18     		adds	r4, r7, r3
 4404 001e 7A68     		ldr	r2, [r7, #4]
 4405 0020 0B23     		movs	r3, #11
 4406 0022 FB18     		adds	r3, r7, r3
 4407 0024 1978     		ldrb	r1, [r3]
 4408 0026 FB68     		ldr	r3, [r7, #12]
 4409 0028 1800     		movs	r0, r3
 4410 002a FFF7FEFF 		bl	VL53L0X_get_vcsel_pulse_period
 4411 002e 0300     		movs	r3, r0
 4412 0030 2370     		strb	r3, [r4]
1036:Api\core\src/vl53l0x_api.c **** 		pVCSELPulsePeriodPCLK);
1037:Api\core\src/vl53l0x_api.c **** 
1038:Api\core\src/vl53l0x_api.c **** 	LOG_FUNCTION_END(Status);
1039:Api\core\src/vl53l0x_api.c **** 	return Status;
 4413              		.loc 1 1039 0
 4414 0032 1723     		movs	r3, #23
 4415 0034 FB18     		adds	r3, r7, r3
 4416 0036 1B78     		ldrb	r3, [r3]
 4417 0038 5BB2     		sxtb	r3, r3
1040:Api\core\src/vl53l0x_api.c **** }
 4418              		.loc 1 1040 0
 4419 003a 1800     		movs	r0, r3
 4420 003c BD46     		mov	sp, r7
 4421 003e 07B0     		add	sp, sp, #28
 4422              		@ sp needed
 4423 0040 90BD     		pop	{r4, r7, pc}
 4424              		.cfi_endproc
ARM GAS  C:\Users\ilya\AppData\Local\Temp\ccpEIuqL.s 			page 97


 4425              	.LFE38:
 4426              		.size	VL53L0X_GetVcselPulsePeriod, .-VL53L0X_GetVcselPulsePeriod
 4427 0042 C046     		.section	.text.VL53L0X_SetSequenceStepEnable,"ax",%progbits
 4428              		.align	2
 4429              		.global	VL53L0X_SetSequenceStepEnable
 4430              		.code	16
 4431              		.thumb_func
 4432              		.type	VL53L0X_SetSequenceStepEnable, %function
 4433              	VL53L0X_SetSequenceStepEnable:
 4434              	.LFB39:
1041:Api\core\src/vl53l0x_api.c **** 
1042:Api\core\src/vl53l0x_api.c **** VL53L0X_Error VL53L0X_SetSequenceStepEnable(VL53L0X_DEV Dev,
1043:Api\core\src/vl53l0x_api.c **** 	VL53L0X_SequenceStepId SequenceStepId, uint8_t SequenceStepEnabled)
1044:Api\core\src/vl53l0x_api.c **** {
 4435              		.loc 1 1044 0
 4436              		.cfi_startproc
 4437              		@ args = 0, pretend = 0, frame = 24
 4438              		@ frame_needed = 1, uses_anonymous_args = 0
 4439 0000 90B5     		push	{r4, r7, lr}
 4440              		.cfi_def_cfa_offset 12
 4441              		.cfi_offset 4, -12
 4442              		.cfi_offset 7, -8
 4443              		.cfi_offset 14, -4
 4444 0002 87B0     		sub	sp, sp, #28
 4445              		.cfi_def_cfa_offset 40
 4446 0004 00AF     		add	r7, sp, #0
 4447              		.cfi_def_cfa_register 7
 4448 0006 7860     		str	r0, [r7, #4]
 4449 0008 0800     		movs	r0, r1
 4450 000a 1100     		movs	r1, r2
 4451 000c FB1C     		adds	r3, r7, #3
 4452 000e 021C     		adds	r2, r0, #0
 4453 0010 1A70     		strb	r2, [r3]
 4454 0012 BB1C     		adds	r3, r7, #2
 4455 0014 0A1C     		adds	r2, r1, #0
 4456 0016 1A70     		strb	r2, [r3]
1045:Api\core\src/vl53l0x_api.c **** 	VL53L0X_Error Status = VL53L0X_ERROR_NONE;
 4457              		.loc 1 1045 0
 4458 0018 1723     		movs	r3, #23
 4459 001a FB18     		adds	r3, r7, r3
 4460 001c 0022     		movs	r2, #0
 4461 001e 1A70     		strb	r2, [r3]
1046:Api\core\src/vl53l0x_api.c **** 	uint8_t SequenceConfig = 0;
 4462              		.loc 1 1046 0
 4463 0020 0F23     		movs	r3, #15
 4464 0022 FB18     		adds	r3, r7, r3
 4465 0024 0022     		movs	r2, #0
 4466 0026 1A70     		strb	r2, [r3]
1047:Api\core\src/vl53l0x_api.c **** 	uint8_t SequenceConfigNew = 0;
 4467              		.loc 1 1047 0
 4468 0028 1623     		movs	r3, #22
 4469 002a FB18     		adds	r3, r7, r3
 4470 002c 0022     		movs	r2, #0
 4471 002e 1A70     		strb	r2, [r3]
1048:Api\core\src/vl53l0x_api.c **** 	uint32_t MeasurementTimingBudgetMicroSeconds;
1049:Api\core\src/vl53l0x_api.c **** 	LOG_FUNCTION_START("");
1050:Api\core\src/vl53l0x_api.c **** 
ARM GAS  C:\Users\ilya\AppData\Local\Temp\ccpEIuqL.s 			page 98


1051:Api\core\src/vl53l0x_api.c **** 	Status = VL53L0X_RdByte(Dev, VL53L0X_REG_SYSTEM_SEQUENCE_CONFIG,
 4472              		.loc 1 1051 0
 4473 0030 1723     		movs	r3, #23
 4474 0032 FC18     		adds	r4, r7, r3
 4475 0034 0F23     		movs	r3, #15
 4476 0036 FA18     		adds	r2, r7, r3
 4477 0038 7B68     		ldr	r3, [r7, #4]
 4478 003a 0121     		movs	r1, #1
 4479 003c 1800     		movs	r0, r3
 4480 003e FFF7FEFF 		bl	VL53L0X_RdByte
 4481 0042 0300     		movs	r3, r0
 4482 0044 2370     		strb	r3, [r4]
1052:Api\core\src/vl53l0x_api.c **** 		&SequenceConfig);
1053:Api\core\src/vl53l0x_api.c **** 
1054:Api\core\src/vl53l0x_api.c **** 	SequenceConfigNew = SequenceConfig;
 4483              		.loc 1 1054 0
 4484 0046 1623     		movs	r3, #22
 4485 0048 FB18     		adds	r3, r7, r3
 4486 004a 0F22     		movs	r2, #15
 4487 004c BA18     		adds	r2, r7, r2
 4488 004e 1278     		ldrb	r2, [r2]
 4489 0050 1A70     		strb	r2, [r3]
1055:Api\core\src/vl53l0x_api.c **** 
1056:Api\core\src/vl53l0x_api.c **** 	if (Status == VL53L0X_ERROR_NONE) {
 4490              		.loc 1 1056 0
 4491 0052 1723     		movs	r3, #23
 4492 0054 FB18     		adds	r3, r7, r3
 4493 0056 1B78     		ldrb	r3, [r3]
 4494 0058 5BB2     		sxtb	r3, r3
 4495 005a 002B     		cmp	r3, #0
 4496 005c 00D0     		beq	.LCB3330
 4497 005e 79E0     		b	.L182	@long jump
 4498              	.LCB3330:
1057:Api\core\src/vl53l0x_api.c **** 		if (SequenceStepEnabled == 1) {
 4499              		.loc 1 1057 0
 4500 0060 BB1C     		adds	r3, r7, #2
 4501 0062 1B78     		ldrb	r3, [r3]
 4502 0064 012B     		cmp	r3, #1
 4503 0066 3BD1     		bne	.L183
1058:Api\core\src/vl53l0x_api.c **** 
1059:Api\core\src/vl53l0x_api.c **** 			/* Enable requested sequence step
1060:Api\core\src/vl53l0x_api.c **** 			 */
1061:Api\core\src/vl53l0x_api.c **** 			switch (SequenceStepId) {
 4504              		.loc 1 1061 0
 4505 0068 FB1C     		adds	r3, r7, #3
 4506 006a 1B78     		ldrb	r3, [r3]
 4507 006c 042B     		cmp	r3, #4
 4508 006e 32D8     		bhi	.L184
 4509 0070 9A00     		lsls	r2, r3, #2
 4510 0072 574B     		ldr	r3, .L203
 4511 0074 D318     		adds	r3, r2, r3
 4512 0076 1B68     		ldr	r3, [r3]
 4513 0078 9F46     		mov	pc, r3
 4514              		.section	.rodata
 4515              		.align	2
 4516              	.L186:
 4517 0058 7A000000 		.word	.L185
ARM GAS  C:\Users\ilya\AppData\Local\Temp\ccpEIuqL.s 			page 99


 4518 005c 8C000000 		.word	.L187
 4519 0060 9E000000 		.word	.L188
 4520 0064 B0000000 		.word	.L189
 4521 0068 C2000000 		.word	.L190
 4522              		.section	.text.VL53L0X_SetSequenceStepEnable
 4523              	.L185:
1062:Api\core\src/vl53l0x_api.c **** 			case VL53L0X_SEQUENCESTEP_TCC:
1063:Api\core\src/vl53l0x_api.c **** 				SequenceConfigNew |= 0x10;
 4524              		.loc 1 1063 0
 4525 007a 1623     		movs	r3, #22
 4526 007c FB18     		adds	r3, r7, r3
 4527 007e 1622     		movs	r2, #22
 4528 0080 BA18     		adds	r2, r7, r2
 4529 0082 1278     		ldrb	r2, [r2]
 4530 0084 1021     		movs	r1, #16
 4531 0086 0A43     		orrs	r2, r1
 4532 0088 1A70     		strb	r2, [r3]
1064:Api\core\src/vl53l0x_api.c **** 				break;
 4533              		.loc 1 1064 0
 4534 008a 63E0     		b	.L182
 4535              	.L187:
1065:Api\core\src/vl53l0x_api.c **** 			case VL53L0X_SEQUENCESTEP_DSS:
1066:Api\core\src/vl53l0x_api.c **** 				SequenceConfigNew |= 0x28;
 4536              		.loc 1 1066 0
 4537 008c 1623     		movs	r3, #22
 4538 008e FB18     		adds	r3, r7, r3
 4539 0090 1622     		movs	r2, #22
 4540 0092 BA18     		adds	r2, r7, r2
 4541 0094 1278     		ldrb	r2, [r2]
 4542 0096 2821     		movs	r1, #40
 4543 0098 0A43     		orrs	r2, r1
 4544 009a 1A70     		strb	r2, [r3]
1067:Api\core\src/vl53l0x_api.c **** 				break;
 4545              		.loc 1 1067 0
 4546 009c 5AE0     		b	.L182
 4547              	.L188:
1068:Api\core\src/vl53l0x_api.c **** 			case VL53L0X_SEQUENCESTEP_MSRC:
1069:Api\core\src/vl53l0x_api.c **** 				SequenceConfigNew |= 0x04;
 4548              		.loc 1 1069 0
 4549 009e 1623     		movs	r3, #22
 4550 00a0 FB18     		adds	r3, r7, r3
 4551 00a2 1622     		movs	r2, #22
 4552 00a4 BA18     		adds	r2, r7, r2
 4553 00a6 1278     		ldrb	r2, [r2]
 4554 00a8 0421     		movs	r1, #4
 4555 00aa 0A43     		orrs	r2, r1
 4556 00ac 1A70     		strb	r2, [r3]
1070:Api\core\src/vl53l0x_api.c **** 				break;
 4557              		.loc 1 1070 0
 4558 00ae 51E0     		b	.L182
 4559              	.L189:
1071:Api\core\src/vl53l0x_api.c **** 			case VL53L0X_SEQUENCESTEP_PRE_RANGE:
1072:Api\core\src/vl53l0x_api.c **** 				SequenceConfigNew |= 0x40;
 4560              		.loc 1 1072 0
 4561 00b0 1623     		movs	r3, #22
 4562 00b2 FB18     		adds	r3, r7, r3
 4563 00b4 1622     		movs	r2, #22
ARM GAS  C:\Users\ilya\AppData\Local\Temp\ccpEIuqL.s 			page 100


 4564 00b6 BA18     		adds	r2, r7, r2
 4565 00b8 1278     		ldrb	r2, [r2]
 4566 00ba 4021     		movs	r1, #64
 4567 00bc 0A43     		orrs	r2, r1
 4568 00be 1A70     		strb	r2, [r3]
1073:Api\core\src/vl53l0x_api.c **** 				break;
 4569              		.loc 1 1073 0
 4570 00c0 48E0     		b	.L182
 4571              	.L190:
1074:Api\core\src/vl53l0x_api.c **** 			case VL53L0X_SEQUENCESTEP_FINAL_RANGE:
1075:Api\core\src/vl53l0x_api.c **** 				SequenceConfigNew |= 0x80;
 4572              		.loc 1 1075 0
 4573 00c2 1623     		movs	r3, #22
 4574 00c4 FB18     		adds	r3, r7, r3
 4575 00c6 1622     		movs	r2, #22
 4576 00c8 BA18     		adds	r2, r7, r2
 4577 00ca 1278     		ldrb	r2, [r2]
 4578 00cc 8021     		movs	r1, #128
 4579 00ce 4942     		rsbs	r1, r1, #0
 4580 00d0 0A43     		orrs	r2, r1
 4581 00d2 1A70     		strb	r2, [r3]
1076:Api\core\src/vl53l0x_api.c **** 				break;
 4582              		.loc 1 1076 0
 4583 00d4 3EE0     		b	.L182
 4584              	.L184:
1077:Api\core\src/vl53l0x_api.c **** 			default:
1078:Api\core\src/vl53l0x_api.c **** 				Status = VL53L0X_ERROR_INVALID_PARAMS;
 4585              		.loc 1 1078 0
 4586 00d6 1723     		movs	r3, #23
 4587 00d8 FB18     		adds	r3, r7, r3
 4588 00da FC22     		movs	r2, #252
 4589 00dc 1A70     		strb	r2, [r3]
 4590 00de 39E0     		b	.L182
 4591              	.L183:
1079:Api\core\src/vl53l0x_api.c **** 			}
1080:Api\core\src/vl53l0x_api.c **** 		} else {
1081:Api\core\src/vl53l0x_api.c **** 			/* Disable requested sequence step
1082:Api\core\src/vl53l0x_api.c **** 			 */
1083:Api\core\src/vl53l0x_api.c **** 			switch (SequenceStepId) {
 4592              		.loc 1 1083 0
 4593 00e0 FB1C     		adds	r3, r7, #3
 4594 00e2 1B78     		ldrb	r3, [r3]
 4595 00e4 042B     		cmp	r3, #4
 4596 00e6 31D8     		bhi	.L192
 4597 00e8 9A00     		lsls	r2, r3, #2
 4598 00ea 3A4B     		ldr	r3, .L203+4
 4599 00ec D318     		adds	r3, r2, r3
 4600 00ee 1B68     		ldr	r3, [r3]
 4601 00f0 9F46     		mov	pc, r3
 4602              		.section	.rodata
 4603              		.align	2
 4604              	.L194:
 4605 006c F2000000 		.word	.L193
 4606 0070 04010000 		.word	.L195
 4607 0074 16010000 		.word	.L196
 4608 0078 28010000 		.word	.L197
 4609 007c 3A010000 		.word	.L198
ARM GAS  C:\Users\ilya\AppData\Local\Temp\ccpEIuqL.s 			page 101


 4610              		.section	.text.VL53L0X_SetSequenceStepEnable
 4611              	.L193:
1084:Api\core\src/vl53l0x_api.c **** 			case VL53L0X_SEQUENCESTEP_TCC:
1085:Api\core\src/vl53l0x_api.c **** 				SequenceConfigNew &= 0xef;
 4612              		.loc 1 1085 0
 4613 00f2 1623     		movs	r3, #22
 4614 00f4 FB18     		adds	r3, r7, r3
 4615 00f6 1622     		movs	r2, #22
 4616 00f8 BA18     		adds	r2, r7, r2
 4617 00fa 1278     		ldrb	r2, [r2]
 4618 00fc 1021     		movs	r1, #16
 4619 00fe 8A43     		bics	r2, r1
 4620 0100 1A70     		strb	r2, [r3]
1086:Api\core\src/vl53l0x_api.c **** 				break;
 4621              		.loc 1 1086 0
 4622 0102 27E0     		b	.L182
 4623              	.L195:
1087:Api\core\src/vl53l0x_api.c **** 			case VL53L0X_SEQUENCESTEP_DSS:
1088:Api\core\src/vl53l0x_api.c **** 				SequenceConfigNew &= 0xd7;
 4624              		.loc 1 1088 0
 4625 0104 1623     		movs	r3, #22
 4626 0106 FB18     		adds	r3, r7, r3
 4627 0108 1622     		movs	r2, #22
 4628 010a BA18     		adds	r2, r7, r2
 4629 010c 1278     		ldrb	r2, [r2]
 4630 010e 2821     		movs	r1, #40
 4631 0110 8A43     		bics	r2, r1
 4632 0112 1A70     		strb	r2, [r3]
1089:Api\core\src/vl53l0x_api.c **** 				break;
 4633              		.loc 1 1089 0
 4634 0114 1EE0     		b	.L182
 4635              	.L196:
1090:Api\core\src/vl53l0x_api.c **** 			case VL53L0X_SEQUENCESTEP_MSRC:
1091:Api\core\src/vl53l0x_api.c **** 				SequenceConfigNew &= 0xfb;
 4636              		.loc 1 1091 0
 4637 0116 1623     		movs	r3, #22
 4638 0118 FB18     		adds	r3, r7, r3
 4639 011a 1622     		movs	r2, #22
 4640 011c BA18     		adds	r2, r7, r2
 4641 011e 1278     		ldrb	r2, [r2]
 4642 0120 0421     		movs	r1, #4
 4643 0122 8A43     		bics	r2, r1
 4644 0124 1A70     		strb	r2, [r3]
1092:Api\core\src/vl53l0x_api.c **** 				break;
 4645              		.loc 1 1092 0
 4646 0126 15E0     		b	.L182
 4647              	.L197:
1093:Api\core\src/vl53l0x_api.c **** 			case VL53L0X_SEQUENCESTEP_PRE_RANGE:
1094:Api\core\src/vl53l0x_api.c **** 				SequenceConfigNew &= 0xbf;
 4648              		.loc 1 1094 0
 4649 0128 1623     		movs	r3, #22
 4650 012a FB18     		adds	r3, r7, r3
 4651 012c 1622     		movs	r2, #22
 4652 012e BA18     		adds	r2, r7, r2
 4653 0130 1278     		ldrb	r2, [r2]
 4654 0132 4021     		movs	r1, #64
 4655 0134 8A43     		bics	r2, r1
ARM GAS  C:\Users\ilya\AppData\Local\Temp\ccpEIuqL.s 			page 102


 4656 0136 1A70     		strb	r2, [r3]
1095:Api\core\src/vl53l0x_api.c **** 				break;
 4657              		.loc 1 1095 0
 4658 0138 0CE0     		b	.L182
 4659              	.L198:
1096:Api\core\src/vl53l0x_api.c **** 			case VL53L0X_SEQUENCESTEP_FINAL_RANGE:
1097:Api\core\src/vl53l0x_api.c **** 				SequenceConfigNew &= 0x7f;
 4660              		.loc 1 1097 0
 4661 013a 1623     		movs	r3, #22
 4662 013c FB18     		adds	r3, r7, r3
 4663 013e 1622     		movs	r2, #22
 4664 0140 BA18     		adds	r2, r7, r2
 4665 0142 1278     		ldrb	r2, [r2]
 4666 0144 7F21     		movs	r1, #127
 4667 0146 0A40     		ands	r2, r1
 4668 0148 1A70     		strb	r2, [r3]
1098:Api\core\src/vl53l0x_api.c **** 				break;
 4669              		.loc 1 1098 0
 4670 014a 03E0     		b	.L182
 4671              	.L192:
1099:Api\core\src/vl53l0x_api.c **** 			default:
1100:Api\core\src/vl53l0x_api.c **** 				Status = VL53L0X_ERROR_INVALID_PARAMS;
 4672              		.loc 1 1100 0
 4673 014c 1723     		movs	r3, #23
 4674 014e FB18     		adds	r3, r7, r3
 4675 0150 FC22     		movs	r2, #252
 4676 0152 1A70     		strb	r2, [r3]
 4677              	.L182:
1101:Api\core\src/vl53l0x_api.c **** 			}
1102:Api\core\src/vl53l0x_api.c **** 		}
1103:Api\core\src/vl53l0x_api.c **** 	}
1104:Api\core\src/vl53l0x_api.c **** 
1105:Api\core\src/vl53l0x_api.c **** 	if (SequenceConfigNew != SequenceConfig) {
 4678              		.loc 1 1105 0
 4679 0154 0F23     		movs	r3, #15
 4680 0156 FB18     		adds	r3, r7, r3
 4681 0158 1B78     		ldrb	r3, [r3]
 4682 015a 1622     		movs	r2, #22
 4683 015c BA18     		adds	r2, r7, r2
 4684 015e 1278     		ldrb	r2, [r2]
 4685 0160 9A42     		cmp	r2, r3
 4686 0162 2DD0     		beq	.L199
1106:Api\core\src/vl53l0x_api.c **** 		/* Apply New Setting */
1107:Api\core\src/vl53l0x_api.c **** 		if (Status == VL53L0X_ERROR_NONE) {
 4687              		.loc 1 1107 0
 4688 0164 1723     		movs	r3, #23
 4689 0166 FB18     		adds	r3, r7, r3
 4690 0168 1B78     		ldrb	r3, [r3]
 4691 016a 5BB2     		sxtb	r3, r3
 4692 016c 002B     		cmp	r3, #0
 4693 016e 0BD1     		bne	.L200
1108:Api\core\src/vl53l0x_api.c **** 			Status = VL53L0X_WrByte(Dev,
 4694              		.loc 1 1108 0
 4695 0170 1723     		movs	r3, #23
 4696 0172 FC18     		adds	r4, r7, r3
 4697 0174 1623     		movs	r3, #22
 4698 0176 FB18     		adds	r3, r7, r3
ARM GAS  C:\Users\ilya\AppData\Local\Temp\ccpEIuqL.s 			page 103


 4699 0178 1A78     		ldrb	r2, [r3]
 4700 017a 7B68     		ldr	r3, [r7, #4]
 4701 017c 0121     		movs	r1, #1
 4702 017e 1800     		movs	r0, r3
 4703 0180 FFF7FEFF 		bl	VL53L0X_WrByte
 4704 0184 0300     		movs	r3, r0
 4705 0186 2370     		strb	r3, [r4]
 4706              	.L200:
1109:Api\core\src/vl53l0x_api.c **** 			VL53L0X_REG_SYSTEM_SEQUENCE_CONFIG, SequenceConfigNew);
1110:Api\core\src/vl53l0x_api.c **** 		}
1111:Api\core\src/vl53l0x_api.c **** 		if (Status == VL53L0X_ERROR_NONE)
 4707              		.loc 1 1111 0
 4708 0188 1723     		movs	r3, #23
 4709 018a FB18     		adds	r3, r7, r3
 4710 018c 1B78     		ldrb	r3, [r3]
 4711 018e 5BB2     		sxtb	r3, r3
 4712 0190 002B     		cmp	r3, #0
 4713 0192 06D1     		bne	.L201
1112:Api\core\src/vl53l0x_api.c **** 			PALDevDataSet(Dev, SequenceConfig, SequenceConfigNew);
 4714              		.loc 1 1112 0
 4715 0194 7A68     		ldr	r2, [r7, #4]
 4716 0196 1623     		movs	r3, #22
 4717 0198 F918     		adds	r1, r7, r3
 4718 019a 9823     		movs	r3, #152
 4719 019c 5B00     		lsls	r3, r3, #1
 4720 019e 0978     		ldrb	r1, [r1]
 4721 01a0 D154     		strb	r1, [r2, r3]
 4722              	.L201:
1113:Api\core\src/vl53l0x_api.c **** 
1114:Api\core\src/vl53l0x_api.c **** 
1115:Api\core\src/vl53l0x_api.c **** 		/* Recalculate timing budget */
1116:Api\core\src/vl53l0x_api.c **** 		if (Status == VL53L0X_ERROR_NONE) {
 4723              		.loc 1 1116 0
 4724 01a2 1723     		movs	r3, #23
 4725 01a4 FB18     		adds	r3, r7, r3
 4726 01a6 1B78     		ldrb	r3, [r3]
 4727 01a8 5BB2     		sxtb	r3, r3
 4728 01aa 002B     		cmp	r3, #0
 4729 01ac 08D1     		bne	.L199
1117:Api\core\src/vl53l0x_api.c **** 			VL53L0X_GETPARAMETERFIELD(Dev,
 4730              		.loc 1 1117 0
 4731 01ae 7B68     		ldr	r3, [r7, #4]
 4732 01b0 5B69     		ldr	r3, [r3, #20]
 4733 01b2 3B61     		str	r3, [r7, #16]
1118:Api\core\src/vl53l0x_api.c **** 				MeasurementTimingBudgetMicroSeconds,
1119:Api\core\src/vl53l0x_api.c **** 				MeasurementTimingBudgetMicroSeconds);
1120:Api\core\src/vl53l0x_api.c **** 
1121:Api\core\src/vl53l0x_api.c **** 			VL53L0X_SetMeasurementTimingBudgetMicroSeconds(Dev,
 4734              		.loc 1 1121 0
 4735 01b4 3A69     		ldr	r2, [r7, #16]
 4736 01b6 7B68     		ldr	r3, [r7, #4]
 4737 01b8 1100     		movs	r1, r2
 4738 01ba 1800     		movs	r0, r3
 4739 01bc FFF7FEFF 		bl	VL53L0X_SetMeasurementTimingBudgetMicroSeconds
 4740              	.L199:
1122:Api\core\src/vl53l0x_api.c **** 				MeasurementTimingBudgetMicroSeconds);
1123:Api\core\src/vl53l0x_api.c **** 		}
ARM GAS  C:\Users\ilya\AppData\Local\Temp\ccpEIuqL.s 			page 104


1124:Api\core\src/vl53l0x_api.c **** 	}
1125:Api\core\src/vl53l0x_api.c **** 
1126:Api\core\src/vl53l0x_api.c **** 	LOG_FUNCTION_END(Status);
1127:Api\core\src/vl53l0x_api.c **** 
1128:Api\core\src/vl53l0x_api.c **** 	return Status;
 4741              		.loc 1 1128 0
 4742 01c0 1723     		movs	r3, #23
 4743 01c2 FB18     		adds	r3, r7, r3
 4744 01c4 1B78     		ldrb	r3, [r3]
 4745 01c6 5BB2     		sxtb	r3, r3
1129:Api\core\src/vl53l0x_api.c **** }
 4746              		.loc 1 1129 0
 4747 01c8 1800     		movs	r0, r3
 4748 01ca BD46     		mov	sp, r7
 4749 01cc 07B0     		add	sp, sp, #28
 4750              		@ sp needed
 4751 01ce 90BD     		pop	{r4, r7, pc}
 4752              	.L204:
 4753              		.align	2
 4754              	.L203:
 4755 01d0 58000000 		.word	.L186
 4756 01d4 6C000000 		.word	.L194
 4757              		.cfi_endproc
 4758              	.LFE39:
 4759              		.size	VL53L0X_SetSequenceStepEnable, .-VL53L0X_SetSequenceStepEnable
 4760              		.section	.text.sequence_step_enabled,"ax",%progbits
 4761              		.align	2
 4762              		.global	sequence_step_enabled
 4763              		.code	16
 4764              		.thumb_func
 4765              		.type	sequence_step_enabled, %function
 4766              	sequence_step_enabled:
 4767              	.LFB40:
1130:Api\core\src/vl53l0x_api.c **** 
1131:Api\core\src/vl53l0x_api.c **** VL53L0X_Error sequence_step_enabled(VL53L0X_DEV Dev,
1132:Api\core\src/vl53l0x_api.c **** 	VL53L0X_SequenceStepId SequenceStepId, uint8_t SequenceConfig,
1133:Api\core\src/vl53l0x_api.c **** 	uint8_t *pSequenceStepEnabled)
1134:Api\core\src/vl53l0x_api.c **** {
 4768              		.loc 1 1134 0
 4769              		.cfi_startproc
 4770              		@ args = 0, pretend = 0, frame = 24
 4771              		@ frame_needed = 1, uses_anonymous_args = 0
 4772 0000 80B5     		push	{r7, lr}
 4773              		.cfi_def_cfa_offset 8
 4774              		.cfi_offset 7, -8
 4775              		.cfi_offset 14, -4
 4776 0002 86B0     		sub	sp, sp, #24
 4777              		.cfi_def_cfa_offset 32
 4778 0004 00AF     		add	r7, sp, #0
 4779              		.cfi_def_cfa_register 7
 4780 0006 F860     		str	r0, [r7, #12]
 4781 0008 0800     		movs	r0, r1
 4782 000a 1100     		movs	r1, r2
 4783 000c 7B60     		str	r3, [r7, #4]
 4784 000e 0B23     		movs	r3, #11
 4785 0010 FB18     		adds	r3, r7, r3
 4786 0012 021C     		adds	r2, r0, #0
ARM GAS  C:\Users\ilya\AppData\Local\Temp\ccpEIuqL.s 			page 105


 4787 0014 1A70     		strb	r2, [r3]
 4788 0016 0A23     		movs	r3, #10
 4789 0018 FB18     		adds	r3, r7, r3
 4790 001a 0A1C     		adds	r2, r1, #0
 4791 001c 1A70     		strb	r2, [r3]
1135:Api\core\src/vl53l0x_api.c **** 	VL53L0X_Error Status = VL53L0X_ERROR_NONE;
 4792              		.loc 1 1135 0
 4793 001e 1723     		movs	r3, #23
 4794 0020 FB18     		adds	r3, r7, r3
 4795 0022 0022     		movs	r2, #0
 4796 0024 1A70     		strb	r2, [r3]
1136:Api\core\src/vl53l0x_api.c **** 	*pSequenceStepEnabled = 0;
 4797              		.loc 1 1136 0
 4798 0026 7B68     		ldr	r3, [r7, #4]
 4799 0028 0022     		movs	r2, #0
 4800 002a 1A70     		strb	r2, [r3]
1137:Api\core\src/vl53l0x_api.c **** 	LOG_FUNCTION_START("");
1138:Api\core\src/vl53l0x_api.c **** 
1139:Api\core\src/vl53l0x_api.c **** 	switch (SequenceStepId) {
 4801              		.loc 1 1139 0
 4802 002c 0B23     		movs	r3, #11
 4803 002e FB18     		adds	r3, r7, r3
 4804 0030 1B78     		ldrb	r3, [r3]
 4805 0032 042B     		cmp	r3, #4
 4806 0034 38D8     		bhi	.L206
 4807 0036 9A00     		lsls	r2, r3, #2
 4808 0038 214B     		ldr	r3, .L215
 4809 003a D318     		adds	r3, r2, r3
 4810 003c 1B68     		ldr	r3, [r3]
 4811 003e 9F46     		mov	pc, r3
 4812              		.section	.rodata
 4813              		.align	2
 4814              	.L208:
 4815 0080 40000000 		.word	.L207
 4816 0084 56000000 		.word	.L209
 4817 0088 6C000000 		.word	.L210
 4818 008c 82000000 		.word	.L211
 4819 0090 98000000 		.word	.L212
 4820              		.section	.text.sequence_step_enabled
 4821              	.L207:
1140:Api\core\src/vl53l0x_api.c **** 	case VL53L0X_SEQUENCESTEP_TCC:
1141:Api\core\src/vl53l0x_api.c **** 		*pSequenceStepEnabled = (SequenceConfig & 0x10) >> 4;
 4822              		.loc 1 1141 0
 4823 0040 0A23     		movs	r3, #10
 4824 0042 FB18     		adds	r3, r7, r3
 4825 0044 1B78     		ldrb	r3, [r3]
 4826 0046 1B11     		asrs	r3, r3, #4
 4827 0048 DBB2     		uxtb	r3, r3
 4828 004a 0122     		movs	r2, #1
 4829 004c 1340     		ands	r3, r2
 4830 004e DAB2     		uxtb	r2, r3
 4831 0050 7B68     		ldr	r3, [r7, #4]
 4832 0052 1A70     		strb	r2, [r3]
1142:Api\core\src/vl53l0x_api.c **** 		break;
 4833              		.loc 1 1142 0
 4834 0054 2CE0     		b	.L213
 4835              	.L209:
ARM GAS  C:\Users\ilya\AppData\Local\Temp\ccpEIuqL.s 			page 106


1143:Api\core\src/vl53l0x_api.c **** 	case VL53L0X_SEQUENCESTEP_DSS:
1144:Api\core\src/vl53l0x_api.c **** 		*pSequenceStepEnabled = (SequenceConfig & 0x08) >> 3;
 4836              		.loc 1 1144 0
 4837 0056 0A23     		movs	r3, #10
 4838 0058 FB18     		adds	r3, r7, r3
 4839 005a 1B78     		ldrb	r3, [r3]
 4840 005c DB10     		asrs	r3, r3, #3
 4841 005e DBB2     		uxtb	r3, r3
 4842 0060 0122     		movs	r2, #1
 4843 0062 1340     		ands	r3, r2
 4844 0064 DAB2     		uxtb	r2, r3
 4845 0066 7B68     		ldr	r3, [r7, #4]
 4846 0068 1A70     		strb	r2, [r3]
1145:Api\core\src/vl53l0x_api.c **** 		break;
 4847              		.loc 1 1145 0
 4848 006a 21E0     		b	.L213
 4849              	.L210:
1146:Api\core\src/vl53l0x_api.c **** 	case VL53L0X_SEQUENCESTEP_MSRC:
1147:Api\core\src/vl53l0x_api.c **** 		*pSequenceStepEnabled = (SequenceConfig & 0x04) >> 2;
 4850              		.loc 1 1147 0
 4851 006c 0A23     		movs	r3, #10
 4852 006e FB18     		adds	r3, r7, r3
 4853 0070 1B78     		ldrb	r3, [r3]
 4854 0072 9B10     		asrs	r3, r3, #2
 4855 0074 DBB2     		uxtb	r3, r3
 4856 0076 0122     		movs	r2, #1
 4857 0078 1340     		ands	r3, r2
 4858 007a DAB2     		uxtb	r2, r3
 4859 007c 7B68     		ldr	r3, [r7, #4]
 4860 007e 1A70     		strb	r2, [r3]
1148:Api\core\src/vl53l0x_api.c **** 		break;
 4861              		.loc 1 1148 0
 4862 0080 16E0     		b	.L213
 4863              	.L211:
1149:Api\core\src/vl53l0x_api.c **** 	case VL53L0X_SEQUENCESTEP_PRE_RANGE:
1150:Api\core\src/vl53l0x_api.c **** 		*pSequenceStepEnabled = (SequenceConfig & 0x40) >> 6;
 4864              		.loc 1 1150 0
 4865 0082 0A23     		movs	r3, #10
 4866 0084 FB18     		adds	r3, r7, r3
 4867 0086 1B78     		ldrb	r3, [r3]
 4868 0088 9B11     		asrs	r3, r3, #6
 4869 008a DBB2     		uxtb	r3, r3
 4870 008c 0122     		movs	r2, #1
 4871 008e 1340     		ands	r3, r2
 4872 0090 DAB2     		uxtb	r2, r3
 4873 0092 7B68     		ldr	r3, [r7, #4]
 4874 0094 1A70     		strb	r2, [r3]
1151:Api\core\src/vl53l0x_api.c **** 		break;
 4875              		.loc 1 1151 0
 4876 0096 0BE0     		b	.L213
 4877              	.L212:
1152:Api\core\src/vl53l0x_api.c **** 	case VL53L0X_SEQUENCESTEP_FINAL_RANGE:
1153:Api\core\src/vl53l0x_api.c **** 		*pSequenceStepEnabled = (SequenceConfig & 0x80) >> 7;
 4878              		.loc 1 1153 0
 4879 0098 0A23     		movs	r3, #10
 4880 009a FB18     		adds	r3, r7, r3
 4881 009c 1B78     		ldrb	r3, [r3]
ARM GAS  C:\Users\ilya\AppData\Local\Temp\ccpEIuqL.s 			page 107


 4882 009e DB09     		lsrs	r3, r3, #7
 4883 00a0 DAB2     		uxtb	r2, r3
 4884 00a2 7B68     		ldr	r3, [r7, #4]
 4885 00a4 1A70     		strb	r2, [r3]
1154:Api\core\src/vl53l0x_api.c **** 		break;
 4886              		.loc 1 1154 0
 4887 00a6 03E0     		b	.L213
 4888              	.L206:
1155:Api\core\src/vl53l0x_api.c **** 	default:
1156:Api\core\src/vl53l0x_api.c **** 		Status = VL53L0X_ERROR_INVALID_PARAMS;
 4889              		.loc 1 1156 0
 4890 00a8 1723     		movs	r3, #23
 4891 00aa FB18     		adds	r3, r7, r3
 4892 00ac FC22     		movs	r2, #252
 4893 00ae 1A70     		strb	r2, [r3]
 4894              	.L213:
1157:Api\core\src/vl53l0x_api.c **** 	}
1158:Api\core\src/vl53l0x_api.c **** 
1159:Api\core\src/vl53l0x_api.c **** 	LOG_FUNCTION_END(Status);
1160:Api\core\src/vl53l0x_api.c **** 	return Status;
 4895              		.loc 1 1160 0
 4896 00b0 1723     		movs	r3, #23
 4897 00b2 FB18     		adds	r3, r7, r3
 4898 00b4 1B78     		ldrb	r3, [r3]
 4899 00b6 5BB2     		sxtb	r3, r3
1161:Api\core\src/vl53l0x_api.c **** }
 4900              		.loc 1 1161 0
 4901 00b8 1800     		movs	r0, r3
 4902 00ba BD46     		mov	sp, r7
 4903 00bc 06B0     		add	sp, sp, #24
 4904              		@ sp needed
 4905 00be 80BD     		pop	{r7, pc}
 4906              	.L216:
 4907              		.align	2
 4908              	.L215:
 4909 00c0 80000000 		.word	.L208
 4910              		.cfi_endproc
 4911              	.LFE40:
 4912              		.size	sequence_step_enabled, .-sequence_step_enabled
 4913              		.section	.text.VL53L0X_GetSequenceStepEnable,"ax",%progbits
 4914              		.align	2
 4915              		.global	VL53L0X_GetSequenceStepEnable
 4916              		.code	16
 4917              		.thumb_func
 4918              		.type	VL53L0X_GetSequenceStepEnable, %function
 4919              	VL53L0X_GetSequenceStepEnable:
 4920              	.LFB41:
1162:Api\core\src/vl53l0x_api.c **** 
1163:Api\core\src/vl53l0x_api.c **** VL53L0X_Error VL53L0X_GetSequenceStepEnable(VL53L0X_DEV Dev,
1164:Api\core\src/vl53l0x_api.c **** 	VL53L0X_SequenceStepId SequenceStepId, uint8_t *pSequenceStepEnabled)
1165:Api\core\src/vl53l0x_api.c **** {
 4921              		.loc 1 1165 0
 4922              		.cfi_startproc
 4923              		@ args = 0, pretend = 0, frame = 24
 4924              		@ frame_needed = 1, uses_anonymous_args = 0
 4925 0000 B0B5     		push	{r4, r5, r7, lr}
 4926              		.cfi_def_cfa_offset 16
ARM GAS  C:\Users\ilya\AppData\Local\Temp\ccpEIuqL.s 			page 108


 4927              		.cfi_offset 4, -16
 4928              		.cfi_offset 5, -12
 4929              		.cfi_offset 7, -8
 4930              		.cfi_offset 14, -4
 4931 0002 86B0     		sub	sp, sp, #24
 4932              		.cfi_def_cfa_offset 40
 4933 0004 00AF     		add	r7, sp, #0
 4934              		.cfi_def_cfa_register 7
 4935 0006 F860     		str	r0, [r7, #12]
 4936 0008 7A60     		str	r2, [r7, #4]
 4937 000a 0B23     		movs	r3, #11
 4938 000c FB18     		adds	r3, r7, r3
 4939 000e 0A1C     		adds	r2, r1, #0
 4940 0010 1A70     		strb	r2, [r3]
1166:Api\core\src/vl53l0x_api.c **** 	VL53L0X_Error Status = VL53L0X_ERROR_NONE;
 4941              		.loc 1 1166 0
 4942 0012 1723     		movs	r3, #23
 4943 0014 FB18     		adds	r3, r7, r3
 4944 0016 0022     		movs	r2, #0
 4945 0018 1A70     		strb	r2, [r3]
1167:Api\core\src/vl53l0x_api.c **** 	uint8_t SequenceConfig = 0;
 4946              		.loc 1 1167 0
 4947 001a 1623     		movs	r3, #22
 4948 001c FB18     		adds	r3, r7, r3
 4949 001e 0022     		movs	r2, #0
 4950 0020 1A70     		strb	r2, [r3]
1168:Api\core\src/vl53l0x_api.c **** 	LOG_FUNCTION_START("");
1169:Api\core\src/vl53l0x_api.c **** 
1170:Api\core\src/vl53l0x_api.c **** 	Status = VL53L0X_RdByte(Dev, VL53L0X_REG_SYSTEM_SEQUENCE_CONFIG,
 4951              		.loc 1 1170 0
 4952 0022 1723     		movs	r3, #23
 4953 0024 FC18     		adds	r4, r7, r3
 4954 0026 1623     		movs	r3, #22
 4955 0028 FA18     		adds	r2, r7, r3
 4956 002a FB68     		ldr	r3, [r7, #12]
 4957 002c 0121     		movs	r1, #1
 4958 002e 1800     		movs	r0, r3
 4959 0030 FFF7FEFF 		bl	VL53L0X_RdByte
 4960 0034 0300     		movs	r3, r0
 4961 0036 2370     		strb	r3, [r4]
1171:Api\core\src/vl53l0x_api.c **** 		&SequenceConfig);
1172:Api\core\src/vl53l0x_api.c **** 
1173:Api\core\src/vl53l0x_api.c **** 	if (Status == VL53L0X_ERROR_NONE) {
 4962              		.loc 1 1173 0
 4963 0038 1723     		movs	r3, #23
 4964 003a FB18     		adds	r3, r7, r3
 4965 003c 1B78     		ldrb	r3, [r3]
 4966 003e 5BB2     		sxtb	r3, r3
 4967 0040 002B     		cmp	r3, #0
 4968 0042 0ED1     		bne	.L218
1174:Api\core\src/vl53l0x_api.c **** 		Status = sequence_step_enabled(Dev, SequenceStepId,
 4969              		.loc 1 1174 0
 4970 0044 1623     		movs	r3, #22
 4971 0046 FB18     		adds	r3, r7, r3
 4972 0048 1A78     		ldrb	r2, [r3]
 4973 004a 1723     		movs	r3, #23
 4974 004c FC18     		adds	r4, r7, r3
ARM GAS  C:\Users\ilya\AppData\Local\Temp\ccpEIuqL.s 			page 109


 4975 004e 7D68     		ldr	r5, [r7, #4]
 4976 0050 0B23     		movs	r3, #11
 4977 0052 FB18     		adds	r3, r7, r3
 4978 0054 1978     		ldrb	r1, [r3]
 4979 0056 F868     		ldr	r0, [r7, #12]
 4980 0058 2B00     		movs	r3, r5
 4981 005a FFF7FEFF 		bl	sequence_step_enabled
 4982 005e 0300     		movs	r3, r0
 4983 0060 2370     		strb	r3, [r4]
 4984              	.L218:
1175:Api\core\src/vl53l0x_api.c **** 			SequenceConfig, pSequenceStepEnabled);
1176:Api\core\src/vl53l0x_api.c **** 	}
1177:Api\core\src/vl53l0x_api.c **** 
1178:Api\core\src/vl53l0x_api.c **** 	LOG_FUNCTION_END(Status);
1179:Api\core\src/vl53l0x_api.c **** 	return Status;
 4985              		.loc 1 1179 0
 4986 0062 1723     		movs	r3, #23
 4987 0064 FB18     		adds	r3, r7, r3
 4988 0066 1B78     		ldrb	r3, [r3]
 4989 0068 5BB2     		sxtb	r3, r3
1180:Api\core\src/vl53l0x_api.c **** }
 4990              		.loc 1 1180 0
 4991 006a 1800     		movs	r0, r3
 4992 006c BD46     		mov	sp, r7
 4993 006e 06B0     		add	sp, sp, #24
 4994              		@ sp needed
 4995 0070 B0BD     		pop	{r4, r5, r7, pc}
 4996              		.cfi_endproc
 4997              	.LFE41:
 4998              		.size	VL53L0X_GetSequenceStepEnable, .-VL53L0X_GetSequenceStepEnable
 4999 0072 C046     		.section	.text.VL53L0X_GetSequenceStepEnables,"ax",%progbits
 5000              		.align	2
 5001              		.global	VL53L0X_GetSequenceStepEnables
 5002              		.code	16
 5003              		.thumb_func
 5004              		.type	VL53L0X_GetSequenceStepEnables, %function
 5005              	VL53L0X_GetSequenceStepEnables:
 5006              	.LFB42:
1181:Api\core\src/vl53l0x_api.c **** 
1182:Api\core\src/vl53l0x_api.c **** VL53L0X_Error VL53L0X_GetSequenceStepEnables(VL53L0X_DEV Dev,
1183:Api\core\src/vl53l0x_api.c **** 	VL53L0X_SchedulerSequenceSteps_t *pSchedulerSequenceSteps)
1184:Api\core\src/vl53l0x_api.c **** {
 5007              		.loc 1 1184 0
 5008              		.cfi_startproc
 5009              		@ args = 0, pretend = 0, frame = 16
 5010              		@ frame_needed = 1, uses_anonymous_args = 0
 5011 0000 90B5     		push	{r4, r7, lr}
 5012              		.cfi_def_cfa_offset 12
 5013              		.cfi_offset 4, -12
 5014              		.cfi_offset 7, -8
 5015              		.cfi_offset 14, -4
 5016 0002 85B0     		sub	sp, sp, #20
 5017              		.cfi_def_cfa_offset 32
 5018 0004 00AF     		add	r7, sp, #0
 5019              		.cfi_def_cfa_register 7
 5020 0006 7860     		str	r0, [r7, #4]
 5021 0008 3960     		str	r1, [r7]
ARM GAS  C:\Users\ilya\AppData\Local\Temp\ccpEIuqL.s 			page 110


1185:Api\core\src/vl53l0x_api.c **** 	VL53L0X_Error Status = VL53L0X_ERROR_NONE;
 5022              		.loc 1 1185 0
 5023 000a 0F23     		movs	r3, #15
 5024 000c FB18     		adds	r3, r7, r3
 5025 000e 0022     		movs	r2, #0
 5026 0010 1A70     		strb	r2, [r3]
1186:Api\core\src/vl53l0x_api.c **** 	uint8_t SequenceConfig = 0;
 5027              		.loc 1 1186 0
 5028 0012 0E23     		movs	r3, #14
 5029 0014 FB18     		adds	r3, r7, r3
 5030 0016 0022     		movs	r2, #0
 5031 0018 1A70     		strb	r2, [r3]
1187:Api\core\src/vl53l0x_api.c **** 	LOG_FUNCTION_START("");
1188:Api\core\src/vl53l0x_api.c **** 
1189:Api\core\src/vl53l0x_api.c **** 	Status = VL53L0X_RdByte(Dev, VL53L0X_REG_SYSTEM_SEQUENCE_CONFIG,
 5032              		.loc 1 1189 0
 5033 001a 0F23     		movs	r3, #15
 5034 001c FC18     		adds	r4, r7, r3
 5035 001e 0E23     		movs	r3, #14
 5036 0020 FA18     		adds	r2, r7, r3
 5037 0022 7B68     		ldr	r3, [r7, #4]
 5038 0024 0121     		movs	r1, #1
 5039 0026 1800     		movs	r0, r3
 5040 0028 FFF7FEFF 		bl	VL53L0X_RdByte
 5041 002c 0300     		movs	r3, r0
 5042 002e 2370     		strb	r3, [r4]
1190:Api\core\src/vl53l0x_api.c **** 		&SequenceConfig);
1191:Api\core\src/vl53l0x_api.c **** 
1192:Api\core\src/vl53l0x_api.c **** 	if (Status == VL53L0X_ERROR_NONE) {
 5043              		.loc 1 1192 0
 5044 0030 0F23     		movs	r3, #15
 5045 0032 FB18     		adds	r3, r7, r3
 5046 0034 1B78     		ldrb	r3, [r3]
 5047 0036 5BB2     		sxtb	r3, r3
 5048 0038 002B     		cmp	r3, #0
 5049 003a 0BD1     		bne	.L221
1193:Api\core\src/vl53l0x_api.c **** 		Status = sequence_step_enabled(Dev,
 5050              		.loc 1 1193 0
 5051 003c 0E23     		movs	r3, #14
 5052 003e FB18     		adds	r3, r7, r3
 5053 0040 1A78     		ldrb	r2, [r3]
 5054 0042 3B68     		ldr	r3, [r7]
 5055 0044 0F21     		movs	r1, #15
 5056 0046 7C18     		adds	r4, r7, r1
 5057 0048 7868     		ldr	r0, [r7, #4]
 5058 004a 0021     		movs	r1, #0
 5059 004c FFF7FEFF 		bl	sequence_step_enabled
 5060 0050 0300     		movs	r3, r0
 5061 0052 2370     		strb	r3, [r4]
 5062              	.L221:
1194:Api\core\src/vl53l0x_api.c **** 		VL53L0X_SEQUENCESTEP_TCC, SequenceConfig,
1195:Api\core\src/vl53l0x_api.c **** 			&pSchedulerSequenceSteps->TccOn);
1196:Api\core\src/vl53l0x_api.c **** 	}
1197:Api\core\src/vl53l0x_api.c **** 	if (Status == VL53L0X_ERROR_NONE) {
 5063              		.loc 1 1197 0
 5064 0054 0F23     		movs	r3, #15
 5065 0056 FB18     		adds	r3, r7, r3
ARM GAS  C:\Users\ilya\AppData\Local\Temp\ccpEIuqL.s 			page 111


 5066 0058 1B78     		ldrb	r3, [r3]
 5067 005a 5BB2     		sxtb	r3, r3
 5068 005c 002B     		cmp	r3, #0
 5069 005e 0CD1     		bne	.L222
1198:Api\core\src/vl53l0x_api.c **** 		Status = sequence_step_enabled(Dev,
 5070              		.loc 1 1198 0
 5071 0060 0E23     		movs	r3, #14
 5072 0062 FB18     		adds	r3, r7, r3
 5073 0064 1A78     		ldrb	r2, [r3]
 5074 0066 3B68     		ldr	r3, [r7]
 5075 0068 0233     		adds	r3, r3, #2
 5076 006a 0F21     		movs	r1, #15
 5077 006c 7C18     		adds	r4, r7, r1
 5078 006e 7868     		ldr	r0, [r7, #4]
 5079 0070 0121     		movs	r1, #1
 5080 0072 FFF7FEFF 		bl	sequence_step_enabled
 5081 0076 0300     		movs	r3, r0
 5082 0078 2370     		strb	r3, [r4]
 5083              	.L222:
1199:Api\core\src/vl53l0x_api.c **** 		VL53L0X_SEQUENCESTEP_DSS, SequenceConfig,
1200:Api\core\src/vl53l0x_api.c **** 			&pSchedulerSequenceSteps->DssOn);
1201:Api\core\src/vl53l0x_api.c **** 	}
1202:Api\core\src/vl53l0x_api.c **** 	if (Status == VL53L0X_ERROR_NONE) {
 5084              		.loc 1 1202 0
 5085 007a 0F23     		movs	r3, #15
 5086 007c FB18     		adds	r3, r7, r3
 5087 007e 1B78     		ldrb	r3, [r3]
 5088 0080 5BB2     		sxtb	r3, r3
 5089 0082 002B     		cmp	r3, #0
 5090 0084 0CD1     		bne	.L223
1203:Api\core\src/vl53l0x_api.c **** 		Status = sequence_step_enabled(Dev,
 5091              		.loc 1 1203 0
 5092 0086 0E23     		movs	r3, #14
 5093 0088 FB18     		adds	r3, r7, r3
 5094 008a 1A78     		ldrb	r2, [r3]
 5095 008c 3B68     		ldr	r3, [r7]
 5096 008e 0133     		adds	r3, r3, #1
 5097 0090 0F21     		movs	r1, #15
 5098 0092 7C18     		adds	r4, r7, r1
 5099 0094 7868     		ldr	r0, [r7, #4]
 5100 0096 0221     		movs	r1, #2
 5101 0098 FFF7FEFF 		bl	sequence_step_enabled
 5102 009c 0300     		movs	r3, r0
 5103 009e 2370     		strb	r3, [r4]
 5104              	.L223:
1204:Api\core\src/vl53l0x_api.c **** 		VL53L0X_SEQUENCESTEP_MSRC, SequenceConfig,
1205:Api\core\src/vl53l0x_api.c **** 			&pSchedulerSequenceSteps->MsrcOn);
1206:Api\core\src/vl53l0x_api.c **** 	}
1207:Api\core\src/vl53l0x_api.c **** 	if (Status == VL53L0X_ERROR_NONE) {
 5105              		.loc 1 1207 0
 5106 00a0 0F23     		movs	r3, #15
 5107 00a2 FB18     		adds	r3, r7, r3
 5108 00a4 1B78     		ldrb	r3, [r3]
 5109 00a6 5BB2     		sxtb	r3, r3
 5110 00a8 002B     		cmp	r3, #0
 5111 00aa 0CD1     		bne	.L224
1208:Api\core\src/vl53l0x_api.c **** 		Status = sequence_step_enabled(Dev,
ARM GAS  C:\Users\ilya\AppData\Local\Temp\ccpEIuqL.s 			page 112


 5112              		.loc 1 1208 0
 5113 00ac 0E23     		movs	r3, #14
 5114 00ae FB18     		adds	r3, r7, r3
 5115 00b0 1A78     		ldrb	r2, [r3]
 5116 00b2 3B68     		ldr	r3, [r7]
 5117 00b4 0333     		adds	r3, r3, #3
 5118 00b6 0F21     		movs	r1, #15
 5119 00b8 7C18     		adds	r4, r7, r1
 5120 00ba 7868     		ldr	r0, [r7, #4]
 5121 00bc 0321     		movs	r1, #3
 5122 00be FFF7FEFF 		bl	sequence_step_enabled
 5123 00c2 0300     		movs	r3, r0
 5124 00c4 2370     		strb	r3, [r4]
 5125              	.L224:
1209:Api\core\src/vl53l0x_api.c **** 		VL53L0X_SEQUENCESTEP_PRE_RANGE, SequenceConfig,
1210:Api\core\src/vl53l0x_api.c **** 			&pSchedulerSequenceSteps->PreRangeOn);
1211:Api\core\src/vl53l0x_api.c **** 	}
1212:Api\core\src/vl53l0x_api.c **** 	if (Status == VL53L0X_ERROR_NONE) {
 5126              		.loc 1 1212 0
 5127 00c6 0F23     		movs	r3, #15
 5128 00c8 FB18     		adds	r3, r7, r3
 5129 00ca 1B78     		ldrb	r3, [r3]
 5130 00cc 5BB2     		sxtb	r3, r3
 5131 00ce 002B     		cmp	r3, #0
 5132 00d0 0CD1     		bne	.L225
1213:Api\core\src/vl53l0x_api.c **** 		Status = sequence_step_enabled(Dev,
 5133              		.loc 1 1213 0
 5134 00d2 0E23     		movs	r3, #14
 5135 00d4 FB18     		adds	r3, r7, r3
 5136 00d6 1A78     		ldrb	r2, [r3]
 5137 00d8 3B68     		ldr	r3, [r7]
 5138 00da 0433     		adds	r3, r3, #4
 5139 00dc 0F21     		movs	r1, #15
 5140 00de 7C18     		adds	r4, r7, r1
 5141 00e0 7868     		ldr	r0, [r7, #4]
 5142 00e2 0421     		movs	r1, #4
 5143 00e4 FFF7FEFF 		bl	sequence_step_enabled
 5144 00e8 0300     		movs	r3, r0
 5145 00ea 2370     		strb	r3, [r4]
 5146              	.L225:
1214:Api\core\src/vl53l0x_api.c **** 		VL53L0X_SEQUENCESTEP_FINAL_RANGE, SequenceConfig,
1215:Api\core\src/vl53l0x_api.c **** 			&pSchedulerSequenceSteps->FinalRangeOn);
1216:Api\core\src/vl53l0x_api.c **** 	}
1217:Api\core\src/vl53l0x_api.c **** 
1218:Api\core\src/vl53l0x_api.c **** 	LOG_FUNCTION_END(Status);
1219:Api\core\src/vl53l0x_api.c **** 	return Status;
 5147              		.loc 1 1219 0
 5148 00ec 0F23     		movs	r3, #15
 5149 00ee FB18     		adds	r3, r7, r3
 5150 00f0 1B78     		ldrb	r3, [r3]
 5151 00f2 5BB2     		sxtb	r3, r3
1220:Api\core\src/vl53l0x_api.c **** }
 5152              		.loc 1 1220 0
 5153 00f4 1800     		movs	r0, r3
 5154 00f6 BD46     		mov	sp, r7
 5155 00f8 05B0     		add	sp, sp, #20
 5156              		@ sp needed
ARM GAS  C:\Users\ilya\AppData\Local\Temp\ccpEIuqL.s 			page 113


 5157 00fa 90BD     		pop	{r4, r7, pc}
 5158              		.cfi_endproc
 5159              	.LFE42:
 5160              		.size	VL53L0X_GetSequenceStepEnables, .-VL53L0X_GetSequenceStepEnables
 5161              		.section	.text.VL53L0X_GetNumberOfSequenceSteps,"ax",%progbits
 5162              		.align	2
 5163              		.global	VL53L0X_GetNumberOfSequenceSteps
 5164              		.code	16
 5165              		.thumb_func
 5166              		.type	VL53L0X_GetNumberOfSequenceSteps, %function
 5167              	VL53L0X_GetNumberOfSequenceSteps:
 5168              	.LFB43:
1221:Api\core\src/vl53l0x_api.c **** 
1222:Api\core\src/vl53l0x_api.c **** VL53L0X_Error VL53L0X_GetNumberOfSequenceSteps(VL53L0X_DEV Dev,
1223:Api\core\src/vl53l0x_api.c **** 	uint8_t *pNumberOfSequenceSteps)
1224:Api\core\src/vl53l0x_api.c **** {
 5169              		.loc 1 1224 0
 5170              		.cfi_startproc
 5171              		@ args = 0, pretend = 0, frame = 16
 5172              		@ frame_needed = 1, uses_anonymous_args = 0
 5173 0000 80B5     		push	{r7, lr}
 5174              		.cfi_def_cfa_offset 8
 5175              		.cfi_offset 7, -8
 5176              		.cfi_offset 14, -4
 5177 0002 84B0     		sub	sp, sp, #16
 5178              		.cfi_def_cfa_offset 24
 5179 0004 00AF     		add	r7, sp, #0
 5180              		.cfi_def_cfa_register 7
 5181 0006 7860     		str	r0, [r7, #4]
 5182 0008 3960     		str	r1, [r7]
1225:Api\core\src/vl53l0x_api.c **** 	VL53L0X_Error Status = VL53L0X_ERROR_NONE;
 5183              		.loc 1 1225 0
 5184 000a 0F23     		movs	r3, #15
 5185 000c FB18     		adds	r3, r7, r3
 5186 000e 0022     		movs	r2, #0
 5187 0010 1A70     		strb	r2, [r3]
1226:Api\core\src/vl53l0x_api.c **** 	LOG_FUNCTION_START("");
1227:Api\core\src/vl53l0x_api.c **** 
1228:Api\core\src/vl53l0x_api.c **** 	*pNumberOfSequenceSteps = VL53L0X_SEQUENCESTEP_NUMBER_OF_CHECKS;
 5188              		.loc 1 1228 0
 5189 0012 3B68     		ldr	r3, [r7]
 5190 0014 0522     		movs	r2, #5
 5191 0016 1A70     		strb	r2, [r3]
1229:Api\core\src/vl53l0x_api.c **** 
1230:Api\core\src/vl53l0x_api.c **** 	LOG_FUNCTION_END(Status);
1231:Api\core\src/vl53l0x_api.c **** 	return Status;
 5192              		.loc 1 1231 0
 5193 0018 0F23     		movs	r3, #15
 5194 001a FB18     		adds	r3, r7, r3
 5195 001c 1B78     		ldrb	r3, [r3]
 5196 001e 5BB2     		sxtb	r3, r3
1232:Api\core\src/vl53l0x_api.c **** }
 5197              		.loc 1 1232 0
 5198 0020 1800     		movs	r0, r3
 5199 0022 BD46     		mov	sp, r7
 5200 0024 04B0     		add	sp, sp, #16
 5201              		@ sp needed
ARM GAS  C:\Users\ilya\AppData\Local\Temp\ccpEIuqL.s 			page 114


 5202 0026 80BD     		pop	{r7, pc}
 5203              		.cfi_endproc
 5204              	.LFE43:
 5205              		.size	VL53L0X_GetNumberOfSequenceSteps, .-VL53L0X_GetNumberOfSequenceSteps
 5206              		.section	.text.VL53L0X_GetSequenceStepsInfo,"ax",%progbits
 5207              		.align	2
 5208              		.global	VL53L0X_GetSequenceStepsInfo
 5209              		.code	16
 5210              		.thumb_func
 5211              		.type	VL53L0X_GetSequenceStepsInfo, %function
 5212              	VL53L0X_GetSequenceStepsInfo:
 5213              	.LFB44:
1233:Api\core\src/vl53l0x_api.c **** 
1234:Api\core\src/vl53l0x_api.c **** VL53L0X_Error VL53L0X_GetSequenceStepsInfo(VL53L0X_SequenceStepId SequenceStepId,
1235:Api\core\src/vl53l0x_api.c **** 	char *pSequenceStepsString)
1236:Api\core\src/vl53l0x_api.c **** {
 5214              		.loc 1 1236 0
 5215              		.cfi_startproc
 5216              		@ args = 0, pretend = 0, frame = 16
 5217              		@ frame_needed = 1, uses_anonymous_args = 0
 5218 0000 90B5     		push	{r4, r7, lr}
 5219              		.cfi_def_cfa_offset 12
 5220              		.cfi_offset 4, -12
 5221              		.cfi_offset 7, -8
 5222              		.cfi_offset 14, -4
 5223 0002 85B0     		sub	sp, sp, #20
 5224              		.cfi_def_cfa_offset 32
 5225 0004 00AF     		add	r7, sp, #0
 5226              		.cfi_def_cfa_register 7
 5227 0006 0200     		movs	r2, r0
 5228 0008 3960     		str	r1, [r7]
 5229 000a FB1D     		adds	r3, r7, #7
 5230 000c 1A70     		strb	r2, [r3]
1237:Api\core\src/vl53l0x_api.c **** 	VL53L0X_Error Status = VL53L0X_ERROR_NONE;
 5231              		.loc 1 1237 0
 5232 000e 0F23     		movs	r3, #15
 5233 0010 FB18     		adds	r3, r7, r3
 5234 0012 0022     		movs	r2, #0
 5235 0014 1A70     		strb	r2, [r3]
1238:Api\core\src/vl53l0x_api.c **** 	LOG_FUNCTION_START("");
1239:Api\core\src/vl53l0x_api.c **** 
1240:Api\core\src/vl53l0x_api.c **** 	Status = VL53L0X_get_sequence_steps_info(
 5236              		.loc 1 1240 0
 5237 0016 0F23     		movs	r3, #15
 5238 0018 FC18     		adds	r4, r7, r3
 5239 001a 3A68     		ldr	r2, [r7]
 5240 001c FB1D     		adds	r3, r7, #7
 5241 001e 1B78     		ldrb	r3, [r3]
 5242 0020 1100     		movs	r1, r2
 5243 0022 1800     		movs	r0, r3
 5244 0024 FFF7FEFF 		bl	VL53L0X_get_sequence_steps_info
 5245 0028 0300     		movs	r3, r0
 5246 002a 2370     		strb	r3, [r4]
1241:Api\core\src/vl53l0x_api.c **** 			SequenceStepId,
1242:Api\core\src/vl53l0x_api.c **** 			pSequenceStepsString);
1243:Api\core\src/vl53l0x_api.c **** 
1244:Api\core\src/vl53l0x_api.c **** 	LOG_FUNCTION_END(Status);
ARM GAS  C:\Users\ilya\AppData\Local\Temp\ccpEIuqL.s 			page 115


1245:Api\core\src/vl53l0x_api.c **** 
1246:Api\core\src/vl53l0x_api.c **** 	return Status;
 5247              		.loc 1 1246 0
 5248 002c 0F23     		movs	r3, #15
 5249 002e FB18     		adds	r3, r7, r3
 5250 0030 1B78     		ldrb	r3, [r3]
 5251 0032 5BB2     		sxtb	r3, r3
1247:Api\core\src/vl53l0x_api.c **** }
 5252              		.loc 1 1247 0
 5253 0034 1800     		movs	r0, r3
 5254 0036 BD46     		mov	sp, r7
 5255 0038 05B0     		add	sp, sp, #20
 5256              		@ sp needed
 5257 003a 90BD     		pop	{r4, r7, pc}
 5258              		.cfi_endproc
 5259              	.LFE44:
 5260              		.size	VL53L0X_GetSequenceStepsInfo, .-VL53L0X_GetSequenceStepsInfo
 5261              		.section	.text.VL53L0X_SetSequenceStepTimeout,"ax",%progbits
 5262              		.align	2
 5263              		.global	VL53L0X_SetSequenceStepTimeout
 5264              		.code	16
 5265              		.thumb_func
 5266              		.type	VL53L0X_SetSequenceStepTimeout, %function
 5267              	VL53L0X_SetSequenceStepTimeout:
 5268              	.LFB45:
1248:Api\core\src/vl53l0x_api.c **** 
1249:Api\core\src/vl53l0x_api.c **** VL53L0X_Error VL53L0X_SetSequenceStepTimeout(VL53L0X_DEV Dev,
1250:Api\core\src/vl53l0x_api.c **** 	VL53L0X_SequenceStepId SequenceStepId, FixPoint1616_t TimeOutMilliSecs)
1251:Api\core\src/vl53l0x_api.c **** {
 5269              		.loc 1 1251 0
 5270              		.cfi_startproc
 5271              		@ args = 0, pretend = 0, frame = 32
 5272              		@ frame_needed = 1, uses_anonymous_args = 0
 5273 0000 90B5     		push	{r4, r7, lr}
 5274              		.cfi_def_cfa_offset 12
 5275              		.cfi_offset 4, -12
 5276              		.cfi_offset 7, -8
 5277              		.cfi_offset 14, -4
 5278 0002 89B0     		sub	sp, sp, #36
 5279              		.cfi_def_cfa_offset 48
 5280 0004 00AF     		add	r7, sp, #0
 5281              		.cfi_def_cfa_register 7
 5282 0006 F860     		str	r0, [r7, #12]
 5283 0008 7A60     		str	r2, [r7, #4]
 5284 000a 0B23     		movs	r3, #11
 5285 000c FB18     		adds	r3, r7, r3
 5286 000e 0A1C     		adds	r2, r1, #0
 5287 0010 1A70     		strb	r2, [r3]
1252:Api\core\src/vl53l0x_api.c **** 	VL53L0X_Error Status = VL53L0X_ERROR_NONE;
 5288              		.loc 1 1252 0
 5289 0012 1F23     		movs	r3, #31
 5290 0014 FB18     		adds	r3, r7, r3
 5291 0016 0022     		movs	r2, #0
 5292 0018 1A70     		strb	r2, [r3]
1253:Api\core\src/vl53l0x_api.c **** 	VL53L0X_Error Status1 = VL53L0X_ERROR_NONE;
 5293              		.loc 1 1253 0
 5294 001a 1E23     		movs	r3, #30
ARM GAS  C:\Users\ilya\AppData\Local\Temp\ccpEIuqL.s 			page 116


 5295 001c FB18     		adds	r3, r7, r3
 5296 001e 0022     		movs	r2, #0
 5297 0020 1A70     		strb	r2, [r3]
1254:Api\core\src/vl53l0x_api.c **** 	uint32_t TimeoutMicroSeconds = ((TimeOutMilliSecs * 1000) + 0x8000)
 5298              		.loc 1 1254 0
 5299 0022 7B68     		ldr	r3, [r7, #4]
 5300 0024 FA22     		movs	r2, #250
 5301 0026 9200     		lsls	r2, r2, #2
 5302 0028 5343     		muls	r3, r2
 5303 002a 8022     		movs	r2, #128
 5304 002c 1202     		lsls	r2, r2, #8
 5305 002e 9446     		mov	ip, r2
 5306 0030 6344     		add	r3, r3, ip
 5307 0032 1B0C     		lsrs	r3, r3, #16
 5308 0034 BB61     		str	r3, [r7, #24]
1255:Api\core\src/vl53l0x_api.c **** 		>> 16;
1256:Api\core\src/vl53l0x_api.c **** 	uint32_t MeasurementTimingBudgetMicroSeconds;
1257:Api\core\src/vl53l0x_api.c **** 	FixPoint1616_t OldTimeOutMicroSeconds;
1258:Api\core\src/vl53l0x_api.c **** 
1259:Api\core\src/vl53l0x_api.c **** 	LOG_FUNCTION_START("");
1260:Api\core\src/vl53l0x_api.c **** 
1261:Api\core\src/vl53l0x_api.c **** 	/* Read back the current value in case we need to revert back to this.
1262:Api\core\src/vl53l0x_api.c **** 	 */
1263:Api\core\src/vl53l0x_api.c **** 	Status = get_sequence_step_timeout(Dev, SequenceStepId,
 5309              		.loc 1 1263 0
 5310 0036 1F23     		movs	r3, #31
 5311 0038 FC18     		adds	r4, r7, r3
 5312 003a 1023     		movs	r3, #16
 5313 003c FA18     		adds	r2, r7, r3
 5314 003e 0B23     		movs	r3, #11
 5315 0040 FB18     		adds	r3, r7, r3
 5316 0042 1978     		ldrb	r1, [r3]
 5317 0044 FB68     		ldr	r3, [r7, #12]
 5318 0046 1800     		movs	r0, r3
 5319 0048 FFF7FEFF 		bl	get_sequence_step_timeout
 5320 004c 0300     		movs	r3, r0
 5321 004e 2370     		strb	r3, [r4]
1264:Api\core\src/vl53l0x_api.c **** 		&OldTimeOutMicroSeconds);
1265:Api\core\src/vl53l0x_api.c **** 
1266:Api\core\src/vl53l0x_api.c **** 	if (Status == VL53L0X_ERROR_NONE) {
 5322              		.loc 1 1266 0
 5323 0050 1F23     		movs	r3, #31
 5324 0052 FB18     		adds	r3, r7, r3
 5325 0054 1B78     		ldrb	r3, [r3]
 5326 0056 5BB2     		sxtb	r3, r3
 5327 0058 002B     		cmp	r3, #0
 5328 005a 0BD1     		bne	.L232
1267:Api\core\src/vl53l0x_api.c **** 		Status = set_sequence_step_timeout(Dev, SequenceStepId,
 5329              		.loc 1 1267 0
 5330 005c 1F23     		movs	r3, #31
 5331 005e FC18     		adds	r4, r7, r3
 5332 0060 BA69     		ldr	r2, [r7, #24]
 5333 0062 0B23     		movs	r3, #11
 5334 0064 FB18     		adds	r3, r7, r3
 5335 0066 1978     		ldrb	r1, [r3]
 5336 0068 FB68     		ldr	r3, [r7, #12]
 5337 006a 1800     		movs	r0, r3
ARM GAS  C:\Users\ilya\AppData\Local\Temp\ccpEIuqL.s 			page 117


 5338 006c FFF7FEFF 		bl	set_sequence_step_timeout
 5339 0070 0300     		movs	r3, r0
 5340 0072 2370     		strb	r3, [r4]
 5341              	.L232:
1268:Api\core\src/vl53l0x_api.c **** 			TimeoutMicroSeconds);
1269:Api\core\src/vl53l0x_api.c **** 	}
1270:Api\core\src/vl53l0x_api.c **** 
1271:Api\core\src/vl53l0x_api.c **** 	if (Status == VL53L0X_ERROR_NONE) {
 5342              		.loc 1 1271 0
 5343 0074 1F23     		movs	r3, #31
 5344 0076 FB18     		adds	r3, r7, r3
 5345 0078 1B78     		ldrb	r3, [r3]
 5346 007a 5BB2     		sxtb	r3, r3
 5347 007c 002B     		cmp	r3, #0
 5348 007e 34D1     		bne	.L233
1272:Api\core\src/vl53l0x_api.c **** 		VL53L0X_GETPARAMETERFIELD(Dev,
 5349              		.loc 1 1272 0
 5350 0080 FB68     		ldr	r3, [r7, #12]
 5351 0082 5B69     		ldr	r3, [r3, #20]
 5352 0084 7B61     		str	r3, [r7, #20]
1273:Api\core\src/vl53l0x_api.c **** 			MeasurementTimingBudgetMicroSeconds,
1274:Api\core\src/vl53l0x_api.c **** 			MeasurementTimingBudgetMicroSeconds);
1275:Api\core\src/vl53l0x_api.c **** 
1276:Api\core\src/vl53l0x_api.c **** 		/* At this point we don't know if the requested value is valid,
1277:Api\core\src/vl53l0x_api.c **** 		 therefore proceed to update the entire timing budget and
1278:Api\core\src/vl53l0x_api.c **** 		 if this fails, revert back to the previous value.
1279:Api\core\src/vl53l0x_api.c **** 		 */
1280:Api\core\src/vl53l0x_api.c **** 		Status = VL53L0X_SetMeasurementTimingBudgetMicroSeconds(Dev,
 5353              		.loc 1 1280 0
 5354 0086 1F23     		movs	r3, #31
 5355 0088 FC18     		adds	r4, r7, r3
 5356 008a 7A69     		ldr	r2, [r7, #20]
 5357 008c FB68     		ldr	r3, [r7, #12]
 5358 008e 1100     		movs	r1, r2
 5359 0090 1800     		movs	r0, r3
 5360 0092 FFF7FEFF 		bl	VL53L0X_SetMeasurementTimingBudgetMicroSeconds
 5361 0096 0300     		movs	r3, r0
 5362 0098 2370     		strb	r3, [r4]
1281:Api\core\src/vl53l0x_api.c **** 			MeasurementTimingBudgetMicroSeconds);
1282:Api\core\src/vl53l0x_api.c **** 
1283:Api\core\src/vl53l0x_api.c **** 		if (Status != VL53L0X_ERROR_NONE) {
 5363              		.loc 1 1283 0
 5364 009a 1F23     		movs	r3, #31
 5365 009c FB18     		adds	r3, r7, r3
 5366 009e 1B78     		ldrb	r3, [r3]
 5367 00a0 5BB2     		sxtb	r3, r3
 5368 00a2 002B     		cmp	r3, #0
 5369 00a4 21D0     		beq	.L233
1284:Api\core\src/vl53l0x_api.c **** 			Status1 = set_sequence_step_timeout(Dev, SequenceStepId,
 5370              		.loc 1 1284 0
 5371 00a6 3A69     		ldr	r2, [r7, #16]
 5372 00a8 1E23     		movs	r3, #30
 5373 00aa FC18     		adds	r4, r7, r3
 5374 00ac 0B23     		movs	r3, #11
 5375 00ae FB18     		adds	r3, r7, r3
 5376 00b0 1978     		ldrb	r1, [r3]
 5377 00b2 FB68     		ldr	r3, [r7, #12]
ARM GAS  C:\Users\ilya\AppData\Local\Temp\ccpEIuqL.s 			page 118


 5378 00b4 1800     		movs	r0, r3
 5379 00b6 FFF7FEFF 		bl	set_sequence_step_timeout
 5380 00ba 0300     		movs	r3, r0
 5381 00bc 2370     		strb	r3, [r4]
1285:Api\core\src/vl53l0x_api.c **** 				OldTimeOutMicroSeconds);
1286:Api\core\src/vl53l0x_api.c **** 
1287:Api\core\src/vl53l0x_api.c **** 			if (Status1 == VL53L0X_ERROR_NONE) {
 5382              		.loc 1 1287 0
 5383 00be 1E23     		movs	r3, #30
 5384 00c0 FB18     		adds	r3, r7, r3
 5385 00c2 1B78     		ldrb	r3, [r3]
 5386 00c4 5BB2     		sxtb	r3, r3
 5387 00c6 002B     		cmp	r3, #0
 5388 00c8 09D1     		bne	.L234
1288:Api\core\src/vl53l0x_api.c **** 				Status1 =
 5389              		.loc 1 1288 0
 5390 00ca 1E23     		movs	r3, #30
 5391 00cc FC18     		adds	r4, r7, r3
 5392 00ce 7A69     		ldr	r2, [r7, #20]
 5393 00d0 FB68     		ldr	r3, [r7, #12]
 5394 00d2 1100     		movs	r1, r2
 5395 00d4 1800     		movs	r0, r3
 5396 00d6 FFF7FEFF 		bl	VL53L0X_SetMeasurementTimingBudgetMicroSeconds
 5397 00da 0300     		movs	r3, r0
 5398 00dc 2370     		strb	r3, [r4]
 5399              	.L234:
1289:Api\core\src/vl53l0x_api.c **** 				VL53L0X_SetMeasurementTimingBudgetMicroSeconds(
1290:Api\core\src/vl53l0x_api.c **** 					Dev,
1291:Api\core\src/vl53l0x_api.c **** 					MeasurementTimingBudgetMicroSeconds);
1292:Api\core\src/vl53l0x_api.c **** 			}
1293:Api\core\src/vl53l0x_api.c **** 
1294:Api\core\src/vl53l0x_api.c **** 			Status = Status1;
 5400              		.loc 1 1294 0
 5401 00de 1F23     		movs	r3, #31
 5402 00e0 FB18     		adds	r3, r7, r3
 5403 00e2 1E22     		movs	r2, #30
 5404 00e4 BA18     		adds	r2, r7, r2
 5405 00e6 1278     		ldrb	r2, [r2]
 5406 00e8 1A70     		strb	r2, [r3]
 5407              	.L233:
1295:Api\core\src/vl53l0x_api.c **** 		}
1296:Api\core\src/vl53l0x_api.c **** 	}
1297:Api\core\src/vl53l0x_api.c **** 
1298:Api\core\src/vl53l0x_api.c **** 	LOG_FUNCTION_END(Status);
1299:Api\core\src/vl53l0x_api.c **** 
1300:Api\core\src/vl53l0x_api.c **** 	return Status;
 5408              		.loc 1 1300 0
 5409 00ea 1F23     		movs	r3, #31
 5410 00ec FB18     		adds	r3, r7, r3
 5411 00ee 1B78     		ldrb	r3, [r3]
 5412 00f0 5BB2     		sxtb	r3, r3
1301:Api\core\src/vl53l0x_api.c **** }
 5413              		.loc 1 1301 0
 5414 00f2 1800     		movs	r0, r3
 5415 00f4 BD46     		mov	sp, r7
 5416 00f6 09B0     		add	sp, sp, #36
 5417              		@ sp needed
ARM GAS  C:\Users\ilya\AppData\Local\Temp\ccpEIuqL.s 			page 119


 5418 00f8 90BD     		pop	{r4, r7, pc}
 5419              		.cfi_endproc
 5420              	.LFE45:
 5421              		.size	VL53L0X_SetSequenceStepTimeout, .-VL53L0X_SetSequenceStepTimeout
 5422              		.global	__aeabi_uidiv
 5423 00fa C046     		.section	.text.VL53L0X_GetSequenceStepTimeout,"ax",%progbits
 5424              		.align	2
 5425              		.global	VL53L0X_GetSequenceStepTimeout
 5426              		.code	16
 5427              		.thumb_func
 5428              		.type	VL53L0X_GetSequenceStepTimeout, %function
 5429              	VL53L0X_GetSequenceStepTimeout:
 5430              	.LFB46:
1302:Api\core\src/vl53l0x_api.c **** 
1303:Api\core\src/vl53l0x_api.c **** VL53L0X_Error VL53L0X_GetSequenceStepTimeout(VL53L0X_DEV Dev,
1304:Api\core\src/vl53l0x_api.c **** 	VL53L0X_SequenceStepId SequenceStepId, FixPoint1616_t *pTimeOutMilliSecs)
1305:Api\core\src/vl53l0x_api.c **** {
 5431              		.loc 1 1305 0
 5432              		.cfi_startproc
 5433              		@ args = 0, pretend = 0, frame = 24
 5434              		@ frame_needed = 1, uses_anonymous_args = 0
 5435 0000 90B5     		push	{r4, r7, lr}
 5436              		.cfi_def_cfa_offset 12
 5437              		.cfi_offset 4, -12
 5438              		.cfi_offset 7, -8
 5439              		.cfi_offset 14, -4
 5440 0002 87B0     		sub	sp, sp, #28
 5441              		.cfi_def_cfa_offset 40
 5442 0004 00AF     		add	r7, sp, #0
 5443              		.cfi_def_cfa_register 7
 5444 0006 F860     		str	r0, [r7, #12]
 5445 0008 7A60     		str	r2, [r7, #4]
 5446 000a 0B23     		movs	r3, #11
 5447 000c FB18     		adds	r3, r7, r3
 5448 000e 0A1C     		adds	r2, r1, #0
 5449 0010 1A70     		strb	r2, [r3]
1306:Api\core\src/vl53l0x_api.c **** 	VL53L0X_Error Status = VL53L0X_ERROR_NONE;
 5450              		.loc 1 1306 0
 5451 0012 1723     		movs	r3, #23
 5452 0014 FB18     		adds	r3, r7, r3
 5453 0016 0022     		movs	r2, #0
 5454 0018 1A70     		strb	r2, [r3]
1307:Api\core\src/vl53l0x_api.c **** 	uint32_t TimeoutMicroSeconds;
1308:Api\core\src/vl53l0x_api.c **** 	LOG_FUNCTION_START("");
1309:Api\core\src/vl53l0x_api.c **** 
1310:Api\core\src/vl53l0x_api.c **** 	Status = get_sequence_step_timeout(Dev, SequenceStepId,
 5455              		.loc 1 1310 0
 5456 001a 1723     		movs	r3, #23
 5457 001c FC18     		adds	r4, r7, r3
 5458 001e 1023     		movs	r3, #16
 5459 0020 FA18     		adds	r2, r7, r3
 5460 0022 0B23     		movs	r3, #11
 5461 0024 FB18     		adds	r3, r7, r3
 5462 0026 1978     		ldrb	r1, [r3]
 5463 0028 FB68     		ldr	r3, [r7, #12]
 5464 002a 1800     		movs	r0, r3
 5465 002c FFF7FEFF 		bl	get_sequence_step_timeout
ARM GAS  C:\Users\ilya\AppData\Local\Temp\ccpEIuqL.s 			page 120


 5466 0030 0300     		movs	r3, r0
 5467 0032 2370     		strb	r3, [r4]
1311:Api\core\src/vl53l0x_api.c **** 		&TimeoutMicroSeconds);
1312:Api\core\src/vl53l0x_api.c **** 	if (Status == VL53L0X_ERROR_NONE) {
 5468              		.loc 1 1312 0
 5469 0034 1723     		movs	r3, #23
 5470 0036 FB18     		adds	r3, r7, r3
 5471 0038 1B78     		ldrb	r3, [r3]
 5472 003a 5BB2     		sxtb	r3, r3
 5473 003c 002B     		cmp	r3, #0
 5474 003e 14D1     		bne	.L237
1313:Api\core\src/vl53l0x_api.c **** 		TimeoutMicroSeconds <<= 8;
 5475              		.loc 1 1313 0
 5476 0040 3B69     		ldr	r3, [r7, #16]
 5477 0042 1B02     		lsls	r3, r3, #8
 5478 0044 3B61     		str	r3, [r7, #16]
1314:Api\core\src/vl53l0x_api.c **** 		*pTimeOutMilliSecs = (TimeoutMicroSeconds + 500)/1000;
 5479              		.loc 1 1314 0
 5480 0046 3B69     		ldr	r3, [r7, #16]
 5481 0048 F533     		adds	r3, r3, #245
 5482 004a FF33     		adds	r3, r3, #255
 5483 004c 1A00     		movs	r2, r3
 5484 004e FA23     		movs	r3, #250
 5485 0050 9900     		lsls	r1, r3, #2
 5486 0052 1000     		movs	r0, r2
 5487 0054 FFF7FEFF 		bl	__aeabi_uidiv
 5488 0058 0300     		movs	r3, r0
 5489 005a 1A00     		movs	r2, r3
 5490 005c 7B68     		ldr	r3, [r7, #4]
 5491 005e 1A60     		str	r2, [r3]
1315:Api\core\src/vl53l0x_api.c **** 		*pTimeOutMilliSecs <<= 8;
 5492              		.loc 1 1315 0
 5493 0060 7B68     		ldr	r3, [r7, #4]
 5494 0062 1B68     		ldr	r3, [r3]
 5495 0064 1A02     		lsls	r2, r3, #8
 5496 0066 7B68     		ldr	r3, [r7, #4]
 5497 0068 1A60     		str	r2, [r3]
 5498              	.L237:
1316:Api\core\src/vl53l0x_api.c **** 	}
1317:Api\core\src/vl53l0x_api.c **** 
1318:Api\core\src/vl53l0x_api.c **** 	LOG_FUNCTION_END(Status);
1319:Api\core\src/vl53l0x_api.c **** 	return Status;
 5499              		.loc 1 1319 0
 5500 006a 1723     		movs	r3, #23
 5501 006c FB18     		adds	r3, r7, r3
 5502 006e 1B78     		ldrb	r3, [r3]
 5503 0070 5BB2     		sxtb	r3, r3
1320:Api\core\src/vl53l0x_api.c **** }
 5504              		.loc 1 1320 0
 5505 0072 1800     		movs	r0, r3
 5506 0074 BD46     		mov	sp, r7
 5507 0076 07B0     		add	sp, sp, #28
 5508              		@ sp needed
 5509 0078 90BD     		pop	{r4, r7, pc}
 5510              		.cfi_endproc
 5511              	.LFE46:
 5512              		.size	VL53L0X_GetSequenceStepTimeout, .-VL53L0X_GetSequenceStepTimeout
ARM GAS  C:\Users\ilya\AppData\Local\Temp\ccpEIuqL.s 			page 121


 5513 007a C046     		.section	.text.VL53L0X_SetInterMeasurementPeriodMilliSeconds,"ax",%progbits
 5514              		.align	2
 5515              		.global	VL53L0X_SetInterMeasurementPeriodMilliSeconds
 5516              		.code	16
 5517              		.thumb_func
 5518              		.type	VL53L0X_SetInterMeasurementPeriodMilliSeconds, %function
 5519              	VL53L0X_SetInterMeasurementPeriodMilliSeconds:
 5520              	.LFB47:
1321:Api\core\src/vl53l0x_api.c **** 
1322:Api\core\src/vl53l0x_api.c **** VL53L0X_Error VL53L0X_SetInterMeasurementPeriodMilliSeconds(VL53L0X_DEV Dev,
1323:Api\core\src/vl53l0x_api.c **** 	uint32_t InterMeasurementPeriodMilliSeconds)
1324:Api\core\src/vl53l0x_api.c **** {
 5521              		.loc 1 1324 0
 5522              		.cfi_startproc
 5523              		@ args = 0, pretend = 0, frame = 24
 5524              		@ frame_needed = 1, uses_anonymous_args = 0
 5525 0000 90B5     		push	{r4, r7, lr}
 5526              		.cfi_def_cfa_offset 12
 5527              		.cfi_offset 4, -12
 5528              		.cfi_offset 7, -8
 5529              		.cfi_offset 14, -4
 5530 0002 87B0     		sub	sp, sp, #28
 5531              		.cfi_def_cfa_offset 40
 5532 0004 00AF     		add	r7, sp, #0
 5533              		.cfi_def_cfa_register 7
 5534 0006 7860     		str	r0, [r7, #4]
 5535 0008 3960     		str	r1, [r7]
1325:Api\core\src/vl53l0x_api.c **** 	VL53L0X_Error Status = VL53L0X_ERROR_NONE;
 5536              		.loc 1 1325 0
 5537 000a 1723     		movs	r3, #23
 5538 000c FB18     		adds	r3, r7, r3
 5539 000e 0022     		movs	r2, #0
 5540 0010 1A70     		strb	r2, [r3]
1326:Api\core\src/vl53l0x_api.c **** 	uint16_t osc_calibrate_val;
1327:Api\core\src/vl53l0x_api.c **** 	uint32_t IMPeriodMilliSeconds;
1328:Api\core\src/vl53l0x_api.c **** 
1329:Api\core\src/vl53l0x_api.c **** 	LOG_FUNCTION_START("");
1330:Api\core\src/vl53l0x_api.c **** 
1331:Api\core\src/vl53l0x_api.c **** 	Status = VL53L0X_RdWord(Dev, VL53L0X_REG_OSC_CALIBRATE_VAL,
 5541              		.loc 1 1331 0
 5542 0012 1723     		movs	r3, #23
 5543 0014 FC18     		adds	r4, r7, r3
 5544 0016 0E23     		movs	r3, #14
 5545 0018 FA18     		adds	r2, r7, r3
 5546 001a 7B68     		ldr	r3, [r7, #4]
 5547 001c F821     		movs	r1, #248
 5548 001e 1800     		movs	r0, r3
 5549 0020 FFF7FEFF 		bl	VL53L0X_RdWord
 5550 0024 0300     		movs	r3, r0
 5551 0026 2370     		strb	r3, [r4]
1332:Api\core\src/vl53l0x_api.c **** 		&osc_calibrate_val);
1333:Api\core\src/vl53l0x_api.c **** 
1334:Api\core\src/vl53l0x_api.c **** 	if (Status == VL53L0X_ERROR_NONE) {
 5552              		.loc 1 1334 0
 5553 0028 1723     		movs	r3, #23
 5554 002a FB18     		adds	r3, r7, r3
 5555 002c 1B78     		ldrb	r3, [r3]
ARM GAS  C:\Users\ilya\AppData\Local\Temp\ccpEIuqL.s 			page 122


 5556 002e 5BB2     		sxtb	r3, r3
 5557 0030 002B     		cmp	r3, #0
 5558 0032 18D1     		bne	.L240
1335:Api\core\src/vl53l0x_api.c **** 		if (osc_calibrate_val != 0) {
 5559              		.loc 1 1335 0
 5560 0034 0E23     		movs	r3, #14
 5561 0036 FB18     		adds	r3, r7, r3
 5562 0038 1B88     		ldrh	r3, [r3]
 5563 003a 002B     		cmp	r3, #0
 5564 003c 07D0     		beq	.L241
1336:Api\core\src/vl53l0x_api.c **** 			IMPeriodMilliSeconds =
1337:Api\core\src/vl53l0x_api.c **** 				InterMeasurementPeriodMilliSeconds
1338:Api\core\src/vl53l0x_api.c **** 					* osc_calibrate_val;
 5565              		.loc 1 1338 0
 5566 003e 0E23     		movs	r3, #14
 5567 0040 FB18     		adds	r3, r7, r3
 5568 0042 1B88     		ldrh	r3, [r3]
 5569 0044 1A00     		movs	r2, r3
1336:Api\core\src/vl53l0x_api.c **** 			IMPeriodMilliSeconds =
 5570              		.loc 1 1336 0
 5571 0046 3B68     		ldr	r3, [r7]
 5572 0048 5343     		muls	r3, r2
 5573 004a 3B61     		str	r3, [r7, #16]
 5574 004c 01E0     		b	.L242
 5575              	.L241:
1339:Api\core\src/vl53l0x_api.c **** 		} else {
1340:Api\core\src/vl53l0x_api.c **** 			IMPeriodMilliSeconds =
 5576              		.loc 1 1340 0
 5577 004e 3B68     		ldr	r3, [r7]
 5578 0050 3B61     		str	r3, [r7, #16]
 5579              	.L242:
1341:Api\core\src/vl53l0x_api.c **** 				InterMeasurementPeriodMilliSeconds;
1342:Api\core\src/vl53l0x_api.c **** 		}
1343:Api\core\src/vl53l0x_api.c **** 		Status = VL53L0X_WrDWord(Dev,
 5580              		.loc 1 1343 0
 5581 0052 1723     		movs	r3, #23
 5582 0054 FC18     		adds	r4, r7, r3
 5583 0056 3A69     		ldr	r2, [r7, #16]
 5584 0058 7B68     		ldr	r3, [r7, #4]
 5585 005a 0421     		movs	r1, #4
 5586 005c 1800     		movs	r0, r3
 5587 005e FFF7FEFF 		bl	VL53L0X_WrDWord
 5588 0062 0300     		movs	r3, r0
 5589 0064 2370     		strb	r3, [r4]
 5590              	.L240:
1344:Api\core\src/vl53l0x_api.c **** 		VL53L0X_REG_SYSTEM_INTERMEASUREMENT_PERIOD,
1345:Api\core\src/vl53l0x_api.c **** 			IMPeriodMilliSeconds);
1346:Api\core\src/vl53l0x_api.c **** 	}
1347:Api\core\src/vl53l0x_api.c **** 
1348:Api\core\src/vl53l0x_api.c **** 	if (Status == VL53L0X_ERROR_NONE) {
 5591              		.loc 1 1348 0
 5592 0066 1723     		movs	r3, #23
 5593 0068 FB18     		adds	r3, r7, r3
 5594 006a 1B78     		ldrb	r3, [r3]
 5595 006c 5BB2     		sxtb	r3, r3
 5596 006e 002B     		cmp	r3, #0
 5597 0070 02D1     		bne	.L243
ARM GAS  C:\Users\ilya\AppData\Local\Temp\ccpEIuqL.s 			page 123


1349:Api\core\src/vl53l0x_api.c **** 		VL53L0X_SETPARAMETERFIELD(Dev,
 5598              		.loc 1 1349 0
 5599 0072 7B68     		ldr	r3, [r7, #4]
 5600 0074 3A68     		ldr	r2, [r7]
 5601 0076 9A61     		str	r2, [r3, #24]
 5602              	.L243:
1350:Api\core\src/vl53l0x_api.c **** 			InterMeasurementPeriodMilliSeconds,
1351:Api\core\src/vl53l0x_api.c **** 			InterMeasurementPeriodMilliSeconds);
1352:Api\core\src/vl53l0x_api.c **** 	}
1353:Api\core\src/vl53l0x_api.c **** 
1354:Api\core\src/vl53l0x_api.c **** 	LOG_FUNCTION_END(Status);
1355:Api\core\src/vl53l0x_api.c **** 	return Status;
 5603              		.loc 1 1355 0
 5604 0078 1723     		movs	r3, #23
 5605 007a FB18     		adds	r3, r7, r3
 5606 007c 1B78     		ldrb	r3, [r3]
 5607 007e 5BB2     		sxtb	r3, r3
1356:Api\core\src/vl53l0x_api.c **** }
 5608              		.loc 1 1356 0
 5609 0080 1800     		movs	r0, r3
 5610 0082 BD46     		mov	sp, r7
 5611 0084 07B0     		add	sp, sp, #28
 5612              		@ sp needed
 5613 0086 90BD     		pop	{r4, r7, pc}
 5614              		.cfi_endproc
 5615              	.LFE47:
 5616              		.size	VL53L0X_SetInterMeasurementPeriodMilliSeconds, .-VL53L0X_SetInterMeasurementPeriodMilliSecon
 5617              		.section	.text.VL53L0X_GetInterMeasurementPeriodMilliSeconds,"ax",%progbits
 5618              		.align	2
 5619              		.global	VL53L0X_GetInterMeasurementPeriodMilliSeconds
 5620              		.code	16
 5621              		.thumb_func
 5622              		.type	VL53L0X_GetInterMeasurementPeriodMilliSeconds, %function
 5623              	VL53L0X_GetInterMeasurementPeriodMilliSeconds:
 5624              	.LFB48:
1357:Api\core\src/vl53l0x_api.c **** 
1358:Api\core\src/vl53l0x_api.c **** VL53L0X_Error VL53L0X_GetInterMeasurementPeriodMilliSeconds(VL53L0X_DEV Dev,
1359:Api\core\src/vl53l0x_api.c **** 	uint32_t *pInterMeasurementPeriodMilliSeconds)
1360:Api\core\src/vl53l0x_api.c **** {
 5625              		.loc 1 1360 0
 5626              		.cfi_startproc
 5627              		@ args = 0, pretend = 0, frame = 16
 5628              		@ frame_needed = 1, uses_anonymous_args = 0
 5629 0000 90B5     		push	{r4, r7, lr}
 5630              		.cfi_def_cfa_offset 12
 5631              		.cfi_offset 4, -12
 5632              		.cfi_offset 7, -8
 5633              		.cfi_offset 14, -4
 5634 0002 85B0     		sub	sp, sp, #20
 5635              		.cfi_def_cfa_offset 32
 5636 0004 00AF     		add	r7, sp, #0
 5637              		.cfi_def_cfa_register 7
 5638 0006 7860     		str	r0, [r7, #4]
 5639 0008 3960     		str	r1, [r7]
1361:Api\core\src/vl53l0x_api.c **** 	VL53L0X_Error Status = VL53L0X_ERROR_NONE;
 5640              		.loc 1 1361 0
 5641 000a 0F23     		movs	r3, #15
ARM GAS  C:\Users\ilya\AppData\Local\Temp\ccpEIuqL.s 			page 124


 5642 000c FB18     		adds	r3, r7, r3
 5643 000e 0022     		movs	r2, #0
 5644 0010 1A70     		strb	r2, [r3]
1362:Api\core\src/vl53l0x_api.c **** 	uint16_t osc_calibrate_val;
1363:Api\core\src/vl53l0x_api.c **** 	uint32_t IMPeriodMilliSeconds;
1364:Api\core\src/vl53l0x_api.c **** 
1365:Api\core\src/vl53l0x_api.c **** 	LOG_FUNCTION_START("");
1366:Api\core\src/vl53l0x_api.c **** 
1367:Api\core\src/vl53l0x_api.c **** 	Status = VL53L0X_RdWord(Dev, VL53L0X_REG_OSC_CALIBRATE_VAL,
 5645              		.loc 1 1367 0
 5646 0012 0F23     		movs	r3, #15
 5647 0014 FC18     		adds	r4, r7, r3
 5648 0016 0C23     		movs	r3, #12
 5649 0018 FA18     		adds	r2, r7, r3
 5650 001a 7B68     		ldr	r3, [r7, #4]
 5651 001c F821     		movs	r1, #248
 5652 001e 1800     		movs	r0, r3
 5653 0020 FFF7FEFF 		bl	VL53L0X_RdWord
 5654 0024 0300     		movs	r3, r0
 5655 0026 2370     		strb	r3, [r4]
1368:Api\core\src/vl53l0x_api.c **** 		&osc_calibrate_val);
1369:Api\core\src/vl53l0x_api.c **** 
1370:Api\core\src/vl53l0x_api.c **** 	if (Status == VL53L0X_ERROR_NONE) {
 5656              		.loc 1 1370 0
 5657 0028 0F23     		movs	r3, #15
 5658 002a FB18     		adds	r3, r7, r3
 5659 002c 1B78     		ldrb	r3, [r3]
 5660 002e 5BB2     		sxtb	r3, r3
 5661 0030 002B     		cmp	r3, #0
 5662 0032 0AD1     		bne	.L246
1371:Api\core\src/vl53l0x_api.c **** 		Status = VL53L0X_RdDWord(Dev,
 5663              		.loc 1 1371 0
 5664 0034 0F23     		movs	r3, #15
 5665 0036 FC18     		adds	r4, r7, r3
 5666 0038 0823     		movs	r3, #8
 5667 003a FA18     		adds	r2, r7, r3
 5668 003c 7B68     		ldr	r3, [r7, #4]
 5669 003e 0421     		movs	r1, #4
 5670 0040 1800     		movs	r0, r3
 5671 0042 FFF7FEFF 		bl	VL53L0X_RdDWord
 5672 0046 0300     		movs	r3, r0
 5673 0048 2370     		strb	r3, [r4]
 5674              	.L246:
1372:Api\core\src/vl53l0x_api.c **** 		VL53L0X_REG_SYSTEM_INTERMEASUREMENT_PERIOD,
1373:Api\core\src/vl53l0x_api.c **** 			&IMPeriodMilliSeconds);
1374:Api\core\src/vl53l0x_api.c **** 	}
1375:Api\core\src/vl53l0x_api.c **** 
1376:Api\core\src/vl53l0x_api.c **** 	if (Status == VL53L0X_ERROR_NONE) {
 5675              		.loc 1 1376 0
 5676 004a 0F23     		movs	r3, #15
 5677 004c FB18     		adds	r3, r7, r3
 5678 004e 1B78     		ldrb	r3, [r3]
 5679 0050 5BB2     		sxtb	r3, r3
 5680 0052 002B     		cmp	r3, #0
 5681 0054 14D1     		bne	.L247
1377:Api\core\src/vl53l0x_api.c **** 		if (osc_calibrate_val != 0) {
 5682              		.loc 1 1377 0
ARM GAS  C:\Users\ilya\AppData\Local\Temp\ccpEIuqL.s 			page 125


 5683 0056 0C23     		movs	r3, #12
 5684 0058 FB18     		adds	r3, r7, r3
 5685 005a 1B88     		ldrh	r3, [r3]
 5686 005c 002B     		cmp	r3, #0
 5687 005e 0BD0     		beq	.L248
1378:Api\core\src/vl53l0x_api.c **** 			*pInterMeasurementPeriodMilliSeconds =
1379:Api\core\src/vl53l0x_api.c **** 				IMPeriodMilliSeconds / osc_calibrate_val;
 5688              		.loc 1 1379 0
 5689 0060 BA68     		ldr	r2, [r7, #8]
 5690 0062 0C23     		movs	r3, #12
 5691 0064 FB18     		adds	r3, r7, r3
 5692 0066 1B88     		ldrh	r3, [r3]
 5693 0068 1900     		movs	r1, r3
 5694 006a 1000     		movs	r0, r2
 5695 006c FFF7FEFF 		bl	__aeabi_uidiv
 5696 0070 0300     		movs	r3, r0
 5697 0072 1A00     		movs	r2, r3
1378:Api\core\src/vl53l0x_api.c **** 			*pInterMeasurementPeriodMilliSeconds =
 5698              		.loc 1 1378 0
 5699 0074 3B68     		ldr	r3, [r7]
 5700 0076 1A60     		str	r2, [r3]
 5701              	.L248:
1380:Api\core\src/vl53l0x_api.c **** 		}
1381:Api\core\src/vl53l0x_api.c **** 		VL53L0X_SETPARAMETERFIELD(Dev,
 5702              		.loc 1 1381 0
 5703 0078 3B68     		ldr	r3, [r7]
 5704 007a 1A68     		ldr	r2, [r3]
 5705 007c 7B68     		ldr	r3, [r7, #4]
 5706 007e 9A61     		str	r2, [r3, #24]
 5707              	.L247:
1382:Api\core\src/vl53l0x_api.c **** 			InterMeasurementPeriodMilliSeconds,
1383:Api\core\src/vl53l0x_api.c **** 			*pInterMeasurementPeriodMilliSeconds);
1384:Api\core\src/vl53l0x_api.c **** 	}
1385:Api\core\src/vl53l0x_api.c **** 
1386:Api\core\src/vl53l0x_api.c **** 	LOG_FUNCTION_END(Status);
1387:Api\core\src/vl53l0x_api.c **** 	return Status;
 5708              		.loc 1 1387 0
 5709 0080 0F23     		movs	r3, #15
 5710 0082 FB18     		adds	r3, r7, r3
 5711 0084 1B78     		ldrb	r3, [r3]
 5712 0086 5BB2     		sxtb	r3, r3
1388:Api\core\src/vl53l0x_api.c **** }
 5713              		.loc 1 1388 0
 5714 0088 1800     		movs	r0, r3
 5715 008a BD46     		mov	sp, r7
 5716 008c 05B0     		add	sp, sp, #20
 5717              		@ sp needed
 5718 008e 90BD     		pop	{r4, r7, pc}
 5719              		.cfi_endproc
 5720              	.LFE48:
 5721              		.size	VL53L0X_GetInterMeasurementPeriodMilliSeconds, .-VL53L0X_GetInterMeasurementPeriodMilliSecon
 5722              		.section	.text.VL53L0X_SetXTalkCompensationEnable,"ax",%progbits
 5723              		.align	2
 5724              		.global	VL53L0X_SetXTalkCompensationEnable
 5725              		.code	16
 5726              		.thumb_func
 5727              		.type	VL53L0X_SetXTalkCompensationEnable, %function
ARM GAS  C:\Users\ilya\AppData\Local\Temp\ccpEIuqL.s 			page 126


 5728              	VL53L0X_SetXTalkCompensationEnable:
 5729              	.LFB49:
1389:Api\core\src/vl53l0x_api.c **** 
1390:Api\core\src/vl53l0x_api.c **** VL53L0X_Error VL53L0X_SetXTalkCompensationEnable(VL53L0X_DEV Dev,
1391:Api\core\src/vl53l0x_api.c **** 	uint8_t XTalkCompensationEnable)
1392:Api\core\src/vl53l0x_api.c **** {
 5730              		.loc 1 1392 0
 5731              		.cfi_startproc
 5732              		@ args = 0, pretend = 0, frame = 16
 5733              		@ frame_needed = 1, uses_anonymous_args = 0
 5734 0000 90B5     		push	{r4, r7, lr}
 5735              		.cfi_def_cfa_offset 12
 5736              		.cfi_offset 4, -12
 5737              		.cfi_offset 7, -8
 5738              		.cfi_offset 14, -4
 5739 0002 85B0     		sub	sp, sp, #20
 5740              		.cfi_def_cfa_offset 32
 5741 0004 00AF     		add	r7, sp, #0
 5742              		.cfi_def_cfa_register 7
 5743 0006 7860     		str	r0, [r7, #4]
 5744 0008 0A00     		movs	r2, r1
 5745 000a FB1C     		adds	r3, r7, #3
 5746 000c 1A70     		strb	r2, [r3]
1393:Api\core\src/vl53l0x_api.c **** 	VL53L0X_Error Status = VL53L0X_ERROR_NONE;
 5747              		.loc 1 1393 0
 5748 000e 0B23     		movs	r3, #11
 5749 0010 FB18     		adds	r3, r7, r3
 5750 0012 0022     		movs	r2, #0
 5751 0014 1A70     		strb	r2, [r3]
1394:Api\core\src/vl53l0x_api.c **** 	FixPoint1616_t TempFix1616;
1395:Api\core\src/vl53l0x_api.c **** 	uint16_t LinearityCorrectiveGain;
1396:Api\core\src/vl53l0x_api.c **** 
1397:Api\core\src/vl53l0x_api.c **** 	LOG_FUNCTION_START("");
1398:Api\core\src/vl53l0x_api.c **** 
1399:Api\core\src/vl53l0x_api.c **** 	LinearityCorrectiveGain = PALDevDataGet(Dev, LinearityCorrectiveGain);
 5752              		.loc 1 1399 0
 5753 0016 0823     		movs	r3, #8
 5754 0018 FB18     		adds	r3, r7, r3
 5755 001a 7968     		ldr	r1, [r7, #4]
 5756 001c A922     		movs	r2, #169
 5757 001e 5200     		lsls	r2, r2, #1
 5758 0020 8A5A     		ldrh	r2, [r1, r2]
 5759 0022 1A80     		strh	r2, [r3]
1400:Api\core\src/vl53l0x_api.c **** 
1401:Api\core\src/vl53l0x_api.c **** 	if ((XTalkCompensationEnable == 0)
 5760              		.loc 1 1401 0
 5761 0024 FB1C     		adds	r3, r7, #3
 5762 0026 1B78     		ldrb	r3, [r3]
 5763 0028 002B     		cmp	r3, #0
 5764 002a 06D0     		beq	.L251
1402:Api\core\src/vl53l0x_api.c **** 		|| (LinearityCorrectiveGain != 1000)) {
 5765              		.loc 1 1402 0
 5766 002c 0823     		movs	r3, #8
 5767 002e FB18     		adds	r3, r7, r3
 5768 0030 1A88     		ldrh	r2, [r3]
 5769 0032 FA23     		movs	r3, #250
 5770 0034 9B00     		lsls	r3, r3, #2
ARM GAS  C:\Users\ilya\AppData\Local\Temp\ccpEIuqL.s 			page 127


 5771 0036 9A42     		cmp	r2, r3
 5772 0038 02D0     		beq	.L252
 5773              	.L251:
1403:Api\core\src/vl53l0x_api.c **** 		TempFix1616 = 0;
 5774              		.loc 1 1403 0
 5775 003a 0023     		movs	r3, #0
 5776 003c FB60     		str	r3, [r7, #12]
 5777 003e 02E0     		b	.L253
 5778              	.L252:
1404:Api\core\src/vl53l0x_api.c **** 	} else {
1405:Api\core\src/vl53l0x_api.c **** 		VL53L0X_GETPARAMETERFIELD(Dev, XTalkCompensationRateMegaCps,
 5779              		.loc 1 1405 0
 5780 0040 7B68     		ldr	r3, [r7, #4]
 5781 0042 1B6A     		ldr	r3, [r3, #32]
 5782 0044 FB60     		str	r3, [r7, #12]
 5783              	.L253:
1406:Api\core\src/vl53l0x_api.c **** 			TempFix1616);
1407:Api\core\src/vl53l0x_api.c **** 	}
1408:Api\core\src/vl53l0x_api.c **** 
1409:Api\core\src/vl53l0x_api.c **** 	/* the following register has a format 3.13 */
1410:Api\core\src/vl53l0x_api.c **** 	Status = VL53L0X_WrWord(Dev,
1411:Api\core\src/vl53l0x_api.c **** 	VL53L0X_REG_CROSSTALK_COMPENSATION_PEAK_RATE_MCPS,
1412:Api\core\src/vl53l0x_api.c **** 		VL53L0X_FIXPOINT1616TOFIXPOINT313(TempFix1616));
 5784              		.loc 1 1412 0
 5785 0046 FB68     		ldr	r3, [r7, #12]
 5786 0048 DB08     		lsrs	r3, r3, #3
1410:Api\core\src/vl53l0x_api.c **** 	VL53L0X_REG_CROSSTALK_COMPENSATION_PEAK_RATE_MCPS,
 5787              		.loc 1 1410 0
 5788 004a 9AB2     		uxth	r2, r3
 5789 004c 0B23     		movs	r3, #11
 5790 004e FC18     		adds	r4, r7, r3
 5791 0050 7B68     		ldr	r3, [r7, #4]
 5792 0052 2021     		movs	r1, #32
 5793 0054 1800     		movs	r0, r3
 5794 0056 FFF7FEFF 		bl	VL53L0X_WrWord
 5795 005a 0300     		movs	r3, r0
 5796 005c 2370     		strb	r3, [r4]
1413:Api\core\src/vl53l0x_api.c **** 
1414:Api\core\src/vl53l0x_api.c **** 	if (Status == VL53L0X_ERROR_NONE) {
 5797              		.loc 1 1414 0
 5798 005e 0B23     		movs	r3, #11
 5799 0060 FB18     		adds	r3, r7, r3
 5800 0062 1B78     		ldrb	r3, [r3]
 5801 0064 5BB2     		sxtb	r3, r3
 5802 0066 002B     		cmp	r3, #0
 5803 0068 0AD1     		bne	.L254
1415:Api\core\src/vl53l0x_api.c **** 		if (XTalkCompensationEnable == 0) {
 5804              		.loc 1 1415 0
 5805 006a FB1C     		adds	r3, r7, #3
 5806 006c 1B78     		ldrb	r3, [r3]
 5807 006e 002B     		cmp	r3, #0
 5808 0070 03D1     		bne	.L255
1416:Api\core\src/vl53l0x_api.c **** 			VL53L0X_SETPARAMETERFIELD(Dev, XTalkCompensationEnable,
 5809              		.loc 1 1416 0
 5810 0072 7B68     		ldr	r3, [r7, #4]
 5811 0074 0022     		movs	r2, #0
 5812 0076 1A77     		strb	r2, [r3, #28]
ARM GAS  C:\Users\ilya\AppData\Local\Temp\ccpEIuqL.s 			page 128


 5813 0078 02E0     		b	.L254
 5814              	.L255:
1417:Api\core\src/vl53l0x_api.c **** 				0);
1418:Api\core\src/vl53l0x_api.c **** 		} else {
1419:Api\core\src/vl53l0x_api.c **** 			VL53L0X_SETPARAMETERFIELD(Dev, XTalkCompensationEnable,
 5815              		.loc 1 1419 0
 5816 007a 7B68     		ldr	r3, [r7, #4]
 5817 007c 0122     		movs	r2, #1
 5818 007e 1A77     		strb	r2, [r3, #28]
 5819              	.L254:
1420:Api\core\src/vl53l0x_api.c **** 				1);
1421:Api\core\src/vl53l0x_api.c **** 		}
1422:Api\core\src/vl53l0x_api.c **** 	}
1423:Api\core\src/vl53l0x_api.c **** 
1424:Api\core\src/vl53l0x_api.c **** 	LOG_FUNCTION_END(Status);
1425:Api\core\src/vl53l0x_api.c **** 	return Status;
 5820              		.loc 1 1425 0
 5821 0080 0B23     		movs	r3, #11
 5822 0082 FB18     		adds	r3, r7, r3
 5823 0084 1B78     		ldrb	r3, [r3]
 5824 0086 5BB2     		sxtb	r3, r3
1426:Api\core\src/vl53l0x_api.c **** }
 5825              		.loc 1 1426 0
 5826 0088 1800     		movs	r0, r3
 5827 008a BD46     		mov	sp, r7
 5828 008c 05B0     		add	sp, sp, #20
 5829              		@ sp needed
 5830 008e 90BD     		pop	{r4, r7, pc}
 5831              		.cfi_endproc
 5832              	.LFE49:
 5833              		.size	VL53L0X_SetXTalkCompensationEnable, .-VL53L0X_SetXTalkCompensationEnable
 5834              		.section	.text.VL53L0X_GetXTalkCompensationEnable,"ax",%progbits
 5835              		.align	2
 5836              		.global	VL53L0X_GetXTalkCompensationEnable
 5837              		.code	16
 5838              		.thumb_func
 5839              		.type	VL53L0X_GetXTalkCompensationEnable, %function
 5840              	VL53L0X_GetXTalkCompensationEnable:
 5841              	.LFB50:
1427:Api\core\src/vl53l0x_api.c **** 
1428:Api\core\src/vl53l0x_api.c **** VL53L0X_Error VL53L0X_GetXTalkCompensationEnable(VL53L0X_DEV Dev,
1429:Api\core\src/vl53l0x_api.c **** 	uint8_t *pXTalkCompensationEnable)
1430:Api\core\src/vl53l0x_api.c **** {
 5842              		.loc 1 1430 0
 5843              		.cfi_startproc
 5844              		@ args = 0, pretend = 0, frame = 16
 5845              		@ frame_needed = 1, uses_anonymous_args = 0
 5846 0000 80B5     		push	{r7, lr}
 5847              		.cfi_def_cfa_offset 8
 5848              		.cfi_offset 7, -8
 5849              		.cfi_offset 14, -4
 5850 0002 84B0     		sub	sp, sp, #16
 5851              		.cfi_def_cfa_offset 24
 5852 0004 00AF     		add	r7, sp, #0
 5853              		.cfi_def_cfa_register 7
 5854 0006 7860     		str	r0, [r7, #4]
 5855 0008 3960     		str	r1, [r7]
ARM GAS  C:\Users\ilya\AppData\Local\Temp\ccpEIuqL.s 			page 129


1431:Api\core\src/vl53l0x_api.c **** 	VL53L0X_Error Status = VL53L0X_ERROR_NONE;
 5856              		.loc 1 1431 0
 5857 000a 0F23     		movs	r3, #15
 5858 000c FB18     		adds	r3, r7, r3
 5859 000e 0022     		movs	r2, #0
 5860 0010 1A70     		strb	r2, [r3]
1432:Api\core\src/vl53l0x_api.c **** 	uint8_t Temp8;
1433:Api\core\src/vl53l0x_api.c **** 	LOG_FUNCTION_START("");
1434:Api\core\src/vl53l0x_api.c **** 
1435:Api\core\src/vl53l0x_api.c **** 	VL53L0X_GETPARAMETERFIELD(Dev, XTalkCompensationEnable, Temp8);
 5861              		.loc 1 1435 0
 5862 0012 0E23     		movs	r3, #14
 5863 0014 FB18     		adds	r3, r7, r3
 5864 0016 7A68     		ldr	r2, [r7, #4]
 5865 0018 127F     		ldrb	r2, [r2, #28]
 5866 001a 1A70     		strb	r2, [r3]
1436:Api\core\src/vl53l0x_api.c **** 	*pXTalkCompensationEnable = Temp8;
 5867              		.loc 1 1436 0
 5868 001c 3B68     		ldr	r3, [r7]
 5869 001e 0E22     		movs	r2, #14
 5870 0020 BA18     		adds	r2, r7, r2
 5871 0022 1278     		ldrb	r2, [r2]
 5872 0024 1A70     		strb	r2, [r3]
1437:Api\core\src/vl53l0x_api.c **** 
1438:Api\core\src/vl53l0x_api.c **** 	LOG_FUNCTION_END(Status);
1439:Api\core\src/vl53l0x_api.c **** 	return Status;
 5873              		.loc 1 1439 0
 5874 0026 0F23     		movs	r3, #15
 5875 0028 FB18     		adds	r3, r7, r3
 5876 002a 1B78     		ldrb	r3, [r3]
 5877 002c 5BB2     		sxtb	r3, r3
1440:Api\core\src/vl53l0x_api.c **** }
 5878              		.loc 1 1440 0
 5879 002e 1800     		movs	r0, r3
 5880 0030 BD46     		mov	sp, r7
 5881 0032 04B0     		add	sp, sp, #16
 5882              		@ sp needed
 5883 0034 80BD     		pop	{r7, pc}
 5884              		.cfi_endproc
 5885              	.LFE50:
 5886              		.size	VL53L0X_GetXTalkCompensationEnable, .-VL53L0X_GetXTalkCompensationEnable
 5887 0036 C046     		.section	.text.VL53L0X_SetXTalkCompensationRateMegaCps,"ax",%progbits
 5888              		.align	2
 5889              		.global	VL53L0X_SetXTalkCompensationRateMegaCps
 5890              		.code	16
 5891              		.thumb_func
 5892              		.type	VL53L0X_SetXTalkCompensationRateMegaCps, %function
 5893              	VL53L0X_SetXTalkCompensationRateMegaCps:
 5894              	.LFB51:
1441:Api\core\src/vl53l0x_api.c **** 
1442:Api\core\src/vl53l0x_api.c **** VL53L0X_Error VL53L0X_SetXTalkCompensationRateMegaCps(VL53L0X_DEV Dev,
1443:Api\core\src/vl53l0x_api.c **** 	FixPoint1616_t XTalkCompensationRateMegaCps)
1444:Api\core\src/vl53l0x_api.c **** {
 5895              		.loc 1 1444 0
 5896              		.cfi_startproc
 5897              		@ args = 0, pretend = 0, frame = 16
 5898              		@ frame_needed = 1, uses_anonymous_args = 0
ARM GAS  C:\Users\ilya\AppData\Local\Temp\ccpEIuqL.s 			page 130


 5899 0000 90B5     		push	{r4, r7, lr}
 5900              		.cfi_def_cfa_offset 12
 5901              		.cfi_offset 4, -12
 5902              		.cfi_offset 7, -8
 5903              		.cfi_offset 14, -4
 5904 0002 85B0     		sub	sp, sp, #20
 5905              		.cfi_def_cfa_offset 32
 5906 0004 00AF     		add	r7, sp, #0
 5907              		.cfi_def_cfa_register 7
 5908 0006 7860     		str	r0, [r7, #4]
 5909 0008 3960     		str	r1, [r7]
1445:Api\core\src/vl53l0x_api.c **** 	VL53L0X_Error Status = VL53L0X_ERROR_NONE;
 5910              		.loc 1 1445 0
 5911 000a 0F23     		movs	r3, #15
 5912 000c FB18     		adds	r3, r7, r3
 5913 000e 0022     		movs	r2, #0
 5914 0010 1A70     		strb	r2, [r3]
1446:Api\core\src/vl53l0x_api.c **** 	uint8_t Temp8;
1447:Api\core\src/vl53l0x_api.c **** 	uint16_t LinearityCorrectiveGain;
1448:Api\core\src/vl53l0x_api.c **** 	uint16_t data;
1449:Api\core\src/vl53l0x_api.c **** 	LOG_FUNCTION_START("");
1450:Api\core\src/vl53l0x_api.c **** 
1451:Api\core\src/vl53l0x_api.c **** 	VL53L0X_GETPARAMETERFIELD(Dev, XTalkCompensationEnable, Temp8);
 5915              		.loc 1 1451 0
 5916 0012 0B23     		movs	r3, #11
 5917 0014 FB18     		adds	r3, r7, r3
 5918 0016 7A68     		ldr	r2, [r7, #4]
 5919 0018 127F     		ldrb	r2, [r2, #28]
 5920 001a 1A70     		strb	r2, [r3]
1452:Api\core\src/vl53l0x_api.c **** 	LinearityCorrectiveGain = PALDevDataGet(Dev, LinearityCorrectiveGain);
 5921              		.loc 1 1452 0
 5922 001c 0823     		movs	r3, #8
 5923 001e FB18     		adds	r3, r7, r3
 5924 0020 7968     		ldr	r1, [r7, #4]
 5925 0022 A922     		movs	r2, #169
 5926 0024 5200     		lsls	r2, r2, #1
 5927 0026 8A5A     		ldrh	r2, [r1, r2]
 5928 0028 1A80     		strh	r2, [r3]
1453:Api\core\src/vl53l0x_api.c **** 
1454:Api\core\src/vl53l0x_api.c **** 	if (Temp8 == 0) { /* disabled write only internal value */
 5929              		.loc 1 1454 0
 5930 002a 0B23     		movs	r3, #11
 5931 002c FB18     		adds	r3, r7, r3
 5932 002e 1B78     		ldrb	r3, [r3]
 5933 0030 002B     		cmp	r3, #0
 5934 0032 03D1     		bne	.L260
1455:Api\core\src/vl53l0x_api.c **** 		VL53L0X_SETPARAMETERFIELD(Dev, XTalkCompensationRateMegaCps,
 5935              		.loc 1 1455 0
 5936 0034 7B68     		ldr	r3, [r7, #4]
 5937 0036 3A68     		ldr	r2, [r7]
 5938 0038 1A62     		str	r2, [r3, #32]
 5939 003a 25E0     		b	.L261
 5940              	.L260:
1456:Api\core\src/vl53l0x_api.c **** 			XTalkCompensationRateMegaCps);
1457:Api\core\src/vl53l0x_api.c **** 	} else {
1458:Api\core\src/vl53l0x_api.c **** 		/* the following register has a format 3.13 */
1459:Api\core\src/vl53l0x_api.c **** 		if (LinearityCorrectiveGain == 1000) {
ARM GAS  C:\Users\ilya\AppData\Local\Temp\ccpEIuqL.s 			page 131


 5941              		.loc 1 1459 0
 5942 003c 0823     		movs	r3, #8
 5943 003e FB18     		adds	r3, r7, r3
 5944 0040 1A88     		ldrh	r2, [r3]
 5945 0042 FA23     		movs	r3, #250
 5946 0044 9B00     		lsls	r3, r3, #2
 5947 0046 9A42     		cmp	r2, r3
 5948 0048 05D1     		bne	.L262
1460:Api\core\src/vl53l0x_api.c **** 			data = VL53L0X_FIXPOINT1616TOFIXPOINT313(
 5949              		.loc 1 1460 0
 5950 004a 3B68     		ldr	r3, [r7]
 5951 004c DA08     		lsrs	r2, r3, #3
 5952 004e 0C23     		movs	r3, #12
 5953 0050 FB18     		adds	r3, r7, r3
 5954 0052 1A80     		strh	r2, [r3]
 5955 0054 03E0     		b	.L263
 5956              	.L262:
1461:Api\core\src/vl53l0x_api.c **** 				XTalkCompensationRateMegaCps);
1462:Api\core\src/vl53l0x_api.c **** 		} else {
1463:Api\core\src/vl53l0x_api.c **** 			data = 0;
 5957              		.loc 1 1463 0
 5958 0056 0C23     		movs	r3, #12
 5959 0058 FB18     		adds	r3, r7, r3
 5960 005a 0022     		movs	r2, #0
 5961 005c 1A80     		strh	r2, [r3]
 5962              	.L263:
1464:Api\core\src/vl53l0x_api.c **** 		}
1465:Api\core\src/vl53l0x_api.c **** 
1466:Api\core\src/vl53l0x_api.c **** 		Status = VL53L0X_WrWord(Dev,
 5963              		.loc 1 1466 0
 5964 005e 0F23     		movs	r3, #15
 5965 0060 FC18     		adds	r4, r7, r3
 5966 0062 0C23     		movs	r3, #12
 5967 0064 FB18     		adds	r3, r7, r3
 5968 0066 1A88     		ldrh	r2, [r3]
 5969 0068 7B68     		ldr	r3, [r7, #4]
 5970 006a 2021     		movs	r1, #32
 5971 006c 1800     		movs	r0, r3
 5972 006e FFF7FEFF 		bl	VL53L0X_WrWord
 5973 0072 0300     		movs	r3, r0
 5974 0074 2370     		strb	r3, [r4]
1467:Api\core\src/vl53l0x_api.c **** 		VL53L0X_REG_CROSSTALK_COMPENSATION_PEAK_RATE_MCPS, data);
1468:Api\core\src/vl53l0x_api.c **** 
1469:Api\core\src/vl53l0x_api.c **** 		if (Status == VL53L0X_ERROR_NONE) {
 5975              		.loc 1 1469 0
 5976 0076 0F23     		movs	r3, #15
 5977 0078 FB18     		adds	r3, r7, r3
 5978 007a 1B78     		ldrb	r3, [r3]
 5979 007c 5BB2     		sxtb	r3, r3
 5980 007e 002B     		cmp	r3, #0
 5981 0080 02D1     		bne	.L261
1470:Api\core\src/vl53l0x_api.c **** 			VL53L0X_SETPARAMETERFIELD(Dev,
 5982              		.loc 1 1470 0
 5983 0082 7B68     		ldr	r3, [r7, #4]
 5984 0084 3A68     		ldr	r2, [r7]
 5985 0086 1A62     		str	r2, [r3, #32]
 5986              	.L261:
ARM GAS  C:\Users\ilya\AppData\Local\Temp\ccpEIuqL.s 			page 132


1471:Api\core\src/vl53l0x_api.c **** 				XTalkCompensationRateMegaCps,
1472:Api\core\src/vl53l0x_api.c **** 				XTalkCompensationRateMegaCps);
1473:Api\core\src/vl53l0x_api.c **** 		}
1474:Api\core\src/vl53l0x_api.c **** 	}
1475:Api\core\src/vl53l0x_api.c **** 
1476:Api\core\src/vl53l0x_api.c **** 	LOG_FUNCTION_END(Status);
1477:Api\core\src/vl53l0x_api.c **** 	return Status;
 5987              		.loc 1 1477 0
 5988 0088 0F23     		movs	r3, #15
 5989 008a FB18     		adds	r3, r7, r3
 5990 008c 1B78     		ldrb	r3, [r3]
 5991 008e 5BB2     		sxtb	r3, r3
1478:Api\core\src/vl53l0x_api.c **** }
 5992              		.loc 1 1478 0
 5993 0090 1800     		movs	r0, r3
 5994 0092 BD46     		mov	sp, r7
 5995 0094 05B0     		add	sp, sp, #20
 5996              		@ sp needed
 5997 0096 90BD     		pop	{r4, r7, pc}
 5998              		.cfi_endproc
 5999              	.LFE51:
 6000              		.size	VL53L0X_SetXTalkCompensationRateMegaCps, .-VL53L0X_SetXTalkCompensationRateMegaCps
 6001              		.section	.text.VL53L0X_GetXTalkCompensationRateMegaCps,"ax",%progbits
 6002              		.align	2
 6003              		.global	VL53L0X_GetXTalkCompensationRateMegaCps
 6004              		.code	16
 6005              		.thumb_func
 6006              		.type	VL53L0X_GetXTalkCompensationRateMegaCps, %function
 6007              	VL53L0X_GetXTalkCompensationRateMegaCps:
 6008              	.LFB52:
1479:Api\core\src/vl53l0x_api.c **** 
1480:Api\core\src/vl53l0x_api.c **** VL53L0X_Error VL53L0X_GetXTalkCompensationRateMegaCps(VL53L0X_DEV Dev,
1481:Api\core\src/vl53l0x_api.c **** 	FixPoint1616_t *pXTalkCompensationRateMegaCps)
1482:Api\core\src/vl53l0x_api.c **** {
 6009              		.loc 1 1482 0
 6010              		.cfi_startproc
 6011              		@ args = 0, pretend = 0, frame = 24
 6012              		@ frame_needed = 1, uses_anonymous_args = 0
 6013 0000 90B5     		push	{r4, r7, lr}
 6014              		.cfi_def_cfa_offset 12
 6015              		.cfi_offset 4, -12
 6016              		.cfi_offset 7, -8
 6017              		.cfi_offset 14, -4
 6018 0002 87B0     		sub	sp, sp, #28
 6019              		.cfi_def_cfa_offset 40
 6020 0004 00AF     		add	r7, sp, #0
 6021              		.cfi_def_cfa_register 7
 6022 0006 7860     		str	r0, [r7, #4]
 6023 0008 3960     		str	r1, [r7]
1483:Api\core\src/vl53l0x_api.c **** 	VL53L0X_Error Status = VL53L0X_ERROR_NONE;
 6024              		.loc 1 1483 0
 6025 000a 1723     		movs	r3, #23
 6026 000c FB18     		adds	r3, r7, r3
 6027 000e 0022     		movs	r2, #0
 6028 0010 1A70     		strb	r2, [r3]
1484:Api\core\src/vl53l0x_api.c **** 	uint16_t Value;
1485:Api\core\src/vl53l0x_api.c **** 	FixPoint1616_t TempFix1616;
ARM GAS  C:\Users\ilya\AppData\Local\Temp\ccpEIuqL.s 			page 133


1486:Api\core\src/vl53l0x_api.c **** 
1487:Api\core\src/vl53l0x_api.c **** 	LOG_FUNCTION_START("");
1488:Api\core\src/vl53l0x_api.c **** 
1489:Api\core\src/vl53l0x_api.c **** 	Status = VL53L0X_RdWord(Dev,
 6029              		.loc 1 1489 0
 6030 0012 1723     		movs	r3, #23
 6031 0014 FC18     		adds	r4, r7, r3
 6032 0016 0E23     		movs	r3, #14
 6033 0018 FA18     		adds	r2, r7, r3
 6034 001a 7B68     		ldr	r3, [r7, #4]
 6035 001c 2021     		movs	r1, #32
 6036 001e 1800     		movs	r0, r3
 6037 0020 FFF7FEFF 		bl	VL53L0X_RdWord
 6038 0024 0300     		movs	r3, r0
 6039 0026 2370     		strb	r3, [r4]
1490:Api\core\src/vl53l0x_api.c **** 	VL53L0X_REG_CROSSTALK_COMPENSATION_PEAK_RATE_MCPS, (uint16_t *)&Value);
1491:Api\core\src/vl53l0x_api.c **** 	if (Status == VL53L0X_ERROR_NONE) {
 6040              		.loc 1 1491 0
 6041 0028 1723     		movs	r3, #23
 6042 002a FB18     		adds	r3, r7, r3
 6043 002c 1B78     		ldrb	r3, [r3]
 6044 002e 5BB2     		sxtb	r3, r3
 6045 0030 002B     		cmp	r3, #0
 6046 0032 1CD1     		bne	.L266
1492:Api\core\src/vl53l0x_api.c **** 		if (Value == 0) {
 6047              		.loc 1 1492 0
 6048 0034 0E23     		movs	r3, #14
 6049 0036 FB18     		adds	r3, r7, r3
 6050 0038 1B88     		ldrh	r3, [r3]
 6051 003a 002B     		cmp	r3, #0
 6052 003c 09D1     		bne	.L267
1493:Api\core\src/vl53l0x_api.c **** 			/* the Xtalk is disabled return value from memory */
1494:Api\core\src/vl53l0x_api.c **** 			VL53L0X_GETPARAMETERFIELD(Dev,
 6053              		.loc 1 1494 0
 6054 003e 7B68     		ldr	r3, [r7, #4]
 6055 0040 1B6A     		ldr	r3, [r3, #32]
 6056 0042 3B61     		str	r3, [r7, #16]
1495:Api\core\src/vl53l0x_api.c **** 				XTalkCompensationRateMegaCps, TempFix1616);
1496:Api\core\src/vl53l0x_api.c **** 			*pXTalkCompensationRateMegaCps = TempFix1616;
 6057              		.loc 1 1496 0
 6058 0044 3B68     		ldr	r3, [r7]
 6059 0046 3A69     		ldr	r2, [r7, #16]
 6060 0048 1A60     		str	r2, [r3]
1497:Api\core\src/vl53l0x_api.c **** 			VL53L0X_SETPARAMETERFIELD(Dev, XTalkCompensationEnable,
 6061              		.loc 1 1497 0
 6062 004a 7B68     		ldr	r3, [r7, #4]
 6063 004c 0022     		movs	r2, #0
 6064 004e 1A77     		strb	r2, [r3, #28]
 6065 0050 0DE0     		b	.L266
 6066              	.L267:
1498:Api\core\src/vl53l0x_api.c **** 				0);
1499:Api\core\src/vl53l0x_api.c **** 		} else {
1500:Api\core\src/vl53l0x_api.c **** 			TempFix1616 = VL53L0X_FIXPOINT313TOFIXPOINT1616(Value);
 6067              		.loc 1 1500 0
 6068 0052 0E23     		movs	r3, #14
 6069 0054 FB18     		adds	r3, r7, r3
 6070 0056 1B88     		ldrh	r3, [r3]
ARM GAS  C:\Users\ilya\AppData\Local\Temp\ccpEIuqL.s 			page 134


 6071 0058 DB00     		lsls	r3, r3, #3
 6072 005a 3B61     		str	r3, [r7, #16]
1501:Api\core\src/vl53l0x_api.c **** 			*pXTalkCompensationRateMegaCps = TempFix1616;
 6073              		.loc 1 1501 0
 6074 005c 3B68     		ldr	r3, [r7]
 6075 005e 3A69     		ldr	r2, [r7, #16]
 6076 0060 1A60     		str	r2, [r3]
1502:Api\core\src/vl53l0x_api.c **** 			VL53L0X_SETPARAMETERFIELD(Dev,
 6077              		.loc 1 1502 0
 6078 0062 7B68     		ldr	r3, [r7, #4]
 6079 0064 3A69     		ldr	r2, [r7, #16]
 6080 0066 1A62     		str	r2, [r3, #32]
1503:Api\core\src/vl53l0x_api.c **** 				XTalkCompensationRateMegaCps, TempFix1616);
1504:Api\core\src/vl53l0x_api.c **** 			VL53L0X_SETPARAMETERFIELD(Dev, XTalkCompensationEnable,
 6081              		.loc 1 1504 0
 6082 0068 7B68     		ldr	r3, [r7, #4]
 6083 006a 0122     		movs	r2, #1
 6084 006c 1A77     		strb	r2, [r3, #28]
 6085              	.L266:
1505:Api\core\src/vl53l0x_api.c **** 				1);
1506:Api\core\src/vl53l0x_api.c **** 		}
1507:Api\core\src/vl53l0x_api.c **** 	}
1508:Api\core\src/vl53l0x_api.c **** 
1509:Api\core\src/vl53l0x_api.c **** 	LOG_FUNCTION_END(Status);
1510:Api\core\src/vl53l0x_api.c **** 	return Status;
 6086              		.loc 1 1510 0
 6087 006e 1723     		movs	r3, #23
 6088 0070 FB18     		adds	r3, r7, r3
 6089 0072 1B78     		ldrb	r3, [r3]
 6090 0074 5BB2     		sxtb	r3, r3
1511:Api\core\src/vl53l0x_api.c **** }
 6091              		.loc 1 1511 0
 6092 0076 1800     		movs	r0, r3
 6093 0078 BD46     		mov	sp, r7
 6094 007a 07B0     		add	sp, sp, #28
 6095              		@ sp needed
 6096 007c 90BD     		pop	{r4, r7, pc}
 6097              		.cfi_endproc
 6098              	.LFE52:
 6099              		.size	VL53L0X_GetXTalkCompensationRateMegaCps, .-VL53L0X_GetXTalkCompensationRateMegaCps
 6100 007e C046     		.section	.text.VL53L0X_SetRefCalibration,"ax",%progbits
 6101              		.align	2
 6102              		.global	VL53L0X_SetRefCalibration
 6103              		.code	16
 6104              		.thumb_func
 6105              		.type	VL53L0X_SetRefCalibration, %function
 6106              	VL53L0X_SetRefCalibration:
 6107              	.LFB53:
1512:Api\core\src/vl53l0x_api.c **** 
1513:Api\core\src/vl53l0x_api.c **** VL53L0X_Error VL53L0X_SetRefCalibration(VL53L0X_DEV Dev, uint8_t VhvSettings,
1514:Api\core\src/vl53l0x_api.c **** 	uint8_t PhaseCal)
1515:Api\core\src/vl53l0x_api.c **** {
 6108              		.loc 1 1515 0
 6109              		.cfi_startproc
 6110              		@ args = 0, pretend = 0, frame = 16
 6111              		@ frame_needed = 1, uses_anonymous_args = 0
 6112 0000 90B5     		push	{r4, r7, lr}
ARM GAS  C:\Users\ilya\AppData\Local\Temp\ccpEIuqL.s 			page 135


 6113              		.cfi_def_cfa_offset 12
 6114              		.cfi_offset 4, -12
 6115              		.cfi_offset 7, -8
 6116              		.cfi_offset 14, -4
 6117 0002 85B0     		sub	sp, sp, #20
 6118              		.cfi_def_cfa_offset 32
 6119 0004 00AF     		add	r7, sp, #0
 6120              		.cfi_def_cfa_register 7
 6121 0006 7860     		str	r0, [r7, #4]
 6122 0008 0800     		movs	r0, r1
 6123 000a 1100     		movs	r1, r2
 6124 000c FB1C     		adds	r3, r7, #3
 6125 000e 021C     		adds	r2, r0, #0
 6126 0010 1A70     		strb	r2, [r3]
 6127 0012 BB1C     		adds	r3, r7, #2
 6128 0014 0A1C     		adds	r2, r1, #0
 6129 0016 1A70     		strb	r2, [r3]
1516:Api\core\src/vl53l0x_api.c **** 	VL53L0X_Error Status = VL53L0X_ERROR_NONE;
 6130              		.loc 1 1516 0
 6131 0018 0F23     		movs	r3, #15
 6132 001a FB18     		adds	r3, r7, r3
 6133 001c 0022     		movs	r2, #0
 6134 001e 1A70     		strb	r2, [r3]
1517:Api\core\src/vl53l0x_api.c **** 	LOG_FUNCTION_START("");
1518:Api\core\src/vl53l0x_api.c **** 
1519:Api\core\src/vl53l0x_api.c **** 	Status = VL53L0X_set_ref_calibration(Dev, VhvSettings, PhaseCal);
 6135              		.loc 1 1519 0
 6136 0020 0F23     		movs	r3, #15
 6137 0022 FC18     		adds	r4, r7, r3
 6138 0024 BB1C     		adds	r3, r7, #2
 6139 0026 1A78     		ldrb	r2, [r3]
 6140 0028 FB1C     		adds	r3, r7, #3
 6141 002a 1978     		ldrb	r1, [r3]
 6142 002c 7B68     		ldr	r3, [r7, #4]
 6143 002e 1800     		movs	r0, r3
 6144 0030 FFF7FEFF 		bl	VL53L0X_set_ref_calibration
 6145 0034 0300     		movs	r3, r0
 6146 0036 2370     		strb	r3, [r4]
1520:Api\core\src/vl53l0x_api.c **** 
1521:Api\core\src/vl53l0x_api.c **** 	LOG_FUNCTION_END(Status);
1522:Api\core\src/vl53l0x_api.c **** 	return Status;
 6147              		.loc 1 1522 0
 6148 0038 0F23     		movs	r3, #15
 6149 003a FB18     		adds	r3, r7, r3
 6150 003c 1B78     		ldrb	r3, [r3]
 6151 003e 5BB2     		sxtb	r3, r3
1523:Api\core\src/vl53l0x_api.c **** }
 6152              		.loc 1 1523 0
 6153 0040 1800     		movs	r0, r3
 6154 0042 BD46     		mov	sp, r7
 6155 0044 05B0     		add	sp, sp, #20
 6156              		@ sp needed
 6157 0046 90BD     		pop	{r4, r7, pc}
 6158              		.cfi_endproc
 6159              	.LFE53:
 6160              		.size	VL53L0X_SetRefCalibration, .-VL53L0X_SetRefCalibration
 6161              		.section	.text.VL53L0X_GetRefCalibration,"ax",%progbits
ARM GAS  C:\Users\ilya\AppData\Local\Temp\ccpEIuqL.s 			page 136


 6162              		.align	2
 6163              		.global	VL53L0X_GetRefCalibration
 6164              		.code	16
 6165              		.thumb_func
 6166              		.type	VL53L0X_GetRefCalibration, %function
 6167              	VL53L0X_GetRefCalibration:
 6168              	.LFB54:
1524:Api\core\src/vl53l0x_api.c **** 
1525:Api\core\src/vl53l0x_api.c **** VL53L0X_Error VL53L0X_GetRefCalibration(VL53L0X_DEV Dev, uint8_t *pVhvSettings,
1526:Api\core\src/vl53l0x_api.c **** 	uint8_t *pPhaseCal)
1527:Api\core\src/vl53l0x_api.c **** {
 6169              		.loc 1 1527 0
 6170              		.cfi_startproc
 6171              		@ args = 0, pretend = 0, frame = 24
 6172              		@ frame_needed = 1, uses_anonymous_args = 0
 6173 0000 90B5     		push	{r4, r7, lr}
 6174              		.cfi_def_cfa_offset 12
 6175              		.cfi_offset 4, -12
 6176              		.cfi_offset 7, -8
 6177              		.cfi_offset 14, -4
 6178 0002 87B0     		sub	sp, sp, #28
 6179              		.cfi_def_cfa_offset 40
 6180 0004 00AF     		add	r7, sp, #0
 6181              		.cfi_def_cfa_register 7
 6182 0006 F860     		str	r0, [r7, #12]
 6183 0008 B960     		str	r1, [r7, #8]
 6184 000a 7A60     		str	r2, [r7, #4]
1528:Api\core\src/vl53l0x_api.c **** 	VL53L0X_Error Status = VL53L0X_ERROR_NONE;
 6185              		.loc 1 1528 0
 6186 000c 1723     		movs	r3, #23
 6187 000e FB18     		adds	r3, r7, r3
 6188 0010 0022     		movs	r2, #0
 6189 0012 1A70     		strb	r2, [r3]
1529:Api\core\src/vl53l0x_api.c **** 	LOG_FUNCTION_START("");
1530:Api\core\src/vl53l0x_api.c **** 
1531:Api\core\src/vl53l0x_api.c **** 	Status = VL53L0X_get_ref_calibration(Dev, pVhvSettings, pPhaseCal);
 6190              		.loc 1 1531 0
 6191 0014 1723     		movs	r3, #23
 6192 0016 FC18     		adds	r4, r7, r3
 6193 0018 7A68     		ldr	r2, [r7, #4]
 6194 001a B968     		ldr	r1, [r7, #8]
 6195 001c FB68     		ldr	r3, [r7, #12]
 6196 001e 1800     		movs	r0, r3
 6197 0020 FFF7FEFF 		bl	VL53L0X_get_ref_calibration
 6198 0024 0300     		movs	r3, r0
 6199 0026 2370     		strb	r3, [r4]
1532:Api\core\src/vl53l0x_api.c **** 
1533:Api\core\src/vl53l0x_api.c **** 	LOG_FUNCTION_END(Status);
1534:Api\core\src/vl53l0x_api.c **** 	return Status;
 6200              		.loc 1 1534 0
 6201 0028 1723     		movs	r3, #23
 6202 002a FB18     		adds	r3, r7, r3
 6203 002c 1B78     		ldrb	r3, [r3]
 6204 002e 5BB2     		sxtb	r3, r3
1535:Api\core\src/vl53l0x_api.c **** }
 6205              		.loc 1 1535 0
 6206 0030 1800     		movs	r0, r3
ARM GAS  C:\Users\ilya\AppData\Local\Temp\ccpEIuqL.s 			page 137


 6207 0032 BD46     		mov	sp, r7
 6208 0034 07B0     		add	sp, sp, #28
 6209              		@ sp needed
 6210 0036 90BD     		pop	{r4, r7, pc}
 6211              		.cfi_endproc
 6212              	.LFE54:
 6213              		.size	VL53L0X_GetRefCalibration, .-VL53L0X_GetRefCalibration
 6214              		.section	.text.VL53L0X_GetNumberOfLimitCheck,"ax",%progbits
 6215              		.align	2
 6216              		.global	VL53L0X_GetNumberOfLimitCheck
 6217              		.code	16
 6218              		.thumb_func
 6219              		.type	VL53L0X_GetNumberOfLimitCheck, %function
 6220              	VL53L0X_GetNumberOfLimitCheck:
 6221              	.LFB55:
1536:Api\core\src/vl53l0x_api.c **** 
1537:Api\core\src/vl53l0x_api.c **** /*
1538:Api\core\src/vl53l0x_api.c ****  * CHECK LIMIT FUNCTIONS
1539:Api\core\src/vl53l0x_api.c ****  */
1540:Api\core\src/vl53l0x_api.c **** 
1541:Api\core\src/vl53l0x_api.c **** VL53L0X_Error VL53L0X_GetNumberOfLimitCheck(uint16_t *pNumberOfLimitCheck)
1542:Api\core\src/vl53l0x_api.c **** {
 6222              		.loc 1 1542 0
 6223              		.cfi_startproc
 6224              		@ args = 0, pretend = 0, frame = 16
 6225              		@ frame_needed = 1, uses_anonymous_args = 0
 6226 0000 80B5     		push	{r7, lr}
 6227              		.cfi_def_cfa_offset 8
 6228              		.cfi_offset 7, -8
 6229              		.cfi_offset 14, -4
 6230 0002 84B0     		sub	sp, sp, #16
 6231              		.cfi_def_cfa_offset 24
 6232 0004 00AF     		add	r7, sp, #0
 6233              		.cfi_def_cfa_register 7
 6234 0006 7860     		str	r0, [r7, #4]
1543:Api\core\src/vl53l0x_api.c **** 	VL53L0X_Error Status = VL53L0X_ERROR_NONE;
 6235              		.loc 1 1543 0
 6236 0008 0F23     		movs	r3, #15
 6237 000a FB18     		adds	r3, r7, r3
 6238 000c 0022     		movs	r2, #0
 6239 000e 1A70     		strb	r2, [r3]
1544:Api\core\src/vl53l0x_api.c **** 	LOG_FUNCTION_START("");
1545:Api\core\src/vl53l0x_api.c **** 
1546:Api\core\src/vl53l0x_api.c **** 	*pNumberOfLimitCheck = VL53L0X_CHECKENABLE_NUMBER_OF_CHECKS;
 6240              		.loc 1 1546 0
 6241 0010 7B68     		ldr	r3, [r7, #4]
 6242 0012 0622     		movs	r2, #6
 6243 0014 1A80     		strh	r2, [r3]
1547:Api\core\src/vl53l0x_api.c **** 
1548:Api\core\src/vl53l0x_api.c **** 	LOG_FUNCTION_END(Status);
1549:Api\core\src/vl53l0x_api.c **** 	return Status;
 6244              		.loc 1 1549 0
 6245 0016 0F23     		movs	r3, #15
 6246 0018 FB18     		adds	r3, r7, r3
 6247 001a 1B78     		ldrb	r3, [r3]
 6248 001c 5BB2     		sxtb	r3, r3
1550:Api\core\src/vl53l0x_api.c **** }
ARM GAS  C:\Users\ilya\AppData\Local\Temp\ccpEIuqL.s 			page 138


 6249              		.loc 1 1550 0
 6250 001e 1800     		movs	r0, r3
 6251 0020 BD46     		mov	sp, r7
 6252 0022 04B0     		add	sp, sp, #16
 6253              		@ sp needed
 6254 0024 80BD     		pop	{r7, pc}
 6255              		.cfi_endproc
 6256              	.LFE55:
 6257              		.size	VL53L0X_GetNumberOfLimitCheck, .-VL53L0X_GetNumberOfLimitCheck
 6258 0026 C046     		.section	.text.VL53L0X_GetLimitCheckInfo,"ax",%progbits
 6259              		.align	2
 6260              		.global	VL53L0X_GetLimitCheckInfo
 6261              		.code	16
 6262              		.thumb_func
 6263              		.type	VL53L0X_GetLimitCheckInfo, %function
 6264              	VL53L0X_GetLimitCheckInfo:
 6265              	.LFB56:
1551:Api\core\src/vl53l0x_api.c **** 
1552:Api\core\src/vl53l0x_api.c **** VL53L0X_Error VL53L0X_GetLimitCheckInfo(VL53L0X_DEV Dev, uint16_t LimitCheckId,
1553:Api\core\src/vl53l0x_api.c **** 	char *pLimitCheckString)
1554:Api\core\src/vl53l0x_api.c **** {
 6266              		.loc 1 1554 0
 6267              		.cfi_startproc
 6268              		@ args = 0, pretend = 0, frame = 24
 6269              		@ frame_needed = 1, uses_anonymous_args = 0
 6270 0000 90B5     		push	{r4, r7, lr}
 6271              		.cfi_def_cfa_offset 12
 6272              		.cfi_offset 4, -12
 6273              		.cfi_offset 7, -8
 6274              		.cfi_offset 14, -4
 6275 0002 87B0     		sub	sp, sp, #28
 6276              		.cfi_def_cfa_offset 40
 6277 0004 00AF     		add	r7, sp, #0
 6278              		.cfi_def_cfa_register 7
 6279 0006 F860     		str	r0, [r7, #12]
 6280 0008 7A60     		str	r2, [r7, #4]
 6281 000a 0A23     		movs	r3, #10
 6282 000c FB18     		adds	r3, r7, r3
 6283 000e 0A1C     		adds	r2, r1, #0
 6284 0010 1A80     		strh	r2, [r3]
1555:Api\core\src/vl53l0x_api.c **** 	VL53L0X_Error Status = VL53L0X_ERROR_NONE;
 6285              		.loc 1 1555 0
 6286 0012 1723     		movs	r3, #23
 6287 0014 FB18     		adds	r3, r7, r3
 6288 0016 0022     		movs	r2, #0
 6289 0018 1A70     		strb	r2, [r3]
1556:Api\core\src/vl53l0x_api.c **** 
1557:Api\core\src/vl53l0x_api.c **** 	LOG_FUNCTION_START("");
1558:Api\core\src/vl53l0x_api.c **** 
1559:Api\core\src/vl53l0x_api.c **** 	Status = VL53L0X_get_limit_check_info(Dev, LimitCheckId,
 6290              		.loc 1 1559 0
 6291 001a 1723     		movs	r3, #23
 6292 001c FC18     		adds	r4, r7, r3
 6293 001e 7A68     		ldr	r2, [r7, #4]
 6294 0020 0A23     		movs	r3, #10
 6295 0022 FB18     		adds	r3, r7, r3
 6296 0024 1988     		ldrh	r1, [r3]
ARM GAS  C:\Users\ilya\AppData\Local\Temp\ccpEIuqL.s 			page 139


 6297 0026 FB68     		ldr	r3, [r7, #12]
 6298 0028 1800     		movs	r0, r3
 6299 002a FFF7FEFF 		bl	VL53L0X_get_limit_check_info
 6300 002e 0300     		movs	r3, r0
 6301 0030 2370     		strb	r3, [r4]
1560:Api\core\src/vl53l0x_api.c **** 		pLimitCheckString);
1561:Api\core\src/vl53l0x_api.c **** 
1562:Api\core\src/vl53l0x_api.c **** 	LOG_FUNCTION_END(Status);
1563:Api\core\src/vl53l0x_api.c **** 	return Status;
 6302              		.loc 1 1563 0
 6303 0032 1723     		movs	r3, #23
 6304 0034 FB18     		adds	r3, r7, r3
 6305 0036 1B78     		ldrb	r3, [r3]
 6306 0038 5BB2     		sxtb	r3, r3
1564:Api\core\src/vl53l0x_api.c **** }
 6307              		.loc 1 1564 0
 6308 003a 1800     		movs	r0, r3
 6309 003c BD46     		mov	sp, r7
 6310 003e 07B0     		add	sp, sp, #28
 6311              		@ sp needed
 6312 0040 90BD     		pop	{r4, r7, pc}
 6313              		.cfi_endproc
 6314              	.LFE56:
 6315              		.size	VL53L0X_GetLimitCheckInfo, .-VL53L0X_GetLimitCheckInfo
 6316 0042 C046     		.section	.text.VL53L0X_GetLimitCheckStatus,"ax",%progbits
 6317              		.align	2
 6318              		.global	VL53L0X_GetLimitCheckStatus
 6319              		.code	16
 6320              		.thumb_func
 6321              		.type	VL53L0X_GetLimitCheckStatus, %function
 6322              	VL53L0X_GetLimitCheckStatus:
 6323              	.LFB57:
1565:Api\core\src/vl53l0x_api.c **** 
1566:Api\core\src/vl53l0x_api.c **** VL53L0X_Error VL53L0X_GetLimitCheckStatus(VL53L0X_DEV Dev, uint16_t LimitCheckId,
1567:Api\core\src/vl53l0x_api.c **** 	uint8_t *pLimitCheckStatus)
1568:Api\core\src/vl53l0x_api.c **** {
 6324              		.loc 1 1568 0
 6325              		.cfi_startproc
 6326              		@ args = 0, pretend = 0, frame = 24
 6327              		@ frame_needed = 1, uses_anonymous_args = 0
 6328 0000 80B5     		push	{r7, lr}
 6329              		.cfi_def_cfa_offset 8
 6330              		.cfi_offset 7, -8
 6331              		.cfi_offset 14, -4
 6332 0002 86B0     		sub	sp, sp, #24
 6333              		.cfi_def_cfa_offset 32
 6334 0004 00AF     		add	r7, sp, #0
 6335              		.cfi_def_cfa_register 7
 6336 0006 F860     		str	r0, [r7, #12]
 6337 0008 7A60     		str	r2, [r7, #4]
 6338 000a 0A23     		movs	r3, #10
 6339 000c FB18     		adds	r3, r7, r3
 6340 000e 0A1C     		adds	r2, r1, #0
 6341 0010 1A80     		strh	r2, [r3]
1569:Api\core\src/vl53l0x_api.c **** 	VL53L0X_Error Status = VL53L0X_ERROR_NONE;
 6342              		.loc 1 1569 0
 6343 0012 1723     		movs	r3, #23
ARM GAS  C:\Users\ilya\AppData\Local\Temp\ccpEIuqL.s 			page 140


 6344 0014 FB18     		adds	r3, r7, r3
 6345 0016 0022     		movs	r2, #0
 6346 0018 1A70     		strb	r2, [r3]
1570:Api\core\src/vl53l0x_api.c **** 	uint8_t Temp8;
1571:Api\core\src/vl53l0x_api.c **** 
1572:Api\core\src/vl53l0x_api.c **** 	LOG_FUNCTION_START("");
1573:Api\core\src/vl53l0x_api.c **** 
1574:Api\core\src/vl53l0x_api.c **** 	if (LimitCheckId >= VL53L0X_CHECKENABLE_NUMBER_OF_CHECKS) {
 6347              		.loc 1 1574 0
 6348 001a 0A23     		movs	r3, #10
 6349 001c FB18     		adds	r3, r7, r3
 6350 001e 1B88     		ldrh	r3, [r3]
 6351 0020 052B     		cmp	r3, #5
 6352 0022 04D9     		bls	.L278
1575:Api\core\src/vl53l0x_api.c **** 		Status = VL53L0X_ERROR_INVALID_PARAMS;
 6353              		.loc 1 1575 0
 6354 0024 1723     		movs	r3, #23
 6355 0026 FB18     		adds	r3, r7, r3
 6356 0028 FC22     		movs	r2, #252
 6357 002a 1A70     		strb	r2, [r3]
 6358 002c 0FE0     		b	.L279
 6359              	.L278:
1576:Api\core\src/vl53l0x_api.c **** 	} else {
1577:Api\core\src/vl53l0x_api.c **** 
1578:Api\core\src/vl53l0x_api.c **** 		VL53L0X_GETARRAYPARAMETERFIELD(Dev, LimitChecksStatus,
 6360              		.loc 1 1578 0
 6361 002e 0A23     		movs	r3, #10
 6362 0030 FB18     		adds	r3, r7, r3
 6363 0032 1A88     		ldrh	r2, [r3]
 6364 0034 1623     		movs	r3, #22
 6365 0036 FB18     		adds	r3, r7, r3
 6366 0038 F968     		ldr	r1, [r7, #12]
 6367 003a 2E20     		movs	r0, #46
 6368 003c 8A18     		adds	r2, r1, r2
 6369 003e 1218     		adds	r2, r2, r0
 6370 0040 1278     		ldrb	r2, [r2]
 6371 0042 1A70     		strb	r2, [r3]
1579:Api\core\src/vl53l0x_api.c **** 			LimitCheckId, Temp8);
1580:Api\core\src/vl53l0x_api.c **** 
1581:Api\core\src/vl53l0x_api.c **** 		*pLimitCheckStatus = Temp8;
 6372              		.loc 1 1581 0
 6373 0044 7B68     		ldr	r3, [r7, #4]
 6374 0046 1622     		movs	r2, #22
 6375 0048 BA18     		adds	r2, r7, r2
 6376 004a 1278     		ldrb	r2, [r2]
 6377 004c 1A70     		strb	r2, [r3]
 6378              	.L279:
1582:Api\core\src/vl53l0x_api.c **** 
1583:Api\core\src/vl53l0x_api.c **** 	}
1584:Api\core\src/vl53l0x_api.c **** 
1585:Api\core\src/vl53l0x_api.c **** 	LOG_FUNCTION_END(Status);
1586:Api\core\src/vl53l0x_api.c **** 	return Status;
 6379              		.loc 1 1586 0
 6380 004e 1723     		movs	r3, #23
 6381 0050 FB18     		adds	r3, r7, r3
 6382 0052 1B78     		ldrb	r3, [r3]
 6383 0054 5BB2     		sxtb	r3, r3
ARM GAS  C:\Users\ilya\AppData\Local\Temp\ccpEIuqL.s 			page 141


1587:Api\core\src/vl53l0x_api.c **** }
 6384              		.loc 1 1587 0
 6385 0056 1800     		movs	r0, r3
 6386 0058 BD46     		mov	sp, r7
 6387 005a 06B0     		add	sp, sp, #24
 6388              		@ sp needed
 6389 005c 80BD     		pop	{r7, pc}
 6390              		.cfi_endproc
 6391              	.LFE57:
 6392              		.size	VL53L0X_GetLimitCheckStatus, .-VL53L0X_GetLimitCheckStatus
 6393 005e C046     		.section	.text.VL53L0X_SetLimitCheckEnable,"ax",%progbits
 6394              		.align	2
 6395              		.global	VL53L0X_SetLimitCheckEnable
 6396              		.code	16
 6397              		.thumb_func
 6398              		.type	VL53L0X_SetLimitCheckEnable, %function
 6399              	VL53L0X_SetLimitCheckEnable:
 6400              	.LFB58:
1588:Api\core\src/vl53l0x_api.c **** 
1589:Api\core\src/vl53l0x_api.c **** VL53L0X_Error VL53L0X_SetLimitCheckEnable(VL53L0X_DEV Dev, uint16_t LimitCheckId,
1590:Api\core\src/vl53l0x_api.c **** 	uint8_t LimitCheckEnable)
1591:Api\core\src/vl53l0x_api.c **** {
 6401              		.loc 1 1591 0
 6402              		.cfi_startproc
 6403              		@ args = 0, pretend = 0, frame = 24
 6404              		@ frame_needed = 1, uses_anonymous_args = 0
 6405 0000 90B5     		push	{r4, r7, lr}
 6406              		.cfi_def_cfa_offset 12
 6407              		.cfi_offset 4, -12
 6408              		.cfi_offset 7, -8
 6409              		.cfi_offset 14, -4
 6410 0002 87B0     		sub	sp, sp, #28
 6411              		.cfi_def_cfa_offset 40
 6412 0004 00AF     		add	r7, sp, #0
 6413              		.cfi_def_cfa_register 7
 6414 0006 7860     		str	r0, [r7, #4]
 6415 0008 0800     		movs	r0, r1
 6416 000a 1100     		movs	r1, r2
 6417 000c BB1C     		adds	r3, r7, #2
 6418 000e 021C     		adds	r2, r0, #0
 6419 0010 1A80     		strh	r2, [r3]
 6420 0012 7B1C     		adds	r3, r7, #1
 6421 0014 0A1C     		adds	r2, r1, #0
 6422 0016 1A70     		strb	r2, [r3]
1592:Api\core\src/vl53l0x_api.c **** 	VL53L0X_Error Status = VL53L0X_ERROR_NONE;
 6423              		.loc 1 1592 0
 6424 0018 1723     		movs	r3, #23
 6425 001a FB18     		adds	r3, r7, r3
 6426 001c 0022     		movs	r2, #0
 6427 001e 1A70     		strb	r2, [r3]
1593:Api\core\src/vl53l0x_api.c **** 	FixPoint1616_t TempFix1616 = 0;
 6428              		.loc 1 1593 0
 6429 0020 0023     		movs	r3, #0
 6430 0022 3B61     		str	r3, [r7, #16]
1594:Api\core\src/vl53l0x_api.c **** 	uint8_t LimitCheckEnableInt = 0;
 6431              		.loc 1 1594 0
 6432 0024 0F23     		movs	r3, #15
ARM GAS  C:\Users\ilya\AppData\Local\Temp\ccpEIuqL.s 			page 142


 6433 0026 FB18     		adds	r3, r7, r3
 6434 0028 0022     		movs	r2, #0
 6435 002a 1A70     		strb	r2, [r3]
1595:Api\core\src/vl53l0x_api.c **** 	uint8_t LimitCheckDisable = 0;
 6436              		.loc 1 1595 0
 6437 002c 0E23     		movs	r3, #14
 6438 002e FB18     		adds	r3, r7, r3
 6439 0030 0022     		movs	r2, #0
 6440 0032 1A70     		strb	r2, [r3]
1596:Api\core\src/vl53l0x_api.c **** 	uint8_t Temp8;
1597:Api\core\src/vl53l0x_api.c **** 
1598:Api\core\src/vl53l0x_api.c **** 	LOG_FUNCTION_START("");
1599:Api\core\src/vl53l0x_api.c **** 
1600:Api\core\src/vl53l0x_api.c **** 	if (LimitCheckId >= VL53L0X_CHECKENABLE_NUMBER_OF_CHECKS) {
 6441              		.loc 1 1600 0
 6442 0034 BB1C     		adds	r3, r7, #2
 6443 0036 1B88     		ldrh	r3, [r3]
 6444 0038 052B     		cmp	r3, #5
 6445 003a 04D9     		bls	.L282
1601:Api\core\src/vl53l0x_api.c **** 		Status = VL53L0X_ERROR_INVALID_PARAMS;
 6446              		.loc 1 1601 0
 6447 003c 1723     		movs	r3, #23
 6448 003e FB18     		adds	r3, r7, r3
 6449 0040 FC22     		movs	r2, #252
 6450 0042 1A70     		strb	r2, [r3]
 6451 0044 76E0     		b	.L283
 6452              	.L282:
1602:Api\core\src/vl53l0x_api.c **** 	} else {
1603:Api\core\src/vl53l0x_api.c **** 		if (LimitCheckEnable == 0) {
 6453              		.loc 1 1603 0
 6454 0046 7B1C     		adds	r3, r7, #1
 6455 0048 1B78     		ldrb	r3, [r3]
 6456 004a 002B     		cmp	r3, #0
 6457 004c 0AD1     		bne	.L284
1604:Api\core\src/vl53l0x_api.c **** 			TempFix1616 = 0;
 6458              		.loc 1 1604 0
 6459 004e 0023     		movs	r3, #0
 6460 0050 3B61     		str	r3, [r7, #16]
1605:Api\core\src/vl53l0x_api.c **** 			LimitCheckEnableInt = 0;
 6461              		.loc 1 1605 0
 6462 0052 0F23     		movs	r3, #15
 6463 0054 FB18     		adds	r3, r7, r3
 6464 0056 0022     		movs	r2, #0
 6465 0058 1A70     		strb	r2, [r3]
1606:Api\core\src/vl53l0x_api.c **** 			LimitCheckDisable = 1;
 6466              		.loc 1 1606 0
 6467 005a 0E23     		movs	r3, #14
 6468 005c FB18     		adds	r3, r7, r3
 6469 005e 0122     		movs	r2, #1
 6470 0060 1A70     		strb	r2, [r3]
 6471 0062 10E0     		b	.L285
 6472              	.L284:
1607:Api\core\src/vl53l0x_api.c **** 
1608:Api\core\src/vl53l0x_api.c **** 		} else {
1609:Api\core\src/vl53l0x_api.c **** 			VL53L0X_GETARRAYPARAMETERFIELD(Dev, LimitChecksValue,
 6473              		.loc 1 1609 0
 6474 0064 BB1C     		adds	r3, r7, #2
ARM GAS  C:\Users\ilya\AppData\Local\Temp\ccpEIuqL.s 			page 143


 6475 0066 1B88     		ldrh	r3, [r3]
 6476 0068 7A68     		ldr	r2, [r7, #4]
 6477 006a 0C33     		adds	r3, r3, #12
 6478 006c 9B00     		lsls	r3, r3, #2
 6479 006e D318     		adds	r3, r2, r3
 6480 0070 0433     		adds	r3, r3, #4
 6481 0072 1B68     		ldr	r3, [r3]
 6482 0074 3B61     		str	r3, [r7, #16]
1610:Api\core\src/vl53l0x_api.c **** 				LimitCheckId, TempFix1616);
1611:Api\core\src/vl53l0x_api.c **** 			LimitCheckDisable = 0;
 6483              		.loc 1 1611 0
 6484 0076 0E23     		movs	r3, #14
 6485 0078 FB18     		adds	r3, r7, r3
 6486 007a 0022     		movs	r2, #0
 6487 007c 1A70     		strb	r2, [r3]
1612:Api\core\src/vl53l0x_api.c **** 			/* this to be sure to have either 0 or 1 */
1613:Api\core\src/vl53l0x_api.c **** 			LimitCheckEnableInt = 1;
 6488              		.loc 1 1613 0
 6489 007e 0F23     		movs	r3, #15
 6490 0080 FB18     		adds	r3, r7, r3
 6491 0082 0122     		movs	r2, #1
 6492 0084 1A70     		strb	r2, [r3]
 6493              	.L285:
1614:Api\core\src/vl53l0x_api.c **** 		}
1615:Api\core\src/vl53l0x_api.c **** 
1616:Api\core\src/vl53l0x_api.c **** 		switch (LimitCheckId) {
 6494              		.loc 1 1616 0
 6495 0086 BB1C     		adds	r3, r7, #2
 6496 0088 1B88     		ldrh	r3, [r3]
 6497 008a 052B     		cmp	r3, #5
 6498 008c 4ED8     		bhi	.L286
 6499 008e 9A00     		lsls	r2, r3, #2
 6500 0090 3A4B     		ldr	r3, .L297
 6501 0092 D318     		adds	r3, r2, r3
 6502 0094 1B68     		ldr	r3, [r3]
 6503 0096 9F46     		mov	pc, r3
 6504              		.section	.rodata
 6505              		.align	2
 6506              	.L288:
 6507 0094 98000000 		.word	.L287
 6508 0098 A6000000 		.word	.L289
 6509 009c C0000000 		.word	.L290
 6510 00a0 CE000000 		.word	.L291
 6511 00a4 DC000000 		.word	.L292
 6512 00a8 04010000 		.word	.L293
 6513              		.section	.text.VL53L0X_SetLimitCheckEnable
 6514              	.L287:
1617:Api\core\src/vl53l0x_api.c **** 
1618:Api\core\src/vl53l0x_api.c **** 		case VL53L0X_CHECKENABLE_SIGMA_FINAL_RANGE:
1619:Api\core\src/vl53l0x_api.c **** 			/* internal computation: */
1620:Api\core\src/vl53l0x_api.c **** 			VL53L0X_SETARRAYPARAMETERFIELD(Dev, LimitChecksEnable,
 6515              		.loc 1 1620 0
 6516 0098 7B68     		ldr	r3, [r7, #4]
 6517 009a 0F22     		movs	r2, #15
 6518 009c BA18     		adds	r2, r7, r2
 6519 009e 2821     		movs	r1, #40
 6520 00a0 1278     		ldrb	r2, [r2]
ARM GAS  C:\Users\ilya\AppData\Local\Temp\ccpEIuqL.s 			page 144


 6521 00a2 5A54     		strb	r2, [r3, r1]
1621:Api\core\src/vl53l0x_api.c **** 				VL53L0X_CHECKENABLE_SIGMA_FINAL_RANGE,
1622:Api\core\src/vl53l0x_api.c **** 				LimitCheckEnableInt);
1623:Api\core\src/vl53l0x_api.c **** 
1624:Api\core\src/vl53l0x_api.c **** 			break;
 6522              		.loc 1 1624 0
 6523 00a4 46E0     		b	.L283
 6524              	.L289:
1625:Api\core\src/vl53l0x_api.c **** 
1626:Api\core\src/vl53l0x_api.c **** 		case VL53L0X_CHECKENABLE_SIGNAL_RATE_FINAL_RANGE:
1627:Api\core\src/vl53l0x_api.c **** 
1628:Api\core\src/vl53l0x_api.c **** 			Status = VL53L0X_WrWord(Dev,
1629:Api\core\src/vl53l0x_api.c **** 			VL53L0X_REG_FINAL_RANGE_CONFIG_MIN_COUNT_RATE_RTN_LIMIT,
1630:Api\core\src/vl53l0x_api.c **** 				VL53L0X_FIXPOINT1616TOFIXPOINT97(TempFix1616));
 6525              		.loc 1 1630 0
 6526 00a6 3B69     		ldr	r3, [r7, #16]
 6527 00a8 5B0A     		lsrs	r3, r3, #9
1628:Api\core\src/vl53l0x_api.c **** 			VL53L0X_REG_FINAL_RANGE_CONFIG_MIN_COUNT_RATE_RTN_LIMIT,
 6528              		.loc 1 1628 0
 6529 00aa 9AB2     		uxth	r2, r3
 6530 00ac 1723     		movs	r3, #23
 6531 00ae FC18     		adds	r4, r7, r3
 6532 00b0 7B68     		ldr	r3, [r7, #4]
 6533 00b2 4421     		movs	r1, #68
 6534 00b4 1800     		movs	r0, r3
 6535 00b6 FFF7FEFF 		bl	VL53L0X_WrWord
 6536 00ba 0300     		movs	r3, r0
 6537 00bc 2370     		strb	r3, [r4]
1631:Api\core\src/vl53l0x_api.c **** 
1632:Api\core\src/vl53l0x_api.c **** 			break;
 6538              		.loc 1 1632 0
 6539 00be 39E0     		b	.L283
 6540              	.L290:
1633:Api\core\src/vl53l0x_api.c **** 
1634:Api\core\src/vl53l0x_api.c **** 		case VL53L0X_CHECKENABLE_SIGNAL_REF_CLIP:
1635:Api\core\src/vl53l0x_api.c **** 
1636:Api\core\src/vl53l0x_api.c **** 			/* internal computation: */
1637:Api\core\src/vl53l0x_api.c **** 			VL53L0X_SETARRAYPARAMETERFIELD(Dev, LimitChecksEnable,
 6541              		.loc 1 1637 0
 6542 00c0 7B68     		ldr	r3, [r7, #4]
 6543 00c2 0F22     		movs	r2, #15
 6544 00c4 BA18     		adds	r2, r7, r2
 6545 00c6 2A21     		movs	r1, #42
 6546 00c8 1278     		ldrb	r2, [r2]
 6547 00ca 5A54     		strb	r2, [r3, r1]
1638:Api\core\src/vl53l0x_api.c **** 				VL53L0X_CHECKENABLE_SIGNAL_REF_CLIP,
1639:Api\core\src/vl53l0x_api.c **** 				LimitCheckEnableInt);
1640:Api\core\src/vl53l0x_api.c **** 
1641:Api\core\src/vl53l0x_api.c **** 			break;
 6548              		.loc 1 1641 0
 6549 00cc 32E0     		b	.L283
 6550              	.L291:
1642:Api\core\src/vl53l0x_api.c **** 
1643:Api\core\src/vl53l0x_api.c **** 		case VL53L0X_CHECKENABLE_RANGE_IGNORE_THRESHOLD:
1644:Api\core\src/vl53l0x_api.c **** 
1645:Api\core\src/vl53l0x_api.c **** 			/* internal computation: */
1646:Api\core\src/vl53l0x_api.c **** 			VL53L0X_SETARRAYPARAMETERFIELD(Dev, LimitChecksEnable,
ARM GAS  C:\Users\ilya\AppData\Local\Temp\ccpEIuqL.s 			page 145


 6551              		.loc 1 1646 0
 6552 00ce 7B68     		ldr	r3, [r7, #4]
 6553 00d0 0F22     		movs	r2, #15
 6554 00d2 BA18     		adds	r2, r7, r2
 6555 00d4 2B21     		movs	r1, #43
 6556 00d6 1278     		ldrb	r2, [r2]
 6557 00d8 5A54     		strb	r2, [r3, r1]
1647:Api\core\src/vl53l0x_api.c **** 				VL53L0X_CHECKENABLE_RANGE_IGNORE_THRESHOLD,
1648:Api\core\src/vl53l0x_api.c **** 				LimitCheckEnableInt);
1649:Api\core\src/vl53l0x_api.c **** 
1650:Api\core\src/vl53l0x_api.c **** 			break;
 6558              		.loc 1 1650 0
 6559 00da 2BE0     		b	.L283
 6560              	.L292:
1651:Api\core\src/vl53l0x_api.c **** 
1652:Api\core\src/vl53l0x_api.c **** 		case VL53L0X_CHECKENABLE_SIGNAL_RATE_MSRC:
1653:Api\core\src/vl53l0x_api.c **** 
1654:Api\core\src/vl53l0x_api.c **** 			Temp8 = (uint8_t)(LimitCheckDisable << 1);
 6561              		.loc 1 1654 0
 6562 00dc 0D23     		movs	r3, #13
 6563 00de FA18     		adds	r2, r7, r3
 6564 00e0 0E23     		movs	r3, #14
 6565 00e2 FB18     		adds	r3, r7, r3
 6566 00e4 1B78     		ldrb	r3, [r3]
 6567 00e6 DB18     		adds	r3, r3, r3
 6568 00e8 1370     		strb	r3, [r2]
1655:Api\core\src/vl53l0x_api.c **** 			Status = VL53L0X_UpdateByte(Dev,
 6569              		.loc 1 1655 0
 6570 00ea 1723     		movs	r3, #23
 6571 00ec FC18     		adds	r4, r7, r3
 6572 00ee 0D23     		movs	r3, #13
 6573 00f0 FB18     		adds	r3, r7, r3
 6574 00f2 1B78     		ldrb	r3, [r3]
 6575 00f4 7868     		ldr	r0, [r7, #4]
 6576 00f6 FE22     		movs	r2, #254
 6577 00f8 6021     		movs	r1, #96
 6578 00fa FFF7FEFF 		bl	VL53L0X_UpdateByte
 6579 00fe 0300     		movs	r3, r0
 6580 0100 2370     		strb	r3, [r4]
1656:Api\core\src/vl53l0x_api.c **** 				VL53L0X_REG_MSRC_CONFIG_CONTROL,
1657:Api\core\src/vl53l0x_api.c **** 				0xFE, Temp8);
1658:Api\core\src/vl53l0x_api.c **** 
1659:Api\core\src/vl53l0x_api.c **** 			break;
 6581              		.loc 1 1659 0
 6582 0102 17E0     		b	.L283
 6583              	.L293:
1660:Api\core\src/vl53l0x_api.c **** 
1661:Api\core\src/vl53l0x_api.c **** 		case VL53L0X_CHECKENABLE_SIGNAL_RATE_PRE_RANGE:
1662:Api\core\src/vl53l0x_api.c **** 
1663:Api\core\src/vl53l0x_api.c **** 			Temp8 = (uint8_t)(LimitCheckDisable << 4);
 6584              		.loc 1 1663 0
 6585 0104 0D23     		movs	r3, #13
 6586 0106 FB18     		adds	r3, r7, r3
 6587 0108 0E22     		movs	r2, #14
 6588 010a BA18     		adds	r2, r7, r2
 6589 010c 1278     		ldrb	r2, [r2]
 6590 010e 1201     		lsls	r2, r2, #4
ARM GAS  C:\Users\ilya\AppData\Local\Temp\ccpEIuqL.s 			page 146


 6591 0110 1A70     		strb	r2, [r3]
1664:Api\core\src/vl53l0x_api.c **** 			Status = VL53L0X_UpdateByte(Dev,
 6592              		.loc 1 1664 0
 6593 0112 1723     		movs	r3, #23
 6594 0114 FC18     		adds	r4, r7, r3
 6595 0116 0D23     		movs	r3, #13
 6596 0118 FB18     		adds	r3, r7, r3
 6597 011a 1B78     		ldrb	r3, [r3]
 6598 011c 7868     		ldr	r0, [r7, #4]
 6599 011e EF22     		movs	r2, #239
 6600 0120 6021     		movs	r1, #96
 6601 0122 FFF7FEFF 		bl	VL53L0X_UpdateByte
 6602 0126 0300     		movs	r3, r0
 6603 0128 2370     		strb	r3, [r4]
1665:Api\core\src/vl53l0x_api.c **** 				VL53L0X_REG_MSRC_CONFIG_CONTROL,
1666:Api\core\src/vl53l0x_api.c **** 				0xEF, Temp8);
1667:Api\core\src/vl53l0x_api.c **** 
1668:Api\core\src/vl53l0x_api.c **** 			break;
 6604              		.loc 1 1668 0
 6605 012a 03E0     		b	.L283
 6606              	.L286:
1669:Api\core\src/vl53l0x_api.c **** 
1670:Api\core\src/vl53l0x_api.c **** 
1671:Api\core\src/vl53l0x_api.c **** 		default:
1672:Api\core\src/vl53l0x_api.c **** 			Status = VL53L0X_ERROR_INVALID_PARAMS;
 6607              		.loc 1 1672 0
 6608 012c 1723     		movs	r3, #23
 6609 012e FB18     		adds	r3, r7, r3
 6610 0130 FC22     		movs	r2, #252
 6611 0132 1A70     		strb	r2, [r3]
 6612              	.L283:
1673:Api\core\src/vl53l0x_api.c **** 
1674:Api\core\src/vl53l0x_api.c **** 		}
1675:Api\core\src/vl53l0x_api.c **** 
1676:Api\core\src/vl53l0x_api.c **** 	}
1677:Api\core\src/vl53l0x_api.c **** 
1678:Api\core\src/vl53l0x_api.c **** 	if (Status == VL53L0X_ERROR_NONE) {
 6613              		.loc 1 1678 0
 6614 0134 1723     		movs	r3, #23
 6615 0136 FB18     		adds	r3, r7, r3
 6616 0138 1B78     		ldrb	r3, [r3]
 6617 013a 5BB2     		sxtb	r3, r3
 6618 013c 002B     		cmp	r3, #0
 6619 013e 14D1     		bne	.L294
1679:Api\core\src/vl53l0x_api.c **** 		if (LimitCheckEnable == 0) {
 6620              		.loc 1 1679 0
 6621 0140 7B1C     		adds	r3, r7, #1
 6622 0142 1B78     		ldrb	r3, [r3]
 6623 0144 002B     		cmp	r3, #0
 6624 0146 08D1     		bne	.L295
1680:Api\core\src/vl53l0x_api.c **** 			VL53L0X_SETARRAYPARAMETERFIELD(Dev, LimitChecksEnable,
 6625              		.loc 1 1680 0
 6626 0148 BB1C     		adds	r3, r7, #2
 6627 014a 1B88     		ldrh	r3, [r3]
 6628 014c 7A68     		ldr	r2, [r7, #4]
 6629 014e 2821     		movs	r1, #40
 6630 0150 D318     		adds	r3, r2, r3
ARM GAS  C:\Users\ilya\AppData\Local\Temp\ccpEIuqL.s 			page 147


 6631 0152 5B18     		adds	r3, r3, r1
 6632 0154 0022     		movs	r2, #0
 6633 0156 1A70     		strb	r2, [r3]
 6634 0158 07E0     		b	.L294
 6635              	.L295:
1681:Api\core\src/vl53l0x_api.c **** 				LimitCheckId, 0);
1682:Api\core\src/vl53l0x_api.c **** 		} else {
1683:Api\core\src/vl53l0x_api.c **** 			VL53L0X_SETARRAYPARAMETERFIELD(Dev, LimitChecksEnable,
 6636              		.loc 1 1683 0
 6637 015a BB1C     		adds	r3, r7, #2
 6638 015c 1B88     		ldrh	r3, [r3]
 6639 015e 7A68     		ldr	r2, [r7, #4]
 6640 0160 2821     		movs	r1, #40
 6641 0162 D318     		adds	r3, r2, r3
 6642 0164 5B18     		adds	r3, r3, r1
 6643 0166 0122     		movs	r2, #1
 6644 0168 1A70     		strb	r2, [r3]
 6645              	.L294:
1684:Api\core\src/vl53l0x_api.c **** 				LimitCheckId, 1);
1685:Api\core\src/vl53l0x_api.c **** 		}
1686:Api\core\src/vl53l0x_api.c **** 	}
1687:Api\core\src/vl53l0x_api.c **** 
1688:Api\core\src/vl53l0x_api.c **** 	LOG_FUNCTION_END(Status);
1689:Api\core\src/vl53l0x_api.c **** 	return Status;
 6646              		.loc 1 1689 0
 6647 016a 1723     		movs	r3, #23
 6648 016c FB18     		adds	r3, r7, r3
 6649 016e 1B78     		ldrb	r3, [r3]
 6650 0170 5BB2     		sxtb	r3, r3
1690:Api\core\src/vl53l0x_api.c **** }
 6651              		.loc 1 1690 0
 6652 0172 1800     		movs	r0, r3
 6653 0174 BD46     		mov	sp, r7
 6654 0176 07B0     		add	sp, sp, #28
 6655              		@ sp needed
 6656 0178 90BD     		pop	{r4, r7, pc}
 6657              	.L298:
 6658 017a C046     		.align	2
 6659              	.L297:
 6660 017c 94000000 		.word	.L288
 6661              		.cfi_endproc
 6662              	.LFE58:
 6663              		.size	VL53L0X_SetLimitCheckEnable, .-VL53L0X_SetLimitCheckEnable
 6664              		.section	.text.VL53L0X_GetLimitCheckEnable,"ax",%progbits
 6665              		.align	2
 6666              		.global	VL53L0X_GetLimitCheckEnable
 6667              		.code	16
 6668              		.thumb_func
 6669              		.type	VL53L0X_GetLimitCheckEnable, %function
 6670              	VL53L0X_GetLimitCheckEnable:
 6671              	.LFB59:
1691:Api\core\src/vl53l0x_api.c **** 
1692:Api\core\src/vl53l0x_api.c **** VL53L0X_Error VL53L0X_GetLimitCheckEnable(VL53L0X_DEV Dev, uint16_t LimitCheckId,
1693:Api\core\src/vl53l0x_api.c **** 	uint8_t *pLimitCheckEnable)
1694:Api\core\src/vl53l0x_api.c **** {
 6672              		.loc 1 1694 0
 6673              		.cfi_startproc
ARM GAS  C:\Users\ilya\AppData\Local\Temp\ccpEIuqL.s 			page 148


 6674              		@ args = 0, pretend = 0, frame = 24
 6675              		@ frame_needed = 1, uses_anonymous_args = 0
 6676 0000 80B5     		push	{r7, lr}
 6677              		.cfi_def_cfa_offset 8
 6678              		.cfi_offset 7, -8
 6679              		.cfi_offset 14, -4
 6680 0002 86B0     		sub	sp, sp, #24
 6681              		.cfi_def_cfa_offset 32
 6682 0004 00AF     		add	r7, sp, #0
 6683              		.cfi_def_cfa_register 7
 6684 0006 F860     		str	r0, [r7, #12]
 6685 0008 7A60     		str	r2, [r7, #4]
 6686 000a 0A23     		movs	r3, #10
 6687 000c FB18     		adds	r3, r7, r3
 6688 000e 0A1C     		adds	r2, r1, #0
 6689 0010 1A80     		strh	r2, [r3]
1695:Api\core\src/vl53l0x_api.c **** 	VL53L0X_Error Status = VL53L0X_ERROR_NONE;
 6690              		.loc 1 1695 0
 6691 0012 1723     		movs	r3, #23
 6692 0014 FB18     		adds	r3, r7, r3
 6693 0016 0022     		movs	r2, #0
 6694 0018 1A70     		strb	r2, [r3]
1696:Api\core\src/vl53l0x_api.c **** 	uint8_t Temp8;
1697:Api\core\src/vl53l0x_api.c **** 
1698:Api\core\src/vl53l0x_api.c **** 	LOG_FUNCTION_START("");
1699:Api\core\src/vl53l0x_api.c **** 
1700:Api\core\src/vl53l0x_api.c **** 	if (LimitCheckId >= VL53L0X_CHECKENABLE_NUMBER_OF_CHECKS) {
 6695              		.loc 1 1700 0
 6696 001a 0A23     		movs	r3, #10
 6697 001c FB18     		adds	r3, r7, r3
 6698 001e 1B88     		ldrh	r3, [r3]
 6699 0020 052B     		cmp	r3, #5
 6700 0022 07D9     		bls	.L300
1701:Api\core\src/vl53l0x_api.c **** 		Status = VL53L0X_ERROR_INVALID_PARAMS;
 6701              		.loc 1 1701 0
 6702 0024 1723     		movs	r3, #23
 6703 0026 FB18     		adds	r3, r7, r3
 6704 0028 FC22     		movs	r2, #252
 6705 002a 1A70     		strb	r2, [r3]
1702:Api\core\src/vl53l0x_api.c **** 		*pLimitCheckEnable = 0;
 6706              		.loc 1 1702 0
 6707 002c 7B68     		ldr	r3, [r7, #4]
 6708 002e 0022     		movs	r2, #0
 6709 0030 1A70     		strb	r2, [r3]
 6710 0032 0FE0     		b	.L301
 6711              	.L300:
1703:Api\core\src/vl53l0x_api.c **** 	} else {
1704:Api\core\src/vl53l0x_api.c **** 		VL53L0X_GETARRAYPARAMETERFIELD(Dev, LimitChecksEnable,
 6712              		.loc 1 1704 0
 6713 0034 0A23     		movs	r3, #10
 6714 0036 FB18     		adds	r3, r7, r3
 6715 0038 1A88     		ldrh	r2, [r3]
 6716 003a 1623     		movs	r3, #22
 6717 003c FB18     		adds	r3, r7, r3
 6718 003e F968     		ldr	r1, [r7, #12]
 6719 0040 2820     		movs	r0, #40
 6720 0042 8A18     		adds	r2, r1, r2
ARM GAS  C:\Users\ilya\AppData\Local\Temp\ccpEIuqL.s 			page 149


 6721 0044 1218     		adds	r2, r2, r0
 6722 0046 1278     		ldrb	r2, [r2]
 6723 0048 1A70     		strb	r2, [r3]
1705:Api\core\src/vl53l0x_api.c **** 			LimitCheckId, Temp8);
1706:Api\core\src/vl53l0x_api.c **** 		*pLimitCheckEnable = Temp8;
 6724              		.loc 1 1706 0
 6725 004a 7B68     		ldr	r3, [r7, #4]
 6726 004c 1622     		movs	r2, #22
 6727 004e BA18     		adds	r2, r7, r2
 6728 0050 1278     		ldrb	r2, [r2]
 6729 0052 1A70     		strb	r2, [r3]
 6730              	.L301:
1707:Api\core\src/vl53l0x_api.c **** 	}
1708:Api\core\src/vl53l0x_api.c **** 
1709:Api\core\src/vl53l0x_api.c **** 	LOG_FUNCTION_END(Status);
1710:Api\core\src/vl53l0x_api.c **** 	return Status;
 6731              		.loc 1 1710 0
 6732 0054 1723     		movs	r3, #23
 6733 0056 FB18     		adds	r3, r7, r3
 6734 0058 1B78     		ldrb	r3, [r3]
 6735 005a 5BB2     		sxtb	r3, r3
1711:Api\core\src/vl53l0x_api.c **** }
 6736              		.loc 1 1711 0
 6737 005c 1800     		movs	r0, r3
 6738 005e BD46     		mov	sp, r7
 6739 0060 06B0     		add	sp, sp, #24
 6740              		@ sp needed
 6741 0062 80BD     		pop	{r7, pc}
 6742              		.cfi_endproc
 6743              	.LFE59:
 6744              		.size	VL53L0X_GetLimitCheckEnable, .-VL53L0X_GetLimitCheckEnable
 6745              		.section	.text.VL53L0X_SetLimitCheckValue,"ax",%progbits
 6746              		.align	2
 6747              		.global	VL53L0X_SetLimitCheckValue
 6748              		.code	16
 6749              		.thumb_func
 6750              		.type	VL53L0X_SetLimitCheckValue, %function
 6751              	VL53L0X_SetLimitCheckValue:
 6752              	.LFB60:
1712:Api\core\src/vl53l0x_api.c **** 
1713:Api\core\src/vl53l0x_api.c **** VL53L0X_Error VL53L0X_SetLimitCheckValue(VL53L0X_DEV Dev, uint16_t LimitCheckId,
1714:Api\core\src/vl53l0x_api.c **** 	FixPoint1616_t LimitCheckValue)
1715:Api\core\src/vl53l0x_api.c **** {
 6753              		.loc 1 1715 0
 6754              		.cfi_startproc
 6755              		@ args = 0, pretend = 0, frame = 24
 6756              		@ frame_needed = 1, uses_anonymous_args = 0
 6757 0000 90B5     		push	{r4, r7, lr}
 6758              		.cfi_def_cfa_offset 12
 6759              		.cfi_offset 4, -12
 6760              		.cfi_offset 7, -8
 6761              		.cfi_offset 14, -4
 6762 0002 87B0     		sub	sp, sp, #28
 6763              		.cfi_def_cfa_offset 40
 6764 0004 00AF     		add	r7, sp, #0
 6765              		.cfi_def_cfa_register 7
 6766 0006 F860     		str	r0, [r7, #12]
ARM GAS  C:\Users\ilya\AppData\Local\Temp\ccpEIuqL.s 			page 150


 6767 0008 7A60     		str	r2, [r7, #4]
 6768 000a 0A23     		movs	r3, #10
 6769 000c FB18     		adds	r3, r7, r3
 6770 000e 0A1C     		adds	r2, r1, #0
 6771 0010 1A80     		strh	r2, [r3]
1716:Api\core\src/vl53l0x_api.c **** 	VL53L0X_Error Status = VL53L0X_ERROR_NONE;
 6772              		.loc 1 1716 0
 6773 0012 1723     		movs	r3, #23
 6774 0014 FB18     		adds	r3, r7, r3
 6775 0016 0022     		movs	r2, #0
 6776 0018 1A70     		strb	r2, [r3]
1717:Api\core\src/vl53l0x_api.c **** 	uint8_t Temp8;
1718:Api\core\src/vl53l0x_api.c **** 
1719:Api\core\src/vl53l0x_api.c **** 	LOG_FUNCTION_START("");
1720:Api\core\src/vl53l0x_api.c **** 
1721:Api\core\src/vl53l0x_api.c **** 	VL53L0X_GETARRAYPARAMETERFIELD(Dev, LimitChecksEnable, LimitCheckId,
 6777              		.loc 1 1721 0
 6778 001a 0A23     		movs	r3, #10
 6779 001c FB18     		adds	r3, r7, r3
 6780 001e 1A88     		ldrh	r2, [r3]
 6781 0020 1623     		movs	r3, #22
 6782 0022 FB18     		adds	r3, r7, r3
 6783 0024 F968     		ldr	r1, [r7, #12]
 6784 0026 2820     		movs	r0, #40
 6785 0028 8A18     		adds	r2, r1, r2
 6786 002a 1218     		adds	r2, r2, r0
 6787 002c 1278     		ldrb	r2, [r2]
 6788 002e 1A70     		strb	r2, [r3]
1722:Api\core\src/vl53l0x_api.c **** 		Temp8);
1723:Api\core\src/vl53l0x_api.c **** 
1724:Api\core\src/vl53l0x_api.c **** 	if (Temp8 == 0) { /* disabled write only internal value */
 6789              		.loc 1 1724 0
 6790 0030 1623     		movs	r3, #22
 6791 0032 FB18     		adds	r3, r7, r3
 6792 0034 1B78     		ldrb	r3, [r3]
 6793 0036 002B     		cmp	r3, #0
 6794 0038 0AD1     		bne	.L304
1725:Api\core\src/vl53l0x_api.c **** 		VL53L0X_SETARRAYPARAMETERFIELD(Dev, LimitChecksValue,
 6795              		.loc 1 1725 0
 6796 003a 0A23     		movs	r3, #10
 6797 003c FB18     		adds	r3, r7, r3
 6798 003e 1B88     		ldrh	r3, [r3]
 6799 0040 FA68     		ldr	r2, [r7, #12]
 6800 0042 0C33     		adds	r3, r3, #12
 6801 0044 9B00     		lsls	r3, r3, #2
 6802 0046 D318     		adds	r3, r2, r3
 6803 0048 0433     		adds	r3, r3, #4
 6804 004a 7A68     		ldr	r2, [r7, #4]
 6805 004c 1A60     		str	r2, [r3]
 6806 004e 43E0     		b	.L305
 6807              	.L304:
1726:Api\core\src/vl53l0x_api.c **** 			LimitCheckId, LimitCheckValue);
1727:Api\core\src/vl53l0x_api.c **** 	} else {
1728:Api\core\src/vl53l0x_api.c **** 
1729:Api\core\src/vl53l0x_api.c **** 		switch (LimitCheckId) {
 6808              		.loc 1 1729 0
 6809 0050 0A23     		movs	r3, #10
ARM GAS  C:\Users\ilya\AppData\Local\Temp\ccpEIuqL.s 			page 151


 6810 0052 FB18     		adds	r3, r7, r3
 6811 0054 1B88     		ldrh	r3, [r3]
 6812 0056 052B     		cmp	r3, #5
 6813 0058 2AD8     		bhi	.L306
 6814 005a 9A00     		lsls	r2, r3, #2
 6815 005c 224B     		ldr	r3, .L315
 6816 005e D318     		adds	r3, r2, r3
 6817 0060 1B68     		ldr	r3, [r3]
 6818 0062 9F46     		mov	pc, r3
 6819              		.section	.rodata
 6820              		.align	2
 6821              	.L308:
 6822 00ac 64000000 		.word	.L307
 6823 00b0 6C000000 		.word	.L309
 6824 00b4 86000000 		.word	.L310
 6825 00b8 8E000000 		.word	.L311
 6826 00bc 96000000 		.word	.L312
 6827 00c0 96000000 		.word	.L312
 6828              		.section	.text.VL53L0X_SetLimitCheckValue
 6829              	.L307:
1730:Api\core\src/vl53l0x_api.c **** 
1731:Api\core\src/vl53l0x_api.c **** 		case VL53L0X_CHECKENABLE_SIGMA_FINAL_RANGE:
1732:Api\core\src/vl53l0x_api.c **** 			/* internal computation: */
1733:Api\core\src/vl53l0x_api.c **** 			VL53L0X_SETARRAYPARAMETERFIELD(Dev, LimitChecksValue,
 6830              		.loc 1 1733 0
 6831 0064 FB68     		ldr	r3, [r7, #12]
 6832 0066 7A68     		ldr	r2, [r7, #4]
 6833 0068 5A63     		str	r2, [r3, #52]
1734:Api\core\src/vl53l0x_api.c **** 				VL53L0X_CHECKENABLE_SIGMA_FINAL_RANGE,
1735:Api\core\src/vl53l0x_api.c **** 				LimitCheckValue);
1736:Api\core\src/vl53l0x_api.c **** 			break;
 6834              		.loc 1 1736 0
 6835 006a 25E0     		b	.L313
 6836              	.L309:
1737:Api\core\src/vl53l0x_api.c **** 
1738:Api\core\src/vl53l0x_api.c **** 		case VL53L0X_CHECKENABLE_SIGNAL_RATE_FINAL_RANGE:
1739:Api\core\src/vl53l0x_api.c **** 
1740:Api\core\src/vl53l0x_api.c **** 			Status = VL53L0X_WrWord(Dev,
1741:Api\core\src/vl53l0x_api.c **** 			VL53L0X_REG_FINAL_RANGE_CONFIG_MIN_COUNT_RATE_RTN_LIMIT,
1742:Api\core\src/vl53l0x_api.c **** 				VL53L0X_FIXPOINT1616TOFIXPOINT97(
 6837              		.loc 1 1742 0
 6838 006c 7B68     		ldr	r3, [r7, #4]
 6839 006e 5B0A     		lsrs	r3, r3, #9
1740:Api\core\src/vl53l0x_api.c **** 			VL53L0X_REG_FINAL_RANGE_CONFIG_MIN_COUNT_RATE_RTN_LIMIT,
 6840              		.loc 1 1740 0
 6841 0070 9AB2     		uxth	r2, r3
 6842 0072 1723     		movs	r3, #23
 6843 0074 FC18     		adds	r4, r7, r3
 6844 0076 FB68     		ldr	r3, [r7, #12]
 6845 0078 4421     		movs	r1, #68
 6846 007a 1800     		movs	r0, r3
 6847 007c FFF7FEFF 		bl	VL53L0X_WrWord
 6848 0080 0300     		movs	r3, r0
 6849 0082 2370     		strb	r3, [r4]
1743:Api\core\src/vl53l0x_api.c **** 					LimitCheckValue));
1744:Api\core\src/vl53l0x_api.c **** 
1745:Api\core\src/vl53l0x_api.c **** 			break;
ARM GAS  C:\Users\ilya\AppData\Local\Temp\ccpEIuqL.s 			page 152


 6850              		.loc 1 1745 0
 6851 0084 18E0     		b	.L313
 6852              	.L310:
1746:Api\core\src/vl53l0x_api.c **** 
1747:Api\core\src/vl53l0x_api.c **** 		case VL53L0X_CHECKENABLE_SIGNAL_REF_CLIP:
1748:Api\core\src/vl53l0x_api.c **** 
1749:Api\core\src/vl53l0x_api.c **** 			/* internal computation: */
1750:Api\core\src/vl53l0x_api.c **** 			VL53L0X_SETARRAYPARAMETERFIELD(Dev, LimitChecksValue,
 6853              		.loc 1 1750 0
 6854 0086 FB68     		ldr	r3, [r7, #12]
 6855 0088 7A68     		ldr	r2, [r7, #4]
 6856 008a DA63     		str	r2, [r3, #60]
1751:Api\core\src/vl53l0x_api.c **** 				VL53L0X_CHECKENABLE_SIGNAL_REF_CLIP,
1752:Api\core\src/vl53l0x_api.c **** 				LimitCheckValue);
1753:Api\core\src/vl53l0x_api.c **** 
1754:Api\core\src/vl53l0x_api.c **** 			break;
 6857              		.loc 1 1754 0
 6858 008c 14E0     		b	.L313
 6859              	.L311:
1755:Api\core\src/vl53l0x_api.c **** 
1756:Api\core\src/vl53l0x_api.c **** 		case VL53L0X_CHECKENABLE_RANGE_IGNORE_THRESHOLD:
1757:Api\core\src/vl53l0x_api.c **** 
1758:Api\core\src/vl53l0x_api.c **** 			/* internal computation: */
1759:Api\core\src/vl53l0x_api.c **** 			VL53L0X_SETARRAYPARAMETERFIELD(Dev, LimitChecksValue,
 6860              		.loc 1 1759 0
 6861 008e FB68     		ldr	r3, [r7, #12]
 6862 0090 7A68     		ldr	r2, [r7, #4]
 6863 0092 1A64     		str	r2, [r3, #64]
1760:Api\core\src/vl53l0x_api.c **** 				VL53L0X_CHECKENABLE_RANGE_IGNORE_THRESHOLD,
1761:Api\core\src/vl53l0x_api.c **** 				LimitCheckValue);
1762:Api\core\src/vl53l0x_api.c **** 
1763:Api\core\src/vl53l0x_api.c **** 			break;
 6864              		.loc 1 1763 0
 6865 0094 10E0     		b	.L313
 6866              	.L312:
1764:Api\core\src/vl53l0x_api.c **** 
1765:Api\core\src/vl53l0x_api.c **** 		case VL53L0X_CHECKENABLE_SIGNAL_RATE_MSRC:
1766:Api\core\src/vl53l0x_api.c **** 		case VL53L0X_CHECKENABLE_SIGNAL_RATE_PRE_RANGE:
1767:Api\core\src/vl53l0x_api.c **** 
1768:Api\core\src/vl53l0x_api.c **** 			Status = VL53L0X_WrWord(Dev,
1769:Api\core\src/vl53l0x_api.c **** 				VL53L0X_REG_PRE_RANGE_MIN_COUNT_RATE_RTN_LIMIT,
1770:Api\core\src/vl53l0x_api.c **** 				VL53L0X_FIXPOINT1616TOFIXPOINT97(
 6867              		.loc 1 1770 0
 6868 0096 7B68     		ldr	r3, [r7, #4]
 6869 0098 5B0A     		lsrs	r3, r3, #9
1768:Api\core\src/vl53l0x_api.c **** 				VL53L0X_REG_PRE_RANGE_MIN_COUNT_RATE_RTN_LIMIT,
 6870              		.loc 1 1768 0
 6871 009a 9AB2     		uxth	r2, r3
 6872 009c 1723     		movs	r3, #23
 6873 009e FC18     		adds	r4, r7, r3
 6874 00a0 FB68     		ldr	r3, [r7, #12]
 6875 00a2 6421     		movs	r1, #100
 6876 00a4 1800     		movs	r0, r3
 6877 00a6 FFF7FEFF 		bl	VL53L0X_WrWord
 6878 00aa 0300     		movs	r3, r0
 6879 00ac 2370     		strb	r3, [r4]
1771:Api\core\src/vl53l0x_api.c **** 					LimitCheckValue));
ARM GAS  C:\Users\ilya\AppData\Local\Temp\ccpEIuqL.s 			page 153


1772:Api\core\src/vl53l0x_api.c **** 
1773:Api\core\src/vl53l0x_api.c **** 			break;
 6880              		.loc 1 1773 0
 6881 00ae 03E0     		b	.L313
 6882              	.L306:
1774:Api\core\src/vl53l0x_api.c **** 
1775:Api\core\src/vl53l0x_api.c **** 		default:
1776:Api\core\src/vl53l0x_api.c **** 			Status = VL53L0X_ERROR_INVALID_PARAMS;
 6883              		.loc 1 1776 0
 6884 00b0 1723     		movs	r3, #23
 6885 00b2 FB18     		adds	r3, r7, r3
 6886 00b4 FC22     		movs	r2, #252
 6887 00b6 1A70     		strb	r2, [r3]
 6888              	.L313:
1777:Api\core\src/vl53l0x_api.c **** 
1778:Api\core\src/vl53l0x_api.c **** 		}
1779:Api\core\src/vl53l0x_api.c **** 
1780:Api\core\src/vl53l0x_api.c **** 		if (Status == VL53L0X_ERROR_NONE) {
 6889              		.loc 1 1780 0
 6890 00b8 1723     		movs	r3, #23
 6891 00ba FB18     		adds	r3, r7, r3
 6892 00bc 1B78     		ldrb	r3, [r3]
 6893 00be 5BB2     		sxtb	r3, r3
 6894 00c0 002B     		cmp	r3, #0
 6895 00c2 09D1     		bne	.L305
1781:Api\core\src/vl53l0x_api.c **** 			VL53L0X_SETARRAYPARAMETERFIELD(Dev, LimitChecksValue,
 6896              		.loc 1 1781 0
 6897 00c4 0A23     		movs	r3, #10
 6898 00c6 FB18     		adds	r3, r7, r3
 6899 00c8 1B88     		ldrh	r3, [r3]
 6900 00ca FA68     		ldr	r2, [r7, #12]
 6901 00cc 0C33     		adds	r3, r3, #12
 6902 00ce 9B00     		lsls	r3, r3, #2
 6903 00d0 D318     		adds	r3, r2, r3
 6904 00d2 0433     		adds	r3, r3, #4
 6905 00d4 7A68     		ldr	r2, [r7, #4]
 6906 00d6 1A60     		str	r2, [r3]
 6907              	.L305:
1782:Api\core\src/vl53l0x_api.c **** 				LimitCheckId, LimitCheckValue);
1783:Api\core\src/vl53l0x_api.c **** 		}
1784:Api\core\src/vl53l0x_api.c **** 	}
1785:Api\core\src/vl53l0x_api.c **** 
1786:Api\core\src/vl53l0x_api.c **** 	LOG_FUNCTION_END(Status);
1787:Api\core\src/vl53l0x_api.c **** 	return Status;
 6908              		.loc 1 1787 0
 6909 00d8 1723     		movs	r3, #23
 6910 00da FB18     		adds	r3, r7, r3
 6911 00dc 1B78     		ldrb	r3, [r3]
 6912 00de 5BB2     		sxtb	r3, r3
1788:Api\core\src/vl53l0x_api.c **** }
 6913              		.loc 1 1788 0
 6914 00e0 1800     		movs	r0, r3
 6915 00e2 BD46     		mov	sp, r7
 6916 00e4 07B0     		add	sp, sp, #28
 6917              		@ sp needed
 6918 00e6 90BD     		pop	{r4, r7, pc}
 6919              	.L316:
ARM GAS  C:\Users\ilya\AppData\Local\Temp\ccpEIuqL.s 			page 154


 6920              		.align	2
 6921              	.L315:
 6922 00e8 AC000000 		.word	.L308
 6923              		.cfi_endproc
 6924              	.LFE60:
 6925              		.size	VL53L0X_SetLimitCheckValue, .-VL53L0X_SetLimitCheckValue
 6926              		.section	.text.VL53L0X_GetLimitCheckValue,"ax",%progbits
 6927              		.align	2
 6928              		.global	VL53L0X_GetLimitCheckValue
 6929              		.code	16
 6930              		.thumb_func
 6931              		.type	VL53L0X_GetLimitCheckValue, %function
 6932              	VL53L0X_GetLimitCheckValue:
 6933              	.LFB61:
1789:Api\core\src/vl53l0x_api.c **** 
1790:Api\core\src/vl53l0x_api.c **** VL53L0X_Error VL53L0X_GetLimitCheckValue(VL53L0X_DEV Dev, uint16_t LimitCheckId,
1791:Api\core\src/vl53l0x_api.c **** 	FixPoint1616_t *pLimitCheckValue)
1792:Api\core\src/vl53l0x_api.c **** {
 6934              		.loc 1 1792 0
 6935              		.cfi_startproc
 6936              		@ args = 0, pretend = 0, frame = 32
 6937              		@ frame_needed = 1, uses_anonymous_args = 0
 6938 0000 90B5     		push	{r4, r7, lr}
 6939              		.cfi_def_cfa_offset 12
 6940              		.cfi_offset 4, -12
 6941              		.cfi_offset 7, -8
 6942              		.cfi_offset 14, -4
 6943 0002 89B0     		sub	sp, sp, #36
 6944              		.cfi_def_cfa_offset 48
 6945 0004 00AF     		add	r7, sp, #0
 6946              		.cfi_def_cfa_register 7
 6947 0006 F860     		str	r0, [r7, #12]
 6948 0008 7A60     		str	r2, [r7, #4]
 6949 000a 0A23     		movs	r3, #10
 6950 000c FB18     		adds	r3, r7, r3
 6951 000e 0A1C     		adds	r2, r1, #0
 6952 0010 1A80     		strh	r2, [r3]
1793:Api\core\src/vl53l0x_api.c **** 	VL53L0X_Error Status = VL53L0X_ERROR_NONE;
 6953              		.loc 1 1793 0
 6954 0012 1F23     		movs	r3, #31
 6955 0014 FB18     		adds	r3, r7, r3
 6956 0016 0022     		movs	r2, #0
 6957 0018 1A70     		strb	r2, [r3]
1794:Api\core\src/vl53l0x_api.c **** 	uint8_t EnableZeroValue = 0;
 6958              		.loc 1 1794 0
 6959 001a 1E23     		movs	r3, #30
 6960 001c FB18     		adds	r3, r7, r3
 6961 001e 0022     		movs	r2, #0
 6962 0020 1A70     		strb	r2, [r3]
1795:Api\core\src/vl53l0x_api.c **** 	uint16_t Temp16;
1796:Api\core\src/vl53l0x_api.c **** 	FixPoint1616_t TempFix1616;
1797:Api\core\src/vl53l0x_api.c **** 
1798:Api\core\src/vl53l0x_api.c **** 	LOG_FUNCTION_START("");
1799:Api\core\src/vl53l0x_api.c **** 
1800:Api\core\src/vl53l0x_api.c **** 	switch (LimitCheckId) {
 6963              		.loc 1 1800 0
 6964 0022 0A23     		movs	r3, #10
ARM GAS  C:\Users\ilya\AppData\Local\Temp\ccpEIuqL.s 			page 155


 6965 0024 FB18     		adds	r3, r7, r3
 6966 0026 1B88     		ldrh	r3, [r3]
 6967 0028 052B     		cmp	r3, #5
 6968 002a 52D8     		bhi	.L318
 6969 002c 9A00     		lsls	r2, r3, #2
 6970 002e 4E4B     		ldr	r3, .L333
 6971 0030 D318     		adds	r3, r2, r3
 6972 0032 1B68     		ldr	r3, [r3]
 6973 0034 9F46     		mov	pc, r3
 6974              		.section	.rodata
 6975              		.align	2
 6976              	.L320:
 6977 00c4 36000000 		.word	.L319
 6978 00c8 46000000 		.word	.L321
 6979 00cc 7C000000 		.word	.L322
 6980 00d0 8C000000 		.word	.L323
 6981 00d4 9C000000 		.word	.L324
 6982 00d8 9C000000 		.word	.L324
 6983              		.section	.text.VL53L0X_GetLimitCheckValue
 6984              	.L319:
1801:Api\core\src/vl53l0x_api.c **** 
1802:Api\core\src/vl53l0x_api.c **** 	case VL53L0X_CHECKENABLE_SIGMA_FINAL_RANGE:
1803:Api\core\src/vl53l0x_api.c **** 		/* internal computation: */
1804:Api\core\src/vl53l0x_api.c **** 		VL53L0X_GETARRAYPARAMETERFIELD(Dev, LimitChecksValue,
 6985              		.loc 1 1804 0
 6986 0036 FB68     		ldr	r3, [r7, #12]
 6987 0038 5B6B     		ldr	r3, [r3, #52]
 6988 003a BB61     		str	r3, [r7, #24]
1805:Api\core\src/vl53l0x_api.c **** 			VL53L0X_CHECKENABLE_SIGMA_FINAL_RANGE, TempFix1616);
1806:Api\core\src/vl53l0x_api.c **** 		EnableZeroValue = 0;
 6989              		.loc 1 1806 0
 6990 003c 1E23     		movs	r3, #30
 6991 003e FB18     		adds	r3, r7, r3
 6992 0040 0022     		movs	r2, #0
 6993 0042 1A70     		strb	r2, [r3]
1807:Api\core\src/vl53l0x_api.c **** 		break;
 6994              		.loc 1 1807 0
 6995 0044 49E0     		b	.L325
 6996              	.L321:
1808:Api\core\src/vl53l0x_api.c **** 
1809:Api\core\src/vl53l0x_api.c **** 	case VL53L0X_CHECKENABLE_SIGNAL_RATE_FINAL_RANGE:
1810:Api\core\src/vl53l0x_api.c **** 		Status = VL53L0X_RdWord(Dev,
 6997              		.loc 1 1810 0
 6998 0046 1F23     		movs	r3, #31
 6999 0048 FC18     		adds	r4, r7, r3
 7000 004a 1623     		movs	r3, #22
 7001 004c FA18     		adds	r2, r7, r3
 7002 004e FB68     		ldr	r3, [r7, #12]
 7003 0050 4421     		movs	r1, #68
 7004 0052 1800     		movs	r0, r3
 7005 0054 FFF7FEFF 		bl	VL53L0X_RdWord
 7006 0058 0300     		movs	r3, r0
 7007 005a 2370     		strb	r3, [r4]
1811:Api\core\src/vl53l0x_api.c **** 		VL53L0X_REG_FINAL_RANGE_CONFIG_MIN_COUNT_RATE_RTN_LIMIT,
1812:Api\core\src/vl53l0x_api.c **** 			&Temp16);
1813:Api\core\src/vl53l0x_api.c **** 		if (Status == VL53L0X_ERROR_NONE)
 7008              		.loc 1 1813 0
ARM GAS  C:\Users\ilya\AppData\Local\Temp\ccpEIuqL.s 			page 156


 7009 005c 1F23     		movs	r3, #31
 7010 005e FB18     		adds	r3, r7, r3
 7011 0060 1B78     		ldrb	r3, [r3]
 7012 0062 5BB2     		sxtb	r3, r3
 7013 0064 002B     		cmp	r3, #0
 7014 0066 04D1     		bne	.L326
1814:Api\core\src/vl53l0x_api.c **** 			TempFix1616 = VL53L0X_FIXPOINT97TOFIXPOINT1616(Temp16);
 7015              		.loc 1 1814 0
 7016 0068 1623     		movs	r3, #22
 7017 006a FB18     		adds	r3, r7, r3
 7018 006c 1B88     		ldrh	r3, [r3]
 7019 006e 5B02     		lsls	r3, r3, #9
 7020 0070 BB61     		str	r3, [r7, #24]
 7021              	.L326:
1815:Api\core\src/vl53l0x_api.c **** 
1816:Api\core\src/vl53l0x_api.c **** 
1817:Api\core\src/vl53l0x_api.c **** 		EnableZeroValue = 1;
 7022              		.loc 1 1817 0
 7023 0072 1E23     		movs	r3, #30
 7024 0074 FB18     		adds	r3, r7, r3
 7025 0076 0122     		movs	r2, #1
 7026 0078 1A70     		strb	r2, [r3]
1818:Api\core\src/vl53l0x_api.c **** 		break;
 7027              		.loc 1 1818 0
 7028 007a 2EE0     		b	.L325
 7029              	.L322:
1819:Api\core\src/vl53l0x_api.c **** 
1820:Api\core\src/vl53l0x_api.c **** 	case VL53L0X_CHECKENABLE_SIGNAL_REF_CLIP:
1821:Api\core\src/vl53l0x_api.c **** 		/* internal computation: */
1822:Api\core\src/vl53l0x_api.c **** 		VL53L0X_GETARRAYPARAMETERFIELD(Dev, LimitChecksValue,
 7030              		.loc 1 1822 0
 7031 007c FB68     		ldr	r3, [r7, #12]
 7032 007e DB6B     		ldr	r3, [r3, #60]
 7033 0080 BB61     		str	r3, [r7, #24]
1823:Api\core\src/vl53l0x_api.c **** 			VL53L0X_CHECKENABLE_SIGNAL_REF_CLIP, TempFix1616);
1824:Api\core\src/vl53l0x_api.c **** 		EnableZeroValue = 0;
 7034              		.loc 1 1824 0
 7035 0082 1E23     		movs	r3, #30
 7036 0084 FB18     		adds	r3, r7, r3
 7037 0086 0022     		movs	r2, #0
 7038 0088 1A70     		strb	r2, [r3]
1825:Api\core\src/vl53l0x_api.c **** 		break;
 7039              		.loc 1 1825 0
 7040 008a 26E0     		b	.L325
 7041              	.L323:
1826:Api\core\src/vl53l0x_api.c **** 
1827:Api\core\src/vl53l0x_api.c **** 	case VL53L0X_CHECKENABLE_RANGE_IGNORE_THRESHOLD:
1828:Api\core\src/vl53l0x_api.c **** 		/* internal computation: */
1829:Api\core\src/vl53l0x_api.c **** 		VL53L0X_GETARRAYPARAMETERFIELD(Dev, LimitChecksValue,
 7042              		.loc 1 1829 0
 7043 008c FB68     		ldr	r3, [r7, #12]
 7044 008e 1B6C     		ldr	r3, [r3, #64]
 7045 0090 BB61     		str	r3, [r7, #24]
1830:Api\core\src/vl53l0x_api.c **** 			VL53L0X_CHECKENABLE_RANGE_IGNORE_THRESHOLD, TempFix1616);
1831:Api\core\src/vl53l0x_api.c **** 		EnableZeroValue = 0;
 7046              		.loc 1 1831 0
 7047 0092 1E23     		movs	r3, #30
ARM GAS  C:\Users\ilya\AppData\Local\Temp\ccpEIuqL.s 			page 157


 7048 0094 FB18     		adds	r3, r7, r3
 7049 0096 0022     		movs	r2, #0
 7050 0098 1A70     		strb	r2, [r3]
1832:Api\core\src/vl53l0x_api.c **** 		break;
 7051              		.loc 1 1832 0
 7052 009a 1EE0     		b	.L325
 7053              	.L324:
1833:Api\core\src/vl53l0x_api.c **** 
1834:Api\core\src/vl53l0x_api.c **** 	case VL53L0X_CHECKENABLE_SIGNAL_RATE_MSRC:
1835:Api\core\src/vl53l0x_api.c **** 	case VL53L0X_CHECKENABLE_SIGNAL_RATE_PRE_RANGE:
1836:Api\core\src/vl53l0x_api.c **** 		Status = VL53L0X_RdWord(Dev,
 7054              		.loc 1 1836 0
 7055 009c 1F23     		movs	r3, #31
 7056 009e FC18     		adds	r4, r7, r3
 7057 00a0 1623     		movs	r3, #22
 7058 00a2 FA18     		adds	r2, r7, r3
 7059 00a4 FB68     		ldr	r3, [r7, #12]
 7060 00a6 6421     		movs	r1, #100
 7061 00a8 1800     		movs	r0, r3
 7062 00aa FFF7FEFF 		bl	VL53L0X_RdWord
 7063 00ae 0300     		movs	r3, r0
 7064 00b0 2370     		strb	r3, [r4]
1837:Api\core\src/vl53l0x_api.c **** 			VL53L0X_REG_PRE_RANGE_MIN_COUNT_RATE_RTN_LIMIT,
1838:Api\core\src/vl53l0x_api.c **** 			&Temp16);
1839:Api\core\src/vl53l0x_api.c **** 		if (Status == VL53L0X_ERROR_NONE)
 7065              		.loc 1 1839 0
 7066 00b2 1F23     		movs	r3, #31
 7067 00b4 FB18     		adds	r3, r7, r3
 7068 00b6 1B78     		ldrb	r3, [r3]
 7069 00b8 5BB2     		sxtb	r3, r3
 7070 00ba 002B     		cmp	r3, #0
 7071 00bc 04D1     		bne	.L327
1840:Api\core\src/vl53l0x_api.c **** 			TempFix1616 = VL53L0X_FIXPOINT97TOFIXPOINT1616(Temp16);
 7072              		.loc 1 1840 0
 7073 00be 1623     		movs	r3, #22
 7074 00c0 FB18     		adds	r3, r7, r3
 7075 00c2 1B88     		ldrh	r3, [r3]
 7076 00c4 5B02     		lsls	r3, r3, #9
 7077 00c6 BB61     		str	r3, [r7, #24]
 7078              	.L327:
1841:Api\core\src/vl53l0x_api.c **** 
1842:Api\core\src/vl53l0x_api.c **** 
1843:Api\core\src/vl53l0x_api.c **** 		EnableZeroValue = 0;
 7079              		.loc 1 1843 0
 7080 00c8 1E23     		movs	r3, #30
 7081 00ca FB18     		adds	r3, r7, r3
 7082 00cc 0022     		movs	r2, #0
 7083 00ce 1A70     		strb	r2, [r3]
1844:Api\core\src/vl53l0x_api.c **** 		break;
 7084              		.loc 1 1844 0
 7085 00d0 03E0     		b	.L325
 7086              	.L318:
1845:Api\core\src/vl53l0x_api.c **** 
1846:Api\core\src/vl53l0x_api.c **** 	default:
1847:Api\core\src/vl53l0x_api.c **** 		Status = VL53L0X_ERROR_INVALID_PARAMS;
 7087              		.loc 1 1847 0
 7088 00d2 1F23     		movs	r3, #31
ARM GAS  C:\Users\ilya\AppData\Local\Temp\ccpEIuqL.s 			page 158


 7089 00d4 FB18     		adds	r3, r7, r3
 7090 00d6 FC22     		movs	r2, #252
 7091 00d8 1A70     		strb	r2, [r3]
 7092              	.L325:
1848:Api\core\src/vl53l0x_api.c **** 
1849:Api\core\src/vl53l0x_api.c **** 	}
1850:Api\core\src/vl53l0x_api.c **** 
1851:Api\core\src/vl53l0x_api.c **** 	if (Status == VL53L0X_ERROR_NONE) {
 7093              		.loc 1 1851 0
 7094 00da 1F23     		movs	r3, #31
 7095 00dc FB18     		adds	r3, r7, r3
 7096 00de 1B78     		ldrb	r3, [r3]
 7097 00e0 5BB2     		sxtb	r3, r3
 7098 00e2 002B     		cmp	r3, #0
 7099 00e4 38D1     		bne	.L328
1852:Api\core\src/vl53l0x_api.c **** 
1853:Api\core\src/vl53l0x_api.c **** 		if (EnableZeroValue == 1) {
 7100              		.loc 1 1853 0
 7101 00e6 1E23     		movs	r3, #30
 7102 00e8 FB18     		adds	r3, r7, r3
 7103 00ea 1B78     		ldrb	r3, [r3]
 7104 00ec 012B     		cmp	r3, #1
 7105 00ee 30D1     		bne	.L329
1854:Api\core\src/vl53l0x_api.c **** 
1855:Api\core\src/vl53l0x_api.c **** 			if (TempFix1616 == 0) {
 7106              		.loc 1 1855 0
 7107 00f0 BB69     		ldr	r3, [r7, #24]
 7108 00f2 002B     		cmp	r3, #0
 7109 00f4 16D1     		bne	.L330
1856:Api\core\src/vl53l0x_api.c **** 				/* disabled: return value from memory */
1857:Api\core\src/vl53l0x_api.c **** 				VL53L0X_GETARRAYPARAMETERFIELD(Dev,
 7110              		.loc 1 1857 0
 7111 00f6 0A23     		movs	r3, #10
 7112 00f8 FB18     		adds	r3, r7, r3
 7113 00fa 1B88     		ldrh	r3, [r3]
 7114 00fc FA68     		ldr	r2, [r7, #12]
 7115 00fe 0C33     		adds	r3, r3, #12
 7116 0100 9B00     		lsls	r3, r3, #2
 7117 0102 D318     		adds	r3, r2, r3
 7118 0104 0433     		adds	r3, r3, #4
 7119 0106 1B68     		ldr	r3, [r3]
 7120 0108 BB61     		str	r3, [r7, #24]
1858:Api\core\src/vl53l0x_api.c **** 					LimitChecksValue, LimitCheckId,
1859:Api\core\src/vl53l0x_api.c **** 					TempFix1616);
1860:Api\core\src/vl53l0x_api.c **** 				*pLimitCheckValue = TempFix1616;
 7121              		.loc 1 1860 0
 7122 010a 7B68     		ldr	r3, [r7, #4]
 7123 010c BA69     		ldr	r2, [r7, #24]
 7124 010e 1A60     		str	r2, [r3]
1861:Api\core\src/vl53l0x_api.c **** 				VL53L0X_SETARRAYPARAMETERFIELD(Dev,
 7125              		.loc 1 1861 0
 7126 0110 0A23     		movs	r3, #10
 7127 0112 FB18     		adds	r3, r7, r3
 7128 0114 1B88     		ldrh	r3, [r3]
 7129 0116 FA68     		ldr	r2, [r7, #12]
 7130 0118 2821     		movs	r1, #40
 7131 011a D318     		adds	r3, r2, r3
ARM GAS  C:\Users\ilya\AppData\Local\Temp\ccpEIuqL.s 			page 159


 7132 011c 5B18     		adds	r3, r3, r1
 7133 011e 0022     		movs	r2, #0
 7134 0120 1A70     		strb	r2, [r3]
 7135 0122 19E0     		b	.L328
 7136              	.L330:
1862:Api\core\src/vl53l0x_api.c **** 					LimitChecksEnable, LimitCheckId, 0);
1863:Api\core\src/vl53l0x_api.c **** 			} else {
1864:Api\core\src/vl53l0x_api.c **** 				*pLimitCheckValue = TempFix1616;
 7137              		.loc 1 1864 0
 7138 0124 7B68     		ldr	r3, [r7, #4]
 7139 0126 BA69     		ldr	r2, [r7, #24]
 7140 0128 1A60     		str	r2, [r3]
1865:Api\core\src/vl53l0x_api.c **** 				VL53L0X_SETARRAYPARAMETERFIELD(Dev,
 7141              		.loc 1 1865 0
 7142 012a 0A23     		movs	r3, #10
 7143 012c FB18     		adds	r3, r7, r3
 7144 012e 1B88     		ldrh	r3, [r3]
 7145 0130 FA68     		ldr	r2, [r7, #12]
 7146 0132 0C33     		adds	r3, r3, #12
 7147 0134 9B00     		lsls	r3, r3, #2
 7148 0136 D318     		adds	r3, r2, r3
 7149 0138 0433     		adds	r3, r3, #4
 7150 013a BA69     		ldr	r2, [r7, #24]
 7151 013c 1A60     		str	r2, [r3]
1866:Api\core\src/vl53l0x_api.c **** 					LimitChecksValue, LimitCheckId,
1867:Api\core\src/vl53l0x_api.c **** 					TempFix1616);
1868:Api\core\src/vl53l0x_api.c **** 				VL53L0X_SETARRAYPARAMETERFIELD(Dev,
 7152              		.loc 1 1868 0
 7153 013e 0A23     		movs	r3, #10
 7154 0140 FB18     		adds	r3, r7, r3
 7155 0142 1B88     		ldrh	r3, [r3]
 7156 0144 FA68     		ldr	r2, [r7, #12]
 7157 0146 2821     		movs	r1, #40
 7158 0148 D318     		adds	r3, r2, r3
 7159 014a 5B18     		adds	r3, r3, r1
 7160 014c 0122     		movs	r2, #1
 7161 014e 1A70     		strb	r2, [r3]
 7162 0150 02E0     		b	.L328
 7163              	.L329:
1869:Api\core\src/vl53l0x_api.c **** 					LimitChecksEnable, LimitCheckId, 1);
1870:Api\core\src/vl53l0x_api.c **** 			}
1871:Api\core\src/vl53l0x_api.c **** 		} else {
1872:Api\core\src/vl53l0x_api.c **** 			*pLimitCheckValue = TempFix1616;
 7164              		.loc 1 1872 0
 7165 0152 7B68     		ldr	r3, [r7, #4]
 7166 0154 BA69     		ldr	r2, [r7, #24]
 7167 0156 1A60     		str	r2, [r3]
 7168              	.L328:
1873:Api\core\src/vl53l0x_api.c **** 		}
1874:Api\core\src/vl53l0x_api.c **** 	}
1875:Api\core\src/vl53l0x_api.c **** 
1876:Api\core\src/vl53l0x_api.c **** 	LOG_FUNCTION_END(Status);
1877:Api\core\src/vl53l0x_api.c **** 	return Status;
 7169              		.loc 1 1877 0
 7170 0158 1F23     		movs	r3, #31
 7171 015a FB18     		adds	r3, r7, r3
 7172 015c 1B78     		ldrb	r3, [r3]
ARM GAS  C:\Users\ilya\AppData\Local\Temp\ccpEIuqL.s 			page 160


 7173 015e 5BB2     		sxtb	r3, r3
1878:Api\core\src/vl53l0x_api.c **** 
1879:Api\core\src/vl53l0x_api.c **** }
 7174              		.loc 1 1879 0
 7175 0160 1800     		movs	r0, r3
 7176 0162 BD46     		mov	sp, r7
 7177 0164 09B0     		add	sp, sp, #36
 7178              		@ sp needed
 7179 0166 90BD     		pop	{r4, r7, pc}
 7180              	.L334:
 7181              		.align	2
 7182              	.L333:
 7183 0168 C4000000 		.word	.L320
 7184              		.cfi_endproc
 7185              	.LFE61:
 7186              		.size	VL53L0X_GetLimitCheckValue, .-VL53L0X_GetLimitCheckValue
 7187              		.section	.text.VL53L0X_GetLimitCheckCurrent,"ax",%progbits
 7188              		.align	2
 7189              		.global	VL53L0X_GetLimitCheckCurrent
 7190              		.code	16
 7191              		.thumb_func
 7192              		.type	VL53L0X_GetLimitCheckCurrent, %function
 7193              	VL53L0X_GetLimitCheckCurrent:
 7194              	.LFB62:
1880:Api\core\src/vl53l0x_api.c **** 
1881:Api\core\src/vl53l0x_api.c **** VL53L0X_Error VL53L0X_GetLimitCheckCurrent(VL53L0X_DEV Dev, uint16_t LimitCheckId,
1882:Api\core\src/vl53l0x_api.c **** 	FixPoint1616_t *pLimitCheckCurrent)
1883:Api\core\src/vl53l0x_api.c **** {
 7195              		.loc 1 1883 0
 7196              		.cfi_startproc
 7197              		@ args = 0, pretend = 0, frame = 48
 7198              		@ frame_needed = 1, uses_anonymous_args = 0
 7199 0000 90B5     		push	{r4, r7, lr}
 7200              		.cfi_def_cfa_offset 12
 7201              		.cfi_offset 4, -12
 7202              		.cfi_offset 7, -8
 7203              		.cfi_offset 14, -4
 7204 0002 8DB0     		sub	sp, sp, #52
 7205              		.cfi_def_cfa_offset 64
 7206 0004 00AF     		add	r7, sp, #0
 7207              		.cfi_def_cfa_register 7
 7208 0006 F860     		str	r0, [r7, #12]
 7209 0008 7A60     		str	r2, [r7, #4]
 7210 000a 0A23     		movs	r3, #10
 7211 000c FB18     		adds	r3, r7, r3
 7212 000e 0A1C     		adds	r2, r1, #0
 7213 0010 1A80     		strh	r2, [r3]
1884:Api\core\src/vl53l0x_api.c **** 	VL53L0X_Error Status = VL53L0X_ERROR_NONE;
 7214              		.loc 1 1884 0
 7215 0012 2F23     		movs	r3, #47
 7216 0014 FB18     		adds	r3, r7, r3
 7217 0016 0022     		movs	r2, #0
 7218 0018 1A70     		strb	r2, [r3]
1885:Api\core\src/vl53l0x_api.c **** 	VL53L0X_RangingMeasurementData_t LastRangeDataBuffer;
1886:Api\core\src/vl53l0x_api.c **** 
1887:Api\core\src/vl53l0x_api.c **** 	LOG_FUNCTION_START("");
1888:Api\core\src/vl53l0x_api.c **** 
ARM GAS  C:\Users\ilya\AppData\Local\Temp\ccpEIuqL.s 			page 161


1889:Api\core\src/vl53l0x_api.c **** 	if (LimitCheckId >= VL53L0X_CHECKENABLE_NUMBER_OF_CHECKS) {
 7219              		.loc 1 1889 0
 7220 001a 0A23     		movs	r3, #10
 7221 001c FB18     		adds	r3, r7, r3
 7222 001e 1B88     		ldrh	r3, [r3]
 7223 0020 052B     		cmp	r3, #5
 7224 0022 04D9     		bls	.L336
1890:Api\core\src/vl53l0x_api.c **** 		Status = VL53L0X_ERROR_INVALID_PARAMS;
 7225              		.loc 1 1890 0
 7226 0024 2F23     		movs	r3, #47
 7227 0026 FB18     		adds	r3, r7, r3
 7228 0028 FC22     		movs	r2, #252
 7229 002a 1A70     		strb	r2, [r3]
 7230 002c 5BE0     		b	.L337
 7231              	.L336:
1891:Api\core\src/vl53l0x_api.c **** 	} else {
1892:Api\core\src/vl53l0x_api.c **** 		switch (LimitCheckId) {
 7232              		.loc 1 1892 0
 7233 002e 0A23     		movs	r3, #10
 7234 0030 FB18     		adds	r3, r7, r3
 7235 0032 1B88     		ldrh	r3, [r3]
 7236 0034 052B     		cmp	r3, #5
 7237 0036 52D8     		bhi	.L338
 7238 0038 9A00     		lsls	r2, r3, #2
 7239 003a 2F4B     		ldr	r3, .L347
 7240 003c D318     		adds	r3, r2, r3
 7241 003e 1B68     		ldr	r3, [r3]
 7242 0040 9F46     		mov	pc, r3
 7243              		.section	.rodata
 7244              		.align	2
 7245              	.L340:
 7246 00dc 42000000 		.word	.L339
 7247 00e0 50000000 		.word	.L341
 7248 00e4 70000000 		.word	.L342
 7249 00e8 7E000000 		.word	.L343
 7250 00ec 9E000000 		.word	.L344
 7251 00f0 BE000000 		.word	.L345
 7252              		.section	.text.VL53L0X_GetLimitCheckCurrent
 7253              	.L339:
1893:Api\core\src/vl53l0x_api.c **** 		case VL53L0X_CHECKENABLE_SIGMA_FINAL_RANGE:
1894:Api\core\src/vl53l0x_api.c **** 			/* Need to run a ranging to have the latest values */
1895:Api\core\src/vl53l0x_api.c **** 			*pLimitCheckCurrent = PALDevDataGet(Dev, SigmaEstimate);
 7254              		.loc 1 1895 0
 7255 0042 FA68     		ldr	r2, [r7, #12]
 7256 0044 A023     		movs	r3, #160
 7257 0046 5B00     		lsls	r3, r3, #1
 7258 0048 D258     		ldr	r2, [r2, r3]
 7259 004a 7B68     		ldr	r3, [r7, #4]
 7260 004c 1A60     		str	r2, [r3]
1896:Api\core\src/vl53l0x_api.c **** 
1897:Api\core\src/vl53l0x_api.c **** 			break;
 7261              		.loc 1 1897 0
 7262 004e 4AE0     		b	.L337
 7263              	.L341:
1898:Api\core\src/vl53l0x_api.c **** 
1899:Api\core\src/vl53l0x_api.c **** 		case VL53L0X_CHECKENABLE_SIGNAL_RATE_FINAL_RANGE:
1900:Api\core\src/vl53l0x_api.c **** 			/* Need to run a ranging to have the latest values */
ARM GAS  C:\Users\ilya\AppData\Local\Temp\ccpEIuqL.s 			page 162


1901:Api\core\src/vl53l0x_api.c **** 			LastRangeDataBuffer = PALDevDataGet(Dev,
 7264              		.loc 1 1901 0
 7265 0050 1023     		movs	r3, #16
 7266 0052 FA18     		adds	r2, r7, r3
 7267 0054 FB68     		ldr	r3, [r7, #12]
 7268 0056 5033     		adds	r3, r3, #80
 7269 0058 13CB     		ldmia	r3!, {r0, r1, r4}
 7270 005a 13C2     		stmia	r2!, {r0, r1, r4}
 7271 005c 13CB     		ldmia	r3!, {r0, r1, r4}
 7272 005e 13C2     		stmia	r2!, {r0, r1, r4}
 7273 0060 1B68     		ldr	r3, [r3]
 7274 0062 1360     		str	r3, [r2]
1902:Api\core\src/vl53l0x_api.c **** 				LastRangeMeasure);
1903:Api\core\src/vl53l0x_api.c **** 			*pLimitCheckCurrent =
1904:Api\core\src/vl53l0x_api.c **** 				LastRangeDataBuffer.SignalRateRtnMegaCps;
 7275              		.loc 1 1904 0
 7276 0064 1023     		movs	r3, #16
 7277 0066 FB18     		adds	r3, r7, r3
 7278 0068 DA68     		ldr	r2, [r3, #12]
1903:Api\core\src/vl53l0x_api.c **** 				LastRangeDataBuffer.SignalRateRtnMegaCps;
 7279              		.loc 1 1903 0
 7280 006a 7B68     		ldr	r3, [r7, #4]
 7281 006c 1A60     		str	r2, [r3]
1905:Api\core\src/vl53l0x_api.c **** 
1906:Api\core\src/vl53l0x_api.c **** 			break;
 7282              		.loc 1 1906 0
 7283 006e 3AE0     		b	.L337
 7284              	.L342:
1907:Api\core\src/vl53l0x_api.c **** 
1908:Api\core\src/vl53l0x_api.c **** 		case VL53L0X_CHECKENABLE_SIGNAL_REF_CLIP:
1909:Api\core\src/vl53l0x_api.c **** 			/* Need to run a ranging to have the latest values */
1910:Api\core\src/vl53l0x_api.c **** 			*pLimitCheckCurrent = PALDevDataGet(Dev,
 7285              		.loc 1 1910 0
 7286 0070 FA68     		ldr	r2, [r7, #12]
 7287 0072 A423     		movs	r3, #164
 7288 0074 5B00     		lsls	r3, r3, #1
 7289 0076 D258     		ldr	r2, [r2, r3]
 7290 0078 7B68     		ldr	r3, [r7, #4]
 7291 007a 1A60     		str	r2, [r3]
1911:Api\core\src/vl53l0x_api.c **** 				LastSignalRefMcps);
1912:Api\core\src/vl53l0x_api.c **** 
1913:Api\core\src/vl53l0x_api.c **** 			break;
 7292              		.loc 1 1913 0
 7293 007c 33E0     		b	.L337
 7294              	.L343:
1914:Api\core\src/vl53l0x_api.c **** 
1915:Api\core\src/vl53l0x_api.c **** 		case VL53L0X_CHECKENABLE_RANGE_IGNORE_THRESHOLD:
1916:Api\core\src/vl53l0x_api.c **** 			/* Need to run a ranging to have the latest values */
1917:Api\core\src/vl53l0x_api.c **** 			LastRangeDataBuffer = PALDevDataGet(Dev,
 7295              		.loc 1 1917 0
 7296 007e 1023     		movs	r3, #16
 7297 0080 FA18     		adds	r2, r7, r3
 7298 0082 FB68     		ldr	r3, [r7, #12]
 7299 0084 5033     		adds	r3, r3, #80
 7300 0086 13CB     		ldmia	r3!, {r0, r1, r4}
 7301 0088 13C2     		stmia	r2!, {r0, r1, r4}
 7302 008a 13CB     		ldmia	r3!, {r0, r1, r4}
ARM GAS  C:\Users\ilya\AppData\Local\Temp\ccpEIuqL.s 			page 163


 7303 008c 13C2     		stmia	r2!, {r0, r1, r4}
 7304 008e 1B68     		ldr	r3, [r3]
 7305 0090 1360     		str	r3, [r2]
1918:Api\core\src/vl53l0x_api.c **** 				LastRangeMeasure);
1919:Api\core\src/vl53l0x_api.c **** 			*pLimitCheckCurrent =
1920:Api\core\src/vl53l0x_api.c **** 				LastRangeDataBuffer.SignalRateRtnMegaCps;
 7306              		.loc 1 1920 0
 7307 0092 1023     		movs	r3, #16
 7308 0094 FB18     		adds	r3, r7, r3
 7309 0096 DA68     		ldr	r2, [r3, #12]
1919:Api\core\src/vl53l0x_api.c **** 				LastRangeDataBuffer.SignalRateRtnMegaCps;
 7310              		.loc 1 1919 0
 7311 0098 7B68     		ldr	r3, [r7, #4]
 7312 009a 1A60     		str	r2, [r3]
1921:Api\core\src/vl53l0x_api.c **** 
1922:Api\core\src/vl53l0x_api.c **** 			break;
 7313              		.loc 1 1922 0
 7314 009c 23E0     		b	.L337
 7315              	.L344:
1923:Api\core\src/vl53l0x_api.c **** 
1924:Api\core\src/vl53l0x_api.c **** 		case VL53L0X_CHECKENABLE_SIGNAL_RATE_MSRC:
1925:Api\core\src/vl53l0x_api.c **** 			/* Need to run a ranging to have the latest values */
1926:Api\core\src/vl53l0x_api.c **** 			LastRangeDataBuffer = PALDevDataGet(Dev,
 7316              		.loc 1 1926 0
 7317 009e 1023     		movs	r3, #16
 7318 00a0 FA18     		adds	r2, r7, r3
 7319 00a2 FB68     		ldr	r3, [r7, #12]
 7320 00a4 5033     		adds	r3, r3, #80
 7321 00a6 13CB     		ldmia	r3!, {r0, r1, r4}
 7322 00a8 13C2     		stmia	r2!, {r0, r1, r4}
 7323 00aa 13CB     		ldmia	r3!, {r0, r1, r4}
 7324 00ac 13C2     		stmia	r2!, {r0, r1, r4}
 7325 00ae 1B68     		ldr	r3, [r3]
 7326 00b0 1360     		str	r3, [r2]
1927:Api\core\src/vl53l0x_api.c **** 				LastRangeMeasure);
1928:Api\core\src/vl53l0x_api.c **** 			*pLimitCheckCurrent =
1929:Api\core\src/vl53l0x_api.c **** 				LastRangeDataBuffer.SignalRateRtnMegaCps;
 7327              		.loc 1 1929 0
 7328 00b2 1023     		movs	r3, #16
 7329 00b4 FB18     		adds	r3, r7, r3
 7330 00b6 DA68     		ldr	r2, [r3, #12]
1928:Api\core\src/vl53l0x_api.c **** 				LastRangeDataBuffer.SignalRateRtnMegaCps;
 7331              		.loc 1 1928 0
 7332 00b8 7B68     		ldr	r3, [r7, #4]
 7333 00ba 1A60     		str	r2, [r3]
1930:Api\core\src/vl53l0x_api.c **** 
1931:Api\core\src/vl53l0x_api.c **** 			break;
 7334              		.loc 1 1931 0
 7335 00bc 13E0     		b	.L337
 7336              	.L345:
1932:Api\core\src/vl53l0x_api.c **** 
1933:Api\core\src/vl53l0x_api.c **** 		case VL53L0X_CHECKENABLE_SIGNAL_RATE_PRE_RANGE:
1934:Api\core\src/vl53l0x_api.c **** 			/* Need to run a ranging to have the latest values */
1935:Api\core\src/vl53l0x_api.c **** 			LastRangeDataBuffer = PALDevDataGet(Dev,
 7337              		.loc 1 1935 0
 7338 00be 1023     		movs	r3, #16
 7339 00c0 FA18     		adds	r2, r7, r3
ARM GAS  C:\Users\ilya\AppData\Local\Temp\ccpEIuqL.s 			page 164


 7340 00c2 FB68     		ldr	r3, [r7, #12]
 7341 00c4 5033     		adds	r3, r3, #80
 7342 00c6 13CB     		ldmia	r3!, {r0, r1, r4}
 7343 00c8 13C2     		stmia	r2!, {r0, r1, r4}
 7344 00ca 13CB     		ldmia	r3!, {r0, r1, r4}
 7345 00cc 13C2     		stmia	r2!, {r0, r1, r4}
 7346 00ce 1B68     		ldr	r3, [r3]
 7347 00d0 1360     		str	r3, [r2]
1936:Api\core\src/vl53l0x_api.c **** 				LastRangeMeasure);
1937:Api\core\src/vl53l0x_api.c **** 			*pLimitCheckCurrent =
1938:Api\core\src/vl53l0x_api.c **** 				LastRangeDataBuffer.SignalRateRtnMegaCps;
 7348              		.loc 1 1938 0
 7349 00d2 1023     		movs	r3, #16
 7350 00d4 FB18     		adds	r3, r7, r3
 7351 00d6 DA68     		ldr	r2, [r3, #12]
1937:Api\core\src/vl53l0x_api.c **** 				LastRangeDataBuffer.SignalRateRtnMegaCps;
 7352              		.loc 1 1937 0
 7353 00d8 7B68     		ldr	r3, [r7, #4]
 7354 00da 1A60     		str	r2, [r3]
1939:Api\core\src/vl53l0x_api.c **** 
1940:Api\core\src/vl53l0x_api.c **** 			break;
 7355              		.loc 1 1940 0
 7356 00dc 03E0     		b	.L337
 7357              	.L338:
1941:Api\core\src/vl53l0x_api.c **** 
1942:Api\core\src/vl53l0x_api.c **** 		default:
1943:Api\core\src/vl53l0x_api.c **** 			Status = VL53L0X_ERROR_INVALID_PARAMS;
 7358              		.loc 1 1943 0
 7359 00de 2F23     		movs	r3, #47
 7360 00e0 FB18     		adds	r3, r7, r3
 7361 00e2 FC22     		movs	r2, #252
 7362 00e4 1A70     		strb	r2, [r3]
 7363              	.L337:
1944:Api\core\src/vl53l0x_api.c **** 		}
1945:Api\core\src/vl53l0x_api.c **** 	}
1946:Api\core\src/vl53l0x_api.c **** 
1947:Api\core\src/vl53l0x_api.c **** 	LOG_FUNCTION_END(Status);
1948:Api\core\src/vl53l0x_api.c **** 	return Status;
 7364              		.loc 1 1948 0
 7365 00e6 2F23     		movs	r3, #47
 7366 00e8 FB18     		adds	r3, r7, r3
 7367 00ea 1B78     		ldrb	r3, [r3]
 7368 00ec 5BB2     		sxtb	r3, r3
1949:Api\core\src/vl53l0x_api.c **** 
1950:Api\core\src/vl53l0x_api.c **** }
 7369              		.loc 1 1950 0
 7370 00ee 1800     		movs	r0, r3
 7371 00f0 BD46     		mov	sp, r7
 7372 00f2 0DB0     		add	sp, sp, #52
 7373              		@ sp needed
 7374 00f4 90BD     		pop	{r4, r7, pc}
 7375              	.L348:
 7376 00f6 C046     		.align	2
 7377              	.L347:
 7378 00f8 DC000000 		.word	.L340
 7379              		.cfi_endproc
 7380              	.LFE62:
ARM GAS  C:\Users\ilya\AppData\Local\Temp\ccpEIuqL.s 			page 165


 7381              		.size	VL53L0X_GetLimitCheckCurrent, .-VL53L0X_GetLimitCheckCurrent
 7382              		.section	.text.VL53L0X_SetWrapAroundCheckEnable,"ax",%progbits
 7383              		.align	2
 7384              		.global	VL53L0X_SetWrapAroundCheckEnable
 7385              		.code	16
 7386              		.thumb_func
 7387              		.type	VL53L0X_SetWrapAroundCheckEnable, %function
 7388              	VL53L0X_SetWrapAroundCheckEnable:
 7389              	.LFB63:
1951:Api\core\src/vl53l0x_api.c **** 
1952:Api\core\src/vl53l0x_api.c **** /*
1953:Api\core\src/vl53l0x_api.c ****  * WRAPAROUND Check
1954:Api\core\src/vl53l0x_api.c ****  */
1955:Api\core\src/vl53l0x_api.c **** VL53L0X_Error VL53L0X_SetWrapAroundCheckEnable(VL53L0X_DEV Dev,
1956:Api\core\src/vl53l0x_api.c **** 	uint8_t WrapAroundCheckEnable)
1957:Api\core\src/vl53l0x_api.c **** {
 7390              		.loc 1 1957 0
 7391              		.cfi_startproc
 7392              		@ args = 0, pretend = 0, frame = 16
 7393              		@ frame_needed = 1, uses_anonymous_args = 0
 7394 0000 90B5     		push	{r4, r7, lr}
 7395              		.cfi_def_cfa_offset 12
 7396              		.cfi_offset 4, -12
 7397              		.cfi_offset 7, -8
 7398              		.cfi_offset 14, -4
 7399 0002 85B0     		sub	sp, sp, #20
 7400              		.cfi_def_cfa_offset 32
 7401 0004 00AF     		add	r7, sp, #0
 7402              		.cfi_def_cfa_register 7
 7403 0006 7860     		str	r0, [r7, #4]
 7404 0008 0A00     		movs	r2, r1
 7405 000a FB1C     		adds	r3, r7, #3
 7406 000c 1A70     		strb	r2, [r3]
1958:Api\core\src/vl53l0x_api.c **** 	VL53L0X_Error Status = VL53L0X_ERROR_NONE;
 7407              		.loc 1 1958 0
 7408 000e 0E23     		movs	r3, #14
 7409 0010 FB18     		adds	r3, r7, r3
 7410 0012 0022     		movs	r2, #0
 7411 0014 1A70     		strb	r2, [r3]
1959:Api\core\src/vl53l0x_api.c **** 	uint8_t Byte;
1960:Api\core\src/vl53l0x_api.c **** 	uint8_t WrapAroundCheckEnableInt;
1961:Api\core\src/vl53l0x_api.c **** 
1962:Api\core\src/vl53l0x_api.c **** 	LOG_FUNCTION_START("");
1963:Api\core\src/vl53l0x_api.c **** 
1964:Api\core\src/vl53l0x_api.c **** 	Status = VL53L0X_RdByte(Dev, VL53L0X_REG_SYSTEM_SEQUENCE_CONFIG, &Byte);
 7412              		.loc 1 1964 0
 7413 0016 0E23     		movs	r3, #14
 7414 0018 FC18     		adds	r4, r7, r3
 7415 001a 0D23     		movs	r3, #13
 7416 001c FA18     		adds	r2, r7, r3
 7417 001e 7B68     		ldr	r3, [r7, #4]
 7418 0020 0121     		movs	r1, #1
 7419 0022 1800     		movs	r0, r3
 7420 0024 FFF7FEFF 		bl	VL53L0X_RdByte
 7421 0028 0300     		movs	r3, r0
 7422 002a 2370     		strb	r3, [r4]
1965:Api\core\src/vl53l0x_api.c **** 	if (WrapAroundCheckEnable == 0) {
ARM GAS  C:\Users\ilya\AppData\Local\Temp\ccpEIuqL.s 			page 166


 7423              		.loc 1 1965 0
 7424 002c FB1C     		adds	r3, r7, #3
 7425 002e 1B78     		ldrb	r3, [r3]
 7426 0030 002B     		cmp	r3, #0
 7427 0032 0DD1     		bne	.L350
1966:Api\core\src/vl53l0x_api.c **** 		/* Disable wraparound */
1967:Api\core\src/vl53l0x_api.c **** 		Byte = Byte & 0x7F;
 7428              		.loc 1 1967 0
 7429 0034 0D23     		movs	r3, #13
 7430 0036 FB18     		adds	r3, r7, r3
 7431 0038 1B78     		ldrb	r3, [r3]
 7432 003a 7F22     		movs	r2, #127
 7433 003c 1340     		ands	r3, r2
 7434 003e DAB2     		uxtb	r2, r3
 7435 0040 0D23     		movs	r3, #13
 7436 0042 FB18     		adds	r3, r7, r3
 7437 0044 1A70     		strb	r2, [r3]
1968:Api\core\src/vl53l0x_api.c **** 		WrapAroundCheckEnableInt = 0;
 7438              		.loc 1 1968 0
 7439 0046 0F23     		movs	r3, #15
 7440 0048 FB18     		adds	r3, r7, r3
 7441 004a 0022     		movs	r2, #0
 7442 004c 1A70     		strb	r2, [r3]
 7443 004e 0DE0     		b	.L351
 7444              	.L350:
1969:Api\core\src/vl53l0x_api.c **** 	} else {
1970:Api\core\src/vl53l0x_api.c **** 		/*Enable wraparound */
1971:Api\core\src/vl53l0x_api.c **** 		Byte = Byte | 0x80;
 7445              		.loc 1 1971 0
 7446 0050 0D23     		movs	r3, #13
 7447 0052 FB18     		adds	r3, r7, r3
 7448 0054 1B78     		ldrb	r3, [r3]
 7449 0056 8022     		movs	r2, #128
 7450 0058 5242     		rsbs	r2, r2, #0
 7451 005a 1343     		orrs	r3, r2
 7452 005c DAB2     		uxtb	r2, r3
 7453 005e 0D23     		movs	r3, #13
 7454 0060 FB18     		adds	r3, r7, r3
 7455 0062 1A70     		strb	r2, [r3]
1972:Api\core\src/vl53l0x_api.c **** 		WrapAroundCheckEnableInt = 1;
 7456              		.loc 1 1972 0
 7457 0064 0F23     		movs	r3, #15
 7458 0066 FB18     		adds	r3, r7, r3
 7459 0068 0122     		movs	r2, #1
 7460 006a 1A70     		strb	r2, [r3]
 7461              	.L351:
1973:Api\core\src/vl53l0x_api.c **** 	}
1974:Api\core\src/vl53l0x_api.c **** 
1975:Api\core\src/vl53l0x_api.c **** 	Status = VL53L0X_WrByte(Dev, VL53L0X_REG_SYSTEM_SEQUENCE_CONFIG, Byte);
 7462              		.loc 1 1975 0
 7463 006c 0D23     		movs	r3, #13
 7464 006e FB18     		adds	r3, r7, r3
 7465 0070 1A78     		ldrb	r2, [r3]
 7466 0072 0E23     		movs	r3, #14
 7467 0074 FC18     		adds	r4, r7, r3
 7468 0076 7B68     		ldr	r3, [r7, #4]
 7469 0078 0121     		movs	r1, #1
ARM GAS  C:\Users\ilya\AppData\Local\Temp\ccpEIuqL.s 			page 167


 7470 007a 1800     		movs	r0, r3
 7471 007c FFF7FEFF 		bl	VL53L0X_WrByte
 7472 0080 0300     		movs	r3, r0
 7473 0082 2370     		strb	r3, [r4]
1976:Api\core\src/vl53l0x_api.c **** 
1977:Api\core\src/vl53l0x_api.c **** 	if (Status == VL53L0X_ERROR_NONE) {
 7474              		.loc 1 1977 0
 7475 0084 0E23     		movs	r3, #14
 7476 0086 FB18     		adds	r3, r7, r3
 7477 0088 1B78     		ldrb	r3, [r3]
 7478 008a 5BB2     		sxtb	r3, r3
 7479 008c 002B     		cmp	r3, #0
 7480 008e 0CD1     		bne	.L352
1978:Api\core\src/vl53l0x_api.c **** 		PALDevDataSet(Dev, SequenceConfig, Byte);
 7481              		.loc 1 1978 0
 7482 0090 0D23     		movs	r3, #13
 7483 0092 FB18     		adds	r3, r7, r3
 7484 0094 1978     		ldrb	r1, [r3]
 7485 0096 7A68     		ldr	r2, [r7, #4]
 7486 0098 9823     		movs	r3, #152
 7487 009a 5B00     		lsls	r3, r3, #1
 7488 009c D154     		strb	r1, [r2, r3]
1979:Api\core\src/vl53l0x_api.c **** 		VL53L0X_SETPARAMETERFIELD(Dev, WrapAroundCheckEnable,
 7489              		.loc 1 1979 0
 7490 009e 7B68     		ldr	r3, [r7, #4]
 7491 00a0 0F22     		movs	r2, #15
 7492 00a2 BA18     		adds	r2, r7, r2
 7493 00a4 4C21     		movs	r1, #76
 7494 00a6 1278     		ldrb	r2, [r2]
 7495 00a8 5A54     		strb	r2, [r3, r1]
 7496              	.L352:
1980:Api\core\src/vl53l0x_api.c **** 			WrapAroundCheckEnableInt);
1981:Api\core\src/vl53l0x_api.c **** 	}
1982:Api\core\src/vl53l0x_api.c **** 
1983:Api\core\src/vl53l0x_api.c **** 	LOG_FUNCTION_END(Status);
1984:Api\core\src/vl53l0x_api.c **** 	return Status;
 7497              		.loc 1 1984 0
 7498 00aa 0E23     		movs	r3, #14
 7499 00ac FB18     		adds	r3, r7, r3
 7500 00ae 1B78     		ldrb	r3, [r3]
 7501 00b0 5BB2     		sxtb	r3, r3
1985:Api\core\src/vl53l0x_api.c **** }
 7502              		.loc 1 1985 0
 7503 00b2 1800     		movs	r0, r3
 7504 00b4 BD46     		mov	sp, r7
 7505 00b6 05B0     		add	sp, sp, #20
 7506              		@ sp needed
 7507 00b8 90BD     		pop	{r4, r7, pc}
 7508              		.cfi_endproc
 7509              	.LFE63:
 7510              		.size	VL53L0X_SetWrapAroundCheckEnable, .-VL53L0X_SetWrapAroundCheckEnable
 7511 00ba C046     		.section	.text.VL53L0X_GetWrapAroundCheckEnable,"ax",%progbits
 7512              		.align	2
 7513              		.global	VL53L0X_GetWrapAroundCheckEnable
 7514              		.code	16
 7515              		.thumb_func
 7516              		.type	VL53L0X_GetWrapAroundCheckEnable, %function
ARM GAS  C:\Users\ilya\AppData\Local\Temp\ccpEIuqL.s 			page 168


 7517              	VL53L0X_GetWrapAroundCheckEnable:
 7518              	.LFB64:
1986:Api\core\src/vl53l0x_api.c **** 
1987:Api\core\src/vl53l0x_api.c **** VL53L0X_Error VL53L0X_GetWrapAroundCheckEnable(VL53L0X_DEV Dev,
1988:Api\core\src/vl53l0x_api.c **** 	uint8_t *pWrapAroundCheckEnable)
1989:Api\core\src/vl53l0x_api.c **** {
 7519              		.loc 1 1989 0
 7520              		.cfi_startproc
 7521              		@ args = 0, pretend = 0, frame = 16
 7522              		@ frame_needed = 1, uses_anonymous_args = 0
 7523 0000 90B5     		push	{r4, r7, lr}
 7524              		.cfi_def_cfa_offset 12
 7525              		.cfi_offset 4, -12
 7526              		.cfi_offset 7, -8
 7527              		.cfi_offset 14, -4
 7528 0002 85B0     		sub	sp, sp, #20
 7529              		.cfi_def_cfa_offset 32
 7530 0004 00AF     		add	r7, sp, #0
 7531              		.cfi_def_cfa_register 7
 7532 0006 7860     		str	r0, [r7, #4]
 7533 0008 3960     		str	r1, [r7]
1990:Api\core\src/vl53l0x_api.c **** 	VL53L0X_Error Status = VL53L0X_ERROR_NONE;
 7534              		.loc 1 1990 0
 7535 000a 0F23     		movs	r3, #15
 7536 000c FB18     		adds	r3, r7, r3
 7537 000e 0022     		movs	r2, #0
 7538 0010 1A70     		strb	r2, [r3]
1991:Api\core\src/vl53l0x_api.c **** 	uint8_t data;
1992:Api\core\src/vl53l0x_api.c **** 
1993:Api\core\src/vl53l0x_api.c **** 	LOG_FUNCTION_START("");
1994:Api\core\src/vl53l0x_api.c **** 
1995:Api\core\src/vl53l0x_api.c **** 	Status = VL53L0X_RdByte(Dev, VL53L0X_REG_SYSTEM_SEQUENCE_CONFIG, &data);
 7539              		.loc 1 1995 0
 7540 0012 0F23     		movs	r3, #15
 7541 0014 FC18     		adds	r4, r7, r3
 7542 0016 0E23     		movs	r3, #14
 7543 0018 FA18     		adds	r2, r7, r3
 7544 001a 7B68     		ldr	r3, [r7, #4]
 7545 001c 0121     		movs	r1, #1
 7546 001e 1800     		movs	r0, r3
 7547 0020 FFF7FEFF 		bl	VL53L0X_RdByte
 7548 0024 0300     		movs	r3, r0
 7549 0026 2370     		strb	r3, [r4]
1996:Api\core\src/vl53l0x_api.c **** 	if (Status == VL53L0X_ERROR_NONE) {
 7550              		.loc 1 1996 0
 7551 0028 0F23     		movs	r3, #15
 7552 002a FB18     		adds	r3, r7, r3
 7553 002c 1B78     		ldrb	r3, [r3]
 7554 002e 5BB2     		sxtb	r3, r3
 7555 0030 002B     		cmp	r3, #0
 7556 0032 13D1     		bne	.L355
1997:Api\core\src/vl53l0x_api.c **** 		PALDevDataSet(Dev, SequenceConfig, data);
 7557              		.loc 1 1997 0
 7558 0034 0E23     		movs	r3, #14
 7559 0036 FB18     		adds	r3, r7, r3
 7560 0038 1978     		ldrb	r1, [r3]
 7561 003a 7A68     		ldr	r2, [r7, #4]
ARM GAS  C:\Users\ilya\AppData\Local\Temp\ccpEIuqL.s 			page 169


 7562 003c 9823     		movs	r3, #152
 7563 003e 5B00     		lsls	r3, r3, #1
 7564 0040 D154     		strb	r1, [r2, r3]
1998:Api\core\src/vl53l0x_api.c **** 		if (data & (0x01 << 7))
 7565              		.loc 1 1998 0
 7566 0042 0E23     		movs	r3, #14
 7567 0044 FB18     		adds	r3, r7, r3
 7568 0046 1B78     		ldrb	r3, [r3]
 7569 0048 5BB2     		sxtb	r3, r3
 7570 004a 002B     		cmp	r3, #0
 7571 004c 03DA     		bge	.L356
1999:Api\core\src/vl53l0x_api.c **** 			*pWrapAroundCheckEnable = 0x01;
 7572              		.loc 1 1999 0
 7573 004e 3B68     		ldr	r3, [r7]
 7574 0050 0122     		movs	r2, #1
 7575 0052 1A70     		strb	r2, [r3]
 7576 0054 02E0     		b	.L355
 7577              	.L356:
2000:Api\core\src/vl53l0x_api.c **** 		else
2001:Api\core\src/vl53l0x_api.c **** 			*pWrapAroundCheckEnable = 0x00;
 7578              		.loc 1 2001 0
 7579 0056 3B68     		ldr	r3, [r7]
 7580 0058 0022     		movs	r2, #0
 7581 005a 1A70     		strb	r2, [r3]
 7582              	.L355:
2002:Api\core\src/vl53l0x_api.c **** 	}
2003:Api\core\src/vl53l0x_api.c **** 	if (Status == VL53L0X_ERROR_NONE) {
 7583              		.loc 1 2003 0
 7584 005c 0F23     		movs	r3, #15
 7585 005e FB18     		adds	r3, r7, r3
 7586 0060 1B78     		ldrb	r3, [r3]
 7587 0062 5BB2     		sxtb	r3, r3
 7588 0064 002B     		cmp	r3, #0
 7589 0066 04D1     		bne	.L357
2004:Api\core\src/vl53l0x_api.c **** 		VL53L0X_SETPARAMETERFIELD(Dev, WrapAroundCheckEnable,
 7590              		.loc 1 2004 0
 7591 0068 3B68     		ldr	r3, [r7]
 7592 006a 1978     		ldrb	r1, [r3]
 7593 006c 7B68     		ldr	r3, [r7, #4]
 7594 006e 4C22     		movs	r2, #76
 7595 0070 9954     		strb	r1, [r3, r2]
 7596              	.L357:
2005:Api\core\src/vl53l0x_api.c **** 			*pWrapAroundCheckEnable);
2006:Api\core\src/vl53l0x_api.c **** 	}
2007:Api\core\src/vl53l0x_api.c **** 
2008:Api\core\src/vl53l0x_api.c **** 	LOG_FUNCTION_END(Status);
2009:Api\core\src/vl53l0x_api.c **** 	return Status;
 7597              		.loc 1 2009 0
 7598 0072 0F23     		movs	r3, #15
 7599 0074 FB18     		adds	r3, r7, r3
 7600 0076 1B78     		ldrb	r3, [r3]
 7601 0078 5BB2     		sxtb	r3, r3
2010:Api\core\src/vl53l0x_api.c **** }
 7602              		.loc 1 2010 0
 7603 007a 1800     		movs	r0, r3
 7604 007c BD46     		mov	sp, r7
 7605 007e 05B0     		add	sp, sp, #20
ARM GAS  C:\Users\ilya\AppData\Local\Temp\ccpEIuqL.s 			page 170


 7606              		@ sp needed
 7607 0080 90BD     		pop	{r4, r7, pc}
 7608              		.cfi_endproc
 7609              	.LFE64:
 7610              		.size	VL53L0X_GetWrapAroundCheckEnable, .-VL53L0X_GetWrapAroundCheckEnable
 7611 0082 C046     		.section	.text.VL53L0X_SetDmaxCalParameters,"ax",%progbits
 7612              		.align	2
 7613              		.global	VL53L0X_SetDmaxCalParameters
 7614              		.code	16
 7615              		.thumb_func
 7616              		.type	VL53L0X_SetDmaxCalParameters, %function
 7617              	VL53L0X_SetDmaxCalParameters:
 7618              	.LFB65:
2011:Api\core\src/vl53l0x_api.c **** 
2012:Api\core\src/vl53l0x_api.c **** VL53L0X_Error VL53L0X_SetDmaxCalParameters(VL53L0X_DEV Dev,
2013:Api\core\src/vl53l0x_api.c **** 	uint16_t RangeMilliMeter, FixPoint1616_t SignalRateRtnMegaCps)
2014:Api\core\src/vl53l0x_api.c **** {
 7619              		.loc 1 2014 0
 7620              		.cfi_startproc
 7621              		@ args = 0, pretend = 0, frame = 24
 7622              		@ frame_needed = 1, uses_anonymous_args = 0
 7623 0000 80B5     		push	{r7, lr}
 7624              		.cfi_def_cfa_offset 8
 7625              		.cfi_offset 7, -8
 7626              		.cfi_offset 14, -4
 7627 0002 86B0     		sub	sp, sp, #24
 7628              		.cfi_def_cfa_offset 32
 7629 0004 00AF     		add	r7, sp, #0
 7630              		.cfi_def_cfa_register 7
 7631 0006 F860     		str	r0, [r7, #12]
 7632 0008 7A60     		str	r2, [r7, #4]
 7633 000a 0A23     		movs	r3, #10
 7634 000c FB18     		adds	r3, r7, r3
 7635 000e 0A1C     		adds	r2, r1, #0
 7636 0010 1A80     		strh	r2, [r3]
2015:Api\core\src/vl53l0x_api.c **** 	VL53L0X_Error Status = VL53L0X_ERROR_NONE;
 7637              		.loc 1 2015 0
 7638 0012 1723     		movs	r3, #23
 7639 0014 FB18     		adds	r3, r7, r3
 7640 0016 0022     		movs	r2, #0
 7641 0018 1A70     		strb	r2, [r3]
2016:Api\core\src/vl53l0x_api.c **** 	FixPoint1616_t SignalRateRtnMegaCpsTemp = 0;
 7642              		.loc 1 2016 0
 7643 001a 0023     		movs	r3, #0
 7644 001c 3B61     		str	r3, [r7, #16]
2017:Api\core\src/vl53l0x_api.c **** 
2018:Api\core\src/vl53l0x_api.c **** 	LOG_FUNCTION_START("");
2019:Api\core\src/vl53l0x_api.c **** 
2020:Api\core\src/vl53l0x_api.c **** 	/* Check if one of input parameter is zero, in that case the
2021:Api\core\src/vl53l0x_api.c **** 	 * value are get from NVM */
2022:Api\core\src/vl53l0x_api.c **** 	if ((RangeMilliMeter == 0) || (SignalRateRtnMegaCps == 0)) {
 7645              		.loc 1 2022 0
 7646 001e 0A23     		movs	r3, #10
 7647 0020 FB18     		adds	r3, r7, r3
 7648 0022 1B88     		ldrh	r3, [r3]
 7649 0024 002B     		cmp	r3, #0
 7650 0026 02D0     		beq	.L360
ARM GAS  C:\Users\ilya\AppData\Local\Temp\ccpEIuqL.s 			page 171


 7651              		.loc 1 2022 0 is_stmt 0 discriminator 1
 7652 0028 7B68     		ldr	r3, [r7, #4]
 7653 002a 002B     		cmp	r3, #0
 7654 002c 15D1     		bne	.L361
 7655              	.L360:
2023:Api\core\src/vl53l0x_api.c **** 		/* NVM parameters */
2024:Api\core\src/vl53l0x_api.c **** 		/* Run VL53L0X_get_info_from_device wit option 4 to get
2025:Api\core\src/vl53l0x_api.c **** 		 * signal rate at 400 mm if the value have been already
2026:Api\core\src/vl53l0x_api.c **** 		 * get this function will return with no access to device */
2027:Api\core\src/vl53l0x_api.c **** 		VL53L0X_get_info_from_device(Dev, 4);
 7656              		.loc 1 2027 0 is_stmt 1
 7657 002e FB68     		ldr	r3, [r7, #12]
 7658 0030 0421     		movs	r1, #4
 7659 0032 1800     		movs	r0, r3
 7660 0034 FFF7FEFF 		bl	VL53L0X_get_info_from_device
2028:Api\core\src/vl53l0x_api.c **** 
2029:Api\core\src/vl53l0x_api.c **** 		SignalRateRtnMegaCpsTemp = VL53L0X_GETDEVICESPECIFICPARAMETER(
 7661              		.loc 1 2029 0
 7662 0038 FA68     		ldr	r2, [r7, #12]
 7663 003a 9023     		movs	r3, #144
 7664 003c 5B00     		lsls	r3, r3, #1
 7665 003e D358     		ldr	r3, [r2, r3]
 7666 0040 3B61     		str	r3, [r7, #16]
2030:Api\core\src/vl53l0x_api.c **** 			Dev, SignalRateMeasFixed400mm);
2031:Api\core\src/vl53l0x_api.c **** 
2032:Api\core\src/vl53l0x_api.c **** 		PALDevDataSet(Dev, DmaxCalRangeMilliMeter, 400);
 7667              		.loc 1 2032 0
 7668 0042 FA68     		ldr	r2, [r7, #12]
 7669 0044 AA23     		movs	r3, #170
 7670 0046 5B00     		lsls	r3, r3, #1
 7671 0048 C821     		movs	r1, #200
 7672 004a 4900     		lsls	r1, r1, #1
 7673 004c D152     		strh	r1, [r2, r3]
2033:Api\core\src/vl53l0x_api.c **** 		PALDevDataSet(Dev, DmaxCalSignalRateRtnMegaCps,
 7674              		.loc 1 2033 0
 7675 004e FA68     		ldr	r2, [r7, #12]
 7676 0050 AC23     		movs	r3, #172
 7677 0052 5B00     		lsls	r3, r3, #1
 7678 0054 3969     		ldr	r1, [r7, #16]
 7679 0056 D150     		str	r1, [r2, r3]
 7680 0058 0BE0     		b	.L362
 7681              	.L361:
2034:Api\core\src/vl53l0x_api.c **** 			SignalRateRtnMegaCpsTemp);
2035:Api\core\src/vl53l0x_api.c **** 	} else {
2036:Api\core\src/vl53l0x_api.c **** 		/* User parameters */
2037:Api\core\src/vl53l0x_api.c **** 		PALDevDataSet(Dev, DmaxCalRangeMilliMeter, RangeMilliMeter);
 7682              		.loc 1 2037 0
 7683 005a FA68     		ldr	r2, [r7, #12]
 7684 005c 0A23     		movs	r3, #10
 7685 005e F918     		adds	r1, r7, r3
 7686 0060 AA23     		movs	r3, #170
 7687 0062 5B00     		lsls	r3, r3, #1
 7688 0064 0988     		ldrh	r1, [r1]
 7689 0066 D152     		strh	r1, [r2, r3]
2038:Api\core\src/vl53l0x_api.c **** 		PALDevDataSet(Dev, DmaxCalSignalRateRtnMegaCps,
 7690              		.loc 1 2038 0
 7691 0068 FA68     		ldr	r2, [r7, #12]
ARM GAS  C:\Users\ilya\AppData\Local\Temp\ccpEIuqL.s 			page 172


 7692 006a AC23     		movs	r3, #172
 7693 006c 5B00     		lsls	r3, r3, #1
 7694 006e 7968     		ldr	r1, [r7, #4]
 7695 0070 D150     		str	r1, [r2, r3]
 7696              	.L362:
2039:Api\core\src/vl53l0x_api.c **** 			SignalRateRtnMegaCps);
2040:Api\core\src/vl53l0x_api.c **** 	}
2041:Api\core\src/vl53l0x_api.c **** 
2042:Api\core\src/vl53l0x_api.c **** 	LOG_FUNCTION_END(Status);
2043:Api\core\src/vl53l0x_api.c **** 	return Status;
 7697              		.loc 1 2043 0
 7698 0072 1723     		movs	r3, #23
 7699 0074 FB18     		adds	r3, r7, r3
 7700 0076 1B78     		ldrb	r3, [r3]
 7701 0078 5BB2     		sxtb	r3, r3
2044:Api\core\src/vl53l0x_api.c **** }
 7702              		.loc 1 2044 0
 7703 007a 1800     		movs	r0, r3
 7704 007c BD46     		mov	sp, r7
 7705 007e 06B0     		add	sp, sp, #24
 7706              		@ sp needed
 7707 0080 80BD     		pop	{r7, pc}
 7708              		.cfi_endproc
 7709              	.LFE65:
 7710              		.size	VL53L0X_SetDmaxCalParameters, .-VL53L0X_SetDmaxCalParameters
 7711 0082 C046     		.section	.text.VL53L0X_GetDmaxCalParameters,"ax",%progbits
 7712              		.align	2
 7713              		.global	VL53L0X_GetDmaxCalParameters
 7714              		.code	16
 7715              		.thumb_func
 7716              		.type	VL53L0X_GetDmaxCalParameters, %function
 7717              	VL53L0X_GetDmaxCalParameters:
 7718              	.LFB66:
2045:Api\core\src/vl53l0x_api.c **** 
2046:Api\core\src/vl53l0x_api.c **** VL53L0X_Error VL53L0X_GetDmaxCalParameters(VL53L0X_DEV Dev,
2047:Api\core\src/vl53l0x_api.c **** 	uint16_t *pRangeMilliMeter, FixPoint1616_t *pSignalRateRtnMegaCps)
2048:Api\core\src/vl53l0x_api.c **** {
 7719              		.loc 1 2048 0
 7720              		.cfi_startproc
 7721              		@ args = 0, pretend = 0, frame = 24
 7722              		@ frame_needed = 1, uses_anonymous_args = 0
 7723 0000 80B5     		push	{r7, lr}
 7724              		.cfi_def_cfa_offset 8
 7725              		.cfi_offset 7, -8
 7726              		.cfi_offset 14, -4
 7727 0002 86B0     		sub	sp, sp, #24
 7728              		.cfi_def_cfa_offset 32
 7729 0004 00AF     		add	r7, sp, #0
 7730              		.cfi_def_cfa_register 7
 7731 0006 F860     		str	r0, [r7, #12]
 7732 0008 B960     		str	r1, [r7, #8]
 7733 000a 7A60     		str	r2, [r7, #4]
2049:Api\core\src/vl53l0x_api.c **** 	VL53L0X_Error Status = VL53L0X_ERROR_NONE;
 7734              		.loc 1 2049 0
 7735 000c 1723     		movs	r3, #23
 7736 000e FB18     		adds	r3, r7, r3
 7737 0010 0022     		movs	r2, #0
ARM GAS  C:\Users\ilya\AppData\Local\Temp\ccpEIuqL.s 			page 173


 7738 0012 1A70     		strb	r2, [r3]
2050:Api\core\src/vl53l0x_api.c **** 
2051:Api\core\src/vl53l0x_api.c **** 	LOG_FUNCTION_START("");
2052:Api\core\src/vl53l0x_api.c **** 
2053:Api\core\src/vl53l0x_api.c **** 	*pRangeMilliMeter = PALDevDataGet(Dev, DmaxCalRangeMilliMeter);
 7739              		.loc 1 2053 0
 7740 0014 FA68     		ldr	r2, [r7, #12]
 7741 0016 AA23     		movs	r3, #170
 7742 0018 5B00     		lsls	r3, r3, #1
 7743 001a D25A     		ldrh	r2, [r2, r3]
 7744 001c BB68     		ldr	r3, [r7, #8]
 7745 001e 1A80     		strh	r2, [r3]
2054:Api\core\src/vl53l0x_api.c **** 	*pSignalRateRtnMegaCps = PALDevDataGet(Dev,
 7746              		.loc 1 2054 0
 7747 0020 FA68     		ldr	r2, [r7, #12]
 7748 0022 AC23     		movs	r3, #172
 7749 0024 5B00     		lsls	r3, r3, #1
 7750 0026 D258     		ldr	r2, [r2, r3]
 7751 0028 7B68     		ldr	r3, [r7, #4]
 7752 002a 1A60     		str	r2, [r3]
2055:Api\core\src/vl53l0x_api.c **** 		DmaxCalSignalRateRtnMegaCps);
2056:Api\core\src/vl53l0x_api.c **** 
2057:Api\core\src/vl53l0x_api.c **** 	LOG_FUNCTION_END(Status);
2058:Api\core\src/vl53l0x_api.c **** 	return Status;
 7753              		.loc 1 2058 0
 7754 002c 1723     		movs	r3, #23
 7755 002e FB18     		adds	r3, r7, r3
 7756 0030 1B78     		ldrb	r3, [r3]
 7757 0032 5BB2     		sxtb	r3, r3
2059:Api\core\src/vl53l0x_api.c **** }
 7758              		.loc 1 2059 0
 7759 0034 1800     		movs	r0, r3
 7760 0036 BD46     		mov	sp, r7
 7761 0038 06B0     		add	sp, sp, #24
 7762              		@ sp needed
 7763 003a 80BD     		pop	{r7, pc}
 7764              		.cfi_endproc
 7765              	.LFE66:
 7766              		.size	VL53L0X_GetDmaxCalParameters, .-VL53L0X_GetDmaxCalParameters
 7767              		.section	.text.VL53L0X_PerformSingleMeasurement,"ax",%progbits
 7768              		.align	2
 7769              		.global	VL53L0X_PerformSingleMeasurement
 7770              		.code	16
 7771              		.thumb_func
 7772              		.type	VL53L0X_PerformSingleMeasurement, %function
 7773              	VL53L0X_PerformSingleMeasurement:
 7774              	.LFB67:
2060:Api\core\src/vl53l0x_api.c **** 
2061:Api\core\src/vl53l0x_api.c **** /* End Group PAL Parameters Functions */
2062:Api\core\src/vl53l0x_api.c **** 
2063:Api\core\src/vl53l0x_api.c **** /* Group PAL Measurement Functions */
2064:Api\core\src/vl53l0x_api.c **** VL53L0X_Error VL53L0X_PerformSingleMeasurement(VL53L0X_DEV Dev)
2065:Api\core\src/vl53l0x_api.c **** {
 7775              		.loc 1 2065 0
 7776              		.cfi_startproc
 7777              		@ args = 0, pretend = 0, frame = 16
 7778              		@ frame_needed = 1, uses_anonymous_args = 0
ARM GAS  C:\Users\ilya\AppData\Local\Temp\ccpEIuqL.s 			page 174


 7779 0000 90B5     		push	{r4, r7, lr}
 7780              		.cfi_def_cfa_offset 12
 7781              		.cfi_offset 4, -12
 7782              		.cfi_offset 7, -8
 7783              		.cfi_offset 14, -4
 7784 0002 85B0     		sub	sp, sp, #20
 7785              		.cfi_def_cfa_offset 32
 7786 0004 00AF     		add	r7, sp, #0
 7787              		.cfi_def_cfa_register 7
 7788 0006 7860     		str	r0, [r7, #4]
2066:Api\core\src/vl53l0x_api.c **** 	VL53L0X_Error Status = VL53L0X_ERROR_NONE;
 7789              		.loc 1 2066 0
 7790 0008 0F23     		movs	r3, #15
 7791 000a FB18     		adds	r3, r7, r3
 7792 000c 0022     		movs	r2, #0
 7793 000e 1A70     		strb	r2, [r3]
2067:Api\core\src/vl53l0x_api.c **** 	VL53L0X_DeviceModes DeviceMode;
2068:Api\core\src/vl53l0x_api.c **** 
2069:Api\core\src/vl53l0x_api.c **** 	LOG_FUNCTION_START("");
2070:Api\core\src/vl53l0x_api.c **** 
2071:Api\core\src/vl53l0x_api.c **** 	/* Get Current DeviceMode */
2072:Api\core\src/vl53l0x_api.c **** 	Status = VL53L0X_GetDeviceMode(Dev, &DeviceMode);
 7794              		.loc 1 2072 0
 7795 0010 0F23     		movs	r3, #15
 7796 0012 FC18     		adds	r4, r7, r3
 7797 0014 0E23     		movs	r3, #14
 7798 0016 FA18     		adds	r2, r7, r3
 7799 0018 7B68     		ldr	r3, [r7, #4]
 7800 001a 1100     		movs	r1, r2
 7801 001c 1800     		movs	r0, r3
 7802 001e FFF7FEFF 		bl	VL53L0X_GetDeviceMode
 7803 0022 0300     		movs	r3, r0
 7804 0024 2370     		strb	r3, [r4]
2073:Api\core\src/vl53l0x_api.c **** 
2074:Api\core\src/vl53l0x_api.c **** 	/* Start immediately to run a single ranging measurement in case of
2075:Api\core\src/vl53l0x_api.c **** 	 * single ranging or single histogram */
2076:Api\core\src/vl53l0x_api.c **** 	if (Status == VL53L0X_ERROR_NONE
 7805              		.loc 1 2076 0
 7806 0026 0F23     		movs	r3, #15
 7807 0028 FB18     		adds	r3, r7, r3
 7808 002a 1B78     		ldrb	r3, [r3]
 7809 002c 5BB2     		sxtb	r3, r3
 7810 002e 002B     		cmp	r3, #0
 7811 0030 0CD1     		bne	.L367
2077:Api\core\src/vl53l0x_api.c **** 		&& DeviceMode == VL53L0X_DEVICEMODE_SINGLE_RANGING)
 7812              		.loc 1 2077 0
 7813 0032 0E23     		movs	r3, #14
 7814 0034 FB18     		adds	r3, r7, r3
 7815 0036 1B78     		ldrb	r3, [r3]
 7816 0038 002B     		cmp	r3, #0
 7817 003a 07D1     		bne	.L367
2078:Api\core\src/vl53l0x_api.c **** 		Status = VL53L0X_StartMeasurement(Dev);
 7818              		.loc 1 2078 0
 7819 003c 0F23     		movs	r3, #15
 7820 003e FC18     		adds	r4, r7, r3
 7821 0040 7B68     		ldr	r3, [r7, #4]
 7822 0042 1800     		movs	r0, r3
ARM GAS  C:\Users\ilya\AppData\Local\Temp\ccpEIuqL.s 			page 175


 7823 0044 FFF7FEFF 		bl	VL53L0X_StartMeasurement
 7824 0048 0300     		movs	r3, r0
 7825 004a 2370     		strb	r3, [r4]
 7826              	.L367:
2079:Api\core\src/vl53l0x_api.c **** 
2080:Api\core\src/vl53l0x_api.c **** 
2081:Api\core\src/vl53l0x_api.c **** 	if (Status == VL53L0X_ERROR_NONE)
 7827              		.loc 1 2081 0
 7828 004c 0F23     		movs	r3, #15
 7829 004e FB18     		adds	r3, r7, r3
 7830 0050 1B78     		ldrb	r3, [r3]
 7831 0052 5BB2     		sxtb	r3, r3
 7832 0054 002B     		cmp	r3, #0
 7833 0056 07D1     		bne	.L368
2082:Api\core\src/vl53l0x_api.c **** 		Status = VL53L0X_measurement_poll_for_completion(Dev);
 7834              		.loc 1 2082 0
 7835 0058 0F23     		movs	r3, #15
 7836 005a FC18     		adds	r4, r7, r3
 7837 005c 7B68     		ldr	r3, [r7, #4]
 7838 005e 1800     		movs	r0, r3
 7839 0060 FFF7FEFF 		bl	VL53L0X_measurement_poll_for_completion
 7840 0064 0300     		movs	r3, r0
 7841 0066 2370     		strb	r3, [r4]
 7842              	.L368:
2083:Api\core\src/vl53l0x_api.c **** 
2084:Api\core\src/vl53l0x_api.c **** 
2085:Api\core\src/vl53l0x_api.c **** 	/* Change PAL State in case of single ranging or single histogram */
2086:Api\core\src/vl53l0x_api.c **** 	if (Status == VL53L0X_ERROR_NONE
 7843              		.loc 1 2086 0
 7844 0068 0F23     		movs	r3, #15
 7845 006a FB18     		adds	r3, r7, r3
 7846 006c 1B78     		ldrb	r3, [r3]
 7847 006e 5BB2     		sxtb	r3, r3
 7848 0070 002B     		cmp	r3, #0
 7849 0072 09D1     		bne	.L369
2087:Api\core\src/vl53l0x_api.c **** 		&& DeviceMode == VL53L0X_DEVICEMODE_SINGLE_RANGING)
 7850              		.loc 1 2087 0
 7851 0074 0E23     		movs	r3, #14
 7852 0076 FB18     		adds	r3, r7, r3
 7853 0078 1B78     		ldrb	r3, [r3]
 7854 007a 002B     		cmp	r3, #0
 7855 007c 04D1     		bne	.L369
2088:Api\core\src/vl53l0x_api.c **** 		PALDevDataSet(Dev, PalState, VL53L0X_STATE_IDLE);
 7856              		.loc 1 2088 0
 7857 007e 7A68     		ldr	r2, [r7, #4]
 7858 0080 9923     		movs	r3, #153
 7859 0082 5B00     		lsls	r3, r3, #1
 7860 0084 0321     		movs	r1, #3
 7861 0086 D154     		strb	r1, [r2, r3]
 7862              	.L369:
2089:Api\core\src/vl53l0x_api.c **** 
2090:Api\core\src/vl53l0x_api.c **** 
2091:Api\core\src/vl53l0x_api.c **** 	LOG_FUNCTION_END(Status);
2092:Api\core\src/vl53l0x_api.c **** 	return Status;
 7863              		.loc 1 2092 0
 7864 0088 0F23     		movs	r3, #15
 7865 008a FB18     		adds	r3, r7, r3
ARM GAS  C:\Users\ilya\AppData\Local\Temp\ccpEIuqL.s 			page 176


 7866 008c 1B78     		ldrb	r3, [r3]
 7867 008e 5BB2     		sxtb	r3, r3
2093:Api\core\src/vl53l0x_api.c **** }
 7868              		.loc 1 2093 0
 7869 0090 1800     		movs	r0, r3
 7870 0092 BD46     		mov	sp, r7
 7871 0094 05B0     		add	sp, sp, #20
 7872              		@ sp needed
 7873 0096 90BD     		pop	{r4, r7, pc}
 7874              		.cfi_endproc
 7875              	.LFE67:
 7876              		.size	VL53L0X_PerformSingleMeasurement, .-VL53L0X_PerformSingleMeasurement
 7877              		.section	.text.VL53L0X_PerformSingleHistogramMeasurement,"ax",%progbits
 7878              		.align	2
 7879              		.global	VL53L0X_PerformSingleHistogramMeasurement
 7880              		.code	16
 7881              		.thumb_func
 7882              		.type	VL53L0X_PerformSingleHistogramMeasurement, %function
 7883              	VL53L0X_PerformSingleHistogramMeasurement:
 7884              	.LFB68:
2094:Api\core\src/vl53l0x_api.c **** 
2095:Api\core\src/vl53l0x_api.c **** VL53L0X_Error VL53L0X_PerformSingleHistogramMeasurement(VL53L0X_DEV Dev,
2096:Api\core\src/vl53l0x_api.c **** 	VL53L0X_HistogramMeasurementData_t *pHistogramMeasurementData)
2097:Api\core\src/vl53l0x_api.c **** {
 7885              		.loc 1 2097 0
 7886              		.cfi_startproc
 7887              		@ args = 0, pretend = 0, frame = 16
 7888              		@ frame_needed = 1, uses_anonymous_args = 0
 7889 0000 80B5     		push	{r7, lr}
 7890              		.cfi_def_cfa_offset 8
 7891              		.cfi_offset 7, -8
 7892              		.cfi_offset 14, -4
 7893 0002 84B0     		sub	sp, sp, #16
 7894              		.cfi_def_cfa_offset 24
 7895 0004 00AF     		add	r7, sp, #0
 7896              		.cfi_def_cfa_register 7
 7897 0006 7860     		str	r0, [r7, #4]
 7898 0008 3960     		str	r1, [r7]
2098:Api\core\src/vl53l0x_api.c **** 	VL53L0X_Error Status = VL53L0X_ERROR_NOT_IMPLEMENTED;
 7899              		.loc 1 2098 0
 7900 000a 0F23     		movs	r3, #15
 7901 000c FB18     		adds	r3, r7, r3
 7902 000e 9D22     		movs	r2, #157
 7903 0010 1A70     		strb	r2, [r3]
2099:Api\core\src/vl53l0x_api.c **** 	LOG_FUNCTION_START("");
2100:Api\core\src/vl53l0x_api.c **** 
2101:Api\core\src/vl53l0x_api.c **** 	/* not implemented on VL53L0X */
2102:Api\core\src/vl53l0x_api.c **** 
2103:Api\core\src/vl53l0x_api.c **** 	LOG_FUNCTION_END(Status);
2104:Api\core\src/vl53l0x_api.c **** 	return Status;
 7904              		.loc 1 2104 0
 7905 0012 0F23     		movs	r3, #15
 7906 0014 FB18     		adds	r3, r7, r3
 7907 0016 1B78     		ldrb	r3, [r3]
 7908 0018 5BB2     		sxtb	r3, r3
2105:Api\core\src/vl53l0x_api.c **** }
 7909              		.loc 1 2105 0
ARM GAS  C:\Users\ilya\AppData\Local\Temp\ccpEIuqL.s 			page 177


 7910 001a 1800     		movs	r0, r3
 7911 001c BD46     		mov	sp, r7
 7912 001e 04B0     		add	sp, sp, #16
 7913              		@ sp needed
 7914 0020 80BD     		pop	{r7, pc}
 7915              		.cfi_endproc
 7916              	.LFE68:
 7917              		.size	VL53L0X_PerformSingleHistogramMeasurement, .-VL53L0X_PerformSingleHistogramMeasurement
 7918 0022 C046     		.section	.text.VL53L0X_PerformRefCalibration,"ax",%progbits
 7919              		.align	2
 7920              		.global	VL53L0X_PerformRefCalibration
 7921              		.code	16
 7922              		.thumb_func
 7923              		.type	VL53L0X_PerformRefCalibration, %function
 7924              	VL53L0X_PerformRefCalibration:
 7925              	.LFB69:
2106:Api\core\src/vl53l0x_api.c **** 
2107:Api\core\src/vl53l0x_api.c **** VL53L0X_Error VL53L0X_PerformRefCalibration(VL53L0X_DEV Dev, uint8_t *pVhvSettings,
2108:Api\core\src/vl53l0x_api.c **** 	uint8_t *pPhaseCal)
2109:Api\core\src/vl53l0x_api.c **** {
 7926              		.loc 1 2109 0
 7927              		.cfi_startproc
 7928              		@ args = 0, pretend = 0, frame = 24
 7929              		@ frame_needed = 1, uses_anonymous_args = 0
 7930 0000 90B5     		push	{r4, r7, lr}
 7931              		.cfi_def_cfa_offset 12
 7932              		.cfi_offset 4, -12
 7933              		.cfi_offset 7, -8
 7934              		.cfi_offset 14, -4
 7935 0002 87B0     		sub	sp, sp, #28
 7936              		.cfi_def_cfa_offset 40
 7937 0004 00AF     		add	r7, sp, #0
 7938              		.cfi_def_cfa_register 7
 7939 0006 F860     		str	r0, [r7, #12]
 7940 0008 B960     		str	r1, [r7, #8]
 7941 000a 7A60     		str	r2, [r7, #4]
2110:Api\core\src/vl53l0x_api.c **** 	VL53L0X_Error Status = VL53L0X_ERROR_NONE;
 7942              		.loc 1 2110 0
 7943 000c 1723     		movs	r3, #23
 7944 000e FB18     		adds	r3, r7, r3
 7945 0010 0022     		movs	r2, #0
 7946 0012 1A70     		strb	r2, [r3]
2111:Api\core\src/vl53l0x_api.c **** 	LOG_FUNCTION_START("");
2112:Api\core\src/vl53l0x_api.c **** 
2113:Api\core\src/vl53l0x_api.c **** 	Status = VL53L0X_perform_ref_calibration(Dev, pVhvSettings,
 7947              		.loc 1 2113 0
 7948 0014 1723     		movs	r3, #23
 7949 0016 FC18     		adds	r4, r7, r3
 7950 0018 7A68     		ldr	r2, [r7, #4]
 7951 001a B968     		ldr	r1, [r7, #8]
 7952 001c F868     		ldr	r0, [r7, #12]
 7953 001e 0123     		movs	r3, #1
 7954 0020 FFF7FEFF 		bl	VL53L0X_perform_ref_calibration
 7955 0024 0300     		movs	r3, r0
 7956 0026 2370     		strb	r3, [r4]
2114:Api\core\src/vl53l0x_api.c **** 		pPhaseCal, 1);
2115:Api\core\src/vl53l0x_api.c **** 
ARM GAS  C:\Users\ilya\AppData\Local\Temp\ccpEIuqL.s 			page 178


2116:Api\core\src/vl53l0x_api.c **** 	LOG_FUNCTION_END(Status);
2117:Api\core\src/vl53l0x_api.c **** 	return Status;
 7957              		.loc 1 2117 0
 7958 0028 1723     		movs	r3, #23
 7959 002a FB18     		adds	r3, r7, r3
 7960 002c 1B78     		ldrb	r3, [r3]
 7961 002e 5BB2     		sxtb	r3, r3
2118:Api\core\src/vl53l0x_api.c **** }
 7962              		.loc 1 2118 0
 7963 0030 1800     		movs	r0, r3
 7964 0032 BD46     		mov	sp, r7
 7965 0034 07B0     		add	sp, sp, #28
 7966              		@ sp needed
 7967 0036 90BD     		pop	{r4, r7, pc}
 7968              		.cfi_endproc
 7969              	.LFE69:
 7970              		.size	VL53L0X_PerformRefCalibration, .-VL53L0X_PerformRefCalibration
 7971              		.section	.text.VL53L0X_PerformXTalkMeasurement,"ax",%progbits
 7972              		.align	2
 7973              		.global	VL53L0X_PerformXTalkMeasurement
 7974              		.code	16
 7975              		.thumb_func
 7976              		.type	VL53L0X_PerformXTalkMeasurement, %function
 7977              	VL53L0X_PerformXTalkMeasurement:
 7978              	.LFB70:
2119:Api\core\src/vl53l0x_api.c **** 
2120:Api\core\src/vl53l0x_api.c **** VL53L0X_Error VL53L0X_PerformXTalkMeasurement(VL53L0X_DEV Dev,
2121:Api\core\src/vl53l0x_api.c **** 	uint32_t TimeoutMs, FixPoint1616_t *pXtalkPerSpad,
2122:Api\core\src/vl53l0x_api.c **** 	uint8_t *pAmbientTooHigh)
2123:Api\core\src/vl53l0x_api.c **** {
 7979              		.loc 1 2123 0
 7980              		.cfi_startproc
 7981              		@ args = 0, pretend = 0, frame = 24
 7982              		@ frame_needed = 1, uses_anonymous_args = 0
 7983 0000 80B5     		push	{r7, lr}
 7984              		.cfi_def_cfa_offset 8
 7985              		.cfi_offset 7, -8
 7986              		.cfi_offset 14, -4
 7987 0002 86B0     		sub	sp, sp, #24
 7988              		.cfi_def_cfa_offset 32
 7989 0004 00AF     		add	r7, sp, #0
 7990              		.cfi_def_cfa_register 7
 7991 0006 F860     		str	r0, [r7, #12]
 7992 0008 B960     		str	r1, [r7, #8]
 7993 000a 7A60     		str	r2, [r7, #4]
 7994 000c 3B60     		str	r3, [r7]
2124:Api\core\src/vl53l0x_api.c **** 	VL53L0X_Error Status = VL53L0X_ERROR_NOT_IMPLEMENTED;
 7995              		.loc 1 2124 0
 7996 000e 1723     		movs	r3, #23
 7997 0010 FB18     		adds	r3, r7, r3
 7998 0012 9D22     		movs	r2, #157
 7999 0014 1A70     		strb	r2, [r3]
2125:Api\core\src/vl53l0x_api.c **** 	LOG_FUNCTION_START("");
2126:Api\core\src/vl53l0x_api.c **** 
2127:Api\core\src/vl53l0x_api.c **** 	/* not implemented on VL53L0X */
2128:Api\core\src/vl53l0x_api.c **** 
2129:Api\core\src/vl53l0x_api.c **** 	LOG_FUNCTION_END(Status);
ARM GAS  C:\Users\ilya\AppData\Local\Temp\ccpEIuqL.s 			page 179


2130:Api\core\src/vl53l0x_api.c **** 	return Status;
 8000              		.loc 1 2130 0
 8001 0016 1723     		movs	r3, #23
 8002 0018 FB18     		adds	r3, r7, r3
 8003 001a 1B78     		ldrb	r3, [r3]
 8004 001c 5BB2     		sxtb	r3, r3
2131:Api\core\src/vl53l0x_api.c **** }
 8005              		.loc 1 2131 0
 8006 001e 1800     		movs	r0, r3
 8007 0020 BD46     		mov	sp, r7
 8008 0022 06B0     		add	sp, sp, #24
 8009              		@ sp needed
 8010 0024 80BD     		pop	{r7, pc}
 8011              		.cfi_endproc
 8012              	.LFE70:
 8013              		.size	VL53L0X_PerformXTalkMeasurement, .-VL53L0X_PerformXTalkMeasurement
 8014 0026 C046     		.section	.text.VL53L0X_PerformXTalkCalibration,"ax",%progbits
 8015              		.align	2
 8016              		.global	VL53L0X_PerformXTalkCalibration
 8017              		.code	16
 8018              		.thumb_func
 8019              		.type	VL53L0X_PerformXTalkCalibration, %function
 8020              	VL53L0X_PerformXTalkCalibration:
 8021              	.LFB71:
2132:Api\core\src/vl53l0x_api.c **** 
2133:Api\core\src/vl53l0x_api.c **** VL53L0X_Error VL53L0X_PerformXTalkCalibration(VL53L0X_DEV Dev,
2134:Api\core\src/vl53l0x_api.c **** 	FixPoint1616_t XTalkCalDistance,
2135:Api\core\src/vl53l0x_api.c **** 	FixPoint1616_t *pXTalkCompensationRateMegaCps)
2136:Api\core\src/vl53l0x_api.c **** {
 8022              		.loc 1 2136 0
 8023              		.cfi_startproc
 8024              		@ args = 0, pretend = 0, frame = 24
 8025              		@ frame_needed = 1, uses_anonymous_args = 0
 8026 0000 90B5     		push	{r4, r7, lr}
 8027              		.cfi_def_cfa_offset 12
 8028              		.cfi_offset 4, -12
 8029              		.cfi_offset 7, -8
 8030              		.cfi_offset 14, -4
 8031 0002 87B0     		sub	sp, sp, #28
 8032              		.cfi_def_cfa_offset 40
 8033 0004 00AF     		add	r7, sp, #0
 8034              		.cfi_def_cfa_register 7
 8035 0006 F860     		str	r0, [r7, #12]
 8036 0008 B960     		str	r1, [r7, #8]
 8037 000a 7A60     		str	r2, [r7, #4]
2137:Api\core\src/vl53l0x_api.c **** 	VL53L0X_Error Status = VL53L0X_ERROR_NONE;
 8038              		.loc 1 2137 0
 8039 000c 1723     		movs	r3, #23
 8040 000e FB18     		adds	r3, r7, r3
 8041 0010 0022     		movs	r2, #0
 8042 0012 1A70     		strb	r2, [r3]
2138:Api\core\src/vl53l0x_api.c **** 	LOG_FUNCTION_START("");
2139:Api\core\src/vl53l0x_api.c **** 
2140:Api\core\src/vl53l0x_api.c **** 	Status = VL53L0X_perform_xtalk_calibration(Dev, XTalkCalDistance,
 8043              		.loc 1 2140 0
 8044 0014 1723     		movs	r3, #23
 8045 0016 FC18     		adds	r4, r7, r3
ARM GAS  C:\Users\ilya\AppData\Local\Temp\ccpEIuqL.s 			page 180


 8046 0018 7A68     		ldr	r2, [r7, #4]
 8047 001a B968     		ldr	r1, [r7, #8]
 8048 001c FB68     		ldr	r3, [r7, #12]
 8049 001e 1800     		movs	r0, r3
 8050 0020 FFF7FEFF 		bl	VL53L0X_perform_xtalk_calibration
 8051 0024 0300     		movs	r3, r0
 8052 0026 2370     		strb	r3, [r4]
2141:Api\core\src/vl53l0x_api.c **** 		pXTalkCompensationRateMegaCps);
2142:Api\core\src/vl53l0x_api.c **** 
2143:Api\core\src/vl53l0x_api.c **** 	LOG_FUNCTION_END(Status);
2144:Api\core\src/vl53l0x_api.c **** 	return Status;
 8053              		.loc 1 2144 0
 8054 0028 1723     		movs	r3, #23
 8055 002a FB18     		adds	r3, r7, r3
 8056 002c 1B78     		ldrb	r3, [r3]
 8057 002e 5BB2     		sxtb	r3, r3
2145:Api\core\src/vl53l0x_api.c **** }
 8058              		.loc 1 2145 0
 8059 0030 1800     		movs	r0, r3
 8060 0032 BD46     		mov	sp, r7
 8061 0034 07B0     		add	sp, sp, #28
 8062              		@ sp needed
 8063 0036 90BD     		pop	{r4, r7, pc}
 8064              		.cfi_endproc
 8065              	.LFE71:
 8066              		.size	VL53L0X_PerformXTalkCalibration, .-VL53L0X_PerformXTalkCalibration
 8067              		.section	.text.VL53L0X_PerformOffsetCalibration,"ax",%progbits
 8068              		.align	2
 8069              		.global	VL53L0X_PerformOffsetCalibration
 8070              		.code	16
 8071              		.thumb_func
 8072              		.type	VL53L0X_PerformOffsetCalibration, %function
 8073              	VL53L0X_PerformOffsetCalibration:
 8074              	.LFB72:
2146:Api\core\src/vl53l0x_api.c **** 
2147:Api\core\src/vl53l0x_api.c **** VL53L0X_Error VL53L0X_PerformOffsetCalibration(VL53L0X_DEV Dev,
2148:Api\core\src/vl53l0x_api.c **** 	FixPoint1616_t CalDistanceMilliMeter, int32_t *pOffsetMicroMeter)
2149:Api\core\src/vl53l0x_api.c **** {
 8075              		.loc 1 2149 0
 8076              		.cfi_startproc
 8077              		@ args = 0, pretend = 0, frame = 24
 8078              		@ frame_needed = 1, uses_anonymous_args = 0
 8079 0000 90B5     		push	{r4, r7, lr}
 8080              		.cfi_def_cfa_offset 12
 8081              		.cfi_offset 4, -12
 8082              		.cfi_offset 7, -8
 8083              		.cfi_offset 14, -4
 8084 0002 87B0     		sub	sp, sp, #28
 8085              		.cfi_def_cfa_offset 40
 8086 0004 00AF     		add	r7, sp, #0
 8087              		.cfi_def_cfa_register 7
 8088 0006 F860     		str	r0, [r7, #12]
 8089 0008 B960     		str	r1, [r7, #8]
 8090 000a 7A60     		str	r2, [r7, #4]
2150:Api\core\src/vl53l0x_api.c **** 	VL53L0X_Error Status = VL53L0X_ERROR_NONE;
 8091              		.loc 1 2150 0
 8092 000c 1723     		movs	r3, #23
ARM GAS  C:\Users\ilya\AppData\Local\Temp\ccpEIuqL.s 			page 181


 8093 000e FB18     		adds	r3, r7, r3
 8094 0010 0022     		movs	r2, #0
 8095 0012 1A70     		strb	r2, [r3]
2151:Api\core\src/vl53l0x_api.c **** 	LOG_FUNCTION_START("");
2152:Api\core\src/vl53l0x_api.c **** 
2153:Api\core\src/vl53l0x_api.c **** 	Status = VL53L0X_perform_offset_calibration(Dev, CalDistanceMilliMeter,
 8096              		.loc 1 2153 0
 8097 0014 1723     		movs	r3, #23
 8098 0016 FC18     		adds	r4, r7, r3
 8099 0018 7A68     		ldr	r2, [r7, #4]
 8100 001a B968     		ldr	r1, [r7, #8]
 8101 001c FB68     		ldr	r3, [r7, #12]
 8102 001e 1800     		movs	r0, r3
 8103 0020 FFF7FEFF 		bl	VL53L0X_perform_offset_calibration
 8104 0024 0300     		movs	r3, r0
 8105 0026 2370     		strb	r3, [r4]
2154:Api\core\src/vl53l0x_api.c **** 		pOffsetMicroMeter);
2155:Api\core\src/vl53l0x_api.c **** 
2156:Api\core\src/vl53l0x_api.c **** 	LOG_FUNCTION_END(Status);
2157:Api\core\src/vl53l0x_api.c **** 	return Status;
 8106              		.loc 1 2157 0
 8107 0028 1723     		movs	r3, #23
 8108 002a FB18     		adds	r3, r7, r3
 8109 002c 1B78     		ldrb	r3, [r3]
 8110 002e 5BB2     		sxtb	r3, r3
2158:Api\core\src/vl53l0x_api.c **** }
 8111              		.loc 1 2158 0
 8112 0030 1800     		movs	r0, r3
 8113 0032 BD46     		mov	sp, r7
 8114 0034 07B0     		add	sp, sp, #28
 8115              		@ sp needed
 8116 0036 90BD     		pop	{r4, r7, pc}
 8117              		.cfi_endproc
 8118              	.LFE72:
 8119              		.size	VL53L0X_PerformOffsetCalibration, .-VL53L0X_PerformOffsetCalibration
 8120              		.section	.text.VL53L0X_CheckAndLoadInterruptSettings,"ax",%progbits
 8121              		.align	2
 8122              		.global	VL53L0X_CheckAndLoadInterruptSettings
 8123              		.code	16
 8124              		.thumb_func
 8125              		.type	VL53L0X_CheckAndLoadInterruptSettings, %function
 8126              	VL53L0X_CheckAndLoadInterruptSettings:
 8127              	.LFB73:
2159:Api\core\src/vl53l0x_api.c **** 
2160:Api\core\src/vl53l0x_api.c **** VL53L0X_Error VL53L0X_CheckAndLoadInterruptSettings(VL53L0X_DEV Dev,
2161:Api\core\src/vl53l0x_api.c **** 	uint8_t StartNotStopFlag)
2162:Api\core\src/vl53l0x_api.c **** {
 8128              		.loc 1 2162 0
 8129              		.cfi_startproc
 8130              		@ args = 0, pretend = 0, frame = 24
 8131              		@ frame_needed = 1, uses_anonymous_args = 0
 8132 0000 90B5     		push	{r4, r7, lr}
 8133              		.cfi_def_cfa_offset 12
 8134              		.cfi_offset 4, -12
 8135              		.cfi_offset 7, -8
 8136              		.cfi_offset 14, -4
 8137 0002 87B0     		sub	sp, sp, #28
ARM GAS  C:\Users\ilya\AppData\Local\Temp\ccpEIuqL.s 			page 182


 8138              		.cfi_def_cfa_offset 40
 8139 0004 00AF     		add	r7, sp, #0
 8140              		.cfi_def_cfa_register 7
 8141 0006 7860     		str	r0, [r7, #4]
 8142 0008 0A00     		movs	r2, r1
 8143 000a FB1C     		adds	r3, r7, #3
 8144 000c 1A70     		strb	r2, [r3]
2163:Api\core\src/vl53l0x_api.c **** 	uint8_t InterruptConfig;
2164:Api\core\src/vl53l0x_api.c **** 	FixPoint1616_t ThresholdLow;
2165:Api\core\src/vl53l0x_api.c **** 	FixPoint1616_t ThresholdHigh;
2166:Api\core\src/vl53l0x_api.c **** 	VL53L0X_Error Status = VL53L0X_ERROR_NONE;
 8145              		.loc 1 2166 0
 8146 000e 1723     		movs	r3, #23
 8147 0010 FB18     		adds	r3, r7, r3
 8148 0012 0022     		movs	r2, #0
 8149 0014 1A70     		strb	r2, [r3]
2167:Api\core\src/vl53l0x_api.c **** 
2168:Api\core\src/vl53l0x_api.c **** 	InterruptConfig = VL53L0X_GETDEVICESPECIFICPARAMETER(Dev,
 8150              		.loc 1 2168 0
 8151 0016 1623     		movs	r3, #22
 8152 0018 FB18     		adds	r3, r7, r3
 8153 001a 7A68     		ldr	r2, [r7, #4]
 8154 001c DA21     		movs	r1, #218
 8155 001e 525C     		ldrb	r2, [r2, r1]
 8156 0020 1A70     		strb	r2, [r3]
2169:Api\core\src/vl53l0x_api.c **** 		Pin0GpioFunctionality);
2170:Api\core\src/vl53l0x_api.c **** 
2171:Api\core\src/vl53l0x_api.c **** 	if ((InterruptConfig ==
 8157              		.loc 1 2171 0
 8158 0022 1623     		movs	r3, #22
 8159 0024 FB18     		adds	r3, r7, r3
 8160 0026 1B78     		ldrb	r3, [r3]
 8161 0028 012B     		cmp	r3, #1
 8162 002a 09D0     		beq	.L382
2172:Api\core\src/vl53l0x_api.c **** 		VL53L0X_GPIOFUNCTIONALITY_THRESHOLD_CROSSED_LOW) ||
 8163              		.loc 1 2172 0
 8164 002c 1623     		movs	r3, #22
 8165 002e FB18     		adds	r3, r7, r3
 8166 0030 1B78     		ldrb	r3, [r3]
 8167 0032 022B     		cmp	r3, #2
 8168 0034 04D0     		beq	.L382
2173:Api\core\src/vl53l0x_api.c **** 		(InterruptConfig ==
2174:Api\core\src/vl53l0x_api.c **** 		VL53L0X_GPIOFUNCTIONALITY_THRESHOLD_CROSSED_HIGH) ||
 8169              		.loc 1 2174 0
 8170 0036 1623     		movs	r3, #22
 8171 0038 FB18     		adds	r3, r7, r3
 8172 003a 1B78     		ldrb	r3, [r3]
 8173 003c 032B     		cmp	r3, #3
 8174 003e 66D1     		bne	.L383
 8175              	.L382:
2175:Api\core\src/vl53l0x_api.c **** 		(InterruptConfig ==
2176:Api\core\src/vl53l0x_api.c **** 		VL53L0X_GPIOFUNCTIONALITY_THRESHOLD_CROSSED_OUT)) {
2177:Api\core\src/vl53l0x_api.c **** 
2178:Api\core\src/vl53l0x_api.c **** 		Status = VL53L0X_GetInterruptThresholds(Dev,
 8176              		.loc 1 2178 0
 8177 0040 1723     		movs	r3, #23
 8178 0042 FC18     		adds	r4, r7, r3
ARM GAS  C:\Users\ilya\AppData\Local\Temp\ccpEIuqL.s 			page 183


 8179 0044 0C23     		movs	r3, #12
 8180 0046 FB18     		adds	r3, r7, r3
 8181 0048 1022     		movs	r2, #16
 8182 004a BA18     		adds	r2, r7, r2
 8183 004c 7868     		ldr	r0, [r7, #4]
 8184 004e 0121     		movs	r1, #1
 8185 0050 FFF7FEFF 		bl	VL53L0X_GetInterruptThresholds
 8186 0054 0300     		movs	r3, r0
 8187 0056 2370     		strb	r3, [r4]
2179:Api\core\src/vl53l0x_api.c **** 			VL53L0X_DEVICEMODE_CONTINUOUS_RANGING,
2180:Api\core\src/vl53l0x_api.c **** 			&ThresholdLow, &ThresholdHigh);
2181:Api\core\src/vl53l0x_api.c **** 
2182:Api\core\src/vl53l0x_api.c **** 		if (((ThresholdLow > 255*65536) ||
 8188              		.loc 1 2182 0
 8189 0058 3A69     		ldr	r2, [r7, #16]
 8190 005a FF23     		movs	r3, #255
 8191 005c 1B04     		lsls	r3, r3, #16
 8192 005e 9A42     		cmp	r2, r3
 8193 0060 04D8     		bhi	.L384
2183:Api\core\src/vl53l0x_api.c **** 			(ThresholdHigh > 255*65536)) &&
 8194              		.loc 1 2183 0 discriminator 1
 8195 0062 FA68     		ldr	r2, [r7, #12]
2182:Api\core\src/vl53l0x_api.c **** 			(ThresholdHigh > 255*65536)) &&
 8196              		.loc 1 2182 0 discriminator 1
 8197 0064 FF23     		movs	r3, #255
 8198 0066 1B04     		lsls	r3, r3, #16
 8199 0068 9A42     		cmp	r2, r3
 8200 006a 50D9     		bls	.L383
 8201              	.L384:
 8202              		.loc 1 2183 0
 8203 006c 1723     		movs	r3, #23
 8204 006e FB18     		adds	r3, r7, r3
 8205 0070 1B78     		ldrb	r3, [r3]
 8206 0072 5BB2     		sxtb	r3, r3
 8207 0074 002B     		cmp	r3, #0
 8208 0076 4AD1     		bne	.L383
2184:Api\core\src/vl53l0x_api.c **** 			(Status == VL53L0X_ERROR_NONE)) {
2185:Api\core\src/vl53l0x_api.c **** 
2186:Api\core\src/vl53l0x_api.c **** 			if (StartNotStopFlag != 0) {
 8209              		.loc 1 2186 0
 8210 0078 FB1C     		adds	r3, r7, #3
 8211 007a 1B78     		ldrb	r3, [r3]
 8212 007c 002B     		cmp	r3, #0
 8213 007e 0AD0     		beq	.L385
2187:Api\core\src/vl53l0x_api.c **** 				Status = VL53L0X_load_tuning_settings(Dev,
 8214              		.loc 1 2187 0
 8215 0080 1723     		movs	r3, #23
 8216 0082 FC18     		adds	r4, r7, r3
 8217 0084 264A     		ldr	r2, .L387
 8218 0086 7B68     		ldr	r3, [r7, #4]
 8219 0088 1100     		movs	r1, r2
 8220 008a 1800     		movs	r0, r3
 8221 008c FFF7FEFF 		bl	VL53L0X_load_tuning_settings
 8222 0090 0300     		movs	r3, r0
 8223 0092 2370     		strb	r3, [r4]
 8224 0094 3BE0     		b	.L383
 8225              	.L385:
ARM GAS  C:\Users\ilya\AppData\Local\Temp\ccpEIuqL.s 			page 184


2188:Api\core\src/vl53l0x_api.c **** 					InterruptThresholdSettings);
2189:Api\core\src/vl53l0x_api.c **** 			} else {
2190:Api\core\src/vl53l0x_api.c **** 				Status |= VL53L0X_WrByte(Dev, 0xFF, 0x04);
 8226              		.loc 1 2190 0
 8227 0096 7B68     		ldr	r3, [r7, #4]
 8228 0098 0422     		movs	r2, #4
 8229 009a FF21     		movs	r1, #255
 8230 009c 1800     		movs	r0, r3
 8231 009e FFF7FEFF 		bl	VL53L0X_WrByte
 8232 00a2 0300     		movs	r3, r0
 8233 00a4 1900     		movs	r1, r3
 8234 00a6 1723     		movs	r3, #23
 8235 00a8 FB18     		adds	r3, r7, r3
 8236 00aa 1722     		movs	r2, #23
 8237 00ac BA18     		adds	r2, r7, r2
 8238 00ae 1278     		ldrb	r2, [r2]
 8239 00b0 0A43     		orrs	r2, r1
 8240 00b2 1A70     		strb	r2, [r3]
2191:Api\core\src/vl53l0x_api.c **** 				Status |= VL53L0X_WrByte(Dev, 0x70, 0x00);
 8241              		.loc 1 2191 0
 8242 00b4 7B68     		ldr	r3, [r7, #4]
 8243 00b6 0022     		movs	r2, #0
 8244 00b8 7021     		movs	r1, #112
 8245 00ba 1800     		movs	r0, r3
 8246 00bc FFF7FEFF 		bl	VL53L0X_WrByte
 8247 00c0 0300     		movs	r3, r0
 8248 00c2 1900     		movs	r1, r3
 8249 00c4 1723     		movs	r3, #23
 8250 00c6 FB18     		adds	r3, r7, r3
 8251 00c8 1722     		movs	r2, #23
 8252 00ca BA18     		adds	r2, r7, r2
 8253 00cc 1278     		ldrb	r2, [r2]
 8254 00ce 0A43     		orrs	r2, r1
 8255 00d0 1A70     		strb	r2, [r3]
2192:Api\core\src/vl53l0x_api.c **** 				Status |= VL53L0X_WrByte(Dev, 0xFF, 0x00);
 8256              		.loc 1 2192 0
 8257 00d2 7B68     		ldr	r3, [r7, #4]
 8258 00d4 0022     		movs	r2, #0
 8259 00d6 FF21     		movs	r1, #255
 8260 00d8 1800     		movs	r0, r3
 8261 00da FFF7FEFF 		bl	VL53L0X_WrByte
 8262 00de 0300     		movs	r3, r0
 8263 00e0 1900     		movs	r1, r3
 8264 00e2 1723     		movs	r3, #23
 8265 00e4 FB18     		adds	r3, r7, r3
 8266 00e6 1722     		movs	r2, #23
 8267 00e8 BA18     		adds	r2, r7, r2
 8268 00ea 1278     		ldrb	r2, [r2]
 8269 00ec 0A43     		orrs	r2, r1
 8270 00ee 1A70     		strb	r2, [r3]
2193:Api\core\src/vl53l0x_api.c **** 				Status |= VL53L0X_WrByte(Dev, 0x80, 0x00);
 8271              		.loc 1 2193 0
 8272 00f0 7B68     		ldr	r3, [r7, #4]
 8273 00f2 0022     		movs	r2, #0
 8274 00f4 8021     		movs	r1, #128
 8275 00f6 1800     		movs	r0, r3
 8276 00f8 FFF7FEFF 		bl	VL53L0X_WrByte
ARM GAS  C:\Users\ilya\AppData\Local\Temp\ccpEIuqL.s 			page 185


 8277 00fc 0300     		movs	r3, r0
 8278 00fe 1900     		movs	r1, r3
 8279 0100 1723     		movs	r3, #23
 8280 0102 FB18     		adds	r3, r7, r3
 8281 0104 1722     		movs	r2, #23
 8282 0106 BA18     		adds	r2, r7, r2
 8283 0108 1278     		ldrb	r2, [r2]
 8284 010a 0A43     		orrs	r2, r1
 8285 010c 1A70     		strb	r2, [r3]
 8286              	.L383:
2194:Api\core\src/vl53l0x_api.c **** 			}
2195:Api\core\src/vl53l0x_api.c **** 
2196:Api\core\src/vl53l0x_api.c **** 		}
2197:Api\core\src/vl53l0x_api.c **** 
2198:Api\core\src/vl53l0x_api.c **** 
2199:Api\core\src/vl53l0x_api.c **** 	}
2200:Api\core\src/vl53l0x_api.c **** 
2201:Api\core\src/vl53l0x_api.c **** 	return Status;
 8287              		.loc 1 2201 0
 8288 010e 1723     		movs	r3, #23
 8289 0110 FB18     		adds	r3, r7, r3
 8290 0112 1B78     		ldrb	r3, [r3]
 8291 0114 5BB2     		sxtb	r3, r3
2202:Api\core\src/vl53l0x_api.c **** 
2203:Api\core\src/vl53l0x_api.c **** }
 8292              		.loc 1 2203 0
 8293 0116 1800     		movs	r0, r3
 8294 0118 BD46     		mov	sp, r7
 8295 011a 07B0     		add	sp, sp, #28
 8296              		@ sp needed
 8297 011c 90BD     		pop	{r4, r7, pc}
 8298              	.L388:
 8299 011e C046     		.align	2
 8300              	.L387:
 8301 0120 00000000 		.word	InterruptThresholdSettings
 8302              		.cfi_endproc
 8303              	.LFE73:
 8304              		.size	VL53L0X_CheckAndLoadInterruptSettings, .-VL53L0X_CheckAndLoadInterruptSettings
 8305              		.section	.text.VL53L0X_StartMeasurement,"ax",%progbits
 8306              		.align	2
 8307              		.global	VL53L0X_StartMeasurement
 8308              		.code	16
 8309              		.thumb_func
 8310              		.type	VL53L0X_StartMeasurement, %function
 8311              	VL53L0X_StartMeasurement:
 8312              	.LFB74:
2204:Api\core\src/vl53l0x_api.c **** 
2205:Api\core\src/vl53l0x_api.c **** 
2206:Api\core\src/vl53l0x_api.c **** VL53L0X_Error VL53L0X_StartMeasurement(VL53L0X_DEV Dev)
2207:Api\core\src/vl53l0x_api.c **** {
 8313              		.loc 1 2207 0
 8314              		.cfi_startproc
 8315              		@ args = 0, pretend = 0, frame = 24
 8316              		@ frame_needed = 1, uses_anonymous_args = 0
 8317 0000 90B5     		push	{r4, r7, lr}
 8318              		.cfi_def_cfa_offset 12
 8319              		.cfi_offset 4, -12
ARM GAS  C:\Users\ilya\AppData\Local\Temp\ccpEIuqL.s 			page 186


 8320              		.cfi_offset 7, -8
 8321              		.cfi_offset 14, -4
 8322 0002 87B0     		sub	sp, sp, #28
 8323              		.cfi_def_cfa_offset 40
 8324 0004 00AF     		add	r7, sp, #0
 8325              		.cfi_def_cfa_register 7
 8326 0006 7860     		str	r0, [r7, #4]
2208:Api\core\src/vl53l0x_api.c **** 	VL53L0X_Error Status = VL53L0X_ERROR_NONE;
 8327              		.loc 1 2208 0
 8328 0008 1723     		movs	r3, #23
 8329 000a FB18     		adds	r3, r7, r3
 8330 000c 0022     		movs	r2, #0
 8331 000e 1A70     		strb	r2, [r3]
2209:Api\core\src/vl53l0x_api.c **** 	VL53L0X_DeviceModes DeviceMode;
2210:Api\core\src/vl53l0x_api.c **** 	uint8_t Byte;
2211:Api\core\src/vl53l0x_api.c **** 	uint8_t StartStopByte = VL53L0X_REG_SYSRANGE_MODE_START_STOP;
 8332              		.loc 1 2211 0
 8333 0010 0F23     		movs	r3, #15
 8334 0012 FB18     		adds	r3, r7, r3
 8335 0014 0122     		movs	r2, #1
 8336 0016 1A70     		strb	r2, [r3]
2212:Api\core\src/vl53l0x_api.c **** 	uint32_t LoopNb;
2213:Api\core\src/vl53l0x_api.c **** 	LOG_FUNCTION_START("");
2214:Api\core\src/vl53l0x_api.c **** 
2215:Api\core\src/vl53l0x_api.c **** 	/* Get Current DeviceMode */
2216:Api\core\src/vl53l0x_api.c **** 	VL53L0X_GetDeviceMode(Dev, &DeviceMode);
 8337              		.loc 1 2216 0
 8338 0018 0E23     		movs	r3, #14
 8339 001a FA18     		adds	r2, r7, r3
 8340 001c 7B68     		ldr	r3, [r7, #4]
 8341 001e 1100     		movs	r1, r2
 8342 0020 1800     		movs	r0, r3
 8343 0022 FFF7FEFF 		bl	VL53L0X_GetDeviceMode
2217:Api\core\src/vl53l0x_api.c **** 
2218:Api\core\src/vl53l0x_api.c **** 	Status = VL53L0X_WrByte(Dev, 0x80, 0x01);
 8344              		.loc 1 2218 0
 8345 0026 1723     		movs	r3, #23
 8346 0028 FC18     		adds	r4, r7, r3
 8347 002a 7B68     		ldr	r3, [r7, #4]
 8348 002c 0122     		movs	r2, #1
 8349 002e 8021     		movs	r1, #128
 8350 0030 1800     		movs	r0, r3
 8351 0032 FFF7FEFF 		bl	VL53L0X_WrByte
 8352 0036 0300     		movs	r3, r0
 8353 0038 2370     		strb	r3, [r4]
2219:Api\core\src/vl53l0x_api.c **** 	Status = VL53L0X_WrByte(Dev, 0xFF, 0x01);
 8354              		.loc 1 2219 0
 8355 003a 1723     		movs	r3, #23
 8356 003c FC18     		adds	r4, r7, r3
 8357 003e 7B68     		ldr	r3, [r7, #4]
 8358 0040 0122     		movs	r2, #1
 8359 0042 FF21     		movs	r1, #255
 8360 0044 1800     		movs	r0, r3
 8361 0046 FFF7FEFF 		bl	VL53L0X_WrByte
 8362 004a 0300     		movs	r3, r0
 8363 004c 2370     		strb	r3, [r4]
2220:Api\core\src/vl53l0x_api.c **** 	Status = VL53L0X_WrByte(Dev, 0x00, 0x00);
ARM GAS  C:\Users\ilya\AppData\Local\Temp\ccpEIuqL.s 			page 187


 8364              		.loc 1 2220 0
 8365 004e 1723     		movs	r3, #23
 8366 0050 FC18     		adds	r4, r7, r3
 8367 0052 7B68     		ldr	r3, [r7, #4]
 8368 0054 0022     		movs	r2, #0
 8369 0056 0021     		movs	r1, #0
 8370 0058 1800     		movs	r0, r3
 8371 005a FFF7FEFF 		bl	VL53L0X_WrByte
 8372 005e 0300     		movs	r3, r0
 8373 0060 2370     		strb	r3, [r4]
2221:Api\core\src/vl53l0x_api.c **** 	Status = VL53L0X_WrByte(Dev, 0x91, PALDevDataGet(Dev, StopVariable));
 8374              		.loc 1 2221 0
 8375 0062 7A68     		ldr	r2, [r7, #4]
 8376 0064 9D23     		movs	r3, #157
 8377 0066 5B00     		lsls	r3, r3, #1
 8378 0068 D25C     		ldrb	r2, [r2, r3]
 8379 006a 1723     		movs	r3, #23
 8380 006c FC18     		adds	r4, r7, r3
 8381 006e 7B68     		ldr	r3, [r7, #4]
 8382 0070 9121     		movs	r1, #145
 8383 0072 1800     		movs	r0, r3
 8384 0074 FFF7FEFF 		bl	VL53L0X_WrByte
 8385 0078 0300     		movs	r3, r0
 8386 007a 2370     		strb	r3, [r4]
2222:Api\core\src/vl53l0x_api.c **** 	Status = VL53L0X_WrByte(Dev, 0x00, 0x01);
 8387              		.loc 1 2222 0
 8388 007c 1723     		movs	r3, #23
 8389 007e FC18     		adds	r4, r7, r3
 8390 0080 7B68     		ldr	r3, [r7, #4]
 8391 0082 0122     		movs	r2, #1
 8392 0084 0021     		movs	r1, #0
 8393 0086 1800     		movs	r0, r3
 8394 0088 FFF7FEFF 		bl	VL53L0X_WrByte
 8395 008c 0300     		movs	r3, r0
 8396 008e 2370     		strb	r3, [r4]
2223:Api\core\src/vl53l0x_api.c **** 	Status = VL53L0X_WrByte(Dev, 0xFF, 0x00);
 8397              		.loc 1 2223 0
 8398 0090 1723     		movs	r3, #23
 8399 0092 FC18     		adds	r4, r7, r3
 8400 0094 7B68     		ldr	r3, [r7, #4]
 8401 0096 0022     		movs	r2, #0
 8402 0098 FF21     		movs	r1, #255
 8403 009a 1800     		movs	r0, r3
 8404 009c FFF7FEFF 		bl	VL53L0X_WrByte
 8405 00a0 0300     		movs	r3, r0
 8406 00a2 2370     		strb	r3, [r4]
2224:Api\core\src/vl53l0x_api.c **** 	Status = VL53L0X_WrByte(Dev, 0x80, 0x00);
 8407              		.loc 1 2224 0
 8408 00a4 1723     		movs	r3, #23
 8409 00a6 FC18     		adds	r4, r7, r3
 8410 00a8 7B68     		ldr	r3, [r7, #4]
 8411 00aa 0022     		movs	r2, #0
 8412 00ac 8021     		movs	r1, #128
 8413 00ae 1800     		movs	r0, r3
 8414 00b0 FFF7FEFF 		bl	VL53L0X_WrByte
 8415 00b4 0300     		movs	r3, r0
 8416 00b6 2370     		strb	r3, [r4]
ARM GAS  C:\Users\ilya\AppData\Local\Temp\ccpEIuqL.s 			page 188


2225:Api\core\src/vl53l0x_api.c **** 
2226:Api\core\src/vl53l0x_api.c **** 	switch (DeviceMode) {
 8417              		.loc 1 2226 0
 8418 00b8 0E23     		movs	r3, #14
 8419 00ba FB18     		adds	r3, r7, r3
 8420 00bc 1B78     		ldrb	r3, [r3]
 8421 00be 012B     		cmp	r3, #1
 8422 00c0 4FD0     		beq	.L391
 8423 00c2 032B     		cmp	r3, #3
 8424 00c4 00D1     		bne	.LCB6827
 8425 00c6 71E0     		b	.L392	@long jump
 8426              	.LCB6827:
 8427 00c8 002B     		cmp	r3, #0
 8428 00ca 00D0     		beq	.LCB6829
 8429 00cc 93E0     		b	.L404	@long jump
 8430              	.LCB6829:
2227:Api\core\src/vl53l0x_api.c **** 	case VL53L0X_DEVICEMODE_SINGLE_RANGING:
2228:Api\core\src/vl53l0x_api.c **** 		Status = VL53L0X_WrByte(Dev, VL53L0X_REG_SYSRANGE_START, 0x01);
 8431              		.loc 1 2228 0
 8432 00ce 1723     		movs	r3, #23
 8433 00d0 FC18     		adds	r4, r7, r3
 8434 00d2 7B68     		ldr	r3, [r7, #4]
 8435 00d4 0122     		movs	r2, #1
 8436 00d6 0021     		movs	r1, #0
 8437 00d8 1800     		movs	r0, r3
 8438 00da FFF7FEFF 		bl	VL53L0X_WrByte
 8439 00de 0300     		movs	r3, r0
 8440 00e0 2370     		strb	r3, [r4]
2229:Api\core\src/vl53l0x_api.c **** 
2230:Api\core\src/vl53l0x_api.c **** 		Byte = StartStopByte;
 8441              		.loc 1 2230 0
 8442 00e2 0D23     		movs	r3, #13
 8443 00e4 FB18     		adds	r3, r7, r3
 8444 00e6 0F22     		movs	r2, #15
 8445 00e8 BA18     		adds	r2, r7, r2
 8446 00ea 1278     		ldrb	r2, [r2]
 8447 00ec 1A70     		strb	r2, [r3]
2231:Api\core\src/vl53l0x_api.c **** 		if (Status == VL53L0X_ERROR_NONE) {
 8448              		.loc 1 2231 0
 8449 00ee 1723     		movs	r3, #23
 8450 00f0 FB18     		adds	r3, r7, r3
 8451 00f2 1B78     		ldrb	r3, [r3]
 8452 00f4 5BB2     		sxtb	r3, r3
 8453 00f6 002B     		cmp	r3, #0
 8454 00f8 00D0     		beq	.LCB6850
 8455 00fa 81E0     		b	.L405	@long jump
 8456              	.LCB6850:
2232:Api\core\src/vl53l0x_api.c **** 			/* Wait until start bit has been cleared */
2233:Api\core\src/vl53l0x_api.c **** 			LoopNb = 0;
 8457              		.loc 1 2233 0
 8458 00fc 0023     		movs	r3, #0
 8459 00fe 3B61     		str	r3, [r7, #16]
 8460              	.L397:
2234:Api\core\src/vl53l0x_api.c **** 			do {
2235:Api\core\src/vl53l0x_api.c **** 				if (LoopNb > 0)
 8461              		.loc 1 2235 0
 8462 0100 3B69     		ldr	r3, [r7, #16]
ARM GAS  C:\Users\ilya\AppData\Local\Temp\ccpEIuqL.s 			page 189


 8463 0102 002B     		cmp	r3, #0
 8464 0104 0AD0     		beq	.L395
2236:Api\core\src/vl53l0x_api.c **** 					Status = VL53L0X_RdByte(Dev,
 8465              		.loc 1 2236 0
 8466 0106 1723     		movs	r3, #23
 8467 0108 FC18     		adds	r4, r7, r3
 8468 010a 0D23     		movs	r3, #13
 8469 010c FA18     		adds	r2, r7, r3
 8470 010e 7B68     		ldr	r3, [r7, #4]
 8471 0110 0021     		movs	r1, #0
 8472 0112 1800     		movs	r0, r3
 8473 0114 FFF7FEFF 		bl	VL53L0X_RdByte
 8474 0118 0300     		movs	r3, r0
 8475 011a 2370     		strb	r3, [r4]
 8476              	.L395:
2237:Api\core\src/vl53l0x_api.c **** 					VL53L0X_REG_SYSRANGE_START, &Byte);
2238:Api\core\src/vl53l0x_api.c **** 				LoopNb = LoopNb + 1;
 8477              		.loc 1 2238 0
 8478 011c 3B69     		ldr	r3, [r7, #16]
 8479 011e 0133     		adds	r3, r3, #1
 8480 0120 3B61     		str	r3, [r7, #16]
2239:Api\core\src/vl53l0x_api.c **** 			} while (((Byte & StartStopByte) == StartStopByte)
 8481              		.loc 1 2239 0
 8482 0122 0D23     		movs	r3, #13
 8483 0124 FB18     		adds	r3, r7, r3
 8484 0126 1B78     		ldrb	r3, [r3]
 8485 0128 0F22     		movs	r2, #15
 8486 012a BA18     		adds	r2, r7, r2
 8487 012c 1278     		ldrb	r2, [r2]
 8488 012e 1340     		ands	r3, r2
 8489 0130 DBB2     		uxtb	r3, r3
2240:Api\core\src/vl53l0x_api.c **** 				&& (Status == VL53L0X_ERROR_NONE)
2241:Api\core\src/vl53l0x_api.c **** 				&& (LoopNb < VL53L0X_DEFAULT_MAX_LOOP));
 8490              		.loc 1 2241 0
 8491 0132 0F22     		movs	r2, #15
 8492 0134 BA18     		adds	r2, r7, r2
 8493 0136 1278     		ldrb	r2, [r2]
 8494 0138 9A42     		cmp	r2, r3
 8495 013a 09D1     		bne	.L396
2240:Api\core\src/vl53l0x_api.c **** 				&& (Status == VL53L0X_ERROR_NONE)
 8496              		.loc 1 2240 0
 8497 013c 1723     		movs	r3, #23
 8498 013e FB18     		adds	r3, r7, r3
 8499 0140 1B78     		ldrb	r3, [r3]
 8500 0142 5BB2     		sxtb	r3, r3
 8501 0144 002B     		cmp	r3, #0
 8502 0146 03D1     		bne	.L396
 8503              		.loc 1 2241 0
 8504 0148 3B69     		ldr	r3, [r7, #16]
 8505 014a 344A     		ldr	r2, .L408
 8506 014c 9342     		cmp	r3, r2
 8507 014e D7D9     		bls	.L397
 8508              	.L396:
2242:Api\core\src/vl53l0x_api.c **** 
2243:Api\core\src/vl53l0x_api.c **** 			if (LoopNb >= VL53L0X_DEFAULT_MAX_LOOP)
 8509              		.loc 1 2243 0
 8510 0150 3B69     		ldr	r3, [r7, #16]
ARM GAS  C:\Users\ilya\AppData\Local\Temp\ccpEIuqL.s 			page 190


 8511 0152 324A     		ldr	r2, .L408
 8512 0154 9342     		cmp	r3, r2
 8513 0156 53D9     		bls	.L405
2244:Api\core\src/vl53l0x_api.c **** 				Status = VL53L0X_ERROR_TIME_OUT;
 8514              		.loc 1 2244 0
 8515 0158 1723     		movs	r3, #23
 8516 015a FB18     		adds	r3, r7, r3
 8517 015c F922     		movs	r2, #249
 8518 015e 1A70     		strb	r2, [r3]
2245:Api\core\src/vl53l0x_api.c **** 
2246:Api\core\src/vl53l0x_api.c **** 		}
2247:Api\core\src/vl53l0x_api.c **** 
2248:Api\core\src/vl53l0x_api.c **** 		break;
 8519              		.loc 1 2248 0
 8520 0160 4EE0     		b	.L405
 8521              	.L391:
2249:Api\core\src/vl53l0x_api.c **** 	case VL53L0X_DEVICEMODE_CONTINUOUS_RANGING:
2250:Api\core\src/vl53l0x_api.c **** 		/* Back-to-back mode */
2251:Api\core\src/vl53l0x_api.c **** 
2252:Api\core\src/vl53l0x_api.c **** 		/* Check if need to apply interrupt settings */
2253:Api\core\src/vl53l0x_api.c **** 		if (Status == VL53L0X_ERROR_NONE)
 8522              		.loc 1 2253 0
 8523 0162 1723     		movs	r3, #23
 8524 0164 FB18     		adds	r3, r7, r3
 8525 0166 1B78     		ldrb	r3, [r3]
 8526 0168 5BB2     		sxtb	r3, r3
 8527 016a 002B     		cmp	r3, #0
 8528 016c 08D1     		bne	.L399
2254:Api\core\src/vl53l0x_api.c **** 			Status = VL53L0X_CheckAndLoadInterruptSettings(Dev, 1);
 8529              		.loc 1 2254 0
 8530 016e 1723     		movs	r3, #23
 8531 0170 FC18     		adds	r4, r7, r3
 8532 0172 7B68     		ldr	r3, [r7, #4]
 8533 0174 0121     		movs	r1, #1
 8534 0176 1800     		movs	r0, r3
 8535 0178 FFF7FEFF 		bl	VL53L0X_CheckAndLoadInterruptSettings
 8536 017c 0300     		movs	r3, r0
 8537 017e 2370     		strb	r3, [r4]
 8538              	.L399:
2255:Api\core\src/vl53l0x_api.c **** 
2256:Api\core\src/vl53l0x_api.c **** 		Status = VL53L0X_WrByte(Dev,
 8539              		.loc 1 2256 0
 8540 0180 1723     		movs	r3, #23
 8541 0182 FC18     		adds	r4, r7, r3
 8542 0184 7B68     		ldr	r3, [r7, #4]
 8543 0186 0222     		movs	r2, #2
 8544 0188 0021     		movs	r1, #0
 8545 018a 1800     		movs	r0, r3
 8546 018c FFF7FEFF 		bl	VL53L0X_WrByte
 8547 0190 0300     		movs	r3, r0
 8548 0192 2370     		strb	r3, [r4]
2257:Api\core\src/vl53l0x_api.c **** 		VL53L0X_REG_SYSRANGE_START,
2258:Api\core\src/vl53l0x_api.c **** 		VL53L0X_REG_SYSRANGE_MODE_BACKTOBACK);
2259:Api\core\src/vl53l0x_api.c **** 		if (Status == VL53L0X_ERROR_NONE) {
 8549              		.loc 1 2259 0
 8550 0194 1723     		movs	r3, #23
 8551 0196 FB18     		adds	r3, r7, r3
ARM GAS  C:\Users\ilya\AppData\Local\Temp\ccpEIuqL.s 			page 191


 8552 0198 1B78     		ldrb	r3, [r3]
 8553 019a 5BB2     		sxtb	r3, r3
 8554 019c 002B     		cmp	r3, #0
 8555 019e 31D1     		bne	.L406
2260:Api\core\src/vl53l0x_api.c **** 			/* Set PAL State to Running */
2261:Api\core\src/vl53l0x_api.c **** 			PALDevDataSet(Dev, PalState, VL53L0X_STATE_RUNNING);
 8556              		.loc 1 2261 0
 8557 01a0 7A68     		ldr	r2, [r7, #4]
 8558 01a2 9923     		movs	r3, #153
 8559 01a4 5B00     		lsls	r3, r3, #1
 8560 01a6 0421     		movs	r1, #4
 8561 01a8 D154     		strb	r1, [r2, r3]
2262:Api\core\src/vl53l0x_api.c **** 		}
2263:Api\core\src/vl53l0x_api.c **** 		break;
 8562              		.loc 1 2263 0
 8563 01aa 2BE0     		b	.L406
 8564              	.L392:
2264:Api\core\src/vl53l0x_api.c **** 	case VL53L0X_DEVICEMODE_CONTINUOUS_TIMED_RANGING:
2265:Api\core\src/vl53l0x_api.c **** 		/* Continuous mode */
2266:Api\core\src/vl53l0x_api.c **** 		/* Check if need to apply interrupt settings */
2267:Api\core\src/vl53l0x_api.c **** 		if (Status == VL53L0X_ERROR_NONE)
 8565              		.loc 1 2267 0
 8566 01ac 1723     		movs	r3, #23
 8567 01ae FB18     		adds	r3, r7, r3
 8568 01b0 1B78     		ldrb	r3, [r3]
 8569 01b2 5BB2     		sxtb	r3, r3
 8570 01b4 002B     		cmp	r3, #0
 8571 01b6 08D1     		bne	.L401
2268:Api\core\src/vl53l0x_api.c **** 			Status = VL53L0X_CheckAndLoadInterruptSettings(Dev, 1);
 8572              		.loc 1 2268 0
 8573 01b8 1723     		movs	r3, #23
 8574 01ba FC18     		adds	r4, r7, r3
 8575 01bc 7B68     		ldr	r3, [r7, #4]
 8576 01be 0121     		movs	r1, #1
 8577 01c0 1800     		movs	r0, r3
 8578 01c2 FFF7FEFF 		bl	VL53L0X_CheckAndLoadInterruptSettings
 8579 01c6 0300     		movs	r3, r0
 8580 01c8 2370     		strb	r3, [r4]
 8581              	.L401:
2269:Api\core\src/vl53l0x_api.c **** 
2270:Api\core\src/vl53l0x_api.c **** 		Status = VL53L0X_WrByte(Dev,
 8582              		.loc 1 2270 0
 8583 01ca 1723     		movs	r3, #23
 8584 01cc FC18     		adds	r4, r7, r3
 8585 01ce 7B68     		ldr	r3, [r7, #4]
 8586 01d0 0422     		movs	r2, #4
 8587 01d2 0021     		movs	r1, #0
 8588 01d4 1800     		movs	r0, r3
 8589 01d6 FFF7FEFF 		bl	VL53L0X_WrByte
 8590 01da 0300     		movs	r3, r0
 8591 01dc 2370     		strb	r3, [r4]
2271:Api\core\src/vl53l0x_api.c **** 		VL53L0X_REG_SYSRANGE_START,
2272:Api\core\src/vl53l0x_api.c **** 		VL53L0X_REG_SYSRANGE_MODE_TIMED);
2273:Api\core\src/vl53l0x_api.c **** 
2274:Api\core\src/vl53l0x_api.c **** 		if (Status == VL53L0X_ERROR_NONE) {
 8592              		.loc 1 2274 0
 8593 01de 1723     		movs	r3, #23
ARM GAS  C:\Users\ilya\AppData\Local\Temp\ccpEIuqL.s 			page 192


 8594 01e0 FB18     		adds	r3, r7, r3
 8595 01e2 1B78     		ldrb	r3, [r3]
 8596 01e4 5BB2     		sxtb	r3, r3
 8597 01e6 002B     		cmp	r3, #0
 8598 01e8 0ED1     		bne	.L407
2275:Api\core\src/vl53l0x_api.c **** 			/* Set PAL State to Running */
2276:Api\core\src/vl53l0x_api.c **** 			PALDevDataSet(Dev, PalState, VL53L0X_STATE_RUNNING);
 8599              		.loc 1 2276 0
 8600 01ea 7A68     		ldr	r2, [r7, #4]
 8601 01ec 9923     		movs	r3, #153
 8602 01ee 5B00     		lsls	r3, r3, #1
 8603 01f0 0421     		movs	r1, #4
 8604 01f2 D154     		strb	r1, [r2, r3]
2277:Api\core\src/vl53l0x_api.c **** 		}
2278:Api\core\src/vl53l0x_api.c **** 		break;
 8605              		.loc 1 2278 0
 8606 01f4 08E0     		b	.L407
 8607              	.L404:
2279:Api\core\src/vl53l0x_api.c **** 	default:
2280:Api\core\src/vl53l0x_api.c **** 		/* Selected mode not supported */
2281:Api\core\src/vl53l0x_api.c **** 		Status = VL53L0X_ERROR_MODE_NOT_SUPPORTED;
 8608              		.loc 1 2281 0
 8609 01f6 1723     		movs	r3, #23
 8610 01f8 FB18     		adds	r3, r7, r3
 8611 01fa F822     		movs	r2, #248
 8612 01fc 1A70     		strb	r2, [r3]
 8613 01fe 04E0     		b	.L398
 8614              	.L405:
2248:Api\core\src/vl53l0x_api.c **** 	case VL53L0X_DEVICEMODE_CONTINUOUS_RANGING:
 8615              		.loc 1 2248 0
 8616 0200 C046     		nop
 8617 0202 02E0     		b	.L398
 8618              	.L406:
2263:Api\core\src/vl53l0x_api.c **** 	case VL53L0X_DEVICEMODE_CONTINUOUS_TIMED_RANGING:
 8619              		.loc 1 2263 0
 8620 0204 C046     		nop
 8621 0206 00E0     		b	.L398
 8622              	.L407:
2278:Api\core\src/vl53l0x_api.c **** 	default:
 8623              		.loc 1 2278 0
 8624 0208 C046     		nop
 8625              	.L398:
2282:Api\core\src/vl53l0x_api.c **** 	}
2283:Api\core\src/vl53l0x_api.c **** 
2284:Api\core\src/vl53l0x_api.c **** 
2285:Api\core\src/vl53l0x_api.c **** 	LOG_FUNCTION_END(Status);
2286:Api\core\src/vl53l0x_api.c **** 	return Status;
 8626              		.loc 1 2286 0
 8627 020a 1723     		movs	r3, #23
 8628 020c FB18     		adds	r3, r7, r3
 8629 020e 1B78     		ldrb	r3, [r3]
 8630 0210 5BB2     		sxtb	r3, r3
2287:Api\core\src/vl53l0x_api.c **** }
 8631              		.loc 1 2287 0
 8632 0212 1800     		movs	r0, r3
 8633 0214 BD46     		mov	sp, r7
 8634 0216 07B0     		add	sp, sp, #28
ARM GAS  C:\Users\ilya\AppData\Local\Temp\ccpEIuqL.s 			page 193


 8635              		@ sp needed
 8636 0218 90BD     		pop	{r4, r7, pc}
 8637              	.L409:
 8638 021a C046     		.align	2
 8639              	.L408:
 8640 021c CF070000 		.word	1999
 8641              		.cfi_endproc
 8642              	.LFE74:
 8643              		.size	VL53L0X_StartMeasurement, .-VL53L0X_StartMeasurement
 8644              		.section	.text.VL53L0X_StopMeasurement,"ax",%progbits
 8645              		.align	2
 8646              		.global	VL53L0X_StopMeasurement
 8647              		.code	16
 8648              		.thumb_func
 8649              		.type	VL53L0X_StopMeasurement, %function
 8650              	VL53L0X_StopMeasurement:
 8651              	.LFB75:
2288:Api\core\src/vl53l0x_api.c **** 
2289:Api\core\src/vl53l0x_api.c **** VL53L0X_Error VL53L0X_StopMeasurement(VL53L0X_DEV Dev)
2290:Api\core\src/vl53l0x_api.c **** {
 8652              		.loc 1 2290 0
 8653              		.cfi_startproc
 8654              		@ args = 0, pretend = 0, frame = 16
 8655              		@ frame_needed = 1, uses_anonymous_args = 0
 8656 0000 90B5     		push	{r4, r7, lr}
 8657              		.cfi_def_cfa_offset 12
 8658              		.cfi_offset 4, -12
 8659              		.cfi_offset 7, -8
 8660              		.cfi_offset 14, -4
 8661 0002 85B0     		sub	sp, sp, #20
 8662              		.cfi_def_cfa_offset 32
 8663 0004 00AF     		add	r7, sp, #0
 8664              		.cfi_def_cfa_register 7
 8665 0006 7860     		str	r0, [r7, #4]
2291:Api\core\src/vl53l0x_api.c **** 	VL53L0X_Error Status = VL53L0X_ERROR_NONE;
 8666              		.loc 1 2291 0
 8667 0008 0F23     		movs	r3, #15
 8668 000a FB18     		adds	r3, r7, r3
 8669 000c 0022     		movs	r2, #0
 8670 000e 1A70     		strb	r2, [r3]
2292:Api\core\src/vl53l0x_api.c **** 	LOG_FUNCTION_START("");
2293:Api\core\src/vl53l0x_api.c **** 
2294:Api\core\src/vl53l0x_api.c **** 	Status = VL53L0X_WrByte(Dev, VL53L0X_REG_SYSRANGE_START,
 8671              		.loc 1 2294 0
 8672 0010 0F23     		movs	r3, #15
 8673 0012 FC18     		adds	r4, r7, r3
 8674 0014 7B68     		ldr	r3, [r7, #4]
 8675 0016 0022     		movs	r2, #0
 8676 0018 0021     		movs	r1, #0
 8677 001a 1800     		movs	r0, r3
 8678 001c FFF7FEFF 		bl	VL53L0X_WrByte
 8679 0020 0300     		movs	r3, r0
 8680 0022 2370     		strb	r3, [r4]
2295:Api\core\src/vl53l0x_api.c **** 	VL53L0X_REG_SYSRANGE_MODE_SINGLESHOT);
2296:Api\core\src/vl53l0x_api.c **** 
2297:Api\core\src/vl53l0x_api.c **** 	Status = VL53L0X_WrByte(Dev, 0xFF, 0x01);
 8681              		.loc 1 2297 0
ARM GAS  C:\Users\ilya\AppData\Local\Temp\ccpEIuqL.s 			page 194


 8682 0024 0F23     		movs	r3, #15
 8683 0026 FC18     		adds	r4, r7, r3
 8684 0028 7B68     		ldr	r3, [r7, #4]
 8685 002a 0122     		movs	r2, #1
 8686 002c FF21     		movs	r1, #255
 8687 002e 1800     		movs	r0, r3
 8688 0030 FFF7FEFF 		bl	VL53L0X_WrByte
 8689 0034 0300     		movs	r3, r0
 8690 0036 2370     		strb	r3, [r4]
2298:Api\core\src/vl53l0x_api.c **** 	Status = VL53L0X_WrByte(Dev, 0x00, 0x00);
 8691              		.loc 1 2298 0
 8692 0038 0F23     		movs	r3, #15
 8693 003a FC18     		adds	r4, r7, r3
 8694 003c 7B68     		ldr	r3, [r7, #4]
 8695 003e 0022     		movs	r2, #0
 8696 0040 0021     		movs	r1, #0
 8697 0042 1800     		movs	r0, r3
 8698 0044 FFF7FEFF 		bl	VL53L0X_WrByte
 8699 0048 0300     		movs	r3, r0
 8700 004a 2370     		strb	r3, [r4]
2299:Api\core\src/vl53l0x_api.c **** 	Status = VL53L0X_WrByte(Dev, 0x91, 0x00);
 8701              		.loc 1 2299 0
 8702 004c 0F23     		movs	r3, #15
 8703 004e FC18     		adds	r4, r7, r3
 8704 0050 7B68     		ldr	r3, [r7, #4]
 8705 0052 0022     		movs	r2, #0
 8706 0054 9121     		movs	r1, #145
 8707 0056 1800     		movs	r0, r3
 8708 0058 FFF7FEFF 		bl	VL53L0X_WrByte
 8709 005c 0300     		movs	r3, r0
 8710 005e 2370     		strb	r3, [r4]
2300:Api\core\src/vl53l0x_api.c **** 	Status = VL53L0X_WrByte(Dev, 0x00, 0x01);
 8711              		.loc 1 2300 0
 8712 0060 0F23     		movs	r3, #15
 8713 0062 FC18     		adds	r4, r7, r3
 8714 0064 7B68     		ldr	r3, [r7, #4]
 8715 0066 0122     		movs	r2, #1
 8716 0068 0021     		movs	r1, #0
 8717 006a 1800     		movs	r0, r3
 8718 006c FFF7FEFF 		bl	VL53L0X_WrByte
 8719 0070 0300     		movs	r3, r0
 8720 0072 2370     		strb	r3, [r4]
2301:Api\core\src/vl53l0x_api.c **** 	Status = VL53L0X_WrByte(Dev, 0xFF, 0x00);
 8721              		.loc 1 2301 0
 8722 0074 0F23     		movs	r3, #15
 8723 0076 FC18     		adds	r4, r7, r3
 8724 0078 7B68     		ldr	r3, [r7, #4]
 8725 007a 0022     		movs	r2, #0
 8726 007c FF21     		movs	r1, #255
 8727 007e 1800     		movs	r0, r3
 8728 0080 FFF7FEFF 		bl	VL53L0X_WrByte
 8729 0084 0300     		movs	r3, r0
 8730 0086 2370     		strb	r3, [r4]
2302:Api\core\src/vl53l0x_api.c **** 
2303:Api\core\src/vl53l0x_api.c **** 	if (Status == VL53L0X_ERROR_NONE) {
 8731              		.loc 1 2303 0
 8732 0088 0F23     		movs	r3, #15
ARM GAS  C:\Users\ilya\AppData\Local\Temp\ccpEIuqL.s 			page 195


 8733 008a FB18     		adds	r3, r7, r3
 8734 008c 1B78     		ldrb	r3, [r3]
 8735 008e 5BB2     		sxtb	r3, r3
 8736 0090 002B     		cmp	r3, #0
 8737 0092 04D1     		bne	.L411
2304:Api\core\src/vl53l0x_api.c **** 		/* Set PAL State to Idle */
2305:Api\core\src/vl53l0x_api.c **** 		PALDevDataSet(Dev, PalState, VL53L0X_STATE_IDLE);
 8738              		.loc 1 2305 0
 8739 0094 7A68     		ldr	r2, [r7, #4]
 8740 0096 9923     		movs	r3, #153
 8741 0098 5B00     		lsls	r3, r3, #1
 8742 009a 0321     		movs	r1, #3
 8743 009c D154     		strb	r1, [r2, r3]
 8744              	.L411:
2306:Api\core\src/vl53l0x_api.c **** 	}
2307:Api\core\src/vl53l0x_api.c **** 
2308:Api\core\src/vl53l0x_api.c **** 	/* Check if need to apply interrupt settings */
2309:Api\core\src/vl53l0x_api.c **** 	if (Status == VL53L0X_ERROR_NONE)
 8745              		.loc 1 2309 0
 8746 009e 0F23     		movs	r3, #15
 8747 00a0 FB18     		adds	r3, r7, r3
 8748 00a2 1B78     		ldrb	r3, [r3]
 8749 00a4 5BB2     		sxtb	r3, r3
 8750 00a6 002B     		cmp	r3, #0
 8751 00a8 08D1     		bne	.L412
2310:Api\core\src/vl53l0x_api.c **** 		Status = VL53L0X_CheckAndLoadInterruptSettings(Dev, 0);
 8752              		.loc 1 2310 0
 8753 00aa 0F23     		movs	r3, #15
 8754 00ac FC18     		adds	r4, r7, r3
 8755 00ae 7B68     		ldr	r3, [r7, #4]
 8756 00b0 0021     		movs	r1, #0
 8757 00b2 1800     		movs	r0, r3
 8758 00b4 FFF7FEFF 		bl	VL53L0X_CheckAndLoadInterruptSettings
 8759 00b8 0300     		movs	r3, r0
 8760 00ba 2370     		strb	r3, [r4]
 8761              	.L412:
2311:Api\core\src/vl53l0x_api.c **** 
2312:Api\core\src/vl53l0x_api.c **** 	LOG_FUNCTION_END(Status);
2313:Api\core\src/vl53l0x_api.c **** 	return Status;
 8762              		.loc 1 2313 0
 8763 00bc 0F23     		movs	r3, #15
 8764 00be FB18     		adds	r3, r7, r3
 8765 00c0 1B78     		ldrb	r3, [r3]
 8766 00c2 5BB2     		sxtb	r3, r3
2314:Api\core\src/vl53l0x_api.c **** }
 8767              		.loc 1 2314 0
 8768 00c4 1800     		movs	r0, r3
 8769 00c6 BD46     		mov	sp, r7
 8770 00c8 05B0     		add	sp, sp, #20
 8771              		@ sp needed
 8772 00ca 90BD     		pop	{r4, r7, pc}
 8773              		.cfi_endproc
 8774              	.LFE75:
 8775              		.size	VL53L0X_StopMeasurement, .-VL53L0X_StopMeasurement
 8776              		.section	.text.VL53L0X_GetMeasurementDataReady,"ax",%progbits
 8777              		.align	2
 8778              		.global	VL53L0X_GetMeasurementDataReady
ARM GAS  C:\Users\ilya\AppData\Local\Temp\ccpEIuqL.s 			page 196


 8779              		.code	16
 8780              		.thumb_func
 8781              		.type	VL53L0X_GetMeasurementDataReady, %function
 8782              	VL53L0X_GetMeasurementDataReady:
 8783              	.LFB76:
2315:Api\core\src/vl53l0x_api.c **** 
2316:Api\core\src/vl53l0x_api.c **** VL53L0X_Error VL53L0X_GetMeasurementDataReady(VL53L0X_DEV Dev,
2317:Api\core\src/vl53l0x_api.c **** 	uint8_t *pMeasurementDataReady)
2318:Api\core\src/vl53l0x_api.c **** {
 8784              		.loc 1 2318 0
 8785              		.cfi_startproc
 8786              		@ args = 0, pretend = 0, frame = 16
 8787              		@ frame_needed = 1, uses_anonymous_args = 0
 8788 0000 90B5     		push	{r4, r7, lr}
 8789              		.cfi_def_cfa_offset 12
 8790              		.cfi_offset 4, -12
 8791              		.cfi_offset 7, -8
 8792              		.cfi_offset 14, -4
 8793 0002 85B0     		sub	sp, sp, #20
 8794              		.cfi_def_cfa_offset 32
 8795 0004 00AF     		add	r7, sp, #0
 8796              		.cfi_def_cfa_register 7
 8797 0006 7860     		str	r0, [r7, #4]
 8798 0008 3960     		str	r1, [r7]
2319:Api\core\src/vl53l0x_api.c **** 	VL53L0X_Error Status = VL53L0X_ERROR_NONE;
 8799              		.loc 1 2319 0
 8800 000a 0F23     		movs	r3, #15
 8801 000c FB18     		adds	r3, r7, r3
 8802 000e 0022     		movs	r2, #0
 8803 0010 1A70     		strb	r2, [r3]
2320:Api\core\src/vl53l0x_api.c **** 	uint8_t SysRangeStatusRegister;
2321:Api\core\src/vl53l0x_api.c **** 	uint8_t InterruptConfig;
2322:Api\core\src/vl53l0x_api.c **** 	uint32_t InterruptMask;
2323:Api\core\src/vl53l0x_api.c **** 	LOG_FUNCTION_START("");
2324:Api\core\src/vl53l0x_api.c **** 
2325:Api\core\src/vl53l0x_api.c **** 	InterruptConfig = VL53L0X_GETDEVICESPECIFICPARAMETER(Dev,
 8804              		.loc 1 2325 0
 8805 0012 0E23     		movs	r3, #14
 8806 0014 FB18     		adds	r3, r7, r3
 8807 0016 7A68     		ldr	r2, [r7, #4]
 8808 0018 DA21     		movs	r1, #218
 8809 001a 525C     		ldrb	r2, [r2, r1]
 8810 001c 1A70     		strb	r2, [r3]
2326:Api\core\src/vl53l0x_api.c **** 		Pin0GpioFunctionality);
2327:Api\core\src/vl53l0x_api.c **** 
2328:Api\core\src/vl53l0x_api.c **** 	if (InterruptConfig ==
 8811              		.loc 1 2328 0
 8812 001e 0E23     		movs	r3, #14
 8813 0020 FB18     		adds	r3, r7, r3
 8814 0022 1B78     		ldrb	r3, [r3]
 8815 0024 042B     		cmp	r3, #4
 8816 0026 15D1     		bne	.L415
2329:Api\core\src/vl53l0x_api.c **** 		VL53L0X_REG_SYSTEM_INTERRUPT_GPIO_NEW_SAMPLE_READY) {
2330:Api\core\src/vl53l0x_api.c **** 		Status = VL53L0X_GetInterruptMaskStatus(Dev, &InterruptMask);
 8817              		.loc 1 2330 0
 8818 0028 0F23     		movs	r3, #15
 8819 002a FC18     		adds	r4, r7, r3
ARM GAS  C:\Users\ilya\AppData\Local\Temp\ccpEIuqL.s 			page 197


 8820 002c 0823     		movs	r3, #8
 8821 002e FA18     		adds	r2, r7, r3
 8822 0030 7B68     		ldr	r3, [r7, #4]
 8823 0032 1100     		movs	r1, r2
 8824 0034 1800     		movs	r0, r3
 8825 0036 FFF7FEFF 		bl	VL53L0X_GetInterruptMaskStatus
 8826 003a 0300     		movs	r3, r0
 8827 003c 2370     		strb	r3, [r4]
2331:Api\core\src/vl53l0x_api.c **** 		if (InterruptMask ==
 8828              		.loc 1 2331 0
 8829 003e BB68     		ldr	r3, [r7, #8]
 8830 0040 042B     		cmp	r3, #4
 8831 0042 03D1     		bne	.L416
2332:Api\core\src/vl53l0x_api.c **** 		VL53L0X_REG_SYSTEM_INTERRUPT_GPIO_NEW_SAMPLE_READY)
2333:Api\core\src/vl53l0x_api.c **** 			*pMeasurementDataReady = 1;
 8832              		.loc 1 2333 0
 8833 0044 3B68     		ldr	r3, [r7]
 8834 0046 0122     		movs	r2, #1
 8835 0048 1A70     		strb	r2, [r3]
 8836 004a 22E0     		b	.L418
 8837              	.L416:
2334:Api\core\src/vl53l0x_api.c **** 		else
2335:Api\core\src/vl53l0x_api.c **** 			*pMeasurementDataReady = 0;
 8838              		.loc 1 2335 0
 8839 004c 3B68     		ldr	r3, [r7]
 8840 004e 0022     		movs	r2, #0
 8841 0050 1A70     		strb	r2, [r3]
 8842 0052 1EE0     		b	.L418
 8843              	.L415:
2336:Api\core\src/vl53l0x_api.c **** 	} else {
2337:Api\core\src/vl53l0x_api.c **** 		Status = VL53L0X_RdByte(Dev, VL53L0X_REG_RESULT_RANGE_STATUS,
 8844              		.loc 1 2337 0
 8845 0054 0F23     		movs	r3, #15
 8846 0056 FC18     		adds	r4, r7, r3
 8847 0058 0D23     		movs	r3, #13
 8848 005a FA18     		adds	r2, r7, r3
 8849 005c 7B68     		ldr	r3, [r7, #4]
 8850 005e 1421     		movs	r1, #20
 8851 0060 1800     		movs	r0, r3
 8852 0062 FFF7FEFF 		bl	VL53L0X_RdByte
 8853 0066 0300     		movs	r3, r0
 8854 0068 2370     		strb	r3, [r4]
2338:Api\core\src/vl53l0x_api.c **** 			&SysRangeStatusRegister);
2339:Api\core\src/vl53l0x_api.c **** 		if (Status == VL53L0X_ERROR_NONE) {
 8855              		.loc 1 2339 0
 8856 006a 0F23     		movs	r3, #15
 8857 006c FB18     		adds	r3, r7, r3
 8858 006e 1B78     		ldrb	r3, [r3]
 8859 0070 5BB2     		sxtb	r3, r3
 8860 0072 002B     		cmp	r3, #0
 8861 0074 0DD1     		bne	.L418
2340:Api\core\src/vl53l0x_api.c **** 			if (SysRangeStatusRegister & 0x01)
 8862              		.loc 1 2340 0
 8863 0076 0D23     		movs	r3, #13
 8864 0078 FB18     		adds	r3, r7, r3
 8865 007a 1B78     		ldrb	r3, [r3]
 8866 007c 1A00     		movs	r2, r3
ARM GAS  C:\Users\ilya\AppData\Local\Temp\ccpEIuqL.s 			page 198


 8867 007e 0123     		movs	r3, #1
 8868 0080 1340     		ands	r3, r2
 8869 0082 03D0     		beq	.L419
2341:Api\core\src/vl53l0x_api.c **** 				*pMeasurementDataReady = 1;
 8870              		.loc 1 2341 0
 8871 0084 3B68     		ldr	r3, [r7]
 8872 0086 0122     		movs	r2, #1
 8873 0088 1A70     		strb	r2, [r3]
 8874 008a 02E0     		b	.L418
 8875              	.L419:
2342:Api\core\src/vl53l0x_api.c **** 			else
2343:Api\core\src/vl53l0x_api.c **** 				*pMeasurementDataReady = 0;
 8876              		.loc 1 2343 0
 8877 008c 3B68     		ldr	r3, [r7]
 8878 008e 0022     		movs	r2, #0
 8879 0090 1A70     		strb	r2, [r3]
 8880              	.L418:
2344:Api\core\src/vl53l0x_api.c **** 		}
2345:Api\core\src/vl53l0x_api.c **** 	}
2346:Api\core\src/vl53l0x_api.c **** 
2347:Api\core\src/vl53l0x_api.c **** 	LOG_FUNCTION_END(Status);
2348:Api\core\src/vl53l0x_api.c **** 	return Status;
 8881              		.loc 1 2348 0
 8882 0092 0F23     		movs	r3, #15
 8883 0094 FB18     		adds	r3, r7, r3
 8884 0096 1B78     		ldrb	r3, [r3]
 8885 0098 5BB2     		sxtb	r3, r3
2349:Api\core\src/vl53l0x_api.c **** }
 8886              		.loc 1 2349 0
 8887 009a 1800     		movs	r0, r3
 8888 009c BD46     		mov	sp, r7
 8889 009e 05B0     		add	sp, sp, #20
 8890              		@ sp needed
 8891 00a0 90BD     		pop	{r4, r7, pc}
 8892              		.cfi_endproc
 8893              	.LFE76:
 8894              		.size	VL53L0X_GetMeasurementDataReady, .-VL53L0X_GetMeasurementDataReady
 8895 00a2 C046     		.section	.text.VL53L0X_WaitDeviceReadyForNewMeasurement,"ax",%progbits
 8896              		.align	2
 8897              		.global	VL53L0X_WaitDeviceReadyForNewMeasurement
 8898              		.code	16
 8899              		.thumb_func
 8900              		.type	VL53L0X_WaitDeviceReadyForNewMeasurement, %function
 8901              	VL53L0X_WaitDeviceReadyForNewMeasurement:
 8902              	.LFB77:
2350:Api\core\src/vl53l0x_api.c **** 
2351:Api\core\src/vl53l0x_api.c **** VL53L0X_Error VL53L0X_WaitDeviceReadyForNewMeasurement(VL53L0X_DEV Dev,
2352:Api\core\src/vl53l0x_api.c **** 	uint32_t MaxLoop)
2353:Api\core\src/vl53l0x_api.c **** {
 8903              		.loc 1 2353 0
 8904              		.cfi_startproc
 8905              		@ args = 0, pretend = 0, frame = 16
 8906              		@ frame_needed = 1, uses_anonymous_args = 0
 8907 0000 80B5     		push	{r7, lr}
 8908              		.cfi_def_cfa_offset 8
 8909              		.cfi_offset 7, -8
 8910              		.cfi_offset 14, -4
ARM GAS  C:\Users\ilya\AppData\Local\Temp\ccpEIuqL.s 			page 199


 8911 0002 84B0     		sub	sp, sp, #16
 8912              		.cfi_def_cfa_offset 24
 8913 0004 00AF     		add	r7, sp, #0
 8914              		.cfi_def_cfa_register 7
 8915 0006 7860     		str	r0, [r7, #4]
 8916 0008 3960     		str	r1, [r7]
2354:Api\core\src/vl53l0x_api.c **** 	VL53L0X_Error Status = VL53L0X_ERROR_NOT_IMPLEMENTED;
 8917              		.loc 1 2354 0
 8918 000a 0F23     		movs	r3, #15
 8919 000c FB18     		adds	r3, r7, r3
 8920 000e 9D22     		movs	r2, #157
 8921 0010 1A70     		strb	r2, [r3]
2355:Api\core\src/vl53l0x_api.c **** 	LOG_FUNCTION_START("");
2356:Api\core\src/vl53l0x_api.c **** 
2357:Api\core\src/vl53l0x_api.c **** 	/* not implemented for VL53L0X */
2358:Api\core\src/vl53l0x_api.c **** 
2359:Api\core\src/vl53l0x_api.c **** 	LOG_FUNCTION_END(Status);
2360:Api\core\src/vl53l0x_api.c **** 	return Status;
 8922              		.loc 1 2360 0
 8923 0012 0F23     		movs	r3, #15
 8924 0014 FB18     		adds	r3, r7, r3
 8925 0016 1B78     		ldrb	r3, [r3]
 8926 0018 5BB2     		sxtb	r3, r3
2361:Api\core\src/vl53l0x_api.c **** }
 8927              		.loc 1 2361 0
 8928 001a 1800     		movs	r0, r3
 8929 001c BD46     		mov	sp, r7
 8930 001e 04B0     		add	sp, sp, #16
 8931              		@ sp needed
 8932 0020 80BD     		pop	{r7, pc}
 8933              		.cfi_endproc
 8934              	.LFE77:
 8935              		.size	VL53L0X_WaitDeviceReadyForNewMeasurement, .-VL53L0X_WaitDeviceReadyForNewMeasurement
 8936              		.global	__aeabi_idiv
 8937 0022 C046     		.section	.text.VL53L0X_GetRangingMeasurementData,"ax",%progbits
 8938              		.align	2
 8939              		.global	VL53L0X_GetRangingMeasurementData
 8940              		.code	16
 8941              		.thumb_func
 8942              		.type	VL53L0X_GetRangingMeasurementData, %function
 8943              	VL53L0X_GetRangingMeasurementData:
 8944              	.LFB78:
2362:Api\core\src/vl53l0x_api.c **** 
2363:Api\core\src/vl53l0x_api.c **** 
2364:Api\core\src/vl53l0x_api.c **** VL53L0X_Error VL53L0X_GetRangingMeasurementData(VL53L0X_DEV Dev,
2365:Api\core\src/vl53l0x_api.c **** 	VL53L0X_RangingMeasurementData_t *pRangingMeasurementData)
2366:Api\core\src/vl53l0x_api.c **** {
 8945              		.loc 1 2366 0
 8946              		.cfi_startproc
 8947              		@ args = 0, pretend = 0, frame = 80
 8948              		@ frame_needed = 1, uses_anonymous_args = 0
 8949 0000 90B5     		push	{r4, r7, lr}
 8950              		.cfi_def_cfa_offset 12
 8951              		.cfi_offset 4, -12
 8952              		.cfi_offset 7, -8
 8953              		.cfi_offset 14, -4
 8954 0002 97B0     		sub	sp, sp, #92
ARM GAS  C:\Users\ilya\AppData\Local\Temp\ccpEIuqL.s 			page 200


 8955              		.cfi_def_cfa_offset 104
 8956 0004 02AF     		add	r7, sp, #8
 8957              		.cfi_def_cfa 7, 96
 8958 0006 7860     		str	r0, [r7, #4]
 8959 0008 3960     		str	r1, [r7]
2367:Api\core\src/vl53l0x_api.c **** 	VL53L0X_Error Status = VL53L0X_ERROR_NONE;
 8960              		.loc 1 2367 0
 8961 000a 4F23     		movs	r3, #79
 8962 000c FB18     		adds	r3, r7, r3
 8963 000e 0022     		movs	r2, #0
 8964 0010 1A70     		strb	r2, [r3]
2368:Api\core\src/vl53l0x_api.c **** 	uint8_t DeviceRangeStatus;
2369:Api\core\src/vl53l0x_api.c **** 	uint8_t RangeFractionalEnable;
2370:Api\core\src/vl53l0x_api.c **** 	uint8_t PalRangeStatus;
2371:Api\core\src/vl53l0x_api.c **** 	uint8_t XTalkCompensationEnable;
2372:Api\core\src/vl53l0x_api.c **** 	uint16_t AmbientRate;
2373:Api\core\src/vl53l0x_api.c **** 	FixPoint1616_t SignalRate;
2374:Api\core\src/vl53l0x_api.c **** 	uint16_t XTalkCompensationRateMegaCps;
2375:Api\core\src/vl53l0x_api.c **** 	uint16_t EffectiveSpadRtnCount;
2376:Api\core\src/vl53l0x_api.c **** 	uint16_t tmpuint16;
2377:Api\core\src/vl53l0x_api.c **** 	uint16_t XtalkRangeMilliMeter;
2378:Api\core\src/vl53l0x_api.c **** 	uint16_t LinearityCorrectiveGain;
2379:Api\core\src/vl53l0x_api.c **** 	uint8_t localBuffer[12];
2380:Api\core\src/vl53l0x_api.c **** 	VL53L0X_RangingMeasurementData_t LastRangeDataBuffer;
2381:Api\core\src/vl53l0x_api.c **** 
2382:Api\core\src/vl53l0x_api.c **** 	LOG_FUNCTION_START("");
2383:Api\core\src/vl53l0x_api.c **** 
2384:Api\core\src/vl53l0x_api.c **** 	/*
2385:Api\core\src/vl53l0x_api.c **** 	 * use multi read even if some registers are not useful, result will
2386:Api\core\src/vl53l0x_api.c **** 	 * be more efficient
2387:Api\core\src/vl53l0x_api.c **** 	 * start reading at 0x14 dec20
2388:Api\core\src/vl53l0x_api.c **** 	 * end reading at 0x21 dec33 total 14 bytes to read
2389:Api\core\src/vl53l0x_api.c **** 	 */
2390:Api\core\src/vl53l0x_api.c **** 	Status = VL53L0X_ReadMulti(Dev, 0x14, localBuffer, 12);
 8965              		.loc 1 2390 0
 8966 0012 4F23     		movs	r3, #79
 8967 0014 FC18     		adds	r4, r7, r3
 8968 0016 2823     		movs	r3, #40
 8969 0018 FA18     		adds	r2, r7, r3
 8970 001a 7868     		ldr	r0, [r7, #4]
 8971 001c 0C23     		movs	r3, #12
 8972 001e 1421     		movs	r1, #20
 8973 0020 FFF7FEFF 		bl	VL53L0X_ReadMulti
 8974 0024 0300     		movs	r3, r0
 8975 0026 2370     		strb	r3, [r4]
2391:Api\core\src/vl53l0x_api.c **** 
2392:Api\core\src/vl53l0x_api.c **** 	if (Status == VL53L0X_ERROR_NONE) {
 8976              		.loc 1 2392 0
 8977 0028 4F23     		movs	r3, #79
 8978 002a FB18     		adds	r3, r7, r3
 8979 002c 1B78     		ldrb	r3, [r3]
 8980 002e 5BB2     		sxtb	r3, r3
 8981 0030 002B     		cmp	r3, #0
 8982 0032 00D0     		beq	.LCB7326
 8983 0034 08E1     		b	.L424	@long jump
 8984              	.LCB7326:
2393:Api\core\src/vl53l0x_api.c **** 
ARM GAS  C:\Users\ilya\AppData\Local\Temp\ccpEIuqL.s 			page 201


2394:Api\core\src/vl53l0x_api.c **** 		pRangingMeasurementData->ZoneId = 0; /* Only one zone */
 8985              		.loc 1 2394 0
 8986 0036 3B68     		ldr	r3, [r7]
 8987 0038 0022     		movs	r2, #0
 8988 003a 9A75     		strb	r2, [r3, #22]
2395:Api\core\src/vl53l0x_api.c **** 		pRangingMeasurementData->TimeStamp = 0; /* Not Implemented */
 8989              		.loc 1 2395 0
 8990 003c 3B68     		ldr	r3, [r7]
 8991 003e 0022     		movs	r2, #0
 8992 0040 1A60     		str	r2, [r3]
2396:Api\core\src/vl53l0x_api.c **** 
2397:Api\core\src/vl53l0x_api.c **** 		tmpuint16 = VL53L0X_MAKEUINT16(localBuffer[11], localBuffer[10]);
 8993              		.loc 1 2397 0
 8994 0042 2823     		movs	r3, #40
 8995 0044 FB18     		adds	r3, r7, r3
 8996 0046 9B7A     		ldrb	r3, [r3, #10]
 8997 0048 9BB2     		uxth	r3, r3
 8998 004a 1B02     		lsls	r3, r3, #8
 8999 004c 99B2     		uxth	r1, r3
 9000 004e 2823     		movs	r3, #40
 9001 0050 FB18     		adds	r3, r7, r3
 9002 0052 DB7A     		ldrb	r3, [r3, #11]
 9003 0054 9AB2     		uxth	r2, r3
 9004 0056 4C23     		movs	r3, #76
 9005 0058 FB18     		adds	r3, r7, r3
 9006 005a 8A18     		adds	r2, r1, r2
 9007 005c 1A80     		strh	r2, [r3]
2398:Api\core\src/vl53l0x_api.c **** 		/* cut1.1 if SYSTEM__RANGE_CONFIG if 1 range is 2bits fractional
2399:Api\core\src/vl53l0x_api.c **** 		 *(format 11.2) else no fractional
2400:Api\core\src/vl53l0x_api.c **** 		 */
2401:Api\core\src/vl53l0x_api.c **** 
2402:Api\core\src/vl53l0x_api.c **** 		pRangingMeasurementData->MeasurementTimeUsec = 0;
 9008              		.loc 1 2402 0
 9009 005e 3B68     		ldr	r3, [r7]
 9010 0060 0022     		movs	r2, #0
 9011 0062 5A60     		str	r2, [r3, #4]
2403:Api\core\src/vl53l0x_api.c **** 
2404:Api\core\src/vl53l0x_api.c **** 		SignalRate = VL53L0X_FIXPOINT97TOFIXPOINT1616(
 9012              		.loc 1 2404 0
 9013 0064 2823     		movs	r3, #40
 9014 0066 FB18     		adds	r3, r7, r3
 9015 0068 9B79     		ldrb	r3, [r3, #6]
 9016 006a 9BB2     		uxth	r3, r3
 9017 006c 1B02     		lsls	r3, r3, #8
 9018 006e 9AB2     		uxth	r2, r3
 9019 0070 2823     		movs	r3, #40
 9020 0072 FB18     		adds	r3, r7, r3
 9021 0074 DB79     		ldrb	r3, [r3, #7]
 9022 0076 9BB2     		uxth	r3, r3
 9023 0078 D318     		adds	r3, r2, r3
 9024 007a 9BB2     		uxth	r3, r3
 9025 007c 5B02     		lsls	r3, r3, #9
 9026 007e 7B64     		str	r3, [r7, #68]
2405:Api\core\src/vl53l0x_api.c **** 			VL53L0X_MAKEUINT16(localBuffer[7], localBuffer[6]));
2406:Api\core\src/vl53l0x_api.c **** 		/* peak_signal_count_rate_rtn_mcps */
2407:Api\core\src/vl53l0x_api.c **** 		pRangingMeasurementData->SignalRateRtnMegaCps = SignalRate;
 9027              		.loc 1 2407 0
ARM GAS  C:\Users\ilya\AppData\Local\Temp\ccpEIuqL.s 			page 202


 9028 0080 3B68     		ldr	r3, [r7]
 9029 0082 7A6C     		ldr	r2, [r7, #68]
 9030 0084 DA60     		str	r2, [r3, #12]
2408:Api\core\src/vl53l0x_api.c **** 
2409:Api\core\src/vl53l0x_api.c **** 		AmbientRate = VL53L0X_MAKEUINT16(localBuffer[9], localBuffer[8]);
 9031              		.loc 1 2409 0
 9032 0086 2823     		movs	r3, #40
 9033 0088 FB18     		adds	r3, r7, r3
 9034 008a 1B7A     		ldrb	r3, [r3, #8]
 9035 008c 9BB2     		uxth	r3, r3
 9036 008e 1B02     		lsls	r3, r3, #8
 9037 0090 99B2     		uxth	r1, r3
 9038 0092 2823     		movs	r3, #40
 9039 0094 FB18     		adds	r3, r7, r3
 9040 0096 5B7A     		ldrb	r3, [r3, #9]
 9041 0098 9AB2     		uxth	r2, r3
 9042 009a 4223     		movs	r3, #66
 9043 009c FB18     		adds	r3, r7, r3
 9044 009e 8A18     		adds	r2, r1, r2
 9045 00a0 1A80     		strh	r2, [r3]
2410:Api\core\src/vl53l0x_api.c **** 		pRangingMeasurementData->AmbientRateRtnMegaCps =
2411:Api\core\src/vl53l0x_api.c **** 			VL53L0X_FIXPOINT97TOFIXPOINT1616(AmbientRate);
 9046              		.loc 1 2411 0
 9047 00a2 4223     		movs	r3, #66
 9048 00a4 FB18     		adds	r3, r7, r3
 9049 00a6 1B88     		ldrh	r3, [r3]
 9050 00a8 5B02     		lsls	r3, r3, #9
 9051 00aa 1A00     		movs	r2, r3
2410:Api\core\src/vl53l0x_api.c **** 		pRangingMeasurementData->AmbientRateRtnMegaCps =
 9052              		.loc 1 2410 0
 9053 00ac 3B68     		ldr	r3, [r7]
 9054 00ae 1A61     		str	r2, [r3, #16]
2412:Api\core\src/vl53l0x_api.c **** 
2413:Api\core\src/vl53l0x_api.c **** 		EffectiveSpadRtnCount = VL53L0X_MAKEUINT16(localBuffer[3],
 9055              		.loc 1 2413 0
 9056 00b0 2823     		movs	r3, #40
 9057 00b2 FB18     		adds	r3, r7, r3
 9058 00b4 9B78     		ldrb	r3, [r3, #2]
 9059 00b6 9BB2     		uxth	r3, r3
 9060 00b8 1B02     		lsls	r3, r3, #8
 9061 00ba 99B2     		uxth	r1, r3
 9062 00bc 2823     		movs	r3, #40
 9063 00be FB18     		adds	r3, r7, r3
 9064 00c0 DB78     		ldrb	r3, [r3, #3]
 9065 00c2 9AB2     		uxth	r2, r3
 9066 00c4 4023     		movs	r3, #64
 9067 00c6 FB18     		adds	r3, r7, r3
 9068 00c8 8A18     		adds	r2, r1, r2
 9069 00ca 1A80     		strh	r2, [r3]
2414:Api\core\src/vl53l0x_api.c **** 			localBuffer[2]);
2415:Api\core\src/vl53l0x_api.c **** 		/* EffectiveSpadRtnCount is 8.8 format */
2416:Api\core\src/vl53l0x_api.c **** 		pRangingMeasurementData->EffectiveSpadRtnCount =
 9070              		.loc 1 2416 0
 9071 00cc 3B68     		ldr	r3, [r7]
 9072 00ce 4022     		movs	r2, #64
 9073 00d0 BA18     		adds	r2, r7, r2
 9074 00d2 1288     		ldrh	r2, [r2]
ARM GAS  C:\Users\ilya\AppData\Local\Temp\ccpEIuqL.s 			page 203


 9075 00d4 9A82     		strh	r2, [r3, #20]
2417:Api\core\src/vl53l0x_api.c **** 			EffectiveSpadRtnCount;
2418:Api\core\src/vl53l0x_api.c **** 
2419:Api\core\src/vl53l0x_api.c **** 		DeviceRangeStatus = localBuffer[0];
 9076              		.loc 1 2419 0
 9077 00d6 3F23     		movs	r3, #63
 9078 00d8 FB18     		adds	r3, r7, r3
 9079 00da 2822     		movs	r2, #40
 9080 00dc BA18     		adds	r2, r7, r2
 9081 00de 1278     		ldrb	r2, [r2]
 9082 00e0 1A70     		strb	r2, [r3]
2420:Api\core\src/vl53l0x_api.c **** 
2421:Api\core\src/vl53l0x_api.c **** 		/* Get Linearity Corrective Gain */
2422:Api\core\src/vl53l0x_api.c **** 		LinearityCorrectiveGain = PALDevDataGet(Dev,
 9083              		.loc 1 2422 0
 9084 00e2 3C23     		movs	r3, #60
 9085 00e4 FB18     		adds	r3, r7, r3
 9086 00e6 7968     		ldr	r1, [r7, #4]
 9087 00e8 A922     		movs	r2, #169
 9088 00ea 5200     		lsls	r2, r2, #1
 9089 00ec 8A5A     		ldrh	r2, [r1, r2]
 9090 00ee 1A80     		strh	r2, [r3]
2423:Api\core\src/vl53l0x_api.c **** 			LinearityCorrectiveGain);
2424:Api\core\src/vl53l0x_api.c **** 
2425:Api\core\src/vl53l0x_api.c **** 		/* Get ranging configuration */
2426:Api\core\src/vl53l0x_api.c **** 		RangeFractionalEnable = PALDevDataGet(Dev,
 9091              		.loc 1 2426 0
 9092 00f0 3B23     		movs	r3, #59
 9093 00f2 FB18     		adds	r3, r7, r3
 9094 00f4 7968     		ldr	r1, [r7, #4]
 9095 00f6 3222     		movs	r2, #50
 9096 00f8 FF32     		adds	r2, r2, #255
 9097 00fa 8A5C     		ldrb	r2, [r1, r2]
 9098 00fc 1A70     		strb	r2, [r3]
2427:Api\core\src/vl53l0x_api.c **** 			RangeFractionalEnable);
2428:Api\core\src/vl53l0x_api.c **** 
2429:Api\core\src/vl53l0x_api.c **** 		if (LinearityCorrectiveGain != 1000) {
 9099              		.loc 1 2429 0
 9100 00fe 3C23     		movs	r3, #60
 9101 0100 FB18     		adds	r3, r7, r3
 9102 0102 1A88     		ldrh	r2, [r3]
 9103 0104 FA23     		movs	r3, #250
 9104 0106 9B00     		lsls	r3, r3, #2
 9105 0108 9A42     		cmp	r2, r3
 9106 010a 5CD0     		beq	.L425
2430:Api\core\src/vl53l0x_api.c **** 
2431:Api\core\src/vl53l0x_api.c **** 			tmpuint16 = (uint16_t)((LinearityCorrectiveGain
2432:Api\core\src/vl53l0x_api.c **** 				* tmpuint16 + 500) / 1000);
 9107              		.loc 1 2432 0
 9108 010c 3C23     		movs	r3, #60
 9109 010e FB18     		adds	r3, r7, r3
 9110 0110 1B88     		ldrh	r3, [r3]
 9111 0112 4C22     		movs	r2, #76
 9112 0114 BA18     		adds	r2, r7, r2
 9113 0116 1288     		ldrh	r2, [r2]
 9114 0118 5343     		muls	r3, r2
 9115 011a F533     		adds	r3, r3, #245
ARM GAS  C:\Users\ilya\AppData\Local\Temp\ccpEIuqL.s 			page 204


 9116 011c FF33     		adds	r3, r3, #255
 9117 011e 1A00     		movs	r2, r3
 9118 0120 FA23     		movs	r3, #250
 9119 0122 9900     		lsls	r1, r3, #2
 9120 0124 1000     		movs	r0, r2
 9121 0126 FFF7FEFF 		bl	__aeabi_idiv
 9122 012a 0300     		movs	r3, r0
 9123 012c 1A00     		movs	r2, r3
2431:Api\core\src/vl53l0x_api.c **** 				* tmpuint16 + 500) / 1000);
 9124              		.loc 1 2431 0
 9125 012e 4C23     		movs	r3, #76
 9126 0130 FB18     		adds	r3, r7, r3
 9127 0132 1A80     		strh	r2, [r3]
2433:Api\core\src/vl53l0x_api.c **** 
2434:Api\core\src/vl53l0x_api.c **** 			/* Implement Xtalk */
2435:Api\core\src/vl53l0x_api.c **** 			VL53L0X_GETPARAMETERFIELD(Dev,
 9128              		.loc 1 2435 0
 9129 0134 7B68     		ldr	r3, [r7, #4]
 9130 0136 1A6A     		ldr	r2, [r3, #32]
 9131 0138 3823     		movs	r3, #56
 9132 013a FB18     		adds	r3, r7, r3
 9133 013c 1A80     		strh	r2, [r3]
2436:Api\core\src/vl53l0x_api.c **** 				XTalkCompensationRateMegaCps,
2437:Api\core\src/vl53l0x_api.c **** 				XTalkCompensationRateMegaCps);
2438:Api\core\src/vl53l0x_api.c **** 			VL53L0X_GETPARAMETERFIELD(Dev, XTalkCompensationEnable,
 9134              		.loc 1 2438 0
 9135 013e 3723     		movs	r3, #55
 9136 0140 FB18     		adds	r3, r7, r3
 9137 0142 7A68     		ldr	r2, [r7, #4]
 9138 0144 127F     		ldrb	r2, [r2, #28]
 9139 0146 1A70     		strb	r2, [r3]
2439:Api\core\src/vl53l0x_api.c **** 				XTalkCompensationEnable);
2440:Api\core\src/vl53l0x_api.c **** 
2441:Api\core\src/vl53l0x_api.c **** 			if (XTalkCompensationEnable) {
 9140              		.loc 1 2441 0
 9141 0148 3723     		movs	r3, #55
 9142 014a FB18     		adds	r3, r7, r3
 9143 014c 1B78     		ldrb	r3, [r3]
 9144 014e 002B     		cmp	r3, #0
 9145 0150 39D0     		beq	.L425
2442:Api\core\src/vl53l0x_api.c **** 
2443:Api\core\src/vl53l0x_api.c **** 				if ((SignalRate
2444:Api\core\src/vl53l0x_api.c **** 					- ((XTalkCompensationRateMegaCps
2445:Api\core\src/vl53l0x_api.c **** 					* EffectiveSpadRtnCount) >> 8))
 9146              		.loc 1 2445 0
 9147 0152 3823     		movs	r3, #56
 9148 0154 FB18     		adds	r3, r7, r3
 9149 0156 1B88     		ldrh	r3, [r3]
 9150 0158 4022     		movs	r2, #64
 9151 015a BA18     		adds	r2, r7, r2
 9152 015c 1288     		ldrh	r2, [r2]
 9153 015e 5343     		muls	r3, r2
 9154 0160 1B12     		asrs	r3, r3, #8
2446:Api\core\src/vl53l0x_api.c **** 					<= 0) {
 9155              		.loc 1 2446 0
 9156 0162 1A00     		movs	r2, r3
2443:Api\core\src/vl53l0x_api.c **** 					- ((XTalkCompensationRateMegaCps
ARM GAS  C:\Users\ilya\AppData\Local\Temp\ccpEIuqL.s 			page 205


 9157              		.loc 1 2443 0
 9158 0164 7B6C     		ldr	r3, [r7, #68]
 9159 0166 9A42     		cmp	r2, r3
 9160 0168 0ED1     		bne	.L426
2447:Api\core\src/vl53l0x_api.c **** 					if (RangeFractionalEnable)
 9161              		.loc 1 2447 0
 9162 016a 3B23     		movs	r3, #59
 9163 016c FB18     		adds	r3, r7, r3
 9164 016e 1B78     		ldrb	r3, [r3]
 9165 0170 002B     		cmp	r3, #0
 9166 0172 04D0     		beq	.L427
2448:Api\core\src/vl53l0x_api.c **** 						XtalkRangeMilliMeter = 8888;
 9167              		.loc 1 2448 0
 9168 0174 4A23     		movs	r3, #74
 9169 0176 FB18     		adds	r3, r7, r3
 9170 0178 584A     		ldr	r2, .L434
 9171 017a 1A80     		strh	r2, [r3]
 9172 017c 1DE0     		b	.L429
 9173              	.L427:
2449:Api\core\src/vl53l0x_api.c **** 					else
2450:Api\core\src/vl53l0x_api.c **** 						XtalkRangeMilliMeter = 8888
 9174              		.loc 1 2450 0
 9175 017e 4A23     		movs	r3, #74
 9176 0180 FB18     		adds	r3, r7, r3
 9177 0182 574A     		ldr	r2, .L434+4
 9178 0184 1A80     		strh	r2, [r3]
 9179 0186 18E0     		b	.L429
 9180              	.L426:
2451:Api\core\src/vl53l0x_api.c **** 							<< 2;
2452:Api\core\src/vl53l0x_api.c **** 				} else {
2453:Api\core\src/vl53l0x_api.c **** 					XtalkRangeMilliMeter =
2454:Api\core\src/vl53l0x_api.c **** 					(tmpuint16 * SignalRate)
 9181              		.loc 1 2454 0
 9182 0188 4C23     		movs	r3, #76
 9183 018a FB18     		adds	r3, r7, r3
 9184 018c 1B88     		ldrh	r3, [r3]
 9185 018e 7A6C     		ldr	r2, [r7, #68]
 9186 0190 5A43     		muls	r2, r3
 9187 0192 1000     		movs	r0, r2
2455:Api\core\src/vl53l0x_api.c **** 						/ (SignalRate
2456:Api\core\src/vl53l0x_api.c **** 						- ((XTalkCompensationRateMegaCps
2457:Api\core\src/vl53l0x_api.c **** 						* EffectiveSpadRtnCount)
 9188              		.loc 1 2457 0
 9189 0194 3823     		movs	r3, #56
 9190 0196 FB18     		adds	r3, r7, r3
 9191 0198 1B88     		ldrh	r3, [r3]
 9192 019a 4022     		movs	r2, #64
 9193 019c BA18     		adds	r2, r7, r2
 9194 019e 1288     		ldrh	r2, [r2]
 9195 01a0 5343     		muls	r3, r2
2458:Api\core\src/vl53l0x_api.c **** 						>> 8));
 9196              		.loc 1 2458 0
 9197 01a2 1B12     		asrs	r3, r3, #8
2456:Api\core\src/vl53l0x_api.c **** 						* EffectiveSpadRtnCount)
 9198              		.loc 1 2456 0
 9199 01a4 1A00     		movs	r2, r3
 9200 01a6 7B6C     		ldr	r3, [r7, #68]
ARM GAS  C:\Users\ilya\AppData\Local\Temp\ccpEIuqL.s 			page 206


 9201 01a8 9B1A     		subs	r3, r3, r2
2455:Api\core\src/vl53l0x_api.c **** 						/ (SignalRate
 9202              		.loc 1 2455 0
 9203 01aa 1900     		movs	r1, r3
 9204 01ac FFF7FEFF 		bl	__aeabi_uidiv
 9205 01b0 0300     		movs	r3, r0
 9206 01b2 1A00     		movs	r2, r3
2453:Api\core\src/vl53l0x_api.c **** 					(tmpuint16 * SignalRate)
 9207              		.loc 1 2453 0
 9208 01b4 4A23     		movs	r3, #74
 9209 01b6 FB18     		adds	r3, r7, r3
 9210 01b8 1A80     		strh	r2, [r3]
 9211              	.L429:
2459:Api\core\src/vl53l0x_api.c **** 				}
2460:Api\core\src/vl53l0x_api.c **** 
2461:Api\core\src/vl53l0x_api.c **** 				tmpuint16 = XtalkRangeMilliMeter;
 9212              		.loc 1 2461 0
 9213 01ba 4C23     		movs	r3, #76
 9214 01bc FB18     		adds	r3, r7, r3
 9215 01be 4A22     		movs	r2, #74
 9216 01c0 BA18     		adds	r2, r7, r2
 9217 01c2 1288     		ldrh	r2, [r2]
 9218 01c4 1A80     		strh	r2, [r3]
 9219              	.L425:
2462:Api\core\src/vl53l0x_api.c **** 			}
2463:Api\core\src/vl53l0x_api.c **** 
2464:Api\core\src/vl53l0x_api.c **** 		}
2465:Api\core\src/vl53l0x_api.c **** 
2466:Api\core\src/vl53l0x_api.c **** 		if (RangeFractionalEnable) {
 9220              		.loc 1 2466 0
 9221 01c6 3B23     		movs	r3, #59
 9222 01c8 FB18     		adds	r3, r7, r3
 9223 01ca 1B78     		ldrb	r3, [r3]
 9224 01cc 002B     		cmp	r3, #0
 9225 01ce 0FD0     		beq	.L430
2467:Api\core\src/vl53l0x_api.c **** 			pRangingMeasurementData->RangeMilliMeter =
2468:Api\core\src/vl53l0x_api.c **** 				(uint16_t)((tmpuint16) >> 2);
 9226              		.loc 1 2468 0
 9227 01d0 4C23     		movs	r3, #76
 9228 01d2 FB18     		adds	r3, r7, r3
 9229 01d4 1B88     		ldrh	r3, [r3]
 9230 01d6 9B08     		lsrs	r3, r3, #2
 9231 01d8 9AB2     		uxth	r2, r3
2467:Api\core\src/vl53l0x_api.c **** 			pRangingMeasurementData->RangeMilliMeter =
 9232              		.loc 1 2467 0
 9233 01da 3B68     		ldr	r3, [r7]
 9234 01dc 1A81     		strh	r2, [r3, #8]
2469:Api\core\src/vl53l0x_api.c **** 			pRangingMeasurementData->RangeFractionalPart =
2470:Api\core\src/vl53l0x_api.c **** 				(uint8_t)((tmpuint16 & 0x03) << 6);
 9235              		.loc 1 2470 0
 9236 01de 4C23     		movs	r3, #76
 9237 01e0 FB18     		adds	r3, r7, r3
 9238 01e2 1B88     		ldrh	r3, [r3]
 9239 01e4 DBB2     		uxtb	r3, r3
 9240 01e6 9B01     		lsls	r3, r3, #6
 9241 01e8 DAB2     		uxtb	r2, r3
2469:Api\core\src/vl53l0x_api.c **** 			pRangingMeasurementData->RangeFractionalPart =
ARM GAS  C:\Users\ilya\AppData\Local\Temp\ccpEIuqL.s 			page 207


 9242              		.loc 1 2469 0
 9243 01ea 3B68     		ldr	r3, [r7]
 9244 01ec DA75     		strb	r2, [r3, #23]
 9245 01ee 07E0     		b	.L431
 9246              	.L430:
2471:Api\core\src/vl53l0x_api.c **** 		} else {
2472:Api\core\src/vl53l0x_api.c **** 			pRangingMeasurementData->RangeMilliMeter = tmpuint16;
 9247              		.loc 1 2472 0
 9248 01f0 3B68     		ldr	r3, [r7]
 9249 01f2 4C22     		movs	r2, #76
 9250 01f4 BA18     		adds	r2, r7, r2
 9251 01f6 1288     		ldrh	r2, [r2]
 9252 01f8 1A81     		strh	r2, [r3, #8]
2473:Api\core\src/vl53l0x_api.c **** 			pRangingMeasurementData->RangeFractionalPart = 0;
 9253              		.loc 1 2473 0
 9254 01fa 3B68     		ldr	r3, [r7]
 9255 01fc 0022     		movs	r2, #0
 9256 01fe DA75     		strb	r2, [r3, #23]
 9257              	.L431:
2474:Api\core\src/vl53l0x_api.c **** 		}
2475:Api\core\src/vl53l0x_api.c **** 
2476:Api\core\src/vl53l0x_api.c **** 		/*
2477:Api\core\src/vl53l0x_api.c **** 		 * For a standard definition of RangeStatus, this should
2478:Api\core\src/vl53l0x_api.c **** 		 * return 0 in case of good result after a ranging
2479:Api\core\src/vl53l0x_api.c **** 		 * The range status depends on the device so call a device
2480:Api\core\src/vl53l0x_api.c **** 		 * specific function to obtain the right Status.
2481:Api\core\src/vl53l0x_api.c **** 		 */
2482:Api\core\src/vl53l0x_api.c **** 		Status |= VL53L0X_get_pal_range_status(Dev, DeviceRangeStatus,
 9258              		.loc 1 2482 0
 9259 0200 4023     		movs	r3, #64
 9260 0202 FB18     		adds	r3, r7, r3
 9261 0204 1C88     		ldrh	r4, [r3]
 9262 0206 7A6C     		ldr	r2, [r7, #68]
 9263 0208 3F23     		movs	r3, #63
 9264 020a FB18     		adds	r3, r7, r3
 9265 020c 1978     		ldrb	r1, [r3]
 9266 020e 7868     		ldr	r0, [r7, #4]
 9267 0210 3623     		movs	r3, #54
 9268 0212 FB18     		adds	r3, r7, r3
 9269 0214 0193     		str	r3, [sp, #4]
 9270 0216 3B68     		ldr	r3, [r7]
 9271 0218 0093     		str	r3, [sp]
 9272 021a 2300     		movs	r3, r4
 9273 021c FFF7FEFF 		bl	VL53L0X_get_pal_range_status
 9274 0220 0300     		movs	r3, r0
 9275 0222 1900     		movs	r1, r3
 9276 0224 4F23     		movs	r3, #79
 9277 0226 FB18     		adds	r3, r7, r3
 9278 0228 4F22     		movs	r2, #79
 9279 022a BA18     		adds	r2, r7, r2
 9280 022c 1278     		ldrb	r2, [r2]
 9281 022e 0A43     		orrs	r2, r1
 9282 0230 1A70     		strb	r2, [r3]
2483:Api\core\src/vl53l0x_api.c **** 			SignalRate, EffectiveSpadRtnCount,
2484:Api\core\src/vl53l0x_api.c **** 			pRangingMeasurementData, &PalRangeStatus);
2485:Api\core\src/vl53l0x_api.c **** 
2486:Api\core\src/vl53l0x_api.c **** 		if (Status == VL53L0X_ERROR_NONE)
ARM GAS  C:\Users\ilya\AppData\Local\Temp\ccpEIuqL.s 			page 208


 9283              		.loc 1 2486 0
 9284 0232 4F23     		movs	r3, #79
 9285 0234 FB18     		adds	r3, r7, r3
 9286 0236 1B78     		ldrb	r3, [r3]
 9287 0238 5BB2     		sxtb	r3, r3
 9288 023a 002B     		cmp	r3, #0
 9289 023c 04D1     		bne	.L424
2487:Api\core\src/vl53l0x_api.c **** 			pRangingMeasurementData->RangeStatus = PalRangeStatus;
 9290              		.loc 1 2487 0
 9291 023e 3623     		movs	r3, #54
 9292 0240 FB18     		adds	r3, r7, r3
 9293 0242 1A78     		ldrb	r2, [r3]
 9294 0244 3B68     		ldr	r3, [r7]
 9295 0246 1A76     		strb	r2, [r3, #24]
 9296              	.L424:
2488:Api\core\src/vl53l0x_api.c **** 
2489:Api\core\src/vl53l0x_api.c **** 	}
2490:Api\core\src/vl53l0x_api.c **** 
2491:Api\core\src/vl53l0x_api.c **** 	if (Status == VL53L0X_ERROR_NONE) {
 9297              		.loc 1 2491 0
 9298 0248 4F23     		movs	r3, #79
 9299 024a FB18     		adds	r3, r7, r3
 9300 024c 1B78     		ldrb	r3, [r3]
 9301 024e 5BB2     		sxtb	r3, r3
 9302 0250 002B     		cmp	r3, #0
 9303 0252 3BD1     		bne	.L432
2492:Api\core\src/vl53l0x_api.c **** 		/* Copy last read data into Dev buffer */
2493:Api\core\src/vl53l0x_api.c **** 		LastRangeDataBuffer = PALDevDataGet(Dev, LastRangeMeasure);
 9304              		.loc 1 2493 0
 9305 0254 0C23     		movs	r3, #12
 9306 0256 FA18     		adds	r2, r7, r3
 9307 0258 7B68     		ldr	r3, [r7, #4]
 9308 025a 5033     		adds	r3, r3, #80
 9309 025c 13CB     		ldmia	r3!, {r0, r1, r4}
 9310 025e 13C2     		stmia	r2!, {r0, r1, r4}
 9311 0260 13CB     		ldmia	r3!, {r0, r1, r4}
 9312 0262 13C2     		stmia	r2!, {r0, r1, r4}
 9313 0264 1B68     		ldr	r3, [r3]
 9314 0266 1360     		str	r3, [r2]
2494:Api\core\src/vl53l0x_api.c **** 
2495:Api\core\src/vl53l0x_api.c **** 		LastRangeDataBuffer.RangeMilliMeter =
2496:Api\core\src/vl53l0x_api.c **** 			pRangingMeasurementData->RangeMilliMeter;
 9315              		.loc 1 2496 0
 9316 0268 3B68     		ldr	r3, [r7]
 9317 026a 1A89     		ldrh	r2, [r3, #8]
2495:Api\core\src/vl53l0x_api.c **** 			pRangingMeasurementData->RangeMilliMeter;
 9318              		.loc 1 2495 0
 9319 026c 0C23     		movs	r3, #12
 9320 026e FB18     		adds	r3, r7, r3
 9321 0270 1A81     		strh	r2, [r3, #8]
2497:Api\core\src/vl53l0x_api.c **** 		LastRangeDataBuffer.RangeFractionalPart =
2498:Api\core\src/vl53l0x_api.c **** 			pRangingMeasurementData->RangeFractionalPart;
 9322              		.loc 1 2498 0
 9323 0272 3B68     		ldr	r3, [r7]
 9324 0274 DA7D     		ldrb	r2, [r3, #23]
2497:Api\core\src/vl53l0x_api.c **** 		LastRangeDataBuffer.RangeFractionalPart =
 9325              		.loc 1 2497 0
ARM GAS  C:\Users\ilya\AppData\Local\Temp\ccpEIuqL.s 			page 209


 9326 0276 0C23     		movs	r3, #12
 9327 0278 FB18     		adds	r3, r7, r3
 9328 027a DA75     		strb	r2, [r3, #23]
2499:Api\core\src/vl53l0x_api.c **** 		LastRangeDataBuffer.RangeDMaxMilliMeter =
2500:Api\core\src/vl53l0x_api.c **** 			pRangingMeasurementData->RangeDMaxMilliMeter;
 9329              		.loc 1 2500 0
 9330 027c 3B68     		ldr	r3, [r7]
 9331 027e 5A89     		ldrh	r2, [r3, #10]
2499:Api\core\src/vl53l0x_api.c **** 		LastRangeDataBuffer.RangeDMaxMilliMeter =
 9332              		.loc 1 2499 0
 9333 0280 0C23     		movs	r3, #12
 9334 0282 FB18     		adds	r3, r7, r3
 9335 0284 5A81     		strh	r2, [r3, #10]
2501:Api\core\src/vl53l0x_api.c **** 		LastRangeDataBuffer.MeasurementTimeUsec =
2502:Api\core\src/vl53l0x_api.c **** 			pRangingMeasurementData->MeasurementTimeUsec;
 9336              		.loc 1 2502 0
 9337 0286 3B68     		ldr	r3, [r7]
 9338 0288 5A68     		ldr	r2, [r3, #4]
2501:Api\core\src/vl53l0x_api.c **** 		LastRangeDataBuffer.MeasurementTimeUsec =
 9339              		.loc 1 2501 0
 9340 028a 0C23     		movs	r3, #12
 9341 028c FB18     		adds	r3, r7, r3
 9342 028e 5A60     		str	r2, [r3, #4]
2503:Api\core\src/vl53l0x_api.c **** 		LastRangeDataBuffer.SignalRateRtnMegaCps =
2504:Api\core\src/vl53l0x_api.c **** 			pRangingMeasurementData->SignalRateRtnMegaCps;
 9343              		.loc 1 2504 0
 9344 0290 3B68     		ldr	r3, [r7]
 9345 0292 DA68     		ldr	r2, [r3, #12]
2503:Api\core\src/vl53l0x_api.c **** 		LastRangeDataBuffer.SignalRateRtnMegaCps =
 9346              		.loc 1 2503 0
 9347 0294 0C23     		movs	r3, #12
 9348 0296 FB18     		adds	r3, r7, r3
 9349 0298 DA60     		str	r2, [r3, #12]
2505:Api\core\src/vl53l0x_api.c **** 		LastRangeDataBuffer.AmbientRateRtnMegaCps =
2506:Api\core\src/vl53l0x_api.c **** 			pRangingMeasurementData->AmbientRateRtnMegaCps;
 9350              		.loc 1 2506 0
 9351 029a 3B68     		ldr	r3, [r7]
 9352 029c 1A69     		ldr	r2, [r3, #16]
2505:Api\core\src/vl53l0x_api.c **** 		LastRangeDataBuffer.AmbientRateRtnMegaCps =
 9353              		.loc 1 2505 0
 9354 029e 0C23     		movs	r3, #12
 9355 02a0 FB18     		adds	r3, r7, r3
 9356 02a2 1A61     		str	r2, [r3, #16]
2507:Api\core\src/vl53l0x_api.c **** 		LastRangeDataBuffer.EffectiveSpadRtnCount =
2508:Api\core\src/vl53l0x_api.c **** 			pRangingMeasurementData->EffectiveSpadRtnCount;
 9357              		.loc 1 2508 0
 9358 02a4 3B68     		ldr	r3, [r7]
 9359 02a6 9A8A     		ldrh	r2, [r3, #20]
2507:Api\core\src/vl53l0x_api.c **** 		LastRangeDataBuffer.EffectiveSpadRtnCount =
 9360              		.loc 1 2507 0
 9361 02a8 0C23     		movs	r3, #12
 9362 02aa FB18     		adds	r3, r7, r3
 9363 02ac 9A82     		strh	r2, [r3, #20]
2509:Api\core\src/vl53l0x_api.c **** 		LastRangeDataBuffer.RangeStatus =
2510:Api\core\src/vl53l0x_api.c **** 			pRangingMeasurementData->RangeStatus;
 9364              		.loc 1 2510 0
 9365 02ae 3B68     		ldr	r3, [r7]
ARM GAS  C:\Users\ilya\AppData\Local\Temp\ccpEIuqL.s 			page 210


 9366 02b0 1A7E     		ldrb	r2, [r3, #24]
2509:Api\core\src/vl53l0x_api.c **** 		LastRangeDataBuffer.RangeStatus =
 9367              		.loc 1 2509 0
 9368 02b2 0C23     		movs	r3, #12
 9369 02b4 FB18     		adds	r3, r7, r3
 9370 02b6 1A76     		strb	r2, [r3, #24]
2511:Api\core\src/vl53l0x_api.c **** 
2512:Api\core\src/vl53l0x_api.c **** 		PALDevDataSet(Dev, LastRangeMeasure, LastRangeDataBuffer);
 9371              		.loc 1 2512 0
 9372 02b8 7B68     		ldr	r3, [r7, #4]
 9373 02ba 0C22     		movs	r2, #12
 9374 02bc BA18     		adds	r2, r7, r2
 9375 02be 5033     		adds	r3, r3, #80
 9376 02c0 13CA     		ldmia	r2!, {r0, r1, r4}
 9377 02c2 13C3     		stmia	r3!, {r0, r1, r4}
 9378 02c4 13CA     		ldmia	r2!, {r0, r1, r4}
 9379 02c6 13C3     		stmia	r3!, {r0, r1, r4}
 9380 02c8 1268     		ldr	r2, [r2]
 9381 02ca 1A60     		str	r2, [r3]
 9382              	.L432:
2513:Api\core\src/vl53l0x_api.c **** 	}
2514:Api\core\src/vl53l0x_api.c **** 
2515:Api\core\src/vl53l0x_api.c **** 	LOG_FUNCTION_END(Status);
2516:Api\core\src/vl53l0x_api.c **** 	return Status;
 9383              		.loc 1 2516 0
 9384 02cc 4F23     		movs	r3, #79
 9385 02ce FB18     		adds	r3, r7, r3
 9386 02d0 1B78     		ldrb	r3, [r3]
 9387 02d2 5BB2     		sxtb	r3, r3
2517:Api\core\src/vl53l0x_api.c **** }
 9388              		.loc 1 2517 0
 9389 02d4 1800     		movs	r0, r3
 9390 02d6 BD46     		mov	sp, r7
 9391 02d8 15B0     		add	sp, sp, #84
 9392              		@ sp needed
 9393 02da 90BD     		pop	{r4, r7, pc}
 9394              	.L435:
 9395              		.align	2
 9396              	.L434:
 9397 02dc B8220000 		.word	8888
 9398 02e0 E08AFFFF 		.word	-29984
 9399              		.cfi_endproc
 9400              	.LFE78:
 9401              		.size	VL53L0X_GetRangingMeasurementData, .-VL53L0X_GetRangingMeasurementData
 9402              		.section	.text.VL53L0X_GetMeasurementRefSignal,"ax",%progbits
 9403              		.align	2
 9404              		.global	VL53L0X_GetMeasurementRefSignal
 9405              		.code	16
 9406              		.thumb_func
 9407              		.type	VL53L0X_GetMeasurementRefSignal, %function
 9408              	VL53L0X_GetMeasurementRefSignal:
 9409              	.LFB79:
2518:Api\core\src/vl53l0x_api.c **** 
2519:Api\core\src/vl53l0x_api.c **** VL53L0X_Error VL53L0X_GetMeasurementRefSignal(VL53L0X_DEV Dev,
2520:Api\core\src/vl53l0x_api.c **** 	FixPoint1616_t *pMeasurementRefSignal)
2521:Api\core\src/vl53l0x_api.c **** {
 9410              		.loc 1 2521 0
ARM GAS  C:\Users\ilya\AppData\Local\Temp\ccpEIuqL.s 			page 211


 9411              		.cfi_startproc
 9412              		@ args = 0, pretend = 0, frame = 16
 9413              		@ frame_needed = 1, uses_anonymous_args = 0
 9414 0000 90B5     		push	{r4, r7, lr}
 9415              		.cfi_def_cfa_offset 12
 9416              		.cfi_offset 4, -12
 9417              		.cfi_offset 7, -8
 9418              		.cfi_offset 14, -4
 9419 0002 85B0     		sub	sp, sp, #20
 9420              		.cfi_def_cfa_offset 32
 9421 0004 00AF     		add	r7, sp, #0
 9422              		.cfi_def_cfa_register 7
 9423 0006 7860     		str	r0, [r7, #4]
 9424 0008 3960     		str	r1, [r7]
2522:Api\core\src/vl53l0x_api.c **** 	VL53L0X_Error Status = VL53L0X_ERROR_NONE;
 9425              		.loc 1 2522 0
 9426 000a 0F23     		movs	r3, #15
 9427 000c FB18     		adds	r3, r7, r3
 9428 000e 0022     		movs	r2, #0
 9429 0010 1A70     		strb	r2, [r3]
2523:Api\core\src/vl53l0x_api.c **** 	uint8_t SignalRefClipLimitCheckEnable = 0;
 9430              		.loc 1 2523 0
 9431 0012 0E23     		movs	r3, #14
 9432 0014 FB18     		adds	r3, r7, r3
 9433 0016 0022     		movs	r2, #0
 9434 0018 1A70     		strb	r2, [r3]
2524:Api\core\src/vl53l0x_api.c **** 	LOG_FUNCTION_START("");
2525:Api\core\src/vl53l0x_api.c **** 
2526:Api\core\src/vl53l0x_api.c **** 	Status = VL53L0X_GetLimitCheckEnable(Dev,
 9435              		.loc 1 2526 0
 9436 001a 0F23     		movs	r3, #15
 9437 001c FC18     		adds	r4, r7, r3
 9438 001e 0E23     		movs	r3, #14
 9439 0020 FA18     		adds	r2, r7, r3
 9440 0022 7B68     		ldr	r3, [r7, #4]
 9441 0024 0221     		movs	r1, #2
 9442 0026 1800     		movs	r0, r3
 9443 0028 FFF7FEFF 		bl	VL53L0X_GetLimitCheckEnable
 9444 002c 0300     		movs	r3, r0
 9445 002e 2370     		strb	r3, [r4]
2527:Api\core\src/vl53l0x_api.c **** 			VL53L0X_CHECKENABLE_SIGNAL_REF_CLIP,
2528:Api\core\src/vl53l0x_api.c **** 			&SignalRefClipLimitCheckEnable);
2529:Api\core\src/vl53l0x_api.c **** 	if (SignalRefClipLimitCheckEnable != 0) {
 9446              		.loc 1 2529 0
 9447 0030 0E23     		movs	r3, #14
 9448 0032 FB18     		adds	r3, r7, r3
 9449 0034 1B78     		ldrb	r3, [r3]
 9450 0036 002B     		cmp	r3, #0
 9451 0038 06D0     		beq	.L437
2530:Api\core\src/vl53l0x_api.c **** 		*pMeasurementRefSignal = PALDevDataGet(Dev, LastSignalRefMcps);
 9452              		.loc 1 2530 0
 9453 003a 7A68     		ldr	r2, [r7, #4]
 9454 003c A423     		movs	r3, #164
 9455 003e 5B00     		lsls	r3, r3, #1
 9456 0040 D258     		ldr	r2, [r2, r3]
 9457 0042 3B68     		ldr	r3, [r7]
 9458 0044 1A60     		str	r2, [r3]
ARM GAS  C:\Users\ilya\AppData\Local\Temp\ccpEIuqL.s 			page 212


 9459 0046 03E0     		b	.L438
 9460              	.L437:
2531:Api\core\src/vl53l0x_api.c **** 	} else {
2532:Api\core\src/vl53l0x_api.c **** 		Status = VL53L0X_ERROR_INVALID_COMMAND;
 9461              		.loc 1 2532 0
 9462 0048 0F23     		movs	r3, #15
 9463 004a FB18     		adds	r3, r7, r3
 9464 004c E222     		movs	r2, #226
 9465 004e 1A70     		strb	r2, [r3]
 9466              	.L438:
2533:Api\core\src/vl53l0x_api.c **** 	}
2534:Api\core\src/vl53l0x_api.c **** 	LOG_FUNCTION_END(Status);
2535:Api\core\src/vl53l0x_api.c **** 
2536:Api\core\src/vl53l0x_api.c **** 	return Status;
 9467              		.loc 1 2536 0
 9468 0050 0F23     		movs	r3, #15
 9469 0052 FB18     		adds	r3, r7, r3
 9470 0054 1B78     		ldrb	r3, [r3]
 9471 0056 5BB2     		sxtb	r3, r3
2537:Api\core\src/vl53l0x_api.c **** }
 9472              		.loc 1 2537 0
 9473 0058 1800     		movs	r0, r3
 9474 005a BD46     		mov	sp, r7
 9475 005c 05B0     		add	sp, sp, #20
 9476              		@ sp needed
 9477 005e 90BD     		pop	{r4, r7, pc}
 9478              		.cfi_endproc
 9479              	.LFE79:
 9480              		.size	VL53L0X_GetMeasurementRefSignal, .-VL53L0X_GetMeasurementRefSignal
 9481              		.section	.text.VL53L0X_GetHistogramMeasurementData,"ax",%progbits
 9482              		.align	2
 9483              		.global	VL53L0X_GetHistogramMeasurementData
 9484              		.code	16
 9485              		.thumb_func
 9486              		.type	VL53L0X_GetHistogramMeasurementData, %function
 9487              	VL53L0X_GetHistogramMeasurementData:
 9488              	.LFB80:
2538:Api\core\src/vl53l0x_api.c **** 
2539:Api\core\src/vl53l0x_api.c **** VL53L0X_Error VL53L0X_GetHistogramMeasurementData(VL53L0X_DEV Dev,
2540:Api\core\src/vl53l0x_api.c **** 	VL53L0X_HistogramMeasurementData_t *pHistogramMeasurementData)
2541:Api\core\src/vl53l0x_api.c **** {
 9489              		.loc 1 2541 0
 9490              		.cfi_startproc
 9491              		@ args = 0, pretend = 0, frame = 16
 9492              		@ frame_needed = 1, uses_anonymous_args = 0
 9493 0000 80B5     		push	{r7, lr}
 9494              		.cfi_def_cfa_offset 8
 9495              		.cfi_offset 7, -8
 9496              		.cfi_offset 14, -4
 9497 0002 84B0     		sub	sp, sp, #16
 9498              		.cfi_def_cfa_offset 24
 9499 0004 00AF     		add	r7, sp, #0
 9500              		.cfi_def_cfa_register 7
 9501 0006 7860     		str	r0, [r7, #4]
 9502 0008 3960     		str	r1, [r7]
2542:Api\core\src/vl53l0x_api.c **** 	VL53L0X_Error Status = VL53L0X_ERROR_NOT_IMPLEMENTED;
 9503              		.loc 1 2542 0
ARM GAS  C:\Users\ilya\AppData\Local\Temp\ccpEIuqL.s 			page 213


 9504 000a 0F23     		movs	r3, #15
 9505 000c FB18     		adds	r3, r7, r3
 9506 000e 9D22     		movs	r2, #157
 9507 0010 1A70     		strb	r2, [r3]
2543:Api\core\src/vl53l0x_api.c **** 	LOG_FUNCTION_START("");
2544:Api\core\src/vl53l0x_api.c **** 
2545:Api\core\src/vl53l0x_api.c **** 	LOG_FUNCTION_END(Status);
2546:Api\core\src/vl53l0x_api.c **** 	return Status;
 9508              		.loc 1 2546 0
 9509 0012 0F23     		movs	r3, #15
 9510 0014 FB18     		adds	r3, r7, r3
 9511 0016 1B78     		ldrb	r3, [r3]
 9512 0018 5BB2     		sxtb	r3, r3
2547:Api\core\src/vl53l0x_api.c **** }
 9513              		.loc 1 2547 0
 9514 001a 1800     		movs	r0, r3
 9515 001c BD46     		mov	sp, r7
 9516 001e 04B0     		add	sp, sp, #16
 9517              		@ sp needed
 9518 0020 80BD     		pop	{r7, pc}
 9519              		.cfi_endproc
 9520              	.LFE80:
 9521              		.size	VL53L0X_GetHistogramMeasurementData, .-VL53L0X_GetHistogramMeasurementData
 9522 0022 C046     		.section	.text.VL53L0X_PerformSingleRangingMeasurement,"ax",%progbits
 9523              		.align	2
 9524              		.global	VL53L0X_PerformSingleRangingMeasurement
 9525              		.code	16
 9526              		.thumb_func
 9527              		.type	VL53L0X_PerformSingleRangingMeasurement, %function
 9528              	VL53L0X_PerformSingleRangingMeasurement:
 9529              	.LFB81:
2548:Api\core\src/vl53l0x_api.c **** 
2549:Api\core\src/vl53l0x_api.c **** VL53L0X_Error VL53L0X_PerformSingleRangingMeasurement(VL53L0X_DEV Dev,
2550:Api\core\src/vl53l0x_api.c **** 	VL53L0X_RangingMeasurementData_t *pRangingMeasurementData)
2551:Api\core\src/vl53l0x_api.c **** {
 9530              		.loc 1 2551 0
 9531              		.cfi_startproc
 9532              		@ args = 0, pretend = 0, frame = 16
 9533              		@ frame_needed = 1, uses_anonymous_args = 0
 9534 0000 90B5     		push	{r4, r7, lr}
 9535              		.cfi_def_cfa_offset 12
 9536              		.cfi_offset 4, -12
 9537              		.cfi_offset 7, -8
 9538              		.cfi_offset 14, -4
 9539 0002 85B0     		sub	sp, sp, #20
 9540              		.cfi_def_cfa_offset 32
 9541 0004 00AF     		add	r7, sp, #0
 9542              		.cfi_def_cfa_register 7
 9543 0006 7860     		str	r0, [r7, #4]
 9544 0008 3960     		str	r1, [r7]
2552:Api\core\src/vl53l0x_api.c **** 	VL53L0X_Error Status = VL53L0X_ERROR_NONE;
 9545              		.loc 1 2552 0
 9546 000a 0F23     		movs	r3, #15
 9547 000c FB18     		adds	r3, r7, r3
 9548 000e 0022     		movs	r2, #0
 9549 0010 1A70     		strb	r2, [r3]
2553:Api\core\src/vl53l0x_api.c **** 
ARM GAS  C:\Users\ilya\AppData\Local\Temp\ccpEIuqL.s 			page 214


2554:Api\core\src/vl53l0x_api.c **** 	LOG_FUNCTION_START("");
2555:Api\core\src/vl53l0x_api.c **** 
2556:Api\core\src/vl53l0x_api.c **** 	/* This function will do a complete single ranging
2557:Api\core\src/vl53l0x_api.c **** 	 * Here we fix the mode! */
2558:Api\core\src/vl53l0x_api.c **** 	Status = VL53L0X_SetDeviceMode(Dev, VL53L0X_DEVICEMODE_SINGLE_RANGING);
 9550              		.loc 1 2558 0
 9551 0012 0F23     		movs	r3, #15
 9552 0014 FC18     		adds	r4, r7, r3
 9553 0016 7B68     		ldr	r3, [r7, #4]
 9554 0018 0021     		movs	r1, #0
 9555 001a 1800     		movs	r0, r3
 9556 001c FFF7FEFF 		bl	VL53L0X_SetDeviceMode
 9557 0020 0300     		movs	r3, r0
 9558 0022 2370     		strb	r3, [r4]
2559:Api\core\src/vl53l0x_api.c **** 
2560:Api\core\src/vl53l0x_api.c **** 	if (Status == VL53L0X_ERROR_NONE)
 9559              		.loc 1 2560 0
 9560 0024 0F23     		movs	r3, #15
 9561 0026 FB18     		adds	r3, r7, r3
 9562 0028 1B78     		ldrb	r3, [r3]
 9563 002a 5BB2     		sxtb	r3, r3
 9564 002c 002B     		cmp	r3, #0
 9565 002e 07D1     		bne	.L443
2561:Api\core\src/vl53l0x_api.c **** 		Status = VL53L0X_PerformSingleMeasurement(Dev);
 9566              		.loc 1 2561 0
 9567 0030 0F23     		movs	r3, #15
 9568 0032 FC18     		adds	r4, r7, r3
 9569 0034 7B68     		ldr	r3, [r7, #4]
 9570 0036 1800     		movs	r0, r3
 9571 0038 FFF7FEFF 		bl	VL53L0X_PerformSingleMeasurement
 9572 003c 0300     		movs	r3, r0
 9573 003e 2370     		strb	r3, [r4]
 9574              	.L443:
2562:Api\core\src/vl53l0x_api.c **** 
2563:Api\core\src/vl53l0x_api.c **** 
2564:Api\core\src/vl53l0x_api.c **** 	//if (Status == VL53L0X_ERROR_NONE)
2565:Api\core\src/vl53l0x_api.c **** 		Status = VL53L0X_GetRangingMeasurementData(Dev,
 9575              		.loc 1 2565 0
 9576 0040 0F23     		movs	r3, #15
 9577 0042 FC18     		adds	r4, r7, r3
 9578 0044 3A68     		ldr	r2, [r7]
 9579 0046 7B68     		ldr	r3, [r7, #4]
 9580 0048 1100     		movs	r1, r2
 9581 004a 1800     		movs	r0, r3
 9582 004c FFF7FEFF 		bl	VL53L0X_GetRangingMeasurementData
 9583 0050 0300     		movs	r3, r0
 9584 0052 2370     		strb	r3, [r4]
2566:Api\core\src/vl53l0x_api.c **** 			pRangingMeasurementData);
2567:Api\core\src/vl53l0x_api.c **** 
2568:Api\core\src/vl53l0x_api.c **** 
2569:Api\core\src/vl53l0x_api.c **** 	if (Status == VL53L0X_ERROR_NONE)
 9585              		.loc 1 2569 0
 9586 0054 0F23     		movs	r3, #15
 9587 0056 FB18     		adds	r3, r7, r3
 9588 0058 1B78     		ldrb	r3, [r3]
 9589 005a 5BB2     		sxtb	r3, r3
 9590 005c 002B     		cmp	r3, #0
ARM GAS  C:\Users\ilya\AppData\Local\Temp\ccpEIuqL.s 			page 215


 9591 005e 08D1     		bne	.L444
2570:Api\core\src/vl53l0x_api.c **** 		Status = VL53L0X_ClearInterruptMask(Dev, 0);
 9592              		.loc 1 2570 0
 9593 0060 0F23     		movs	r3, #15
 9594 0062 FC18     		adds	r4, r7, r3
 9595 0064 7B68     		ldr	r3, [r7, #4]
 9596 0066 0021     		movs	r1, #0
 9597 0068 1800     		movs	r0, r3
 9598 006a FFF7FEFF 		bl	VL53L0X_ClearInterruptMask
 9599 006e 0300     		movs	r3, r0
 9600 0070 2370     		strb	r3, [r4]
 9601              	.L444:
2571:Api\core\src/vl53l0x_api.c **** 
2572:Api\core\src/vl53l0x_api.c **** 
2573:Api\core\src/vl53l0x_api.c **** 	LOG_FUNCTION_END(Status);
2574:Api\core\src/vl53l0x_api.c **** 	return Status;
 9602              		.loc 1 2574 0
 9603 0072 0F23     		movs	r3, #15
 9604 0074 FB18     		adds	r3, r7, r3
 9605 0076 1B78     		ldrb	r3, [r3]
 9606 0078 5BB2     		sxtb	r3, r3
2575:Api\core\src/vl53l0x_api.c **** }
 9607              		.loc 1 2575 0
 9608 007a 1800     		movs	r0, r3
 9609 007c BD46     		mov	sp, r7
 9610 007e 05B0     		add	sp, sp, #20
 9611              		@ sp needed
 9612 0080 90BD     		pop	{r4, r7, pc}
 9613              		.cfi_endproc
 9614              	.LFE81:
 9615              		.size	VL53L0X_PerformSingleRangingMeasurement, .-VL53L0X_PerformSingleRangingMeasurement
 9616 0082 C046     		.section	.text.VL53L0X_SetNumberOfROIZones,"ax",%progbits
 9617              		.align	2
 9618              		.global	VL53L0X_SetNumberOfROIZones
 9619              		.code	16
 9620              		.thumb_func
 9621              		.type	VL53L0X_SetNumberOfROIZones, %function
 9622              	VL53L0X_SetNumberOfROIZones:
 9623              	.LFB82:
2576:Api\core\src/vl53l0x_api.c **** 
2577:Api\core\src/vl53l0x_api.c **** VL53L0X_Error VL53L0X_SetNumberOfROIZones(VL53L0X_DEV Dev,
2578:Api\core\src/vl53l0x_api.c **** 	uint8_t NumberOfROIZones)
2579:Api\core\src/vl53l0x_api.c **** {
 9624              		.loc 1 2579 0
 9625              		.cfi_startproc
 9626              		@ args = 0, pretend = 0, frame = 16
 9627              		@ frame_needed = 1, uses_anonymous_args = 0
 9628 0000 80B5     		push	{r7, lr}
 9629              		.cfi_def_cfa_offset 8
 9630              		.cfi_offset 7, -8
 9631              		.cfi_offset 14, -4
 9632 0002 84B0     		sub	sp, sp, #16
 9633              		.cfi_def_cfa_offset 24
 9634 0004 00AF     		add	r7, sp, #0
 9635              		.cfi_def_cfa_register 7
 9636 0006 7860     		str	r0, [r7, #4]
 9637 0008 0A00     		movs	r2, r1
ARM GAS  C:\Users\ilya\AppData\Local\Temp\ccpEIuqL.s 			page 216


 9638 000a FB1C     		adds	r3, r7, #3
 9639 000c 1A70     		strb	r2, [r3]
2580:Api\core\src/vl53l0x_api.c **** 	VL53L0X_Error Status = VL53L0X_ERROR_NONE;
 9640              		.loc 1 2580 0
 9641 000e 0F23     		movs	r3, #15
 9642 0010 FB18     		adds	r3, r7, r3
 9643 0012 0022     		movs	r2, #0
 9644 0014 1A70     		strb	r2, [r3]
2581:Api\core\src/vl53l0x_api.c **** 
2582:Api\core\src/vl53l0x_api.c **** 	LOG_FUNCTION_START("");
2583:Api\core\src/vl53l0x_api.c **** 
2584:Api\core\src/vl53l0x_api.c **** 	if (NumberOfROIZones != 1)
 9645              		.loc 1 2584 0
 9646 0016 FB1C     		adds	r3, r7, #3
 9647 0018 1B78     		ldrb	r3, [r3]
 9648 001a 012B     		cmp	r3, #1
 9649 001c 03D0     		beq	.L447
2585:Api\core\src/vl53l0x_api.c **** 		Status = VL53L0X_ERROR_INVALID_PARAMS;
 9650              		.loc 1 2585 0
 9651 001e 0F23     		movs	r3, #15
 9652 0020 FB18     		adds	r3, r7, r3
 9653 0022 FC22     		movs	r2, #252
 9654 0024 1A70     		strb	r2, [r3]
 9655              	.L447:
2586:Api\core\src/vl53l0x_api.c **** 
2587:Api\core\src/vl53l0x_api.c **** 
2588:Api\core\src/vl53l0x_api.c **** 	LOG_FUNCTION_END(Status);
2589:Api\core\src/vl53l0x_api.c **** 	return Status;
 9656              		.loc 1 2589 0
 9657 0026 0F23     		movs	r3, #15
 9658 0028 FB18     		adds	r3, r7, r3
 9659 002a 1B78     		ldrb	r3, [r3]
 9660 002c 5BB2     		sxtb	r3, r3
2590:Api\core\src/vl53l0x_api.c **** }
 9661              		.loc 1 2590 0
 9662 002e 1800     		movs	r0, r3
 9663 0030 BD46     		mov	sp, r7
 9664 0032 04B0     		add	sp, sp, #16
 9665              		@ sp needed
 9666 0034 80BD     		pop	{r7, pc}
 9667              		.cfi_endproc
 9668              	.LFE82:
 9669              		.size	VL53L0X_SetNumberOfROIZones, .-VL53L0X_SetNumberOfROIZones
 9670 0036 C046     		.section	.text.VL53L0X_GetNumberOfROIZones,"ax",%progbits
 9671              		.align	2
 9672              		.global	VL53L0X_GetNumberOfROIZones
 9673              		.code	16
 9674              		.thumb_func
 9675              		.type	VL53L0X_GetNumberOfROIZones, %function
 9676              	VL53L0X_GetNumberOfROIZones:
 9677              	.LFB83:
2591:Api\core\src/vl53l0x_api.c **** 
2592:Api\core\src/vl53l0x_api.c **** VL53L0X_Error VL53L0X_GetNumberOfROIZones(VL53L0X_DEV Dev,
2593:Api\core\src/vl53l0x_api.c **** 	uint8_t *pNumberOfROIZones)
2594:Api\core\src/vl53l0x_api.c **** {
 9678              		.loc 1 2594 0
 9679              		.cfi_startproc
ARM GAS  C:\Users\ilya\AppData\Local\Temp\ccpEIuqL.s 			page 217


 9680              		@ args = 0, pretend = 0, frame = 16
 9681              		@ frame_needed = 1, uses_anonymous_args = 0
 9682 0000 80B5     		push	{r7, lr}
 9683              		.cfi_def_cfa_offset 8
 9684              		.cfi_offset 7, -8
 9685              		.cfi_offset 14, -4
 9686 0002 84B0     		sub	sp, sp, #16
 9687              		.cfi_def_cfa_offset 24
 9688 0004 00AF     		add	r7, sp, #0
 9689              		.cfi_def_cfa_register 7
 9690 0006 7860     		str	r0, [r7, #4]
 9691 0008 3960     		str	r1, [r7]
2595:Api\core\src/vl53l0x_api.c **** 	VL53L0X_Error Status = VL53L0X_ERROR_NONE;
 9692              		.loc 1 2595 0
 9693 000a 0F23     		movs	r3, #15
 9694 000c FB18     		adds	r3, r7, r3
 9695 000e 0022     		movs	r2, #0
 9696 0010 1A70     		strb	r2, [r3]
2596:Api\core\src/vl53l0x_api.c **** 
2597:Api\core\src/vl53l0x_api.c **** 	LOG_FUNCTION_START("");
2598:Api\core\src/vl53l0x_api.c **** 
2599:Api\core\src/vl53l0x_api.c **** 	*pNumberOfROIZones = 1;
 9697              		.loc 1 2599 0
 9698 0012 3B68     		ldr	r3, [r7]
 9699 0014 0122     		movs	r2, #1
 9700 0016 1A70     		strb	r2, [r3]
2600:Api\core\src/vl53l0x_api.c **** 
2601:Api\core\src/vl53l0x_api.c **** 	LOG_FUNCTION_END(Status);
2602:Api\core\src/vl53l0x_api.c **** 	return Status;
 9701              		.loc 1 2602 0
 9702 0018 0F23     		movs	r3, #15
 9703 001a FB18     		adds	r3, r7, r3
 9704 001c 1B78     		ldrb	r3, [r3]
 9705 001e 5BB2     		sxtb	r3, r3
2603:Api\core\src/vl53l0x_api.c **** }
 9706              		.loc 1 2603 0
 9707 0020 1800     		movs	r0, r3
 9708 0022 BD46     		mov	sp, r7
 9709 0024 04B0     		add	sp, sp, #16
 9710              		@ sp needed
 9711 0026 80BD     		pop	{r7, pc}
 9712              		.cfi_endproc
 9713              	.LFE83:
 9714              		.size	VL53L0X_GetNumberOfROIZones, .-VL53L0X_GetNumberOfROIZones
 9715              		.section	.text.VL53L0X_GetMaxNumberOfROIZones,"ax",%progbits
 9716              		.align	2
 9717              		.global	VL53L0X_GetMaxNumberOfROIZones
 9718              		.code	16
 9719              		.thumb_func
 9720              		.type	VL53L0X_GetMaxNumberOfROIZones, %function
 9721              	VL53L0X_GetMaxNumberOfROIZones:
 9722              	.LFB84:
2604:Api\core\src/vl53l0x_api.c **** 
2605:Api\core\src/vl53l0x_api.c **** VL53L0X_Error VL53L0X_GetMaxNumberOfROIZones(VL53L0X_DEV Dev,
2606:Api\core\src/vl53l0x_api.c **** 	uint8_t *pMaxNumberOfROIZones)
2607:Api\core\src/vl53l0x_api.c **** {
 9723              		.loc 1 2607 0
ARM GAS  C:\Users\ilya\AppData\Local\Temp\ccpEIuqL.s 			page 218


 9724              		.cfi_startproc
 9725              		@ args = 0, pretend = 0, frame = 16
 9726              		@ frame_needed = 1, uses_anonymous_args = 0
 9727 0000 80B5     		push	{r7, lr}
 9728              		.cfi_def_cfa_offset 8
 9729              		.cfi_offset 7, -8
 9730              		.cfi_offset 14, -4
 9731 0002 84B0     		sub	sp, sp, #16
 9732              		.cfi_def_cfa_offset 24
 9733 0004 00AF     		add	r7, sp, #0
 9734              		.cfi_def_cfa_register 7
 9735 0006 7860     		str	r0, [r7, #4]
 9736 0008 3960     		str	r1, [r7]
2608:Api\core\src/vl53l0x_api.c **** 	VL53L0X_Error Status = VL53L0X_ERROR_NONE;
 9737              		.loc 1 2608 0
 9738 000a 0F23     		movs	r3, #15
 9739 000c FB18     		adds	r3, r7, r3
 9740 000e 0022     		movs	r2, #0
 9741 0010 1A70     		strb	r2, [r3]
2609:Api\core\src/vl53l0x_api.c **** 
2610:Api\core\src/vl53l0x_api.c **** 	LOG_FUNCTION_START("");
2611:Api\core\src/vl53l0x_api.c **** 
2612:Api\core\src/vl53l0x_api.c **** 	*pMaxNumberOfROIZones = 1;
 9742              		.loc 1 2612 0
 9743 0012 3B68     		ldr	r3, [r7]
 9744 0014 0122     		movs	r2, #1
 9745 0016 1A70     		strb	r2, [r3]
2613:Api\core\src/vl53l0x_api.c **** 
2614:Api\core\src/vl53l0x_api.c **** 	LOG_FUNCTION_END(Status);
2615:Api\core\src/vl53l0x_api.c **** 	return Status;
 9746              		.loc 1 2615 0
 9747 0018 0F23     		movs	r3, #15
 9748 001a FB18     		adds	r3, r7, r3
 9749 001c 1B78     		ldrb	r3, [r3]
 9750 001e 5BB2     		sxtb	r3, r3
2616:Api\core\src/vl53l0x_api.c **** }
 9751              		.loc 1 2616 0
 9752 0020 1800     		movs	r0, r3
 9753 0022 BD46     		mov	sp, r7
 9754 0024 04B0     		add	sp, sp, #16
 9755              		@ sp needed
 9756 0026 80BD     		pop	{r7, pc}
 9757              		.cfi_endproc
 9758              	.LFE84:
 9759              		.size	VL53L0X_GetMaxNumberOfROIZones, .-VL53L0X_GetMaxNumberOfROIZones
 9760              		.section	.text.VL53L0X_SetGpioConfig,"ax",%progbits
 9761              		.align	2
 9762              		.global	VL53L0X_SetGpioConfig
 9763              		.code	16
 9764              		.thumb_func
 9765              		.type	VL53L0X_SetGpioConfig, %function
 9766              	VL53L0X_SetGpioConfig:
 9767              	.LFB85:
2617:Api\core\src/vl53l0x_api.c **** 
2618:Api\core\src/vl53l0x_api.c **** /* End Group PAL Measurement Functions */
2619:Api\core\src/vl53l0x_api.c **** 
2620:Api\core\src/vl53l0x_api.c **** VL53L0X_Error VL53L0X_SetGpioConfig(VL53L0X_DEV Dev, uint8_t Pin,
ARM GAS  C:\Users\ilya\AppData\Local\Temp\ccpEIuqL.s 			page 219


2621:Api\core\src/vl53l0x_api.c **** 	VL53L0X_DeviceModes DeviceMode, VL53L0X_GpioFunctionality Functionality,
2622:Api\core\src/vl53l0x_api.c **** 	VL53L0X_InterruptPolarity Polarity)
2623:Api\core\src/vl53l0x_api.c **** {
 9768              		.loc 1 2623 0
 9769              		.cfi_startproc
 9770              		@ args = 4, pretend = 0, frame = 16
 9771              		@ frame_needed = 1, uses_anonymous_args = 0
 9772 0000 90B5     		push	{r4, r7, lr}
 9773              		.cfi_def_cfa_offset 12
 9774              		.cfi_offset 4, -12
 9775              		.cfi_offset 7, -8
 9776              		.cfi_offset 14, -4
 9777 0002 85B0     		sub	sp, sp, #20
 9778              		.cfi_def_cfa_offset 32
 9779 0004 00AF     		add	r7, sp, #0
 9780              		.cfi_def_cfa_register 7
 9781 0006 7860     		str	r0, [r7, #4]
 9782 0008 0C00     		movs	r4, r1
 9783 000a 1000     		movs	r0, r2
 9784 000c 1900     		movs	r1, r3
 9785 000e FB1C     		adds	r3, r7, #3
 9786 0010 221C     		adds	r2, r4, #0
 9787 0012 1A70     		strb	r2, [r3]
 9788 0014 BB1C     		adds	r3, r7, #2
 9789 0016 021C     		adds	r2, r0, #0
 9790 0018 1A70     		strb	r2, [r3]
 9791 001a 7B1C     		adds	r3, r7, #1
 9792 001c 0A1C     		adds	r2, r1, #0
 9793 001e 1A70     		strb	r2, [r3]
2624:Api\core\src/vl53l0x_api.c **** 	VL53L0X_Error Status = VL53L0X_ERROR_NONE;
 9794              		.loc 1 2624 0
 9795 0020 0F23     		movs	r3, #15
 9796 0022 FB18     		adds	r3, r7, r3
 9797 0024 0022     		movs	r2, #0
 9798 0026 1A70     		strb	r2, [r3]
2625:Api\core\src/vl53l0x_api.c **** 	uint8_t data;
2626:Api\core\src/vl53l0x_api.c **** 
2627:Api\core\src/vl53l0x_api.c **** 	LOG_FUNCTION_START("");
2628:Api\core\src/vl53l0x_api.c **** 
2629:Api\core\src/vl53l0x_api.c **** 	if (Pin != 0) {
 9799              		.loc 1 2629 0
 9800 0028 FB1C     		adds	r3, r7, #3
 9801 002a 1B78     		ldrb	r3, [r3]
 9802 002c 002B     		cmp	r3, #0
 9803 002e 04D0     		beq	.L454
2630:Api\core\src/vl53l0x_api.c **** 		Status = VL53L0X_ERROR_GPIO_NOT_EXISTING;
 9804              		.loc 1 2630 0
 9805 0030 0F23     		movs	r3, #15
 9806 0032 FB18     		adds	r3, r7, r3
 9807 0034 F622     		movs	r2, #246
 9808 0036 1A70     		strb	r2, [r3]
 9809 0038 7DE1     		b	.L455
 9810              	.L454:
2631:Api\core\src/vl53l0x_api.c **** 	} else if (DeviceMode == VL53L0X_DEVICEMODE_GPIO_DRIVE) {
 9811              		.loc 1 2631 0
 9812 003a BB1C     		adds	r3, r7, #2
 9813 003c 1B78     		ldrb	r3, [r3]
ARM GAS  C:\Users\ilya\AppData\Local\Temp\ccpEIuqL.s 			page 220


 9814 003e 142B     		cmp	r3, #20
 9815 0040 1AD1     		bne	.L456
2632:Api\core\src/vl53l0x_api.c **** 		if (Polarity == VL53L0X_INTERRUPTPOLARITY_LOW)
 9816              		.loc 1 2632 0
 9817 0042 2023     		movs	r3, #32
 9818 0044 FB18     		adds	r3, r7, r3
 9819 0046 1B78     		ldrb	r3, [r3]
 9820 0048 002B     		cmp	r3, #0
 9821 004a 04D1     		bne	.L457
2633:Api\core\src/vl53l0x_api.c **** 			data = 0x10;
 9822              		.loc 1 2633 0
 9823 004c 0E23     		movs	r3, #14
 9824 004e FB18     		adds	r3, r7, r3
 9825 0050 1022     		movs	r2, #16
 9826 0052 1A70     		strb	r2, [r3]
 9827 0054 03E0     		b	.L458
 9828              	.L457:
2634:Api\core\src/vl53l0x_api.c **** 		else
2635:Api\core\src/vl53l0x_api.c **** 			data = 1;
 9829              		.loc 1 2635 0
 9830 0056 0E23     		movs	r3, #14
 9831 0058 FB18     		adds	r3, r7, r3
 9832 005a 0122     		movs	r2, #1
 9833 005c 1A70     		strb	r2, [r3]
 9834              	.L458:
2636:Api\core\src/vl53l0x_api.c **** 
2637:Api\core\src/vl53l0x_api.c **** 		Status = VL53L0X_WrByte(Dev,
 9835              		.loc 1 2637 0
 9836 005e 0F23     		movs	r3, #15
 9837 0060 FC18     		adds	r4, r7, r3
 9838 0062 0E23     		movs	r3, #14
 9839 0064 FB18     		adds	r3, r7, r3
 9840 0066 1A78     		ldrb	r2, [r3]
 9841 0068 7B68     		ldr	r3, [r7, #4]
 9842 006a 8421     		movs	r1, #132
 9843 006c 1800     		movs	r0, r3
 9844 006e FFF7FEFF 		bl	VL53L0X_WrByte
 9845 0072 0300     		movs	r3, r0
 9846 0074 2370     		strb	r3, [r4]
 9847 0076 5EE1     		b	.L455
 9848              	.L456:
2638:Api\core\src/vl53l0x_api.c **** 		VL53L0X_REG_GPIO_HV_MUX_ACTIVE_HIGH, data);
2639:Api\core\src/vl53l0x_api.c **** 
2640:Api\core\src/vl53l0x_api.c **** 	} else if (DeviceMode == VL53L0X_DEVICEMODE_GPIO_OSC) {
 9849              		.loc 1 2640 0
 9850 0078 BB1C     		adds	r3, r7, #2
 9851 007a 1B78     		ldrb	r3, [r3]
 9852 007c 152B     		cmp	r3, #21
 9853 007e 00D0     		beq	.LCB8083
 9854 0080 E1E0     		b	.L459	@long jump
 9855              	.LCB8083:
2641:Api\core\src/vl53l0x_api.c **** 
2642:Api\core\src/vl53l0x_api.c **** 		Status |= VL53L0X_WrByte(Dev, 0xff, 0x01);
 9856              		.loc 1 2642 0
 9857 0082 7B68     		ldr	r3, [r7, #4]
 9858 0084 0122     		movs	r2, #1
 9859 0086 FF21     		movs	r1, #255
ARM GAS  C:\Users\ilya\AppData\Local\Temp\ccpEIuqL.s 			page 221


 9860 0088 1800     		movs	r0, r3
 9861 008a FFF7FEFF 		bl	VL53L0X_WrByte
 9862 008e 0300     		movs	r3, r0
 9863 0090 1900     		movs	r1, r3
 9864 0092 0F23     		movs	r3, #15
 9865 0094 FB18     		adds	r3, r7, r3
 9866 0096 0F22     		movs	r2, #15
 9867 0098 BA18     		adds	r2, r7, r2
 9868 009a 1278     		ldrb	r2, [r2]
 9869 009c 0A43     		orrs	r2, r1
 9870 009e 1A70     		strb	r2, [r3]
2643:Api\core\src/vl53l0x_api.c **** 		Status |= VL53L0X_WrByte(Dev, 0x00, 0x00);
 9871              		.loc 1 2643 0
 9872 00a0 7B68     		ldr	r3, [r7, #4]
 9873 00a2 0022     		movs	r2, #0
 9874 00a4 0021     		movs	r1, #0
 9875 00a6 1800     		movs	r0, r3
 9876 00a8 FFF7FEFF 		bl	VL53L0X_WrByte
 9877 00ac 0300     		movs	r3, r0
 9878 00ae 1900     		movs	r1, r3
 9879 00b0 0F23     		movs	r3, #15
 9880 00b2 FB18     		adds	r3, r7, r3
 9881 00b4 0F22     		movs	r2, #15
 9882 00b6 BA18     		adds	r2, r7, r2
 9883 00b8 1278     		ldrb	r2, [r2]
 9884 00ba 0A43     		orrs	r2, r1
 9885 00bc 1A70     		strb	r2, [r3]
2644:Api\core\src/vl53l0x_api.c **** 
2645:Api\core\src/vl53l0x_api.c **** 		Status |= VL53L0X_WrByte(Dev, 0xff, 0x00);
 9886              		.loc 1 2645 0
 9887 00be 7B68     		ldr	r3, [r7, #4]
 9888 00c0 0022     		movs	r2, #0
 9889 00c2 FF21     		movs	r1, #255
 9890 00c4 1800     		movs	r0, r3
 9891 00c6 FFF7FEFF 		bl	VL53L0X_WrByte
 9892 00ca 0300     		movs	r3, r0
 9893 00cc 1900     		movs	r1, r3
 9894 00ce 0F23     		movs	r3, #15
 9895 00d0 FB18     		adds	r3, r7, r3
 9896 00d2 0F22     		movs	r2, #15
 9897 00d4 BA18     		adds	r2, r7, r2
 9898 00d6 1278     		ldrb	r2, [r2]
 9899 00d8 0A43     		orrs	r2, r1
 9900 00da 1A70     		strb	r2, [r3]
2646:Api\core\src/vl53l0x_api.c **** 		Status |= VL53L0X_WrByte(Dev, 0x80, 0x01);
 9901              		.loc 1 2646 0
 9902 00dc 7B68     		ldr	r3, [r7, #4]
 9903 00de 0122     		movs	r2, #1
 9904 00e0 8021     		movs	r1, #128
 9905 00e2 1800     		movs	r0, r3
 9906 00e4 FFF7FEFF 		bl	VL53L0X_WrByte
 9907 00e8 0300     		movs	r3, r0
 9908 00ea 1900     		movs	r1, r3
 9909 00ec 0F23     		movs	r3, #15
 9910 00ee FB18     		adds	r3, r7, r3
 9911 00f0 0F22     		movs	r2, #15
 9912 00f2 BA18     		adds	r2, r7, r2
ARM GAS  C:\Users\ilya\AppData\Local\Temp\ccpEIuqL.s 			page 222


 9913 00f4 1278     		ldrb	r2, [r2]
 9914 00f6 0A43     		orrs	r2, r1
 9915 00f8 1A70     		strb	r2, [r3]
2647:Api\core\src/vl53l0x_api.c **** 		Status |= VL53L0X_WrByte(Dev, 0x85, 0x02);
 9916              		.loc 1 2647 0
 9917 00fa 7B68     		ldr	r3, [r7, #4]
 9918 00fc 0222     		movs	r2, #2
 9919 00fe 8521     		movs	r1, #133
 9920 0100 1800     		movs	r0, r3
 9921 0102 FFF7FEFF 		bl	VL53L0X_WrByte
 9922 0106 0300     		movs	r3, r0
 9923 0108 1900     		movs	r1, r3
 9924 010a 0F23     		movs	r3, #15
 9925 010c FB18     		adds	r3, r7, r3
 9926 010e 0F22     		movs	r2, #15
 9927 0110 BA18     		adds	r2, r7, r2
 9928 0112 1278     		ldrb	r2, [r2]
 9929 0114 0A43     		orrs	r2, r1
 9930 0116 1A70     		strb	r2, [r3]
2648:Api\core\src/vl53l0x_api.c **** 
2649:Api\core\src/vl53l0x_api.c **** 		Status |= VL53L0X_WrByte(Dev, 0xff, 0x04);
 9931              		.loc 1 2649 0
 9932 0118 7B68     		ldr	r3, [r7, #4]
 9933 011a 0422     		movs	r2, #4
 9934 011c FF21     		movs	r1, #255
 9935 011e 1800     		movs	r0, r3
 9936 0120 FFF7FEFF 		bl	VL53L0X_WrByte
 9937 0124 0300     		movs	r3, r0
 9938 0126 1900     		movs	r1, r3
 9939 0128 0F23     		movs	r3, #15
 9940 012a FB18     		adds	r3, r7, r3
 9941 012c 0F22     		movs	r2, #15
 9942 012e BA18     		adds	r2, r7, r2
 9943 0130 1278     		ldrb	r2, [r2]
 9944 0132 0A43     		orrs	r2, r1
 9945 0134 1A70     		strb	r2, [r3]
2650:Api\core\src/vl53l0x_api.c **** 		Status |= VL53L0X_WrByte(Dev, 0xcd, 0x00);
 9946              		.loc 1 2650 0
 9947 0136 7B68     		ldr	r3, [r7, #4]
 9948 0138 0022     		movs	r2, #0
 9949 013a CD21     		movs	r1, #205
 9950 013c 1800     		movs	r0, r3
 9951 013e FFF7FEFF 		bl	VL53L0X_WrByte
 9952 0142 0300     		movs	r3, r0
 9953 0144 1900     		movs	r1, r3
 9954 0146 0F23     		movs	r3, #15
 9955 0148 FB18     		adds	r3, r7, r3
 9956 014a 0F22     		movs	r2, #15
 9957 014c BA18     		adds	r2, r7, r2
 9958 014e 1278     		ldrb	r2, [r2]
 9959 0150 0A43     		orrs	r2, r1
 9960 0152 1A70     		strb	r2, [r3]
2651:Api\core\src/vl53l0x_api.c **** 		Status |= VL53L0X_WrByte(Dev, 0xcc, 0x11);
 9961              		.loc 1 2651 0
 9962 0154 7B68     		ldr	r3, [r7, #4]
 9963 0156 1122     		movs	r2, #17
 9964 0158 CC21     		movs	r1, #204
ARM GAS  C:\Users\ilya\AppData\Local\Temp\ccpEIuqL.s 			page 223


 9965 015a 1800     		movs	r0, r3
 9966 015c FFF7FEFF 		bl	VL53L0X_WrByte
 9967 0160 0300     		movs	r3, r0
 9968 0162 1900     		movs	r1, r3
 9969 0164 0F23     		movs	r3, #15
 9970 0166 FB18     		adds	r3, r7, r3
 9971 0168 0F22     		movs	r2, #15
 9972 016a BA18     		adds	r2, r7, r2
 9973 016c 1278     		ldrb	r2, [r2]
 9974 016e 0A43     		orrs	r2, r1
 9975 0170 1A70     		strb	r2, [r3]
2652:Api\core\src/vl53l0x_api.c **** 
2653:Api\core\src/vl53l0x_api.c **** 		Status |= VL53L0X_WrByte(Dev, 0xff, 0x07);
 9976              		.loc 1 2653 0
 9977 0172 7B68     		ldr	r3, [r7, #4]
 9978 0174 0722     		movs	r2, #7
 9979 0176 FF21     		movs	r1, #255
 9980 0178 1800     		movs	r0, r3
 9981 017a FFF7FEFF 		bl	VL53L0X_WrByte
 9982 017e 0300     		movs	r3, r0
 9983 0180 1900     		movs	r1, r3
 9984 0182 0F23     		movs	r3, #15
 9985 0184 FB18     		adds	r3, r7, r3
 9986 0186 0F22     		movs	r2, #15
 9987 0188 BA18     		adds	r2, r7, r2
 9988 018a 1278     		ldrb	r2, [r2]
 9989 018c 0A43     		orrs	r2, r1
 9990 018e 1A70     		strb	r2, [r3]
2654:Api\core\src/vl53l0x_api.c **** 		Status |= VL53L0X_WrByte(Dev, 0xbe, 0x00);
 9991              		.loc 1 2654 0
 9992 0190 7B68     		ldr	r3, [r7, #4]
 9993 0192 0022     		movs	r2, #0
 9994 0194 BE21     		movs	r1, #190
 9995 0196 1800     		movs	r0, r3
 9996 0198 FFF7FEFF 		bl	VL53L0X_WrByte
 9997 019c 0300     		movs	r3, r0
 9998 019e 1900     		movs	r1, r3
 9999 01a0 0F23     		movs	r3, #15
 10000 01a2 FB18     		adds	r3, r7, r3
 10001 01a4 0F22     		movs	r2, #15
 10002 01a6 BA18     		adds	r2, r7, r2
 10003 01a8 1278     		ldrb	r2, [r2]
 10004 01aa 0A43     		orrs	r2, r1
 10005 01ac 1A70     		strb	r2, [r3]
2655:Api\core\src/vl53l0x_api.c **** 
2656:Api\core\src/vl53l0x_api.c **** 		Status |= VL53L0X_WrByte(Dev, 0xff, 0x06);
 10006              		.loc 1 2656 0
 10007 01ae 7B68     		ldr	r3, [r7, #4]
 10008 01b0 0622     		movs	r2, #6
 10009 01b2 FF21     		movs	r1, #255
 10010 01b4 1800     		movs	r0, r3
 10011 01b6 FFF7FEFF 		bl	VL53L0X_WrByte
 10012 01ba 0300     		movs	r3, r0
 10013 01bc 1900     		movs	r1, r3
 10014 01be 0F23     		movs	r3, #15
 10015 01c0 FB18     		adds	r3, r7, r3
 10016 01c2 0F22     		movs	r2, #15
ARM GAS  C:\Users\ilya\AppData\Local\Temp\ccpEIuqL.s 			page 224


 10017 01c4 BA18     		adds	r2, r7, r2
 10018 01c6 1278     		ldrb	r2, [r2]
 10019 01c8 0A43     		orrs	r2, r1
 10020 01ca 1A70     		strb	r2, [r3]
2657:Api\core\src/vl53l0x_api.c **** 		Status |= VL53L0X_WrByte(Dev, 0xcc, 0x09);
 10021              		.loc 1 2657 0
 10022 01cc 7B68     		ldr	r3, [r7, #4]
 10023 01ce 0922     		movs	r2, #9
 10024 01d0 CC21     		movs	r1, #204
 10025 01d2 1800     		movs	r0, r3
 10026 01d4 FFF7FEFF 		bl	VL53L0X_WrByte
 10027 01d8 0300     		movs	r3, r0
 10028 01da 1900     		movs	r1, r3
 10029 01dc 0F23     		movs	r3, #15
 10030 01de FB18     		adds	r3, r7, r3
 10031 01e0 0F22     		movs	r2, #15
 10032 01e2 BA18     		adds	r2, r7, r2
 10033 01e4 1278     		ldrb	r2, [r2]
 10034 01e6 0A43     		orrs	r2, r1
 10035 01e8 1A70     		strb	r2, [r3]
2658:Api\core\src/vl53l0x_api.c **** 
2659:Api\core\src/vl53l0x_api.c **** 		Status |= VL53L0X_WrByte(Dev, 0xff, 0x00);
 10036              		.loc 1 2659 0
 10037 01ea 7B68     		ldr	r3, [r7, #4]
 10038 01ec 0022     		movs	r2, #0
 10039 01ee FF21     		movs	r1, #255
 10040 01f0 1800     		movs	r0, r3
 10041 01f2 FFF7FEFF 		bl	VL53L0X_WrByte
 10042 01f6 0300     		movs	r3, r0
 10043 01f8 1900     		movs	r1, r3
 10044 01fa 0F23     		movs	r3, #15
 10045 01fc FB18     		adds	r3, r7, r3
 10046 01fe 0F22     		movs	r2, #15
 10047 0200 BA18     		adds	r2, r7, r2
 10048 0202 1278     		ldrb	r2, [r2]
 10049 0204 0A43     		orrs	r2, r1
 10050 0206 1A70     		strb	r2, [r3]
2660:Api\core\src/vl53l0x_api.c **** 		Status |= VL53L0X_WrByte(Dev, 0xff, 0x01);
 10051              		.loc 1 2660 0
 10052 0208 7B68     		ldr	r3, [r7, #4]
 10053 020a 0122     		movs	r2, #1
 10054 020c FF21     		movs	r1, #255
 10055 020e 1800     		movs	r0, r3
 10056 0210 FFF7FEFF 		bl	VL53L0X_WrByte
 10057 0214 0300     		movs	r3, r0
 10058 0216 1900     		movs	r1, r3
 10059 0218 0F23     		movs	r3, #15
 10060 021a FB18     		adds	r3, r7, r3
 10061 021c 0F22     		movs	r2, #15
 10062 021e BA18     		adds	r2, r7, r2
 10063 0220 1278     		ldrb	r2, [r2]
 10064 0222 0A43     		orrs	r2, r1
 10065 0224 1A70     		strb	r2, [r3]
2661:Api\core\src/vl53l0x_api.c **** 		Status |= VL53L0X_WrByte(Dev, 0x00, 0x00);
 10066              		.loc 1 2661 0
 10067 0226 7B68     		ldr	r3, [r7, #4]
 10068 0228 0022     		movs	r2, #0
ARM GAS  C:\Users\ilya\AppData\Local\Temp\ccpEIuqL.s 			page 225


 10069 022a 0021     		movs	r1, #0
 10070 022c 1800     		movs	r0, r3
 10071 022e FFF7FEFF 		bl	VL53L0X_WrByte
 10072 0232 0300     		movs	r3, r0
 10073 0234 1900     		movs	r1, r3
 10074 0236 0F23     		movs	r3, #15
 10075 0238 FB18     		adds	r3, r7, r3
 10076 023a 0F22     		movs	r2, #15
 10077 023c BA18     		adds	r2, r7, r2
 10078 023e 1278     		ldrb	r2, [r2]
 10079 0240 0A43     		orrs	r2, r1
 10080 0242 1A70     		strb	r2, [r3]
 10081 0244 77E0     		b	.L455
 10082              	.L459:
2662:Api\core\src/vl53l0x_api.c **** 
2663:Api\core\src/vl53l0x_api.c **** 	} else {
2664:Api\core\src/vl53l0x_api.c **** 
2665:Api\core\src/vl53l0x_api.c **** 		if (Status == VL53L0X_ERROR_NONE) {
 10083              		.loc 1 2665 0
 10084 0246 0F23     		movs	r3, #15
 10085 0248 FB18     		adds	r3, r7, r3
 10086 024a 1B78     		ldrb	r3, [r3]
 10087 024c 5BB2     		sxtb	r3, r3
 10088 024e 002B     		cmp	r3, #0
 10089 0250 25D1     		bne	.L460
2666:Api\core\src/vl53l0x_api.c **** 			switch (Functionality) {
 10090              		.loc 1 2666 0
 10091 0252 7B1C     		adds	r3, r7, #1
 10092 0254 1B78     		ldrb	r3, [r3]
 10093 0256 042B     		cmp	r3, #4
 10094 0258 1DD8     		bhi	.L461
 10095 025a 9A00     		lsls	r2, r3, #2
 10096 025c 3A4B     		ldr	r3, .L474
 10097 025e D318     		adds	r3, r2, r3
 10098 0260 1B68     		ldr	r3, [r3]
 10099 0262 9F46     		mov	pc, r3
 10100              		.section	.rodata
 10101              		.align	2
 10102              	.L463:
 10103 00f4 64020000 		.word	.L462
 10104 00f8 6E020000 		.word	.L464
 10105 00fc 78020000 		.word	.L465
 10106 0100 82020000 		.word	.L466
 10107 0104 8C020000 		.word	.L467
 10108              		.section	.text.VL53L0X_SetGpioConfig
 10109              	.L462:
2667:Api\core\src/vl53l0x_api.c **** 			case VL53L0X_GPIOFUNCTIONALITY_OFF:
2668:Api\core\src/vl53l0x_api.c **** 				data = 0x00;
 10110              		.loc 1 2668 0
 10111 0264 0E23     		movs	r3, #14
 10112 0266 FB18     		adds	r3, r7, r3
 10113 0268 0022     		movs	r2, #0
 10114 026a 1A70     		strb	r2, [r3]
2669:Api\core\src/vl53l0x_api.c **** 				break;
 10115              		.loc 1 2669 0
 10116 026c 17E0     		b	.L460
 10117              	.L464:
ARM GAS  C:\Users\ilya\AppData\Local\Temp\ccpEIuqL.s 			page 226


2670:Api\core\src/vl53l0x_api.c **** 			case VL53L0X_GPIOFUNCTIONALITY_THRESHOLD_CROSSED_LOW:
2671:Api\core\src/vl53l0x_api.c **** 				data = 0x01;
 10118              		.loc 1 2671 0
 10119 026e 0E23     		movs	r3, #14
 10120 0270 FB18     		adds	r3, r7, r3
 10121 0272 0122     		movs	r2, #1
 10122 0274 1A70     		strb	r2, [r3]
2672:Api\core\src/vl53l0x_api.c **** 				break;
 10123              		.loc 1 2672 0
 10124 0276 12E0     		b	.L460
 10125              	.L465:
2673:Api\core\src/vl53l0x_api.c **** 			case VL53L0X_GPIOFUNCTIONALITY_THRESHOLD_CROSSED_HIGH:
2674:Api\core\src/vl53l0x_api.c **** 				data = 0x02;
 10126              		.loc 1 2674 0
 10127 0278 0E23     		movs	r3, #14
 10128 027a FB18     		adds	r3, r7, r3
 10129 027c 0222     		movs	r2, #2
 10130 027e 1A70     		strb	r2, [r3]
2675:Api\core\src/vl53l0x_api.c **** 				break;
 10131              		.loc 1 2675 0
 10132 0280 0DE0     		b	.L460
 10133              	.L466:
2676:Api\core\src/vl53l0x_api.c **** 			case VL53L0X_GPIOFUNCTIONALITY_THRESHOLD_CROSSED_OUT:
2677:Api\core\src/vl53l0x_api.c **** 				data = 0x03;
 10134              		.loc 1 2677 0
 10135 0282 0E23     		movs	r3, #14
 10136 0284 FB18     		adds	r3, r7, r3
 10137 0286 0322     		movs	r2, #3
 10138 0288 1A70     		strb	r2, [r3]
2678:Api\core\src/vl53l0x_api.c **** 				break;
 10139              		.loc 1 2678 0
 10140 028a 08E0     		b	.L460
 10141              	.L467:
2679:Api\core\src/vl53l0x_api.c **** 			case VL53L0X_GPIOFUNCTIONALITY_NEW_MEASURE_READY:
2680:Api\core\src/vl53l0x_api.c **** 				data = 0x04;
 10142              		.loc 1 2680 0
 10143 028c 0E23     		movs	r3, #14
 10144 028e FB18     		adds	r3, r7, r3
 10145 0290 0422     		movs	r2, #4
 10146 0292 1A70     		strb	r2, [r3]
2681:Api\core\src/vl53l0x_api.c **** 				break;
 10147              		.loc 1 2681 0
 10148 0294 03E0     		b	.L460
 10149              	.L461:
2682:Api\core\src/vl53l0x_api.c **** 			default:
2683:Api\core\src/vl53l0x_api.c **** 				Status =
 10150              		.loc 1 2683 0
 10151 0296 0F23     		movs	r3, #15
 10152 0298 FB18     		adds	r3, r7, r3
 10153 029a F522     		movs	r2, #245
 10154 029c 1A70     		strb	r2, [r3]
 10155              	.L460:
2684:Api\core\src/vl53l0x_api.c **** 				VL53L0X_ERROR_GPIO_FUNCTIONALITY_NOT_SUPPORTED;
2685:Api\core\src/vl53l0x_api.c **** 			}
2686:Api\core\src/vl53l0x_api.c **** 		}
2687:Api\core\src/vl53l0x_api.c **** 
2688:Api\core\src/vl53l0x_api.c **** 		if (Status == VL53L0X_ERROR_NONE)
ARM GAS  C:\Users\ilya\AppData\Local\Temp\ccpEIuqL.s 			page 227


 10156              		.loc 1 2688 0
 10157 029e 0F23     		movs	r3, #15
 10158 02a0 FB18     		adds	r3, r7, r3
 10159 02a2 1B78     		ldrb	r3, [r3]
 10160 02a4 5BB2     		sxtb	r3, r3
 10161 02a6 002B     		cmp	r3, #0
 10162 02a8 0BD1     		bne	.L468
2689:Api\core\src/vl53l0x_api.c **** 			Status = VL53L0X_WrByte(Dev,
 10163              		.loc 1 2689 0
 10164 02aa 0F23     		movs	r3, #15
 10165 02ac FC18     		adds	r4, r7, r3
 10166 02ae 0E23     		movs	r3, #14
 10167 02b0 FB18     		adds	r3, r7, r3
 10168 02b2 1A78     		ldrb	r2, [r3]
 10169 02b4 7B68     		ldr	r3, [r7, #4]
 10170 02b6 0A21     		movs	r1, #10
 10171 02b8 1800     		movs	r0, r3
 10172 02ba FFF7FEFF 		bl	VL53L0X_WrByte
 10173 02be 0300     		movs	r3, r0
 10174 02c0 2370     		strb	r3, [r4]
 10175              	.L468:
2690:Api\core\src/vl53l0x_api.c **** 			VL53L0X_REG_SYSTEM_INTERRUPT_CONFIG_GPIO, data);
2691:Api\core\src/vl53l0x_api.c **** 
2692:Api\core\src/vl53l0x_api.c **** 		if (Status == VL53L0X_ERROR_NONE) {
 10176              		.loc 1 2692 0
 10177 02c2 0F23     		movs	r3, #15
 10178 02c4 FB18     		adds	r3, r7, r3
 10179 02c6 1B78     		ldrb	r3, [r3]
 10180 02c8 5BB2     		sxtb	r3, r3
 10181 02ca 002B     		cmp	r3, #0
 10182 02cc 19D1     		bne	.L469
2693:Api\core\src/vl53l0x_api.c **** 			if (Polarity == VL53L0X_INTERRUPTPOLARITY_LOW)
 10183              		.loc 1 2693 0
 10184 02ce 2023     		movs	r3, #32
 10185 02d0 FB18     		adds	r3, r7, r3
 10186 02d2 1B78     		ldrb	r3, [r3]
 10187 02d4 002B     		cmp	r3, #0
 10188 02d6 04D1     		bne	.L470
2694:Api\core\src/vl53l0x_api.c **** 				data = 0;
 10189              		.loc 1 2694 0
 10190 02d8 0E23     		movs	r3, #14
 10191 02da FB18     		adds	r3, r7, r3
 10192 02dc 0022     		movs	r2, #0
 10193 02de 1A70     		strb	r2, [r3]
 10194 02e0 03E0     		b	.L471
 10195              	.L470:
2695:Api\core\src/vl53l0x_api.c **** 			else
2696:Api\core\src/vl53l0x_api.c **** 				data = (uint8_t)(1 << 4);
 10196              		.loc 1 2696 0
 10197 02e2 0E23     		movs	r3, #14
 10198 02e4 FB18     		adds	r3, r7, r3
 10199 02e6 1022     		movs	r2, #16
 10200 02e8 1A70     		strb	r2, [r3]
 10201              	.L471:
2697:Api\core\src/vl53l0x_api.c **** 
2698:Api\core\src/vl53l0x_api.c **** 			Status = VL53L0X_UpdateByte(Dev,
 10202              		.loc 1 2698 0
ARM GAS  C:\Users\ilya\AppData\Local\Temp\ccpEIuqL.s 			page 228


 10203 02ea 0F23     		movs	r3, #15
 10204 02ec FC18     		adds	r4, r7, r3
 10205 02ee 0E23     		movs	r3, #14
 10206 02f0 FB18     		adds	r3, r7, r3
 10207 02f2 1B78     		ldrb	r3, [r3]
 10208 02f4 7868     		ldr	r0, [r7, #4]
 10209 02f6 EF22     		movs	r2, #239
 10210 02f8 8421     		movs	r1, #132
 10211 02fa FFF7FEFF 		bl	VL53L0X_UpdateByte
 10212 02fe 0300     		movs	r3, r0
 10213 0300 2370     		strb	r3, [r4]
 10214              	.L469:
2699:Api\core\src/vl53l0x_api.c **** 			VL53L0X_REG_GPIO_HV_MUX_ACTIVE_HIGH, 0xEF, data);
2700:Api\core\src/vl53l0x_api.c **** 		}
2701:Api\core\src/vl53l0x_api.c **** 
2702:Api\core\src/vl53l0x_api.c **** 		if (Status == VL53L0X_ERROR_NONE)
 10215              		.loc 1 2702 0
 10216 0302 0F23     		movs	r3, #15
 10217 0304 FB18     		adds	r3, r7, r3
 10218 0306 1B78     		ldrb	r3, [r3]
 10219 0308 5BB2     		sxtb	r3, r3
 10220 030a 002B     		cmp	r3, #0
 10221 030c 04D1     		bne	.L472
2703:Api\core\src/vl53l0x_api.c **** 			VL53L0X_SETDEVICESPECIFICPARAMETER(Dev,
 10222              		.loc 1 2703 0
 10223 030e 7B68     		ldr	r3, [r7, #4]
 10224 0310 7A1C     		adds	r2, r7, #1
 10225 0312 DA21     		movs	r1, #218
 10226 0314 1278     		ldrb	r2, [r2]
 10227 0316 5A54     		strb	r2, [r3, r1]
 10228              	.L472:
2704:Api\core\src/vl53l0x_api.c **** 				Pin0GpioFunctionality, Functionality);
2705:Api\core\src/vl53l0x_api.c **** 
2706:Api\core\src/vl53l0x_api.c **** 		if (Status == VL53L0X_ERROR_NONE)
 10229              		.loc 1 2706 0
 10230 0318 0F23     		movs	r3, #15
 10231 031a FB18     		adds	r3, r7, r3
 10232 031c 1B78     		ldrb	r3, [r3]
 10233 031e 5BB2     		sxtb	r3, r3
 10234 0320 002B     		cmp	r3, #0
 10235 0322 08D1     		bne	.L455
2707:Api\core\src/vl53l0x_api.c **** 			Status = VL53L0X_ClearInterruptMask(Dev, 0);
 10236              		.loc 1 2707 0
 10237 0324 0F23     		movs	r3, #15
 10238 0326 FC18     		adds	r4, r7, r3
 10239 0328 7B68     		ldr	r3, [r7, #4]
 10240 032a 0021     		movs	r1, #0
 10241 032c 1800     		movs	r0, r3
 10242 032e FFF7FEFF 		bl	VL53L0X_ClearInterruptMask
 10243 0332 0300     		movs	r3, r0
 10244 0334 2370     		strb	r3, [r4]
 10245              	.L455:
2708:Api\core\src/vl53l0x_api.c **** 
2709:Api\core\src/vl53l0x_api.c **** 	}
2710:Api\core\src/vl53l0x_api.c **** 
2711:Api\core\src/vl53l0x_api.c **** 	LOG_FUNCTION_END(Status);
2712:Api\core\src/vl53l0x_api.c **** 	return Status;
ARM GAS  C:\Users\ilya\AppData\Local\Temp\ccpEIuqL.s 			page 229


 10246              		.loc 1 2712 0
 10247 0336 0F23     		movs	r3, #15
 10248 0338 FB18     		adds	r3, r7, r3
 10249 033a 1B78     		ldrb	r3, [r3]
 10250 033c 5BB2     		sxtb	r3, r3
2713:Api\core\src/vl53l0x_api.c **** }
 10251              		.loc 1 2713 0
 10252 033e 1800     		movs	r0, r3
 10253 0340 BD46     		mov	sp, r7
 10254 0342 05B0     		add	sp, sp, #20
 10255              		@ sp needed
 10256 0344 90BD     		pop	{r4, r7, pc}
 10257              	.L475:
 10258 0346 C046     		.align	2
 10259              	.L474:
 10260 0348 F4000000 		.word	.L463
 10261              		.cfi_endproc
 10262              	.LFE85:
 10263              		.size	VL53L0X_SetGpioConfig, .-VL53L0X_SetGpioConfig
 10264              		.section	.text.VL53L0X_GetGpioConfig,"ax",%progbits
 10265              		.align	2
 10266              		.global	VL53L0X_GetGpioConfig
 10267              		.code	16
 10268              		.thumb_func
 10269              		.type	VL53L0X_GetGpioConfig, %function
 10270              	VL53L0X_GetGpioConfig:
 10271              	.LFB86:
2714:Api\core\src/vl53l0x_api.c **** 
2715:Api\core\src/vl53l0x_api.c **** VL53L0X_Error VL53L0X_GetGpioConfig(VL53L0X_DEV Dev, uint8_t Pin,
2716:Api\core\src/vl53l0x_api.c **** 	VL53L0X_DeviceModes *pDeviceMode,
2717:Api\core\src/vl53l0x_api.c **** 	VL53L0X_GpioFunctionality *pFunctionality,
2718:Api\core\src/vl53l0x_api.c **** 	VL53L0X_InterruptPolarity *pPolarity)
2719:Api\core\src/vl53l0x_api.c **** {
 10272              		.loc 1 2719 0
 10273              		.cfi_startproc
 10274              		@ args = 4, pretend = 0, frame = 24
 10275              		@ frame_needed = 1, uses_anonymous_args = 0
 10276 0000 90B5     		push	{r4, r7, lr}
 10277              		.cfi_def_cfa_offset 12
 10278              		.cfi_offset 4, -12
 10279              		.cfi_offset 7, -8
 10280              		.cfi_offset 14, -4
 10281 0002 87B0     		sub	sp, sp, #28
 10282              		.cfi_def_cfa_offset 40
 10283 0004 00AF     		add	r7, sp, #0
 10284              		.cfi_def_cfa_register 7
 10285 0006 F860     		str	r0, [r7, #12]
 10286 0008 7A60     		str	r2, [r7, #4]
 10287 000a 3B60     		str	r3, [r7]
 10288 000c 0B23     		movs	r3, #11
 10289 000e FB18     		adds	r3, r7, r3
 10290 0010 0A1C     		adds	r2, r1, #0
 10291 0012 1A70     		strb	r2, [r3]
2720:Api\core\src/vl53l0x_api.c **** 	VL53L0X_Error Status = VL53L0X_ERROR_NONE;
 10292              		.loc 1 2720 0
 10293 0014 1723     		movs	r3, #23
 10294 0016 FB18     		adds	r3, r7, r3
ARM GAS  C:\Users\ilya\AppData\Local\Temp\ccpEIuqL.s 			page 230


 10295 0018 0022     		movs	r2, #0
 10296 001a 1A70     		strb	r2, [r3]
2721:Api\core\src/vl53l0x_api.c **** 	VL53L0X_GpioFunctionality GpioFunctionality;
2722:Api\core\src/vl53l0x_api.c **** 	uint8_t data;
2723:Api\core\src/vl53l0x_api.c **** 
2724:Api\core\src/vl53l0x_api.c **** 	LOG_FUNCTION_START("");
2725:Api\core\src/vl53l0x_api.c **** 
2726:Api\core\src/vl53l0x_api.c **** 	/* pDeviceMode not managed by Ewok it return the current mode */
2727:Api\core\src/vl53l0x_api.c **** 
2728:Api\core\src/vl53l0x_api.c **** 	Status = VL53L0X_GetDeviceMode(Dev, pDeviceMode);
 10297              		.loc 1 2728 0
 10298 001c 1723     		movs	r3, #23
 10299 001e FC18     		adds	r4, r7, r3
 10300 0020 7A68     		ldr	r2, [r7, #4]
 10301 0022 FB68     		ldr	r3, [r7, #12]
 10302 0024 1100     		movs	r1, r2
 10303 0026 1800     		movs	r0, r3
 10304 0028 FFF7FEFF 		bl	VL53L0X_GetDeviceMode
 10305 002c 0300     		movs	r3, r0
 10306 002e 2370     		strb	r3, [r4]
2729:Api\core\src/vl53l0x_api.c **** 
2730:Api\core\src/vl53l0x_api.c **** 	if (Status == VL53L0X_ERROR_NONE) {
 10307              		.loc 1 2730 0
 10308 0030 1723     		movs	r3, #23
 10309 0032 FB18     		adds	r3, r7, r3
 10310 0034 1B78     		ldrb	r3, [r3]
 10311 0036 5BB2     		sxtb	r3, r3
 10312 0038 002B     		cmp	r3, #0
 10313 003a 14D1     		bne	.L477
2731:Api\core\src/vl53l0x_api.c **** 		if (Pin != 0) {
 10314              		.loc 1 2731 0
 10315 003c 0B23     		movs	r3, #11
 10316 003e FB18     		adds	r3, r7, r3
 10317 0040 1B78     		ldrb	r3, [r3]
 10318 0042 002B     		cmp	r3, #0
 10319 0044 04D0     		beq	.L478
2732:Api\core\src/vl53l0x_api.c **** 			Status = VL53L0X_ERROR_GPIO_NOT_EXISTING;
 10320              		.loc 1 2732 0
 10321 0046 1723     		movs	r3, #23
 10322 0048 FB18     		adds	r3, r7, r3
 10323 004a F622     		movs	r2, #246
 10324 004c 1A70     		strb	r2, [r3]
 10325 004e 0AE0     		b	.L477
 10326              	.L478:
2733:Api\core\src/vl53l0x_api.c **** 		} else {
2734:Api\core\src/vl53l0x_api.c **** 			Status = VL53L0X_RdByte(Dev,
 10327              		.loc 1 2734 0
 10328 0050 1723     		movs	r3, #23
 10329 0052 FC18     		adds	r4, r7, r3
 10330 0054 1523     		movs	r3, #21
 10331 0056 FA18     		adds	r2, r7, r3
 10332 0058 FB68     		ldr	r3, [r7, #12]
 10333 005a 0A21     		movs	r1, #10
 10334 005c 1800     		movs	r0, r3
 10335 005e FFF7FEFF 		bl	VL53L0X_RdByte
 10336 0062 0300     		movs	r3, r0
 10337 0064 2370     		strb	r3, [r4]
ARM GAS  C:\Users\ilya\AppData\Local\Temp\ccpEIuqL.s 			page 231


 10338              	.L477:
2735:Api\core\src/vl53l0x_api.c **** 			VL53L0X_REG_SYSTEM_INTERRUPT_CONFIG_GPIO, &data);
2736:Api\core\src/vl53l0x_api.c **** 		}
2737:Api\core\src/vl53l0x_api.c **** 	}
2738:Api\core\src/vl53l0x_api.c **** 
2739:Api\core\src/vl53l0x_api.c **** 	if (Status == VL53L0X_ERROR_NONE) {
 10339              		.loc 1 2739 0
 10340 0066 1723     		movs	r3, #23
 10341 0068 FB18     		adds	r3, r7, r3
 10342 006a 1B78     		ldrb	r3, [r3]
 10343 006c 5BB2     		sxtb	r3, r3
 10344 006e 002B     		cmp	r3, #0
 10345 0070 29D1     		bne	.L479
2740:Api\core\src/vl53l0x_api.c **** 		switch (data & 0x07) {
 10346              		.loc 1 2740 0
 10347 0072 1523     		movs	r3, #21
 10348 0074 FB18     		adds	r3, r7, r3
 10349 0076 1B78     		ldrb	r3, [r3]
 10350 0078 1A00     		movs	r2, r3
 10351 007a 0723     		movs	r3, #7
 10352 007c 1340     		ands	r3, r2
 10353 007e 042B     		cmp	r3, #4
 10354 0080 1DD8     		bhi	.L480
 10355 0082 9A00     		lsls	r2, r3, #2
 10356 0084 2F4B     		ldr	r3, .L492
 10357 0086 D318     		adds	r3, r2, r3
 10358 0088 1B68     		ldr	r3, [r3]
 10359 008a 9F46     		mov	pc, r3
 10360              		.section	.rodata
 10361              		.align	2
 10362              	.L482:
 10363 0108 8C000000 		.word	.L481
 10364 010c 96000000 		.word	.L483
 10365 0110 A0000000 		.word	.L484
 10366 0114 AA000000 		.word	.L485
 10367 0118 B4000000 		.word	.L486
 10368              		.section	.text.VL53L0X_GetGpioConfig
 10369              	.L481:
2741:Api\core\src/vl53l0x_api.c **** 		case 0x00:
2742:Api\core\src/vl53l0x_api.c **** 			GpioFunctionality = VL53L0X_GPIOFUNCTIONALITY_OFF;
 10370              		.loc 1 2742 0
 10371 008c 1623     		movs	r3, #22
 10372 008e FB18     		adds	r3, r7, r3
 10373 0090 0022     		movs	r2, #0
 10374 0092 1A70     		strb	r2, [r3]
2743:Api\core\src/vl53l0x_api.c **** 			break;
 10375              		.loc 1 2743 0
 10376 0094 17E0     		b	.L479
 10377              	.L483:
2744:Api\core\src/vl53l0x_api.c **** 		case 0x01:
2745:Api\core\src/vl53l0x_api.c **** 			GpioFunctionality =
 10378              		.loc 1 2745 0
 10379 0096 1623     		movs	r3, #22
 10380 0098 FB18     		adds	r3, r7, r3
 10381 009a 0122     		movs	r2, #1
 10382 009c 1A70     		strb	r2, [r3]
2746:Api\core\src/vl53l0x_api.c **** 			VL53L0X_GPIOFUNCTIONALITY_THRESHOLD_CROSSED_LOW;
ARM GAS  C:\Users\ilya\AppData\Local\Temp\ccpEIuqL.s 			page 232


2747:Api\core\src/vl53l0x_api.c **** 			break;
 10383              		.loc 1 2747 0
 10384 009e 12E0     		b	.L479
 10385              	.L484:
2748:Api\core\src/vl53l0x_api.c **** 		case 0x02:
2749:Api\core\src/vl53l0x_api.c **** 			GpioFunctionality =
 10386              		.loc 1 2749 0
 10387 00a0 1623     		movs	r3, #22
 10388 00a2 FB18     		adds	r3, r7, r3
 10389 00a4 0222     		movs	r2, #2
 10390 00a6 1A70     		strb	r2, [r3]
2750:Api\core\src/vl53l0x_api.c **** 			VL53L0X_GPIOFUNCTIONALITY_THRESHOLD_CROSSED_HIGH;
2751:Api\core\src/vl53l0x_api.c **** 			break;
 10391              		.loc 1 2751 0
 10392 00a8 0DE0     		b	.L479
 10393              	.L485:
2752:Api\core\src/vl53l0x_api.c **** 		case 0x03:
2753:Api\core\src/vl53l0x_api.c **** 			GpioFunctionality =
 10394              		.loc 1 2753 0
 10395 00aa 1623     		movs	r3, #22
 10396 00ac FB18     		adds	r3, r7, r3
 10397 00ae 0322     		movs	r2, #3
 10398 00b0 1A70     		strb	r2, [r3]
2754:Api\core\src/vl53l0x_api.c **** 			VL53L0X_GPIOFUNCTIONALITY_THRESHOLD_CROSSED_OUT;
2755:Api\core\src/vl53l0x_api.c **** 			break;
 10399              		.loc 1 2755 0
 10400 00b2 08E0     		b	.L479
 10401              	.L486:
2756:Api\core\src/vl53l0x_api.c **** 		case 0x04:
2757:Api\core\src/vl53l0x_api.c **** 			GpioFunctionality =
 10402              		.loc 1 2757 0
 10403 00b4 1623     		movs	r3, #22
 10404 00b6 FB18     		adds	r3, r7, r3
 10405 00b8 0422     		movs	r2, #4
 10406 00ba 1A70     		strb	r2, [r3]
2758:Api\core\src/vl53l0x_api.c **** 			VL53L0X_GPIOFUNCTIONALITY_NEW_MEASURE_READY;
2759:Api\core\src/vl53l0x_api.c **** 			break;
 10407              		.loc 1 2759 0
 10408 00bc 03E0     		b	.L479
 10409              	.L480:
2760:Api\core\src/vl53l0x_api.c **** 		default:
2761:Api\core\src/vl53l0x_api.c **** 			Status = VL53L0X_ERROR_GPIO_FUNCTIONALITY_NOT_SUPPORTED;
 10410              		.loc 1 2761 0
 10411 00be 1723     		movs	r3, #23
 10412 00c0 FB18     		adds	r3, r7, r3
 10413 00c2 F522     		movs	r2, #245
 10414 00c4 1A70     		strb	r2, [r3]
 10415              	.L479:
2762:Api\core\src/vl53l0x_api.c **** 		}
2763:Api\core\src/vl53l0x_api.c **** 	}
2764:Api\core\src/vl53l0x_api.c **** 
2765:Api\core\src/vl53l0x_api.c **** 	if (Status == VL53L0X_ERROR_NONE)
 10416              		.loc 1 2765 0
 10417 00c6 1723     		movs	r3, #23
 10418 00c8 FB18     		adds	r3, r7, r3
 10419 00ca 1B78     		ldrb	r3, [r3]
 10420 00cc 5BB2     		sxtb	r3, r3
ARM GAS  C:\Users\ilya\AppData\Local\Temp\ccpEIuqL.s 			page 233


 10421 00ce 002B     		cmp	r3, #0
 10422 00d0 0AD1     		bne	.L487
2766:Api\core\src/vl53l0x_api.c **** 		Status = VL53L0X_RdByte(Dev, VL53L0X_REG_GPIO_HV_MUX_ACTIVE_HIGH,
 10423              		.loc 1 2766 0
 10424 00d2 1723     		movs	r3, #23
 10425 00d4 FC18     		adds	r4, r7, r3
 10426 00d6 1523     		movs	r3, #21
 10427 00d8 FA18     		adds	r2, r7, r3
 10428 00da FB68     		ldr	r3, [r7, #12]
 10429 00dc 8421     		movs	r1, #132
 10430 00de 1800     		movs	r0, r3
 10431 00e0 FFF7FEFF 		bl	VL53L0X_RdByte
 10432 00e4 0300     		movs	r3, r0
 10433 00e6 2370     		strb	r3, [r4]
 10434              	.L487:
2767:Api\core\src/vl53l0x_api.c **** 			&data);
2768:Api\core\src/vl53l0x_api.c **** 
2769:Api\core\src/vl53l0x_api.c **** 	if (Status == VL53L0X_ERROR_NONE) {
 10435              		.loc 1 2769 0
 10436 00e8 1723     		movs	r3, #23
 10437 00ea FB18     		adds	r3, r7, r3
 10438 00ec 1B78     		ldrb	r3, [r3]
 10439 00ee 5BB2     		sxtb	r3, r3
 10440 00f0 002B     		cmp	r3, #0
 10441 00f2 0DD1     		bne	.L488
2770:Api\core\src/vl53l0x_api.c **** 		if ((data & (uint8_t)(1 << 4)) == 0)
 10442              		.loc 1 2770 0
 10443 00f4 1523     		movs	r3, #21
 10444 00f6 FB18     		adds	r3, r7, r3
 10445 00f8 1B78     		ldrb	r3, [r3]
 10446 00fa 1A00     		movs	r2, r3
 10447 00fc 1023     		movs	r3, #16
 10448 00fe 1340     		ands	r3, r2
 10449 0100 03D1     		bne	.L489
2771:Api\core\src/vl53l0x_api.c **** 			*pPolarity = VL53L0X_INTERRUPTPOLARITY_LOW;
 10450              		.loc 1 2771 0
 10451 0102 BB6A     		ldr	r3, [r7, #40]
 10452 0104 0022     		movs	r2, #0
 10453 0106 1A70     		strb	r2, [r3]
 10454 0108 02E0     		b	.L488
 10455              	.L489:
2772:Api\core\src/vl53l0x_api.c **** 		else
2773:Api\core\src/vl53l0x_api.c **** 			*pPolarity = VL53L0X_INTERRUPTPOLARITY_HIGH;
 10456              		.loc 1 2773 0
 10457 010a BB6A     		ldr	r3, [r7, #40]
 10458 010c 0122     		movs	r2, #1
 10459 010e 1A70     		strb	r2, [r3]
 10460              	.L488:
2774:Api\core\src/vl53l0x_api.c **** 	}
2775:Api\core\src/vl53l0x_api.c **** 
2776:Api\core\src/vl53l0x_api.c **** 	if (Status == VL53L0X_ERROR_NONE) {
 10461              		.loc 1 2776 0
 10462 0110 1723     		movs	r3, #23
 10463 0112 FB18     		adds	r3, r7, r3
 10464 0114 1B78     		ldrb	r3, [r3]
 10465 0116 5BB2     		sxtb	r3, r3
 10466 0118 002B     		cmp	r3, #0
ARM GAS  C:\Users\ilya\AppData\Local\Temp\ccpEIuqL.s 			page 234


 10467 011a 0AD1     		bne	.L490
2777:Api\core\src/vl53l0x_api.c **** 		*pFunctionality = GpioFunctionality;
 10468              		.loc 1 2777 0
 10469 011c 3B68     		ldr	r3, [r7]
 10470 011e 1622     		movs	r2, #22
 10471 0120 BA18     		adds	r2, r7, r2
 10472 0122 1278     		ldrb	r2, [r2]
 10473 0124 1A70     		strb	r2, [r3]
2778:Api\core\src/vl53l0x_api.c **** 		VL53L0X_SETDEVICESPECIFICPARAMETER(Dev, Pin0GpioFunctionality,
 10474              		.loc 1 2778 0
 10475 0126 FB68     		ldr	r3, [r7, #12]
 10476 0128 1622     		movs	r2, #22
 10477 012a BA18     		adds	r2, r7, r2
 10478 012c DA21     		movs	r1, #218
 10479 012e 1278     		ldrb	r2, [r2]
 10480 0130 5A54     		strb	r2, [r3, r1]
 10481              	.L490:
2779:Api\core\src/vl53l0x_api.c **** 			GpioFunctionality);
2780:Api\core\src/vl53l0x_api.c **** 	}
2781:Api\core\src/vl53l0x_api.c **** 
2782:Api\core\src/vl53l0x_api.c **** 	LOG_FUNCTION_END(Status);
2783:Api\core\src/vl53l0x_api.c **** 	return Status;
 10482              		.loc 1 2783 0
 10483 0132 1723     		movs	r3, #23
 10484 0134 FB18     		adds	r3, r7, r3
 10485 0136 1B78     		ldrb	r3, [r3]
 10486 0138 5BB2     		sxtb	r3, r3
2784:Api\core\src/vl53l0x_api.c **** }
 10487              		.loc 1 2784 0
 10488 013a 1800     		movs	r0, r3
 10489 013c BD46     		mov	sp, r7
 10490 013e 07B0     		add	sp, sp, #28
 10491              		@ sp needed
 10492 0140 90BD     		pop	{r4, r7, pc}
 10493              	.L493:
 10494 0142 C046     		.align	2
 10495              	.L492:
 10496 0144 08010000 		.word	.L482
 10497              		.cfi_endproc
 10498              	.LFE86:
 10499              		.size	VL53L0X_GetGpioConfig, .-VL53L0X_GetGpioConfig
 10500              		.section	.text.VL53L0X_SetInterruptThresholds,"ax",%progbits
 10501              		.align	2
 10502              		.global	VL53L0X_SetInterruptThresholds
 10503              		.code	16
 10504              		.thumb_func
 10505              		.type	VL53L0X_SetInterruptThresholds, %function
 10506              	VL53L0X_SetInterruptThresholds:
 10507              	.LFB87:
2785:Api\core\src/vl53l0x_api.c **** 
2786:Api\core\src/vl53l0x_api.c **** VL53L0X_Error VL53L0X_SetInterruptThresholds(VL53L0X_DEV Dev,
2787:Api\core\src/vl53l0x_api.c **** 	VL53L0X_DeviceModes DeviceMode, FixPoint1616_t ThresholdLow,
2788:Api\core\src/vl53l0x_api.c **** 	FixPoint1616_t ThresholdHigh)
2789:Api\core\src/vl53l0x_api.c **** {
 10508              		.loc 1 2789 0
 10509              		.cfi_startproc
 10510              		@ args = 0, pretend = 0, frame = 24
ARM GAS  C:\Users\ilya\AppData\Local\Temp\ccpEIuqL.s 			page 235


 10511              		@ frame_needed = 1, uses_anonymous_args = 0
 10512 0000 90B5     		push	{r4, r7, lr}
 10513              		.cfi_def_cfa_offset 12
 10514              		.cfi_offset 4, -12
 10515              		.cfi_offset 7, -8
 10516              		.cfi_offset 14, -4
 10517 0002 87B0     		sub	sp, sp, #28
 10518              		.cfi_def_cfa_offset 40
 10519 0004 00AF     		add	r7, sp, #0
 10520              		.cfi_def_cfa_register 7
 10521 0006 F860     		str	r0, [r7, #12]
 10522 0008 7A60     		str	r2, [r7, #4]
 10523 000a 3B60     		str	r3, [r7]
 10524 000c 0B23     		movs	r3, #11
 10525 000e FB18     		adds	r3, r7, r3
 10526 0010 0A1C     		adds	r2, r1, #0
 10527 0012 1A70     		strb	r2, [r3]
2790:Api\core\src/vl53l0x_api.c **** 	VL53L0X_Error Status = VL53L0X_ERROR_NONE;
 10528              		.loc 1 2790 0
 10529 0014 1723     		movs	r3, #23
 10530 0016 FB18     		adds	r3, r7, r3
 10531 0018 0022     		movs	r2, #0
 10532 001a 1A70     		strb	r2, [r3]
2791:Api\core\src/vl53l0x_api.c **** 	uint16_t Threshold16;
2792:Api\core\src/vl53l0x_api.c **** 	LOG_FUNCTION_START("");
2793:Api\core\src/vl53l0x_api.c **** 
2794:Api\core\src/vl53l0x_api.c **** 	/* no dependency on DeviceMode for Ewok */
2795:Api\core\src/vl53l0x_api.c **** 	/* Need to divide by 2 because the FW will apply a x2 */
2796:Api\core\src/vl53l0x_api.c **** 	Threshold16 = (uint16_t)((ThresholdLow >> 17) & 0x00fff);
 10533              		.loc 1 2796 0
 10534 001c 7B68     		ldr	r3, [r7, #4]
 10535 001e 5B0C     		lsrs	r3, r3, #17
 10536 0020 9AB2     		uxth	r2, r3
 10537 0022 1423     		movs	r3, #20
 10538 0024 FB18     		adds	r3, r7, r3
 10539 0026 1205     		lsls	r2, r2, #20
 10540 0028 120D     		lsrs	r2, r2, #20
 10541 002a 1A80     		strh	r2, [r3]
2797:Api\core\src/vl53l0x_api.c **** 	Status = VL53L0X_WrWord(Dev, VL53L0X_REG_SYSTEM_THRESH_LOW, Threshold16);
 10542              		.loc 1 2797 0
 10543 002c 1723     		movs	r3, #23
 10544 002e FC18     		adds	r4, r7, r3
 10545 0030 1423     		movs	r3, #20
 10546 0032 FB18     		adds	r3, r7, r3
 10547 0034 1A88     		ldrh	r2, [r3]
 10548 0036 FB68     		ldr	r3, [r7, #12]
 10549 0038 0E21     		movs	r1, #14
 10550 003a 1800     		movs	r0, r3
 10551 003c FFF7FEFF 		bl	VL53L0X_WrWord
 10552 0040 0300     		movs	r3, r0
 10553 0042 2370     		strb	r3, [r4]
2798:Api\core\src/vl53l0x_api.c **** 
2799:Api\core\src/vl53l0x_api.c **** 	if (Status == VL53L0X_ERROR_NONE) {
 10554              		.loc 1 2799 0
 10555 0044 1723     		movs	r3, #23
 10556 0046 FB18     		adds	r3, r7, r3
 10557 0048 1B78     		ldrb	r3, [r3]
ARM GAS  C:\Users\ilya\AppData\Local\Temp\ccpEIuqL.s 			page 236


 10558 004a 5BB2     		sxtb	r3, r3
 10559 004c 002B     		cmp	r3, #0
 10560 004e 13D1     		bne	.L495
2800:Api\core\src/vl53l0x_api.c **** 		/* Need to divide by 2 because the FW will apply a x2 */
2801:Api\core\src/vl53l0x_api.c **** 		Threshold16 = (uint16_t)((ThresholdHigh >> 17) & 0x00fff);
 10561              		.loc 1 2801 0
 10562 0050 3B68     		ldr	r3, [r7]
 10563 0052 5B0C     		lsrs	r3, r3, #17
 10564 0054 9AB2     		uxth	r2, r3
 10565 0056 1423     		movs	r3, #20
 10566 0058 FB18     		adds	r3, r7, r3
 10567 005a 1205     		lsls	r2, r2, #20
 10568 005c 120D     		lsrs	r2, r2, #20
 10569 005e 1A80     		strh	r2, [r3]
2802:Api\core\src/vl53l0x_api.c **** 		Status = VL53L0X_WrWord(Dev, VL53L0X_REG_SYSTEM_THRESH_HIGH,
 10570              		.loc 1 2802 0
 10571 0060 1723     		movs	r3, #23
 10572 0062 FC18     		adds	r4, r7, r3
 10573 0064 1423     		movs	r3, #20
 10574 0066 FB18     		adds	r3, r7, r3
 10575 0068 1A88     		ldrh	r2, [r3]
 10576 006a FB68     		ldr	r3, [r7, #12]
 10577 006c 0C21     		movs	r1, #12
 10578 006e 1800     		movs	r0, r3
 10579 0070 FFF7FEFF 		bl	VL53L0X_WrWord
 10580 0074 0300     		movs	r3, r0
 10581 0076 2370     		strb	r3, [r4]
 10582              	.L495:
2803:Api\core\src/vl53l0x_api.c **** 			Threshold16);
2804:Api\core\src/vl53l0x_api.c **** 	}
2805:Api\core\src/vl53l0x_api.c **** 
2806:Api\core\src/vl53l0x_api.c **** 	LOG_FUNCTION_END(Status);
2807:Api\core\src/vl53l0x_api.c **** 	return Status;
 10583              		.loc 1 2807 0
 10584 0078 1723     		movs	r3, #23
 10585 007a FB18     		adds	r3, r7, r3
 10586 007c 1B78     		ldrb	r3, [r3]
 10587 007e 5BB2     		sxtb	r3, r3
2808:Api\core\src/vl53l0x_api.c **** }
 10588              		.loc 1 2808 0
 10589 0080 1800     		movs	r0, r3
 10590 0082 BD46     		mov	sp, r7
 10591 0084 07B0     		add	sp, sp, #28
 10592              		@ sp needed
 10593 0086 90BD     		pop	{r4, r7, pc}
 10594              		.cfi_endproc
 10595              	.LFE87:
 10596              		.size	VL53L0X_SetInterruptThresholds, .-VL53L0X_SetInterruptThresholds
 10597              		.section	.text.VL53L0X_GetInterruptThresholds,"ax",%progbits
 10598              		.align	2
 10599              		.global	VL53L0X_GetInterruptThresholds
 10600              		.code	16
 10601              		.thumb_func
 10602              		.type	VL53L0X_GetInterruptThresholds, %function
 10603              	VL53L0X_GetInterruptThresholds:
 10604              	.LFB88:
2809:Api\core\src/vl53l0x_api.c **** 
ARM GAS  C:\Users\ilya\AppData\Local\Temp\ccpEIuqL.s 			page 237


2810:Api\core\src/vl53l0x_api.c **** VL53L0X_Error VL53L0X_GetInterruptThresholds(VL53L0X_DEV Dev,
2811:Api\core\src/vl53l0x_api.c **** 	VL53L0X_DeviceModes DeviceMode, FixPoint1616_t *pThresholdLow,
2812:Api\core\src/vl53l0x_api.c **** 	FixPoint1616_t *pThresholdHigh)
2813:Api\core\src/vl53l0x_api.c **** {
 10605              		.loc 1 2813 0
 10606              		.cfi_startproc
 10607              		@ args = 0, pretend = 0, frame = 24
 10608              		@ frame_needed = 1, uses_anonymous_args = 0
 10609 0000 90B5     		push	{r4, r7, lr}
 10610              		.cfi_def_cfa_offset 12
 10611              		.cfi_offset 4, -12
 10612              		.cfi_offset 7, -8
 10613              		.cfi_offset 14, -4
 10614 0002 87B0     		sub	sp, sp, #28
 10615              		.cfi_def_cfa_offset 40
 10616 0004 00AF     		add	r7, sp, #0
 10617              		.cfi_def_cfa_register 7
 10618 0006 F860     		str	r0, [r7, #12]
 10619 0008 7A60     		str	r2, [r7, #4]
 10620 000a 3B60     		str	r3, [r7]
 10621 000c 0B23     		movs	r3, #11
 10622 000e FB18     		adds	r3, r7, r3
 10623 0010 0A1C     		adds	r2, r1, #0
 10624 0012 1A70     		strb	r2, [r3]
2814:Api\core\src/vl53l0x_api.c **** 	VL53L0X_Error Status = VL53L0X_ERROR_NONE;
 10625              		.loc 1 2814 0
 10626 0014 1723     		movs	r3, #23
 10627 0016 FB18     		adds	r3, r7, r3
 10628 0018 0022     		movs	r2, #0
 10629 001a 1A70     		strb	r2, [r3]
2815:Api\core\src/vl53l0x_api.c **** 	uint16_t Threshold16;
2816:Api\core\src/vl53l0x_api.c **** 	LOG_FUNCTION_START("");
2817:Api\core\src/vl53l0x_api.c **** 
2818:Api\core\src/vl53l0x_api.c **** 	/* no dependency on DeviceMode for Ewok */
2819:Api\core\src/vl53l0x_api.c **** 
2820:Api\core\src/vl53l0x_api.c **** 	Status = VL53L0X_RdWord(Dev, VL53L0X_REG_SYSTEM_THRESH_LOW, &Threshold16);
 10630              		.loc 1 2820 0
 10631 001c 1723     		movs	r3, #23
 10632 001e FC18     		adds	r4, r7, r3
 10633 0020 1423     		movs	r3, #20
 10634 0022 FA18     		adds	r2, r7, r3
 10635 0024 FB68     		ldr	r3, [r7, #12]
 10636 0026 0E21     		movs	r1, #14
 10637 0028 1800     		movs	r0, r3
 10638 002a FFF7FEFF 		bl	VL53L0X_RdWord
 10639 002e 0300     		movs	r3, r0
 10640 0030 2370     		strb	r3, [r4]
2821:Api\core\src/vl53l0x_api.c **** 	/* Need to multiply by 2 because the FW will apply a x2 */
2822:Api\core\src/vl53l0x_api.c **** 	*pThresholdLow = (FixPoint1616_t)((0x00fff & Threshold16) << 17);
 10641              		.loc 1 2822 0
 10642 0032 1423     		movs	r3, #20
 10643 0034 FB18     		adds	r3, r7, r3
 10644 0036 1B88     		ldrh	r3, [r3]
 10645 0038 5B04     		lsls	r3, r3, #17
 10646 003a 1A00     		movs	r2, r3
 10647 003c 124B     		ldr	r3, .L500
 10648 003e 1A40     		ands	r2, r3
ARM GAS  C:\Users\ilya\AppData\Local\Temp\ccpEIuqL.s 			page 238


 10649 0040 7B68     		ldr	r3, [r7, #4]
 10650 0042 1A60     		str	r2, [r3]
2823:Api\core\src/vl53l0x_api.c **** 
2824:Api\core\src/vl53l0x_api.c **** 	if (Status == VL53L0X_ERROR_NONE) {
 10651              		.loc 1 2824 0
 10652 0044 1723     		movs	r3, #23
 10653 0046 FB18     		adds	r3, r7, r3
 10654 0048 1B78     		ldrb	r3, [r3]
 10655 004a 5BB2     		sxtb	r3, r3
 10656 004c 002B     		cmp	r3, #0
 10657 004e 13D1     		bne	.L498
2825:Api\core\src/vl53l0x_api.c **** 		Status = VL53L0X_RdWord(Dev, VL53L0X_REG_SYSTEM_THRESH_HIGH,
 10658              		.loc 1 2825 0
 10659 0050 1723     		movs	r3, #23
 10660 0052 FC18     		adds	r4, r7, r3
 10661 0054 1423     		movs	r3, #20
 10662 0056 FA18     		adds	r2, r7, r3
 10663 0058 FB68     		ldr	r3, [r7, #12]
 10664 005a 0C21     		movs	r1, #12
 10665 005c 1800     		movs	r0, r3
 10666 005e FFF7FEFF 		bl	VL53L0X_RdWord
 10667 0062 0300     		movs	r3, r0
 10668 0064 2370     		strb	r3, [r4]
2826:Api\core\src/vl53l0x_api.c **** 			&Threshold16);
2827:Api\core\src/vl53l0x_api.c **** 		/* Need to multiply by 2 because the FW will apply a x2 */
2828:Api\core\src/vl53l0x_api.c **** 		*pThresholdHigh =
2829:Api\core\src/vl53l0x_api.c **** 			(FixPoint1616_t)((0x00fff & Threshold16) << 17);
 10669              		.loc 1 2829 0
 10670 0066 1423     		movs	r3, #20
 10671 0068 FB18     		adds	r3, r7, r3
 10672 006a 1B88     		ldrh	r3, [r3]
 10673 006c 5B04     		lsls	r3, r3, #17
 10674 006e 1A00     		movs	r2, r3
 10675 0070 054B     		ldr	r3, .L500
 10676 0072 1A40     		ands	r2, r3
2828:Api\core\src/vl53l0x_api.c **** 			(FixPoint1616_t)((0x00fff & Threshold16) << 17);
 10677              		.loc 1 2828 0
 10678 0074 3B68     		ldr	r3, [r7]
 10679 0076 1A60     		str	r2, [r3]
 10680              	.L498:
2830:Api\core\src/vl53l0x_api.c **** 	}
2831:Api\core\src/vl53l0x_api.c **** 
2832:Api\core\src/vl53l0x_api.c **** 	LOG_FUNCTION_END(Status);
2833:Api\core\src/vl53l0x_api.c **** 	return Status;
 10681              		.loc 1 2833 0
 10682 0078 1723     		movs	r3, #23
 10683 007a FB18     		adds	r3, r7, r3
 10684 007c 1B78     		ldrb	r3, [r3]
 10685 007e 5BB2     		sxtb	r3, r3
2834:Api\core\src/vl53l0x_api.c **** }
 10686              		.loc 1 2834 0
 10687 0080 1800     		movs	r0, r3
 10688 0082 BD46     		mov	sp, r7
 10689 0084 07B0     		add	sp, sp, #28
 10690              		@ sp needed
 10691 0086 90BD     		pop	{r4, r7, pc}
 10692              	.L501:
ARM GAS  C:\Users\ilya\AppData\Local\Temp\ccpEIuqL.s 			page 239


 10693              		.align	2
 10694              	.L500:
 10695 0088 0000FE1F 		.word	536739840
 10696              		.cfi_endproc
 10697              	.LFE88:
 10698              		.size	VL53L0X_GetInterruptThresholds, .-VL53L0X_GetInterruptThresholds
 10699              		.section	.text.VL53L0X_GetStopCompletedStatus,"ax",%progbits
 10700              		.align	2
 10701              		.global	VL53L0X_GetStopCompletedStatus
 10702              		.code	16
 10703              		.thumb_func
 10704              		.type	VL53L0X_GetStopCompletedStatus, %function
 10705              	VL53L0X_GetStopCompletedStatus:
 10706              	.LFB89:
2835:Api\core\src/vl53l0x_api.c **** 
2836:Api\core\src/vl53l0x_api.c **** VL53L0X_Error VL53L0X_GetStopCompletedStatus(VL53L0X_DEV Dev,
2837:Api\core\src/vl53l0x_api.c **** 	uint32_t *pStopStatus)
2838:Api\core\src/vl53l0x_api.c **** {
 10707              		.loc 1 2838 0
 10708              		.cfi_startproc
 10709              		@ args = 0, pretend = 0, frame = 16
 10710              		@ frame_needed = 1, uses_anonymous_args = 0
 10711 0000 90B5     		push	{r4, r7, lr}
 10712              		.cfi_def_cfa_offset 12
 10713              		.cfi_offset 4, -12
 10714              		.cfi_offset 7, -8
 10715              		.cfi_offset 14, -4
 10716 0002 85B0     		sub	sp, sp, #20
 10717              		.cfi_def_cfa_offset 32
 10718 0004 00AF     		add	r7, sp, #0
 10719              		.cfi_def_cfa_register 7
 10720 0006 7860     		str	r0, [r7, #4]
 10721 0008 3960     		str	r1, [r7]
2839:Api\core\src/vl53l0x_api.c **** 	VL53L0X_Error Status = VL53L0X_ERROR_NONE;
 10722              		.loc 1 2839 0
 10723 000a 0F23     		movs	r3, #15
 10724 000c FB18     		adds	r3, r7, r3
 10725 000e 0022     		movs	r2, #0
 10726 0010 1A70     		strb	r2, [r3]
2840:Api\core\src/vl53l0x_api.c **** 	uint8_t Byte = 0;
 10727              		.loc 1 2840 0
 10728 0012 0E23     		movs	r3, #14
 10729 0014 FB18     		adds	r3, r7, r3
 10730 0016 0022     		movs	r2, #0
 10731 0018 1A70     		strb	r2, [r3]
2841:Api\core\src/vl53l0x_api.c **** 	LOG_FUNCTION_START("");
2842:Api\core\src/vl53l0x_api.c **** 
2843:Api\core\src/vl53l0x_api.c **** 	Status = VL53L0X_WrByte(Dev, 0xFF, 0x01);
 10732              		.loc 1 2843 0
 10733 001a 0F23     		movs	r3, #15
 10734 001c FC18     		adds	r4, r7, r3
 10735 001e 7B68     		ldr	r3, [r7, #4]
 10736 0020 0122     		movs	r2, #1
 10737 0022 FF21     		movs	r1, #255
 10738 0024 1800     		movs	r0, r3
 10739 0026 FFF7FEFF 		bl	VL53L0X_WrByte
 10740 002a 0300     		movs	r3, r0
ARM GAS  C:\Users\ilya\AppData\Local\Temp\ccpEIuqL.s 			page 240


 10741 002c 2370     		strb	r3, [r4]
2844:Api\core\src/vl53l0x_api.c **** 
2845:Api\core\src/vl53l0x_api.c **** 	if (Status == VL53L0X_ERROR_NONE)
 10742              		.loc 1 2845 0
 10743 002e 0F23     		movs	r3, #15
 10744 0030 FB18     		adds	r3, r7, r3
 10745 0032 1B78     		ldrb	r3, [r3]
 10746 0034 5BB2     		sxtb	r3, r3
 10747 0036 002B     		cmp	r3, #0
 10748 0038 0AD1     		bne	.L503
2846:Api\core\src/vl53l0x_api.c **** 		Status = VL53L0X_RdByte(Dev, 0x04, &Byte);
 10749              		.loc 1 2846 0
 10750 003a 0F23     		movs	r3, #15
 10751 003c FC18     		adds	r4, r7, r3
 10752 003e 0E23     		movs	r3, #14
 10753 0040 FA18     		adds	r2, r7, r3
 10754 0042 7B68     		ldr	r3, [r7, #4]
 10755 0044 0421     		movs	r1, #4
 10756 0046 1800     		movs	r0, r3
 10757 0048 FFF7FEFF 		bl	VL53L0X_RdByte
 10758 004c 0300     		movs	r3, r0
 10759 004e 2370     		strb	r3, [r4]
 10760              	.L503:
2847:Api\core\src/vl53l0x_api.c **** 
2848:Api\core\src/vl53l0x_api.c **** 	if (Status == VL53L0X_ERROR_NONE)
 10761              		.loc 1 2848 0
 10762 0050 0F23     		movs	r3, #15
 10763 0052 FB18     		adds	r3, r7, r3
 10764 0054 1B78     		ldrb	r3, [r3]
 10765 0056 5BB2     		sxtb	r3, r3
 10766 0058 002B     		cmp	r3, #0
 10767 005a 09D1     		bne	.L504
2849:Api\core\src/vl53l0x_api.c **** 		Status = VL53L0X_WrByte(Dev, 0xFF, 0x0);
 10768              		.loc 1 2849 0
 10769 005c 0F23     		movs	r3, #15
 10770 005e FC18     		adds	r4, r7, r3
 10771 0060 7B68     		ldr	r3, [r7, #4]
 10772 0062 0022     		movs	r2, #0
 10773 0064 FF21     		movs	r1, #255
 10774 0066 1800     		movs	r0, r3
 10775 0068 FFF7FEFF 		bl	VL53L0X_WrByte
 10776 006c 0300     		movs	r3, r0
 10777 006e 2370     		strb	r3, [r4]
 10778              	.L504:
2850:Api\core\src/vl53l0x_api.c **** 
2851:Api\core\src/vl53l0x_api.c **** 	*pStopStatus = Byte;
 10779              		.loc 1 2851 0
 10780 0070 0E23     		movs	r3, #14
 10781 0072 FB18     		adds	r3, r7, r3
 10782 0074 1B78     		ldrb	r3, [r3]
 10783 0076 1A00     		movs	r2, r3
 10784 0078 3B68     		ldr	r3, [r7]
 10785 007a 1A60     		str	r2, [r3]
2852:Api\core\src/vl53l0x_api.c **** 
2853:Api\core\src/vl53l0x_api.c **** 	if (Byte == 0) {
 10786              		.loc 1 2853 0
 10787 007c 0E23     		movs	r3, #14
ARM GAS  C:\Users\ilya\AppData\Local\Temp\ccpEIuqL.s 			page 241


 10788 007e FB18     		adds	r3, r7, r3
 10789 0080 1B78     		ldrb	r3, [r3]
 10790 0082 002B     		cmp	r3, #0
 10791 0084 48D1     		bne	.L505
2854:Api\core\src/vl53l0x_api.c **** 		Status = VL53L0X_WrByte(Dev, 0x80, 0x01);
 10792              		.loc 1 2854 0
 10793 0086 0F23     		movs	r3, #15
 10794 0088 FC18     		adds	r4, r7, r3
 10795 008a 7B68     		ldr	r3, [r7, #4]
 10796 008c 0122     		movs	r2, #1
 10797 008e 8021     		movs	r1, #128
 10798 0090 1800     		movs	r0, r3
 10799 0092 FFF7FEFF 		bl	VL53L0X_WrByte
 10800 0096 0300     		movs	r3, r0
 10801 0098 2370     		strb	r3, [r4]
2855:Api\core\src/vl53l0x_api.c **** 		Status = VL53L0X_WrByte(Dev, 0xFF, 0x01);
 10802              		.loc 1 2855 0
 10803 009a 0F23     		movs	r3, #15
 10804 009c FC18     		adds	r4, r7, r3
 10805 009e 7B68     		ldr	r3, [r7, #4]
 10806 00a0 0122     		movs	r2, #1
 10807 00a2 FF21     		movs	r1, #255
 10808 00a4 1800     		movs	r0, r3
 10809 00a6 FFF7FEFF 		bl	VL53L0X_WrByte
 10810 00aa 0300     		movs	r3, r0
 10811 00ac 2370     		strb	r3, [r4]
2856:Api\core\src/vl53l0x_api.c **** 		Status = VL53L0X_WrByte(Dev, 0x00, 0x00);
 10812              		.loc 1 2856 0
 10813 00ae 0F23     		movs	r3, #15
 10814 00b0 FC18     		adds	r4, r7, r3
 10815 00b2 7B68     		ldr	r3, [r7, #4]
 10816 00b4 0022     		movs	r2, #0
 10817 00b6 0021     		movs	r1, #0
 10818 00b8 1800     		movs	r0, r3
 10819 00ba FFF7FEFF 		bl	VL53L0X_WrByte
 10820 00be 0300     		movs	r3, r0
 10821 00c0 2370     		strb	r3, [r4]
2857:Api\core\src/vl53l0x_api.c **** 		Status = VL53L0X_WrByte(Dev, 0x91,
 10822              		.loc 1 2857 0
 10823 00c2 7A68     		ldr	r2, [r7, #4]
 10824 00c4 9D23     		movs	r3, #157
 10825 00c6 5B00     		lsls	r3, r3, #1
 10826 00c8 D25C     		ldrb	r2, [r2, r3]
 10827 00ca 0F23     		movs	r3, #15
 10828 00cc FC18     		adds	r4, r7, r3
 10829 00ce 7B68     		ldr	r3, [r7, #4]
 10830 00d0 9121     		movs	r1, #145
 10831 00d2 1800     		movs	r0, r3
 10832 00d4 FFF7FEFF 		bl	VL53L0X_WrByte
 10833 00d8 0300     		movs	r3, r0
 10834 00da 2370     		strb	r3, [r4]
2858:Api\core\src/vl53l0x_api.c **** 			PALDevDataGet(Dev, StopVariable));
2859:Api\core\src/vl53l0x_api.c **** 		Status = VL53L0X_WrByte(Dev, 0x00, 0x01);
 10835              		.loc 1 2859 0
 10836 00dc 0F23     		movs	r3, #15
 10837 00de FC18     		adds	r4, r7, r3
 10838 00e0 7B68     		ldr	r3, [r7, #4]
ARM GAS  C:\Users\ilya\AppData\Local\Temp\ccpEIuqL.s 			page 242


 10839 00e2 0122     		movs	r2, #1
 10840 00e4 0021     		movs	r1, #0
 10841 00e6 1800     		movs	r0, r3
 10842 00e8 FFF7FEFF 		bl	VL53L0X_WrByte
 10843 00ec 0300     		movs	r3, r0
 10844 00ee 2370     		strb	r3, [r4]
2860:Api\core\src/vl53l0x_api.c **** 		Status = VL53L0X_WrByte(Dev, 0xFF, 0x00);
 10845              		.loc 1 2860 0
 10846 00f0 0F23     		movs	r3, #15
 10847 00f2 FC18     		adds	r4, r7, r3
 10848 00f4 7B68     		ldr	r3, [r7, #4]
 10849 00f6 0022     		movs	r2, #0
 10850 00f8 FF21     		movs	r1, #255
 10851 00fa 1800     		movs	r0, r3
 10852 00fc FFF7FEFF 		bl	VL53L0X_WrByte
 10853 0100 0300     		movs	r3, r0
 10854 0102 2370     		strb	r3, [r4]
2861:Api\core\src/vl53l0x_api.c **** 		Status = VL53L0X_WrByte(Dev, 0x80, 0x00);
 10855              		.loc 1 2861 0
 10856 0104 0F23     		movs	r3, #15
 10857 0106 FC18     		adds	r4, r7, r3
 10858 0108 7B68     		ldr	r3, [r7, #4]
 10859 010a 0022     		movs	r2, #0
 10860 010c 8021     		movs	r1, #128
 10861 010e 1800     		movs	r0, r3
 10862 0110 FFF7FEFF 		bl	VL53L0X_WrByte
 10863 0114 0300     		movs	r3, r0
 10864 0116 2370     		strb	r3, [r4]
 10865              	.L505:
2862:Api\core\src/vl53l0x_api.c **** 	}
2863:Api\core\src/vl53l0x_api.c **** 
2864:Api\core\src/vl53l0x_api.c **** 	LOG_FUNCTION_END(Status);
2865:Api\core\src/vl53l0x_api.c **** 	return Status;
 10866              		.loc 1 2865 0
 10867 0118 0F23     		movs	r3, #15
 10868 011a FB18     		adds	r3, r7, r3
 10869 011c 1B78     		ldrb	r3, [r3]
 10870 011e 5BB2     		sxtb	r3, r3
2866:Api\core\src/vl53l0x_api.c **** }
 10871              		.loc 1 2866 0
 10872 0120 1800     		movs	r0, r3
 10873 0122 BD46     		mov	sp, r7
 10874 0124 05B0     		add	sp, sp, #20
 10875              		@ sp needed
 10876 0126 90BD     		pop	{r4, r7, pc}
 10877              		.cfi_endproc
 10878              	.LFE89:
 10879              		.size	VL53L0X_GetStopCompletedStatus, .-VL53L0X_GetStopCompletedStatus
 10880              		.section	.text.VL53L0X_ClearInterruptMask,"ax",%progbits
 10881              		.align	2
 10882              		.global	VL53L0X_ClearInterruptMask
 10883              		.code	16
 10884              		.thumb_func
 10885              		.type	VL53L0X_ClearInterruptMask, %function
 10886              	VL53L0X_ClearInterruptMask:
 10887              	.LFB90:
2867:Api\core\src/vl53l0x_api.c **** 
ARM GAS  C:\Users\ilya\AppData\Local\Temp\ccpEIuqL.s 			page 243


2868:Api\core\src/vl53l0x_api.c **** /* Group PAL Interrupt Functions */
2869:Api\core\src/vl53l0x_api.c **** VL53L0X_Error VL53L0X_ClearInterruptMask(VL53L0X_DEV Dev, uint32_t InterruptMask)
2870:Api\core\src/vl53l0x_api.c **** {
 10888              		.loc 1 2870 0
 10889              		.cfi_startproc
 10890              		@ args = 0, pretend = 0, frame = 16
 10891              		@ frame_needed = 1, uses_anonymous_args = 0
 10892 0000 90B5     		push	{r4, r7, lr}
 10893              		.cfi_def_cfa_offset 12
 10894              		.cfi_offset 4, -12
 10895              		.cfi_offset 7, -8
 10896              		.cfi_offset 14, -4
 10897 0002 85B0     		sub	sp, sp, #20
 10898              		.cfi_def_cfa_offset 32
 10899 0004 00AF     		add	r7, sp, #0
 10900              		.cfi_def_cfa_register 7
 10901 0006 7860     		str	r0, [r7, #4]
 10902 0008 3960     		str	r1, [r7]
2871:Api\core\src/vl53l0x_api.c **** 	VL53L0X_Error Status = VL53L0X_ERROR_NONE;
 10903              		.loc 1 2871 0
 10904 000a 0F23     		movs	r3, #15
 10905 000c FB18     		adds	r3, r7, r3
 10906 000e 0022     		movs	r2, #0
 10907 0010 1A70     		strb	r2, [r3]
2872:Api\core\src/vl53l0x_api.c **** 	uint8_t LoopCount;
2873:Api\core\src/vl53l0x_api.c **** 	uint8_t Byte;
2874:Api\core\src/vl53l0x_api.c **** 	LOG_FUNCTION_START("");
2875:Api\core\src/vl53l0x_api.c **** 
2876:Api\core\src/vl53l0x_api.c **** 	/* clear bit 0 range interrupt, bit 1 error interrupt */
2877:Api\core\src/vl53l0x_api.c **** 	LoopCount = 0;
 10908              		.loc 1 2877 0
 10909 0012 0E23     		movs	r3, #14
 10910 0014 FB18     		adds	r3, r7, r3
 10911 0016 0022     		movs	r2, #0
 10912 0018 1A70     		strb	r2, [r3]
 10913              	.L509:
2878:Api\core\src/vl53l0x_api.c **** 	do {
2879:Api\core\src/vl53l0x_api.c **** 		Status = VL53L0X_WrByte(Dev,
 10914              		.loc 1 2879 0 discriminator 1
 10915 001a 0F23     		movs	r3, #15
 10916 001c FC18     		adds	r4, r7, r3
 10917 001e 7B68     		ldr	r3, [r7, #4]
 10918 0020 0122     		movs	r2, #1
 10919 0022 0B21     		movs	r1, #11
 10920 0024 1800     		movs	r0, r3
 10921 0026 FFF7FEFF 		bl	VL53L0X_WrByte
 10922 002a 0300     		movs	r3, r0
 10923 002c 2370     		strb	r3, [r4]
2880:Api\core\src/vl53l0x_api.c **** 			VL53L0X_REG_SYSTEM_INTERRUPT_CLEAR, 0x01);
2881:Api\core\src/vl53l0x_api.c **** 		Status |= VL53L0X_WrByte(Dev,
 10924              		.loc 1 2881 0 discriminator 1
 10925 002e 7B68     		ldr	r3, [r7, #4]
 10926 0030 0022     		movs	r2, #0
 10927 0032 0B21     		movs	r1, #11
 10928 0034 1800     		movs	r0, r3
 10929 0036 FFF7FEFF 		bl	VL53L0X_WrByte
 10930 003a 0300     		movs	r3, r0
ARM GAS  C:\Users\ilya\AppData\Local\Temp\ccpEIuqL.s 			page 244


 10931 003c 1900     		movs	r1, r3
 10932 003e 0F23     		movs	r3, #15
 10933 0040 FB18     		adds	r3, r7, r3
 10934 0042 0F22     		movs	r2, #15
 10935 0044 BA18     		adds	r2, r7, r2
 10936 0046 1278     		ldrb	r2, [r2]
 10937 0048 0A43     		orrs	r2, r1
 10938 004a 1A70     		strb	r2, [r3]
2882:Api\core\src/vl53l0x_api.c **** 			VL53L0X_REG_SYSTEM_INTERRUPT_CLEAR, 0x00);
2883:Api\core\src/vl53l0x_api.c **** 		Status |= VL53L0X_RdByte(Dev,
 10939              		.loc 1 2883 0 discriminator 1
 10940 004c 0D23     		movs	r3, #13
 10941 004e FA18     		adds	r2, r7, r3
 10942 0050 7B68     		ldr	r3, [r7, #4]
 10943 0052 1321     		movs	r1, #19
 10944 0054 1800     		movs	r0, r3
 10945 0056 FFF7FEFF 		bl	VL53L0X_RdByte
 10946 005a 0300     		movs	r3, r0
 10947 005c 1900     		movs	r1, r3
 10948 005e 0F23     		movs	r3, #15
 10949 0060 FB18     		adds	r3, r7, r3
 10950 0062 0F22     		movs	r2, #15
 10951 0064 BA18     		adds	r2, r7, r2
 10952 0066 1278     		ldrb	r2, [r2]
 10953 0068 0A43     		orrs	r2, r1
 10954 006a 1A70     		strb	r2, [r3]
2884:Api\core\src/vl53l0x_api.c **** 			VL53L0X_REG_RESULT_INTERRUPT_STATUS, &Byte);
2885:Api\core\src/vl53l0x_api.c **** 		LoopCount++;
 10955              		.loc 1 2885 0 discriminator 1
 10956 006c 0E23     		movs	r3, #14
 10957 006e FB18     		adds	r3, r7, r3
 10958 0070 1A78     		ldrb	r2, [r3]
 10959 0072 0E23     		movs	r3, #14
 10960 0074 FB18     		adds	r3, r7, r3
 10961 0076 0132     		adds	r2, r2, #1
 10962 0078 1A70     		strb	r2, [r3]
2886:Api\core\src/vl53l0x_api.c **** 	} while (((Byte & 0x07) != 0x00)
 10963              		.loc 1 2886 0 discriminator 1
 10964 007a 0D23     		movs	r3, #13
 10965 007c FB18     		adds	r3, r7, r3
 10966 007e 1B78     		ldrb	r3, [r3]
 10967 0080 1A00     		movs	r2, r3
 10968 0082 0723     		movs	r3, #7
 10969 0084 1340     		ands	r3, r2
2887:Api\core\src/vl53l0x_api.c **** 			&& (LoopCount < 3)
2888:Api\core\src/vl53l0x_api.c **** 			&& (Status == VL53L0X_ERROR_NONE));
 10970              		.loc 1 2888 0 discriminator 1
 10971 0086 0AD0     		beq	.L508
2887:Api\core\src/vl53l0x_api.c **** 			&& (LoopCount < 3)
 10972              		.loc 1 2887 0
 10973 0088 0E23     		movs	r3, #14
 10974 008a FB18     		adds	r3, r7, r3
 10975 008c 1B78     		ldrb	r3, [r3]
 10976 008e 022B     		cmp	r3, #2
 10977 0090 05D8     		bhi	.L508
 10978              		.loc 1 2888 0
 10979 0092 0F23     		movs	r3, #15
ARM GAS  C:\Users\ilya\AppData\Local\Temp\ccpEIuqL.s 			page 245


 10980 0094 FB18     		adds	r3, r7, r3
 10981 0096 1B78     		ldrb	r3, [r3]
 10982 0098 5BB2     		sxtb	r3, r3
 10983 009a 002B     		cmp	r3, #0
 10984 009c BDD0     		beq	.L509
 10985              	.L508:
2889:Api\core\src/vl53l0x_api.c **** 
2890:Api\core\src/vl53l0x_api.c **** 
2891:Api\core\src/vl53l0x_api.c **** 	if (LoopCount >= 3)
 10986              		.loc 1 2891 0
 10987 009e 0E23     		movs	r3, #14
 10988 00a0 FB18     		adds	r3, r7, r3
 10989 00a2 1B78     		ldrb	r3, [r3]
 10990 00a4 022B     		cmp	r3, #2
 10991 00a6 03D9     		bls	.L510
2892:Api\core\src/vl53l0x_api.c **** 		Status = VL53L0X_ERROR_INTERRUPT_NOT_CLEARED;
 10992              		.loc 1 2892 0
 10993 00a8 0F23     		movs	r3, #15
 10994 00aa FB18     		adds	r3, r7, r3
 10995 00ac F422     		movs	r2, #244
 10996 00ae 1A70     		strb	r2, [r3]
 10997              	.L510:
2893:Api\core\src/vl53l0x_api.c **** 
2894:Api\core\src/vl53l0x_api.c **** 	LOG_FUNCTION_END(Status);
2895:Api\core\src/vl53l0x_api.c **** 	return Status;
 10998              		.loc 1 2895 0
 10999 00b0 0F23     		movs	r3, #15
 11000 00b2 FB18     		adds	r3, r7, r3
 11001 00b4 1B78     		ldrb	r3, [r3]
 11002 00b6 5BB2     		sxtb	r3, r3
2896:Api\core\src/vl53l0x_api.c **** }
 11003              		.loc 1 2896 0
 11004 00b8 1800     		movs	r0, r3
 11005 00ba BD46     		mov	sp, r7
 11006 00bc 05B0     		add	sp, sp, #20
 11007              		@ sp needed
 11008 00be 90BD     		pop	{r4, r7, pc}
 11009              		.cfi_endproc
 11010              	.LFE90:
 11011              		.size	VL53L0X_ClearInterruptMask, .-VL53L0X_ClearInterruptMask
 11012              		.section	.text.VL53L0X_GetInterruptMaskStatus,"ax",%progbits
 11013              		.align	2
 11014              		.global	VL53L0X_GetInterruptMaskStatus
 11015              		.code	16
 11016              		.thumb_func
 11017              		.type	VL53L0X_GetInterruptMaskStatus, %function
 11018              	VL53L0X_GetInterruptMaskStatus:
 11019              	.LFB91:
2897:Api\core\src/vl53l0x_api.c **** 
2898:Api\core\src/vl53l0x_api.c **** VL53L0X_Error VL53L0X_GetInterruptMaskStatus(VL53L0X_DEV Dev,
2899:Api\core\src/vl53l0x_api.c **** 	uint32_t *pInterruptMaskStatus)
2900:Api\core\src/vl53l0x_api.c **** {
 11020              		.loc 1 2900 0
 11021              		.cfi_startproc
 11022              		@ args = 0, pretend = 0, frame = 16
 11023              		@ frame_needed = 1, uses_anonymous_args = 0
 11024 0000 90B5     		push	{r4, r7, lr}
ARM GAS  C:\Users\ilya\AppData\Local\Temp\ccpEIuqL.s 			page 246


 11025              		.cfi_def_cfa_offset 12
 11026              		.cfi_offset 4, -12
 11027              		.cfi_offset 7, -8
 11028              		.cfi_offset 14, -4
 11029 0002 85B0     		sub	sp, sp, #20
 11030              		.cfi_def_cfa_offset 32
 11031 0004 00AF     		add	r7, sp, #0
 11032              		.cfi_def_cfa_register 7
 11033 0006 7860     		str	r0, [r7, #4]
 11034 0008 3960     		str	r1, [r7]
2901:Api\core\src/vl53l0x_api.c **** 	VL53L0X_Error Status = VL53L0X_ERROR_NONE;
 11035              		.loc 1 2901 0
 11036 000a 0F23     		movs	r3, #15
 11037 000c FB18     		adds	r3, r7, r3
 11038 000e 0022     		movs	r2, #0
 11039 0010 1A70     		strb	r2, [r3]
2902:Api\core\src/vl53l0x_api.c **** 	uint8_t Byte;
2903:Api\core\src/vl53l0x_api.c **** 	LOG_FUNCTION_START("");
2904:Api\core\src/vl53l0x_api.c **** 
2905:Api\core\src/vl53l0x_api.c **** 	Status = VL53L0X_RdByte(Dev, VL53L0X_REG_RESULT_INTERRUPT_STATUS, &Byte);
 11040              		.loc 1 2905 0
 11041 0012 0F23     		movs	r3, #15
 11042 0014 FC18     		adds	r4, r7, r3
 11043 0016 0E23     		movs	r3, #14
 11044 0018 FA18     		adds	r2, r7, r3
 11045 001a 7B68     		ldr	r3, [r7, #4]
 11046 001c 1321     		movs	r1, #19
 11047 001e 1800     		movs	r0, r3
 11048 0020 FFF7FEFF 		bl	VL53L0X_RdByte
 11049 0024 0300     		movs	r3, r0
 11050 0026 2370     		strb	r3, [r4]
2906:Api\core\src/vl53l0x_api.c **** 	*pInterruptMaskStatus = Byte & 0x07;
 11051              		.loc 1 2906 0
 11052 0028 0E23     		movs	r3, #14
 11053 002a FB18     		adds	r3, r7, r3
 11054 002c 1B78     		ldrb	r3, [r3]
 11055 002e 1A00     		movs	r2, r3
 11056 0030 0723     		movs	r3, #7
 11057 0032 1A40     		ands	r2, r3
 11058 0034 3B68     		ldr	r3, [r7]
 11059 0036 1A60     		str	r2, [r3]
2907:Api\core\src/vl53l0x_api.c **** 
2908:Api\core\src/vl53l0x_api.c **** 	if (Byte & 0x18)
 11060              		.loc 1 2908 0
 11061 0038 0E23     		movs	r3, #14
 11062 003a FB18     		adds	r3, r7, r3
 11063 003c 1B78     		ldrb	r3, [r3]
 11064 003e 1A00     		movs	r2, r3
 11065 0040 1823     		movs	r3, #24
 11066 0042 1340     		ands	r3, r2
 11067 0044 03D0     		beq	.L513
2909:Api\core\src/vl53l0x_api.c **** 		Status = VL53L0X_ERROR_RANGE_ERROR;
 11068              		.loc 1 2909 0
 11069 0046 0F23     		movs	r3, #15
 11070 0048 FB18     		adds	r3, r7, r3
 11071 004a FA22     		movs	r2, #250
 11072 004c 1A70     		strb	r2, [r3]
ARM GAS  C:\Users\ilya\AppData\Local\Temp\ccpEIuqL.s 			page 247


 11073              	.L513:
2910:Api\core\src/vl53l0x_api.c **** 
2911:Api\core\src/vl53l0x_api.c **** 	LOG_FUNCTION_END(Status);
2912:Api\core\src/vl53l0x_api.c **** 	return Status;
 11074              		.loc 1 2912 0
 11075 004e 0F23     		movs	r3, #15
 11076 0050 FB18     		adds	r3, r7, r3
 11077 0052 1B78     		ldrb	r3, [r3]
 11078 0054 5BB2     		sxtb	r3, r3
2913:Api\core\src/vl53l0x_api.c **** }
 11079              		.loc 1 2913 0
 11080 0056 1800     		movs	r0, r3
 11081 0058 BD46     		mov	sp, r7
 11082 005a 05B0     		add	sp, sp, #20
 11083              		@ sp needed
 11084 005c 90BD     		pop	{r4, r7, pc}
 11085              		.cfi_endproc
 11086              	.LFE91:
 11087              		.size	VL53L0X_GetInterruptMaskStatus, .-VL53L0X_GetInterruptMaskStatus
 11088 005e C046     		.section	.text.VL53L0X_EnableInterruptMask,"ax",%progbits
 11089              		.align	2
 11090              		.global	VL53L0X_EnableInterruptMask
 11091              		.code	16
 11092              		.thumb_func
 11093              		.type	VL53L0X_EnableInterruptMask, %function
 11094              	VL53L0X_EnableInterruptMask:
 11095              	.LFB92:
2914:Api\core\src/vl53l0x_api.c **** 
2915:Api\core\src/vl53l0x_api.c **** VL53L0X_Error VL53L0X_EnableInterruptMask(VL53L0X_DEV Dev, uint32_t InterruptMask)
2916:Api\core\src/vl53l0x_api.c **** {
 11096              		.loc 1 2916 0
 11097              		.cfi_startproc
 11098              		@ args = 0, pretend = 0, frame = 16
 11099              		@ frame_needed = 1, uses_anonymous_args = 0
 11100 0000 80B5     		push	{r7, lr}
 11101              		.cfi_def_cfa_offset 8
 11102              		.cfi_offset 7, -8
 11103              		.cfi_offset 14, -4
 11104 0002 84B0     		sub	sp, sp, #16
 11105              		.cfi_def_cfa_offset 24
 11106 0004 00AF     		add	r7, sp, #0
 11107              		.cfi_def_cfa_register 7
 11108 0006 7860     		str	r0, [r7, #4]
 11109 0008 3960     		str	r1, [r7]
2917:Api\core\src/vl53l0x_api.c **** 	VL53L0X_Error Status = VL53L0X_ERROR_NOT_IMPLEMENTED;
 11110              		.loc 1 2917 0
 11111 000a 0F23     		movs	r3, #15
 11112 000c FB18     		adds	r3, r7, r3
 11113 000e 9D22     		movs	r2, #157
 11114 0010 1A70     		strb	r2, [r3]
2918:Api\core\src/vl53l0x_api.c **** 	LOG_FUNCTION_START("");
2919:Api\core\src/vl53l0x_api.c **** 
2920:Api\core\src/vl53l0x_api.c **** 	/* not implemented for VL53L0X */
2921:Api\core\src/vl53l0x_api.c **** 
2922:Api\core\src/vl53l0x_api.c **** 	LOG_FUNCTION_END(Status);
2923:Api\core\src/vl53l0x_api.c **** 	return Status;
 11115              		.loc 1 2923 0
ARM GAS  C:\Users\ilya\AppData\Local\Temp\ccpEIuqL.s 			page 248


 11116 0012 0F23     		movs	r3, #15
 11117 0014 FB18     		adds	r3, r7, r3
 11118 0016 1B78     		ldrb	r3, [r3]
 11119 0018 5BB2     		sxtb	r3, r3
2924:Api\core\src/vl53l0x_api.c **** }
 11120              		.loc 1 2924 0
 11121 001a 1800     		movs	r0, r3
 11122 001c BD46     		mov	sp, r7
 11123 001e 04B0     		add	sp, sp, #16
 11124              		@ sp needed
 11125 0020 80BD     		pop	{r7, pc}
 11126              		.cfi_endproc
 11127              	.LFE92:
 11128              		.size	VL53L0X_EnableInterruptMask, .-VL53L0X_EnableInterruptMask
 11129 0022 C046     		.section	.text.VL53L0X_SetSpadAmbientDamperThreshold,"ax",%progbits
 11130              		.align	2
 11131              		.global	VL53L0X_SetSpadAmbientDamperThreshold
 11132              		.code	16
 11133              		.thumb_func
 11134              		.type	VL53L0X_SetSpadAmbientDamperThreshold, %function
 11135              	VL53L0X_SetSpadAmbientDamperThreshold:
 11136              	.LFB93:
2925:Api\core\src/vl53l0x_api.c **** 
2926:Api\core\src/vl53l0x_api.c **** /* End Group PAL Interrupt Functions */
2927:Api\core\src/vl53l0x_api.c **** 
2928:Api\core\src/vl53l0x_api.c **** /* Group SPAD functions */
2929:Api\core\src/vl53l0x_api.c **** 
2930:Api\core\src/vl53l0x_api.c **** VL53L0X_Error VL53L0X_SetSpadAmbientDamperThreshold(VL53L0X_DEV Dev,
2931:Api\core\src/vl53l0x_api.c **** 	uint16_t SpadAmbientDamperThreshold)
2932:Api\core\src/vl53l0x_api.c **** {
 11137              		.loc 1 2932 0
 11138              		.cfi_startproc
 11139              		@ args = 0, pretend = 0, frame = 16
 11140              		@ frame_needed = 1, uses_anonymous_args = 0
 11141 0000 90B5     		push	{r4, r7, lr}
 11142              		.cfi_def_cfa_offset 12
 11143              		.cfi_offset 4, -12
 11144              		.cfi_offset 7, -8
 11145              		.cfi_offset 14, -4
 11146 0002 85B0     		sub	sp, sp, #20
 11147              		.cfi_def_cfa_offset 32
 11148 0004 00AF     		add	r7, sp, #0
 11149              		.cfi_def_cfa_register 7
 11150 0006 7860     		str	r0, [r7, #4]
 11151 0008 0A00     		movs	r2, r1
 11152 000a BB1C     		adds	r3, r7, #2
 11153 000c 1A80     		strh	r2, [r3]
2933:Api\core\src/vl53l0x_api.c **** 	VL53L0X_Error Status = VL53L0X_ERROR_NONE;
 11154              		.loc 1 2933 0
 11155 000e 0F23     		movs	r3, #15
 11156 0010 FB18     		adds	r3, r7, r3
 11157 0012 0022     		movs	r2, #0
 11158 0014 1A70     		strb	r2, [r3]
2934:Api\core\src/vl53l0x_api.c **** 	LOG_FUNCTION_START("");
2935:Api\core\src/vl53l0x_api.c **** 
2936:Api\core\src/vl53l0x_api.c **** 	Status = VL53L0X_WrByte(Dev, 0xFF, 0x01);
 11159              		.loc 1 2936 0
ARM GAS  C:\Users\ilya\AppData\Local\Temp\ccpEIuqL.s 			page 249


 11160 0016 0F23     		movs	r3, #15
 11161 0018 FC18     		adds	r4, r7, r3
 11162 001a 7B68     		ldr	r3, [r7, #4]
 11163 001c 0122     		movs	r2, #1
 11164 001e FF21     		movs	r1, #255
 11165 0020 1800     		movs	r0, r3
 11166 0022 FFF7FEFF 		bl	VL53L0X_WrByte
 11167 0026 0300     		movs	r3, r0
 11168 0028 2370     		strb	r3, [r4]
2937:Api\core\src/vl53l0x_api.c **** 	Status |= VL53L0X_WrWord(Dev, 0x40, SpadAmbientDamperThreshold);
 11169              		.loc 1 2937 0
 11170 002a BB1C     		adds	r3, r7, #2
 11171 002c 1A88     		ldrh	r2, [r3]
 11172 002e 7B68     		ldr	r3, [r7, #4]
 11173 0030 4021     		movs	r1, #64
 11174 0032 1800     		movs	r0, r3
 11175 0034 FFF7FEFF 		bl	VL53L0X_WrWord
 11176 0038 0300     		movs	r3, r0
 11177 003a 1900     		movs	r1, r3
 11178 003c 0F23     		movs	r3, #15
 11179 003e FB18     		adds	r3, r7, r3
 11180 0040 0F22     		movs	r2, #15
 11181 0042 BA18     		adds	r2, r7, r2
 11182 0044 1278     		ldrb	r2, [r2]
 11183 0046 0A43     		orrs	r2, r1
 11184 0048 1A70     		strb	r2, [r3]
2938:Api\core\src/vl53l0x_api.c **** 	Status |= VL53L0X_WrByte(Dev, 0xFF, 0x00);
 11185              		.loc 1 2938 0
 11186 004a 7B68     		ldr	r3, [r7, #4]
 11187 004c 0022     		movs	r2, #0
 11188 004e FF21     		movs	r1, #255
 11189 0050 1800     		movs	r0, r3
 11190 0052 FFF7FEFF 		bl	VL53L0X_WrByte
 11191 0056 0300     		movs	r3, r0
 11192 0058 1900     		movs	r1, r3
 11193 005a 0F23     		movs	r3, #15
 11194 005c FB18     		adds	r3, r7, r3
 11195 005e 0F22     		movs	r2, #15
 11196 0060 BA18     		adds	r2, r7, r2
 11197 0062 1278     		ldrb	r2, [r2]
 11198 0064 0A43     		orrs	r2, r1
 11199 0066 1A70     		strb	r2, [r3]
2939:Api\core\src/vl53l0x_api.c **** 
2940:Api\core\src/vl53l0x_api.c **** 	LOG_FUNCTION_END(Status);
2941:Api\core\src/vl53l0x_api.c **** 	return Status;
 11200              		.loc 1 2941 0
 11201 0068 0F23     		movs	r3, #15
 11202 006a FB18     		adds	r3, r7, r3
 11203 006c 1B78     		ldrb	r3, [r3]
 11204 006e 5BB2     		sxtb	r3, r3
2942:Api\core\src/vl53l0x_api.c **** }
 11205              		.loc 1 2942 0
 11206 0070 1800     		movs	r0, r3
 11207 0072 BD46     		mov	sp, r7
 11208 0074 05B0     		add	sp, sp, #20
 11209              		@ sp needed
 11210 0076 90BD     		pop	{r4, r7, pc}
ARM GAS  C:\Users\ilya\AppData\Local\Temp\ccpEIuqL.s 			page 250


 11211              		.cfi_endproc
 11212              	.LFE93:
 11213              		.size	VL53L0X_SetSpadAmbientDamperThreshold, .-VL53L0X_SetSpadAmbientDamperThreshold
 11214              		.section	.text.VL53L0X_GetSpadAmbientDamperThreshold,"ax",%progbits
 11215              		.align	2
 11216              		.global	VL53L0X_GetSpadAmbientDamperThreshold
 11217              		.code	16
 11218              		.thumb_func
 11219              		.type	VL53L0X_GetSpadAmbientDamperThreshold, %function
 11220              	VL53L0X_GetSpadAmbientDamperThreshold:
 11221              	.LFB94:
2943:Api\core\src/vl53l0x_api.c **** 
2944:Api\core\src/vl53l0x_api.c **** VL53L0X_Error VL53L0X_GetSpadAmbientDamperThreshold(VL53L0X_DEV Dev,
2945:Api\core\src/vl53l0x_api.c **** 	uint16_t *pSpadAmbientDamperThreshold)
2946:Api\core\src/vl53l0x_api.c **** {
 11222              		.loc 1 2946 0
 11223              		.cfi_startproc
 11224              		@ args = 0, pretend = 0, frame = 16
 11225              		@ frame_needed = 1, uses_anonymous_args = 0
 11226 0000 90B5     		push	{r4, r7, lr}
 11227              		.cfi_def_cfa_offset 12
 11228              		.cfi_offset 4, -12
 11229              		.cfi_offset 7, -8
 11230              		.cfi_offset 14, -4
 11231 0002 85B0     		sub	sp, sp, #20
 11232              		.cfi_def_cfa_offset 32
 11233 0004 00AF     		add	r7, sp, #0
 11234              		.cfi_def_cfa_register 7
 11235 0006 7860     		str	r0, [r7, #4]
 11236 0008 3960     		str	r1, [r7]
2947:Api\core\src/vl53l0x_api.c **** 	VL53L0X_Error Status = VL53L0X_ERROR_NONE;
 11237              		.loc 1 2947 0
 11238 000a 0F23     		movs	r3, #15
 11239 000c FB18     		adds	r3, r7, r3
 11240 000e 0022     		movs	r2, #0
 11241 0010 1A70     		strb	r2, [r3]
2948:Api\core\src/vl53l0x_api.c **** 	LOG_FUNCTION_START("");
2949:Api\core\src/vl53l0x_api.c **** 
2950:Api\core\src/vl53l0x_api.c **** 	Status = VL53L0X_WrByte(Dev, 0xFF, 0x01);
 11242              		.loc 1 2950 0
 11243 0012 0F23     		movs	r3, #15
 11244 0014 FC18     		adds	r4, r7, r3
 11245 0016 7B68     		ldr	r3, [r7, #4]
 11246 0018 0122     		movs	r2, #1
 11247 001a FF21     		movs	r1, #255
 11248 001c 1800     		movs	r0, r3
 11249 001e FFF7FEFF 		bl	VL53L0X_WrByte
 11250 0022 0300     		movs	r3, r0
 11251 0024 2370     		strb	r3, [r4]
2951:Api\core\src/vl53l0x_api.c **** 	Status |= VL53L0X_RdWord(Dev, 0x40, pSpadAmbientDamperThreshold);
 11252              		.loc 1 2951 0
 11253 0026 3A68     		ldr	r2, [r7]
 11254 0028 7B68     		ldr	r3, [r7, #4]
 11255 002a 4021     		movs	r1, #64
 11256 002c 1800     		movs	r0, r3
 11257 002e FFF7FEFF 		bl	VL53L0X_RdWord
 11258 0032 0300     		movs	r3, r0
ARM GAS  C:\Users\ilya\AppData\Local\Temp\ccpEIuqL.s 			page 251


 11259 0034 1900     		movs	r1, r3
 11260 0036 0F23     		movs	r3, #15
 11261 0038 FB18     		adds	r3, r7, r3
 11262 003a 0F22     		movs	r2, #15
 11263 003c BA18     		adds	r2, r7, r2
 11264 003e 1278     		ldrb	r2, [r2]
 11265 0040 0A43     		orrs	r2, r1
 11266 0042 1A70     		strb	r2, [r3]
2952:Api\core\src/vl53l0x_api.c **** 	Status |= VL53L0X_WrByte(Dev, 0xFF, 0x00);
 11267              		.loc 1 2952 0
 11268 0044 7B68     		ldr	r3, [r7, #4]
 11269 0046 0022     		movs	r2, #0
 11270 0048 FF21     		movs	r1, #255
 11271 004a 1800     		movs	r0, r3
 11272 004c FFF7FEFF 		bl	VL53L0X_WrByte
 11273 0050 0300     		movs	r3, r0
 11274 0052 1900     		movs	r1, r3
 11275 0054 0F23     		movs	r3, #15
 11276 0056 FB18     		adds	r3, r7, r3
 11277 0058 0F22     		movs	r2, #15
 11278 005a BA18     		adds	r2, r7, r2
 11279 005c 1278     		ldrb	r2, [r2]
 11280 005e 0A43     		orrs	r2, r1
 11281 0060 1A70     		strb	r2, [r3]
2953:Api\core\src/vl53l0x_api.c **** 
2954:Api\core\src/vl53l0x_api.c **** 	LOG_FUNCTION_END(Status);
2955:Api\core\src/vl53l0x_api.c **** 	return Status;
 11282              		.loc 1 2955 0
 11283 0062 0F23     		movs	r3, #15
 11284 0064 FB18     		adds	r3, r7, r3
 11285 0066 1B78     		ldrb	r3, [r3]
 11286 0068 5BB2     		sxtb	r3, r3
2956:Api\core\src/vl53l0x_api.c **** }
 11287              		.loc 1 2956 0
 11288 006a 1800     		movs	r0, r3
 11289 006c BD46     		mov	sp, r7
 11290 006e 05B0     		add	sp, sp, #20
 11291              		@ sp needed
 11292 0070 90BD     		pop	{r4, r7, pc}
 11293              		.cfi_endproc
 11294              	.LFE94:
 11295              		.size	VL53L0X_GetSpadAmbientDamperThreshold, .-VL53L0X_GetSpadAmbientDamperThreshold
 11296 0072 C046     		.section	.text.VL53L0X_SetSpadAmbientDamperFactor,"ax",%progbits
 11297              		.align	2
 11298              		.global	VL53L0X_SetSpadAmbientDamperFactor
 11299              		.code	16
 11300              		.thumb_func
 11301              		.type	VL53L0X_SetSpadAmbientDamperFactor, %function
 11302              	VL53L0X_SetSpadAmbientDamperFactor:
 11303              	.LFB95:
2957:Api\core\src/vl53l0x_api.c **** 
2958:Api\core\src/vl53l0x_api.c **** VL53L0X_Error VL53L0X_SetSpadAmbientDamperFactor(VL53L0X_DEV Dev,
2959:Api\core\src/vl53l0x_api.c **** 	uint16_t SpadAmbientDamperFactor)
2960:Api\core\src/vl53l0x_api.c **** {
 11304              		.loc 1 2960 0
 11305              		.cfi_startproc
 11306              		@ args = 0, pretend = 0, frame = 16
ARM GAS  C:\Users\ilya\AppData\Local\Temp\ccpEIuqL.s 			page 252


 11307              		@ frame_needed = 1, uses_anonymous_args = 0
 11308 0000 90B5     		push	{r4, r7, lr}
 11309              		.cfi_def_cfa_offset 12
 11310              		.cfi_offset 4, -12
 11311              		.cfi_offset 7, -8
 11312              		.cfi_offset 14, -4
 11313 0002 85B0     		sub	sp, sp, #20
 11314              		.cfi_def_cfa_offset 32
 11315 0004 00AF     		add	r7, sp, #0
 11316              		.cfi_def_cfa_register 7
 11317 0006 7860     		str	r0, [r7, #4]
 11318 0008 0A00     		movs	r2, r1
 11319 000a BB1C     		adds	r3, r7, #2
 11320 000c 1A80     		strh	r2, [r3]
2961:Api\core\src/vl53l0x_api.c **** 	VL53L0X_Error Status = VL53L0X_ERROR_NONE;
 11321              		.loc 1 2961 0
 11322 000e 0F23     		movs	r3, #15
 11323 0010 FB18     		adds	r3, r7, r3
 11324 0012 0022     		movs	r2, #0
 11325 0014 1A70     		strb	r2, [r3]
2962:Api\core\src/vl53l0x_api.c **** 	uint8_t Byte;
2963:Api\core\src/vl53l0x_api.c **** 	LOG_FUNCTION_START("");
2964:Api\core\src/vl53l0x_api.c **** 
2965:Api\core\src/vl53l0x_api.c **** 	Byte = (uint8_t)(SpadAmbientDamperFactor & 0x00FF);
 11326              		.loc 1 2965 0
 11327 0016 0E23     		movs	r3, #14
 11328 0018 FB18     		adds	r3, r7, r3
 11329 001a BA1C     		adds	r2, r7, #2
 11330 001c 1288     		ldrh	r2, [r2]
 11331 001e 1A70     		strb	r2, [r3]
2966:Api\core\src/vl53l0x_api.c **** 
2967:Api\core\src/vl53l0x_api.c **** 	Status = VL53L0X_WrByte(Dev, 0xFF, 0x01);
 11332              		.loc 1 2967 0
 11333 0020 0F23     		movs	r3, #15
 11334 0022 FC18     		adds	r4, r7, r3
 11335 0024 7B68     		ldr	r3, [r7, #4]
 11336 0026 0122     		movs	r2, #1
 11337 0028 FF21     		movs	r1, #255
 11338 002a 1800     		movs	r0, r3
 11339 002c FFF7FEFF 		bl	VL53L0X_WrByte
 11340 0030 0300     		movs	r3, r0
 11341 0032 2370     		strb	r3, [r4]
2968:Api\core\src/vl53l0x_api.c **** 	Status |= VL53L0X_WrByte(Dev, 0x42, Byte);
 11342              		.loc 1 2968 0
 11343 0034 0E23     		movs	r3, #14
 11344 0036 FB18     		adds	r3, r7, r3
 11345 0038 1A78     		ldrb	r2, [r3]
 11346 003a 7B68     		ldr	r3, [r7, #4]
 11347 003c 4221     		movs	r1, #66
 11348 003e 1800     		movs	r0, r3
 11349 0040 FFF7FEFF 		bl	VL53L0X_WrByte
 11350 0044 0300     		movs	r3, r0
 11351 0046 1900     		movs	r1, r3
 11352 0048 0F23     		movs	r3, #15
 11353 004a FB18     		adds	r3, r7, r3
 11354 004c 0F22     		movs	r2, #15
 11355 004e BA18     		adds	r2, r7, r2
ARM GAS  C:\Users\ilya\AppData\Local\Temp\ccpEIuqL.s 			page 253


 11356 0050 1278     		ldrb	r2, [r2]
 11357 0052 0A43     		orrs	r2, r1
 11358 0054 1A70     		strb	r2, [r3]
2969:Api\core\src/vl53l0x_api.c **** 	Status |= VL53L0X_WrByte(Dev, 0xFF, 0x00);
 11359              		.loc 1 2969 0
 11360 0056 7B68     		ldr	r3, [r7, #4]
 11361 0058 0022     		movs	r2, #0
 11362 005a FF21     		movs	r1, #255
 11363 005c 1800     		movs	r0, r3
 11364 005e FFF7FEFF 		bl	VL53L0X_WrByte
 11365 0062 0300     		movs	r3, r0
 11366 0064 1900     		movs	r1, r3
 11367 0066 0F23     		movs	r3, #15
 11368 0068 FB18     		adds	r3, r7, r3
 11369 006a 0F22     		movs	r2, #15
 11370 006c BA18     		adds	r2, r7, r2
 11371 006e 1278     		ldrb	r2, [r2]
 11372 0070 0A43     		orrs	r2, r1
 11373 0072 1A70     		strb	r2, [r3]
2970:Api\core\src/vl53l0x_api.c **** 
2971:Api\core\src/vl53l0x_api.c **** 	LOG_FUNCTION_END(Status);
2972:Api\core\src/vl53l0x_api.c **** 	return Status;
 11374              		.loc 1 2972 0
 11375 0074 0F23     		movs	r3, #15
 11376 0076 FB18     		adds	r3, r7, r3
 11377 0078 1B78     		ldrb	r3, [r3]
 11378 007a 5BB2     		sxtb	r3, r3
2973:Api\core\src/vl53l0x_api.c **** }
 11379              		.loc 1 2973 0
 11380 007c 1800     		movs	r0, r3
 11381 007e BD46     		mov	sp, r7
 11382 0080 05B0     		add	sp, sp, #20
 11383              		@ sp needed
 11384 0082 90BD     		pop	{r4, r7, pc}
 11385              		.cfi_endproc
 11386              	.LFE95:
 11387              		.size	VL53L0X_SetSpadAmbientDamperFactor, .-VL53L0X_SetSpadAmbientDamperFactor
 11388              		.section	.text.VL53L0X_GetSpadAmbientDamperFactor,"ax",%progbits
 11389              		.align	2
 11390              		.global	VL53L0X_GetSpadAmbientDamperFactor
 11391              		.code	16
 11392              		.thumb_func
 11393              		.type	VL53L0X_GetSpadAmbientDamperFactor, %function
 11394              	VL53L0X_GetSpadAmbientDamperFactor:
 11395              	.LFB96:
2974:Api\core\src/vl53l0x_api.c **** 
2975:Api\core\src/vl53l0x_api.c **** VL53L0X_Error VL53L0X_GetSpadAmbientDamperFactor(VL53L0X_DEV Dev,
2976:Api\core\src/vl53l0x_api.c **** 	uint16_t *pSpadAmbientDamperFactor)
2977:Api\core\src/vl53l0x_api.c **** {
 11396              		.loc 1 2977 0
 11397              		.cfi_startproc
 11398              		@ args = 0, pretend = 0, frame = 16
 11399              		@ frame_needed = 1, uses_anonymous_args = 0
 11400 0000 90B5     		push	{r4, r7, lr}
 11401              		.cfi_def_cfa_offset 12
 11402              		.cfi_offset 4, -12
 11403              		.cfi_offset 7, -8
ARM GAS  C:\Users\ilya\AppData\Local\Temp\ccpEIuqL.s 			page 254


 11404              		.cfi_offset 14, -4
 11405 0002 85B0     		sub	sp, sp, #20
 11406              		.cfi_def_cfa_offset 32
 11407 0004 00AF     		add	r7, sp, #0
 11408              		.cfi_def_cfa_register 7
 11409 0006 7860     		str	r0, [r7, #4]
 11410 0008 3960     		str	r1, [r7]
2978:Api\core\src/vl53l0x_api.c **** 	VL53L0X_Error Status = VL53L0X_ERROR_NONE;
 11411              		.loc 1 2978 0
 11412 000a 0F23     		movs	r3, #15
 11413 000c FB18     		adds	r3, r7, r3
 11414 000e 0022     		movs	r2, #0
 11415 0010 1A70     		strb	r2, [r3]
2979:Api\core\src/vl53l0x_api.c **** 	uint8_t Byte;
2980:Api\core\src/vl53l0x_api.c **** 	LOG_FUNCTION_START("");
2981:Api\core\src/vl53l0x_api.c **** 
2982:Api\core\src/vl53l0x_api.c **** 	Status = VL53L0X_WrByte(Dev, 0xFF, 0x01);
 11416              		.loc 1 2982 0
 11417 0012 0F23     		movs	r3, #15
 11418 0014 FC18     		adds	r4, r7, r3
 11419 0016 7B68     		ldr	r3, [r7, #4]
 11420 0018 0122     		movs	r2, #1
 11421 001a FF21     		movs	r1, #255
 11422 001c 1800     		movs	r0, r3
 11423 001e FFF7FEFF 		bl	VL53L0X_WrByte
 11424 0022 0300     		movs	r3, r0
 11425 0024 2370     		strb	r3, [r4]
2983:Api\core\src/vl53l0x_api.c **** 	Status |= VL53L0X_RdByte(Dev, 0x42, &Byte);
 11426              		.loc 1 2983 0
 11427 0026 0E23     		movs	r3, #14
 11428 0028 FA18     		adds	r2, r7, r3
 11429 002a 7B68     		ldr	r3, [r7, #4]
 11430 002c 4221     		movs	r1, #66
 11431 002e 1800     		movs	r0, r3
 11432 0030 FFF7FEFF 		bl	VL53L0X_RdByte
 11433 0034 0300     		movs	r3, r0
 11434 0036 1900     		movs	r1, r3
 11435 0038 0F23     		movs	r3, #15
 11436 003a FB18     		adds	r3, r7, r3
 11437 003c 0F22     		movs	r2, #15
 11438 003e BA18     		adds	r2, r7, r2
 11439 0040 1278     		ldrb	r2, [r2]
 11440 0042 0A43     		orrs	r2, r1
 11441 0044 1A70     		strb	r2, [r3]
2984:Api\core\src/vl53l0x_api.c **** 	Status |= VL53L0X_WrByte(Dev, 0xFF, 0x00);
 11442              		.loc 1 2984 0
 11443 0046 7B68     		ldr	r3, [r7, #4]
 11444 0048 0022     		movs	r2, #0
 11445 004a FF21     		movs	r1, #255
 11446 004c 1800     		movs	r0, r3
 11447 004e FFF7FEFF 		bl	VL53L0X_WrByte
 11448 0052 0300     		movs	r3, r0
 11449 0054 1900     		movs	r1, r3
 11450 0056 0F23     		movs	r3, #15
 11451 0058 FB18     		adds	r3, r7, r3
 11452 005a 0F22     		movs	r2, #15
 11453 005c BA18     		adds	r2, r7, r2
ARM GAS  C:\Users\ilya\AppData\Local\Temp\ccpEIuqL.s 			page 255


 11454 005e 1278     		ldrb	r2, [r2]
 11455 0060 0A43     		orrs	r2, r1
 11456 0062 1A70     		strb	r2, [r3]
2985:Api\core\src/vl53l0x_api.c **** 	*pSpadAmbientDamperFactor = (uint16_t)Byte;
 11457              		.loc 1 2985 0
 11458 0064 0E23     		movs	r3, #14
 11459 0066 FB18     		adds	r3, r7, r3
 11460 0068 1B78     		ldrb	r3, [r3]
 11461 006a 9AB2     		uxth	r2, r3
 11462 006c 3B68     		ldr	r3, [r7]
 11463 006e 1A80     		strh	r2, [r3]
2986:Api\core\src/vl53l0x_api.c **** 
2987:Api\core\src/vl53l0x_api.c **** 	LOG_FUNCTION_END(Status);
2988:Api\core\src/vl53l0x_api.c **** 	return Status;
 11464              		.loc 1 2988 0
 11465 0070 0F23     		movs	r3, #15
 11466 0072 FB18     		adds	r3, r7, r3
 11467 0074 1B78     		ldrb	r3, [r3]
 11468 0076 5BB2     		sxtb	r3, r3
2989:Api\core\src/vl53l0x_api.c **** }
 11469              		.loc 1 2989 0
 11470 0078 1800     		movs	r0, r3
 11471 007a BD46     		mov	sp, r7
 11472 007c 05B0     		add	sp, sp, #20
 11473              		@ sp needed
 11474 007e 90BD     		pop	{r4, r7, pc}
 11475              		.cfi_endproc
 11476              	.LFE96:
 11477              		.size	VL53L0X_GetSpadAmbientDamperFactor, .-VL53L0X_GetSpadAmbientDamperFactor
 11478              		.section	.text.VL53L0X_SetReferenceSpads,"ax",%progbits
 11479              		.align	2
 11480              		.global	VL53L0X_SetReferenceSpads
 11481              		.code	16
 11482              		.thumb_func
 11483              		.type	VL53L0X_SetReferenceSpads, %function
 11484              	VL53L0X_SetReferenceSpads:
 11485              	.LFB97:
2990:Api\core\src/vl53l0x_api.c **** 
2991:Api\core\src/vl53l0x_api.c **** /* END Group SPAD functions */
2992:Api\core\src/vl53l0x_api.c **** 
2993:Api\core\src/vl53l0x_api.c **** /*****************************************************************************
2994:Api\core\src/vl53l0x_api.c ****  * Internal functions
2995:Api\core\src/vl53l0x_api.c ****  *****************************************************************************/
2996:Api\core\src/vl53l0x_api.c **** 
2997:Api\core\src/vl53l0x_api.c **** VL53L0X_Error VL53L0X_SetReferenceSpads(VL53L0X_DEV Dev, uint32_t count,
2998:Api\core\src/vl53l0x_api.c **** 	uint8_t isApertureSpads)
2999:Api\core\src/vl53l0x_api.c **** {
 11486              		.loc 1 2999 0
 11487              		.cfi_startproc
 11488              		@ args = 0, pretend = 0, frame = 24
 11489              		@ frame_needed = 1, uses_anonymous_args = 0
 11490 0000 90B5     		push	{r4, r7, lr}
 11491              		.cfi_def_cfa_offset 12
 11492              		.cfi_offset 4, -12
 11493              		.cfi_offset 7, -8
 11494              		.cfi_offset 14, -4
 11495 0002 87B0     		sub	sp, sp, #28
ARM GAS  C:\Users\ilya\AppData\Local\Temp\ccpEIuqL.s 			page 256


 11496              		.cfi_def_cfa_offset 40
 11497 0004 00AF     		add	r7, sp, #0
 11498              		.cfi_def_cfa_register 7
 11499 0006 F860     		str	r0, [r7, #12]
 11500 0008 B960     		str	r1, [r7, #8]
 11501 000a FB1D     		adds	r3, r7, #7
 11502 000c 1A70     		strb	r2, [r3]
3000:Api\core\src/vl53l0x_api.c **** 	VL53L0X_Error Status = VL53L0X_ERROR_NONE;
 11503              		.loc 1 3000 0
 11504 000e 1723     		movs	r3, #23
 11505 0010 FB18     		adds	r3, r7, r3
 11506 0012 0022     		movs	r2, #0
 11507 0014 1A70     		strb	r2, [r3]
3001:Api\core\src/vl53l0x_api.c **** 	LOG_FUNCTION_START("");
3002:Api\core\src/vl53l0x_api.c **** 
3003:Api\core\src/vl53l0x_api.c **** 	Status = VL53L0X_set_reference_spads(Dev, count, isApertureSpads);
 11508              		.loc 1 3003 0
 11509 0016 1723     		movs	r3, #23
 11510 0018 FC18     		adds	r4, r7, r3
 11511 001a FB1D     		adds	r3, r7, #7
 11512 001c 1A78     		ldrb	r2, [r3]
 11513 001e B968     		ldr	r1, [r7, #8]
 11514 0020 FB68     		ldr	r3, [r7, #12]
 11515 0022 1800     		movs	r0, r3
 11516 0024 FFF7FEFF 		bl	VL53L0X_set_reference_spads
 11517 0028 0300     		movs	r3, r0
 11518 002a 2370     		strb	r3, [r4]
3004:Api\core\src/vl53l0x_api.c **** 
3005:Api\core\src/vl53l0x_api.c **** 	LOG_FUNCTION_END(Status);
3006:Api\core\src/vl53l0x_api.c **** 
3007:Api\core\src/vl53l0x_api.c **** 	return Status;
 11519              		.loc 1 3007 0
 11520 002c 1723     		movs	r3, #23
 11521 002e FB18     		adds	r3, r7, r3
 11522 0030 1B78     		ldrb	r3, [r3]
 11523 0032 5BB2     		sxtb	r3, r3
3008:Api\core\src/vl53l0x_api.c **** }
 11524              		.loc 1 3008 0
 11525 0034 1800     		movs	r0, r3
 11526 0036 BD46     		mov	sp, r7
 11527 0038 07B0     		add	sp, sp, #28
 11528              		@ sp needed
 11529 003a 90BD     		pop	{r4, r7, pc}
 11530              		.cfi_endproc
 11531              	.LFE97:
 11532              		.size	VL53L0X_SetReferenceSpads, .-VL53L0X_SetReferenceSpads
 11533              		.section	.text.VL53L0X_GetReferenceSpads,"ax",%progbits
 11534              		.align	2
 11535              		.global	VL53L0X_GetReferenceSpads
 11536              		.code	16
 11537              		.thumb_func
 11538              		.type	VL53L0X_GetReferenceSpads, %function
 11539              	VL53L0X_GetReferenceSpads:
 11540              	.LFB98:
3009:Api\core\src/vl53l0x_api.c **** 
3010:Api\core\src/vl53l0x_api.c **** VL53L0X_Error VL53L0X_GetReferenceSpads(VL53L0X_DEV Dev, uint32_t *pSpadCount,
3011:Api\core\src/vl53l0x_api.c **** 	uint8_t *pIsApertureSpads)
ARM GAS  C:\Users\ilya\AppData\Local\Temp\ccpEIuqL.s 			page 257


3012:Api\core\src/vl53l0x_api.c **** {
 11541              		.loc 1 3012 0
 11542              		.cfi_startproc
 11543              		@ args = 0, pretend = 0, frame = 24
 11544              		@ frame_needed = 1, uses_anonymous_args = 0
 11545 0000 90B5     		push	{r4, r7, lr}
 11546              		.cfi_def_cfa_offset 12
 11547              		.cfi_offset 4, -12
 11548              		.cfi_offset 7, -8
 11549              		.cfi_offset 14, -4
 11550 0002 87B0     		sub	sp, sp, #28
 11551              		.cfi_def_cfa_offset 40
 11552 0004 00AF     		add	r7, sp, #0
 11553              		.cfi_def_cfa_register 7
 11554 0006 F860     		str	r0, [r7, #12]
 11555 0008 B960     		str	r1, [r7, #8]
 11556 000a 7A60     		str	r2, [r7, #4]
3013:Api\core\src/vl53l0x_api.c **** 	VL53L0X_Error Status = VL53L0X_ERROR_NONE;
 11557              		.loc 1 3013 0
 11558 000c 1723     		movs	r3, #23
 11559 000e FB18     		adds	r3, r7, r3
 11560 0010 0022     		movs	r2, #0
 11561 0012 1A70     		strb	r2, [r3]
3014:Api\core\src/vl53l0x_api.c **** 	LOG_FUNCTION_START("");
3015:Api\core\src/vl53l0x_api.c **** 
3016:Api\core\src/vl53l0x_api.c **** 	Status = VL53L0X_get_reference_spads(Dev, pSpadCount, pIsApertureSpads);
 11562              		.loc 1 3016 0
 11563 0014 1723     		movs	r3, #23
 11564 0016 FC18     		adds	r4, r7, r3
 11565 0018 7A68     		ldr	r2, [r7, #4]
 11566 001a B968     		ldr	r1, [r7, #8]
 11567 001c FB68     		ldr	r3, [r7, #12]
 11568 001e 1800     		movs	r0, r3
 11569 0020 FFF7FEFF 		bl	VL53L0X_get_reference_spads
 11570 0024 0300     		movs	r3, r0
 11571 0026 2370     		strb	r3, [r4]
3017:Api\core\src/vl53l0x_api.c **** 
3018:Api\core\src/vl53l0x_api.c **** 	LOG_FUNCTION_END(Status);
3019:Api\core\src/vl53l0x_api.c **** 
3020:Api\core\src/vl53l0x_api.c **** 	return Status;
 11572              		.loc 1 3020 0
 11573 0028 1723     		movs	r3, #23
 11574 002a FB18     		adds	r3, r7, r3
 11575 002c 1B78     		ldrb	r3, [r3]
 11576 002e 5BB2     		sxtb	r3, r3
3021:Api\core\src/vl53l0x_api.c **** }
 11577              		.loc 1 3021 0
 11578 0030 1800     		movs	r0, r3
 11579 0032 BD46     		mov	sp, r7
 11580 0034 07B0     		add	sp, sp, #28
 11581              		@ sp needed
 11582 0036 90BD     		pop	{r4, r7, pc}
 11583              		.cfi_endproc
 11584              	.LFE98:
 11585              		.size	VL53L0X_GetReferenceSpads, .-VL53L0X_GetReferenceSpads
 11586              		.section	.text.VL53L0X_PerformRefSpadManagement,"ax",%progbits
 11587              		.align	2
ARM GAS  C:\Users\ilya\AppData\Local\Temp\ccpEIuqL.s 			page 258


 11588              		.global	VL53L0X_PerformRefSpadManagement
 11589              		.code	16
 11590              		.thumb_func
 11591              		.type	VL53L0X_PerformRefSpadManagement, %function
 11592              	VL53L0X_PerformRefSpadManagement:
 11593              	.LFB99:
3022:Api\core\src/vl53l0x_api.c **** 
3023:Api\core\src/vl53l0x_api.c **** VL53L0X_Error VL53L0X_PerformRefSpadManagement(VL53L0X_DEV Dev,
3024:Api\core\src/vl53l0x_api.c **** 	uint32_t *refSpadCount, uint8_t *isApertureSpads)
3025:Api\core\src/vl53l0x_api.c **** {
 11594              		.loc 1 3025 0
 11595              		.cfi_startproc
 11596              		@ args = 0, pretend = 0, frame = 24
 11597              		@ frame_needed = 1, uses_anonymous_args = 0
 11598 0000 90B5     		push	{r4, r7, lr}
 11599              		.cfi_def_cfa_offset 12
 11600              		.cfi_offset 4, -12
 11601              		.cfi_offset 7, -8
 11602              		.cfi_offset 14, -4
 11603 0002 87B0     		sub	sp, sp, #28
 11604              		.cfi_def_cfa_offset 40
 11605 0004 00AF     		add	r7, sp, #0
 11606              		.cfi_def_cfa_register 7
 11607 0006 F860     		str	r0, [r7, #12]
 11608 0008 B960     		str	r1, [r7, #8]
 11609 000a 7A60     		str	r2, [r7, #4]
3026:Api\core\src/vl53l0x_api.c **** 	VL53L0X_Error Status = VL53L0X_ERROR_NONE;
 11610              		.loc 1 3026 0
 11611 000c 1723     		movs	r3, #23
 11612 000e FB18     		adds	r3, r7, r3
 11613 0010 0022     		movs	r2, #0
 11614 0012 1A70     		strb	r2, [r3]
3027:Api\core\src/vl53l0x_api.c **** 	LOG_FUNCTION_START("");
3028:Api\core\src/vl53l0x_api.c **** 
3029:Api\core\src/vl53l0x_api.c **** 	Status = VL53L0X_perform_ref_spad_management(Dev, refSpadCount,
 11615              		.loc 1 3029 0
 11616 0014 1723     		movs	r3, #23
 11617 0016 FC18     		adds	r4, r7, r3
 11618 0018 7A68     		ldr	r2, [r7, #4]
 11619 001a B968     		ldr	r1, [r7, #8]
 11620 001c FB68     		ldr	r3, [r7, #12]
 11621 001e 1800     		movs	r0, r3
 11622 0020 FFF7FEFF 		bl	VL53L0X_perform_ref_spad_management
 11623 0024 0300     		movs	r3, r0
 11624 0026 2370     		strb	r3, [r4]
3030:Api\core\src/vl53l0x_api.c **** 		isApertureSpads);
3031:Api\core\src/vl53l0x_api.c **** 
3032:Api\core\src/vl53l0x_api.c **** 	LOG_FUNCTION_END(Status);
3033:Api\core\src/vl53l0x_api.c **** 
3034:Api\core\src/vl53l0x_api.c **** 	return Status;
 11625              		.loc 1 3034 0
 11626 0028 1723     		movs	r3, #23
 11627 002a FB18     		adds	r3, r7, r3
 11628 002c 1B78     		ldrb	r3, [r3]
 11629 002e 5BB2     		sxtb	r3, r3
3035:Api\core\src/vl53l0x_api.c **** }
 11630              		.loc 1 3035 0
ARM GAS  C:\Users\ilya\AppData\Local\Temp\ccpEIuqL.s 			page 259


 11631 0030 1800     		movs	r0, r3
 11632 0032 BD46     		mov	sp, r7
 11633 0034 07B0     		add	sp, sp, #28
 11634              		@ sp needed
 11635 0036 90BD     		pop	{r4, r7, pc}
 11636              		.cfi_endproc
 11637              	.LFE99:
 11638              		.size	VL53L0X_PerformRefSpadManagement, .-VL53L0X_PerformRefSpadManagement
 11639              		.text
 11640              	.Letext0:
 11641              		.file 2 "c:\\program files (x86)\\cypress\\psoc creator\\4.2\\psoc creator\\import\\gnu\\arm\\5.4.
 11642              		.file 3 "c:\\program files (x86)\\cypress\\psoc creator\\4.2\\psoc creator\\import\\gnu\\arm\\5.4.
 11643              		.file 4 ".\\Api\\platform\\inc/vl53l0x_types.h"
 11644              		.file 5 ".\\Api\\core\\inc/vl53l0x_device.h"
 11645              		.file 6 ".\\Api\\core\\inc/vl53l0x_def.h"
 11646              		.file 7 ".\\Api\\platform\\inc/vl53l0x_platform.h"
 11647              		.file 8 ".\\Api\\core\\inc/vl53l0x_tuning.h"
 11648              		.file 9 ".\\Api\\core\\inc/vl53l0x_interrupt_threshold_settings.h"
 11649              		.section	.debug_info,"",%progbits
 11650              	.Ldebug_info0:
 11651 0000 5E2B0000 		.4byte	0x2b5e
 11652 0004 0400     		.2byte	0x4
 11653 0006 00000000 		.4byte	.Ldebug_abbrev0
 11654 000a 04       		.byte	0x4
 11655 000b 01       		.uleb128 0x1
 11656 000c 55030000 		.4byte	.LASF376
 11657 0010 0C       		.byte	0xc
 11658 0011 860C0000 		.4byte	.LASF377
 11659 0015 BA070000 		.4byte	.LASF378
 11660 0019 00000000 		.4byte	.Ldebug_ranges0+0
 11661 001d 00000000 		.4byte	0
 11662 0021 00000000 		.4byte	.Ldebug_line0
 11663 0025 02       		.uleb128 0x2
 11664 0026 E4120000 		.4byte	.LASF0
 11665 002a 02       		.byte	0x2
 11666 002b 1B       		.byte	0x1b
 11667 002c 30000000 		.4byte	0x30
 11668 0030 03       		.uleb128 0x3
 11669 0031 01       		.byte	0x1
 11670 0032 06       		.byte	0x6
 11671 0033 091C0000 		.4byte	.LASF2
 11672 0037 02       		.uleb128 0x2
 11673 0038 FE160000 		.4byte	.LASF1
 11674 003c 02       		.byte	0x2
 11675 003d 1D       		.byte	0x1d
 11676 003e 42000000 		.4byte	0x42
 11677 0042 03       		.uleb128 0x3
 11678 0043 01       		.byte	0x1
 11679 0044 08       		.byte	0x8
 11680 0045 A2190000 		.4byte	.LASF3
 11681 0049 02       		.uleb128 0x2
 11682 004a 3F110000 		.4byte	.LASF4
 11683 004e 02       		.byte	0x2
 11684 004f 29       		.byte	0x29
 11685 0050 54000000 		.4byte	0x54
 11686 0054 03       		.uleb128 0x3
 11687 0055 02       		.byte	0x2
ARM GAS  C:\Users\ilya\AppData\Local\Temp\ccpEIuqL.s 			page 260


 11688 0056 05       		.byte	0x5
 11689 0057 D1140000 		.4byte	.LASF5
 11690 005b 02       		.uleb128 0x2
 11691 005c A9090000 		.4byte	.LASF6
 11692 0060 02       		.byte	0x2
 11693 0061 2B       		.byte	0x2b
 11694 0062 66000000 		.4byte	0x66
 11695 0066 03       		.uleb128 0x3
 11696 0067 02       		.byte	0x2
 11697 0068 07       		.byte	0x7
 11698 0069 2A1C0000 		.4byte	.LASF7
 11699 006d 02       		.uleb128 0x2
 11700 006e EF020000 		.4byte	.LASF8
 11701 0072 02       		.byte	0x2
 11702 0073 3F       		.byte	0x3f
 11703 0074 78000000 		.4byte	0x78
 11704 0078 03       		.uleb128 0x3
 11705 0079 04       		.byte	0x4
 11706 007a 05       		.byte	0x5
 11707 007b 32150000 		.4byte	.LASF9
 11708 007f 02       		.uleb128 0x2
 11709 0080 D6190000 		.4byte	.LASF10
 11710 0084 02       		.byte	0x2
 11711 0085 41       		.byte	0x41
 11712 0086 8A000000 		.4byte	0x8a
 11713 008a 03       		.uleb128 0x3
 11714 008b 04       		.byte	0x4
 11715 008c 07       		.byte	0x7
 11716 008d 5D180000 		.4byte	.LASF11
 11717 0091 03       		.uleb128 0x3
 11718 0092 08       		.byte	0x8
 11719 0093 05       		.byte	0x5
 11720 0094 29100000 		.4byte	.LASF12
 11721 0098 03       		.uleb128 0x3
 11722 0099 08       		.byte	0x8
 11723 009a 07       		.byte	0x7
 11724 009b FE080000 		.4byte	.LASF13
 11725 009f 04       		.uleb128 0x4
 11726 00a0 04       		.byte	0x4
 11727 00a1 05       		.byte	0x5
 11728 00a2 696E7400 		.ascii	"int\000"
 11729 00a6 03       		.uleb128 0x3
 11730 00a7 04       		.byte	0x4
 11731 00a8 07       		.byte	0x7
 11732 00a9 03020000 		.4byte	.LASF14
 11733 00ad 02       		.uleb128 0x2
 11734 00ae 31070000 		.4byte	.LASF15
 11735 00b2 03       		.byte	0x3
 11736 00b3 14       		.byte	0x14
 11737 00b4 25000000 		.4byte	0x25
 11738 00b8 02       		.uleb128 0x2
 11739 00b9 FA0E0000 		.4byte	.LASF16
 11740 00bd 03       		.byte	0x3
 11741 00be 18       		.byte	0x18
 11742 00bf 37000000 		.4byte	0x37
 11743 00c3 02       		.uleb128 0x2
 11744 00c4 80080000 		.4byte	.LASF17
ARM GAS  C:\Users\ilya\AppData\Local\Temp\ccpEIuqL.s 			page 261


 11745 00c8 03       		.byte	0x3
 11746 00c9 20       		.byte	0x20
 11747 00ca 49000000 		.4byte	0x49
 11748 00ce 02       		.uleb128 0x2
 11749 00cf D2130000 		.4byte	.LASF18
 11750 00d3 03       		.byte	0x3
 11751 00d4 24       		.byte	0x24
 11752 00d5 5B000000 		.4byte	0x5b
 11753 00d9 02       		.uleb128 0x2
 11754 00da D4180000 		.4byte	.LASF19
 11755 00de 03       		.byte	0x3
 11756 00df 2C       		.byte	0x2c
 11757 00e0 6D000000 		.4byte	0x6d
 11758 00e4 02       		.uleb128 0x2
 11759 00e5 28070000 		.4byte	.LASF20
 11760 00e9 03       		.byte	0x3
 11761 00ea 30       		.byte	0x30
 11762 00eb 7F000000 		.4byte	0x7f
 11763 00ef 03       		.uleb128 0x3
 11764 00f0 08       		.byte	0x8
 11765 00f1 04       		.byte	0x4
 11766 00f2 C6130000 		.4byte	.LASF21
 11767 00f6 02       		.uleb128 0x2
 11768 00f7 F6060000 		.4byte	.LASF22
 11769 00fb 04       		.byte	0x4
 11770 00fc 6D       		.byte	0x6d
 11771 00fd E4000000 		.4byte	0xe4
 11772 0101 02       		.uleb128 0x2
 11773 0102 21080000 		.4byte	.LASF23
 11774 0106 05       		.byte	0x5
 11775 0107 36       		.byte	0x36
 11776 0108 B8000000 		.4byte	0xb8
 11777 010c 02       		.uleb128 0x2
 11778 010d 250F0000 		.4byte	.LASF24
 11779 0111 05       		.byte	0x5
 11780 0112 64       		.byte	0x64
 11781 0113 B8000000 		.4byte	0xb8
 11782 0117 05       		.uleb128 0x5
 11783 0118 08       		.byte	0x8
 11784 0119 06       		.byte	0x6
 11785 011a 64       		.byte	0x64
 11786 011b 50010000 		.4byte	0x150
 11787 011f 06       		.uleb128 0x6
 11788 0120 5C0E0000 		.4byte	.LASF25
 11789 0124 06       		.byte	0x6
 11790 0125 65       		.byte	0x65
 11791 0126 E4000000 		.4byte	0xe4
 11792 012a 00       		.byte	0
 11793 012b 06       		.uleb128 0x6
 11794 012c 190C0000 		.4byte	.LASF26
 11795 0130 06       		.byte	0x6
 11796 0131 66       		.byte	0x66
 11797 0132 B8000000 		.4byte	0xb8
 11798 0136 04       		.byte	0x4
 11799 0137 06       		.uleb128 0x6
 11800 0138 FE110000 		.4byte	.LASF27
 11801 013c 06       		.byte	0x6
ARM GAS  C:\Users\ilya\AppData\Local\Temp\ccpEIuqL.s 			page 262


 11802 013d 67       		.byte	0x67
 11803 013e B8000000 		.4byte	0xb8
 11804 0142 05       		.byte	0x5
 11805 0143 06       		.uleb128 0x6
 11806 0144 47040000 		.4byte	.LASF28
 11807 0148 06       		.byte	0x6
 11808 0149 68       		.byte	0x68
 11809 014a B8000000 		.4byte	0xb8
 11810 014e 06       		.byte	0x6
 11811 014f 00       		.byte	0
 11812 0150 02       		.uleb128 0x2
 11813 0151 BF140000 		.4byte	.LASF29
 11814 0155 06       		.byte	0x6
 11815 0156 69       		.byte	0x69
 11816 0157 17010000 		.4byte	0x117
 11817 015b 05       		.uleb128 0x5
 11818 015c 63       		.byte	0x63
 11819 015d 06       		.byte	0x6
 11820 015e 6E       		.byte	0x6e
 11821 015f AC010000 		.4byte	0x1ac
 11822 0163 06       		.uleb128 0x6
 11823 0164 330A0000 		.4byte	.LASF30
 11824 0168 06       		.byte	0x6
 11825 0169 6F       		.byte	0x6f
 11826 016a AC010000 		.4byte	0x1ac
 11827 016e 00       		.byte	0
 11828 016f 06       		.uleb128 0x6
 11829 0170 5A0F0000 		.4byte	.LASF31
 11830 0174 06       		.byte	0x6
 11831 0175 71       		.byte	0x71
 11832 0176 AC010000 		.4byte	0x1ac
 11833 017a 20       		.byte	0x20
 11834 017b 06       		.uleb128 0x6
 11835 017c 92020000 		.4byte	.LASF32
 11836 0180 06       		.byte	0x6
 11837 0181 73       		.byte	0x73
 11838 0182 AC010000 		.4byte	0x1ac
 11839 0186 40       		.byte	0x40
 11840 0187 06       		.uleb128 0x6
 11841 0188 EA1A0000 		.4byte	.LASF33
 11842 018c 06       		.byte	0x6
 11843 018d 75       		.byte	0x75
 11844 018e B8000000 		.4byte	0xb8
 11845 0192 60       		.byte	0x60
 11846 0193 06       		.uleb128 0x6
 11847 0194 93000000 		.4byte	.LASF34
 11848 0198 06       		.byte	0x6
 11849 0199 77       		.byte	0x77
 11850 019a B8000000 		.4byte	0xb8
 11851 019e 61       		.byte	0x61
 11852 019f 06       		.uleb128 0x6
 11853 01a0 88080000 		.4byte	.LASF35
 11854 01a4 06       		.byte	0x6
 11855 01a5 79       		.byte	0x79
 11856 01a6 B8000000 		.4byte	0xb8
 11857 01aa 62       		.byte	0x62
 11858 01ab 00       		.byte	0
ARM GAS  C:\Users\ilya\AppData\Local\Temp\ccpEIuqL.s 			page 263


 11859 01ac 07       		.uleb128 0x7
 11860 01ad C3010000 		.4byte	0x1c3
 11861 01b1 BC010000 		.4byte	0x1bc
 11862 01b5 08       		.uleb128 0x8
 11863 01b6 BC010000 		.4byte	0x1bc
 11864 01ba 1F       		.byte	0x1f
 11865 01bb 00       		.byte	0
 11866 01bc 03       		.uleb128 0x3
 11867 01bd 04       		.byte	0x4
 11868 01be 07       		.byte	0x7
 11869 01bf 42180000 		.4byte	.LASF36
 11870 01c3 03       		.uleb128 0x3
 11871 01c4 01       		.byte	0x1
 11872 01c5 08       		.byte	0x8
 11873 01c6 390D0000 		.4byte	.LASF37
 11874 01ca 02       		.uleb128 0x2
 11875 01cb 10060000 		.4byte	.LASF38
 11876 01cf 06       		.byte	0x6
 11877 01d0 7B       		.byte	0x7b
 11878 01d1 5B010000 		.4byte	0x15b
 11879 01d5 02       		.uleb128 0x2
 11880 01d6 41170000 		.4byte	.LASF39
 11881 01da 06       		.byte	0x6
 11882 01db 83       		.byte	0x83
 11883 01dc AD000000 		.4byte	0xad
 11884 01e0 02       		.uleb128 0x2
 11885 01e1 42100000 		.4byte	.LASF40
 11886 01e5 06       		.byte	0x6
 11887 01e6 B5       		.byte	0xb5
 11888 01e7 B8000000 		.4byte	0xb8
 11889 01eb 02       		.uleb128 0x2
 11890 01ec DE0F0000 		.4byte	.LASF41
 11891 01f0 06       		.byte	0x6
 11892 01f1 C7       		.byte	0xc7
 11893 01f2 B8000000 		.4byte	0xb8
 11894 01f6 02       		.uleb128 0x2
 11895 01f7 7F020000 		.4byte	.LASF42
 11896 01fb 06       		.byte	0x6
 11897 01fc DA       		.byte	0xda
 11898 01fd B8000000 		.4byte	0xb8
 11899 0201 05       		.uleb128 0x5
 11900 0202 40       		.byte	0x40
 11901 0203 06       		.byte	0x6
 11902 0204 EA       		.byte	0xea
 11903 0205 9D020000 		.4byte	0x29d
 11904 0209 06       		.uleb128 0x6
 11905 020a 65130000 		.4byte	.LASF43
 11906 020e 06       		.byte	0x6
 11907 020f EB       		.byte	0xeb
 11908 0210 E0010000 		.4byte	0x1e0
 11909 0214 00       		.byte	0
 11910 0215 06       		.uleb128 0x6
 11911 0216 DD000000 		.4byte	.LASF44
 11912 021a 06       		.byte	0x6
 11913 021b ED       		.byte	0xed
 11914 021c EB010000 		.4byte	0x1eb
 11915 0220 01       		.byte	0x1
ARM GAS  C:\Users\ilya\AppData\Local\Temp\ccpEIuqL.s 			page 264


 11916 0221 06       		.uleb128 0x6
 11917 0222 E00D0000 		.4byte	.LASF45
 11918 0226 06       		.byte	0x6
 11919 0227 F0       		.byte	0xf0
 11920 0228 E4000000 		.4byte	0xe4
 11921 022c 04       		.byte	0x4
 11922 022d 06       		.uleb128 0x6
 11923 022e 390B0000 		.4byte	.LASF46
 11924 0232 06       		.byte	0x6
 11925 0233 F2       		.byte	0xf2
 11926 0234 E4000000 		.4byte	0xe4
 11927 0238 08       		.byte	0x8
 11928 0239 06       		.uleb128 0x6
 11929 023a EB000000 		.4byte	.LASF47
 11930 023e 06       		.byte	0x6
 11931 023f F5       		.byte	0xf5
 11932 0240 B8000000 		.4byte	0xb8
 11933 0244 0C       		.byte	0xc
 11934 0245 06       		.uleb128 0x6
 11935 0246 10020000 		.4byte	.LASF48
 11936 024a 06       		.byte	0x6
 11937 024b F7       		.byte	0xf7
 11938 024c CE000000 		.4byte	0xce
 11939 0250 0E       		.byte	0xe
 11940 0251 06       		.uleb128 0x6
 11941 0252 92130000 		.4byte	.LASF49
 11942 0256 06       		.byte	0x6
 11943 0257 F9       		.byte	0xf9
 11944 0258 F6000000 		.4byte	0xf6
 11945 025c 10       		.byte	0x10
 11946 025d 06       		.uleb128 0x6
 11947 025e 3F0C0000 		.4byte	.LASF50
 11948 0262 06       		.byte	0x6
 11949 0263 FC       		.byte	0xfc
 11950 0264 D9000000 		.4byte	0xd9
 11951 0268 14       		.byte	0x14
 11952 0269 06       		.uleb128 0x6
 11953 026a 9C020000 		.4byte	.LASF51
 11954 026e 06       		.byte	0x6
 11955 026f FF       		.byte	0xff
 11956 0270 9D020000 		.4byte	0x29d
 11957 0274 18       		.byte	0x18
 11958 0275 09       		.uleb128 0x9
 11959 0276 5F050000 		.4byte	.LASF52
 11960 027a 06       		.byte	0x6
 11961 027b 0101     		.2byte	0x101
 11962 027d 9D020000 		.4byte	0x29d
 11963 0281 1E       		.byte	0x1e
 11964 0282 09       		.uleb128 0x9
 11965 0283 C10B0000 		.4byte	.LASF53
 11966 0287 06       		.byte	0x6
 11967 0288 0401     		.2byte	0x104
 11968 028a AD020000 		.4byte	0x2ad
 11969 028e 24       		.byte	0x24
 11970 028f 09       		.uleb128 0x9
 11971 0290 29050000 		.4byte	.LASF54
 11972 0294 06       		.byte	0x6
ARM GAS  C:\Users\ilya\AppData\Local\Temp\ccpEIuqL.s 			page 265


 11973 0295 0701     		.2byte	0x107
 11974 0297 B8000000 		.4byte	0xb8
 11975 029b 3C       		.byte	0x3c
 11976 029c 00       		.byte	0
 11977 029d 07       		.uleb128 0x7
 11978 029e B8000000 		.4byte	0xb8
 11979 02a2 AD020000 		.4byte	0x2ad
 11980 02a6 08       		.uleb128 0x8
 11981 02a7 BC010000 		.4byte	0x1bc
 11982 02ab 05       		.byte	0x5
 11983 02ac 00       		.byte	0
 11984 02ad 07       		.uleb128 0x7
 11985 02ae F6000000 		.4byte	0xf6
 11986 02b2 BD020000 		.4byte	0x2bd
 11987 02b6 08       		.uleb128 0x8
 11988 02b7 BC010000 		.4byte	0x1bc
 11989 02bb 05       		.byte	0x5
 11990 02bc 00       		.byte	0
 11991 02bd 0A       		.uleb128 0xa
 11992 02be 00080000 		.4byte	.LASF55
 11993 02c2 06       		.byte	0x6
 11994 02c3 0901     		.2byte	0x109
 11995 02c5 01020000 		.4byte	0x201
 11996 02c9 0A       		.uleb128 0xa
 11997 02ca 95120000 		.4byte	.LASF56
 11998 02ce 06       		.byte	0x6
 11999 02cf 1101     		.2byte	0x111
 12000 02d1 B8000000 		.4byte	0xb8
 12001 02d5 0B       		.uleb128 0xb
 12002 02d6 08       		.byte	0x8
 12003 02d7 06       		.byte	0x6
 12004 02d8 2701     		.2byte	0x127
 12005 02da F9020000 		.4byte	0x2f9
 12006 02de 09       		.uleb128 0x9
 12007 02df 15090000 		.4byte	.LASF57
 12008 02e3 06       		.byte	0x6
 12009 02e4 2801     		.2byte	0x128
 12010 02e6 D9000000 		.4byte	0xd9
 12011 02ea 00       		.byte	0
 12012 02eb 09       		.uleb128 0x9
 12013 02ec EF110000 		.4byte	.LASF58
 12014 02f0 06       		.byte	0x6
 12015 02f1 2A01     		.2byte	0x12a
 12016 02f3 D9000000 		.4byte	0xd9
 12017 02f7 04       		.byte	0x4
 12018 02f8 00       		.byte	0
 12019 02f9 0A       		.uleb128 0xa
 12020 02fa D1120000 		.4byte	.LASF59
 12021 02fe 06       		.byte	0x6
 12022 02ff 2C01     		.2byte	0x12c
 12023 0301 D5020000 		.4byte	0x2d5
 12024 0305 0B       		.uleb128 0xb
 12025 0306 1C       		.byte	0x1c
 12026 0307 06       		.byte	0x6
 12027 0308 3201     		.2byte	0x132
 12028 030a 91030000 		.4byte	0x391
 12029 030e 09       		.uleb128 0x9
ARM GAS  C:\Users\ilya\AppData\Local\Temp\ccpEIuqL.s 			page 266


 12030 030f 021E0000 		.4byte	.LASF60
 12031 0313 06       		.byte	0x6
 12032 0314 3301     		.2byte	0x133
 12033 0316 E4000000 		.4byte	0xe4
 12034 031a 00       		.byte	0
 12035 031b 09       		.uleb128 0x9
 12036 031c 0A0D0000 		.4byte	.LASF61
 12037 0320 06       		.byte	0x6
 12038 0321 3401     		.2byte	0x134
 12039 0323 E4000000 		.4byte	0xe4
 12040 0327 04       		.byte	0x4
 12041 0328 09       		.uleb128 0x9
 12042 0329 AB1C0000 		.4byte	.LASF62
 12043 032d 06       		.byte	0x6
 12044 032e 3901     		.2byte	0x139
 12045 0330 CE000000 		.4byte	0xce
 12046 0334 08       		.byte	0x8
 12047 0335 09       		.uleb128 0x9
 12048 0336 81050000 		.4byte	.LASF63
 12049 033a 06       		.byte	0x6
 12050 033b 3B01     		.2byte	0x13b
 12051 033d CE000000 		.4byte	0xce
 12052 0341 0A       		.byte	0xa
 12053 0342 09       		.uleb128 0x9
 12054 0343 24000000 		.4byte	.LASF64
 12055 0347 06       		.byte	0x6
 12056 0348 4001     		.2byte	0x140
 12057 034a F6000000 		.4byte	0xf6
 12058 034e 0C       		.byte	0xc
 12059 034f 09       		.uleb128 0x9
 12060 0350 D9020000 		.4byte	.LASF65
 12061 0354 06       		.byte	0x6
 12062 0355 4401     		.2byte	0x144
 12063 0357 F6000000 		.4byte	0xf6
 12064 035b 10       		.byte	0x10
 12065 035c 09       		.uleb128 0x9
 12066 035d D20A0000 		.4byte	.LASF66
 12067 0361 06       		.byte	0x6
 12068 0362 4901     		.2byte	0x149
 12069 0364 CE000000 		.4byte	0xce
 12070 0368 14       		.byte	0x14
 12071 0369 09       		.uleb128 0x9
 12072 036a BB160000 		.4byte	.LASF67
 12073 036e 06       		.byte	0x6
 12074 036f 4D01     		.2byte	0x14d
 12075 0371 B8000000 		.4byte	0xb8
 12076 0375 16       		.byte	0x16
 12077 0376 09       		.uleb128 0x9
 12078 0377 121D0000 		.4byte	.LASF68
 12079 037b 06       		.byte	0x6
 12080 037c 5001     		.2byte	0x150
 12081 037e B8000000 		.4byte	0xb8
 12082 0382 17       		.byte	0x17
 12083 0383 09       		.uleb128 0x9
 12084 0384 14100000 		.4byte	.LASF69
 12085 0388 06       		.byte	0x6
 12086 0389 5301     		.2byte	0x153
ARM GAS  C:\Users\ilya\AppData\Local\Temp\ccpEIuqL.s 			page 267


 12087 038b B8000000 		.4byte	0xb8
 12088 038f 18       		.byte	0x18
 12089 0390 00       		.byte	0
 12090 0391 0A       		.uleb128 0xa
 12091 0392 07140000 		.4byte	.LASF70
 12092 0396 06       		.byte	0x6
 12093 0397 5701     		.2byte	0x157
 12094 0399 05030000 		.4byte	0x305
 12095 039d 0B       		.uleb128 0xb
 12096 039e 68       		.byte	0x68
 12097 039f 06       		.byte	0x6
 12098 03a0 6001     		.2byte	0x160
 12099 03a2 F5030000 		.4byte	0x3f5
 12100 03a6 09       		.uleb128 0x9
 12101 03a7 B30B0000 		.4byte	.LASF71
 12102 03ab 06       		.byte	0x6
 12103 03ac 6201     		.2byte	0x162
 12104 03ae F5030000 		.4byte	0x3f5
 12105 03b2 00       		.byte	0
 12106 03b3 09       		.uleb128 0x9
 12107 03b4 9A070000 		.4byte	.LASF72
 12108 03b8 06       		.byte	0x6
 12109 03b9 6401     		.2byte	0x164
 12110 03bb B8000000 		.4byte	0xb8
 12111 03bf 60       		.byte	0x60
 12112 03c0 09       		.uleb128 0x9
 12113 03c1 20100000 		.4byte	.LASF73
 12114 03c5 06       		.byte	0x6
 12115 03c6 6601     		.2byte	0x166
 12116 03c8 B8000000 		.4byte	0xb8
 12117 03cc 61       		.byte	0x61
 12118 03cd 09       		.uleb128 0x9
 12119 03ce 650E0000 		.4byte	.LASF74
 12120 03d2 06       		.byte	0x6
 12121 03d3 6701     		.2byte	0x167
 12122 03d5 B8000000 		.4byte	0xb8
 12123 03d9 62       		.byte	0x62
 12124 03da 09       		.uleb128 0x9
 12125 03db B0190000 		.4byte	.LASF75
 12126 03df 06       		.byte	0x6
 12127 03e0 6801     		.2byte	0x168
 12128 03e2 B8000000 		.4byte	0xb8
 12129 03e6 63       		.byte	0x63
 12130 03e7 09       		.uleb128 0x9
 12131 03e8 CD020000 		.4byte	.LASF76
 12132 03ec 06       		.byte	0x6
 12133 03ed 6B01     		.2byte	0x16b
 12134 03ef 01010000 		.4byte	0x101
 12135 03f3 64       		.byte	0x64
 12136 03f4 00       		.byte	0
 12137 03f5 07       		.uleb128 0x7
 12138 03f6 E4000000 		.4byte	0xe4
 12139 03fa 05040000 		.4byte	0x405
 12140 03fe 08       		.uleb128 0x8
 12141 03ff BC010000 		.4byte	0x1bc
 12142 0403 17       		.byte	0x17
 12143 0404 00       		.byte	0
ARM GAS  C:\Users\ilya\AppData\Local\Temp\ccpEIuqL.s 			page 268


 12144 0405 0A       		.uleb128 0xa
 12145 0406 281E0000 		.4byte	.LASF77
 12146 040a 06       		.byte	0x6
 12147 040b 6E01     		.2byte	0x16e
 12148 040d 9D030000 		.4byte	0x39d
 12149 0411 0B       		.uleb128 0xb
 12150 0412 0C       		.byte	0xc
 12151 0413 06       		.byte	0x6
 12152 0414 7601     		.2byte	0x176
 12153 0416 35040000 		.4byte	0x435
 12154 041a 09       		.uleb128 0x9
 12155 041b 240A0000 		.4byte	.LASF78
 12156 041f 06       		.byte	0x6
 12157 0420 7701     		.2byte	0x177
 12158 0422 9D020000 		.4byte	0x29d
 12159 0426 00       		.byte	0
 12160 0427 09       		.uleb128 0x9
 12161 0428 32170000 		.4byte	.LASF79
 12162 042c 06       		.byte	0x6
 12163 042d 7901     		.2byte	0x179
 12164 042f 9D020000 		.4byte	0x29d
 12165 0433 06       		.byte	0x6
 12166 0434 00       		.byte	0
 12167 0435 0A       		.uleb128 0xa
 12168 0436 C90E0000 		.4byte	.LASF80
 12169 043a 06       		.byte	0x6
 12170 043b 7B01     		.2byte	0x17b
 12171 043d 11040000 		.4byte	0x411
 12172 0441 0B       		.uleb128 0xb
 12173 0442 50       		.byte	0x50
 12174 0443 06       		.byte	0x6
 12175 0444 7D01     		.2byte	0x17d
 12176 0446 4F050000 		.4byte	0x54f
 12177 044a 09       		.uleb128 0x9
 12178 044b 99090000 		.4byte	.LASF81
 12179 044f 06       		.byte	0x6
 12180 0450 7E01     		.2byte	0x17e
 12181 0452 F6000000 		.4byte	0xf6
 12182 0456 00       		.byte	0
 12183 0457 09       		.uleb128 0x9
 12184 0458 771D0000 		.4byte	.LASF82
 12185 045c 06       		.byte	0x6
 12186 045d 8001     		.2byte	0x180
 12187 045f CE000000 		.4byte	0xce
 12188 0463 04       		.byte	0x4
 12189 0464 09       		.uleb128 0x9
 12190 0465 691B0000 		.4byte	.LASF83
 12191 0469 06       		.byte	0x6
 12192 046a 8301     		.2byte	0x183
 12193 046c 0C010000 		.4byte	0x10c
 12194 0470 06       		.byte	0x6
 12195 0471 09       		.uleb128 0x9
 12196 0472 86160000 		.4byte	.LASF84
 12197 0476 06       		.byte	0x6
 12198 0477 8601     		.2byte	0x186
 12199 0479 E4000000 		.4byte	0xe4
 12200 047d 08       		.byte	0x8
ARM GAS  C:\Users\ilya\AppData\Local\Temp\ccpEIuqL.s 			page 269


 12201 047e 09       		.uleb128 0x9
 12202 047f 481A0000 		.4byte	.LASF85
 12203 0483 06       		.byte	0x6
 12204 0484 8801     		.2byte	0x188
 12205 0486 B8000000 		.4byte	0xb8
 12206 048a 0C       		.byte	0xc
 12207 048b 09       		.uleb128 0x9
 12208 048c BD190000 		.4byte	.LASF86
 12209 0490 06       		.byte	0x6
 12210 0491 8A01     		.2byte	0x18a
 12211 0493 E4000000 		.4byte	0xe4
 12212 0497 10       		.byte	0x10
 12213 0498 09       		.uleb128 0x9
 12214 0499 03010000 		.4byte	.LASF87
 12215 049d 06       		.byte	0x6
 12216 049e 8C01     		.2byte	0x18c
 12217 04a0 B8000000 		.4byte	0xb8
 12218 04a4 14       		.byte	0x14
 12219 04a5 09       		.uleb128 0x9
 12220 04a6 FA1C0000 		.4byte	.LASF88
 12221 04aa 06       		.byte	0x6
 12222 04ab 8F01     		.2byte	0x18f
 12223 04ad CE000000 		.4byte	0xce
 12224 04b1 16       		.byte	0x16
 12225 04b2 09       		.uleb128 0x9
 12226 04b3 A10C0000 		.4byte	.LASF89
 12227 04b7 06       		.byte	0x6
 12228 04b8 9101     		.2byte	0x191
 12229 04ba CE000000 		.4byte	0xce
 12230 04be 18       		.byte	0x18
 12231 04bf 09       		.uleb128 0x9
 12232 04c0 41190000 		.4byte	.LASF90
 12233 04c4 06       		.byte	0x6
 12234 04c5 9401     		.2byte	0x194
 12235 04c7 CE000000 		.4byte	0xce
 12236 04cb 1A       		.byte	0x1a
 12237 04cc 09       		.uleb128 0x9
 12238 04cd C90D0000 		.4byte	.LASF91
 12239 04d1 06       		.byte	0x6
 12240 04d2 9901     		.2byte	0x199
 12241 04d4 B8000000 		.4byte	0xb8
 12242 04d8 1C       		.byte	0x1c
 12243 04d9 09       		.uleb128 0x9
 12244 04da A00B0000 		.4byte	.LASF92
 12245 04de 06       		.byte	0x6
 12246 04df 9B01     		.2byte	0x19b
 12247 04e1 B8000000 		.4byte	0xb8
 12248 04e5 1D       		.byte	0x1d
 12249 04e6 09       		.uleb128 0x9
 12250 04e7 07060000 		.4byte	.LASF93
 12251 04eb 06       		.byte	0x6
 12252 04ec 9C01     		.2byte	0x19c
 12253 04ee B8000000 		.4byte	0xb8
 12254 04f2 1E       		.byte	0x1e
 12255 04f3 09       		.uleb128 0x9
 12256 04f4 92020000 		.4byte	.LASF32
 12257 04f8 06       		.byte	0x6
ARM GAS  C:\Users\ilya\AppData\Local\Temp\ccpEIuqL.s 			page 270


 12258 04f9 9D01     		.2byte	0x19d
 12259 04fb AC010000 		.4byte	0x1ac
 12260 04ff 1F       		.byte	0x1f
 12261 0500 09       		.uleb128 0x9
 12262 0501 5C0B0000 		.4byte	.LASF94
 12263 0505 06       		.byte	0x6
 12264 0506 9F01     		.2byte	0x19f
 12265 0508 B8000000 		.4byte	0xb8
 12266 050c 3F       		.byte	0x3f
 12267 050d 09       		.uleb128 0x9
 12268 050e 12000000 		.4byte	.LASF95
 12269 0512 06       		.byte	0x6
 12270 0513 A001     		.2byte	0x1a0
 12271 0515 B8000000 		.4byte	0xb8
 12272 0519 40       		.byte	0x40
 12273 051a 09       		.uleb128 0x9
 12274 051b B7100000 		.4byte	.LASF96
 12275 051f 06       		.byte	0x6
 12276 0520 A101     		.2byte	0x1a1
 12277 0522 B8000000 		.4byte	0xb8
 12278 0526 41       		.byte	0x41
 12279 0527 09       		.uleb128 0x9
 12280 0528 55150000 		.4byte	.LASF97
 12281 052c 06       		.byte	0x6
 12282 052d A201     		.2byte	0x1a2
 12283 052f E4000000 		.4byte	0xe4
 12284 0533 44       		.byte	0x44
 12285 0534 09       		.uleb128 0x9
 12286 0535 52000000 		.4byte	.LASF98
 12287 0539 06       		.byte	0x6
 12288 053a A301     		.2byte	0x1a3
 12289 053c E4000000 		.4byte	0xe4
 12290 0540 48       		.byte	0x48
 12291 0541 09       		.uleb128 0x9
 12292 0542 841E0000 		.4byte	.LASF99
 12293 0546 06       		.byte	0x6
 12294 0547 A401     		.2byte	0x1a4
 12295 0549 F6000000 		.4byte	0xf6
 12296 054d 4C       		.byte	0x4c
 12297 054e 00       		.byte	0
 12298 054f 0A       		.uleb128 0xa
 12299 0550 05070000 		.4byte	.LASF100
 12300 0554 06       		.byte	0x6
 12301 0555 A701     		.2byte	0x1a7
 12302 0557 41040000 		.4byte	0x441
 12303 055b 0C       		.uleb128 0xc
 12304 055c 5C01     		.2byte	0x15c
 12305 055e 06       		.byte	0x6
 12306 055f B101     		.2byte	0x1b1
 12307 0561 BD060000 		.4byte	0x6bd
 12308 0565 09       		.uleb128 0x9
 12309 0566 010D0000 		.4byte	.LASF101
 12310 056a 06       		.byte	0x6
 12311 056b B201     		.2byte	0x1b2
 12312 056d F9020000 		.4byte	0x2f9
 12313 0571 00       		.byte	0
 12314 0572 09       		.uleb128 0x9
ARM GAS  C:\Users\ilya\AppData\Local\Temp\ccpEIuqL.s 			page 271


 12315 0573 25060000 		.4byte	.LASF102
 12316 0577 06       		.byte	0x6
 12317 0578 B401     		.2byte	0x1b4
 12318 057a D9000000 		.4byte	0xd9
 12319 057e 08       		.byte	0x8
 12320 057f 09       		.uleb128 0x9
 12321 0580 D7080000 		.4byte	.LASF103
 12322 0584 06       		.byte	0x6
 12323 0585 B601     		.2byte	0x1b6
 12324 0587 D9000000 		.4byte	0xd9
 12325 058b 0C       		.byte	0xc
 12326 058c 09       		.uleb128 0x9
 12327 058d 4B180000 		.4byte	.LASF104
 12328 0591 06       		.byte	0x6
 12329 0592 B801     		.2byte	0x1b8
 12330 0594 BD020000 		.4byte	0x2bd
 12331 0598 10       		.byte	0x10
 12332 0599 09       		.uleb128 0x9
 12333 059a 190E0000 		.4byte	.LASF105
 12334 059e 06       		.byte	0x6
 12335 059f BA01     		.2byte	0x1ba
 12336 05a1 91030000 		.4byte	0x391
 12337 05a5 50       		.byte	0x50
 12338 05a6 09       		.uleb128 0x9
 12339 05a7 151C0000 		.4byte	.LASF106
 12340 05ab 06       		.byte	0x6
 12341 05ac BC01     		.2byte	0x1bc
 12342 05ae 05040000 		.4byte	0x405
 12343 05b2 6C       		.byte	0x6c
 12344 05b3 09       		.uleb128 0x9
 12345 05b4 8A180000 		.4byte	.LASF107
 12346 05b8 06       		.byte	0x6
 12347 05b9 BE01     		.2byte	0x1be
 12348 05bb 4F050000 		.4byte	0x54f
 12349 05bf D4       		.byte	0xd4
 12350 05c0 0D       		.uleb128 0xd
 12351 05c1 300B0000 		.4byte	.LASF108
 12352 05c5 06       		.byte	0x6
 12353 05c6 C001     		.2byte	0x1c0
 12354 05c8 35040000 		.4byte	0x435
 12355 05cc 2401     		.2byte	0x124
 12356 05ce 0D       		.uleb128 0xd
 12357 05cf 5E140000 		.4byte	.LASF109
 12358 05d3 06       		.byte	0x6
 12359 05d4 C201     		.2byte	0x1c2
 12360 05d6 B8000000 		.4byte	0xb8
 12361 05da 3001     		.2byte	0x130
 12362 05dc 0D       		.uleb128 0xd
 12363 05dd 6A1C0000 		.4byte	.LASF110
 12364 05e1 06       		.byte	0x6
 12365 05e2 C401     		.2byte	0x1c4
 12366 05e4 B8000000 		.4byte	0xb8
 12367 05e8 3101     		.2byte	0x131
 12368 05ea 0D       		.uleb128 0xd
 12369 05eb F91D0000 		.4byte	.LASF111
 12370 05ef 06       		.byte	0x6
 12371 05f0 C601     		.2byte	0x1c6
ARM GAS  C:\Users\ilya\AppData\Local\Temp\ccpEIuqL.s 			page 272


 12372 05f2 C9020000 		.4byte	0x2c9
 12373 05f6 3201     		.2byte	0x132
 12374 05f8 0D       		.uleb128 0xd
 12375 05f9 3F050000 		.4byte	.LASF112
 12376 05fd 06       		.byte	0x6
 12377 05fe C801     		.2byte	0x1c8
 12378 0600 F6010000 		.4byte	0x1f6
 12379 0604 3301     		.2byte	0x133
 12380 0606 0D       		.uleb128 0xd
 12381 0607 FA1C0000 		.4byte	.LASF88
 12382 060b 06       		.byte	0x6
 12383 060c CA01     		.2byte	0x1ca
 12384 060e CE000000 		.4byte	0xce
 12385 0612 3401     		.2byte	0x134
 12386 0614 0D       		.uleb128 0xd
 12387 0615 A10C0000 		.4byte	.LASF89
 12388 0619 06       		.byte	0x6
 12389 061a CC01     		.2byte	0x1cc
 12390 061c CE000000 		.4byte	0xce
 12391 0620 3601     		.2byte	0x136
 12392 0622 0D       		.uleb128 0xd
 12393 0623 41190000 		.4byte	.LASF90
 12394 0627 06       		.byte	0x6
 12395 0628 CF01     		.2byte	0x1cf
 12396 062a CE000000 		.4byte	0xce
 12397 062e 3801     		.2byte	0x138
 12398 0630 0D       		.uleb128 0xd
 12399 0631 DE0C0000 		.4byte	.LASF113
 12400 0635 06       		.byte	0x6
 12401 0636 D201     		.2byte	0x1d2
 12402 0638 B8000000 		.4byte	0xb8
 12403 063c 3A01     		.2byte	0x13a
 12404 063e 0D       		.uleb128 0xd
 12405 063f 51080000 		.4byte	.LASF114
 12406 0643 06       		.byte	0x6
 12407 0644 D401     		.2byte	0x1d4
 12408 0646 CE000000 		.4byte	0xce
 12409 064a 3C01     		.2byte	0x13c
 12410 064c 0D       		.uleb128 0xd
 12411 064d D71C0000 		.4byte	.LASF115
 12412 0651 06       		.byte	0x6
 12413 0652 D601     		.2byte	0x1d6
 12414 0654 F6000000 		.4byte	0xf6
 12415 0658 4001     		.2byte	0x140
 12416 065a 0D       		.uleb128 0xd
 12417 065b 62150000 		.4byte	.LASF116
 12418 065f 06       		.byte	0x6
 12419 0660 D901     		.2byte	0x1d9
 12420 0662 F6000000 		.4byte	0xf6
 12421 0666 4401     		.2byte	0x144
 12422 0668 0D       		.uleb128 0xd
 12423 0669 74160000 		.4byte	.LASF117
 12424 066d 06       		.byte	0x6
 12425 066e DB01     		.2byte	0x1db
 12426 0670 F6000000 		.4byte	0xf6
 12427 0674 4801     		.2byte	0x148
 12428 0676 0D       		.uleb128 0xd
ARM GAS  C:\Users\ilya\AppData\Local\Temp\ccpEIuqL.s 			page 273


 12429 0677 A3180000 		.4byte	.LASF118
 12430 067b 06       		.byte	0x6
 12431 067c DD01     		.2byte	0x1dd
 12432 067e BD060000 		.4byte	0x6bd
 12433 0682 4C01     		.2byte	0x14c
 12434 0684 0D       		.uleb128 0xd
 12435 0685 380A0000 		.4byte	.LASF119
 12436 0689 06       		.byte	0x6
 12437 068a DF01     		.2byte	0x1df
 12438 068c B8000000 		.4byte	0xb8
 12439 0690 5001     		.2byte	0x150
 12440 0692 0D       		.uleb128 0xd
 12441 0693 920A0000 		.4byte	.LASF120
 12442 0697 06       		.byte	0x6
 12443 0698 E101     		.2byte	0x1e1
 12444 069a CE000000 		.4byte	0xce
 12445 069e 5201     		.2byte	0x152
 12446 06a0 0D       		.uleb128 0xd
 12447 06a1 610C0000 		.4byte	.LASF121
 12448 06a5 06       		.byte	0x6
 12449 06a6 E301     		.2byte	0x1e3
 12450 06a8 CE000000 		.4byte	0xce
 12451 06ac 5401     		.2byte	0x154
 12452 06ae 0D       		.uleb128 0xd
 12453 06af E1190000 		.4byte	.LASF122
 12454 06b3 06       		.byte	0x6
 12455 06b4 E501     		.2byte	0x1e5
 12456 06b6 F6000000 		.4byte	0xf6
 12457 06ba 5801     		.2byte	0x158
 12458 06bc 00       		.byte	0
 12459 06bd 0E       		.uleb128 0xe
 12460 06be 04       		.byte	0x4
 12461 06bf B8000000 		.4byte	0xb8
 12462 06c3 0A       		.uleb128 0xa
 12463 06c4 761A0000 		.4byte	.LASF123
 12464 06c8 06       		.byte	0x6
 12465 06c9 E801     		.2byte	0x1e8
 12466 06cb 5B050000 		.4byte	0x55b
 12467 06cf 0A       		.uleb128 0xa
 12468 06d0 A1160000 		.4byte	.LASF124
 12469 06d4 06       		.byte	0x6
 12470 06d5 F001     		.2byte	0x1f0
 12471 06d7 B8000000 		.4byte	0xb8
 12472 06db 0A       		.uleb128 0xa
 12473 06dc EE1B0000 		.4byte	.LASF125
 12474 06e0 06       		.byte	0x6
 12475 06e1 FE01     		.2byte	0x1fe
 12476 06e3 B8000000 		.4byte	0xb8
 12477 06e7 0B       		.uleb128 0xb
 12478 06e8 05       		.byte	0x5
 12479 06e9 06       		.byte	0x6
 12480 06ea 0D02     		.2byte	0x20d
 12481 06ec 32070000 		.4byte	0x732
 12482 06f0 09       		.uleb128 0x9
 12483 06f1 F20B0000 		.4byte	.LASF126
 12484 06f5 06       		.byte	0x6
 12485 06f6 0E02     		.2byte	0x20e
ARM GAS  C:\Users\ilya\AppData\Local\Temp\ccpEIuqL.s 			page 274


 12486 06f8 B8000000 		.4byte	0xb8
 12487 06fc 00       		.byte	0
 12488 06fd 09       		.uleb128 0x9
 12489 06fe 0B1D0000 		.4byte	.LASF127
 12490 0702 06       		.byte	0x6
 12491 0703 0F02     		.2byte	0x20f
 12492 0705 B8000000 		.4byte	0xb8
 12493 0709 01       		.byte	0x1
 12494 070a 09       		.uleb128 0x9
 12495 070b B1100000 		.4byte	.LASF128
 12496 070f 06       		.byte	0x6
 12497 0710 1002     		.2byte	0x210
 12498 0712 B8000000 		.4byte	0xb8
 12499 0716 02       		.byte	0x2
 12500 0717 09       		.uleb128 0x9
 12501 0718 37100000 		.4byte	.LASF129
 12502 071c 06       		.byte	0x6
 12503 071d 1102     		.2byte	0x211
 12504 071f B8000000 		.4byte	0xb8
 12505 0723 03       		.byte	0x3
 12506 0724 09       		.uleb128 0x9
 12507 0725 CB100000 		.4byte	.LASF130
 12508 0729 06       		.byte	0x6
 12509 072a 1202     		.2byte	0x212
 12510 072c B8000000 		.4byte	0xb8
 12511 0730 04       		.byte	0x4
 12512 0731 00       		.byte	0
 12513 0732 0A       		.uleb128 0xa
 12514 0733 07130000 		.4byte	.LASF131
 12515 0737 06       		.byte	0x6
 12516 0738 1302     		.2byte	0x213
 12517 073a E7060000 		.4byte	0x6e7
 12518 073e 0A       		.uleb128 0xa
 12519 073f AF130000 		.4byte	.LASF132
 12520 0743 06       		.byte	0x6
 12521 0744 1C02     		.2byte	0x21c
 12522 0746 B8000000 		.4byte	0xb8
 12523 074a 0E       		.uleb128 0xe
 12524 074b 04       		.byte	0x4
 12525 074c C3010000 		.4byte	0x1c3
 12526 0750 0F       		.uleb128 0xf
 12527 0751 6001     		.2byte	0x160
 12528 0753 07       		.byte	0x7
 12529 0754 3A       		.byte	0x3a
 12530 0755 8D070000 		.4byte	0x78d
 12531 0759 06       		.uleb128 0x6
 12532 075a 4B1E0000 		.4byte	.LASF133
 12533 075e 07       		.byte	0x7
 12534 075f 3B       		.byte	0x3b
 12535 0760 C3060000 		.4byte	0x6c3
 12536 0764 00       		.byte	0
 12537 0765 10       		.uleb128 0x10
 12538 0766 5A130000 		.4byte	.LASF134
 12539 076a 07       		.byte	0x7
 12540 076b 3E       		.byte	0x3e
 12541 076c B8000000 		.4byte	0xb8
 12542 0770 5C01     		.2byte	0x15c
ARM GAS  C:\Users\ilya\AppData\Local\Temp\ccpEIuqL.s 			page 275


 12543 0772 10       		.uleb128 0x10
 12544 0773 A8170000 		.4byte	.LASF135
 12545 0777 07       		.byte	0x7
 12546 0778 3F       		.byte	0x3f
 12547 0779 B8000000 		.4byte	0xb8
 12548 077d 5D01     		.2byte	0x15d
 12549 077f 10       		.uleb128 0x10
 12550 0780 DD0B0000 		.4byte	.LASF136
 12551 0784 07       		.byte	0x7
 12552 0785 40       		.byte	0x40
 12553 0786 CE000000 		.4byte	0xce
 12554 078a 5E01     		.2byte	0x15e
 12555 078c 00       		.byte	0
 12556 078d 02       		.uleb128 0x2
 12557 078e DC040000 		.4byte	.LASF137
 12558 0792 07       		.byte	0x7
 12559 0793 42       		.byte	0x42
 12560 0794 50070000 		.4byte	0x750
 12561 0798 02       		.uleb128 0x2
 12562 0799 BD000000 		.4byte	.LASF138
 12563 079d 07       		.byte	0x7
 12564 079e 49       		.byte	0x49
 12565 079f A3070000 		.4byte	0x7a3
 12566 07a3 0E       		.uleb128 0xe
 12567 07a4 04       		.byte	0x4
 12568 07a5 8D070000 		.4byte	0x78d
 12569 07a9 11       		.uleb128 0x11
 12570 07aa 631A0000 		.4byte	.LASF139
 12571 07ae 01       		.byte	0x1
 12572 07af 35       		.byte	0x35
 12573 07b0 D5010000 		.4byte	0x1d5
 12574 07b4 00000000 		.4byte	.LFB1
 12575 07b8 3C000000 		.4byte	.LFE1-.LFB1
 12576 07bc 01       		.uleb128 0x1
 12577 07bd 9C       		.byte	0x9c
 12578 07be DF070000 		.4byte	0x7df
 12579 07c2 12       		.uleb128 0x12
 12580 07c3 971A0000 		.4byte	.LASF141
 12581 07c7 01       		.byte	0x1
 12582 07c8 35       		.byte	0x35
 12583 07c9 DF070000 		.4byte	0x7df
 12584 07cd 02       		.uleb128 0x2
 12585 07ce 91       		.byte	0x91
 12586 07cf 6C       		.sleb128 -20
 12587 07d0 13       		.uleb128 0x13
 12588 07d1 31020000 		.4byte	.LASF143
 12589 07d5 01       		.byte	0x1
 12590 07d6 37       		.byte	0x37
 12591 07d7 D5010000 		.4byte	0x1d5
 12592 07db 02       		.uleb128 0x2
 12593 07dc 91       		.byte	0x91
 12594 07dd 77       		.sleb128 -9
 12595 07de 00       		.byte	0
 12596 07df 0E       		.uleb128 0xe
 12597 07e0 04       		.byte	0x4
 12598 07e1 50010000 		.4byte	0x150
 12599 07e5 11       		.uleb128 0x11
ARM GAS  C:\Users\ilya\AppData\Local\Temp\ccpEIuqL.s 			page 276


 12600 07e6 7D110000 		.4byte	.LASF140
 12601 07ea 01       		.byte	0x1
 12602 07eb 44       		.byte	0x44
 12603 07ec D5010000 		.4byte	0x1d5
 12604 07f0 00000000 		.4byte	.LFB2
 12605 07f4 3A000000 		.4byte	.LFE2-.LFB2
 12606 07f8 01       		.uleb128 0x1
 12607 07f9 9C       		.byte	0x9c
 12608 07fa 1B080000 		.4byte	0x81b
 12609 07fe 12       		.uleb128 0x12
 12610 07ff 4A130000 		.4byte	.LASF142
 12611 0803 01       		.byte	0x1
 12612 0804 44       		.byte	0x44
 12613 0805 DF070000 		.4byte	0x7df
 12614 0809 02       		.uleb128 0x2
 12615 080a 91       		.byte	0x91
 12616 080b 6C       		.sleb128 -20
 12617 080c 13       		.uleb128 0x13
 12618 080d 31020000 		.4byte	.LASF143
 12619 0811 01       		.byte	0x1
 12620 0812 46       		.byte	0x46
 12621 0813 D5010000 		.4byte	0x1d5
 12622 0817 02       		.uleb128 0x2
 12623 0818 91       		.byte	0x91
 12624 0819 77       		.sleb128 -9
 12625 081a 00       		.byte	0
 12626 081b 14       		.uleb128 0x14
 12627 081c 850B0000 		.4byte	.LASF144
 12628 0820 01       		.byte	0x1
 12629 0821 54       		.byte	0x54
 12630 0822 D5010000 		.4byte	0x1d5
 12631 0826 00000000 		.4byte	.LFB3
 12632 082a 4E000000 		.4byte	.LFE3-.LFB3
 12633 082e 01       		.uleb128 0x1
 12634 082f 9C       		.byte	0x9c
 12635 0830 7B080000 		.4byte	0x87b
 12636 0834 15       		.uleb128 0x15
 12637 0835 44657600 		.ascii	"Dev\000"
 12638 0839 01       		.byte	0x1
 12639 083a 54       		.byte	0x54
 12640 083b 98070000 		.4byte	0x798
 12641 083f 02       		.uleb128 0x2
 12642 0840 91       		.byte	0x91
 12643 0841 64       		.sleb128 -28
 12644 0842 12       		.uleb128 0x12
 12645 0843 EB0C0000 		.4byte	.LASF145
 12646 0847 01       		.byte	0x1
 12647 0848 55       		.byte	0x55
 12648 0849 BD060000 		.4byte	0x6bd
 12649 084d 02       		.uleb128 0x2
 12650 084e 91       		.byte	0x91
 12651 084f 60       		.sleb128 -32
 12652 0850 12       		.uleb128 0x12
 12653 0851 BB120000 		.4byte	.LASF146
 12654 0855 01       		.byte	0x1
 12655 0856 55       		.byte	0x55
 12656 0857 BD060000 		.4byte	0x6bd
ARM GAS  C:\Users\ilya\AppData\Local\Temp\ccpEIuqL.s 			page 277


 12657 085b 02       		.uleb128 0x2
 12658 085c 91       		.byte	0x91
 12659 085d 5C       		.sleb128 -36
 12660 085e 13       		.uleb128 0x13
 12661 085f 31020000 		.4byte	.LASF143
 12662 0863 01       		.byte	0x1
 12663 0864 57       		.byte	0x57
 12664 0865 D5010000 		.4byte	0x1d5
 12665 0869 02       		.uleb128 0x2
 12666 086a 91       		.byte	0x91
 12667 086b 6F       		.sleb128 -17
 12668 086c 13       		.uleb128 0x13
 12669 086d C2160000 		.4byte	.LASF147
 12670 0871 01       		.byte	0x1
 12671 0872 58       		.byte	0x58
 12672 0873 B8000000 		.4byte	0xb8
 12673 0877 02       		.uleb128 0x2
 12674 0878 91       		.byte	0x91
 12675 0879 6E       		.sleb128 -18
 12676 087a 00       		.byte	0
 12677 087b 14       		.uleb128 0x14
 12678 087c B2110000 		.4byte	.LASF148
 12679 0880 01       		.byte	0x1
 12680 0881 66       		.byte	0x66
 12681 0882 D5010000 		.4byte	0x1d5
 12682 0886 00000000 		.4byte	.LFB4
 12683 088a 36000000 		.4byte	.LFE4-.LFB4
 12684 088e 01       		.uleb128 0x1
 12685 088f 9C       		.byte	0x9c
 12686 0890 BF080000 		.4byte	0x8bf
 12687 0894 15       		.uleb128 0x15
 12688 0895 44657600 		.ascii	"Dev\000"
 12689 0899 01       		.byte	0x1
 12690 089a 66       		.byte	0x66
 12691 089b 98070000 		.4byte	0x798
 12692 089f 02       		.uleb128 0x2
 12693 08a0 91       		.byte	0x91
 12694 08a1 64       		.sleb128 -28
 12695 08a2 12       		.uleb128 0x12
 12696 08a3 1A030000 		.4byte	.LASF149
 12697 08a7 01       		.byte	0x1
 12698 08a8 67       		.byte	0x67
 12699 08a9 BF080000 		.4byte	0x8bf
 12700 08ad 02       		.uleb128 0x2
 12701 08ae 91       		.byte	0x91
 12702 08af 60       		.sleb128 -32
 12703 08b0 13       		.uleb128 0x13
 12704 08b1 31020000 		.4byte	.LASF143
 12705 08b5 01       		.byte	0x1
 12706 08b6 69       		.byte	0x69
 12707 08b7 D5010000 		.4byte	0x1d5
 12708 08bb 02       		.uleb128 0x2
 12709 08bc 91       		.byte	0x91
 12710 08bd 6F       		.sleb128 -17
 12711 08be 00       		.byte	0
 12712 08bf 0E       		.uleb128 0xe
 12713 08c0 04       		.byte	0x4
ARM GAS  C:\Users\ilya\AppData\Local\Temp\ccpEIuqL.s 			page 278


 12714 08c1 CA010000 		.4byte	0x1ca
 12715 08c5 14       		.uleb128 0x14
 12716 08c6 95050000 		.4byte	.LASF150
 12717 08ca 01       		.byte	0x1
 12718 08cb 72       		.byte	0x72
 12719 08cc D5010000 		.4byte	0x1d5
 12720 08d0 00000000 		.4byte	.LFB5
 12721 08d4 4C000000 		.4byte	.LFE5-.LFB5
 12722 08d8 01       		.uleb128 0x1
 12723 08d9 9C       		.byte	0x9c
 12724 08da 17090000 		.4byte	0x917
 12725 08de 15       		.uleb128 0x15
 12726 08df 44657600 		.ascii	"Dev\000"
 12727 08e3 01       		.byte	0x1
 12728 08e4 72       		.byte	0x72
 12729 08e5 98070000 		.4byte	0x798
 12730 08e9 02       		.uleb128 0x2
 12731 08ea 91       		.byte	0x91
 12732 08eb 64       		.sleb128 -28
 12733 08ec 12       		.uleb128 0x12
 12734 08ed D71A0000 		.4byte	.LASF151
 12735 08f1 01       		.byte	0x1
 12736 08f2 73       		.byte	0x73
 12737 08f3 17090000 		.4byte	0x917
 12738 08f7 02       		.uleb128 0x2
 12739 08f8 91       		.byte	0x91
 12740 08f9 60       		.sleb128 -32
 12741 08fa 13       		.uleb128 0x13
 12742 08fb 31020000 		.4byte	.LASF143
 12743 08ff 01       		.byte	0x1
 12744 0900 75       		.byte	0x75
 12745 0901 D5010000 		.4byte	0x1d5
 12746 0905 02       		.uleb128 0x2
 12747 0906 91       		.byte	0x91
 12748 0907 6F       		.sleb128 -17
 12749 0908 13       		.uleb128 0x13
 12750 0909 14100000 		.4byte	.LASF69
 12751 090d 01       		.byte	0x1
 12752 090e 76       		.byte	0x76
 12753 090f B8000000 		.4byte	0xb8
 12754 0913 02       		.uleb128 0x2
 12755 0914 91       		.byte	0x91
 12756 0915 6E       		.sleb128 -18
 12757 0916 00       		.byte	0
 12758 0917 0E       		.uleb128 0xe
 12759 0918 04       		.byte	0x4
 12760 0919 01010000 		.4byte	0x101
 12761 091d 14       		.uleb128 0x14
 12762 091e 2A040000 		.4byte	.LASF152
 12763 0922 01       		.byte	0x1
 12764 0923 84       		.byte	0x84
 12765 0924 D5010000 		.4byte	0x1d5
 12766 0928 00000000 		.4byte	.LFB6
 12767 092c 3C000000 		.4byte	.LFE6-.LFB6
 12768 0930 01       		.uleb128 0x1
 12769 0931 9C       		.byte	0x9c
 12770 0932 61090000 		.4byte	0x961
ARM GAS  C:\Users\ilya\AppData\Local\Temp\ccpEIuqL.s 			page 279


 12771 0936 12       		.uleb128 0x12
 12772 0937 65120000 		.4byte	.LASF153
 12773 093b 01       		.byte	0x1
 12774 093c 84       		.byte	0x84
 12775 093d 01010000 		.4byte	0x101
 12776 0941 02       		.uleb128 0x2
 12777 0942 91       		.byte	0x91
 12778 0943 67       		.sleb128 -25
 12779 0944 12       		.uleb128 0x12
 12780 0945 FD190000 		.4byte	.LASF154
 12781 0949 01       		.byte	0x1
 12782 094a 85       		.byte	0x85
 12783 094b 4A070000 		.4byte	0x74a
 12784 094f 02       		.uleb128 0x2
 12785 0950 91       		.byte	0x91
 12786 0951 60       		.sleb128 -32
 12787 0952 13       		.uleb128 0x13
 12788 0953 31020000 		.4byte	.LASF143
 12789 0957 01       		.byte	0x1
 12790 0958 87       		.byte	0x87
 12791 0959 D5010000 		.4byte	0x1d5
 12792 095d 02       		.uleb128 0x2
 12793 095e 91       		.byte	0x91
 12794 095f 6F       		.sleb128 -17
 12795 0960 00       		.byte	0
 12796 0961 14       		.uleb128 0x14
 12797 0962 8A1D0000 		.4byte	.LASF155
 12798 0966 01       		.byte	0x1
 12799 0967 91       		.byte	0x91
 12800 0968 D5010000 		.4byte	0x1d5
 12801 096c 00000000 		.4byte	.LFB7
 12802 0970 3C000000 		.4byte	.LFE7-.LFB7
 12803 0974 01       		.uleb128 0x1
 12804 0975 9C       		.byte	0x9c
 12805 0976 A5090000 		.4byte	0x9a5
 12806 097a 12       		.uleb128 0x12
 12807 097b 14100000 		.4byte	.LASF69
 12808 097f 01       		.byte	0x1
 12809 0980 91       		.byte	0x91
 12810 0981 B8000000 		.4byte	0xb8
 12811 0985 02       		.uleb128 0x2
 12812 0986 91       		.byte	0x91
 12813 0987 67       		.sleb128 -25
 12814 0988 12       		.uleb128 0x12
 12815 0989 42060000 		.4byte	.LASF156
 12816 098d 01       		.byte	0x1
 12817 098e 92       		.byte	0x92
 12818 098f 4A070000 		.4byte	0x74a
 12819 0993 02       		.uleb128 0x2
 12820 0994 91       		.byte	0x91
 12821 0995 60       		.sleb128 -32
 12822 0996 13       		.uleb128 0x13
 12823 0997 31020000 		.4byte	.LASF143
 12824 099b 01       		.byte	0x1
 12825 099c 94       		.byte	0x94
 12826 099d D5010000 		.4byte	0x1d5
 12827 09a1 02       		.uleb128 0x2
ARM GAS  C:\Users\ilya\AppData\Local\Temp\ccpEIuqL.s 			page 280


 12828 09a2 91       		.byte	0x91
 12829 09a3 6F       		.sleb128 -17
 12830 09a4 00       		.byte	0
 12831 09a5 14       		.uleb128 0x14
 12832 09a6 A31B0000 		.4byte	.LASF157
 12833 09aa 01       		.byte	0x1
 12834 09ab 9E       		.byte	0x9e
 12835 09ac D5010000 		.4byte	0x1d5
 12836 09b0 00000000 		.4byte	.LFB8
 12837 09b4 3E000000 		.4byte	.LFE8-.LFB8
 12838 09b8 01       		.uleb128 0x1
 12839 09b9 9C       		.byte	0x9c
 12840 09ba E9090000 		.4byte	0x9e9
 12841 09be 12       		.uleb128 0x12
 12842 09bf 32140000 		.4byte	.LASF158
 12843 09c3 01       		.byte	0x1
 12844 09c4 9E       		.byte	0x9e
 12845 09c5 D5010000 		.4byte	0x1d5
 12846 09c9 02       		.uleb128 0x2
 12847 09ca 91       		.byte	0x91
 12848 09cb 67       		.sleb128 -25
 12849 09cc 12       		.uleb128 0x12
 12850 09cd BB1C0000 		.4byte	.LASF159
 12851 09d1 01       		.byte	0x1
 12852 09d2 9F       		.byte	0x9f
 12853 09d3 4A070000 		.4byte	0x74a
 12854 09d7 02       		.uleb128 0x2
 12855 09d8 91       		.byte	0x91
 12856 09d9 60       		.sleb128 -32
 12857 09da 13       		.uleb128 0x13
 12858 09db 31020000 		.4byte	.LASF143
 12859 09df 01       		.byte	0x1
 12860 09e0 A1       		.byte	0xa1
 12861 09e1 D5010000 		.4byte	0x1d5
 12862 09e5 02       		.uleb128 0x2
 12863 09e6 91       		.byte	0x91
 12864 09e7 6F       		.sleb128 -17
 12865 09e8 00       		.byte	0
 12866 09e9 14       		.uleb128 0x14
 12867 09ea ED120000 		.4byte	.LASF160
 12868 09ee 01       		.byte	0x1
 12869 09ef AA       		.byte	0xaa
 12870 09f0 D5010000 		.4byte	0x1d5
 12871 09f4 00000000 		.4byte	.LFB9
 12872 09f8 3C000000 		.4byte	.LFE9-.LFB9
 12873 09fc 01       		.uleb128 0x1
 12874 09fd 9C       		.byte	0x9c
 12875 09fe 2D0A0000 		.4byte	0xa2d
 12876 0a02 12       		.uleb128 0x12
 12877 0a03 07100000 		.4byte	.LASF161
 12878 0a07 01       		.byte	0x1
 12879 0a08 AA       		.byte	0xaa
 12880 0a09 C9020000 		.4byte	0x2c9
 12881 0a0d 02       		.uleb128 0x2
 12882 0a0e 91       		.byte	0x91
 12883 0a0f 67       		.sleb128 -25
 12884 0a10 12       		.uleb128 0x12
ARM GAS  C:\Users\ilya\AppData\Local\Temp\ccpEIuqL.s 			page 281


 12885 0a11 081B0000 		.4byte	.LASF162
 12886 0a15 01       		.byte	0x1
 12887 0a16 AB       		.byte	0xab
 12888 0a17 4A070000 		.4byte	0x74a
 12889 0a1b 02       		.uleb128 0x2
 12890 0a1c 91       		.byte	0x91
 12891 0a1d 60       		.sleb128 -32
 12892 0a1e 13       		.uleb128 0x13
 12893 0a1f 31020000 		.4byte	.LASF143
 12894 0a23 01       		.byte	0x1
 12895 0a24 AD       		.byte	0xad
 12896 0a25 D5010000 		.4byte	0x1d5
 12897 0a29 02       		.uleb128 0x2
 12898 0a2a 91       		.byte	0x91
 12899 0a2b 6F       		.sleb128 -17
 12900 0a2c 00       		.byte	0
 12901 0a2d 11       		.uleb128 0x11
 12902 0a2e C9000000 		.4byte	.LASF163
 12903 0a32 01       		.byte	0x1
 12904 0a33 B6       		.byte	0xb6
 12905 0a34 D5010000 		.4byte	0x1d5
 12906 0a38 00000000 		.4byte	.LFB10
 12907 0a3c 2E000000 		.4byte	.LFE10-.LFB10
 12908 0a40 01       		.uleb128 0x1
 12909 0a41 9C       		.byte	0x9c
 12910 0a42 710A0000 		.4byte	0xa71
 12911 0a46 15       		.uleb128 0x15
 12912 0a47 44657600 		.ascii	"Dev\000"
 12913 0a4b 01       		.byte	0x1
 12914 0a4c B6       		.byte	0xb6
 12915 0a4d 98070000 		.4byte	0x798
 12916 0a51 02       		.uleb128 0x2
 12917 0a52 91       		.byte	0x91
 12918 0a53 6C       		.sleb128 -20
 12919 0a54 12       		.uleb128 0x12
 12920 0a55 991B0000 		.4byte	.LASF164
 12921 0a59 01       		.byte	0x1
 12922 0a5a B6       		.byte	0xb6
 12923 0a5b 710A0000 		.4byte	0xa71
 12924 0a5f 02       		.uleb128 0x2
 12925 0a60 91       		.byte	0x91
 12926 0a61 68       		.sleb128 -24
 12927 0a62 13       		.uleb128 0x13
 12928 0a63 31020000 		.4byte	.LASF143
 12929 0a67 01       		.byte	0x1
 12930 0a68 B8       		.byte	0xb8
 12931 0a69 D5010000 		.4byte	0x1d5
 12932 0a6d 02       		.uleb128 0x2
 12933 0a6e 91       		.byte	0x91
 12934 0a6f 77       		.sleb128 -9
 12935 0a70 00       		.byte	0
 12936 0a71 0E       		.uleb128 0xe
 12937 0a72 04       		.byte	0x4
 12938 0a73 C9020000 		.4byte	0x2c9
 12939 0a77 14       		.uleb128 0x14
 12940 0a78 96140000 		.4byte	.LASF165
 12941 0a7c 01       		.byte	0x1
ARM GAS  C:\Users\ilya\AppData\Local\Temp\ccpEIuqL.s 			page 282


 12942 0a7d C1       		.byte	0xc1
 12943 0a7e D5010000 		.4byte	0x1d5
 12944 0a82 00000000 		.4byte	.LFB11
 12945 0a86 C4000000 		.4byte	.LFE11-.LFB11
 12946 0a8a 01       		.uleb128 0x1
 12947 0a8b 9C       		.byte	0x9c
 12948 0a8c BB0A0000 		.4byte	0xabb
 12949 0a90 15       		.uleb128 0x15
 12950 0a91 44657600 		.ascii	"Dev\000"
 12951 0a95 01       		.byte	0x1
 12952 0a96 C1       		.byte	0xc1
 12953 0a97 98070000 		.4byte	0x798
 12954 0a9b 02       		.uleb128 0x2
 12955 0a9c 91       		.byte	0x91
 12956 0a9d 64       		.sleb128 -28
 12957 0a9e 12       		.uleb128 0x12
 12958 0a9f 3F050000 		.4byte	.LASF112
 12959 0aa3 01       		.byte	0x1
 12960 0aa4 C1       		.byte	0xc1
 12961 0aa5 F6010000 		.4byte	0x1f6
 12962 0aa9 02       		.uleb128 0x2
 12963 0aaa 91       		.byte	0x91
 12964 0aab 63       		.sleb128 -29
 12965 0aac 13       		.uleb128 0x13
 12966 0aad 31020000 		.4byte	.LASF143
 12967 0ab1 01       		.byte	0x1
 12968 0ab2 C3       		.byte	0xc3
 12969 0ab3 D5010000 		.4byte	0x1d5
 12970 0ab7 02       		.uleb128 0x2
 12971 0ab8 91       		.byte	0x91
 12972 0ab9 6F       		.sleb128 -17
 12973 0aba 00       		.byte	0
 12974 0abb 14       		.uleb128 0x14
 12975 0abc 6C100000 		.4byte	.LASF166
 12976 0ac0 01       		.byte	0x1
 12977 0ac1 E4       		.byte	0xe4
 12978 0ac2 D5010000 		.4byte	0x1d5
 12979 0ac6 00000000 		.4byte	.LFB12
 12980 0aca 64000000 		.4byte	.LFE12-.LFB12
 12981 0ace 01       		.uleb128 0x1
 12982 0acf 9C       		.byte	0x9c
 12983 0ad0 0D0B0000 		.4byte	0xb0d
 12984 0ad4 15       		.uleb128 0x15
 12985 0ad5 44657600 		.ascii	"Dev\000"
 12986 0ad9 01       		.byte	0x1
 12987 0ada E4       		.byte	0xe4
 12988 0adb 98070000 		.4byte	0x798
 12989 0adf 02       		.uleb128 0x2
 12990 0ae0 91       		.byte	0x91
 12991 0ae1 64       		.sleb128 -28
 12992 0ae2 12       		.uleb128 0x12
 12993 0ae3 801C0000 		.4byte	.LASF167
 12994 0ae7 01       		.byte	0x1
 12995 0ae8 E4       		.byte	0xe4
 12996 0ae9 0D0B0000 		.4byte	0xb0d
 12997 0aed 02       		.uleb128 0x2
 12998 0aee 91       		.byte	0x91
ARM GAS  C:\Users\ilya\AppData\Local\Temp\ccpEIuqL.s 			page 283


 12999 0aef 60       		.sleb128 -32
 13000 0af0 13       		.uleb128 0x13
 13001 0af1 31020000 		.4byte	.LASF143
 13002 0af5 01       		.byte	0x1
 13003 0af6 E6       		.byte	0xe6
 13004 0af7 D5010000 		.4byte	0x1d5
 13005 0afb 02       		.uleb128 0x2
 13006 0afc 91       		.byte	0x91
 13007 0afd 6F       		.sleb128 -17
 13008 0afe 13       		.uleb128 0x13
 13009 0aff ED0B0000 		.4byte	.LASF168
 13010 0b03 01       		.byte	0x1
 13011 0b04 E7       		.byte	0xe7
 13012 0b05 B8000000 		.4byte	0xb8
 13013 0b09 02       		.uleb128 0x2
 13014 0b0a 91       		.byte	0x91
 13015 0b0b 6E       		.sleb128 -18
 13016 0b0c 00       		.byte	0
 13017 0b0d 0E       		.uleb128 0xe
 13018 0b0e 04       		.byte	0x4
 13019 0b0f F6010000 		.4byte	0x1f6
 13020 0b13 14       		.uleb128 0x14
 13021 0b14 49160000 		.4byte	.LASF169
 13022 0b18 01       		.byte	0x1
 13023 0b19 FB       		.byte	0xfb
 13024 0b1a D5010000 		.4byte	0x1d5
 13025 0b1e 00000000 		.4byte	.LFB13
 13026 0b22 36000000 		.4byte	.LFE13-.LFB13
 13027 0b26 01       		.uleb128 0x1
 13028 0b27 9C       		.byte	0x9c
 13029 0b28 570B0000 		.4byte	0xb57
 13030 0b2c 15       		.uleb128 0x15
 13031 0b2d 44657600 		.ascii	"Dev\000"
 13032 0b31 01       		.byte	0x1
 13033 0b32 FB       		.byte	0xfb
 13034 0b33 98070000 		.4byte	0x798
 13035 0b37 02       		.uleb128 0x2
 13036 0b38 91       		.byte	0x91
 13037 0b39 64       		.sleb128 -28
 13038 0b3a 12       		.uleb128 0x12
 13039 0b3b 9E0F0000 		.4byte	.LASF170
 13040 0b3f 01       		.byte	0x1
 13041 0b40 FC       		.byte	0xfc
 13042 0b41 D9000000 		.4byte	0xd9
 13043 0b45 02       		.uleb128 0x2
 13044 0b46 91       		.byte	0x91
 13045 0b47 60       		.sleb128 -32
 13046 0b48 13       		.uleb128 0x13
 13047 0b49 31020000 		.4byte	.LASF143
 13048 0b4d 01       		.byte	0x1
 13049 0b4e FE       		.byte	0xfe
 13050 0b4f D5010000 		.4byte	0x1d5
 13051 0b53 02       		.uleb128 0x2
 13052 0b54 91       		.byte	0x91
 13053 0b55 6F       		.sleb128 -17
 13054 0b56 00       		.byte	0
 13055 0b57 16       		.uleb128 0x16
ARM GAS  C:\Users\ilya\AppData\Local\Temp\ccpEIuqL.s 			page 284


 13056 0b58 D1170000 		.4byte	.LASF171
 13057 0b5c 01       		.byte	0x1
 13058 0b5d 0801     		.2byte	0x108
 13059 0b5f D5010000 		.4byte	0x1d5
 13060 0b63 00000000 		.4byte	.LFB14
 13061 0b67 36000000 		.4byte	.LFE14-.LFB14
 13062 0b6b 01       		.uleb128 0x1
 13063 0b6c 9C       		.byte	0x9c
 13064 0b6d 9F0B0000 		.4byte	0xb9f
 13065 0b71 17       		.uleb128 0x17
 13066 0b72 44657600 		.ascii	"Dev\000"
 13067 0b76 01       		.byte	0x1
 13068 0b77 0801     		.2byte	0x108
 13069 0b79 98070000 		.4byte	0x798
 13070 0b7d 02       		.uleb128 0x2
 13071 0b7e 91       		.byte	0x91
 13072 0b7f 64       		.sleb128 -28
 13073 0b80 18       		.uleb128 0x18
 13074 0b81 36010000 		.4byte	.LASF172
 13075 0b85 01       		.byte	0x1
 13076 0b86 0901     		.2byte	0x109
 13077 0b88 9F0B0000 		.4byte	0xb9f
 13078 0b8c 02       		.uleb128 0x2
 13079 0b8d 91       		.byte	0x91
 13080 0b8e 60       		.sleb128 -32
 13081 0b8f 19       		.uleb128 0x19
 13082 0b90 31020000 		.4byte	.LASF143
 13083 0b94 01       		.byte	0x1
 13084 0b95 0B01     		.2byte	0x10b
 13085 0b97 D5010000 		.4byte	0x1d5
 13086 0b9b 02       		.uleb128 0x2
 13087 0b9c 91       		.byte	0x91
 13088 0b9d 6F       		.sleb128 -17
 13089 0b9e 00       		.byte	0
 13090 0b9f 0E       		.uleb128 0xe
 13091 0ba0 04       		.byte	0x4
 13092 0ba1 D9000000 		.4byte	0xd9
 13093 0ba5 16       		.uleb128 0x16
 13094 0ba6 020F0000 		.4byte	.LASF173
 13095 0baa 01       		.byte	0x1
 13096 0bab 1501     		.2byte	0x115
 13097 0bad D5010000 		.4byte	0x1d5
 13098 0bb1 00000000 		.4byte	.LFB15
 13099 0bb5 76000000 		.4byte	.LFE15-.LFB15
 13100 0bb9 01       		.uleb128 0x1
 13101 0bba 9C       		.byte	0x9c
 13102 0bbb ED0B0000 		.4byte	0xbed
 13103 0bbf 17       		.uleb128 0x17
 13104 0bc0 44657600 		.ascii	"Dev\000"
 13105 0bc4 01       		.byte	0x1
 13106 0bc5 1501     		.2byte	0x115
 13107 0bc7 98070000 		.4byte	0x798
 13108 0bcb 02       		.uleb128 0x2
 13109 0bcc 91       		.byte	0x91
 13110 0bcd 64       		.sleb128 -28
 13111 0bce 18       		.uleb128 0x18
 13112 0bcf 920A0000 		.4byte	.LASF120
ARM GAS  C:\Users\ilya\AppData\Local\Temp\ccpEIuqL.s 			page 285


 13113 0bd3 01       		.byte	0x1
 13114 0bd4 1601     		.2byte	0x116
 13115 0bd6 C3000000 		.4byte	0xc3
 13116 0bda 02       		.uleb128 0x2
 13117 0bdb 91       		.byte	0x91
 13118 0bdc 62       		.sleb128 -30
 13119 0bdd 19       		.uleb128 0x19
 13120 0bde 31020000 		.4byte	.LASF143
 13121 0be2 01       		.byte	0x1
 13122 0be3 1801     		.2byte	0x118
 13123 0be5 D5010000 		.4byte	0x1d5
 13124 0be9 02       		.uleb128 0x2
 13125 0bea 91       		.byte	0x91
 13126 0beb 6F       		.sleb128 -17
 13127 0bec 00       		.byte	0
 13128 0bed 1A       		.uleb128 0x1a
 13129 0bee 9F150000 		.4byte	.LASF174
 13130 0bf2 01       		.byte	0x1
 13131 0bf3 2C01     		.2byte	0x12c
 13132 0bf5 D5010000 		.4byte	0x1d5
 13133 0bf9 00000000 		.4byte	.LFB16
 13134 0bfd 2E000000 		.4byte	.LFE16-.LFB16
 13135 0c01 01       		.uleb128 0x1
 13136 0c02 9C       		.byte	0x9c
 13137 0c03 350C0000 		.4byte	0xc35
 13138 0c07 17       		.uleb128 0x17
 13139 0c08 44657600 		.ascii	"Dev\000"
 13140 0c0c 01       		.byte	0x1
 13141 0c0d 2C01     		.2byte	0x12c
 13142 0c0f 98070000 		.4byte	0x798
 13143 0c13 02       		.uleb128 0x2
 13144 0c14 91       		.byte	0x91
 13145 0c15 6C       		.sleb128 -20
 13146 0c16 18       		.uleb128 0x18
 13147 0c17 2F1A0000 		.4byte	.LASF175
 13148 0c1b 01       		.byte	0x1
 13149 0c1c 2D01     		.2byte	0x12d
 13150 0c1e 350C0000 		.4byte	0xc35
 13151 0c22 02       		.uleb128 0x2
 13152 0c23 91       		.byte	0x91
 13153 0c24 68       		.sleb128 -24
 13154 0c25 19       		.uleb128 0x19
 13155 0c26 31020000 		.4byte	.LASF143
 13156 0c2a 01       		.byte	0x1
 13157 0c2b 2F01     		.2byte	0x12f
 13158 0c2d D5010000 		.4byte	0x1d5
 13159 0c31 02       		.uleb128 0x2
 13160 0c32 91       		.byte	0x91
 13161 0c33 77       		.sleb128 -9
 13162 0c34 00       		.byte	0
 13163 0c35 0E       		.uleb128 0xe
 13164 0c36 04       		.byte	0x4
 13165 0c37 CE000000 		.4byte	0xce
 13166 0c3b 1A       		.uleb128 0x1a
 13167 0c3c 3B150000 		.4byte	.LASF176
 13168 0c40 01       		.byte	0x1
 13169 0c41 3801     		.2byte	0x138
ARM GAS  C:\Users\ilya\AppData\Local\Temp\ccpEIuqL.s 			page 286


 13170 0c43 D5010000 		.4byte	0x1d5
 13171 0c47 00000000 		.4byte	.LFB17
 13172 0c4b 26000000 		.4byte	.LFE17-.LFB17
 13173 0c4f 01       		.uleb128 0x1
 13174 0c50 9C       		.byte	0x9c
 13175 0c51 830C0000 		.4byte	0xc83
 13176 0c55 17       		.uleb128 0x17
 13177 0c56 44657600 		.ascii	"Dev\000"
 13178 0c5a 01       		.byte	0x1
 13179 0c5b 3801     		.2byte	0x138
 13180 0c5d 98070000 		.4byte	0x798
 13181 0c61 02       		.uleb128 0x2
 13182 0c62 91       		.byte	0x91
 13183 0c63 6C       		.sleb128 -20
 13184 0c64 18       		.uleb128 0x18
 13185 0c65 F3180000 		.4byte	.LASF177
 13186 0c69 01       		.byte	0x1
 13187 0c6a 3801     		.2byte	0x138
 13188 0c6c B8000000 		.4byte	0xb8
 13189 0c70 02       		.uleb128 0x2
 13190 0c71 91       		.byte	0x91
 13191 0c72 6B       		.sleb128 -21
 13192 0c73 19       		.uleb128 0x19
 13193 0c74 31020000 		.4byte	.LASF143
 13194 0c78 01       		.byte	0x1
 13195 0c79 3A01     		.2byte	0x13a
 13196 0c7b D5010000 		.4byte	0x1d5
 13197 0c7f 02       		.uleb128 0x2
 13198 0c80 91       		.byte	0x91
 13199 0c81 77       		.sleb128 -9
 13200 0c82 00       		.byte	0
 13201 0c83 1A       		.uleb128 0x1a
 13202 0c84 BE0F0000 		.4byte	.LASF178
 13203 0c88 01       		.byte	0x1
 13204 0c89 4301     		.2byte	0x143
 13205 0c8b D5010000 		.4byte	0x1d5
 13206 0c8f 00000000 		.4byte	.LFB18
 13207 0c93 22000000 		.4byte	.LFE18-.LFB18
 13208 0c97 01       		.uleb128 0x1
 13209 0c98 9C       		.byte	0x9c
 13210 0c99 CB0C0000 		.4byte	0xccb
 13211 0c9d 17       		.uleb128 0x17
 13212 0c9e 44657600 		.ascii	"Dev\000"
 13213 0ca2 01       		.byte	0x1
 13214 0ca3 4301     		.2byte	0x143
 13215 0ca5 98070000 		.4byte	0x798
 13216 0ca9 02       		.uleb128 0x2
 13217 0caa 91       		.byte	0x91
 13218 0cab 6C       		.sleb128 -20
 13219 0cac 18       		.uleb128 0x18
 13220 0cad 1C190000 		.4byte	.LASF179
 13221 0cb1 01       		.byte	0x1
 13222 0cb2 4401     		.2byte	0x144
 13223 0cb4 350C0000 		.4byte	0xc35
 13224 0cb8 02       		.uleb128 0x2
 13225 0cb9 91       		.byte	0x91
 13226 0cba 68       		.sleb128 -24
ARM GAS  C:\Users\ilya\AppData\Local\Temp\ccpEIuqL.s 			page 287


 13227 0cbb 19       		.uleb128 0x19
 13228 0cbc 31020000 		.4byte	.LASF143
 13229 0cc0 01       		.byte	0x1
 13230 0cc1 4601     		.2byte	0x146
 13231 0cc3 D5010000 		.4byte	0x1d5
 13232 0cc7 02       		.uleb128 0x2
 13233 0cc8 91       		.byte	0x91
 13234 0cc9 77       		.sleb128 -9
 13235 0cca 00       		.byte	0
 13236 0ccb 16       		.uleb128 0x16
 13237 0ccc 37090000 		.4byte	.LASF180
 13238 0cd0 01       		.byte	0x1
 13239 0cd1 4F01     		.2byte	0x14f
 13240 0cd3 D5010000 		.4byte	0x1d5
 13241 0cd7 00000000 		.4byte	.LFB19
 13242 0cdb 4C000000 		.4byte	.LFE19-.LFB19
 13243 0cdf 01       		.uleb128 0x1
 13244 0ce0 9C       		.byte	0x9c
 13245 0ce1 220D0000 		.4byte	0xd22
 13246 0ce5 17       		.uleb128 0x17
 13247 0ce6 44657600 		.ascii	"Dev\000"
 13248 0cea 01       		.byte	0x1
 13249 0ceb 4F01     		.2byte	0x14f
 13250 0ced 98070000 		.4byte	0x798
 13251 0cf1 02       		.uleb128 0x2
 13252 0cf2 91       		.byte	0x91
 13253 0cf3 4C       		.sleb128 -52
 13254 0cf4 18       		.uleb128 0x18
 13255 0cf5 54120000 		.4byte	.LASF181
 13256 0cf9 01       		.byte	0x1
 13257 0cfa 5001     		.2byte	0x150
 13258 0cfc 220D0000 		.4byte	0xd22
 13259 0d00 02       		.uleb128 0x2
 13260 0d01 91       		.byte	0x91
 13261 0d02 48       		.sleb128 -56
 13262 0d03 19       		.uleb128 0x19
 13263 0d04 31020000 		.4byte	.LASF143
 13264 0d08 01       		.byte	0x1
 13265 0d09 5201     		.2byte	0x152
 13266 0d0b D5010000 		.4byte	0x1d5
 13267 0d0f 02       		.uleb128 0x2
 13268 0d10 91       		.byte	0x91
 13269 0d11 6F       		.sleb128 -17
 13270 0d12 19       		.uleb128 0x19
 13271 0d13 640D0000 		.4byte	.LASF182
 13272 0d17 01       		.byte	0x1
 13273 0d18 5301     		.2byte	0x153
 13274 0d1a 91030000 		.4byte	0x391
 13275 0d1e 02       		.uleb128 0x2
 13276 0d1f 91       		.byte	0x91
 13277 0d20 50       		.sleb128 -48
 13278 0d21 00       		.byte	0
 13279 0d22 0E       		.uleb128 0xe
 13280 0d23 04       		.byte	0x4
 13281 0d24 F6000000 		.4byte	0xf6
 13282 0d28 16       		.uleb128 0x16
 13283 0d29 C2150000 		.4byte	.LASF183
ARM GAS  C:\Users\ilya\AppData\Local\Temp\ccpEIuqL.s 			page 288


 13284 0d2d 01       		.byte	0x1
 13285 0d2e 6301     		.2byte	0x163
 13286 0d30 D5010000 		.4byte	0x1d5
 13287 0d34 00000000 		.4byte	.LFB20
 13288 0d38 40000000 		.4byte	.LFE20-.LFB20
 13289 0d3c 01       		.uleb128 0x1
 13290 0d3d 9C       		.byte	0x9c
 13291 0d3e 700D0000 		.4byte	0xd70
 13292 0d42 17       		.uleb128 0x17
 13293 0d43 44657600 		.ascii	"Dev\000"
 13294 0d47 01       		.byte	0x1
 13295 0d48 6301     		.2byte	0x163
 13296 0d4a 98070000 		.4byte	0x798
 13297 0d4e 02       		.uleb128 0x2
 13298 0d4f 91       		.byte	0x91
 13299 0d50 64       		.sleb128 -28
 13300 0d51 18       		.uleb128 0x18
 13301 0d52 780C0000 		.4byte	.LASF184
 13302 0d56 01       		.byte	0x1
 13303 0d57 6301     		.2byte	0x163
 13304 0d59 B8000000 		.4byte	0xb8
 13305 0d5d 02       		.uleb128 0x2
 13306 0d5e 91       		.byte	0x91
 13307 0d5f 63       		.sleb128 -29
 13308 0d60 19       		.uleb128 0x19
 13309 0d61 31020000 		.4byte	.LASF143
 13310 0d65 01       		.byte	0x1
 13311 0d66 6501     		.2byte	0x165
 13312 0d68 D5010000 		.4byte	0x1d5
 13313 0d6c 02       		.uleb128 0x2
 13314 0d6d 91       		.byte	0x91
 13315 0d6e 6F       		.sleb128 -17
 13316 0d6f 00       		.byte	0
 13317 0d70 16       		.uleb128 0x16
 13318 0d71 85140000 		.4byte	.LASF185
 13319 0d75 01       		.byte	0x1
 13320 0d76 6F01     		.2byte	0x16f
 13321 0d78 D5010000 		.4byte	0x1d5
 13322 0d7c 00000000 		.4byte	.LFB21
 13323 0d80 70030000 		.4byte	.LFE21-.LFB21
 13324 0d84 01       		.uleb128 0x1
 13325 0d85 9C       		.byte	0x9c
 13326 0d86 D70D0000 		.4byte	0xdd7
 13327 0d8a 17       		.uleb128 0x17
 13328 0d8b 44657600 		.ascii	"Dev\000"
 13329 0d8f 01       		.byte	0x1
 13330 0d90 6F01     		.2byte	0x16f
 13331 0d92 98070000 		.4byte	0x798
 13332 0d96 03       		.uleb128 0x3
 13333 0d97 91       		.byte	0x91
 13334 0d98 9C7F     		.sleb128 -100
 13335 0d9a 19       		.uleb128 0x19
 13336 0d9b 31020000 		.4byte	.LASF143
 13337 0d9f 01       		.byte	0x1
 13338 0da0 7101     		.2byte	0x171
 13339 0da2 D5010000 		.4byte	0x1d5
 13340 0da6 02       		.uleb128 0x2
ARM GAS  C:\Users\ilya\AppData\Local\Temp\ccpEIuqL.s 			page 289


 13341 0da7 91       		.byte	0x91
 13342 0da8 6F       		.sleb128 -17
 13343 0da9 19       		.uleb128 0x19
 13344 0daa 4B180000 		.4byte	.LASF104
 13345 0dae 01       		.byte	0x1
 13346 0daf 7201     		.2byte	0x172
 13347 0db1 BD020000 		.4byte	0x2bd
 13348 0db5 03       		.uleb128 0x3
 13349 0db6 91       		.byte	0x91
 13350 0db7 A87F     		.sleb128 -88
 13351 0db9 1B       		.uleb128 0x1b
 13352 0dba 6900     		.ascii	"i\000"
 13353 0dbc 01       		.byte	0x1
 13354 0dbd 7301     		.2byte	0x173
 13355 0dbf 9F000000 		.4byte	0x9f
 13356 0dc3 02       		.uleb128 0x2
 13357 0dc4 91       		.byte	0x91
 13358 0dc5 68       		.sleb128 -24
 13359 0dc6 19       		.uleb128 0x19
 13360 0dc7 DE0C0000 		.4byte	.LASF113
 13361 0dcb 01       		.byte	0x1
 13362 0dcc 7401     		.2byte	0x174
 13363 0dce B8000000 		.4byte	0xb8
 13364 0dd2 03       		.uleb128 0x3
 13365 0dd3 91       		.byte	0x91
 13366 0dd4 A77F     		.sleb128 -89
 13367 0dd6 00       		.byte	0
 13368 0dd7 1A       		.uleb128 0x1a
 13369 0dd8 AE020000 		.4byte	.LASF186
 13370 0ddc 01       		.byte	0x1
 13371 0ddd FC01     		.2byte	0x1fc
 13372 0ddf D5010000 		.4byte	0x1d5
 13373 0de3 00000000 		.4byte	.LFB22
 13374 0de7 60000000 		.4byte	.LFE22-.LFB22
 13375 0deb 01       		.uleb128 0x1
 13376 0dec 9C       		.byte	0x9c
 13377 0ded 2E0E0000 		.4byte	0xe2e
 13378 0df1 17       		.uleb128 0x17
 13379 0df2 44657600 		.ascii	"Dev\000"
 13380 0df6 01       		.byte	0x1
 13381 0df7 FC01     		.2byte	0x1fc
 13382 0df9 98070000 		.4byte	0x798
 13383 0dfd 02       		.uleb128 0x2
 13384 0dfe 91       		.byte	0x91
 13385 0dff 6C       		.sleb128 -20
 13386 0e00 18       		.uleb128 0x18
 13387 0e01 DC0E0000 		.4byte	.LASF187
 13388 0e05 01       		.byte	0x1
 13389 0e06 FD01     		.2byte	0x1fd
 13390 0e08 BD060000 		.4byte	0x6bd
 13391 0e0c 02       		.uleb128 0x2
 13392 0e0d 91       		.byte	0x91
 13393 0e0e 68       		.sleb128 -24
 13394 0e0f 18       		.uleb128 0x18
 13395 0e10 380A0000 		.4byte	.LASF119
 13396 0e14 01       		.byte	0x1
 13397 0e15 FD01     		.2byte	0x1fd
ARM GAS  C:\Users\ilya\AppData\Local\Temp\ccpEIuqL.s 			page 290


 13398 0e17 B8000000 		.4byte	0xb8
 13399 0e1b 02       		.uleb128 0x2
 13400 0e1c 91       		.byte	0x91
 13401 0e1d 67       		.sleb128 -25
 13402 0e1e 19       		.uleb128 0x19
 13403 0e1f 31020000 		.4byte	.LASF143
 13404 0e23 01       		.byte	0x1
 13405 0e24 FF01     		.2byte	0x1ff
 13406 0e26 D5010000 		.4byte	0x1d5
 13407 0e2a 02       		.uleb128 0x2
 13408 0e2b 91       		.byte	0x91
 13409 0e2c 77       		.sleb128 -9
 13410 0e2d 00       		.byte	0
 13411 0e2e 1A       		.uleb128 0x1a
 13412 0e2f 5F060000 		.4byte	.LASF188
 13413 0e33 01       		.byte	0x1
 13414 0e34 1702     		.2byte	0x217
 13415 0e36 D5010000 		.4byte	0x1d5
 13416 0e3a 00000000 		.4byte	.LFB23
 13417 0e3e 3C000000 		.4byte	.LFE23-.LFB23
 13418 0e42 01       		.uleb128 0x1
 13419 0e43 9C       		.byte	0x9c
 13420 0e44 850E0000 		.4byte	0xe85
 13421 0e48 17       		.uleb128 0x17
 13422 0e49 44657600 		.ascii	"Dev\000"
 13423 0e4d 01       		.byte	0x1
 13424 0e4e 1702     		.2byte	0x217
 13425 0e50 98070000 		.4byte	0x798
 13426 0e54 02       		.uleb128 0x2
 13427 0e55 91       		.byte	0x91
 13428 0e56 6C       		.sleb128 -20
 13429 0e57 18       		.uleb128 0x18
 13430 0e58 A71D0000 		.4byte	.LASF189
 13431 0e5c 01       		.byte	0x1
 13432 0e5d 1802     		.2byte	0x218
 13433 0e5f 850E0000 		.4byte	0xe85
 13434 0e63 02       		.uleb128 0x2
 13435 0e64 91       		.byte	0x91
 13436 0e65 68       		.sleb128 -24
 13437 0e66 18       		.uleb128 0x18
 13438 0e67 AE0E0000 		.4byte	.LASF190
 13439 0e6b 01       		.byte	0x1
 13440 0e6c 1802     		.2byte	0x218
 13441 0e6e BD060000 		.4byte	0x6bd
 13442 0e72 02       		.uleb128 0x2
 13443 0e73 91       		.byte	0x91
 13444 0e74 64       		.sleb128 -28
 13445 0e75 19       		.uleb128 0x19
 13446 0e76 31020000 		.4byte	.LASF143
 13447 0e7a 01       		.byte	0x1
 13448 0e7b 1A02     		.2byte	0x21a
 13449 0e7d D5010000 		.4byte	0x1d5
 13450 0e81 02       		.uleb128 0x2
 13451 0e82 91       		.byte	0x91
 13452 0e83 77       		.sleb128 -9
 13453 0e84 00       		.byte	0
 13454 0e85 0E       		.uleb128 0xe
ARM GAS  C:\Users\ilya\AppData\Local\Temp\ccpEIuqL.s 			page 291


 13455 0e86 04       		.byte	0x4
 13456 0e87 BD060000 		.4byte	0x6bd
 13457 0e8b 16       		.uleb128 0x16
 13458 0e8c 8F190000 		.4byte	.LASF191
 13459 0e90 01       		.byte	0x1
 13460 0e91 2602     		.2byte	0x226
 13461 0e93 D5010000 		.4byte	0x1d5
 13462 0e97 00000000 		.4byte	.LFB24
 13463 0e9b D0030000 		.4byte	.LFE24-.LFB24
 13464 0e9f 01       		.uleb128 0x1
 13465 0ea0 9C       		.byte	0x9c
 13466 0ea1 710F0000 		.4byte	0xf71
 13467 0ea5 17       		.uleb128 0x17
 13468 0ea6 44657600 		.ascii	"Dev\000"
 13469 0eaa 01       		.byte	0x1
 13470 0eab 2602     		.2byte	0x226
 13471 0ead 98070000 		.4byte	0x798
 13472 0eb1 03       		.uleb128 0x3
 13473 0eb2 91       		.byte	0x91
 13474 0eb3 847F     		.sleb128 -124
 13475 0eb5 19       		.uleb128 0x19
 13476 0eb6 31020000 		.4byte	.LASF143
 13477 0eba 01       		.byte	0x1
 13478 0ebb 2802     		.2byte	0x228
 13479 0ebd D5010000 		.4byte	0x1d5
 13480 0ec1 02       		.uleb128 0x2
 13481 0ec2 91       		.byte	0x91
 13482 0ec3 6F       		.sleb128 -17
 13483 0ec4 19       		.uleb128 0x19
 13484 0ec5 4B180000 		.4byte	.LASF104
 13485 0ec9 01       		.byte	0x1
 13486 0eca 2902     		.2byte	0x229
 13487 0ecc BD020000 		.4byte	0x2bd
 13488 0ed0 03       		.uleb128 0x3
 13489 0ed1 91       		.byte	0x91
 13490 0ed2 9C7F     		.sleb128 -100
 13491 0ed4 19       		.uleb128 0x19
 13492 0ed5 DC0E0000 		.4byte	.LASF187
 13493 0ed9 01       		.byte	0x1
 13494 0eda 2A02     		.2byte	0x22a
 13495 0edc BD060000 		.4byte	0x6bd
 13496 0ee0 02       		.uleb128 0x2
 13497 0ee1 91       		.byte	0x91
 13498 0ee2 68       		.sleb128 -24
 13499 0ee3 19       		.uleb128 0x19
 13500 0ee4 76020000 		.4byte	.LASF192
 13501 0ee8 01       		.byte	0x1
 13502 0ee9 2B02     		.2byte	0x22b
 13503 0eeb CE000000 		.4byte	0xce
 13504 0eef 03       		.uleb128 0x3
 13505 0ef0 91       		.byte	0x91
 13506 0ef1 9A7F     		.sleb128 -102
 13507 0ef3 19       		.uleb128 0x19
 13508 0ef4 B1010000 		.4byte	.LASF193
 13509 0ef8 01       		.byte	0x1
 13510 0ef9 2C02     		.2byte	0x22c
 13511 0efb B8000000 		.4byte	0xb8
ARM GAS  C:\Users\ilya\AppData\Local\Temp\ccpEIuqL.s 			page 292


 13512 0eff 03       		.uleb128 0x3
 13513 0f00 91       		.byte	0x91
 13514 0f01 997F     		.sleb128 -103
 13515 0f03 19       		.uleb128 0x19
 13516 0f04 380A0000 		.4byte	.LASF119
 13517 0f08 01       		.byte	0x1
 13518 0f09 2D02     		.2byte	0x22d
 13519 0f0b B8000000 		.4byte	0xb8
 13520 0f0f 02       		.uleb128 0x2
 13521 0f10 91       		.byte	0x91
 13522 0f11 67       		.sleb128 -25
 13523 0f12 19       		.uleb128 0x19
 13524 0f13 1B080000 		.4byte	.LASF194
 13525 0f17 01       		.byte	0x1
 13526 0f18 2E02     		.2byte	0x22e
 13527 0f1a E4000000 		.4byte	0xe4
 13528 0f1e 02       		.uleb128 0x2
 13529 0f1f 91       		.byte	0x91
 13530 0f20 60       		.sleb128 -32
 13531 0f21 19       		.uleb128 0x19
 13532 0f22 28130000 		.4byte	.LASF195
 13533 0f26 01       		.byte	0x1
 13534 0f27 2F02     		.2byte	0x22f
 13535 0f29 B8000000 		.4byte	0xb8
 13536 0f2d 03       		.uleb128 0x3
 13537 0f2e 91       		.byte	0x91
 13538 0f2f 987F     		.sleb128 -104
 13539 0f31 19       		.uleb128 0x19
 13540 0f32 860E0000 		.4byte	.LASF196
 13541 0f36 01       		.byte	0x1
 13542 0f37 3002     		.2byte	0x230
 13543 0f39 E4000000 		.4byte	0xe4
 13544 0f3d 03       		.uleb128 0x3
 13545 0f3e 91       		.byte	0x91
 13546 0f3f 947F     		.sleb128 -108
 13547 0f41 19       		.uleb128 0x19
 13548 0f42 14170000 		.4byte	.LASF197
 13549 0f46 01       		.byte	0x1
 13550 0f47 3102     		.2byte	0x231
 13551 0f49 B8000000 		.4byte	0xb8
 13552 0f4d 02       		.uleb128 0x2
 13553 0f4e 91       		.byte	0x91
 13554 0f4f 5F       		.sleb128 -33
 13555 0f50 19       		.uleb128 0x19
 13556 0f51 49110000 		.4byte	.LASF198
 13557 0f55 01       		.byte	0x1
 13558 0f56 3202     		.2byte	0x232
 13559 0f58 B8000000 		.4byte	0xb8
 13560 0f5c 03       		.uleb128 0x3
 13561 0f5d 91       		.byte	0x91
 13562 0f5e 937F     		.sleb128 -109
 13563 0f60 19       		.uleb128 0x19
 13564 0f61 D6090000 		.4byte	.LASF199
 13565 0f65 01       		.byte	0x1
 13566 0f66 3302     		.2byte	0x233
 13567 0f68 E4000000 		.4byte	0xe4
 13568 0f6c 03       		.uleb128 0x3
ARM GAS  C:\Users\ilya\AppData\Local\Temp\ccpEIuqL.s 			page 293


 13569 0f6d 91       		.byte	0x91
 13570 0f6e 8C7F     		.sleb128 -116
 13571 0f70 00       		.byte	0
 13572 0f71 1A       		.uleb128 0x1a
 13573 0f72 3C030000 		.4byte	.LASF200
 13574 0f76 01       		.byte	0x1
 13575 0f77 D902     		.2byte	0x2d9
 13576 0f79 D5010000 		.4byte	0x1d5
 13577 0f7d 00000000 		.4byte	.LFB25
 13578 0f81 20000000 		.4byte	.LFE25-.LFB25
 13579 0f85 01       		.uleb128 0x1
 13580 0f86 9C       		.byte	0x9c
 13581 0f87 AA0F0000 		.4byte	0xfaa
 13582 0f8b 17       		.uleb128 0x17
 13583 0f8c 44657600 		.ascii	"Dev\000"
 13584 0f90 01       		.byte	0x1
 13585 0f91 D902     		.2byte	0x2d9
 13586 0f93 98070000 		.4byte	0x798
 13587 0f97 02       		.uleb128 0x2
 13588 0f98 91       		.byte	0x91
 13589 0f99 6C       		.sleb128 -20
 13590 0f9a 19       		.uleb128 0x19
 13591 0f9b 31020000 		.4byte	.LASF143
 13592 0f9f 01       		.byte	0x1
 13593 0fa0 DB02     		.2byte	0x2db
 13594 0fa2 D5010000 		.4byte	0x1d5
 13595 0fa6 02       		.uleb128 0x2
 13596 0fa7 91       		.byte	0x91
 13597 0fa8 77       		.sleb128 -9
 13598 0fa9 00       		.byte	0
 13599 0faa 16       		.uleb128 0x16
 13600 0fab 7B190000 		.4byte	.LASF201
 13601 0faf 01       		.byte	0x1
 13602 0fb0 E402     		.2byte	0x2e4
 13603 0fb2 D5010000 		.4byte	0x1d5
 13604 0fb6 00000000 		.4byte	.LFB26
 13605 0fba C6000000 		.4byte	.LFE26-.LFB26
 13606 0fbe 01       		.uleb128 0x1
 13607 0fbf 9C       		.byte	0x9c
 13608 0fc0 F20F0000 		.4byte	0xff2
 13609 0fc4 17       		.uleb128 0x17
 13610 0fc5 44657600 		.ascii	"Dev\000"
 13611 0fc9 01       		.byte	0x1
 13612 0fca E402     		.2byte	0x2e4
 13613 0fcc 98070000 		.4byte	0x798
 13614 0fd0 02       		.uleb128 0x2
 13615 0fd1 91       		.byte	0x91
 13616 0fd2 64       		.sleb128 -28
 13617 0fd3 19       		.uleb128 0x19
 13618 0fd4 31020000 		.4byte	.LASF143
 13619 0fd8 01       		.byte	0x1
 13620 0fd9 E602     		.2byte	0x2e6
 13621 0fdb D5010000 		.4byte	0x1d5
 13622 0fdf 02       		.uleb128 0x2
 13623 0fe0 91       		.byte	0x91
 13624 0fe1 6F       		.sleb128 -17
 13625 0fe2 19       		.uleb128 0x19
ARM GAS  C:\Users\ilya\AppData\Local\Temp\ccpEIuqL.s 			page 294


 13626 0fe3 ED0B0000 		.4byte	.LASF168
 13627 0fe7 01       		.byte	0x1
 13628 0fe8 E702     		.2byte	0x2e7
 13629 0fea B8000000 		.4byte	0xb8
 13630 0fee 02       		.uleb128 0x2
 13631 0fef 91       		.byte	0x91
 13632 0ff0 6E       		.sleb128 -18
 13633 0ff1 00       		.byte	0
 13634 0ff2 16       		.uleb128 0x16
 13635 0ff3 AD0D0000 		.4byte	.LASF202
 13636 0ff7 01       		.byte	0x1
 13637 0ff8 1103     		.2byte	0x311
 13638 0ffa D5010000 		.4byte	0x1d5
 13639 0ffe 00000000 		.4byte	.LFB27
 13640 1002 6A010000 		.4byte	.LFE27-.LFB27
 13641 1006 01       		.uleb128 0x1
 13642 1007 9C       		.byte	0x9c
 13643 1008 47100000 		.4byte	0x1047
 13644 100c 17       		.uleb128 0x17
 13645 100d 44657600 		.ascii	"Dev\000"
 13646 1011 01       		.byte	0x1
 13647 1012 1103     		.2byte	0x311
 13648 1014 98070000 		.4byte	0x798
 13649 1018 02       		.uleb128 0x2
 13650 1019 91       		.byte	0x91
 13651 101a 64       		.sleb128 -28
 13652 101b 18       		.uleb128 0x18
 13653 101c 38130000 		.4byte	.LASF203
 13654 1020 01       		.byte	0x1
 13655 1021 1203     		.2byte	0x312
 13656 1023 47100000 		.4byte	0x1047
 13657 1027 02       		.uleb128 0x2
 13658 1028 91       		.byte	0x91
 13659 1029 60       		.sleb128 -32
 13660 102a 19       		.uleb128 0x19
 13661 102b 31020000 		.4byte	.LASF143
 13662 102f 01       		.byte	0x1
 13663 1030 1403     		.2byte	0x314
 13664 1032 D5010000 		.4byte	0x1d5
 13665 1036 02       		.uleb128 0x2
 13666 1037 91       		.byte	0x91
 13667 1038 6F       		.sleb128 -17
 13668 1039 1B       		.uleb128 0x1b
 13669 103a 6900     		.ascii	"i\000"
 13670 103c 01       		.byte	0x1
 13671 103d 1503     		.2byte	0x315
 13672 103f 9F000000 		.4byte	0x9f
 13673 1043 02       		.uleb128 0x2
 13674 1044 91       		.byte	0x91
 13675 1045 68       		.sleb128 -24
 13676 1046 00       		.byte	0
 13677 1047 0E       		.uleb128 0xe
 13678 1048 04       		.byte	0x4
 13679 1049 4D100000 		.4byte	0x104d
 13680 104d 1C       		.uleb128 0x1c
 13681 104e BD020000 		.4byte	0x2bd
 13682 1052 16       		.uleb128 0x16
ARM GAS  C:\Users\ilya\AppData\Local\Temp\ccpEIuqL.s 			page 295


 13683 1053 8F040000 		.4byte	.LASF204
 13684 1057 01       		.byte	0x1
 13685 1058 4403     		.2byte	0x344
 13686 105a D5010000 		.4byte	0x1d5
 13687 105e 00000000 		.4byte	.LFB28
 13688 1062 88010000 		.4byte	.LFE28-.LFB28
 13689 1066 01       		.uleb128 0x1
 13690 1067 9C       		.byte	0x9c
 13691 1068 A7100000 		.4byte	0x10a7
 13692 106c 17       		.uleb128 0x17
 13693 106d 44657600 		.ascii	"Dev\000"
 13694 1071 01       		.byte	0x1
 13695 1072 4403     		.2byte	0x344
 13696 1074 98070000 		.4byte	0x798
 13697 1078 02       		.uleb128 0x2
 13698 1079 91       		.byte	0x91
 13699 107a 64       		.sleb128 -28
 13700 107b 18       		.uleb128 0x18
 13701 107c 38130000 		.4byte	.LASF203
 13702 1080 01       		.byte	0x1
 13703 1081 4503     		.2byte	0x345
 13704 1083 A7100000 		.4byte	0x10a7
 13705 1087 02       		.uleb128 0x2
 13706 1088 91       		.byte	0x91
 13707 1089 60       		.sleb128 -32
 13708 108a 19       		.uleb128 0x19
 13709 108b 31020000 		.4byte	.LASF143
 13710 108f 01       		.byte	0x1
 13711 1090 4703     		.2byte	0x347
 13712 1092 D5010000 		.4byte	0x1d5
 13713 1096 02       		.uleb128 0x2
 13714 1097 91       		.byte	0x91
 13715 1098 6F       		.sleb128 -17
 13716 1099 1B       		.uleb128 0x1b
 13717 109a 6900     		.ascii	"i\000"
 13718 109c 01       		.byte	0x1
 13719 109d 4803     		.2byte	0x348
 13720 109f 9F000000 		.4byte	0x9f
 13721 10a3 02       		.uleb128 0x2
 13722 10a4 91       		.byte	0x91
 13723 10a5 68       		.sleb128 -24
 13724 10a6 00       		.byte	0
 13725 10a7 0E       		.uleb128 0xe
 13726 10a8 04       		.byte	0x4
 13727 10a9 BD020000 		.4byte	0x2bd
 13728 10ad 1A       		.uleb128 0x1a
 13729 10ae 261D0000 		.4byte	.LASF205
 13730 10b2 01       		.byte	0x1
 13731 10b3 8403     		.2byte	0x384
 13732 10b5 D5010000 		.4byte	0x1d5
 13733 10b9 00000000 		.4byte	.LFB29
 13734 10bd 50000000 		.4byte	.LFE29-.LFB29
 13735 10c1 01       		.uleb128 0x1
 13736 10c2 9C       		.byte	0x9c
 13737 10c3 F5100000 		.4byte	0x10f5
 13738 10c7 17       		.uleb128 0x17
 13739 10c8 44657600 		.ascii	"Dev\000"
ARM GAS  C:\Users\ilya\AppData\Local\Temp\ccpEIuqL.s 			page 296


 13740 10cc 01       		.byte	0x1
 13741 10cd 8403     		.2byte	0x384
 13742 10cf 98070000 		.4byte	0x798
 13743 10d3 02       		.uleb128 0x2
 13744 10d4 91       		.byte	0x91
 13745 10d5 6C       		.sleb128 -20
 13746 10d6 18       		.uleb128 0x18
 13747 10d7 65130000 		.4byte	.LASF43
 13748 10db 01       		.byte	0x1
 13749 10dc 8403     		.2byte	0x384
 13750 10de E0010000 		.4byte	0x1e0
 13751 10e2 02       		.uleb128 0x2
 13752 10e3 91       		.byte	0x91
 13753 10e4 6B       		.sleb128 -21
 13754 10e5 19       		.uleb128 0x19
 13755 10e6 31020000 		.4byte	.LASF143
 13756 10ea 01       		.byte	0x1
 13757 10eb 8603     		.2byte	0x386
 13758 10ed D5010000 		.4byte	0x1d5
 13759 10f1 02       		.uleb128 0x2
 13760 10f2 91       		.byte	0x91
 13761 10f3 77       		.sleb128 -9
 13762 10f4 00       		.byte	0
 13763 10f5 1A       		.uleb128 0x1a
 13764 10f6 E3030000 		.4byte	.LASF206
 13765 10fa 01       		.byte	0x1
 13766 10fb 9C03     		.2byte	0x39c
 13767 10fd D5010000 		.4byte	0x1d5
 13768 1101 00000000 		.4byte	.LFB30
 13769 1105 2A000000 		.4byte	.LFE30-.LFB30
 13770 1109 01       		.uleb128 0x1
 13771 110a 9C       		.byte	0x9c
 13772 110b 3D110000 		.4byte	0x113d
 13773 110f 17       		.uleb128 0x17
 13774 1110 44657600 		.ascii	"Dev\000"
 13775 1114 01       		.byte	0x1
 13776 1115 9C03     		.2byte	0x39c
 13777 1117 98070000 		.4byte	0x798
 13778 111b 02       		.uleb128 0x2
 13779 111c 91       		.byte	0x91
 13780 111d 6C       		.sleb128 -20
 13781 111e 18       		.uleb128 0x18
 13782 111f 4F170000 		.4byte	.LASF207
 13783 1123 01       		.byte	0x1
 13784 1124 9D03     		.2byte	0x39d
 13785 1126 3D110000 		.4byte	0x113d
 13786 112a 02       		.uleb128 0x2
 13787 112b 91       		.byte	0x91
 13788 112c 68       		.sleb128 -24
 13789 112d 19       		.uleb128 0x19
 13790 112e 31020000 		.4byte	.LASF143
 13791 1132 01       		.byte	0x1
 13792 1133 9F03     		.2byte	0x39f
 13793 1135 D5010000 		.4byte	0x1d5
 13794 1139 02       		.uleb128 0x2
 13795 113a 91       		.byte	0x91
 13796 113b 77       		.sleb128 -9
ARM GAS  C:\Users\ilya\AppData\Local\Temp\ccpEIuqL.s 			page 297


 13797 113c 00       		.byte	0
 13798 113d 0E       		.uleb128 0xe
 13799 113e 04       		.byte	0x4
 13800 113f E0010000 		.4byte	0x1e0
 13801 1143 16       		.uleb128 0x16
 13802 1144 BD040000 		.4byte	.LASF208
 13803 1148 01       		.byte	0x1
 13804 1149 A803     		.2byte	0x3a8
 13805 114b D5010000 		.4byte	0x1d5
 13806 114f 00000000 		.4byte	.LFB31
 13807 1153 54000000 		.4byte	.LFE31-.LFB31
 13808 1157 01       		.uleb128 0x1
 13809 1158 9C       		.byte	0x9c
 13810 1159 8B110000 		.4byte	0x118b
 13811 115d 17       		.uleb128 0x17
 13812 115e 44657600 		.ascii	"Dev\000"
 13813 1162 01       		.byte	0x1
 13814 1163 A803     		.2byte	0x3a8
 13815 1165 98070000 		.4byte	0x798
 13816 1169 02       		.uleb128 0x2
 13817 116a 91       		.byte	0x91
 13818 116b 64       		.sleb128 -28
 13819 116c 18       		.uleb128 0x18
 13820 116d 021C0000 		.4byte	.LASF209
 13821 1171 01       		.byte	0x1
 13822 1172 A803     		.2byte	0x3a8
 13823 1174 B8000000 		.4byte	0xb8
 13824 1178 02       		.uleb128 0x2
 13825 1179 91       		.byte	0x91
 13826 117a 63       		.sleb128 -29
 13827 117b 19       		.uleb128 0x19
 13828 117c 31020000 		.4byte	.LASF143
 13829 1180 01       		.byte	0x1
 13830 1181 AA03     		.2byte	0x3aa
 13831 1183 D5010000 		.4byte	0x1d5
 13832 1187 02       		.uleb128 0x2
 13833 1188 91       		.byte	0x91
 13834 1189 6F       		.sleb128 -17
 13835 118a 00       		.byte	0
 13836 118b 16       		.uleb128 0x16
 13837 118c 7F1B0000 		.4byte	.LASF210
 13838 1190 01       		.byte	0x1
 13839 1191 B703     		.2byte	0x3b7
 13840 1193 D5010000 		.4byte	0x1d5
 13841 1197 00000000 		.4byte	.LFB32
 13842 119b 50000000 		.4byte	.LFE32-.LFB32
 13843 119f 01       		.uleb128 0x1
 13844 11a0 9C       		.byte	0x9c
 13845 11a1 D3110000 		.4byte	0x11d3
 13846 11a5 17       		.uleb128 0x17
 13847 11a6 44657600 		.ascii	"Dev\000"
 13848 11aa 01       		.byte	0x1
 13849 11ab B703     		.2byte	0x3b7
 13850 11ad 98070000 		.4byte	0x798
 13851 11b1 02       		.uleb128 0x2
 13852 11b2 91       		.byte	0x91
 13853 11b3 64       		.sleb128 -28
ARM GAS  C:\Users\ilya\AppData\Local\Temp\ccpEIuqL.s 			page 298


 13854 11b4 18       		.uleb128 0x18
 13855 11b5 F10E0000 		.4byte	.LASF211
 13856 11b9 01       		.byte	0x1
 13857 11ba B703     		.2byte	0x3b7
 13858 11bc BD060000 		.4byte	0x6bd
 13859 11c0 02       		.uleb128 0x2
 13860 11c1 91       		.byte	0x91
 13861 11c2 60       		.sleb128 -32
 13862 11c3 19       		.uleb128 0x19
 13863 11c4 31020000 		.4byte	.LASF143
 13864 11c8 01       		.byte	0x1
 13865 11c9 B903     		.2byte	0x3b9
 13866 11cb D5010000 		.4byte	0x1d5
 13867 11cf 02       		.uleb128 0x2
 13868 11d0 91       		.byte	0x91
 13869 11d1 6F       		.sleb128 -17
 13870 11d2 00       		.byte	0
 13871 11d3 1A       		.uleb128 0x1a
 13872 11d4 850F0000 		.4byte	.LASF212
 13873 11d8 01       		.byte	0x1
 13874 11d9 C503     		.2byte	0x3c5
 13875 11db D5010000 		.4byte	0x1d5
 13876 11df 00000000 		.4byte	.LFB33
 13877 11e3 26000000 		.4byte	.LFE33-.LFB33
 13878 11e7 01       		.uleb128 0x1
 13879 11e8 9C       		.byte	0x9c
 13880 11e9 1B120000 		.4byte	0x121b
 13881 11ed 17       		.uleb128 0x17
 13882 11ee 44657600 		.ascii	"Dev\000"
 13883 11f2 01       		.byte	0x1
 13884 11f3 C503     		.2byte	0x3c5
 13885 11f5 98070000 		.4byte	0x798
 13886 11f9 02       		.uleb128 0x2
 13887 11fa 91       		.byte	0x91
 13888 11fb 6C       		.sleb128 -20
 13889 11fc 18       		.uleb128 0x18
 13890 11fd DD000000 		.4byte	.LASF44
 13891 1201 01       		.byte	0x1
 13892 1202 C603     		.2byte	0x3c6
 13893 1204 EB010000 		.4byte	0x1eb
 13894 1208 02       		.uleb128 0x2
 13895 1209 91       		.byte	0x91
 13896 120a 6B       		.sleb128 -21
 13897 120b 19       		.uleb128 0x19
 13898 120c 31020000 		.4byte	.LASF143
 13899 1210 01       		.byte	0x1
 13900 1211 C803     		.2byte	0x3c8
 13901 1213 D5010000 		.4byte	0x1d5
 13902 1217 02       		.uleb128 0x2
 13903 1218 91       		.byte	0x91
 13904 1219 77       		.sleb128 -9
 13905 121a 00       		.byte	0
 13906 121b 1A       		.uleb128 0x1a
 13907 121c 170B0000 		.4byte	.LASF213
 13908 1220 01       		.byte	0x1
 13909 1221 D103     		.2byte	0x3d1
 13910 1223 D5010000 		.4byte	0x1d5
ARM GAS  C:\Users\ilya\AppData\Local\Temp\ccpEIuqL.s 			page 299


 13911 1227 00000000 		.4byte	.LFB34
 13912 122b 22000000 		.4byte	.LFE34-.LFB34
 13913 122f 01       		.uleb128 0x1
 13914 1230 9C       		.byte	0x9c
 13915 1231 63120000 		.4byte	0x1263
 13916 1235 17       		.uleb128 0x17
 13917 1236 44657600 		.ascii	"Dev\000"
 13918 123a 01       		.byte	0x1
 13919 123b D103     		.2byte	0x3d1
 13920 123d 98070000 		.4byte	0x798
 13921 1241 02       		.uleb128 0x2
 13922 1242 91       		.byte	0x91
 13923 1243 6C       		.sleb128 -20
 13924 1244 18       		.uleb128 0x18
 13925 1245 38020000 		.4byte	.LASF214
 13926 1249 01       		.byte	0x1
 13927 124a D203     		.2byte	0x3d2
 13928 124c 63120000 		.4byte	0x1263
 13929 1250 02       		.uleb128 0x2
 13930 1251 91       		.byte	0x91
 13931 1252 68       		.sleb128 -24
 13932 1253 19       		.uleb128 0x19
 13933 1254 31020000 		.4byte	.LASF143
 13934 1258 01       		.byte	0x1
 13935 1259 D403     		.2byte	0x3d4
 13936 125b D5010000 		.4byte	0x1d5
 13937 125f 02       		.uleb128 0x2
 13938 1260 91       		.byte	0x91
 13939 1261 77       		.sleb128 -9
 13940 1262 00       		.byte	0
 13941 1263 0E       		.uleb128 0xe
 13942 1264 04       		.byte	0x4
 13943 1265 EB010000 		.4byte	0x1eb
 13944 1269 16       		.uleb128 0x16
 13945 126a 57010000 		.4byte	.LASF215
 13946 126e 01       		.byte	0x1
 13947 126f DD03     		.2byte	0x3dd
 13948 1271 D5010000 		.4byte	0x1d5
 13949 1275 00000000 		.4byte	.LFB35
 13950 1279 36000000 		.4byte	.LFE35-.LFB35
 13951 127d 01       		.uleb128 0x1
 13952 127e 9C       		.byte	0x9c
 13953 127f B1120000 		.4byte	0x12b1
 13954 1283 17       		.uleb128 0x17
 13955 1284 44657600 		.ascii	"Dev\000"
 13956 1288 01       		.byte	0x1
 13957 1289 DD03     		.2byte	0x3dd
 13958 128b 98070000 		.4byte	0x798
 13959 128f 02       		.uleb128 0x2
 13960 1290 91       		.byte	0x91
 13961 1291 64       		.sleb128 -28
 13962 1292 18       		.uleb128 0x18
 13963 1293 E00D0000 		.4byte	.LASF45
 13964 1297 01       		.byte	0x1
 13965 1298 DE03     		.2byte	0x3de
 13966 129a E4000000 		.4byte	0xe4
 13967 129e 02       		.uleb128 0x2
ARM GAS  C:\Users\ilya\AppData\Local\Temp\ccpEIuqL.s 			page 300


 13968 129f 91       		.byte	0x91
 13969 12a0 60       		.sleb128 -32
 13970 12a1 19       		.uleb128 0x19
 13971 12a2 31020000 		.4byte	.LASF143
 13972 12a6 01       		.byte	0x1
 13973 12a7 E003     		.2byte	0x3e0
 13974 12a9 D5010000 		.4byte	0x1d5
 13975 12ad 02       		.uleb128 0x2
 13976 12ae 91       		.byte	0x91
 13977 12af 6F       		.sleb128 -17
 13978 12b0 00       		.byte	0
 13979 12b1 16       		.uleb128 0x16
 13980 12b2 47020000 		.4byte	.LASF216
 13981 12b6 01       		.byte	0x1
 13982 12b7 EB03     		.2byte	0x3eb
 13983 12b9 D5010000 		.4byte	0x1d5
 13984 12bd 00000000 		.4byte	.LFB36
 13985 12c1 36000000 		.4byte	.LFE36-.LFB36
 13986 12c5 01       		.uleb128 0x1
 13987 12c6 9C       		.byte	0x9c
 13988 12c7 F9120000 		.4byte	0x12f9
 13989 12cb 17       		.uleb128 0x17
 13990 12cc 44657600 		.ascii	"Dev\000"
 13991 12d0 01       		.byte	0x1
 13992 12d1 EB03     		.2byte	0x3eb
 13993 12d3 98070000 		.4byte	0x798
 13994 12d7 02       		.uleb128 0x2
 13995 12d8 91       		.byte	0x91
 13996 12d9 64       		.sleb128 -28
 13997 12da 18       		.uleb128 0x18
 13998 12db 16160000 		.4byte	.LASF217
 13999 12df 01       		.byte	0x1
 14000 12e0 EC03     		.2byte	0x3ec
 14001 12e2 F9120000 		.4byte	0x12f9
 14002 12e6 02       		.uleb128 0x2
 14003 12e7 91       		.byte	0x91
 14004 12e8 60       		.sleb128 -32
 14005 12e9 19       		.uleb128 0x19
 14006 12ea 31020000 		.4byte	.LASF143
 14007 12ee 01       		.byte	0x1
 14008 12ef EE03     		.2byte	0x3ee
 14009 12f1 D5010000 		.4byte	0x1d5
 14010 12f5 02       		.uleb128 0x2
 14011 12f6 91       		.byte	0x91
 14012 12f7 6F       		.sleb128 -17
 14013 12f8 00       		.byte	0
 14014 12f9 0E       		.uleb128 0xe
 14015 12fa 04       		.byte	0x4
 14016 12fb E4000000 		.4byte	0xe4
 14017 12ff 16       		.uleb128 0x16
 14018 1300 0C1E0000 		.4byte	.LASF218
 14019 1304 01       		.byte	0x1
 14020 1305 F803     		.2byte	0x3f8
 14021 1307 D5010000 		.4byte	0x1d5
 14022 130b 00000000 		.4byte	.LFB37
 14023 130f 48000000 		.4byte	.LFE37-.LFB37
 14024 1313 01       		.uleb128 0x1
ARM GAS  C:\Users\ilya\AppData\Local\Temp\ccpEIuqL.s 			page 301


 14025 1314 9C       		.byte	0x9c
 14026 1315 56130000 		.4byte	0x1356
 14027 1319 17       		.uleb128 0x17
 14028 131a 44657600 		.ascii	"Dev\000"
 14029 131e 01       		.byte	0x1
 14030 131f F803     		.2byte	0x3f8
 14031 1321 98070000 		.4byte	0x798
 14032 1325 02       		.uleb128 0x2
 14033 1326 91       		.byte	0x91
 14034 1327 64       		.sleb128 -28
 14035 1328 18       		.uleb128 0x18
 14036 1329 22170000 		.4byte	.LASF219
 14037 132d 01       		.byte	0x1
 14038 132e F903     		.2byte	0x3f9
 14039 1330 DB060000 		.4byte	0x6db
 14040 1334 02       		.uleb128 0x2
 14041 1335 91       		.byte	0x91
 14042 1336 63       		.sleb128 -29
 14043 1337 18       		.uleb128 0x18
 14044 1338 040E0000 		.4byte	.LASF220
 14045 133c 01       		.byte	0x1
 14046 133d F903     		.2byte	0x3f9
 14047 133f B8000000 		.4byte	0xb8
 14048 1343 02       		.uleb128 0x2
 14049 1344 91       		.byte	0x91
 14050 1345 62       		.sleb128 -30
 14051 1346 19       		.uleb128 0x19
 14052 1347 31020000 		.4byte	.LASF143
 14053 134b 01       		.byte	0x1
 14054 134c FB03     		.2byte	0x3fb
 14055 134e D5010000 		.4byte	0x1d5
 14056 1352 02       		.uleb128 0x2
 14057 1353 91       		.byte	0x91
 14058 1354 6F       		.sleb128 -17
 14059 1355 00       		.byte	0
 14060 1356 16       		.uleb128 0x16
 14061 1357 AA0A0000 		.4byte	.LASF221
 14062 135b 01       		.byte	0x1
 14063 135c 0504     		.2byte	0x405
 14064 135e D5010000 		.4byte	0x1d5
 14065 1362 00000000 		.4byte	.LFB38
 14066 1366 42000000 		.4byte	.LFE38-.LFB38
 14067 136a 01       		.uleb128 0x1
 14068 136b 9C       		.byte	0x9c
 14069 136c AD130000 		.4byte	0x13ad
 14070 1370 17       		.uleb128 0x17
 14071 1371 44657600 		.ascii	"Dev\000"
 14072 1375 01       		.byte	0x1
 14073 1376 0504     		.2byte	0x405
 14074 1378 98070000 		.4byte	0x798
 14075 137c 02       		.uleb128 0x2
 14076 137d 91       		.byte	0x91
 14077 137e 64       		.sleb128 -28
 14078 137f 18       		.uleb128 0x18
 14079 1380 22170000 		.4byte	.LASF219
 14080 1384 01       		.byte	0x1
 14081 1385 0604     		.2byte	0x406
ARM GAS  C:\Users\ilya\AppData\Local\Temp\ccpEIuqL.s 			page 302


 14082 1387 DB060000 		.4byte	0x6db
 14083 138b 02       		.uleb128 0x2
 14084 138c 91       		.byte	0x91
 14085 138d 63       		.sleb128 -29
 14086 138e 18       		.uleb128 0x18
 14087 138f 1C150000 		.4byte	.LASF222
 14088 1393 01       		.byte	0x1
 14089 1394 0604     		.2byte	0x406
 14090 1396 BD060000 		.4byte	0x6bd
 14091 139a 02       		.uleb128 0x2
 14092 139b 91       		.byte	0x91
 14093 139c 5C       		.sleb128 -36
 14094 139d 19       		.uleb128 0x19
 14095 139e 31020000 		.4byte	.LASF143
 14096 13a2 01       		.byte	0x1
 14097 13a3 0804     		.2byte	0x408
 14098 13a5 D5010000 		.4byte	0x1d5
 14099 13a9 02       		.uleb128 0x2
 14100 13aa 91       		.byte	0x91
 14101 13ab 6F       		.sleb128 -17
 14102 13ac 00       		.byte	0
 14103 13ad 16       		.uleb128 0x16
 14104 13ae 83170000 		.4byte	.LASF223
 14105 13b2 01       		.byte	0x1
 14106 13b3 1204     		.2byte	0x412
 14107 13b5 D5010000 		.4byte	0x1d5
 14108 13b9 00000000 		.4byte	.LFB39
 14109 13bd D8010000 		.4byte	.LFE39-.LFB39
 14110 13c1 01       		.uleb128 0x1
 14111 13c2 9C       		.byte	0x9c
 14112 13c3 31140000 		.4byte	0x1431
 14113 13c7 17       		.uleb128 0x17
 14114 13c8 44657600 		.ascii	"Dev\000"
 14115 13cc 01       		.byte	0x1
 14116 13cd 1204     		.2byte	0x412
 14117 13cf 98070000 		.4byte	0x798
 14118 13d3 02       		.uleb128 0x2
 14119 13d4 91       		.byte	0x91
 14120 13d5 5C       		.sleb128 -36
 14121 13d6 18       		.uleb128 0x18
 14122 13d7 B4090000 		.4byte	.LASF224
 14123 13db 01       		.byte	0x1
 14124 13dc 1304     		.2byte	0x413
 14125 13de 3E070000 		.4byte	0x73e
 14126 13e2 02       		.uleb128 0x2
 14127 13e3 91       		.byte	0x91
 14128 13e4 5B       		.sleb128 -37
 14129 13e5 18       		.uleb128 0x18
 14130 13e6 9D080000 		.4byte	.LASF225
 14131 13ea 01       		.byte	0x1
 14132 13eb 1304     		.2byte	0x413
 14133 13ed B8000000 		.4byte	0xb8
 14134 13f1 02       		.uleb128 0x2
 14135 13f2 91       		.byte	0x91
 14136 13f3 5A       		.sleb128 -38
 14137 13f4 19       		.uleb128 0x19
 14138 13f5 31020000 		.4byte	.LASF143
ARM GAS  C:\Users\ilya\AppData\Local\Temp\ccpEIuqL.s 			page 303


 14139 13f9 01       		.byte	0x1
 14140 13fa 1504     		.2byte	0x415
 14141 13fc D5010000 		.4byte	0x1d5
 14142 1400 02       		.uleb128 0x2
 14143 1401 91       		.byte	0x91
 14144 1402 6F       		.sleb128 -17
 14145 1403 19       		.uleb128 0x19
 14146 1404 5E140000 		.4byte	.LASF109
 14147 1408 01       		.byte	0x1
 14148 1409 1604     		.2byte	0x416
 14149 140b B8000000 		.4byte	0xb8
 14150 140f 02       		.uleb128 0x2
 14151 1410 91       		.byte	0x91
 14152 1411 67       		.sleb128 -25
 14153 1412 19       		.uleb128 0x19
 14154 1413 F5050000 		.4byte	.LASF226
 14155 1417 01       		.byte	0x1
 14156 1418 1704     		.2byte	0x417
 14157 141a B8000000 		.4byte	0xb8
 14158 141e 02       		.uleb128 0x2
 14159 141f 91       		.byte	0x91
 14160 1420 6E       		.sleb128 -18
 14161 1421 19       		.uleb128 0x19
 14162 1422 E00D0000 		.4byte	.LASF45
 14163 1426 01       		.byte	0x1
 14164 1427 1804     		.2byte	0x418
 14165 1429 E4000000 		.4byte	0xe4
 14166 142d 02       		.uleb128 0x2
 14167 142e 91       		.byte	0x91
 14168 142f 68       		.sleb128 -24
 14169 1430 00       		.byte	0
 14170 1431 1A       		.uleb128 0x1a
 14171 1432 321B0000 		.4byte	.LASF227
 14172 1436 01       		.byte	0x1
 14173 1437 6B04     		.2byte	0x46b
 14174 1439 D5010000 		.4byte	0x1d5
 14175 143d 00000000 		.4byte	.LFB40
 14176 1441 C4000000 		.4byte	.LFE40-.LFB40
 14177 1445 01       		.uleb128 0x1
 14178 1446 9C       		.byte	0x9c
 14179 1447 97140000 		.4byte	0x1497
 14180 144b 17       		.uleb128 0x17
 14181 144c 44657600 		.ascii	"Dev\000"
 14182 1450 01       		.byte	0x1
 14183 1451 6B04     		.2byte	0x46b
 14184 1453 98070000 		.4byte	0x798
 14185 1457 02       		.uleb128 0x2
 14186 1458 91       		.byte	0x91
 14187 1459 6C       		.sleb128 -20
 14188 145a 18       		.uleb128 0x18
 14189 145b B4090000 		.4byte	.LASF224
 14190 145f 01       		.byte	0x1
 14191 1460 6C04     		.2byte	0x46c
 14192 1462 3E070000 		.4byte	0x73e
 14193 1466 02       		.uleb128 0x2
 14194 1467 91       		.byte	0x91
 14195 1468 6B       		.sleb128 -21
ARM GAS  C:\Users\ilya\AppData\Local\Temp\ccpEIuqL.s 			page 304


 14196 1469 18       		.uleb128 0x18
 14197 146a 5E140000 		.4byte	.LASF109
 14198 146e 01       		.byte	0x1
 14199 146f 6C04     		.2byte	0x46c
 14200 1471 B8000000 		.4byte	0xb8
 14201 1475 02       		.uleb128 0x2
 14202 1476 91       		.byte	0x91
 14203 1477 6A       		.sleb128 -22
 14204 1478 18       		.uleb128 0x18
 14205 1479 E51C0000 		.4byte	.LASF228
 14206 147d 01       		.byte	0x1
 14207 147e 6D04     		.2byte	0x46d
 14208 1480 BD060000 		.4byte	0x6bd
 14209 1484 02       		.uleb128 0x2
 14210 1485 91       		.byte	0x91
 14211 1486 64       		.sleb128 -28
 14212 1487 19       		.uleb128 0x19
 14213 1488 31020000 		.4byte	.LASF143
 14214 148c 01       		.byte	0x1
 14215 148d 6F04     		.2byte	0x46f
 14216 148f D5010000 		.4byte	0x1d5
 14217 1493 02       		.uleb128 0x2
 14218 1494 91       		.byte	0x91
 14219 1495 77       		.sleb128 -9
 14220 1496 00       		.byte	0
 14221 1497 16       		.uleb128 0x16
 14222 1498 EA090000 		.4byte	.LASF229
 14223 149c 01       		.byte	0x1
 14224 149d 8B04     		.2byte	0x48b
 14225 149f D5010000 		.4byte	0x1d5
 14226 14a3 00000000 		.4byte	.LFB41
 14227 14a7 72000000 		.4byte	.LFE41-.LFB41
 14228 14ab 01       		.uleb128 0x1
 14229 14ac 9C       		.byte	0x9c
 14230 14ad FD140000 		.4byte	0x14fd
 14231 14b1 17       		.uleb128 0x17
 14232 14b2 44657600 		.ascii	"Dev\000"
 14233 14b6 01       		.byte	0x1
 14234 14b7 8B04     		.2byte	0x48b
 14235 14b9 98070000 		.4byte	0x798
 14236 14bd 02       		.uleb128 0x2
 14237 14be 91       		.byte	0x91
 14238 14bf 64       		.sleb128 -28
 14239 14c0 18       		.uleb128 0x18
 14240 14c1 B4090000 		.4byte	.LASF224
 14241 14c5 01       		.byte	0x1
 14242 14c6 8C04     		.2byte	0x48c
 14243 14c8 3E070000 		.4byte	0x73e
 14244 14cc 02       		.uleb128 0x2
 14245 14cd 91       		.byte	0x91
 14246 14ce 63       		.sleb128 -29
 14247 14cf 18       		.uleb128 0x18
 14248 14d0 E51C0000 		.4byte	.LASF228
 14249 14d4 01       		.byte	0x1
 14250 14d5 8C04     		.2byte	0x48c
 14251 14d7 BD060000 		.4byte	0x6bd
 14252 14db 02       		.uleb128 0x2
ARM GAS  C:\Users\ilya\AppData\Local\Temp\ccpEIuqL.s 			page 305


 14253 14dc 91       		.byte	0x91
 14254 14dd 5C       		.sleb128 -36
 14255 14de 19       		.uleb128 0x19
 14256 14df 31020000 		.4byte	.LASF143
 14257 14e3 01       		.byte	0x1
 14258 14e4 8E04     		.2byte	0x48e
 14259 14e6 D5010000 		.4byte	0x1d5
 14260 14ea 02       		.uleb128 0x2
 14261 14eb 91       		.byte	0x91
 14262 14ec 6F       		.sleb128 -17
 14263 14ed 19       		.uleb128 0x19
 14264 14ee 5E140000 		.4byte	.LASF109
 14265 14f2 01       		.byte	0x1
 14266 14f3 8F04     		.2byte	0x48f
 14267 14f5 B8000000 		.4byte	0xb8
 14268 14f9 02       		.uleb128 0x2
 14269 14fa 91       		.byte	0x91
 14270 14fb 6E       		.sleb128 -18
 14271 14fc 00       		.byte	0
 14272 14fd 16       		.uleb128 0x16
 14273 14fe 5F0F0000 		.4byte	.LASF230
 14274 1502 01       		.byte	0x1
 14275 1503 9E04     		.2byte	0x49e
 14276 1505 D5010000 		.4byte	0x1d5
 14277 1509 00000000 		.4byte	.LFB42
 14278 150d FC000000 		.4byte	.LFE42-.LFB42
 14279 1511 01       		.uleb128 0x1
 14280 1512 9C       		.byte	0x9c
 14281 1513 54150000 		.4byte	0x1554
 14282 1517 17       		.uleb128 0x17
 14283 1518 44657600 		.ascii	"Dev\000"
 14284 151c 01       		.byte	0x1
 14285 151d 9E04     		.2byte	0x49e
 14286 151f 98070000 		.4byte	0x798
 14287 1523 02       		.uleb128 0x2
 14288 1524 91       		.byte	0x91
 14289 1525 64       		.sleb128 -28
 14290 1526 18       		.uleb128 0x18
 14291 1527 6D140000 		.4byte	.LASF231
 14292 152b 01       		.byte	0x1
 14293 152c 9F04     		.2byte	0x49f
 14294 152e 54150000 		.4byte	0x1554
 14295 1532 02       		.uleb128 0x2
 14296 1533 91       		.byte	0x91
 14297 1534 60       		.sleb128 -32
 14298 1535 19       		.uleb128 0x19
 14299 1536 31020000 		.4byte	.LASF143
 14300 153a 01       		.byte	0x1
 14301 153b A104     		.2byte	0x4a1
 14302 153d D5010000 		.4byte	0x1d5
 14303 1541 02       		.uleb128 0x2
 14304 1542 91       		.byte	0x91
 14305 1543 6F       		.sleb128 -17
 14306 1544 19       		.uleb128 0x19
 14307 1545 5E140000 		.4byte	.LASF109
 14308 1549 01       		.byte	0x1
 14309 154a A204     		.2byte	0x4a2
ARM GAS  C:\Users\ilya\AppData\Local\Temp\ccpEIuqL.s 			page 306


 14310 154c B8000000 		.4byte	0xb8
 14311 1550 02       		.uleb128 0x2
 14312 1551 91       		.byte	0x91
 14313 1552 6E       		.sleb128 -18
 14314 1553 00       		.byte	0
 14315 1554 0E       		.uleb128 0xe
 14316 1555 04       		.byte	0x4
 14317 1556 32070000 		.4byte	0x732
 14318 155a 1A       		.uleb128 0x1a
 14319 155b 5F080000 		.4byte	.LASF232
 14320 155f 01       		.byte	0x1
 14321 1560 C604     		.2byte	0x4c6
 14322 1562 D5010000 		.4byte	0x1d5
 14323 1566 00000000 		.4byte	.LFB43
 14324 156a 28000000 		.4byte	.LFE43-.LFB43
 14325 156e 01       		.uleb128 0x1
 14326 156f 9C       		.byte	0x9c
 14327 1570 A2150000 		.4byte	0x15a2
 14328 1574 17       		.uleb128 0x17
 14329 1575 44657600 		.ascii	"Dev\000"
 14330 1579 01       		.byte	0x1
 14331 157a C604     		.2byte	0x4c6
 14332 157c 98070000 		.4byte	0x798
 14333 1580 02       		.uleb128 0x2
 14334 1581 91       		.byte	0x91
 14335 1582 6C       		.sleb128 -20
 14336 1583 18       		.uleb128 0x18
 14337 1584 DC180000 		.4byte	.LASF233
 14338 1588 01       		.byte	0x1
 14339 1589 C704     		.2byte	0x4c7
 14340 158b BD060000 		.4byte	0x6bd
 14341 158f 02       		.uleb128 0x2
 14342 1590 91       		.byte	0x91
 14343 1591 68       		.sleb128 -24
 14344 1592 19       		.uleb128 0x19
 14345 1593 31020000 		.4byte	.LASF143
 14346 1597 01       		.byte	0x1
 14347 1598 C904     		.2byte	0x4c9
 14348 159a D5010000 		.4byte	0x1d5
 14349 159e 02       		.uleb128 0x2
 14350 159f 91       		.byte	0x91
 14351 15a0 77       		.sleb128 -9
 14352 15a1 00       		.byte	0
 14353 15a2 16       		.uleb128 0x16
 14354 15a3 E3070000 		.4byte	.LASF234
 14355 15a7 01       		.byte	0x1
 14356 15a8 D204     		.2byte	0x4d2
 14357 15aa D5010000 		.4byte	0x1d5
 14358 15ae 00000000 		.4byte	.LFB44
 14359 15b2 3C000000 		.4byte	.LFE44-.LFB44
 14360 15b6 01       		.uleb128 0x1
 14361 15b7 9C       		.byte	0x9c
 14362 15b8 EA150000 		.4byte	0x15ea
 14363 15bc 18       		.uleb128 0x18
 14364 15bd B4090000 		.4byte	.LASF224
 14365 15c1 01       		.byte	0x1
 14366 15c2 D204     		.2byte	0x4d2
ARM GAS  C:\Users\ilya\AppData\Local\Temp\ccpEIuqL.s 			page 307


 14367 15c4 3E070000 		.4byte	0x73e
 14368 15c8 02       		.uleb128 0x2
 14369 15c9 91       		.byte	0x91
 14370 15ca 67       		.sleb128 -25
 14371 15cb 18       		.uleb128 0x18
 14372 15cc A8000000 		.4byte	.LASF235
 14373 15d0 01       		.byte	0x1
 14374 15d1 D304     		.2byte	0x4d3
 14375 15d3 4A070000 		.4byte	0x74a
 14376 15d7 02       		.uleb128 0x2
 14377 15d8 91       		.byte	0x91
 14378 15d9 60       		.sleb128 -32
 14379 15da 19       		.uleb128 0x19
 14380 15db 31020000 		.4byte	.LASF143
 14381 15df 01       		.byte	0x1
 14382 15e0 D504     		.2byte	0x4d5
 14383 15e2 D5010000 		.4byte	0x1d5
 14384 15e6 02       		.uleb128 0x2
 14385 15e7 91       		.byte	0x91
 14386 15e8 6F       		.sleb128 -17
 14387 15e9 00       		.byte	0
 14388 15ea 16       		.uleb128 0x16
 14389 15eb 3F140000 		.4byte	.LASF236
 14390 15ef 01       		.byte	0x1
 14391 15f0 E104     		.2byte	0x4e1
 14392 15f2 D5010000 		.4byte	0x1d5
 14393 15f6 00000000 		.4byte	.LFB45
 14394 15fa FA000000 		.4byte	.LFE45-.LFB45
 14395 15fe 01       		.uleb128 0x1
 14396 15ff 9C       		.byte	0x9c
 14397 1600 7D160000 		.4byte	0x167d
 14398 1604 17       		.uleb128 0x17
 14399 1605 44657600 		.ascii	"Dev\000"
 14400 1609 01       		.byte	0x1
 14401 160a E104     		.2byte	0x4e1
 14402 160c 98070000 		.4byte	0x798
 14403 1610 02       		.uleb128 0x2
 14404 1611 91       		.byte	0x91
 14405 1612 5C       		.sleb128 -36
 14406 1613 18       		.uleb128 0x18
 14407 1614 B4090000 		.4byte	.LASF224
 14408 1618 01       		.byte	0x1
 14409 1619 E204     		.2byte	0x4e2
 14410 161b 3E070000 		.4byte	0x73e
 14411 161f 02       		.uleb128 0x2
 14412 1620 91       		.byte	0x91
 14413 1621 5B       		.sleb128 -37
 14414 1622 18       		.uleb128 0x18
 14415 1623 4B0E0000 		.4byte	.LASF237
 14416 1627 01       		.byte	0x1
 14417 1628 E204     		.2byte	0x4e2
 14418 162a F6000000 		.4byte	0xf6
 14419 162e 02       		.uleb128 0x2
 14420 162f 91       		.byte	0x91
 14421 1630 54       		.sleb128 -44
 14422 1631 19       		.uleb128 0x19
 14423 1632 31020000 		.4byte	.LASF143
ARM GAS  C:\Users\ilya\AppData\Local\Temp\ccpEIuqL.s 			page 308


 14424 1636 01       		.byte	0x1
 14425 1637 E404     		.2byte	0x4e4
 14426 1639 D5010000 		.4byte	0x1d5
 14427 163d 02       		.uleb128 0x2
 14428 163e 91       		.byte	0x91
 14429 163f 6F       		.sleb128 -17
 14430 1640 19       		.uleb128 0x19
 14431 1641 86010000 		.4byte	.LASF238
 14432 1645 01       		.byte	0x1
 14433 1646 E504     		.2byte	0x4e5
 14434 1648 D5010000 		.4byte	0x1d5
 14435 164c 02       		.uleb128 0x2
 14436 164d 91       		.byte	0x91
 14437 164e 6E       		.sleb128 -18
 14438 164f 19       		.uleb128 0x19
 14439 1650 DB150000 		.4byte	.LASF239
 14440 1654 01       		.byte	0x1
 14441 1655 E604     		.2byte	0x4e6
 14442 1657 E4000000 		.4byte	0xe4
 14443 165b 02       		.uleb128 0x2
 14444 165c 91       		.byte	0x91
 14445 165d 68       		.sleb128 -24
 14446 165e 19       		.uleb128 0x19
 14447 165f E00D0000 		.4byte	.LASF45
 14448 1663 01       		.byte	0x1
 14449 1664 E804     		.2byte	0x4e8
 14450 1666 E4000000 		.4byte	0xe4
 14451 166a 02       		.uleb128 0x2
 14452 166b 91       		.byte	0x91
 14453 166c 64       		.sleb128 -28
 14454 166d 19       		.uleb128 0x19
 14455 166e 75090000 		.4byte	.LASF240
 14456 1672 01       		.byte	0x1
 14457 1673 E904     		.2byte	0x4e9
 14458 1675 F6000000 		.4byte	0xf6
 14459 1679 02       		.uleb128 0x2
 14460 167a 91       		.byte	0x91
 14461 167b 60       		.sleb128 -32
 14462 167c 00       		.byte	0
 14463 167d 16       		.uleb128 0x16
 14464 167e 5E110000 		.4byte	.LASF241
 14465 1682 01       		.byte	0x1
 14466 1683 1705     		.2byte	0x517
 14467 1685 D5010000 		.4byte	0x1d5
 14468 1689 00000000 		.4byte	.LFB46
 14469 168d 7A000000 		.4byte	.LFE46-.LFB46
 14470 1691 01       		.uleb128 0x1
 14471 1692 9C       		.byte	0x9c
 14472 1693 E3160000 		.4byte	0x16e3
 14473 1697 17       		.uleb128 0x17
 14474 1698 44657600 		.ascii	"Dev\000"
 14475 169c 01       		.byte	0x1
 14476 169d 1705     		.2byte	0x517
 14477 169f 98070000 		.4byte	0x798
 14478 16a3 02       		.uleb128 0x2
 14479 16a4 91       		.byte	0x91
 14480 16a5 64       		.sleb128 -28
ARM GAS  C:\Users\ilya\AppData\Local\Temp\ccpEIuqL.s 			page 309


 14481 16a6 18       		.uleb128 0x18
 14482 16a7 B4090000 		.4byte	.LASF224
 14483 16ab 01       		.byte	0x1
 14484 16ac 1805     		.2byte	0x518
 14485 16ae 3E070000 		.4byte	0x73e
 14486 16b2 02       		.uleb128 0x2
 14487 16b3 91       		.byte	0x91
 14488 16b4 63       		.sleb128 -29
 14489 16b5 18       		.uleb128 0x18
 14490 16b6 81100000 		.4byte	.LASF242
 14491 16ba 01       		.byte	0x1
 14492 16bb 1805     		.2byte	0x518
 14493 16bd 220D0000 		.4byte	0xd22
 14494 16c1 02       		.uleb128 0x2
 14495 16c2 91       		.byte	0x91
 14496 16c3 5C       		.sleb128 -36
 14497 16c4 19       		.uleb128 0x19
 14498 16c5 31020000 		.4byte	.LASF143
 14499 16c9 01       		.byte	0x1
 14500 16ca 1A05     		.2byte	0x51a
 14501 16cc D5010000 		.4byte	0x1d5
 14502 16d0 02       		.uleb128 0x2
 14503 16d1 91       		.byte	0x91
 14504 16d2 6F       		.sleb128 -17
 14505 16d3 19       		.uleb128 0x19
 14506 16d4 DB150000 		.4byte	.LASF239
 14507 16d8 01       		.byte	0x1
 14508 16d9 1B05     		.2byte	0x51b
 14509 16db E4000000 		.4byte	0xe4
 14510 16df 02       		.uleb128 0x2
 14511 16e0 91       		.byte	0x91
 14512 16e1 68       		.sleb128 -24
 14513 16e2 00       		.byte	0
 14514 16e3 16       		.uleb128 0x16
 14515 16e4 71150000 		.4byte	.LASF243
 14516 16e8 01       		.byte	0x1
 14517 16e9 2A05     		.2byte	0x52a
 14518 16eb D5010000 		.4byte	0x1d5
 14519 16ef 00000000 		.4byte	.LFB47
 14520 16f3 88000000 		.4byte	.LFE47-.LFB47
 14521 16f7 01       		.uleb128 0x1
 14522 16f8 9C       		.byte	0x9c
 14523 16f9 49170000 		.4byte	0x1749
 14524 16fd 17       		.uleb128 0x17
 14525 16fe 44657600 		.ascii	"Dev\000"
 14526 1702 01       		.byte	0x1
 14527 1703 2A05     		.2byte	0x52a
 14528 1705 98070000 		.4byte	0x798
 14529 1709 02       		.uleb128 0x2
 14530 170a 91       		.byte	0x91
 14531 170b 5C       		.sleb128 -36
 14532 170c 18       		.uleb128 0x18
 14533 170d 390B0000 		.4byte	.LASF46
 14534 1711 01       		.byte	0x1
 14535 1712 2B05     		.2byte	0x52b
 14536 1714 E4000000 		.4byte	0xe4
 14537 1718 02       		.uleb128 0x2
ARM GAS  C:\Users\ilya\AppData\Local\Temp\ccpEIuqL.s 			page 310


 14538 1719 91       		.byte	0x91
 14539 171a 58       		.sleb128 -40
 14540 171b 19       		.uleb128 0x19
 14541 171c 31020000 		.4byte	.LASF143
 14542 1720 01       		.byte	0x1
 14543 1721 2D05     		.2byte	0x52d
 14544 1723 D5010000 		.4byte	0x1d5
 14545 1727 02       		.uleb128 0x2
 14546 1728 91       		.byte	0x91
 14547 1729 6F       		.sleb128 -17
 14548 172a 19       		.uleb128 0x19
 14549 172b A8070000 		.4byte	.LASF244
 14550 172f 01       		.byte	0x1
 14551 1730 2E05     		.2byte	0x52e
 14552 1732 CE000000 		.4byte	0xce
 14553 1736 02       		.uleb128 0x2
 14554 1737 91       		.byte	0x91
 14555 1738 66       		.sleb128 -26
 14556 1739 19       		.uleb128 0x19
 14557 173a D91B0000 		.4byte	.LASF245
 14558 173e 01       		.byte	0x1
 14559 173f 2F05     		.2byte	0x52f
 14560 1741 E4000000 		.4byte	0xe4
 14561 1745 02       		.uleb128 0x2
 14562 1746 91       		.byte	0x91
 14563 1747 68       		.sleb128 -24
 14564 1748 00       		.byte	0
 14565 1749 16       		.uleb128 0x16
 14566 174a 9D1E0000 		.4byte	.LASF246
 14567 174e 01       		.byte	0x1
 14568 174f 4E05     		.2byte	0x54e
 14569 1751 D5010000 		.4byte	0x1d5
 14570 1755 00000000 		.4byte	.LFB48
 14571 1759 90000000 		.4byte	.LFE48-.LFB48
 14572 175d 01       		.uleb128 0x1
 14573 175e 9C       		.byte	0x9c
 14574 175f AF170000 		.4byte	0x17af
 14575 1763 17       		.uleb128 0x17
 14576 1764 44657600 		.ascii	"Dev\000"
 14577 1768 01       		.byte	0x1
 14578 1769 4E05     		.2byte	0x54e
 14579 176b 98070000 		.4byte	0x798
 14580 176f 02       		.uleb128 0x2
 14581 1770 91       		.byte	0x91
 14582 1771 64       		.sleb128 -28
 14583 1772 18       		.uleb128 0x18
 14584 1773 6F000000 		.4byte	.LASF247
 14585 1777 01       		.byte	0x1
 14586 1778 4F05     		.2byte	0x54f
 14587 177a F9120000 		.4byte	0x12f9
 14588 177e 02       		.uleb128 0x2
 14589 177f 91       		.byte	0x91
 14590 1780 60       		.sleb128 -32
 14591 1781 19       		.uleb128 0x19
 14592 1782 31020000 		.4byte	.LASF143
 14593 1786 01       		.byte	0x1
 14594 1787 5105     		.2byte	0x551
ARM GAS  C:\Users\ilya\AppData\Local\Temp\ccpEIuqL.s 			page 311


 14595 1789 D5010000 		.4byte	0x1d5
 14596 178d 02       		.uleb128 0x2
 14597 178e 91       		.byte	0x91
 14598 178f 6F       		.sleb128 -17
 14599 1790 19       		.uleb128 0x19
 14600 1791 A8070000 		.4byte	.LASF244
 14601 1795 01       		.byte	0x1
 14602 1796 5205     		.2byte	0x552
 14603 1798 CE000000 		.4byte	0xce
 14604 179c 02       		.uleb128 0x2
 14605 179d 91       		.byte	0x91
 14606 179e 6C       		.sleb128 -20
 14607 179f 19       		.uleb128 0x19
 14608 17a0 D91B0000 		.4byte	.LASF245
 14609 17a4 01       		.byte	0x1
 14610 17a5 5305     		.2byte	0x553
 14611 17a7 E4000000 		.4byte	0xe4
 14612 17ab 02       		.uleb128 0x2
 14613 17ac 91       		.byte	0x91
 14614 17ad 68       		.sleb128 -24
 14615 17ae 00       		.byte	0
 14616 17af 16       		.uleb128 0x16
 14617 17b0 38070000 		.4byte	.LASF248
 14618 17b4 01       		.byte	0x1
 14619 17b5 6E05     		.2byte	0x56e
 14620 17b7 D5010000 		.4byte	0x1d5
 14621 17bb 00000000 		.4byte	.LFB49
 14622 17bf 90000000 		.4byte	.LFE49-.LFB49
 14623 17c3 01       		.uleb128 0x1
 14624 17c4 9C       		.byte	0x9c
 14625 17c5 15180000 		.4byte	0x1815
 14626 17c9 17       		.uleb128 0x17
 14627 17ca 44657600 		.ascii	"Dev\000"
 14628 17ce 01       		.byte	0x1
 14629 17cf 6E05     		.2byte	0x56e
 14630 17d1 98070000 		.4byte	0x798
 14631 17d5 02       		.uleb128 0x2
 14632 17d6 91       		.byte	0x91
 14633 17d7 64       		.sleb128 -28
 14634 17d8 18       		.uleb128 0x18
 14635 17d9 EB000000 		.4byte	.LASF47
 14636 17dd 01       		.byte	0x1
 14637 17de 6F05     		.2byte	0x56f
 14638 17e0 B8000000 		.4byte	0xb8
 14639 17e4 02       		.uleb128 0x2
 14640 17e5 91       		.byte	0x91
 14641 17e6 63       		.sleb128 -29
 14642 17e7 19       		.uleb128 0x19
 14643 17e8 31020000 		.4byte	.LASF143
 14644 17ec 01       		.byte	0x1
 14645 17ed 7105     		.2byte	0x571
 14646 17ef D5010000 		.4byte	0x1d5
 14647 17f3 02       		.uleb128 0x2
 14648 17f4 91       		.byte	0x91
 14649 17f5 6B       		.sleb128 -21
 14650 17f6 19       		.uleb128 0x19
 14651 17f7 CB1C0000 		.4byte	.LASF249
ARM GAS  C:\Users\ilya\AppData\Local\Temp\ccpEIuqL.s 			page 312


 14652 17fb 01       		.byte	0x1
 14653 17fc 7205     		.2byte	0x572
 14654 17fe F6000000 		.4byte	0xf6
 14655 1802 02       		.uleb128 0x2
 14656 1803 91       		.byte	0x91
 14657 1804 6C       		.sleb128 -20
 14658 1805 19       		.uleb128 0x19
 14659 1806 920A0000 		.4byte	.LASF120
 14660 180a 01       		.byte	0x1
 14661 180b 7305     		.2byte	0x573
 14662 180d CE000000 		.4byte	0xce
 14663 1811 02       		.uleb128 0x2
 14664 1812 91       		.byte	0x91
 14665 1813 68       		.sleb128 -24
 14666 1814 00       		.byte	0
 14667 1815 1A       		.uleb128 0x1a
 14668 1816 52090000 		.4byte	.LASF250
 14669 181a 01       		.byte	0x1
 14670 181b 9405     		.2byte	0x594
 14671 181d D5010000 		.4byte	0x1d5
 14672 1821 00000000 		.4byte	.LFB50
 14673 1825 36000000 		.4byte	.LFE50-.LFB50
 14674 1829 01       		.uleb128 0x1
 14675 182a 9C       		.byte	0x9c
 14676 182b 6C180000 		.4byte	0x186c
 14677 182f 17       		.uleb128 0x17
 14678 1830 44657600 		.ascii	"Dev\000"
 14679 1834 01       		.byte	0x1
 14680 1835 9405     		.2byte	0x594
 14681 1837 98070000 		.4byte	0x798
 14682 183b 02       		.uleb128 0x2
 14683 183c 91       		.byte	0x91
 14684 183d 6C       		.sleb128 -20
 14685 183e 18       		.uleb128 0x18
 14686 183f 3B120000 		.4byte	.LASF251
 14687 1843 01       		.byte	0x1
 14688 1844 9505     		.2byte	0x595
 14689 1846 BD060000 		.4byte	0x6bd
 14690 184a 02       		.uleb128 0x2
 14691 184b 91       		.byte	0x91
 14692 184c 68       		.sleb128 -24
 14693 184d 19       		.uleb128 0x19
 14694 184e 31020000 		.4byte	.LASF143
 14695 1852 01       		.byte	0x1
 14696 1853 9705     		.2byte	0x597
 14697 1855 D5010000 		.4byte	0x1d5
 14698 1859 02       		.uleb128 0x2
 14699 185a 91       		.byte	0x91
 14700 185b 77       		.sleb128 -9
 14701 185c 19       		.uleb128 0x19
 14702 185d 5B070000 		.4byte	.LASF252
 14703 1861 01       		.byte	0x1
 14704 1862 9805     		.2byte	0x598
 14705 1864 B8000000 		.4byte	0xb8
 14706 1868 02       		.uleb128 0x2
 14707 1869 91       		.byte	0x91
 14708 186a 76       		.sleb128 -10
ARM GAS  C:\Users\ilya\AppData\Local\Temp\ccpEIuqL.s 			page 313


 14709 186b 00       		.byte	0
 14710 186c 16       		.uleb128 0x16
 14711 186d D11D0000 		.4byte	.LASF253
 14712 1871 01       		.byte	0x1
 14713 1872 A205     		.2byte	0x5a2
 14714 1874 D5010000 		.4byte	0x1d5
 14715 1878 00000000 		.4byte	.LFB51
 14716 187c 98000000 		.4byte	.LFE51-.LFB51
 14717 1880 01       		.uleb128 0x1
 14718 1881 9C       		.byte	0x9c
 14719 1882 E1180000 		.4byte	0x18e1
 14720 1886 17       		.uleb128 0x17
 14721 1887 44657600 		.ascii	"Dev\000"
 14722 188b 01       		.byte	0x1
 14723 188c A205     		.2byte	0x5a2
 14724 188e 98070000 		.4byte	0x798
 14725 1892 02       		.uleb128 0x2
 14726 1893 91       		.byte	0x91
 14727 1894 64       		.sleb128 -28
 14728 1895 18       		.uleb128 0x18
 14729 1896 92130000 		.4byte	.LASF49
 14730 189a 01       		.byte	0x1
 14731 189b A305     		.2byte	0x5a3
 14732 189d F6000000 		.4byte	0xf6
 14733 18a1 02       		.uleb128 0x2
 14734 18a2 91       		.byte	0x91
 14735 18a3 60       		.sleb128 -32
 14736 18a4 19       		.uleb128 0x19
 14737 18a5 31020000 		.4byte	.LASF143
 14738 18a9 01       		.byte	0x1
 14739 18aa A505     		.2byte	0x5a5
 14740 18ac D5010000 		.4byte	0x1d5
 14741 18b0 02       		.uleb128 0x2
 14742 18b1 91       		.byte	0x91
 14743 18b2 6F       		.sleb128 -17
 14744 18b3 19       		.uleb128 0x19
 14745 18b4 5B070000 		.4byte	.LASF252
 14746 18b8 01       		.byte	0x1
 14747 18b9 A605     		.2byte	0x5a6
 14748 18bb B8000000 		.4byte	0xb8
 14749 18bf 02       		.uleb128 0x2
 14750 18c0 91       		.byte	0x91
 14751 18c1 6B       		.sleb128 -21
 14752 18c2 19       		.uleb128 0x19
 14753 18c3 920A0000 		.4byte	.LASF120
 14754 18c7 01       		.byte	0x1
 14755 18c8 A705     		.2byte	0x5a7
 14756 18ca CE000000 		.4byte	0xce
 14757 18ce 02       		.uleb128 0x2
 14758 18cf 91       		.byte	0x91
 14759 18d0 68       		.sleb128 -24
 14760 18d1 19       		.uleb128 0x19
 14761 18d2 930E0000 		.4byte	.LASF254
 14762 18d6 01       		.byte	0x1
 14763 18d7 A805     		.2byte	0x5a8
 14764 18d9 CE000000 		.4byte	0xce
 14765 18dd 02       		.uleb128 0x2
ARM GAS  C:\Users\ilya\AppData\Local\Temp\ccpEIuqL.s 			page 314


 14766 18de 91       		.byte	0x91
 14767 18df 6C       		.sleb128 -20
 14768 18e0 00       		.byte	0
 14769 18e1 16       		.uleb128 0x16
 14770 18e2 780D0000 		.4byte	.LASF255
 14771 18e6 01       		.byte	0x1
 14772 18e7 C805     		.2byte	0x5c8
 14773 18e9 D5010000 		.4byte	0x1d5
 14774 18ed 00000000 		.4byte	.LFB52
 14775 18f1 7E000000 		.4byte	.LFE52-.LFB52
 14776 18f5 01       		.uleb128 0x1
 14777 18f6 9C       		.byte	0x9c
 14778 18f7 47190000 		.4byte	0x1947
 14779 18fb 17       		.uleb128 0x17
 14780 18fc 44657600 		.ascii	"Dev\000"
 14781 1900 01       		.byte	0x1
 14782 1901 C805     		.2byte	0x5c8
 14783 1903 98070000 		.4byte	0x798
 14784 1907 02       		.uleb128 0x2
 14785 1908 91       		.byte	0x91
 14786 1909 5C       		.sleb128 -36
 14787 190a 18       		.uleb128 0x18
 14788 190b 93100000 		.4byte	.LASF256
 14789 190f 01       		.byte	0x1
 14790 1910 C905     		.2byte	0x5c9
 14791 1912 220D0000 		.4byte	0xd22
 14792 1916 02       		.uleb128 0x2
 14793 1917 91       		.byte	0x91
 14794 1918 58       		.sleb128 -40
 14795 1919 19       		.uleb128 0x19
 14796 191a 31020000 		.4byte	.LASF143
 14797 191e 01       		.byte	0x1
 14798 191f CB05     		.2byte	0x5cb
 14799 1921 D5010000 		.4byte	0x1d5
 14800 1925 02       		.uleb128 0x2
 14801 1926 91       		.byte	0x91
 14802 1927 6F       		.sleb128 -17
 14803 1928 19       		.uleb128 0x19
 14804 1929 E9110000 		.4byte	.LASF257
 14805 192d 01       		.byte	0x1
 14806 192e CC05     		.2byte	0x5cc
 14807 1930 CE000000 		.4byte	0xce
 14808 1934 02       		.uleb128 0x2
 14809 1935 91       		.byte	0x91
 14810 1936 66       		.sleb128 -26
 14811 1937 19       		.uleb128 0x19
 14812 1938 CB1C0000 		.4byte	.LASF249
 14813 193c 01       		.byte	0x1
 14814 193d CD05     		.2byte	0x5cd
 14815 193f F6000000 		.4byte	0xf6
 14816 1943 02       		.uleb128 0x2
 14817 1944 91       		.byte	0x91
 14818 1945 68       		.sleb128 -24
 14819 1946 00       		.byte	0
 14820 1947 16       		.uleb128 0x16
 14821 1948 02190000 		.4byte	.LASF258
 14822 194c 01       		.byte	0x1
ARM GAS  C:\Users\ilya\AppData\Local\Temp\ccpEIuqL.s 			page 315


 14823 194d E905     		.2byte	0x5e9
 14824 194f D5010000 		.4byte	0x1d5
 14825 1953 00000000 		.4byte	.LFB53
 14826 1957 48000000 		.4byte	.LFE53-.LFB53
 14827 195b 01       		.uleb128 0x1
 14828 195c 9C       		.byte	0x9c
 14829 195d 9E190000 		.4byte	0x199e
 14830 1961 17       		.uleb128 0x17
 14831 1962 44657600 		.ascii	"Dev\000"
 14832 1966 01       		.byte	0x1
 14833 1967 E905     		.2byte	0x5e9
 14834 1969 98070000 		.4byte	0x798
 14835 196d 02       		.uleb128 0x2
 14836 196e 91       		.byte	0x91
 14837 196f 64       		.sleb128 -28
 14838 1970 18       		.uleb128 0x18
 14839 1971 08170000 		.4byte	.LASF259
 14840 1975 01       		.byte	0x1
 14841 1976 E905     		.2byte	0x5e9
 14842 1978 B8000000 		.4byte	0xb8
 14843 197c 02       		.uleb128 0x2
 14844 197d 91       		.byte	0x91
 14845 197e 63       		.sleb128 -29
 14846 197f 18       		.uleb128 0x18
 14847 1980 510F0000 		.4byte	.LASF260
 14848 1984 01       		.byte	0x1
 14849 1985 EA05     		.2byte	0x5ea
 14850 1987 B8000000 		.4byte	0xb8
 14851 198b 02       		.uleb128 0x2
 14852 198c 91       		.byte	0x91
 14853 198d 62       		.sleb128 -30
 14854 198e 19       		.uleb128 0x19
 14855 198f 31020000 		.4byte	.LASF143
 14856 1993 01       		.byte	0x1
 14857 1994 EC05     		.2byte	0x5ec
 14858 1996 D5010000 		.4byte	0x1d5
 14859 199a 02       		.uleb128 0x2
 14860 199b 91       		.byte	0x91
 14861 199c 6F       		.sleb128 -17
 14862 199d 00       		.byte	0
 14863 199e 16       		.uleb128 0x16
 14864 199f A01A0000 		.4byte	.LASF261
 14865 19a3 01       		.byte	0x1
 14866 19a4 F505     		.2byte	0x5f5
 14867 19a6 D5010000 		.4byte	0x1d5
 14868 19aa 00000000 		.4byte	.LFB54
 14869 19ae 38000000 		.4byte	.LFE54-.LFB54
 14870 19b2 01       		.uleb128 0x1
 14871 19b3 9C       		.byte	0x9c
 14872 19b4 F5190000 		.4byte	0x19f5
 14873 19b8 17       		.uleb128 0x17
 14874 19b9 44657600 		.ascii	"Dev\000"
 14875 19bd 01       		.byte	0x1
 14876 19be F505     		.2byte	0x5f5
 14877 19c0 98070000 		.4byte	0x798
 14878 19c4 02       		.uleb128 0x2
 14879 19c5 91       		.byte	0x91
ARM GAS  C:\Users\ilya\AppData\Local\Temp\ccpEIuqL.s 			page 316


 14880 19c6 64       		.sleb128 -28
 14881 19c7 18       		.uleb128 0x18
 14882 19c8 A00D0000 		.4byte	.LASF262
 14883 19cc 01       		.byte	0x1
 14884 19cd F505     		.2byte	0x5f5
 14885 19cf BD060000 		.4byte	0x6bd
 14886 19d3 02       		.uleb128 0x2
 14887 19d4 91       		.byte	0x91
 14888 19d5 60       		.sleb128 -32
 14889 19d6 18       		.uleb128 0x18
 14890 19d7 55060000 		.4byte	.LASF263
 14891 19db 01       		.byte	0x1
 14892 19dc F605     		.2byte	0x5f6
 14893 19de BD060000 		.4byte	0x6bd
 14894 19e2 02       		.uleb128 0x2
 14895 19e3 91       		.byte	0x91
 14896 19e4 5C       		.sleb128 -36
 14897 19e5 19       		.uleb128 0x19
 14898 19e6 31020000 		.4byte	.LASF143
 14899 19ea 01       		.byte	0x1
 14900 19eb F805     		.2byte	0x5f8
 14901 19ed D5010000 		.4byte	0x1d5
 14902 19f1 02       		.uleb128 0x2
 14903 19f2 91       		.byte	0x91
 14904 19f3 6F       		.sleb128 -17
 14905 19f4 00       		.byte	0
 14906 19f5 1A       		.uleb128 0x1a
 14907 19f6 F9030000 		.4byte	.LASF264
 14908 19fa 01       		.byte	0x1
 14909 19fb 0506     		.2byte	0x605
 14910 19fd D5010000 		.4byte	0x1d5
 14911 1a01 00000000 		.4byte	.LFB55
 14912 1a05 26000000 		.4byte	.LFE55-.LFB55
 14913 1a09 01       		.uleb128 0x1
 14914 1a0a 9C       		.byte	0x9c
 14915 1a0b 2E1A0000 		.4byte	0x1a2e
 14916 1a0f 18       		.uleb128 0x18
 14917 1a10 AB140000 		.4byte	.LASF265
 14918 1a14 01       		.byte	0x1
 14919 1a15 0506     		.2byte	0x605
 14920 1a17 350C0000 		.4byte	0xc35
 14921 1a1b 02       		.uleb128 0x2
 14922 1a1c 91       		.byte	0x91
 14923 1a1d 6C       		.sleb128 -20
 14924 1a1e 19       		.uleb128 0x19
 14925 1a1f 31020000 		.4byte	.LASF143
 14926 1a23 01       		.byte	0x1
 14927 1a24 0706     		.2byte	0x607
 14928 1a26 D5010000 		.4byte	0x1d5
 14929 1a2a 02       		.uleb128 0x2
 14930 1a2b 91       		.byte	0x91
 14931 1a2c 77       		.sleb128 -9
 14932 1a2d 00       		.byte	0
 14933 1a2e 16       		.uleb128 0x16
 14934 1a2f BA180000 		.4byte	.LASF266
 14935 1a33 01       		.byte	0x1
 14936 1a34 1006     		.2byte	0x610
ARM GAS  C:\Users\ilya\AppData\Local\Temp\ccpEIuqL.s 			page 317


 14937 1a36 D5010000 		.4byte	0x1d5
 14938 1a3a 00000000 		.4byte	.LFB56
 14939 1a3e 42000000 		.4byte	.LFE56-.LFB56
 14940 1a42 01       		.uleb128 0x1
 14941 1a43 9C       		.byte	0x9c
 14942 1a44 851A0000 		.4byte	0x1a85
 14943 1a48 17       		.uleb128 0x17
 14944 1a49 44657600 		.ascii	"Dev\000"
 14945 1a4d 01       		.byte	0x1
 14946 1a4e 1006     		.2byte	0x610
 14947 1a50 98070000 		.4byte	0x798
 14948 1a54 02       		.uleb128 0x2
 14949 1a55 91       		.byte	0x91
 14950 1a56 64       		.sleb128 -28
 14951 1a57 18       		.uleb128 0x18
 14952 1a58 8C090000 		.4byte	.LASF267
 14953 1a5c 01       		.byte	0x1
 14954 1a5d 1006     		.2byte	0x610
 14955 1a5f CE000000 		.4byte	0xce
 14956 1a63 02       		.uleb128 0x2
 14957 1a64 91       		.byte	0x91
 14958 1a65 62       		.sleb128 -30
 14959 1a66 18       		.uleb128 0x18
 14960 1a67 3F0F0000 		.4byte	.LASF268
 14961 1a6b 01       		.byte	0x1
 14962 1a6c 1106     		.2byte	0x611
 14963 1a6e 4A070000 		.4byte	0x74a
 14964 1a72 02       		.uleb128 0x2
 14965 1a73 91       		.byte	0x91
 14966 1a74 5C       		.sleb128 -36
 14967 1a75 19       		.uleb128 0x19
 14968 1a76 31020000 		.4byte	.LASF143
 14969 1a7a 01       		.byte	0x1
 14970 1a7b 1306     		.2byte	0x613
 14971 1a7d D5010000 		.4byte	0x1d5
 14972 1a81 02       		.uleb128 0x2
 14973 1a82 91       		.byte	0x91
 14974 1a83 6F       		.sleb128 -17
 14975 1a84 00       		.byte	0
 14976 1a85 1A       		.uleb128 0x1a
 14977 1a86 080A0000 		.4byte	.LASF269
 14978 1a8a 01       		.byte	0x1
 14979 1a8b 1E06     		.2byte	0x61e
 14980 1a8d D5010000 		.4byte	0x1d5
 14981 1a91 00000000 		.4byte	.LFB57
 14982 1a95 5E000000 		.4byte	.LFE57-.LFB57
 14983 1a99 01       		.uleb128 0x1
 14984 1a9a 9C       		.byte	0x9c
 14985 1a9b EB1A0000 		.4byte	0x1aeb
 14986 1a9f 17       		.uleb128 0x17
 14987 1aa0 44657600 		.ascii	"Dev\000"
 14988 1aa4 01       		.byte	0x1
 14989 1aa5 1E06     		.2byte	0x61e
 14990 1aa7 98070000 		.4byte	0x798
 14991 1aab 02       		.uleb128 0x2
 14992 1aac 91       		.byte	0x91
 14993 1aad 6C       		.sleb128 -20
ARM GAS  C:\Users\ilya\AppData\Local\Temp\ccpEIuqL.s 			page 318


 14994 1aae 18       		.uleb128 0x18
 14995 1aaf 8C090000 		.4byte	.LASF267
 14996 1ab3 01       		.byte	0x1
 14997 1ab4 1E06     		.2byte	0x61e
 14998 1ab6 CE000000 		.4byte	0xce
 14999 1aba 02       		.uleb128 0x2
 15000 1abb 91       		.byte	0x91
 15001 1abc 6A       		.sleb128 -22
 15002 1abd 18       		.uleb128 0x18
 15003 1abe F50F0000 		.4byte	.LASF270
 15004 1ac2 01       		.byte	0x1
 15005 1ac3 1F06     		.2byte	0x61f
 15006 1ac5 BD060000 		.4byte	0x6bd
 15007 1ac9 02       		.uleb128 0x2
 15008 1aca 91       		.byte	0x91
 15009 1acb 64       		.sleb128 -28
 15010 1acc 19       		.uleb128 0x19
 15011 1acd 31020000 		.4byte	.LASF143
 15012 1ad1 01       		.byte	0x1
 15013 1ad2 2106     		.2byte	0x621
 15014 1ad4 D5010000 		.4byte	0x1d5
 15015 1ad8 02       		.uleb128 0x2
 15016 1ad9 91       		.byte	0x91
 15017 1ada 77       		.sleb128 -9
 15018 1adb 19       		.uleb128 0x19
 15019 1adc 5B070000 		.4byte	.LASF252
 15020 1ae0 01       		.byte	0x1
 15021 1ae1 2206     		.2byte	0x622
 15022 1ae3 B8000000 		.4byte	0xb8
 15023 1ae7 02       		.uleb128 0x2
 15024 1ae8 91       		.byte	0x91
 15025 1ae9 76       		.sleb128 -10
 15026 1aea 00       		.byte	0
 15027 1aeb 16       		.uleb128 0x16
 15028 1aec 35080000 		.4byte	.LASF271
 15029 1af0 01       		.byte	0x1
 15030 1af1 3506     		.2byte	0x635
 15031 1af3 D5010000 		.4byte	0x1d5
 15032 1af7 00000000 		.4byte	.LFB58
 15033 1afb 80010000 		.4byte	.LFE58-.LFB58
 15034 1aff 01       		.uleb128 0x1
 15035 1b00 9C       		.byte	0x9c
 15036 1b01 7E1B0000 		.4byte	0x1b7e
 15037 1b05 17       		.uleb128 0x17
 15038 1b06 44657600 		.ascii	"Dev\000"
 15039 1b0a 01       		.byte	0x1
 15040 1b0b 3506     		.2byte	0x635
 15041 1b0d 98070000 		.4byte	0x798
 15042 1b11 02       		.uleb128 0x2
 15043 1b12 91       		.byte	0x91
 15044 1b13 5C       		.sleb128 -36
 15045 1b14 18       		.uleb128 0x18
 15046 1b15 8C090000 		.4byte	.LASF267
 15047 1b19 01       		.byte	0x1
 15048 1b1a 3506     		.2byte	0x635
 15049 1b1c CE000000 		.4byte	0xce
 15050 1b20 02       		.uleb128 0x2
ARM GAS  C:\Users\ilya\AppData\Local\Temp\ccpEIuqL.s 			page 319


 15051 1b21 91       		.byte	0x91
 15052 1b22 5A       		.sleb128 -38
 15053 1b23 18       		.uleb128 0x18
 15054 1b24 F6130000 		.4byte	.LASF272
 15055 1b28 01       		.byte	0x1
 15056 1b29 3606     		.2byte	0x636
 15057 1b2b B8000000 		.4byte	0xb8
 15058 1b2f 02       		.uleb128 0x2
 15059 1b30 91       		.byte	0x91
 15060 1b31 59       		.sleb128 -39
 15061 1b32 19       		.uleb128 0x19
 15062 1b33 31020000 		.4byte	.LASF143
 15063 1b37 01       		.byte	0x1
 15064 1b38 3806     		.2byte	0x638
 15065 1b3a D5010000 		.4byte	0x1d5
 15066 1b3e 02       		.uleb128 0x2
 15067 1b3f 91       		.byte	0x91
 15068 1b40 6F       		.sleb128 -17
 15069 1b41 19       		.uleb128 0x19
 15070 1b42 CB1C0000 		.4byte	.LASF249
 15071 1b46 01       		.byte	0x1
 15072 1b47 3906     		.2byte	0x639
 15073 1b49 F6000000 		.4byte	0xf6
 15074 1b4d 02       		.uleb128 0x2
 15075 1b4e 91       		.byte	0x91
 15076 1b4f 68       		.sleb128 -24
 15077 1b50 19       		.uleb128 0x19
 15078 1b51 BD1D0000 		.4byte	.LASF273
 15079 1b55 01       		.byte	0x1
 15080 1b56 3A06     		.2byte	0x63a
 15081 1b58 B8000000 		.4byte	0xb8
 15082 1b5c 02       		.uleb128 0x2
 15083 1b5d 91       		.byte	0x91
 15084 1b5e 67       		.sleb128 -25
 15085 1b5f 19       		.uleb128 0x19
 15086 1b60 F61A0000 		.4byte	.LASF274
 15087 1b64 01       		.byte	0x1
 15088 1b65 3B06     		.2byte	0x63b
 15089 1b67 B8000000 		.4byte	0xb8
 15090 1b6b 02       		.uleb128 0x2
 15091 1b6c 91       		.byte	0x91
 15092 1b6d 66       		.sleb128 -26
 15093 1b6e 19       		.uleb128 0x19
 15094 1b6f 5B070000 		.4byte	.LASF252
 15095 1b73 01       		.byte	0x1
 15096 1b74 3C06     		.2byte	0x63c
 15097 1b76 B8000000 		.4byte	0xb8
 15098 1b7a 02       		.uleb128 0x2
 15099 1b7b 91       		.byte	0x91
 15100 1b7c 65       		.sleb128 -27
 15101 1b7d 00       		.byte	0
 15102 1b7e 1A       		.uleb128 0x1a
 15103 1b7f 3C1D0000 		.4byte	.LASF275
 15104 1b83 01       		.byte	0x1
 15105 1b84 9C06     		.2byte	0x69c
 15106 1b86 D5010000 		.4byte	0x1d5
 15107 1b8a 00000000 		.4byte	.LFB59
ARM GAS  C:\Users\ilya\AppData\Local\Temp\ccpEIuqL.s 			page 320


 15108 1b8e 64000000 		.4byte	.LFE59-.LFB59
 15109 1b92 01       		.uleb128 0x1
 15110 1b93 9C       		.byte	0x9c
 15111 1b94 E41B0000 		.4byte	0x1be4
 15112 1b98 17       		.uleb128 0x17
 15113 1b99 44657600 		.ascii	"Dev\000"
 15114 1b9d 01       		.byte	0x1
 15115 1b9e 9C06     		.2byte	0x69c
 15116 1ba0 98070000 		.4byte	0x798
 15117 1ba4 02       		.uleb128 0x2
 15118 1ba5 91       		.byte	0x91
 15119 1ba6 6C       		.sleb128 -20
 15120 1ba7 18       		.uleb128 0x18
 15121 1ba8 8C090000 		.4byte	.LASF267
 15122 1bac 01       		.byte	0x1
 15123 1bad 9C06     		.2byte	0x69c
 15124 1baf CE000000 		.4byte	0xce
 15125 1bb3 02       		.uleb128 0x2
 15126 1bb4 91       		.byte	0x91
 15127 1bb5 6A       		.sleb128 -22
 15128 1bb6 18       		.uleb128 0x18
 15129 1bb7 E80A0000 		.4byte	.LASF276
 15130 1bbb 01       		.byte	0x1
 15131 1bbc 9D06     		.2byte	0x69d
 15132 1bbe BD060000 		.4byte	0x6bd
 15133 1bc2 02       		.uleb128 0x2
 15134 1bc3 91       		.byte	0x91
 15135 1bc4 64       		.sleb128 -28
 15136 1bc5 19       		.uleb128 0x19
 15137 1bc6 31020000 		.4byte	.LASF143
 15138 1bca 01       		.byte	0x1
 15139 1bcb 9F06     		.2byte	0x69f
 15140 1bcd D5010000 		.4byte	0x1d5
 15141 1bd1 02       		.uleb128 0x2
 15142 1bd2 91       		.byte	0x91
 15143 1bd3 77       		.sleb128 -9
 15144 1bd4 19       		.uleb128 0x19
 15145 1bd5 5B070000 		.4byte	.LASF252
 15146 1bd9 01       		.byte	0x1
 15147 1bda A006     		.2byte	0x6a0
 15148 1bdc B8000000 		.4byte	0xb8
 15149 1be0 02       		.uleb128 0x2
 15150 1be1 91       		.byte	0x91
 15151 1be2 76       		.sleb128 -10
 15152 1be3 00       		.byte	0
 15153 1be4 16       		.uleb128 0x16
 15154 1be5 670A0000 		.4byte	.LASF277
 15155 1be9 01       		.byte	0x1
 15156 1bea B106     		.2byte	0x6b1
 15157 1bec D5010000 		.4byte	0x1d5
 15158 1bf0 00000000 		.4byte	.LFB60
 15159 1bf4 EC000000 		.4byte	.LFE60-.LFB60
 15160 1bf8 01       		.uleb128 0x1
 15161 1bf9 9C       		.byte	0x9c
 15162 1bfa 4A1C0000 		.4byte	0x1c4a
 15163 1bfe 17       		.uleb128 0x17
 15164 1bff 44657600 		.ascii	"Dev\000"
ARM GAS  C:\Users\ilya\AppData\Local\Temp\ccpEIuqL.s 			page 321


 15165 1c03 01       		.byte	0x1
 15166 1c04 B106     		.2byte	0x6b1
 15167 1c06 98070000 		.4byte	0x798
 15168 1c0a 02       		.uleb128 0x2
 15169 1c0b 91       		.byte	0x91
 15170 1c0c 64       		.sleb128 -28
 15171 1c0d 18       		.uleb128 0x18
 15172 1c0e 8C090000 		.4byte	.LASF267
 15173 1c12 01       		.byte	0x1
 15174 1c13 B106     		.2byte	0x6b1
 15175 1c15 CE000000 		.4byte	0xce
 15176 1c19 02       		.uleb128 0x2
 15177 1c1a 91       		.byte	0x91
 15178 1c1b 62       		.sleb128 -30
 15179 1c1c 18       		.uleb128 0x18
 15180 1c1d 71050000 		.4byte	.LASF278
 15181 1c21 01       		.byte	0x1
 15182 1c22 B206     		.2byte	0x6b2
 15183 1c24 F6000000 		.4byte	0xf6
 15184 1c28 02       		.uleb128 0x2
 15185 1c29 91       		.byte	0x91
 15186 1c2a 5C       		.sleb128 -36
 15187 1c2b 19       		.uleb128 0x19
 15188 1c2c 31020000 		.4byte	.LASF143
 15189 1c30 01       		.byte	0x1
 15190 1c31 B406     		.2byte	0x6b4
 15191 1c33 D5010000 		.4byte	0x1d5
 15192 1c37 02       		.uleb128 0x2
 15193 1c38 91       		.byte	0x91
 15194 1c39 6F       		.sleb128 -17
 15195 1c3a 19       		.uleb128 0x19
 15196 1c3b 5B070000 		.4byte	.LASF252
 15197 1c3f 01       		.byte	0x1
 15198 1c40 B506     		.2byte	0x6b5
 15199 1c42 B8000000 		.4byte	0xb8
 15200 1c46 02       		.uleb128 0x2
 15201 1c47 91       		.byte	0x91
 15202 1c48 6E       		.sleb128 -18
 15203 1c49 00       		.byte	0
 15204 1c4a 16       		.uleb128 0x16
 15205 1c4b DB130000 		.4byte	.LASF279
 15206 1c4f 01       		.byte	0x1
 15207 1c50 FE06     		.2byte	0x6fe
 15208 1c52 D5010000 		.4byte	0x1d5
 15209 1c56 00000000 		.4byte	.LFB61
 15210 1c5a 6C010000 		.4byte	.LFE61-.LFB61
 15211 1c5e 01       		.uleb128 0x1
 15212 1c5f 9C       		.byte	0x9c
 15213 1c60 CE1C0000 		.4byte	0x1cce
 15214 1c64 17       		.uleb128 0x17
 15215 1c65 44657600 		.ascii	"Dev\000"
 15216 1c69 01       		.byte	0x1
 15217 1c6a FE06     		.2byte	0x6fe
 15218 1c6c 98070000 		.4byte	0x798
 15219 1c70 02       		.uleb128 0x2
 15220 1c71 91       		.byte	0x91
 15221 1c72 5C       		.sleb128 -36
ARM GAS  C:\Users\ilya\AppData\Local\Temp\ccpEIuqL.s 			page 322


 15222 1c73 18       		.uleb128 0x18
 15223 1c74 8C090000 		.4byte	.LASF267
 15224 1c78 01       		.byte	0x1
 15225 1c79 FE06     		.2byte	0x6fe
 15226 1c7b CE000000 		.4byte	0xce
 15227 1c7f 02       		.uleb128 0x2
 15228 1c80 91       		.byte	0x91
 15229 1c81 5A       		.sleb128 -38
 15230 1c82 18       		.uleb128 0x18
 15231 1c83 F2140000 		.4byte	.LASF280
 15232 1c87 01       		.byte	0x1
 15233 1c88 FF06     		.2byte	0x6ff
 15234 1c8a 220D0000 		.4byte	0xd22
 15235 1c8e 02       		.uleb128 0x2
 15236 1c8f 91       		.byte	0x91
 15237 1c90 54       		.sleb128 -44
 15238 1c91 19       		.uleb128 0x19
 15239 1c92 31020000 		.4byte	.LASF143
 15240 1c96 01       		.byte	0x1
 15241 1c97 0107     		.2byte	0x701
 15242 1c99 D5010000 		.4byte	0x1d5
 15243 1c9d 02       		.uleb128 0x2
 15244 1c9e 91       		.byte	0x91
 15245 1c9f 6F       		.sleb128 -17
 15246 1ca0 19       		.uleb128 0x19
 15247 1ca1 820A0000 		.4byte	.LASF281
 15248 1ca5 01       		.byte	0x1
 15249 1ca6 0207     		.2byte	0x702
 15250 1ca8 B8000000 		.4byte	0xb8
 15251 1cac 02       		.uleb128 0x2
 15252 1cad 91       		.byte	0x91
 15253 1cae 6E       		.sleb128 -18
 15254 1caf 19       		.uleb128 0x19
 15255 1cb0 A1170000 		.4byte	.LASF282
 15256 1cb4 01       		.byte	0x1
 15257 1cb5 0307     		.2byte	0x703
 15258 1cb7 CE000000 		.4byte	0xce
 15259 1cbb 02       		.uleb128 0x2
 15260 1cbc 91       		.byte	0x91
 15261 1cbd 66       		.sleb128 -26
 15262 1cbe 19       		.uleb128 0x19
 15263 1cbf CB1C0000 		.4byte	.LASF249
 15264 1cc3 01       		.byte	0x1
 15265 1cc4 0407     		.2byte	0x704
 15266 1cc6 F6000000 		.4byte	0xf6
 15267 1cca 02       		.uleb128 0x2
 15268 1ccb 91       		.byte	0x91
 15269 1ccc 68       		.sleb128 -24
 15270 1ccd 00       		.byte	0
 15271 1cce 1A       		.uleb128 0x1a
 15272 1ccf FA0A0000 		.4byte	.LASF283
 15273 1cd3 01       		.byte	0x1
 15274 1cd4 5907     		.2byte	0x759
 15275 1cd6 D5010000 		.4byte	0x1d5
 15276 1cda 00000000 		.4byte	.LFB62
 15277 1cde FC000000 		.4byte	.LFE62-.LFB62
 15278 1ce2 01       		.uleb128 0x1
ARM GAS  C:\Users\ilya\AppData\Local\Temp\ccpEIuqL.s 			page 323


 15279 1ce3 9C       		.byte	0x9c
 15280 1ce4 341D0000 		.4byte	0x1d34
 15281 1ce8 17       		.uleb128 0x17
 15282 1ce9 44657600 		.ascii	"Dev\000"
 15283 1ced 01       		.byte	0x1
 15284 1cee 5907     		.2byte	0x759
 15285 1cf0 98070000 		.4byte	0x798
 15286 1cf4 02       		.uleb128 0x2
 15287 1cf5 91       		.byte	0x91
 15288 1cf6 4C       		.sleb128 -52
 15289 1cf7 18       		.uleb128 0x18
 15290 1cf8 8C090000 		.4byte	.LASF267
 15291 1cfc 01       		.byte	0x1
 15292 1cfd 5907     		.2byte	0x759
 15293 1cff CE000000 		.4byte	0xce
 15294 1d03 02       		.uleb128 0x2
 15295 1d04 91       		.byte	0x91
 15296 1d05 4A       		.sleb128 -54
 15297 1d06 18       		.uleb128 0x18
 15298 1d07 C3090000 		.4byte	.LASF284
 15299 1d0b 01       		.byte	0x1
 15300 1d0c 5A07     		.2byte	0x75a
 15301 1d0e 220D0000 		.4byte	0xd22
 15302 1d12 02       		.uleb128 0x2
 15303 1d13 91       		.byte	0x91
 15304 1d14 44       		.sleb128 -60
 15305 1d15 19       		.uleb128 0x19
 15306 1d16 31020000 		.4byte	.LASF143
 15307 1d1a 01       		.byte	0x1
 15308 1d1b 5C07     		.2byte	0x75c
 15309 1d1d D5010000 		.4byte	0x1d5
 15310 1d21 02       		.uleb128 0x2
 15311 1d22 91       		.byte	0x91
 15312 1d23 6F       		.sleb128 -17
 15313 1d24 19       		.uleb128 0x19
 15314 1d25 640D0000 		.4byte	.LASF182
 15315 1d29 01       		.byte	0x1
 15316 1d2a 5D07     		.2byte	0x75d
 15317 1d2c 91030000 		.4byte	0x391
 15318 1d30 02       		.uleb128 0x2
 15319 1d31 91       		.byte	0x91
 15320 1d32 50       		.sleb128 -48
 15321 1d33 00       		.byte	0
 15322 1d34 16       		.uleb128 0x16
 15323 1d35 481B0000 		.4byte	.LASF285
 15324 1d39 01       		.byte	0x1
 15325 1d3a A307     		.2byte	0x7a3
 15326 1d3c D5010000 		.4byte	0x1d5
 15327 1d40 00000000 		.4byte	.LFB63
 15328 1d44 BA000000 		.4byte	.LFE63-.LFB63
 15329 1d48 01       		.uleb128 0x1
 15330 1d49 9C       		.byte	0x9c
 15331 1d4a 9A1D0000 		.4byte	0x1d9a
 15332 1d4e 17       		.uleb128 0x17
 15333 1d4f 44657600 		.ascii	"Dev\000"
 15334 1d53 01       		.byte	0x1
 15335 1d54 A307     		.2byte	0x7a3
ARM GAS  C:\Users\ilya\AppData\Local\Temp\ccpEIuqL.s 			page 324


 15336 1d56 98070000 		.4byte	0x798
 15337 1d5a 02       		.uleb128 0x2
 15338 1d5b 91       		.byte	0x91
 15339 1d5c 64       		.sleb128 -28
 15340 1d5d 18       		.uleb128 0x18
 15341 1d5e 29050000 		.4byte	.LASF54
 15342 1d62 01       		.byte	0x1
 15343 1d63 A407     		.2byte	0x7a4
 15344 1d65 B8000000 		.4byte	0xb8
 15345 1d69 02       		.uleb128 0x2
 15346 1d6a 91       		.byte	0x91
 15347 1d6b 63       		.sleb128 -29
 15348 1d6c 19       		.uleb128 0x19
 15349 1d6d 31020000 		.4byte	.LASF143
 15350 1d71 01       		.byte	0x1
 15351 1d72 A607     		.2byte	0x7a6
 15352 1d74 D5010000 		.4byte	0x1d5
 15353 1d78 02       		.uleb128 0x2
 15354 1d79 91       		.byte	0x91
 15355 1d7a 6E       		.sleb128 -18
 15356 1d7b 19       		.uleb128 0x19
 15357 1d7c ED0B0000 		.4byte	.LASF168
 15358 1d80 01       		.byte	0x1
 15359 1d81 A707     		.2byte	0x7a7
 15360 1d83 B8000000 		.4byte	0xb8
 15361 1d87 02       		.uleb128 0x2
 15362 1d88 91       		.byte	0x91
 15363 1d89 6D       		.sleb128 -19
 15364 1d8a 19       		.uleb128 0x19
 15365 1d8b BA010000 		.4byte	.LASF286
 15366 1d8f 01       		.byte	0x1
 15367 1d90 A807     		.2byte	0x7a8
 15368 1d92 B8000000 		.4byte	0xb8
 15369 1d96 02       		.uleb128 0x2
 15370 1d97 91       		.byte	0x91
 15371 1d98 6F       		.sleb128 -17
 15372 1d99 00       		.byte	0
 15373 1d9a 16       		.uleb128 0x16
 15374 1d9b F9020000 		.4byte	.LASF287
 15375 1d9f 01       		.byte	0x1
 15376 1da0 C307     		.2byte	0x7c3
 15377 1da2 D5010000 		.4byte	0x1d5
 15378 1da6 00000000 		.4byte	.LFB64
 15379 1daa 82000000 		.4byte	.LFE64-.LFB64
 15380 1dae 01       		.uleb128 0x1
 15381 1daf 9C       		.byte	0x9c
 15382 1db0 F11D0000 		.4byte	0x1df1
 15383 1db4 17       		.uleb128 0x17
 15384 1db5 44657600 		.ascii	"Dev\000"
 15385 1db9 01       		.byte	0x1
 15386 1dba C307     		.2byte	0x7c3
 15387 1dbc 98070000 		.4byte	0x798
 15388 1dc0 02       		.uleb128 0x2
 15389 1dc1 91       		.byte	0x91
 15390 1dc2 64       		.sleb128 -28
 15391 1dc3 18       		.uleb128 0x18
 15392 1dc4 DB140000 		.4byte	.LASF288
ARM GAS  C:\Users\ilya\AppData\Local\Temp\ccpEIuqL.s 			page 325


 15393 1dc8 01       		.byte	0x1
 15394 1dc9 C407     		.2byte	0x7c4
 15395 1dcb BD060000 		.4byte	0x6bd
 15396 1dcf 02       		.uleb128 0x2
 15397 1dd0 91       		.byte	0x91
 15398 1dd1 60       		.sleb128 -32
 15399 1dd2 19       		.uleb128 0x19
 15400 1dd3 31020000 		.4byte	.LASF143
 15401 1dd7 01       		.byte	0x1
 15402 1dd8 C607     		.2byte	0x7c6
 15403 1dda D5010000 		.4byte	0x1d5
 15404 1dde 02       		.uleb128 0x2
 15405 1ddf 91       		.byte	0x91
 15406 1de0 6F       		.sleb128 -17
 15407 1de1 19       		.uleb128 0x19
 15408 1de2 930E0000 		.4byte	.LASF254
 15409 1de6 01       		.byte	0x1
 15410 1de7 C707     		.2byte	0x7c7
 15411 1de9 B8000000 		.4byte	0xb8
 15412 1ded 02       		.uleb128 0x2
 15413 1dee 91       		.byte	0x91
 15414 1def 6E       		.sleb128 -18
 15415 1df0 00       		.byte	0
 15416 1df1 16       		.uleb128 0x16
 15417 1df2 BA1A0000 		.4byte	.LASF289
 15418 1df6 01       		.byte	0x1
 15419 1df7 DC07     		.2byte	0x7dc
 15420 1df9 D5010000 		.4byte	0x1d5
 15421 1dfd 00000000 		.4byte	.LFB65
 15422 1e01 82000000 		.4byte	.LFE65-.LFB65
 15423 1e05 01       		.uleb128 0x1
 15424 1e06 9C       		.byte	0x9c
 15425 1e07 571E0000 		.4byte	0x1e57
 15426 1e0b 17       		.uleb128 0x17
 15427 1e0c 44657600 		.ascii	"Dev\000"
 15428 1e10 01       		.byte	0x1
 15429 1e11 DC07     		.2byte	0x7dc
 15430 1e13 98070000 		.4byte	0x798
 15431 1e17 02       		.uleb128 0x2
 15432 1e18 91       		.byte	0x91
 15433 1e19 6C       		.sleb128 -20
 15434 1e1a 18       		.uleb128 0x18
 15435 1e1b AB1C0000 		.4byte	.LASF62
 15436 1e1f 01       		.byte	0x1
 15437 1e20 DD07     		.2byte	0x7dd
 15438 1e22 CE000000 		.4byte	0xce
 15439 1e26 02       		.uleb128 0x2
 15440 1e27 91       		.byte	0x91
 15441 1e28 6A       		.sleb128 -22
 15442 1e29 18       		.uleb128 0x18
 15443 1e2a 24000000 		.4byte	.LASF64
 15444 1e2e 01       		.byte	0x1
 15445 1e2f DD07     		.2byte	0x7dd
 15446 1e31 F6000000 		.4byte	0xf6
 15447 1e35 02       		.uleb128 0x2
 15448 1e36 91       		.byte	0x91
 15449 1e37 64       		.sleb128 -28
ARM GAS  C:\Users\ilya\AppData\Local\Temp\ccpEIuqL.s 			page 326


 15450 1e38 19       		.uleb128 0x19
 15451 1e39 31020000 		.4byte	.LASF143
 15452 1e3d 01       		.byte	0x1
 15453 1e3e DF07     		.2byte	0x7df
 15454 1e40 D5010000 		.4byte	0x1d5
 15455 1e44 02       		.uleb128 0x2
 15456 1e45 91       		.byte	0x91
 15457 1e46 77       		.sleb128 -9
 15458 1e47 19       		.uleb128 0x19
 15459 1e48 39000000 		.4byte	.LASF290
 15460 1e4c 01       		.byte	0x1
 15461 1e4d E007     		.2byte	0x7e0
 15462 1e4f F6000000 		.4byte	0xf6
 15463 1e53 02       		.uleb128 0x2
 15464 1e54 91       		.byte	0x91
 15465 1e55 70       		.sleb128 -16
 15466 1e56 00       		.byte	0
 15467 1e57 1A       		.uleb128 0x1a
 15468 1e58 1E120000 		.4byte	.LASF291
 15469 1e5c 01       		.byte	0x1
 15470 1e5d FE07     		.2byte	0x7fe
 15471 1e5f D5010000 		.4byte	0x1d5
 15472 1e63 00000000 		.4byte	.LFB66
 15473 1e67 3C000000 		.4byte	.LFE66-.LFB66
 15474 1e6b 01       		.uleb128 0x1
 15475 1e6c 9C       		.byte	0x9c
 15476 1e6d AE1E0000 		.4byte	0x1eae
 15477 1e71 17       		.uleb128 0x17
 15478 1e72 44657600 		.ascii	"Dev\000"
 15479 1e76 01       		.byte	0x1
 15480 1e77 FE07     		.2byte	0x7fe
 15481 1e79 98070000 		.4byte	0x798
 15482 1e7d 02       		.uleb128 0x2
 15483 1e7e 91       		.byte	0x91
 15484 1e7f 6C       		.sleb128 -20
 15485 1e80 18       		.uleb128 0x18
 15486 1e81 ED160000 		.4byte	.LASF292
 15487 1e85 01       		.byte	0x1
 15488 1e86 FF07     		.2byte	0x7ff
 15489 1e88 350C0000 		.4byte	0xc35
 15490 1e8c 02       		.uleb128 0x2
 15491 1e8d 91       		.byte	0x91
 15492 1e8e 68       		.sleb128 -24
 15493 1e8f 18       		.uleb128 0x18
 15494 1e90 C80C0000 		.4byte	.LASF293
 15495 1e94 01       		.byte	0x1
 15496 1e95 FF07     		.2byte	0x7ff
 15497 1e97 220D0000 		.4byte	0xd22
 15498 1e9b 02       		.uleb128 0x2
 15499 1e9c 91       		.byte	0x91
 15500 1e9d 64       		.sleb128 -28
 15501 1e9e 19       		.uleb128 0x19
 15502 1e9f 31020000 		.4byte	.LASF143
 15503 1ea3 01       		.byte	0x1
 15504 1ea4 0108     		.2byte	0x801
 15505 1ea6 D5010000 		.4byte	0x1d5
 15506 1eaa 02       		.uleb128 0x2
ARM GAS  C:\Users\ilya\AppData\Local\Temp\ccpEIuqL.s 			page 327


 15507 1eab 91       		.byte	0x91
 15508 1eac 77       		.sleb128 -9
 15509 1ead 00       		.byte	0
 15510 1eae 16       		.uleb128 0x16
 15511 1eaf 2A0E0000 		.4byte	.LASF294
 15512 1eb3 01       		.byte	0x1
 15513 1eb4 1008     		.2byte	0x810
 15514 1eb6 D5010000 		.4byte	0x1d5
 15515 1eba 00000000 		.4byte	.LFB67
 15516 1ebe 98000000 		.4byte	.LFE67-.LFB67
 15517 1ec2 01       		.uleb128 0x1
 15518 1ec3 9C       		.byte	0x9c
 15519 1ec4 F61E0000 		.4byte	0x1ef6
 15520 1ec8 17       		.uleb128 0x17
 15521 1ec9 44657600 		.ascii	"Dev\000"
 15522 1ecd 01       		.byte	0x1
 15523 1ece 1008     		.2byte	0x810
 15524 1ed0 98070000 		.4byte	0x798
 15525 1ed4 02       		.uleb128 0x2
 15526 1ed5 91       		.byte	0x91
 15527 1ed6 64       		.sleb128 -28
 15528 1ed7 19       		.uleb128 0x19
 15529 1ed8 31020000 		.4byte	.LASF143
 15530 1edc 01       		.byte	0x1
 15531 1edd 1208     		.2byte	0x812
 15532 1edf D5010000 		.4byte	0x1d5
 15533 1ee3 02       		.uleb128 0x2
 15534 1ee4 91       		.byte	0x91
 15535 1ee5 6F       		.sleb128 -17
 15536 1ee6 19       		.uleb128 0x19
 15537 1ee7 65130000 		.4byte	.LASF43
 15538 1eeb 01       		.byte	0x1
 15539 1eec 1308     		.2byte	0x813
 15540 1eee E0010000 		.4byte	0x1e0
 15541 1ef2 02       		.uleb128 0x2
 15542 1ef3 91       		.byte	0x91
 15543 1ef4 6E       		.sleb128 -18
 15544 1ef5 00       		.byte	0
 15545 1ef6 1A       		.uleb128 0x1a
 15546 1ef7 AB060000 		.4byte	.LASF295
 15547 1efb 01       		.byte	0x1
 15548 1efc 2F08     		.2byte	0x82f
 15549 1efe D5010000 		.4byte	0x1d5
 15550 1f02 00000000 		.4byte	.LFB68
 15551 1f06 22000000 		.4byte	.LFE68-.LFB68
 15552 1f0a 01       		.uleb128 0x1
 15553 1f0b 9C       		.byte	0x9c
 15554 1f0c 3E1F0000 		.4byte	0x1f3e
 15555 1f10 17       		.uleb128 0x17
 15556 1f11 44657600 		.ascii	"Dev\000"
 15557 1f15 01       		.byte	0x1
 15558 1f16 2F08     		.2byte	0x82f
 15559 1f18 98070000 		.4byte	0x798
 15560 1f1c 02       		.uleb128 0x2
 15561 1f1d 91       		.byte	0x91
 15562 1f1e 6C       		.sleb128 -20
 15563 1f1f 18       		.uleb128 0x18
ARM GAS  C:\Users\ilya\AppData\Local\Temp\ccpEIuqL.s 			page 328


 15564 1f20 04120000 		.4byte	.LASF296
 15565 1f24 01       		.byte	0x1
 15566 1f25 3008     		.2byte	0x830
 15567 1f27 3E1F0000 		.4byte	0x1f3e
 15568 1f2b 02       		.uleb128 0x2
 15569 1f2c 91       		.byte	0x91
 15570 1f2d 68       		.sleb128 -24
 15571 1f2e 19       		.uleb128 0x19
 15572 1f2f 31020000 		.4byte	.LASF143
 15573 1f33 01       		.byte	0x1
 15574 1f34 3208     		.2byte	0x832
 15575 1f36 D5010000 		.4byte	0x1d5
 15576 1f3a 02       		.uleb128 0x2
 15577 1f3b 91       		.byte	0x91
 15578 1f3c 77       		.sleb128 -9
 15579 1f3d 00       		.byte	0
 15580 1f3e 0E       		.uleb128 0xe
 15581 1f3f 04       		.byte	0x4
 15582 1f40 05040000 		.4byte	0x405
 15583 1f44 16       		.uleb128 0x16
 15584 1f45 B3170000 		.4byte	.LASF297
 15585 1f49 01       		.byte	0x1
 15586 1f4a 3B08     		.2byte	0x83b
 15587 1f4c D5010000 		.4byte	0x1d5
 15588 1f50 00000000 		.4byte	.LFB69
 15589 1f54 38000000 		.4byte	.LFE69-.LFB69
 15590 1f58 01       		.uleb128 0x1
 15591 1f59 9C       		.byte	0x9c
 15592 1f5a 9B1F0000 		.4byte	0x1f9b
 15593 1f5e 17       		.uleb128 0x17
 15594 1f5f 44657600 		.ascii	"Dev\000"
 15595 1f63 01       		.byte	0x1
 15596 1f64 3B08     		.2byte	0x83b
 15597 1f66 98070000 		.4byte	0x798
 15598 1f6a 02       		.uleb128 0x2
 15599 1f6b 91       		.byte	0x91
 15600 1f6c 64       		.sleb128 -28
 15601 1f6d 18       		.uleb128 0x18
 15602 1f6e A00D0000 		.4byte	.LASF262
 15603 1f72 01       		.byte	0x1
 15604 1f73 3B08     		.2byte	0x83b
 15605 1f75 BD060000 		.4byte	0x6bd
 15606 1f79 02       		.uleb128 0x2
 15607 1f7a 91       		.byte	0x91
 15608 1f7b 60       		.sleb128 -32
 15609 1f7c 18       		.uleb128 0x18
 15610 1f7d 55060000 		.4byte	.LASF263
 15611 1f81 01       		.byte	0x1
 15612 1f82 3C08     		.2byte	0x83c
 15613 1f84 BD060000 		.4byte	0x6bd
 15614 1f88 02       		.uleb128 0x2
 15615 1f89 91       		.byte	0x91
 15616 1f8a 5C       		.sleb128 -36
 15617 1f8b 19       		.uleb128 0x19
 15618 1f8c 31020000 		.4byte	.LASF143
 15619 1f90 01       		.byte	0x1
 15620 1f91 3E08     		.2byte	0x83e
ARM GAS  C:\Users\ilya\AppData\Local\Temp\ccpEIuqL.s 			page 329


 15621 1f93 D5010000 		.4byte	0x1d5
 15622 1f97 02       		.uleb128 0x2
 15623 1f98 91       		.byte	0x91
 15624 1f99 6F       		.sleb128 -17
 15625 1f9a 00       		.byte	0
 15626 1f9b 1A       		.uleb128 0x1a
 15627 1f9c 7A070000 		.4byte	.LASF298
 15628 1fa0 01       		.byte	0x1
 15629 1fa1 4808     		.2byte	0x848
 15630 1fa3 D5010000 		.4byte	0x1d5
 15631 1fa7 00000000 		.4byte	.LFB70
 15632 1fab 26000000 		.4byte	.LFE70-.LFB70
 15633 1faf 01       		.uleb128 0x1
 15634 1fb0 9C       		.byte	0x9c
 15635 1fb1 01200000 		.4byte	0x2001
 15636 1fb5 17       		.uleb128 0x17
 15637 1fb6 44657600 		.ascii	"Dev\000"
 15638 1fba 01       		.byte	0x1
 15639 1fbb 4808     		.2byte	0x848
 15640 1fbd 98070000 		.4byte	0x798
 15641 1fc1 02       		.uleb128 0x2
 15642 1fc2 91       		.byte	0x91
 15643 1fc3 6C       		.sleb128 -20
 15644 1fc4 18       		.uleb128 0x18
 15645 1fc5 17040000 		.4byte	.LASF299
 15646 1fc9 01       		.byte	0x1
 15647 1fca 4908     		.2byte	0x849
 15648 1fcc E4000000 		.4byte	0xe4
 15649 1fd0 02       		.uleb128 0x2
 15650 1fd1 91       		.byte	0x91
 15651 1fd2 68       		.sleb128 -24
 15652 1fd3 18       		.uleb128 0x18
 15653 1fd4 2E030000 		.4byte	.LASF300
 15654 1fd8 01       		.byte	0x1
 15655 1fd9 4908     		.2byte	0x849
 15656 1fdb 220D0000 		.4byte	0xd22
 15657 1fdf 02       		.uleb128 0x2
 15658 1fe0 91       		.byte	0x91
 15659 1fe1 64       		.sleb128 -28
 15660 1fe2 18       		.uleb128 0x18
 15661 1fe3 5F000000 		.4byte	.LASF301
 15662 1fe7 01       		.byte	0x1
 15663 1fe8 4A08     		.2byte	0x84a
 15664 1fea BD060000 		.4byte	0x6bd
 15665 1fee 02       		.uleb128 0x2
 15666 1fef 91       		.byte	0x91
 15667 1ff0 60       		.sleb128 -32
 15668 1ff1 19       		.uleb128 0x19
 15669 1ff2 31020000 		.4byte	.LASF143
 15670 1ff6 01       		.byte	0x1
 15671 1ff7 4C08     		.2byte	0x84c
 15672 1ff9 D5010000 		.4byte	0x1d5
 15673 1ffd 02       		.uleb128 0x2
 15674 1ffe 91       		.byte	0x91
 15675 1fff 77       		.sleb128 -9
 15676 2000 00       		.byte	0
 15677 2001 16       		.uleb128 0x16
ARM GAS  C:\Users\ilya\AppData\Local\Temp\ccpEIuqL.s 			page 330


 15678 2002 1F0C0000 		.4byte	.LASF302
 15679 2006 01       		.byte	0x1
 15680 2007 5508     		.2byte	0x855
 15681 2009 D5010000 		.4byte	0x1d5
 15682 200d 00000000 		.4byte	.LFB71
 15683 2011 38000000 		.4byte	.LFE71-.LFB71
 15684 2015 01       		.uleb128 0x1
 15685 2016 9C       		.byte	0x9c
 15686 2017 58200000 		.4byte	0x2058
 15687 201b 17       		.uleb128 0x17
 15688 201c 44657600 		.ascii	"Dev\000"
 15689 2020 01       		.byte	0x1
 15690 2021 5508     		.2byte	0x855
 15691 2023 98070000 		.4byte	0x798
 15692 2027 02       		.uleb128 0x2
 15693 2028 91       		.byte	0x91
 15694 2029 64       		.sleb128 -28
 15695 202a 18       		.uleb128 0x18
 15696 202b F80B0000 		.4byte	.LASF303
 15697 202f 01       		.byte	0x1
 15698 2030 5608     		.2byte	0x856
 15699 2032 F6000000 		.4byte	0xf6
 15700 2036 02       		.uleb128 0x2
 15701 2037 91       		.byte	0x91
 15702 2038 60       		.sleb128 -32
 15703 2039 18       		.uleb128 0x18
 15704 203a 93100000 		.4byte	.LASF256
 15705 203e 01       		.byte	0x1
 15706 203f 5708     		.2byte	0x857
 15707 2041 220D0000 		.4byte	0xd22
 15708 2045 02       		.uleb128 0x2
 15709 2046 91       		.byte	0x91
 15710 2047 5C       		.sleb128 -36
 15711 2048 19       		.uleb128 0x19
 15712 2049 31020000 		.4byte	.LASF143
 15713 204d 01       		.byte	0x1
 15714 204e 5908     		.2byte	0x859
 15715 2050 D5010000 		.4byte	0x1d5
 15716 2054 02       		.uleb128 0x2
 15717 2055 91       		.byte	0x91
 15718 2056 6F       		.sleb128 -17
 15719 2057 00       		.byte	0
 15720 2058 16       		.uleb128 0x16
 15721 2059 C8110000 		.4byte	.LASF304
 15722 205d 01       		.byte	0x1
 15723 205e 6308     		.2byte	0x863
 15724 2060 D5010000 		.4byte	0x1d5
 15725 2064 00000000 		.4byte	.LFB72
 15726 2068 38000000 		.4byte	.LFE72-.LFB72
 15727 206c 01       		.uleb128 0x1
 15728 206d 9C       		.byte	0x9c
 15729 206e AF200000 		.4byte	0x20af
 15730 2072 17       		.uleb128 0x17
 15731 2073 44657600 		.ascii	"Dev\000"
 15732 2077 01       		.byte	0x1
 15733 2078 6308     		.2byte	0x863
 15734 207a 98070000 		.4byte	0x798
ARM GAS  C:\Users\ilya\AppData\Local\Temp\ccpEIuqL.s 			page 331


 15735 207e 02       		.uleb128 0x2
 15736 207f 91       		.byte	0x91
 15737 2080 64       		.sleb128 -28
 15738 2081 18       		.uleb128 0x18
 15739 2082 DF050000 		.4byte	.LASF305
 15740 2086 01       		.byte	0x1
 15741 2087 6408     		.2byte	0x864
 15742 2089 F6000000 		.4byte	0xf6
 15743 208d 02       		.uleb128 0x2
 15744 208e 91       		.byte	0x91
 15745 208f 60       		.sleb128 -32
 15746 2090 18       		.uleb128 0x18
 15747 2091 AB040000 		.4byte	.LASF306
 15748 2095 01       		.byte	0x1
 15749 2096 6408     		.2byte	0x864
 15750 2098 9F0B0000 		.4byte	0xb9f
 15751 209c 02       		.uleb128 0x2
 15752 209d 91       		.byte	0x91
 15753 209e 5C       		.sleb128 -36
 15754 209f 19       		.uleb128 0x19
 15755 20a0 31020000 		.4byte	.LASF143
 15756 20a4 01       		.byte	0x1
 15757 20a5 6608     		.2byte	0x866
 15758 20a7 D5010000 		.4byte	0x1d5
 15759 20ab 02       		.uleb128 0x2
 15760 20ac 91       		.byte	0x91
 15761 20ad 6F       		.sleb128 -17
 15762 20ae 00       		.byte	0
 15763 20af 16       		.uleb128 0x16
 15764 20b0 55190000 		.4byte	.LASF307
 15765 20b4 01       		.byte	0x1
 15766 20b5 7008     		.2byte	0x870
 15767 20b7 D5010000 		.4byte	0x1d5
 15768 20bb 00000000 		.4byte	.LFB73
 15769 20bf 24010000 		.4byte	.LFE73-.LFB73
 15770 20c3 01       		.uleb128 0x1
 15771 20c4 9C       		.byte	0x9c
 15772 20c5 24210000 		.4byte	0x2124
 15773 20c9 17       		.uleb128 0x17
 15774 20ca 44657600 		.ascii	"Dev\000"
 15775 20ce 01       		.byte	0x1
 15776 20cf 7008     		.2byte	0x870
 15777 20d1 98070000 		.4byte	0x798
 15778 20d5 02       		.uleb128 0x2
 15779 20d6 91       		.byte	0x91
 15780 20d7 5C       		.sleb128 -36
 15781 20d8 18       		.uleb128 0x18
 15782 20d9 CB1E0000 		.4byte	.LASF308
 15783 20dd 01       		.byte	0x1
 15784 20de 7108     		.2byte	0x871
 15785 20e0 B8000000 		.4byte	0xb8
 15786 20e4 02       		.uleb128 0x2
 15787 20e5 91       		.byte	0x91
 15788 20e6 5B       		.sleb128 -37
 15789 20e7 19       		.uleb128 0x19
 15790 20e8 090C0000 		.4byte	.LASF309
 15791 20ec 01       		.byte	0x1
ARM GAS  C:\Users\ilya\AppData\Local\Temp\ccpEIuqL.s 			page 332


 15792 20ed 7308     		.2byte	0x873
 15793 20ef B8000000 		.4byte	0xb8
 15794 20f3 02       		.uleb128 0x2
 15795 20f4 91       		.byte	0x91
 15796 20f5 6E       		.sleb128 -18
 15797 20f6 19       		.uleb128 0x19
 15798 20f7 82040000 		.4byte	.LASF310
 15799 20fb 01       		.byte	0x1
 15800 20fc 7408     		.2byte	0x874
 15801 20fe F6000000 		.4byte	0xf6
 15802 2102 02       		.uleb128 0x2
 15803 2103 91       		.byte	0x91
 15804 2104 68       		.sleb128 -24
 15805 2105 19       		.uleb128 0x19
 15806 2106 34180000 		.4byte	.LASF311
 15807 210a 01       		.byte	0x1
 15808 210b 7508     		.2byte	0x875
 15809 210d F6000000 		.4byte	0xf6
 15810 2111 02       		.uleb128 0x2
 15811 2112 91       		.byte	0x91
 15812 2113 64       		.sleb128 -28
 15813 2114 19       		.uleb128 0x19
 15814 2115 31020000 		.4byte	.LASF143
 15815 2119 01       		.byte	0x1
 15816 211a 7608     		.2byte	0x876
 15817 211c D5010000 		.4byte	0x1d5
 15818 2120 02       		.uleb128 0x2
 15819 2121 91       		.byte	0x91
 15820 2122 6F       		.sleb128 -17
 15821 2123 00       		.byte	0
 15822 2124 16       		.uleb128 0x16
 15823 2125 03150000 		.4byte	.LASF312
 15824 2129 01       		.byte	0x1
 15825 212a 9E08     		.2byte	0x89e
 15826 212c D5010000 		.4byte	0x1d5
 15827 2130 00000000 		.4byte	.LFB74
 15828 2134 20020000 		.4byte	.LFE74-.LFB74
 15829 2138 01       		.uleb128 0x1
 15830 2139 9C       		.byte	0x9c
 15831 213a 99210000 		.4byte	0x2199
 15832 213e 17       		.uleb128 0x17
 15833 213f 44657600 		.ascii	"Dev\000"
 15834 2143 01       		.byte	0x1
 15835 2144 9E08     		.2byte	0x89e
 15836 2146 98070000 		.4byte	0x798
 15837 214a 02       		.uleb128 0x2
 15838 214b 91       		.byte	0x91
 15839 214c 5C       		.sleb128 -36
 15840 214d 19       		.uleb128 0x19
 15841 214e 31020000 		.4byte	.LASF143
 15842 2152 01       		.byte	0x1
 15843 2153 A008     		.2byte	0x8a0
 15844 2155 D5010000 		.4byte	0x1d5
 15845 2159 02       		.uleb128 0x2
 15846 215a 91       		.byte	0x91
 15847 215b 6F       		.sleb128 -17
 15848 215c 19       		.uleb128 0x19
ARM GAS  C:\Users\ilya\AppData\Local\Temp\ccpEIuqL.s 			page 333


 15849 215d 65130000 		.4byte	.LASF43
 15850 2161 01       		.byte	0x1
 15851 2162 A108     		.2byte	0x8a1
 15852 2164 E0010000 		.4byte	0x1e0
 15853 2168 02       		.uleb128 0x2
 15854 2169 91       		.byte	0x91
 15855 216a 66       		.sleb128 -26
 15856 216b 19       		.uleb128 0x19
 15857 216c ED0B0000 		.4byte	.LASF168
 15858 2170 01       		.byte	0x1
 15859 2171 A208     		.2byte	0x8a2
 15860 2173 B8000000 		.4byte	0xb8
 15861 2177 02       		.uleb128 0x2
 15862 2178 91       		.byte	0x91
 15863 2179 65       		.sleb128 -27
 15864 217a 19       		.uleb128 0x19
 15865 217b 3E0D0000 		.4byte	.LASF313
 15866 217f 01       		.byte	0x1
 15867 2180 A308     		.2byte	0x8a3
 15868 2182 B8000000 		.4byte	0xb8
 15869 2186 02       		.uleb128 0x2
 15870 2187 91       		.byte	0x91
 15871 2188 67       		.sleb128 -25
 15872 2189 19       		.uleb128 0x19
 15873 218a 7E0F0000 		.4byte	.LASF314
 15874 218e 01       		.byte	0x1
 15875 218f A408     		.2byte	0x8a4
 15876 2191 E4000000 		.4byte	0xe4
 15877 2195 02       		.uleb128 0x2
 15878 2196 91       		.byte	0x91
 15879 2197 68       		.sleb128 -24
 15880 2198 00       		.byte	0
 15881 2199 16       		.uleb128 0x16
 15882 219a A3120000 		.4byte	.LASF315
 15883 219e 01       		.byte	0x1
 15884 219f F108     		.2byte	0x8f1
 15885 21a1 D5010000 		.4byte	0x1d5
 15886 21a5 00000000 		.4byte	.LFB75
 15887 21a9 CC000000 		.4byte	.LFE75-.LFB75
 15888 21ad 01       		.uleb128 0x1
 15889 21ae 9C       		.byte	0x9c
 15890 21af D2210000 		.4byte	0x21d2
 15891 21b3 17       		.uleb128 0x17
 15892 21b4 44657600 		.ascii	"Dev\000"
 15893 21b8 01       		.byte	0x1
 15894 21b9 F108     		.2byte	0x8f1
 15895 21bb 98070000 		.4byte	0x798
 15896 21bf 02       		.uleb128 0x2
 15897 21c0 91       		.byte	0x91
 15898 21c1 64       		.sleb128 -28
 15899 21c2 19       		.uleb128 0x19
 15900 21c3 31020000 		.4byte	.LASF143
 15901 21c7 01       		.byte	0x1
 15902 21c8 F308     		.2byte	0x8f3
 15903 21ca D5010000 		.4byte	0x1d5
 15904 21ce 02       		.uleb128 0x2
 15905 21cf 91       		.byte	0x91
ARM GAS  C:\Users\ilya\AppData\Local\Temp\ccpEIuqL.s 			page 334


 15906 21d0 6F       		.sleb128 -17
 15907 21d1 00       		.byte	0
 15908 21d2 16       		.uleb128 0x16
 15909 21d3 8B1C0000 		.4byte	.LASF316
 15910 21d7 01       		.byte	0x1
 15911 21d8 0C09     		.2byte	0x90c
 15912 21da D5010000 		.4byte	0x1d5
 15913 21de 00000000 		.4byte	.LFB76
 15914 21e2 A2000000 		.4byte	.LFE76-.LFB76
 15915 21e6 01       		.uleb128 0x1
 15916 21e7 9C       		.byte	0x9c
 15917 21e8 47220000 		.4byte	0x2247
 15918 21ec 17       		.uleb128 0x17
 15919 21ed 44657600 		.ascii	"Dev\000"
 15920 21f1 01       		.byte	0x1
 15921 21f2 0C09     		.2byte	0x90c
 15922 21f4 98070000 		.4byte	0x798
 15923 21f8 02       		.uleb128 0x2
 15924 21f9 91       		.byte	0x91
 15925 21fa 64       		.sleb128 -28
 15926 21fb 18       		.uleb128 0x18
 15927 21fc 49050000 		.4byte	.LASF317
 15928 2200 01       		.byte	0x1
 15929 2201 0D09     		.2byte	0x90d
 15930 2203 BD060000 		.4byte	0x6bd
 15931 2207 02       		.uleb128 0x2
 15932 2208 91       		.byte	0x91
 15933 2209 60       		.sleb128 -32
 15934 220a 19       		.uleb128 0x19
 15935 220b 31020000 		.4byte	.LASF143
 15936 220f 01       		.byte	0x1
 15937 2210 0F09     		.2byte	0x90f
 15938 2212 D5010000 		.4byte	0x1d5
 15939 2216 02       		.uleb128 0x2
 15940 2217 91       		.byte	0x91
 15941 2218 6F       		.sleb128 -17
 15942 2219 19       		.uleb128 0x19
 15943 221a 4D040000 		.4byte	.LASF318
 15944 221e 01       		.byte	0x1
 15945 221f 1009     		.2byte	0x910
 15946 2221 B8000000 		.4byte	0xb8
 15947 2225 02       		.uleb128 0x2
 15948 2226 91       		.byte	0x91
 15949 2227 6D       		.sleb128 -19
 15950 2228 19       		.uleb128 0x19
 15951 2229 090C0000 		.4byte	.LASF309
 15952 222d 01       		.byte	0x1
 15953 222e 1109     		.2byte	0x911
 15954 2230 B8000000 		.4byte	0xb8
 15955 2234 02       		.uleb128 0x2
 15956 2235 91       		.byte	0x91
 15957 2236 6E       		.sleb128 -18
 15958 2237 19       		.uleb128 0x19
 15959 2238 9D060000 		.4byte	.LASF319
 15960 223c 01       		.byte	0x1
 15961 223d 1209     		.2byte	0x912
 15962 223f E4000000 		.4byte	0xe4
ARM GAS  C:\Users\ilya\AppData\Local\Temp\ccpEIuqL.s 			page 335


 15963 2243 02       		.uleb128 0x2
 15964 2244 91       		.byte	0x91
 15965 2245 68       		.sleb128 -24
 15966 2246 00       		.byte	0
 15967 2247 1A       		.uleb128 0x1a
 15968 2248 0B180000 		.4byte	.LASF320
 15969 224c 01       		.byte	0x1
 15970 224d 2F09     		.2byte	0x92f
 15971 224f D5010000 		.4byte	0x1d5
 15972 2253 00000000 		.4byte	.LFB77
 15973 2257 22000000 		.4byte	.LFE77-.LFB77
 15974 225b 01       		.uleb128 0x1
 15975 225c 9C       		.byte	0x9c
 15976 225d 8F220000 		.4byte	0x228f
 15977 2261 17       		.uleb128 0x17
 15978 2262 44657600 		.ascii	"Dev\000"
 15979 2266 01       		.byte	0x1
 15980 2267 2F09     		.2byte	0x92f
 15981 2269 98070000 		.4byte	0x798
 15982 226d 02       		.uleb128 0x2
 15983 226e 91       		.byte	0x91
 15984 226f 6C       		.sleb128 -20
 15985 2270 18       		.uleb128 0x18
 15986 2271 501E0000 		.4byte	.LASF321
 15987 2275 01       		.byte	0x1
 15988 2276 3009     		.2byte	0x930
 15989 2278 E4000000 		.4byte	0xe4
 15990 227c 02       		.uleb128 0x2
 15991 227d 91       		.byte	0x91
 15992 227e 68       		.sleb128 -24
 15993 227f 19       		.uleb128 0x19
 15994 2280 31020000 		.4byte	.LASF143
 15995 2284 01       		.byte	0x1
 15996 2285 3209     		.2byte	0x932
 15997 2287 D5010000 		.4byte	0x1d5
 15998 228b 02       		.uleb128 0x2
 15999 228c 91       		.byte	0x91
 16000 228d 77       		.sleb128 -9
 16001 228e 00       		.byte	0
 16002 228f 16       		.uleb128 0x16
 16003 2290 70130000 		.4byte	.LASF322
 16004 2294 01       		.byte	0x1
 16005 2295 3C09     		.2byte	0x93c
 16006 2297 D5010000 		.4byte	0x1d5
 16007 229b 00000000 		.4byte	.LFB78
 16008 229f E4020000 		.4byte	.LFE78-.LFB78
 16009 22a3 01       		.uleb128 0x1
 16010 22a4 9C       		.byte	0x9c
 16011 22a5 9D230000 		.4byte	0x239d
 16012 22a9 17       		.uleb128 0x17
 16013 22aa 44657600 		.ascii	"Dev\000"
 16014 22ae 01       		.byte	0x1
 16015 22af 3C09     		.2byte	0x93c
 16016 22b1 98070000 		.4byte	0x798
 16017 22b5 03       		.uleb128 0x3
 16018 22b6 91       		.byte	0x91
 16019 22b7 A47F     		.sleb128 -92
ARM GAS  C:\Users\ilya\AppData\Local\Temp\ccpEIuqL.s 			page 336


 16020 22b9 18       		.uleb128 0x18
 16021 22ba 4C0D0000 		.4byte	.LASF323
 16022 22be 01       		.byte	0x1
 16023 22bf 3D09     		.2byte	0x93d
 16024 22c1 9D230000 		.4byte	0x239d
 16025 22c5 03       		.uleb128 0x3
 16026 22c6 91       		.byte	0x91
 16027 22c7 A07F     		.sleb128 -96
 16028 22c9 19       		.uleb128 0x19
 16029 22ca 31020000 		.4byte	.LASF143
 16030 22ce 01       		.byte	0x1
 16031 22cf 3F09     		.2byte	0x93f
 16032 22d1 D5010000 		.4byte	0x1d5
 16033 22d5 02       		.uleb128 0x2
 16034 22d6 91       		.byte	0x91
 16035 22d7 6F       		.sleb128 -17
 16036 22d8 19       		.uleb128 0x19
 16037 22d9 00000000 		.4byte	.LASF324
 16038 22dd 01       		.byte	0x1
 16039 22de 4009     		.2byte	0x940
 16040 22e0 B8000000 		.4byte	0xb8
 16041 22e4 02       		.uleb128 0x2
 16042 22e5 91       		.byte	0x91
 16043 22e6 5F       		.sleb128 -33
 16044 22e7 19       		.uleb128 0x19
 16045 22e8 6A1C0000 		.4byte	.LASF110
 16046 22ec 01       		.byte	0x1
 16047 22ed 4109     		.2byte	0x941
 16048 22ef B8000000 		.4byte	0xb8
 16049 22f3 02       		.uleb128 0x2
 16050 22f4 91       		.byte	0x91
 16051 22f5 5B       		.sleb128 -37
 16052 22f6 19       		.uleb128 0x19
 16053 22f7 881A0000 		.4byte	.LASF325
 16054 22fb 01       		.byte	0x1
 16055 22fc 4209     		.2byte	0x942
 16056 22fe B8000000 		.4byte	0xb8
 16057 2302 02       		.uleb128 0x2
 16058 2303 91       		.byte	0x91
 16059 2304 56       		.sleb128 -42
 16060 2305 19       		.uleb128 0x19
 16061 2306 EB000000 		.4byte	.LASF47
 16062 230a 01       		.byte	0x1
 16063 230b 4309     		.2byte	0x943
 16064 230d B8000000 		.4byte	0xb8
 16065 2311 02       		.uleb128 0x2
 16066 2312 91       		.byte	0x91
 16067 2313 57       		.sleb128 -41
 16068 2314 19       		.uleb128 0x19
 16069 2315 D3010000 		.4byte	.LASF326
 16070 2319 01       		.byte	0x1
 16071 231a 4409     		.2byte	0x944
 16072 231c CE000000 		.4byte	0xce
 16073 2320 02       		.uleb128 0x2
 16074 2321 91       		.byte	0x91
 16075 2322 62       		.sleb128 -30
 16076 2323 19       		.uleb128 0x19
ARM GAS  C:\Users\ilya\AppData\Local\Temp\ccpEIuqL.s 			page 337


 16077 2324 D20B0000 		.4byte	.LASF327
 16078 2328 01       		.byte	0x1
 16079 2329 4509     		.2byte	0x945
 16080 232b F6000000 		.4byte	0xf6
 16081 232f 02       		.uleb128 0x2
 16082 2330 91       		.byte	0x91
 16083 2331 64       		.sleb128 -28
 16084 2332 19       		.uleb128 0x19
 16085 2333 92130000 		.4byte	.LASF49
 16086 2337 01       		.byte	0x1
 16087 2338 4609     		.2byte	0x946
 16088 233a CE000000 		.4byte	0xce
 16089 233e 02       		.uleb128 0x2
 16090 233f 91       		.byte	0x91
 16091 2340 58       		.sleb128 -40
 16092 2341 19       		.uleb128 0x19
 16093 2342 D20A0000 		.4byte	.LASF66
 16094 2346 01       		.byte	0x1
 16095 2347 4709     		.2byte	0x947
 16096 2349 CE000000 		.4byte	0xce
 16097 234d 02       		.uleb128 0x2
 16098 234e 91       		.byte	0x91
 16099 234f 60       		.sleb128 -32
 16100 2350 19       		.uleb128 0x19
 16101 2351 A90B0000 		.4byte	.LASF328
 16102 2355 01       		.byte	0x1
 16103 2356 4809     		.2byte	0x948
 16104 2358 CE000000 		.4byte	0xce
 16105 235c 02       		.uleb128 0x2
 16106 235d 91       		.byte	0x91
 16107 235e 6C       		.sleb128 -20
 16108 235f 19       		.uleb128 0x19
 16109 2360 CA050000 		.4byte	.LASF329
 16110 2364 01       		.byte	0x1
 16111 2365 4909     		.2byte	0x949
 16112 2367 CE000000 		.4byte	0xce
 16113 236b 02       		.uleb128 0x2
 16114 236c 91       		.byte	0x91
 16115 236d 6A       		.sleb128 -22
 16116 236e 19       		.uleb128 0x19
 16117 236f 920A0000 		.4byte	.LASF120
 16118 2373 01       		.byte	0x1
 16119 2374 4A09     		.2byte	0x94a
 16120 2376 CE000000 		.4byte	0xce
 16121 237a 02       		.uleb128 0x2
 16122 237b 91       		.byte	0x91
 16123 237c 5C       		.sleb128 -36
 16124 237d 19       		.uleb128 0x19
 16125 237e 14110000 		.4byte	.LASF330
 16126 2382 01       		.byte	0x1
 16127 2383 4B09     		.2byte	0x94b
 16128 2385 A3230000 		.4byte	0x23a3
 16129 2389 02       		.uleb128 0x2
 16130 238a 91       		.byte	0x91
 16131 238b 48       		.sleb128 -56
 16132 238c 19       		.uleb128 0x19
 16133 238d 640D0000 		.4byte	.LASF182
ARM GAS  C:\Users\ilya\AppData\Local\Temp\ccpEIuqL.s 			page 338


 16134 2391 01       		.byte	0x1
 16135 2392 4C09     		.2byte	0x94c
 16136 2394 91030000 		.4byte	0x391
 16137 2398 03       		.uleb128 0x3
 16138 2399 91       		.byte	0x91
 16139 239a AC7F     		.sleb128 -84
 16140 239c 00       		.byte	0
 16141 239d 0E       		.uleb128 0xe
 16142 239e 04       		.byte	0x4
 16143 239f 91030000 		.4byte	0x391
 16144 23a3 07       		.uleb128 0x7
 16145 23a4 B8000000 		.4byte	0xb8
 16146 23a8 B3230000 		.4byte	0x23b3
 16147 23ac 08       		.uleb128 0x8
 16148 23ad BC010000 		.4byte	0x1bc
 16149 23b1 0B       		.byte	0xb
 16150 23b2 00       		.byte	0
 16151 23b3 16       		.uleb128 0x16
 16152 23b4 D8100000 		.4byte	.LASF331
 16153 23b8 01       		.byte	0x1
 16154 23b9 D709     		.2byte	0x9d7
 16155 23bb D5010000 		.4byte	0x1d5
 16156 23bf 00000000 		.4byte	.LFB79
 16157 23c3 60000000 		.4byte	.LFE79-.LFB79
 16158 23c7 01       		.uleb128 0x1
 16159 23c8 9C       		.byte	0x9c
 16160 23c9 0A240000 		.4byte	0x240a
 16161 23cd 17       		.uleb128 0x17
 16162 23ce 44657600 		.ascii	"Dev\000"
 16163 23d2 01       		.byte	0x1
 16164 23d3 D709     		.2byte	0x9d7
 16165 23d5 98070000 		.4byte	0x798
 16166 23d9 02       		.uleb128 0x2
 16167 23da 91       		.byte	0x91
 16168 23db 64       		.sleb128 -28
 16169 23dc 18       		.uleb128 0x18
 16170 23dd 980E0000 		.4byte	.LASF332
 16171 23e1 01       		.byte	0x1
 16172 23e2 D809     		.2byte	0x9d8
 16173 23e4 220D0000 		.4byte	0xd22
 16174 23e8 02       		.uleb128 0x2
 16175 23e9 91       		.byte	0x91
 16176 23ea 60       		.sleb128 -32
 16177 23eb 19       		.uleb128 0x19
 16178 23ec 31020000 		.4byte	.LASF143
 16179 23f0 01       		.byte	0x1
 16180 23f1 DA09     		.2byte	0x9da
 16181 23f3 D5010000 		.4byte	0x1d5
 16182 23f7 02       		.uleb128 0x2
 16183 23f8 91       		.byte	0x91
 16184 23f9 6F       		.sleb128 -17
 16185 23fa 19       		.uleb128 0x19
 16186 23fb 64040000 		.4byte	.LASF333
 16187 23ff 01       		.byte	0x1
 16188 2400 DB09     		.2byte	0x9db
 16189 2402 B8000000 		.4byte	0xb8
 16190 2406 02       		.uleb128 0x2
ARM GAS  C:\Users\ilya\AppData\Local\Temp\ccpEIuqL.s 			page 339


 16191 2407 91       		.byte	0x91
 16192 2408 6E       		.sleb128 -18
 16193 2409 00       		.byte	0
 16194 240a 1A       		.uleb128 0x1a
 16195 240b DF010000 		.4byte	.LASF334
 16196 240f 01       		.byte	0x1
 16197 2410 EB09     		.2byte	0x9eb
 16198 2412 D5010000 		.4byte	0x1d5
 16199 2416 00000000 		.4byte	.LFB80
 16200 241a 22000000 		.4byte	.LFE80-.LFB80
 16201 241e 01       		.uleb128 0x1
 16202 241f 9C       		.byte	0x9c
 16203 2420 52240000 		.4byte	0x2452
 16204 2424 17       		.uleb128 0x17
 16205 2425 44657600 		.ascii	"Dev\000"
 16206 2429 01       		.byte	0x1
 16207 242a EB09     		.2byte	0x9eb
 16208 242c 98070000 		.4byte	0x798
 16209 2430 02       		.uleb128 0x2
 16210 2431 91       		.byte	0x91
 16211 2432 6C       		.sleb128 -20
 16212 2433 18       		.uleb128 0x18
 16213 2434 04120000 		.4byte	.LASF296
 16214 2438 01       		.byte	0x1
 16215 2439 EC09     		.2byte	0x9ec
 16216 243b 3E1F0000 		.4byte	0x1f3e
 16217 243f 02       		.uleb128 0x2
 16218 2440 91       		.byte	0x91
 16219 2441 68       		.sleb128 -24
 16220 2442 19       		.uleb128 0x19
 16221 2443 31020000 		.4byte	.LASF143
 16222 2447 01       		.byte	0x1
 16223 2448 EE09     		.2byte	0x9ee
 16224 244a D5010000 		.4byte	0x1d5
 16225 244e 02       		.uleb128 0x2
 16226 244f 91       		.byte	0x91
 16227 2450 77       		.sleb128 -9
 16228 2451 00       		.byte	0
 16229 2452 16       		.uleb128 0x16
 16230 2453 5B170000 		.4byte	.LASF335
 16231 2457 01       		.byte	0x1
 16232 2458 F509     		.2byte	0x9f5
 16233 245a D5010000 		.4byte	0x1d5
 16234 245e 00000000 		.4byte	.LFB81
 16235 2462 82000000 		.4byte	.LFE81-.LFB81
 16236 2466 01       		.uleb128 0x1
 16237 2467 9C       		.byte	0x9c
 16238 2468 9A240000 		.4byte	0x249a
 16239 246c 17       		.uleb128 0x17
 16240 246d 44657600 		.ascii	"Dev\000"
 16241 2471 01       		.byte	0x1
 16242 2472 F509     		.2byte	0x9f5
 16243 2474 98070000 		.4byte	0x798
 16244 2478 02       		.uleb128 0x2
 16245 2479 91       		.byte	0x91
 16246 247a 64       		.sleb128 -28
 16247 247b 18       		.uleb128 0x18
ARM GAS  C:\Users\ilya\AppData\Local\Temp\ccpEIuqL.s 			page 340


 16248 247c 4C0D0000 		.4byte	.LASF323
 16249 2480 01       		.byte	0x1
 16250 2481 F609     		.2byte	0x9f6
 16251 2483 9D230000 		.4byte	0x239d
 16252 2487 02       		.uleb128 0x2
 16253 2488 91       		.byte	0x91
 16254 2489 60       		.sleb128 -32
 16255 248a 19       		.uleb128 0x19
 16256 248b 31020000 		.4byte	.LASF143
 16257 248f 01       		.byte	0x1
 16258 2490 F809     		.2byte	0x9f8
 16259 2492 D5010000 		.4byte	0x1d5
 16260 2496 02       		.uleb128 0x2
 16261 2497 91       		.byte	0x91
 16262 2498 6F       		.sleb128 -17
 16263 2499 00       		.byte	0
 16264 249a 1A       		.uleb128 0x1a
 16265 249b F8100000 		.4byte	.LASF336
 16266 249f 01       		.byte	0x1
 16267 24a0 110A     		.2byte	0xa11
 16268 24a2 D5010000 		.4byte	0x1d5
 16269 24a6 00000000 		.4byte	.LFB82
 16270 24aa 36000000 		.4byte	.LFE82-.LFB82
 16271 24ae 01       		.uleb128 0x1
 16272 24af 9C       		.byte	0x9c
 16273 24b0 E2240000 		.4byte	0x24e2
 16274 24b4 17       		.uleb128 0x17
 16275 24b5 44657600 		.ascii	"Dev\000"
 16276 24b9 01       		.byte	0x1
 16277 24ba 110A     		.2byte	0xa11
 16278 24bc 98070000 		.4byte	0x798
 16279 24c0 02       		.uleb128 0x2
 16280 24c1 91       		.byte	0x91
 16281 24c2 6C       		.sleb128 -20
 16282 24c3 18       		.uleb128 0x18
 16283 24c4 3D1C0000 		.4byte	.LASF337
 16284 24c8 01       		.byte	0x1
 16285 24c9 120A     		.2byte	0xa12
 16286 24cb B8000000 		.4byte	0xb8
 16287 24cf 02       		.uleb128 0x2
 16288 24d0 91       		.byte	0x91
 16289 24d1 6B       		.sleb128 -21
 16290 24d2 19       		.uleb128 0x19
 16291 24d3 31020000 		.4byte	.LASF143
 16292 24d7 01       		.byte	0x1
 16293 24d8 140A     		.2byte	0xa14
 16294 24da D5010000 		.4byte	0x1d5
 16295 24de 02       		.uleb128 0x2
 16296 24df 91       		.byte	0x91
 16297 24e0 77       		.sleb128 -9
 16298 24e1 00       		.byte	0
 16299 24e2 1A       		.uleb128 0x1a
 16300 24e3 BD1B0000 		.4byte	.LASF338
 16301 24e7 01       		.byte	0x1
 16302 24e8 200A     		.2byte	0xa20
 16303 24ea D5010000 		.4byte	0x1d5
 16304 24ee 00000000 		.4byte	.LFB83
ARM GAS  C:\Users\ilya\AppData\Local\Temp\ccpEIuqL.s 			page 341


 16305 24f2 28000000 		.4byte	.LFE83-.LFB83
 16306 24f6 01       		.uleb128 0x1
 16307 24f7 9C       		.byte	0x9c
 16308 24f8 2A250000 		.4byte	0x252a
 16309 24fc 17       		.uleb128 0x17
 16310 24fd 44657600 		.ascii	"Dev\000"
 16311 2501 01       		.byte	0x1
 16312 2502 200A     		.2byte	0xa20
 16313 2504 98070000 		.4byte	0x798
 16314 2508 02       		.uleb128 0x2
 16315 2509 91       		.byte	0x91
 16316 250a 6C       		.sleb128 -20
 16317 250b 18       		.uleb128 0x18
 16318 250c EF150000 		.4byte	.LASF339
 16319 2510 01       		.byte	0x1
 16320 2511 210A     		.2byte	0xa21
 16321 2513 BD060000 		.4byte	0x6bd
 16322 2517 02       		.uleb128 0x2
 16323 2518 91       		.byte	0x91
 16324 2519 68       		.sleb128 -24
 16325 251a 19       		.uleb128 0x19
 16326 251b 31020000 		.4byte	.LASF143
 16327 251f 01       		.byte	0x1
 16328 2520 230A     		.2byte	0xa23
 16329 2522 D5010000 		.4byte	0x1d5
 16330 2526 02       		.uleb128 0x2
 16331 2527 91       		.byte	0x91
 16332 2528 77       		.sleb128 -9
 16333 2529 00       		.byte	0
 16334 252a 1A       		.uleb128 0x1a
 16335 252b 7E060000 		.4byte	.LASF340
 16336 252f 01       		.byte	0x1
 16337 2530 2D0A     		.2byte	0xa2d
 16338 2532 D5010000 		.4byte	0x1d5
 16339 2536 00000000 		.4byte	.LFB84
 16340 253a 28000000 		.4byte	.LFE84-.LFB84
 16341 253e 01       		.uleb128 0x1
 16342 253f 9C       		.byte	0x9c
 16343 2540 72250000 		.4byte	0x2572
 16344 2544 17       		.uleb128 0x17
 16345 2545 44657600 		.ascii	"Dev\000"
 16346 2549 01       		.byte	0x1
 16347 254a 2D0A     		.2byte	0xa2d
 16348 254c 98070000 		.4byte	0x798
 16349 2550 02       		.uleb128 0x2
 16350 2551 91       		.byte	0x91
 16351 2552 6C       		.sleb128 -20
 16352 2553 18       		.uleb128 0x18
 16353 2554 01160000 		.4byte	.LASF341
 16354 2558 01       		.byte	0x1
 16355 2559 2E0A     		.2byte	0xa2e
 16356 255b BD060000 		.4byte	0x6bd
 16357 255f 02       		.uleb128 0x2
 16358 2560 91       		.byte	0x91
 16359 2561 68       		.sleb128 -24
 16360 2562 19       		.uleb128 0x19
 16361 2563 31020000 		.4byte	.LASF143
ARM GAS  C:\Users\ilya\AppData\Local\Temp\ccpEIuqL.s 			page 342


 16362 2567 01       		.byte	0x1
 16363 2568 300A     		.2byte	0xa30
 16364 256a D5010000 		.4byte	0x1d5
 16365 256e 02       		.uleb128 0x2
 16366 256f 91       		.byte	0x91
 16367 2570 77       		.sleb128 -9
 16368 2571 00       		.byte	0
 16369 2572 16       		.uleb128 0x16
 16370 2573 700E0000 		.4byte	.LASF342
 16371 2577 01       		.byte	0x1
 16372 2578 3C0A     		.2byte	0xa3c
 16373 257a D5010000 		.4byte	0x1d5
 16374 257e 00000000 		.4byte	.LFB85
 16375 2582 4C030000 		.4byte	.LFE85-.LFB85
 16376 2586 01       		.uleb128 0x1
 16377 2587 9C       		.byte	0x9c
 16378 2588 F6250000 		.4byte	0x25f6
 16379 258c 17       		.uleb128 0x17
 16380 258d 44657600 		.ascii	"Dev\000"
 16381 2591 01       		.byte	0x1
 16382 2592 3C0A     		.2byte	0xa3c
 16383 2594 98070000 		.4byte	0x798
 16384 2598 02       		.uleb128 0x2
 16385 2599 91       		.byte	0x91
 16386 259a 64       		.sleb128 -28
 16387 259b 17       		.uleb128 0x17
 16388 259c 50696E00 		.ascii	"Pin\000"
 16389 25a0 01       		.byte	0x1
 16390 25a1 3C0A     		.2byte	0xa3c
 16391 25a3 B8000000 		.4byte	0xb8
 16392 25a7 02       		.uleb128 0x2
 16393 25a8 91       		.byte	0x91
 16394 25a9 63       		.sleb128 -29
 16395 25aa 18       		.uleb128 0x18
 16396 25ab 65130000 		.4byte	.LASF43
 16397 25af 01       		.byte	0x1
 16398 25b0 3D0A     		.2byte	0xa3d
 16399 25b2 E0010000 		.4byte	0x1e0
 16400 25b6 02       		.uleb128 0x2
 16401 25b7 91       		.byte	0x91
 16402 25b8 62       		.sleb128 -30
 16403 25b9 18       		.uleb128 0x18
 16404 25ba 641E0000 		.4byte	.LASF343
 16405 25be 01       		.byte	0x1
 16406 25bf 3D0A     		.2byte	0xa3d
 16407 25c1 0C010000 		.4byte	0x10c
 16408 25c5 02       		.uleb128 0x2
 16409 25c6 91       		.byte	0x91
 16410 25c7 61       		.sleb128 -31
 16411 25c8 18       		.uleb128 0x18
 16412 25c9 21040000 		.4byte	.LASF344
 16413 25cd 01       		.byte	0x1
 16414 25ce 3E0A     		.2byte	0xa3e
 16415 25d0 CF060000 		.4byte	0x6cf
 16416 25d4 02       		.uleb128 0x2
 16417 25d5 91       		.byte	0x91
 16418 25d6 00       		.sleb128 0
ARM GAS  C:\Users\ilya\AppData\Local\Temp\ccpEIuqL.s 			page 343


 16419 25d7 19       		.uleb128 0x19
 16420 25d8 31020000 		.4byte	.LASF143
 16421 25dc 01       		.byte	0x1
 16422 25dd 400A     		.2byte	0xa40
 16423 25df D5010000 		.4byte	0x1d5
 16424 25e3 02       		.uleb128 0x2
 16425 25e4 91       		.byte	0x91
 16426 25e5 6F       		.sleb128 -17
 16427 25e6 19       		.uleb128 0x19
 16428 25e7 930E0000 		.4byte	.LASF254
 16429 25eb 01       		.byte	0x1
 16430 25ec 410A     		.2byte	0xa41
 16431 25ee B8000000 		.4byte	0xb8
 16432 25f2 02       		.uleb128 0x2
 16433 25f3 91       		.byte	0x91
 16434 25f4 6E       		.sleb128 -18
 16435 25f5 00       		.byte	0
 16436 25f6 16       		.uleb128 0x16
 16437 25f7 56100000 		.4byte	.LASF345
 16438 25fb 01       		.byte	0x1
 16439 25fc 9B0A     		.2byte	0xa9b
 16440 25fe D5010000 		.4byte	0x1d5
 16441 2602 00000000 		.4byte	.LFB86
 16442 2606 48010000 		.4byte	.LFE86-.LFB86
 16443 260a 01       		.uleb128 0x1
 16444 260b 9C       		.byte	0x9c
 16445 260c 89260000 		.4byte	0x2689
 16446 2610 17       		.uleb128 0x17
 16447 2611 44657600 		.ascii	"Dev\000"
 16448 2615 01       		.byte	0x1
 16449 2616 9B0A     		.2byte	0xa9b
 16450 2618 98070000 		.4byte	0x798
 16451 261c 02       		.uleb128 0x2
 16452 261d 91       		.byte	0x91
 16453 261e 64       		.sleb128 -28
 16454 261f 17       		.uleb128 0x17
 16455 2620 50696E00 		.ascii	"Pin\000"
 16456 2624 01       		.byte	0x1
 16457 2625 9B0A     		.2byte	0xa9b
 16458 2627 B8000000 		.4byte	0xb8
 16459 262b 02       		.uleb128 0x2
 16460 262c 91       		.byte	0x91
 16461 262d 63       		.sleb128 -29
 16462 262e 18       		.uleb128 0x18
 16463 262f 4F170000 		.4byte	.LASF207
 16464 2633 01       		.byte	0x1
 16465 2634 9C0A     		.2byte	0xa9c
 16466 2636 3D110000 		.4byte	0x113d
 16467 263a 02       		.uleb128 0x2
 16468 263b 91       		.byte	0x91
 16469 263c 5C       		.sleb128 -36
 16470 263d 18       		.uleb128 0x18
 16471 263e FC170000 		.4byte	.LASF346
 16472 2642 01       		.byte	0x1
 16473 2643 9D0A     		.2byte	0xa9d
 16474 2645 89260000 		.4byte	0x2689
 16475 2649 02       		.uleb128 0x2
ARM GAS  C:\Users\ilya\AppData\Local\Temp\ccpEIuqL.s 			page 344


 16476 264a 91       		.byte	0x91
 16477 264b 58       		.sleb128 -40
 16478 264c 18       		.uleb128 0x18
 16479 264d 28140000 		.4byte	.LASF347
 16480 2651 01       		.byte	0x1
 16481 2652 9E0A     		.2byte	0xa9e
 16482 2654 8F260000 		.4byte	0x268f
 16483 2658 02       		.uleb128 0x2
 16484 2659 91       		.byte	0x91
 16485 265a 00       		.sleb128 0
 16486 265b 19       		.uleb128 0x19
 16487 265c 31020000 		.4byte	.LASF143
 16488 2660 01       		.byte	0x1
 16489 2661 A00A     		.2byte	0xaa0
 16490 2663 D5010000 		.4byte	0x1d5
 16491 2667 02       		.uleb128 0x2
 16492 2668 91       		.byte	0x91
 16493 2669 6F       		.sleb128 -17
 16494 266a 19       		.uleb128 0x19
 16495 266b 721E0000 		.4byte	.LASF348
 16496 266f 01       		.byte	0x1
 16497 2670 A10A     		.2byte	0xaa1
 16498 2672 0C010000 		.4byte	0x10c
 16499 2676 02       		.uleb128 0x2
 16500 2677 91       		.byte	0x91
 16501 2678 6E       		.sleb128 -18
 16502 2679 19       		.uleb128 0x19
 16503 267a 930E0000 		.4byte	.LASF254
 16504 267e 01       		.byte	0x1
 16505 267f A20A     		.2byte	0xaa2
 16506 2681 B8000000 		.4byte	0xb8
 16507 2685 02       		.uleb128 0x2
 16508 2686 91       		.byte	0x91
 16509 2687 6D       		.sleb128 -19
 16510 2688 00       		.byte	0
 16511 2689 0E       		.uleb128 0xe
 16512 268a 04       		.byte	0x4
 16513 268b 0C010000 		.4byte	0x10c
 16514 268f 0E       		.uleb128 0xe
 16515 2690 04       		.byte	0x4
 16516 2691 CF060000 		.4byte	0x6cf
 16517 2695 16       		.uleb128 0x16
 16518 2696 581D0000 		.4byte	.LASF349
 16519 269a 01       		.byte	0x1
 16520 269b E20A     		.2byte	0xae2
 16521 269d D5010000 		.4byte	0x1d5
 16522 26a1 00000000 		.4byte	.LFB87
 16523 26a5 88000000 		.4byte	.LFE87-.LFB87
 16524 26a9 01       		.uleb128 0x1
 16525 26aa 9C       		.byte	0x9c
 16526 26ab 0A270000 		.4byte	0x270a
 16527 26af 17       		.uleb128 0x17
 16528 26b0 44657600 		.ascii	"Dev\000"
 16529 26b4 01       		.byte	0x1
 16530 26b5 E20A     		.2byte	0xae2
 16531 26b7 98070000 		.4byte	0x798
 16532 26bb 02       		.uleb128 0x2
ARM GAS  C:\Users\ilya\AppData\Local\Temp\ccpEIuqL.s 			page 345


 16533 26bc 91       		.byte	0x91
 16534 26bd 64       		.sleb128 -28
 16535 26be 18       		.uleb128 0x18
 16536 26bf 65130000 		.4byte	.LASF43
 16537 26c3 01       		.byte	0x1
 16538 26c4 E30A     		.2byte	0xae3
 16539 26c6 E0010000 		.4byte	0x1e0
 16540 26ca 02       		.uleb128 0x2
 16541 26cb 91       		.byte	0x91
 16542 26cc 63       		.sleb128 -29
 16543 26cd 18       		.uleb128 0x18
 16544 26ce 82040000 		.4byte	.LASF310
 16545 26d2 01       		.byte	0x1
 16546 26d3 E30A     		.2byte	0xae3
 16547 26d5 F6000000 		.4byte	0xf6
 16548 26d9 02       		.uleb128 0x2
 16549 26da 91       		.byte	0x91
 16550 26db 5C       		.sleb128 -36
 16551 26dc 18       		.uleb128 0x18
 16552 26dd 34180000 		.4byte	.LASF311
 16553 26e1 01       		.byte	0x1
 16554 26e2 E40A     		.2byte	0xae4
 16555 26e4 F6000000 		.4byte	0xf6
 16556 26e8 02       		.uleb128 0x2
 16557 26e9 91       		.byte	0x91
 16558 26ea 58       		.sleb128 -40
 16559 26eb 19       		.uleb128 0x19
 16560 26ec 31020000 		.4byte	.LASF143
 16561 26f0 01       		.byte	0x1
 16562 26f1 E60A     		.2byte	0xae6
 16563 26f3 D5010000 		.4byte	0x1d5
 16564 26f7 02       		.uleb128 0x2
 16565 26f8 91       		.byte	0x91
 16566 26f9 6F       		.sleb128 -17
 16567 26fa 19       		.uleb128 0x19
 16568 26fb 581E0000 		.4byte	.LASF350
 16569 26ff 01       		.byte	0x1
 16570 2700 E70A     		.2byte	0xae7
 16571 2702 CE000000 		.4byte	0xce
 16572 2706 02       		.uleb128 0x2
 16573 2707 91       		.byte	0x91
 16574 2708 6C       		.sleb128 -20
 16575 2709 00       		.byte	0
 16576 270a 16       		.uleb128 0x16
 16577 270b 20110000 		.4byte	.LASF351
 16578 270f 01       		.byte	0x1
 16579 2710 FA0A     		.2byte	0xafa
 16580 2712 D5010000 		.4byte	0x1d5
 16581 2716 00000000 		.4byte	.LFB88
 16582 271a 8C000000 		.4byte	.LFE88-.LFB88
 16583 271e 01       		.uleb128 0x1
 16584 271f 9C       		.byte	0x9c
 16585 2720 7F270000 		.4byte	0x277f
 16586 2724 17       		.uleb128 0x17
 16587 2725 44657600 		.ascii	"Dev\000"
 16588 2729 01       		.byte	0x1
 16589 272a FA0A     		.2byte	0xafa
ARM GAS  C:\Users\ilya\AppData\Local\Temp\ccpEIuqL.s 			page 346


 16590 272c 98070000 		.4byte	0x798
 16591 2730 02       		.uleb128 0x2
 16592 2731 91       		.byte	0x91
 16593 2732 64       		.sleb128 -28
 16594 2733 18       		.uleb128 0x18
 16595 2734 65130000 		.4byte	.LASF43
 16596 2738 01       		.byte	0x1
 16597 2739 FB0A     		.2byte	0xafb
 16598 273b E0010000 		.4byte	0x1e0
 16599 273f 02       		.uleb128 0x2
 16600 2740 91       		.byte	0x91
 16601 2741 63       		.sleb128 -29
 16602 2742 18       		.uleb128 0x18
 16603 2743 3B160000 		.4byte	.LASF352
 16604 2747 01       		.byte	0x1
 16605 2748 FB0A     		.2byte	0xafb
 16606 274a 220D0000 		.4byte	0xd22
 16607 274e 02       		.uleb128 0x2
 16608 274f 91       		.byte	0x91
 16609 2750 5C       		.sleb128 -36
 16610 2751 18       		.uleb128 0x18
 16611 2752 32190000 		.4byte	.LASF353
 16612 2756 01       		.byte	0x1
 16613 2757 FC0A     		.2byte	0xafc
 16614 2759 220D0000 		.4byte	0xd22
 16615 275d 02       		.uleb128 0x2
 16616 275e 91       		.byte	0x91
 16617 275f 58       		.sleb128 -40
 16618 2760 19       		.uleb128 0x19
 16619 2761 31020000 		.4byte	.LASF143
 16620 2765 01       		.byte	0x1
 16621 2766 FE0A     		.2byte	0xafe
 16622 2768 D5010000 		.4byte	0x1d5
 16623 276c 02       		.uleb128 0x2
 16624 276d 91       		.byte	0x91
 16625 276e 6F       		.sleb128 -17
 16626 276f 19       		.uleb128 0x19
 16627 2770 581E0000 		.4byte	.LASF350
 16628 2774 01       		.byte	0x1
 16629 2775 FF0A     		.2byte	0xaff
 16630 2777 CE000000 		.4byte	0xce
 16631 277b 02       		.uleb128 0x2
 16632 277c 91       		.byte	0x91
 16633 277d 6C       		.sleb128 -20
 16634 277e 00       		.byte	0
 16635 277f 16       		.uleb128 0x16
 16636 2780 101A0000 		.4byte	.LASF354
 16637 2784 01       		.byte	0x1
 16638 2785 140B     		.2byte	0xb14
 16639 2787 D5010000 		.4byte	0x1d5
 16640 278b 00000000 		.4byte	.LFB89
 16641 278f 28010000 		.4byte	.LFE89-.LFB89
 16642 2793 01       		.uleb128 0x1
 16643 2794 9C       		.byte	0x9c
 16644 2795 D6270000 		.4byte	0x27d6
 16645 2799 17       		.uleb128 0x17
 16646 279a 44657600 		.ascii	"Dev\000"
ARM GAS  C:\Users\ilya\AppData\Local\Temp\ccpEIuqL.s 			page 347


 16647 279e 01       		.byte	0x1
 16648 279f 140B     		.2byte	0xb14
 16649 27a1 98070000 		.4byte	0x798
 16650 27a5 02       		.uleb128 0x2
 16651 27a6 91       		.byte	0x91
 16652 27a7 64       		.sleb128 -28
 16653 27a8 18       		.uleb128 0x18
 16654 27a9 C60A0000 		.4byte	.LASF355
 16655 27ad 01       		.byte	0x1
 16656 27ae 150B     		.2byte	0xb15
 16657 27b0 F9120000 		.4byte	0x12f9
 16658 27b4 02       		.uleb128 0x2
 16659 27b5 91       		.byte	0x91
 16660 27b6 60       		.sleb128 -32
 16661 27b7 19       		.uleb128 0x19
 16662 27b8 31020000 		.4byte	.LASF143
 16663 27bc 01       		.byte	0x1
 16664 27bd 170B     		.2byte	0xb17
 16665 27bf D5010000 		.4byte	0x1d5
 16666 27c3 02       		.uleb128 0x2
 16667 27c4 91       		.byte	0x91
 16668 27c5 6F       		.sleb128 -17
 16669 27c6 19       		.uleb128 0x19
 16670 27c7 ED0B0000 		.4byte	.LASF168
 16671 27cb 01       		.byte	0x1
 16672 27cc 180B     		.2byte	0xb18
 16673 27ce B8000000 		.4byte	0xb8
 16674 27d2 02       		.uleb128 0x2
 16675 27d3 91       		.byte	0x91
 16676 27d4 6E       		.sleb128 -18
 16677 27d5 00       		.byte	0
 16678 27d6 16       		.uleb128 0x16
 16679 27d7 1E0D0000 		.4byte	.LASF356
 16680 27db 01       		.byte	0x1
 16681 27dc 350B     		.2byte	0xb35
 16682 27de D5010000 		.4byte	0x1d5
 16683 27e2 00000000 		.4byte	.LFB90
 16684 27e6 C0000000 		.4byte	.LFE90-.LFB90
 16685 27ea 01       		.uleb128 0x1
 16686 27eb 9C       		.byte	0x9c
 16687 27ec 3C280000 		.4byte	0x283c
 16688 27f0 17       		.uleb128 0x17
 16689 27f1 44657600 		.ascii	"Dev\000"
 16690 27f5 01       		.byte	0x1
 16691 27f6 350B     		.2byte	0xb35
 16692 27f8 98070000 		.4byte	0x798
 16693 27fc 02       		.uleb128 0x2
 16694 27fd 91       		.byte	0x91
 16695 27fe 64       		.sleb128 -28
 16696 27ff 18       		.uleb128 0x18
 16697 2800 9D060000 		.4byte	.LASF319
 16698 2804 01       		.byte	0x1
 16699 2805 350B     		.2byte	0xb35
 16700 2807 E4000000 		.4byte	0xe4
 16701 280b 02       		.uleb128 0x2
 16702 280c 91       		.byte	0x91
 16703 280d 60       		.sleb128 -32
ARM GAS  C:\Users\ilya\AppData\Local\Temp\ccpEIuqL.s 			page 348


 16704 280e 19       		.uleb128 0x19
 16705 280f 31020000 		.4byte	.LASF143
 16706 2813 01       		.byte	0x1
 16707 2814 370B     		.2byte	0xb37
 16708 2816 D5010000 		.4byte	0x1d5
 16709 281a 02       		.uleb128 0x2
 16710 281b 91       		.byte	0x91
 16711 281c 6F       		.sleb128 -17
 16712 281d 19       		.uleb128 0x19
 16713 281e 2D090000 		.4byte	.LASF357
 16714 2822 01       		.byte	0x1
 16715 2823 380B     		.2byte	0xb38
 16716 2825 B8000000 		.4byte	0xb8
 16717 2829 02       		.uleb128 0x2
 16718 282a 91       		.byte	0x91
 16719 282b 6E       		.sleb128 -18
 16720 282c 19       		.uleb128 0x19
 16721 282d ED0B0000 		.4byte	.LASF168
 16722 2831 01       		.byte	0x1
 16723 2832 390B     		.2byte	0xb39
 16724 2834 B8000000 		.4byte	0xb8
 16725 2838 02       		.uleb128 0x2
 16726 2839 91       		.byte	0x91
 16727 283a 6D       		.sleb128 -19
 16728 283b 00       		.byte	0
 16729 283c 16       		.uleb128 0x16
 16730 283d CE160000 		.4byte	.LASF358
 16731 2841 01       		.byte	0x1
 16732 2842 520B     		.2byte	0xb52
 16733 2844 D5010000 		.4byte	0x1d5
 16734 2848 00000000 		.4byte	.LFB91
 16735 284c 5E000000 		.4byte	.LFE91-.LFB91
 16736 2850 01       		.uleb128 0x1
 16737 2851 9C       		.byte	0x9c
 16738 2852 93280000 		.4byte	0x2893
 16739 2856 17       		.uleb128 0x17
 16740 2857 44657600 		.ascii	"Dev\000"
 16741 285b 01       		.byte	0x1
 16742 285c 520B     		.2byte	0xb52
 16743 285e 98070000 		.4byte	0x798
 16744 2862 02       		.uleb128 0x2
 16745 2863 91       		.byte	0x91
 16746 2864 64       		.sleb128 -28
 16747 2865 18       		.uleb128 0x18
 16748 2866 520A0000 		.4byte	.LASF359
 16749 286a 01       		.byte	0x1
 16750 286b 530B     		.2byte	0xb53
 16751 286d F9120000 		.4byte	0x12f9
 16752 2871 02       		.uleb128 0x2
 16753 2872 91       		.byte	0x91
 16754 2873 60       		.sleb128 -32
 16755 2874 19       		.uleb128 0x19
 16756 2875 31020000 		.4byte	.LASF143
 16757 2879 01       		.byte	0x1
 16758 287a 550B     		.2byte	0xb55
 16759 287c D5010000 		.4byte	0x1d5
 16760 2880 02       		.uleb128 0x2
ARM GAS  C:\Users\ilya\AppData\Local\Temp\ccpEIuqL.s 			page 349


 16761 2881 91       		.byte	0x91
 16762 2882 6F       		.sleb128 -17
 16763 2883 19       		.uleb128 0x19
 16764 2884 ED0B0000 		.4byte	.LASF168
 16765 2888 01       		.byte	0x1
 16766 2889 560B     		.2byte	0xb56
 16767 288b B8000000 		.4byte	0xb8
 16768 288f 02       		.uleb128 0x2
 16769 2890 91       		.byte	0x91
 16770 2891 6E       		.sleb128 -18
 16771 2892 00       		.byte	0
 16772 2893 1A       		.uleb128 0x1a
 16773 2894 0D050000 		.4byte	.LASF360
 16774 2898 01       		.byte	0x1
 16775 2899 630B     		.2byte	0xb63
 16776 289b D5010000 		.4byte	0x1d5
 16777 289f 00000000 		.4byte	.LFB92
 16778 28a3 22000000 		.4byte	.LFE92-.LFB92
 16779 28a7 01       		.uleb128 0x1
 16780 28a8 9C       		.byte	0x9c
 16781 28a9 DB280000 		.4byte	0x28db
 16782 28ad 17       		.uleb128 0x17
 16783 28ae 44657600 		.ascii	"Dev\000"
 16784 28b2 01       		.byte	0x1
 16785 28b3 630B     		.2byte	0xb63
 16786 28b5 98070000 		.4byte	0x798
 16787 28b9 02       		.uleb128 0x2
 16788 28ba 91       		.byte	0x91
 16789 28bb 6C       		.sleb128 -20
 16790 28bc 18       		.uleb128 0x18
 16791 28bd 9D060000 		.4byte	.LASF319
 16792 28c1 01       		.byte	0x1
 16793 28c2 630B     		.2byte	0xb63
 16794 28c4 E4000000 		.4byte	0xe4
 16795 28c8 02       		.uleb128 0x2
 16796 28c9 91       		.byte	0x91
 16797 28ca 68       		.sleb128 -24
 16798 28cb 19       		.uleb128 0x19
 16799 28cc 31020000 		.4byte	.LASF143
 16800 28d0 01       		.byte	0x1
 16801 28d1 650B     		.2byte	0xb65
 16802 28d3 D5010000 		.4byte	0x1d5
 16803 28d7 02       		.uleb128 0x2
 16804 28d8 91       		.byte	0x91
 16805 28d9 77       		.sleb128 -9
 16806 28da 00       		.byte	0
 16807 28db 16       		.uleb128 0x16
 16808 28dc 6F120000 		.4byte	.LASF361
 16809 28e0 01       		.byte	0x1
 16810 28e1 720B     		.2byte	0xb72
 16811 28e3 D5010000 		.4byte	0x1d5
 16812 28e7 00000000 		.4byte	.LFB93
 16813 28eb 78000000 		.4byte	.LFE93-.LFB93
 16814 28ef 01       		.uleb128 0x1
 16815 28f0 9C       		.byte	0x9c
 16816 28f1 23290000 		.4byte	0x2923
 16817 28f5 17       		.uleb128 0x17
ARM GAS  C:\Users\ilya\AppData\Local\Temp\ccpEIuqL.s 			page 350


 16818 28f6 44657600 		.ascii	"Dev\000"
 16819 28fa 01       		.byte	0x1
 16820 28fb 720B     		.2byte	0xb72
 16821 28fd 98070000 		.4byte	0x798
 16822 2901 02       		.uleb128 0x2
 16823 2902 91       		.byte	0x91
 16824 2903 64       		.sleb128 -28
 16825 2904 18       		.uleb128 0x18
 16826 2905 6F180000 		.4byte	.LASF362
 16827 2909 01       		.byte	0x1
 16828 290a 730B     		.2byte	0xb73
 16829 290c CE000000 		.4byte	0xce
 16830 2910 02       		.uleb128 0x2
 16831 2911 91       		.byte	0x91
 16832 2912 62       		.sleb128 -30
 16833 2913 19       		.uleb128 0x19
 16834 2914 31020000 		.4byte	.LASF143
 16835 2918 01       		.byte	0x1
 16836 2919 750B     		.2byte	0xb75
 16837 291b D5010000 		.4byte	0x1d5
 16838 291f 02       		.uleb128 0x2
 16839 2920 91       		.byte	0x91
 16840 2921 6F       		.sleb128 -17
 16841 2922 00       		.byte	0
 16842 2923 16       		.uleb128 0x16
 16843 2924 B1080000 		.4byte	.LASF363
 16844 2928 01       		.byte	0x1
 16845 2929 800B     		.2byte	0xb80
 16846 292b D5010000 		.4byte	0x1d5
 16847 292f 00000000 		.4byte	.LFB94
 16848 2933 72000000 		.4byte	.LFE94-.LFB94
 16849 2937 01       		.uleb128 0x1
 16850 2938 9C       		.byte	0x9c
 16851 2939 6B290000 		.4byte	0x296b
 16852 293d 17       		.uleb128 0x17
 16853 293e 44657600 		.ascii	"Dev\000"
 16854 2942 01       		.byte	0x1
 16855 2943 800B     		.2byte	0xb80
 16856 2945 98070000 		.4byte	0x798
 16857 2949 02       		.uleb128 0x2
 16858 294a 91       		.byte	0x91
 16859 294b 64       		.sleb128 -28
 16860 294c 18       		.uleb128 0x18
 16861 294d 4E1C0000 		.4byte	.LASF364
 16862 2951 01       		.byte	0x1
 16863 2952 810B     		.2byte	0xb81
 16864 2954 350C0000 		.4byte	0xc35
 16865 2958 02       		.uleb128 0x2
 16866 2959 91       		.byte	0x91
 16867 295a 60       		.sleb128 -32
 16868 295b 19       		.uleb128 0x19
 16869 295c 31020000 		.4byte	.LASF143
 16870 2960 01       		.byte	0x1
 16871 2961 830B     		.2byte	0xb83
 16872 2963 D5010000 		.4byte	0x1d5
 16873 2967 02       		.uleb128 0x2
 16874 2968 91       		.byte	0x91
ARM GAS  C:\Users\ilya\AppData\Local\Temp\ccpEIuqL.s 			page 351


 16875 2969 6F       		.sleb128 -17
 16876 296a 00       		.byte	0
 16877 296b 16       		.uleb128 0x16
 16878 296c EA040000 		.4byte	.LASF365
 16879 2970 01       		.byte	0x1
 16880 2971 8E0B     		.2byte	0xb8e
 16881 2973 D5010000 		.4byte	0x1d5
 16882 2977 00000000 		.4byte	.LFB95
 16883 297b 84000000 		.4byte	.LFE95-.LFB95
 16884 297f 01       		.uleb128 0x1
 16885 2980 9C       		.byte	0x9c
 16886 2981 C2290000 		.4byte	0x29c2
 16887 2985 17       		.uleb128 0x17
 16888 2986 44657600 		.ascii	"Dev\000"
 16889 298a 01       		.byte	0x1
 16890 298b 8E0B     		.2byte	0xb8e
 16891 298d 98070000 		.4byte	0x798
 16892 2991 02       		.uleb128 0x2
 16893 2992 91       		.byte	0x91
 16894 2993 64       		.sleb128 -28
 16895 2994 18       		.uleb128 0x18
 16896 2995 B2050000 		.4byte	.LASF366
 16897 2999 01       		.byte	0x1
 16898 299a 8F0B     		.2byte	0xb8f
 16899 299c CE000000 		.4byte	0xce
 16900 29a0 02       		.uleb128 0x2
 16901 29a1 91       		.byte	0x91
 16902 29a2 62       		.sleb128 -30
 16903 29a3 19       		.uleb128 0x19
 16904 29a4 31020000 		.4byte	.LASF143
 16905 29a8 01       		.byte	0x1
 16906 29a9 910B     		.2byte	0xb91
 16907 29ab D5010000 		.4byte	0x1d5
 16908 29af 02       		.uleb128 0x2
 16909 29b0 91       		.byte	0x91
 16910 29b1 6F       		.sleb128 -17
 16911 29b2 19       		.uleb128 0x19
 16912 29b3 ED0B0000 		.4byte	.LASF168
 16913 29b7 01       		.byte	0x1
 16914 29b8 920B     		.2byte	0xb92
 16915 29ba B8000000 		.4byte	0xb8
 16916 29be 02       		.uleb128 0x2
 16917 29bf 91       		.byte	0x91
 16918 29c0 6E       		.sleb128 -18
 16919 29c1 00       		.byte	0
 16920 29c2 16       		.uleb128 0x16
 16921 29c3 8E010000 		.4byte	.LASF367
 16922 29c7 01       		.byte	0x1
 16923 29c8 9F0B     		.2byte	0xb9f
 16924 29ca D5010000 		.4byte	0x1d5
 16925 29ce 00000000 		.4byte	.LFB96
 16926 29d2 80000000 		.4byte	.LFE96-.LFB96
 16927 29d6 01       		.uleb128 0x1
 16928 29d7 9C       		.byte	0x9c
 16929 29d8 192A0000 		.4byte	0x2a19
 16930 29dc 17       		.uleb128 0x17
 16931 29dd 44657600 		.ascii	"Dev\000"
ARM GAS  C:\Users\ilya\AppData\Local\Temp\ccpEIuqL.s 			page 352


 16932 29e1 01       		.byte	0x1
 16933 29e2 9F0B     		.2byte	0xb9f
 16934 29e4 98070000 		.4byte	0x798
 16935 29e8 02       		.uleb128 0x2
 16936 29e9 91       		.byte	0x91
 16937 29ea 64       		.sleb128 -28
 16938 29eb 18       		.uleb128 0x18
 16939 29ec 61070000 		.4byte	.LASF368
 16940 29f0 01       		.byte	0x1
 16941 29f1 A00B     		.2byte	0xba0
 16942 29f3 350C0000 		.4byte	0xc35
 16943 29f7 02       		.uleb128 0x2
 16944 29f8 91       		.byte	0x91
 16945 29f9 60       		.sleb128 -32
 16946 29fa 19       		.uleb128 0x19
 16947 29fb 31020000 		.4byte	.LASF143
 16948 29ff 01       		.byte	0x1
 16949 2a00 A20B     		.2byte	0xba2
 16950 2a02 D5010000 		.4byte	0x1d5
 16951 2a06 02       		.uleb128 0x2
 16952 2a07 91       		.byte	0x91
 16953 2a08 6F       		.sleb128 -17
 16954 2a09 19       		.uleb128 0x19
 16955 2a0a ED0B0000 		.4byte	.LASF168
 16956 2a0e 01       		.byte	0x1
 16957 2a0f A30B     		.2byte	0xba3
 16958 2a11 B8000000 		.4byte	0xb8
 16959 2a15 02       		.uleb128 0x2
 16960 2a16 91       		.byte	0x91
 16961 2a17 6E       		.sleb128 -18
 16962 2a18 00       		.byte	0
 16963 2a19 16       		.uleb128 0x16
 16964 2a1a 1C010000 		.4byte	.LASF369
 16965 2a1e 01       		.byte	0x1
 16966 2a1f B50B     		.2byte	0xbb5
 16967 2a21 D5010000 		.4byte	0x1d5
 16968 2a25 00000000 		.4byte	.LFB97
 16969 2a29 3C000000 		.4byte	.LFE97-.LFB97
 16970 2a2d 01       		.uleb128 0x1
 16971 2a2e 9C       		.byte	0x9c
 16972 2a2f 702A0000 		.4byte	0x2a70
 16973 2a33 17       		.uleb128 0x17
 16974 2a34 44657600 		.ascii	"Dev\000"
 16975 2a38 01       		.byte	0x1
 16976 2a39 B50B     		.2byte	0xbb5
 16977 2a3b 98070000 		.4byte	0x798
 16978 2a3f 02       		.uleb128 0x2
 16979 2a40 91       		.byte	0x91
 16980 2a41 64       		.sleb128 -28
 16981 2a42 18       		.uleb128 0x18
 16982 2a43 1B080000 		.4byte	.LASF194
 16983 2a47 01       		.byte	0x1
 16984 2a48 B50B     		.2byte	0xbb5
 16985 2a4a E4000000 		.4byte	0xe4
 16986 2a4e 02       		.uleb128 0x2
 16987 2a4f 91       		.byte	0x91
 16988 2a50 60       		.sleb128 -32
ARM GAS  C:\Users\ilya\AppData\Local\Temp\ccpEIuqL.s 			page 353


 16989 2a51 18       		.uleb128 0x18
 16990 2a52 28130000 		.4byte	.LASF195
 16991 2a56 01       		.byte	0x1
 16992 2a57 B60B     		.2byte	0xbb6
 16993 2a59 B8000000 		.4byte	0xb8
 16994 2a5d 02       		.uleb128 0x2
 16995 2a5e 91       		.byte	0x91
 16996 2a5f 5F       		.sleb128 -33
 16997 2a60 19       		.uleb128 0x19
 16998 2a61 31020000 		.4byte	.LASF143
 16999 2a65 01       		.byte	0x1
 17000 2a66 B80B     		.2byte	0xbb8
 17001 2a68 D5010000 		.4byte	0x1d5
 17002 2a6c 02       		.uleb128 0x2
 17003 2a6d 91       		.byte	0x91
 17004 2a6e 6F       		.sleb128 -17
 17005 2a6f 00       		.byte	0
 17006 2a70 16       		.uleb128 0x16
 17007 2a71 181B0000 		.4byte	.LASF370
 17008 2a75 01       		.byte	0x1
 17009 2a76 C20B     		.2byte	0xbc2
 17010 2a78 D5010000 		.4byte	0x1d5
 17011 2a7c 00000000 		.4byte	.LFB98
 17012 2a80 38000000 		.4byte	.LFE98-.LFB98
 17013 2a84 01       		.uleb128 0x1
 17014 2a85 9C       		.byte	0x9c
 17015 2a86 C72A0000 		.4byte	0x2ac7
 17016 2a8a 17       		.uleb128 0x17
 17017 2a8b 44657600 		.ascii	"Dev\000"
 17018 2a8f 01       		.byte	0x1
 17019 2a90 C20B     		.2byte	0xbc2
 17020 2a92 98070000 		.4byte	0x798
 17021 2a96 02       		.uleb128 0x2
 17022 2a97 91       		.byte	0x91
 17023 2a98 64       		.sleb128 -28
 17024 2a99 18       		.uleb128 0x18
 17025 2a9a 560C0000 		.4byte	.LASF371
 17026 2a9e 01       		.byte	0x1
 17027 2a9f C20B     		.2byte	0xbc2
 17028 2aa1 F9120000 		.4byte	0x12f9
 17029 2aa5 02       		.uleb128 0x2
 17030 2aa6 91       		.byte	0x91
 17031 2aa7 60       		.sleb128 -32
 17032 2aa8 18       		.uleb128 0x18
 17033 2aa9 B70C0000 		.4byte	.LASF372
 17034 2aad 01       		.byte	0x1
 17035 2aae C30B     		.2byte	0xbc3
 17036 2ab0 BD060000 		.4byte	0x6bd
 17037 2ab4 02       		.uleb128 0x2
 17038 2ab5 91       		.byte	0x91
 17039 2ab6 5C       		.sleb128 -36
 17040 2ab7 19       		.uleb128 0x19
 17041 2ab8 31020000 		.4byte	.LASF143
 17042 2abc 01       		.byte	0x1
 17043 2abd C50B     		.2byte	0xbc5
 17044 2abf D5010000 		.4byte	0x1d5
 17045 2ac3 02       		.uleb128 0x2
ARM GAS  C:\Users\ilya\AppData\Local\Temp\ccpEIuqL.s 			page 354


 17046 2ac4 91       		.byte	0x91
 17047 2ac5 6F       		.sleb128 -17
 17048 2ac6 00       		.byte	0
 17049 2ac7 16       		.uleb128 0x16
 17050 2ac8 D5060000 		.4byte	.LASF373
 17051 2acc 01       		.byte	0x1
 17052 2acd CF0B     		.2byte	0xbcf
 17053 2acf D5010000 		.4byte	0x1d5
 17054 2ad3 00000000 		.4byte	.LFB99
 17055 2ad7 38000000 		.4byte	.LFE99-.LFB99
 17056 2adb 01       		.uleb128 0x1
 17057 2adc 9C       		.byte	0x9c
 17058 2add 1E2B0000 		.4byte	0x2b1e
 17059 2ae1 17       		.uleb128 0x17
 17060 2ae2 44657600 		.ascii	"Dev\000"
 17061 2ae6 01       		.byte	0x1
 17062 2ae7 CF0B     		.2byte	0xbcf
 17063 2ae9 98070000 		.4byte	0x798
 17064 2aed 02       		.uleb128 0x2
 17065 2aee 91       		.byte	0x91
 17066 2aef 64       		.sleb128 -28
 17067 2af0 18       		.uleb128 0x18
 17068 2af1 860E0000 		.4byte	.LASF196
 17069 2af5 01       		.byte	0x1
 17070 2af6 D00B     		.2byte	0xbd0
 17071 2af8 F9120000 		.4byte	0x12f9
 17072 2afc 02       		.uleb128 0x2
 17073 2afd 91       		.byte	0x91
 17074 2afe 60       		.sleb128 -32
 17075 2aff 18       		.uleb128 0x18
 17076 2b00 28130000 		.4byte	.LASF195
 17077 2b04 01       		.byte	0x1
 17078 2b05 D00B     		.2byte	0xbd0
 17079 2b07 BD060000 		.4byte	0x6bd
 17080 2b0b 02       		.uleb128 0x2
 17081 2b0c 91       		.byte	0x91
 17082 2b0d 5C       		.sleb128 -36
 17083 2b0e 19       		.uleb128 0x19
 17084 2b0f 31020000 		.4byte	.LASF143
 17085 2b13 01       		.byte	0x1
 17086 2b14 D20B     		.2byte	0xbd2
 17087 2b16 D5010000 		.4byte	0x1d5
 17088 2b1a 02       		.uleb128 0x2
 17089 2b1b 91       		.byte	0x91
 17090 2b1c 6F       		.sleb128 -17
 17091 2b1d 00       		.byte	0
 17092 2b1e 07       		.uleb128 0x7
 17093 2b1f B8000000 		.4byte	0xb8
 17094 2b23 2E2B0000 		.4byte	0x2b2e
 17095 2b27 08       		.uleb128 0x8
 17096 2b28 BC010000 		.4byte	0x1bc
 17097 2b2c F2       		.byte	0xf2
 17098 2b2d 00       		.byte	0
 17099 2b2e 1D       		.uleb128 0x1d
 17100 2b2f 6F0B0000 		.4byte	.LASF374
 17101 2b33 08       		.byte	0x8
 17102 2b34 29       		.byte	0x29
ARM GAS  C:\Users\ilya\AppData\Local\Temp\ccpEIuqL.s 			page 355


 17103 2b35 1E2B0000 		.4byte	0x2b1e
 17104 2b39 05       		.uleb128 0x5
 17105 2b3a 03       		.byte	0x3
 17106 2b3b 00000000 		.4byte	DefaultTuningSettings
 17107 2b3f 07       		.uleb128 0x7
 17108 2b40 B8000000 		.4byte	0xb8
 17109 2b44 502B0000 		.4byte	0x2b50
 17110 2b48 1E       		.uleb128 0x1e
 17111 2b49 BC010000 		.4byte	0x1bc
 17112 2b4d B501     		.2byte	0x1b5
 17113 2b4f 00       		.byte	0
 17114 2b50 1D       		.uleb128 0x1d
 17115 2b51 97110000 		.4byte	.LASF375
 17116 2b55 09       		.byte	0x9
 17117 2b56 27       		.byte	0x27
 17118 2b57 3F2B0000 		.4byte	0x2b3f
 17119 2b5b 05       		.uleb128 0x5
 17120 2b5c 03       		.byte	0x3
 17121 2b5d 00000000 		.4byte	InterruptThresholdSettings
 17122 2b61 00       		.byte	0
 17123              		.section	.debug_abbrev,"",%progbits
 17124              	.Ldebug_abbrev0:
 17125 0000 01       		.uleb128 0x1
 17126 0001 11       		.uleb128 0x11
 17127 0002 01       		.byte	0x1
 17128 0003 25       		.uleb128 0x25
 17129 0004 0E       		.uleb128 0xe
 17130 0005 13       		.uleb128 0x13
 17131 0006 0B       		.uleb128 0xb
 17132 0007 03       		.uleb128 0x3
 17133 0008 0E       		.uleb128 0xe
 17134 0009 1B       		.uleb128 0x1b
 17135 000a 0E       		.uleb128 0xe
 17136 000b 55       		.uleb128 0x55
 17137 000c 17       		.uleb128 0x17
 17138 000d 11       		.uleb128 0x11
 17139 000e 01       		.uleb128 0x1
 17140 000f 10       		.uleb128 0x10
 17141 0010 17       		.uleb128 0x17
 17142 0011 00       		.byte	0
 17143 0012 00       		.byte	0
 17144 0013 02       		.uleb128 0x2
 17145 0014 16       		.uleb128 0x16
 17146 0015 00       		.byte	0
 17147 0016 03       		.uleb128 0x3
 17148 0017 0E       		.uleb128 0xe
 17149 0018 3A       		.uleb128 0x3a
 17150 0019 0B       		.uleb128 0xb
 17151 001a 3B       		.uleb128 0x3b
 17152 001b 0B       		.uleb128 0xb
 17153 001c 49       		.uleb128 0x49
 17154 001d 13       		.uleb128 0x13
 17155 001e 00       		.byte	0
 17156 001f 00       		.byte	0
 17157 0020 03       		.uleb128 0x3
 17158 0021 24       		.uleb128 0x24
 17159 0022 00       		.byte	0
ARM GAS  C:\Users\ilya\AppData\Local\Temp\ccpEIuqL.s 			page 356


 17160 0023 0B       		.uleb128 0xb
 17161 0024 0B       		.uleb128 0xb
 17162 0025 3E       		.uleb128 0x3e
 17163 0026 0B       		.uleb128 0xb
 17164 0027 03       		.uleb128 0x3
 17165 0028 0E       		.uleb128 0xe
 17166 0029 00       		.byte	0
 17167 002a 00       		.byte	0
 17168 002b 04       		.uleb128 0x4
 17169 002c 24       		.uleb128 0x24
 17170 002d 00       		.byte	0
 17171 002e 0B       		.uleb128 0xb
 17172 002f 0B       		.uleb128 0xb
 17173 0030 3E       		.uleb128 0x3e
 17174 0031 0B       		.uleb128 0xb
 17175 0032 03       		.uleb128 0x3
 17176 0033 08       		.uleb128 0x8
 17177 0034 00       		.byte	0
 17178 0035 00       		.byte	0
 17179 0036 05       		.uleb128 0x5
 17180 0037 13       		.uleb128 0x13
 17181 0038 01       		.byte	0x1
 17182 0039 0B       		.uleb128 0xb
 17183 003a 0B       		.uleb128 0xb
 17184 003b 3A       		.uleb128 0x3a
 17185 003c 0B       		.uleb128 0xb
 17186 003d 3B       		.uleb128 0x3b
 17187 003e 0B       		.uleb128 0xb
 17188 003f 01       		.uleb128 0x1
 17189 0040 13       		.uleb128 0x13
 17190 0041 00       		.byte	0
 17191 0042 00       		.byte	0
 17192 0043 06       		.uleb128 0x6
 17193 0044 0D       		.uleb128 0xd
 17194 0045 00       		.byte	0
 17195 0046 03       		.uleb128 0x3
 17196 0047 0E       		.uleb128 0xe
 17197 0048 3A       		.uleb128 0x3a
 17198 0049 0B       		.uleb128 0xb
 17199 004a 3B       		.uleb128 0x3b
 17200 004b 0B       		.uleb128 0xb
 17201 004c 49       		.uleb128 0x49
 17202 004d 13       		.uleb128 0x13
 17203 004e 38       		.uleb128 0x38
 17204 004f 0B       		.uleb128 0xb
 17205 0050 00       		.byte	0
 17206 0051 00       		.byte	0
 17207 0052 07       		.uleb128 0x7
 17208 0053 01       		.uleb128 0x1
 17209 0054 01       		.byte	0x1
 17210 0055 49       		.uleb128 0x49
 17211 0056 13       		.uleb128 0x13
 17212 0057 01       		.uleb128 0x1
 17213 0058 13       		.uleb128 0x13
 17214 0059 00       		.byte	0
 17215 005a 00       		.byte	0
 17216 005b 08       		.uleb128 0x8
ARM GAS  C:\Users\ilya\AppData\Local\Temp\ccpEIuqL.s 			page 357


 17217 005c 21       		.uleb128 0x21
 17218 005d 00       		.byte	0
 17219 005e 49       		.uleb128 0x49
 17220 005f 13       		.uleb128 0x13
 17221 0060 2F       		.uleb128 0x2f
 17222 0061 0B       		.uleb128 0xb
 17223 0062 00       		.byte	0
 17224 0063 00       		.byte	0
 17225 0064 09       		.uleb128 0x9
 17226 0065 0D       		.uleb128 0xd
 17227 0066 00       		.byte	0
 17228 0067 03       		.uleb128 0x3
 17229 0068 0E       		.uleb128 0xe
 17230 0069 3A       		.uleb128 0x3a
 17231 006a 0B       		.uleb128 0xb
 17232 006b 3B       		.uleb128 0x3b
 17233 006c 05       		.uleb128 0x5
 17234 006d 49       		.uleb128 0x49
 17235 006e 13       		.uleb128 0x13
 17236 006f 38       		.uleb128 0x38
 17237 0070 0B       		.uleb128 0xb
 17238 0071 00       		.byte	0
 17239 0072 00       		.byte	0
 17240 0073 0A       		.uleb128 0xa
 17241 0074 16       		.uleb128 0x16
 17242 0075 00       		.byte	0
 17243 0076 03       		.uleb128 0x3
 17244 0077 0E       		.uleb128 0xe
 17245 0078 3A       		.uleb128 0x3a
 17246 0079 0B       		.uleb128 0xb
 17247 007a 3B       		.uleb128 0x3b
 17248 007b 05       		.uleb128 0x5
 17249 007c 49       		.uleb128 0x49
 17250 007d 13       		.uleb128 0x13
 17251 007e 00       		.byte	0
 17252 007f 00       		.byte	0
 17253 0080 0B       		.uleb128 0xb
 17254 0081 13       		.uleb128 0x13
 17255 0082 01       		.byte	0x1
 17256 0083 0B       		.uleb128 0xb
 17257 0084 0B       		.uleb128 0xb
 17258 0085 3A       		.uleb128 0x3a
 17259 0086 0B       		.uleb128 0xb
 17260 0087 3B       		.uleb128 0x3b
 17261 0088 05       		.uleb128 0x5
 17262 0089 01       		.uleb128 0x1
 17263 008a 13       		.uleb128 0x13
 17264 008b 00       		.byte	0
 17265 008c 00       		.byte	0
 17266 008d 0C       		.uleb128 0xc
 17267 008e 13       		.uleb128 0x13
 17268 008f 01       		.byte	0x1
 17269 0090 0B       		.uleb128 0xb
 17270 0091 05       		.uleb128 0x5
 17271 0092 3A       		.uleb128 0x3a
 17272 0093 0B       		.uleb128 0xb
 17273 0094 3B       		.uleb128 0x3b
ARM GAS  C:\Users\ilya\AppData\Local\Temp\ccpEIuqL.s 			page 358


 17274 0095 05       		.uleb128 0x5
 17275 0096 01       		.uleb128 0x1
 17276 0097 13       		.uleb128 0x13
 17277 0098 00       		.byte	0
 17278 0099 00       		.byte	0
 17279 009a 0D       		.uleb128 0xd
 17280 009b 0D       		.uleb128 0xd
 17281 009c 00       		.byte	0
 17282 009d 03       		.uleb128 0x3
 17283 009e 0E       		.uleb128 0xe
 17284 009f 3A       		.uleb128 0x3a
 17285 00a0 0B       		.uleb128 0xb
 17286 00a1 3B       		.uleb128 0x3b
 17287 00a2 05       		.uleb128 0x5
 17288 00a3 49       		.uleb128 0x49
 17289 00a4 13       		.uleb128 0x13
 17290 00a5 38       		.uleb128 0x38
 17291 00a6 05       		.uleb128 0x5
 17292 00a7 00       		.byte	0
 17293 00a8 00       		.byte	0
 17294 00a9 0E       		.uleb128 0xe
 17295 00aa 0F       		.uleb128 0xf
 17296 00ab 00       		.byte	0
 17297 00ac 0B       		.uleb128 0xb
 17298 00ad 0B       		.uleb128 0xb
 17299 00ae 49       		.uleb128 0x49
 17300 00af 13       		.uleb128 0x13
 17301 00b0 00       		.byte	0
 17302 00b1 00       		.byte	0
 17303 00b2 0F       		.uleb128 0xf
 17304 00b3 13       		.uleb128 0x13
 17305 00b4 01       		.byte	0x1
 17306 00b5 0B       		.uleb128 0xb
 17307 00b6 05       		.uleb128 0x5
 17308 00b7 3A       		.uleb128 0x3a
 17309 00b8 0B       		.uleb128 0xb
 17310 00b9 3B       		.uleb128 0x3b
 17311 00ba 0B       		.uleb128 0xb
 17312 00bb 01       		.uleb128 0x1
 17313 00bc 13       		.uleb128 0x13
 17314 00bd 00       		.byte	0
 17315 00be 00       		.byte	0
 17316 00bf 10       		.uleb128 0x10
 17317 00c0 0D       		.uleb128 0xd
 17318 00c1 00       		.byte	0
 17319 00c2 03       		.uleb128 0x3
 17320 00c3 0E       		.uleb128 0xe
 17321 00c4 3A       		.uleb128 0x3a
 17322 00c5 0B       		.uleb128 0xb
 17323 00c6 3B       		.uleb128 0x3b
 17324 00c7 0B       		.uleb128 0xb
 17325 00c8 49       		.uleb128 0x49
 17326 00c9 13       		.uleb128 0x13
 17327 00ca 38       		.uleb128 0x38
 17328 00cb 05       		.uleb128 0x5
 17329 00cc 00       		.byte	0
 17330 00cd 00       		.byte	0
ARM GAS  C:\Users\ilya\AppData\Local\Temp\ccpEIuqL.s 			page 359


 17331 00ce 11       		.uleb128 0x11
 17332 00cf 2E       		.uleb128 0x2e
 17333 00d0 01       		.byte	0x1
 17334 00d1 3F       		.uleb128 0x3f
 17335 00d2 19       		.uleb128 0x19
 17336 00d3 03       		.uleb128 0x3
 17337 00d4 0E       		.uleb128 0xe
 17338 00d5 3A       		.uleb128 0x3a
 17339 00d6 0B       		.uleb128 0xb
 17340 00d7 3B       		.uleb128 0x3b
 17341 00d8 0B       		.uleb128 0xb
 17342 00d9 27       		.uleb128 0x27
 17343 00da 19       		.uleb128 0x19
 17344 00db 49       		.uleb128 0x49
 17345 00dc 13       		.uleb128 0x13
 17346 00dd 11       		.uleb128 0x11
 17347 00de 01       		.uleb128 0x1
 17348 00df 12       		.uleb128 0x12
 17349 00e0 06       		.uleb128 0x6
 17350 00e1 40       		.uleb128 0x40
 17351 00e2 18       		.uleb128 0x18
 17352 00e3 9742     		.uleb128 0x2117
 17353 00e5 19       		.uleb128 0x19
 17354 00e6 01       		.uleb128 0x1
 17355 00e7 13       		.uleb128 0x13
 17356 00e8 00       		.byte	0
 17357 00e9 00       		.byte	0
 17358 00ea 12       		.uleb128 0x12
 17359 00eb 05       		.uleb128 0x5
 17360 00ec 00       		.byte	0
 17361 00ed 03       		.uleb128 0x3
 17362 00ee 0E       		.uleb128 0xe
 17363 00ef 3A       		.uleb128 0x3a
 17364 00f0 0B       		.uleb128 0xb
 17365 00f1 3B       		.uleb128 0x3b
 17366 00f2 0B       		.uleb128 0xb
 17367 00f3 49       		.uleb128 0x49
 17368 00f4 13       		.uleb128 0x13
 17369 00f5 02       		.uleb128 0x2
 17370 00f6 18       		.uleb128 0x18
 17371 00f7 00       		.byte	0
 17372 00f8 00       		.byte	0
 17373 00f9 13       		.uleb128 0x13
 17374 00fa 34       		.uleb128 0x34
 17375 00fb 00       		.byte	0
 17376 00fc 03       		.uleb128 0x3
 17377 00fd 0E       		.uleb128 0xe
 17378 00fe 3A       		.uleb128 0x3a
 17379 00ff 0B       		.uleb128 0xb
 17380 0100 3B       		.uleb128 0x3b
 17381 0101 0B       		.uleb128 0xb
 17382 0102 49       		.uleb128 0x49
 17383 0103 13       		.uleb128 0x13
 17384 0104 02       		.uleb128 0x2
 17385 0105 18       		.uleb128 0x18
 17386 0106 00       		.byte	0
 17387 0107 00       		.byte	0
ARM GAS  C:\Users\ilya\AppData\Local\Temp\ccpEIuqL.s 			page 360


 17388 0108 14       		.uleb128 0x14
 17389 0109 2E       		.uleb128 0x2e
 17390 010a 01       		.byte	0x1
 17391 010b 3F       		.uleb128 0x3f
 17392 010c 19       		.uleb128 0x19
 17393 010d 03       		.uleb128 0x3
 17394 010e 0E       		.uleb128 0xe
 17395 010f 3A       		.uleb128 0x3a
 17396 0110 0B       		.uleb128 0xb
 17397 0111 3B       		.uleb128 0x3b
 17398 0112 0B       		.uleb128 0xb
 17399 0113 27       		.uleb128 0x27
 17400 0114 19       		.uleb128 0x19
 17401 0115 49       		.uleb128 0x49
 17402 0116 13       		.uleb128 0x13
 17403 0117 11       		.uleb128 0x11
 17404 0118 01       		.uleb128 0x1
 17405 0119 12       		.uleb128 0x12
 17406 011a 06       		.uleb128 0x6
 17407 011b 40       		.uleb128 0x40
 17408 011c 18       		.uleb128 0x18
 17409 011d 9642     		.uleb128 0x2116
 17410 011f 19       		.uleb128 0x19
 17411 0120 01       		.uleb128 0x1
 17412 0121 13       		.uleb128 0x13
 17413 0122 00       		.byte	0
 17414 0123 00       		.byte	0
 17415 0124 15       		.uleb128 0x15
 17416 0125 05       		.uleb128 0x5
 17417 0126 00       		.byte	0
 17418 0127 03       		.uleb128 0x3
 17419 0128 08       		.uleb128 0x8
 17420 0129 3A       		.uleb128 0x3a
 17421 012a 0B       		.uleb128 0xb
 17422 012b 3B       		.uleb128 0x3b
 17423 012c 0B       		.uleb128 0xb
 17424 012d 49       		.uleb128 0x49
 17425 012e 13       		.uleb128 0x13
 17426 012f 02       		.uleb128 0x2
 17427 0130 18       		.uleb128 0x18
 17428 0131 00       		.byte	0
 17429 0132 00       		.byte	0
 17430 0133 16       		.uleb128 0x16
 17431 0134 2E       		.uleb128 0x2e
 17432 0135 01       		.byte	0x1
 17433 0136 3F       		.uleb128 0x3f
 17434 0137 19       		.uleb128 0x19
 17435 0138 03       		.uleb128 0x3
 17436 0139 0E       		.uleb128 0xe
 17437 013a 3A       		.uleb128 0x3a
 17438 013b 0B       		.uleb128 0xb
 17439 013c 3B       		.uleb128 0x3b
 17440 013d 05       		.uleb128 0x5
 17441 013e 27       		.uleb128 0x27
 17442 013f 19       		.uleb128 0x19
 17443 0140 49       		.uleb128 0x49
 17444 0141 13       		.uleb128 0x13
ARM GAS  C:\Users\ilya\AppData\Local\Temp\ccpEIuqL.s 			page 361


 17445 0142 11       		.uleb128 0x11
 17446 0143 01       		.uleb128 0x1
 17447 0144 12       		.uleb128 0x12
 17448 0145 06       		.uleb128 0x6
 17449 0146 40       		.uleb128 0x40
 17450 0147 18       		.uleb128 0x18
 17451 0148 9642     		.uleb128 0x2116
 17452 014a 19       		.uleb128 0x19
 17453 014b 01       		.uleb128 0x1
 17454 014c 13       		.uleb128 0x13
 17455 014d 00       		.byte	0
 17456 014e 00       		.byte	0
 17457 014f 17       		.uleb128 0x17
 17458 0150 05       		.uleb128 0x5
 17459 0151 00       		.byte	0
 17460 0152 03       		.uleb128 0x3
 17461 0153 08       		.uleb128 0x8
 17462 0154 3A       		.uleb128 0x3a
 17463 0155 0B       		.uleb128 0xb
 17464 0156 3B       		.uleb128 0x3b
 17465 0157 05       		.uleb128 0x5
 17466 0158 49       		.uleb128 0x49
 17467 0159 13       		.uleb128 0x13
 17468 015a 02       		.uleb128 0x2
 17469 015b 18       		.uleb128 0x18
 17470 015c 00       		.byte	0
 17471 015d 00       		.byte	0
 17472 015e 18       		.uleb128 0x18
 17473 015f 05       		.uleb128 0x5
 17474 0160 00       		.byte	0
 17475 0161 03       		.uleb128 0x3
 17476 0162 0E       		.uleb128 0xe
 17477 0163 3A       		.uleb128 0x3a
 17478 0164 0B       		.uleb128 0xb
 17479 0165 3B       		.uleb128 0x3b
 17480 0166 05       		.uleb128 0x5
 17481 0167 49       		.uleb128 0x49
 17482 0168 13       		.uleb128 0x13
 17483 0169 02       		.uleb128 0x2
 17484 016a 18       		.uleb128 0x18
 17485 016b 00       		.byte	0
 17486 016c 00       		.byte	0
 17487 016d 19       		.uleb128 0x19
 17488 016e 34       		.uleb128 0x34
 17489 016f 00       		.byte	0
 17490 0170 03       		.uleb128 0x3
 17491 0171 0E       		.uleb128 0xe
 17492 0172 3A       		.uleb128 0x3a
 17493 0173 0B       		.uleb128 0xb
 17494 0174 3B       		.uleb128 0x3b
 17495 0175 05       		.uleb128 0x5
 17496 0176 49       		.uleb128 0x49
 17497 0177 13       		.uleb128 0x13
 17498 0178 02       		.uleb128 0x2
 17499 0179 18       		.uleb128 0x18
 17500 017a 00       		.byte	0
 17501 017b 00       		.byte	0
ARM GAS  C:\Users\ilya\AppData\Local\Temp\ccpEIuqL.s 			page 362


 17502 017c 1A       		.uleb128 0x1a
 17503 017d 2E       		.uleb128 0x2e
 17504 017e 01       		.byte	0x1
 17505 017f 3F       		.uleb128 0x3f
 17506 0180 19       		.uleb128 0x19
 17507 0181 03       		.uleb128 0x3
 17508 0182 0E       		.uleb128 0xe
 17509 0183 3A       		.uleb128 0x3a
 17510 0184 0B       		.uleb128 0xb
 17511 0185 3B       		.uleb128 0x3b
 17512 0186 05       		.uleb128 0x5
 17513 0187 27       		.uleb128 0x27
 17514 0188 19       		.uleb128 0x19
 17515 0189 49       		.uleb128 0x49
 17516 018a 13       		.uleb128 0x13
 17517 018b 11       		.uleb128 0x11
 17518 018c 01       		.uleb128 0x1
 17519 018d 12       		.uleb128 0x12
 17520 018e 06       		.uleb128 0x6
 17521 018f 40       		.uleb128 0x40
 17522 0190 18       		.uleb128 0x18
 17523 0191 9742     		.uleb128 0x2117
 17524 0193 19       		.uleb128 0x19
 17525 0194 01       		.uleb128 0x1
 17526 0195 13       		.uleb128 0x13
 17527 0196 00       		.byte	0
 17528 0197 00       		.byte	0
 17529 0198 1B       		.uleb128 0x1b
 17530 0199 34       		.uleb128 0x34
 17531 019a 00       		.byte	0
 17532 019b 03       		.uleb128 0x3
 17533 019c 08       		.uleb128 0x8
 17534 019d 3A       		.uleb128 0x3a
 17535 019e 0B       		.uleb128 0xb
 17536 019f 3B       		.uleb128 0x3b
 17537 01a0 05       		.uleb128 0x5
 17538 01a1 49       		.uleb128 0x49
 17539 01a2 13       		.uleb128 0x13
 17540 01a3 02       		.uleb128 0x2
 17541 01a4 18       		.uleb128 0x18
 17542 01a5 00       		.byte	0
 17543 01a6 00       		.byte	0
 17544 01a7 1C       		.uleb128 0x1c
 17545 01a8 26       		.uleb128 0x26
 17546 01a9 00       		.byte	0
 17547 01aa 49       		.uleb128 0x49
 17548 01ab 13       		.uleb128 0x13
 17549 01ac 00       		.byte	0
 17550 01ad 00       		.byte	0
 17551 01ae 1D       		.uleb128 0x1d
 17552 01af 34       		.uleb128 0x34
 17553 01b0 00       		.byte	0
 17554 01b1 03       		.uleb128 0x3
 17555 01b2 0E       		.uleb128 0xe
 17556 01b3 3A       		.uleb128 0x3a
 17557 01b4 0B       		.uleb128 0xb
 17558 01b5 3B       		.uleb128 0x3b
ARM GAS  C:\Users\ilya\AppData\Local\Temp\ccpEIuqL.s 			page 363


 17559 01b6 0B       		.uleb128 0xb
 17560 01b7 49       		.uleb128 0x49
 17561 01b8 13       		.uleb128 0x13
 17562 01b9 3F       		.uleb128 0x3f
 17563 01ba 19       		.uleb128 0x19
 17564 01bb 02       		.uleb128 0x2
 17565 01bc 18       		.uleb128 0x18
 17566 01bd 00       		.byte	0
 17567 01be 00       		.byte	0
 17568 01bf 1E       		.uleb128 0x1e
 17569 01c0 21       		.uleb128 0x21
 17570 01c1 00       		.byte	0
 17571 01c2 49       		.uleb128 0x49
 17572 01c3 13       		.uleb128 0x13
 17573 01c4 2F       		.uleb128 0x2f
 17574 01c5 05       		.uleb128 0x5
 17575 01c6 00       		.byte	0
 17576 01c7 00       		.byte	0
 17577 01c8 00       		.byte	0
 17578              		.section	.debug_aranges,"",%progbits
 17579 0000 2C030000 		.4byte	0x32c
 17580 0004 0200     		.2byte	0x2
 17581 0006 00000000 		.4byte	.Ldebug_info0
 17582 000a 04       		.byte	0x4
 17583 000b 00       		.byte	0
 17584 000c 0000     		.2byte	0
 17585 000e 0000     		.2byte	0
 17586 0010 00000000 		.4byte	.LFB1
 17587 0014 3C000000 		.4byte	.LFE1-.LFB1
 17588 0018 00000000 		.4byte	.LFB2
 17589 001c 3A000000 		.4byte	.LFE2-.LFB2
 17590 0020 00000000 		.4byte	.LFB3
 17591 0024 4E000000 		.4byte	.LFE3-.LFB3
 17592 0028 00000000 		.4byte	.LFB4
 17593 002c 36000000 		.4byte	.LFE4-.LFB4
 17594 0030 00000000 		.4byte	.LFB5
 17595 0034 4C000000 		.4byte	.LFE5-.LFB5
 17596 0038 00000000 		.4byte	.LFB6
 17597 003c 3C000000 		.4byte	.LFE6-.LFB6
 17598 0040 00000000 		.4byte	.LFB7
 17599 0044 3C000000 		.4byte	.LFE7-.LFB7
 17600 0048 00000000 		.4byte	.LFB8
 17601 004c 3E000000 		.4byte	.LFE8-.LFB8
 17602 0050 00000000 		.4byte	.LFB9
 17603 0054 3C000000 		.4byte	.LFE9-.LFB9
 17604 0058 00000000 		.4byte	.LFB10
 17605 005c 2E000000 		.4byte	.LFE10-.LFB10
 17606 0060 00000000 		.4byte	.LFB11
 17607 0064 C4000000 		.4byte	.LFE11-.LFB11
 17608 0068 00000000 		.4byte	.LFB12
 17609 006c 64000000 		.4byte	.LFE12-.LFB12
 17610 0070 00000000 		.4byte	.LFB13
 17611 0074 36000000 		.4byte	.LFE13-.LFB13
 17612 0078 00000000 		.4byte	.LFB14
 17613 007c 36000000 		.4byte	.LFE14-.LFB14
 17614 0080 00000000 		.4byte	.LFB15
 17615 0084 76000000 		.4byte	.LFE15-.LFB15
ARM GAS  C:\Users\ilya\AppData\Local\Temp\ccpEIuqL.s 			page 364


 17616 0088 00000000 		.4byte	.LFB16
 17617 008c 2E000000 		.4byte	.LFE16-.LFB16
 17618 0090 00000000 		.4byte	.LFB17
 17619 0094 26000000 		.4byte	.LFE17-.LFB17
 17620 0098 00000000 		.4byte	.LFB18
 17621 009c 22000000 		.4byte	.LFE18-.LFB18
 17622 00a0 00000000 		.4byte	.LFB19
 17623 00a4 4C000000 		.4byte	.LFE19-.LFB19
 17624 00a8 00000000 		.4byte	.LFB20
 17625 00ac 40000000 		.4byte	.LFE20-.LFB20
 17626 00b0 00000000 		.4byte	.LFB21
 17627 00b4 70030000 		.4byte	.LFE21-.LFB21
 17628 00b8 00000000 		.4byte	.LFB22
 17629 00bc 60000000 		.4byte	.LFE22-.LFB22
 17630 00c0 00000000 		.4byte	.LFB23
 17631 00c4 3C000000 		.4byte	.LFE23-.LFB23
 17632 00c8 00000000 		.4byte	.LFB24
 17633 00cc D0030000 		.4byte	.LFE24-.LFB24
 17634 00d0 00000000 		.4byte	.LFB25
 17635 00d4 20000000 		.4byte	.LFE25-.LFB25
 17636 00d8 00000000 		.4byte	.LFB26
 17637 00dc C6000000 		.4byte	.LFE26-.LFB26
 17638 00e0 00000000 		.4byte	.LFB27
 17639 00e4 6A010000 		.4byte	.LFE27-.LFB27
 17640 00e8 00000000 		.4byte	.LFB28
 17641 00ec 88010000 		.4byte	.LFE28-.LFB28
 17642 00f0 00000000 		.4byte	.LFB29
 17643 00f4 50000000 		.4byte	.LFE29-.LFB29
 17644 00f8 00000000 		.4byte	.LFB30
 17645 00fc 2A000000 		.4byte	.LFE30-.LFB30
 17646 0100 00000000 		.4byte	.LFB31
 17647 0104 54000000 		.4byte	.LFE31-.LFB31
 17648 0108 00000000 		.4byte	.LFB32
 17649 010c 50000000 		.4byte	.LFE32-.LFB32
 17650 0110 00000000 		.4byte	.LFB33
 17651 0114 26000000 		.4byte	.LFE33-.LFB33
 17652 0118 00000000 		.4byte	.LFB34
 17653 011c 22000000 		.4byte	.LFE34-.LFB34
 17654 0120 00000000 		.4byte	.LFB35
 17655 0124 36000000 		.4byte	.LFE35-.LFB35
 17656 0128 00000000 		.4byte	.LFB36
 17657 012c 36000000 		.4byte	.LFE36-.LFB36
 17658 0130 00000000 		.4byte	.LFB37
 17659 0134 48000000 		.4byte	.LFE37-.LFB37
 17660 0138 00000000 		.4byte	.LFB38
 17661 013c 42000000 		.4byte	.LFE38-.LFB38
 17662 0140 00000000 		.4byte	.LFB39
 17663 0144 D8010000 		.4byte	.LFE39-.LFB39
 17664 0148 00000000 		.4byte	.LFB40
 17665 014c C4000000 		.4byte	.LFE40-.LFB40
 17666 0150 00000000 		.4byte	.LFB41
 17667 0154 72000000 		.4byte	.LFE41-.LFB41
 17668 0158 00000000 		.4byte	.LFB42
 17669 015c FC000000 		.4byte	.LFE42-.LFB42
 17670 0160 00000000 		.4byte	.LFB43
 17671 0164 28000000 		.4byte	.LFE43-.LFB43
 17672 0168 00000000 		.4byte	.LFB44
ARM GAS  C:\Users\ilya\AppData\Local\Temp\ccpEIuqL.s 			page 365


 17673 016c 3C000000 		.4byte	.LFE44-.LFB44
 17674 0170 00000000 		.4byte	.LFB45
 17675 0174 FA000000 		.4byte	.LFE45-.LFB45
 17676 0178 00000000 		.4byte	.LFB46
 17677 017c 7A000000 		.4byte	.LFE46-.LFB46
 17678 0180 00000000 		.4byte	.LFB47
 17679 0184 88000000 		.4byte	.LFE47-.LFB47
 17680 0188 00000000 		.4byte	.LFB48
 17681 018c 90000000 		.4byte	.LFE48-.LFB48
 17682 0190 00000000 		.4byte	.LFB49
 17683 0194 90000000 		.4byte	.LFE49-.LFB49
 17684 0198 00000000 		.4byte	.LFB50
 17685 019c 36000000 		.4byte	.LFE50-.LFB50
 17686 01a0 00000000 		.4byte	.LFB51
 17687 01a4 98000000 		.4byte	.LFE51-.LFB51
 17688 01a8 00000000 		.4byte	.LFB52
 17689 01ac 7E000000 		.4byte	.LFE52-.LFB52
 17690 01b0 00000000 		.4byte	.LFB53
 17691 01b4 48000000 		.4byte	.LFE53-.LFB53
 17692 01b8 00000000 		.4byte	.LFB54
 17693 01bc 38000000 		.4byte	.LFE54-.LFB54
 17694 01c0 00000000 		.4byte	.LFB55
 17695 01c4 26000000 		.4byte	.LFE55-.LFB55
 17696 01c8 00000000 		.4byte	.LFB56
 17697 01cc 42000000 		.4byte	.LFE56-.LFB56
 17698 01d0 00000000 		.4byte	.LFB57
 17699 01d4 5E000000 		.4byte	.LFE57-.LFB57
 17700 01d8 00000000 		.4byte	.LFB58
 17701 01dc 80010000 		.4byte	.LFE58-.LFB58
 17702 01e0 00000000 		.4byte	.LFB59
 17703 01e4 64000000 		.4byte	.LFE59-.LFB59
 17704 01e8 00000000 		.4byte	.LFB60
 17705 01ec EC000000 		.4byte	.LFE60-.LFB60
 17706 01f0 00000000 		.4byte	.LFB61
 17707 01f4 6C010000 		.4byte	.LFE61-.LFB61
 17708 01f8 00000000 		.4byte	.LFB62
 17709 01fc FC000000 		.4byte	.LFE62-.LFB62
 17710 0200 00000000 		.4byte	.LFB63
 17711 0204 BA000000 		.4byte	.LFE63-.LFB63
 17712 0208 00000000 		.4byte	.LFB64
 17713 020c 82000000 		.4byte	.LFE64-.LFB64
 17714 0210 00000000 		.4byte	.LFB65
 17715 0214 82000000 		.4byte	.LFE65-.LFB65
 17716 0218 00000000 		.4byte	.LFB66
 17717 021c 3C000000 		.4byte	.LFE66-.LFB66
 17718 0220 00000000 		.4byte	.LFB67
 17719 0224 98000000 		.4byte	.LFE67-.LFB67
 17720 0228 00000000 		.4byte	.LFB68
 17721 022c 22000000 		.4byte	.LFE68-.LFB68
 17722 0230 00000000 		.4byte	.LFB69
 17723 0234 38000000 		.4byte	.LFE69-.LFB69
 17724 0238 00000000 		.4byte	.LFB70
 17725 023c 26000000 		.4byte	.LFE70-.LFB70
 17726 0240 00000000 		.4byte	.LFB71
 17727 0244 38000000 		.4byte	.LFE71-.LFB71
 17728 0248 00000000 		.4byte	.LFB72
 17729 024c 38000000 		.4byte	.LFE72-.LFB72
ARM GAS  C:\Users\ilya\AppData\Local\Temp\ccpEIuqL.s 			page 366


 17730 0250 00000000 		.4byte	.LFB73
 17731 0254 24010000 		.4byte	.LFE73-.LFB73
 17732 0258 00000000 		.4byte	.LFB74
 17733 025c 20020000 		.4byte	.LFE74-.LFB74
 17734 0260 00000000 		.4byte	.LFB75
 17735 0264 CC000000 		.4byte	.LFE75-.LFB75
 17736 0268 00000000 		.4byte	.LFB76
 17737 026c A2000000 		.4byte	.LFE76-.LFB76
 17738 0270 00000000 		.4byte	.LFB77
 17739 0274 22000000 		.4byte	.LFE77-.LFB77
 17740 0278 00000000 		.4byte	.LFB78
 17741 027c E4020000 		.4byte	.LFE78-.LFB78
 17742 0280 00000000 		.4byte	.LFB79
 17743 0284 60000000 		.4byte	.LFE79-.LFB79
 17744 0288 00000000 		.4byte	.LFB80
 17745 028c 22000000 		.4byte	.LFE80-.LFB80
 17746 0290 00000000 		.4byte	.LFB81
 17747 0294 82000000 		.4byte	.LFE81-.LFB81
 17748 0298 00000000 		.4byte	.LFB82
 17749 029c 36000000 		.4byte	.LFE82-.LFB82
 17750 02a0 00000000 		.4byte	.LFB83
 17751 02a4 28000000 		.4byte	.LFE83-.LFB83
 17752 02a8 00000000 		.4byte	.LFB84
 17753 02ac 28000000 		.4byte	.LFE84-.LFB84
 17754 02b0 00000000 		.4byte	.LFB85
 17755 02b4 4C030000 		.4byte	.LFE85-.LFB85
 17756 02b8 00000000 		.4byte	.LFB86
 17757 02bc 48010000 		.4byte	.LFE86-.LFB86
 17758 02c0 00000000 		.4byte	.LFB87
 17759 02c4 88000000 		.4byte	.LFE87-.LFB87
 17760 02c8 00000000 		.4byte	.LFB88
 17761 02cc 8C000000 		.4byte	.LFE88-.LFB88
 17762 02d0 00000000 		.4byte	.LFB89
 17763 02d4 28010000 		.4byte	.LFE89-.LFB89
 17764 02d8 00000000 		.4byte	.LFB90
 17765 02dc C0000000 		.4byte	.LFE90-.LFB90
 17766 02e0 00000000 		.4byte	.LFB91
 17767 02e4 5E000000 		.4byte	.LFE91-.LFB91
 17768 02e8 00000000 		.4byte	.LFB92
 17769 02ec 22000000 		.4byte	.LFE92-.LFB92
 17770 02f0 00000000 		.4byte	.LFB93
 17771 02f4 78000000 		.4byte	.LFE93-.LFB93
 17772 02f8 00000000 		.4byte	.LFB94
 17773 02fc 72000000 		.4byte	.LFE94-.LFB94
 17774 0300 00000000 		.4byte	.LFB95
 17775 0304 84000000 		.4byte	.LFE95-.LFB95
 17776 0308 00000000 		.4byte	.LFB96
 17777 030c 80000000 		.4byte	.LFE96-.LFB96
 17778 0310 00000000 		.4byte	.LFB97
 17779 0314 3C000000 		.4byte	.LFE97-.LFB97
 17780 0318 00000000 		.4byte	.LFB98
 17781 031c 38000000 		.4byte	.LFE98-.LFB98
 17782 0320 00000000 		.4byte	.LFB99
 17783 0324 38000000 		.4byte	.LFE99-.LFB99
 17784 0328 00000000 		.4byte	0
 17785 032c 00000000 		.4byte	0
 17786              		.section	.debug_ranges,"",%progbits
ARM GAS  C:\Users\ilya\AppData\Local\Temp\ccpEIuqL.s 			page 367


 17787              	.Ldebug_ranges0:
 17788 0000 00000000 		.4byte	.LFB1
 17789 0004 3C000000 		.4byte	.LFE1
 17790 0008 00000000 		.4byte	.LFB2
 17791 000c 3A000000 		.4byte	.LFE2
 17792 0010 00000000 		.4byte	.LFB3
 17793 0014 4E000000 		.4byte	.LFE3
 17794 0018 00000000 		.4byte	.LFB4
 17795 001c 36000000 		.4byte	.LFE4
 17796 0020 00000000 		.4byte	.LFB5
 17797 0024 4C000000 		.4byte	.LFE5
 17798 0028 00000000 		.4byte	.LFB6
 17799 002c 3C000000 		.4byte	.LFE6
 17800 0030 00000000 		.4byte	.LFB7
 17801 0034 3C000000 		.4byte	.LFE7
 17802 0038 00000000 		.4byte	.LFB8
 17803 003c 3E000000 		.4byte	.LFE8
 17804 0040 00000000 		.4byte	.LFB9
 17805 0044 3C000000 		.4byte	.LFE9
 17806 0048 00000000 		.4byte	.LFB10
 17807 004c 2E000000 		.4byte	.LFE10
 17808 0050 00000000 		.4byte	.LFB11
 17809 0054 C4000000 		.4byte	.LFE11
 17810 0058 00000000 		.4byte	.LFB12
 17811 005c 64000000 		.4byte	.LFE12
 17812 0060 00000000 		.4byte	.LFB13
 17813 0064 36000000 		.4byte	.LFE13
 17814 0068 00000000 		.4byte	.LFB14
 17815 006c 36000000 		.4byte	.LFE14
 17816 0070 00000000 		.4byte	.LFB15
 17817 0074 76000000 		.4byte	.LFE15
 17818 0078 00000000 		.4byte	.LFB16
 17819 007c 2E000000 		.4byte	.LFE16
 17820 0080 00000000 		.4byte	.LFB17
 17821 0084 26000000 		.4byte	.LFE17
 17822 0088 00000000 		.4byte	.LFB18
 17823 008c 22000000 		.4byte	.LFE18
 17824 0090 00000000 		.4byte	.LFB19
 17825 0094 4C000000 		.4byte	.LFE19
 17826 0098 00000000 		.4byte	.LFB20
 17827 009c 40000000 		.4byte	.LFE20
 17828 00a0 00000000 		.4byte	.LFB21
 17829 00a4 70030000 		.4byte	.LFE21
 17830 00a8 00000000 		.4byte	.LFB22
 17831 00ac 60000000 		.4byte	.LFE22
 17832 00b0 00000000 		.4byte	.LFB23
 17833 00b4 3C000000 		.4byte	.LFE23
 17834 00b8 00000000 		.4byte	.LFB24
 17835 00bc D0030000 		.4byte	.LFE24
 17836 00c0 00000000 		.4byte	.LFB25
 17837 00c4 20000000 		.4byte	.LFE25
 17838 00c8 00000000 		.4byte	.LFB26
 17839 00cc C6000000 		.4byte	.LFE26
 17840 00d0 00000000 		.4byte	.LFB27
 17841 00d4 6A010000 		.4byte	.LFE27
 17842 00d8 00000000 		.4byte	.LFB28
 17843 00dc 88010000 		.4byte	.LFE28
ARM GAS  C:\Users\ilya\AppData\Local\Temp\ccpEIuqL.s 			page 368


 17844 00e0 00000000 		.4byte	.LFB29
 17845 00e4 50000000 		.4byte	.LFE29
 17846 00e8 00000000 		.4byte	.LFB30
 17847 00ec 2A000000 		.4byte	.LFE30
 17848 00f0 00000000 		.4byte	.LFB31
 17849 00f4 54000000 		.4byte	.LFE31
 17850 00f8 00000000 		.4byte	.LFB32
 17851 00fc 50000000 		.4byte	.LFE32
 17852 0100 00000000 		.4byte	.LFB33
 17853 0104 26000000 		.4byte	.LFE33
 17854 0108 00000000 		.4byte	.LFB34
 17855 010c 22000000 		.4byte	.LFE34
 17856 0110 00000000 		.4byte	.LFB35
 17857 0114 36000000 		.4byte	.LFE35
 17858 0118 00000000 		.4byte	.LFB36
 17859 011c 36000000 		.4byte	.LFE36
 17860 0120 00000000 		.4byte	.LFB37
 17861 0124 48000000 		.4byte	.LFE37
 17862 0128 00000000 		.4byte	.LFB38
 17863 012c 42000000 		.4byte	.LFE38
 17864 0130 00000000 		.4byte	.LFB39
 17865 0134 D8010000 		.4byte	.LFE39
 17866 0138 00000000 		.4byte	.LFB40
 17867 013c C4000000 		.4byte	.LFE40
 17868 0140 00000000 		.4byte	.LFB41
 17869 0144 72000000 		.4byte	.LFE41
 17870 0148 00000000 		.4byte	.LFB42
 17871 014c FC000000 		.4byte	.LFE42
 17872 0150 00000000 		.4byte	.LFB43
 17873 0154 28000000 		.4byte	.LFE43
 17874 0158 00000000 		.4byte	.LFB44
 17875 015c 3C000000 		.4byte	.LFE44
 17876 0160 00000000 		.4byte	.LFB45
 17877 0164 FA000000 		.4byte	.LFE45
 17878 0168 00000000 		.4byte	.LFB46
 17879 016c 7A000000 		.4byte	.LFE46
 17880 0170 00000000 		.4byte	.LFB47
 17881 0174 88000000 		.4byte	.LFE47
 17882 0178 00000000 		.4byte	.LFB48
 17883 017c 90000000 		.4byte	.LFE48
 17884 0180 00000000 		.4byte	.LFB49
 17885 0184 90000000 		.4byte	.LFE49
 17886 0188 00000000 		.4byte	.LFB50
 17887 018c 36000000 		.4byte	.LFE50
 17888 0190 00000000 		.4byte	.LFB51
 17889 0194 98000000 		.4byte	.LFE51
 17890 0198 00000000 		.4byte	.LFB52
 17891 019c 7E000000 		.4byte	.LFE52
 17892 01a0 00000000 		.4byte	.LFB53
 17893 01a4 48000000 		.4byte	.LFE53
 17894 01a8 00000000 		.4byte	.LFB54
 17895 01ac 38000000 		.4byte	.LFE54
 17896 01b0 00000000 		.4byte	.LFB55
 17897 01b4 26000000 		.4byte	.LFE55
 17898 01b8 00000000 		.4byte	.LFB56
 17899 01bc 42000000 		.4byte	.LFE56
 17900 01c0 00000000 		.4byte	.LFB57
ARM GAS  C:\Users\ilya\AppData\Local\Temp\ccpEIuqL.s 			page 369


 17901 01c4 5E000000 		.4byte	.LFE57
 17902 01c8 00000000 		.4byte	.LFB58
 17903 01cc 80010000 		.4byte	.LFE58
 17904 01d0 00000000 		.4byte	.LFB59
 17905 01d4 64000000 		.4byte	.LFE59
 17906 01d8 00000000 		.4byte	.LFB60
 17907 01dc EC000000 		.4byte	.LFE60
 17908 01e0 00000000 		.4byte	.LFB61
 17909 01e4 6C010000 		.4byte	.LFE61
 17910 01e8 00000000 		.4byte	.LFB62
 17911 01ec FC000000 		.4byte	.LFE62
 17912 01f0 00000000 		.4byte	.LFB63
 17913 01f4 BA000000 		.4byte	.LFE63
 17914 01f8 00000000 		.4byte	.LFB64
 17915 01fc 82000000 		.4byte	.LFE64
 17916 0200 00000000 		.4byte	.LFB65
 17917 0204 82000000 		.4byte	.LFE65
 17918 0208 00000000 		.4byte	.LFB66
 17919 020c 3C000000 		.4byte	.LFE66
 17920 0210 00000000 		.4byte	.LFB67
 17921 0214 98000000 		.4byte	.LFE67
 17922 0218 00000000 		.4byte	.LFB68
 17923 021c 22000000 		.4byte	.LFE68
 17924 0220 00000000 		.4byte	.LFB69
 17925 0224 38000000 		.4byte	.LFE69
 17926 0228 00000000 		.4byte	.LFB70
 17927 022c 26000000 		.4byte	.LFE70
 17928 0230 00000000 		.4byte	.LFB71
 17929 0234 38000000 		.4byte	.LFE71
 17930 0238 00000000 		.4byte	.LFB72
 17931 023c 38000000 		.4byte	.LFE72
 17932 0240 00000000 		.4byte	.LFB73
 17933 0244 24010000 		.4byte	.LFE73
 17934 0248 00000000 		.4byte	.LFB74
 17935 024c 20020000 		.4byte	.LFE74
 17936 0250 00000000 		.4byte	.LFB75
 17937 0254 CC000000 		.4byte	.LFE75
 17938 0258 00000000 		.4byte	.LFB76
 17939 025c A2000000 		.4byte	.LFE76
 17940 0260 00000000 		.4byte	.LFB77
 17941 0264 22000000 		.4byte	.LFE77
 17942 0268 00000000 		.4byte	.LFB78
 17943 026c E4020000 		.4byte	.LFE78
 17944 0270 00000000 		.4byte	.LFB79
 17945 0274 60000000 		.4byte	.LFE79
 17946 0278 00000000 		.4byte	.LFB80
 17947 027c 22000000 		.4byte	.LFE80
 17948 0280 00000000 		.4byte	.LFB81
 17949 0284 82000000 		.4byte	.LFE81
 17950 0288 00000000 		.4byte	.LFB82
 17951 028c 36000000 		.4byte	.LFE82
 17952 0290 00000000 		.4byte	.LFB83
 17953 0294 28000000 		.4byte	.LFE83
 17954 0298 00000000 		.4byte	.LFB84
 17955 029c 28000000 		.4byte	.LFE84
 17956 02a0 00000000 		.4byte	.LFB85
 17957 02a4 4C030000 		.4byte	.LFE85
ARM GAS  C:\Users\ilya\AppData\Local\Temp\ccpEIuqL.s 			page 370


 17958 02a8 00000000 		.4byte	.LFB86
 17959 02ac 48010000 		.4byte	.LFE86
 17960 02b0 00000000 		.4byte	.LFB87
 17961 02b4 88000000 		.4byte	.LFE87
 17962 02b8 00000000 		.4byte	.LFB88
 17963 02bc 8C000000 		.4byte	.LFE88
 17964 02c0 00000000 		.4byte	.LFB89
 17965 02c4 28010000 		.4byte	.LFE89
 17966 02c8 00000000 		.4byte	.LFB90
 17967 02cc C0000000 		.4byte	.LFE90
 17968 02d0 00000000 		.4byte	.LFB91
 17969 02d4 5E000000 		.4byte	.LFE91
 17970 02d8 00000000 		.4byte	.LFB92
 17971 02dc 22000000 		.4byte	.LFE92
 17972 02e0 00000000 		.4byte	.LFB93
 17973 02e4 78000000 		.4byte	.LFE93
 17974 02e8 00000000 		.4byte	.LFB94
 17975 02ec 72000000 		.4byte	.LFE94
 17976 02f0 00000000 		.4byte	.LFB95
 17977 02f4 84000000 		.4byte	.LFE95
 17978 02f8 00000000 		.4byte	.LFB96
 17979 02fc 80000000 		.4byte	.LFE96
 17980 0300 00000000 		.4byte	.LFB97
 17981 0304 3C000000 		.4byte	.LFE97
 17982 0308 00000000 		.4byte	.LFB98
 17983 030c 38000000 		.4byte	.LFE98
 17984 0310 00000000 		.4byte	.LFB99
 17985 0314 38000000 		.4byte	.LFE99
 17986 0318 00000000 		.4byte	0
 17987 031c 00000000 		.4byte	0
 17988              		.section	.debug_line,"",%progbits
 17989              	.Ldebug_line0:
 17990 0000 F10C0000 		.section	.debug_str,"MS",%progbits,1
 17990      0200DC01 
 17990      00000201 
 17990      FB0E0D00 
 17990      01010101 
 17991              	.LASF324:
 17992 0000 44657669 		.ascii	"DeviceRangeStatus\000"
 17992      63655261 
 17992      6E676553 
 17992      74617475 
 17992      7300
 17993              	.LASF95:
 17994 0012 52656665 		.ascii	"ReferenceSpadType\000"
 17994      72656E63 
 17994      65537061 
 17994      64547970 
 17994      6500
 17995              	.LASF64:
 17996 0024 5369676E 		.ascii	"SignalRateRtnMegaCps\000"
 17996      616C5261 
 17996      74655274 
 17996      6E4D6567 
 17996      61437073 
 17997              	.LASF290:
 17998 0039 5369676E 		.ascii	"SignalRateRtnMegaCpsTemp\000"
ARM GAS  C:\Users\ilya\AppData\Local\Temp\ccpEIuqL.s 			page 371


 17998      616C5261 
 17998      74655274 
 17998      6E4D6567 
 17998      61437073 
 17999              	.LASF98:
 18000 0052 50617274 		.ascii	"PartUIDLower\000"
 18000      5549444C 
 18000      6F776572 
 18000      00
 18001              	.LASF301:
 18002 005f 70416D62 		.ascii	"pAmbientTooHigh\000"
 18002      69656E74 
 18002      546F6F48 
 18002      69676800 
 18003              	.LASF247:
 18004 006f 70496E74 		.ascii	"pInterMeasurementPeriodMilliSeconds\000"
 18004      65724D65 
 18004      61737572 
 18004      656D656E 
 18004      74506572 
 18005              	.LASF34:
 18006 0093 50726F64 		.ascii	"ProductRevisionMajor\000"
 18006      75637452 
 18006      65766973 
 18006      696F6E4D 
 18006      616A6F72 
 18007              	.LASF235:
 18008 00a8 70536571 		.ascii	"pSequenceStepsString\000"
 18008      75656E63 
 18008      65537465 
 18008      70735374 
 18008      72696E67 
 18009              	.LASF138:
 18010 00bd 564C3533 		.ascii	"VL53L0X_DEV\000"
 18010      4C30585F 
 18010      44455600 
 18011              	.LASF163:
 18012 00c9 564C3533 		.ascii	"VL53L0X_GetPalState\000"
 18012      4C30585F 
 18012      47657450 
 18012      616C5374 
 18012      61746500 
 18013              	.LASF44:
 18014 00dd 48697374 		.ascii	"HistogramMode\000"
 18014      6F677261 
 18014      6D4D6F64 
 18014      6500
 18015              	.LASF47:
 18016 00eb 5854616C 		.ascii	"XTalkCompensationEnable\000"
 18016      6B436F6D 
 18016      70656E73 
 18016      6174696F 
 18016      6E456E61 
 18017              	.LASF87:
 18018 0103 50726552 		.ascii	"PreRangeVcselPulsePeriod\000"
 18018      616E6765 
 18018      56637365 
ARM GAS  C:\Users\ilya\AppData\Local\Temp\ccpEIuqL.s 			page 372


 18018      6C50756C 
 18018      73655065 
 18019              	.LASF369:
 18020 011c 564C3533 		.ascii	"VL53L0X_SetReferenceSpads\000"
 18020      4C30585F 
 18020      53657452 
 18020      65666572 
 18020      656E6365 
 18021              	.LASF172:
 18022 0136 704F6666 		.ascii	"pOffsetCalibrationDataMicroMeter\000"
 18022      73657443 
 18022      616C6962 
 18022      72617469 
 18022      6F6E4461 
 18023              	.LASF215:
 18024 0157 564C3533 		.ascii	"VL53L0X_SetMeasurementTimingBudgetMicroSeconds\000"
 18024      4C30585F 
 18024      5365744D 
 18024      65617375 
 18024      72656D65 
 18025              	.LASF238:
 18026 0186 53746174 		.ascii	"Status1\000"
 18026      75733100 
 18027              	.LASF367:
 18028 018e 564C3533 		.ascii	"VL53L0X_GetSpadAmbientDamperFactor\000"
 18028      4C30585F 
 18028      47657453 
 18028      70616441 
 18028      6D626965 
 18029              	.LASF193:
 18030 01b1 74656D70 		.ascii	"tempbyte\000"
 18030      62797465 
 18030      00
 18031              	.LASF286:
 18032 01ba 57726170 		.ascii	"WrapAroundCheckEnableInt\000"
 18032      41726F75 
 18032      6E644368 
 18032      65636B45 
 18032      6E61626C 
 18033              	.LASF326:
 18034 01d3 416D6269 		.ascii	"AmbientRate\000"
 18034      656E7452 
 18034      61746500 
 18035              	.LASF334:
 18036 01df 564C3533 		.ascii	"VL53L0X_GetHistogramMeasurementData\000"
 18036      4C30585F 
 18036      47657448 
 18036      6973746F 
 18036      6772616D 
 18037              	.LASF14:
 18038 0203 756E7369 		.ascii	"unsigned int\000"
 18038      676E6564 
 18038      20696E74 
 18038      00
 18039              	.LASF48:
 18040 0210 5854616C 		.ascii	"XTalkCompensationRangeMilliMeter\000"
 18040      6B436F6D 
ARM GAS  C:\Users\ilya\AppData\Local\Temp\ccpEIuqL.s 			page 373


 18040      70656E73 
 18040      6174696F 
 18040      6E52616E 
 18041              	.LASF143:
 18042 0231 53746174 		.ascii	"Status\000"
 18042      757300
 18043              	.LASF214:
 18044 0238 70486973 		.ascii	"pHistogramMode\000"
 18044      746F6772 
 18044      616D4D6F 
 18044      646500
 18045              	.LASF216:
 18046 0247 564C3533 		.ascii	"VL53L0X_GetMeasurementTimingBudgetMicroSeconds\000"
 18046      4C30585F 
 18046      4765744D 
 18046      65617375 
 18046      72656D65 
 18047              	.LASF192:
 18048 0276 74656D70 		.ascii	"tempword\000"
 18048      776F7264 
 18048      00
 18049              	.LASF42:
 18050 027f 564C3533 		.ascii	"VL53L0X_PowerModes\000"
 18050      4C30585F 
 18050      506F7765 
 18050      724D6F64 
 18050      657300
 18051              	.LASF32:
 18052 0292 50726F64 		.ascii	"ProductId\000"
 18052      75637449 
 18052      6400
 18053              	.LASF51:
 18054 029c 4C696D69 		.ascii	"LimitChecksEnable\000"
 18054      74436865 
 18054      636B7345 
 18054      6E61626C 
 18054      6500
 18055              	.LASF186:
 18056 02ae 564C3533 		.ascii	"VL53L0X_SetTuningSettingBuffer\000"
 18056      4C30585F 
 18056      53657454 
 18056      756E696E 
 18056      67536574 
 18057              	.LASF76:
 18058 02cd 4572726F 		.ascii	"ErrorStatus\000"
 18058      72537461 
 18058      74757300 
 18059              	.LASF65:
 18060 02d9 416D6269 		.ascii	"AmbientRateRtnMegaCps\000"
 18060      656E7452 
 18060      61746552 
 18060      746E4D65 
 18060      67614370 
 18061              	.LASF8:
 18062 02ef 5F5F696E 		.ascii	"__int32_t\000"
 18062      7433325F 
 18062      7400
ARM GAS  C:\Users\ilya\AppData\Local\Temp\ccpEIuqL.s 			page 374


 18063              	.LASF287:
 18064 02f9 564C3533 		.ascii	"VL53L0X_GetWrapAroundCheckEnable\000"
 18064      4C30585F 
 18064      47657457 
 18064      72617041 
 18064      726F756E 
 18065              	.LASF149:
 18066 031a 70564C35 		.ascii	"pVL53L0X_DeviceInfo\000"
 18066      334C3058 
 18066      5F446576 
 18066      69636549 
 18066      6E666F00 
 18067              	.LASF300:
 18068 032e 70587461 		.ascii	"pXtalkPerSpad\000"
 18068      6C6B5065 
 18068      72537061 
 18068      6400
 18069              	.LASF200:
 18070 033c 564C3533 		.ascii	"VL53L0X_WaitDeviceBooted\000"
 18070      4C30585F 
 18070      57616974 
 18070      44657669 
 18070      6365426F 
 18071              	.LASF376:
 18072 0355 474E5520 		.ascii	"GNU C11 5.4.1 20160609 (release) [ARM/embedded-5-br"
 18072      43313120 
 18072      352E342E 
 18072      31203230 
 18072      31363036 
 18073 0388 616E6368 		.ascii	"anch revision 237715] -mcpu=cortex-m0 -mthumb -g -O"
 18073      20726576 
 18073      6973696F 
 18073      6E203233 
 18073      37373135 
 18074 03bb 30202D66 		.ascii	"0 -ffunction-sections -ffat-lto-objects\000"
 18074      66756E63 
 18074      74696F6E 
 18074      2D736563 
 18074      74696F6E 
 18075              	.LASF206:
 18076 03e3 564C3533 		.ascii	"VL53L0X_GetDeviceMode\000"
 18076      4C30585F 
 18076      47657444 
 18076      65766963 
 18076      654D6F64 
 18077              	.LASF264:
 18078 03f9 564C3533 		.ascii	"VL53L0X_GetNumberOfLimitCheck\000"
 18078      4C30585F 
 18078      4765744E 
 18078      756D6265 
 18078      724F664C 
 18079              	.LASF299:
 18080 0417 54696D65 		.ascii	"TimeoutMs\000"
 18080      6F75744D 
 18080      7300
 18081              	.LASF344:
 18082 0421 506F6C61 		.ascii	"Polarity\000"
ARM GAS  C:\Users\ilya\AppData\Local\Temp\ccpEIuqL.s 			page 375


 18082      72697479 
 18082      00
 18083              	.LASF152:
 18084 042a 564C3533 		.ascii	"VL53L0X_GetDeviceErrorString\000"
 18084      4C30585F 
 18084      47657444 
 18084      65766963 
 18084      65457272 
 18085              	.LASF28:
 18086 0447 6275696C 		.ascii	"build\000"
 18086      6400
 18087              	.LASF318:
 18088 044d 53797352 		.ascii	"SysRangeStatusRegister\000"
 18088      616E6765 
 18088      53746174 
 18088      75735265 
 18088      67697374 
 18089              	.LASF333:
 18090 0464 5369676E 		.ascii	"SignalRefClipLimitCheckEnable\000"
 18090      616C5265 
 18090      66436C69 
 18090      704C696D 
 18090      69744368 
 18091              	.LASF310:
 18092 0482 54687265 		.ascii	"ThresholdLow\000"
 18092      73686F6C 
 18092      644C6F77 
 18092      00
 18093              	.LASF204:
 18094 048f 564C3533 		.ascii	"VL53L0X_GetDeviceParameters\000"
 18094      4C30585F 
 18094      47657444 
 18094      65766963 
 18094      65506172 
 18095              	.LASF306:
 18096 04ab 704F6666 		.ascii	"pOffsetMicroMeter\000"
 18096      7365744D 
 18096      6963726F 
 18096      4D657465 
 18096      7200
 18097              	.LASF208:
 18098 04bd 564C3533 		.ascii	"VL53L0X_SetRangeFractionEnable\000"
 18098      4C30585F 
 18098      53657452 
 18098      616E6765 
 18098      46726163 
 18099              	.LASF137:
 18100 04dc 564C3533 		.ascii	"VL53L0X_Dev_t\000"
 18100      4C30585F 
 18100      4465765F 
 18100      7400
 18101              	.LASF365:
 18102 04ea 564C3533 		.ascii	"VL53L0X_SetSpadAmbientDamperFactor\000"
 18102      4C30585F 
 18102      53657453 
 18102      70616441 
 18102      6D626965 
ARM GAS  C:\Users\ilya\AppData\Local\Temp\ccpEIuqL.s 			page 376


 18103              	.LASF360:
 18104 050d 564C3533 		.ascii	"VL53L0X_EnableInterruptMask\000"
 18104      4C30585F 
 18104      456E6162 
 18104      6C65496E 
 18104      74657272 
 18105              	.LASF54:
 18106 0529 57726170 		.ascii	"WrapAroundCheckEnable\000"
 18106      41726F75 
 18106      6E644368 
 18106      65636B45 
 18106      6E61626C 
 18107              	.LASF112:
 18108 053f 506F7765 		.ascii	"PowerMode\000"
 18108      724D6F64 
 18108      6500
 18109              	.LASF317:
 18110 0549 704D6561 		.ascii	"pMeasurementDataReady\000"
 18110      73757265 
 18110      6D656E74 
 18110      44617461 
 18110      52656164 
 18111              	.LASF52:
 18112 055f 4C696D69 		.ascii	"LimitChecksStatus\000"
 18112      74436865 
 18112      636B7353 
 18112      74617475 
 18112      7300
 18113              	.LASF278:
 18114 0571 4C696D69 		.ascii	"LimitCheckValue\000"
 18114      74436865 
 18114      636B5661 
 18114      6C756500 
 18115              	.LASF63:
 18116 0581 52616E67 		.ascii	"RangeDMaxMilliMeter\000"
 18116      65444D61 
 18116      784D696C 
 18116      6C694D65 
 18116      74657200 
 18117              	.LASF150:
 18118 0595 564C3533 		.ascii	"VL53L0X_GetDeviceErrorStatus\000"
 18118      4C30585F 
 18118      47657444 
 18118      65766963 
 18118      65457272 
 18119              	.LASF366:
 18120 05b2 53706164 		.ascii	"SpadAmbientDamperFactor\000"
 18120      416D6269 
 18120      656E7444 
 18120      616D7065 
 18120      72466163 
 18121              	.LASF329:
 18122 05ca 5874616C 		.ascii	"XtalkRangeMilliMeter\000"
 18122      6B52616E 
 18122      67654D69 
 18122      6C6C694D 
 18122      65746572 
ARM GAS  C:\Users\ilya\AppData\Local\Temp\ccpEIuqL.s 			page 377


 18123              	.LASF305:
 18124 05df 43616C44 		.ascii	"CalDistanceMilliMeter\000"
 18124      69737461 
 18124      6E63654D 
 18124      696C6C69 
 18124      4D657465 
 18125              	.LASF226:
 18126 05f5 53657175 		.ascii	"SequenceConfigNew\000"
 18126      656E6365 
 18126      436F6E66 
 18126      69674E65 
 18126      7700
 18127              	.LASF93:
 18128 0607 52657669 		.ascii	"Revision\000"
 18128      73696F6E 
 18128      00
 18129              	.LASF38:
 18130 0610 564C3533 		.ascii	"VL53L0X_DeviceInfo_t\000"
 18130      4C30585F 
 18130      44657669 
 18130      6365496E 
 18130      666F5F74 
 18131              	.LASF102:
 18132 0625 50617274 		.ascii	"Part2PartOffsetNVMMicroMeter\000"
 18132      32506172 
 18132      744F6666 
 18132      7365744E 
 18132      564D4D69 
 18133              	.LASF156:
 18134 0642 7052616E 		.ascii	"pRangeStatusString\000"
 18134      67655374 
 18134      61747573 
 18134      53747269 
 18134      6E6700
 18135              	.LASF263:
 18136 0655 70506861 		.ascii	"pPhaseCal\000"
 18136      73654361 
 18136      6C00
 18137              	.LASF188:
 18138 065f 564C3533 		.ascii	"VL53L0X_GetTuningSettingBuffer\000"
 18138      4C30585F 
 18138      47657454 
 18138      756E696E 
 18138      67536574 
 18139              	.LASF340:
 18140 067e 564C3533 		.ascii	"VL53L0X_GetMaxNumberOfROIZones\000"
 18140      4C30585F 
 18140      4765744D 
 18140      61784E75 
 18140      6D626572 
 18141              	.LASF319:
 18142 069d 496E7465 		.ascii	"InterruptMask\000"
 18142      72727570 
 18142      744D6173 
 18142      6B00
 18143              	.LASF295:
 18144 06ab 564C3533 		.ascii	"VL53L0X_PerformSingleHistogramMeasurement\000"
ARM GAS  C:\Users\ilya\AppData\Local\Temp\ccpEIuqL.s 			page 378


 18144      4C30585F 
 18144      50657266 
 18144      6F726D53 
 18144      696E676C 
 18145              	.LASF373:
 18146 06d5 564C3533 		.ascii	"VL53L0X_PerformRefSpadManagement\000"
 18146      4C30585F 
 18146      50657266 
 18146      6F726D52 
 18146      65665370 
 18147              	.LASF22:
 18148 06f6 46697850 		.ascii	"FixPoint1616_t\000"
 18148      6F696E74 
 18148      31363136 
 18148      5F7400
 18149              	.LASF100:
 18150 0705 564C3533 		.ascii	"VL53L0X_DeviceSpecificParameters_t\000"
 18150      4C30585F 
 18150      44657669 
 18150      63655370 
 18150      65636966 
 18151              	.LASF20:
 18152 0728 75696E74 		.ascii	"uint32_t\000"
 18152      33325F74 
 18152      00
 18153              	.LASF15:
 18154 0731 696E7438 		.ascii	"int8_t\000"
 18154      5F7400
 18155              	.LASF248:
 18156 0738 564C3533 		.ascii	"VL53L0X_SetXTalkCompensationEnable\000"
 18156      4C30585F 
 18156      53657458 
 18156      54616C6B 
 18156      436F6D70 
 18157              	.LASF252:
 18158 075b 54656D70 		.ascii	"Temp8\000"
 18158      3800
 18159              	.LASF368:
 18160 0761 70537061 		.ascii	"pSpadAmbientDamperFactor\000"
 18160      64416D62 
 18160      69656E74 
 18160      44616D70 
 18160      65724661 
 18161              	.LASF298:
 18162 077a 564C3533 		.ascii	"VL53L0X_PerformXTalkMeasurement\000"
 18162      4C30585F 
 18162      50657266 
 18162      6F726D58 
 18162      54616C6B 
 18163              	.LASF72:
 18164 079a 48697374 		.ascii	"HistogramType\000"
 18164      6F677261 
 18164      6D547970 
 18164      6500
 18165              	.LASF244:
 18166 07a8 6F73635F 		.ascii	"osc_calibrate_val\000"
 18166      63616C69 
ARM GAS  C:\Users\ilya\AppData\Local\Temp\ccpEIuqL.s 			page 379


 18166      62726174 
 18166      655F7661 
 18166      6C00
 18167              	.LASF378:
 18168 07ba 433A5C70 		.ascii	"C:\\psoc\\chamonix\\fixed\\Fixed\\fixed.cydsn\000"
 18168      736F635C 
 18168      6368616D 
 18168      6F6E6978 
 18168      5C666978 
 18169              	.LASF234:
 18170 07e3 564C3533 		.ascii	"VL53L0X_GetSequenceStepsInfo\000"
 18170      4C30585F 
 18170      47657453 
 18170      65717565 
 18170      6E636553 
 18171              	.LASF55:
 18172 0800 564C3533 		.ascii	"VL53L0X_DeviceParameters_t\000"
 18172      4C30585F 
 18172      44657669 
 18172      63655061 
 18172      72616D65 
 18173              	.LASF194:
 18174 081b 636F756E 		.ascii	"count\000"
 18174      7400
 18175              	.LASF23:
 18176 0821 564C3533 		.ascii	"VL53L0X_DeviceError\000"
 18176      4C30585F 
 18176      44657669 
 18176      63654572 
 18176      726F7200 
 18177              	.LASF271:
 18178 0835 564C3533 		.ascii	"VL53L0X_SetLimitCheckEnable\000"
 18178      4C30585F 
 18178      5365744C 
 18178      696D6974 
 18178      43686563 
 18179              	.LASF114:
 18180 0851 74617267 		.ascii	"targetRefRate\000"
 18180      65745265 
 18180      66526174 
 18180      6500
 18181              	.LASF232:
 18182 085f 564C3533 		.ascii	"VL53L0X_GetNumberOfSequenceSteps\000"
 18182      4C30585F 
 18182      4765744E 
 18182      756D6265 
 18182      724F6653 
 18183              	.LASF17:
 18184 0880 696E7431 		.ascii	"int16_t\000"
 18184      365F7400 
 18185              	.LASF35:
 18186 0888 50726F64 		.ascii	"ProductRevisionMinor\000"
 18186      75637452 
 18186      65766973 
 18186      696F6E4D 
 18186      696E6F72 
 18187              	.LASF225:
ARM GAS  C:\Users\ilya\AppData\Local\Temp\ccpEIuqL.s 			page 380


 18188 089d 53657175 		.ascii	"SequenceStepEnabled\000"
 18188      656E6365 
 18188      53746570 
 18188      456E6162 
 18188      6C656400 
 18189              	.LASF363:
 18190 08b1 564C3533 		.ascii	"VL53L0X_GetSpadAmbientDamperThreshold\000"
 18190      4C30585F 
 18190      47657453 
 18190      70616441 
 18190      6D626965 
 18191              	.LASF103:
 18192 08d7 50617274 		.ascii	"Part2PartOffsetAdjustmentNVMMicroMeter\000"
 18192      32506172 
 18192      744F6666 
 18192      73657441 
 18192      646A7573 
 18193              	.LASF13:
 18194 08fe 6C6F6E67 		.ascii	"long long unsigned int\000"
 18194      206C6F6E 
 18194      6720756E 
 18194      7369676E 
 18194      65642069 
 18195              	.LASF57:
 18196 0915 416D6254 		.ascii	"AmbTuningWindowFactor_K\000"
 18196      756E696E 
 18196      6757696E 
 18196      646F7746 
 18196      6163746F 
 18197              	.LASF357:
 18198 092d 4C6F6F70 		.ascii	"LoopCount\000"
 18198      436F756E 
 18198      7400
 18199              	.LASF180:
 18200 0937 564C3533 		.ascii	"VL53L0X_GetTotalSignalRate\000"
 18200      4C30585F 
 18200      47657454 
 18200      6F74616C 
 18200      5369676E 
 18201              	.LASF250:
 18202 0952 564C3533 		.ascii	"VL53L0X_GetXTalkCompensationEnable\000"
 18202      4C30585F 
 18202      47657458 
 18202      54616C6B 
 18202      436F6D70 
 18203              	.LASF240:
 18204 0975 4F6C6454 		.ascii	"OldTimeOutMicroSeconds\000"
 18204      696D654F 
 18204      75744D69 
 18204      63726F53 
 18204      65636F6E 
 18205              	.LASF267:
 18206 098c 4C696D69 		.ascii	"LimitCheckId\000"
 18206      74436865 
 18206      636B4964 
 18206      00
 18207              	.LASF81:
ARM GAS  C:\Users\ilya\AppData\Local\Temp\ccpEIuqL.s 			page 381


 18208 0999 4F736346 		.ascii	"OscFrequencyMHz\000"
 18208      72657175 
 18208      656E6379 
 18208      4D487A00 
 18209              	.LASF6:
 18210 09a9 5F5F7569 		.ascii	"__uint16_t\000"
 18210      6E743136 
 18210      5F7400
 18211              	.LASF224:
 18212 09b4 53657175 		.ascii	"SequenceStepId\000"
 18212      656E6365 
 18212      53746570 
 18212      496400
 18213              	.LASF284:
 18214 09c3 704C696D 		.ascii	"pLimitCheckCurrent\000"
 18214      69744368 
 18214      65636B43 
 18214      75727265 
 18214      6E7400
 18215              	.LASF199:
 18216 09d6 73657154 		.ascii	"seqTimeoutMicroSecs\000"
 18216      696D656F 
 18216      75744D69 
 18216      63726F53 
 18216      65637300 
 18217              	.LASF229:
 18218 09ea 564C3533 		.ascii	"VL53L0X_GetSequenceStepEnable\000"
 18218      4C30585F 
 18218      47657453 
 18218      65717565 
 18218      6E636553 
 18219              	.LASF269:
 18220 0a08 564C3533 		.ascii	"VL53L0X_GetLimitCheckStatus\000"
 18220      4C30585F 
 18220      4765744C 
 18220      696D6974 
 18220      43686563 
 18221              	.LASF78:
 18222 0a24 52656653 		.ascii	"RefSpadEnables\000"
 18222      70616445 
 18222      6E61626C 
 18222      657300
 18223              	.LASF30:
 18224 0a33 4E616D65 		.ascii	"Name\000"
 18224      00
 18225              	.LASF119:
 18226 0a38 55736549 		.ascii	"UseInternalTuningSettings\000"
 18226      6E746572 
 18226      6E616C54 
 18226      756E696E 
 18226      67536574 
 18227              	.LASF359:
 18228 0a52 70496E74 		.ascii	"pInterruptMaskStatus\000"
 18228      65727275 
 18228      70744D61 
 18228      736B5374 
 18228      61747573 
ARM GAS  C:\Users\ilya\AppData\Local\Temp\ccpEIuqL.s 			page 382


 18229              	.LASF277:
 18230 0a67 564C3533 		.ascii	"VL53L0X_SetLimitCheckValue\000"
 18230      4C30585F 
 18230      5365744C 
 18230      696D6974 
 18230      43686563 
 18231              	.LASF281:
 18232 0a82 456E6162 		.ascii	"EnableZeroValue\000"
 18232      6C655A65 
 18232      726F5661 
 18232      6C756500 
 18233              	.LASF120:
 18234 0a92 4C696E65 		.ascii	"LinearityCorrectiveGain\000"
 18234      61726974 
 18234      79436F72 
 18234      72656374 
 18234      69766547 
 18235              	.LASF221:
 18236 0aaa 564C3533 		.ascii	"VL53L0X_GetVcselPulsePeriod\000"
 18236      4C30585F 
 18236      47657456 
 18236      6373656C 
 18236      50756C73 
 18237              	.LASF355:
 18238 0ac6 7053746F 		.ascii	"pStopStatus\000"
 18238      70537461 
 18238      74757300 
 18239              	.LASF66:
 18240 0ad2 45666665 		.ascii	"EffectiveSpadRtnCount\000"
 18240      63746976 
 18240      65537061 
 18240      6452746E 
 18240      436F756E 
 18241              	.LASF276:
 18242 0ae8 704C696D 		.ascii	"pLimitCheckEnable\000"
 18242      69744368 
 18242      65636B45 
 18242      6E61626C 
 18242      6500
 18243              	.LASF283:
 18244 0afa 564C3533 		.ascii	"VL53L0X_GetLimitCheckCurrent\000"
 18244      4C30585F 
 18244      4765744C 
 18244      696D6974 
 18244      43686563 
 18245              	.LASF213:
 18246 0b17 564C3533 		.ascii	"VL53L0X_GetHistogramMode\000"
 18246      4C30585F 
 18246      47657448 
 18246      6973746F 
 18246      6772616D 
 18247              	.LASF108:
 18248 0b30 53706164 		.ascii	"SpadData\000"
 18248      44617461 
 18248      00
 18249              	.LASF46:
 18250 0b39 496E7465 		.ascii	"InterMeasurementPeriodMilliSeconds\000"
ARM GAS  C:\Users\ilya\AppData\Local\Temp\ccpEIuqL.s 			page 383


 18250      724D6561 
 18250      73757265 
 18250      6D656E74 
 18250      50657269 
 18251              	.LASF94:
 18252 0b5c 52656665 		.ascii	"ReferenceSpadCount\000"
 18252      72656E63 
 18252      65537061 
 18252      64436F75 
 18252      6E7400
 18253              	.LASF374:
 18254 0b6f 44656661 		.ascii	"DefaultTuningSettings\000"
 18254      756C7454 
 18254      756E696E 
 18254      67536574 
 18254      74696E67 
 18255              	.LASF144:
 18256 0b85 564C3533 		.ascii	"VL53L0X_GetProductRevision\000"
 18256      4C30585F 
 18256      47657450 
 18256      726F6475 
 18256      63745265 
 18257              	.LASF92:
 18258 0ba0 4D6F6475 		.ascii	"ModuleId\000"
 18258      6C654964 
 18258      00
 18259              	.LASF328:
 18260 0ba9 746D7075 		.ascii	"tmpuint16\000"
 18260      696E7431 
 18260      3600
 18261              	.LASF71:
 18262 0bb3 48697374 		.ascii	"HistogramData\000"
 18262      6F677261 
 18262      6D446174 
 18262      6100
 18263              	.LASF53:
 18264 0bc1 4C696D69 		.ascii	"LimitChecksValue\000"
 18264      74436865 
 18264      636B7356 
 18264      616C7565 
 18264      00
 18265              	.LASF327:
 18266 0bd2 5369676E 		.ascii	"SignalRate\000"
 18266      616C5261 
 18266      746500
 18267              	.LASF136:
 18268 0bdd 636F6D6D 		.ascii	"comms_speed_khz\000"
 18268      735F7370 
 18268      6565645F 
 18268      6B687A00 
 18269              	.LASF168:
 18270 0bed 42797465 		.ascii	"Byte\000"
 18270      00
 18271              	.LASF126:
 18272 0bf2 5463634F 		.ascii	"TccOn\000"
 18272      6E00
 18273              	.LASF303:
ARM GAS  C:\Users\ilya\AppData\Local\Temp\ccpEIuqL.s 			page 384


 18274 0bf8 5854616C 		.ascii	"XTalkCalDistance\000"
 18274      6B43616C 
 18274      44697374 
 18274      616E6365 
 18274      00
 18275              	.LASF309:
 18276 0c09 496E7465 		.ascii	"InterruptConfig\000"
 18276      72727570 
 18276      74436F6E 
 18276      66696700 
 18277              	.LASF26:
 18278 0c19 6D616A6F 		.ascii	"major\000"
 18278      7200
 18279              	.LASF302:
 18280 0c1f 564C3533 		.ascii	"VL53L0X_PerformXTalkCalibration\000"
 18280      4C30585F 
 18280      50657266 
 18280      6F726D58 
 18280      54616C6B 
 18281              	.LASF50:
 18282 0c3f 52616E67 		.ascii	"RangeOffsetMicroMeters\000"
 18282      654F6666 
 18282      7365744D 
 18282      6963726F 
 18282      4D657465 
 18283              	.LASF371:
 18284 0c56 70537061 		.ascii	"pSpadCount\000"
 18284      64436F75 
 18284      6E7400
 18285              	.LASF121:
 18286 0c61 446D6178 		.ascii	"DmaxCalRangeMilliMeter\000"
 18286      43616C52 
 18286      616E6765 
 18286      4D696C6C 
 18286      694D6574 
 18287              	.LASF184:
 18288 0c78 44657669 		.ascii	"DeviceAddress\000"
 18288      63654164 
 18288      64726573 
 18288      7300
 18289              	.LASF377:
 18290 0c86 4170695C 		.ascii	"Api\\core\\src\\vl53l0x_api.c\000"
 18290      636F7265 
 18290      5C737263 
 18290      5C766C35 
 18290      336C3078 
 18291              	.LASF89:
 18292 0ca1 5369676D 		.ascii	"SigmaEstEffPulseWidth\000"
 18292      61457374 
 18292      45666650 
 18292      756C7365 
 18292      57696474 
 18293              	.LASF372:
 18294 0cb7 70497341 		.ascii	"pIsApertureSpads\000"
 18294      70657274 
 18294      75726553 
 18294      70616473 
ARM GAS  C:\Users\ilya\AppData\Local\Temp\ccpEIuqL.s 			page 385


 18294      00
 18295              	.LASF293:
 18296 0cc8 70536967 		.ascii	"pSignalRateRtnMegaCps\000"
 18296      6E616C52 
 18296      61746552 
 18296      746E4D65 
 18296      67614370 
 18297              	.LASF113:
 18298 0cde 53746F70 		.ascii	"StopVariable\000"
 18298      56617269 
 18298      61626C65 
 18298      00
 18299              	.LASF145:
 18300 0ceb 7050726F 		.ascii	"pProductRevisionMajor\000"
 18300      64756374 
 18300      52657669 
 18300      73696F6E 
 18300      4D616A6F 
 18301              	.LASF101:
 18302 0d01 444D6178 		.ascii	"DMaxData\000"
 18302      44617461 
 18302      00
 18303              	.LASF61:
 18304 0d0a 4D656173 		.ascii	"MeasurementTimeUsec\000"
 18304      7572656D 
 18304      656E7454 
 18304      696D6555 
 18304      73656300 
 18305              	.LASF356:
 18306 0d1e 564C3533 		.ascii	"VL53L0X_ClearInterruptMask\000"
 18306      4C30585F 
 18306      436C6561 
 18306      72496E74 
 18306      65727275 
 18307              	.LASF37:
 18308 0d39 63686172 		.ascii	"char\000"
 18308      00
 18309              	.LASF313:
 18310 0d3e 53746172 		.ascii	"StartStopByte\000"
 18310      7453746F 
 18310      70427974 
 18310      6500
 18311              	.LASF323:
 18312 0d4c 7052616E 		.ascii	"pRangingMeasurementData\000"
 18312      67696E67 
 18312      4D656173 
 18312      7572656D 
 18312      656E7444 
 18313              	.LASF182:
 18314 0d64 4C617374 		.ascii	"LastRangeDataBuffer\000"
 18314      52616E67 
 18314      65446174 
 18314      61427566 
 18314      66657200 
 18315              	.LASF255:
 18316 0d78 564C3533 		.ascii	"VL53L0X_GetXTalkCompensationRateMegaCps\000"
 18316      4C30585F 
ARM GAS  C:\Users\ilya\AppData\Local\Temp\ccpEIuqL.s 			page 386


 18316      47657458 
 18316      54616C6B 
 18316      436F6D70 
 18317              	.LASF262:
 18318 0da0 70566876 		.ascii	"pVhvSettings\000"
 18318      53657474 
 18318      696E6773 
 18318      00
 18319              	.LASF202:
 18320 0dad 564C3533 		.ascii	"VL53L0X_SetDeviceParameters\000"
 18320      4C30585F 
 18320      53657444 
 18320      65766963 
 18320      65506172 
 18321              	.LASF91:
 18322 0dc9 52656164 		.ascii	"ReadDataFromDeviceDone\000"
 18322      44617461 
 18322      46726F6D 
 18322      44657669 
 18322      6365446F 
 18323              	.LASF45:
 18324 0de0 4D656173 		.ascii	"MeasurementTimingBudgetMicroSeconds\000"
 18324      7572656D 
 18324      656E7454 
 18324      696D696E 
 18324      67427564 
 18325              	.LASF220:
 18326 0e04 56435345 		.ascii	"VCSELPulsePeriodPCLK\000"
 18326      4C50756C 
 18326      73655065 
 18326      72696F64 
 18326      50434C4B 
 18327              	.LASF105:
 18328 0e19 4C617374 		.ascii	"LastRangeMeasure\000"
 18328      52616E67 
 18328      654D6561 
 18328      73757265 
 18328      00
 18329              	.LASF294:
 18330 0e2a 564C3533 		.ascii	"VL53L0X_PerformSingleMeasurement\000"
 18330      4C30585F 
 18330      50657266 
 18330      6F726D53 
 18330      696E676C 
 18331              	.LASF237:
 18332 0e4b 54696D65 		.ascii	"TimeOutMilliSecs\000"
 18332      4F75744D 
 18332      696C6C69 
 18332      53656373 
 18332      00
 18333              	.LASF25:
 18334 0e5c 72657669 		.ascii	"revision\000"
 18334      73696F6E 
 18334      00
 18335              	.LASF74:
 18336 0e65 42756666 		.ascii	"BufferSize\000"
 18336      65725369 
ARM GAS  C:\Users\ilya\AppData\Local\Temp\ccpEIuqL.s 			page 387


 18336      7A6500
 18337              	.LASF342:
 18338 0e70 564C3533 		.ascii	"VL53L0X_SetGpioConfig\000"
 18338      4C30585F 
 18338      53657447 
 18338      70696F43 
 18338      6F6E6669 
 18339              	.LASF196:
 18340 0e86 72656653 		.ascii	"refSpadCount\000"
 18340      70616443 
 18340      6F756E74 
 18340      00
 18341              	.LASF254:
 18342 0e93 64617461 		.ascii	"data\000"
 18342      00
 18343              	.LASF332:
 18344 0e98 704D6561 		.ascii	"pMeasurementRefSignal\000"
 18344      73757265 
 18344      6D656E74 
 18344      52656653 
 18344      69676E61 
 18345              	.LASF190:
 18346 0eae 70557365 		.ascii	"pUseInternalTuningSettings\000"
 18346      496E7465 
 18346      726E616C 
 18346      54756E69 
 18346      6E675365 
 18347              	.LASF80:
 18348 0ec9 564C3533 		.ascii	"VL53L0X_SpadData_t\000"
 18348      4C30585F 
 18348      53706164 
 18348      44617461 
 18348      5F7400
 18349              	.LASF187:
 18350 0edc 7054756E 		.ascii	"pTuningSettingBuffer\000"
 18350      696E6753 
 18350      65747469 
 18350      6E674275 
 18350      66666572 
 18351              	.LASF211:
 18352 0ef1 70456E61 		.ascii	"pEnabled\000"
 18352      626C6564 
 18352      00
 18353              	.LASF16:
 18354 0efa 75696E74 		.ascii	"uint8_t\000"
 18354      385F7400 
 18355              	.LASF173:
 18356 0f02 564C3533 		.ascii	"VL53L0X_SetLinearityCorrectiveGain\000"
 18356      4C30585F 
 18356      5365744C 
 18356      696E6561 
 18356      72697479 
 18357              	.LASF24:
 18358 0f25 564C3533 		.ascii	"VL53L0X_GpioFunctionality\000"
 18358      4C30585F 
 18358      4770696F 
 18358      46756E63 
ARM GAS  C:\Users\ilya\AppData\Local\Temp\ccpEIuqL.s 			page 388


 18358      74696F6E 
 18359              	.LASF268:
 18360 0f3f 704C696D 		.ascii	"pLimitCheckString\000"
 18360      69744368 
 18360      65636B53 
 18360      7472696E 
 18360      6700
 18361              	.LASF260:
 18362 0f51 50686173 		.ascii	"PhaseCal\000"
 18362      6543616C 
 18362      00
 18363              	.LASF31:
 18364 0f5a 54797065 		.ascii	"Type\000"
 18364      00
 18365              	.LASF230:
 18366 0f5f 564C3533 		.ascii	"VL53L0X_GetSequenceStepEnables\000"
 18366      4C30585F 
 18366      47657453 
 18366      65717565 
 18366      6E636553 
 18367              	.LASF314:
 18368 0f7e 4C6F6F70 		.ascii	"LoopNb\000"
 18368      4E6200
 18369              	.LASF212:
 18370 0f85 564C3533 		.ascii	"VL53L0X_SetHistogramMode\000"
 18370      4C30585F 
 18370      53657448 
 18370      6973746F 
 18370      6772616D 
 18371              	.LASF170:
 18372 0f9e 4F666673 		.ascii	"OffsetCalibrationDataMicroMeter\000"
 18372      65744361 
 18372      6C696272 
 18372      6174696F 
 18372      6E446174 
 18373              	.LASF178:
 18374 0fbe 564C3533 		.ascii	"VL53L0X_GetUpperLimitMilliMeter\000"
 18374      4C30585F 
 18374      47657455 
 18374      70706572 
 18374      4C696D69 
 18375              	.LASF41:
 18376 0fde 564C3533 		.ascii	"VL53L0X_HistogramModes\000"
 18376      4C30585F 
 18376      48697374 
 18376      6F677261 
 18376      6D4D6F64 
 18377              	.LASF270:
 18378 0ff5 704C696D 		.ascii	"pLimitCheckStatus\000"
 18378      69744368 
 18378      65636B53 
 18378      74617475 
 18378      7300
 18379              	.LASF161:
 18380 1007 50616C53 		.ascii	"PalStateCode\000"
 18380      74617465 
 18380      436F6465 
ARM GAS  C:\Users\ilya\AppData\Local\Temp\ccpEIuqL.s 			page 389


 18380      00
 18381              	.LASF69:
 18382 1014 52616E67 		.ascii	"RangeStatus\000"
 18382      65537461 
 18382      74757300 
 18383              	.LASF73:
 18384 1020 46697273 		.ascii	"FirstBin\000"
 18384      7442696E 
 18384      00
 18385              	.LASF12:
 18386 1029 6C6F6E67 		.ascii	"long long int\000"
 18386      206C6F6E 
 18386      6720696E 
 18386      7400
 18387              	.LASF129:
 18388 1037 50726552 		.ascii	"PreRangeOn\000"
 18388      616E6765 
 18388      4F6E00
 18389              	.LASF40:
 18390 1042 564C3533 		.ascii	"VL53L0X_DeviceModes\000"
 18390      4C30585F 
 18390      44657669 
 18390      63654D6F 
 18390      64657300 
 18391              	.LASF345:
 18392 1056 564C3533 		.ascii	"VL53L0X_GetGpioConfig\000"
 18392      4C30585F 
 18392      47657447 
 18392      70696F43 
 18392      6F6E6669 
 18393              	.LASF166:
 18394 106c 564C3533 		.ascii	"VL53L0X_GetPowerMode\000"
 18394      4C30585F 
 18394      47657450 
 18394      6F776572 
 18394      4D6F6465 
 18395              	.LASF242:
 18396 1081 7054696D 		.ascii	"pTimeOutMilliSecs\000"
 18396      654F7574 
 18396      4D696C6C 
 18396      69536563 
 18396      7300
 18397              	.LASF256:
 18398 1093 70585461 		.ascii	"pXTalkCompensationRateMegaCps\000"
 18398      6C6B436F 
 18398      6D70656E 
 18398      73617469 
 18398      6F6E5261 
 18399              	.LASF128:
 18400 10b1 4473734F 		.ascii	"DssOn\000"
 18400      6E00
 18401              	.LASF96:
 18402 10b7 52656653 		.ascii	"RefSpadsInitialised\000"
 18402      70616473 
 18402      496E6974 
 18402      69616C69 
 18402      73656400 
ARM GAS  C:\Users\ilya\AppData\Local\Temp\ccpEIuqL.s 			page 390


 18403              	.LASF130:
 18404 10cb 46696E61 		.ascii	"FinalRangeOn\000"
 18404      6C52616E 
 18404      67654F6E 
 18404      00
 18405              	.LASF331:
 18406 10d8 564C3533 		.ascii	"VL53L0X_GetMeasurementRefSignal\000"
 18406      4C30585F 
 18406      4765744D 
 18406      65617375 
 18406      72656D65 
 18407              	.LASF336:
 18408 10f8 564C3533 		.ascii	"VL53L0X_SetNumberOfROIZones\000"
 18408      4C30585F 
 18408      5365744E 
 18408      756D6265 
 18408      724F6652 
 18409              	.LASF330:
 18410 1114 6C6F6361 		.ascii	"localBuffer\000"
 18410      6C427566 
 18410      66657200 
 18411              	.LASF351:
 18412 1120 564C3533 		.ascii	"VL53L0X_GetInterruptThresholds\000"
 18412      4C30585F 
 18412      47657449 
 18412      6E746572 
 18412      72757074 
 18413              	.LASF4:
 18414 113f 5F5F696E 		.ascii	"__int16_t\000"
 18414      7431365F 
 18414      7400
 18415              	.LASF198:
 18416 1149 76637365 		.ascii	"vcselPulsePeriodPCLK\000"
 18416      6C50756C 
 18416      73655065 
 18416      72696F64 
 18416      50434C4B 
 18417              	.LASF241:
 18418 115e 564C3533 		.ascii	"VL53L0X_GetSequenceStepTimeout\000"
 18418      4C30585F 
 18418      47657453 
 18418      65717565 
 18418      6E636553 
 18419              	.LASF140:
 18420 117d 564C3533 		.ascii	"VL53L0X_GetPalSpecVersion\000"
 18420      4C30585F 
 18420      47657450 
 18420      616C5370 
 18420      65635665 
 18421              	.LASF375:
 18422 1197 496E7465 		.ascii	"InterruptThresholdSettings\000"
 18422      72727570 
 18422      74546872 
 18422      6573686F 
 18422      6C645365 
 18423              	.LASF148:
 18424 11b2 564C3533 		.ascii	"VL53L0X_GetDeviceInfo\000"
ARM GAS  C:\Users\ilya\AppData\Local\Temp\ccpEIuqL.s 			page 391


 18424      4C30585F 
 18424      47657444 
 18424      65766963 
 18424      65496E66 
 18425              	.LASF304:
 18426 11c8 564C3533 		.ascii	"VL53L0X_PerformOffsetCalibration\000"
 18426      4C30585F 
 18426      50657266 
 18426      6F726D4F 
 18426      66667365 
 18427              	.LASF257:
 18428 11e9 56616C75 		.ascii	"Value\000"
 18428      6500
 18429              	.LASF58:
 18430 11ef 52657453 		.ascii	"RetSignalAt0mm\000"
 18430      69676E61 
 18430      6C417430 
 18430      6D6D00
 18431              	.LASF27:
 18432 11fe 6D696E6F 		.ascii	"minor\000"
 18432      7200
 18433              	.LASF296:
 18434 1204 70486973 		.ascii	"pHistogramMeasurementData\000"
 18434      746F6772 
 18434      616D4D65 
 18434      61737572 
 18434      656D656E 
 18435              	.LASF291:
 18436 121e 564C3533 		.ascii	"VL53L0X_GetDmaxCalParameters\000"
 18436      4C30585F 
 18436      47657444 
 18436      6D617843 
 18436      616C5061 
 18437              	.LASF251:
 18438 123b 70585461 		.ascii	"pXTalkCompensationEnable\000"
 18438      6C6B436F 
 18438      6D70656E 
 18438      73617469 
 18438      6F6E456E 
 18439              	.LASF181:
 18440 1254 70546F74 		.ascii	"pTotalSignalRate\000"
 18440      616C5369 
 18440      676E616C 
 18440      52617465 
 18440      00
 18441              	.LASF153:
 18442 1265 4572726F 		.ascii	"ErrorCode\000"
 18442      72436F64 
 18442      6500
 18443              	.LASF361:
 18444 126f 564C3533 		.ascii	"VL53L0X_SetSpadAmbientDamperThreshold\000"
 18444      4C30585F 
 18444      53657453 
 18444      70616441 
 18444      6D626965 
 18445              	.LASF56:
 18446 1295 564C3533 		.ascii	"VL53L0X_State\000"
ARM GAS  C:\Users\ilya\AppData\Local\Temp\ccpEIuqL.s 			page 392


 18446      4C30585F 
 18446      53746174 
 18446      6500
 18447              	.LASF315:
 18448 12a3 564C3533 		.ascii	"VL53L0X_StopMeasurement\000"
 18448      4C30585F 
 18448      53746F70 
 18448      4D656173 
 18448      7572656D 
 18449              	.LASF146:
 18450 12bb 7050726F 		.ascii	"pProductRevisionMinor\000"
 18450      64756374 
 18450      52657669 
 18450      73696F6E 
 18450      4D696E6F 
 18451              	.LASF59:
 18452 12d1 564C3533 		.ascii	"VL53L0X_DMaxData_t\000"
 18452      4C30585F 
 18452      444D6178 
 18452      44617461 
 18452      5F7400
 18453              	.LASF0:
 18454 12e4 5F5F696E 		.ascii	"__int8_t\000"
 18454      74385F74 
 18454      00
 18455              	.LASF160:
 18456 12ed 564C3533 		.ascii	"VL53L0X_GetPalStateString\000"
 18456      4C30585F 
 18456      47657450 
 18456      616C5374 
 18456      61746553 
 18457              	.LASF131:
 18458 1307 564C3533 		.ascii	"VL53L0X_SchedulerSequenceSteps_t\000"
 18458      4C30585F 
 18458      53636865 
 18458      64756C65 
 18458      72536571 
 18459              	.LASF195:
 18460 1328 69734170 		.ascii	"isApertureSpads\000"
 18460      65727475 
 18460      72655370 
 18460      61647300 
 18461              	.LASF203:
 18462 1338 70446576 		.ascii	"pDeviceParameters\000"
 18462      69636550 
 18462      6172616D 
 18462      65746572 
 18462      7300
 18463              	.LASF142:
 18464 134a 7050616C 		.ascii	"pPalSpecVersion\000"
 18464      53706563 
 18464      56657273 
 18464      696F6E00 
 18465              	.LASF134:
 18466 135a 49326344 		.ascii	"I2cDevAddr\000"
 18466      65764164 
 18466      647200
ARM GAS  C:\Users\ilya\AppData\Local\Temp\ccpEIuqL.s 			page 393


 18467              	.LASF43:
 18468 1365 44657669 		.ascii	"DeviceMode\000"
 18468      63654D6F 
 18468      646500
 18469              	.LASF322:
 18470 1370 564C3533 		.ascii	"VL53L0X_GetRangingMeasurementData\000"
 18470      4C30585F 
 18470      47657452 
 18470      616E6769 
 18470      6E674D65 
 18471              	.LASF49:
 18472 1392 5854616C 		.ascii	"XTalkCompensationRateMegaCps\000"
 18472      6B436F6D 
 18472      70656E73 
 18472      6174696F 
 18472      6E526174 
 18473              	.LASF132:
 18474 13af 564C3533 		.ascii	"VL53L0X_SequenceStepId\000"
 18474      4C30585F 
 18474      53657175 
 18474      656E6365 
 18474      53746570 
 18475              	.LASF21:
 18476 13c6 6C6F6E67 		.ascii	"long double\000"
 18476      20646F75 
 18476      626C6500 
 18477              	.LASF18:
 18478 13d2 75696E74 		.ascii	"uint16_t\000"
 18478      31365F74 
 18478      00
 18479              	.LASF279:
 18480 13db 564C3533 		.ascii	"VL53L0X_GetLimitCheckValue\000"
 18480      4C30585F 
 18480      4765744C 
 18480      696D6974 
 18480      43686563 
 18481              	.LASF272:
 18482 13f6 4C696D69 		.ascii	"LimitCheckEnable\000"
 18482      74436865 
 18482      636B456E 
 18482      61626C65 
 18482      00
 18483              	.LASF70:
 18484 1407 564C3533 		.ascii	"VL53L0X_RangingMeasurementData_t\000"
 18484      4C30585F 
 18484      52616E67 
 18484      696E674D 
 18484      65617375 
 18485              	.LASF347:
 18486 1428 70506F6C 		.ascii	"pPolarity\000"
 18486      61726974 
 18486      7900
 18487              	.LASF158:
 18488 1432 50616C45 		.ascii	"PalErrorCode\000"
 18488      72726F72 
 18488      436F6465 
 18488      00
ARM GAS  C:\Users\ilya\AppData\Local\Temp\ccpEIuqL.s 			page 394


 18489              	.LASF236:
 18490 143f 564C3533 		.ascii	"VL53L0X_SetSequenceStepTimeout\000"
 18490      4C30585F 
 18490      53657453 
 18490      65717565 
 18490      6E636553 
 18491              	.LASF109:
 18492 145e 53657175 		.ascii	"SequenceConfig\000"
 18492      656E6365 
 18492      436F6E66 
 18492      696700
 18493              	.LASF231:
 18494 146d 70536368 		.ascii	"pSchedulerSequenceSteps\000"
 18494      6564756C 
 18494      65725365 
 18494      7175656E 
 18494      63655374 
 18495              	.LASF185:
 18496 1485 564C3533 		.ascii	"VL53L0X_DataInit\000"
 18496      4C30585F 
 18496      44617461 
 18496      496E6974 
 18496      00
 18497              	.LASF165:
 18498 1496 564C3533 		.ascii	"VL53L0X_SetPowerMode\000"
 18498      4C30585F 
 18498      53657450 
 18498      6F776572 
 18498      4D6F6465 
 18499              	.LASF265:
 18500 14ab 704E756D 		.ascii	"pNumberOfLimitCheck\000"
 18500      6265724F 
 18500      664C696D 
 18500      69744368 
 18500      65636B00 
 18501              	.LASF29:
 18502 14bf 564C3533 		.ascii	"VL53L0X_Version_t\000"
 18502      4C30585F 
 18502      56657273 
 18502      696F6E5F 
 18502      7400
 18503              	.LASF5:
 18504 14d1 73686F72 		.ascii	"short int\000"
 18504      7420696E 
 18504      7400
 18505              	.LASF288:
 18506 14db 70577261 		.ascii	"pWrapAroundCheckEnable\000"
 18506      7041726F 
 18506      756E6443 
 18506      6865636B 
 18506      456E6162 
 18507              	.LASF280:
 18508 14f2 704C696D 		.ascii	"pLimitCheckValue\000"
 18508      69744368 
 18508      65636B56 
 18508      616C7565 
 18508      00
ARM GAS  C:\Users\ilya\AppData\Local\Temp\ccpEIuqL.s 			page 395


 18509              	.LASF312:
 18510 1503 564C3533 		.ascii	"VL53L0X_StartMeasurement\000"
 18510      4C30585F 
 18510      53746172 
 18510      744D6561 
 18510      73757265 
 18511              	.LASF222:
 18512 151c 70564353 		.ascii	"pVCSELPulsePeriodPCLK\000"
 18512      454C5075 
 18512      6C736550 
 18512      6572696F 
 18512      6450434C 
 18513              	.LASF9:
 18514 1532 6C6F6E67 		.ascii	"long int\000"
 18514      20696E74 
 18514      00
 18515              	.LASF176:
 18516 153b 564C3533 		.ascii	"VL53L0X_SetGroupParamHold\000"
 18516      4C30585F 
 18516      53657447 
 18516      726F7570 
 18516      50617261 
 18517              	.LASF97:
 18518 1555 50617274 		.ascii	"PartUIDUpper\000"
 18518      55494455 
 18518      70706572 
 18518      00
 18519              	.LASF116:
 18520 1562 5369676E 		.ascii	"SignalEstimate\000"
 18520      616C4573 
 18520      74696D61 
 18520      746500
 18521              	.LASF243:
 18522 1571 564C3533 		.ascii	"VL53L0X_SetInterMeasurementPeriodMilliSeconds\000"
 18522      4C30585F 
 18522      53657449 
 18522      6E746572 
 18522      4D656173 
 18523              	.LASF174:
 18524 159f 564C3533 		.ascii	"VL53L0X_GetLinearityCorrectiveGain\000"
 18524      4C30585F 
 18524      4765744C 
 18524      696E6561 
 18524      72697479 
 18525              	.LASF183:
 18526 15c2 564C3533 		.ascii	"VL53L0X_SetDeviceAddress\000"
 18526      4C30585F 
 18526      53657444 
 18526      65766963 
 18526      65416464 
 18527              	.LASF239:
 18528 15db 54696D65 		.ascii	"TimeoutMicroSeconds\000"
 18528      6F75744D 
 18528      6963726F 
 18528      5365636F 
 18528      6E647300 
 18529              	.LASF339:
ARM GAS  C:\Users\ilya\AppData\Local\Temp\ccpEIuqL.s 			page 396


 18530 15ef 704E756D 		.ascii	"pNumberOfROIZones\000"
 18530      6265724F 
 18530      66524F49 
 18530      5A6F6E65 
 18530      7300
 18531              	.LASF341:
 18532 1601 704D6178 		.ascii	"pMaxNumberOfROIZones\000"
 18532      4E756D62 
 18532      65724F66 
 18532      524F495A 
 18532      6F6E6573 
 18533              	.LASF217:
 18534 1616 704D6561 		.ascii	"pMeasurementTimingBudgetMicroSeconds\000"
 18534      73757265 
 18534      6D656E74 
 18534      54696D69 
 18534      6E674275 
 18535              	.LASF352:
 18536 163b 70546872 		.ascii	"pThresholdLow\000"
 18536      6573686F 
 18536      6C644C6F 
 18536      7700
 18537              	.LASF169:
 18538 1649 564C3533 		.ascii	"VL53L0X_SetOffsetCalibrationDataMicroMeter\000"
 18538      4C30585F 
 18538      5365744F 
 18538      66667365 
 18538      7443616C 
 18539              	.LASF117:
 18540 1674 4C617374 		.ascii	"LastSignalRefMcps\000"
 18540      5369676E 
 18540      616C5265 
 18540      664D6370 
 18540      7300
 18541              	.LASF84:
 18542 1686 46696E61 		.ascii	"FinalRangeTimeoutMicroSecs\000"
 18542      6C52616E 
 18542      67655469 
 18542      6D656F75 
 18542      744D6963 
 18543              	.LASF124:
 18544 16a1 564C3533 		.ascii	"VL53L0X_InterruptPolarity\000"
 18544      4C30585F 
 18544      496E7465 
 18544      72727570 
 18544      74506F6C 
 18545              	.LASF67:
 18546 16bb 5A6F6E65 		.ascii	"ZoneId\000"
 18546      496400
 18547              	.LASF147:
 18548 16c2 72657669 		.ascii	"revision_id\000"
 18548      73696F6E 
 18548      5F696400 
 18549              	.LASF358:
 18550 16ce 564C3533 		.ascii	"VL53L0X_GetInterruptMaskStatus\000"
 18550      4C30585F 
 18550      47657449 
ARM GAS  C:\Users\ilya\AppData\Local\Temp\ccpEIuqL.s 			page 397


 18550      6E746572 
 18550      72757074 
 18551              	.LASF292:
 18552 16ed 7052616E 		.ascii	"pRangeMilliMeter\000"
 18552      67654D69 
 18552      6C6C694D 
 18552      65746572 
 18552      00
 18553              	.LASF1:
 18554 16fe 5F5F7569 		.ascii	"__uint8_t\000"
 18554      6E74385F 
 18554      7400
 18555              	.LASF259:
 18556 1708 56687653 		.ascii	"VhvSettings\000"
 18556      65747469 
 18556      6E677300 
 18557              	.LASF197:
 18558 1714 41706572 		.ascii	"ApertureSpads\000"
 18558      74757265 
 18558      53706164 
 18558      7300
 18559              	.LASF219:
 18560 1722 56637365 		.ascii	"VcselPeriodType\000"
 18560      6C506572 
 18560      696F6454 
 18560      79706500 
 18561              	.LASF79:
 18562 1732 52656647 		.ascii	"RefGoodSpadMap\000"
 18562      6F6F6453 
 18562      7061644D 
 18562      617000
 18563              	.LASF39:
 18564 1741 564C3533 		.ascii	"VL53L0X_Error\000"
 18564      4C30585F 
 18564      4572726F 
 18564      7200
 18565              	.LASF207:
 18566 174f 70446576 		.ascii	"pDeviceMode\000"
 18566      6963654D 
 18566      6F646500 
 18567              	.LASF335:
 18568 175b 564C3533 		.ascii	"VL53L0X_PerformSingleRangingMeasurement\000"
 18568      4C30585F 
 18568      50657266 
 18568      6F726D53 
 18568      696E676C 
 18569              	.LASF223:
 18570 1783 564C3533 		.ascii	"VL53L0X_SetSequenceStepEnable\000"
 18570      4C30585F 
 18570      53657453 
 18570      65717565 
 18570      6E636553 
 18571              	.LASF282:
 18572 17a1 54656D70 		.ascii	"Temp16\000"
 18572      313600
 18573              	.LASF135:
 18574 17a8 636F6D6D 		.ascii	"comms_type\000"
ARM GAS  C:\Users\ilya\AppData\Local\Temp\ccpEIuqL.s 			page 398


 18574      735F7479 
 18574      706500
 18575              	.LASF297:
 18576 17b3 564C3533 		.ascii	"VL53L0X_PerformRefCalibration\000"
 18576      4C30585F 
 18576      50657266 
 18576      6F726D52 
 18576      65664361 
 18577              	.LASF171:
 18578 17d1 564C3533 		.ascii	"VL53L0X_GetOffsetCalibrationDataMicroMeter\000"
 18578      4C30585F 
 18578      4765744F 
 18578      66667365 
 18578      7443616C 
 18579              	.LASF346:
 18580 17fc 7046756E 		.ascii	"pFunctionality\000"
 18580      6374696F 
 18580      6E616C69 
 18580      747900
 18581              	.LASF320:
 18582 180b 564C3533 		.ascii	"VL53L0X_WaitDeviceReadyForNewMeasurement\000"
 18582      4C30585F 
 18582      57616974 
 18582      44657669 
 18582      63655265 
 18583              	.LASF311:
 18584 1834 54687265 		.ascii	"ThresholdHigh\000"
 18584      73686F6C 
 18584      64486967 
 18584      6800
 18585              	.LASF36:
 18586 1842 73697A65 		.ascii	"sizetype\000"
 18586      74797065 
 18586      00
 18587              	.LASF104:
 18588 184b 43757272 		.ascii	"CurrentParameters\000"
 18588      656E7450 
 18588      6172616D 
 18588      65746572 
 18588      7300
 18589              	.LASF11:
 18590 185d 6C6F6E67 		.ascii	"long unsigned int\000"
 18590      20756E73 
 18590      69676E65 
 18590      6420696E 
 18590      7400
 18591              	.LASF362:
 18592 186f 53706164 		.ascii	"SpadAmbientDamperThreshold\000"
 18592      416D6269 
 18592      656E7444 
 18592      616D7065 
 18592      72546872 
 18593              	.LASF107:
 18594 188a 44657669 		.ascii	"DeviceSpecificParameters\000"
 18594      63655370 
 18594      65636966 
 18594      69635061 
ARM GAS  C:\Users\ilya\AppData\Local\Temp\ccpEIuqL.s 			page 399


 18594      72616D65 
 18595              	.LASF118:
 18596 18a3 7054756E 		.ascii	"pTuningSettingsPointer\000"
 18596      696E6753 
 18596      65747469 
 18596      6E677350 
 18596      6F696E74 
 18597              	.LASF266:
 18598 18ba 564C3533 		.ascii	"VL53L0X_GetLimitCheckInfo\000"
 18598      4C30585F 
 18598      4765744C 
 18598      696D6974 
 18598      43686563 
 18599              	.LASF19:
 18600 18d4 696E7433 		.ascii	"int32_t\000"
 18600      325F7400 
 18601              	.LASF233:
 18602 18dc 704E756D 		.ascii	"pNumberOfSequenceSteps\000"
 18602      6265724F 
 18602      66536571 
 18602      75656E63 
 18602      65537465 
 18603              	.LASF177:
 18604 18f3 47726F75 		.ascii	"GroupParamHold\000"
 18604      70506172 
 18604      616D486F 
 18604      6C6400
 18605              	.LASF258:
 18606 1902 564C3533 		.ascii	"VL53L0X_SetRefCalibration\000"
 18606      4C30585F 
 18606      53657452 
 18606      65664361 
 18606      6C696272 
 18607              	.LASF179:
 18608 191c 70557070 		.ascii	"pUpperLimitMilliMeter\000"
 18608      65724C69 
 18608      6D69744D 
 18608      696C6C69 
 18608      4D657465 
 18609              	.LASF353:
 18610 1932 70546872 		.ascii	"pThresholdHigh\000"
 18610      6573686F 
 18610      6C644869 
 18610      676800
 18611              	.LASF90:
 18612 1941 5369676D 		.ascii	"SigmaEstEffAmbWidth\000"
 18612      61457374 
 18612      45666641 
 18612      6D625769 
 18612      64746800 
 18613              	.LASF307:
 18614 1955 564C3533 		.ascii	"VL53L0X_CheckAndLoadInterruptSettings\000"
 18614      4C30585F 
 18614      43686563 
 18614      6B416E64 
 18614      4C6F6164 
 18615              	.LASF201:
ARM GAS  C:\Users\ilya\AppData\Local\Temp\ccpEIuqL.s 			page 400


 18616 197b 564C3533 		.ascii	"VL53L0X_ResetDevice\000"
 18616      4C30585F 
 18616      52657365 
 18616      74446576 
 18616      69636500 
 18617              	.LASF191:
 18618 198f 564C3533 		.ascii	"VL53L0X_StaticInit\000"
 18618      4C30585F 
 18618      53746174 
 18618      6963496E 
 18618      697400
 18619              	.LASF3:
 18620 19a2 756E7369 		.ascii	"unsigned char\000"
 18620      676E6564 
 18620      20636861 
 18620      7200
 18621              	.LASF75:
 18622 19b0 4E756D62 		.ascii	"NumberOfBins\000"
 18622      65724F66 
 18622      42696E73 
 18622      00
 18623              	.LASF86:
 18624 19bd 50726552 		.ascii	"PreRangeTimeoutMicroSecs\000"
 18624      616E6765 
 18624      54696D65 
 18624      6F75744D 
 18624      6963726F 
 18625              	.LASF10:
 18626 19d6 5F5F7569 		.ascii	"__uint32_t\000"
 18626      6E743332 
 18626      5F7400
 18627              	.LASF122:
 18628 19e1 446D6178 		.ascii	"DmaxCalSignalRateRtnMegaCps\000"
 18628      43616C53 
 18628      69676E61 
 18628      6C526174 
 18628      6552746E 
 18629              	.LASF154:
 18630 19fd 70446576 		.ascii	"pDeviceErrorString\000"
 18630      69636545 
 18630      72726F72 
 18630      53747269 
 18630      6E6700
 18631              	.LASF354:
 18632 1a10 564C3533 		.ascii	"VL53L0X_GetStopCompletedStatus\000"
 18632      4C30585F 
 18632      47657453 
 18632      746F7043 
 18632      6F6D706C 
 18633              	.LASF175:
 18634 1a2f 704C696E 		.ascii	"pLinearityCorrectiveGain\000"
 18634      65617269 
 18634      7479436F 
 18634      72726563 
 18634      74697665 
 18635              	.LASF85:
 18636 1a48 46696E61 		.ascii	"FinalRangeVcselPulsePeriod\000"
ARM GAS  C:\Users\ilya\AppData\Local\Temp\ccpEIuqL.s 			page 401


 18636      6C52616E 
 18636      67655663 
 18636      73656C50 
 18636      756C7365 
 18637              	.LASF139:
 18638 1a63 564C3533 		.ascii	"VL53L0X_GetVersion\000"
 18638      4C30585F 
 18638      47657456 
 18638      65727369 
 18638      6F6E00
 18639              	.LASF123:
 18640 1a76 564C3533 		.ascii	"VL53L0X_DevData_t\000"
 18640      4C30585F 
 18640      44657644 
 18640      6174615F 
 18640      7400
 18641              	.LASF325:
 18642 1a88 50616C52 		.ascii	"PalRangeStatus\000"
 18642      616E6765 
 18642      53746174 
 18642      757300
 18643              	.LASF141:
 18644 1a97 70566572 		.ascii	"pVersion\000"
 18644      73696F6E 
 18644      00
 18645              	.LASF261:
 18646 1aa0 564C3533 		.ascii	"VL53L0X_GetRefCalibration\000"
 18646      4C30585F 
 18646      47657452 
 18646      65664361 
 18646      6C696272 
 18647              	.LASF289:
 18648 1aba 564C3533 		.ascii	"VL53L0X_SetDmaxCalParameters\000"
 18648      4C30585F 
 18648      53657444 
 18648      6D617843 
 18648      616C5061 
 18649              	.LASF151:
 18650 1ad7 70446576 		.ascii	"pDeviceErrorStatus\000"
 18650      69636545 
 18650      72726F72 
 18650      53746174 
 18650      757300
 18651              	.LASF33:
 18652 1aea 50726F64 		.ascii	"ProductType\000"
 18652      75637454 
 18652      79706500 
 18653              	.LASF274:
 18654 1af6 4C696D69 		.ascii	"LimitCheckDisable\000"
 18654      74436865 
 18654      636B4469 
 18654      7361626C 
 18654      6500
 18655              	.LASF162:
 18656 1b08 7050616C 		.ascii	"pPalStateString\000"
 18656      53746174 
 18656      65537472 
ARM GAS  C:\Users\ilya\AppData\Local\Temp\ccpEIuqL.s 			page 402


 18656      696E6700 
 18657              	.LASF370:
 18658 1b18 564C3533 		.ascii	"VL53L0X_GetReferenceSpads\000"
 18658      4C30585F 
 18658      47657452 
 18658      65666572 
 18658      656E6365 
 18659              	.LASF227:
 18660 1b32 73657175 		.ascii	"sequence_step_enabled\000"
 18660      656E6365 
 18660      5F737465 
 18660      705F656E 
 18660      61626C65 
 18661              	.LASF285:
 18662 1b48 564C3533 		.ascii	"VL53L0X_SetWrapAroundCheckEnable\000"
 18662      4C30585F 
 18662      53657457 
 18662      72617041 
 18662      726F756E 
 18663              	.LASF83:
 18664 1b69 50696E30 		.ascii	"Pin0GpioFunctionality\000"
 18664      4770696F 
 18664      46756E63 
 18664      74696F6E 
 18664      616C6974 
 18665              	.LASF210:
 18666 1b7f 564C3533 		.ascii	"VL53L0X_GetFractionEnable\000"
 18666      4C30585F 
 18666      47657446 
 18666      72616374 
 18666      696F6E45 
 18667              	.LASF164:
 18668 1b99 7050616C 		.ascii	"pPalState\000"
 18668      53746174 
 18668      6500
 18669              	.LASF157:
 18670 1ba3 564C3533 		.ascii	"VL53L0X_GetPalErrorString\000"
 18670      4C30585F 
 18670      47657450 
 18670      616C4572 
 18670      726F7253 
 18671              	.LASF338:
 18672 1bbd 564C3533 		.ascii	"VL53L0X_GetNumberOfROIZones\000"
 18672      4C30585F 
 18672      4765744E 
 18672      756D6265 
 18672      724F6652 
 18673              	.LASF245:
 18674 1bd9 494D5065 		.ascii	"IMPeriodMilliSeconds\000"
 18674      72696F64 
 18674      4D696C6C 
 18674      69536563 
 18674      6F6E6473 
 18675              	.LASF125:
 18676 1bee 564C3533 		.ascii	"VL53L0X_VcselPeriod\000"
 18676      4C30585F 
 18676      56637365 
ARM GAS  C:\Users\ilya\AppData\Local\Temp\ccpEIuqL.s 			page 403


 18676      6C506572 
 18676      696F6400 
 18677              	.LASF209:
 18678 1c02 456E6162 		.ascii	"Enable\000"
 18678      6C6500
 18679              	.LASF2:
 18680 1c09 7369676E 		.ascii	"signed char\000"
 18680      65642063 
 18680      68617200 
 18681              	.LASF106:
 18682 1c15 4C617374 		.ascii	"LastHistogramMeasure\000"
 18682      48697374 
 18682      6F677261 
 18682      6D4D6561 
 18682      73757265 
 18683              	.LASF7:
 18684 1c2a 73686F72 		.ascii	"short unsigned int\000"
 18684      7420756E 
 18684      7369676E 
 18684      65642069 
 18684      6E7400
 18685              	.LASF337:
 18686 1c3d 4E756D62 		.ascii	"NumberOfROIZones\000"
 18686      65724F66 
 18686      524F495A 
 18686      6F6E6573 
 18686      00
 18687              	.LASF364:
 18688 1c4e 70537061 		.ascii	"pSpadAmbientDamperThreshold\000"
 18688      64416D62 
 18688      69656E74 
 18688      44616D70 
 18688      65725468 
 18689              	.LASF110:
 18690 1c6a 52616E67 		.ascii	"RangeFractionalEnable\000"
 18690      65467261 
 18690      6374696F 
 18690      6E616C45 
 18690      6E61626C 
 18691              	.LASF167:
 18692 1c80 70506F77 		.ascii	"pPowerMode\000"
 18692      65724D6F 
 18692      646500
 18693              	.LASF316:
 18694 1c8b 564C3533 		.ascii	"VL53L0X_GetMeasurementDataReady\000"
 18694      4C30585F 
 18694      4765744D 
 18694      65617375 
 18694      72656D65 
 18695              	.LASF62:
 18696 1cab 52616E67 		.ascii	"RangeMilliMeter\000"
 18696      654D696C 
 18696      6C694D65 
 18696      74657200 
 18697              	.LASF159:
 18698 1cbb 7050616C 		.ascii	"pPalErrorString\000"
 18698      4572726F 
ARM GAS  C:\Users\ilya\AppData\Local\Temp\ccpEIuqL.s 			page 404


 18698      72537472 
 18698      696E6700 
 18699              	.LASF249:
 18700 1ccb 54656D70 		.ascii	"TempFix1616\000"
 18700      46697831 
 18700      36313600 
 18701              	.LASF115:
 18702 1cd7 5369676D 		.ascii	"SigmaEstimate\000"
 18702      61457374 
 18702      696D6174 
 18702      6500
 18703              	.LASF228:
 18704 1ce5 70536571 		.ascii	"pSequenceStepEnabled\000"
 18704      75656E63 
 18704      65537465 
 18704      70456E61 
 18704      626C6564 
 18705              	.LASF88:
 18706 1cfa 5369676D 		.ascii	"SigmaEstRefArray\000"
 18706      61457374 
 18706      52656641 
 18706      72726179 
 18706      00
 18707              	.LASF127:
 18708 1d0b 4D737263 		.ascii	"MsrcOn\000"
 18708      4F6E00
 18709              	.LASF68:
 18710 1d12 52616E67 		.ascii	"RangeFractionalPart\000"
 18710      65467261 
 18710      6374696F 
 18710      6E616C50 
 18710      61727400 
 18711              	.LASF205:
 18712 1d26 564C3533 		.ascii	"VL53L0X_SetDeviceMode\000"
 18712      4C30585F 
 18712      53657444 
 18712      65766963 
 18712      654D6F64 
 18713              	.LASF275:
 18714 1d3c 564C3533 		.ascii	"VL53L0X_GetLimitCheckEnable\000"
 18714      4C30585F 
 18714      4765744C 
 18714      696D6974 
 18714      43686563 
 18715              	.LASF349:
 18716 1d58 564C3533 		.ascii	"VL53L0X_SetInterruptThresholds\000"
 18716      4C30585F 
 18716      53657449 
 18716      6E746572 
 18716      72757074 
 18717              	.LASF82:
 18718 1d77 4C617374 		.ascii	"LastEncodedTimeout\000"
 18718      456E636F 
 18718      64656454 
 18718      696D656F 
 18718      757400
 18719              	.LASF155:
ARM GAS  C:\Users\ilya\AppData\Local\Temp\ccpEIuqL.s 			page 405


 18720 1d8a 564C3533 		.ascii	"VL53L0X_GetRangeStatusString\000"
 18720      4C30585F 
 18720      47657452 
 18720      616E6765 
 18720      53746174 
 18721              	.LASF189:
 18722 1da7 70705475 		.ascii	"ppTuningSettingBuffer\000"
 18722      6E696E67 
 18722      53657474 
 18722      696E6742 
 18722      75666665 
 18723              	.LASF273:
 18724 1dbd 4C696D69 		.ascii	"LimitCheckEnableInt\000"
 18724      74436865 
 18724      636B456E 
 18724      61626C65 
 18724      496E7400 
 18725              	.LASF253:
 18726 1dd1 564C3533 		.ascii	"VL53L0X_SetXTalkCompensationRateMegaCps\000"
 18726      4C30585F 
 18726      53657458 
 18726      54616C6B 
 18726      436F6D70 
 18727              	.LASF111:
 18728 1df9 50616C53 		.ascii	"PalState\000"
 18728      74617465 
 18728      00
 18729              	.LASF60:
 18730 1e02 54696D65 		.ascii	"TimeStamp\000"
 18730      5374616D 
 18730      7000
 18731              	.LASF218:
 18732 1e0c 564C3533 		.ascii	"VL53L0X_SetVcselPulsePeriod\000"
 18732      4C30585F 
 18732      53657456 
 18732      6373656C 
 18732      50756C73 
 18733              	.LASF77:
 18734 1e28 564C3533 		.ascii	"VL53L0X_HistogramMeasurementData_t\000"
 18734      4C30585F 
 18734      48697374 
 18734      6F677261 
 18734      6D4D6561 
 18735              	.LASF133:
 18736 1e4b 44617461 		.ascii	"Data\000"
 18736      00
 18737              	.LASF321:
 18738 1e50 4D61784C 		.ascii	"MaxLoop\000"
 18738      6F6F7000 
 18739              	.LASF350:
 18740 1e58 54687265 		.ascii	"Threshold16\000"
 18740      73686F6C 
 18740      64313600 
 18741              	.LASF343:
 18742 1e64 46756E63 		.ascii	"Functionality\000"
 18742      74696F6E 
 18742      616C6974 
ARM GAS  C:\Users\ilya\AppData\Local\Temp\ccpEIuqL.s 			page 406


 18742      7900
 18743              	.LASF348:
 18744 1e72 4770696F 		.ascii	"GpioFunctionality\000"
 18744      46756E63 
 18744      74696F6E 
 18744      616C6974 
 18744      7900
 18745              	.LASF99:
 18746 1e84 5369676E 		.ascii	"SignalRateMeasFixed400mm\000"
 18746      616C5261 
 18746      74654D65 
 18746      61734669 
 18746      78656434 
 18747              	.LASF246:
 18748 1e9d 564C3533 		.ascii	"VL53L0X_GetInterMeasurementPeriodMilliSeconds\000"
 18748      4C30585F 
 18748      47657449 
 18748      6E746572 
 18748      4D656173 
 18749              	.LASF308:
 18750 1ecb 53746172 		.ascii	"StartNotStopFlag\000"
 18750      744E6F74 
 18750      53746F70 
 18750      466C6167 
 18750      00
 18751              		.ident	"GCC: (GNU Tools for ARM Embedded Processors) 5.4.1 20160609 (release) [ARM/embedded-5-bran
