ARM GAS  C:\Users\ilya\AppData\Local\Temp\cclmVfrQ.s 			page 1


   1              		.cpu cortex-m0
   2              		.fpu softvfp
   3              		.eabi_attribute 20, 1
   4              		.eabi_attribute 21, 1
   5              		.eabi_attribute 23, 3
   6              		.eabi_attribute 24, 1
   7              		.eabi_attribute 25, 1
   8              		.eabi_attribute 26, 1
   9              		.eabi_attribute 30, 1
  10              		.eabi_attribute 34, 0
  11              		.eabi_attribute 18, 4
  12              		.code	16
  13              		.file	"I2C_LED.c"
  14              		.text
  15              	.Ltext0:
  16              		.cfi_sections	.debug_frame
  17              		.section	.text.I2C_LED_ScbEnableIntr,"ax",%progbits
  18              		.align	2
  19              		.code	16
  20              		.thumb_func
  21              		.type	I2C_LED_ScbEnableIntr, %function
  22              	I2C_LED_ScbEnableIntr:
  23              	.LFB7:
  24              		.file 1 "Generated_Source\\PSoC4\\I2C_LED.c"
   1:Generated_Source\PSoC4/I2C_LED.c **** /***************************************************************************//**
   2:Generated_Source\PSoC4/I2C_LED.c **** * \file I2C_LED.c
   3:Generated_Source\PSoC4/I2C_LED.c **** * \version 3.20
   4:Generated_Source\PSoC4/I2C_LED.c **** *
   5:Generated_Source\PSoC4/I2C_LED.c **** * \brief
   6:Generated_Source\PSoC4/I2C_LED.c **** *  This file provides the source code to the API for the SCB Component.
   7:Generated_Source\PSoC4/I2C_LED.c **** *
   8:Generated_Source\PSoC4/I2C_LED.c **** * Note:
   9:Generated_Source\PSoC4/I2C_LED.c **** *
  10:Generated_Source\PSoC4/I2C_LED.c **** *******************************************************************************
  11:Generated_Source\PSoC4/I2C_LED.c **** * \copyright
  12:Generated_Source\PSoC4/I2C_LED.c **** * Copyright 2013-2016, Cypress Semiconductor Corporation.  All rights reserved.
  13:Generated_Source\PSoC4/I2C_LED.c **** * You may use this file only in accordance with the license, terms, conditions,
  14:Generated_Source\PSoC4/I2C_LED.c **** * disclaimers, and limitations in the end user license agreement accompanying
  15:Generated_Source\PSoC4/I2C_LED.c **** * the software package with which this file was provided.
  16:Generated_Source\PSoC4/I2C_LED.c **** *******************************************************************************/
  17:Generated_Source\PSoC4/I2C_LED.c **** 
  18:Generated_Source\PSoC4/I2C_LED.c **** #include "I2C_LED_PVT.h"
  19:Generated_Source\PSoC4/I2C_LED.c **** 
  20:Generated_Source\PSoC4/I2C_LED.c **** #if (I2C_LED_SCB_MODE_I2C_INC)
  21:Generated_Source\PSoC4/I2C_LED.c ****     #include "I2C_LED_I2C_PVT.h"
  22:Generated_Source\PSoC4/I2C_LED.c **** #endif /* (I2C_LED_SCB_MODE_I2C_INC) */
  23:Generated_Source\PSoC4/I2C_LED.c **** 
  24:Generated_Source\PSoC4/I2C_LED.c **** #if (I2C_LED_SCB_MODE_EZI2C_INC)
  25:Generated_Source\PSoC4/I2C_LED.c ****     #include "I2C_LED_EZI2C_PVT.h"
  26:Generated_Source\PSoC4/I2C_LED.c **** #endif /* (I2C_LED_SCB_MODE_EZI2C_INC) */
  27:Generated_Source\PSoC4/I2C_LED.c **** 
  28:Generated_Source\PSoC4/I2C_LED.c **** #if (I2C_LED_SCB_MODE_SPI_INC || I2C_LED_SCB_MODE_UART_INC)
  29:Generated_Source\PSoC4/I2C_LED.c ****     #include "I2C_LED_SPI_UART_PVT.h"
  30:Generated_Source\PSoC4/I2C_LED.c **** #endif /* (I2C_LED_SCB_MODE_SPI_INC || I2C_LED_SCB_MODE_UART_INC) */
  31:Generated_Source\PSoC4/I2C_LED.c **** 
  32:Generated_Source\PSoC4/I2C_LED.c **** 
  33:Generated_Source\PSoC4/I2C_LED.c **** /***************************************
ARM GAS  C:\Users\ilya\AppData\Local\Temp\cclmVfrQ.s 			page 2


  34:Generated_Source\PSoC4/I2C_LED.c **** *    Run Time Configuration Vars
  35:Generated_Source\PSoC4/I2C_LED.c **** ***************************************/
  36:Generated_Source\PSoC4/I2C_LED.c **** 
  37:Generated_Source\PSoC4/I2C_LED.c **** /* Stores internal component configuration for Unconfigured mode */
  38:Generated_Source\PSoC4/I2C_LED.c **** #if (I2C_LED_SCB_MODE_UNCONFIG_CONST_CFG)
  39:Generated_Source\PSoC4/I2C_LED.c ****     /* Common configuration variables */
  40:Generated_Source\PSoC4/I2C_LED.c ****     uint8 I2C_LED_scbMode = I2C_LED_SCB_MODE_UNCONFIG;
  41:Generated_Source\PSoC4/I2C_LED.c ****     uint8 I2C_LED_scbEnableWake;
  42:Generated_Source\PSoC4/I2C_LED.c ****     uint8 I2C_LED_scbEnableIntr;
  43:Generated_Source\PSoC4/I2C_LED.c **** 
  44:Generated_Source\PSoC4/I2C_LED.c ****     /* I2C configuration variables */
  45:Generated_Source\PSoC4/I2C_LED.c ****     uint8 I2C_LED_mode;
  46:Generated_Source\PSoC4/I2C_LED.c ****     uint8 I2C_LED_acceptAddr;
  47:Generated_Source\PSoC4/I2C_LED.c **** 
  48:Generated_Source\PSoC4/I2C_LED.c ****     /* SPI/UART configuration variables */
  49:Generated_Source\PSoC4/I2C_LED.c ****     volatile uint8 * I2C_LED_rxBuffer;
  50:Generated_Source\PSoC4/I2C_LED.c ****     uint8  I2C_LED_rxDataBits;
  51:Generated_Source\PSoC4/I2C_LED.c ****     uint32 I2C_LED_rxBufferSize;
  52:Generated_Source\PSoC4/I2C_LED.c **** 
  53:Generated_Source\PSoC4/I2C_LED.c ****     volatile uint8 * I2C_LED_txBuffer;
  54:Generated_Source\PSoC4/I2C_LED.c ****     uint8  I2C_LED_txDataBits;
  55:Generated_Source\PSoC4/I2C_LED.c ****     uint32 I2C_LED_txBufferSize;
  56:Generated_Source\PSoC4/I2C_LED.c **** 
  57:Generated_Source\PSoC4/I2C_LED.c ****     /* EZI2C configuration variables */
  58:Generated_Source\PSoC4/I2C_LED.c ****     uint8 I2C_LED_numberOfAddr;
  59:Generated_Source\PSoC4/I2C_LED.c ****     uint8 I2C_LED_subAddrSize;
  60:Generated_Source\PSoC4/I2C_LED.c **** #endif /* (I2C_LED_SCB_MODE_UNCONFIG_CONST_CFG) */
  61:Generated_Source\PSoC4/I2C_LED.c **** 
  62:Generated_Source\PSoC4/I2C_LED.c **** 
  63:Generated_Source\PSoC4/I2C_LED.c **** /***************************************
  64:Generated_Source\PSoC4/I2C_LED.c **** *     Common SCB Vars
  65:Generated_Source\PSoC4/I2C_LED.c **** ***************************************/
  66:Generated_Source\PSoC4/I2C_LED.c **** /**
  67:Generated_Source\PSoC4/I2C_LED.c **** * \addtogroup group_general
  68:Generated_Source\PSoC4/I2C_LED.c **** * \{
  69:Generated_Source\PSoC4/I2C_LED.c **** */
  70:Generated_Source\PSoC4/I2C_LED.c **** 
  71:Generated_Source\PSoC4/I2C_LED.c **** /** I2C_LED_initVar indicates whether the I2C_LED 
  72:Generated_Source\PSoC4/I2C_LED.c **** *  component has been initialized. The variable is initialized to 0 
  73:Generated_Source\PSoC4/I2C_LED.c **** *  and set to 1 the first time SCB_Start() is called. This allows 
  74:Generated_Source\PSoC4/I2C_LED.c **** *  the component to restart without reinitialization after the first 
  75:Generated_Source\PSoC4/I2C_LED.c **** *  call to the I2C_LED_Start() routine.
  76:Generated_Source\PSoC4/I2C_LED.c **** *
  77:Generated_Source\PSoC4/I2C_LED.c **** *  If re-initialization of the component is required, then the 
  78:Generated_Source\PSoC4/I2C_LED.c **** *  I2C_LED_Init() function can be called before the 
  79:Generated_Source\PSoC4/I2C_LED.c **** *  I2C_LED_Start() or I2C_LED_Enable() function.
  80:Generated_Source\PSoC4/I2C_LED.c **** */
  81:Generated_Source\PSoC4/I2C_LED.c **** uint8 I2C_LED_initVar = 0u;
  82:Generated_Source\PSoC4/I2C_LED.c **** 
  83:Generated_Source\PSoC4/I2C_LED.c **** 
  84:Generated_Source\PSoC4/I2C_LED.c **** #if (! (I2C_LED_SCB_MODE_I2C_CONST_CFG || \
  85:Generated_Source\PSoC4/I2C_LED.c ****         I2C_LED_SCB_MODE_EZI2C_CONST_CFG))
  86:Generated_Source\PSoC4/I2C_LED.c ****     /** This global variable stores TX interrupt sources after 
  87:Generated_Source\PSoC4/I2C_LED.c ****     * I2C_LED_Stop() is called. Only these TX interrupt sources 
  88:Generated_Source\PSoC4/I2C_LED.c ****     * will be restored on a subsequent I2C_LED_Enable() call.
  89:Generated_Source\PSoC4/I2C_LED.c ****     */
  90:Generated_Source\PSoC4/I2C_LED.c ****     uint16 I2C_LED_IntrTxMask = 0u;
ARM GAS  C:\Users\ilya\AppData\Local\Temp\cclmVfrQ.s 			page 3


  91:Generated_Source\PSoC4/I2C_LED.c **** #endif /* (! (I2C_LED_SCB_MODE_I2C_CONST_CFG || \
  92:Generated_Source\PSoC4/I2C_LED.c ****               I2C_LED_SCB_MODE_EZI2C_CONST_CFG)) */
  93:Generated_Source\PSoC4/I2C_LED.c **** /** \} globals */
  94:Generated_Source\PSoC4/I2C_LED.c **** 
  95:Generated_Source\PSoC4/I2C_LED.c **** #if (I2C_LED_SCB_IRQ_INTERNAL)
  96:Generated_Source\PSoC4/I2C_LED.c **** #if !defined (CY_REMOVE_I2C_LED_CUSTOM_INTR_HANDLER)
  97:Generated_Source\PSoC4/I2C_LED.c ****     void (*I2C_LED_customIntrHandler)(void) = NULL;
  98:Generated_Source\PSoC4/I2C_LED.c **** #endif /* !defined (CY_REMOVE_I2C_LED_CUSTOM_INTR_HANDLER) */
  99:Generated_Source\PSoC4/I2C_LED.c **** #endif /* (I2C_LED_SCB_IRQ_INTERNAL) */
 100:Generated_Source\PSoC4/I2C_LED.c **** 
 101:Generated_Source\PSoC4/I2C_LED.c **** 
 102:Generated_Source\PSoC4/I2C_LED.c **** /***************************************
 103:Generated_Source\PSoC4/I2C_LED.c **** *    Private Function Prototypes
 104:Generated_Source\PSoC4/I2C_LED.c **** ***************************************/
 105:Generated_Source\PSoC4/I2C_LED.c **** 
 106:Generated_Source\PSoC4/I2C_LED.c **** static void I2C_LED_ScbEnableIntr(void);
 107:Generated_Source\PSoC4/I2C_LED.c **** static void I2C_LED_ScbModeStop(void);
 108:Generated_Source\PSoC4/I2C_LED.c **** static void I2C_LED_ScbModePostEnable(void);
 109:Generated_Source\PSoC4/I2C_LED.c **** 
 110:Generated_Source\PSoC4/I2C_LED.c **** 
 111:Generated_Source\PSoC4/I2C_LED.c **** /*******************************************************************************
 112:Generated_Source\PSoC4/I2C_LED.c **** * Function Name: I2C_LED_Init
 113:Generated_Source\PSoC4/I2C_LED.c **** ****************************************************************************//**
 114:Generated_Source\PSoC4/I2C_LED.c **** *
 115:Generated_Source\PSoC4/I2C_LED.c **** *  Initializes the I2C_LED component to operate in one of the selected
 116:Generated_Source\PSoC4/I2C_LED.c **** *  configurations: I2C, SPI, UART or EZI2C.
 117:Generated_Source\PSoC4/I2C_LED.c **** *  When the configuration is set to "Unconfigured SCB", this function does
 118:Generated_Source\PSoC4/I2C_LED.c **** *  not do any initialization. Use mode-specific initialization APIs instead:
 119:Generated_Source\PSoC4/I2C_LED.c **** *  I2C_LED_I2CInit, I2C_LED_SpiInit, 
 120:Generated_Source\PSoC4/I2C_LED.c **** *  I2C_LED_UartInit or I2C_LED_EzI2CInit.
 121:Generated_Source\PSoC4/I2C_LED.c **** *
 122:Generated_Source\PSoC4/I2C_LED.c **** *******************************************************************************/
 123:Generated_Source\PSoC4/I2C_LED.c **** void I2C_LED_Init(void)
 124:Generated_Source\PSoC4/I2C_LED.c **** {
 125:Generated_Source\PSoC4/I2C_LED.c **** #if (I2C_LED_SCB_MODE_UNCONFIG_CONST_CFG)
 126:Generated_Source\PSoC4/I2C_LED.c ****     if (I2C_LED_SCB_MODE_UNCONFIG_RUNTM_CFG)
 127:Generated_Source\PSoC4/I2C_LED.c ****     {
 128:Generated_Source\PSoC4/I2C_LED.c ****         I2C_LED_initVar = 0u;
 129:Generated_Source\PSoC4/I2C_LED.c ****     }
 130:Generated_Source\PSoC4/I2C_LED.c ****     else
 131:Generated_Source\PSoC4/I2C_LED.c ****     {
 132:Generated_Source\PSoC4/I2C_LED.c ****         /* Initialization was done before this function call */
 133:Generated_Source\PSoC4/I2C_LED.c ****     }
 134:Generated_Source\PSoC4/I2C_LED.c **** 
 135:Generated_Source\PSoC4/I2C_LED.c **** #elif (I2C_LED_SCB_MODE_I2C_CONST_CFG)
 136:Generated_Source\PSoC4/I2C_LED.c ****     I2C_LED_I2CInit();
 137:Generated_Source\PSoC4/I2C_LED.c **** 
 138:Generated_Source\PSoC4/I2C_LED.c **** #elif (I2C_LED_SCB_MODE_SPI_CONST_CFG)
 139:Generated_Source\PSoC4/I2C_LED.c ****     I2C_LED_SpiInit();
 140:Generated_Source\PSoC4/I2C_LED.c **** 
 141:Generated_Source\PSoC4/I2C_LED.c **** #elif (I2C_LED_SCB_MODE_UART_CONST_CFG)
 142:Generated_Source\PSoC4/I2C_LED.c ****     I2C_LED_UartInit();
 143:Generated_Source\PSoC4/I2C_LED.c **** 
 144:Generated_Source\PSoC4/I2C_LED.c **** #elif (I2C_LED_SCB_MODE_EZI2C_CONST_CFG)
 145:Generated_Source\PSoC4/I2C_LED.c ****     I2C_LED_EzI2CInit();
 146:Generated_Source\PSoC4/I2C_LED.c **** 
 147:Generated_Source\PSoC4/I2C_LED.c **** #endif /* (I2C_LED_SCB_MODE_UNCONFIG_CONST_CFG) */
ARM GAS  C:\Users\ilya\AppData\Local\Temp\cclmVfrQ.s 			page 4


 148:Generated_Source\PSoC4/I2C_LED.c **** }
 149:Generated_Source\PSoC4/I2C_LED.c **** 
 150:Generated_Source\PSoC4/I2C_LED.c **** 
 151:Generated_Source\PSoC4/I2C_LED.c **** /*******************************************************************************
 152:Generated_Source\PSoC4/I2C_LED.c **** * Function Name: I2C_LED_Enable
 153:Generated_Source\PSoC4/I2C_LED.c **** ****************************************************************************//**
 154:Generated_Source\PSoC4/I2C_LED.c **** *
 155:Generated_Source\PSoC4/I2C_LED.c **** *  Enables I2C_LED component operation: activates the hardware and 
 156:Generated_Source\PSoC4/I2C_LED.c **** *  internal interrupt. It also restores TX interrupt sources disabled after the 
 157:Generated_Source\PSoC4/I2C_LED.c **** *  I2C_LED_Stop() function was called (note that level-triggered TX 
 158:Generated_Source\PSoC4/I2C_LED.c **** *  interrupt sources remain disabled to not cause code lock-up).
 159:Generated_Source\PSoC4/I2C_LED.c **** *  For I2C and EZI2C modes the interrupt is internal and mandatory for 
 160:Generated_Source\PSoC4/I2C_LED.c **** *  operation. For SPI and UART modes the interrupt can be configured as none, 
 161:Generated_Source\PSoC4/I2C_LED.c **** *  internal or external.
 162:Generated_Source\PSoC4/I2C_LED.c **** *  The I2C_LED configuration should be not changed when the component
 163:Generated_Source\PSoC4/I2C_LED.c **** *  is enabled. Any configuration changes should be made after disabling the 
 164:Generated_Source\PSoC4/I2C_LED.c **** *  component.
 165:Generated_Source\PSoC4/I2C_LED.c **** *  When configuration is set to “Unconfigured I2C_LED”, the component 
 166:Generated_Source\PSoC4/I2C_LED.c **** *  must first be initialized to operate in one of the following configurations: 
 167:Generated_Source\PSoC4/I2C_LED.c **** *  I2C, SPI, UART or EZ I2C, using the mode-specific initialization API. 
 168:Generated_Source\PSoC4/I2C_LED.c **** *  Otherwise this function does not enable the component.
 169:Generated_Source\PSoC4/I2C_LED.c **** *
 170:Generated_Source\PSoC4/I2C_LED.c **** *******************************************************************************/
 171:Generated_Source\PSoC4/I2C_LED.c **** void I2C_LED_Enable(void)
 172:Generated_Source\PSoC4/I2C_LED.c **** {
 173:Generated_Source\PSoC4/I2C_LED.c **** #if (I2C_LED_SCB_MODE_UNCONFIG_CONST_CFG)
 174:Generated_Source\PSoC4/I2C_LED.c ****     /* Enable SCB block, only if it is already configured */
 175:Generated_Source\PSoC4/I2C_LED.c ****     if (!I2C_LED_SCB_MODE_UNCONFIG_RUNTM_CFG)
 176:Generated_Source\PSoC4/I2C_LED.c ****     {
 177:Generated_Source\PSoC4/I2C_LED.c ****         I2C_LED_CTRL_REG |= I2C_LED_CTRL_ENABLED;
 178:Generated_Source\PSoC4/I2C_LED.c **** 
 179:Generated_Source\PSoC4/I2C_LED.c ****         I2C_LED_ScbEnableIntr();
 180:Generated_Source\PSoC4/I2C_LED.c **** 
 181:Generated_Source\PSoC4/I2C_LED.c ****         /* Call PostEnable function specific to current operation mode */
 182:Generated_Source\PSoC4/I2C_LED.c ****         I2C_LED_ScbModePostEnable();
 183:Generated_Source\PSoC4/I2C_LED.c ****     }
 184:Generated_Source\PSoC4/I2C_LED.c **** #else
 185:Generated_Source\PSoC4/I2C_LED.c ****     I2C_LED_CTRL_REG |= I2C_LED_CTRL_ENABLED;
 186:Generated_Source\PSoC4/I2C_LED.c **** 
 187:Generated_Source\PSoC4/I2C_LED.c ****     I2C_LED_ScbEnableIntr();
 188:Generated_Source\PSoC4/I2C_LED.c **** 
 189:Generated_Source\PSoC4/I2C_LED.c ****     /* Call PostEnable function specific to current operation mode */
 190:Generated_Source\PSoC4/I2C_LED.c ****     I2C_LED_ScbModePostEnable();
 191:Generated_Source\PSoC4/I2C_LED.c **** #endif /* (I2C_LED_SCB_MODE_UNCONFIG_CONST_CFG) */
 192:Generated_Source\PSoC4/I2C_LED.c **** }
 193:Generated_Source\PSoC4/I2C_LED.c **** 
 194:Generated_Source\PSoC4/I2C_LED.c **** 
 195:Generated_Source\PSoC4/I2C_LED.c **** /*******************************************************************************
 196:Generated_Source\PSoC4/I2C_LED.c **** * Function Name: I2C_LED_Start
 197:Generated_Source\PSoC4/I2C_LED.c **** ****************************************************************************//**
 198:Generated_Source\PSoC4/I2C_LED.c **** *
 199:Generated_Source\PSoC4/I2C_LED.c **** *  Invokes I2C_LED_Init() and I2C_LED_Enable().
 200:Generated_Source\PSoC4/I2C_LED.c **** *  After this function call, the component is enabled and ready for operation.
 201:Generated_Source\PSoC4/I2C_LED.c **** *  When configuration is set to "Unconfigured SCB", the component must first be
 202:Generated_Source\PSoC4/I2C_LED.c **** *  initialized to operate in one of the following configurations: I2C, SPI, UART
 203:Generated_Source\PSoC4/I2C_LED.c **** *  or EZI2C. Otherwise this function does not enable the component.
 204:Generated_Source\PSoC4/I2C_LED.c **** *
ARM GAS  C:\Users\ilya\AppData\Local\Temp\cclmVfrQ.s 			page 5


 205:Generated_Source\PSoC4/I2C_LED.c **** * \globalvars
 206:Generated_Source\PSoC4/I2C_LED.c **** *  I2C_LED_initVar - used to check initial configuration, modified
 207:Generated_Source\PSoC4/I2C_LED.c **** *  on first function call.
 208:Generated_Source\PSoC4/I2C_LED.c **** *
 209:Generated_Source\PSoC4/I2C_LED.c **** *******************************************************************************/
 210:Generated_Source\PSoC4/I2C_LED.c **** void I2C_LED_Start(void)
 211:Generated_Source\PSoC4/I2C_LED.c **** {
 212:Generated_Source\PSoC4/I2C_LED.c ****     if (0u == I2C_LED_initVar)
 213:Generated_Source\PSoC4/I2C_LED.c ****     {
 214:Generated_Source\PSoC4/I2C_LED.c ****         I2C_LED_Init();
 215:Generated_Source\PSoC4/I2C_LED.c ****         I2C_LED_initVar = 1u; /* Component was initialized */
 216:Generated_Source\PSoC4/I2C_LED.c ****     }
 217:Generated_Source\PSoC4/I2C_LED.c **** 
 218:Generated_Source\PSoC4/I2C_LED.c ****     I2C_LED_Enable();
 219:Generated_Source\PSoC4/I2C_LED.c **** }
 220:Generated_Source\PSoC4/I2C_LED.c **** 
 221:Generated_Source\PSoC4/I2C_LED.c **** 
 222:Generated_Source\PSoC4/I2C_LED.c **** /*******************************************************************************
 223:Generated_Source\PSoC4/I2C_LED.c **** * Function Name: I2C_LED_Stop
 224:Generated_Source\PSoC4/I2C_LED.c **** ****************************************************************************//**
 225:Generated_Source\PSoC4/I2C_LED.c **** *
 226:Generated_Source\PSoC4/I2C_LED.c **** *  Disables the I2C_LED component: disable the hardware and internal 
 227:Generated_Source\PSoC4/I2C_LED.c **** *  interrupt. It also disables all TX interrupt sources so as not to cause an 
 228:Generated_Source\PSoC4/I2C_LED.c **** *  unexpected interrupt trigger because after the component is enabled, the 
 229:Generated_Source\PSoC4/I2C_LED.c **** *  TX FIFO is empty.
 230:Generated_Source\PSoC4/I2C_LED.c **** *  Refer to the function I2C_LED_Enable() for the interrupt 
 231:Generated_Source\PSoC4/I2C_LED.c **** *  configuration details.
 232:Generated_Source\PSoC4/I2C_LED.c **** *  This function disables the SCB component without checking to see if 
 233:Generated_Source\PSoC4/I2C_LED.c **** *  communication is in progress. Before calling this function it may be 
 234:Generated_Source\PSoC4/I2C_LED.c **** *  necessary to check the status of communication to make sure communication 
 235:Generated_Source\PSoC4/I2C_LED.c **** *  is complete. If this is not done then communication could be stopped mid 
 236:Generated_Source\PSoC4/I2C_LED.c **** *  byte and corrupted data could result.
 237:Generated_Source\PSoC4/I2C_LED.c **** *
 238:Generated_Source\PSoC4/I2C_LED.c **** *******************************************************************************/
 239:Generated_Source\PSoC4/I2C_LED.c **** void I2C_LED_Stop(void)
 240:Generated_Source\PSoC4/I2C_LED.c **** {
 241:Generated_Source\PSoC4/I2C_LED.c **** #if (I2C_LED_SCB_IRQ_INTERNAL)
 242:Generated_Source\PSoC4/I2C_LED.c ****     I2C_LED_DisableInt();
 243:Generated_Source\PSoC4/I2C_LED.c **** #endif /* (I2C_LED_SCB_IRQ_INTERNAL) */
 244:Generated_Source\PSoC4/I2C_LED.c **** 
 245:Generated_Source\PSoC4/I2C_LED.c ****     /* Call Stop function specific to current operation mode */
 246:Generated_Source\PSoC4/I2C_LED.c ****     I2C_LED_ScbModeStop();
 247:Generated_Source\PSoC4/I2C_LED.c **** 
 248:Generated_Source\PSoC4/I2C_LED.c ****     /* Disable SCB IP */
 249:Generated_Source\PSoC4/I2C_LED.c ****     I2C_LED_CTRL_REG &= (uint32) ~I2C_LED_CTRL_ENABLED;
 250:Generated_Source\PSoC4/I2C_LED.c **** 
 251:Generated_Source\PSoC4/I2C_LED.c ****     /* Disable all TX interrupt sources so as not to cause an unexpected
 252:Generated_Source\PSoC4/I2C_LED.c ****     * interrupt trigger after the component will be enabled because the 
 253:Generated_Source\PSoC4/I2C_LED.c ****     * TX FIFO is empty.
 254:Generated_Source\PSoC4/I2C_LED.c ****     * For SCB IP v0, it is critical as it does not mask-out interrupt
 255:Generated_Source\PSoC4/I2C_LED.c ****     * sources when it is disabled. This can cause a code lock-up in the
 256:Generated_Source\PSoC4/I2C_LED.c ****     * interrupt handler because TX FIFO cannot be loaded after the block
 257:Generated_Source\PSoC4/I2C_LED.c ****     * is disabled.
 258:Generated_Source\PSoC4/I2C_LED.c ****     */
 259:Generated_Source\PSoC4/I2C_LED.c ****     I2C_LED_SetTxInterruptMode(I2C_LED_NO_INTR_SOURCES);
 260:Generated_Source\PSoC4/I2C_LED.c **** 
 261:Generated_Source\PSoC4/I2C_LED.c **** #if (I2C_LED_SCB_IRQ_INTERNAL)
ARM GAS  C:\Users\ilya\AppData\Local\Temp\cclmVfrQ.s 			page 6


 262:Generated_Source\PSoC4/I2C_LED.c ****     I2C_LED_ClearPendingInt();
 263:Generated_Source\PSoC4/I2C_LED.c **** #endif /* (I2C_LED_SCB_IRQ_INTERNAL) */
 264:Generated_Source\PSoC4/I2C_LED.c **** }
 265:Generated_Source\PSoC4/I2C_LED.c **** 
 266:Generated_Source\PSoC4/I2C_LED.c **** 
 267:Generated_Source\PSoC4/I2C_LED.c **** /*******************************************************************************
 268:Generated_Source\PSoC4/I2C_LED.c **** * Function Name: I2C_LED_SetRxFifoLevel
 269:Generated_Source\PSoC4/I2C_LED.c **** ****************************************************************************//**
 270:Generated_Source\PSoC4/I2C_LED.c **** *
 271:Generated_Source\PSoC4/I2C_LED.c **** *  Sets level in the RX FIFO to generate a RX level interrupt.
 272:Generated_Source\PSoC4/I2C_LED.c **** *  When the RX FIFO has more entries than the RX FIFO level an RX level
 273:Generated_Source\PSoC4/I2C_LED.c **** *  interrupt request is generated.
 274:Generated_Source\PSoC4/I2C_LED.c **** *
 275:Generated_Source\PSoC4/I2C_LED.c **** *  \param level: Level in the RX FIFO to generate RX level interrupt.
 276:Generated_Source\PSoC4/I2C_LED.c **** *   The range of valid level values is between 0 and RX FIFO depth - 1.
 277:Generated_Source\PSoC4/I2C_LED.c **** *
 278:Generated_Source\PSoC4/I2C_LED.c **** *******************************************************************************/
 279:Generated_Source\PSoC4/I2C_LED.c **** void I2C_LED_SetRxFifoLevel(uint32 level)
 280:Generated_Source\PSoC4/I2C_LED.c **** {
 281:Generated_Source\PSoC4/I2C_LED.c ****     uint32 rxFifoCtrl;
 282:Generated_Source\PSoC4/I2C_LED.c **** 
 283:Generated_Source\PSoC4/I2C_LED.c ****     rxFifoCtrl = I2C_LED_RX_FIFO_CTRL_REG;
 284:Generated_Source\PSoC4/I2C_LED.c **** 
 285:Generated_Source\PSoC4/I2C_LED.c ****     rxFifoCtrl &= ((uint32) ~I2C_LED_RX_FIFO_CTRL_TRIGGER_LEVEL_MASK); /* Clear level mask bits */
 286:Generated_Source\PSoC4/I2C_LED.c ****     rxFifoCtrl |= ((uint32) (I2C_LED_RX_FIFO_CTRL_TRIGGER_LEVEL_MASK & level));
 287:Generated_Source\PSoC4/I2C_LED.c **** 
 288:Generated_Source\PSoC4/I2C_LED.c ****     I2C_LED_RX_FIFO_CTRL_REG = rxFifoCtrl;
 289:Generated_Source\PSoC4/I2C_LED.c **** }
 290:Generated_Source\PSoC4/I2C_LED.c **** 
 291:Generated_Source\PSoC4/I2C_LED.c **** 
 292:Generated_Source\PSoC4/I2C_LED.c **** /*******************************************************************************
 293:Generated_Source\PSoC4/I2C_LED.c **** * Function Name: I2C_LED_SetTxFifoLevel
 294:Generated_Source\PSoC4/I2C_LED.c **** ****************************************************************************//**
 295:Generated_Source\PSoC4/I2C_LED.c **** *
 296:Generated_Source\PSoC4/I2C_LED.c **** *  Sets level in the TX FIFO to generate a TX level interrupt.
 297:Generated_Source\PSoC4/I2C_LED.c **** *  When the TX FIFO has less entries than the TX FIFO level an TX level
 298:Generated_Source\PSoC4/I2C_LED.c **** *  interrupt request is generated.
 299:Generated_Source\PSoC4/I2C_LED.c **** *
 300:Generated_Source\PSoC4/I2C_LED.c **** *  \param level: Level in the TX FIFO to generate TX level interrupt.
 301:Generated_Source\PSoC4/I2C_LED.c **** *   The range of valid level values is between 0 and TX FIFO depth - 1.
 302:Generated_Source\PSoC4/I2C_LED.c **** *
 303:Generated_Source\PSoC4/I2C_LED.c **** *******************************************************************************/
 304:Generated_Source\PSoC4/I2C_LED.c **** void I2C_LED_SetTxFifoLevel(uint32 level)
 305:Generated_Source\PSoC4/I2C_LED.c **** {
 306:Generated_Source\PSoC4/I2C_LED.c ****     uint32 txFifoCtrl;
 307:Generated_Source\PSoC4/I2C_LED.c **** 
 308:Generated_Source\PSoC4/I2C_LED.c ****     txFifoCtrl = I2C_LED_TX_FIFO_CTRL_REG;
 309:Generated_Source\PSoC4/I2C_LED.c **** 
 310:Generated_Source\PSoC4/I2C_LED.c ****     txFifoCtrl &= ((uint32) ~I2C_LED_TX_FIFO_CTRL_TRIGGER_LEVEL_MASK); /* Clear level mask bits */
 311:Generated_Source\PSoC4/I2C_LED.c ****     txFifoCtrl |= ((uint32) (I2C_LED_TX_FIFO_CTRL_TRIGGER_LEVEL_MASK & level));
 312:Generated_Source\PSoC4/I2C_LED.c **** 
 313:Generated_Source\PSoC4/I2C_LED.c ****     I2C_LED_TX_FIFO_CTRL_REG = txFifoCtrl;
 314:Generated_Source\PSoC4/I2C_LED.c **** }
 315:Generated_Source\PSoC4/I2C_LED.c **** 
 316:Generated_Source\PSoC4/I2C_LED.c **** 
 317:Generated_Source\PSoC4/I2C_LED.c **** #if (I2C_LED_SCB_IRQ_INTERNAL)
 318:Generated_Source\PSoC4/I2C_LED.c ****     /*******************************************************************************
ARM GAS  C:\Users\ilya\AppData\Local\Temp\cclmVfrQ.s 			page 7


 319:Generated_Source\PSoC4/I2C_LED.c ****     * Function Name: I2C_LED_SetCustomInterruptHandler
 320:Generated_Source\PSoC4/I2C_LED.c ****     ****************************************************************************//**
 321:Generated_Source\PSoC4/I2C_LED.c ****     *
 322:Generated_Source\PSoC4/I2C_LED.c ****     *  Registers a function to be called by the internal interrupt handler.
 323:Generated_Source\PSoC4/I2C_LED.c ****     *  First the function that is registered is called, then the internal interrupt
 324:Generated_Source\PSoC4/I2C_LED.c ****     *  handler performs any operation such as software buffer management functions
 325:Generated_Source\PSoC4/I2C_LED.c ****     *  before the interrupt returns.  It is the user's responsibility not to break
 326:Generated_Source\PSoC4/I2C_LED.c ****     *  the software buffer operations. Only one custom handler is supported, which
 327:Generated_Source\PSoC4/I2C_LED.c ****     *  is the function provided by the most recent call.
 328:Generated_Source\PSoC4/I2C_LED.c ****     *  At the initialization time no custom handler is registered.
 329:Generated_Source\PSoC4/I2C_LED.c ****     *
 330:Generated_Source\PSoC4/I2C_LED.c ****     *  \param func: Pointer to the function to register.
 331:Generated_Source\PSoC4/I2C_LED.c ****     *        The value NULL indicates to remove the current custom interrupt
 332:Generated_Source\PSoC4/I2C_LED.c ****     *        handler.
 333:Generated_Source\PSoC4/I2C_LED.c ****     *
 334:Generated_Source\PSoC4/I2C_LED.c ****     *******************************************************************************/
 335:Generated_Source\PSoC4/I2C_LED.c ****     void I2C_LED_SetCustomInterruptHandler(void (*func)(void))
 336:Generated_Source\PSoC4/I2C_LED.c ****     {
 337:Generated_Source\PSoC4/I2C_LED.c ****     #if !defined (CY_REMOVE_I2C_LED_CUSTOM_INTR_HANDLER)
 338:Generated_Source\PSoC4/I2C_LED.c ****         I2C_LED_customIntrHandler = func; /* Register interrupt handler */
 339:Generated_Source\PSoC4/I2C_LED.c ****     #else
 340:Generated_Source\PSoC4/I2C_LED.c ****         if (NULL != func)
 341:Generated_Source\PSoC4/I2C_LED.c ****         {
 342:Generated_Source\PSoC4/I2C_LED.c ****             /* Suppress compiler warning */
 343:Generated_Source\PSoC4/I2C_LED.c ****         }
 344:Generated_Source\PSoC4/I2C_LED.c ****     #endif /* !defined (CY_REMOVE_I2C_LED_CUSTOM_INTR_HANDLER) */
 345:Generated_Source\PSoC4/I2C_LED.c ****     }
 346:Generated_Source\PSoC4/I2C_LED.c **** #endif /* (I2C_LED_SCB_IRQ_INTERNAL) */
 347:Generated_Source\PSoC4/I2C_LED.c **** 
 348:Generated_Source\PSoC4/I2C_LED.c **** 
 349:Generated_Source\PSoC4/I2C_LED.c **** /*******************************************************************************
 350:Generated_Source\PSoC4/I2C_LED.c **** * Function Name: I2C_LED_ScbModeEnableIntr
 351:Generated_Source\PSoC4/I2C_LED.c **** ****************************************************************************//**
 352:Generated_Source\PSoC4/I2C_LED.c **** *
 353:Generated_Source\PSoC4/I2C_LED.c **** *  Enables an interrupt for a specific mode.
 354:Generated_Source\PSoC4/I2C_LED.c **** *
 355:Generated_Source\PSoC4/I2C_LED.c **** *******************************************************************************/
 356:Generated_Source\PSoC4/I2C_LED.c **** static void I2C_LED_ScbEnableIntr(void)
 357:Generated_Source\PSoC4/I2C_LED.c **** {
  25              		.loc 1 357 0
  26              		.cfi_startproc
  27 0000 08B5     		push	{r3, lr}
  28              		.cfi_def_cfa_offset 8
  29              		.cfi_offset 3, -8
  30              		.cfi_offset 14, -4
 358:Generated_Source\PSoC4/I2C_LED.c **** #if (I2C_LED_SCB_IRQ_INTERNAL)
 359:Generated_Source\PSoC4/I2C_LED.c ****     /* Enable interrupt in NVIC */
 360:Generated_Source\PSoC4/I2C_LED.c ****     #if (I2C_LED_SCB_MODE_UNCONFIG_CONST_CFG)
 361:Generated_Source\PSoC4/I2C_LED.c ****         if (0u != I2C_LED_scbEnableIntr)
 362:Generated_Source\PSoC4/I2C_LED.c ****         {
 363:Generated_Source\PSoC4/I2C_LED.c ****             I2C_LED_EnableInt();
 364:Generated_Source\PSoC4/I2C_LED.c ****         }
 365:Generated_Source\PSoC4/I2C_LED.c **** 
 366:Generated_Source\PSoC4/I2C_LED.c ****     #else
 367:Generated_Source\PSoC4/I2C_LED.c ****         I2C_LED_EnableInt();
  31              		.loc 1 367 0
  32 0002 0A20     		mov	r0, #10
ARM GAS  C:\Users\ilya\AppData\Local\Temp\cclmVfrQ.s 			page 8


  33 0004 FFF7FEFF 		bl	CyIntEnable
  34              	.LVL0:
 368:Generated_Source\PSoC4/I2C_LED.c **** 
 369:Generated_Source\PSoC4/I2C_LED.c ****     #endif /* (I2C_LED_SCB_MODE_UNCONFIG_CONST_CFG) */
 370:Generated_Source\PSoC4/I2C_LED.c **** #endif /* (I2C_LED_SCB_IRQ_INTERNAL) */
 371:Generated_Source\PSoC4/I2C_LED.c **** }
  35              		.loc 1 371 0
  36              		@ sp needed
  37 0008 08BD     		pop	{r3, pc}
  38              		.cfi_endproc
  39              	.LFE7:
  40              		.size	I2C_LED_ScbEnableIntr, .-I2C_LED_ScbEnableIntr
  41 000a C046     		.section	.text.I2C_LED_ScbModeStop,"ax",%progbits
  42              		.align	2
  43              		.code	16
  44              		.thumb_func
  45              		.type	I2C_LED_ScbModeStop, %function
  46              	I2C_LED_ScbModeStop:
  47              	.LFB9:
 372:Generated_Source\PSoC4/I2C_LED.c **** 
 373:Generated_Source\PSoC4/I2C_LED.c **** 
 374:Generated_Source\PSoC4/I2C_LED.c **** /*******************************************************************************
 375:Generated_Source\PSoC4/I2C_LED.c **** * Function Name: I2C_LED_ScbModePostEnable
 376:Generated_Source\PSoC4/I2C_LED.c **** ****************************************************************************//**
 377:Generated_Source\PSoC4/I2C_LED.c **** *
 378:Generated_Source\PSoC4/I2C_LED.c **** *  Calls the PostEnable function for a specific operation mode.
 379:Generated_Source\PSoC4/I2C_LED.c **** *
 380:Generated_Source\PSoC4/I2C_LED.c **** *******************************************************************************/
 381:Generated_Source\PSoC4/I2C_LED.c **** static void I2C_LED_ScbModePostEnable(void)
 382:Generated_Source\PSoC4/I2C_LED.c **** {
 383:Generated_Source\PSoC4/I2C_LED.c **** #if (I2C_LED_SCB_MODE_UNCONFIG_CONST_CFG)
 384:Generated_Source\PSoC4/I2C_LED.c **** #if (!I2C_LED_CY_SCBIP_V1)
 385:Generated_Source\PSoC4/I2C_LED.c ****     if (I2C_LED_SCB_MODE_SPI_RUNTM_CFG)
 386:Generated_Source\PSoC4/I2C_LED.c ****     {
 387:Generated_Source\PSoC4/I2C_LED.c ****         I2C_LED_SpiPostEnable();
 388:Generated_Source\PSoC4/I2C_LED.c ****     }
 389:Generated_Source\PSoC4/I2C_LED.c ****     else if (I2C_LED_SCB_MODE_UART_RUNTM_CFG)
 390:Generated_Source\PSoC4/I2C_LED.c ****     {
 391:Generated_Source\PSoC4/I2C_LED.c ****         I2C_LED_UartPostEnable();
 392:Generated_Source\PSoC4/I2C_LED.c ****     }
 393:Generated_Source\PSoC4/I2C_LED.c ****     else
 394:Generated_Source\PSoC4/I2C_LED.c ****     {
 395:Generated_Source\PSoC4/I2C_LED.c ****         /* Unknown mode: do nothing */
 396:Generated_Source\PSoC4/I2C_LED.c ****     }
 397:Generated_Source\PSoC4/I2C_LED.c **** #endif /* (!I2C_LED_CY_SCBIP_V1) */
 398:Generated_Source\PSoC4/I2C_LED.c **** 
 399:Generated_Source\PSoC4/I2C_LED.c **** #elif (I2C_LED_SCB_MODE_SPI_CONST_CFG)
 400:Generated_Source\PSoC4/I2C_LED.c ****     I2C_LED_SpiPostEnable();
 401:Generated_Source\PSoC4/I2C_LED.c **** 
 402:Generated_Source\PSoC4/I2C_LED.c **** #elif (I2C_LED_SCB_MODE_UART_CONST_CFG)
 403:Generated_Source\PSoC4/I2C_LED.c ****     I2C_LED_UartPostEnable();
 404:Generated_Source\PSoC4/I2C_LED.c **** 
 405:Generated_Source\PSoC4/I2C_LED.c **** #else
 406:Generated_Source\PSoC4/I2C_LED.c ****     /* Unknown mode: do nothing */
 407:Generated_Source\PSoC4/I2C_LED.c **** #endif /* (I2C_LED_SCB_MODE_UNCONFIG_CONST_CFG) */
 408:Generated_Source\PSoC4/I2C_LED.c **** }
 409:Generated_Source\PSoC4/I2C_LED.c **** 
ARM GAS  C:\Users\ilya\AppData\Local\Temp\cclmVfrQ.s 			page 9


 410:Generated_Source\PSoC4/I2C_LED.c **** 
 411:Generated_Source\PSoC4/I2C_LED.c **** /*******************************************************************************
 412:Generated_Source\PSoC4/I2C_LED.c **** * Function Name: I2C_LED_ScbModeStop
 413:Generated_Source\PSoC4/I2C_LED.c **** ****************************************************************************//**
 414:Generated_Source\PSoC4/I2C_LED.c **** *
 415:Generated_Source\PSoC4/I2C_LED.c **** *  Calls the Stop function for a specific operation mode.
 416:Generated_Source\PSoC4/I2C_LED.c **** *
 417:Generated_Source\PSoC4/I2C_LED.c **** *******************************************************************************/
 418:Generated_Source\PSoC4/I2C_LED.c **** static void I2C_LED_ScbModeStop(void)
 419:Generated_Source\PSoC4/I2C_LED.c **** {
  48              		.loc 1 419 0
  49              		.cfi_startproc
  50 0000 08B5     		push	{r3, lr}
  51              		.cfi_def_cfa_offset 8
  52              		.cfi_offset 3, -8
  53              		.cfi_offset 14, -4
 420:Generated_Source\PSoC4/I2C_LED.c **** #if (I2C_LED_SCB_MODE_UNCONFIG_CONST_CFG)
 421:Generated_Source\PSoC4/I2C_LED.c ****     if (I2C_LED_SCB_MODE_I2C_RUNTM_CFG)
 422:Generated_Source\PSoC4/I2C_LED.c ****     {
 423:Generated_Source\PSoC4/I2C_LED.c ****         I2C_LED_I2CStop();
 424:Generated_Source\PSoC4/I2C_LED.c ****     }
 425:Generated_Source\PSoC4/I2C_LED.c ****     else if (I2C_LED_SCB_MODE_EZI2C_RUNTM_CFG)
 426:Generated_Source\PSoC4/I2C_LED.c ****     {
 427:Generated_Source\PSoC4/I2C_LED.c ****         I2C_LED_EzI2CStop();
 428:Generated_Source\PSoC4/I2C_LED.c ****     }
 429:Generated_Source\PSoC4/I2C_LED.c **** #if (!I2C_LED_CY_SCBIP_V1)
 430:Generated_Source\PSoC4/I2C_LED.c ****     else if (I2C_LED_SCB_MODE_SPI_RUNTM_CFG)
 431:Generated_Source\PSoC4/I2C_LED.c ****     {
 432:Generated_Source\PSoC4/I2C_LED.c ****         I2C_LED_SpiStop();
 433:Generated_Source\PSoC4/I2C_LED.c ****     }
 434:Generated_Source\PSoC4/I2C_LED.c ****     else if (I2C_LED_SCB_MODE_UART_RUNTM_CFG)
 435:Generated_Source\PSoC4/I2C_LED.c ****     {
 436:Generated_Source\PSoC4/I2C_LED.c ****         I2C_LED_UartStop();
 437:Generated_Source\PSoC4/I2C_LED.c ****     }
 438:Generated_Source\PSoC4/I2C_LED.c **** #endif /* (!I2C_LED_CY_SCBIP_V1) */
 439:Generated_Source\PSoC4/I2C_LED.c ****     else
 440:Generated_Source\PSoC4/I2C_LED.c ****     {
 441:Generated_Source\PSoC4/I2C_LED.c ****         /* Unknown mode: do nothing */
 442:Generated_Source\PSoC4/I2C_LED.c ****     }
 443:Generated_Source\PSoC4/I2C_LED.c **** #elif (I2C_LED_SCB_MODE_I2C_CONST_CFG)
 444:Generated_Source\PSoC4/I2C_LED.c ****     I2C_LED_I2CStop();
  54              		.loc 1 444 0
  55 0002 FFF7FEFF 		bl	I2C_LED_I2CStop
  56              	.LVL1:
 445:Generated_Source\PSoC4/I2C_LED.c **** 
 446:Generated_Source\PSoC4/I2C_LED.c **** #elif (I2C_LED_SCB_MODE_EZI2C_CONST_CFG)
 447:Generated_Source\PSoC4/I2C_LED.c ****     I2C_LED_EzI2CStop();
 448:Generated_Source\PSoC4/I2C_LED.c **** 
 449:Generated_Source\PSoC4/I2C_LED.c **** #elif (I2C_LED_SCB_MODE_SPI_CONST_CFG)
 450:Generated_Source\PSoC4/I2C_LED.c ****     I2C_LED_SpiStop();
 451:Generated_Source\PSoC4/I2C_LED.c **** 
 452:Generated_Source\PSoC4/I2C_LED.c **** #elif (I2C_LED_SCB_MODE_UART_CONST_CFG)
 453:Generated_Source\PSoC4/I2C_LED.c ****     I2C_LED_UartStop();
 454:Generated_Source\PSoC4/I2C_LED.c **** 
 455:Generated_Source\PSoC4/I2C_LED.c **** #else
 456:Generated_Source\PSoC4/I2C_LED.c ****     /* Unknown mode: do nothing */
 457:Generated_Source\PSoC4/I2C_LED.c **** #endif /* (I2C_LED_SCB_MODE_UNCONFIG_CONST_CFG) */
ARM GAS  C:\Users\ilya\AppData\Local\Temp\cclmVfrQ.s 			page 10


 458:Generated_Source\PSoC4/I2C_LED.c **** }
  57              		.loc 1 458 0
  58              		@ sp needed
  59 0006 08BD     		pop	{r3, pc}
  60              		.cfi_endproc
  61              	.LFE9:
  62              		.size	I2C_LED_ScbModeStop, .-I2C_LED_ScbModeStop
  63              		.section	.text.I2C_LED_Init,"ax",%progbits
  64              		.align	2
  65              		.global	I2C_LED_Init
  66              		.code	16
  67              		.thumb_func
  68              		.type	I2C_LED_Init, %function
  69              	I2C_LED_Init:
  70              	.LFB0:
 124:Generated_Source\PSoC4/I2C_LED.c **** #if (I2C_LED_SCB_MODE_UNCONFIG_CONST_CFG)
  71              		.loc 1 124 0
  72              		.cfi_startproc
  73 0000 08B5     		push	{r3, lr}
  74              		.cfi_def_cfa_offset 8
  75              		.cfi_offset 3, -8
  76              		.cfi_offset 14, -4
 136:Generated_Source\PSoC4/I2C_LED.c **** 
  77              		.loc 1 136 0
  78 0002 FFF7FEFF 		bl	I2C_LED_I2CInit
  79              	.LVL2:
 148:Generated_Source\PSoC4/I2C_LED.c **** 
  80              		.loc 1 148 0
  81              		@ sp needed
  82 0006 08BD     		pop	{r3, pc}
  83              		.cfi_endproc
  84              	.LFE0:
  85              		.size	I2C_LED_Init, .-I2C_LED_Init
  86              		.section	.text.I2C_LED_Enable,"ax",%progbits
  87              		.align	2
  88              		.global	I2C_LED_Enable
  89              		.code	16
  90              		.thumb_func
  91              		.type	I2C_LED_Enable, %function
  92              	I2C_LED_Enable:
  93              	.LFB1:
 172:Generated_Source\PSoC4/I2C_LED.c **** #if (I2C_LED_SCB_MODE_UNCONFIG_CONST_CFG)
  94              		.loc 1 172 0
  95              		.cfi_startproc
  96 0000 08B5     		push	{r3, lr}
  97              		.cfi_def_cfa_offset 8
  98              		.cfi_offset 3, -8
  99              		.cfi_offset 14, -4
 185:Generated_Source\PSoC4/I2C_LED.c **** 
 100              		.loc 1 185 0
 101 0002 044A     		ldr	r2, .L5
 102 0004 1368     		ldr	r3, [r2]
 103 0006 8021     		mov	r1, #128
 104 0008 0906     		lsl	r1, r1, #24
 105 000a 0B43     		orr	r3, r1
 106 000c 1360     		str	r3, [r2]
 187:Generated_Source\PSoC4/I2C_LED.c **** 
ARM GAS  C:\Users\ilya\AppData\Local\Temp\cclmVfrQ.s 			page 11


 107              		.loc 1 187 0
 108 000e FFF7FEFF 		bl	I2C_LED_ScbEnableIntr
 109              	.LVL3:
 192:Generated_Source\PSoC4/I2C_LED.c **** 
 110              		.loc 1 192 0
 111              		@ sp needed
 112 0012 08BD     		pop	{r3, pc}
 113              	.L6:
 114              		.align	2
 115              	.L5:
 116 0014 00000640 		.word	1074135040
 117              		.cfi_endproc
 118              	.LFE1:
 119              		.size	I2C_LED_Enable, .-I2C_LED_Enable
 120              		.section	.text.I2C_LED_Start,"ax",%progbits
 121              		.align	2
 122              		.global	I2C_LED_Start
 123              		.code	16
 124              		.thumb_func
 125              		.type	I2C_LED_Start, %function
 126              	I2C_LED_Start:
 127              	.LFB2:
 211:Generated_Source\PSoC4/I2C_LED.c ****     if (0u == I2C_LED_initVar)
 128              		.loc 1 211 0
 129              		.cfi_startproc
 130 0000 08B5     		push	{r3, lr}
 131              		.cfi_def_cfa_offset 8
 132              		.cfi_offset 3, -8
 133              		.cfi_offset 14, -4
 212:Generated_Source\PSoC4/I2C_LED.c ****     {
 134              		.loc 1 212 0
 135 0002 064B     		ldr	r3, .L9
 136 0004 1B78     		ldrb	r3, [r3]
 137 0006 002B     		cmp	r3, #0
 138 0008 04D1     		bne	.L8
 214:Generated_Source\PSoC4/I2C_LED.c ****         I2C_LED_initVar = 1u; /* Component was initialized */
 139              		.loc 1 214 0
 140 000a FFF7FEFF 		bl	I2C_LED_Init
 141              	.LVL4:
 215:Generated_Source\PSoC4/I2C_LED.c ****     }
 142              		.loc 1 215 0
 143 000e 0122     		mov	r2, #1
 144 0010 024B     		ldr	r3, .L9
 145 0012 1A70     		strb	r2, [r3]
 146              	.L8:
 218:Generated_Source\PSoC4/I2C_LED.c **** }
 147              		.loc 1 218 0
 148 0014 FFF7FEFF 		bl	I2C_LED_Enable
 149              	.LVL5:
 219:Generated_Source\PSoC4/I2C_LED.c **** 
 150              		.loc 1 219 0
 151              		@ sp needed
 152 0018 08BD     		pop	{r3, pc}
 153              	.L10:
 154 001a C046     		.align	2
 155              	.L9:
 156 001c 00000000 		.word	.LANCHOR0
ARM GAS  C:\Users\ilya\AppData\Local\Temp\cclmVfrQ.s 			page 12


 157              		.cfi_endproc
 158              	.LFE2:
 159              		.size	I2C_LED_Start, .-I2C_LED_Start
 160              		.section	.text.I2C_LED_Stop,"ax",%progbits
 161              		.align	2
 162              		.global	I2C_LED_Stop
 163              		.code	16
 164              		.thumb_func
 165              		.type	I2C_LED_Stop, %function
 166              	I2C_LED_Stop:
 167              	.LFB3:
 240:Generated_Source\PSoC4/I2C_LED.c **** #if (I2C_LED_SCB_IRQ_INTERNAL)
 168              		.loc 1 240 0
 169              		.cfi_startproc
 170 0000 08B5     		push	{r3, lr}
 171              		.cfi_def_cfa_offset 8
 172              		.cfi_offset 3, -8
 173              		.cfi_offset 14, -4
 242:Generated_Source\PSoC4/I2C_LED.c **** #endif /* (I2C_LED_SCB_IRQ_INTERNAL) */
 174              		.loc 1 242 0
 175 0002 0A20     		mov	r0, #10
 176 0004 FFF7FEFF 		bl	CyIntDisable
 177              	.LVL6:
 246:Generated_Source\PSoC4/I2C_LED.c **** 
 178              		.loc 1 246 0
 179 0008 FFF7FEFF 		bl	I2C_LED_ScbModeStop
 180              	.LVL7:
 249:Generated_Source\PSoC4/I2C_LED.c **** 
 181              		.loc 1 249 0
 182 000c 054A     		ldr	r2, .L12
 183 000e 1368     		ldr	r3, [r2]
 184 0010 5B00     		lsl	r3, r3, #1
 185 0012 5B08     		lsr	r3, r3, #1
 186 0014 1360     		str	r3, [r2]
 259:Generated_Source\PSoC4/I2C_LED.c **** 
 187              		.loc 1 259 0
 188 0016 0022     		mov	r2, #0
 189 0018 034B     		ldr	r3, .L12+4
 190 001a 1A60     		str	r2, [r3]
 262:Generated_Source\PSoC4/I2C_LED.c **** #endif /* (I2C_LED_SCB_IRQ_INTERNAL) */
 191              		.loc 1 262 0
 192 001c 0A20     		mov	r0, #10
 193 001e FFF7FEFF 		bl	CyIntClearPending
 194              	.LVL8:
 264:Generated_Source\PSoC4/I2C_LED.c **** 
 195              		.loc 1 264 0
 196              		@ sp needed
 197 0022 08BD     		pop	{r3, pc}
 198              	.L13:
 199              		.align	2
 200              	.L12:
 201 0024 00000640 		.word	1074135040
 202 0028 880F0640 		.word	1074139016
 203              		.cfi_endproc
 204              	.LFE3:
 205              		.size	I2C_LED_Stop, .-I2C_LED_Stop
 206              		.section	.text.I2C_LED_SetRxFifoLevel,"ax",%progbits
ARM GAS  C:\Users\ilya\AppData\Local\Temp\cclmVfrQ.s 			page 13


 207              		.align	2
 208              		.global	I2C_LED_SetRxFifoLevel
 209              		.code	16
 210              		.thumb_func
 211              		.type	I2C_LED_SetRxFifoLevel, %function
 212              	I2C_LED_SetRxFifoLevel:
 213              	.LFB4:
 280:Generated_Source\PSoC4/I2C_LED.c ****     uint32 rxFifoCtrl;
 214              		.loc 1 280 0
 215              		.cfi_startproc
 216              	.LVL9:
 283:Generated_Source\PSoC4/I2C_LED.c **** 
 217              		.loc 1 283 0
 218 0000 034A     		ldr	r2, .L15
 219 0002 1368     		ldr	r3, [r2]
 220              	.LVL10:
 285:Generated_Source\PSoC4/I2C_LED.c ****     rxFifoCtrl |= ((uint32) (I2C_LED_RX_FIFO_CTRL_TRIGGER_LEVEL_MASK & level));
 221              		.loc 1 285 0
 222 0004 0721     		mov	r1, #7
 223 0006 8B43     		bic	r3, r1
 224              	.LVL11:
 286:Generated_Source\PSoC4/I2C_LED.c **** 
 225              		.loc 1 286 0
 226 0008 0840     		and	r0, r1
 227              	.LVL12:
 228 000a 1843     		orr	r0, r3
 229              	.LVL13:
 288:Generated_Source\PSoC4/I2C_LED.c **** }
 230              		.loc 1 288 0
 231 000c 1060     		str	r0, [r2]
 289:Generated_Source\PSoC4/I2C_LED.c **** 
 232              		.loc 1 289 0
 233              		@ sp needed
 234 000e 7047     		bx	lr
 235              	.L16:
 236              		.align	2
 237              	.L15:
 238 0010 04030640 		.word	1074135812
 239              		.cfi_endproc
 240              	.LFE4:
 241              		.size	I2C_LED_SetRxFifoLevel, .-I2C_LED_SetRxFifoLevel
 242              		.section	.text.I2C_LED_SetTxFifoLevel,"ax",%progbits
 243              		.align	2
 244              		.global	I2C_LED_SetTxFifoLevel
 245              		.code	16
 246              		.thumb_func
 247              		.type	I2C_LED_SetTxFifoLevel, %function
 248              	I2C_LED_SetTxFifoLevel:
 249              	.LFB5:
 305:Generated_Source\PSoC4/I2C_LED.c ****     uint32 txFifoCtrl;
 250              		.loc 1 305 0
 251              		.cfi_startproc
 252              	.LVL14:
 308:Generated_Source\PSoC4/I2C_LED.c **** 
 253              		.loc 1 308 0
 254 0000 034A     		ldr	r2, .L18
 255 0002 1368     		ldr	r3, [r2]
ARM GAS  C:\Users\ilya\AppData\Local\Temp\cclmVfrQ.s 			page 14


 256              	.LVL15:
 310:Generated_Source\PSoC4/I2C_LED.c ****     txFifoCtrl |= ((uint32) (I2C_LED_TX_FIFO_CTRL_TRIGGER_LEVEL_MASK & level));
 257              		.loc 1 310 0
 258 0004 0721     		mov	r1, #7
 259 0006 8B43     		bic	r3, r1
 260              	.LVL16:
 311:Generated_Source\PSoC4/I2C_LED.c **** 
 261              		.loc 1 311 0
 262 0008 0840     		and	r0, r1
 263              	.LVL17:
 264 000a 1843     		orr	r0, r3
 265              	.LVL18:
 313:Generated_Source\PSoC4/I2C_LED.c **** }
 266              		.loc 1 313 0
 267 000c 1060     		str	r0, [r2]
 314:Generated_Source\PSoC4/I2C_LED.c **** 
 268              		.loc 1 314 0
 269              		@ sp needed
 270 000e 7047     		bx	lr
 271              	.L19:
 272              		.align	2
 273              	.L18:
 274 0010 04020640 		.word	1074135556
 275              		.cfi_endproc
 276              	.LFE5:
 277              		.size	I2C_LED_SetTxFifoLevel, .-I2C_LED_SetTxFifoLevel
 278              		.section	.text.I2C_LED_SetCustomInterruptHandler,"ax",%progbits
 279              		.align	2
 280              		.global	I2C_LED_SetCustomInterruptHandler
 281              		.code	16
 282              		.thumb_func
 283              		.type	I2C_LED_SetCustomInterruptHandler, %function
 284              	I2C_LED_SetCustomInterruptHandler:
 285              	.LFB6:
 336:Generated_Source\PSoC4/I2C_LED.c ****     #if !defined (CY_REMOVE_I2C_LED_CUSTOM_INTR_HANDLER)
 286              		.loc 1 336 0
 287              		.cfi_startproc
 288              	.LVL19:
 338:Generated_Source\PSoC4/I2C_LED.c ****     #else
 289              		.loc 1 338 0
 290 0000 014B     		ldr	r3, .L21
 291 0002 5860     		str	r0, [r3, #4]
 345:Generated_Source\PSoC4/I2C_LED.c **** #endif /* (I2C_LED_SCB_IRQ_INTERNAL) */
 292              		.loc 1 345 0
 293              		@ sp needed
 294 0004 7047     		bx	lr
 295              	.L22:
 296 0006 C046     		.align	2
 297              	.L21:
 298 0008 00000000 		.word	.LANCHOR0
 299              		.cfi_endproc
 300              	.LFE6:
 301              		.size	I2C_LED_SetCustomInterruptHandler, .-I2C_LED_SetCustomInterruptHandler
 302              		.section	.text.I2C_LED_I2CSlaveNackGeneration,"ax",%progbits
 303              		.align	2
 304              		.global	I2C_LED_I2CSlaveNackGeneration
 305              		.code	16
ARM GAS  C:\Users\ilya\AppData\Local\Temp\cclmVfrQ.s 			page 15


 306              		.thumb_func
 307              		.type	I2C_LED_I2CSlaveNackGeneration, %function
 308              	I2C_LED_I2CSlaveNackGeneration:
 309              	.LFB10:
 459:Generated_Source\PSoC4/I2C_LED.c **** 
 460:Generated_Source\PSoC4/I2C_LED.c **** 
 461:Generated_Source\PSoC4/I2C_LED.c **** #if (I2C_LED_SCB_MODE_UNCONFIG_CONST_CFG)
 462:Generated_Source\PSoC4/I2C_LED.c ****     /*******************************************************************************
 463:Generated_Source\PSoC4/I2C_LED.c ****     * Function Name: I2C_LED_SetPins
 464:Generated_Source\PSoC4/I2C_LED.c ****     ****************************************************************************//**
 465:Generated_Source\PSoC4/I2C_LED.c ****     *
 466:Generated_Source\PSoC4/I2C_LED.c ****     *  Sets the pins settings accordingly to the selected operation mode.
 467:Generated_Source\PSoC4/I2C_LED.c ****     *  Only available in the Unconfigured operation mode. The mode specific
 468:Generated_Source\PSoC4/I2C_LED.c ****     *  initialization function calls it.
 469:Generated_Source\PSoC4/I2C_LED.c ****     *  Pins configuration is set by PSoC Creator when a specific mode of operation
 470:Generated_Source\PSoC4/I2C_LED.c ****     *  is selected in design time.
 471:Generated_Source\PSoC4/I2C_LED.c ****     *
 472:Generated_Source\PSoC4/I2C_LED.c ****     *  \param mode:      Mode of SCB operation.
 473:Generated_Source\PSoC4/I2C_LED.c ****     *  \param subMode:   Sub-mode of SCB operation. It is only required for SPI and UART
 474:Generated_Source\PSoC4/I2C_LED.c ****     *             modes.
 475:Generated_Source\PSoC4/I2C_LED.c ****     *  \param uartEnableMask: enables TX or RX direction and RTS and CTS signals.
 476:Generated_Source\PSoC4/I2C_LED.c ****     *
 477:Generated_Source\PSoC4/I2C_LED.c ****     *******************************************************************************/
 478:Generated_Source\PSoC4/I2C_LED.c ****     void I2C_LED_SetPins(uint32 mode, uint32 subMode, uint32 uartEnableMask)
 479:Generated_Source\PSoC4/I2C_LED.c ****     {
 480:Generated_Source\PSoC4/I2C_LED.c ****         uint32 pinsDm[I2C_LED_SCB_PINS_NUMBER];
 481:Generated_Source\PSoC4/I2C_LED.c ****         uint32 i;
 482:Generated_Source\PSoC4/I2C_LED.c ****         
 483:Generated_Source\PSoC4/I2C_LED.c ****     #if (!I2C_LED_CY_SCBIP_V1)
 484:Generated_Source\PSoC4/I2C_LED.c ****         uint32 pinsInBuf = 0u;
 485:Generated_Source\PSoC4/I2C_LED.c ****     #endif /* (!I2C_LED_CY_SCBIP_V1) */
 486:Generated_Source\PSoC4/I2C_LED.c ****         
 487:Generated_Source\PSoC4/I2C_LED.c ****         uint32 hsiomSel[I2C_LED_SCB_PINS_NUMBER] = 
 488:Generated_Source\PSoC4/I2C_LED.c ****         {
 489:Generated_Source\PSoC4/I2C_LED.c ****             I2C_LED_RX_SCL_MOSI_HSIOM_SEL_GPIO,
 490:Generated_Source\PSoC4/I2C_LED.c ****             I2C_LED_TX_SDA_MISO_HSIOM_SEL_GPIO,
 491:Generated_Source\PSoC4/I2C_LED.c ****             0u,
 492:Generated_Source\PSoC4/I2C_LED.c ****             0u,
 493:Generated_Source\PSoC4/I2C_LED.c ****             0u,
 494:Generated_Source\PSoC4/I2C_LED.c ****             0u,
 495:Generated_Source\PSoC4/I2C_LED.c ****             0u,
 496:Generated_Source\PSoC4/I2C_LED.c ****         };
 497:Generated_Source\PSoC4/I2C_LED.c **** 
 498:Generated_Source\PSoC4/I2C_LED.c ****     #if (I2C_LED_CY_SCBIP_V1)
 499:Generated_Source\PSoC4/I2C_LED.c ****         /* Supress compiler warning. */
 500:Generated_Source\PSoC4/I2C_LED.c ****         if ((0u == subMode) || (0u == uartEnableMask))
 501:Generated_Source\PSoC4/I2C_LED.c ****         {
 502:Generated_Source\PSoC4/I2C_LED.c ****         }
 503:Generated_Source\PSoC4/I2C_LED.c ****     #endif /* (I2C_LED_CY_SCBIP_V1) */
 504:Generated_Source\PSoC4/I2C_LED.c **** 
 505:Generated_Source\PSoC4/I2C_LED.c ****         /* Set default HSIOM to GPIO and Drive Mode to Analog Hi-Z */
 506:Generated_Source\PSoC4/I2C_LED.c ****         for (i = 0u; i < I2C_LED_SCB_PINS_NUMBER; i++)
 507:Generated_Source\PSoC4/I2C_LED.c ****         {
 508:Generated_Source\PSoC4/I2C_LED.c ****             pinsDm[i] = I2C_LED_PIN_DM_ALG_HIZ;
 509:Generated_Source\PSoC4/I2C_LED.c ****         }
 510:Generated_Source\PSoC4/I2C_LED.c **** 
 511:Generated_Source\PSoC4/I2C_LED.c ****         if ((I2C_LED_SCB_MODE_I2C   == mode) ||
ARM GAS  C:\Users\ilya\AppData\Local\Temp\cclmVfrQ.s 			page 16


 512:Generated_Source\PSoC4/I2C_LED.c ****             (I2C_LED_SCB_MODE_EZI2C == mode))
 513:Generated_Source\PSoC4/I2C_LED.c ****         {
 514:Generated_Source\PSoC4/I2C_LED.c ****         #if (I2C_LED_RX_SCL_MOSI_PIN)
 515:Generated_Source\PSoC4/I2C_LED.c ****             hsiomSel[I2C_LED_RX_SCL_MOSI_PIN_INDEX] = I2C_LED_RX_SCL_MOSI_HSIOM_SEL_I2C;
 516:Generated_Source\PSoC4/I2C_LED.c ****             pinsDm  [I2C_LED_RX_SCL_MOSI_PIN_INDEX] = I2C_LED_PIN_DM_OD_LO;
 517:Generated_Source\PSoC4/I2C_LED.c ****         #elif (I2C_LED_RX_WAKE_SCL_MOSI_PIN)
 518:Generated_Source\PSoC4/I2C_LED.c ****             hsiomSel[I2C_LED_RX_WAKE_SCL_MOSI_PIN_INDEX] = I2C_LED_RX_WAKE_SCL_MOSI_HSIOM_SEL_I2C;
 519:Generated_Source\PSoC4/I2C_LED.c ****             pinsDm  [I2C_LED_RX_WAKE_SCL_MOSI_PIN_INDEX] = I2C_LED_PIN_DM_OD_LO;
 520:Generated_Source\PSoC4/I2C_LED.c ****         #else
 521:Generated_Source\PSoC4/I2C_LED.c ****         #endif /* (I2C_LED_RX_SCL_MOSI_PIN) */
 522:Generated_Source\PSoC4/I2C_LED.c ****         
 523:Generated_Source\PSoC4/I2C_LED.c ****         #if (I2C_LED_TX_SDA_MISO_PIN)
 524:Generated_Source\PSoC4/I2C_LED.c ****             hsiomSel[I2C_LED_TX_SDA_MISO_PIN_INDEX] = I2C_LED_TX_SDA_MISO_HSIOM_SEL_I2C;
 525:Generated_Source\PSoC4/I2C_LED.c ****             pinsDm  [I2C_LED_TX_SDA_MISO_PIN_INDEX] = I2C_LED_PIN_DM_OD_LO;
 526:Generated_Source\PSoC4/I2C_LED.c ****         #endif /* (I2C_LED_TX_SDA_MISO_PIN) */
 527:Generated_Source\PSoC4/I2C_LED.c ****         }
 528:Generated_Source\PSoC4/I2C_LED.c ****     #if (!I2C_LED_CY_SCBIP_V1)
 529:Generated_Source\PSoC4/I2C_LED.c ****         else if (I2C_LED_SCB_MODE_SPI == mode)
 530:Generated_Source\PSoC4/I2C_LED.c ****         {
 531:Generated_Source\PSoC4/I2C_LED.c ****         #if (I2C_LED_RX_SCL_MOSI_PIN)
 532:Generated_Source\PSoC4/I2C_LED.c ****             hsiomSel[I2C_LED_RX_SCL_MOSI_PIN_INDEX] = I2C_LED_RX_SCL_MOSI_HSIOM_SEL_SPI;
 533:Generated_Source\PSoC4/I2C_LED.c ****         #elif (I2C_LED_RX_WAKE_SCL_MOSI_PIN)
 534:Generated_Source\PSoC4/I2C_LED.c ****             hsiomSel[I2C_LED_RX_WAKE_SCL_MOSI_PIN_INDEX] = I2C_LED_RX_WAKE_SCL_MOSI_HSIOM_SEL_SPI;
 535:Generated_Source\PSoC4/I2C_LED.c ****         #else
 536:Generated_Source\PSoC4/I2C_LED.c ****         #endif /* (I2C_LED_RX_SCL_MOSI_PIN) */
 537:Generated_Source\PSoC4/I2C_LED.c ****         
 538:Generated_Source\PSoC4/I2C_LED.c ****         #if (I2C_LED_TX_SDA_MISO_PIN)
 539:Generated_Source\PSoC4/I2C_LED.c ****             hsiomSel[I2C_LED_TX_SDA_MISO_PIN_INDEX] = I2C_LED_TX_SDA_MISO_HSIOM_SEL_SPI;
 540:Generated_Source\PSoC4/I2C_LED.c ****         #endif /* (I2C_LED_TX_SDA_MISO_PIN) */
 541:Generated_Source\PSoC4/I2C_LED.c ****         
 542:Generated_Source\PSoC4/I2C_LED.c ****         #if (I2C_LED_SCLK_PIN)
 543:Generated_Source\PSoC4/I2C_LED.c ****             hsiomSel[I2C_LED_SCLK_PIN_INDEX] = I2C_LED_SCLK_HSIOM_SEL_SPI;
 544:Generated_Source\PSoC4/I2C_LED.c ****         #endif /* (I2C_LED_SCLK_PIN) */
 545:Generated_Source\PSoC4/I2C_LED.c **** 
 546:Generated_Source\PSoC4/I2C_LED.c ****             if (I2C_LED_SPI_SLAVE == subMode)
 547:Generated_Source\PSoC4/I2C_LED.c ****             {
 548:Generated_Source\PSoC4/I2C_LED.c ****                 /* Slave */
 549:Generated_Source\PSoC4/I2C_LED.c ****                 pinsDm[I2C_LED_RX_SCL_MOSI_PIN_INDEX] = I2C_LED_PIN_DM_DIG_HIZ;
 550:Generated_Source\PSoC4/I2C_LED.c ****                 pinsDm[I2C_LED_TX_SDA_MISO_PIN_INDEX] = I2C_LED_PIN_DM_STRONG;
 551:Generated_Source\PSoC4/I2C_LED.c ****                 pinsDm[I2C_LED_SCLK_PIN_INDEX] = I2C_LED_PIN_DM_DIG_HIZ;
 552:Generated_Source\PSoC4/I2C_LED.c **** 
 553:Generated_Source\PSoC4/I2C_LED.c ****             #if (I2C_LED_SS0_PIN)
 554:Generated_Source\PSoC4/I2C_LED.c ****                 /* Only SS0 is valid choice for Slave */
 555:Generated_Source\PSoC4/I2C_LED.c ****                 hsiomSel[I2C_LED_SS0_PIN_INDEX] = I2C_LED_SS0_HSIOM_SEL_SPI;
 556:Generated_Source\PSoC4/I2C_LED.c ****                 pinsDm  [I2C_LED_SS0_PIN_INDEX] = I2C_LED_PIN_DM_DIG_HIZ;
 557:Generated_Source\PSoC4/I2C_LED.c ****             #endif /* (I2C_LED_SS0_PIN) */
 558:Generated_Source\PSoC4/I2C_LED.c **** 
 559:Generated_Source\PSoC4/I2C_LED.c ****             #if (I2C_LED_TX_SDA_MISO_PIN)
 560:Generated_Source\PSoC4/I2C_LED.c ****                 /* Disable input buffer */
 561:Generated_Source\PSoC4/I2C_LED.c ****                  pinsInBuf |= I2C_LED_TX_SDA_MISO_PIN_MASK;
 562:Generated_Source\PSoC4/I2C_LED.c ****             #endif /* (I2C_LED_TX_SDA_MISO_PIN) */
 563:Generated_Source\PSoC4/I2C_LED.c ****             }
 564:Generated_Source\PSoC4/I2C_LED.c ****             else 
 565:Generated_Source\PSoC4/I2C_LED.c ****             {
 566:Generated_Source\PSoC4/I2C_LED.c ****                 /* (Master) */
 567:Generated_Source\PSoC4/I2C_LED.c ****                 pinsDm[I2C_LED_RX_SCL_MOSI_PIN_INDEX] = I2C_LED_PIN_DM_STRONG;
 568:Generated_Source\PSoC4/I2C_LED.c ****                 pinsDm[I2C_LED_TX_SDA_MISO_PIN_INDEX] = I2C_LED_PIN_DM_DIG_HIZ;
ARM GAS  C:\Users\ilya\AppData\Local\Temp\cclmVfrQ.s 			page 17


 569:Generated_Source\PSoC4/I2C_LED.c ****                 pinsDm[I2C_LED_SCLK_PIN_INDEX] = I2C_LED_PIN_DM_STRONG;
 570:Generated_Source\PSoC4/I2C_LED.c **** 
 571:Generated_Source\PSoC4/I2C_LED.c ****             #if (I2C_LED_SS0_PIN)
 572:Generated_Source\PSoC4/I2C_LED.c ****                 hsiomSel [I2C_LED_SS0_PIN_INDEX] = I2C_LED_SS0_HSIOM_SEL_SPI;
 573:Generated_Source\PSoC4/I2C_LED.c ****                 pinsDm   [I2C_LED_SS0_PIN_INDEX] = I2C_LED_PIN_DM_STRONG;
 574:Generated_Source\PSoC4/I2C_LED.c ****                 pinsInBuf |= I2C_LED_SS0_PIN_MASK;
 575:Generated_Source\PSoC4/I2C_LED.c ****             #endif /* (I2C_LED_SS0_PIN) */
 576:Generated_Source\PSoC4/I2C_LED.c **** 
 577:Generated_Source\PSoC4/I2C_LED.c ****             #if (I2C_LED_SS1_PIN)
 578:Generated_Source\PSoC4/I2C_LED.c ****                 hsiomSel [I2C_LED_SS1_PIN_INDEX] = I2C_LED_SS1_HSIOM_SEL_SPI;
 579:Generated_Source\PSoC4/I2C_LED.c ****                 pinsDm   [I2C_LED_SS1_PIN_INDEX] = I2C_LED_PIN_DM_STRONG;
 580:Generated_Source\PSoC4/I2C_LED.c ****                 pinsInBuf |= I2C_LED_SS1_PIN_MASK;
 581:Generated_Source\PSoC4/I2C_LED.c ****             #endif /* (I2C_LED_SS1_PIN) */
 582:Generated_Source\PSoC4/I2C_LED.c **** 
 583:Generated_Source\PSoC4/I2C_LED.c ****             #if (I2C_LED_SS2_PIN)
 584:Generated_Source\PSoC4/I2C_LED.c ****                 hsiomSel [I2C_LED_SS2_PIN_INDEX] = I2C_LED_SS2_HSIOM_SEL_SPI;
 585:Generated_Source\PSoC4/I2C_LED.c ****                 pinsDm   [I2C_LED_SS2_PIN_INDEX] = I2C_LED_PIN_DM_STRONG;
 586:Generated_Source\PSoC4/I2C_LED.c ****                 pinsInBuf |= I2C_LED_SS2_PIN_MASK;
 587:Generated_Source\PSoC4/I2C_LED.c ****             #endif /* (I2C_LED_SS2_PIN) */
 588:Generated_Source\PSoC4/I2C_LED.c **** 
 589:Generated_Source\PSoC4/I2C_LED.c ****             #if (I2C_LED_SS3_PIN)
 590:Generated_Source\PSoC4/I2C_LED.c ****                 hsiomSel [I2C_LED_SS3_PIN_INDEX] = I2C_LED_SS3_HSIOM_SEL_SPI;
 591:Generated_Source\PSoC4/I2C_LED.c ****                 pinsDm   [I2C_LED_SS3_PIN_INDEX] = I2C_LED_PIN_DM_STRONG;
 592:Generated_Source\PSoC4/I2C_LED.c ****                 pinsInBuf |= I2C_LED_SS3_PIN_MASK;
 593:Generated_Source\PSoC4/I2C_LED.c ****             #endif /* (I2C_LED_SS3_PIN) */
 594:Generated_Source\PSoC4/I2C_LED.c **** 
 595:Generated_Source\PSoC4/I2C_LED.c ****                 /* Disable input buffers */
 596:Generated_Source\PSoC4/I2C_LED.c ****             #if (I2C_LED_RX_SCL_MOSI_PIN)
 597:Generated_Source\PSoC4/I2C_LED.c ****                 pinsInBuf |= I2C_LED_RX_SCL_MOSI_PIN_MASK;
 598:Generated_Source\PSoC4/I2C_LED.c ****             #elif (I2C_LED_RX_WAKE_SCL_MOSI_PIN)
 599:Generated_Source\PSoC4/I2C_LED.c ****                 pinsInBuf |= I2C_LED_RX_WAKE_SCL_MOSI_PIN_MASK;
 600:Generated_Source\PSoC4/I2C_LED.c ****             #else
 601:Generated_Source\PSoC4/I2C_LED.c ****             #endif /* (I2C_LED_RX_SCL_MOSI_PIN) */
 602:Generated_Source\PSoC4/I2C_LED.c **** 
 603:Generated_Source\PSoC4/I2C_LED.c ****             #if (I2C_LED_SCLK_PIN)
 604:Generated_Source\PSoC4/I2C_LED.c ****                 pinsInBuf |= I2C_LED_SCLK_PIN_MASK;
 605:Generated_Source\PSoC4/I2C_LED.c ****             #endif /* (I2C_LED_SCLK_PIN) */
 606:Generated_Source\PSoC4/I2C_LED.c ****             }
 607:Generated_Source\PSoC4/I2C_LED.c ****         }
 608:Generated_Source\PSoC4/I2C_LED.c ****         else /* UART */
 609:Generated_Source\PSoC4/I2C_LED.c ****         {
 610:Generated_Source\PSoC4/I2C_LED.c ****             if (I2C_LED_UART_MODE_SMARTCARD == subMode)
 611:Generated_Source\PSoC4/I2C_LED.c ****             {
 612:Generated_Source\PSoC4/I2C_LED.c ****                 /* SmartCard */
 613:Generated_Source\PSoC4/I2C_LED.c ****             #if (I2C_LED_TX_SDA_MISO_PIN)
 614:Generated_Source\PSoC4/I2C_LED.c ****                 hsiomSel[I2C_LED_TX_SDA_MISO_PIN_INDEX] = I2C_LED_TX_SDA_MISO_HSIOM_SEL_UART;
 615:Generated_Source\PSoC4/I2C_LED.c ****                 pinsDm  [I2C_LED_TX_SDA_MISO_PIN_INDEX] = I2C_LED_PIN_DM_OD_LO;
 616:Generated_Source\PSoC4/I2C_LED.c ****             #endif /* (I2C_LED_TX_SDA_MISO_PIN) */
 617:Generated_Source\PSoC4/I2C_LED.c ****             }
 618:Generated_Source\PSoC4/I2C_LED.c ****             else /* Standard or IrDA */
 619:Generated_Source\PSoC4/I2C_LED.c ****             {
 620:Generated_Source\PSoC4/I2C_LED.c ****                 if (0u != (I2C_LED_UART_RX_PIN_ENABLE & uartEnableMask))
 621:Generated_Source\PSoC4/I2C_LED.c ****                 {
 622:Generated_Source\PSoC4/I2C_LED.c ****                 #if (I2C_LED_RX_SCL_MOSI_PIN)
 623:Generated_Source\PSoC4/I2C_LED.c ****                     hsiomSel[I2C_LED_RX_SCL_MOSI_PIN_INDEX] = I2C_LED_RX_SCL_MOSI_HSIOM_SEL_UART;
 624:Generated_Source\PSoC4/I2C_LED.c ****                     pinsDm  [I2C_LED_RX_SCL_MOSI_PIN_INDEX] = I2C_LED_PIN_DM_DIG_HIZ;
 625:Generated_Source\PSoC4/I2C_LED.c ****                 #elif (I2C_LED_RX_WAKE_SCL_MOSI_PIN)
ARM GAS  C:\Users\ilya\AppData\Local\Temp\cclmVfrQ.s 			page 18


 626:Generated_Source\PSoC4/I2C_LED.c ****                     hsiomSel[I2C_LED_RX_WAKE_SCL_MOSI_PIN_INDEX] = I2C_LED_RX_WAKE_SCL_MOSI_HSIOM_S
 627:Generated_Source\PSoC4/I2C_LED.c ****                     pinsDm  [I2C_LED_RX_WAKE_SCL_MOSI_PIN_INDEX] = I2C_LED_PIN_DM_DIG_HIZ;
 628:Generated_Source\PSoC4/I2C_LED.c ****                 #else
 629:Generated_Source\PSoC4/I2C_LED.c ****                 #endif /* (I2C_LED_RX_SCL_MOSI_PIN) */
 630:Generated_Source\PSoC4/I2C_LED.c ****                 }
 631:Generated_Source\PSoC4/I2C_LED.c **** 
 632:Generated_Source\PSoC4/I2C_LED.c ****                 if (0u != (I2C_LED_UART_TX_PIN_ENABLE & uartEnableMask))
 633:Generated_Source\PSoC4/I2C_LED.c ****                 {
 634:Generated_Source\PSoC4/I2C_LED.c ****                 #if (I2C_LED_TX_SDA_MISO_PIN)
 635:Generated_Source\PSoC4/I2C_LED.c ****                     hsiomSel[I2C_LED_TX_SDA_MISO_PIN_INDEX] = I2C_LED_TX_SDA_MISO_HSIOM_SEL_UART;
 636:Generated_Source\PSoC4/I2C_LED.c ****                     pinsDm  [I2C_LED_TX_SDA_MISO_PIN_INDEX] = I2C_LED_PIN_DM_STRONG;
 637:Generated_Source\PSoC4/I2C_LED.c ****                     
 638:Generated_Source\PSoC4/I2C_LED.c ****                     /* Disable input buffer */
 639:Generated_Source\PSoC4/I2C_LED.c ****                     pinsInBuf |= I2C_LED_TX_SDA_MISO_PIN_MASK;
 640:Generated_Source\PSoC4/I2C_LED.c ****                 #endif /* (I2C_LED_TX_SDA_MISO_PIN) */
 641:Generated_Source\PSoC4/I2C_LED.c ****                 }
 642:Generated_Source\PSoC4/I2C_LED.c **** 
 643:Generated_Source\PSoC4/I2C_LED.c ****             #if !(I2C_LED_CY_SCBIP_V0 || I2C_LED_CY_SCBIP_V1)
 644:Generated_Source\PSoC4/I2C_LED.c ****                 if (I2C_LED_UART_MODE_STD == subMode)
 645:Generated_Source\PSoC4/I2C_LED.c ****                 {
 646:Generated_Source\PSoC4/I2C_LED.c ****                     if (0u != (I2C_LED_UART_CTS_PIN_ENABLE & uartEnableMask))
 647:Generated_Source\PSoC4/I2C_LED.c ****                     {
 648:Generated_Source\PSoC4/I2C_LED.c ****                         /* CTS input is multiplexed with SCLK */
 649:Generated_Source\PSoC4/I2C_LED.c ****                     #if (I2C_LED_SCLK_PIN)
 650:Generated_Source\PSoC4/I2C_LED.c ****                         hsiomSel[I2C_LED_SCLK_PIN_INDEX] = I2C_LED_SCLK_HSIOM_SEL_UART;
 651:Generated_Source\PSoC4/I2C_LED.c ****                         pinsDm  [I2C_LED_SCLK_PIN_INDEX] = I2C_LED_PIN_DM_DIG_HIZ;
 652:Generated_Source\PSoC4/I2C_LED.c ****                     #endif /* (I2C_LED_SCLK_PIN) */
 653:Generated_Source\PSoC4/I2C_LED.c ****                     }
 654:Generated_Source\PSoC4/I2C_LED.c **** 
 655:Generated_Source\PSoC4/I2C_LED.c ****                     if (0u != (I2C_LED_UART_RTS_PIN_ENABLE & uartEnableMask))
 656:Generated_Source\PSoC4/I2C_LED.c ****                     {
 657:Generated_Source\PSoC4/I2C_LED.c ****                         /* RTS output is multiplexed with SS0 */
 658:Generated_Source\PSoC4/I2C_LED.c ****                     #if (I2C_LED_SS0_PIN)
 659:Generated_Source\PSoC4/I2C_LED.c ****                         hsiomSel[I2C_LED_SS0_PIN_INDEX] = I2C_LED_SS0_HSIOM_SEL_UART;
 660:Generated_Source\PSoC4/I2C_LED.c ****                         pinsDm  [I2C_LED_SS0_PIN_INDEX] = I2C_LED_PIN_DM_STRONG;
 661:Generated_Source\PSoC4/I2C_LED.c ****                         
 662:Generated_Source\PSoC4/I2C_LED.c ****                         /* Disable input buffer */
 663:Generated_Source\PSoC4/I2C_LED.c ****                         pinsInBuf |= I2C_LED_SS0_PIN_MASK;
 664:Generated_Source\PSoC4/I2C_LED.c ****                     #endif /* (I2C_LED_SS0_PIN) */
 665:Generated_Source\PSoC4/I2C_LED.c ****                     }
 666:Generated_Source\PSoC4/I2C_LED.c ****                 }
 667:Generated_Source\PSoC4/I2C_LED.c ****             #endif /* !(I2C_LED_CY_SCBIP_V0 || I2C_LED_CY_SCBIP_V1) */
 668:Generated_Source\PSoC4/I2C_LED.c ****             }
 669:Generated_Source\PSoC4/I2C_LED.c ****         }
 670:Generated_Source\PSoC4/I2C_LED.c ****     #endif /* (!I2C_LED_CY_SCBIP_V1) */
 671:Generated_Source\PSoC4/I2C_LED.c **** 
 672:Generated_Source\PSoC4/I2C_LED.c ****     /* Configure pins: set HSIOM, DM and InputBufEnable */
 673:Generated_Source\PSoC4/I2C_LED.c ****     /* Note: the DR register settings do not effect the pin output if HSIOM is other than GPIO */
 674:Generated_Source\PSoC4/I2C_LED.c **** 
 675:Generated_Source\PSoC4/I2C_LED.c ****     #if (I2C_LED_RX_SCL_MOSI_PIN)
 676:Generated_Source\PSoC4/I2C_LED.c ****         I2C_LED_SET_HSIOM_SEL(I2C_LED_RX_SCL_MOSI_HSIOM_REG,
 677:Generated_Source\PSoC4/I2C_LED.c ****                                        I2C_LED_RX_SCL_MOSI_HSIOM_MASK,
 678:Generated_Source\PSoC4/I2C_LED.c ****                                        I2C_LED_RX_SCL_MOSI_HSIOM_POS,
 679:Generated_Source\PSoC4/I2C_LED.c ****                                         hsiomSel[I2C_LED_RX_SCL_MOSI_PIN_INDEX]);
 680:Generated_Source\PSoC4/I2C_LED.c **** 
 681:Generated_Source\PSoC4/I2C_LED.c ****         I2C_LED_uart_rx_i2c_scl_spi_mosi_SetDriveMode((uint8) pinsDm[I2C_LED_RX_SCL_MOSI_PIN_INDEX]
 682:Generated_Source\PSoC4/I2C_LED.c **** 
ARM GAS  C:\Users\ilya\AppData\Local\Temp\cclmVfrQ.s 			page 19


 683:Generated_Source\PSoC4/I2C_LED.c ****         #if (!I2C_LED_CY_SCBIP_V1)
 684:Generated_Source\PSoC4/I2C_LED.c ****             I2C_LED_SET_INP_DIS(I2C_LED_uart_rx_i2c_scl_spi_mosi_INP_DIS,
 685:Generated_Source\PSoC4/I2C_LED.c ****                                          I2C_LED_uart_rx_i2c_scl_spi_mosi_MASK,
 686:Generated_Source\PSoC4/I2C_LED.c ****                                          (0u != (pinsInBuf & I2C_LED_RX_SCL_MOSI_PIN_MASK)));
 687:Generated_Source\PSoC4/I2C_LED.c ****         #endif /* (!I2C_LED_CY_SCBIP_V1) */
 688:Generated_Source\PSoC4/I2C_LED.c ****     
 689:Generated_Source\PSoC4/I2C_LED.c ****     #elif (I2C_LED_RX_WAKE_SCL_MOSI_PIN)
 690:Generated_Source\PSoC4/I2C_LED.c ****         I2C_LED_SET_HSIOM_SEL(I2C_LED_RX_WAKE_SCL_MOSI_HSIOM_REG,
 691:Generated_Source\PSoC4/I2C_LED.c ****                                        I2C_LED_RX_WAKE_SCL_MOSI_HSIOM_MASK,
 692:Generated_Source\PSoC4/I2C_LED.c ****                                        I2C_LED_RX_WAKE_SCL_MOSI_HSIOM_POS,
 693:Generated_Source\PSoC4/I2C_LED.c ****                                        hsiomSel[I2C_LED_RX_WAKE_SCL_MOSI_PIN_INDEX]);
 694:Generated_Source\PSoC4/I2C_LED.c **** 
 695:Generated_Source\PSoC4/I2C_LED.c ****         I2C_LED_uart_rx_wake_i2c_scl_spi_mosi_SetDriveMode((uint8)
 696:Generated_Source\PSoC4/I2C_LED.c ****                                                                pinsDm[I2C_LED_RX_WAKE_SCL_MOSI_PIN_
 697:Generated_Source\PSoC4/I2C_LED.c **** 
 698:Generated_Source\PSoC4/I2C_LED.c ****         I2C_LED_SET_INP_DIS(I2C_LED_uart_rx_wake_i2c_scl_spi_mosi_INP_DIS,
 699:Generated_Source\PSoC4/I2C_LED.c ****                                      I2C_LED_uart_rx_wake_i2c_scl_spi_mosi_MASK,
 700:Generated_Source\PSoC4/I2C_LED.c ****                                      (0u != (pinsInBuf & I2C_LED_RX_WAKE_SCL_MOSI_PIN_MASK)));
 701:Generated_Source\PSoC4/I2C_LED.c **** 
 702:Generated_Source\PSoC4/I2C_LED.c ****          /* Set interrupt on falling edge */
 703:Generated_Source\PSoC4/I2C_LED.c ****         I2C_LED_SET_INCFG_TYPE(I2C_LED_RX_WAKE_SCL_MOSI_INTCFG_REG,
 704:Generated_Source\PSoC4/I2C_LED.c ****                                         I2C_LED_RX_WAKE_SCL_MOSI_INTCFG_TYPE_MASK,
 705:Generated_Source\PSoC4/I2C_LED.c ****                                         I2C_LED_RX_WAKE_SCL_MOSI_INTCFG_TYPE_POS,
 706:Generated_Source\PSoC4/I2C_LED.c ****                                         I2C_LED_INTCFG_TYPE_FALLING_EDGE);
 707:Generated_Source\PSoC4/I2C_LED.c ****     #else
 708:Generated_Source\PSoC4/I2C_LED.c ****     #endif /* (I2C_LED_RX_WAKE_SCL_MOSI_PIN) */
 709:Generated_Source\PSoC4/I2C_LED.c **** 
 710:Generated_Source\PSoC4/I2C_LED.c ****     #if (I2C_LED_TX_SDA_MISO_PIN)
 711:Generated_Source\PSoC4/I2C_LED.c ****         I2C_LED_SET_HSIOM_SEL(I2C_LED_TX_SDA_MISO_HSIOM_REG,
 712:Generated_Source\PSoC4/I2C_LED.c ****                                        I2C_LED_TX_SDA_MISO_HSIOM_MASK,
 713:Generated_Source\PSoC4/I2C_LED.c ****                                        I2C_LED_TX_SDA_MISO_HSIOM_POS,
 714:Generated_Source\PSoC4/I2C_LED.c ****                                         hsiomSel[I2C_LED_TX_SDA_MISO_PIN_INDEX]);
 715:Generated_Source\PSoC4/I2C_LED.c **** 
 716:Generated_Source\PSoC4/I2C_LED.c ****         I2C_LED_uart_tx_i2c_sda_spi_miso_SetDriveMode((uint8) pinsDm[I2C_LED_TX_SDA_MISO_PIN_INDEX]
 717:Generated_Source\PSoC4/I2C_LED.c **** 
 718:Generated_Source\PSoC4/I2C_LED.c ****     #if (!I2C_LED_CY_SCBIP_V1)
 719:Generated_Source\PSoC4/I2C_LED.c ****         I2C_LED_SET_INP_DIS(I2C_LED_uart_tx_i2c_sda_spi_miso_INP_DIS,
 720:Generated_Source\PSoC4/I2C_LED.c ****                                      I2C_LED_uart_tx_i2c_sda_spi_miso_MASK,
 721:Generated_Source\PSoC4/I2C_LED.c ****                                     (0u != (pinsInBuf & I2C_LED_TX_SDA_MISO_PIN_MASK)));
 722:Generated_Source\PSoC4/I2C_LED.c ****     #endif /* (!I2C_LED_CY_SCBIP_V1) */
 723:Generated_Source\PSoC4/I2C_LED.c ****     #endif /* (I2C_LED_RX_SCL_MOSI_PIN) */
 724:Generated_Source\PSoC4/I2C_LED.c **** 
 725:Generated_Source\PSoC4/I2C_LED.c ****     #if (I2C_LED_SCLK_PIN)
 726:Generated_Source\PSoC4/I2C_LED.c ****         I2C_LED_SET_HSIOM_SEL(I2C_LED_SCLK_HSIOM_REG,
 727:Generated_Source\PSoC4/I2C_LED.c ****                                        I2C_LED_SCLK_HSIOM_MASK,
 728:Generated_Source\PSoC4/I2C_LED.c ****                                        I2C_LED_SCLK_HSIOM_POS,
 729:Generated_Source\PSoC4/I2C_LED.c ****                                        hsiomSel[I2C_LED_SCLK_PIN_INDEX]);
 730:Generated_Source\PSoC4/I2C_LED.c **** 
 731:Generated_Source\PSoC4/I2C_LED.c ****         I2C_LED_spi_sclk_SetDriveMode((uint8) pinsDm[I2C_LED_SCLK_PIN_INDEX]);
 732:Generated_Source\PSoC4/I2C_LED.c **** 
 733:Generated_Source\PSoC4/I2C_LED.c ****         I2C_LED_SET_INP_DIS(I2C_LED_spi_sclk_INP_DIS,
 734:Generated_Source\PSoC4/I2C_LED.c ****                                      I2C_LED_spi_sclk_MASK,
 735:Generated_Source\PSoC4/I2C_LED.c ****                                      (0u != (pinsInBuf & I2C_LED_SCLK_PIN_MASK)));
 736:Generated_Source\PSoC4/I2C_LED.c ****     #endif /* (I2C_LED_SCLK_PIN) */
 737:Generated_Source\PSoC4/I2C_LED.c **** 
 738:Generated_Source\PSoC4/I2C_LED.c ****     #if (I2C_LED_SS0_PIN)
 739:Generated_Source\PSoC4/I2C_LED.c ****         I2C_LED_SET_HSIOM_SEL(I2C_LED_SS0_HSIOM_REG,
ARM GAS  C:\Users\ilya\AppData\Local\Temp\cclmVfrQ.s 			page 20


 740:Generated_Source\PSoC4/I2C_LED.c ****                                        I2C_LED_SS0_HSIOM_MASK,
 741:Generated_Source\PSoC4/I2C_LED.c ****                                        I2C_LED_SS0_HSIOM_POS,
 742:Generated_Source\PSoC4/I2C_LED.c ****                                        hsiomSel[I2C_LED_SS0_PIN_INDEX]);
 743:Generated_Source\PSoC4/I2C_LED.c **** 
 744:Generated_Source\PSoC4/I2C_LED.c ****         I2C_LED_spi_ss0_SetDriveMode((uint8) pinsDm[I2C_LED_SS0_PIN_INDEX]);
 745:Generated_Source\PSoC4/I2C_LED.c **** 
 746:Generated_Source\PSoC4/I2C_LED.c ****         I2C_LED_SET_INP_DIS(I2C_LED_spi_ss0_INP_DIS,
 747:Generated_Source\PSoC4/I2C_LED.c ****                                      I2C_LED_spi_ss0_MASK,
 748:Generated_Source\PSoC4/I2C_LED.c ****                                      (0u != (pinsInBuf & I2C_LED_SS0_PIN_MASK)));
 749:Generated_Source\PSoC4/I2C_LED.c ****     #endif /* (I2C_LED_SS0_PIN) */
 750:Generated_Source\PSoC4/I2C_LED.c **** 
 751:Generated_Source\PSoC4/I2C_LED.c ****     #if (I2C_LED_SS1_PIN)
 752:Generated_Source\PSoC4/I2C_LED.c ****         I2C_LED_SET_HSIOM_SEL(I2C_LED_SS1_HSIOM_REG,
 753:Generated_Source\PSoC4/I2C_LED.c ****                                        I2C_LED_SS1_HSIOM_MASK,
 754:Generated_Source\PSoC4/I2C_LED.c ****                                        I2C_LED_SS1_HSIOM_POS,
 755:Generated_Source\PSoC4/I2C_LED.c ****                                        hsiomSel[I2C_LED_SS1_PIN_INDEX]);
 756:Generated_Source\PSoC4/I2C_LED.c **** 
 757:Generated_Source\PSoC4/I2C_LED.c ****         I2C_LED_spi_ss1_SetDriveMode((uint8) pinsDm[I2C_LED_SS1_PIN_INDEX]);
 758:Generated_Source\PSoC4/I2C_LED.c **** 
 759:Generated_Source\PSoC4/I2C_LED.c ****         I2C_LED_SET_INP_DIS(I2C_LED_spi_ss1_INP_DIS,
 760:Generated_Source\PSoC4/I2C_LED.c ****                                      I2C_LED_spi_ss1_MASK,
 761:Generated_Source\PSoC4/I2C_LED.c ****                                      (0u != (pinsInBuf & I2C_LED_SS1_PIN_MASK)));
 762:Generated_Source\PSoC4/I2C_LED.c ****     #endif /* (I2C_LED_SS1_PIN) */
 763:Generated_Source\PSoC4/I2C_LED.c **** 
 764:Generated_Source\PSoC4/I2C_LED.c ****     #if (I2C_LED_SS2_PIN)
 765:Generated_Source\PSoC4/I2C_LED.c ****         I2C_LED_SET_HSIOM_SEL(I2C_LED_SS2_HSIOM_REG,
 766:Generated_Source\PSoC4/I2C_LED.c ****                                        I2C_LED_SS2_HSIOM_MASK,
 767:Generated_Source\PSoC4/I2C_LED.c ****                                        I2C_LED_SS2_HSIOM_POS,
 768:Generated_Source\PSoC4/I2C_LED.c ****                                        hsiomSel[I2C_LED_SS2_PIN_INDEX]);
 769:Generated_Source\PSoC4/I2C_LED.c **** 
 770:Generated_Source\PSoC4/I2C_LED.c ****         I2C_LED_spi_ss2_SetDriveMode((uint8) pinsDm[I2C_LED_SS2_PIN_INDEX]);
 771:Generated_Source\PSoC4/I2C_LED.c **** 
 772:Generated_Source\PSoC4/I2C_LED.c ****         I2C_LED_SET_INP_DIS(I2C_LED_spi_ss2_INP_DIS,
 773:Generated_Source\PSoC4/I2C_LED.c ****                                      I2C_LED_spi_ss2_MASK,
 774:Generated_Source\PSoC4/I2C_LED.c ****                                      (0u != (pinsInBuf & I2C_LED_SS2_PIN_MASK)));
 775:Generated_Source\PSoC4/I2C_LED.c ****     #endif /* (I2C_LED_SS2_PIN) */
 776:Generated_Source\PSoC4/I2C_LED.c **** 
 777:Generated_Source\PSoC4/I2C_LED.c ****     #if (I2C_LED_SS3_PIN)
 778:Generated_Source\PSoC4/I2C_LED.c ****         I2C_LED_SET_HSIOM_SEL(I2C_LED_SS3_HSIOM_REG,
 779:Generated_Source\PSoC4/I2C_LED.c ****                                        I2C_LED_SS3_HSIOM_MASK,
 780:Generated_Source\PSoC4/I2C_LED.c ****                                        I2C_LED_SS3_HSIOM_POS,
 781:Generated_Source\PSoC4/I2C_LED.c ****                                        hsiomSel[I2C_LED_SS3_PIN_INDEX]);
 782:Generated_Source\PSoC4/I2C_LED.c **** 
 783:Generated_Source\PSoC4/I2C_LED.c ****         I2C_LED_spi_ss3_SetDriveMode((uint8) pinsDm[I2C_LED_SS3_PIN_INDEX]);
 784:Generated_Source\PSoC4/I2C_LED.c **** 
 785:Generated_Source\PSoC4/I2C_LED.c ****         I2C_LED_SET_INP_DIS(I2C_LED_spi_ss3_INP_DIS,
 786:Generated_Source\PSoC4/I2C_LED.c ****                                      I2C_LED_spi_ss3_MASK,
 787:Generated_Source\PSoC4/I2C_LED.c ****                                      (0u != (pinsInBuf & I2C_LED_SS3_PIN_MASK)));
 788:Generated_Source\PSoC4/I2C_LED.c ****     #endif /* (I2C_LED_SS3_PIN) */
 789:Generated_Source\PSoC4/I2C_LED.c ****     }
 790:Generated_Source\PSoC4/I2C_LED.c **** 
 791:Generated_Source\PSoC4/I2C_LED.c **** #endif /* (I2C_LED_SCB_MODE_UNCONFIG_CONST_CFG) */
 792:Generated_Source\PSoC4/I2C_LED.c **** 
 793:Generated_Source\PSoC4/I2C_LED.c **** 
 794:Generated_Source\PSoC4/I2C_LED.c **** #if (I2C_LED_CY_SCBIP_V0 || I2C_LED_CY_SCBIP_V1)
 795:Generated_Source\PSoC4/I2C_LED.c ****     /*******************************************************************************
 796:Generated_Source\PSoC4/I2C_LED.c ****     * Function Name: I2C_LED_I2CSlaveNackGeneration
ARM GAS  C:\Users\ilya\AppData\Local\Temp\cclmVfrQ.s 			page 21


 797:Generated_Source\PSoC4/I2C_LED.c ****     ****************************************************************************//**
 798:Generated_Source\PSoC4/I2C_LED.c ****     *
 799:Generated_Source\PSoC4/I2C_LED.c ****     *  Sets command to generate NACK to the address or data.
 800:Generated_Source\PSoC4/I2C_LED.c ****     *
 801:Generated_Source\PSoC4/I2C_LED.c ****     *******************************************************************************/
 802:Generated_Source\PSoC4/I2C_LED.c ****     void I2C_LED_I2CSlaveNackGeneration(void)
 803:Generated_Source\PSoC4/I2C_LED.c ****     {
 310              		.loc 1 803 0
 311              		.cfi_startproc
 804:Generated_Source\PSoC4/I2C_LED.c ****         /* Check for EC_AM toggle condition: EC_AM and clock stretching for address are enabled */
 805:Generated_Source\PSoC4/I2C_LED.c ****         if ((0u != (I2C_LED_CTRL_REG & I2C_LED_CTRL_EC_AM_MODE)) &&
 312              		.loc 1 805 0
 313 0000 0A4B     		ldr	r3, .L25
 314 0002 1B68     		ldr	r3, [r3]
 315 0004 DB05     		lsl	r3, r3, #23
 316 0006 0DD5     		bpl	.L24
 806:Generated_Source\PSoC4/I2C_LED.c ****             (0u == (I2C_LED_I2C_CTRL_REG & I2C_LED_I2C_CTRL_S_NOT_READY_ADDR_NACK)))
 317              		.loc 1 806 0 discriminator 1
 318 0008 094B     		ldr	r3, .L25+4
 319 000a 1B68     		ldr	r3, [r3]
 805:Generated_Source\PSoC4/I2C_LED.c ****             (0u == (I2C_LED_I2C_CTRL_REG & I2C_LED_I2C_CTRL_S_NOT_READY_ADDR_NACK)))
 320              		.loc 1 805 0 discriminator 1
 321 000c 5B04     		lsl	r3, r3, #17
 322 000e 09D4     		bmi	.L24
 807:Generated_Source\PSoC4/I2C_LED.c ****         {
 808:Generated_Source\PSoC4/I2C_LED.c ****             /* Toggle EC_AM before NACK generation */
 809:Generated_Source\PSoC4/I2C_LED.c ****             I2C_LED_CTRL_REG &= ~I2C_LED_CTRL_EC_AM_MODE;
 323              		.loc 1 809 0
 324 0010 064B     		ldr	r3, .L25
 325 0012 1968     		ldr	r1, [r3]
 326 0014 074A     		ldr	r2, .L25+8
 327 0016 0A40     		and	r2, r1
 328 0018 1A60     		str	r2, [r3]
 810:Generated_Source\PSoC4/I2C_LED.c ****             I2C_LED_CTRL_REG |=  I2C_LED_CTRL_EC_AM_MODE;
 329              		.loc 1 810 0
 330 001a 1A68     		ldr	r2, [r3]
 331 001c 8021     		mov	r1, #128
 332 001e 4900     		lsl	r1, r1, #1
 333 0020 0A43     		orr	r2, r1
 334 0022 1A60     		str	r2, [r3]
 335              	.L24:
 811:Generated_Source\PSoC4/I2C_LED.c ****         }
 812:Generated_Source\PSoC4/I2C_LED.c **** 
 813:Generated_Source\PSoC4/I2C_LED.c ****         I2C_LED_I2C_SLAVE_CMD_REG = I2C_LED_I2C_SLAVE_CMD_S_NACK;
 336              		.loc 1 813 0
 337 0024 0222     		mov	r2, #2
 338 0026 044B     		ldr	r3, .L25+12
 339 0028 1A60     		str	r2, [r3]
 814:Generated_Source\PSoC4/I2C_LED.c ****     }
 340              		.loc 1 814 0
 341              		@ sp needed
 342 002a 7047     		bx	lr
 343              	.L26:
 344              		.align	2
 345              	.L25:
 346 002c 00000640 		.word	1074135040
 347 0030 60000640 		.word	1074135136
ARM GAS  C:\Users\ilya\AppData\Local\Temp\cclmVfrQ.s 			page 22


 348 0034 FFFEFFFF 		.word	-257
 349 0038 6C000640 		.word	1074135148
 350              		.cfi_endproc
 351              	.LFE10:
 352              		.size	I2C_LED_I2CSlaveNackGeneration, .-I2C_LED_I2CSlaveNackGeneration
 353              		.global	I2C_LED_customIntrHandler
 354              		.global	I2C_LED_initVar
 355              		.bss
 356              		.align	2
 357              		.set	.LANCHOR0,. + 0
 358              		.type	I2C_LED_initVar, %object
 359              		.size	I2C_LED_initVar, 1
 360              	I2C_LED_initVar:
 361 0000 00       		.space	1
 362 0001 000000   		.space	3
 363              		.type	I2C_LED_customIntrHandler, %object
 364              		.size	I2C_LED_customIntrHandler, 4
 365              	I2C_LED_customIntrHandler:
 366 0004 00000000 		.space	4
 367              		.text
 368              	.Letext0:
 369              		.file 2 "Generated_Source\\PSoC4/cytypes.h"
 370              		.file 3 "Generated_Source\\PSoC4\\I2C_LED_I2C_PVT.h"
 371              		.file 4 "Generated_Source\\PSoC4/CyLib.h"