
C:\Users\Caleb\Documents\Ride\projects\CHR6dmRelease\misc.o:     file format elf32-littlearm
C:\Users\Caleb\Documents\Ride\projects\CHR6dmRelease\misc.o

Disassembly of section .text.NVIC_PriorityGroupConfig:

00000000 <NVIC_PriorityGroupConfig>:
NVIC_PriorityGroupConfig():
C:\Program Files (x86)\Raisonance\Ride\lib\ARM\STM32F10x_LIB_V3.0.1\Libraries\STM32F10x_StdPeriph_Driver\src/misc.c:101
{
  /* Check the parameters */
  assert_param(IS_NVIC_PRIORITY_GROUP(NVIC_PriorityGroup));
  
  /* Set the PRIGROUP[10:8] bits according to NVIC_PriorityGroup value */
  SCB->AIRCR = AIRCR_VECTKEY_MASK | NVIC_PriorityGroup;
   0:	f240 0300 	movw	r3, #0	; 0x0
   4:	f2c0 53fa 	movt	r3, #1530	; 0x5fa
   8:	f64e 5200 	movw	r2, #60672	; 0xed00
   c:	4318      	orrs	r0, r3
   e:	f2ce 0200 	movt	r2, #57344	; 0xe000
  12:	60d0      	str	r0, [r2, #12]
C:\Program Files (x86)\Raisonance\Ride\lib\ARM\STM32F10x_LIB_V3.0.1\Libraries\STM32F10x_StdPeriph_Driver\src/misc.c:102
}
  14:	4770      	bx	lr
  16:	46c0      	nop			(mov r8, r8)
Disassembly of section .text.NVIC_Init:

00000000 <NVIC_Init>:
NVIC_Init():
C:\Program Files (x86)\Raisonance\Ride\lib\ARM\STM32F10x_LIB_V3.0.1\Libraries\STM32F10x_StdPeriph_Driver\src/misc.c:120
  /* Check the parameters */
  assert_param(IS_FUNCTIONAL_STATE(NVIC_InitStruct->NVIC_IRQChannelCmd));
  assert_param(IS_NVIC_PREEMPTION_PRIORITY(NVIC_InitStruct->NVIC_IRQChannelPreemptionPriority));  
  assert_param(IS_NVIC_SUB_PRIORITY(NVIC_InitStruct->NVIC_IRQChannelSubPriority));
    
  if (NVIC_InitStruct->NVIC_IRQChannelCmd != DISABLE)
   0:	78c3      	ldrb	r3, [r0, #3]
C:\Program Files (x86)\Raisonance\Ride\lib\ARM\STM32F10x_LIB_V3.0.1\Libraries\STM32F10x_StdPeriph_Driver\src/misc.c:112
  * @param  NVIC_InitStruct: pointer to a NVIC_InitTypeDef structure that contains
  *   the configuration information for the specified NVIC peripheral.
  * @retval None
  */
void NVIC_Init(NVIC_InitTypeDef* NVIC_InitStruct)
{
   2:	b410      	push	{r4}
   4:	4604      	mov	r4, r0
C:\Program Files (x86)\Raisonance\Ride\lib\ARM\STM32F10x_LIB_V3.0.1\Libraries\STM32F10x_StdPeriph_Driver\src/misc.c:120
  /* Check the parameters */
  assert_param(IS_FUNCTIONAL_STATE(NVIC_InitStruct->NVIC_IRQChannelCmd));
  assert_param(IS_NVIC_PREEMPTION_PRIORITY(NVIC_InitStruct->NVIC_IRQChannelPreemptionPriority));  
  assert_param(IS_NVIC_SUB_PRIORITY(NVIC_InitStruct->NVIC_IRQChannelSubPriority));
    
  if (NVIC_InitStruct->NVIC_IRQChannelCmd != DISABLE)
   6:	b973      	cbnz	r3, 26 <NVIC_Init+0x26>
C:\Program Files (x86)\Raisonance\Ride\lib\ARM\STM32F10x_LIB_V3.0.1\Libraries\STM32F10x_StdPeriph_Driver\src/misc.c:140
      (uint32_t)0x01 << (NVIC_InitStruct->NVIC_IRQChannel & (uint8_t)0x1F);
  }
  else
  {
    /* Disable the Selected IRQ Channels -------------------------------------*/
    NVIC->ICER[NVIC_InitStruct->NVIC_IRQChannel >> 0x05] =
   8:	7802      	ldrb	r2, [r0, #0]
   a:	2101      	movs	r1, #1
   c:	0950      	lsrs	r0, r2, #5
   e:	f002 021f 	and.w	r2, r2, #31	; 0x1f
  12:	4091      	lsls	r1, r2
  14:	f24e 1300 	movw	r3, #57600	; 0xe100
  18:	f2ce 0300 	movt	r3, #57344	; 0xe000
  1c:	3020      	adds	r0, #32
  1e:	f843 1020 	str.w	r1, [r3, r0, lsl #2]
C:\Program Files (x86)\Raisonance\Ride\lib\ARM\STM32F10x_LIB_V3.0.1\Libraries\STM32F10x_StdPeriph_Driver\src/misc.c:143
      (uint32_t)0x01 << (NVIC_InitStruct->NVIC_IRQChannel & (uint8_t)0x1F);
  }
}
  22:	bc10      	pop	{r4}
  24:	4770      	bx	lr
C:\Program Files (x86)\Raisonance\Ride\lib\ARM\STM32F10x_LIB_V3.0.1\Libraries\STM32F10x_StdPeriph_Driver\src/misc.c:123
  assert_param(IS_NVIC_SUB_PRIORITY(NVIC_InitStruct->NVIC_IRQChannelSubPriority));
    
  if (NVIC_InitStruct->NVIC_IRQChannelCmd != DISABLE)
  {
    /* Compute the Corresponding IRQ Priority --------------------------------*/    
    tmppriority = (0x700 - ((SCB->AIRCR) & (uint32_t)0x700))>> 0x08;
  26:	f64e 5300 	movw	r3, #60672	; 0xed00
  2a:	f2ce 0300 	movt	r3, #57344	; 0xe000
  2e:	68da      	ldr	r2, [r3, #12]
C:\Program Files (x86)\Raisonance\Ride\lib\ARM\STM32F10x_LIB_V3.0.1\Libraries\STM32F10x_StdPeriph_Driver\src/misc.c:127
    tmppre = (0x4 - tmppriority);
    tmpsub = tmpsub >> tmppriority;

    tmppriority = (uint32_t)NVIC_InitStruct->NVIC_IRQChannelPreemptionPriority << tmppre;
  30:	7840      	ldrb	r0, [r0, #1]
C:\Program Files (x86)\Raisonance\Ride\lib\ARM\STM32F10x_LIB_V3.0.1\Libraries\STM32F10x_StdPeriph_Driver\src/misc.c:123
  assert_param(IS_NVIC_SUB_PRIORITY(NVIC_InitStruct->NVIC_IRQChannelSubPriority));
    
  if (NVIC_InitStruct->NVIC_IRQChannelCmd != DISABLE)
  {
    /* Compute the Corresponding IRQ Priority --------------------------------*/    
    tmppriority = (0x700 - ((SCB->AIRCR) & (uint32_t)0x700))>> 0x08;
  32:	43d2      	mvns	r2, r2
  34:	f402 62e0 	and.w	r2, r2, #1792	; 0x700
  38:	0a12      	lsrs	r2, r2, #8
C:\Program Files (x86)\Raisonance\Ride\lib\ARM\STM32F10x_LIB_V3.0.1\Libraries\STM32F10x_StdPeriph_Driver\src/misc.c:128
    tmppre = (0x4 - tmppriority);
    tmpsub = tmpsub >> tmppriority;

    tmppriority = (uint32_t)NVIC_InitStruct->NVIC_IRQChannelPreemptionPriority << tmppre;
    tmppriority |=  NVIC_InitStruct->NVIC_IRQChannelSubPriority & tmpsub;
  3a:	210f      	movs	r1, #15
C:\Program Files (x86)\Raisonance\Ride\lib\ARM\STM32F10x_LIB_V3.0.1\Libraries\STM32F10x_StdPeriph_Driver\src/misc.c:127
    /* Compute the Corresponding IRQ Priority --------------------------------*/    
    tmppriority = (0x700 - ((SCB->AIRCR) & (uint32_t)0x700))>> 0x08;
    tmppre = (0x4 - tmppriority);
    tmpsub = tmpsub >> tmppriority;

    tmppriority = (uint32_t)NVIC_InitStruct->NVIC_IRQChannelPreemptionPriority << tmppre;
  3c:	f1c2 0304 	rsb	r3, r2, #4	; 0x4
C:\Program Files (x86)\Raisonance\Ride\lib\ARM\STM32F10x_LIB_V3.0.1\Libraries\STM32F10x_StdPeriph_Driver\src/misc.c:128
    tmppriority |=  NVIC_InitStruct->NVIC_IRQChannelSubPriority & tmpsub;
  40:	40d1      	lsrs	r1, r2
C:\Program Files (x86)\Raisonance\Ride\lib\ARM\STM32F10x_LIB_V3.0.1\Libraries\STM32F10x_StdPeriph_Driver\src/misc.c:127
    /* Compute the Corresponding IRQ Priority --------------------------------*/    
    tmppriority = (0x700 - ((SCB->AIRCR) & (uint32_t)0x700))>> 0x08;
    tmppre = (0x4 - tmppriority);
    tmpsub = tmpsub >> tmppriority;

    tmppriority = (uint32_t)NVIC_InitStruct->NVIC_IRQChannelPreemptionPriority << tmppre;
  42:	4098      	lsls	r0, r3
C:\Program Files (x86)\Raisonance\Ride\lib\ARM\STM32F10x_LIB_V3.0.1\Libraries\STM32F10x_StdPeriph_Driver\src/misc.c:128
    tmppriority |=  NVIC_InitStruct->NVIC_IRQChannelSubPriority & tmpsub;
  44:	78a3      	ldrb	r3, [r4, #2]
C:\Program Files (x86)\Raisonance\Ride\lib\ARM\STM32F10x_LIB_V3.0.1\Libraries\STM32F10x_StdPeriph_Driver\src/misc.c:131
    tmppriority = tmppriority << 0x04;
        
    NVIC->IP[NVIC_InitStruct->NVIC_IRQChannel] = tmppriority;
  46:	7822      	ldrb	r2, [r4, #0]
C:\Program Files (x86)\Raisonance\Ride\lib\ARM\STM32F10x_LIB_V3.0.1\Libraries\STM32F10x_StdPeriph_Driver\src/misc.c:128
    tmppriority = (0x700 - ((SCB->AIRCR) & (uint32_t)0x700))>> 0x08;
    tmppre = (0x4 - tmppriority);
    tmpsub = tmpsub >> tmppriority;

    tmppriority = (uint32_t)NVIC_InitStruct->NVIC_IRQChannelPreemptionPriority << tmppre;
    tmppriority |=  NVIC_InitStruct->NVIC_IRQChannelSubPriority & tmpsub;
  48:	4019      	ands	r1, r3
  4a:	4301      	orrs	r1, r0
C:\Program Files (x86)\Raisonance\Ride\lib\ARM\STM32F10x_LIB_V3.0.1\Libraries\STM32F10x_StdPeriph_Driver\src/misc.c:131
    tmppriority = tmppriority << 0x04;
        
    NVIC->IP[NVIC_InitStruct->NVIC_IRQChannel] = tmppriority;
  4c:	f24e 1300 	movw	r3, #57600	; 0xe100
  50:	0109      	lsls	r1, r1, #4
  52:	f2ce 0300 	movt	r3, #57344	; 0xe000
  56:	18d3      	adds	r3, r2, r3
  58:	b2c9      	uxtb	r1, r1
  5a:	f883 1300 	strb.w	r1, [r3, #768]
C:\Program Files (x86)\Raisonance\Ride\lib\ARM\STM32F10x_LIB_V3.0.1\Libraries\STM32F10x_StdPeriph_Driver\src/misc.c:134
    
    /* Enable the Selected IRQ Channels --------------------------------------*/
    NVIC->ISER[NVIC_InitStruct->NVIC_IRQChannel >> 0x05] =
  5e:	0954      	lsrs	r4, r2, #5
  60:	2301      	movs	r3, #1
  62:	f002 021f 	and.w	r2, r2, #31	; 0x1f
  66:	4093      	lsls	r3, r2
C:\Program Files (x86)\Raisonance\Ride\lib\ARM\STM32F10x_LIB_V3.0.1\Libraries\STM32F10x_StdPeriph_Driver\src/misc.c:131

    tmppriority = (uint32_t)NVIC_InitStruct->NVIC_IRQChannelPreemptionPriority << tmppre;
    tmppriority |=  NVIC_InitStruct->NVIC_IRQChannelSubPriority & tmpsub;
    tmppriority = tmppriority << 0x04;
        
    NVIC->IP[NVIC_InitStruct->NVIC_IRQChannel] = tmppriority;
  68:	f24e 1000 	movw	r0, #57600	; 0xe100
  6c:	f2ce 0000 	movt	r0, #57344	; 0xe000
C:\Program Files (x86)\Raisonance\Ride\lib\ARM\STM32F10x_LIB_V3.0.1\Libraries\STM32F10x_StdPeriph_Driver\src/misc.c:134
    
    /* Enable the Selected IRQ Channels --------------------------------------*/
    NVIC->ISER[NVIC_InitStruct->NVIC_IRQChannel >> 0x05] =
  70:	f840 3024 	str.w	r3, [r0, r4, lsl #2]
  74:	e7d5      	b.n	22 <NVIC_Init+0x22>
  76:	46c0      	nop			(mov r8, r8)
Disassembly of section .text.NVIC_SetVectorTable:

00000000 <NVIC_SetVectorTable>:
NVIC_SetVectorTable():
C:\Program Files (x86)\Raisonance\Ride\lib\ARM\STM32F10x_LIB_V3.0.1\Libraries\STM32F10x_StdPeriph_Driver\src/misc.c:160
{ 
  /* Check the parameters */
  assert_param(IS_NVIC_VECTTAB(NVIC_VectTab));
  assert_param(IS_NVIC_OFFSET(Offset));  
   
  SCB->VTOR = NVIC_VectTab | (Offset & (uint32_t)0x1FFFFF80);
   0:	f64f 7380 	movw	r3, #65408	; 0xff80
   4:	f6c1 73ff 	movt	r3, #8191	; 0x1fff
   8:	4019      	ands	r1, r3
   a:	f64e 5300 	movw	r3, #60672	; 0xed00
   e:	4301      	orrs	r1, r0
  10:	f2ce 0300 	movt	r3, #57344	; 0xe000
  14:	6099      	str	r1, [r3, #8]
C:\Program Files (x86)\Raisonance\Ride\lib\ARM\STM32F10x_LIB_V3.0.1\Libraries\STM32F10x_StdPeriph_Driver\src/misc.c:161
}
  16:	4770      	bx	lr
Disassembly of section .text.NVIC_SystemLPConfig:

00000000 <NVIC_SystemLPConfig>:
NVIC_SystemLPConfig():
C:\Program Files (x86)\Raisonance\Ride\lib\ARM\STM32F10x_LIB_V3.0.1\Libraries\STM32F10x_StdPeriph_Driver\src/misc.c:179
{
  /* Check the parameters */
  assert_param(IS_NVIC_LP(LowPowerMode));
  assert_param(IS_FUNCTIONAL_STATE(NewState));  
  
  if (NewState != DISABLE)
   0:	b941      	cbnz	r1, 14 <NVIC_SystemLPConfig+0x14>
C:\Program Files (x86)\Raisonance\Ride\lib\ARM\STM32F10x_LIB_V3.0.1\Libraries\STM32F10x_StdPeriph_Driver\src/misc.c:185
  {
    SCB->SCR |= LowPowerMode;
  }
  else
  {
    SCB->SCR &= (uint32_t)(~(uint32_t)LowPowerMode);
   2:	f64e 5300 	movw	r3, #60672	; 0xed00
   6:	f2ce 0300 	movt	r3, #57344	; 0xe000
   a:	6919      	ldr	r1, [r3, #16]
   c:	43c2      	mvns	r2, r0
   e:	400a      	ands	r2, r1
  10:	611a      	str	r2, [r3, #16]
C:\Program Files (x86)\Raisonance\Ride\lib\ARM\STM32F10x_LIB_V3.0.1\Libraries\STM32F10x_StdPeriph_Driver\src/misc.c:187
  }
}
  12:	4770      	bx	lr
C:\Program Files (x86)\Raisonance\Ride\lib\ARM\STM32F10x_LIB_V3.0.1\Libraries\STM32F10x_StdPeriph_Driver\src/misc.c:181
  assert_param(IS_NVIC_LP(LowPowerMode));
  assert_param(IS_FUNCTIONAL_STATE(NewState));  
  
  if (NewState != DISABLE)
  {
    SCB->SCR |= LowPowerMode;
  14:	f64e 5200 	movw	r2, #60672	; 0xed00
  18:	f2ce 0200 	movt	r2, #57344	; 0xe000
  1c:	6913      	ldr	r3, [r2, #16]
  1e:	ea40 0303 	orr.w	r3, r0, r3
  22:	6113      	str	r3, [r2, #16]
  24:	e7f5      	b.n	12 <NVIC_SystemLPConfig+0x12>
  26:	46c0      	nop			(mov r8, r8)
Disassembly of section .text.SysTick_CLKSourceConfig:

00000000 <SysTick_CLKSourceConfig>:
SysTick_CLKSourceConfig():
C:\Program Files (x86)\Raisonance\Ride\lib\ARM\STM32F10x_LIB_V3.0.1\Libraries\STM32F10x_StdPeriph_Driver\src/misc.c:201
  */
void SysTick_CLKSourceConfig(uint32_t SysTick_CLKSource)
{
  /* Check the parameters */
  assert_param(IS_SYSTICK_CLK_SOURCE(SysTick_CLKSource));
  if (SysTick_CLKSource == SysTick_CLKSource_HCLK)
   0:	2804      	cmp	r0, #4
C:\Program Files (x86)\Raisonance\Ride\lib\ARM\STM32F10x_LIB_V3.0.1\Libraries\STM32F10x_StdPeriph_Driver\src/misc.c:203
  {
    SysTick->CTRL |= SysTick_CLKSource_HCLK;
   2:	bf0b      	itete	eq
   4:	f24e 0210 	movweq	r2, #57360	; 0xe010
C:\Program Files (x86)\Raisonance\Ride\lib\ARM\STM32F10x_LIB_V3.0.1\Libraries\STM32F10x_StdPeriph_Driver\src/misc.c:207
  }
  else
  {
    SysTick->CTRL &= SysTick_CLKSource_HCLK_Div8;
   8:	f24e 0210 	movwne	r2, #57360	; 0xe010
C:\Program Files (x86)\Raisonance\Ride\lib\ARM\STM32F10x_LIB_V3.0.1\Libraries\STM32F10x_StdPeriph_Driver\src/misc.c:203
{
  /* Check the parameters */
  assert_param(IS_SYSTICK_CLK_SOURCE(SysTick_CLKSource));
  if (SysTick_CLKSource == SysTick_CLKSource_HCLK)
  {
    SysTick->CTRL |= SysTick_CLKSource_HCLK;
   c:	f2ce 0200 	movteq	r2, #57344	; 0xe000
C:\Program Files (x86)\Raisonance\Ride\lib\ARM\STM32F10x_LIB_V3.0.1\Libraries\STM32F10x_StdPeriph_Driver\src/misc.c:207
  }
  else
  {
    SysTick->CTRL &= SysTick_CLKSource_HCLK_Div8;
  10:	f2ce 0200 	movtne	r2, #57344	; 0xe000
C:\Program Files (x86)\Raisonance\Ride\lib\ARM\STM32F10x_LIB_V3.0.1\Libraries\STM32F10x_StdPeriph_Driver\src/misc.c:203
{
  /* Check the parameters */
  assert_param(IS_SYSTICK_CLK_SOURCE(SysTick_CLKSource));
  if (SysTick_CLKSource == SysTick_CLKSource_HCLK)
  {
    SysTick->CTRL |= SysTick_CLKSource_HCLK;
  14:	bf0b      	itete	eq
  16:	6813      	ldreq	r3, [r2, #0]
C:\Program Files (x86)\Raisonance\Ride\lib\ARM\STM32F10x_LIB_V3.0.1\Libraries\STM32F10x_StdPeriph_Driver\src/misc.c:207
  }
  else
  {
    SysTick->CTRL &= SysTick_CLKSource_HCLK_Div8;
  18:	6813      	ldrne	r3, [r2, #0]
C:\Program Files (x86)\Raisonance\Ride\lib\ARM\STM32F10x_LIB_V3.0.1\Libraries\STM32F10x_StdPeriph_Driver\src/misc.c:203
{
  /* Check the parameters */
  assert_param(IS_SYSTICK_CLK_SOURCE(SysTick_CLKSource));
  if (SysTick_CLKSource == SysTick_CLKSource_HCLK)
  {
    SysTick->CTRL |= SysTick_CLKSource_HCLK;
  1a:	f043 0304 	orreq.w	r3, r3, #4	; 0x4
C:\Program Files (x86)\Raisonance\Ride\lib\ARM\STM32F10x_LIB_V3.0.1\Libraries\STM32F10x_StdPeriph_Driver\src/misc.c:207
  }
  else
  {
    SysTick->CTRL &= SysTick_CLKSource_HCLK_Div8;
  1e:	f023 0304 	bicne.w	r3, r3, #4	; 0x4
C:\Program Files (x86)\Raisonance\Ride\lib\ARM\STM32F10x_LIB_V3.0.1\Libraries\STM32F10x_StdPeriph_Driver\src/misc.c:203
{
  /* Check the parameters */
  assert_param(IS_SYSTICK_CLK_SOURCE(SysTick_CLKSource));
  if (SysTick_CLKSource == SysTick_CLKSource_HCLK)
  {
    SysTick->CTRL |= SysTick_CLKSource_HCLK;
  22:	bf0c      	ite	eq
  24:	6013      	streq	r3, [r2, #0]
C:\Program Files (x86)\Raisonance\Ride\lib\ARM\STM32F10x_LIB_V3.0.1\Libraries\STM32F10x_StdPeriph_Driver\src/misc.c:207
  }
  else
  {
    SysTick->CTRL &= SysTick_CLKSource_HCLK_Div8;
  26:	6013      	strne	r3, [r2, #0]
C:\Program Files (x86)\Raisonance\Ride\lib\ARM\STM32F10x_LIB_V3.0.1\Libraries\STM32F10x_StdPeriph_Driver\src/misc.c:209
  }
}
  28:	4770      	bx	lr
  2a:	46c0      	nop			(mov r8, r8)
