ARM GAS  C:\Users\Rajesh\AppData\Local\Temp\ccQACxqp.s 			page 1


   1              		.syntax unified
   2              		.cpu cortex-m3
   3              		.fpu softvfp
   4              		.eabi_attribute 20, 1
   5              		.eabi_attribute 21, 1
   6              		.eabi_attribute 23, 3
   7              		.eabi_attribute 24, 1
   8              		.eabi_attribute 25, 1
   9              		.eabi_attribute 26, 1
  10              		.eabi_attribute 30, 1
  11              		.eabi_attribute 34, 1
  12              		.eabi_attribute 18, 4
  13              		.thumb
  14              		.syntax unified
  15              		.file	"USBUART_boot.c"
  16              		.text
  17              	.Ltext0:
  18              		.cfi_sections	.debug_frame
  19              		.section	.text.USBUART_CyBtldrCommStart,"ax",%progbits
  20              		.align	2
  21              		.global	USBUART_CyBtldrCommStart
  22              		.thumb
  23              		.thumb_func
  24              		.type	USBUART_CyBtldrCommStart, %function
  25              	USBUART_CyBtldrCommStart:
  26              	.LFB0:
  27              		.file 1 "Generated_Source\\PSoC5\\USBUART_boot.c"
   1:Generated_Source\PSoC5/USBUART_boot.c **** /***************************************************************************//**
   2:Generated_Source\PSoC5/USBUART_boot.c **** * \file USBUART_boot.c
   3:Generated_Source\PSoC5/USBUART_boot.c **** * \version 3.10
   4:Generated_Source\PSoC5/USBUART_boot.c **** *
   5:Generated_Source\PSoC5/USBUART_boot.c **** * \brief
   6:Generated_Source\PSoC5/USBUART_boot.c **** *  This file contains the Bootloader API for USBFS Component.
   7:Generated_Source\PSoC5/USBUART_boot.c **** *
   8:Generated_Source\PSoC5/USBUART_boot.c **** ********************************************************************************
   9:Generated_Source\PSoC5/USBUART_boot.c **** * \copyright
  10:Generated_Source\PSoC5/USBUART_boot.c **** * Copyright 2008-2016, Cypress Semiconductor Corporation.  All rights reserved.
  11:Generated_Source\PSoC5/USBUART_boot.c **** * You may use this file only in accordance with the license, terms, conditions,
  12:Generated_Source\PSoC5/USBUART_boot.c **** * disclaimers, and limitations in the end user license agreement accompanying
  13:Generated_Source\PSoC5/USBUART_boot.c **** * the software package with which this file was provided.
  14:Generated_Source\PSoC5/USBUART_boot.c **** *******************************************************************************/
  15:Generated_Source\PSoC5/USBUART_boot.c **** 
  16:Generated_Source\PSoC5/USBUART_boot.c **** #include "USBUART_pvt.h"
  17:Generated_Source\PSoC5/USBUART_boot.c **** 
  18:Generated_Source\PSoC5/USBUART_boot.c **** #if defined(CYDEV_BOOTLOADER_IO_COMP) && ((CYDEV_BOOTLOADER_IO_COMP == CyBtldr_USBUART) || \
  19:Generated_Source\PSoC5/USBUART_boot.c ****                                           (CYDEV_BOOTLOADER_IO_COMP == CyBtldr_Custom_Interface))  
  20:Generated_Source\PSoC5/USBUART_boot.c **** 
  21:Generated_Source\PSoC5/USBUART_boot.c **** /***************************************
  22:Generated_Source\PSoC5/USBUART_boot.c **** *    Bootloader Variables
  23:Generated_Source\PSoC5/USBUART_boot.c **** ***************************************/
  24:Generated_Source\PSoC5/USBUART_boot.c ****     
  25:Generated_Source\PSoC5/USBUART_boot.c **** 
  26:Generated_Source\PSoC5/USBUART_boot.c **** static uint8  USBUART_started = 0u;
  27:Generated_Source\PSoC5/USBUART_boot.c **** 
  28:Generated_Source\PSoC5/USBUART_boot.c **** 
  29:Generated_Source\PSoC5/USBUART_boot.c **** /*******************************************************************************
  30:Generated_Source\PSoC5/USBUART_boot.c **** * Function Name: USBUART_CyBtldrCommStart
ARM GAS  C:\Users\Rajesh\AppData\Local\Temp\ccQACxqp.s 			page 2


  31:Generated_Source\PSoC5/USBUART_boot.c **** ****************************************************************************//**
  32:Generated_Source\PSoC5/USBUART_boot.c **** *
  33:Generated_Source\PSoC5/USBUART_boot.c **** *  This function performs all required initialization for the USBFS component, 
  34:Generated_Source\PSoC5/USBUART_boot.c **** *  waits on enumeration, and enables communication.
  35:Generated_Source\PSoC5/USBUART_boot.c **** *
  36:Generated_Source\PSoC5/USBUART_boot.c **** * \sideeffect
  37:Generated_Source\PSoC5/USBUART_boot.c **** *  This function starts the USB with 3V or 5V operation.
  38:Generated_Source\PSoC5/USBUART_boot.c **** *
  39:Generated_Source\PSoC5/USBUART_boot.c **** * \reentrant
  40:Generated_Source\PSoC5/USBUART_boot.c **** *  No.
  41:Generated_Source\PSoC5/USBUART_boot.c **** *
  42:Generated_Source\PSoC5/USBUART_boot.c **** *******************************************************************************/
  43:Generated_Source\PSoC5/USBUART_boot.c **** void USBUART_CyBtldrCommStart(void) 
  44:Generated_Source\PSoC5/USBUART_boot.c **** {
  28              		.loc 1 44 0
  29              		.cfi_startproc
  30              		@ args = 0, pretend = 0, frame = 0
  31              		@ frame_needed = 0, uses_anonymous_args = 0
  32 0000 08B5     		push	{r3, lr}
  33              		.cfi_def_cfa_offset 8
  34              		.cfi_offset 3, -8
  35              		.cfi_offset 14, -4
  45:Generated_Source\PSoC5/USBUART_boot.c ****     /* Enable Global Interrupts. Interrupts are mandatory for USBFS component operation. */
  46:Generated_Source\PSoC5/USBUART_boot.c ****     CyGlobalIntEnable;
  36              		.loc 1 46 0
  37              		.syntax unified
  38              	@ 46 "Generated_Source\PSoC5\USBUART_boot.c" 1
  39 0002 62B6     		CPSIE   i
  40              	@ 0 "" 2
  47:Generated_Source\PSoC5/USBUART_boot.c **** 
  48:Generated_Source\PSoC5/USBUART_boot.c ****     /* Start USBFS Operation: device 0 and with 5V or 3V operation depend on Voltage Configuration 
  49:Generated_Source\PSoC5/USBUART_boot.c ****     USBUART_Start(0u, USBUART_DWR_POWER_OPERATION);
  41              		.loc 1 49 0
  42              		.thumb
  43              		.syntax unified
  44 0004 0221     		movs	r1, #2
  45 0006 0020     		movs	r0, #0
  46 0008 FFF7FEFF 		bl	USBUART_Start
  47              	.LVL0:
  50:Generated_Source\PSoC5/USBUART_boot.c **** 
  51:Generated_Source\PSoC5/USBUART_boot.c ****     /* USB component started, the correct enumeration will be checked in the first Read operation. 
  52:Generated_Source\PSoC5/USBUART_boot.c ****     USBUART_started = 1u;
  48              		.loc 1 52 0
  49 000c 0122     		movs	r2, #1
  50 000e 014B     		ldr	r3, .L3
  51 0010 1A70     		strb	r2, [r3]
  52 0012 08BD     		pop	{r3, pc}
  53              	.L4:
  54              		.align	2
  55              	.L3:
  56 0014 00000000 		.word	.LANCHOR0
  57              		.cfi_endproc
  58              	.LFE0:
  59              		.size	USBUART_CyBtldrCommStart, .-USBUART_CyBtldrCommStart
  60              		.section	.text.USBUART_CyBtldrCommStop,"ax",%progbits
  61              		.align	2
  62              		.global	USBUART_CyBtldrCommStop
ARM GAS  C:\Users\Rajesh\AppData\Local\Temp\ccQACxqp.s 			page 3


  63              		.thumb
  64              		.thumb_func
  65              		.type	USBUART_CyBtldrCommStop, %function
  66              	USBUART_CyBtldrCommStop:
  67              	.LFB1:
  53:Generated_Source\PSoC5/USBUART_boot.c **** }
  54:Generated_Source\PSoC5/USBUART_boot.c **** 
  55:Generated_Source\PSoC5/USBUART_boot.c **** 
  56:Generated_Source\PSoC5/USBUART_boot.c **** /*******************************************************************************
  57:Generated_Source\PSoC5/USBUART_boot.c **** * Function Name: USBUART_CyBtldrCommStop.
  58:Generated_Source\PSoC5/USBUART_boot.c **** ****************************************************************************//**
  59:Generated_Source\PSoC5/USBUART_boot.c **** *
  60:Generated_Source\PSoC5/USBUART_boot.c **** *  This function performs all necessary shutdown tasks required for the USBFS 
  61:Generated_Source\PSoC5/USBUART_boot.c **** *  component.
  62:Generated_Source\PSoC5/USBUART_boot.c **** *  
  63:Generated_Source\PSoC5/USBUART_boot.c **** *  \sideeffect
  64:Generated_Source\PSoC5/USBUART_boot.c **** *   Calls the USBFS_Stop() function.
  65:Generated_Source\PSoC5/USBUART_boot.c **** *
  66:Generated_Source\PSoC5/USBUART_boot.c **** *******************************************************************************/
  67:Generated_Source\PSoC5/USBUART_boot.c **** void USBUART_CyBtldrCommStop(void) 
  68:Generated_Source\PSoC5/USBUART_boot.c **** {
  68              		.loc 1 68 0
  69              		.cfi_startproc
  70              		@ args = 0, pretend = 0, frame = 0
  71              		@ frame_needed = 0, uses_anonymous_args = 0
  72 0000 08B5     		push	{r3, lr}
  73              		.cfi_def_cfa_offset 8
  74              		.cfi_offset 3, -8
  75              		.cfi_offset 14, -4
  69:Generated_Source\PSoC5/USBUART_boot.c ****     USBUART_Stop();
  76              		.loc 1 69 0
  77 0002 FFF7FEFF 		bl	USBUART_Stop
  78              	.LVL1:
  79 0006 08BD     		pop	{r3, pc}
  80              		.cfi_endproc
  81              	.LFE1:
  82              		.size	USBUART_CyBtldrCommStop, .-USBUART_CyBtldrCommStop
  83              		.section	.text.USBUART_CyBtldrCommReset,"ax",%progbits
  84              		.align	2
  85              		.global	USBUART_CyBtldrCommReset
  86              		.thumb
  87              		.thumb_func
  88              		.type	USBUART_CyBtldrCommReset, %function
  89              	USBUART_CyBtldrCommReset:
  90              	.LFB2:
  70:Generated_Source\PSoC5/USBUART_boot.c **** }
  71:Generated_Source\PSoC5/USBUART_boot.c **** 
  72:Generated_Source\PSoC5/USBUART_boot.c **** 
  73:Generated_Source\PSoC5/USBUART_boot.c **** /*******************************************************************************
  74:Generated_Source\PSoC5/USBUART_boot.c **** * Function Name: USBUART_CyBtldrCommReset.
  75:Generated_Source\PSoC5/USBUART_boot.c **** ****************************************************************************//**
  76:Generated_Source\PSoC5/USBUART_boot.c **** *
  77:Generated_Source\PSoC5/USBUART_boot.c **** *  This function resets receive and transmit communication buffers.
  78:Generated_Source\PSoC5/USBUART_boot.c **** *
  79:Generated_Source\PSoC5/USBUART_boot.c **** * \reentrant
  80:Generated_Source\PSoC5/USBUART_boot.c **** *  No
  81:Generated_Source\PSoC5/USBUART_boot.c **** *
ARM GAS  C:\Users\Rajesh\AppData\Local\Temp\ccQACxqp.s 			page 4


  82:Generated_Source\PSoC5/USBUART_boot.c **** *******************************************************************************/
  83:Generated_Source\PSoC5/USBUART_boot.c **** void USBUART_CyBtldrCommReset(void) 
  84:Generated_Source\PSoC5/USBUART_boot.c **** {
  91              		.loc 1 84 0
  92              		.cfi_startproc
  93              		@ args = 0, pretend = 0, frame = 0
  94              		@ frame_needed = 0, uses_anonymous_args = 0
  95 0000 08B5     		push	{r3, lr}
  96              		.cfi_def_cfa_offset 8
  97              		.cfi_offset 3, -8
  98              		.cfi_offset 14, -4
  85:Generated_Source\PSoC5/USBUART_boot.c ****     USBUART_EnableOutEP(USBUART_BTLDR_OUT_EP); 
  99              		.loc 1 85 0
 100 0002 0120     		movs	r0, #1
 101 0004 FFF7FEFF 		bl	USBUART_EnableOutEP
 102              	.LVL2:
 103 0008 08BD     		pop	{r3, pc}
 104              		.cfi_endproc
 105              	.LFE2:
 106              		.size	USBUART_CyBtldrCommReset, .-USBUART_CyBtldrCommReset
 107 000a 00BF     		.section	.text.USBUART_CyBtldrCommWrite,"ax",%progbits
 108              		.align	2
 109              		.global	USBUART_CyBtldrCommWrite
 110              		.thumb
 111              		.thumb_func
 112              		.type	USBUART_CyBtldrCommWrite, %function
 113              	USBUART_CyBtldrCommWrite:
 114              	.LFB3:
  86:Generated_Source\PSoC5/USBUART_boot.c **** }
  87:Generated_Source\PSoC5/USBUART_boot.c **** 
  88:Generated_Source\PSoC5/USBUART_boot.c **** 
  89:Generated_Source\PSoC5/USBUART_boot.c **** /*******************************************************************************
  90:Generated_Source\PSoC5/USBUART_boot.c **** * Function Name: USBUART_CyBtldrCommWrite.
  91:Generated_Source\PSoC5/USBUART_boot.c **** ****************************************************************************//**
  92:Generated_Source\PSoC5/USBUART_boot.c **** *
  93:Generated_Source\PSoC5/USBUART_boot.c **** *  This function allows the caller to write data to the bootloader host. It 
  94:Generated_Source\PSoC5/USBUART_boot.c **** *  handles polling to allow a block of data to be completely sent to the host 
  95:Generated_Source\PSoC5/USBUART_boot.c **** *  device.
  96:Generated_Source\PSoC5/USBUART_boot.c **** *
  97:Generated_Source\PSoC5/USBUART_boot.c **** *  \param pData    A pointer to the block of data to send to the device
  98:Generated_Source\PSoC5/USBUART_boot.c **** *  \param size     The number of bytes to write.
  99:Generated_Source\PSoC5/USBUART_boot.c **** *  \param count    Pointer to an unsigned short variable to write the number of
 100:Generated_Source\PSoC5/USBUART_boot.c **** *                  bytes actually written.
 101:Generated_Source\PSoC5/USBUART_boot.c **** *  \param timeOut  Number of units to wait before returning because of a timeout.
 102:Generated_Source\PSoC5/USBUART_boot.c **** *
 103:Generated_Source\PSoC5/USBUART_boot.c **** * \return
 104:Generated_Source\PSoC5/USBUART_boot.c **** *  Returns CYRET_SUCCESS if no problem was encountered or returns the value that 
 105:Generated_Source\PSoC5/USBUART_boot.c **** *  best describes the problem. For more information, see the “Return Codes” 
 106:Generated_Source\PSoC5/USBUART_boot.c **** *  section of the System Reference Guide.
 107:Generated_Source\PSoC5/USBUART_boot.c **** *
 108:Generated_Source\PSoC5/USBUART_boot.c **** * \reentrant
 109:Generated_Source\PSoC5/USBUART_boot.c **** *  No
 110:Generated_Source\PSoC5/USBUART_boot.c **** *
 111:Generated_Source\PSoC5/USBUART_boot.c **** *******************************************************************************/
 112:Generated_Source\PSoC5/USBUART_boot.c **** cystatus USBUART_CyBtldrCommWrite(const uint8 pData[], uint16 size, uint16 *count, uint8 timeOut) C
 113:Generated_Source\PSoC5/USBUART_boot.c ****                                                             
 114:Generated_Source\PSoC5/USBUART_boot.c **** {
ARM GAS  C:\Users\Rajesh\AppData\Local\Temp\ccQACxqp.s 			page 5


 115              		.loc 1 114 0
 116              		.cfi_startproc
 117              		@ args = 0, pretend = 0, frame = 0
 118              		@ frame_needed = 0, uses_anonymous_args = 0
 119              	.LVL3:
 120 0000 70B5     		push	{r4, r5, r6, lr}
 121              		.cfi_def_cfa_offset 16
 122              		.cfi_offset 4, -16
 123              		.cfi_offset 5, -12
 124              		.cfi_offset 6, -8
 125              		.cfi_offset 14, -4
 126 0002 0E46     		mov	r6, r1
 127 0004 1546     		mov	r5, r2
 115:Generated_Source\PSoC5/USBUART_boot.c ****     cystatus retCode;
 116:Generated_Source\PSoC5/USBUART_boot.c ****     uint16 timeoutMs;
 117:Generated_Source\PSoC5/USBUART_boot.c **** 
 118:Generated_Source\PSoC5/USBUART_boot.c ****     /* Convert 10mS checks into 1mS checks. */
 119:Generated_Source\PSoC5/USBUART_boot.c ****     timeoutMs = ((uint16) 10u * timeOut);
 128              		.loc 1 119 0
 129 0006 03EB8303 		add	r3, r3, r3, lsl #2
 130              	.LVL4:
 131 000a 5C00     		lsls	r4, r3, #1
 132 000c A4B2     		uxth	r4, r4
 133              	.LVL5:
 120:Generated_Source\PSoC5/USBUART_boot.c **** 
 121:Generated_Source\PSoC5/USBUART_boot.c ****     /* Load data into IN endpoint to be read by host. */
 122:Generated_Source\PSoC5/USBUART_boot.c ****     USBUART_LoadInEP(USBUART_BTLDR_IN_EP, pData, USBUART_BTLDR_SIZEOF_READ_BUFFER);
 134              		.loc 1 122 0
 135 000e 4022     		movs	r2, #64
 136              	.LVL6:
 137 0010 0146     		mov	r1, r0
 138              	.LVL7:
 139 0012 0220     		movs	r0, #2
 140              	.LVL8:
 141 0014 FFF7FEFF 		bl	USBUART_LoadInEP
 142              	.LVL9:
 123:Generated_Source\PSoC5/USBUART_boot.c **** 
 124:Generated_Source\PSoC5/USBUART_boot.c ****     /* Wait unitl host reads data from IN endpoint. */
 125:Generated_Source\PSoC5/USBUART_boot.c ****     while ((USBUART_GetEPState(USBUART_BTLDR_IN_EP) == USBUART_IN_BUFFER_FULL) &&
 143              		.loc 1 125 0
 144 0018 04E0     		b	.L10
 145              	.L12:
 126:Generated_Source\PSoC5/USBUART_boot.c ****            (0u != timeoutMs))
 127:Generated_Source\PSoC5/USBUART_boot.c ****     {
 128:Generated_Source\PSoC5/USBUART_boot.c ****         CyDelay(USBUART_BTLDR_WAIT_1_MS);
 146              		.loc 1 128 0
 147 001a 0120     		movs	r0, #1
 148 001c FFF7FEFF 		bl	CyDelay
 149              	.LVL10:
 129:Generated_Source\PSoC5/USBUART_boot.c ****         timeoutMs--;
 150              		.loc 1 129 0
 151 0020 013C     		subs	r4, r4, #1
 152              	.LVL11:
 153 0022 A4B2     		uxth	r4, r4
 154              	.LVL12:
 155              	.L10:
 125:Generated_Source\PSoC5/USBUART_boot.c ****            (0u != timeoutMs))
ARM GAS  C:\Users\Rajesh\AppData\Local\Temp\ccQACxqp.s 			page 6


 156              		.loc 1 125 0
 157 0024 0220     		movs	r0, #2
 158 0026 FFF7FEFF 		bl	USBUART_GetEPState
 159              	.LVL13:
 160 002a 08B9     		cbnz	r0, .L11
 125:Generated_Source\PSoC5/USBUART_boot.c ****            (0u != timeoutMs))
 161              		.loc 1 125 0 is_stmt 0 discriminator 1
 162 002c 002C     		cmp	r4, #0
 163 002e F4D1     		bne	.L12
 164              	.L11:
 130:Generated_Source\PSoC5/USBUART_boot.c ****     }
 131:Generated_Source\PSoC5/USBUART_boot.c **** 
 132:Generated_Source\PSoC5/USBUART_boot.c ****     if (USBUART_GetEPState(USBUART_BTLDR_IN_EP) == USBUART_IN_BUFFER_FULL)
 165              		.loc 1 132 0 is_stmt 1
 166 0030 0220     		movs	r0, #2
 167 0032 FFF7FEFF 		bl	USBUART_GetEPState
 168              	.LVL14:
 169 0036 10B1     		cbz	r0, .L14
 133:Generated_Source\PSoC5/USBUART_boot.c ****     {
 134:Generated_Source\PSoC5/USBUART_boot.c ****         retCode = CYRET_TIMEOUT;
 135:Generated_Source\PSoC5/USBUART_boot.c ****     }
 136:Generated_Source\PSoC5/USBUART_boot.c ****     else
 137:Generated_Source\PSoC5/USBUART_boot.c ****     {
 138:Generated_Source\PSoC5/USBUART_boot.c ****         *count = size;
 170              		.loc 1 138 0
 171 0038 2E80     		strh	r6, [r5]	@ movhi
 172              	.LVL15:
 139:Generated_Source\PSoC5/USBUART_boot.c ****         retCode = CYRET_SUCCESS;
 173              		.loc 1 139 0
 174 003a 0020     		movs	r0, #0
 175 003c 70BD     		pop	{r4, r5, r6, pc}
 176              	.LVL16:
 177              	.L14:
 134:Generated_Source\PSoC5/USBUART_boot.c ****     }
 178              		.loc 1 134 0
 179 003e 1020     		movs	r0, #16
 180              	.LVL17:
 140:Generated_Source\PSoC5/USBUART_boot.c ****     }
 141:Generated_Source\PSoC5/USBUART_boot.c **** 
 142:Generated_Source\PSoC5/USBUART_boot.c ****     return (retCode);
 143:Generated_Source\PSoC5/USBUART_boot.c **** }
 181              		.loc 1 143 0
 182 0040 70BD     		pop	{r4, r5, r6, pc}
 183              		.cfi_endproc
 184              	.LFE3:
 185              		.size	USBUART_CyBtldrCommWrite, .-USBUART_CyBtldrCommWrite
 186 0042 00BF     		.section	.text.USBUART_CyBtldrCommRead,"ax",%progbits
 187              		.align	2
 188              		.global	USBUART_CyBtldrCommRead
 189              		.thumb
 190              		.thumb_func
 191              		.type	USBUART_CyBtldrCommRead, %function
 192              	USBUART_CyBtldrCommRead:
 193              	.LFB4:
 144:Generated_Source\PSoC5/USBUART_boot.c **** 
 145:Generated_Source\PSoC5/USBUART_boot.c **** 
 146:Generated_Source\PSoC5/USBUART_boot.c **** /*******************************************************************************
ARM GAS  C:\Users\Rajesh\AppData\Local\Temp\ccQACxqp.s 			page 7


 147:Generated_Source\PSoC5/USBUART_boot.c **** * Function Name: USBUART_CyBtldrCommRead.
 148:Generated_Source\PSoC5/USBUART_boot.c **** ****************************************************************************//**
 149:Generated_Source\PSoC5/USBUART_boot.c **** *
 150:Generated_Source\PSoC5/USBUART_boot.c **** *  This function allows the caller to read data from the bootloader host. It 
 151:Generated_Source\PSoC5/USBUART_boot.c **** *  handles polling to allow a block of data to be completely received from the 
 152:Generated_Source\PSoC5/USBUART_boot.c **** *  host device.
 153:Generated_Source\PSoC5/USBUART_boot.c **** *
 154:Generated_Source\PSoC5/USBUART_boot.c **** *  \param pData    A pointer to the area to store the block of data received
 155:Generated_Source\PSoC5/USBUART_boot.c **** *                  from the device.
 156:Generated_Source\PSoC5/USBUART_boot.c **** *  \param size     The number of bytes to read.
 157:Generated_Source\PSoC5/USBUART_boot.c **** *  \param count    Pointer to an unsigned short variable to write the number
 158:Generated_Source\PSoC5/USBUART_boot.c **** *                  of bytes actually read.
 159:Generated_Source\PSoC5/USBUART_boot.c **** *  \param timeOut  Number of units to wait before returning because of a timeOut.
 160:Generated_Source\PSoC5/USBUART_boot.c **** *                  Timeout is measured in 10s of ms.
 161:Generated_Source\PSoC5/USBUART_boot.c **** *
 162:Generated_Source\PSoC5/USBUART_boot.c **** * \return
 163:Generated_Source\PSoC5/USBUART_boot.c **** *  Returns CYRET_SUCCESS if no problem was encountered or returns the value that 
 164:Generated_Source\PSoC5/USBUART_boot.c **** *  best describes the problem. For more information, see the “Return Codes” 
 165:Generated_Source\PSoC5/USBUART_boot.c **** *  section of the System Reference Guide.
 166:Generated_Source\PSoC5/USBUART_boot.c **** *
 167:Generated_Source\PSoC5/USBUART_boot.c **** * \reentrant
 168:Generated_Source\PSoC5/USBUART_boot.c **** *  No
 169:Generated_Source\PSoC5/USBUART_boot.c **** *
 170:Generated_Source\PSoC5/USBUART_boot.c **** *******************************************************************************/
 171:Generated_Source\PSoC5/USBUART_boot.c **** cystatus USBUART_CyBtldrCommRead(uint8 pData[], uint16 size, uint16 *count, uint8 timeOut) CYSMALL
 172:Generated_Source\PSoC5/USBUART_boot.c ****                                                             
 173:Generated_Source\PSoC5/USBUART_boot.c **** {
 194              		.loc 1 173 0
 195              		.cfi_startproc
 196              		@ args = 0, pretend = 0, frame = 0
 197              		@ frame_needed = 0, uses_anonymous_args = 0
 198              	.LVL18:
 199 0000 2DE9F041 		push	{r4, r5, r6, r7, r8, lr}
 200              		.cfi_def_cfa_offset 24
 201              		.cfi_offset 4, -24
 202              		.cfi_offset 5, -20
 203              		.cfi_offset 6, -16
 204              		.cfi_offset 7, -12
 205              		.cfi_offset 8, -8
 206              		.cfi_offset 14, -4
 207 0004 8046     		mov	r8, r0
 208 0006 0E46     		mov	r6, r1
 209 0008 1746     		mov	r7, r2
 174:Generated_Source\PSoC5/USBUART_boot.c ****     cystatus retCode;
 175:Generated_Source\PSoC5/USBUART_boot.c ****     uint16 timeoutMs;
 176:Generated_Source\PSoC5/USBUART_boot.c **** 
 177:Generated_Source\PSoC5/USBUART_boot.c ****     /* Convert 10mS checks into 1mS checks. */
 178:Generated_Source\PSoC5/USBUART_boot.c ****     timeoutMs = ((uint16) 10u * timeOut);
 210              		.loc 1 178 0
 211 000a 03EB8303 		add	r3, r3, r3, lsl #2
 212              	.LVL19:
 213 000e 5C00     		lsls	r4, r3, #1
 214 0010 A4B2     		uxth	r4, r4
 215              	.LVL20:
 179:Generated_Source\PSoC5/USBUART_boot.c **** 
 180:Generated_Source\PSoC5/USBUART_boot.c ****     if (size > USBUART_BTLDR_SIZEOF_WRITE_BUFFER)
 216              		.loc 1 180 0
ARM GAS  C:\Users\Rajesh\AppData\Local\Temp\ccQACxqp.s 			page 8


 217 0012 4029     		cmp	r1, #64
 218 0014 00D9     		bls	.L17
 181:Generated_Source\PSoC5/USBUART_boot.c ****     {
 182:Generated_Source\PSoC5/USBUART_boot.c ****         size = USBUART_BTLDR_SIZEOF_WRITE_BUFFER;
 219              		.loc 1 182 0
 220 0016 4026     		movs	r6, #64
 221              	.L17:
 222              	.LVL21:
 183:Generated_Source\PSoC5/USBUART_boot.c ****     }
 184:Generated_Source\PSoC5/USBUART_boot.c **** 
 185:Generated_Source\PSoC5/USBUART_boot.c ****     /* Wait for enumeration first time. */
 186:Generated_Source\PSoC5/USBUART_boot.c ****     if (0u != USBUART_started)
 223              		.loc 1 186 0
 224 0018 204B     		ldr	r3, .L32
 225 001a 1B78     		ldrb	r3, [r3]	@ zero_extendqisi2
 226 001c 33B9     		cbnz	r3, .L29
 227 001e 16E0     		b	.L30
 228              	.LVL22:
 229              	.L21:
 187:Generated_Source\PSoC5/USBUART_boot.c ****     {
 188:Generated_Source\PSoC5/USBUART_boot.c ****         /* Wait for device enumeration. */
 189:Generated_Source\PSoC5/USBUART_boot.c ****         while ((0u == USBUART_GetConfiguration()) && (0u != timeoutMs))
 190:Generated_Source\PSoC5/USBUART_boot.c ****         {
 191:Generated_Source\PSoC5/USBUART_boot.c ****             CyDelay(USBUART_BTLDR_WAIT_1_MS);
 230              		.loc 1 191 0
 231 0020 0120     		movs	r0, #1
 232 0022 FFF7FEFF 		bl	CyDelay
 233              	.LVL23:
 192:Generated_Source\PSoC5/USBUART_boot.c ****             timeoutMs--;
 234              		.loc 1 192 0
 235 0026 013D     		subs	r5, r5, #1
 236              	.LVL24:
 237 0028 ADB2     		uxth	r5, r5
 238              	.LVL25:
 239 002a 00E0     		b	.L18
 240              	.LVL26:
 241              	.L29:
 242 002c 2546     		mov	r5, r4
 243              	.LVL27:
 244              	.L18:
 189:Generated_Source\PSoC5/USBUART_boot.c ****         {
 245              		.loc 1 189 0
 246 002e FFF7FEFF 		bl	USBUART_GetConfiguration
 247              	.LVL28:
 248 0032 08B9     		cbnz	r0, .L20
 189:Generated_Source\PSoC5/USBUART_boot.c ****         {
 249              		.loc 1 189 0 is_stmt 0 discriminator 1
 250 0034 002D     		cmp	r5, #0
 251 0036 F3D1     		bne	.L21
 252              	.L20:
 193:Generated_Source\PSoC5/USBUART_boot.c ****         }
 194:Generated_Source\PSoC5/USBUART_boot.c **** 
 195:Generated_Source\PSoC5/USBUART_boot.c ****         /* Enable OUT after enumeration. */
 196:Generated_Source\PSoC5/USBUART_boot.c ****         if (0u != USBUART_GetConfiguration())
 253              		.loc 1 196 0 is_stmt 1
 254 0038 FFF7FEFF 		bl	USBUART_GetConfiguration
 255              	.LVL29:
ARM GAS  C:\Users\Rajesh\AppData\Local\Temp\ccQACxqp.s 			page 9


 256 003c A8B1     		cbz	r0, .L23
 197:Generated_Source\PSoC5/USBUART_boot.c ****         {
 198:Generated_Source\PSoC5/USBUART_boot.c ****             (void) USBUART_IsConfigurationChanged();  /* Clear configuration changes state status. 
 257              		.loc 1 198 0
 258 003e FFF7FEFF 		bl	USBUART_IsConfigurationChanged
 259              	.LVL30:
 199:Generated_Source\PSoC5/USBUART_boot.c ****             USBUART_CyBtldrCommReset();
 260              		.loc 1 199 0
 261 0042 FFF7FEFF 		bl	USBUART_CyBtldrCommReset
 262              	.LVL31:
 200:Generated_Source\PSoC5/USBUART_boot.c ****             
 201:Generated_Source\PSoC5/USBUART_boot.c ****             USBUART_started = 0u;
 263              		.loc 1 201 0
 264 0046 0022     		movs	r2, #0
 265 0048 144B     		ldr	r3, .L32
 266 004a 1A70     		strb	r2, [r3]
 267 004c 0DE0     		b	.L23
 268              	.LVL32:
 269              	.L30:
 202:Generated_Source\PSoC5/USBUART_boot.c ****         }
 203:Generated_Source\PSoC5/USBUART_boot.c ****     }
 204:Generated_Source\PSoC5/USBUART_boot.c ****     else /* Check for configuration changes, has been done by Host. */
 205:Generated_Source\PSoC5/USBUART_boot.c ****     {
 206:Generated_Source\PSoC5/USBUART_boot.c ****         if (0u != USBUART_IsConfigurationChanged()) /* Host could send double SET_INTERFACE request
 270              		.loc 1 206 0
 271 004e FFF7FEFF 		bl	USBUART_IsConfigurationChanged
 272              	.LVL33:
 273 0052 50B1     		cbz	r0, .L23
 207:Generated_Source\PSoC5/USBUART_boot.c ****         {
 208:Generated_Source\PSoC5/USBUART_boot.c ****             if (0u != USBUART_GetConfiguration())   /* Init OUT endpoints when device reconfigured.
 274              		.loc 1 208 0
 275 0054 FFF7FEFF 		bl	USBUART_GetConfiguration
 276              	.LVL34:
 277 0058 38B1     		cbz	r0, .L23
 209:Generated_Source\PSoC5/USBUART_boot.c ****             {
 210:Generated_Source\PSoC5/USBUART_boot.c ****                 USBUART_CyBtldrCommReset();
 278              		.loc 1 210 0
 279 005a FFF7FEFF 		bl	USBUART_CyBtldrCommReset
 280              	.LVL35:
 281 005e 04E0     		b	.L23
 282              	.L25:
 211:Generated_Source\PSoC5/USBUART_boot.c ****             }
 212:Generated_Source\PSoC5/USBUART_boot.c ****         }
 213:Generated_Source\PSoC5/USBUART_boot.c ****     }
 214:Generated_Source\PSoC5/USBUART_boot.c **** 
 215:Generated_Source\PSoC5/USBUART_boot.c ****     timeoutMs = ((uint16) 10u * timeOut); /* Re-arm timeout */
 216:Generated_Source\PSoC5/USBUART_boot.c **** 
 217:Generated_Source\PSoC5/USBUART_boot.c ****     /* Wait unitl host writes data into OUT endpoint. */
 218:Generated_Source\PSoC5/USBUART_boot.c ****     while ((USBUART_GetEPState(USBUART_BTLDR_OUT_EP) != USBUART_OUT_BUFFER_FULL) && \
 219:Generated_Source\PSoC5/USBUART_boot.c ****            (0u != timeoutMs))
 220:Generated_Source\PSoC5/USBUART_boot.c ****     {
 221:Generated_Source\PSoC5/USBUART_boot.c ****         CyDelay(USBUART_BTLDR_WAIT_1_MS);
 283              		.loc 1 221 0
 284 0060 0120     		movs	r0, #1
 285 0062 FFF7FEFF 		bl	CyDelay
 286              	.LVL36:
 222:Generated_Source\PSoC5/USBUART_boot.c ****         timeoutMs--;
ARM GAS  C:\Users\Rajesh\AppData\Local\Temp\ccQACxqp.s 			page 10


 287              		.loc 1 222 0
 288 0066 013C     		subs	r4, r4, #1
 289              	.LVL37:
 290 0068 A4B2     		uxth	r4, r4
 291              	.LVL38:
 292              	.L23:
 218:Generated_Source\PSoC5/USBUART_boot.c ****            (0u != timeoutMs))
 293              		.loc 1 218 0
 294 006a 0120     		movs	r0, #1
 295 006c FFF7FEFF 		bl	USBUART_GetEPState
 296              	.LVL39:
 297 0070 0128     		cmp	r0, #1
 298 0072 01D0     		beq	.L24
 218:Generated_Source\PSoC5/USBUART_boot.c ****            (0u != timeoutMs))
 299              		.loc 1 218 0 is_stmt 0 discriminator 1
 300 0074 002C     		cmp	r4, #0
 301 0076 F3D1     		bne	.L25
 302              	.L24:
 223:Generated_Source\PSoC5/USBUART_boot.c ****     }
 224:Generated_Source\PSoC5/USBUART_boot.c **** 
 225:Generated_Source\PSoC5/USBUART_boot.c ****     /* Read data from OUT endpoint if host wrote data into it. */
 226:Generated_Source\PSoC5/USBUART_boot.c ****     if (USBUART_GetEPState(USBUART_BTLDR_OUT_EP) == USBUART_OUT_BUFFER_FULL)
 303              		.loc 1 226 0 is_stmt 1
 304 0078 0120     		movs	r0, #1
 305 007a FFF7FEFF 		bl	USBUART_GetEPState
 306              	.LVL40:
 307 007e 0128     		cmp	r0, #1
 308 0080 07D1     		bne	.L26
 227:Generated_Source\PSoC5/USBUART_boot.c ****     {
 228:Generated_Source\PSoC5/USBUART_boot.c ****         *count = USBUART_ReadOutEP(USBUART_BTLDR_OUT_EP, pData, size);
 309              		.loc 1 228 0
 310 0082 3246     		mov	r2, r6
 311 0084 4146     		mov	r1, r8
 312 0086 FFF7FEFF 		bl	USBUART_ReadOutEP
 313              	.LVL41:
 314 008a 3880     		strh	r0, [r7]	@ movhi
 315              	.LVL42:
 229:Generated_Source\PSoC5/USBUART_boot.c ****         retCode = CYRET_SUCCESS;
 316              		.loc 1 229 0
 317 008c 0020     		movs	r0, #0
 318 008e BDE8F081 		pop	{r4, r5, r6, r7, r8, pc}
 319              	.LVL43:
 320              	.L26:
 230:Generated_Source\PSoC5/USBUART_boot.c ****     }
 231:Generated_Source\PSoC5/USBUART_boot.c ****     else
 232:Generated_Source\PSoC5/USBUART_boot.c ****     {
 233:Generated_Source\PSoC5/USBUART_boot.c ****         *count = 0u;
 321              		.loc 1 233 0
 322 0092 0023     		movs	r3, #0
 323 0094 3B80     		strh	r3, [r7]	@ movhi
 324              	.LVL44:
 234:Generated_Source\PSoC5/USBUART_boot.c ****         retCode = CYRET_TIMEOUT;
 325              		.loc 1 234 0
 326 0096 1020     		movs	r0, #16
 327              	.LVL45:
 235:Generated_Source\PSoC5/USBUART_boot.c ****     }
 236:Generated_Source\PSoC5/USBUART_boot.c **** 
ARM GAS  C:\Users\Rajesh\AppData\Local\Temp\ccQACxqp.s 			page 11


 237:Generated_Source\PSoC5/USBUART_boot.c ****     return (retCode);
 238:Generated_Source\PSoC5/USBUART_boot.c **** }
 328              		.loc 1 238 0
 329 0098 BDE8F081 		pop	{r4, r5, r6, r7, r8, pc}
 330              	.LVL46:
 331              	.L33:
 332              		.align	2
 333              	.L32:
 334 009c 00000000 		.word	.LANCHOR0
 335              		.cfi_endproc
 336              	.LFE4:
 337              		.size	USBUART_CyBtldrCommRead, .-USBUART_CyBtldrCommRead
 338              		.bss
 339              		.set	.LANCHOR0,. + 0
 340              		.type	USBUART_started, %object
 341              		.size	USBUART_started, 1
 342              	USBUART_started:
 343 0000 00       		.space	1
 344              		.text
 345              	.Letext0:
 346              		.file 2 "Generated_Source\\PSoC5\\cytypes.h"
 347              		.file 3 "Generated_Source\\PSoC5\\USBUART.h"
 348              		.file 4 "Generated_Source\\PSoC5\\CyLib.h"