
C:\Users\Caleb\Documents\Ride\projects\CHR6dmRelease\stm32f10x_adc.o:     file format elf32-littlearm
C:\Users\Caleb\Documents\Ride\projects\CHR6dmRelease\stm32f10x_adc.o

Disassembly of section .text.ADC_Init:

00000000 <ADC_Init>:
ADC_Init():
C:\Program Files (x86)\Raisonance\Ride\lib\ARM\STM32F10x_LIB_V3.0.1\Libraries\STM32F10x_StdPeriph_Driver\src/stm32f10x_adc.c:232
  assert_param(IS_ADC_DATA_ALIGN(ADC_InitStruct->ADC_DataAlign)); 
  assert_param(IS_ADC_REGULAR_LENGTH(ADC_InitStruct->ADC_NbrOfChannel));

  /*---------------------------- ADCx CR1 Configuration -----------------*/
  /* Get the ADCx CR1 value */
  tmpreg1 = ADCx->CR1;
   0:	6842      	ldr	r2, [r0, #4]
C:\Program Files (x86)\Raisonance\Ride\lib\ARM\STM32F10x_LIB_V3.0.1\Libraries\STM32F10x_StdPeriph_Driver\src/stm32f10x_adc.c:238
  /* Clear DUALMOD and SCAN bits */
  tmpreg1 &= CR1_CLEAR_Mask;
  /* Configure ADCx: Dual mode and scan conversion mode */
  /* Set DUALMOD bits according to ADC_Mode value */
  /* Set SCAN bit according to ADC_ScanConvMode value */
  tmpreg1 |= (uint32_t)(ADC_InitStruct->ADC_Mode | ((uint32_t)ADC_InitStruct->ADC_ScanConvMode << 8));
   2:	f64f 63ff 	movw	r3, #65279	; 0xfeff
C:\Program Files (x86)\Raisonance\Ride\lib\ARM\STM32F10x_LIB_V3.0.1\Libraries\STM32F10x_StdPeriph_Driver\src/stm32f10x_adc.c:218
  * @param  ADC_InitStruct: pointer to an ADC_InitTypeDef structure that contains
  *   the configuration information for the specified ADC peripheral.
  * @retval None
  */
void ADC_Init(ADC_TypeDef* ADCx, ADC_InitTypeDef* ADC_InitStruct)
{
   6:	b430      	push	{r4, r5}
C:\Program Files (x86)\Raisonance\Ride\lib\ARM\STM32F10x_LIB_V3.0.1\Libraries\STM32F10x_StdPeriph_Driver\src/stm32f10x_adc.c:238
  /* Clear DUALMOD and SCAN bits */
  tmpreg1 &= CR1_CLEAR_Mask;
  /* Configure ADCx: Dual mode and scan conversion mode */
  /* Set DUALMOD bits according to ADC_Mode value */
  /* Set SCAN bit according to ADC_ScanConvMode value */
  tmpreg1 |= (uint32_t)(ADC_InitStruct->ADC_Mode | ((uint32_t)ADC_InitStruct->ADC_ScanConvMode << 8));
   8:	f6cf 73f0 	movt	r3, #65520	; 0xfff0
   c:	680c      	ldr	r4, [r1, #0]
   e:	401a      	ands	r2, r3
  10:	790b      	ldrb	r3, [r1, #4]
  12:	4322      	orrs	r2, r4
  14:	ea42 2203 	orr.w	r2, r2, r3, lsl #8
C:\Program Files (x86)\Raisonance\Ride\lib\ARM\STM32F10x_LIB_V3.0.1\Libraries\STM32F10x_StdPeriph_Driver\src/stm32f10x_adc.c:240
  /* Write to ADCx CR1 */
  ADCx->CR1 = tmpreg1;
  18:	6042      	str	r2, [r0, #4]
C:\Program Files (x86)\Raisonance\Ride\lib\ARM\STM32F10x_LIB_V3.0.1\Libraries\STM32F10x_StdPeriph_Driver\src/stm32f10x_adc.c:244

  /*---------------------------- ADCx CR2 Configuration -----------------*/
  /* Get the ADCx CR2 value */
  tmpreg1 = ADCx->CR2;
  1a:	6885      	ldr	r5, [r0, #8]
C:\Program Files (x86)\Raisonance\Ride\lib\ARM\STM32F10x_LIB_V3.0.1\Libraries\STM32F10x_StdPeriph_Driver\src/stm32f10x_adc.c:251
  tmpreg1 &= CR2_CLEAR_Mask;
  /* Configure ADCx: external trigger event and continuous conversion mode */
  /* Set ALIGN bit according to ADC_DataAlign value */
  /* Set EXTSEL bits according to ADC_ExternalTrigConv value */
  /* Set CONT bit according to ADC_ContinuousConvMode value */
  tmpreg1 |= (uint32_t)(ADC_InitStruct->ADC_DataAlign | ADC_InitStruct->ADC_ExternalTrigConv |
  1c:	68cc      	ldr	r4, [r1, #12]
  1e:	688a      	ldr	r2, [r1, #8]
  20:	f24f 73fd 	movw	r3, #63485	; 0xf7fd
  24:	f6cf 73f1 	movt	r3, #65521	; 0xfff1
  28:	4322      	orrs	r2, r4
  2a:	401d      	ands	r5, r3
  2c:	794b      	ldrb	r3, [r1, #5]
  2e:	432a      	orrs	r2, r5
  30:	ea42 0243 	orr.w	r2, r2, r3, lsl #1
C:\Program Files (x86)\Raisonance\Ride\lib\ARM\STM32F10x_LIB_V3.0.1\Libraries\STM32F10x_StdPeriph_Driver\src/stm32f10x_adc.c:254
            ((uint32_t)ADC_InitStruct->ADC_ContinuousConvMode << 1));
  /* Write to ADCx CR2 */
  ADCx->CR2 = tmpreg1;
  34:	6082      	str	r2, [r0, #8]
C:\Program Files (x86)\Raisonance\Ride\lib\ARM\STM32F10x_LIB_V3.0.1\Libraries\STM32F10x_StdPeriph_Driver\src/stm32f10x_adc.c:264
  /* Clear L bits */
  tmpreg1 &= SQR1_CLEAR_Mask;
  /* Configure ADCx: regular channel sequence length */
  /* Set L bits according to ADC_NbrOfChannel value */
  tmpreg2 |= (uint8_t) (ADC_InitStruct->ADC_NbrOfChannel - (uint8_t)1);
  tmpreg1 |= (uint32_t)tmpreg2 << 20;
  36:	7c0b      	ldrb	r3, [r1, #16]
C:\Program Files (x86)\Raisonance\Ride\lib\ARM\STM32F10x_LIB_V3.0.1\Libraries\STM32F10x_StdPeriph_Driver\src/stm32f10x_adc.c:258
  /* Write to ADCx CR2 */
  ADCx->CR2 = tmpreg1;

  /*---------------------------- ADCx SQR1 Configuration -----------------*/
  /* Get the ADCx SQR1 value */
  tmpreg1 = ADCx->SQR1;
  38:	6ac4      	ldr	r4, [r0, #44]
C:\Program Files (x86)\Raisonance\Ride\lib\ARM\STM32F10x_LIB_V3.0.1\Libraries\STM32F10x_StdPeriph_Driver\src/stm32f10x_adc.c:264
  /* Clear L bits */
  tmpreg1 &= SQR1_CLEAR_Mask;
  /* Configure ADCx: regular channel sequence length */
  /* Set L bits according to ADC_NbrOfChannel value */
  tmpreg2 |= (uint8_t) (ADC_InitStruct->ADC_NbrOfChannel - (uint8_t)1);
  tmpreg1 |= (uint32_t)tmpreg2 << 20;
  3a:	3b01      	subs	r3, #1
C:\Program Files (x86)\Raisonance\Ride\lib\ARM\STM32F10x_LIB_V3.0.1\Libraries\STM32F10x_StdPeriph_Driver\src/stm32f10x_adc.c:260

  /*---------------------------- ADCx SQR1 Configuration -----------------*/
  /* Get the ADCx SQR1 value */
  tmpreg1 = ADCx->SQR1;
  /* Clear L bits */
  tmpreg1 &= SQR1_CLEAR_Mask;
  3c:	f424 0470 	bic.w	r4, r4, #15728640	; 0xf00000
C:\Program Files (x86)\Raisonance\Ride\lib\ARM\STM32F10x_LIB_V3.0.1\Libraries\STM32F10x_StdPeriph_Driver\src/stm32f10x_adc.c:264
  /* Configure ADCx: regular channel sequence length */
  /* Set L bits according to ADC_NbrOfChannel value */
  tmpreg2 |= (uint8_t) (ADC_InitStruct->ADC_NbrOfChannel - (uint8_t)1);
  tmpreg1 |= (uint32_t)tmpreg2 << 20;
  40:	b2db      	uxtb	r3, r3
  42:	ea44 5403 	orr.w	r4, r4, r3, lsl #20
C:\Program Files (x86)\Raisonance\Ride\lib\ARM\STM32F10x_LIB_V3.0.1\Libraries\STM32F10x_StdPeriph_Driver\src/stm32f10x_adc.c:266
  /* Write to ADCx SQR1 */
  ADCx->SQR1 = tmpreg1;
  46:	62c4      	str	r4, [r0, #44]
C:\Program Files (x86)\Raisonance\Ride\lib\ARM\STM32F10x_LIB_V3.0.1\Libraries\STM32F10x_StdPeriph_Driver\src/stm32f10x_adc.c:267
}
  48:	bc30      	pop	{r4, r5}
  4a:	4770      	bx	lr
Disassembly of section .text.ADC_StructInit:

00000000 <ADC_StructInit>:
ADC_StructInit():
C:\Program Files (x86)\Raisonance\Ride\lib\ARM\STM32F10x_LIB_V3.0.1\Libraries\STM32F10x_StdPeriph_Driver\src/stm32f10x_adc.c:278
  */
void ADC_StructInit(ADC_InitTypeDef* ADC_InitStruct)
{
  /* Reset ADC init structure parameters values */
  /* Initialize the ADC_Mode member */
  ADC_InitStruct->ADC_Mode = ADC_Mode_Independent;
   0:	2300      	movs	r3, #0
C:\Program Files (x86)\Raisonance\Ride\lib\ARM\STM32F10x_LIB_V3.0.1\Libraries\STM32F10x_StdPeriph_Driver\src/stm32f10x_adc.c:288
  /* Initialize the ADC_ExternalTrigConv member */
  ADC_InitStruct->ADC_ExternalTrigConv = ADC_ExternalTrigConv_T1_CC1;
  /* Initialize the ADC_DataAlign member */
  ADC_InitStruct->ADC_DataAlign = ADC_DataAlign_Right;
  /* Initialize the ADC_NbrOfChannel member */
  ADC_InitStruct->ADC_NbrOfChannel = 1;
   2:	2201      	movs	r2, #1
C:\Program Files (x86)\Raisonance\Ride\lib\ARM\STM32F10x_LIB_V3.0.1\Libraries\STM32F10x_StdPeriph_Driver\src/stm32f10x_adc.c:278
  */
void ADC_StructInit(ADC_InitTypeDef* ADC_InitStruct)
{
  /* Reset ADC init structure parameters values */
  /* Initialize the ADC_Mode member */
  ADC_InitStruct->ADC_Mode = ADC_Mode_Independent;
   4:	6003      	str	r3, [r0, #0]
C:\Program Files (x86)\Raisonance\Ride\lib\ARM\STM32F10x_LIB_V3.0.1\Libraries\STM32F10x_StdPeriph_Driver\src/stm32f10x_adc.c:280
  /* initialize the ADC_ScanConvMode member */
  ADC_InitStruct->ADC_ScanConvMode = DISABLE;
   6:	7103      	strb	r3, [r0, #4]
C:\Program Files (x86)\Raisonance\Ride\lib\ARM\STM32F10x_LIB_V3.0.1\Libraries\STM32F10x_StdPeriph_Driver\src/stm32f10x_adc.c:282
  /* Initialize the ADC_ContinuousConvMode member */
  ADC_InitStruct->ADC_ContinuousConvMode = DISABLE;
   8:	7143      	strb	r3, [r0, #5]
C:\Program Files (x86)\Raisonance\Ride\lib\ARM\STM32F10x_LIB_V3.0.1\Libraries\STM32F10x_StdPeriph_Driver\src/stm32f10x_adc.c:284
  /* Initialize the ADC_ExternalTrigConv member */
  ADC_InitStruct->ADC_ExternalTrigConv = ADC_ExternalTrigConv_T1_CC1;
   a:	6083      	str	r3, [r0, #8]
C:\Program Files (x86)\Raisonance\Ride\lib\ARM\STM32F10x_LIB_V3.0.1\Libraries\STM32F10x_StdPeriph_Driver\src/stm32f10x_adc.c:286
  /* Initialize the ADC_DataAlign member */
  ADC_InitStruct->ADC_DataAlign = ADC_DataAlign_Right;
   c:	60c3      	str	r3, [r0, #12]
C:\Program Files (x86)\Raisonance\Ride\lib\ARM\STM32F10x_LIB_V3.0.1\Libraries\STM32F10x_StdPeriph_Driver\src/stm32f10x_adc.c:288
  /* Initialize the ADC_NbrOfChannel member */
  ADC_InitStruct->ADC_NbrOfChannel = 1;
   e:	7402      	strb	r2, [r0, #16]
C:\Program Files (x86)\Raisonance\Ride\lib\ARM\STM32F10x_LIB_V3.0.1\Libraries\STM32F10x_StdPeriph_Driver\src/stm32f10x_adc.c:289
}
  10:	4770      	bx	lr
  12:	46c0      	nop			(mov r8, r8)
Disassembly of section .text.ADC_Cmd:

00000000 <ADC_Cmd>:
ADC_Cmd():
C:\Program Files (x86)\Raisonance\Ride\lib\ARM\STM32F10x_LIB_V3.0.1\Libraries\STM32F10x_StdPeriph_Driver\src/stm32f10x_adc.c:303
void ADC_Cmd(ADC_TypeDef* ADCx, FunctionalState NewState)
{
  /* Check the parameters */
  assert_param(IS_ADC_ALL_PERIPH(ADCx));
  assert_param(IS_FUNCTIONAL_STATE(NewState));
  if (NewState != DISABLE)
   0:	b921      	cbnz	r1, c <ADC_Cmd+0xc>
C:\Program Files (x86)\Raisonance\Ride\lib\ARM\STM32F10x_LIB_V3.0.1\Libraries\STM32F10x_StdPeriph_Driver\src/stm32f10x_adc.c:311
    ADCx->CR2 |= CR2_ADON_Set;
  }
  else
  {
    /* Disable the selected ADC peripheral */
    ADCx->CR2 &= CR2_ADON_Reset;
   2:	6883      	ldr	r3, [r0, #8]
   4:	f023 0301 	bic.w	r3, r3, #1	; 0x1
   8:	6083      	str	r3, [r0, #8]
C:\Program Files (x86)\Raisonance\Ride\lib\ARM\STM32F10x_LIB_V3.0.1\Libraries\STM32F10x_StdPeriph_Driver\src/stm32f10x_adc.c:313
  }
}
   a:	4770      	bx	lr
C:\Program Files (x86)\Raisonance\Ride\lib\ARM\STM32F10x_LIB_V3.0.1\Libraries\STM32F10x_StdPeriph_Driver\src/stm32f10x_adc.c:306
  assert_param(IS_ADC_ALL_PERIPH(ADCx));
  assert_param(IS_FUNCTIONAL_STATE(NewState));
  if (NewState != DISABLE)
  {
    /* Set the ADON bit to wake up the ADC from power down mode */
    ADCx->CR2 |= CR2_ADON_Set;
   c:	6883      	ldr	r3, [r0, #8]
   e:	f043 0301 	orr.w	r3, r3, #1	; 0x1
  12:	6083      	str	r3, [r0, #8]
  14:	e7f9      	b.n	a <ADC_Cmd+0xa>
  16:	46c0      	nop			(mov r8, r8)
Disassembly of section .text.ADC_DMACmd:

00000000 <ADC_DMACmd>:
ADC_DMACmd():
C:\Program Files (x86)\Raisonance\Ride\lib\ARM\STM32F10x_LIB_V3.0.1\Libraries\STM32F10x_StdPeriph_Driver\src/stm32f10x_adc.c:328
void ADC_DMACmd(ADC_TypeDef* ADCx, FunctionalState NewState)
{
  /* Check the parameters */
  assert_param(IS_ADC_DMA_PERIPH(ADCx));
  assert_param(IS_FUNCTIONAL_STATE(NewState));
  if (NewState != DISABLE)
   0:	b921      	cbnz	r1, c <ADC_DMACmd+0xc>
C:\Program Files (x86)\Raisonance\Ride\lib\ARM\STM32F10x_LIB_V3.0.1\Libraries\STM32F10x_StdPeriph_Driver\src/stm32f10x_adc.c:336
    ADCx->CR2 |= CR2_DMA_Set;
  }
  else
  {
    /* Disable the selected ADC DMA request */
    ADCx->CR2 &= CR2_DMA_Reset;
   2:	6883      	ldr	r3, [r0, #8]
   4:	f423 7380 	bic.w	r3, r3, #256	; 0x100
   8:	6083      	str	r3, [r0, #8]
C:\Program Files (x86)\Raisonance\Ride\lib\ARM\STM32F10x_LIB_V3.0.1\Libraries\STM32F10x_StdPeriph_Driver\src/stm32f10x_adc.c:338
  }
}
   a:	4770      	bx	lr
C:\Program Files (x86)\Raisonance\Ride\lib\ARM\STM32F10x_LIB_V3.0.1\Libraries\STM32F10x_StdPeriph_Driver\src/stm32f10x_adc.c:331
  assert_param(IS_ADC_DMA_PERIPH(ADCx));
  assert_param(IS_FUNCTIONAL_STATE(NewState));
  if (NewState != DISABLE)
  {
    /* Enable the selected ADC DMA request */
    ADCx->CR2 |= CR2_DMA_Set;
   c:	6883      	ldr	r3, [r0, #8]
   e:	f443 7380 	orr.w	r3, r3, #256	; 0x100
  12:	6083      	str	r3, [r0, #8]
  14:	e7f9      	b.n	a <ADC_DMACmd+0xa>
  16:	46c0      	nop			(mov r8, r8)
Disassembly of section .text.ADC_ITConfig:

00000000 <ADC_ITConfig>:
ADC_ITConfig():
C:\Program Files (x86)\Raisonance\Ride\lib\ARM\STM32F10x_LIB_V3.0.1\Libraries\STM32F10x_StdPeriph_Driver\src/stm32f10x_adc.c:360
  /* Check the parameters */
  assert_param(IS_ADC_ALL_PERIPH(ADCx));
  assert_param(IS_FUNCTIONAL_STATE(NewState));
  assert_param(IS_ADC_IT(ADC_IT));
  /* Get the ADC IT index */
  itmask = (uint8_t)ADC_IT;
   0:	b2c9      	uxtb	r1, r1
C:\Program Files (x86)\Raisonance\Ride\lib\ARM\STM32F10x_LIB_V3.0.1\Libraries\STM32F10x_StdPeriph_Driver\src/stm32f10x_adc.c:361
  if (NewState != DISABLE)
   2:	b922      	cbnz	r2, e <ADC_ITConfig+0xe>
C:\Program Files (x86)\Raisonance\Ride\lib\ARM\STM32F10x_LIB_V3.0.1\Libraries\STM32F10x_StdPeriph_Driver\src/stm32f10x_adc.c:369
    ADCx->CR1 |= itmask;
  }
  else
  {
    /* Disable the selected ADC interrupts */
    ADCx->CR1 &= (~(uint32_t)itmask);
   4:	6842      	ldr	r2, [r0, #4]
   6:	43cb      	mvns	r3, r1
   8:	4013      	ands	r3, r2
   a:	6043      	str	r3, [r0, #4]
C:\Program Files (x86)\Raisonance\Ride\lib\ARM\STM32F10x_LIB_V3.0.1\Libraries\STM32F10x_StdPeriph_Driver\src/stm32f10x_adc.c:371
  }
}
   c:	4770      	bx	lr
C:\Program Files (x86)\Raisonance\Ride\lib\ARM\STM32F10x_LIB_V3.0.1\Libraries\STM32F10x_StdPeriph_Driver\src/stm32f10x_adc.c:364
  /* Get the ADC IT index */
  itmask = (uint8_t)ADC_IT;
  if (NewState != DISABLE)
  {
    /* Enable the selected ADC interrupts */
    ADCx->CR1 |= itmask;
   e:	6843      	ldr	r3, [r0, #4]
  10:	ea41 0303 	orr.w	r3, r1, r3
  14:	6043      	str	r3, [r0, #4]
  16:	e7f9      	b.n	c <ADC_ITConfig+0xc>
Disassembly of section .text.ADC_ResetCalibration:

00000000 <ADC_ResetCalibration>:
ADC_ResetCalibration():
C:\Program Files (x86)\Raisonance\Ride\lib\ARM\STM32F10x_LIB_V3.0.1\Libraries\STM32F10x_StdPeriph_Driver\src/stm32f10x_adc.c:383
void ADC_ResetCalibration(ADC_TypeDef* ADCx)
{
  /* Check the parameters */
  assert_param(IS_ADC_ALL_PERIPH(ADCx));
  /* Resets the selected ADC calibartion registers */  
  ADCx->CR2 |= CR2_RSTCAL_Set;
   0:	6883      	ldr	r3, [r0, #8]
   2:	f043 0308 	orr.w	r3, r3, #8	; 0x8
   6:	6083      	str	r3, [r0, #8]
C:\Program Files (x86)\Raisonance\Ride\lib\ARM\STM32F10x_LIB_V3.0.1\Libraries\STM32F10x_StdPeriph_Driver\src/stm32f10x_adc.c:384
}
   8:	4770      	bx	lr
   a:	46c0      	nop			(mov r8, r8)
Disassembly of section .text.ADC_GetResetCalibrationStatus:

00000000 <ADC_GetResetCalibrationStatus>:
ADC_GetResetCalibrationStatus():
C:\Program Files (x86)\Raisonance\Ride\lib\ARM\STM32F10x_LIB_V3.0.1\Libraries\STM32F10x_StdPeriph_Driver\src/stm32f10x_adc.c:397
{
  FlagStatus bitstatus = RESET;
  /* Check the parameters */
  assert_param(IS_ADC_ALL_PERIPH(ADCx));
  /* Check the status of RSTCAL bit */
  if ((ADCx->CR2 & CR2_RSTCAL_Set) != (uint32_t)RESET)
   0:	6880      	ldr	r0, [r0, #8]
   2:	08c0      	lsrs	r0, r0, #3
C:\Program Files (x86)\Raisonance\Ride\lib\ARM\STM32F10x_LIB_V3.0.1\Libraries\STM32F10x_StdPeriph_Driver\src/stm32f10x_adc.c:409
    /* RSTCAL bit is reset */
    bitstatus = RESET;
  }
  /* Return the RSTCAL bit status */
  return  bitstatus;
}
   4:	f000 0001 	and.w	r0, r0, #1	; 0x1
   8:	4770      	bx	lr
   a:	46c0      	nop			(mov r8, r8)
Disassembly of section .text.ADC_StartCalibration:

00000000 <ADC_StartCalibration>:
ADC_StartCalibration():
C:\Program Files (x86)\Raisonance\Ride\lib\ARM\STM32F10x_LIB_V3.0.1\Libraries\STM32F10x_StdPeriph_Driver\src/stm32f10x_adc.c:421
void ADC_StartCalibration(ADC_TypeDef* ADCx)
{
  /* Check the parameters */
  assert_param(IS_ADC_ALL_PERIPH(ADCx));
  /* Enable the selected ADC calibration process */  
  ADCx->CR2 |= CR2_CAL_Set;
   0:	6883      	ldr	r3, [r0, #8]
   2:	f043 0304 	orr.w	r3, r3, #4	; 0x4
   6:	6083      	str	r3, [r0, #8]
C:\Program Files (x86)\Raisonance\Ride\lib\ARM\STM32F10x_LIB_V3.0.1\Libraries\STM32F10x_StdPeriph_Driver\src/stm32f10x_adc.c:422
}
   8:	4770      	bx	lr
   a:	46c0      	nop			(mov r8, r8)
Disassembly of section .text.ADC_GetCalibrationStatus:

00000000 <ADC_GetCalibrationStatus>:
ADC_GetCalibrationStatus():
C:\Program Files (x86)\Raisonance\Ride\lib\ARM\STM32F10x_LIB_V3.0.1\Libraries\STM32F10x_StdPeriph_Driver\src/stm32f10x_adc.c:435
{
  FlagStatus bitstatus = RESET;
  /* Check the parameters */
  assert_param(IS_ADC_ALL_PERIPH(ADCx));
  /* Check the status of CAL bit */
  if ((ADCx->CR2 & CR2_CAL_Set) != (uint32_t)RESET)
   0:	6880      	ldr	r0, [r0, #8]
   2:	0880      	lsrs	r0, r0, #2
C:\Program Files (x86)\Raisonance\Ride\lib\ARM\STM32F10x_LIB_V3.0.1\Libraries\STM32F10x_StdPeriph_Driver\src/stm32f10x_adc.c:447
    /* CAL bit is reset: end of calibration */
    bitstatus = RESET;
  }
  /* Return the CAL bit status */
  return  bitstatus;
}
   4:	f000 0001 	and.w	r0, r0, #1	; 0x1
   8:	4770      	bx	lr
   a:	46c0      	nop			(mov r8, r8)
Disassembly of section .text.ADC_SoftwareStartConvCmd:

00000000 <ADC_SoftwareStartConvCmd>:
ADC_SoftwareStartConvCmd():
C:\Program Files (x86)\Raisonance\Ride\lib\ARM\STM32F10x_LIB_V3.0.1\Libraries\STM32F10x_StdPeriph_Driver\src/stm32f10x_adc.c:461
void ADC_SoftwareStartConvCmd(ADC_TypeDef* ADCx, FunctionalState NewState)
{
  /* Check the parameters */
  assert_param(IS_ADC_ALL_PERIPH(ADCx));
  assert_param(IS_FUNCTIONAL_STATE(NewState));
  if (NewState != DISABLE)
   0:	b921      	cbnz	r1, c <ADC_SoftwareStartConvCmd+0xc>
C:\Program Files (x86)\Raisonance\Ride\lib\ARM\STM32F10x_LIB_V3.0.1\Libraries\STM32F10x_StdPeriph_Driver\src/stm32f10x_adc.c:471
  }
  else
  {
    /* Disable the selected ADC conversion on external event and stop the selected
       ADC conversion */
    ADCx->CR2 &= CR2_EXTTRIG_SWSTART_Reset;
   2:	6883      	ldr	r3, [r0, #8]
   4:	f423 03a0 	bic.w	r3, r3, #5242880	; 0x500000
   8:	6083      	str	r3, [r0, #8]
C:\Program Files (x86)\Raisonance\Ride\lib\ARM\STM32F10x_LIB_V3.0.1\Libraries\STM32F10x_StdPeriph_Driver\src/stm32f10x_adc.c:473
  }
}
   a:	4770      	bx	lr
C:\Program Files (x86)\Raisonance\Ride\lib\ARM\STM32F10x_LIB_V3.0.1\Libraries\STM32F10x_StdPeriph_Driver\src/stm32f10x_adc.c:465
  assert_param(IS_FUNCTIONAL_STATE(NewState));
  if (NewState != DISABLE)
  {
    /* Enable the selected ADC conversion on external event and start the selected
       ADC conversion */
    ADCx->CR2 |= CR2_EXTTRIG_SWSTART_Set;
   c:	6883      	ldr	r3, [r0, #8]
   e:	f443 03a0 	orr.w	r3, r3, #5242880	; 0x500000
  12:	6083      	str	r3, [r0, #8]
  14:	e7f9      	b.n	a <ADC_SoftwareStartConvCmd+0xa>
  16:	46c0      	nop			(mov r8, r8)
Disassembly of section .text.ADC_GetSoftwareStartConvStatus:

00000000 <ADC_GetSoftwareStartConvStatus>:
ADC_GetSoftwareStartConvStatus():
C:\Program Files (x86)\Raisonance\Ride\lib\ARM\STM32F10x_LIB_V3.0.1\Libraries\STM32F10x_StdPeriph_Driver\src/stm32f10x_adc.c:486
{
  FlagStatus bitstatus = RESET;
  /* Check the parameters */
  assert_param(IS_ADC_ALL_PERIPH(ADCx));
  /* Check the status of SWSTART bit */
  if ((ADCx->CR2 & CR2_SWSTART_Set) != (uint32_t)RESET)
   0:	6880      	ldr	r0, [r0, #8]
   2:	0d80      	lsrs	r0, r0, #22
C:\Program Files (x86)\Raisonance\Ride\lib\ARM\STM32F10x_LIB_V3.0.1\Libraries\STM32F10x_StdPeriph_Driver\src/stm32f10x_adc.c:498
    /* SWSTART bit is reset */
    bitstatus = RESET;
  }
  /* Return the SWSTART bit status */
  return  bitstatus;
}
   4:	f000 0001 	and.w	r0, r0, #1	; 0x1
   8:	4770      	bx	lr
   a:	46c0      	nop			(mov r8, r8)
Disassembly of section .text.ADC_DiscModeChannelCountConfig:

00000000 <ADC_DiscModeChannelCountConfig>:
ADC_DiscModeChannelCountConfig():
C:\Program Files (x86)\Raisonance\Ride\lib\ARM\STM32F10x_LIB_V3.0.1\Libraries\STM32F10x_StdPeriph_Driver\src/stm32f10x_adc.c:516
  uint32_t tmpreg2 = 0;
  /* Check the parameters */
  assert_param(IS_ADC_ALL_PERIPH(ADCx));
  assert_param(IS_ADC_REGULAR_DISC_NUMBER(Number));
  /* Get the old register value */
  tmpreg1 = ADCx->CR1;
   0:	6843      	ldr	r3, [r0, #4]
C:\Program Files (x86)\Raisonance\Ride\lib\ARM\STM32F10x_LIB_V3.0.1\Libraries\STM32F10x_StdPeriph_Driver\src/stm32f10x_adc.c:521
  /* Clear the old discontinuous mode channel count */
  tmpreg1 &= CR1_DISCNUM_Reset;
  /* Set the discontinuous mode channel count */
  tmpreg2 = Number - 1;
  tmpreg1 |= tmpreg2 << 13;
   2:	3901      	subs	r1, #1
C:\Program Files (x86)\Raisonance\Ride\lib\ARM\STM32F10x_LIB_V3.0.1\Libraries\STM32F10x_StdPeriph_Driver\src/stm32f10x_adc.c:518
  assert_param(IS_ADC_ALL_PERIPH(ADCx));
  assert_param(IS_ADC_REGULAR_DISC_NUMBER(Number));
  /* Get the old register value */
  tmpreg1 = ADCx->CR1;
  /* Clear the old discontinuous mode channel count */
  tmpreg1 &= CR1_DISCNUM_Reset;
   4:	f423 4360 	bic.w	r3, r3, #57344	; 0xe000
C:\Program Files (x86)\Raisonance\Ride\lib\ARM\STM32F10x_LIB_V3.0.1\Libraries\STM32F10x_StdPeriph_Driver\src/stm32f10x_adc.c:521
  /* Set the discontinuous mode channel count */
  tmpreg2 = Number - 1;
  tmpreg1 |= tmpreg2 << 13;
   8:	ea43 3341 	orr.w	r3, r3, r1, lsl #13
C:\Program Files (x86)\Raisonance\Ride\lib\ARM\STM32F10x_LIB_V3.0.1\Libraries\STM32F10x_StdPeriph_Driver\src/stm32f10x_adc.c:523
  /* Store the new register value */
  ADCx->CR1 = tmpreg1;
   c:	6043      	str	r3, [r0, #4]
C:\Program Files (x86)\Raisonance\Ride\lib\ARM\STM32F10x_LIB_V3.0.1\Libraries\STM32F10x_StdPeriph_Driver\src/stm32f10x_adc.c:524
}
   e:	4770      	bx	lr
Disassembly of section .text.ADC_DiscModeCmd:

00000000 <ADC_DiscModeCmd>:
ADC_DiscModeCmd():
C:\Program Files (x86)\Raisonance\Ride\lib\ARM\STM32F10x_LIB_V3.0.1\Libraries\STM32F10x_StdPeriph_Driver\src/stm32f10x_adc.c:540
void ADC_DiscModeCmd(ADC_TypeDef* ADCx, FunctionalState NewState)
{
  /* Check the parameters */
  assert_param(IS_ADC_ALL_PERIPH(ADCx));
  assert_param(IS_FUNCTIONAL_STATE(NewState));
  if (NewState != DISABLE)
   0:	b921      	cbnz	r1, c <ADC_DiscModeCmd+0xc>
C:\Program Files (x86)\Raisonance\Ride\lib\ARM\STM32F10x_LIB_V3.0.1\Libraries\STM32F10x_StdPeriph_Driver\src/stm32f10x_adc.c:548
    ADCx->CR1 |= CR1_DISCEN_Set;
  }
  else
  {
    /* Disable the selected ADC regular discontinuous mode */
    ADCx->CR1 &= CR1_DISCEN_Reset;
   2:	6843      	ldr	r3, [r0, #4]
   4:	f423 6300 	bic.w	r3, r3, #2048	; 0x800
   8:	6043      	str	r3, [r0, #4]
C:\Program Files (x86)\Raisonance\Ride\lib\ARM\STM32F10x_LIB_V3.0.1\Libraries\STM32F10x_StdPeriph_Driver\src/stm32f10x_adc.c:550
  }
}
   a:	4770      	bx	lr
C:\Program Files (x86)\Raisonance\Ride\lib\ARM\STM32F10x_LIB_V3.0.1\Libraries\STM32F10x_StdPeriph_Driver\src/stm32f10x_adc.c:543
  assert_param(IS_ADC_ALL_PERIPH(ADCx));
  assert_param(IS_FUNCTIONAL_STATE(NewState));
  if (NewState != DISABLE)
  {
    /* Enable the selected ADC regular discontinuous mode */
    ADCx->CR1 |= CR1_DISCEN_Set;
   c:	6843      	ldr	r3, [r0, #4]
   e:	f443 6300 	orr.w	r3, r3, #2048	; 0x800
  12:	6043      	str	r3, [r0, #4]
  14:	e7f9      	b.n	a <ADC_DiscModeCmd+0xa>
  16:	46c0      	nop			(mov r8, r8)
Disassembly of section .text.ADC_RegularChannelConfig:

00000000 <ADC_RegularChannelConfig>:
ADC_RegularChannelConfig():
C:\Program Files (x86)\Raisonance\Ride\lib\ARM\STM32F10x_LIB_V3.0.1\Libraries\STM32F10x_StdPeriph_Driver\src/stm32f10x_adc.c:598
  assert_param(IS_ADC_ALL_PERIPH(ADCx));
  assert_param(IS_ADC_CHANNEL(ADC_Channel));
  assert_param(IS_ADC_REGULAR_RANK(Rank));
  assert_param(IS_ADC_SAMPLE_TIME(ADC_SampleTime));
  /* if ADC_Channel_10 ... ADC_Channel_17 is selected */
  if (ADC_Channel > ADC_Channel_9)
   0:	2909      	cmp	r1, #9
C:\Program Files (x86)\Raisonance\Ride\lib\ARM\STM32F10x_LIB_V3.0.1\Libraries\STM32F10x_StdPeriph_Driver\src/stm32f10x_adc.c:590
  *     @arg ADC_SampleTime_71Cycles5: Sample time equal to 71.5 cycles	
  *     @arg ADC_SampleTime_239Cycles5: Sample time equal to 239.5 cycles	
  * @retval None
  */
void ADC_RegularChannelConfig(ADC_TypeDef* ADCx, uint8_t ADC_Channel, uint8_t Rank, uint8_t ADC_SampleTime)
{
   2:	b430      	push	{r4, r5}
   4:	4694      	mov	ip, r2
   6:	4604      	mov	r4, r0
   8:	461d      	mov	r5, r3
   a:	4608      	mov	r0, r1
C:\Program Files (x86)\Raisonance\Ride\lib\ARM\STM32F10x_LIB_V3.0.1\Libraries\STM32F10x_StdPeriph_Driver\src/stm32f10x_adc.c:598
  assert_param(IS_ADC_ALL_PERIPH(ADCx));
  assert_param(IS_ADC_CHANNEL(ADC_Channel));
  assert_param(IS_ADC_REGULAR_RANK(Rank));
  assert_param(IS_ADC_SAMPLE_TIME(ADC_SampleTime));
  /* if ADC_Channel_10 ... ADC_Channel_17 is selected */
  if (ADC_Channel > ADC_Channel_9)
   c:	d920      	bls.n	50 <ADC_RegularChannelConfig+0x50>
C:\Program Files (x86)\Raisonance\Ride\lib\ARM\STM32F10x_LIB_V3.0.1\Libraries\STM32F10x_StdPeriph_Driver\src/stm32f10x_adc.c:603
  {
    /* Get the old register value */
    tmpreg1 = ADCx->SMPR1;
    /* Calculate the mask to clear */
    tmpreg2 = SMPR1_SMP_Set << (3 * (ADC_Channel - 10));
   e:	0042      	lsls	r2, r0, #1
  10:	1812      	adds	r2, r2, r0
  12:	3a1e      	subs	r2, #30
C:\Program Files (x86)\Raisonance\Ride\lib\ARM\STM32F10x_LIB_V3.0.1\Libraries\STM32F10x_StdPeriph_Driver\src/stm32f10x_adc.c:605
    /* Clear the old channel sample time */
    tmpreg1 &= ~tmpreg2;
  14:	2307      	movs	r3, #7
  16:	4093      	lsls	r3, r2
C:\Program Files (x86)\Raisonance\Ride\lib\ARM\STM32F10x_LIB_V3.0.1\Libraries\STM32F10x_StdPeriph_Driver\src/stm32f10x_adc.c:609
    /* Calculate the mask to set */
    tmpreg2 = (uint32_t)ADC_SampleTime << (3 * (ADC_Channel - 10));
    /* Set the new channel sample time */
    tmpreg1 |= tmpreg2;
  18:	fa15 f202 	lsls.w	r2, r5, r2
C:\Program Files (x86)\Raisonance\Ride\lib\ARM\STM32F10x_LIB_V3.0.1\Libraries\STM32F10x_StdPeriph_Driver\src/stm32f10x_adc.c:601
  assert_param(IS_ADC_SAMPLE_TIME(ADC_SampleTime));
  /* if ADC_Channel_10 ... ADC_Channel_17 is selected */
  if (ADC_Channel > ADC_Channel_9)
  {
    /* Get the old register value */
    tmpreg1 = ADCx->SMPR1;
  1c:	68e1      	ldr	r1, [r4, #12]
C:\Program Files (x86)\Raisonance\Ride\lib\ARM\STM32F10x_LIB_V3.0.1\Libraries\STM32F10x_StdPeriph_Driver\src/stm32f10x_adc.c:605
    /* Calculate the mask to clear */
    tmpreg2 = SMPR1_SMP_Set << (3 * (ADC_Channel - 10));
    /* Clear the old channel sample time */
    tmpreg1 &= ~tmpreg2;
  1e:	43db      	mvns	r3, r3
  20:	400b      	ands	r3, r1
C:\Program Files (x86)\Raisonance\Ride\lib\ARM\STM32F10x_LIB_V3.0.1\Libraries\STM32F10x_StdPeriph_Driver\src/stm32f10x_adc.c:609
    /* Calculate the mask to set */
    tmpreg2 = (uint32_t)ADC_SampleTime << (3 * (ADC_Channel - 10));
    /* Set the new channel sample time */
    tmpreg1 |= tmpreg2;
  22:	4313      	orrs	r3, r2
C:\Program Files (x86)\Raisonance\Ride\lib\ARM\STM32F10x_LIB_V3.0.1\Libraries\STM32F10x_StdPeriph_Driver\src/stm32f10x_adc.c:629
    tmpreg1 |= tmpreg2;
    /* Store the new register value */
    ADCx->SMPR2 = tmpreg1;
  }
  /* For Rank 1 to 6 */
  if (Rank < 7)
  24:	f1bc 0f06 	cmp.w	ip, #6	; 0x6
C:\Program Files (x86)\Raisonance\Ride\lib\ARM\STM32F10x_LIB_V3.0.1\Libraries\STM32F10x_StdPeriph_Driver\src/stm32f10x_adc.c:611
    /* Calculate the mask to set */
    tmpreg2 = (uint32_t)ADC_SampleTime << (3 * (ADC_Channel - 10));
    /* Set the new channel sample time */
    tmpreg1 |= tmpreg2;
    /* Store the new register value */
    ADCx->SMPR1 = tmpreg1;
  28:	60e3      	str	r3, [r4, #12]
C:\Program Files (x86)\Raisonance\Ride\lib\ARM\STM32F10x_LIB_V3.0.1\Libraries\STM32F10x_StdPeriph_Driver\src/stm32f10x_adc.c:629
    tmpreg1 |= tmpreg2;
    /* Store the new register value */
    ADCx->SMPR2 = tmpreg1;
  }
  /* For Rank 1 to 6 */
  if (Rank < 7)
  2a:	d91f      	bls.n	6c <ADC_RegularChannelConfig+0x6c>
C:\Program Files (x86)\Raisonance\Ride\lib\ARM\STM32F10x_LIB_V3.0.1\Libraries\STM32F10x_StdPeriph_Driver\src/stm32f10x_adc.c:645
    tmpreg1 |= tmpreg2;
    /* Store the new register value */
    ADCx->SQR3 = tmpreg1;
  }
  /* For Rank 7 to 12 */
  else if (Rank < 13)
  2c:	f1bc 0f0c 	cmp.w	ip, #12	; 0xc
  30:	d92a      	bls.n	88 <ADC_RegularChannelConfig+0x88>
C:\Program Files (x86)\Raisonance\Ride\lib\ARM\STM32F10x_LIB_V3.0.1\Libraries\STM32F10x_StdPeriph_Driver\src/stm32f10x_adc.c:666
  else
  {
    /* Get the old register value */
    tmpreg1 = ADCx->SQR1;
    /* Calculate the mask to clear */
    tmpreg2 = SQR1_SQ_Set << (5 * (Rank - 13));
  32:	ea4f 028c 	mov.w	r2, ip, lsl #2
  36:	4462      	add	r2, ip
  38:	3a41      	subs	r2, #65
C:\Program Files (x86)\Raisonance\Ride\lib\ARM\STM32F10x_LIB_V3.0.1\Libraries\STM32F10x_StdPeriph_Driver\src/stm32f10x_adc.c:668
    /* Clear the old SQx bits for the selected rank */
    tmpreg1 &= ~tmpreg2;
  3a:	231f      	movs	r3, #31
  3c:	4093      	lsls	r3, r2
C:\Program Files (x86)\Raisonance\Ride\lib\ARM\STM32F10x_LIB_V3.0.1\Libraries\STM32F10x_StdPeriph_Driver\src/stm32f10x_adc.c:672
    /* Calculate the mask to set */
    tmpreg2 = (uint32_t)ADC_Channel << (5 * (Rank - 13));
    /* Set the SQx bits for the selected rank */
    tmpreg1 |= tmpreg2;
  3e:	fa10 f202 	lsls.w	r2, r0, r2
C:\Program Files (x86)\Raisonance\Ride\lib\ARM\STM32F10x_LIB_V3.0.1\Libraries\STM32F10x_StdPeriph_Driver\src/stm32f10x_adc.c:664
  }
  /* For Rank 13 to 16 */
  else
  {
    /* Get the old register value */
    tmpreg1 = ADCx->SQR1;
  42:	6ae1      	ldr	r1, [r4, #44]
C:\Program Files (x86)\Raisonance\Ride\lib\ARM\STM32F10x_LIB_V3.0.1\Libraries\STM32F10x_StdPeriph_Driver\src/stm32f10x_adc.c:668
    /* Calculate the mask to clear */
    tmpreg2 = SQR1_SQ_Set << (5 * (Rank - 13));
    /* Clear the old SQx bits for the selected rank */
    tmpreg1 &= ~tmpreg2;
  44:	43db      	mvns	r3, r3
  46:	400b      	ands	r3, r1
C:\Program Files (x86)\Raisonance\Ride\lib\ARM\STM32F10x_LIB_V3.0.1\Libraries\STM32F10x_StdPeriph_Driver\src/stm32f10x_adc.c:672
    /* Calculate the mask to set */
    tmpreg2 = (uint32_t)ADC_Channel << (5 * (Rank - 13));
    /* Set the SQx bits for the selected rank */
    tmpreg1 |= tmpreg2;
  48:	4313      	orrs	r3, r2
C:\Program Files (x86)\Raisonance\Ride\lib\ARM\STM32F10x_LIB_V3.0.1\Libraries\STM32F10x_StdPeriph_Driver\src/stm32f10x_adc.c:674
    /* Store the new register value */
    ADCx->SQR1 = tmpreg1;
  4a:	62e3      	str	r3, [r4, #44]
C:\Program Files (x86)\Raisonance\Ride\lib\ARM\STM32F10x_LIB_V3.0.1\Libraries\STM32F10x_StdPeriph_Driver\src/stm32f10x_adc.c:676
  }
}
  4c:	bc30      	pop	{r4, r5}
  4e:	4770      	bx	lr
C:\Program Files (x86)\Raisonance\Ride\lib\ARM\STM32F10x_LIB_V3.0.1\Libraries\STM32F10x_StdPeriph_Driver\src/stm32f10x_adc.c:618
  else /* ADC_Channel include in ADC_Channel_[0..9] */
  {
    /* Get the old register value */
    tmpreg1 = ADCx->SMPR2;
    /* Calculate the mask to clear */
    tmpreg2 = SMPR2_SMP_Set << (3 * ADC_Channel);
  50:	0042      	lsls	r2, r0, #1
  52:	1812      	adds	r2, r2, r0
C:\Program Files (x86)\Raisonance\Ride\lib\ARM\STM32F10x_LIB_V3.0.1\Libraries\STM32F10x_StdPeriph_Driver\src/stm32f10x_adc.c:620
    /* Clear the old channel sample time */
    tmpreg1 &= ~tmpreg2;
  54:	2307      	movs	r3, #7
  56:	4093      	lsls	r3, r2
C:\Program Files (x86)\Raisonance\Ride\lib\ARM\STM32F10x_LIB_V3.0.1\Libraries\STM32F10x_StdPeriph_Driver\src/stm32f10x_adc.c:624
    /* Calculate the mask to set */
    tmpreg2 = (uint32_t)ADC_SampleTime << (3 * ADC_Channel);
    /* Set the new channel sample time */
    tmpreg1 |= tmpreg2;
  58:	fa15 f202 	lsls.w	r2, r5, r2
C:\Program Files (x86)\Raisonance\Ride\lib\ARM\STM32F10x_LIB_V3.0.1\Libraries\STM32F10x_StdPeriph_Driver\src/stm32f10x_adc.c:616
    ADCx->SMPR1 = tmpreg1;
  }
  else /* ADC_Channel include in ADC_Channel_[0..9] */
  {
    /* Get the old register value */
    tmpreg1 = ADCx->SMPR2;
  5c:	6921      	ldr	r1, [r4, #16]
C:\Program Files (x86)\Raisonance\Ride\lib\ARM\STM32F10x_LIB_V3.0.1\Libraries\STM32F10x_StdPeriph_Driver\src/stm32f10x_adc.c:620
    /* Calculate the mask to clear */
    tmpreg2 = SMPR2_SMP_Set << (3 * ADC_Channel);
    /* Clear the old channel sample time */
    tmpreg1 &= ~tmpreg2;
  5e:	43db      	mvns	r3, r3
  60:	400b      	ands	r3, r1
C:\Program Files (x86)\Raisonance\Ride\lib\ARM\STM32F10x_LIB_V3.0.1\Libraries\STM32F10x_StdPeriph_Driver\src/stm32f10x_adc.c:624
    /* Calculate the mask to set */
    tmpreg2 = (uint32_t)ADC_SampleTime << (3 * ADC_Channel);
    /* Set the new channel sample time */
    tmpreg1 |= tmpreg2;
  62:	4313      	orrs	r3, r2
C:\Program Files (x86)\Raisonance\Ride\lib\ARM\STM32F10x_LIB_V3.0.1\Libraries\STM32F10x_StdPeriph_Driver\src/stm32f10x_adc.c:629
    /* Store the new register value */
    ADCx->SMPR2 = tmpreg1;
  }
  /* For Rank 1 to 6 */
  if (Rank < 7)
  64:	f1bc 0f06 	cmp.w	ip, #6	; 0x6
C:\Program Files (x86)\Raisonance\Ride\lib\ARM\STM32F10x_LIB_V3.0.1\Libraries\STM32F10x_StdPeriph_Driver\src/stm32f10x_adc.c:626
    /* Calculate the mask to set */
    tmpreg2 = (uint32_t)ADC_SampleTime << (3 * ADC_Channel);
    /* Set the new channel sample time */
    tmpreg1 |= tmpreg2;
    /* Store the new register value */
    ADCx->SMPR2 = tmpreg1;
  68:	6123      	str	r3, [r4, #16]
C:\Program Files (x86)\Raisonance\Ride\lib\ARM\STM32F10x_LIB_V3.0.1\Libraries\STM32F10x_StdPeriph_Driver\src/stm32f10x_adc.c:629
  }
  /* For Rank 1 to 6 */
  if (Rank < 7)
  6a:	d8df      	bhi.n	2c <ADC_RegularChannelConfig+0x2c>
C:\Program Files (x86)\Raisonance\Ride\lib\ARM\STM32F10x_LIB_V3.0.1\Libraries\STM32F10x_StdPeriph_Driver\src/stm32f10x_adc.c:634
  {
    /* Get the old register value */
    tmpreg1 = ADCx->SQR3;
    /* Calculate the mask to clear */
    tmpreg2 = SQR3_SQ_Set << (5 * (Rank - 1));
  6c:	ea4f 028c 	mov.w	r2, ip, lsl #2
  70:	4462      	add	r2, ip
  72:	3a05      	subs	r2, #5
C:\Program Files (x86)\Raisonance\Ride\lib\ARM\STM32F10x_LIB_V3.0.1\Libraries\STM32F10x_StdPeriph_Driver\src/stm32f10x_adc.c:636
    /* Clear the old SQx bits for the selected rank */
    tmpreg1 &= ~tmpreg2;
  74:	231f      	movs	r3, #31
  76:	4093      	lsls	r3, r2
C:\Program Files (x86)\Raisonance\Ride\lib\ARM\STM32F10x_LIB_V3.0.1\Libraries\STM32F10x_StdPeriph_Driver\src/stm32f10x_adc.c:640
    /* Calculate the mask to set */
    tmpreg2 = (uint32_t)ADC_Channel << (5 * (Rank - 1));
    /* Set the SQx bits for the selected rank */
    tmpreg1 |= tmpreg2;
  78:	fa10 f202 	lsls.w	r2, r0, r2
C:\Program Files (x86)\Raisonance\Ride\lib\ARM\STM32F10x_LIB_V3.0.1\Libraries\STM32F10x_StdPeriph_Driver\src/stm32f10x_adc.c:632
  }
  /* For Rank 1 to 6 */
  if (Rank < 7)
  {
    /* Get the old register value */
    tmpreg1 = ADCx->SQR3;
  7c:	6b61      	ldr	r1, [r4, #52]
C:\Program Files (x86)\Raisonance\Ride\lib\ARM\STM32F10x_LIB_V3.0.1\Libraries\STM32F10x_StdPeriph_Driver\src/stm32f10x_adc.c:636
    /* Calculate the mask to clear */
    tmpreg2 = SQR3_SQ_Set << (5 * (Rank - 1));
    /* Clear the old SQx bits for the selected rank */
    tmpreg1 &= ~tmpreg2;
  7e:	43db      	mvns	r3, r3
  80:	400b      	ands	r3, r1
C:\Program Files (x86)\Raisonance\Ride\lib\ARM\STM32F10x_LIB_V3.0.1\Libraries\STM32F10x_StdPeriph_Driver\src/stm32f10x_adc.c:640
    /* Calculate the mask to set */
    tmpreg2 = (uint32_t)ADC_Channel << (5 * (Rank - 1));
    /* Set the SQx bits for the selected rank */
    tmpreg1 |= tmpreg2;
  82:	4313      	orrs	r3, r2
C:\Program Files (x86)\Raisonance\Ride\lib\ARM\STM32F10x_LIB_V3.0.1\Libraries\STM32F10x_StdPeriph_Driver\src/stm32f10x_adc.c:642
    /* Store the new register value */
    ADCx->SQR3 = tmpreg1;
  84:	6363      	str	r3, [r4, #52]
  86:	e7e1      	b.n	4c <ADC_RegularChannelConfig+0x4c>
C:\Program Files (x86)\Raisonance\Ride\lib\ARM\STM32F10x_LIB_V3.0.1\Libraries\STM32F10x_StdPeriph_Driver\src/stm32f10x_adc.c:650
  else if (Rank < 13)
  {
    /* Get the old register value */
    tmpreg1 = ADCx->SQR2;
    /* Calculate the mask to clear */
    tmpreg2 = SQR2_SQ_Set << (5 * (Rank - 7));
  88:	ea4f 028c 	mov.w	r2, ip, lsl #2
  8c:	4462      	add	r2, ip
  8e:	3a23      	subs	r2, #35
C:\Program Files (x86)\Raisonance\Ride\lib\ARM\STM32F10x_LIB_V3.0.1\Libraries\STM32F10x_StdPeriph_Driver\src/stm32f10x_adc.c:652
    /* Clear the old SQx bits for the selected rank */
    tmpreg1 &= ~tmpreg2;
  90:	231f      	movs	r3, #31
  92:	4093      	lsls	r3, r2
C:\Program Files (x86)\Raisonance\Ride\lib\ARM\STM32F10x_LIB_V3.0.1\Libraries\STM32F10x_StdPeriph_Driver\src/stm32f10x_adc.c:656
    /* Calculate the mask to set */
    tmpreg2 = (uint32_t)ADC_Channel << (5 * (Rank - 7));
    /* Set the SQx bits for the selected rank */
    tmpreg1 |= tmpreg2;
  94:	fa10 f202 	lsls.w	r2, r0, r2
C:\Program Files (x86)\Raisonance\Ride\lib\ARM\STM32F10x_LIB_V3.0.1\Libraries\STM32F10x_StdPeriph_Driver\src/stm32f10x_adc.c:648
  }
  /* For Rank 7 to 12 */
  else if (Rank < 13)
  {
    /* Get the old register value */
    tmpreg1 = ADCx->SQR2;
  98:	6b21      	ldr	r1, [r4, #48]
C:\Program Files (x86)\Raisonance\Ride\lib\ARM\STM32F10x_LIB_V3.0.1\Libraries\STM32F10x_StdPeriph_Driver\src/stm32f10x_adc.c:652
    /* Calculate the mask to clear */
    tmpreg2 = SQR2_SQ_Set << (5 * (Rank - 7));
    /* Clear the old SQx bits for the selected rank */
    tmpreg1 &= ~tmpreg2;
  9a:	43db      	mvns	r3, r3
  9c:	400b      	ands	r3, r1
C:\Program Files (x86)\Raisonance\Ride\lib\ARM\STM32F10x_LIB_V3.0.1\Libraries\STM32F10x_StdPeriph_Driver\src/stm32f10x_adc.c:656
    /* Calculate the mask to set */
    tmpreg2 = (uint32_t)ADC_Channel << (5 * (Rank - 7));
    /* Set the SQx bits for the selected rank */
    tmpreg1 |= tmpreg2;
  9e:	4313      	orrs	r3, r2
C:\Program Files (x86)\Raisonance\Ride\lib\ARM\STM32F10x_LIB_V3.0.1\Libraries\STM32F10x_StdPeriph_Driver\src/stm32f10x_adc.c:658
    /* Store the new register value */
    ADCx->SQR2 = tmpreg1;
  a0:	6323      	str	r3, [r4, #48]
  a2:	e7d3      	b.n	4c <ADC_RegularChannelConfig+0x4c>
Disassembly of section .text.ADC_ExternalTrigConvCmd:

00000000 <ADC_ExternalTrigConvCmd>:
ADC_ExternalTrigConvCmd():
C:\Program Files (x86)\Raisonance\Ride\lib\ARM\STM32F10x_LIB_V3.0.1\Libraries\STM32F10x_StdPeriph_Driver\src/stm32f10x_adc.c:690
void ADC_ExternalTrigConvCmd(ADC_TypeDef* ADCx, FunctionalState NewState)
{
  /* Check the parameters */
  assert_param(IS_ADC_ALL_PERIPH(ADCx));
  assert_param(IS_FUNCTIONAL_STATE(NewState));
  if (NewState != DISABLE)
   0:	b921      	cbnz	r1, c <ADC_ExternalTrigConvCmd+0xc>
C:\Program Files (x86)\Raisonance\Ride\lib\ARM\STM32F10x_LIB_V3.0.1\Libraries\STM32F10x_StdPeriph_Driver\src/stm32f10x_adc.c:698
    ADCx->CR2 |= CR2_EXTTRIG_Set;
  }
  else
  {
    /* Disable the selected ADC conversion on external event */
    ADCx->CR2 &= CR2_EXTTRIG_Reset;
   2:	6883      	ldr	r3, [r0, #8]
   4:	f423 1380 	bic.w	r3, r3, #1048576	; 0x100000
   8:	6083      	str	r3, [r0, #8]
C:\Program Files (x86)\Raisonance\Ride\lib\ARM\STM32F10x_LIB_V3.0.1\Libraries\STM32F10x_StdPeriph_Driver\src/stm32f10x_adc.c:700
  }
}
   a:	4770      	bx	lr
C:\Program Files (x86)\Raisonance\Ride\lib\ARM\STM32F10x_LIB_V3.0.1\Libraries\STM32F10x_StdPeriph_Driver\src/stm32f10x_adc.c:693
  assert_param(IS_ADC_ALL_PERIPH(ADCx));
  assert_param(IS_FUNCTIONAL_STATE(NewState));
  if (NewState != DISABLE)
  {
    /* Enable the selected ADC conversion on external event */
    ADCx->CR2 |= CR2_EXTTRIG_Set;
   c:	6883      	ldr	r3, [r0, #8]
   e:	f443 1380 	orr.w	r3, r3, #1048576	; 0x100000
  12:	6083      	str	r3, [r0, #8]
  14:	e7f9      	b.n	a <ADC_ExternalTrigConvCmd+0xa>
  16:	46c0      	nop			(mov r8, r8)
Disassembly of section .text.ADC_GetConversionValue:

00000000 <ADC_GetConversionValue>:
ADC_GetConversionValue():
C:\Program Files (x86)\Raisonance\Ride\lib\ARM\STM32F10x_LIB_V3.0.1\Libraries\STM32F10x_StdPeriph_Driver\src/stm32f10x_adc.c:712
uint16_t ADC_GetConversionValue(ADC_TypeDef* ADCx)
{
  /* Check the parameters */
  assert_param(IS_ADC_ALL_PERIPH(ADCx));
  /* Return the selected ADC conversion value */
  return (uint16_t) ADCx->DR;
   0:	6cc0      	ldr	r0, [r0, #76]
C:\Program Files (x86)\Raisonance\Ride\lib\ARM\STM32F10x_LIB_V3.0.1\Libraries\STM32F10x_StdPeriph_Driver\src/stm32f10x_adc.c:713
}
   2:	b280      	uxth	r0, r0
   4:	4770      	bx	lr
   6:	46c0      	nop			(mov r8, r8)
Disassembly of section .text.ADC_GetDualModeConversionValue:

00000000 <ADC_GetDualModeConversionValue>:
ADC_GetDualModeConversionValue():
C:\Program Files (x86)\Raisonance\Ride\lib\ARM\STM32F10x_LIB_V3.0.1\Libraries\STM32F10x_StdPeriph_Driver\src/stm32f10x_adc.c:722
  * @retval The Data conversion value.
  */
uint32_t ADC_GetDualModeConversionValue(void)
{
  /* Return the dual mode conversion value */
  return (*(__IO uint32_t *) DR_ADDRESS);
   0:	f242 434c 	movw	r3, #9292	; 0x244c
   4:	f2c4 0301 	movt	r3, #16385	; 0x4001
   8:	6818      	ldr	r0, [r3, #0]
C:\Program Files (x86)\Raisonance\Ride\lib\ARM\STM32F10x_LIB_V3.0.1\Libraries\STM32F10x_StdPeriph_Driver\src/stm32f10x_adc.c:723
}
   a:	4770      	bx	lr
Disassembly of section .text.ADC_AutoInjectedConvCmd:

00000000 <ADC_AutoInjectedConvCmd>:
ADC_AutoInjectedConvCmd():
C:\Program Files (x86)\Raisonance\Ride\lib\ARM\STM32F10x_LIB_V3.0.1\Libraries\STM32F10x_StdPeriph_Driver\src/stm32f10x_adc.c:738
void ADC_AutoInjectedConvCmd(ADC_TypeDef* ADCx, FunctionalState NewState)
{
  /* Check the parameters */
  assert_param(IS_ADC_ALL_PERIPH(ADCx));
  assert_param(IS_FUNCTIONAL_STATE(NewState));
  if (NewState != DISABLE)
   0:	b921      	cbnz	r1, c <ADC_AutoInjectedConvCmd+0xc>
C:\Program Files (x86)\Raisonance\Ride\lib\ARM\STM32F10x_LIB_V3.0.1\Libraries\STM32F10x_StdPeriph_Driver\src/stm32f10x_adc.c:746
    ADCx->CR1 |= CR1_JAUTO_Set;
  }
  else
  {
    /* Disable the selected ADC automatic injected group conversion */
    ADCx->CR1 &= CR1_JAUTO_Reset;
   2:	6843      	ldr	r3, [r0, #4]
   4:	f423 6380 	bic.w	r3, r3, #1024	; 0x400
   8:	6043      	str	r3, [r0, #4]
C:\Program Files (x86)\Raisonance\Ride\lib\ARM\STM32F10x_LIB_V3.0.1\Libraries\STM32F10x_StdPeriph_Driver\src/stm32f10x_adc.c:748
  }
}
   a:	4770      	bx	lr
C:\Program Files (x86)\Raisonance\Ride\lib\ARM\STM32F10x_LIB_V3.0.1\Libraries\STM32F10x_StdPeriph_Driver\src/stm32f10x_adc.c:741
  assert_param(IS_ADC_ALL_PERIPH(ADCx));
  assert_param(IS_FUNCTIONAL_STATE(NewState));
  if (NewState != DISABLE)
  {
    /* Enable the selected ADC automatic injected group conversion */
    ADCx->CR1 |= CR1_JAUTO_Set;
   c:	6843      	ldr	r3, [r0, #4]
   e:	f443 6380 	orr.w	r3, r3, #1024	; 0x400
  12:	6043      	str	r3, [r0, #4]
  14:	e7f9      	b.n	a <ADC_AutoInjectedConvCmd+0xa>
  16:	46c0      	nop			(mov r8, r8)
Disassembly of section .text.ADC_InjectedDiscModeCmd:

00000000 <ADC_InjectedDiscModeCmd>:
ADC_InjectedDiscModeCmd():
C:\Program Files (x86)\Raisonance\Ride\lib\ARM\STM32F10x_LIB_V3.0.1\Libraries\STM32F10x_StdPeriph_Driver\src/stm32f10x_adc.c:764
void ADC_InjectedDiscModeCmd(ADC_TypeDef* ADCx, FunctionalState NewState)
{
  /* Check the parameters */
  assert_param(IS_ADC_ALL_PERIPH(ADCx));
  assert_param(IS_FUNCTIONAL_STATE(NewState));
  if (NewState != DISABLE)
   0:	b921      	cbnz	r1, c <ADC_InjectedDiscModeCmd+0xc>
C:\Program Files (x86)\Raisonance\Ride\lib\ARM\STM32F10x_LIB_V3.0.1\Libraries\STM32F10x_StdPeriph_Driver\src/stm32f10x_adc.c:772
    ADCx->CR1 |= CR1_JDISCEN_Set;
  }
  else
  {
    /* Disable the selected ADC injected discontinuous mode */
    ADCx->CR1 &= CR1_JDISCEN_Reset;
   2:	6843      	ldr	r3, [r0, #4]
   4:	f423 5380 	bic.w	r3, r3, #4096	; 0x1000
   8:	6043      	str	r3, [r0, #4]
C:\Program Files (x86)\Raisonance\Ride\lib\ARM\STM32F10x_LIB_V3.0.1\Libraries\STM32F10x_StdPeriph_Driver\src/stm32f10x_adc.c:774
  }
}
   a:	4770      	bx	lr
C:\Program Files (x86)\Raisonance\Ride\lib\ARM\STM32F10x_LIB_V3.0.1\Libraries\STM32F10x_StdPeriph_Driver\src/stm32f10x_adc.c:767
  assert_param(IS_ADC_ALL_PERIPH(ADCx));
  assert_param(IS_FUNCTIONAL_STATE(NewState));
  if (NewState != DISABLE)
  {
    /* Enable the selected ADC injected discontinuous mode */
    ADCx->CR1 |= CR1_JDISCEN_Set;
   c:	6843      	ldr	r3, [r0, #4]
   e:	f443 5380 	orr.w	r3, r3, #4096	; 0x1000
  12:	6043      	str	r3, [r0, #4]
  14:	e7f9      	b.n	a <ADC_InjectedDiscModeCmd+0xa>
  16:	46c0      	nop			(mov r8, r8)
Disassembly of section .text.ADC_ExternalTrigInjectedConvConfig:

00000000 <ADC_ExternalTrigInjectedConvConfig>:
ADC_ExternalTrigInjectedConvConfig():
C:\Program Files (x86)\Raisonance\Ride\lib\ARM\STM32F10x_LIB_V3.0.1\Libraries\STM32F10x_StdPeriph_Driver\src/stm32f10x_adc.c:805
  uint32_t tmpreg = 0;
  /* Check the parameters */
  assert_param(IS_ADC_ALL_PERIPH(ADCx));
  assert_param(IS_ADC_EXT_INJEC_TRIG(ADC_ExternalTrigInjecConv));
  /* Get the old register value */
  tmpreg = ADCx->CR2;
   0:	6883      	ldr	r3, [r0, #8]
C:\Program Files (x86)\Raisonance\Ride\lib\ARM\STM32F10x_LIB_V3.0.1\Libraries\STM32F10x_StdPeriph_Driver\src/stm32f10x_adc.c:807
  /* Clear the old external event selection for injected group */
  tmpreg &= CR2_JEXTSEL_Reset;
   2:	f423 43e0 	bic.w	r3, r3, #28672	; 0x7000
C:\Program Files (x86)\Raisonance\Ride\lib\ARM\STM32F10x_LIB_V3.0.1\Libraries\STM32F10x_StdPeriph_Driver\src/stm32f10x_adc.c:809
  /* Set the external event selection for injected group */
  tmpreg |= ADC_ExternalTrigInjecConv;
   6:	4319      	orrs	r1, r3
C:\Program Files (x86)\Raisonance\Ride\lib\ARM\STM32F10x_LIB_V3.0.1\Libraries\STM32F10x_StdPeriph_Driver\src/stm32f10x_adc.c:811
  /* Store the new register value */
  ADCx->CR2 = tmpreg;
   8:	6081      	str	r1, [r0, #8]
C:\Program Files (x86)\Raisonance\Ride\lib\ARM\STM32F10x_LIB_V3.0.1\Libraries\STM32F10x_StdPeriph_Driver\src/stm32f10x_adc.c:812
}
   a:	4770      	bx	lr
Disassembly of section .text.ADC_ExternalTrigInjectedConvCmd:

00000000 <ADC_ExternalTrigInjectedConvCmd>:
ADC_ExternalTrigInjectedConvCmd():
C:\Program Files (x86)\Raisonance\Ride\lib\ARM\STM32F10x_LIB_V3.0.1\Libraries\STM32F10x_StdPeriph_Driver\src/stm32f10x_adc.c:828
void ADC_ExternalTrigInjectedConvCmd(ADC_TypeDef* ADCx, FunctionalState NewState)
{
  /* Check the parameters */
  assert_param(IS_ADC_ALL_PERIPH(ADCx));
  assert_param(IS_FUNCTIONAL_STATE(NewState));
  if (NewState != DISABLE)
   0:	b921      	cbnz	r1, c <ADC_ExternalTrigInjectedConvCmd+0xc>
C:\Program Files (x86)\Raisonance\Ride\lib\ARM\STM32F10x_LIB_V3.0.1\Libraries\STM32F10x_StdPeriph_Driver\src/stm32f10x_adc.c:836
    ADCx->CR2 |= CR2_JEXTTRIG_Set;
  }
  else
  {
    /* Disable the selected ADC external event selection for injected group */
    ADCx->CR2 &= CR2_JEXTTRIG_Reset;
   2:	6883      	ldr	r3, [r0, #8]
   4:	f423 4300 	bic.w	r3, r3, #32768	; 0x8000
   8:	6083      	str	r3, [r0, #8]
C:\Program Files (x86)\Raisonance\Ride\lib\ARM\STM32F10x_LIB_V3.0.1\Libraries\STM32F10x_StdPeriph_Driver\src/stm32f10x_adc.c:838
  }
}
   a:	4770      	bx	lr
C:\Program Files (x86)\Raisonance\Ride\lib\ARM\STM32F10x_LIB_V3.0.1\Libraries\STM32F10x_StdPeriph_Driver\src/stm32f10x_adc.c:831
  assert_param(IS_ADC_ALL_PERIPH(ADCx));
  assert_param(IS_FUNCTIONAL_STATE(NewState));
  if (NewState != DISABLE)
  {
    /* Enable the selected ADC external event selection for injected group */
    ADCx->CR2 |= CR2_JEXTTRIG_Set;
   c:	6883      	ldr	r3, [r0, #8]
   e:	f443 4300 	orr.w	r3, r3, #32768	; 0x8000
  12:	6083      	str	r3, [r0, #8]
  14:	e7f9      	b.n	a <ADC_ExternalTrigInjectedConvCmd+0xa>
  16:	46c0      	nop			(mov r8, r8)
Disassembly of section .text.ADC_SoftwareStartInjectedConvCmd:

00000000 <ADC_SoftwareStartInjectedConvCmd>:
ADC_SoftwareStartInjectedConvCmd():
C:\Program Files (x86)\Raisonance\Ride\lib\ARM\STM32F10x_LIB_V3.0.1\Libraries\STM32F10x_StdPeriph_Driver\src/stm32f10x_adc.c:853
void ADC_SoftwareStartInjectedConvCmd(ADC_TypeDef* ADCx, FunctionalState NewState)
{
  /* Check the parameters */
  assert_param(IS_ADC_ALL_PERIPH(ADCx));
  assert_param(IS_FUNCTIONAL_STATE(NewState));
  if (NewState != DISABLE)
   0:	b921      	cbnz	r1, c <ADC_SoftwareStartInjectedConvCmd+0xc>
C:\Program Files (x86)\Raisonance\Ride\lib\ARM\STM32F10x_LIB_V3.0.1\Libraries\STM32F10x_StdPeriph_Driver\src/stm32f10x_adc.c:863
  }
  else
  {
    /* Disable the selected ADC conversion on external event for injected group and stop the selected
       ADC injected conversion */
    ADCx->CR2 &= CR2_JEXTTRIG_JSWSTART_Reset;
   2:	6883      	ldr	r3, [r0, #8]
   4:	f423 1302 	bic.w	r3, r3, #2129920	; 0x208000
   8:	6083      	str	r3, [r0, #8]
C:\Program Files (x86)\Raisonance\Ride\lib\ARM\STM32F10x_LIB_V3.0.1\Libraries\STM32F10x_StdPeriph_Driver\src/stm32f10x_adc.c:865
  }
}
   a:	4770      	bx	lr
C:\Program Files (x86)\Raisonance\Ride\lib\ARM\STM32F10x_LIB_V3.0.1\Libraries\STM32F10x_StdPeriph_Driver\src/stm32f10x_adc.c:857
  assert_param(IS_FUNCTIONAL_STATE(NewState));
  if (NewState != DISABLE)
  {
    /* Enable the selected ADC conversion for injected group on external event and start the selected
       ADC injected conversion */
    ADCx->CR2 |= CR2_JEXTTRIG_JSWSTART_Set;
   c:	6883      	ldr	r3, [r0, #8]
   e:	f443 1302 	orr.w	r3, r3, #2129920	; 0x208000
  12:	6083      	str	r3, [r0, #8]
  14:	e7f9      	b.n	a <ADC_SoftwareStartInjectedConvCmd+0xa>
  16:	46c0      	nop			(mov r8, r8)
Disassembly of section .text.ADC_GetSoftwareStartInjectedConvCmdStatus:

00000000 <ADC_GetSoftwareStartInjectedConvCmdStatus>:
ADC_GetSoftwareStartInjectedConvCmdStatus():
C:\Program Files (x86)\Raisonance\Ride\lib\ARM\STM32F10x_LIB_V3.0.1\Libraries\STM32F10x_StdPeriph_Driver\src/stm32f10x_adc.c:878
{
  FlagStatus bitstatus = RESET;
  /* Check the parameters */
  assert_param(IS_ADC_ALL_PERIPH(ADCx));
  /* Check the status of JSWSTART bit */
  if ((ADCx->CR2 & CR2_JSWSTART_Set) != (uint32_t)RESET)
   0:	6880      	ldr	r0, [r0, #8]
   2:	0d40      	lsrs	r0, r0, #21
C:\Program Files (x86)\Raisonance\Ride\lib\ARM\STM32F10x_LIB_V3.0.1\Libraries\STM32F10x_StdPeriph_Driver\src/stm32f10x_adc.c:890
    /* JSWSTART bit is reset */
    bitstatus = RESET;
  }
  /* Return the JSWSTART bit status */
  return  bitstatus;
}
   4:	f000 0001 	and.w	r0, r0, #1	; 0x1
   8:	4770      	bx	lr
   a:	46c0      	nop			(mov r8, r8)
Disassembly of section .text.ADC_InjectedChannelConfig:

00000000 <ADC_InjectedChannelConfig>:
ADC_InjectedChannelConfig():
C:\Program Files (x86)\Raisonance\Ride\lib\ARM\STM32F10x_LIB_V3.0.1\Libraries\STM32F10x_StdPeriph_Driver\src/stm32f10x_adc.c:938
  assert_param(IS_ADC_ALL_PERIPH(ADCx));
  assert_param(IS_ADC_CHANNEL(ADC_Channel));
  assert_param(IS_ADC_INJECTED_RANK(Rank));
  assert_param(IS_ADC_SAMPLE_TIME(ADC_SampleTime));
  /* if ADC_Channel_10 ... ADC_Channel_17 is selected */
  if (ADC_Channel > ADC_Channel_9)
   0:	2909      	cmp	r1, #9
C:\Program Files (x86)\Raisonance\Ride\lib\ARM\STM32F10x_LIB_V3.0.1\Libraries\STM32F10x_StdPeriph_Driver\src/stm32f10x_adc.c:930
  *     @arg ADC_SampleTime_71Cycles5: Sample time equal to 71.5 cycles	
  *     @arg ADC_SampleTime_239Cycles5: Sample time equal to 239.5 cycles	
  * @retval None
  */
void ADC_InjectedChannelConfig(ADC_TypeDef* ADCx, uint8_t ADC_Channel, uint8_t Rank, uint8_t ADC_SampleTime)
{
   2:	b430      	push	{r4, r5}
   4:	468c      	mov	ip, r1
   6:	4604      	mov	r4, r0
   8:	4615      	mov	r5, r2
   a:	4618      	mov	r0, r3
C:\Program Files (x86)\Raisonance\Ride\lib\ARM\STM32F10x_LIB_V3.0.1\Libraries\STM32F10x_StdPeriph_Driver\src/stm32f10x_adc.c:938
  assert_param(IS_ADC_ALL_PERIPH(ADCx));
  assert_param(IS_ADC_CHANNEL(ADC_Channel));
  assert_param(IS_ADC_INJECTED_RANK(Rank));
  assert_param(IS_ADC_SAMPLE_TIME(ADC_SampleTime));
  /* if ADC_Channel_10 ... ADC_Channel_17 is selected */
  if (ADC_Channel > ADC_Channel_9)
   c:	d81e      	bhi.n	4c <ADC_InjectedChannelConfig+0x4c>
C:\Program Files (x86)\Raisonance\Ride\lib\ARM\STM32F10x_LIB_V3.0.1\Libraries\STM32F10x_StdPeriph_Driver\src/stm32f10x_adc.c:958
  else /* ADC_Channel include in ADC_Channel_[0..9] */
  {
    /* Get the old register value */
    tmpreg1 = ADCx->SMPR2;
    /* Calculate the mask to clear */
    tmpreg2 = SMPR2_SMP_Set << (3 * ADC_Channel);
   e:	ea4f 024c 	mov.w	r2, ip, lsl #1
  12:	4462      	add	r2, ip
C:\Program Files (x86)\Raisonance\Ride\lib\ARM\STM32F10x_LIB_V3.0.1\Libraries\STM32F10x_StdPeriph_Driver\src/stm32f10x_adc.c:960
    /* Clear the old channel sample time */
    tmpreg1 &= ~tmpreg2;
  14:	2307      	movs	r3, #7
  16:	4093      	lsls	r3, r2
C:\Program Files (x86)\Raisonance\Ride\lib\ARM\STM32F10x_LIB_V3.0.1\Libraries\STM32F10x_StdPeriph_Driver\src/stm32f10x_adc.c:964
    /* Calculate the mask to set */
    tmpreg2 = (uint32_t)ADC_SampleTime << (3 * ADC_Channel);
    /* Set the new channel sample time */
    tmpreg1 |= tmpreg2;
  18:	fa10 f202 	lsls.w	r2, r0, r2
C:\Program Files (x86)\Raisonance\Ride\lib\ARM\STM32F10x_LIB_V3.0.1\Libraries\STM32F10x_StdPeriph_Driver\src/stm32f10x_adc.c:956
    ADCx->SMPR1 = tmpreg1;
  }
  else /* ADC_Channel include in ADC_Channel_[0..9] */
  {
    /* Get the old register value */
    tmpreg1 = ADCx->SMPR2;
  1c:	6921      	ldr	r1, [r4, #16]
C:\Program Files (x86)\Raisonance\Ride\lib\ARM\STM32F10x_LIB_V3.0.1\Libraries\STM32F10x_StdPeriph_Driver\src/stm32f10x_adc.c:960
    /* Calculate the mask to clear */
    tmpreg2 = SMPR2_SMP_Set << (3 * ADC_Channel);
    /* Clear the old channel sample time */
    tmpreg1 &= ~tmpreg2;
  1e:	43db      	mvns	r3, r3
  20:	400b      	ands	r3, r1
C:\Program Files (x86)\Raisonance\Ride\lib\ARM\STM32F10x_LIB_V3.0.1\Libraries\STM32F10x_StdPeriph_Driver\src/stm32f10x_adc.c:964
    /* Calculate the mask to set */
    tmpreg2 = (uint32_t)ADC_SampleTime << (3 * ADC_Channel);
    /* Set the new channel sample time */
    tmpreg1 |= tmpreg2;
  22:	4313      	orrs	r3, r2
C:\Program Files (x86)\Raisonance\Ride\lib\ARM\STM32F10x_LIB_V3.0.1\Libraries\STM32F10x_StdPeriph_Driver\src/stm32f10x_adc.c:966
    /* Store the new register value */
    ADCx->SMPR2 = tmpreg1;
  24:	6123      	str	r3, [r4, #16]
C:\Program Files (x86)\Raisonance\Ride\lib\ARM\STM32F10x_LIB_V3.0.1\Libraries\STM32F10x_StdPeriph_Driver\src/stm32f10x_adc.c:970
  }
  /* Rank configuration */
  /* Get the old register value */
  tmpreg1 = ADCx->JSQR;
  26:	6ba0      	ldr	r0, [r4, #56]
C:\Program Files (x86)\Raisonance\Ride\lib\ARM\STM32F10x_LIB_V3.0.1\Libraries\STM32F10x_StdPeriph_Driver\src/stm32f10x_adc.c:976
  /* Get JL value: Number = JL+1 */
  tmpreg3 =  (tmpreg1 & JSQR_JL_Set)>> 20;
  /* Calculate the mask to clear: ((Rank-1)+(4-JL-1)) */
  tmpreg2 = JSQR_JSQ_Set << (5 * (uint8_t)((Rank + 3) - (tmpreg3 + 1)));
  /* Clear the old JSQx bits for the selected rank */
  tmpreg1 &= ~tmpreg2;
  28:	221f      	movs	r2, #31
C:\Program Files (x86)\Raisonance\Ride\lib\ARM\STM32F10x_LIB_V3.0.1\Libraries\STM32F10x_StdPeriph_Driver\src/stm32f10x_adc.c:974
  /* Get the old register value */
  tmpreg1 = ADCx->JSQR;
  /* Get JL value: Number = JL+1 */
  tmpreg3 =  (tmpreg1 & JSQR_JL_Set)>> 20;
  /* Calculate the mask to clear: ((Rank-1)+(4-JL-1)) */
  tmpreg2 = JSQR_JSQ_Set << (5 * (uint8_t)((Rank + 3) - (tmpreg3 + 1)));
  2a:	f400 1340 	and.w	r3, r0, #3145728	; 0x300000
  2e:	eba5 5313 	sub.w	r3, r5, r3, lsr #20
  32:	3302      	adds	r3, #2
  34:	b2db      	uxtb	r3, r3
  36:	0099      	lsls	r1, r3, #2
  38:	18c9      	adds	r1, r1, r3
C:\Program Files (x86)\Raisonance\Ride\lib\ARM\STM32F10x_LIB_V3.0.1\Libraries\STM32F10x_StdPeriph_Driver\src/stm32f10x_adc.c:976
  /* Clear the old JSQx bits for the selected rank */
  tmpreg1 &= ~tmpreg2;
  3a:	408a      	lsls	r2, r1
C:\Program Files (x86)\Raisonance\Ride\lib\ARM\STM32F10x_LIB_V3.0.1\Libraries\STM32F10x_StdPeriph_Driver\src/stm32f10x_adc.c:980
  /* Calculate the mask to set: ((Rank-1)+(4-JL-1)) */
  tmpreg2 = (uint32_t)ADC_Channel << (5 * (uint8_t)((Rank + 3) - (tmpreg3 + 1)));
  /* Set the JSQx bits for the selected rank */
  tmpreg1 |= tmpreg2;
  3c:	fa0c f101 	lsl.w	r1, ip, r1
C:\Program Files (x86)\Raisonance\Ride\lib\ARM\STM32F10x_LIB_V3.0.1\Libraries\STM32F10x_StdPeriph_Driver\src/stm32f10x_adc.c:976
  /* Get JL value: Number = JL+1 */
  tmpreg3 =  (tmpreg1 & JSQR_JL_Set)>> 20;
  /* Calculate the mask to clear: ((Rank-1)+(4-JL-1)) */
  tmpreg2 = JSQR_JSQ_Set << (5 * (uint8_t)((Rank + 3) - (tmpreg3 + 1)));
  /* Clear the old JSQx bits for the selected rank */
  tmpreg1 &= ~tmpreg2;
  40:	43d2      	mvns	r2, r2
  42:	4002      	ands	r2, r0
C:\Program Files (x86)\Raisonance\Ride\lib\ARM\STM32F10x_LIB_V3.0.1\Libraries\STM32F10x_StdPeriph_Driver\src/stm32f10x_adc.c:980
  /* Calculate the mask to set: ((Rank-1)+(4-JL-1)) */
  tmpreg2 = (uint32_t)ADC_Channel << (5 * (uint8_t)((Rank + 3) - (tmpreg3 + 1)));
  /* Set the JSQx bits for the selected rank */
  tmpreg1 |= tmpreg2;
  44:	430a      	orrs	r2, r1
C:\Program Files (x86)\Raisonance\Ride\lib\ARM\STM32F10x_LIB_V3.0.1\Libraries\STM32F10x_StdPeriph_Driver\src/stm32f10x_adc.c:982
  /* Store the new register value */
  ADCx->JSQR = tmpreg1;
  46:	63a2      	str	r2, [r4, #56]
C:\Program Files (x86)\Raisonance\Ride\lib\ARM\STM32F10x_LIB_V3.0.1\Libraries\STM32F10x_StdPeriph_Driver\src/stm32f10x_adc.c:983
}
  48:	bc30      	pop	{r4, r5}
  4a:	4770      	bx	lr
C:\Program Files (x86)\Raisonance\Ride\lib\ARM\STM32F10x_LIB_V3.0.1\Libraries\STM32F10x_StdPeriph_Driver\src/stm32f10x_adc.c:943
  if (ADC_Channel > ADC_Channel_9)
  {
    /* Get the old register value */
    tmpreg1 = ADCx->SMPR1;
    /* Calculate the mask to clear */
    tmpreg2 = SMPR1_SMP_Set << (3*(ADC_Channel - 10));
  4c:	ea4f 024c 	mov.w	r2, ip, lsl #1
  50:	4462      	add	r2, ip
  52:	3a1e      	subs	r2, #30
C:\Program Files (x86)\Raisonance\Ride\lib\ARM\STM32F10x_LIB_V3.0.1\Libraries\STM32F10x_StdPeriph_Driver\src/stm32f10x_adc.c:945
    /* Clear the old channel sample time */
    tmpreg1 &= ~tmpreg2;
  54:	2307      	movs	r3, #7
  56:	4093      	lsls	r3, r2
C:\Program Files (x86)\Raisonance\Ride\lib\ARM\STM32F10x_LIB_V3.0.1\Libraries\STM32F10x_StdPeriph_Driver\src/stm32f10x_adc.c:949
    /* Calculate the mask to set */
    tmpreg2 = (uint32_t)ADC_SampleTime << (3*(ADC_Channel - 10));
    /* Set the new channel sample time */
    tmpreg1 |= tmpreg2;
  58:	fa10 f202 	lsls.w	r2, r0, r2
C:\Program Files (x86)\Raisonance\Ride\lib\ARM\STM32F10x_LIB_V3.0.1\Libraries\STM32F10x_StdPeriph_Driver\src/stm32f10x_adc.c:941
  assert_param(IS_ADC_SAMPLE_TIME(ADC_SampleTime));
  /* if ADC_Channel_10 ... ADC_Channel_17 is selected */
  if (ADC_Channel > ADC_Channel_9)
  {
    /* Get the old register value */
    tmpreg1 = ADCx->SMPR1;
  5c:	68e1      	ldr	r1, [r4, #12]
C:\Program Files (x86)\Raisonance\Ride\lib\ARM\STM32F10x_LIB_V3.0.1\Libraries\STM32F10x_StdPeriph_Driver\src/stm32f10x_adc.c:945
    /* Calculate the mask to clear */
    tmpreg2 = SMPR1_SMP_Set << (3*(ADC_Channel - 10));
    /* Clear the old channel sample time */
    tmpreg1 &= ~tmpreg2;
  5e:	43db      	mvns	r3, r3
  60:	400b      	ands	r3, r1
C:\Program Files (x86)\Raisonance\Ride\lib\ARM\STM32F10x_LIB_V3.0.1\Libraries\STM32F10x_StdPeriph_Driver\src/stm32f10x_adc.c:949
    /* Calculate the mask to set */
    tmpreg2 = (uint32_t)ADC_SampleTime << (3*(ADC_Channel - 10));
    /* Set the new channel sample time */
    tmpreg1 |= tmpreg2;
  62:	4313      	orrs	r3, r2
C:\Program Files (x86)\Raisonance\Ride\lib\ARM\STM32F10x_LIB_V3.0.1\Libraries\STM32F10x_StdPeriph_Driver\src/stm32f10x_adc.c:951
    /* Store the new register value */
    ADCx->SMPR1 = tmpreg1;
  64:	60e3      	str	r3, [r4, #12]
  66:	e7de      	b.n	26 <ADC_InjectedChannelConfig+0x26>
Disassembly of section .text.ADC_InjectedSequencerLengthConfig:

00000000 <ADC_InjectedSequencerLengthConfig>:
ADC_InjectedSequencerLengthConfig():
C:\Program Files (x86)\Raisonance\Ride\lib\ARM\STM32F10x_LIB_V3.0.1\Libraries\STM32F10x_StdPeriph_Driver\src/stm32f10x_adc.c:1001
  /* Check the parameters */
  assert_param(IS_ADC_ALL_PERIPH(ADCx));
  assert_param(IS_ADC_INJECTED_LENGTH(Length));
  
  /* Get the old register value */
  tmpreg1 = ADCx->JSQR;
   0:	6b83      	ldr	r3, [r0, #56]
C:\Program Files (x86)\Raisonance\Ride\lib\ARM\STM32F10x_LIB_V3.0.1\Libraries\STM32F10x_StdPeriph_Driver\src/stm32f10x_adc.c:1006
  /* Clear the old injected sequnence lenght JL bits */
  tmpreg1 &= JSQR_JL_Reset;
  /* Set the injected sequnence lenght JL bits */
  tmpreg2 = Length - 1; 
  tmpreg1 |= tmpreg2 << 20;
   2:	3901      	subs	r1, #1
C:\Program Files (x86)\Raisonance\Ride\lib\ARM\STM32F10x_LIB_V3.0.1\Libraries\STM32F10x_StdPeriph_Driver\src/stm32f10x_adc.c:1003
  assert_param(IS_ADC_INJECTED_LENGTH(Length));
  
  /* Get the old register value */
  tmpreg1 = ADCx->JSQR;
  /* Clear the old injected sequnence lenght JL bits */
  tmpreg1 &= JSQR_JL_Reset;
   4:	f423 1340 	bic.w	r3, r3, #3145728	; 0x300000
C:\Program Files (x86)\Raisonance\Ride\lib\ARM\STM32F10x_LIB_V3.0.1\Libraries\STM32F10x_StdPeriph_Driver\src/stm32f10x_adc.c:1006
  /* Set the injected sequnence lenght JL bits */
  tmpreg2 = Length - 1; 
  tmpreg1 |= tmpreg2 << 20;
   8:	ea43 5301 	orr.w	r3, r3, r1, lsl #20
C:\Program Files (x86)\Raisonance\Ride\lib\ARM\STM32F10x_LIB_V3.0.1\Libraries\STM32F10x_StdPeriph_Driver\src/stm32f10x_adc.c:1008
  /* Store the new register value */
  ADCx->JSQR = tmpreg1;
   c:	6383      	str	r3, [r0, #56]
C:\Program Files (x86)\Raisonance\Ride\lib\ARM\STM32F10x_LIB_V3.0.1\Libraries\STM32F10x_StdPeriph_Driver\src/stm32f10x_adc.c:1009
}
   e:	4770      	bx	lr
Disassembly of section .text.ADC_SetInjectedOffset:

00000000 <ADC_SetInjectedOffset>:
ADC_SetInjectedOffset():
C:\Program Files (x86)\Raisonance\Ride\lib\ARM\STM32F10x_LIB_V3.0.1\Libraries\STM32F10x_StdPeriph_Driver\src/stm32f10x_adc.c:1025
  * @param  Offset: the offset value for the selected ADC injected channel
  *   This parameter must be a 12bit value.
  * @retval None
  */
void ADC_SetInjectedOffset(ADC_TypeDef* ADCx, uint8_t ADC_InjectedChannel, uint16_t Offset)
{
   0:	b082      	sub	sp, #8
C:\Program Files (x86)\Raisonance\Ride\lib\ARM\STM32F10x_LIB_V3.0.1\Libraries\STM32F10x_StdPeriph_Driver\src/stm32f10x_adc.c:1026
  __IO uint32_t tmp = 0;
   2:	2300      	movs	r3, #0
   4:	9301      	str	r3, [sp, #4]
C:\Program Files (x86)\Raisonance\Ride\lib\ARM\STM32F10x_LIB_V3.0.1\Libraries\STM32F10x_StdPeriph_Driver\src/stm32f10x_adc.c:1033
  /* Check the parameters */
  assert_param(IS_ADC_ALL_PERIPH(ADCx));
  assert_param(IS_ADC_INJECTED_CHANNEL(ADC_InjectedChannel));
  assert_param(IS_ADC_OFFSET(Offset));  
  
  tmp = (uint32_t)ADCx;
   6:	9001      	str	r0, [sp, #4]
C:\Program Files (x86)\Raisonance\Ride\lib\ARM\STM32F10x_LIB_V3.0.1\Libraries\STM32F10x_StdPeriph_Driver\src/stm32f10x_adc.c:1034
  tmp += ADC_InjectedChannel;
   8:	9b01      	ldr	r3, [sp, #4]
   a:	18c9      	adds	r1, r1, r3
   c:	9101      	str	r1, [sp, #4]
C:\Program Files (x86)\Raisonance\Ride\lib\ARM\STM32F10x_LIB_V3.0.1\Libraries\STM32F10x_StdPeriph_Driver\src/stm32f10x_adc.c:1037
  
  /* Set the selected injected channel data offset */
  *(__IO uint32_t *) tmp = (uint32_t)Offset;
   e:	9b01      	ldr	r3, [sp, #4]
  10:	601a      	str	r2, [r3, #0]
C:\Program Files (x86)\Raisonance\Ride\lib\ARM\STM32F10x_LIB_V3.0.1\Libraries\STM32F10x_StdPeriph_Driver\src/stm32f10x_adc.c:1038
}
  12:	b002      	add	sp, #8
  14:	4770      	bx	lr
  16:	46c0      	nop			(mov r8, r8)
Disassembly of section .text.ADC_GetInjectedConversionValue:

00000000 <ADC_GetInjectedConversionValue>:
ADC_GetInjectedConversionValue():
C:\Program Files (x86)\Raisonance\Ride\lib\ARM\STM32F10x_LIB_V3.0.1\Libraries\STM32F10x_StdPeriph_Driver\src/stm32f10x_adc.c:1052
  *     @arg ADC_InjectedChannel_3: Injected Channel3 selected
  *     @arg ADC_InjectedChannel_4: Injected Channel4 selected
  * @retval The Data conversion value.
  */
uint16_t ADC_GetInjectedConversionValue(ADC_TypeDef* ADCx, uint8_t ADC_InjectedChannel)
{
   0:	b082      	sub	sp, #8
C:\Program Files (x86)\Raisonance\Ride\lib\ARM\STM32F10x_LIB_V3.0.1\Libraries\STM32F10x_StdPeriph_Driver\src/stm32f10x_adc.c:1053
  __IO uint32_t tmp = 0;
   2:	2300      	movs	r3, #0
   4:	9301      	str	r3, [sp, #4]
C:\Program Files (x86)\Raisonance\Ride\lib\ARM\STM32F10x_LIB_V3.0.1\Libraries\STM32F10x_StdPeriph_Driver\src/stm32f10x_adc.c:1059
  
  /* Check the parameters */
  assert_param(IS_ADC_ALL_PERIPH(ADCx));
  assert_param(IS_ADC_INJECTED_CHANNEL(ADC_InjectedChannel));

  tmp = (uint32_t)ADCx;
   6:	9001      	str	r0, [sp, #4]
C:\Program Files (x86)\Raisonance\Ride\lib\ARM\STM32F10x_LIB_V3.0.1\Libraries\STM32F10x_StdPeriph_Driver\src/stm32f10x_adc.c:1060
  tmp += ADC_InjectedChannel + JDR_Offset;
   8:	9b01      	ldr	r3, [sp, #4]
   a:	3328      	adds	r3, #40
   c:	185b      	adds	r3, r3, r1
   e:	9301      	str	r3, [sp, #4]
C:\Program Files (x86)\Raisonance\Ride\lib\ARM\STM32F10x_LIB_V3.0.1\Libraries\STM32F10x_StdPeriph_Driver\src/stm32f10x_adc.c:1063
  
  /* Returns the selected injected channel conversion data value */
  return (uint16_t) (*(__IO uint32_t*)  tmp);   
  10:	9a01      	ldr	r2, [sp, #4]
  12:	6810      	ldr	r0, [r2, #0]
C:\Program Files (x86)\Raisonance\Ride\lib\ARM\STM32F10x_LIB_V3.0.1\Libraries\STM32F10x_StdPeriph_Driver\src/stm32f10x_adc.c:1064
}
  14:	b280      	uxth	r0, r0
  16:	b002      	add	sp, #8
  18:	4770      	bx	lr
  1a:	46c0      	nop			(mov r8, r8)
Disassembly of section .text.ADC_AnalogWatchdogCmd:

00000000 <ADC_AnalogWatchdogCmd>:
ADC_AnalogWatchdogCmd():
C:\Program Files (x86)\Raisonance\Ride\lib\ARM\STM32F10x_LIB_V3.0.1\Libraries\STM32F10x_StdPeriph_Driver\src/stm32f10x_adc.c:1082
  *     @arg ADC_AnalogWatchdog_AllRegAllInjecEnable: Analog watchdog on all regular and injected channels
  *     @arg ADC_AnalogWatchdog_None: No channel guarded by the analog watchdog
  * @retval None	  
  */
void ADC_AnalogWatchdogCmd(ADC_TypeDef* ADCx, uint32_t ADC_AnalogWatchdog)
{
   0:	6842      	ldr	r2, [r0, #4]
C:\Program Files (x86)\Raisonance\Ride\lib\ARM\STM32F10x_LIB_V3.0.1\Libraries\STM32F10x_StdPeriph_Driver\src/stm32f10x_adc.c:1090
  assert_param(IS_ADC_ALL_PERIPH(ADCx));
  assert_param(IS_ADC_ANALOG_WATCHDOG(ADC_AnalogWatchdog));
  /* Get the old register value */
  tmpreg = ADCx->CR1;
  /* Clear AWDEN, AWDENJ and AWDSGL bits */
  tmpreg &= CR1_AWDMode_Reset;
   2:	f64f 53ff 	movw	r3, #65023	; 0xfdff
   6:	f6cf 733f 	movt	r3, #65343	; 0xff3f
   a:	401a      	ands	r2, r3
C:\Program Files (x86)\Raisonance\Ride\lib\ARM\STM32F10x_LIB_V3.0.1\Libraries\STM32F10x_StdPeriph_Driver\src/stm32f10x_adc.c:1092
  /* Set the analog watchdog enable mode */
  tmpreg |= ADC_AnalogWatchdog;
   c:	4311      	orrs	r1, r2
C:\Program Files (x86)\Raisonance\Ride\lib\ARM\STM32F10x_LIB_V3.0.1\Libraries\STM32F10x_StdPeriph_Driver\src/stm32f10x_adc.c:1094
  /* Store the new register value */
  ADCx->CR1 = tmpreg;
   e:	6041      	str	r1, [r0, #4]
C:\Program Files (x86)\Raisonance\Ride\lib\ARM\STM32F10x_LIB_V3.0.1\Libraries\STM32F10x_StdPeriph_Driver\src/stm32f10x_adc.c:1095
}
  10:	4770      	bx	lr
  12:	46c0      	nop			(mov r8, r8)
Disassembly of section .text.ADC_AnalogWatchdogThresholdsConfig:

00000000 <ADC_AnalogWatchdogThresholdsConfig>:
ADC_AnalogWatchdogThresholdsConfig():
C:\Program Files (x86)\Raisonance\Ride\lib\ARM\STM32F10x_LIB_V3.0.1\Libraries\STM32F10x_StdPeriph_Driver\src/stm32f10x_adc.c:1108
  *   This parameter must be a 12bit value.
  * @retval None
  */
void ADC_AnalogWatchdogThresholdsConfig(ADC_TypeDef* ADCx, uint16_t HighThreshold,
                                        uint16_t LowThreshold)
{
   0:	6241      	str	r1, [r0, #36]
C:\Program Files (x86)\Raisonance\Ride\lib\ARM\STM32F10x_LIB_V3.0.1\Libraries\STM32F10x_StdPeriph_Driver\src/stm32f10x_adc.c:1116
  assert_param(IS_ADC_THRESHOLD(HighThreshold));
  assert_param(IS_ADC_THRESHOLD(LowThreshold));
  /* Set the ADCx high threshold */
  ADCx->HTR = HighThreshold;
  /* Set the ADCx low threshold */
  ADCx->LTR = LowThreshold;
   2:	6282      	str	r2, [r0, #40]
C:\Program Files (x86)\Raisonance\Ride\lib\ARM\STM32F10x_LIB_V3.0.1\Libraries\STM32F10x_StdPeriph_Driver\src/stm32f10x_adc.c:1117
}
   4:	4770      	bx	lr
   6:	46c0      	nop			(mov r8, r8)
Disassembly of section .text.ADC_AnalogWatchdogSingleChannelConfig:

00000000 <ADC_AnalogWatchdogSingleChannelConfig>:
ADC_AnalogWatchdogSingleChannelConfig():
C:\Program Files (x86)\Raisonance\Ride\lib\ARM\STM32F10x_LIB_V3.0.1\Libraries\STM32F10x_StdPeriph_Driver\src/stm32f10x_adc.c:1145
  *     @arg ADC_Channel_16: ADC Channel16 selected
  *     @arg ADC_Channel_17: ADC Channel17 selected
  * @retval None
  */
void ADC_AnalogWatchdogSingleChannelConfig(ADC_TypeDef* ADCx, uint8_t ADC_Channel)
{
   0:	6843      	ldr	r3, [r0, #4]
C:\Program Files (x86)\Raisonance\Ride\lib\ARM\STM32F10x_LIB_V3.0.1\Libraries\STM32F10x_StdPeriph_Driver\src/stm32f10x_adc.c:1153
  assert_param(IS_ADC_ALL_PERIPH(ADCx));
  assert_param(IS_ADC_CHANNEL(ADC_Channel));
  /* Get the old register value */
  tmpreg = ADCx->CR1;
  /* Clear the Analog watchdog channel select bits */
  tmpreg &= CR1_AWDCH_Reset;
   2:	f023 031f 	bic.w	r3, r3, #31	; 0x1f
C:\Program Files (x86)\Raisonance\Ride\lib\ARM\STM32F10x_LIB_V3.0.1\Libraries\STM32F10x_StdPeriph_Driver\src/stm32f10x_adc.c:1155
  /* Set the Analog watchdog channel */
  tmpreg |= ADC_Channel;
   6:	4319      	orrs	r1, r3
C:\Program Files (x86)\Raisonance\Ride\lib\ARM\STM32F10x_LIB_V3.0.1\Libraries\STM32F10x_StdPeriph_Driver\src/stm32f10x_adc.c:1157
  /* Store the new register value */
  ADCx->CR1 = tmpreg;
   8:	6041      	str	r1, [r0, #4]
C:\Program Files (x86)\Raisonance\Ride\lib\ARM\STM32F10x_LIB_V3.0.1\Libraries\STM32F10x_StdPeriph_Driver\src/stm32f10x_adc.c:1158
}
   a:	4770      	bx	lr
Disassembly of section .text.ADC_TempSensorVrefintCmd:

00000000 <ADC_TempSensorVrefintCmd>:
ADC_TempSensorVrefintCmd():
C:\Program Files (x86)\Raisonance\Ride\lib\ARM\STM32F10x_LIB_V3.0.1\Libraries\STM32F10x_StdPeriph_Driver\src/stm32f10x_adc.c:1167
  * @param  NewState: new state of the temperature sensor.
  *   This parameter can be: ENABLE or DISABLE.
  * @retval None
  */
void ADC_TempSensorVrefintCmd(FunctionalState NewState)
{
   0:	b940      	cbnz	r0, 14 <ADC_TempSensorVrefintCmd+0x14>
C:\Program Files (x86)\Raisonance\Ride\lib\ARM\STM32F10x_LIB_V3.0.1\Libraries\STM32F10x_StdPeriph_Driver\src/stm32f10x_adc.c:1178
    ADC1->CR2 |= CR2_TSVREFE_Set;
  }
  else
  {
    /* Disable the temperature sensor and Vrefint channel*/
    ADC1->CR2 &= CR2_TSVREFE_Reset;
   2:	f242 4200 	movw	r2, #9216	; 0x2400
   6:	f2c4 0201 	movt	r2, #16385	; 0x4001
   a:	6893      	ldr	r3, [r2, #8]
   c:	f423 0300 	bic.w	r3, r3, #8388608	; 0x800000
  10:	6093      	str	r3, [r2, #8]
C:\Program Files (x86)\Raisonance\Ride\lib\ARM\STM32F10x_LIB_V3.0.1\Libraries\STM32F10x_StdPeriph_Driver\src/stm32f10x_adc.c:1180
  }
}
  12:	4770      	bx	lr
C:\Program Files (x86)\Raisonance\Ride\lib\ARM\STM32F10x_LIB_V3.0.1\Libraries\STM32F10x_StdPeriph_Driver\src/stm32f10x_adc.c:1173
  /* Check the parameters */
  assert_param(IS_FUNCTIONAL_STATE(NewState));
  if (NewState != DISABLE)
  {
    /* Enable the temperature sensor and Vrefint channel*/
    ADC1->CR2 |= CR2_TSVREFE_Set;
  14:	f242 4200 	movw	r2, #9216	; 0x2400
  18:	f2c4 0201 	movt	r2, #16385	; 0x4001
  1c:	6893      	ldr	r3, [r2, #8]
  1e:	f443 0300 	orr.w	r3, r3, #8388608	; 0x800000
  22:	6093      	str	r3, [r2, #8]
  24:	e7f5      	b.n	12 <ADC_TempSensorVrefintCmd+0x12>
  26:	46c0      	nop			(mov r8, r8)
Disassembly of section .text.ADC_GetFlagStatus:

00000000 <ADC_GetFlagStatus>:
ADC_GetFlagStatus():
C:\Program Files (x86)\Raisonance\Ride\lib\ARM\STM32F10x_LIB_V3.0.1\Libraries\STM32F10x_StdPeriph_Driver\src/stm32f10x_adc.c:1195
  *     @arg ADC_FLAG_JSTRT: Start of injected group conversion flag
  *     @arg ADC_FLAG_STRT: Start of regular group conversion flag
  * @retval The new state of ADC_FLAG (SET or RESET).
  */
FlagStatus ADC_GetFlagStatus(ADC_TypeDef* ADCx, uint8_t ADC_FLAG)
{
   0:	6803      	ldr	r3, [r0, #0]
   2:	4219      	tst	r1, r3
C:\Program Files (x86)\Raisonance\Ride\lib\ARM\STM32F10x_LIB_V3.0.1\Libraries\STM32F10x_StdPeriph_Driver\src/stm32f10x_adc.c:1213
    /* ADC_FLAG is reset */
    bitstatus = RESET;
  }
  /* Return the ADC_FLAG status */
  return  bitstatus;
}
   4:	bf0c      	ite	eq
   6:	2000      	moveq	r0, #0
   8:	2001      	movne	r0, #1
   a:	4770      	bx	lr
Disassembly of section .text.ADC_ClearFlag:

00000000 <ADC_ClearFlag>:
ADC_ClearFlag():
C:\Program Files (x86)\Raisonance\Ride\lib\ARM\STM32F10x_LIB_V3.0.1\Libraries\STM32F10x_StdPeriph_Driver\src/stm32f10x_adc.c:1228
  *     @arg ADC_FLAG_JSTRT: Start of injected group conversion flag
  *     @arg ADC_FLAG_STRT: Start of regular group conversion flag
  * @retval None
  */
void ADC_ClearFlag(ADC_TypeDef* ADCx, uint8_t ADC_FLAG)
{
   0:	43c9      	mvns	r1, r1
   2:	6001      	str	r1, [r0, #0]
C:\Program Files (x86)\Raisonance\Ride\lib\ARM\STM32F10x_LIB_V3.0.1\Libraries\STM32F10x_StdPeriph_Driver\src/stm32f10x_adc.c:1234
  /* Check the parameters */
  assert_param(IS_ADC_ALL_PERIPH(ADCx));
  assert_param(IS_ADC_CLEAR_FLAG(ADC_FLAG));
  /* Clear the selected ADC flags */
  ADCx->SR = ~(uint32_t)ADC_FLAG;
}
   4:	4770      	bx	lr
   6:	46c0      	nop			(mov r8, r8)
Disassembly of section .text.ADC_GetITStatus:

00000000 <ADC_GetITStatus>:
ADC_GetITStatus():
C:\Program Files (x86)\Raisonance\Ride\lib\ARM\STM32F10x_LIB_V3.0.1\Libraries\STM32F10x_StdPeriph_Driver\src/stm32f10x_adc.c:1247
  *     @arg ADC_IT_AWD: Analog watchdog interrupt mask
  *     @arg ADC_IT_JEOC: End of injected conversion interrupt mask
  * @retval The new state of ADC_IT (SET or RESET).
  */
ITStatus ADC_GetITStatus(ADC_TypeDef* ADCx, uint16_t ADC_IT)
{
   0:	6842      	ldr	r2, [r0, #4]
C:\Program Files (x86)\Raisonance\Ride\lib\ARM\STM32F10x_LIB_V3.0.1\Libraries\STM32F10x_StdPeriph_Driver\src/stm32f10x_adc.c:1258
  /* Get the ADC IT index */
  itmask = ADC_IT >> 8;
  /* Get the ADC_IT enable bit status */
  enablestatus = (ADCx->CR1 & (uint8_t)ADC_IT) ;
  /* Check the status of the specified ADC interrupt */
  if (((ADCx->SR & itmask) != (uint32_t)RESET) && enablestatus)
   2:	6803      	ldr	r3, [r0, #0]
   4:	ea13 2011 	ands.w	r0, r3, r1, lsr #8
   8:	d004      	beq.n	14 <ADC_GetITStatus+0x14>
   a:	b2cb      	uxtb	r3, r1
   c:	4213      	tst	r3, r2
   e:	bf0c      	ite	eq
  10:	2000      	moveq	r0, #0
  12:	2001      	movne	r0, #1
C:\Program Files (x86)\Raisonance\Ride\lib\ARM\STM32F10x_LIB_V3.0.1\Libraries\STM32F10x_StdPeriph_Driver\src/stm32f10x_adc.c:1270
    /* ADC_IT is reset */
    bitstatus = RESET;
  }
  /* Return the ADC_IT status */
  return  bitstatus;
}
  14:	4770      	bx	lr
  16:	46c0      	nop			(mov r8, r8)
Disassembly of section .text.ADC_ClearITPendingBit:

00000000 <ADC_ClearITPendingBit>:
ADC_ClearITPendingBit():
C:\Program Files (x86)\Raisonance\Ride\lib\ARM\STM32F10x_LIB_V3.0.1\Libraries\STM32F10x_StdPeriph_Driver\src/stm32f10x_adc.c:1283
  *     @arg ADC_IT_AWD: Analog watchdog interrupt mask
  *     @arg ADC_IT_JEOC: End of injected conversion interrupt mask
  * @retval None
  */
void ADC_ClearITPendingBit(ADC_TypeDef* ADCx, uint16_t ADC_IT)
{
   0:	0a09      	lsrs	r1, r1, #8
   2:	43c9      	mvns	r1, r1
   4:	6001      	str	r1, [r0, #0]
C:\Program Files (x86)\Raisonance\Ride\lib\ARM\STM32F10x_LIB_V3.0.1\Libraries\STM32F10x_StdPeriph_Driver\src/stm32f10x_adc.c:1292
  assert_param(IS_ADC_IT(ADC_IT));
  /* Get the ADC IT index */
  itmask = (uint8_t)(ADC_IT >> 8);
  /* Clear the selected ADC interrupt pending bits */
  ADCx->SR = ~(uint32_t)itmask;
}
   6:	4770      	bx	lr
Disassembly of section .text.ADC_DeInit:

00000000 <ADC_DeInit>:
ADC_DeInit():
C:\Program Files (x86)\Raisonance\Ride\lib\ARM\STM32F10x_LIB_V3.0.1\Libraries\STM32F10x_StdPeriph_Driver\src/stm32f10x_adc.c:179
  * @brief  Deinitializes the ADCx peripheral registers to their default reset values.
  * @param  ADCx: where x can be 1, 2 or 3 to select the ADC peripheral.
  * @retval None
  */
void ADC_DeInit(ADC_TypeDef* ADCx)
{
   0:	f242 4300 	movw	r3, #9216	; 0x2400
   4:	f2c4 0301 	movt	r3, #16385	; 0x4001
   8:	4298      	cmp	r0, r3
   a:	b510      	push	{r4, lr}
C:\Program Files (x86)\Raisonance\Ride\lib\ARM\STM32F10x_LIB_V3.0.1\Libraries\STM32F10x_StdPeriph_Driver\src/stm32f10x_adc.c:183
  /* Check the parameters */
  assert_param(IS_ADC_ALL_PERIPH(ADCx));
  
  if (ADCx == ADC1)
   c:	d017      	beq.n	3e <ADC_DeInit+0x3e>
C:\Program Files (x86)\Raisonance\Ride\lib\ARM\STM32F10x_LIB_V3.0.1\Libraries\STM32F10x_StdPeriph_Driver\src/stm32f10x_adc.c:190
    /* Enable ADC1 reset state */
    RCC_APB2PeriphResetCmd(RCC_APB2Periph_ADC1, ENABLE);
    /* Release ADC1 from reset state */
    RCC_APB2PeriphResetCmd(RCC_APB2Periph_ADC1, DISABLE);
  }
  else if (ADCx == ADC2)
   e:	f642 0300 	movw	r3, #10240	; 0x2800
  12:	f2c4 0301 	movt	r3, #16385	; 0x4001
  16:	4298      	cmp	r0, r3
  18:	d01c      	beq.n	54 <ADC_DeInit+0x54>
C:\Program Files (x86)\Raisonance\Ride\lib\ARM\STM32F10x_LIB_V3.0.1\Libraries\STM32F10x_StdPeriph_Driver\src/stm32f10x_adc.c:199
    /* Release ADC2 from reset state */
    RCC_APB2PeriphResetCmd(RCC_APB2Periph_ADC2, DISABLE);
  }
  else
  {
    if (ADCx == ADC3)
  1a:	f643 4300 	movw	r3, #15360	; 0x3c00
  1e:	f2c4 0301 	movt	r3, #16385	; 0x4001
  22:	4298      	cmp	r0, r3
  24:	d000      	beq.n	28 <ADC_DeInit+0x28>
C:\Program Files (x86)\Raisonance\Ride\lib\ARM\STM32F10x_LIB_V3.0.1\Libraries\STM32F10x_StdPeriph_Driver\src/stm32f10x_adc.c:207
      RCC_APB2PeriphResetCmd(RCC_APB2Periph_ADC3, ENABLE);
      /* Release ADC3 from reset state */
      RCC_APB2PeriphResetCmd(RCC_APB2Periph_ADC3, DISABLE);
    }
  }
}
  26:	bd10      	pop	{r4, pc}
C:\Program Files (x86)\Raisonance\Ride\lib\ARM\STM32F10x_LIB_V3.0.1\Libraries\STM32F10x_StdPeriph_Driver\src/stm32f10x_adc.c:202
  else
  {
    if (ADCx == ADC3)
    {
      /* Enable ADC3 reset state */
      RCC_APB2PeriphResetCmd(RCC_APB2Periph_ADC3, ENABLE);
  28:	2101      	movs	r1, #1
  2a:	f44f 4000 	mov.w	r0, #32768	; 0x8000
  2e:	f7ff fffe 	bl	0 <RCC_APB2PeriphResetCmd>
C:\Program Files (x86)\Raisonance\Ride\lib\ARM\STM32F10x_LIB_V3.0.1\Libraries\STM32F10x_StdPeriph_Driver\src/stm32f10x_adc.c:204
      /* Release ADC3 from reset state */
      RCC_APB2PeriphResetCmd(RCC_APB2Periph_ADC3, DISABLE);
  32:	f44f 4000 	mov.w	r0, #32768	; 0x8000
  36:	2100      	movs	r1, #0
  38:	f7ff fffe 	bl	0 <RCC_APB2PeriphResetCmd>
  3c:	e7f3      	b.n	26 <ADC_DeInit+0x26>
C:\Program Files (x86)\Raisonance\Ride\lib\ARM\STM32F10x_LIB_V3.0.1\Libraries\STM32F10x_StdPeriph_Driver\src/stm32f10x_adc.c:186
  assert_param(IS_ADC_ALL_PERIPH(ADCx));
  
  if (ADCx == ADC1)
  {
    /* Enable ADC1 reset state */
    RCC_APB2PeriphResetCmd(RCC_APB2Periph_ADC1, ENABLE);
  3e:	2101      	movs	r1, #1
  40:	f44f 7000 	mov.w	r0, #512	; 0x200
  44:	f7ff fffe 	bl	0 <RCC_APB2PeriphResetCmd>
C:\Program Files (x86)\Raisonance\Ride\lib\ARM\STM32F10x_LIB_V3.0.1\Libraries\STM32F10x_StdPeriph_Driver\src/stm32f10x_adc.c:188
    /* Release ADC1 from reset state */
    RCC_APB2PeriphResetCmd(RCC_APB2Periph_ADC1, DISABLE);
  48:	f44f 7000 	mov.w	r0, #512	; 0x200
  4c:	2100      	movs	r1, #0
  4e:	f7ff fffe 	bl	0 <RCC_APB2PeriphResetCmd>
  52:	e7e8      	b.n	26 <ADC_DeInit+0x26>
C:\Program Files (x86)\Raisonance\Ride\lib\ARM\STM32F10x_LIB_V3.0.1\Libraries\STM32F10x_StdPeriph_Driver\src/stm32f10x_adc.c:193
  }
  else if (ADCx == ADC2)
  {
    /* Enable ADC2 reset state */
    RCC_APB2PeriphResetCmd(RCC_APB2Periph_ADC2, ENABLE);
  54:	2101      	movs	r1, #1
  56:	f44f 6080 	mov.w	r0, #1024	; 0x400
  5a:	f7ff fffe 	bl	0 <RCC_APB2PeriphResetCmd>
C:\Program Files (x86)\Raisonance\Ride\lib\ARM\STM32F10x_LIB_V3.0.1\Libraries\STM32F10x_StdPeriph_Driver\src/stm32f10x_adc.c:195
    /* Release ADC2 from reset state */
    RCC_APB2PeriphResetCmd(RCC_APB2Periph_ADC2, DISABLE);
  5e:	f44f 6080 	mov.w	r0, #1024	; 0x400
  62:	2100      	movs	r1, #0
  64:	f7ff fffe 	bl	0 <RCC_APB2PeriphResetCmd>
  68:	e7dd      	b.n	26 <RCC_APB2PeriphResetCmd+0x26>
  6a:	46c0      	nop			(mov r8, r8)
