ARM GAS  C:\Users\ilya\AppData\Local\Temp\ccOZQBEY.s 			page 1


   1              		.syntax unified
   2              		.cpu cortex-m3
   3              		.fpu softvfp
   4              		.eabi_attribute 20, 1
   5              		.eabi_attribute 21, 1
   6              		.eabi_attribute 23, 3
   7              		.eabi_attribute 24, 1
   8              		.eabi_attribute 25, 1
   9              		.eabi_attribute 26, 1
  10              		.eabi_attribute 30, 6
  11              		.eabi_attribute 34, 1
  12              		.eabi_attribute 18, 4
  13              		.thumb
  14              		.syntax unified
  15              		.file	"isr_Sleep.c"
  16              		.text
  17              	.Ltext0:
  18              		.cfi_sections	.debug_frame
  19              		.section	.text.isr_Sleep_Start,"ax",%progbits
  20              		.align	2
  21              		.global	isr_Sleep_Start
  22              		.thumb
  23              		.thumb_func
  24              		.type	isr_Sleep_Start, %function
  25              	isr_Sleep_Start:
  26              	.LFB0:
  27              		.file 1 "Generated_Source\\PSoC5\\isr_Sleep.c"
   1:Generated_Source\PSoC5/isr_Sleep.c **** /*******************************************************************************
   2:Generated_Source\PSoC5/isr_Sleep.c **** * File Name: isr_Sleep.c  
   3:Generated_Source\PSoC5/isr_Sleep.c **** * Version 1.70
   4:Generated_Source\PSoC5/isr_Sleep.c **** *
   5:Generated_Source\PSoC5/isr_Sleep.c **** *  Description:
   6:Generated_Source\PSoC5/isr_Sleep.c **** *   API for controlling the state of an interrupt.
   7:Generated_Source\PSoC5/isr_Sleep.c **** *
   8:Generated_Source\PSoC5/isr_Sleep.c **** *
   9:Generated_Source\PSoC5/isr_Sleep.c **** *  Note:
  10:Generated_Source\PSoC5/isr_Sleep.c **** *
  11:Generated_Source\PSoC5/isr_Sleep.c **** ********************************************************************************
  12:Generated_Source\PSoC5/isr_Sleep.c **** * Copyright 2008-2015, Cypress Semiconductor Corporation.  All rights reserved.
  13:Generated_Source\PSoC5/isr_Sleep.c **** * You may use this file only in accordance with the license, terms, conditions, 
  14:Generated_Source\PSoC5/isr_Sleep.c **** * disclaimers, and limitations in the end user license agreement accompanying 
  15:Generated_Source\PSoC5/isr_Sleep.c **** * the software package with which this file was provided.
  16:Generated_Source\PSoC5/isr_Sleep.c **** *******************************************************************************/
  17:Generated_Source\PSoC5/isr_Sleep.c **** 
  18:Generated_Source\PSoC5/isr_Sleep.c **** 
  19:Generated_Source\PSoC5/isr_Sleep.c **** #include <cydevice_trm.h>
  20:Generated_Source\PSoC5/isr_Sleep.c **** #include <CyLib.h>
  21:Generated_Source\PSoC5/isr_Sleep.c **** #include <isr_Sleep.h>
  22:Generated_Source\PSoC5/isr_Sleep.c **** 
  23:Generated_Source\PSoC5/isr_Sleep.c **** 
  24:Generated_Source\PSoC5/isr_Sleep.c **** #if !defined(isr_Sleep__REMOVED) /* Check for removal by optimization */
  25:Generated_Source\PSoC5/isr_Sleep.c **** 
  26:Generated_Source\PSoC5/isr_Sleep.c **** /*******************************************************************************
  27:Generated_Source\PSoC5/isr_Sleep.c **** *  Place your includes, defines and code here 
  28:Generated_Source\PSoC5/isr_Sleep.c **** ********************************************************************************/
  29:Generated_Source\PSoC5/isr_Sleep.c **** /* `#START isr_Sleep_intc` */
  30:Generated_Source\PSoC5/isr_Sleep.c **** 
ARM GAS  C:\Users\ilya\AppData\Local\Temp\ccOZQBEY.s 			page 2


  31:Generated_Source\PSoC5/isr_Sleep.c **** /* `#END` */
  32:Generated_Source\PSoC5/isr_Sleep.c **** 
  33:Generated_Source\PSoC5/isr_Sleep.c **** #ifndef CYINT_IRQ_BASE
  34:Generated_Source\PSoC5/isr_Sleep.c **** #define CYINT_IRQ_BASE      16
  35:Generated_Source\PSoC5/isr_Sleep.c **** #endif /* CYINT_IRQ_BASE */
  36:Generated_Source\PSoC5/isr_Sleep.c **** #ifndef CYINT_VECT_TABLE
  37:Generated_Source\PSoC5/isr_Sleep.c **** #define CYINT_VECT_TABLE    ((cyisraddress **) CYREG_NVIC_VECT_OFFSET)
  38:Generated_Source\PSoC5/isr_Sleep.c **** #endif /* CYINT_VECT_TABLE */
  39:Generated_Source\PSoC5/isr_Sleep.c **** 
  40:Generated_Source\PSoC5/isr_Sleep.c **** /* Declared in startup, used to set unused interrupts to. */
  41:Generated_Source\PSoC5/isr_Sleep.c **** CY_ISR_PROTO(IntDefaultHandler);
  42:Generated_Source\PSoC5/isr_Sleep.c **** 
  43:Generated_Source\PSoC5/isr_Sleep.c **** 
  44:Generated_Source\PSoC5/isr_Sleep.c **** /*******************************************************************************
  45:Generated_Source\PSoC5/isr_Sleep.c **** * Function Name: isr_Sleep_Start
  46:Generated_Source\PSoC5/isr_Sleep.c **** ********************************************************************************
  47:Generated_Source\PSoC5/isr_Sleep.c **** *
  48:Generated_Source\PSoC5/isr_Sleep.c **** * Summary:
  49:Generated_Source\PSoC5/isr_Sleep.c **** *  Set up the interrupt and enable it. This function disables the interrupt, 
  50:Generated_Source\PSoC5/isr_Sleep.c **** *  sets the default interrupt vector, sets the priority from the value in the
  51:Generated_Source\PSoC5/isr_Sleep.c **** *  Design Wide Resources Interrupt Editor, then enables the interrupt to the 
  52:Generated_Source\PSoC5/isr_Sleep.c **** *  interrupt controller.
  53:Generated_Source\PSoC5/isr_Sleep.c **** *
  54:Generated_Source\PSoC5/isr_Sleep.c **** * Parameters:  
  55:Generated_Source\PSoC5/isr_Sleep.c **** *   None
  56:Generated_Source\PSoC5/isr_Sleep.c **** *
  57:Generated_Source\PSoC5/isr_Sleep.c **** * Return:
  58:Generated_Source\PSoC5/isr_Sleep.c **** *   None
  59:Generated_Source\PSoC5/isr_Sleep.c **** *
  60:Generated_Source\PSoC5/isr_Sleep.c **** *******************************************************************************/
  61:Generated_Source\PSoC5/isr_Sleep.c **** void isr_Sleep_Start(void)
  62:Generated_Source\PSoC5/isr_Sleep.c **** {
  28              		.loc 1 62 0
  29              		.cfi_startproc
  30              		@ args = 0, pretend = 0, frame = 0
  31              		@ frame_needed = 1, uses_anonymous_args = 0
  32 0000 80B5     		push	{r7, lr}
  33              		.cfi_def_cfa_offset 8
  34              		.cfi_offset 7, -8
  35              		.cfi_offset 14, -4
  36 0002 00AF     		add	r7, sp, #0
  37              		.cfi_def_cfa_register 7
  63:Generated_Source\PSoC5/isr_Sleep.c ****     /* For all we know the interrupt is active. */
  64:Generated_Source\PSoC5/isr_Sleep.c ****     isr_Sleep_Disable();
  38              		.loc 1 64 0
  39 0004 FFF7FEFF 		bl	isr_Sleep_Disable
  65:Generated_Source\PSoC5/isr_Sleep.c **** 
  66:Generated_Source\PSoC5/isr_Sleep.c ****     /* Set the ISR to point to the isr_Sleep Interrupt. */
  67:Generated_Source\PSoC5/isr_Sleep.c ****     isr_Sleep_SetVector(&isr_Sleep_Interrupt);
  40              		.loc 1 67 0
  41 0008 0448     		ldr	r0, .L2
  42 000a FFF7FEFF 		bl	isr_Sleep_SetVector
  68:Generated_Source\PSoC5/isr_Sleep.c **** 
  69:Generated_Source\PSoC5/isr_Sleep.c ****     /* Set the priority. */
  70:Generated_Source\PSoC5/isr_Sleep.c ****     isr_Sleep_SetPriority((uint8)isr_Sleep_INTC_PRIOR_NUMBER);
  43              		.loc 1 70 0
  44 000e 0720     		movs	r0, #7
ARM GAS  C:\Users\ilya\AppData\Local\Temp\ccOZQBEY.s 			page 3


  45 0010 FFF7FEFF 		bl	isr_Sleep_SetPriority
  71:Generated_Source\PSoC5/isr_Sleep.c **** 
  72:Generated_Source\PSoC5/isr_Sleep.c ****     /* Enable it. */
  73:Generated_Source\PSoC5/isr_Sleep.c ****     isr_Sleep_Enable();
  46              		.loc 1 73 0
  47 0014 FFF7FEFF 		bl	isr_Sleep_Enable
  74:Generated_Source\PSoC5/isr_Sleep.c **** }
  48              		.loc 1 74 0
  49 0018 00BF     		nop
  50 001a 80BD     		pop	{r7, pc}
  51              	.L3:
  52              		.align	2
  53              	.L2:
  54 001c 00000000 		.word	isr_Sleep_Interrupt
  55              		.cfi_endproc
  56              	.LFE0:
  57              		.size	isr_Sleep_Start, .-isr_Sleep_Start
  58              		.section	.text.isr_Sleep_StartEx,"ax",%progbits
  59              		.align	2
  60              		.global	isr_Sleep_StartEx
  61              		.thumb
  62              		.thumb_func
  63              		.type	isr_Sleep_StartEx, %function
  64              	isr_Sleep_StartEx:
  65              	.LFB1:
  75:Generated_Source\PSoC5/isr_Sleep.c **** 
  76:Generated_Source\PSoC5/isr_Sleep.c **** 
  77:Generated_Source\PSoC5/isr_Sleep.c **** /*******************************************************************************
  78:Generated_Source\PSoC5/isr_Sleep.c **** * Function Name: isr_Sleep_StartEx
  79:Generated_Source\PSoC5/isr_Sleep.c **** ********************************************************************************
  80:Generated_Source\PSoC5/isr_Sleep.c **** *
  81:Generated_Source\PSoC5/isr_Sleep.c **** * Summary:
  82:Generated_Source\PSoC5/isr_Sleep.c **** *  Sets up the interrupt and enables it. This function disables the interrupt,
  83:Generated_Source\PSoC5/isr_Sleep.c **** *  sets the interrupt vector based on the address passed in, sets the priority 
  84:Generated_Source\PSoC5/isr_Sleep.c **** *  from the value in the Design Wide Resources Interrupt Editor, then enables 
  85:Generated_Source\PSoC5/isr_Sleep.c **** *  the interrupt to the interrupt controller.
  86:Generated_Source\PSoC5/isr_Sleep.c **** *  
  87:Generated_Source\PSoC5/isr_Sleep.c **** *  When defining ISR functions, the CY_ISR and CY_ISR_PROTO macros should be 
  88:Generated_Source\PSoC5/isr_Sleep.c **** *  used to provide consistent definition across compilers:
  89:Generated_Source\PSoC5/isr_Sleep.c **** *  
  90:Generated_Source\PSoC5/isr_Sleep.c **** *  Function definition example:
  91:Generated_Source\PSoC5/isr_Sleep.c **** *   CY_ISR(MyISR)
  92:Generated_Source\PSoC5/isr_Sleep.c **** *   {
  93:Generated_Source\PSoC5/isr_Sleep.c **** *   }
  94:Generated_Source\PSoC5/isr_Sleep.c **** *   Function prototype example:
  95:Generated_Source\PSoC5/isr_Sleep.c **** *   CY_ISR_PROTO(MyISR);
  96:Generated_Source\PSoC5/isr_Sleep.c **** *
  97:Generated_Source\PSoC5/isr_Sleep.c **** * Parameters:  
  98:Generated_Source\PSoC5/isr_Sleep.c **** *   address: Address of the ISR to set in the interrupt vector table.
  99:Generated_Source\PSoC5/isr_Sleep.c **** *
 100:Generated_Source\PSoC5/isr_Sleep.c **** * Return:
 101:Generated_Source\PSoC5/isr_Sleep.c **** *   None
 102:Generated_Source\PSoC5/isr_Sleep.c **** *
 103:Generated_Source\PSoC5/isr_Sleep.c **** *******************************************************************************/
 104:Generated_Source\PSoC5/isr_Sleep.c **** void isr_Sleep_StartEx(cyisraddress address)
 105:Generated_Source\PSoC5/isr_Sleep.c **** {
  66              		.loc 1 105 0
ARM GAS  C:\Users\ilya\AppData\Local\Temp\ccOZQBEY.s 			page 4


  67              		.cfi_startproc
  68              		@ args = 0, pretend = 0, frame = 8
  69              		@ frame_needed = 1, uses_anonymous_args = 0
  70 0000 80B5     		push	{r7, lr}
  71              		.cfi_def_cfa_offset 8
  72              		.cfi_offset 7, -8
  73              		.cfi_offset 14, -4
  74 0002 82B0     		sub	sp, sp, #8
  75              		.cfi_def_cfa_offset 16
  76 0004 00AF     		add	r7, sp, #0
  77              		.cfi_def_cfa_register 7
  78 0006 7860     		str	r0, [r7, #4]
 106:Generated_Source\PSoC5/isr_Sleep.c ****     /* For all we know the interrupt is active. */
 107:Generated_Source\PSoC5/isr_Sleep.c ****     isr_Sleep_Disable();
  79              		.loc 1 107 0
  80 0008 FFF7FEFF 		bl	isr_Sleep_Disable
 108:Generated_Source\PSoC5/isr_Sleep.c **** 
 109:Generated_Source\PSoC5/isr_Sleep.c ****     /* Set the ISR to point to the isr_Sleep Interrupt. */
 110:Generated_Source\PSoC5/isr_Sleep.c ****     isr_Sleep_SetVector(address);
  81              		.loc 1 110 0
  82 000c 7868     		ldr	r0, [r7, #4]
  83 000e FFF7FEFF 		bl	isr_Sleep_SetVector
 111:Generated_Source\PSoC5/isr_Sleep.c **** 
 112:Generated_Source\PSoC5/isr_Sleep.c ****     /* Set the priority. */
 113:Generated_Source\PSoC5/isr_Sleep.c ****     isr_Sleep_SetPriority((uint8)isr_Sleep_INTC_PRIOR_NUMBER);
  84              		.loc 1 113 0
  85 0012 0720     		movs	r0, #7
  86 0014 FFF7FEFF 		bl	isr_Sleep_SetPriority
 114:Generated_Source\PSoC5/isr_Sleep.c **** 
 115:Generated_Source\PSoC5/isr_Sleep.c ****     /* Enable it. */
 116:Generated_Source\PSoC5/isr_Sleep.c ****     isr_Sleep_Enable();
  87              		.loc 1 116 0
  88 0018 FFF7FEFF 		bl	isr_Sleep_Enable
 117:Generated_Source\PSoC5/isr_Sleep.c **** }
  89              		.loc 1 117 0
  90 001c 00BF     		nop
  91 001e 0837     		adds	r7, r7, #8
  92              		.cfi_def_cfa_offset 8
  93 0020 BD46     		mov	sp, r7
  94              		.cfi_def_cfa_register 13
  95              		@ sp needed
  96 0022 80BD     		pop	{r7, pc}
  97              		.cfi_endproc
  98              	.LFE1:
  99              		.size	isr_Sleep_StartEx, .-isr_Sleep_StartEx
 100              		.section	.text.isr_Sleep_Stop,"ax",%progbits
 101              		.align	2
 102              		.global	isr_Sleep_Stop
 103              		.thumb
 104              		.thumb_func
 105              		.type	isr_Sleep_Stop, %function
 106              	isr_Sleep_Stop:
 107              	.LFB2:
 118:Generated_Source\PSoC5/isr_Sleep.c **** 
 119:Generated_Source\PSoC5/isr_Sleep.c **** 
 120:Generated_Source\PSoC5/isr_Sleep.c **** /*******************************************************************************
 121:Generated_Source\PSoC5/isr_Sleep.c **** * Function Name: isr_Sleep_Stop
ARM GAS  C:\Users\ilya\AppData\Local\Temp\ccOZQBEY.s 			page 5


 122:Generated_Source\PSoC5/isr_Sleep.c **** ********************************************************************************
 123:Generated_Source\PSoC5/isr_Sleep.c **** *
 124:Generated_Source\PSoC5/isr_Sleep.c **** * Summary:
 125:Generated_Source\PSoC5/isr_Sleep.c **** *   Disables and removes the interrupt.
 126:Generated_Source\PSoC5/isr_Sleep.c **** *
 127:Generated_Source\PSoC5/isr_Sleep.c **** * Parameters:  
 128:Generated_Source\PSoC5/isr_Sleep.c **** *   None
 129:Generated_Source\PSoC5/isr_Sleep.c **** *
 130:Generated_Source\PSoC5/isr_Sleep.c **** * Return:
 131:Generated_Source\PSoC5/isr_Sleep.c **** *   None
 132:Generated_Source\PSoC5/isr_Sleep.c **** *
 133:Generated_Source\PSoC5/isr_Sleep.c **** *******************************************************************************/
 134:Generated_Source\PSoC5/isr_Sleep.c **** void isr_Sleep_Stop(void)
 135:Generated_Source\PSoC5/isr_Sleep.c **** {
 108              		.loc 1 135 0
 109              		.cfi_startproc
 110              		@ args = 0, pretend = 0, frame = 0
 111              		@ frame_needed = 1, uses_anonymous_args = 0
 112 0000 80B5     		push	{r7, lr}
 113              		.cfi_def_cfa_offset 8
 114              		.cfi_offset 7, -8
 115              		.cfi_offset 14, -4
 116 0002 00AF     		add	r7, sp, #0
 117              		.cfi_def_cfa_register 7
 136:Generated_Source\PSoC5/isr_Sleep.c ****     /* Disable this interrupt. */
 137:Generated_Source\PSoC5/isr_Sleep.c ****     isr_Sleep_Disable();
 118              		.loc 1 137 0
 119 0004 FFF7FEFF 		bl	isr_Sleep_Disable
 138:Generated_Source\PSoC5/isr_Sleep.c **** 
 139:Generated_Source\PSoC5/isr_Sleep.c ****     /* Set the ISR to point to the passive one. */
 140:Generated_Source\PSoC5/isr_Sleep.c ****     isr_Sleep_SetVector(&IntDefaultHandler);
 120              		.loc 1 140 0
 121 0008 0248     		ldr	r0, .L6
 122 000a FFF7FEFF 		bl	isr_Sleep_SetVector
 141:Generated_Source\PSoC5/isr_Sleep.c **** }
 123              		.loc 1 141 0
 124 000e 00BF     		nop
 125 0010 80BD     		pop	{r7, pc}
 126              	.L7:
 127 0012 00BF     		.align	2
 128              	.L6:
 129 0014 00000000 		.word	IntDefaultHandler
 130              		.cfi_endproc
 131              	.LFE2:
 132              		.size	isr_Sleep_Stop, .-isr_Sleep_Stop
 133              		.section	.text.isr_Sleep_Interrupt,"ax",%progbits
 134              		.align	2
 135              		.global	isr_Sleep_Interrupt
 136              		.thumb
 137              		.thumb_func
 138              		.type	isr_Sleep_Interrupt, %function
 139              	isr_Sleep_Interrupt:
 140              	.LFB3:
 142:Generated_Source\PSoC5/isr_Sleep.c **** 
 143:Generated_Source\PSoC5/isr_Sleep.c **** 
 144:Generated_Source\PSoC5/isr_Sleep.c **** /*******************************************************************************
 145:Generated_Source\PSoC5/isr_Sleep.c **** * Function Name: isr_Sleep_Interrupt
ARM GAS  C:\Users\ilya\AppData\Local\Temp\ccOZQBEY.s 			page 6


 146:Generated_Source\PSoC5/isr_Sleep.c **** ********************************************************************************
 147:Generated_Source\PSoC5/isr_Sleep.c **** *
 148:Generated_Source\PSoC5/isr_Sleep.c **** * Summary:
 149:Generated_Source\PSoC5/isr_Sleep.c **** *   The default Interrupt Service Routine for isr_Sleep.
 150:Generated_Source\PSoC5/isr_Sleep.c **** *
 151:Generated_Source\PSoC5/isr_Sleep.c **** *   Add custom code between the coments to keep the next version of this file
 152:Generated_Source\PSoC5/isr_Sleep.c **** *   from over writting your code.
 153:Generated_Source\PSoC5/isr_Sleep.c **** *
 154:Generated_Source\PSoC5/isr_Sleep.c **** * Parameters:  
 155:Generated_Source\PSoC5/isr_Sleep.c **** *
 156:Generated_Source\PSoC5/isr_Sleep.c **** * Return:
 157:Generated_Source\PSoC5/isr_Sleep.c **** *   None
 158:Generated_Source\PSoC5/isr_Sleep.c **** *
 159:Generated_Source\PSoC5/isr_Sleep.c **** *******************************************************************************/
 160:Generated_Source\PSoC5/isr_Sleep.c **** CY_ISR(isr_Sleep_Interrupt)
 161:Generated_Source\PSoC5/isr_Sleep.c **** {
 141              		.loc 1 161 0
 142              		.cfi_startproc
 143              		@ args = 0, pretend = 0, frame = 0
 144              		@ frame_needed = 1, uses_anonymous_args = 0
 145 0000 80B5     		push	{r7, lr}
 146              		.cfi_def_cfa_offset 8
 147              		.cfi_offset 7, -8
 148              		.cfi_offset 14, -4
 149 0002 00AF     		add	r7, sp, #0
 150              		.cfi_def_cfa_register 7
 151              	.LBB2:
 162:Generated_Source\PSoC5/isr_Sleep.c ****     #ifdef isr_Sleep_INTERRUPT_INTERRUPT_CALLBACK
 163:Generated_Source\PSoC5/isr_Sleep.c ****         isr_Sleep_Interrupt_InterruptCallback();
 164:Generated_Source\PSoC5/isr_Sleep.c ****     #endif /* isr_Sleep_INTERRUPT_INTERRUPT_CALLBACK */ 
 165:Generated_Source\PSoC5/isr_Sleep.c **** 
 166:Generated_Source\PSoC5/isr_Sleep.c ****     /*  Place your Interrupt code here. */
 167:Generated_Source\PSoC5/isr_Sleep.c ****     /* `#START isr_Sleep_Interrupt` */
 168:Generated_Source\PSoC5/isr_Sleep.c ****     {
 169:Generated_Source\PSoC5/isr_Sleep.c ****         extern int tick_count;
 170:Generated_Source\PSoC5/isr_Sleep.c ****         tick_count++;
 152              		.loc 1 170 0
 153 0004 044B     		ldr	r3, .L9
 154 0006 1B68     		ldr	r3, [r3]
 155 0008 0133     		adds	r3, r3, #1
 156 000a 034A     		ldr	r2, .L9
 157 000c 1360     		str	r3, [r2]
 171:Generated_Source\PSoC5/isr_Sleep.c ****          SleepTimer_GetStatus();
 158              		.loc 1 171 0
 159 000e FFF7FEFF 		bl	SleepTimer_GetStatus
 160              	.LBE2:
 172:Generated_Source\PSoC5/isr_Sleep.c ****          //       HandleUSB();
 173:Generated_Source\PSoC5/isr_Sleep.c **** 
 174:Generated_Source\PSoC5/isr_Sleep.c ****     }
 175:Generated_Source\PSoC5/isr_Sleep.c ****     /* `#END` */
 176:Generated_Source\PSoC5/isr_Sleep.c **** }
 161              		.loc 1 176 0
 162 0012 00BF     		nop
 163 0014 80BD     		pop	{r7, pc}
 164              	.L10:
 165 0016 00BF     		.align	2
 166              	.L9:
ARM GAS  C:\Users\ilya\AppData\Local\Temp\ccOZQBEY.s 			page 7


 167 0018 00000000 		.word	tick_count
 168              		.cfi_endproc
 169              	.LFE3:
 170              		.size	isr_Sleep_Interrupt, .-isr_Sleep_Interrupt
 171              		.section	.text.isr_Sleep_SetVector,"ax",%progbits
 172              		.align	2
 173              		.global	isr_Sleep_SetVector
 174              		.thumb
 175              		.thumb_func
 176              		.type	isr_Sleep_SetVector, %function
 177              	isr_Sleep_SetVector:
 178              	.LFB4:
 177:Generated_Source\PSoC5/isr_Sleep.c **** 
 178:Generated_Source\PSoC5/isr_Sleep.c **** 
 179:Generated_Source\PSoC5/isr_Sleep.c **** /*******************************************************************************
 180:Generated_Source\PSoC5/isr_Sleep.c **** * Function Name: isr_Sleep_SetVector
 181:Generated_Source\PSoC5/isr_Sleep.c **** ********************************************************************************
 182:Generated_Source\PSoC5/isr_Sleep.c **** *
 183:Generated_Source\PSoC5/isr_Sleep.c **** * Summary:
 184:Generated_Source\PSoC5/isr_Sleep.c **** *   Change the ISR vector for the Interrupt. Note calling isr_Sleep_Start
 185:Generated_Source\PSoC5/isr_Sleep.c **** *   will override any effect this method would have had. To set the vector 
 186:Generated_Source\PSoC5/isr_Sleep.c **** *   before the component has been started use isr_Sleep_StartEx instead.
 187:Generated_Source\PSoC5/isr_Sleep.c **** * 
 188:Generated_Source\PSoC5/isr_Sleep.c **** *   When defining ISR functions, the CY_ISR and CY_ISR_PROTO macros should be 
 189:Generated_Source\PSoC5/isr_Sleep.c **** *   used to provide consistent definition across compilers:
 190:Generated_Source\PSoC5/isr_Sleep.c **** *
 191:Generated_Source\PSoC5/isr_Sleep.c **** *   Function definition example:
 192:Generated_Source\PSoC5/isr_Sleep.c **** *   CY_ISR(MyISR)
 193:Generated_Source\PSoC5/isr_Sleep.c **** *   {
 194:Generated_Source\PSoC5/isr_Sleep.c **** *   }
 195:Generated_Source\PSoC5/isr_Sleep.c **** *
 196:Generated_Source\PSoC5/isr_Sleep.c **** *   Function prototype example:
 197:Generated_Source\PSoC5/isr_Sleep.c **** *     CY_ISR_PROTO(MyISR);
 198:Generated_Source\PSoC5/isr_Sleep.c **** *
 199:Generated_Source\PSoC5/isr_Sleep.c **** * Parameters:
 200:Generated_Source\PSoC5/isr_Sleep.c **** *   address: Address of the ISR to set in the interrupt vector table.
 201:Generated_Source\PSoC5/isr_Sleep.c **** *
 202:Generated_Source\PSoC5/isr_Sleep.c **** * Return:
 203:Generated_Source\PSoC5/isr_Sleep.c **** *   None
 204:Generated_Source\PSoC5/isr_Sleep.c **** *
 205:Generated_Source\PSoC5/isr_Sleep.c **** *******************************************************************************/
 206:Generated_Source\PSoC5/isr_Sleep.c **** void isr_Sleep_SetVector(cyisraddress address)
 207:Generated_Source\PSoC5/isr_Sleep.c **** {
 179              		.loc 1 207 0
 180              		.cfi_startproc
 181              		@ args = 0, pretend = 0, frame = 16
 182              		@ frame_needed = 1, uses_anonymous_args = 0
 183              		@ link register save eliminated.
 184 0000 80B4     		push	{r7}
 185              		.cfi_def_cfa_offset 4
 186              		.cfi_offset 7, -4
 187 0002 85B0     		sub	sp, sp, #20
 188              		.cfi_def_cfa_offset 24
 189 0004 00AF     		add	r7, sp, #0
 190              		.cfi_def_cfa_register 7
 191 0006 7860     		str	r0, [r7, #4]
 208:Generated_Source\PSoC5/isr_Sleep.c ****     cyisraddress * ramVectorTable;
ARM GAS  C:\Users\ilya\AppData\Local\Temp\ccOZQBEY.s 			page 8


 209:Generated_Source\PSoC5/isr_Sleep.c **** 
 210:Generated_Source\PSoC5/isr_Sleep.c ****     ramVectorTable = (cyisraddress *) *CYINT_VECT_TABLE;
 192              		.loc 1 210 0
 193 0008 054B     		ldr	r3, .L12
 194 000a 1B68     		ldr	r3, [r3]
 195 000c FB60     		str	r3, [r7, #12]
 211:Generated_Source\PSoC5/isr_Sleep.c **** 
 212:Generated_Source\PSoC5/isr_Sleep.c ****     ramVectorTable[CYINT_IRQ_BASE + (uint32)isr_Sleep__INTC_NUMBER] = address;
 196              		.loc 1 212 0
 197 000e FB68     		ldr	r3, [r7, #12]
 198 0010 6833     		adds	r3, r3, #104
 199 0012 7A68     		ldr	r2, [r7, #4]
 200 0014 1A60     		str	r2, [r3]
 213:Generated_Source\PSoC5/isr_Sleep.c **** }
 201              		.loc 1 213 0
 202 0016 00BF     		nop
 203 0018 1437     		adds	r7, r7, #20
 204              		.cfi_def_cfa_offset 4
 205 001a BD46     		mov	sp, r7
 206              		.cfi_def_cfa_register 13
 207              		@ sp needed
 208 001c 80BC     		pop	{r7}
 209              		.cfi_restore 7
 210              		.cfi_def_cfa_offset 0
 211 001e 7047     		bx	lr
 212              	.L13:
 213              		.align	2
 214              	.L12:
 215 0020 08ED00E0 		.word	-536810232
 216              		.cfi_endproc
 217              	.LFE4:
 218              		.size	isr_Sleep_SetVector, .-isr_Sleep_SetVector
 219              		.section	.text.isr_Sleep_GetVector,"ax",%progbits
 220              		.align	2
 221              		.global	isr_Sleep_GetVector
 222              		.thumb
 223              		.thumb_func
 224              		.type	isr_Sleep_GetVector, %function
 225              	isr_Sleep_GetVector:
 226              	.LFB5:
 214:Generated_Source\PSoC5/isr_Sleep.c **** 
 215:Generated_Source\PSoC5/isr_Sleep.c **** 
 216:Generated_Source\PSoC5/isr_Sleep.c **** /*******************************************************************************
 217:Generated_Source\PSoC5/isr_Sleep.c **** * Function Name: isr_Sleep_GetVector
 218:Generated_Source\PSoC5/isr_Sleep.c **** ********************************************************************************
 219:Generated_Source\PSoC5/isr_Sleep.c **** *
 220:Generated_Source\PSoC5/isr_Sleep.c **** * Summary:
 221:Generated_Source\PSoC5/isr_Sleep.c **** *   Gets the "address" of the current ISR vector for the Interrupt.
 222:Generated_Source\PSoC5/isr_Sleep.c **** *
 223:Generated_Source\PSoC5/isr_Sleep.c **** * Parameters:
 224:Generated_Source\PSoC5/isr_Sleep.c **** *   None
 225:Generated_Source\PSoC5/isr_Sleep.c **** *
 226:Generated_Source\PSoC5/isr_Sleep.c **** * Return:
 227:Generated_Source\PSoC5/isr_Sleep.c **** *   Address of the ISR in the interrupt vector table.
 228:Generated_Source\PSoC5/isr_Sleep.c **** *
 229:Generated_Source\PSoC5/isr_Sleep.c **** *******************************************************************************/
 230:Generated_Source\PSoC5/isr_Sleep.c **** cyisraddress isr_Sleep_GetVector(void)
ARM GAS  C:\Users\ilya\AppData\Local\Temp\ccOZQBEY.s 			page 9


 231:Generated_Source\PSoC5/isr_Sleep.c **** {
 227              		.loc 1 231 0
 228              		.cfi_startproc
 229              		@ args = 0, pretend = 0, frame = 8
 230              		@ frame_needed = 1, uses_anonymous_args = 0
 231              		@ link register save eliminated.
 232 0000 80B4     		push	{r7}
 233              		.cfi_def_cfa_offset 4
 234              		.cfi_offset 7, -4
 235 0002 83B0     		sub	sp, sp, #12
 236              		.cfi_def_cfa_offset 16
 237 0004 00AF     		add	r7, sp, #0
 238              		.cfi_def_cfa_register 7
 232:Generated_Source\PSoC5/isr_Sleep.c ****     cyisraddress * ramVectorTable;
 233:Generated_Source\PSoC5/isr_Sleep.c **** 
 234:Generated_Source\PSoC5/isr_Sleep.c ****     ramVectorTable = (cyisraddress *) *CYINT_VECT_TABLE;
 239              		.loc 1 234 0
 240 0006 054B     		ldr	r3, .L16
 241 0008 1B68     		ldr	r3, [r3]
 242 000a 7B60     		str	r3, [r7, #4]
 235:Generated_Source\PSoC5/isr_Sleep.c **** 
 236:Generated_Source\PSoC5/isr_Sleep.c ****     return ramVectorTable[CYINT_IRQ_BASE + (uint32)isr_Sleep__INTC_NUMBER];
 243              		.loc 1 236 0
 244 000c 7B68     		ldr	r3, [r7, #4]
 245 000e 9B6E     		ldr	r3, [r3, #104]
 237:Generated_Source\PSoC5/isr_Sleep.c **** }
 246              		.loc 1 237 0
 247 0010 1846     		mov	r0, r3
 248 0012 0C37     		adds	r7, r7, #12
 249              		.cfi_def_cfa_offset 4
 250 0014 BD46     		mov	sp, r7
 251              		.cfi_def_cfa_register 13
 252              		@ sp needed
 253 0016 80BC     		pop	{r7}
 254              		.cfi_restore 7
 255              		.cfi_def_cfa_offset 0
 256 0018 7047     		bx	lr
 257              	.L17:
 258 001a 00BF     		.align	2
 259              	.L16:
 260 001c 08ED00E0 		.word	-536810232
 261              		.cfi_endproc
 262              	.LFE5:
 263              		.size	isr_Sleep_GetVector, .-isr_Sleep_GetVector
 264              		.section	.text.isr_Sleep_SetPriority,"ax",%progbits
 265              		.align	2
 266              		.global	isr_Sleep_SetPriority
 267              		.thumb
 268              		.thumb_func
 269              		.type	isr_Sleep_SetPriority, %function
 270              	isr_Sleep_SetPriority:
 271              	.LFB6:
 238:Generated_Source\PSoC5/isr_Sleep.c **** 
 239:Generated_Source\PSoC5/isr_Sleep.c **** 
 240:Generated_Source\PSoC5/isr_Sleep.c **** /*******************************************************************************
 241:Generated_Source\PSoC5/isr_Sleep.c **** * Function Name: isr_Sleep_SetPriority
 242:Generated_Source\PSoC5/isr_Sleep.c **** ********************************************************************************
ARM GAS  C:\Users\ilya\AppData\Local\Temp\ccOZQBEY.s 			page 10


 243:Generated_Source\PSoC5/isr_Sleep.c **** *
 244:Generated_Source\PSoC5/isr_Sleep.c **** * Summary:
 245:Generated_Source\PSoC5/isr_Sleep.c **** *   Sets the Priority of the Interrupt. 
 246:Generated_Source\PSoC5/isr_Sleep.c **** *
 247:Generated_Source\PSoC5/isr_Sleep.c **** *   Note calling isr_Sleep_Start or isr_Sleep_StartEx will 
 248:Generated_Source\PSoC5/isr_Sleep.c **** *   override any effect this API would have had. This API should only be called
 249:Generated_Source\PSoC5/isr_Sleep.c **** *   after isr_Sleep_Start or isr_Sleep_StartEx has been called. 
 250:Generated_Source\PSoC5/isr_Sleep.c **** *   To set the initial priority for the component, use the Design-Wide Resources
 251:Generated_Source\PSoC5/isr_Sleep.c **** *   Interrupt Editor.
 252:Generated_Source\PSoC5/isr_Sleep.c **** *
 253:Generated_Source\PSoC5/isr_Sleep.c **** *   Note This API has no effect on Non-maskable interrupt NMI).
 254:Generated_Source\PSoC5/isr_Sleep.c **** *
 255:Generated_Source\PSoC5/isr_Sleep.c **** * Parameters:
 256:Generated_Source\PSoC5/isr_Sleep.c **** *   priority: Priority of the interrupt, 0 being the highest priority
 257:Generated_Source\PSoC5/isr_Sleep.c **** *             PSoC 3 and PSoC 5LP: Priority is from 0 to 7.
 258:Generated_Source\PSoC5/isr_Sleep.c **** *             PSoC 4: Priority is from 0 to 3.
 259:Generated_Source\PSoC5/isr_Sleep.c **** *
 260:Generated_Source\PSoC5/isr_Sleep.c **** * Return:
 261:Generated_Source\PSoC5/isr_Sleep.c **** *   None
 262:Generated_Source\PSoC5/isr_Sleep.c **** *
 263:Generated_Source\PSoC5/isr_Sleep.c **** *******************************************************************************/
 264:Generated_Source\PSoC5/isr_Sleep.c **** void isr_Sleep_SetPriority(uint8 priority)
 265:Generated_Source\PSoC5/isr_Sleep.c **** {
 272              		.loc 1 265 0
 273              		.cfi_startproc
 274              		@ args = 0, pretend = 0, frame = 8
 275              		@ frame_needed = 1, uses_anonymous_args = 0
 276              		@ link register save eliminated.
 277 0000 80B4     		push	{r7}
 278              		.cfi_def_cfa_offset 4
 279              		.cfi_offset 7, -4
 280 0002 83B0     		sub	sp, sp, #12
 281              		.cfi_def_cfa_offset 16
 282 0004 00AF     		add	r7, sp, #0
 283              		.cfi_def_cfa_register 7
 284 0006 0346     		mov	r3, r0
 285 0008 FB71     		strb	r3, [r7, #7]
 266:Generated_Source\PSoC5/isr_Sleep.c ****     *isr_Sleep_INTC_PRIOR = priority << 5;
 286              		.loc 1 266 0
 287 000a 054A     		ldr	r2, .L19
 288 000c FB79     		ldrb	r3, [r7, #7]
 289 000e 5B01     		lsls	r3, r3, #5
 290 0010 DBB2     		uxtb	r3, r3
 291 0012 1370     		strb	r3, [r2]
 267:Generated_Source\PSoC5/isr_Sleep.c **** }
 292              		.loc 1 267 0
 293 0014 00BF     		nop
 294 0016 0C37     		adds	r7, r7, #12
 295              		.cfi_def_cfa_offset 4
 296 0018 BD46     		mov	sp, r7
 297              		.cfi_def_cfa_register 13
 298              		@ sp needed
 299 001a 80BC     		pop	{r7}
 300              		.cfi_restore 7
 301              		.cfi_def_cfa_offset 0
 302 001c 7047     		bx	lr
 303              	.L20:
ARM GAS  C:\Users\ilya\AppData\Local\Temp\ccOZQBEY.s 			page 11


 304 001e 00BF     		.align	2
 305              	.L19:
 306 0020 0AE400E0 		.word	-536812534
 307              		.cfi_endproc
 308              	.LFE6:
 309              		.size	isr_Sleep_SetPriority, .-isr_Sleep_SetPriority
 310              		.section	.text.isr_Sleep_GetPriority,"ax",%progbits
 311              		.align	2
 312              		.global	isr_Sleep_GetPriority
 313              		.thumb
 314              		.thumb_func
 315              		.type	isr_Sleep_GetPriority, %function
 316              	isr_Sleep_GetPriority:
 317              	.LFB7:
 268:Generated_Source\PSoC5/isr_Sleep.c **** 
 269:Generated_Source\PSoC5/isr_Sleep.c **** 
 270:Generated_Source\PSoC5/isr_Sleep.c **** /*******************************************************************************
 271:Generated_Source\PSoC5/isr_Sleep.c **** * Function Name: isr_Sleep_GetPriority
 272:Generated_Source\PSoC5/isr_Sleep.c **** ********************************************************************************
 273:Generated_Source\PSoC5/isr_Sleep.c **** *
 274:Generated_Source\PSoC5/isr_Sleep.c **** * Summary:
 275:Generated_Source\PSoC5/isr_Sleep.c **** *   Gets the Priority of the Interrupt.
 276:Generated_Source\PSoC5/isr_Sleep.c **** *
 277:Generated_Source\PSoC5/isr_Sleep.c **** * Parameters:
 278:Generated_Source\PSoC5/isr_Sleep.c **** *   None
 279:Generated_Source\PSoC5/isr_Sleep.c **** *
 280:Generated_Source\PSoC5/isr_Sleep.c **** * Return:
 281:Generated_Source\PSoC5/isr_Sleep.c **** *   Priority of the interrupt, 0 being the highest priority
 282:Generated_Source\PSoC5/isr_Sleep.c **** *    PSoC 3 and PSoC 5LP: Priority is from 0 to 7.
 283:Generated_Source\PSoC5/isr_Sleep.c **** *    PSoC 4: Priority is from 0 to 3.
 284:Generated_Source\PSoC5/isr_Sleep.c **** *
 285:Generated_Source\PSoC5/isr_Sleep.c **** *******************************************************************************/
 286:Generated_Source\PSoC5/isr_Sleep.c **** uint8 isr_Sleep_GetPriority(void)
 287:Generated_Source\PSoC5/isr_Sleep.c **** {
 318              		.loc 1 287 0
 319              		.cfi_startproc
 320              		@ args = 0, pretend = 0, frame = 8
 321              		@ frame_needed = 1, uses_anonymous_args = 0
 322              		@ link register save eliminated.
 323 0000 80B4     		push	{r7}
 324              		.cfi_def_cfa_offset 4
 325              		.cfi_offset 7, -4
 326 0002 83B0     		sub	sp, sp, #12
 327              		.cfi_def_cfa_offset 16
 328 0004 00AF     		add	r7, sp, #0
 329              		.cfi_def_cfa_register 7
 288:Generated_Source\PSoC5/isr_Sleep.c ****     uint8 priority;
 289:Generated_Source\PSoC5/isr_Sleep.c **** 
 290:Generated_Source\PSoC5/isr_Sleep.c **** 
 291:Generated_Source\PSoC5/isr_Sleep.c ****     priority = *isr_Sleep_INTC_PRIOR >> 5;
 330              		.loc 1 291 0
 331 0006 054B     		ldr	r3, .L23
 332 0008 1B78     		ldrb	r3, [r3]
 333 000a DBB2     		uxtb	r3, r3
 334 000c 5B09     		lsrs	r3, r3, #5
 335 000e FB71     		strb	r3, [r7, #7]
 292:Generated_Source\PSoC5/isr_Sleep.c **** 
ARM GAS  C:\Users\ilya\AppData\Local\Temp\ccOZQBEY.s 			page 12


 293:Generated_Source\PSoC5/isr_Sleep.c ****     return priority;
 336              		.loc 1 293 0
 337 0010 FB79     		ldrb	r3, [r7, #7]	@ zero_extendqisi2
 294:Generated_Source\PSoC5/isr_Sleep.c **** }
 338              		.loc 1 294 0
 339 0012 1846     		mov	r0, r3
 340 0014 0C37     		adds	r7, r7, #12
 341              		.cfi_def_cfa_offset 4
 342 0016 BD46     		mov	sp, r7
 343              		.cfi_def_cfa_register 13
 344              		@ sp needed
 345 0018 80BC     		pop	{r7}
 346              		.cfi_restore 7
 347              		.cfi_def_cfa_offset 0
 348 001a 7047     		bx	lr
 349              	.L24:
 350              		.align	2
 351              	.L23:
 352 001c 0AE400E0 		.word	-536812534
 353              		.cfi_endproc
 354              	.LFE7:
 355              		.size	isr_Sleep_GetPriority, .-isr_Sleep_GetPriority
 356              		.section	.text.isr_Sleep_Enable,"ax",%progbits
 357              		.align	2
 358              		.global	isr_Sleep_Enable
 359              		.thumb
 360              		.thumb_func
 361              		.type	isr_Sleep_Enable, %function
 362              	isr_Sleep_Enable:
 363              	.LFB8:
 295:Generated_Source\PSoC5/isr_Sleep.c **** 
 296:Generated_Source\PSoC5/isr_Sleep.c **** 
 297:Generated_Source\PSoC5/isr_Sleep.c **** /*******************************************************************************
 298:Generated_Source\PSoC5/isr_Sleep.c **** * Function Name: isr_Sleep_Enable
 299:Generated_Source\PSoC5/isr_Sleep.c **** ********************************************************************************
 300:Generated_Source\PSoC5/isr_Sleep.c **** *
 301:Generated_Source\PSoC5/isr_Sleep.c **** * Summary:
 302:Generated_Source\PSoC5/isr_Sleep.c **** *   Enables the interrupt to the interrupt controller. Do not call this function
 303:Generated_Source\PSoC5/isr_Sleep.c **** *   unless ISR_Start() has been called or the functionality of the ISR_Start() 
 304:Generated_Source\PSoC5/isr_Sleep.c **** *   function, which sets the vector and the priority, has been called.
 305:Generated_Source\PSoC5/isr_Sleep.c **** *
 306:Generated_Source\PSoC5/isr_Sleep.c **** * Parameters:
 307:Generated_Source\PSoC5/isr_Sleep.c **** *   None
 308:Generated_Source\PSoC5/isr_Sleep.c **** *
 309:Generated_Source\PSoC5/isr_Sleep.c **** * Return:
 310:Generated_Source\PSoC5/isr_Sleep.c **** *   None
 311:Generated_Source\PSoC5/isr_Sleep.c **** *
 312:Generated_Source\PSoC5/isr_Sleep.c **** *******************************************************************************/
 313:Generated_Source\PSoC5/isr_Sleep.c **** void isr_Sleep_Enable(void)
 314:Generated_Source\PSoC5/isr_Sleep.c **** {
 364              		.loc 1 314 0
 365              		.cfi_startproc
 366              		@ args = 0, pretend = 0, frame = 0
 367              		@ frame_needed = 1, uses_anonymous_args = 0
 368              		@ link register save eliminated.
 369 0000 80B4     		push	{r7}
 370              		.cfi_def_cfa_offset 4
ARM GAS  C:\Users\ilya\AppData\Local\Temp\ccOZQBEY.s 			page 13


 371              		.cfi_offset 7, -4
 372 0002 00AF     		add	r7, sp, #0
 373              		.cfi_def_cfa_register 7
 315:Generated_Source\PSoC5/isr_Sleep.c ****     /* Enable the general interrupt. */
 316:Generated_Source\PSoC5/isr_Sleep.c ****     *isr_Sleep_INTC_SET_EN = isr_Sleep__INTC_MASK;
 374              		.loc 1 316 0
 375 0004 034B     		ldr	r3, .L26
 376 0006 4FF48062 		mov	r2, #1024
 377 000a 1A60     		str	r2, [r3]
 317:Generated_Source\PSoC5/isr_Sleep.c **** }
 378              		.loc 1 317 0
 379 000c 00BF     		nop
 380 000e BD46     		mov	sp, r7
 381              		.cfi_def_cfa_register 13
 382              		@ sp needed
 383 0010 80BC     		pop	{r7}
 384              		.cfi_restore 7
 385              		.cfi_def_cfa_offset 0
 386 0012 7047     		bx	lr
 387              	.L27:
 388              		.align	2
 389              	.L26:
 390 0014 00E100E0 		.word	-536813312
 391              		.cfi_endproc
 392              	.LFE8:
 393              		.size	isr_Sleep_Enable, .-isr_Sleep_Enable
 394              		.section	.text.isr_Sleep_GetState,"ax",%progbits
 395              		.align	2
 396              		.global	isr_Sleep_GetState
 397              		.thumb
 398              		.thumb_func
 399              		.type	isr_Sleep_GetState, %function
 400              	isr_Sleep_GetState:
 401              	.LFB9:
 318:Generated_Source\PSoC5/isr_Sleep.c **** 
 319:Generated_Source\PSoC5/isr_Sleep.c **** 
 320:Generated_Source\PSoC5/isr_Sleep.c **** /*******************************************************************************
 321:Generated_Source\PSoC5/isr_Sleep.c **** * Function Name: isr_Sleep_GetState
 322:Generated_Source\PSoC5/isr_Sleep.c **** ********************************************************************************
 323:Generated_Source\PSoC5/isr_Sleep.c **** *
 324:Generated_Source\PSoC5/isr_Sleep.c **** * Summary:
 325:Generated_Source\PSoC5/isr_Sleep.c **** *   Gets the state (enabled, disabled) of the Interrupt.
 326:Generated_Source\PSoC5/isr_Sleep.c **** *
 327:Generated_Source\PSoC5/isr_Sleep.c **** * Parameters:
 328:Generated_Source\PSoC5/isr_Sleep.c **** *   None
 329:Generated_Source\PSoC5/isr_Sleep.c **** *
 330:Generated_Source\PSoC5/isr_Sleep.c **** * Return:
 331:Generated_Source\PSoC5/isr_Sleep.c **** *   1 if enabled, 0 if disabled.
 332:Generated_Source\PSoC5/isr_Sleep.c **** *
 333:Generated_Source\PSoC5/isr_Sleep.c **** *******************************************************************************/
 334:Generated_Source\PSoC5/isr_Sleep.c **** uint8 isr_Sleep_GetState(void)
 335:Generated_Source\PSoC5/isr_Sleep.c **** {
 402              		.loc 1 335 0
 403              		.cfi_startproc
 404              		@ args = 0, pretend = 0, frame = 0
 405              		@ frame_needed = 1, uses_anonymous_args = 0
 406              		@ link register save eliminated.
ARM GAS  C:\Users\ilya\AppData\Local\Temp\ccOZQBEY.s 			page 14


 407 0000 80B4     		push	{r7}
 408              		.cfi_def_cfa_offset 4
 409              		.cfi_offset 7, -4
 410 0002 00AF     		add	r7, sp, #0
 411              		.cfi_def_cfa_register 7
 336:Generated_Source\PSoC5/isr_Sleep.c ****     /* Get the state of the general interrupt. */
 337:Generated_Source\PSoC5/isr_Sleep.c ****     return ((*isr_Sleep_INTC_SET_EN & (uint32)isr_Sleep__INTC_MASK) != 0u) ? 1u:0u;
 412              		.loc 1 337 0
 413 0004 064B     		ldr	r3, .L32
 414 0006 1B68     		ldr	r3, [r3]
 415 0008 03F48063 		and	r3, r3, #1024
 416 000c 002B     		cmp	r3, #0
 417 000e 01D0     		beq	.L29
 418              		.loc 1 337 0 is_stmt 0 discriminator 1
 419 0010 0123     		movs	r3, #1
 420 0012 00E0     		b	.L30
 421              	.L29:
 422              		.loc 1 337 0 discriminator 2
 423 0014 0023     		movs	r3, #0
 424              	.L30:
 338:Generated_Source\PSoC5/isr_Sleep.c **** }
 425              		.loc 1 338 0 is_stmt 1 discriminator 4
 426 0016 1846     		mov	r0, r3
 427 0018 BD46     		mov	sp, r7
 428              		.cfi_def_cfa_register 13
 429              		@ sp needed
 430 001a 80BC     		pop	{r7}
 431              		.cfi_restore 7
 432              		.cfi_def_cfa_offset 0
 433 001c 7047     		bx	lr
 434              	.L33:
 435 001e 00BF     		.align	2
 436              	.L32:
 437 0020 00E100E0 		.word	-536813312
 438              		.cfi_endproc
 439              	.LFE9:
 440              		.size	isr_Sleep_GetState, .-isr_Sleep_GetState
 441              		.section	.text.isr_Sleep_Disable,"ax",%progbits
 442              		.align	2
 443              		.global	isr_Sleep_Disable
 444              		.thumb
 445              		.thumb_func
 446              		.type	isr_Sleep_Disable, %function
 447              	isr_Sleep_Disable:
 448              	.LFB10:
 339:Generated_Source\PSoC5/isr_Sleep.c **** 
 340:Generated_Source\PSoC5/isr_Sleep.c **** 
 341:Generated_Source\PSoC5/isr_Sleep.c **** /*******************************************************************************
 342:Generated_Source\PSoC5/isr_Sleep.c **** * Function Name: isr_Sleep_Disable
 343:Generated_Source\PSoC5/isr_Sleep.c **** ********************************************************************************
 344:Generated_Source\PSoC5/isr_Sleep.c **** *
 345:Generated_Source\PSoC5/isr_Sleep.c **** * Summary:
 346:Generated_Source\PSoC5/isr_Sleep.c **** *   Disables the Interrupt in the interrupt controller.
 347:Generated_Source\PSoC5/isr_Sleep.c **** *
 348:Generated_Source\PSoC5/isr_Sleep.c **** * Parameters:
 349:Generated_Source\PSoC5/isr_Sleep.c **** *   None
 350:Generated_Source\PSoC5/isr_Sleep.c **** *
ARM GAS  C:\Users\ilya\AppData\Local\Temp\ccOZQBEY.s 			page 15


 351:Generated_Source\PSoC5/isr_Sleep.c **** * Return:
 352:Generated_Source\PSoC5/isr_Sleep.c **** *   None
 353:Generated_Source\PSoC5/isr_Sleep.c **** *
 354:Generated_Source\PSoC5/isr_Sleep.c **** *******************************************************************************/
 355:Generated_Source\PSoC5/isr_Sleep.c **** void isr_Sleep_Disable(void)
 356:Generated_Source\PSoC5/isr_Sleep.c **** {
 449              		.loc 1 356 0
 450              		.cfi_startproc
 451              		@ args = 0, pretend = 0, frame = 0
 452              		@ frame_needed = 1, uses_anonymous_args = 0
 453              		@ link register save eliminated.
 454 0000 80B4     		push	{r7}
 455              		.cfi_def_cfa_offset 4
 456              		.cfi_offset 7, -4
 457 0002 00AF     		add	r7, sp, #0
 458              		.cfi_def_cfa_register 7
 357:Generated_Source\PSoC5/isr_Sleep.c ****     /* Disable the general interrupt. */
 358:Generated_Source\PSoC5/isr_Sleep.c ****     *isr_Sleep_INTC_CLR_EN = isr_Sleep__INTC_MASK;
 459              		.loc 1 358 0
 460 0004 034B     		ldr	r3, .L35
 461 0006 4FF48062 		mov	r2, #1024
 462 000a 1A60     		str	r2, [r3]
 359:Generated_Source\PSoC5/isr_Sleep.c **** }
 463              		.loc 1 359 0
 464 000c 00BF     		nop
 465 000e BD46     		mov	sp, r7
 466              		.cfi_def_cfa_register 13
 467              		@ sp needed
 468 0010 80BC     		pop	{r7}
 469              		.cfi_restore 7
 470              		.cfi_def_cfa_offset 0
 471 0012 7047     		bx	lr
 472              	.L36:
 473              		.align	2
 474              	.L35:
 475 0014 80E100E0 		.word	-536813184
 476              		.cfi_endproc
 477              	.LFE10:
 478              		.size	isr_Sleep_Disable, .-isr_Sleep_Disable
 479              		.section	.text.isr_Sleep_SetPending,"ax",%progbits
 480              		.align	2
 481              		.global	isr_Sleep_SetPending
 482              		.thumb
 483              		.thumb_func
 484              		.type	isr_Sleep_SetPending, %function
 485              	isr_Sleep_SetPending:
 486              	.LFB11:
 360:Generated_Source\PSoC5/isr_Sleep.c **** 
 361:Generated_Source\PSoC5/isr_Sleep.c **** 
 362:Generated_Source\PSoC5/isr_Sleep.c **** /*******************************************************************************
 363:Generated_Source\PSoC5/isr_Sleep.c **** * Function Name: isr_Sleep_SetPending
 364:Generated_Source\PSoC5/isr_Sleep.c **** ********************************************************************************
 365:Generated_Source\PSoC5/isr_Sleep.c **** *
 366:Generated_Source\PSoC5/isr_Sleep.c **** * Summary:
 367:Generated_Source\PSoC5/isr_Sleep.c **** *   Causes the Interrupt to enter the pending state, a software method of
 368:Generated_Source\PSoC5/isr_Sleep.c **** *   generating the interrupt.
 369:Generated_Source\PSoC5/isr_Sleep.c **** *
ARM GAS  C:\Users\ilya\AppData\Local\Temp\ccOZQBEY.s 			page 16


 370:Generated_Source\PSoC5/isr_Sleep.c **** * Parameters:
 371:Generated_Source\PSoC5/isr_Sleep.c **** *   None
 372:Generated_Source\PSoC5/isr_Sleep.c **** *
 373:Generated_Source\PSoC5/isr_Sleep.c **** * Return:
 374:Generated_Source\PSoC5/isr_Sleep.c **** *   None
 375:Generated_Source\PSoC5/isr_Sleep.c **** *
 376:Generated_Source\PSoC5/isr_Sleep.c **** * Side Effects:
 377:Generated_Source\PSoC5/isr_Sleep.c **** *   If interrupts are enabled and the interrupt is set up properly, the ISR is
 378:Generated_Source\PSoC5/isr_Sleep.c **** *   entered (depending on the priority of this interrupt and other pending 
 379:Generated_Source\PSoC5/isr_Sleep.c **** *   interrupts).
 380:Generated_Source\PSoC5/isr_Sleep.c **** *
 381:Generated_Source\PSoC5/isr_Sleep.c **** *******************************************************************************/
 382:Generated_Source\PSoC5/isr_Sleep.c **** void isr_Sleep_SetPending(void)
 383:Generated_Source\PSoC5/isr_Sleep.c **** {
 487              		.loc 1 383 0
 488              		.cfi_startproc
 489              		@ args = 0, pretend = 0, frame = 0
 490              		@ frame_needed = 1, uses_anonymous_args = 0
 491              		@ link register save eliminated.
 492 0000 80B4     		push	{r7}
 493              		.cfi_def_cfa_offset 4
 494              		.cfi_offset 7, -4
 495 0002 00AF     		add	r7, sp, #0
 496              		.cfi_def_cfa_register 7
 384:Generated_Source\PSoC5/isr_Sleep.c ****     *isr_Sleep_INTC_SET_PD = isr_Sleep__INTC_MASK;
 497              		.loc 1 384 0
 498 0004 034B     		ldr	r3, .L38
 499 0006 4FF48062 		mov	r2, #1024
 500 000a 1A60     		str	r2, [r3]
 385:Generated_Source\PSoC5/isr_Sleep.c **** }
 501              		.loc 1 385 0
 502 000c 00BF     		nop
 503 000e BD46     		mov	sp, r7
 504              		.cfi_def_cfa_register 13
 505              		@ sp needed
 506 0010 80BC     		pop	{r7}
 507              		.cfi_restore 7
 508              		.cfi_def_cfa_offset 0
 509 0012 7047     		bx	lr
 510              	.L39:
 511              		.align	2
 512              	.L38:
 513 0014 00E200E0 		.word	-536813056
 514              		.cfi_endproc
 515              	.LFE11:
 516              		.size	isr_Sleep_SetPending, .-isr_Sleep_SetPending
 517              		.section	.text.isr_Sleep_ClearPending,"ax",%progbits
 518              		.align	2
 519              		.global	isr_Sleep_ClearPending
 520              		.thumb
 521              		.thumb_func
 522              		.type	isr_Sleep_ClearPending, %function
 523              	isr_Sleep_ClearPending:
 524              	.LFB12:
 386:Generated_Source\PSoC5/isr_Sleep.c **** 
 387:Generated_Source\PSoC5/isr_Sleep.c **** 
 388:Generated_Source\PSoC5/isr_Sleep.c **** /*******************************************************************************
ARM GAS  C:\Users\ilya\AppData\Local\Temp\ccOZQBEY.s 			page 17


 389:Generated_Source\PSoC5/isr_Sleep.c **** * Function Name: isr_Sleep_ClearPending
 390:Generated_Source\PSoC5/isr_Sleep.c **** ********************************************************************************
 391:Generated_Source\PSoC5/isr_Sleep.c **** *
 392:Generated_Source\PSoC5/isr_Sleep.c **** * Summary:
 393:Generated_Source\PSoC5/isr_Sleep.c **** *   Clears a pending interrupt in the interrupt controller.
 394:Generated_Source\PSoC5/isr_Sleep.c **** *
 395:Generated_Source\PSoC5/isr_Sleep.c **** *   Note Some interrupt sources are clear-on-read and require the block 
 396:Generated_Source\PSoC5/isr_Sleep.c **** *   interrupt/status register to be read/cleared with the appropriate block API 
 397:Generated_Source\PSoC5/isr_Sleep.c **** *   (GPIO, UART, and so on). Otherwise the ISR will continue to remain in 
 398:Generated_Source\PSoC5/isr_Sleep.c **** *   pending state even though the interrupt itself is cleared using this API.
 399:Generated_Source\PSoC5/isr_Sleep.c **** *
 400:Generated_Source\PSoC5/isr_Sleep.c **** * Parameters:
 401:Generated_Source\PSoC5/isr_Sleep.c **** *   None
 402:Generated_Source\PSoC5/isr_Sleep.c **** *
 403:Generated_Source\PSoC5/isr_Sleep.c **** * Return:
 404:Generated_Source\PSoC5/isr_Sleep.c **** *   None
 405:Generated_Source\PSoC5/isr_Sleep.c **** *
 406:Generated_Source\PSoC5/isr_Sleep.c **** *******************************************************************************/
 407:Generated_Source\PSoC5/isr_Sleep.c **** void isr_Sleep_ClearPending(void)
 408:Generated_Source\PSoC5/isr_Sleep.c **** {
 525              		.loc 1 408 0
 526              		.cfi_startproc
 527              		@ args = 0, pretend = 0, frame = 0
 528              		@ frame_needed = 1, uses_anonymous_args = 0
 529              		@ link register save eliminated.
 530 0000 80B4     		push	{r7}
 531              		.cfi_def_cfa_offset 4
 532              		.cfi_offset 7, -4
 533 0002 00AF     		add	r7, sp, #0
 534              		.cfi_def_cfa_register 7
 409:Generated_Source\PSoC5/isr_Sleep.c ****     *isr_Sleep_INTC_CLR_PD = isr_Sleep__INTC_MASK;
 535              		.loc 1 409 0
 536 0004 034B     		ldr	r3, .L41
 537 0006 4FF48062 		mov	r2, #1024
 538 000a 1A60     		str	r2, [r3]
 410:Generated_Source\PSoC5/isr_Sleep.c **** }
 539              		.loc 1 410 0
 540 000c 00BF     		nop
 541 000e BD46     		mov	sp, r7
 542              		.cfi_def_cfa_register 13
 543              		@ sp needed
 544 0010 80BC     		pop	{r7}
 545              		.cfi_restore 7
 546              		.cfi_def_cfa_offset 0
 547 0012 7047     		bx	lr
 548              	.L42:
 549              		.align	2
 550              	.L41:
 551 0014 80E200E0 		.word	-536812928
 552              		.cfi_endproc
 553              	.LFE12:
 554              		.size	isr_Sleep_ClearPending, .-isr_Sleep_ClearPending
 555              		.text
 556              	.Letext0:
 557              		.file 2 "Generated_Source\\PSoC5/cytypes.h"