ARM GAS  C:\Users\Rajesh\AppData\Local\Temp\cc31OThw.s 			page 1


   1              		.syntax unified
   2              		.cpu cortex-m3
   3              		.fpu softvfp
   4              		.eabi_attribute 20, 1
   5              		.eabi_attribute 21, 1
   6              		.eabi_attribute 23, 3
   7              		.eabi_attribute 24, 1
   8              		.eabi_attribute 25, 1
   9              		.eabi_attribute 26, 1
  10              		.eabi_attribute 30, 6
  11              		.eabi_attribute 34, 1
  12              		.eabi_attribute 18, 4
  13              		.thumb
  14              		.syntax unified
  15              		.file	"soft_uart.c"
  16              		.text
  17              	.Ltext0:
  18              		.cfi_sections	.debug_frame
  19              		.section	.text.SU_Start,"ax",%progbits
  20              		.align	2
  21              		.global	SU_Start
  22              		.thumb
  23              		.thumb_func
  24              		.type	SU_Start, %function
  25              	SU_Start:
  26              	.LFB63:
  27              		.file 1 "soft_uart.c"
   1:soft_uart.c   **** /* ========================================
   2:soft_uart.c   ****  *
   3:soft_uart.c   ****  * Copyright YOUR COMPANY, THE YEAR
   4:soft_uart.c   ****  * All Rights Reserved
   5:soft_uart.c   ****  * UNPUBLISHED, LICENSED SOFTWARE.
   6:soft_uart.c   ****  *
   7:soft_uart.c   ****  * CONFIDENTIAL AND PROPRIETARY INFORMATION
   8:soft_uart.c   ****  * WHICH IS THE PROPERTY OF your company.
   9:soft_uart.c   ****  *
  10:soft_uart.c   ****  * ========================================
  11:soft_uart.c   **** */
  12:soft_uart.c   **** #include <project.h>
  13:soft_uart.c   **** #include "softuart.h"
  14:soft_uart.c   **** 
  15:soft_uart.c   **** 
  16:soft_uart.c   **** 
  17:soft_uart.c   **** 
  18:soft_uart.c   **** void SU_Start(SOFT_UART_STRUCT *s, int baud, int  parity, int stop)
  19:soft_uart.c   **** {
  28              		.loc 1 19 0
  29              		.cfi_startproc
  30              		@ args = 0, pretend = 0, frame = 16
  31              		@ frame_needed = 1, uses_anonymous_args = 0
  32              		@ link register save eliminated.
  33 0000 80B4     		push	{r7}
  34              		.cfi_def_cfa_offset 4
  35              		.cfi_offset 7, -4
  36 0002 85B0     		sub	sp, sp, #20
  37              		.cfi_def_cfa_offset 24
  38 0004 00AF     		add	r7, sp, #0
ARM GAS  C:\Users\Rajesh\AppData\Local\Temp\cc31OThw.s 			page 2


  39              		.cfi_def_cfa_register 7
  40 0006 F860     		str	r0, [r7, #12]
  41 0008 B960     		str	r1, [r7, #8]
  42 000a 7A60     		str	r2, [r7, #4]
  43 000c 3B60     		str	r3, [r7]
  20:soft_uart.c   **** 	s->baud = baud;
  44              		.loc 1 20 0
  45 000e FB68     		ldr	r3, [r7, #12]
  46 0010 BA68     		ldr	r2, [r7, #8]
  47 0012 1A60     		str	r2, [r3]
  21:soft_uart.c   **** 	s->parity = parity;
  48              		.loc 1 21 0
  49 0014 FB68     		ldr	r3, [r7, #12]
  50 0016 7A68     		ldr	r2, [r7, #4]
  51 0018 5A60     		str	r2, [r3, #4]
  22:soft_uart.c   **** 	s->rx_bits = 0;
  52              		.loc 1 22 0
  53 001a FB68     		ldr	r3, [r7, #12]
  54 001c 0022     		movs	r2, #0
  55 001e DA82     		strh	r2, [r3, #22]	@ movhi
  23:soft_uart.c   **** 	s->tx_bits = 0;
  56              		.loc 1 23 0
  57 0020 FB68     		ldr	r3, [r7, #12]
  58 0022 0022     		movs	r2, #0
  59 0024 9A82     		strh	r2, [r3, #20]	@ movhi
  24:soft_uart.c   **** 	s->flags = TX_READY;
  60              		.loc 1 24 0
  61 0026 FB68     		ldr	r3, [r7, #12]
  62 0028 0222     		movs	r2, #2
  63 002a 9A61     		str	r2, [r3, #24]
  25:soft_uart.c   **** 	s->timer_tx_ctr=0;
  64              		.loc 1 25 0
  65 002c FB68     		ldr	r3, [r7, #12]
  66 002e 0022     		movs	r2, #0
  67 0030 DA61     		str	r2, [r3, #28]
  26:soft_uart.c   **** 	s->timer_rx_ctr=0;
  68              		.loc 1 26 0
  69 0032 FB68     		ldr	r3, [r7, #12]
  70 0034 0022     		movs	r2, #0
  71 0036 1A62     		str	r2, [r3, #32]
  27:soft_uart.c   **** 	s->stop_bits =stop;
  72              		.loc 1 27 0
  73 0038 FB68     		ldr	r3, [r7, #12]
  74 003a 3A68     		ldr	r2, [r7]
  75 003c 9A60     		str	r2, [r3, #8]
  28:soft_uart.c   **** 	s->bits=8;
  76              		.loc 1 28 0
  77 003e FB68     		ldr	r3, [r7, #12]
  78 0040 0822     		movs	r2, #8
  79 0042 DA60     		str	r2, [r3, #12]
  29:soft_uart.c   **** 
  30:soft_uart.c   **** }
  80              		.loc 1 30 0
  81 0044 00BF     		nop
  82 0046 1437     		adds	r7, r7, #20
  83              		.cfi_def_cfa_offset 4
  84 0048 BD46     		mov	sp, r7
ARM GAS  C:\Users\Rajesh\AppData\Local\Temp\cc31OThw.s 			page 3


  85              		.cfi_def_cfa_register 13
  86              		@ sp needed
  87 004a 80BC     		pop	{r7}
  88              		.cfi_restore 7
  89              		.cfi_def_cfa_offset 0
  90 004c 7047     		bx	lr
  91              		.cfi_endproc
  92              	.LFE63:
  93              		.size	SU_Start, .-SU_Start
  94 004e 00BF     		.section	.text.SU_Isr,"ax",%progbits
  95              		.align	2
  96              		.global	SU_Isr
  97              		.thumb
  98              		.thumb_func
  99              		.type	SU_Isr, %function
 100              	SU_Isr:
 101              	.LFB64:
  31:soft_uart.c   **** 
  32:soft_uart.c   **** 
  33:soft_uart.c   **** 
  34:soft_uart.c   **** void SU_Isr(SOFT_UART_STRUCT *s)
  35:soft_uart.c   **** {
 102              		.loc 1 35 0
 103              		.cfi_startproc
 104              		@ args = 0, pretend = 0, frame = 16
 105              		@ frame_needed = 1, uses_anonymous_args = 0
 106 0000 80B5     		push	{r7, lr}
 107              		.cfi_def_cfa_offset 8
 108              		.cfi_offset 7, -8
 109              		.cfi_offset 14, -4
 110 0002 84B0     		sub	sp, sp, #16
 111              		.cfi_def_cfa_offset 24
 112 0004 00AF     		add	r7, sp, #0
 113              		.cfi_def_cfa_register 7
 114 0006 7860     		str	r0, [r7, #4]
  36:soft_uart.c   **** 	uint8 rb;
  37:soft_uart.c   **** 	
  38:soft_uart.c   **** 	// this is where we tx
  39:soft_uart.c   **** 	if ( s->tx_bits)
 115              		.loc 1 39 0
 116 0008 7B68     		ldr	r3, [r7, #4]
 117 000a 9B8A     		ldrh	r3, [r3, #20]	@ movhi
 118 000c 9BB2     		uxth	r3, r3
 119 000e 002B     		cmp	r3, #0
 120 0010 37D0     		beq	.L3
  40:soft_uart.c   **** 	{
  41:soft_uart.c   **** 		if ( --s->timer_tx_ctr<=0 )
 121              		.loc 1 41 0
 122 0012 7B68     		ldr	r3, [r7, #4]
 123 0014 DB69     		ldr	r3, [r3, #28]
 124 0016 013B     		subs	r3, r3, #1
 125 0018 7A68     		ldr	r2, [r7, #4]
 126 001a D361     		str	r3, [r2, #28]
 127 001c 002B     		cmp	r3, #0
 128 001e 30DC     		bgt	.L3
  42:soft_uart.c   **** 		{
  43:soft_uart.c   **** 			if ((s->tx_byte & 0x01) == 0x01)
ARM GAS  C:\Users\Rajesh\AppData\Local\Temp\cc31OThw.s 			page 4


 129              		.loc 1 43 0
 130 0020 7B68     		ldr	r3, [r7, #4]
 131 0022 5B8A     		ldrh	r3, [r3, #18]	@ movhi
 132 0024 9BB2     		uxth	r3, r3
 133 0026 03F00103 		and	r3, r3, #1
 134 002a 002B     		cmp	r3, #0
 135 002c 03D0     		beq	.L4
  44:soft_uart.c   **** 			{
  45:soft_uart.c   ****                 OptSelect_Write(2);
 136              		.loc 1 45 0
 137 002e 0220     		movs	r0, #2
 138 0030 FFF7FEFF 		bl	OptSelect_Write
 139 0034 02E0     		b	.L5
 140              	.L4:
  46:soft_uart.c   **** 			}
  47:soft_uart.c   **** 			else
  48:soft_uart.c   **** 			{
  49:soft_uart.c   ****                 OptSelect_Write(3);
 141              		.loc 1 49 0
 142 0036 0320     		movs	r0, #3
 143 0038 FFF7FEFF 		bl	OptSelect_Write
 144              	.L5:
  50:soft_uart.c   **** 			}
  51:soft_uart.c   **** 			s->tx_byte = s->tx_byte >>1;
 145              		.loc 1 51 0
 146 003c 7B68     		ldr	r3, [r7, #4]
 147 003e 5B8A     		ldrh	r3, [r3, #18]	@ movhi
 148 0040 9BB2     		uxth	r3, r3
 149 0042 5B08     		lsrs	r3, r3, #1
 150 0044 9AB2     		uxth	r2, r3
 151 0046 7B68     		ldr	r3, [r7, #4]
 152 0048 5A82     		strh	r2, [r3, #18]	@ movhi
  52:soft_uart.c   **** 			s->tx_bits--;
 153              		.loc 1 52 0
 154 004a 7B68     		ldr	r3, [r7, #4]
 155 004c 9B8A     		ldrh	r3, [r3, #20]	@ movhi
 156 004e 9BB2     		uxth	r3, r3
 157 0050 013B     		subs	r3, r3, #1
 158 0052 9AB2     		uxth	r2, r3
 159 0054 7B68     		ldr	r3, [r7, #4]
 160 0056 9A82     		strh	r2, [r3, #20]	@ movhi
  53:soft_uart.c   **** 			if (s->tx_bits)
 161              		.loc 1 53 0
 162 0058 7B68     		ldr	r3, [r7, #4]
 163 005a 9B8A     		ldrh	r3, [r3, #20]	@ movhi
 164 005c 9BB2     		uxth	r3, r3
 165 005e 002B     		cmp	r3, #0
 166 0060 09D0     		beq	.L6
  54:soft_uart.c   **** 			{
  55:soft_uart.c   **** 				s->flags &=~TX_READY;
 167              		.loc 1 55 0
 168 0062 7B68     		ldr	r3, [r7, #4]
 169 0064 9B69     		ldr	r3, [r3, #24]
 170 0066 23F00202 		bic	r2, r3, #2
 171 006a 7B68     		ldr	r3, [r7, #4]
 172 006c 9A61     		str	r2, [r3, #24]
  56:soft_uart.c   **** 				s->timer_tx_ctr = 3;
ARM GAS  C:\Users\Rajesh\AppData\Local\Temp\cc31OThw.s 			page 5


 173              		.loc 1 56 0
 174 006e 7B68     		ldr	r3, [r7, #4]
 175 0070 0322     		movs	r2, #3
 176 0072 DA61     		str	r2, [r3, #28]
 177 0074 05E0     		b	.L3
 178              	.L6:
  57:soft_uart.c   **** 		    }
  58:soft_uart.c   **** 			else
  59:soft_uart.c   **** 			   s->flags |=TX_READY;
 179              		.loc 1 59 0
 180 0076 7B68     		ldr	r3, [r7, #4]
 181 0078 9B69     		ldr	r3, [r3, #24]
 182 007a 43F00202 		orr	r2, r3, #2
 183 007e 7B68     		ldr	r3, [r7, #4]
 184 0080 9A61     		str	r2, [r3, #24]
 185              	.L3:
  60:soft_uart.c   **** 		}	
  61:soft_uart.c   **** 	}
  62:soft_uart.c   **** 
  63:soft_uart.c   ****     rb = Pin_WD0_Read();
 186              		.loc 1 63 0
 187 0082 FFF7FEFF 		bl	Pin_WD0_Read
 188 0086 0346     		mov	r3, r0
 189 0088 FB73     		strb	r3, [r7, #15]
  64:soft_uart.c   **** 	if ( s->rx_bits==0)
 190              		.loc 1 64 0
 191 008a 7B68     		ldr	r3, [r7, #4]
 192 008c DB8A     		ldrh	r3, [r3, #22]
 193 008e 002B     		cmp	r3, #0
 194 0090 15D1     		bne	.L7
  65:soft_uart.c   **** 	{
  66:soft_uart.c   **** 		if ( rb==0) // we got a start bit
 195              		.loc 1 66 0
 196 0092 FB7B     		ldrb	r3, [r7, #15]	@ zero_extendqisi2
 197 0094 002B     		cmp	r3, #0
 198 0096 60D1     		bne	.L14
  67:soft_uart.c   **** 		{
  68:soft_uart.c   **** 			s->timer_rx_ctr = 4;
 199              		.loc 1 68 0
 200 0098 7B68     		ldr	r3, [r7, #4]
 201 009a 0422     		movs	r2, #4
 202 009c 1A62     		str	r2, [r3, #32]
  69:soft_uart.c   **** 			s->rx_bits = s->bits+s->stop_bits+s->parity;
 203              		.loc 1 69 0
 204 009e 7B68     		ldr	r3, [r7, #4]
 205 00a0 DB68     		ldr	r3, [r3, #12]
 206 00a2 9AB2     		uxth	r2, r3
 207 00a4 7B68     		ldr	r3, [r7, #4]
 208 00a6 9B68     		ldr	r3, [r3, #8]
 209 00a8 9BB2     		uxth	r3, r3
 210 00aa 1344     		add	r3, r3, r2
 211 00ac 9AB2     		uxth	r2, r3
 212 00ae 7B68     		ldr	r3, [r7, #4]
 213 00b0 5B68     		ldr	r3, [r3, #4]
 214 00b2 9BB2     		uxth	r3, r3
 215 00b4 1344     		add	r3, r3, r2
 216 00b6 9AB2     		uxth	r2, r3
ARM GAS  C:\Users\Rajesh\AppData\Local\Temp\cc31OThw.s 			page 6


 217 00b8 7B68     		ldr	r3, [r7, #4]
 218 00ba DA82     		strh	r2, [r3, #22]	@ movhi
  70:soft_uart.c   **** 		}
  71:soft_uart.c   **** 	}
  72:soft_uart.c   **** 	else
  73:soft_uart.c   **** 	{
  74:soft_uart.c   **** 		if ( --s->timer_rx_ctr<=0 )
  75:soft_uart.c   **** 		{				// rcv
  76:soft_uart.c   **** 			if ( rb )
  77:soft_uart.c   **** 			{	s->rx_byte |= 0x8000;	}
  78:soft_uart.c   ****             
  79:soft_uart.c   **** 			s->rx_byte >>= 1;
  80:soft_uart.c   **** 			s->rx_bits--;
  81:soft_uart.c   **** 					
  82:soft_uart.c   **** 			if ( s->rx_bits==0)
  83:soft_uart.c   **** 			{
  84:soft_uart.c   **** 				s->rx_recv =  (s->rx_byte>>(8-1-s->stop_bits-(s->parity?1:0)))&0xff;
  85:soft_uart.c   **** 				if (s->flags & RX_BYTE_READY)
  86:soft_uart.c   **** 					 s->flags |=RX_OVERFLOW;
  87:soft_uart.c   **** 				else
  88:soft_uart.c   **** 					 s->flags |=RX_BYTE_READY;
  89:soft_uart.c   **** 			}
  90:soft_uart.c   **** 			else
  91:soft_uart.c   **** 				s->timer_rx_ctr = 3;
  92:soft_uart.c   **** 		}
  93:soft_uart.c   **** 	}
  94:soft_uart.c   **** }
 219              		.loc 1 94 0
 220 00bc 4DE0     		b	.L14
 221              	.L7:
  74:soft_uart.c   **** 		{				// rcv
 222              		.loc 1 74 0
 223 00be 7B68     		ldr	r3, [r7, #4]
 224 00c0 1B6A     		ldr	r3, [r3, #32]
 225 00c2 013B     		subs	r3, r3, #1
 226 00c4 7A68     		ldr	r2, [r7, #4]
 227 00c6 1362     		str	r3, [r2, #32]
 228 00c8 002B     		cmp	r3, #0
 229 00ca 46DC     		bgt	.L14
  76:soft_uart.c   **** 			{	s->rx_byte |= 0x8000;	}
 230              		.loc 1 76 0
 231 00cc FB7B     		ldrb	r3, [r7, #15]	@ zero_extendqisi2
 232 00ce 002B     		cmp	r3, #0
 233 00d0 08D0     		beq	.L10
  77:soft_uart.c   ****             
 234              		.loc 1 77 0
 235 00d2 7B68     		ldr	r3, [r7, #4]
 236 00d4 1B8A     		ldrh	r3, [r3, #16]
 237 00d6 6FEA4343 		mvn	r3, r3, lsl #17
 238 00da 6FEA5343 		mvn	r3, r3, lsr #17
 239 00de 9AB2     		uxth	r2, r3
 240 00e0 7B68     		ldr	r3, [r7, #4]
 241 00e2 1A82     		strh	r2, [r3, #16]	@ movhi
 242              	.L10:
  79:soft_uart.c   **** 			s->rx_bits--;
 243              		.loc 1 79 0
 244 00e4 7B68     		ldr	r3, [r7, #4]
ARM GAS  C:\Users\Rajesh\AppData\Local\Temp\cc31OThw.s 			page 7


 245 00e6 1B8A     		ldrh	r3, [r3, #16]
 246 00e8 5B08     		lsrs	r3, r3, #1
 247 00ea 9AB2     		uxth	r2, r3
 248 00ec 7B68     		ldr	r3, [r7, #4]
 249 00ee 1A82     		strh	r2, [r3, #16]	@ movhi
  80:soft_uart.c   **** 					
 250              		.loc 1 80 0
 251 00f0 7B68     		ldr	r3, [r7, #4]
 252 00f2 DB8A     		ldrh	r3, [r3, #22]
 253 00f4 013B     		subs	r3, r3, #1
 254 00f6 9AB2     		uxth	r2, r3
 255 00f8 7B68     		ldr	r3, [r7, #4]
 256 00fa DA82     		strh	r2, [r3, #22]	@ movhi
  82:soft_uart.c   **** 			{
 257              		.loc 1 82 0
 258 00fc 7B68     		ldr	r3, [r7, #4]
 259 00fe DB8A     		ldrh	r3, [r3, #22]
 260 0100 002B     		cmp	r3, #0
 261 0102 27D1     		bne	.L11
  84:soft_uart.c   **** 				if (s->flags & RX_BYTE_READY)
 262              		.loc 1 84 0
 263 0104 7B68     		ldr	r3, [r7, #4]
 264 0106 1B8A     		ldrh	r3, [r3, #16]
 265 0108 1946     		mov	r1, r3
 266 010a 7B68     		ldr	r3, [r7, #4]
 267 010c 9B68     		ldr	r3, [r3, #8]
 268 010e C3F10703 		rsb	r3, r3, #7
 269 0112 7A68     		ldr	r2, [r7, #4]
 270 0114 5268     		ldr	r2, [r2, #4]
 271 0116 002A     		cmp	r2, #0
 272 0118 14BF     		ite	ne
 273 011a 0122     		movne	r2, #1
 274 011c 0022     		moveq	r2, #0
 275 011e D2B2     		uxtb	r2, r2
 276 0120 9B1A     		subs	r3, r3, r2
 277 0122 41FA03F3 		asr	r3, r1, r3
 278 0126 DAB2     		uxtb	r2, r3
 279 0128 7B68     		ldr	r3, [r7, #4]
 280 012a 5A62     		str	r2, [r3, #36]
  85:soft_uart.c   **** 					 s->flags |=RX_OVERFLOW;
 281              		.loc 1 85 0
 282 012c 7B68     		ldr	r3, [r7, #4]
 283 012e 9B69     		ldr	r3, [r3, #24]
 284 0130 03F00103 		and	r3, r3, #1
 285 0134 002B     		cmp	r3, #0
 286 0136 06D0     		beq	.L12
  86:soft_uart.c   **** 				else
 287              		.loc 1 86 0
 288 0138 7B68     		ldr	r3, [r7, #4]
 289 013a 9B69     		ldr	r3, [r3, #24]
 290 013c 43F00402 		orr	r2, r3, #4
 291 0140 7B68     		ldr	r3, [r7, #4]
 292 0142 9A61     		str	r2, [r3, #24]
 293              		.loc 1 94 0
 294 0144 09E0     		b	.L14
 295              	.L12:
  88:soft_uart.c   **** 			}
ARM GAS  C:\Users\Rajesh\AppData\Local\Temp\cc31OThw.s 			page 8


 296              		.loc 1 88 0
 297 0146 7B68     		ldr	r3, [r7, #4]
 298 0148 9B69     		ldr	r3, [r3, #24]
 299 014a 43F00102 		orr	r2, r3, #1
 300 014e 7B68     		ldr	r3, [r7, #4]
 301 0150 9A61     		str	r2, [r3, #24]
 302              		.loc 1 94 0
 303 0152 02E0     		b	.L14
 304              	.L11:
  91:soft_uart.c   **** 		}
 305              		.loc 1 91 0
 306 0154 7B68     		ldr	r3, [r7, #4]
 307 0156 0322     		movs	r2, #3
 308 0158 1A62     		str	r2, [r3, #32]
 309              	.L14:
 310              		.loc 1 94 0
 311 015a 00BF     		nop
 312 015c 1037     		adds	r7, r7, #16
 313              		.cfi_def_cfa_offset 8
 314 015e BD46     		mov	sp, r7
 315              		.cfi_def_cfa_register 13
 316              		@ sp needed
 317 0160 80BD     		pop	{r7, pc}
 318              		.cfi_endproc
 319              	.LFE64:
 320              		.size	SU_Isr, .-SU_Isr
 321 0162 00BF     		.section	.text.getOddParity,"ax",%progbits
 322              		.align	2
 323              		.global	getOddParity
 324              		.thumb
 325              		.thumb_func
 326              		.type	getOddParity, %function
 327              	getOddParity:
 328              	.LFB65:
  95:soft_uart.c   **** 
  96:soft_uart.c   **** #define START_BIT 0
  97:soft_uart.c   **** 
  98:soft_uart.c   **** unsigned char getOddParity(unsigned char p)
  99:soft_uart.c   ****   {
 329              		.loc 1 99 0
 330              		.cfi_startproc
 331              		@ args = 0, pretend = 0, frame = 8
 332              		@ frame_needed = 1, uses_anonymous_args = 0
 333              		@ link register save eliminated.
 334 0000 80B4     		push	{r7}
 335              		.cfi_def_cfa_offset 4
 336              		.cfi_offset 7, -4
 337 0002 83B0     		sub	sp, sp, #12
 338              		.cfi_def_cfa_offset 16
 339 0004 00AF     		add	r7, sp, #0
 340              		.cfi_def_cfa_register 7
 341 0006 0346     		mov	r3, r0
 342 0008 FB71     		strb	r3, [r7, #7]
 100:soft_uart.c   ****       p = p ^ (p >> 4 | p << 4);
 343              		.loc 1 100 0
 344 000a FB79     		ldrb	r3, [r7, #7]	@ zero_extendqisi2
 345 000c 1B09     		lsrs	r3, r3, #4
ARM GAS  C:\Users\Rajesh\AppData\Local\Temp\cc31OThw.s 			page 9


 346 000e DBB2     		uxtb	r3, r3
 347 0010 5AB2     		sxtb	r2, r3
 348 0012 FB79     		ldrb	r3, [r7, #7]	@ zero_extendqisi2
 349 0014 1B01     		lsls	r3, r3, #4
 350 0016 5BB2     		sxtb	r3, r3
 351 0018 1343     		orrs	r3, r3, r2
 352 001a 5AB2     		sxtb	r2, r3
 353 001c 97F90730 		ldrsb	r3, [r7, #7]
 354 0020 5340     		eors	r3, r3, r2
 355 0022 5BB2     		sxtb	r3, r3
 356 0024 FB71     		strb	r3, [r7, #7]
 101:soft_uart.c   ****       p = p ^ (p >> 2);
 357              		.loc 1 101 0
 358 0026 FB79     		ldrb	r3, [r7, #7]	@ zero_extendqisi2
 359 0028 9B08     		lsrs	r3, r3, #2
 360 002a DAB2     		uxtb	r2, r3
 361 002c FB79     		ldrb	r3, [r7, #7]
 362 002e 5340     		eors	r3, r3, r2
 363 0030 FB71     		strb	r3, [r7, #7]
 102:soft_uart.c   ****       p = p ^ (p >> 1);
 364              		.loc 1 102 0
 365 0032 FB79     		ldrb	r3, [r7, #7]	@ zero_extendqisi2
 366 0034 5B08     		lsrs	r3, r3, #1
 367 0036 DAB2     		uxtb	r2, r3
 368 0038 FB79     		ldrb	r3, [r7, #7]
 369 003a 5340     		eors	r3, r3, r2
 370 003c FB71     		strb	r3, [r7, #7]
 103:soft_uart.c   ****       return p & 1;
 371              		.loc 1 103 0
 372 003e FB79     		ldrb	r3, [r7, #7]
 373 0040 03F00103 		and	r3, r3, #1
 374 0044 DBB2     		uxtb	r3, r3
 104:soft_uart.c   ****   }
 375              		.loc 1 104 0
 376 0046 1846     		mov	r0, r3
 377 0048 0C37     		adds	r7, r7, #12
 378              		.cfi_def_cfa_offset 4
 379 004a BD46     		mov	sp, r7
 380              		.cfi_def_cfa_register 13
 381              		@ sp needed
 382 004c 80BC     		pop	{r7}
 383              		.cfi_restore 7
 384              		.cfi_def_cfa_offset 0
 385 004e 7047     		bx	lr
 386              		.cfi_endproc
 387              	.LFE65:
 388              		.size	getOddParity, .-getOddParity
 389              		.section	.text.SU_GetStat,"ax",%progbits
 390              		.align	2
 391              		.global	SU_GetStat
 392              		.thumb
 393              		.thumb_func
 394              		.type	SU_GetStat, %function
 395              	SU_GetStat:
 396              	.LFB66:
 105:soft_uart.c   **** 
 106:soft_uart.c   **** int SU_GetStat( SOFT_UART_STRUCT *s)
ARM GAS  C:\Users\Rajesh\AppData\Local\Temp\cc31OThw.s 			page 10


 107:soft_uart.c   **** {
 397              		.loc 1 107 0
 398              		.cfi_startproc
 399              		@ args = 0, pretend = 0, frame = 8
 400              		@ frame_needed = 1, uses_anonymous_args = 0
 401              		@ link register save eliminated.
 402 0000 80B4     		push	{r7}
 403              		.cfi_def_cfa_offset 4
 404              		.cfi_offset 7, -4
 405 0002 83B0     		sub	sp, sp, #12
 406              		.cfi_def_cfa_offset 16
 407 0004 00AF     		add	r7, sp, #0
 408              		.cfi_def_cfa_register 7
 409 0006 7860     		str	r0, [r7, #4]
 108:soft_uart.c   **** 	return s->flags;
 410              		.loc 1 108 0
 411 0008 7B68     		ldr	r3, [r7, #4]
 412 000a 9B69     		ldr	r3, [r3, #24]
 109:soft_uart.c   **** }
 413              		.loc 1 109 0
 414 000c 1846     		mov	r0, r3
 415 000e 0C37     		adds	r7, r7, #12
 416              		.cfi_def_cfa_offset 4
 417 0010 BD46     		mov	sp, r7
 418              		.cfi_def_cfa_register 13
 419              		@ sp needed
 420 0012 80BC     		pop	{r7}
 421              		.cfi_restore 7
 422              		.cfi_def_cfa_offset 0
 423 0014 7047     		bx	lr
 424              		.cfi_endproc
 425              	.LFE66:
 426              		.size	SU_GetStat, .-SU_GetStat
 427 0016 00BF     		.section	.text.SU_GetChar,"ax",%progbits
 428              		.align	2
 429              		.global	SU_GetChar
 430              		.thumb
 431              		.thumb_func
 432              		.type	SU_GetChar, %function
 433              	SU_GetChar:
 434              	.LFB67:
 110:soft_uart.c   **** 
 111:soft_uart.c   **** int SU_GetChar( SOFT_UART_STRUCT *s)
 112:soft_uart.c   **** {
 435              		.loc 1 112 0
 436              		.cfi_startproc
 437              		@ args = 0, pretend = 0, frame = 16
 438              		@ frame_needed = 1, uses_anonymous_args = 0
 439              		@ link register save eliminated.
 440 0000 80B4     		push	{r7}
 441              		.cfi_def_cfa_offset 4
 442              		.cfi_offset 7, -4
 443 0002 85B0     		sub	sp, sp, #20
 444              		.cfi_def_cfa_offset 24
 445 0004 00AF     		add	r7, sp, #0
 446              		.cfi_def_cfa_register 7
 447 0006 7860     		str	r0, [r7, #4]
ARM GAS  C:\Users\Rajesh\AppData\Local\Temp\cc31OThw.s 			page 11


 113:soft_uart.c   **** 	uint8 b;
 114:soft_uart.c   **** 	b = s->rx_recv;
 448              		.loc 1 114 0
 449 0008 7B68     		ldr	r3, [r7, #4]
 450 000a 5B6A     		ldr	r3, [r3, #36]
 451 000c FB73     		strb	r3, [r7, #15]
 115:soft_uart.c   **** 	CyGlobalIntDisable;
 452              		.loc 1 115 0
 453              		.syntax unified
 454              	@ 115 "soft_uart.c" 1
 455 000e 72B6     		CPSID   i
 456              	@ 0 "" 2
 116:soft_uart.c   **** 	s->flags &=~RX_BYTE_READY;
 457              		.loc 1 116 0
 458              		.thumb
 459              		.syntax unified
 460 0010 7B68     		ldr	r3, [r7, #4]
 461 0012 9B69     		ldr	r3, [r3, #24]
 462 0014 23F00102 		bic	r2, r3, #1
 463 0018 7B68     		ldr	r3, [r7, #4]
 464 001a 9A61     		str	r2, [r3, #24]
 117:soft_uart.c   **** 	CyGlobalIntEnable;
 465              		.loc 1 117 0
 466              		.syntax unified
 467              	@ 117 "soft_uart.c" 1
 468 001c 62B6     		CPSIE   i
 469              	@ 0 "" 2
 118:soft_uart.c   **** 	return b;
 470              		.loc 1 118 0
 471              		.thumb
 472              		.syntax unified
 473 001e FB7B     		ldrb	r3, [r7, #15]	@ zero_extendqisi2
 119:soft_uart.c   **** }
 474              		.loc 1 119 0
 475 0020 1846     		mov	r0, r3
 476 0022 1437     		adds	r7, r7, #20
 477              		.cfi_def_cfa_offset 4
 478 0024 BD46     		mov	sp, r7
 479              		.cfi_def_cfa_register 13
 480              		@ sp needed
 481 0026 80BC     		pop	{r7}
 482              		.cfi_restore 7
 483              		.cfi_def_cfa_offset 0
 484 0028 7047     		bx	lr
 485              		.cfi_endproc
 486              	.LFE67:
 487              		.size	SU_GetChar, .-SU_GetChar
 488 002a 00BF     		.section	.text.SU_PutChar,"ax",%progbits
 489              		.align	2
 490              		.global	SU_PutChar
 491              		.thumb
 492              		.thumb_func
 493              		.type	SU_PutChar, %function
 494              	SU_PutChar:
 495              	.LFB68:
 120:soft_uart.c   **** 
 121:soft_uart.c   **** void SU_PutChar( SOFT_UART_STRUCT *s, int c)
ARM GAS  C:\Users\Rajesh\AppData\Local\Temp\cc31OThw.s 			page 12


 122:soft_uart.c   **** {
 496              		.loc 1 122 0
 497              		.cfi_startproc
 498              		@ args = 0, pretend = 0, frame = 16
 499              		@ frame_needed = 1, uses_anonymous_args = 0
 500 0000 80B5     		push	{r7, lr}
 501              		.cfi_def_cfa_offset 8
 502              		.cfi_offset 7, -8
 503              		.cfi_offset 14, -4
 504 0002 84B0     		sub	sp, sp, #16
 505              		.cfi_def_cfa_offset 24
 506 0004 00AF     		add	r7, sp, #0
 507              		.cfi_def_cfa_register 7
 508 0006 7860     		str	r0, [r7, #4]
 509 0008 3960     		str	r1, [r7]
 123:soft_uart.c   **** 	unsigned short data_tosend;
 124:soft_uart.c   **** 	int parity = 0;
 510              		.loc 1 124 0
 511 000a 0023     		movs	r3, #0
 512 000c BB60     		str	r3, [r7, #8]
 125:soft_uart.c   **** 	data_tosend = (c<<1) | START_BIT;
 513              		.loc 1 125 0
 514 000e 3B68     		ldr	r3, [r7]
 515 0010 9BB2     		uxth	r3, r3
 516 0012 5B00     		lsls	r3, r3, #1
 517 0014 FB81     		strh	r3, [r7, #14]	@ movhi
 126:soft_uart.c   **** 	if (s->parity==PARITY_ODD)
 518              		.loc 1 126 0
 519 0016 7B68     		ldr	r3, [r7, #4]
 520 0018 5B68     		ldr	r3, [r3, #4]
 521 001a 012B     		cmp	r3, #1
 522 001c 1ED1     		bne	.L22
 127:soft_uart.c   **** 	  {
 128:soft_uart.c   ****         parity = getOddParity(c);
 523              		.loc 1 128 0
 524 001e 3B68     		ldr	r3, [r7]
 525 0020 DBB2     		uxtb	r3, r3
 526 0022 1846     		mov	r0, r3
 527 0024 FFF7FEFF 		bl	getOddParity
 528 0028 0346     		mov	r3, r0
 529 002a BB60     		str	r3, [r7, #8]
 129:soft_uart.c   **** 		data_tosend |= parity ? (0x300 << s->stop_bits) : (0x200 << s->stop_bits);
 530              		.loc 1 129 0
 531 002c BB68     		ldr	r3, [r7, #8]
 532 002e 002B     		cmp	r3, #0
 533 0030 07D0     		beq	.L23
 534              		.loc 1 129 0 is_stmt 0 discriminator 1
 535 0032 7B68     		ldr	r3, [r7, #4]
 536 0034 9B68     		ldr	r3, [r3, #8]
 537 0036 4FF44072 		mov	r2, #768
 538 003a 02FA03F3 		lsl	r3, r2, r3
 539 003e 1BB2     		sxth	r3, r3
 540 0040 06E0     		b	.L24
 541              	.L23:
 542              		.loc 1 129 0 discriminator 2
 543 0042 7B68     		ldr	r3, [r7, #4]
 544 0044 9B68     		ldr	r3, [r3, #8]
ARM GAS  C:\Users\Rajesh\AppData\Local\Temp\cc31OThw.s 			page 13


 545 0046 4FF40072 		mov	r2, #512
 546 004a 02FA03F3 		lsl	r3, r2, r3
 547 004e 1BB2     		sxth	r3, r3
 548              	.L24:
 549              		.loc 1 129 0 discriminator 4
 550 0050 B7F90E20 		ldrsh	r2, [r7, #14]
 551 0054 1343     		orrs	r3, r3, r2
 552 0056 1BB2     		sxth	r3, r3
 553 0058 FB81     		strh	r3, [r7, #14]	@ movhi
 554 005a 30E0     		b	.L33
 555              	.L22:
 130:soft_uart.c   **** 	  }
 131:soft_uart.c   **** 	else if (s->parity==PARITY_EVEN)
 556              		.loc 1 131 0 is_stmt 1
 557 005c 7B68     		ldr	r3, [r7, #4]
 558 005e 5B68     		ldr	r3, [r3, #4]
 559 0060 022B     		cmp	r3, #2
 560 0062 1ED1     		bne	.L26
 132:soft_uart.c   **** 	  {
 133:soft_uart.c   ****          parity = getOddParity(c);
 561              		.loc 1 133 0
 562 0064 3B68     		ldr	r3, [r7]
 563 0066 DBB2     		uxtb	r3, r3
 564 0068 1846     		mov	r0, r3
 565 006a FFF7FEFF 		bl	getOddParity
 566 006e 0346     		mov	r3, r0
 567 0070 BB60     		str	r3, [r7, #8]
 134:soft_uart.c   **** 		data_tosend |= parity ?  (0x200 << s->stop_bits) : (0x300 << s->stop_bits);
 568              		.loc 1 134 0
 569 0072 BB68     		ldr	r3, [r7, #8]
 570 0074 002B     		cmp	r3, #0
 571 0076 07D0     		beq	.L27
 572              		.loc 1 134 0 is_stmt 0 discriminator 1
 573 0078 7B68     		ldr	r3, [r7, #4]
 574 007a 9B68     		ldr	r3, [r3, #8]
 575 007c 4FF40072 		mov	r2, #512
 576 0080 02FA03F3 		lsl	r3, r2, r3
 577 0084 1BB2     		sxth	r3, r3
 578 0086 06E0     		b	.L28
 579              	.L27:
 580              		.loc 1 134 0 discriminator 2
 581 0088 7B68     		ldr	r3, [r7, #4]
 582 008a 9B68     		ldr	r3, [r3, #8]
 583 008c 4FF44072 		mov	r2, #768
 584 0090 02FA03F3 		lsl	r3, r2, r3
 585 0094 1BB2     		sxth	r3, r3
 586              	.L28:
 587              		.loc 1 134 0 discriminator 4
 588 0096 B7F90E20 		ldrsh	r2, [r7, #14]
 589 009a 1343     		orrs	r3, r3, r2
 590 009c 1BB2     		sxth	r3, r3
 591 009e FB81     		strh	r3, [r7, #14]	@ movhi
 592 00a0 0DE0     		b	.L33
 593              	.L26:
 135:soft_uart.c   **** 	  }
 136:soft_uart.c   **** 	else
 137:soft_uart.c   **** 		data_tosend |=  1<<(s->bits + s->stop_bits);
ARM GAS  C:\Users\Rajesh\AppData\Local\Temp\cc31OThw.s 			page 14


 594              		.loc 1 137 0 is_stmt 1
 595 00a2 7B68     		ldr	r3, [r7, #4]
 596 00a4 DA68     		ldr	r2, [r3, #12]
 597 00a6 7B68     		ldr	r3, [r7, #4]
 598 00a8 9B68     		ldr	r3, [r3, #8]
 599 00aa 1344     		add	r3, r3, r2
 600 00ac 0122     		movs	r2, #1
 601 00ae 02FA03F3 		lsl	r3, r2, r3
 602 00b2 1AB2     		sxth	r2, r3
 603 00b4 B7F90E30 		ldrsh	r3, [r7, #14]
 604 00b8 1343     		orrs	r3, r3, r2
 605 00ba 1BB2     		sxth	r3, r3
 606 00bc FB81     		strh	r3, [r7, #14]	@ movhi
 607              	.L33:
 138:soft_uart.c   **** 	// wait for it to be ready
 139:soft_uart.c   **** 	while ((s->flags&TX_READY)==0);
 608              		.loc 1 139 0
 609 00be 00BF     		nop
 610              	.L29:
 611              		.loc 1 139 0 is_stmt 0 discriminator 1
 612 00c0 7B68     		ldr	r3, [r7, #4]
 613 00c2 9B69     		ldr	r3, [r3, #24]
 614 00c4 03F00203 		and	r3, r3, #2
 615 00c8 002B     		cmp	r3, #0
 616 00ca F9D0     		beq	.L29
 140:soft_uart.c   **** 
 141:soft_uart.c   **** 	CyGlobalIntDisable;
 617              		.loc 1 141 0 is_stmt 1
 618              		.syntax unified
 619              	@ 141 "soft_uart.c" 1
 620 00cc 72B6     		CPSID   i
 621              	@ 0 "" 2
 142:soft_uart.c   **** 	s->flags &=~TX_READY;
 622              		.loc 1 142 0
 623              		.thumb
 624              		.syntax unified
 625 00ce 7B68     		ldr	r3, [r7, #4]
 626 00d0 9B69     		ldr	r3, [r3, #24]
 627 00d2 23F00202 		bic	r2, r3, #2
 628 00d6 7B68     		ldr	r3, [r7, #4]
 629 00d8 9A61     		str	r2, [r3, #24]
 143:soft_uart.c   **** 	CyGlobalIntEnable;
 630              		.loc 1 143 0
 631              		.syntax unified
 632              	@ 143 "soft_uart.c" 1
 633 00da 62B6     		CPSIE   i
 634              	@ 0 "" 2
 144:soft_uart.c   **** 	s->tx_byte = data_tosend;
 635              		.loc 1 144 0
 636              		.thumb
 637              		.syntax unified
 638 00dc 7B68     		ldr	r3, [r7, #4]
 639 00de FA89     		ldrh	r2, [r7, #14]	@ movhi
 640 00e0 5A82     		strh	r2, [r3, #18]	@ movhi
 145:soft_uart.c   **** 	s->timer_tx_ctr = 3;
 641              		.loc 1 145 0
 642 00e2 7B68     		ldr	r3, [r7, #4]
ARM GAS  C:\Users\Rajesh\AppData\Local\Temp\cc31OThw.s 			page 15


 643 00e4 0322     		movs	r2, #3
 644 00e6 DA61     		str	r2, [r3, #28]
 146:soft_uart.c   ****     if(s->parity != PARITY_NONE)
 645              		.loc 1 146 0
 646 00e8 7B68     		ldr	r3, [r7, #4]
 647 00ea 5B68     		ldr	r3, [r3, #4]
 648 00ec 002B     		cmp	r3, #0
 649 00ee 0CD0     		beq	.L30
 147:soft_uart.c   ****     	s->tx_bits = s->bits+s->stop_bits+ 2;
 650              		.loc 1 147 0
 651 00f0 7B68     		ldr	r3, [r7, #4]
 652 00f2 DB68     		ldr	r3, [r3, #12]
 653 00f4 9AB2     		uxth	r2, r3
 654 00f6 7B68     		ldr	r3, [r7, #4]
 655 00f8 9B68     		ldr	r3, [r3, #8]
 656 00fa 9BB2     		uxth	r3, r3
 657 00fc 1344     		add	r3, r3, r2
 658 00fe 9BB2     		uxth	r3, r3
 659 0100 0233     		adds	r3, r3, #2
 660 0102 9AB2     		uxth	r2, r3
 661 0104 7B68     		ldr	r3, [r7, #4]
 662 0106 9A82     		strh	r2, [r3, #20]	@ movhi
 148:soft_uart.c   ****     else
 149:soft_uart.c   ****     	s->tx_bits = s->bits+s->stop_bits+ 1;
 150:soft_uart.c   **** 	
 151:soft_uart.c   **** }
 663              		.loc 1 151 0
 664 0108 0BE0     		b	.L32
 665              	.L30:
 149:soft_uart.c   **** 	
 666              		.loc 1 149 0
 667 010a 7B68     		ldr	r3, [r7, #4]
 668 010c DB68     		ldr	r3, [r3, #12]
 669 010e 9AB2     		uxth	r2, r3
 670 0110 7B68     		ldr	r3, [r7, #4]
 671 0112 9B68     		ldr	r3, [r3, #8]
 672 0114 9BB2     		uxth	r3, r3
 673 0116 1344     		add	r3, r3, r2
 674 0118 9BB2     		uxth	r3, r3
 675 011a 0133     		adds	r3, r3, #1
 676 011c 9AB2     		uxth	r2, r3
 677 011e 7B68     		ldr	r3, [r7, #4]
 678 0120 9A82     		strh	r2, [r3, #20]	@ movhi
 679              	.L32:
 680              		.loc 1 151 0
 681 0122 00BF     		nop
 682 0124 1037     		adds	r7, r7, #16
 683              		.cfi_def_cfa_offset 8
 684 0126 BD46     		mov	sp, r7
 685              		.cfi_def_cfa_register 13
 686              		@ sp needed
 687 0128 80BD     		pop	{r7, pc}
 688              		.cfi_endproc
 689              	.LFE68:
 690              		.size	SU_PutChar, .-SU_PutChar
 691 012a 00BF     		.text
 692              	.Letext0:
ARM GAS  C:\Users\Rajesh\AppData\Local\Temp\cc31OThw.s 			page 16


 693              		.file 2 "c:\\program files (x86)\\cypress\\psoc creator\\4.2\\psoc creator\\import\\gnu\\arm\\5.4.
 694              		.file 3 "c:\\program files (x86)\\cypress\\psoc creator\\4.2\\psoc creator\\import\\gnu\\arm\\5.4.
 695              		.file 4 "Generated_Source\\PSoC5/cytypes.h"
 696              		.file 5 "softuart.h"
 697              		.file 6 "Generated_Source\\PSoC5/core_cm3.h"
 698              		.section	.debug_info,"",%progbits
 699              	.Ldebug_info0:
 700 0000 B5020000 		.4byte	0x2b5
 701 0004 0400     		.2byte	0x4
 702 0006 00000000 		.4byte	.Ldebug_abbrev0
 703 000a 04       		.byte	0x4
 704 000b 01       		.uleb128 0x1
 705 000c 08000000 		.4byte	.LASF38
 706 0010 0C       		.byte	0xc
 707 0011 46010000 		.4byte	.LASF39
 708 0015 E9000000 		.4byte	.LASF40
 709 0019 00000000 		.4byte	.Ldebug_ranges0+0
 710 001d 00000000 		.4byte	0
 711 0021 00000000 		.4byte	.Ldebug_line0
 712 0025 02       		.uleb128 0x2
 713 0026 01       		.byte	0x1
 714 0027 06       		.byte	0x6
 715 0028 39020000 		.4byte	.LASF0
 716 002c 02       		.uleb128 0x2
 717 002d 01       		.byte	0x1
 718 002e 08       		.byte	0x8
 719 002f D0000000 		.4byte	.LASF1
 720 0033 02       		.uleb128 0x2
 721 0034 02       		.byte	0x2
 722 0035 05       		.byte	0x5
 723 0036 03020000 		.4byte	.LASF2
 724 003a 02       		.uleb128 0x2
 725 003b 02       		.byte	0x2
 726 003c 07       		.byte	0x7
 727 003d 27010000 		.4byte	.LASF3
 728 0041 03       		.uleb128 0x3
 729 0042 B1000000 		.4byte	.LASF9
 730 0046 02       		.byte	0x2
 731 0047 3F       		.byte	0x3f
 732 0048 4C000000 		.4byte	0x4c
 733 004c 02       		.uleb128 0x2
 734 004d 04       		.byte	0x4
 735 004e 05       		.byte	0x5
 736 004f 13020000 		.4byte	.LASF4
 737 0053 02       		.uleb128 0x2
 738 0054 04       		.byte	0x4
 739 0055 07       		.byte	0x7
 740 0056 15010000 		.4byte	.LASF5
 741 005a 02       		.uleb128 0x2
 742 005b 08       		.byte	0x8
 743 005c 05       		.byte	0x5
 744 005d D5010000 		.4byte	.LASF6
 745 0061 02       		.uleb128 0x2
 746 0062 08       		.byte	0x8
 747 0063 07       		.byte	0x7
 748 0064 8C010000 		.4byte	.LASF7
 749 0068 04       		.uleb128 0x4
ARM GAS  C:\Users\Rajesh\AppData\Local\Temp\cc31OThw.s 			page 17


 750 0069 04       		.byte	0x4
 751 006a 05       		.byte	0x5
 752 006b 696E7400 		.ascii	"int\000"
 753 006f 02       		.uleb128 0x2
 754 0070 04       		.byte	0x4
 755 0071 07       		.byte	0x7
 756 0072 79010000 		.4byte	.LASF8
 757 0076 03       		.uleb128 0x3
 758 0077 BB010000 		.4byte	.LASF10
 759 007b 03       		.byte	0x3
 760 007c 2C       		.byte	0x2c
 761 007d 41000000 		.4byte	0x41
 762 0081 05       		.uleb128 0x5
 763 0082 0D020000 		.4byte	.LASF11
 764 0086 04       		.byte	0x4
 765 0087 9201     		.2byte	0x192
 766 0089 2C000000 		.4byte	0x2c
 767 008d 02       		.uleb128 0x2
 768 008e 04       		.byte	0x4
 769 008f 04       		.byte	0x4
 770 0090 CA000000 		.4byte	.LASF12
 771 0094 02       		.uleb128 0x2
 772 0095 08       		.byte	0x8
 773 0096 04       		.byte	0x4
 774 0097 3F010000 		.4byte	.LASF13
 775 009b 02       		.uleb128 0x2
 776 009c 01       		.byte	0x1
 777 009d 08       		.byte	0x8
 778 009e 1C020000 		.4byte	.LASF14
 779 00a2 02       		.uleb128 0x2
 780 00a3 08       		.byte	0x8
 781 00a4 04       		.byte	0x4
 782 00a5 2D020000 		.4byte	.LASF15
 783 00a9 02       		.uleb128 0x2
 784 00aa 04       		.byte	0x4
 785 00ab 07       		.byte	0x7
 786 00ac C3010000 		.4byte	.LASF16
 787 00b0 06       		.uleb128 0x6
 788 00b1 28       		.byte	0x28
 789 00b2 05       		.byte	0x5
 790 00b3 0D       		.byte	0xd
 791 00b4 49010000 		.4byte	0x149
 792 00b8 07       		.uleb128 0x7
 793 00b9 B6010000 		.4byte	.LASF17
 794 00bd 05       		.byte	0x5
 795 00be 0F       		.byte	0xf
 796 00bf 68000000 		.4byte	0x68
 797 00c3 00       		.byte	0
 798 00c4 07       		.uleb128 0x7
 799 00c5 45020000 		.4byte	.LASF18
 800 00c9 05       		.byte	0x5
 801 00ca 10       		.byte	0x10
 802 00cb 68000000 		.4byte	0x68
 803 00cf 04       		.byte	0x4
 804 00d0 07       		.uleb128 0x7
 805 00d1 A7000000 		.4byte	.LASF19
 806 00d5 05       		.byte	0x5
ARM GAS  C:\Users\Rajesh\AppData\Local\Temp\cc31OThw.s 			page 18


 807 00d6 11       		.byte	0x11
 808 00d7 68000000 		.4byte	0x68
 809 00db 08       		.byte	0x8
 810 00dc 07       		.uleb128 0x7
 811 00dd F6010000 		.4byte	.LASF20
 812 00e1 05       		.byte	0x5
 813 00e2 12       		.byte	0x12
 814 00e3 68000000 		.4byte	0x68
 815 00e7 0C       		.byte	0xc
 816 00e8 07       		.uleb128 0x7
 817 00e9 00000000 		.4byte	.LASF21
 818 00ed 05       		.byte	0x5
 819 00ee 13       		.byte	0x13
 820 00ef 3A000000 		.4byte	0x3a
 821 00f3 10       		.byte	0x10
 822 00f4 07       		.uleb128 0x7
 823 00f5 C2000000 		.4byte	.LASF22
 824 00f9 05       		.byte	0x5
 825 00fa 14       		.byte	0x14
 826 00fb 49010000 		.4byte	0x149
 827 00ff 12       		.byte	0x12
 828 0100 07       		.uleb128 0x7
 829 0101 EE010000 		.4byte	.LASF23
 830 0105 05       		.byte	0x5
 831 0106 15       		.byte	0x15
 832 0107 49010000 		.4byte	0x149
 833 010b 14       		.byte	0x14
 834 010c 07       		.uleb128 0x7
 835 010d FB010000 		.4byte	.LASF24
 836 0111 05       		.byte	0x5
 837 0112 16       		.byte	0x16
 838 0113 3A000000 		.4byte	0x3a
 839 0117 16       		.byte	0x16
 840 0118 07       		.uleb128 0x7
 841 0119 86010000 		.4byte	.LASF25
 842 011d 05       		.byte	0x5
 843 011e 17       		.byte	0x17
 844 011f 4E010000 		.4byte	0x14e
 845 0123 18       		.byte	0x18
 846 0124 07       		.uleb128 0x7
 847 0125 6C010000 		.4byte	.LASF26
 848 0129 05       		.byte	0x5
 849 012a 18       		.byte	0x18
 850 012b 4E010000 		.4byte	0x14e
 851 012f 1C       		.byte	0x1c
 852 0130 07       		.uleb128 0x7
 853 0131 4C020000 		.4byte	.LASF27
 854 0135 05       		.byte	0x5
 855 0136 19       		.byte	0x19
 856 0137 4E010000 		.4byte	0x14e
 857 013b 20       		.byte	0x20
 858 013c 07       		.uleb128 0x7
 859 013d AE010000 		.4byte	.LASF28
 860 0141 05       		.byte	0x5
 861 0142 1A       		.byte	0x1a
 862 0143 4E010000 		.4byte	0x14e
 863 0147 24       		.byte	0x24
ARM GAS  C:\Users\Rajesh\AppData\Local\Temp\cc31OThw.s 			page 19


 864 0148 00       		.byte	0
 865 0149 08       		.uleb128 0x8
 866 014a 3A000000 		.4byte	0x3a
 867 014e 08       		.uleb128 0x8
 868 014f 68000000 		.4byte	0x68
 869 0153 03       		.uleb128 0x3
 870 0154 96000000 		.4byte	.LASF29
 871 0158 05       		.byte	0x5
 872 0159 1B       		.byte	0x1b
 873 015a B0000000 		.4byte	0xb0
 874 015e 09       		.uleb128 0x9
 875 015f CC010000 		.4byte	.LASF31
 876 0163 01       		.byte	0x1
 877 0164 12       		.byte	0x12
 878 0165 00000000 		.4byte	.LFB63
 879 0169 4E000000 		.4byte	.LFE63-.LFB63
 880 016d 01       		.uleb128 0x1
 881 016e 9C       		.byte	0x9c
 882 016f AA010000 		.4byte	0x1aa
 883 0173 0A       		.uleb128 0xa
 884 0174 7300     		.ascii	"s\000"
 885 0176 01       		.byte	0x1
 886 0177 12       		.byte	0x12
 887 0178 AA010000 		.4byte	0x1aa
 888 017c 02       		.uleb128 0x2
 889 017d 91       		.byte	0x91
 890 017e 74       		.sleb128 -12
 891 017f 0B       		.uleb128 0xb
 892 0180 B6010000 		.4byte	.LASF17
 893 0184 01       		.byte	0x1
 894 0185 12       		.byte	0x12
 895 0186 68000000 		.4byte	0x68
 896 018a 02       		.uleb128 0x2
 897 018b 91       		.byte	0x91
 898 018c 70       		.sleb128 -16
 899 018d 0B       		.uleb128 0xb
 900 018e 45020000 		.4byte	.LASF18
 901 0192 01       		.byte	0x1
 902 0193 12       		.byte	0x12
 903 0194 68000000 		.4byte	0x68
 904 0198 02       		.uleb128 0x2
 905 0199 91       		.byte	0x91
 906 019a 6C       		.sleb128 -20
 907 019b 0B       		.uleb128 0xb
 908 019c 3A010000 		.4byte	.LASF30
 909 01a0 01       		.byte	0x1
 910 01a1 12       		.byte	0x12
 911 01a2 68000000 		.4byte	0x68
 912 01a6 02       		.uleb128 0x2
 913 01a7 91       		.byte	0x91
 914 01a8 68       		.sleb128 -24
 915 01a9 00       		.byte	0
 916 01aa 0C       		.uleb128 0xc
 917 01ab 04       		.byte	0x4
 918 01ac 53010000 		.4byte	0x153
 919 01b0 0D       		.uleb128 0xd
 920 01b1 BB000000 		.4byte	.LASF32
ARM GAS  C:\Users\Rajesh\AppData\Local\Temp\cc31OThw.s 			page 20


 921 01b5 01       		.byte	0x1
 922 01b6 22       		.byte	0x22
 923 01b7 00000000 		.4byte	.LFB64
 924 01bb 62010000 		.4byte	.LFE64-.LFB64
 925 01bf 01       		.uleb128 0x1
 926 01c0 9C       		.byte	0x9c
 927 01c1 DF010000 		.4byte	0x1df
 928 01c5 0A       		.uleb128 0xa
 929 01c6 7300     		.ascii	"s\000"
 930 01c8 01       		.byte	0x1
 931 01c9 22       		.byte	0x22
 932 01ca AA010000 		.4byte	0x1aa
 933 01ce 02       		.uleb128 0x2
 934 01cf 91       		.byte	0x91
 935 01d0 6C       		.sleb128 -20
 936 01d1 0E       		.uleb128 0xe
 937 01d2 726200   		.ascii	"rb\000"
 938 01d5 01       		.byte	0x1
 939 01d6 24       		.byte	0x24
 940 01d7 81000000 		.4byte	0x81
 941 01db 02       		.uleb128 0x2
 942 01dc 91       		.byte	0x91
 943 01dd 77       		.sleb128 -9
 944 01de 00       		.byte	0
 945 01df 0F       		.uleb128 0xf
 946 01e0 52010000 		.4byte	.LASF33
 947 01e4 01       		.byte	0x1
 948 01e5 62       		.byte	0x62
 949 01e6 2C000000 		.4byte	0x2c
 950 01ea 00000000 		.4byte	.LFB65
 951 01ee 50000000 		.4byte	.LFE65-.LFB65
 952 01f2 01       		.uleb128 0x1
 953 01f3 9C       		.byte	0x9c
 954 01f4 05020000 		.4byte	0x205
 955 01f8 0A       		.uleb128 0xa
 956 01f9 7000     		.ascii	"p\000"
 957 01fb 01       		.byte	0x1
 958 01fc 62       		.byte	0x62
 959 01fd 2C000000 		.4byte	0x2c
 960 0201 02       		.uleb128 0x2
 961 0202 91       		.byte	0x91
 962 0203 77       		.sleb128 -9
 963 0204 00       		.byte	0
 964 0205 0F       		.uleb128 0xf
 965 0206 DE000000 		.4byte	.LASF34
 966 020a 01       		.byte	0x1
 967 020b 6A       		.byte	0x6a
 968 020c 68000000 		.4byte	0x68
 969 0210 00000000 		.4byte	.LFB66
 970 0214 16000000 		.4byte	.LFE66-.LFB66
 971 0218 01       		.uleb128 0x1
 972 0219 9C       		.byte	0x9c
 973 021a 2B020000 		.4byte	0x22b
 974 021e 0A       		.uleb128 0xa
 975 021f 7300     		.ascii	"s\000"
 976 0221 01       		.byte	0x1
 977 0222 6A       		.byte	0x6a
ARM GAS  C:\Users\Rajesh\AppData\Local\Temp\cc31OThw.s 			page 21


 978 0223 AA010000 		.4byte	0x1aa
 979 0227 02       		.uleb128 0x2
 980 0228 91       		.byte	0x91
 981 0229 74       		.sleb128 -12
 982 022a 00       		.byte	0
 983 022b 0F       		.uleb128 0xf
 984 022c E3010000 		.4byte	.LASF35
 985 0230 01       		.byte	0x1
 986 0231 6F       		.byte	0x6f
 987 0232 68000000 		.4byte	0x68
 988 0236 00000000 		.4byte	.LFB67
 989 023a 2A000000 		.4byte	.LFE67-.LFB67
 990 023e 01       		.uleb128 0x1
 991 023f 9C       		.byte	0x9c
 992 0240 5D020000 		.4byte	0x25d
 993 0244 0A       		.uleb128 0xa
 994 0245 7300     		.ascii	"s\000"
 995 0247 01       		.byte	0x1
 996 0248 6F       		.byte	0x6f
 997 0249 AA010000 		.4byte	0x1aa
 998 024d 02       		.uleb128 0x2
 999 024e 91       		.byte	0x91
 1000 024f 6C       		.sleb128 -20
 1001 0250 0E       		.uleb128 0xe
 1002 0251 6200     		.ascii	"b\000"
 1003 0253 01       		.byte	0x1
 1004 0254 71       		.byte	0x71
 1005 0255 81000000 		.4byte	0x81
 1006 0259 02       		.uleb128 0x2
 1007 025a 91       		.byte	0x91
 1008 025b 77       		.sleb128 -9
 1009 025c 00       		.byte	0
 1010 025d 0D       		.uleb128 0xd
 1011 025e A3010000 		.4byte	.LASF36
 1012 0262 01       		.byte	0x1
 1013 0263 79       		.byte	0x79
 1014 0264 00000000 		.4byte	.LFB68
 1015 0268 2A010000 		.4byte	.LFE68-.LFB68
 1016 026c 01       		.uleb128 0x1
 1017 026d 9C       		.byte	0x9c
 1018 026e A7020000 		.4byte	0x2a7
 1019 0272 0A       		.uleb128 0xa
 1020 0273 7300     		.ascii	"s\000"
 1021 0275 01       		.byte	0x1
 1022 0276 79       		.byte	0x79
 1023 0277 AA010000 		.4byte	0x1aa
 1024 027b 02       		.uleb128 0x2
 1025 027c 91       		.byte	0x91
 1026 027d 6C       		.sleb128 -20
 1027 027e 0A       		.uleb128 0xa
 1028 027f 6300     		.ascii	"c\000"
 1029 0281 01       		.byte	0x1
 1030 0282 79       		.byte	0x79
 1031 0283 68000000 		.4byte	0x68
 1032 0287 02       		.uleb128 0x2
 1033 0288 91       		.byte	0x91
 1034 0289 68       		.sleb128 -24
ARM GAS  C:\Users\Rajesh\AppData\Local\Temp\cc31OThw.s 			page 22


 1035 028a 10       		.uleb128 0x10
 1036 028b 21020000 		.4byte	.LASF37
 1037 028f 01       		.byte	0x1
 1038 0290 7B       		.byte	0x7b
 1039 0291 3A000000 		.4byte	0x3a
 1040 0295 02       		.uleb128 0x2
 1041 0296 91       		.byte	0x91
 1042 0297 76       		.sleb128 -10
 1043 0298 10       		.uleb128 0x10
 1044 0299 45020000 		.4byte	.LASF18
 1045 029d 01       		.byte	0x1
 1046 029e 7C       		.byte	0x7c
 1047 029f 68000000 		.4byte	0x68
 1048 02a3 02       		.uleb128 0x2
 1049 02a4 91       		.byte	0x91
 1050 02a5 70       		.sleb128 -16
 1051 02a6 00       		.byte	0
 1052 02a7 11       		.uleb128 0x11
 1053 02a8 5F010000 		.4byte	.LASF41
 1054 02ac 06       		.byte	0x6
 1055 02ad 1207     		.2byte	0x712
 1056 02af B3020000 		.4byte	0x2b3
 1057 02b3 08       		.uleb128 0x8
 1058 02b4 76000000 		.4byte	0x76
 1059 02b8 00       		.byte	0
 1060              		.section	.debug_abbrev,"",%progbits
 1061              	.Ldebug_abbrev0:
 1062 0000 01       		.uleb128 0x1
 1063 0001 11       		.uleb128 0x11
 1064 0002 01       		.byte	0x1
 1065 0003 25       		.uleb128 0x25
 1066 0004 0E       		.uleb128 0xe
 1067 0005 13       		.uleb128 0x13
 1068 0006 0B       		.uleb128 0xb
 1069 0007 03       		.uleb128 0x3
 1070 0008 0E       		.uleb128 0xe
 1071 0009 1B       		.uleb128 0x1b
 1072 000a 0E       		.uleb128 0xe
 1073 000b 55       		.uleb128 0x55
 1074 000c 17       		.uleb128 0x17
 1075 000d 11       		.uleb128 0x11
 1076 000e 01       		.uleb128 0x1
 1077 000f 10       		.uleb128 0x10
 1078 0010 17       		.uleb128 0x17
 1079 0011 00       		.byte	0
 1080 0012 00       		.byte	0
 1081 0013 02       		.uleb128 0x2
 1082 0014 24       		.uleb128 0x24
 1083 0015 00       		.byte	0
 1084 0016 0B       		.uleb128 0xb
 1085 0017 0B       		.uleb128 0xb
 1086 0018 3E       		.uleb128 0x3e
 1087 0019 0B       		.uleb128 0xb
 1088 001a 03       		.uleb128 0x3
 1089 001b 0E       		.uleb128 0xe
 1090 001c 00       		.byte	0
 1091 001d 00       		.byte	0
ARM GAS  C:\Users\Rajesh\AppData\Local\Temp\cc31OThw.s 			page 23


 1092 001e 03       		.uleb128 0x3
 1093 001f 16       		.uleb128 0x16
 1094 0020 00       		.byte	0
 1095 0021 03       		.uleb128 0x3
 1096 0022 0E       		.uleb128 0xe
 1097 0023 3A       		.uleb128 0x3a
 1098 0024 0B       		.uleb128 0xb
 1099 0025 3B       		.uleb128 0x3b
 1100 0026 0B       		.uleb128 0xb
 1101 0027 49       		.uleb128 0x49
 1102 0028 13       		.uleb128 0x13
 1103 0029 00       		.byte	0
 1104 002a 00       		.byte	0
 1105 002b 04       		.uleb128 0x4
 1106 002c 24       		.uleb128 0x24
 1107 002d 00       		.byte	0
 1108 002e 0B       		.uleb128 0xb
 1109 002f 0B       		.uleb128 0xb
 1110 0030 3E       		.uleb128 0x3e
 1111 0031 0B       		.uleb128 0xb
 1112 0032 03       		.uleb128 0x3
 1113 0033 08       		.uleb128 0x8
 1114 0034 00       		.byte	0
 1115 0035 00       		.byte	0
 1116 0036 05       		.uleb128 0x5
 1117 0037 16       		.uleb128 0x16
 1118 0038 00       		.byte	0
 1119 0039 03       		.uleb128 0x3
 1120 003a 0E       		.uleb128 0xe
 1121 003b 3A       		.uleb128 0x3a
 1122 003c 0B       		.uleb128 0xb
 1123 003d 3B       		.uleb128 0x3b
 1124 003e 05       		.uleb128 0x5
 1125 003f 49       		.uleb128 0x49
 1126 0040 13       		.uleb128 0x13
 1127 0041 00       		.byte	0
 1128 0042 00       		.byte	0
 1129 0043 06       		.uleb128 0x6
 1130 0044 13       		.uleb128 0x13
 1131 0045 01       		.byte	0x1
 1132 0046 0B       		.uleb128 0xb
 1133 0047 0B       		.uleb128 0xb
 1134 0048 3A       		.uleb128 0x3a
 1135 0049 0B       		.uleb128 0xb
 1136 004a 3B       		.uleb128 0x3b
 1137 004b 0B       		.uleb128 0xb
 1138 004c 01       		.uleb128 0x1
 1139 004d 13       		.uleb128 0x13
 1140 004e 00       		.byte	0
 1141 004f 00       		.byte	0
 1142 0050 07       		.uleb128 0x7
 1143 0051 0D       		.uleb128 0xd
 1144 0052 00       		.byte	0
 1145 0053 03       		.uleb128 0x3
 1146 0054 0E       		.uleb128 0xe
 1147 0055 3A       		.uleb128 0x3a
 1148 0056 0B       		.uleb128 0xb
ARM GAS  C:\Users\Rajesh\AppData\Local\Temp\cc31OThw.s 			page 24


 1149 0057 3B       		.uleb128 0x3b
 1150 0058 0B       		.uleb128 0xb
 1151 0059 49       		.uleb128 0x49
 1152 005a 13       		.uleb128 0x13
 1153 005b 38       		.uleb128 0x38
 1154 005c 0B       		.uleb128 0xb
 1155 005d 00       		.byte	0
 1156 005e 00       		.byte	0
 1157 005f 08       		.uleb128 0x8
 1158 0060 35       		.uleb128 0x35
 1159 0061 00       		.byte	0
 1160 0062 49       		.uleb128 0x49
 1161 0063 13       		.uleb128 0x13
 1162 0064 00       		.byte	0
 1163 0065 00       		.byte	0
 1164 0066 09       		.uleb128 0x9
 1165 0067 2E       		.uleb128 0x2e
 1166 0068 01       		.byte	0x1
 1167 0069 3F       		.uleb128 0x3f
 1168 006a 19       		.uleb128 0x19
 1169 006b 03       		.uleb128 0x3
 1170 006c 0E       		.uleb128 0xe
 1171 006d 3A       		.uleb128 0x3a
 1172 006e 0B       		.uleb128 0xb
 1173 006f 3B       		.uleb128 0x3b
 1174 0070 0B       		.uleb128 0xb
 1175 0071 27       		.uleb128 0x27
 1176 0072 19       		.uleb128 0x19
 1177 0073 11       		.uleb128 0x11
 1178 0074 01       		.uleb128 0x1
 1179 0075 12       		.uleb128 0x12
 1180 0076 06       		.uleb128 0x6
 1181 0077 40       		.uleb128 0x40
 1182 0078 18       		.uleb128 0x18
 1183 0079 9742     		.uleb128 0x2117
 1184 007b 19       		.uleb128 0x19
 1185 007c 01       		.uleb128 0x1
 1186 007d 13       		.uleb128 0x13
 1187 007e 00       		.byte	0
 1188 007f 00       		.byte	0
 1189 0080 0A       		.uleb128 0xa
 1190 0081 05       		.uleb128 0x5
 1191 0082 00       		.byte	0
 1192 0083 03       		.uleb128 0x3
 1193 0084 08       		.uleb128 0x8
 1194 0085 3A       		.uleb128 0x3a
 1195 0086 0B       		.uleb128 0xb
 1196 0087 3B       		.uleb128 0x3b
 1197 0088 0B       		.uleb128 0xb
 1198 0089 49       		.uleb128 0x49
 1199 008a 13       		.uleb128 0x13
 1200 008b 02       		.uleb128 0x2
 1201 008c 18       		.uleb128 0x18
 1202 008d 00       		.byte	0
 1203 008e 00       		.byte	0
 1204 008f 0B       		.uleb128 0xb
 1205 0090 05       		.uleb128 0x5
ARM GAS  C:\Users\Rajesh\AppData\Local\Temp\cc31OThw.s 			page 25


 1206 0091 00       		.byte	0
 1207 0092 03       		.uleb128 0x3
 1208 0093 0E       		.uleb128 0xe
 1209 0094 3A       		.uleb128 0x3a
 1210 0095 0B       		.uleb128 0xb
 1211 0096 3B       		.uleb128 0x3b
 1212 0097 0B       		.uleb128 0xb
 1213 0098 49       		.uleb128 0x49
 1214 0099 13       		.uleb128 0x13
 1215 009a 02       		.uleb128 0x2
 1216 009b 18       		.uleb128 0x18
 1217 009c 00       		.byte	0
 1218 009d 00       		.byte	0
 1219 009e 0C       		.uleb128 0xc
 1220 009f 0F       		.uleb128 0xf
 1221 00a0 00       		.byte	0
 1222 00a1 0B       		.uleb128 0xb
 1223 00a2 0B       		.uleb128 0xb
 1224 00a3 49       		.uleb128 0x49
 1225 00a4 13       		.uleb128 0x13
 1226 00a5 00       		.byte	0
 1227 00a6 00       		.byte	0
 1228 00a7 0D       		.uleb128 0xd
 1229 00a8 2E       		.uleb128 0x2e
 1230 00a9 01       		.byte	0x1
 1231 00aa 3F       		.uleb128 0x3f
 1232 00ab 19       		.uleb128 0x19
 1233 00ac 03       		.uleb128 0x3
 1234 00ad 0E       		.uleb128 0xe
 1235 00ae 3A       		.uleb128 0x3a
 1236 00af 0B       		.uleb128 0xb
 1237 00b0 3B       		.uleb128 0x3b
 1238 00b1 0B       		.uleb128 0xb
 1239 00b2 27       		.uleb128 0x27
 1240 00b3 19       		.uleb128 0x19
 1241 00b4 11       		.uleb128 0x11
 1242 00b5 01       		.uleb128 0x1
 1243 00b6 12       		.uleb128 0x12
 1244 00b7 06       		.uleb128 0x6
 1245 00b8 40       		.uleb128 0x40
 1246 00b9 18       		.uleb128 0x18
 1247 00ba 9642     		.uleb128 0x2116
 1248 00bc 19       		.uleb128 0x19
 1249 00bd 01       		.uleb128 0x1
 1250 00be 13       		.uleb128 0x13
 1251 00bf 00       		.byte	0
 1252 00c0 00       		.byte	0
 1253 00c1 0E       		.uleb128 0xe
 1254 00c2 34       		.uleb128 0x34
 1255 00c3 00       		.byte	0
 1256 00c4 03       		.uleb128 0x3
 1257 00c5 08       		.uleb128 0x8
 1258 00c6 3A       		.uleb128 0x3a
 1259 00c7 0B       		.uleb128 0xb
 1260 00c8 3B       		.uleb128 0x3b
 1261 00c9 0B       		.uleb128 0xb
 1262 00ca 49       		.uleb128 0x49
ARM GAS  C:\Users\Rajesh\AppData\Local\Temp\cc31OThw.s 			page 26


 1263 00cb 13       		.uleb128 0x13
 1264 00cc 02       		.uleb128 0x2
 1265 00cd 18       		.uleb128 0x18
 1266 00ce 00       		.byte	0
 1267 00cf 00       		.byte	0
 1268 00d0 0F       		.uleb128 0xf
 1269 00d1 2E       		.uleb128 0x2e
 1270 00d2 01       		.byte	0x1
 1271 00d3 3F       		.uleb128 0x3f
 1272 00d4 19       		.uleb128 0x19
 1273 00d5 03       		.uleb128 0x3
 1274 00d6 0E       		.uleb128 0xe
 1275 00d7 3A       		.uleb128 0x3a
 1276 00d8 0B       		.uleb128 0xb
 1277 00d9 3B       		.uleb128 0x3b
 1278 00da 0B       		.uleb128 0xb
 1279 00db 27       		.uleb128 0x27
 1280 00dc 19       		.uleb128 0x19
 1281 00dd 49       		.uleb128 0x49
 1282 00de 13       		.uleb128 0x13
 1283 00df 11       		.uleb128 0x11
 1284 00e0 01       		.uleb128 0x1
 1285 00e1 12       		.uleb128 0x12
 1286 00e2 06       		.uleb128 0x6
 1287 00e3 40       		.uleb128 0x40
 1288 00e4 18       		.uleb128 0x18
 1289 00e5 9742     		.uleb128 0x2117
 1290 00e7 19       		.uleb128 0x19
 1291 00e8 01       		.uleb128 0x1
 1292 00e9 13       		.uleb128 0x13
 1293 00ea 00       		.byte	0
 1294 00eb 00       		.byte	0
 1295 00ec 10       		.uleb128 0x10
 1296 00ed 34       		.uleb128 0x34
 1297 00ee 00       		.byte	0
 1298 00ef 03       		.uleb128 0x3
 1299 00f0 0E       		.uleb128 0xe
 1300 00f1 3A       		.uleb128 0x3a
 1301 00f2 0B       		.uleb128 0xb
 1302 00f3 3B       		.uleb128 0x3b
 1303 00f4 0B       		.uleb128 0xb
 1304 00f5 49       		.uleb128 0x49
 1305 00f6 13       		.uleb128 0x13
 1306 00f7 02       		.uleb128 0x2
 1307 00f8 18       		.uleb128 0x18
 1308 00f9 00       		.byte	0
 1309 00fa 00       		.byte	0
 1310 00fb 11       		.uleb128 0x11
 1311 00fc 34       		.uleb128 0x34
 1312 00fd 00       		.byte	0
 1313 00fe 03       		.uleb128 0x3
 1314 00ff 0E       		.uleb128 0xe
 1315 0100 3A       		.uleb128 0x3a
 1316 0101 0B       		.uleb128 0xb
 1317 0102 3B       		.uleb128 0x3b
 1318 0103 05       		.uleb128 0x5
 1319 0104 49       		.uleb128 0x49
ARM GAS  C:\Users\Rajesh\AppData\Local\Temp\cc31OThw.s 			page 27


 1320 0105 13       		.uleb128 0x13
 1321 0106 3F       		.uleb128 0x3f
 1322 0107 19       		.uleb128 0x19
 1323 0108 3C       		.uleb128 0x3c
 1324 0109 19       		.uleb128 0x19
 1325 010a 00       		.byte	0
 1326 010b 00       		.byte	0
 1327 010c 00       		.byte	0
 1328              		.section	.debug_aranges,"",%progbits
 1329 0000 44000000 		.4byte	0x44
 1330 0004 0200     		.2byte	0x2
 1331 0006 00000000 		.4byte	.Ldebug_info0
 1332 000a 04       		.byte	0x4
 1333 000b 00       		.byte	0
 1334 000c 0000     		.2byte	0
 1335 000e 0000     		.2byte	0
 1336 0010 00000000 		.4byte	.LFB63
 1337 0014 4E000000 		.4byte	.LFE63-.LFB63
 1338 0018 00000000 		.4byte	.LFB64
 1339 001c 62010000 		.4byte	.LFE64-.LFB64
 1340 0020 00000000 		.4byte	.LFB65
 1341 0024 50000000 		.4byte	.LFE65-.LFB65
 1342 0028 00000000 		.4byte	.LFB66
 1343 002c 16000000 		.4byte	.LFE66-.LFB66
 1344 0030 00000000 		.4byte	.LFB67
 1345 0034 2A000000 		.4byte	.LFE67-.LFB67
 1346 0038 00000000 		.4byte	.LFB68
 1347 003c 2A010000 		.4byte	.LFE68-.LFB68
 1348 0040 00000000 		.4byte	0
 1349 0044 00000000 		.4byte	0
 1350              		.section	.debug_ranges,"",%progbits
 1351              	.Ldebug_ranges0:
 1352 0000 00000000 		.4byte	.LFB63
 1353 0004 4E000000 		.4byte	.LFE63
 1354 0008 00000000 		.4byte	.LFB64
 1355 000c 62010000 		.4byte	.LFE64
 1356 0010 00000000 		.4byte	.LFB65
 1357 0014 50000000 		.4byte	.LFE65
 1358 0018 00000000 		.4byte	.LFB66
 1359 001c 16000000 		.4byte	.LFE66
 1360 0020 00000000 		.4byte	.LFB67
 1361 0024 2A000000 		.4byte	.LFE67
 1362 0028 00000000 		.4byte	.LFB68
 1363 002c 2A010000 		.4byte	.LFE68
 1364 0030 00000000 		.4byte	0
 1365 0034 00000000 		.4byte	0
 1366              		.section	.debug_line,"",%progbits
 1367              	.Ldebug_line0:
 1368 0000 3D020000 		.section	.debug_str,"MS",%progbits,1
 1368      02005F01 
 1368      00000201 
 1368      FB0E0D00 
 1368      01010101 
 1369              	.LASF21:
 1370 0000 72785F62 		.ascii	"rx_byte\000"
 1370      79746500 
 1371              	.LASF38:
ARM GAS  C:\Users\Rajesh\AppData\Local\Temp\cc31OThw.s 			page 28


 1372 0008 474E5520 		.ascii	"GNU C11 5.4.1 20160609 (release) [ARM/embedded-5-br"
 1372      43313120 
 1372      352E342E 
 1372      31203230 
 1372      31363036 
 1373 003b 616E6368 		.ascii	"anch revision 237715] -mcpu=cortex-m3 -mthumb -g -O"
 1373      20726576 
 1373      6973696F 
 1373      6E203233 
 1373      37373135 
 1374 006e 30202D66 		.ascii	"0 -ffunction-sections -ffat-lto-objects\000"
 1374      66756E63 
 1374      74696F6E 
 1374      2D736563 
 1374      74696F6E 
 1375              	.LASF29:
 1376 0096 534F4654 		.ascii	"SOFT_UART_STRUCT\000"
 1376      5F554152 
 1376      545F5354 
 1376      52554354 
 1376      00
 1377              	.LASF19:
 1378 00a7 73746F70 		.ascii	"stop_bits\000"
 1378      5F626974 
 1378      7300
 1379              	.LASF9:
 1380 00b1 5F5F696E 		.ascii	"__int32_t\000"
 1380      7433325F 
 1380      7400
 1381              	.LASF32:
 1382 00bb 53555F49 		.ascii	"SU_Isr\000"
 1382      737200
 1383              	.LASF22:
 1384 00c2 74785F62 		.ascii	"tx_byte\000"
 1384      79746500 
 1385              	.LASF12:
 1386 00ca 666C6F61 		.ascii	"float\000"
 1386      7400
 1387              	.LASF1:
 1388 00d0 756E7369 		.ascii	"unsigned char\000"
 1388      676E6564 
 1388      20636861 
 1388      7200
 1389              	.LASF34:
 1390 00de 53555F47 		.ascii	"SU_GetStat\000"
 1390      65745374 
 1390      617400
 1391              	.LASF40:
 1392 00e9 443A5C65 		.ascii	"D:\\ext\\psoc_dual\\nanoNxt_ICM3\\ext_pim.cydsn\000"
 1392      78745C70 
 1392      736F635F 
 1392      6475616C 
 1392      5C6E616E 
 1393              	.LASF5:
 1394 0115 6C6F6E67 		.ascii	"long unsigned int\000"
 1394      20756E73 
 1394      69676E65 
ARM GAS  C:\Users\Rajesh\AppData\Local\Temp\cc31OThw.s 			page 29


 1394      6420696E 
 1394      7400
 1395              	.LASF3:
 1396 0127 73686F72 		.ascii	"short unsigned int\000"
 1396      7420756E 
 1396      7369676E 
 1396      65642069 
 1396      6E7400
 1397              	.LASF30:
 1398 013a 73746F70 		.ascii	"stop\000"
 1398      00
 1399              	.LASF13:
 1400 013f 646F7562 		.ascii	"double\000"
 1400      6C6500
 1401              	.LASF39:
 1402 0146 736F6674 		.ascii	"soft_uart.c\000"
 1402      5F756172 
 1402      742E6300 
 1403              	.LASF33:
 1404 0152 6765744F 		.ascii	"getOddParity\000"
 1404      64645061 
 1404      72697479 
 1404      00
 1405              	.LASF41:
 1406 015f 49544D5F 		.ascii	"ITM_RxBuffer\000"
 1406      52784275 
 1406      66666572 
 1406      00
 1407              	.LASF26:
 1408 016c 74696D65 		.ascii	"timer_tx_ctr\000"
 1408      725F7478 
 1408      5F637472 
 1408      00
 1409              	.LASF8:
 1410 0179 756E7369 		.ascii	"unsigned int\000"
 1410      676E6564 
 1410      20696E74 
 1410      00
 1411              	.LASF25:
 1412 0186 666C6167 		.ascii	"flags\000"
 1412      7300
 1413              	.LASF7:
 1414 018c 6C6F6E67 		.ascii	"long long unsigned int\000"
 1414      206C6F6E 
 1414      6720756E 
 1414      7369676E 
 1414      65642069 
 1415              	.LASF36:
 1416 01a3 53555F50 		.ascii	"SU_PutChar\000"
 1416      75744368 
 1416      617200
 1417              	.LASF28:
 1418 01ae 72785F72 		.ascii	"rx_recv\000"
 1418      65637600 
 1419              	.LASF17:
 1420 01b6 62617564 		.ascii	"baud\000"
 1420      00
ARM GAS  C:\Users\Rajesh\AppData\Local\Temp\cc31OThw.s 			page 30


 1421              	.LASF10:
 1422 01bb 696E7433 		.ascii	"int32_t\000"
 1422      325F7400 
 1423              	.LASF16:
 1424 01c3 73697A65 		.ascii	"sizetype\000"
 1424      74797065 
 1424      00
 1425              	.LASF31:
 1426 01cc 53555F53 		.ascii	"SU_Start\000"
 1426      74617274 
 1426      00
 1427              	.LASF6:
 1428 01d5 6C6F6E67 		.ascii	"long long int\000"
 1428      206C6F6E 
 1428      6720696E 
 1428      7400
 1429              	.LASF35:
 1430 01e3 53555F47 		.ascii	"SU_GetChar\000"
 1430      65744368 
 1430      617200
 1431              	.LASF23:
 1432 01ee 74785F62 		.ascii	"tx_bits\000"
 1432      69747300 
 1433              	.LASF20:
 1434 01f6 62697473 		.ascii	"bits\000"
 1434      00
 1435              	.LASF24:
 1436 01fb 72785F62 		.ascii	"rx_bits\000"
 1436      69747300 
 1437              	.LASF2:
 1438 0203 73686F72 		.ascii	"short int\000"
 1438      7420696E 
 1438      7400
 1439              	.LASF11:
 1440 020d 75696E74 		.ascii	"uint8\000"
 1440      3800
 1441              	.LASF4:
 1442 0213 6C6F6E67 		.ascii	"long int\000"
 1442      20696E74 
 1442      00
 1443              	.LASF14:
 1444 021c 63686172 		.ascii	"char\000"
 1444      00
 1445              	.LASF37:
 1446 0221 64617461 		.ascii	"data_tosend\000"
 1446      5F746F73 
 1446      656E6400 
 1447              	.LASF15:
 1448 022d 6C6F6E67 		.ascii	"long double\000"
 1448      20646F75 
 1448      626C6500 
 1449              	.LASF0:
 1450 0239 7369676E 		.ascii	"signed char\000"
 1450      65642063 
 1450      68617200 
 1451              	.LASF18:
 1452 0245 70617269 		.ascii	"parity\000"
ARM GAS  C:\Users\Rajesh\AppData\Local\Temp\cc31OThw.s 			page 31


 1452      747900
 1453              	.LASF27:
 1454 024c 74696D65 		.ascii	"timer_rx_ctr\000"
 1454      725F7278 
 1454      5F637472 
 1454      00
 1455              		.ident	"GCC: (GNU Tools for ARM Embedded Processors) 5.4.1 20160609 (release) [ARM/embedded-5-bran
