ARM GAS  C:\Users\Rajesh\AppData\Local\Temp\cc31OThw.s 			page 1


   1              		.syntax unified
   2              		.cpu cortex-m3
   3              		.fpu softvfp
   4              		.eabi_attribute 20, 1
   5              		.eabi_attribute 21, 1
   6              		.eabi_attribute 23, 3
   7              		.eabi_attribute 24, 1
   8              		.eabi_attribute 25, 1
   9              		.eabi_attribute 26, 1
  10              		.eabi_attribute 30, 6
  11              		.eabi_attribute 34, 1
  12              		.eabi_attribute 18, 4
  13              		.thumb
  14              		.syntax unified
  15              		.file	"soft_uart.c"
  16              		.text
  17              	.Ltext0:
  18              		.cfi_sections	.debug_frame
  19              		.section	.text.SU_Start,"ax",%progbits
  20              		.align	2
  21              		.global	SU_Start
  22              		.thumb
  23              		.thumb_func
  24              		.type	SU_Start, %function
  25              	SU_Start:
  26              	.LFB63:
  27              		.file 1 "soft_uart.c"
   1:soft_uart.c   **** /* ========================================
   2:soft_uart.c   ****  *
   3:soft_uart.c   ****  * Copyright YOUR COMPANY, THE YEAR
   4:soft_uart.c   ****  * All Rights Reserved
   5:soft_uart.c   ****  * UNPUBLISHED, LICENSED SOFTWARE.
   6:soft_uart.c   ****  *
   7:soft_uart.c   ****  * CONFIDENTIAL AND PROPRIETARY INFORMATION
   8:soft_uart.c   ****  * WHICH IS THE PROPERTY OF your company.
   9:soft_uart.c   ****  *
  10:soft_uart.c   ****  * ========================================
  11:soft_uart.c   **** */
  12:soft_uart.c   **** #include <project.h>
  13:soft_uart.c   **** #include "softuart.h"
  14:soft_uart.c   **** 
  15:soft_uart.c   **** 
  16:soft_uart.c   **** 
  17:soft_uart.c   **** 
  18:soft_uart.c   **** void SU_Start(SOFT_UART_STRUCT *s, int baud, int  parity, int stop)
  19:soft_uart.c   **** {
  28              		.loc 1 19 0
  29              		.cfi_startproc
  30              		@ args = 0, pretend = 0, frame = 16
  31              		@ frame_needed = 1, uses_anonymous_args = 0
  32              		@ link register save eliminated.
  33 0000 80B4     		push	{r7}
  34              		.cfi_def_cfa_offset 4
  35              		.cfi_offset 7, -4
  36 0002 85B0     		sub	sp, sp, #20
  37              		.cfi_def_cfa_offset 24
  38 0004 00AF     		add	r7, sp, #0
ARM GAS  C:\Users\Rajesh\AppData\Local\Temp\cc31OThw.s 			page 2


  39              		.cfi_def_cfa_register 7
  40 0006 F860     		str	r0, [r7, #12]
  41 0008 B960     		str	r1, [r7, #8]
  42 000a 7A60     		str	r2, [r7, #4]
  43 000c 3B60     		str	r3, [r7]
  20:soft_uart.c   **** 	s->baud = baud;
  44              		.loc 1 20 0
  45 000e FB68     		ldr	r3, [r7, #12]
  46 0010 BA68     		ldr	r2, [r7, #8]
  47 0012 1A60     		str	r2, [r3]
  21:soft_uart.c   **** 	s->parity = parity;
  48              		.loc 1 21 0
  49 0014 FB68     		ldr	r3, [r7, #12]
  50 0016 7A68     		ldr	r2, [r7, #4]
  51 0018 5A60     		str	r2, [r3, #4]
  22:soft_uart.c   **** 	s->rx_bits = 0;
  52              		.loc 1 22 0
  53 001a FB68     		ldr	r3, [r7, #12]
  54 001c 0022     		movs	r2, #0
  55 001e DA82     		strh	r2, [r3, #22]	@ movhi
  23:soft_uart.c   **** 	s->tx_bits = 0;
  56              		.loc 1 23 0
  57 0020 FB68     		ldr	r3, [r7, #12]
  58 0022 0022     		movs	r2, #0
  59 0024 9A82     		strh	r2, [r3, #20]	@ movhi
  24:soft_uart.c   **** 	s->flags = TX_READY;
  60              		.loc 1 24 0
  61 0026 FB68     		ldr	r3, [r7, #12]
  62 0028 0222     		movs	r2, #2
  63 002a 9A61     		str	r2, [r3, #24]
  25:soft_uart.c   **** 	s->timer_tx_ctr=0;
  64              		.loc 1 25 0
  65 002c FB68     		ldr	r3, [r7, #12]
  66 002e 0022     		movs	r2, #0
  67 0030 DA61     		str	r2, [r3, #28]
  26:soft_uart.c   **** 	s->timer_rx_ctr=0;
  68              		.loc 1 26 0
  69 0032 FB68     		ldr	r3, [r7, #12]
  70 0034 0022     		movs	r2, #0
  71 0036 1A62     		str	r2, [r3, #32]
  27:soft_uart.c   **** 	s->stop_bits =stop;
  72              		.loc 1 27 0
  73 0038 FB68     		ldr	r3, [r7, #12]
  74 003a 3A68     		ldr	r2, [r7]
  75 003c 9A60     		str	r2, [r3, #8]
  28:soft_uart.c   **** 	s->bits=8;
  76              		.loc 1 28 0
  77 003e FB68     		ldr	r3, [r7, #12]
  78 0040 0822     		movs	r2, #8
  79 0042 DA60     		str	r2, [r3, #12]
  29:soft_uart.c   **** 
  30:soft_uart.c   **** }
  80              		.loc 1 30 0
  81 0044 00BF     		nop
  82 0046 1437     		adds	r7, r7, #20
  83              		.cfi_def_cfa_offset 4
  84 0048 BD46     		mov	sp, r7
ARM GAS  C:\Users\Rajesh\AppData\Local\Temp\cc31OThw.s 			page 3


  85              		.cfi_def_cfa_register 13
  86              		@ sp needed
  87 004a 80BC     		pop	{r7}
  88              		.cfi_restore 7
  89              		.cfi_def_cfa_offset 0
  90 004c 7047     		bx	lr
  91              		.cfi_endproc
  92              	.LFE63:
  93              		.size	SU_Start, .-SU_Start
  94 004e 00BF     		.section	.text.SU_Isr,"ax",%progbits
  95              		.align	2
  96              		.global	SU_Isr
  97              		.thumb
  98              		.thumb_func
  99              		.type	SU_Isr, %function
 100              	SU_Isr:
 101              	.LFB64:
  31:soft_uart.c   **** 
  32:soft_uart.c   **** 
  33:soft_uart.c   **** 
  34:soft_uart.c   **** void SU_Isr(SOFT_UART_STRUCT *s)
  35:soft_uart.c   **** {
 102              		.loc 1 35 0
 103              		.cfi_startproc
 104              		@ args = 0, pretend = 0, frame = 16
 105              		@ frame_needed = 1, uses_anonymous_args = 0
 106 0000 80B5     		push	{r7, lr}
 107              		.cfi_def_cfa_offset 8
 108              		.cfi_offset 7, -8
 109              		.cfi_offset 14, -4
 110 0002 84B0     		sub	sp, sp, #16
 111              		.cfi_def_cfa_offset 24
 112 0004 00AF     		add	r7, sp, #0
 113              		.cfi_def_cfa_register 7
 114 0006 7860     		str	r0, [r7, #4]
  36:soft_uart.c   **** 	uint8 rb;
  37:soft_uart.c   **** 	
  38:soft_uart.c   **** 	// this is where we tx
  39:soft_uart.c   **** 	if ( s->tx_bits)
 115              		.loc 1 39 0
 116 0008 7B68     		ldr	r3, [r7, #4]
 117 000a 9B8A     		ldrh	r3, [r3, #20]	@ movhi
 118 000c 9BB2     		uxth	r3, r3
 119 000e 002B     		cmp	r3, #0
 120 0010 37D0     		beq	.L3
  40:soft_uart.c   **** 	{
  41:soft_uart.c   **** 		if ( --s->timer_tx_ctr<=0 )
 121              		.loc 1 41 0
 122 0012 7B68     		ldr	r3, [r7, #4]
 123 0014 DB69     		ldr	r3, [r3, #28]
 124 0016 013B     		subs	r3, r3, #1
 125 0018 7A68     		ldr	r2, [r7, #4]
 126 001a D361     		str	r3, [r2, #28]
 127 001c 002B     		cmp	r3, #0
 128 001e 30DC     		bgt	.L3
  42:soft_uart.c   **** 		{
  43:soft_uart.c   **** 			if ((s->tx_byte & 0x01) == 0x01)
ARM GAS  C:\Users\Rajesh\AppData\Local\Temp\cc31OThw.s 			page 4


 129              		.loc 1 43 0
 130 0020 7B68     		ldr	r3, [r7, #4]
 131 0022 5B8A     		ldrh	r3, [r3, #18]	@ movhi
 132 0024 9BB2     		uxth	r3, r3
 133 0026 03F00103 		and	r3, r3, #1
 134 002a 002B     		cmp	r3, #0
 135 002c 03D0     		beq	.L4
  44:soft_uart.c   **** 			{
  45:soft_uart.c   ****                 OptSelect_Write(2);
 136              		.loc 1 45 0
 137 002e 0220     		movs	r0, #2
 138 0030 FFF7FEFF 		bl	OptSelect_Write
 139 0034 02E0     		b	.L5
 140              	.L4:
  46:soft_uart.c   **** 			}
  47:soft_uart.c   **** 			else
  48:soft_uart.c   **** 			{
  49:soft_uart.c   ****                 OptSelect_Write(3);
 141              		.loc 1 49 0
 142 0036 0320     		movs	r0, #3
 143 0038 FFF7FEFF 		bl	OptSelect_Write
 144              	.L5:
  50:soft_uart.c   **** 			}
  51:soft_uart.c   **** 			s->tx_byte = s->tx_byte >>1;
 145              		.loc 1 51 0
 146 003c 7B68     		ldr	r3, [r7, #4]
 147 003e 5B8A     		ldrh	r3, [r3, #18]	@ movhi
 148 0040 9BB2     		uxth	r3, r3
 149 0042 5B08     		lsrs	r3, r3, #1
 150 0044 9AB2     		uxth	r2, r3
 151 0046 7B68     		ldr	r3, [r7, #4]
 152 0048 5A82     		strh	r2, [r3, #18]	@ movhi
  52:soft_uart.c   **** 			s->tx_bits--;
 153              		.loc 1 52 0
 154 004a 7B68     		ldr	r3, [r7, #4]
 155 004c 9B8A     		ldrh	r3, [r3, #20]	@ movhi
 156 004e 9BB2     		uxth	r3, r3
 157 0050 013B     		subs	r3, r3, #1
 158 0052 9AB2     		uxth	r2, r3
 159 0054 7B68     		ldr	r3, [r7, #4]
 160 0056 9A82     		strh	r2, [r3, #20]	@ movhi
  53:soft_uart.c   **** 			if (s->tx_bits)
 161              		.loc 1 53 0
 162 0058 7B68     		ldr	r3, [r7, #4]
 163 005a 9B8A     		ldrh	r3, [r3, #20]	@ movhi
 164 005c 9BB2     		uxth	r3, r3
 165 005e 002B     		cmp	r3, #0
 166 0060 09D0     		beq	.L6
  54:soft_uart.c   **** 			{
  55:soft_uart.c   **** 				s->flags &=~TX_READY;
 167              		.loc 1 55 0
 168 0062 7B68     		ldr	r3, [r7, #4]
 169 0064 9B69     		ldr	r3, [r3, #24]
 170 0066 23F00202 		bic	r2, r3, #2
 171 006a 7B68     		ldr	r3, [r7, #4]
 172 006c 9A61     		str	r2, [r3, #24]
  56:soft_uart.c   **** 				s->timer_tx_ctr = 3;
ARM GAS  C:\Users\Rajesh\AppData\Local\Temp\cc31OThw.s 			page 5


 173              		.loc 1 56 0
 174 006e 7B68     		ldr	r3, [r7, #4]
 175 0070 0322     		movs	r2, #3
 176 0072 DA61     		str	r2, [r3, #28]
 177 0074 05E0     		b	.L3
 178              	.L6:
  57:soft_uart.c   **** 		    }
  58:soft_uart.c   **** 			else
  59:soft_uart.c   **** 			   s->flags |=TX_READY;
 179              		.loc 1 59 0
 180 0076 7B68     		ldr	r3, [r7, #4]
 181 0078 9B69     		ldr	r3, [r3, #24]
 182 007a 43F00202 		orr	r2, r3, #2
 183 007e 7B68     		ldr	r3, [r7, #4]
 184 0080 9A61     		str	r2, [r3, #24]
 185              	.L3:
  60:soft_uart.c   **** 		}	
  61:soft_uart.c   **** 	}
  62:soft_uart.c   **** 
  63:soft_uart.c   ****     rb = Pin_WD0_Read();
 186              		.loc 1 63 0
 187 0082 FFF7FEFF 		bl	Pin_WD0_Read
 188 0086 0346     		mov	r3, r0
 189 0088 FB73     		strb	r3, [r7, #15]
  64:soft_uart.c   **** 	if ( s->rx_bits==0)
 190              		.loc 1 64 0
 191 008a 7B68     		ldr	r3, [r7, #4]
 192 008c DB8A     		ldrh	r3, [r3, #22]
 193 008e 002B     		cmp	r3, #0
 194 0090 15D1     		bne	.L7
  65:soft_uart.c   **** 	{
  66:soft_uart.c   **** 		if ( rb==0) // we got a start bit
 195              		.loc 1 66 0
 196 0092 FB7B     		ldrb	r3, [r7, #15]	@ zero_extendqisi2
 197 0094 002B     		cmp	r3, #0
 198 0096 60D1     		bne	.L14
  67:soft_uart.c   **** 		{
  68:soft_uart.c   **** 			s->timer_rx_ctr = 4;
 199              		.loc 1 68 0
 200 0098 7B68     		ldr	r3, [r7, #4]
 201 009a 0422     		movs	r2, #4
 202 009c 1A62     		str	r2, [r3, #32]
  69:soft_uart.c   **** 			s->rx_bits = s->bits+s->stop_bits+s->parity;
 203              		.loc 1 69 0
 204 009e 7B68     		ldr	r3, [r7, #4]
 205 00a0 DB68     		ldr	r3, [r3, #12]
 206 00a2 9AB2     		uxth	r2, r3
 207 00a4 7B68     		ldr	r3, [r7, #4]
 208 00a6 9B68     		ldr	r3, [r3, #8]
 209 00a8 9BB2     		uxth	r3, r3
 210 00aa 1344     		add	r3, r3, r2
 211 00ac 9AB2     		uxth	r2, r3
 212 00ae 7B68     		ldr	r3, [r7, #4]
 213 00b0 5B68     		ldr	r3, [r3, #4]
 214 00b2 9BB2     		uxth	r3, r3
 215 00b4 1344     		add	r3, r3, r2
 216 00b6 9AB2     		uxth	r2, r3
ARM GAS  C:\Users\Rajesh\AppData\Local\Temp\cc31OThw.s 			page 6


 217 00b8 7B68     		ldr	r3, [r7, #4]
 218 00ba DA82     		strh	r2, [r3, #22]	@ movhi
  70:soft_uart.c   **** 		}
  71:soft_uart.c   **** 	}
  72:soft_uart.c   **** 	else
  73:soft_uart.c   **** 	{
  74:soft_uart.c   **** 		if ( --s->timer_rx_ctr<=0 )
  75:soft_uart.c   **** 		{				// rcv
  76:soft_uart.c   **** 			if ( rb )
  77:soft_uart.c   **** 			{	s->rx_byte |= 0x8000;	}
  78:soft_uart.c   ****             
  79:soft_uart.c   **** 			s->rx_byte >>= 1;
  80:soft_uart.c   **** 			s->rx_bits--;
  81:soft_uart.c   **** 					
  82:soft_uart.c   **** 			if ( s->rx_bits==0)
  83:soft_uart.c   **** 			{
  84:soft_uart.c   **** 				s->rx_recv =  (s->rx_byte>>(8-1-s->stop_bits-(s->parity?1:0)))&0xff;
  85:soft_uart.c   **** 				if (s->flags & RX_BYTE_READY)
  86:soft_uart.c   **** 					 s->flags |=RX_OVERFLOW;
  87:soft_uart.c   **** 				else
  88:soft_uart.c   **** 					 s->flags |=RX_BYTE_READY;
  89:soft_uart.c   **** 			}
  90:soft_uart.c   **** 			else
  91:soft_uart.c   **** 				s->timer_rx_ctr = 3;
  92:soft_uart.c   **** 		}
  93:soft_uart.c   **** 	}
  94:soft_uart.c   **** }
 219              		.loc 1 94 0
 220 00bc 4DE0     		b	.L14
 221              	.L7:
  74:soft_uart.c   **** 		{				// rcv
 222              		.loc 1 74 0
 223 00be 7B68     		ldr	r3, [r7, #4]
 224 00c0 1B6A     		ldr	r3, [r3, #32]
 225 00c2 013B     		subs	r3, r3, #1
 226 00c4 7A68     		ldr	r2, [r7, #4]
 227 00c6 1362     		str	r3, [r2, #32]
 228 00c8 002B     		cmp	r3, #0
 229 00ca 46DC     		bgt	.L14
  76:soft_uart.c   **** 			{	s->rx_byte |= 0x8000;	}
 230              		.loc 1 76 0
 231 00cc FB7B     		ldrb	r3, [r7, #15]	@ zero_extendqisi2
 232 00ce 002B     		cmp	r3, #0
 233 00d0 08D0     		beq	.L10
  77:soft_uart.c   ****             
 234              		.loc 1 77 0
 235 00d2 7B68     		ldr	r3, [r7, #4]
 236 00d4 1B8A     		ldrh	r3, [r3, #16]
 237 00d6 6FEA4343 		mvn	r3, r3, lsl #17
 238 00da 6FEA5343 		mvn	r3, r3, lsr #17
 239 00de 9AB2     		uxth	r2, r3
 240 00e0 7B68     		ldr	r3, [r7, #4]
 241 00e2 1A82     		strh	r2, [r3, #16]	@ movhi
 242              	.L10:
  79:soft_uart.c   **** 			s->rx_bits--;
 243              		.loc 1 79 0
 244 00e4 7B68     		ldr	r3, [r7, #4]
ARM GAS  C:\Users\Rajesh\AppData\Local\Temp\cc31OThw.s 			page 7


 245 00e6 1B8A     		ldrh	r3, [r3, #16]
 246 00e8 5B08     		lsrs	r3, r3, #1
 247 00ea 9AB2     		uxth	r2, r3
 248 00ec 7B68     		ldr	r3, [r7, #4]
 249 00ee 1A82     		strh	r2, [r3, #16]	@ movhi
  80:soft_uart.c   **** 					
 250              		.loc 1 80 0
 251 00f0 7B68     		ldr	r3, [r7, #4]
 252 00f2 DB8A     		ldrh	r3, [r3, #22]
 253 00f4 013B     		subs	r3, r3, #1
 254 00f6 9AB2     		uxth	r2, r3
 255 00f8 7B68     		ldr	r3, [r7, #4]
 256 00fa DA82     		strh	r2, [r3, #22]	@ movhi
  82:soft_uart.c   **** 			{
 257              		.loc 1 82 0
 258 00fc 7B68     		ldr	r3, [r7, #4]
 259 00fe DB8A     		ldrh	r3, [r3, #22]
 260 0100 002B     		cmp	r3, #0
 261 0102 27D1     		bne	.L11
  84:soft_uart.c   **** 				if (s->flags & RX_BYTE_READY)
 262              		.loc 1 84 0
 263 0104 7B68     		ldr	r3, [r7, #4]
 264 0106 1B8A     		ldrh	r3, [r3, #16]
 265 0108 1946     		mov	r1, r3
 266 010a 7B68     		ldr	r3, [r7, #4]
 267 010c 9B68     		ldr	r3, [r3, #8]
 268 010e C3F10703 		rsb	r3, r3, #7
 269 0112 7A68     		ldr	r2, [r7, #4]
 270 0114 5268     		ldr	r2, [r2, #4]
 271 0116 002A     		cmp	r2, #0
 272 0118 14BF     		ite	ne
 273 011a 0122     		movne	r2, #1
 274 011c 0022     		moveq	r2, #0
 275 011e D2B2     		uxtb	r2, r2
 276 0120 9B1A     		subs	r3, r3, r2
 277 0122 41FA03F3 		asr	r3, r1, r3
 278 0126 DAB2     		uxtb	r2, r3
 279 0128 7B68     		ldr	r3, [r7, #4]
 280 012a 5A62     		str	r2, [r3, #36]
  85:soft_uart.c   **** 					 s->flags |=RX_OVERFLOW;
 281              		.loc 1 85 0
 282 012c 7B68     		ldr	r3, [r7, #4]
 283 012e 9B69     		ldr	r3, [r3, #24]
 284 0130 03F00103 		and	r3, r3, #1
 285 0134 002B     		cmp	r3, #0
 286 0136 06D0     		beq	.L12
  86:soft_uart.c   **** 				else
 287              		.loc 1 86 0
 288 0138 7B68     		ldr	r3, [r7, #4]
 289 013a 9B69     		ldr	r3, [r3, #24]
 290 013c 43F00402 		orr	r2, r3, #4
 291 0140 7B68     		ldr	r3, [r7, #4]
 292 0142 9A61     		str	r2, [r3, #24]
 293              		.loc 1 94 0
 294 0144 09E0     		b	.L14
 295              	.L12:
  88:soft_uart.c   **** 			}
ARM GAS  C:\Users\Rajesh\AppData\Local\Temp\cc31OThw.s 			page 8


 296              		.loc 1 88 0
 297 0146 7B68     		ldr	r3, [r7, #4]
 298 0148 9B69     		ldr	r3, [r3, #24]
 299 014a 43F00102 		orr	r2, r3, #1
 300 014e 7B68     		ldr	r3, [r7, #4]
 301 0150 9A61     		str	r2, [r3, #24]
 302              		.loc 1 94 0
 303 0152 02E0     		b	.L14
 304              	.L11:
  91:soft_uart.c   **** 		}
 305              		.loc 1 91 0
 306 0154 7B68     		ldr	r3, [r7, #4]
 307 0156 0322     		movs	r2, #3
 308 0158 1A62     		str	r2, [r3, #32]
 309              	.L14:
 310              		.loc 1 94 0
 311 015a 00BF     		nop
 312 015c 1037     		adds	r7, r7, #16
 313              		.cfi_def_cfa_offset 8
 314 015e BD46     		mov	sp, r7
 315              		.cfi_def_cfa_register 13
 316              		@ sp needed
 317 0160 80BD     		pop	{r7, pc}
 318              		.cfi_endproc
 319              	.LFE64:
 320              		.size	SU_Isr, .-SU_Isr
 321 0162 00BF     		.section	.text.getOddParity,"ax",%progbits
 322              		.align	2
 323              		.global	getOddParity
 324              		.thumb
 325              		.thumb_func
 326              		.type	getOddParity, %function
 327              	getOddParity:
 328              	.LFB65:
  95:soft_uart.c   **** 
  96:soft_uart.c   **** #define START_BIT 0
  97:soft_uart.c   **** 
  98:soft_uart.c   **** unsigned char getOddParity(unsigned char p)
  99:soft_uart.c   ****   {
 329              		.loc 1 99 0
 330              		.cfi_startproc
 331              		@ args = 0, pretend = 0, frame = 8
 332              		@ frame_needed = 1, uses_anonymous_args = 0
 333              		@ link register save eliminated.
 334 0000 80B4     		push	{r7}
 335              		.cfi_def_cfa_offset 4
 336              		.cfi_offset 7, -4
 337 0002 83B0     		sub	sp, sp, #12
 338              		.cfi_def_cfa_offset 16
 339 0004 00AF     		add	r7, sp, #0
 340              		.cfi_def_cfa_register 7
 341 0006 0346     		mov	r3, r0
 342 0008 FB71     		strb	r3, [r7, #7]
 100:soft_uart.c   ****       p = p ^ (p >> 4 | p << 4);
 343              		.loc 1 100 0
 344 000a FB79     		ldrb	r3, [r7, #7]	@ zero_extendqisi2
 345 000c 1B09     		lsrs	r3, r3, #4
ARM GAS  C:\Users\Rajesh\AppData\Local\Temp\cc31OThw.s 			page 9


 346 000e DBB2     		uxtb	r3, r3
 347 0010 5AB2     		sxtb	r2, r3
 348 0012 FB79     		ldrb	r3, [r7, #7]	@ zero_extendqisi2
 349 0014 1B01     		lsls	r3, r3, #4
 350 0016 5BB2     		sxtb	r3, r3
 351 0018 1343     		orrs	r3, r3, r2
 352 001a 5AB2     		sxtb	r2, r3
 353 001c 97F90730 		ldrsb	r3, [r7, #7]
 354 0020 5340     		eors	r3, r3, r2
 355 0022 5BB2     		sxtb	r3, r3
 356 0024 FB71     		strb	r3, [r7, #7]
 101:soft_uart.c   ****       p = p ^ (p >> 2);
 357              		.loc 1 101 0
 358 0026 FB79     		ldrb	r3, [r7, #7]	@ zero_extendqisi2
 359 0028 9B08     		lsrs	r3, r3, #2
 360 002a DAB2     		uxtb	r2, r3
 361 002c FB79     		ldrb	r3, [r7, #7]
 362 002e 5340     		eors	r3, r3, r2
 363 0030 FB71     		strb	r3, [r7, #7]
 102:soft_uart.c   ****       p = p ^ (p >> 1);
 364              		.loc 1 102 0
 365 0032 FB79     		ldrb	r3, [r7, #7]	@ zero_extendqisi2
 366 0034 5B08     		lsrs	r3, r3, #1
 367 0036 DAB2     		uxtb	r2, r3
 368 0038 FB79     		ldrb	r3, [r7, #7]
 369 003a 5340     		eors	r3, r3, r2
 370 003c FB71     		strb	r3, [r7, #7]
 103:soft_uart.c   ****       return p & 1;
 371              		.loc 1 103 0
 372 003e FB79     		ldrb	r3, [r7, #7]
 373 0040 03F00103 		and	r3, r3, #1
 374 0044 DBB2     		uxtb	r3, r3
 104:soft_uart.c   ****   }
 375              		.loc 1 104 0
 376 0046 1846     		mov	r0, r3
 377 0048 0C37     		adds	r7, r7, #12
 378              		.cfi_def_cfa_offset 4
 379 004a BD46     		mov	sp, r7
 380              		.cfi_def_cfa_register 13
 381              		@ sp needed
 382 004c 80BC     		pop	{r7}
 383              		.cfi_restore 7
 384              		.cfi_def_cfa_offset 0
 385 004e 7047     		bx	lr
 386              		.cfi_endproc
 387              	.LFE65:
 388              		.size	getOddParity, .-getOddParity
 389              		.section	.text.SU_GetStat,"ax",%progbits
 390              		.align	2
 391              		.global	SU_GetStat
 392              		.thumb
 393              		.thumb_func
 394              		.type	SU_GetStat, %function
 395              	SU_GetStat:
 396              	.LFB66:
 105:soft_uart.c   **** 
 106:soft_uart.c   **** int SU_GetStat( SOFT_UART_STRUCT *s)
ARM GAS  C:\Users\Rajesh\AppData\Local\Temp\cc31OThw.s 			page 10


 107:soft_uart.c   **** {
 397              		.loc 1 107 0
 398              		.cfi_startproc
 399              		@ args = 0, pretend = 0, frame = 8
 400              		@ frame_needed = 1, uses_anonymous_args = 0
 401              		@ link register save eliminated.
 402 0000 80B4     		push	{r7}
 403              		.cfi_def_cfa_offset 4
 404              		.cfi_offset 7, -4
 405 0002 83B0     		sub	sp, sp, #12
 406              		.cfi_def_cfa_offset 16
 407 0004 00AF     		add	r7, sp, #0
 408              		.cfi_def_cfa_register 7
 409 0006 7860     		str	r0, [r7, #4]
 108:soft_uart.c   **** 	return s->flags;
 410              		.loc 1 108 0
 411 0008 7B68     		ldr	r3, [r7, #4]
 412 000a 9B69     		ldr	r3, [r3, #24]
 109:soft_uart.c   **** }
 413              		.loc 1 109 0
 414 000c 1846     		mov	r0, r3
 415 000e 0C37     		adds	r7, r7, #12
 416              		.cfi_def_cfa_offset 4
 417 0010 BD46     		mov	sp, r7
 418              		.cfi_def_cfa_register 13
 419              		@ sp needed
 420 0012 80BC     		pop	{r7}
 421              		.cfi_restore 7
 422              		.cfi_def_cfa_offset 0
 423 0014 7047     		bx	lr
 424              		.cfi_endproc
 425              	.LFE66:
 426              		.size	SU_GetStat, .-SU_GetStat
 427 0016 00BF     		.section	.text.SU_GetChar,"ax",%progbits
 428              		.align	2
 429              		.global	SU_GetChar
 430              		.thumb
 431              		.thumb_func
 432              		.type	SU_GetChar, %function
 433              	SU_GetChar:
 434              	.LFB67:
 110:soft_uart.c   **** 
 111:soft_uart.c   **** int SU_GetChar( SOFT_UART_STRUCT *s)
 112:soft_uart.c   **** {
 435              		.loc 1 112 0
 436              		.cfi_startproc
 437              		@ args = 0, pretend = 0, frame = 16
 438              		@ frame_needed = 1, uses_anonymous_args = 0
 439              		@ link register save eliminated.
 440 0000 80B4     		push	{r7}
 441              		.cfi_def_cfa_offset 4
 442              		.cfi_offset 7, -4
 443 0002 85B0     		sub	sp, sp, #20
 444              		.cfi_def_cfa_offset 24
 445 0004 00AF     		add	r7, sp, #0
 446              		.cfi_def_cfa_register 7
 447 0006 7860     		str	r0, [r7, #4]
ARM GAS  C:\Users\Rajesh\AppData\Local\Temp\cc31OThw.s 			page 11


 113:soft_uart.c   **** 	uint8 b;
 114:soft_uart.c   **** 	b = s->rx_recv;
 448              		.loc 1 114 0
 449 0008 7B68     		ldr	r3, [r7, #4]
 450 000a 5B6A     		ldr	r3, [r3, #36]
 451 000c FB73     		strb	r3, [r7, #15]
 115:soft_uart.c   **** 	CyGlobalIntDisable;
 452              		.loc 1 115 0
 453              		.syntax unified
 454              	@ 115 "soft_uart.c" 1
 455 000e 72B6     		CPSID   i
 456              	@ 0 "" 2
 116:soft_uart.c   **** 	s->flags &=~RX_BYTE_READY;
 457              		.loc 1 116 0
 458              		.thumb
 459              		.syntax unified
 460 0010 7B68     		ldr	r3, [r7, #4]
 461 0012 9B69     		ldr	r3, [r3, #24]
 462 0014 23F00102 		bic	r2, r3, #1
 463 0018 7B68     		ldr	r3, [r7, #4]
 464 001a 9A61     		str	r2, [r3, #24]
 117:soft_uart.c   **** 	CyGlobalIntEnable;
 465              		.loc 1 117 0
 466              		.syntax unified
 467              	@ 117 "soft_uart.c" 1
 468 001c 62B6     		CPSIE   i
 469              	@ 0 "" 2
 118:soft_uart.c   **** 	return b;
 470              		.loc 1 118 0
 471              		.thumb
 472              		.syntax unified
 473 001e FB7B     		ldrb	r3, [r7, #15]	@ zero_extendqisi2
 119:soft_uart.c   **** }
 474              		.loc 1 119 0
 475 0020 1846     		mov	r0, r3
 476 0022 1437     		adds	r7, r7, #20
 477              		.cfi_def_cfa_offset 4
 478 0024 BD46     		mov	sp, r7
 479              		.cfi_def_cfa_register 13
 480              		@ sp needed
 481 0026 80BC     		pop	{r7}
 482              		.cfi_restore 7
 483              		.cfi_def_cfa_offset 0
 484 0028 7047     		bx	lr
 485              		.cfi_endproc
 486              	.LFE67:
 487              		.size	SU_GetChar, .-SU_GetChar
 488 002a 00BF     		.section	.text.SU_PutChar,"ax",%progbits
 489              		.align	2
 490              		.global	SU_PutChar
 491              		.thumb
 492              		.thumb_func
 493              		.type	SU_PutChar, %function
 494              	SU_PutChar:
 495              	.LFB68:
 120:soft_uart.c   **** 
 121:soft_uart.c   **** void SU_PutChar( SOFT_UART_STRUCT *s, int c)
ARM GAS  C:\Users\Rajesh\AppData\Local\Temp\cc31OThw.s 			page 12


 122:soft_uart.c   **** {
 496              		.loc 1 122 0
 497              		.cfi_startproc
 498              		@ args = 0, pretend = 0, frame = 16
 499              		@ frame_needed = 1, uses_anonymous_args = 0
 500 0000 80B5     		push	{r7, lr}
 501              		.cfi_def_cfa_offset 8
 502              		.cfi_offset 7, -8
 503              		.cfi_offset 14, -4
 504 0002 84B0     		sub	sp, sp, #16
 505              		.cfi_def_cfa_offset 24
 506 0004 00AF     		add	r7, sp, #0
 507              		.cfi_def_cfa_register 7
 508 0006 7860     		str	r0, [r7, #4]
 509 0008 3960     		str	r1, [r7]
 123:soft_uart.c   **** 	unsigned short data_tosend;
 124:soft_uart.c   **** 	int parity = 0;
 510              		.loc 1 124 0
 511 000a 0023     		movs	r3, #0
 512 000c BB60     		str	r3, [r7, #8]
 125:soft_uart.c   **** 	data_tosend = (c<<1) | START_BIT;
 513              		.loc 1 125 0
 514 000e 3B68     		ldr	r3, [r7]
 515 0010 9BB2     		uxth	r3, r3
 516 0012 5B00     		lsls	r3, r3, #1
 517 0014 FB81     		strh	r3, [r7, #14]	@ movhi
 126:soft_uart.c   **** 	if (s->parity==PARITY_ODD)
 518              		.loc 1 126 0
 519 0016 7B68     		ldr	r3, [r7, #4]
 520 0018 5B68     		ldr	r3, [r3, #4]
 521 001a 012B     		cmp	r3, #1
 522 001c 1ED1     		bne	.L22
 127:soft_uart.c   **** 	  {
 128:soft_uart.c   ****         parity = getOddParity(c);
 523              		.loc 1 128 0
 524 001e 3B68     		ldr	r3, [r7]
 525 0020 DBB2     		uxtb	r3, r3
 526 0022 1846     		mov	r0, r3
 527 0024 FFF7FEFF 		bl	getOddParity
 528 0028 0346     		mov	r3, r0
 529 002a BB60     		str	r3, [r7, #8]
 129:soft_uart.c   **** 		data_tosend |= parity ? (0x300 << s->stop_bits) : (0x200 << s->stop_bits);
 530              		.loc 1 129 0
 531 002c BB68     		ldr	r3, [r7, #8]
 532 002e 002B     		cmp	r3, #0
 533 0030 07D0     		beq	.L23
 534              		.loc 1 129 0 is_stmt 0 discriminator 1
 535 0032 7B68     		ldr	r3, [r7, #4]
 536 0034 9B68     		ldr	r3, [r3, #8]
 537 0036 4FF44072 		mov	r2, #768
 538 003a 02FA03F3 		lsl	r3, r2, r3
 539 003e 1BB2     		sxth	r3, r3
 540 0040 06E0     		b	.L24
 541              	.L23:
 542              		.loc 1 129 0 discriminator 2
 543 0042 7B68     		ldr	r3, [r7, #4]
 544 0044 9B68     		ldr	r3, [r3, #8]
ARM GAS  C:\Users\Rajesh\AppData\Local\Temp\cc31OThw.s 			page 13


 545 0046 4FF40072 		mov	r2, #512
 546 004a 02FA03F3 		lsl	r3, r2, r3
 547 004e 1BB2     		sxth	r3, r3
 548              	.L24:
 549              		.loc 1 129 0 discriminator 4
 550 0050 B7F90E20 		ldrsh	r2, [r7, #14]
 551 0054 1343     		orrs	r3, r3, r2
 552 0056 1BB2     		sxth	r3, r3
 553 0058 FB81     		strh	r3, [r7, #14]	@ movhi
 554 005a 30E0     		b	.L33
 555              	.L22:
 130:soft_uart.c   **** 	  }
 131:soft_uart.c   **** 	else if (s->parity==PARITY_EVEN)
 556              		.loc 1 131 0 is_stmt 1
 557 005c 7B68     		ldr	r3, [r7, #4]
 558 005e 5B68     		ldr	r3, [r3, #4]
 559 0060 022B     		cmp	r3, #2
 560 0062 1ED1     		bne	.L26
 132:soft_uart.c   **** 	  {
 133:soft_uart.c   ****          parity = getOddParity(c);
 561              		.loc 1 133 0
 562 0064 3B68     		ldr	r3, [r7]
 563 0066 DBB2     		uxtb	r3, r3
 564 0068 1846     		mov	r0, r3
 565 006a FFF7FEFF 		bl	getOddParity
 566 006e 0346     		mov	r3, r0
 567 0070 BB60     		str	r3, [r7, #8]
 134:soft_uart.c   **** 		data_tosend |= parity ?  (0x200 << s->stop_bits) : (0x300 << s->stop_bits);
 568              		.loc 1 134 0
 569 0072 BB68     		ldr	r3, [r7, #8]
 570 0074 002B     		cmp	r3, #0
 571 0076 07D0     		beq	.L27
 572              		.loc 1 134 0 is_stmt 0 discriminator 1
 573 0078 7B68     		ldr	r3, [r7, #4]
 574 007a 9B68     		ldr	r3, [r3, #8]
 575 007c 4FF40072 		mov	r2, #512
 576 0080 02FA03F3 		lsl	r3, r2, r3
 577 0084 1BB2     		sxth	r3, r3
 578 0086 06E0     		b	.L28
 579              	.L27:
 580              		.loc 1 134 0 discriminator 2
 581 0088 7B68     		ldr	r3, [r7, #4]
 582 008a 9B68     		ldr	r3, [r3, #8]
 583 008c 4FF44072 		mov	r2, #768
 584 0090 02FA03F3 		lsl	r3, r2, r3
 585 0094 1BB2     		sxth	r3, r3
 586              	.L28:
 587              		.loc 1 134 0 discriminator 4
 588 0096 B7F90E20 		ldrsh	r2, [r7, #14]
 589 009a 1343     		orrs	r3, r3, r2
 590 009c 1BB2     		sxth	r3, r3
 591 009e FB81     		strh	r3, [r7, #14]	@ movhi
 592 00a0 0DE0     		b	.L33
 593              	.L26:
 135:soft_uart.c   **** 	  }
 136:soft_uart.c   **** 	else
 137:soft_uart.c   **** 		data_tosend |=  1<<(s->bits + s->stop_bits);
ARM GAS  C:\Users\Rajesh\AppData\Local\Temp\cc31OThw.s 			page 14


 594              		.loc 1 137 0 is_stmt 1
 595 00a2 7B68     		ldr	r3, [r7, #4]
 596 00a4 DA68     		ldr	r2, [r3, #12]
 597 00a6 7B68     		ldr	r3, [r7, #4]
 598 00a8 9B68     		ldr	r3, [r3, #8]
 599 00aa 1344     		add	r3, r3, r2
 600 00ac 0122     		movs	r2, #1
 601 00ae 02FA03F3 		lsl	r3, r2, r3
 602 00b2 1AB2     		sxth	r2, r3
 603 00b4 B7F90E30 		ldrsh	r3, [r7, #14]
 604 00b8 1343     		orrs	r3, r3, r2
 605 00ba 1BB2     		sxth	r3, r3
 606 00bc FB81     		strh	r3, [r7, #14]	@ movhi
 607              	.L33:
 138:soft_uart.c   **** 	// wait for it to be ready
 139:soft_uart.c   **** 	while ((s->flags&TX_READY)==0);
 608              		.loc 1 139 0
 609 00be 00BF     		nop
 610              	.L29:
 611              		.loc 1 139 0 is_stmt 0 discriminator 1
 612 00c0 7B68     		ldr	r3, [r7, #4]
 613 00c2 9B69     		ldr	r3, [r3, #24]
 614 00c4 03F00203 		and	r3, r3, #2
 615 00c8 002B     		cmp	r3, #0
 616 00ca F9D0     		beq	.L29
 140:soft_uart.c   **** 
 141:soft_uart.c   **** 	CyGlobalIntDisable;
 617              		.loc 1 141 0 is_stmt 1
 618              		.syntax unified
 619              	@ 141 "soft_uart.c" 1
 620 00cc 72B6     		CPSID   i
 621              	@ 0 "" 2
 142:soft_uart.c   **** 	s->flags &=~TX_READY;
 622              		.loc 1 142 0
 623              		.thumb
 624              		.syntax unified
 625 00ce 7B68     		ldr	r3, [r7, #4]
 626 00d0 9B69     		ldr	r3, [r3, #24]
 627 00d2 23F00202 		bic	r2, r3, #2
 628 00d6 7B68     		ldr	r3, [r7, #4]
 629 00d8 9A61     		str	r2, [r3, #24]
 143:soft_uart.c   **** 	CyGlobalIntEnable;
 630              		.loc 1 143 0
 631              		.syntax unified
 632              	@ 143 "soft_uart.c" 1
 633 00da 62B6     		CPSIE   i
 634              	@ 0 "" 2
 144:soft_uart.c   **** 	s->tx_byte = data_tosend;
 635              		.loc 1 144 0
 636              		.thumb
 637              		.syntax unified
 638 00dc 7B68     		ldr	r3, [r7, #4]
 639 00de FA89     		ldrh	r2, [r7, #14]	@ movhi
 640 00e0 5A82     		strh	r2, [r3, #18]	@ movhi
 145:soft_uart.c   **** 	s->timer_tx_ctr = 3;
 641              		.loc 1 145 0
 642 00e2 7B68     		ldr	r3, [r7, #4]
ARM GAS  C:\Users\Rajesh\AppData\Local\Temp\cc31OThw.s 			page 15


 643 00e4 0322     		movs	r2, #3
 644 00e6 DA61     		str	r2, [r3, #28]
 146:soft_uart.c   ****     if(s->parity != PARITY_NONE)
 645              		.loc 1 146 0
 646 00e8 7B68     		ldr	r3, [r7, #4]
 647 00ea 5B68     		ldr	r3, [r3, #4]
 648 00ec 002B     		cmp	r3, #0
 649 00ee 0CD0     		beq	.L30
 147:soft_uart.c   ****     	s->tx_bits = s->bits+s->stop_bits+ 2;
 650              		.loc 1 147 0
 651 00f0 7B68     		ldr	r3, [r7, #4]
 652 00f2 DB68     		ldr	r3, [r3, #12]
 653 00f4 9AB2     		uxth	r2, r3
 654 00f6 7B68     		ldr	r3, [r7, #4]
 655 00f8 9B68     		ldr	r3, [r3, #8]
 656 00fa 9BB2     		uxth	r3, r3
 657 00fc 1344     		add	r3, r3, r2
 658 00fe 9BB2     		uxth	r3, r3
 659 0100 0233     		adds	r3, r3, #2
 660 0102 9AB2     		uxth	r2, r3
 661 0104 7B68     		ldr	r3, [r7, #4]
 662 0106 9A82     		strh	r2, [r3, #20]	@ movhi
 148:soft_uart.c   ****     else
 149:soft_uart.c   ****     	s->tx_bits = s->bits+s->stop_bits+ 1;
 150:soft_uart.c   **** 	
 151:soft_uart.c   **** }
 663              		.loc 1 151 0
 664 0108 0BE0     		b	.L32
 665              	.L30:
 149:soft_uart.c   **** 	
 666              		.loc 1 149 0
 667 010a 7B68     		ldr	r3, [r7, #4]
 668 010c DB68     		ldr	r3, [r3, #12]
 669 010e 9AB2     		uxth	r2, r3
 670 0110 7B68     		ldr	r3, [r7, #4]
 671 0112 9B68     		ldr	r3, [r3, #8]
 672 0114 9BB2     		uxth	r3, r3
 673 0116 1344     		add	r3, r3, r2
 674 0118 9BB2     		uxth	r3, r3
 675 011a 0133     		adds	r3, r3, #1
 676 011c 9AB2     		uxth	r2, r3
 677 011e 7B68     		ldr	r3, [r7, #4]
 678 0120 9A82     		strh	r2, [r3, #20]	@ movhi
 679              	.L32:
 680              		.loc 1 151 0
 681 0122 00BF     		nop
 682 0124 1037     		adds	r7, r7, #16
 683              		.cfi_def_cfa_offset 8
 684 0126 BD46     		mov	sp, r7
 685              		.cfi_def_cfa_register 13
 686              		@ sp needed
 687 0128 80BD     		pop	{r7, pc}
 688              		.cfi_endproc
 689              	.LFE68:
 690              		.size	SU_PutChar, .-SU_PutChar
 691 012a 00BF     		.text
 692              	.Letext0:
ARM GAS  C:\Users\Rajesh\AppData\Local\Temp\cc31OThw.s 			page 16


 693              		.file 2 "c:\\program files (x86)\\cypress\\psoc creator\\4.2\\psoc creator\\import\\gnu\\arm\\5.4.
 694              		.file 3 "c:\\program files (x86)\\cypress\\psoc creator\\4.2\\psoc creator\\import\\gnu\\arm\\5.4.
 695              		.file 4 "Generated_Source\\PSoC5/cytypes.h"
 696              		.file 5 "softuart.h"
 697              		.file 6 "Generated_Source\\PSoC5/core_cm3.h"