ARM GAS  C:\Users\yqh\AppData\Local\Temp\ccxIv92U.s 			page 1


   1              		.syntax unified
   2              		.cpu cortex-m3
   3              		.fpu softvfp
   4              		.eabi_attribute 20, 1
   5              		.eabi_attribute 21, 1
   6              		.eabi_attribute 23, 3
   7              		.eabi_attribute 24, 1
   8              		.eabi_attribute 25, 1
   9              		.eabi_attribute 26, 1
  10              		.eabi_attribute 30, 6
  11              		.eabi_attribute 34, 1
  12              		.eabi_attribute 18, 4
  13              		.thumb
  14              		.file	"UART_TIMER_ISR.c"
  15              		.text
  16              	.Ltext0:
  17              		.cfi_sections	.debug_frame
  18              		.comm	s,40,4
  19              		.comm	currentAccessType,1,1
  20              		.comm	hw_old,1,1
  21              		.comm	tp_old,1,1
  22              		.comm	tamperCR_polarity,4,4
  23              		.comm	tamper_out_polarity,4,4
  24              		.comm	card_ack,4,4
  25              		.comm	card_in_buf,4,4
  26              		.section	.text.UART_TIMER_ISR_Start,"ax",%progbits
  27              		.align	2
  28              		.global	UART_TIMER_ISR_Start
  29              		.thumb
  30              		.thumb_func
  31              		.type	UART_TIMER_ISR_Start, %function
  32              	UART_TIMER_ISR_Start:
  33              	.LFB63:
  34              		.file 1 ".\\Generated_Source\\PSoC5\\UART_TIMER_ISR.c"
   1:.\Generated_Source\PSoC5/UART_TIMER_ISR.c **** /*******************************************************************************
   2:.\Generated_Source\PSoC5/UART_TIMER_ISR.c **** * File Name: UART_TIMER_ISR.c  
   3:.\Generated_Source\PSoC5/UART_TIMER_ISR.c **** * Version 1.70
   4:.\Generated_Source\PSoC5/UART_TIMER_ISR.c **** *
   5:.\Generated_Source\PSoC5/UART_TIMER_ISR.c **** *  Description:
   6:.\Generated_Source\PSoC5/UART_TIMER_ISR.c **** *   API for controlling the state of an interrupt.
   7:.\Generated_Source\PSoC5/UART_TIMER_ISR.c **** *
   8:.\Generated_Source\PSoC5/UART_TIMER_ISR.c **** *
   9:.\Generated_Source\PSoC5/UART_TIMER_ISR.c **** *  Note:
  10:.\Generated_Source\PSoC5/UART_TIMER_ISR.c **** *
  11:.\Generated_Source\PSoC5/UART_TIMER_ISR.c **** ********************************************************************************
  12:.\Generated_Source\PSoC5/UART_TIMER_ISR.c **** * Copyright 2008-2015, Cypress Semiconductor Corporation.  All rights reserved.
  13:.\Generated_Source\PSoC5/UART_TIMER_ISR.c **** * You may use this file only in accordance with the license, terms, conditions, 
  14:.\Generated_Source\PSoC5/UART_TIMER_ISR.c **** * disclaimers, and limitations in the end user license agreement accompanying 
  15:.\Generated_Source\PSoC5/UART_TIMER_ISR.c **** * the software package with which this file was provided.
  16:.\Generated_Source\PSoC5/UART_TIMER_ISR.c **** *******************************************************************************/
  17:.\Generated_Source\PSoC5/UART_TIMER_ISR.c **** 
  18:.\Generated_Source\PSoC5/UART_TIMER_ISR.c **** 
  19:.\Generated_Source\PSoC5/UART_TIMER_ISR.c **** #include <cydevice_trm.h>
  20:.\Generated_Source\PSoC5/UART_TIMER_ISR.c **** #include <CyLib.h>
  21:.\Generated_Source\PSoC5/UART_TIMER_ISR.c **** #include <UART_TIMER_ISR.h>
  22:.\Generated_Source\PSoC5/UART_TIMER_ISR.c **** 
  23:.\Generated_Source\PSoC5/UART_TIMER_ISR.c **** 
ARM GAS  C:\Users\yqh\AppData\Local\Temp\ccxIv92U.s 			page 2


  24:.\Generated_Source\PSoC5/UART_TIMER_ISR.c **** #if !defined(UART_TIMER_ISR__REMOVED) /* Check for removal by optimization */
  25:.\Generated_Source\PSoC5/UART_TIMER_ISR.c **** 
  26:.\Generated_Source\PSoC5/UART_TIMER_ISR.c **** /*******************************************************************************
  27:.\Generated_Source\PSoC5/UART_TIMER_ISR.c **** *  Place your includes, defines and code here 
  28:.\Generated_Source\PSoC5/UART_TIMER_ISR.c **** ********************************************************************************/
  29:.\Generated_Source\PSoC5/UART_TIMER_ISR.c **** /* `#START UART_TIMER_ISR_intc` */
  30:.\Generated_Source\PSoC5/UART_TIMER_ISR.c **** #include "UART_TIMER.h"
  31:.\Generated_Source\PSoC5/UART_TIMER_ISR.c **** #include "system.h"   
  32:.\Generated_Source\PSoC5/UART_TIMER_ISR.c **** /* `#END` */
  33:.\Generated_Source\PSoC5/UART_TIMER_ISR.c **** 
  34:.\Generated_Source\PSoC5/UART_TIMER_ISR.c **** #ifndef CYINT_IRQ_BASE
  35:.\Generated_Source\PSoC5/UART_TIMER_ISR.c **** #define CYINT_IRQ_BASE      16
  36:.\Generated_Source\PSoC5/UART_TIMER_ISR.c **** #endif /* CYINT_IRQ_BASE */
  37:.\Generated_Source\PSoC5/UART_TIMER_ISR.c **** #ifndef CYINT_VECT_TABLE
  38:.\Generated_Source\PSoC5/UART_TIMER_ISR.c **** #define CYINT_VECT_TABLE    ((cyisraddress **) CYREG_NVIC_VECT_OFFSET)
  39:.\Generated_Source\PSoC5/UART_TIMER_ISR.c **** #endif /* CYINT_VECT_TABLE */
  40:.\Generated_Source\PSoC5/UART_TIMER_ISR.c **** 
  41:.\Generated_Source\PSoC5/UART_TIMER_ISR.c **** /* Declared in startup, used to set unused interrupts to. */
  42:.\Generated_Source\PSoC5/UART_TIMER_ISR.c **** CY_ISR_PROTO(IntDefaultHandler);
  43:.\Generated_Source\PSoC5/UART_TIMER_ISR.c **** 
  44:.\Generated_Source\PSoC5/UART_TIMER_ISR.c **** 
  45:.\Generated_Source\PSoC5/UART_TIMER_ISR.c **** /*******************************************************************************
  46:.\Generated_Source\PSoC5/UART_TIMER_ISR.c **** * Function Name: UART_TIMER_ISR_Start
  47:.\Generated_Source\PSoC5/UART_TIMER_ISR.c **** ********************************************************************************
  48:.\Generated_Source\PSoC5/UART_TIMER_ISR.c **** *
  49:.\Generated_Source\PSoC5/UART_TIMER_ISR.c **** * Summary:
  50:.\Generated_Source\PSoC5/UART_TIMER_ISR.c **** *  Set up the interrupt and enable it. This function disables the interrupt, 
  51:.\Generated_Source\PSoC5/UART_TIMER_ISR.c **** *  sets the default interrupt vector, sets the priority from the value in the
  52:.\Generated_Source\PSoC5/UART_TIMER_ISR.c **** *  Design Wide Resources Interrupt Editor, then enables the interrupt to the 
  53:.\Generated_Source\PSoC5/UART_TIMER_ISR.c **** *  interrupt controller.
  54:.\Generated_Source\PSoC5/UART_TIMER_ISR.c **** *
  55:.\Generated_Source\PSoC5/UART_TIMER_ISR.c **** * Parameters:  
  56:.\Generated_Source\PSoC5/UART_TIMER_ISR.c **** *   None
  57:.\Generated_Source\PSoC5/UART_TIMER_ISR.c **** *
  58:.\Generated_Source\PSoC5/UART_TIMER_ISR.c **** * Return:
  59:.\Generated_Source\PSoC5/UART_TIMER_ISR.c **** *   None
  60:.\Generated_Source\PSoC5/UART_TIMER_ISR.c **** *
  61:.\Generated_Source\PSoC5/UART_TIMER_ISR.c **** *******************************************************************************/
  62:.\Generated_Source\PSoC5/UART_TIMER_ISR.c **** void UART_TIMER_ISR_Start(void)
  63:.\Generated_Source\PSoC5/UART_TIMER_ISR.c **** {
  35              		.loc 1 63 0
  36              		.cfi_startproc
  37              		@ args = 0, pretend = 0, frame = 0
  38              		@ frame_needed = 1, uses_anonymous_args = 0
  39 0000 80B5     		push	{r7, lr}
  40              		.cfi_def_cfa_offset 8
  41              		.cfi_offset 7, -8
  42              		.cfi_offset 14, -4
  43 0002 00AF     		add	r7, sp, #0
  44              		.cfi_def_cfa_register 7
  64:.\Generated_Source\PSoC5/UART_TIMER_ISR.c ****     /* For all we know the interrupt is active. */
  65:.\Generated_Source\PSoC5/UART_TIMER_ISR.c ****     UART_TIMER_ISR_Disable();
  45              		.loc 1 65 0
  46 0004 FFF7FEFF 		bl	UART_TIMER_ISR_Disable
  66:.\Generated_Source\PSoC5/UART_TIMER_ISR.c **** 
  67:.\Generated_Source\PSoC5/UART_TIMER_ISR.c ****     /* Set the ISR to point to the UART_TIMER_ISR Interrupt. */
  68:.\Generated_Source\PSoC5/UART_TIMER_ISR.c ****     UART_TIMER_ISR_SetVector(&UART_TIMER_ISR_Interrupt);
ARM GAS  C:\Users\yqh\AppData\Local\Temp\ccxIv92U.s 			page 3


  47              		.loc 1 68 0
  48 0008 0448     		ldr	r0, .L2
  49 000a FFF7FEFF 		bl	UART_TIMER_ISR_SetVector
  69:.\Generated_Source\PSoC5/UART_TIMER_ISR.c **** 
  70:.\Generated_Source\PSoC5/UART_TIMER_ISR.c ****     /* Set the priority. */
  71:.\Generated_Source\PSoC5/UART_TIMER_ISR.c ****     UART_TIMER_ISR_SetPriority((uint8)UART_TIMER_ISR_INTC_PRIOR_NUMBER);
  50              		.loc 1 71 0
  51 000e 0720     		movs	r0, #7
  52 0010 FFF7FEFF 		bl	UART_TIMER_ISR_SetPriority
  72:.\Generated_Source\PSoC5/UART_TIMER_ISR.c **** 
  73:.\Generated_Source\PSoC5/UART_TIMER_ISR.c ****     /* Enable it. */
  74:.\Generated_Source\PSoC5/UART_TIMER_ISR.c ****     UART_TIMER_ISR_Enable();
  53              		.loc 1 74 0
  54 0014 FFF7FEFF 		bl	UART_TIMER_ISR_Enable
  75:.\Generated_Source\PSoC5/UART_TIMER_ISR.c **** }
  55              		.loc 1 75 0
  56 0018 80BD     		pop	{r7, pc}
  57              	.L3:
  58 001a 00BF     		.align	2
  59              	.L2:
  60 001c 00000000 		.word	UART_TIMER_ISR_Interrupt
  61              		.cfi_endproc
  62              	.LFE63:
  63              		.size	UART_TIMER_ISR_Start, .-UART_TIMER_ISR_Start
  64              		.section	.text.UART_TIMER_ISR_StartEx,"ax",%progbits
  65              		.align	2
  66              		.global	UART_TIMER_ISR_StartEx
  67              		.thumb
  68              		.thumb_func
  69              		.type	UART_TIMER_ISR_StartEx, %function
  70              	UART_TIMER_ISR_StartEx:
  71              	.LFB64:
  76:.\Generated_Source\PSoC5/UART_TIMER_ISR.c **** 
  77:.\Generated_Source\PSoC5/UART_TIMER_ISR.c **** 
  78:.\Generated_Source\PSoC5/UART_TIMER_ISR.c **** /*******************************************************************************
  79:.\Generated_Source\PSoC5/UART_TIMER_ISR.c **** * Function Name: UART_TIMER_ISR_StartEx
  80:.\Generated_Source\PSoC5/UART_TIMER_ISR.c **** ********************************************************************************
  81:.\Generated_Source\PSoC5/UART_TIMER_ISR.c **** *
  82:.\Generated_Source\PSoC5/UART_TIMER_ISR.c **** * Summary:
  83:.\Generated_Source\PSoC5/UART_TIMER_ISR.c **** *  Sets up the interrupt and enables it. This function disables the interrupt,
  84:.\Generated_Source\PSoC5/UART_TIMER_ISR.c **** *  sets the interrupt vector based on the address passed in, sets the priority 
  85:.\Generated_Source\PSoC5/UART_TIMER_ISR.c **** *  from the value in the Design Wide Resources Interrupt Editor, then enables 
  86:.\Generated_Source\PSoC5/UART_TIMER_ISR.c **** *  the interrupt to the interrupt controller.
  87:.\Generated_Source\PSoC5/UART_TIMER_ISR.c **** *  
  88:.\Generated_Source\PSoC5/UART_TIMER_ISR.c **** *  When defining ISR functions, the CY_ISR and CY_ISR_PROTO macros should be 
  89:.\Generated_Source\PSoC5/UART_TIMER_ISR.c **** *  used to provide consistent definition across compilers:
  90:.\Generated_Source\PSoC5/UART_TIMER_ISR.c **** *  
  91:.\Generated_Source\PSoC5/UART_TIMER_ISR.c **** *  Function definition example:
  92:.\Generated_Source\PSoC5/UART_TIMER_ISR.c **** *   CY_ISR(MyISR)
  93:.\Generated_Source\PSoC5/UART_TIMER_ISR.c **** *   {
  94:.\Generated_Source\PSoC5/UART_TIMER_ISR.c **** *   }
  95:.\Generated_Source\PSoC5/UART_TIMER_ISR.c **** *   Function prototype example:
  96:.\Generated_Source\PSoC5/UART_TIMER_ISR.c **** *   CY_ISR_PROTO(MyISR);
  97:.\Generated_Source\PSoC5/UART_TIMER_ISR.c **** *
  98:.\Generated_Source\PSoC5/UART_TIMER_ISR.c **** * Parameters:  
  99:.\Generated_Source\PSoC5/UART_TIMER_ISR.c **** *   address: Address of the ISR to set in the interrupt vector table.
 100:.\Generated_Source\PSoC5/UART_TIMER_ISR.c **** *
ARM GAS  C:\Users\yqh\AppData\Local\Temp\ccxIv92U.s 			page 4


 101:.\Generated_Source\PSoC5/UART_TIMER_ISR.c **** * Return:
 102:.\Generated_Source\PSoC5/UART_TIMER_ISR.c **** *   None
 103:.\Generated_Source\PSoC5/UART_TIMER_ISR.c **** *
 104:.\Generated_Source\PSoC5/UART_TIMER_ISR.c **** *******************************************************************************/
 105:.\Generated_Source\PSoC5/UART_TIMER_ISR.c **** void UART_TIMER_ISR_StartEx(cyisraddress address)
 106:.\Generated_Source\PSoC5/UART_TIMER_ISR.c **** {
  72              		.loc 1 106 0
  73              		.cfi_startproc
  74              		@ args = 0, pretend = 0, frame = 8
  75              		@ frame_needed = 1, uses_anonymous_args = 0
  76 0000 80B5     		push	{r7, lr}
  77              		.cfi_def_cfa_offset 8
  78              		.cfi_offset 7, -8
  79              		.cfi_offset 14, -4
  80 0002 82B0     		sub	sp, sp, #8
  81              		.cfi_def_cfa_offset 16
  82 0004 00AF     		add	r7, sp, #0
  83              		.cfi_def_cfa_register 7
  84 0006 7860     		str	r0, [r7, #4]
 107:.\Generated_Source\PSoC5/UART_TIMER_ISR.c ****     /* For all we know the interrupt is active. */
 108:.\Generated_Source\PSoC5/UART_TIMER_ISR.c ****     UART_TIMER_ISR_Disable();
  85              		.loc 1 108 0
  86 0008 FFF7FEFF 		bl	UART_TIMER_ISR_Disable
 109:.\Generated_Source\PSoC5/UART_TIMER_ISR.c **** 
 110:.\Generated_Source\PSoC5/UART_TIMER_ISR.c ****     /* Set the ISR to point to the UART_TIMER_ISR Interrupt. */
 111:.\Generated_Source\PSoC5/UART_TIMER_ISR.c ****     UART_TIMER_ISR_SetVector(address);
  87              		.loc 1 111 0
  88 000c 7868     		ldr	r0, [r7, #4]
  89 000e FFF7FEFF 		bl	UART_TIMER_ISR_SetVector
 112:.\Generated_Source\PSoC5/UART_TIMER_ISR.c **** 
 113:.\Generated_Source\PSoC5/UART_TIMER_ISR.c ****     /* Set the priority. */
 114:.\Generated_Source\PSoC5/UART_TIMER_ISR.c ****     UART_TIMER_ISR_SetPriority((uint8)UART_TIMER_ISR_INTC_PRIOR_NUMBER);
  90              		.loc 1 114 0
  91 0012 0720     		movs	r0, #7
  92 0014 FFF7FEFF 		bl	UART_TIMER_ISR_SetPriority
 115:.\Generated_Source\PSoC5/UART_TIMER_ISR.c **** 
 116:.\Generated_Source\PSoC5/UART_TIMER_ISR.c ****     /* Enable it. */
 117:.\Generated_Source\PSoC5/UART_TIMER_ISR.c ****     UART_TIMER_ISR_Enable();
  93              		.loc 1 117 0
  94 0018 FFF7FEFF 		bl	UART_TIMER_ISR_Enable
 118:.\Generated_Source\PSoC5/UART_TIMER_ISR.c **** }
  95              		.loc 1 118 0
  96 001c 0837     		adds	r7, r7, #8
  97              		.cfi_def_cfa_offset 8
  98 001e BD46     		mov	sp, r7
  99              		.cfi_def_cfa_register 13
 100              		@ sp needed
 101 0020 80BD     		pop	{r7, pc}
 102              		.cfi_endproc
 103              	.LFE64:
 104              		.size	UART_TIMER_ISR_StartEx, .-UART_TIMER_ISR_StartEx
 105 0022 00BF     		.section	.text.UART_TIMER_ISR_Stop,"ax",%progbits
 106              		.align	2
 107              		.global	UART_TIMER_ISR_Stop
 108              		.thumb
 109              		.thumb_func
 110              		.type	UART_TIMER_ISR_Stop, %function
ARM GAS  C:\Users\yqh\AppData\Local\Temp\ccxIv92U.s 			page 5


 111              	UART_TIMER_ISR_Stop:
 112              	.LFB65:
 119:.\Generated_Source\PSoC5/UART_TIMER_ISR.c **** 
 120:.\Generated_Source\PSoC5/UART_TIMER_ISR.c **** 
 121:.\Generated_Source\PSoC5/UART_TIMER_ISR.c **** /*******************************************************************************
 122:.\Generated_Source\PSoC5/UART_TIMER_ISR.c **** * Function Name: UART_TIMER_ISR_Stop
 123:.\Generated_Source\PSoC5/UART_TIMER_ISR.c **** ********************************************************************************
 124:.\Generated_Source\PSoC5/UART_TIMER_ISR.c **** *
 125:.\Generated_Source\PSoC5/UART_TIMER_ISR.c **** * Summary:
 126:.\Generated_Source\PSoC5/UART_TIMER_ISR.c **** *   Disables and removes the interrupt.
 127:.\Generated_Source\PSoC5/UART_TIMER_ISR.c **** *
 128:.\Generated_Source\PSoC5/UART_TIMER_ISR.c **** * Parameters:  
 129:.\Generated_Source\PSoC5/UART_TIMER_ISR.c **** *   None
 130:.\Generated_Source\PSoC5/UART_TIMER_ISR.c **** *
 131:.\Generated_Source\PSoC5/UART_TIMER_ISR.c **** * Return:
 132:.\Generated_Source\PSoC5/UART_TIMER_ISR.c **** *   None
 133:.\Generated_Source\PSoC5/UART_TIMER_ISR.c **** *
 134:.\Generated_Source\PSoC5/UART_TIMER_ISR.c **** *******************************************************************************/
 135:.\Generated_Source\PSoC5/UART_TIMER_ISR.c **** void UART_TIMER_ISR_Stop(void)
 136:.\Generated_Source\PSoC5/UART_TIMER_ISR.c **** {
 113              		.loc 1 136 0
 114              		.cfi_startproc
 115              		@ args = 0, pretend = 0, frame = 0
 116              		@ frame_needed = 1, uses_anonymous_args = 0
 117 0000 80B5     		push	{r7, lr}
 118              		.cfi_def_cfa_offset 8
 119              		.cfi_offset 7, -8
 120              		.cfi_offset 14, -4
 121 0002 00AF     		add	r7, sp, #0
 122              		.cfi_def_cfa_register 7
 137:.\Generated_Source\PSoC5/UART_TIMER_ISR.c ****     /* Disable this interrupt. */
 138:.\Generated_Source\PSoC5/UART_TIMER_ISR.c ****     UART_TIMER_ISR_Disable();
 123              		.loc 1 138 0
 124 0004 FFF7FEFF 		bl	UART_TIMER_ISR_Disable
 139:.\Generated_Source\PSoC5/UART_TIMER_ISR.c **** 
 140:.\Generated_Source\PSoC5/UART_TIMER_ISR.c ****     /* Set the ISR to point to the passive one. */
 141:.\Generated_Source\PSoC5/UART_TIMER_ISR.c ****     UART_TIMER_ISR_SetVector(&IntDefaultHandler);
 125              		.loc 1 141 0
 126 0008 0148     		ldr	r0, .L6
 127 000a FFF7FEFF 		bl	UART_TIMER_ISR_SetVector
 142:.\Generated_Source\PSoC5/UART_TIMER_ISR.c **** }
 128              		.loc 1 142 0
 129 000e 80BD     		pop	{r7, pc}
 130              	.L7:
 131              		.align	2
 132              	.L6:
 133 0010 00000000 		.word	IntDefaultHandler
 134              		.cfi_endproc
 135              	.LFE65:
 136              		.size	UART_TIMER_ISR_Stop, .-UART_TIMER_ISR_Stop
 137              		.section	.text.UART_TIMER_ISR_Interrupt,"ax",%progbits
 138              		.align	2
 139              		.global	UART_TIMER_ISR_Interrupt
 140              		.thumb
 141              		.thumb_func
 142              		.type	UART_TIMER_ISR_Interrupt, %function
 143              	UART_TIMER_ISR_Interrupt:
ARM GAS  C:\Users\yqh\AppData\Local\Temp\ccxIv92U.s 			page 6


 144              	.LFB66:
 143:.\Generated_Source\PSoC5/UART_TIMER_ISR.c **** 
 144:.\Generated_Source\PSoC5/UART_TIMER_ISR.c **** 
 145:.\Generated_Source\PSoC5/UART_TIMER_ISR.c **** /*******************************************************************************
 146:.\Generated_Source\PSoC5/UART_TIMER_ISR.c **** * Function Name: UART_TIMER_ISR_Interrupt
 147:.\Generated_Source\PSoC5/UART_TIMER_ISR.c **** ********************************************************************************
 148:.\Generated_Source\PSoC5/UART_TIMER_ISR.c **** *
 149:.\Generated_Source\PSoC5/UART_TIMER_ISR.c **** * Summary:
 150:.\Generated_Source\PSoC5/UART_TIMER_ISR.c **** *   The default Interrupt Service Routine for UART_TIMER_ISR.
 151:.\Generated_Source\PSoC5/UART_TIMER_ISR.c **** *
 152:.\Generated_Source\PSoC5/UART_TIMER_ISR.c **** *   Add custom code between the coments to keep the next version of this file
 153:.\Generated_Source\PSoC5/UART_TIMER_ISR.c **** *   from over writting your code.
 154:.\Generated_Source\PSoC5/UART_TIMER_ISR.c **** *
 155:.\Generated_Source\PSoC5/UART_TIMER_ISR.c **** * Parameters:  
 156:.\Generated_Source\PSoC5/UART_TIMER_ISR.c **** *
 157:.\Generated_Source\PSoC5/UART_TIMER_ISR.c **** * Return:
 158:.\Generated_Source\PSoC5/UART_TIMER_ISR.c **** *   None
 159:.\Generated_Source\PSoC5/UART_TIMER_ISR.c **** *
 160:.\Generated_Source\PSoC5/UART_TIMER_ISR.c **** *******************************************************************************/
 161:.\Generated_Source\PSoC5/UART_TIMER_ISR.c **** CY_ISR(UART_TIMER_ISR_Interrupt)
 162:.\Generated_Source\PSoC5/UART_TIMER_ISR.c **** {
 145              		.loc 1 162 0
 146              		.cfi_startproc
 147              		@ args = 0, pretend = 0, frame = 0
 148              		@ frame_needed = 1, uses_anonymous_args = 0
 149 0000 80B5     		push	{r7, lr}
 150              		.cfi_def_cfa_offset 8
 151              		.cfi_offset 7, -8
 152              		.cfi_offset 14, -4
 153 0002 00AF     		add	r7, sp, #0
 154              		.cfi_def_cfa_register 7
 163:.\Generated_Source\PSoC5/UART_TIMER_ISR.c ****     #ifdef UART_TIMER_ISR_INTERRUPT_INTERRUPT_CALLBACK
 164:.\Generated_Source\PSoC5/UART_TIMER_ISR.c ****         UART_TIMER_ISR_Interrupt_InterruptCallback();
 165:.\Generated_Source\PSoC5/UART_TIMER_ISR.c ****     #endif /* UART_TIMER_ISR_INTERRUPT_INTERRUPT_CALLBACK */ 
 166:.\Generated_Source\PSoC5/UART_TIMER_ISR.c **** 
 167:.\Generated_Source\PSoC5/UART_TIMER_ISR.c ****     /*  Place your Interrupt code here. */
 168:.\Generated_Source\PSoC5/UART_TIMER_ISR.c ****     /* `#START UART_TIMER_ISR_Interrupt` */
 169:.\Generated_Source\PSoC5/UART_TIMER_ISR.c ****     SU_Isr(&s);
 155              		.loc 1 169 0
 156 0004 0248     		ldr	r0, .L9
 157 0006 FFF7FEFF 		bl	SU_Isr
 170:.\Generated_Source\PSoC5/UART_TIMER_ISR.c ****     UART_TIMER_ReadStatusRegister();
 158              		.loc 1 170 0
 159 000a FFF7FEFF 		bl	UART_TIMER_ReadStatusRegister
 171:.\Generated_Source\PSoC5/UART_TIMER_ISR.c ****     /* `#END` */
 172:.\Generated_Source\PSoC5/UART_TIMER_ISR.c **** }
 160              		.loc 1 172 0
 161 000e 80BD     		pop	{r7, pc}
 162              	.L10:
 163              		.align	2
 164              	.L9:
 165 0010 00000000 		.word	s
 166              		.cfi_endproc
 167              	.LFE66:
 168              		.size	UART_TIMER_ISR_Interrupt, .-UART_TIMER_ISR_Interrupt
 169              		.section	.text.UART_TIMER_ISR_SetVector,"ax",%progbits
 170              		.align	2
ARM GAS  C:\Users\yqh\AppData\Local\Temp\ccxIv92U.s 			page 7


 171              		.global	UART_TIMER_ISR_SetVector
 172              		.thumb
 173              		.thumb_func
 174              		.type	UART_TIMER_ISR_SetVector, %function
 175              	UART_TIMER_ISR_SetVector:
 176              	.LFB67:
 173:.\Generated_Source\PSoC5/UART_TIMER_ISR.c **** 
 174:.\Generated_Source\PSoC5/UART_TIMER_ISR.c **** 
 175:.\Generated_Source\PSoC5/UART_TIMER_ISR.c **** /*******************************************************************************
 176:.\Generated_Source\PSoC5/UART_TIMER_ISR.c **** * Function Name: UART_TIMER_ISR_SetVector
 177:.\Generated_Source\PSoC5/UART_TIMER_ISR.c **** ********************************************************************************
 178:.\Generated_Source\PSoC5/UART_TIMER_ISR.c **** *
 179:.\Generated_Source\PSoC5/UART_TIMER_ISR.c **** * Summary:
 180:.\Generated_Source\PSoC5/UART_TIMER_ISR.c **** *   Change the ISR vector for the Interrupt. Note calling UART_TIMER_ISR_Start
 181:.\Generated_Source\PSoC5/UART_TIMER_ISR.c **** *   will override any effect this method would have had. To set the vector 
 182:.\Generated_Source\PSoC5/UART_TIMER_ISR.c **** *   before the component has been started use UART_TIMER_ISR_StartEx instead.
 183:.\Generated_Source\PSoC5/UART_TIMER_ISR.c **** * 
 184:.\Generated_Source\PSoC5/UART_TIMER_ISR.c **** *   When defining ISR functions, the CY_ISR and CY_ISR_PROTO macros should be 
 185:.\Generated_Source\PSoC5/UART_TIMER_ISR.c **** *   used to provide consistent definition across compilers:
 186:.\Generated_Source\PSoC5/UART_TIMER_ISR.c **** *
 187:.\Generated_Source\PSoC5/UART_TIMER_ISR.c **** *   Function definition example:
 188:.\Generated_Source\PSoC5/UART_TIMER_ISR.c **** *   CY_ISR(MyISR)
 189:.\Generated_Source\PSoC5/UART_TIMER_ISR.c **** *   {
 190:.\Generated_Source\PSoC5/UART_TIMER_ISR.c **** *   }
 191:.\Generated_Source\PSoC5/UART_TIMER_ISR.c **** *
 192:.\Generated_Source\PSoC5/UART_TIMER_ISR.c **** *   Function prototype example:
 193:.\Generated_Source\PSoC5/UART_TIMER_ISR.c **** *     CY_ISR_PROTO(MyISR);
 194:.\Generated_Source\PSoC5/UART_TIMER_ISR.c **** *
 195:.\Generated_Source\PSoC5/UART_TIMER_ISR.c **** * Parameters:
 196:.\Generated_Source\PSoC5/UART_TIMER_ISR.c **** *   address: Address of the ISR to set in the interrupt vector table.
 197:.\Generated_Source\PSoC5/UART_TIMER_ISR.c **** *
 198:.\Generated_Source\PSoC5/UART_TIMER_ISR.c **** * Return:
 199:.\Generated_Source\PSoC5/UART_TIMER_ISR.c **** *   None
 200:.\Generated_Source\PSoC5/UART_TIMER_ISR.c **** *
 201:.\Generated_Source\PSoC5/UART_TIMER_ISR.c **** *******************************************************************************/
 202:.\Generated_Source\PSoC5/UART_TIMER_ISR.c **** void UART_TIMER_ISR_SetVector(cyisraddress address)
 203:.\Generated_Source\PSoC5/UART_TIMER_ISR.c **** {
 177              		.loc 1 203 0
 178              		.cfi_startproc
 179              		@ args = 0, pretend = 0, frame = 16
 180              		@ frame_needed = 1, uses_anonymous_args = 0
 181              		@ link register save eliminated.
 182 0000 80B4     		push	{r7}
 183              		.cfi_def_cfa_offset 4
 184              		.cfi_offset 7, -4
 185 0002 85B0     		sub	sp, sp, #20
 186              		.cfi_def_cfa_offset 24
 187 0004 00AF     		add	r7, sp, #0
 188              		.cfi_def_cfa_register 7
 189 0006 7860     		str	r0, [r7, #4]
 204:.\Generated_Source\PSoC5/UART_TIMER_ISR.c ****     cyisraddress * ramVectorTable;
 205:.\Generated_Source\PSoC5/UART_TIMER_ISR.c **** 
 206:.\Generated_Source\PSoC5/UART_TIMER_ISR.c ****     ramVectorTable = (cyisraddress *) *CYINT_VECT_TABLE;
 190              		.loc 1 206 0
 191 0008 054B     		ldr	r3, .L12
 192 000a 1B68     		ldr	r3, [r3]
 193 000c FB60     		str	r3, [r7, #12]
ARM GAS  C:\Users\yqh\AppData\Local\Temp\ccxIv92U.s 			page 8


 207:.\Generated_Source\PSoC5/UART_TIMER_ISR.c **** 
 208:.\Generated_Source\PSoC5/UART_TIMER_ISR.c ****     ramVectorTable[CYINT_IRQ_BASE + (uint32)UART_TIMER_ISR__INTC_NUMBER] = address;
 194              		.loc 1 208 0
 195 000e FB68     		ldr	r3, [r7, #12]
 196 0010 8C33     		adds	r3, r3, #140
 197 0012 7A68     		ldr	r2, [r7, #4]
 198 0014 1A60     		str	r2, [r3]
 209:.\Generated_Source\PSoC5/UART_TIMER_ISR.c **** }
 199              		.loc 1 209 0
 200 0016 1437     		adds	r7, r7, #20
 201              		.cfi_def_cfa_offset 4
 202 0018 BD46     		mov	sp, r7
 203              		.cfi_def_cfa_register 13
 204              		@ sp needed
 205 001a 5DF8047B 		ldr	r7, [sp], #4
 206              		.cfi_restore 7
 207              		.cfi_def_cfa_offset 0
 208 001e 7047     		bx	lr
 209              	.L13:
 210              		.align	2
 211              	.L12:
 212 0020 08ED00E0 		.word	-536810232
 213              		.cfi_endproc
 214              	.LFE67:
 215              		.size	UART_TIMER_ISR_SetVector, .-UART_TIMER_ISR_SetVector
 216              		.section	.text.UART_TIMER_ISR_GetVector,"ax",%progbits
 217              		.align	2
 218              		.global	UART_TIMER_ISR_GetVector
 219              		.thumb
 220              		.thumb_func
 221              		.type	UART_TIMER_ISR_GetVector, %function
 222              	UART_TIMER_ISR_GetVector:
 223              	.LFB68:
 210:.\Generated_Source\PSoC5/UART_TIMER_ISR.c **** 
 211:.\Generated_Source\PSoC5/UART_TIMER_ISR.c **** 
 212:.\Generated_Source\PSoC5/UART_TIMER_ISR.c **** /*******************************************************************************
 213:.\Generated_Source\PSoC5/UART_TIMER_ISR.c **** * Function Name: UART_TIMER_ISR_GetVector
 214:.\Generated_Source\PSoC5/UART_TIMER_ISR.c **** ********************************************************************************
 215:.\Generated_Source\PSoC5/UART_TIMER_ISR.c **** *
 216:.\Generated_Source\PSoC5/UART_TIMER_ISR.c **** * Summary:
 217:.\Generated_Source\PSoC5/UART_TIMER_ISR.c **** *   Gets the "address" of the current ISR vector for the Interrupt.
 218:.\Generated_Source\PSoC5/UART_TIMER_ISR.c **** *
 219:.\Generated_Source\PSoC5/UART_TIMER_ISR.c **** * Parameters:
 220:.\Generated_Source\PSoC5/UART_TIMER_ISR.c **** *   None
 221:.\Generated_Source\PSoC5/UART_TIMER_ISR.c **** *
 222:.\Generated_Source\PSoC5/UART_TIMER_ISR.c **** * Return:
 223:.\Generated_Source\PSoC5/UART_TIMER_ISR.c **** *   Address of the ISR in the interrupt vector table.
 224:.\Generated_Source\PSoC5/UART_TIMER_ISR.c **** *
 225:.\Generated_Source\PSoC5/UART_TIMER_ISR.c **** *******************************************************************************/
 226:.\Generated_Source\PSoC5/UART_TIMER_ISR.c **** cyisraddress UART_TIMER_ISR_GetVector(void)
 227:.\Generated_Source\PSoC5/UART_TIMER_ISR.c **** {
 224              		.loc 1 227 0
 225              		.cfi_startproc
 226              		@ args = 0, pretend = 0, frame = 8
 227              		@ frame_needed = 1, uses_anonymous_args = 0
 228              		@ link register save eliminated.
 229 0000 80B4     		push	{r7}
ARM GAS  C:\Users\yqh\AppData\Local\Temp\ccxIv92U.s 			page 9


 230              		.cfi_def_cfa_offset 4
 231              		.cfi_offset 7, -4
 232 0002 83B0     		sub	sp, sp, #12
 233              		.cfi_def_cfa_offset 16
 234 0004 00AF     		add	r7, sp, #0
 235              		.cfi_def_cfa_register 7
 228:.\Generated_Source\PSoC5/UART_TIMER_ISR.c ****     cyisraddress * ramVectorTable;
 229:.\Generated_Source\PSoC5/UART_TIMER_ISR.c **** 
 230:.\Generated_Source\PSoC5/UART_TIMER_ISR.c ****     ramVectorTable = (cyisraddress *) *CYINT_VECT_TABLE;
 236              		.loc 1 230 0
 237 0006 064B     		ldr	r3, .L16
 238 0008 1B68     		ldr	r3, [r3]
 239 000a 7B60     		str	r3, [r7, #4]
 231:.\Generated_Source\PSoC5/UART_TIMER_ISR.c **** 
 232:.\Generated_Source\PSoC5/UART_TIMER_ISR.c ****     return ramVectorTable[CYINT_IRQ_BASE + (uint32)UART_TIMER_ISR__INTC_NUMBER];
 240              		.loc 1 232 0
 241 000c 7B68     		ldr	r3, [r7, #4]
 242 000e D3F88C30 		ldr	r3, [r3, #140]
 233:.\Generated_Source\PSoC5/UART_TIMER_ISR.c **** }
 243              		.loc 1 233 0
 244 0012 1846     		mov	r0, r3
 245 0014 0C37     		adds	r7, r7, #12
 246              		.cfi_def_cfa_offset 4
 247 0016 BD46     		mov	sp, r7
 248              		.cfi_def_cfa_register 13
 249              		@ sp needed
 250 0018 5DF8047B 		ldr	r7, [sp], #4
 251              		.cfi_restore 7
 252              		.cfi_def_cfa_offset 0
 253 001c 7047     		bx	lr
 254              	.L17:
 255 001e 00BF     		.align	2
 256              	.L16:
 257 0020 08ED00E0 		.word	-536810232
 258              		.cfi_endproc
 259              	.LFE68:
 260              		.size	UART_TIMER_ISR_GetVector, .-UART_TIMER_ISR_GetVector
 261              		.section	.text.UART_TIMER_ISR_SetPriority,"ax",%progbits
 262              		.align	2
 263              		.global	UART_TIMER_ISR_SetPriority
 264              		.thumb
 265              		.thumb_func
 266              		.type	UART_TIMER_ISR_SetPriority, %function
 267              	UART_TIMER_ISR_SetPriority:
 268              	.LFB69:
 234:.\Generated_Source\PSoC5/UART_TIMER_ISR.c **** 
 235:.\Generated_Source\PSoC5/UART_TIMER_ISR.c **** 
 236:.\Generated_Source\PSoC5/UART_TIMER_ISR.c **** /*******************************************************************************
 237:.\Generated_Source\PSoC5/UART_TIMER_ISR.c **** * Function Name: UART_TIMER_ISR_SetPriority
 238:.\Generated_Source\PSoC5/UART_TIMER_ISR.c **** ********************************************************************************
 239:.\Generated_Source\PSoC5/UART_TIMER_ISR.c **** *
 240:.\Generated_Source\PSoC5/UART_TIMER_ISR.c **** * Summary:
 241:.\Generated_Source\PSoC5/UART_TIMER_ISR.c **** *   Sets the Priority of the Interrupt. 
 242:.\Generated_Source\PSoC5/UART_TIMER_ISR.c **** *
 243:.\Generated_Source\PSoC5/UART_TIMER_ISR.c **** *   Note calling UART_TIMER_ISR_Start or UART_TIMER_ISR_StartEx will 
 244:.\Generated_Source\PSoC5/UART_TIMER_ISR.c **** *   override any effect this API would have had. This API should only be called
 245:.\Generated_Source\PSoC5/UART_TIMER_ISR.c **** *   after UART_TIMER_ISR_Start or UART_TIMER_ISR_StartEx has been called. 
ARM GAS  C:\Users\yqh\AppData\Local\Temp\ccxIv92U.s 			page 10


 246:.\Generated_Source\PSoC5/UART_TIMER_ISR.c **** *   To set the initial priority for the component, use the Design-Wide Resources
 247:.\Generated_Source\PSoC5/UART_TIMER_ISR.c **** *   Interrupt Editor.
 248:.\Generated_Source\PSoC5/UART_TIMER_ISR.c **** *
 249:.\Generated_Source\PSoC5/UART_TIMER_ISR.c **** *   Note This API has no effect on Non-maskable interrupt NMI).
 250:.\Generated_Source\PSoC5/UART_TIMER_ISR.c **** *
 251:.\Generated_Source\PSoC5/UART_TIMER_ISR.c **** * Parameters:
 252:.\Generated_Source\PSoC5/UART_TIMER_ISR.c **** *   priority: Priority of the interrupt, 0 being the highest priority
 253:.\Generated_Source\PSoC5/UART_TIMER_ISR.c **** *             PSoC 3 and PSoC 5LP: Priority is from 0 to 7.
 254:.\Generated_Source\PSoC5/UART_TIMER_ISR.c **** *             PSoC 4: Priority is from 0 to 3.
 255:.\Generated_Source\PSoC5/UART_TIMER_ISR.c **** *
 256:.\Generated_Source\PSoC5/UART_TIMER_ISR.c **** * Return:
 257:.\Generated_Source\PSoC5/UART_TIMER_ISR.c **** *   None
 258:.\Generated_Source\PSoC5/UART_TIMER_ISR.c **** *
 259:.\Generated_Source\PSoC5/UART_TIMER_ISR.c **** *******************************************************************************/
 260:.\Generated_Source\PSoC5/UART_TIMER_ISR.c **** void UART_TIMER_ISR_SetPriority(uint8 priority)
 261:.\Generated_Source\PSoC5/UART_TIMER_ISR.c **** {
 269              		.loc 1 261 0
 270              		.cfi_startproc
 271              		@ args = 0, pretend = 0, frame = 8
 272              		@ frame_needed = 1, uses_anonymous_args = 0
 273              		@ link register save eliminated.
 274 0000 80B4     		push	{r7}
 275              		.cfi_def_cfa_offset 4
 276              		.cfi_offset 7, -4
 277 0002 83B0     		sub	sp, sp, #12
 278              		.cfi_def_cfa_offset 16
 279 0004 00AF     		add	r7, sp, #0
 280              		.cfi_def_cfa_register 7
 281 0006 0346     		mov	r3, r0
 282 0008 FB71     		strb	r3, [r7, #7]
 262:.\Generated_Source\PSoC5/UART_TIMER_ISR.c ****     *UART_TIMER_ISR_INTC_PRIOR = priority << 5;
 283              		.loc 1 262 0
 284 000a 054A     		ldr	r2, .L19
 285 000c FB79     		ldrb	r3, [r7, #7]
 286 000e 5B01     		lsls	r3, r3, #5
 287 0010 DBB2     		uxtb	r3, r3
 288 0012 1370     		strb	r3, [r2]
 263:.\Generated_Source\PSoC5/UART_TIMER_ISR.c **** }
 289              		.loc 1 263 0
 290 0014 0C37     		adds	r7, r7, #12
 291              		.cfi_def_cfa_offset 4
 292 0016 BD46     		mov	sp, r7
 293              		.cfi_def_cfa_register 13
 294              		@ sp needed
 295 0018 5DF8047B 		ldr	r7, [sp], #4
 296              		.cfi_restore 7
 297              		.cfi_def_cfa_offset 0
 298 001c 7047     		bx	lr
 299              	.L20:
 300 001e 00BF     		.align	2
 301              	.L19:
 302 0020 13E400E0 		.word	-536812525
 303              		.cfi_endproc
 304              	.LFE69:
 305              		.size	UART_TIMER_ISR_SetPriority, .-UART_TIMER_ISR_SetPriority
 306              		.section	.text.UART_TIMER_ISR_GetPriority,"ax",%progbits
 307              		.align	2
ARM GAS  C:\Users\yqh\AppData\Local\Temp\ccxIv92U.s 			page 11


 308              		.global	UART_TIMER_ISR_GetPriority
 309              		.thumb
 310              		.thumb_func
 311              		.type	UART_TIMER_ISR_GetPriority, %function
 312              	UART_TIMER_ISR_GetPriority:
 313              	.LFB70:
 264:.\Generated_Source\PSoC5/UART_TIMER_ISR.c **** 
 265:.\Generated_Source\PSoC5/UART_TIMER_ISR.c **** 
 266:.\Generated_Source\PSoC5/UART_TIMER_ISR.c **** /*******************************************************************************
 267:.\Generated_Source\PSoC5/UART_TIMER_ISR.c **** * Function Name: UART_TIMER_ISR_GetPriority
 268:.\Generated_Source\PSoC5/UART_TIMER_ISR.c **** ********************************************************************************
 269:.\Generated_Source\PSoC5/UART_TIMER_ISR.c **** *
 270:.\Generated_Source\PSoC5/UART_TIMER_ISR.c **** * Summary:
 271:.\Generated_Source\PSoC5/UART_TIMER_ISR.c **** *   Gets the Priority of the Interrupt.
 272:.\Generated_Source\PSoC5/UART_TIMER_ISR.c **** *
 273:.\Generated_Source\PSoC5/UART_TIMER_ISR.c **** * Parameters:
 274:.\Generated_Source\PSoC5/UART_TIMER_ISR.c **** *   None
 275:.\Generated_Source\PSoC5/UART_TIMER_ISR.c **** *
 276:.\Generated_Source\PSoC5/UART_TIMER_ISR.c **** * Return:
 277:.\Generated_Source\PSoC5/UART_TIMER_ISR.c **** *   Priority of the interrupt, 0 being the highest priority
 278:.\Generated_Source\PSoC5/UART_TIMER_ISR.c **** *    PSoC 3 and PSoC 5LP: Priority is from 0 to 7.
 279:.\Generated_Source\PSoC5/UART_TIMER_ISR.c **** *    PSoC 4: Priority is from 0 to 3.
 280:.\Generated_Source\PSoC5/UART_TIMER_ISR.c **** *
 281:.\Generated_Source\PSoC5/UART_TIMER_ISR.c **** *******************************************************************************/
 282:.\Generated_Source\PSoC5/UART_TIMER_ISR.c **** uint8 UART_TIMER_ISR_GetPriority(void)
 283:.\Generated_Source\PSoC5/UART_TIMER_ISR.c **** {
 314              		.loc 1 283 0
 315              		.cfi_startproc
 316              		@ args = 0, pretend = 0, frame = 8
 317              		@ frame_needed = 1, uses_anonymous_args = 0
 318              		@ link register save eliminated.
 319 0000 80B4     		push	{r7}
 320              		.cfi_def_cfa_offset 4
 321              		.cfi_offset 7, -4
 322 0002 83B0     		sub	sp, sp, #12
 323              		.cfi_def_cfa_offset 16
 324 0004 00AF     		add	r7, sp, #0
 325              		.cfi_def_cfa_register 7
 284:.\Generated_Source\PSoC5/UART_TIMER_ISR.c ****     uint8 priority;
 285:.\Generated_Source\PSoC5/UART_TIMER_ISR.c **** 
 286:.\Generated_Source\PSoC5/UART_TIMER_ISR.c **** 
 287:.\Generated_Source\PSoC5/UART_TIMER_ISR.c ****     priority = *UART_TIMER_ISR_INTC_PRIOR >> 5;
 326              		.loc 1 287 0
 327 0006 064B     		ldr	r3, .L23
 328 0008 1B78     		ldrb	r3, [r3]
 329 000a DBB2     		uxtb	r3, r3
 330 000c 5B09     		lsrs	r3, r3, #5
 331 000e FB71     		strb	r3, [r7, #7]
 288:.\Generated_Source\PSoC5/UART_TIMER_ISR.c **** 
 289:.\Generated_Source\PSoC5/UART_TIMER_ISR.c ****     return priority;
 332              		.loc 1 289 0
 333 0010 FB79     		ldrb	r3, [r7, #7]	@ zero_extendqisi2
 290:.\Generated_Source\PSoC5/UART_TIMER_ISR.c **** }
 334              		.loc 1 290 0
 335 0012 1846     		mov	r0, r3
 336 0014 0C37     		adds	r7, r7, #12
 337              		.cfi_def_cfa_offset 4
ARM GAS  C:\Users\yqh\AppData\Local\Temp\ccxIv92U.s 			page 12


 338 0016 BD46     		mov	sp, r7
 339              		.cfi_def_cfa_register 13
 340              		@ sp needed
 341 0018 5DF8047B 		ldr	r7, [sp], #4
 342              		.cfi_restore 7
 343              		.cfi_def_cfa_offset 0
 344 001c 7047     		bx	lr
 345              	.L24:
 346 001e 00BF     		.align	2
 347              	.L23:
 348 0020 13E400E0 		.word	-536812525
 349              		.cfi_endproc
 350              	.LFE70:
 351              		.size	UART_TIMER_ISR_GetPriority, .-UART_TIMER_ISR_GetPriority
 352              		.section	.text.UART_TIMER_ISR_Enable,"ax",%progbits
 353              		.align	2
 354              		.global	UART_TIMER_ISR_Enable
 355              		.thumb
 356              		.thumb_func
 357              		.type	UART_TIMER_ISR_Enable, %function
 358              	UART_TIMER_ISR_Enable:
 359              	.LFB71:
 291:.\Generated_Source\PSoC5/UART_TIMER_ISR.c **** 
 292:.\Generated_Source\PSoC5/UART_TIMER_ISR.c **** 
 293:.\Generated_Source\PSoC5/UART_TIMER_ISR.c **** /*******************************************************************************
 294:.\Generated_Source\PSoC5/UART_TIMER_ISR.c **** * Function Name: UART_TIMER_ISR_Enable
 295:.\Generated_Source\PSoC5/UART_TIMER_ISR.c **** ********************************************************************************
 296:.\Generated_Source\PSoC5/UART_TIMER_ISR.c **** *
 297:.\Generated_Source\PSoC5/UART_TIMER_ISR.c **** * Summary:
 298:.\Generated_Source\PSoC5/UART_TIMER_ISR.c **** *   Enables the interrupt to the interrupt controller. Do not call this function
 299:.\Generated_Source\PSoC5/UART_TIMER_ISR.c **** *   unless ISR_Start() has been called or the functionality of the ISR_Start() 
 300:.\Generated_Source\PSoC5/UART_TIMER_ISR.c **** *   function, which sets the vector and the priority, has been called.
 301:.\Generated_Source\PSoC5/UART_TIMER_ISR.c **** *
 302:.\Generated_Source\PSoC5/UART_TIMER_ISR.c **** * Parameters:
 303:.\Generated_Source\PSoC5/UART_TIMER_ISR.c **** *   None
 304:.\Generated_Source\PSoC5/UART_TIMER_ISR.c **** *
 305:.\Generated_Source\PSoC5/UART_TIMER_ISR.c **** * Return:
 306:.\Generated_Source\PSoC5/UART_TIMER_ISR.c **** *   None
 307:.\Generated_Source\PSoC5/UART_TIMER_ISR.c **** *
 308:.\Generated_Source\PSoC5/UART_TIMER_ISR.c **** *******************************************************************************/
 309:.\Generated_Source\PSoC5/UART_TIMER_ISR.c **** void UART_TIMER_ISR_Enable(void)
 310:.\Generated_Source\PSoC5/UART_TIMER_ISR.c **** {
 360              		.loc 1 310 0
 361              		.cfi_startproc
 362              		@ args = 0, pretend = 0, frame = 0
 363              		@ frame_needed = 1, uses_anonymous_args = 0
 364              		@ link register save eliminated.
 365 0000 80B4     		push	{r7}
 366              		.cfi_def_cfa_offset 4
 367              		.cfi_offset 7, -4
 368 0002 00AF     		add	r7, sp, #0
 369              		.cfi_def_cfa_register 7
 311:.\Generated_Source\PSoC5/UART_TIMER_ISR.c ****     /* Enable the general interrupt. */
 312:.\Generated_Source\PSoC5/UART_TIMER_ISR.c ****     *UART_TIMER_ISR_INTC_SET_EN = UART_TIMER_ISR__INTC_MASK;
 370              		.loc 1 312 0
 371 0004 034B     		ldr	r3, .L26
 372 0006 4FF40022 		mov	r2, #524288
ARM GAS  C:\Users\yqh\AppData\Local\Temp\ccxIv92U.s 			page 13


 373 000a 1A60     		str	r2, [r3]
 313:.\Generated_Source\PSoC5/UART_TIMER_ISR.c **** }
 374              		.loc 1 313 0
 375 000c BD46     		mov	sp, r7
 376              		.cfi_def_cfa_register 13
 377              		@ sp needed
 378 000e 5DF8047B 		ldr	r7, [sp], #4
 379              		.cfi_restore 7
 380              		.cfi_def_cfa_offset 0
 381 0012 7047     		bx	lr
 382              	.L27:
 383              		.align	2
 384              	.L26:
 385 0014 00E100E0 		.word	-536813312
 386              		.cfi_endproc
 387              	.LFE71:
 388              		.size	UART_TIMER_ISR_Enable, .-UART_TIMER_ISR_Enable
 389              		.section	.text.UART_TIMER_ISR_GetState,"ax",%progbits
 390              		.align	2
 391              		.global	UART_TIMER_ISR_GetState
 392              		.thumb
 393              		.thumb_func
 394              		.type	UART_TIMER_ISR_GetState, %function
 395              	UART_TIMER_ISR_GetState:
 396              	.LFB72:
 314:.\Generated_Source\PSoC5/UART_TIMER_ISR.c **** 
 315:.\Generated_Source\PSoC5/UART_TIMER_ISR.c **** 
 316:.\Generated_Source\PSoC5/UART_TIMER_ISR.c **** /*******************************************************************************
 317:.\Generated_Source\PSoC5/UART_TIMER_ISR.c **** * Function Name: UART_TIMER_ISR_GetState
 318:.\Generated_Source\PSoC5/UART_TIMER_ISR.c **** ********************************************************************************
 319:.\Generated_Source\PSoC5/UART_TIMER_ISR.c **** *
 320:.\Generated_Source\PSoC5/UART_TIMER_ISR.c **** * Summary:
 321:.\Generated_Source\PSoC5/UART_TIMER_ISR.c **** *   Gets the state (enabled, disabled) of the Interrupt.
 322:.\Generated_Source\PSoC5/UART_TIMER_ISR.c **** *
 323:.\Generated_Source\PSoC5/UART_TIMER_ISR.c **** * Parameters:
 324:.\Generated_Source\PSoC5/UART_TIMER_ISR.c **** *   None
 325:.\Generated_Source\PSoC5/UART_TIMER_ISR.c **** *
 326:.\Generated_Source\PSoC5/UART_TIMER_ISR.c **** * Return:
 327:.\Generated_Source\PSoC5/UART_TIMER_ISR.c **** *   1 if enabled, 0 if disabled.
 328:.\Generated_Source\PSoC5/UART_TIMER_ISR.c **** *
 329:.\Generated_Source\PSoC5/UART_TIMER_ISR.c **** *******************************************************************************/
 330:.\Generated_Source\PSoC5/UART_TIMER_ISR.c **** uint8 UART_TIMER_ISR_GetState(void)
 331:.\Generated_Source\PSoC5/UART_TIMER_ISR.c **** {
 397              		.loc 1 331 0
 398              		.cfi_startproc
 399              		@ args = 0, pretend = 0, frame = 0
 400              		@ frame_needed = 1, uses_anonymous_args = 0
 401              		@ link register save eliminated.
 402 0000 80B4     		push	{r7}
 403              		.cfi_def_cfa_offset 4
 404              		.cfi_offset 7, -4
 405 0002 00AF     		add	r7, sp, #0
 406              		.cfi_def_cfa_register 7
 332:.\Generated_Source\PSoC5/UART_TIMER_ISR.c ****     /* Get the state of the general interrupt. */
 333:.\Generated_Source\PSoC5/UART_TIMER_ISR.c ****     return ((*UART_TIMER_ISR_INTC_SET_EN & (uint32)UART_TIMER_ISR__INTC_MASK) != 0u) ? 1u:0u;
 407              		.loc 1 333 0
 408 0004 064B     		ldr	r3, .L32
ARM GAS  C:\Users\yqh\AppData\Local\Temp\ccxIv92U.s 			page 14


 409 0006 1B68     		ldr	r3, [r3]
 410 0008 03F40023 		and	r3, r3, #524288
 411 000c 002B     		cmp	r3, #0
 412 000e 01D0     		beq	.L29
 413              		.loc 1 333 0 is_stmt 0 discriminator 1
 414 0010 0123     		movs	r3, #1
 415 0012 00E0     		b	.L30
 416              	.L29:
 417              		.loc 1 333 0 discriminator 2
 418 0014 0023     		movs	r3, #0
 419              	.L30:
 334:.\Generated_Source\PSoC5/UART_TIMER_ISR.c **** }
 420              		.loc 1 334 0 is_stmt 1 discriminator 4
 421 0016 1846     		mov	r0, r3
 422 0018 BD46     		mov	sp, r7
 423              		.cfi_def_cfa_register 13
 424              		@ sp needed
 425 001a 5DF8047B 		ldr	r7, [sp], #4
 426              		.cfi_restore 7
 427              		.cfi_def_cfa_offset 0
 428 001e 7047     		bx	lr
 429              	.L33:
 430              		.align	2
 431              	.L32:
 432 0020 00E100E0 		.word	-536813312
 433              		.cfi_endproc
 434              	.LFE72:
 435              		.size	UART_TIMER_ISR_GetState, .-UART_TIMER_ISR_GetState
 436              		.section	.text.UART_TIMER_ISR_Disable,"ax",%progbits
 437              		.align	2
 438              		.global	UART_TIMER_ISR_Disable
 439              		.thumb
 440              		.thumb_func
 441              		.type	UART_TIMER_ISR_Disable, %function
 442              	UART_TIMER_ISR_Disable:
 443              	.LFB73:
 335:.\Generated_Source\PSoC5/UART_TIMER_ISR.c **** 
 336:.\Generated_Source\PSoC5/UART_TIMER_ISR.c **** 
 337:.\Generated_Source\PSoC5/UART_TIMER_ISR.c **** /*******************************************************************************
 338:.\Generated_Source\PSoC5/UART_TIMER_ISR.c **** * Function Name: UART_TIMER_ISR_Disable
 339:.\Generated_Source\PSoC5/UART_TIMER_ISR.c **** ********************************************************************************
 340:.\Generated_Source\PSoC5/UART_TIMER_ISR.c **** *
 341:.\Generated_Source\PSoC5/UART_TIMER_ISR.c **** * Summary:
 342:.\Generated_Source\PSoC5/UART_TIMER_ISR.c **** *   Disables the Interrupt in the interrupt controller.
 343:.\Generated_Source\PSoC5/UART_TIMER_ISR.c **** *
 344:.\Generated_Source\PSoC5/UART_TIMER_ISR.c **** * Parameters:
 345:.\Generated_Source\PSoC5/UART_TIMER_ISR.c **** *   None
 346:.\Generated_Source\PSoC5/UART_TIMER_ISR.c **** *
 347:.\Generated_Source\PSoC5/UART_TIMER_ISR.c **** * Return:
 348:.\Generated_Source\PSoC5/UART_TIMER_ISR.c **** *   None
 349:.\Generated_Source\PSoC5/UART_TIMER_ISR.c **** *
 350:.\Generated_Source\PSoC5/UART_TIMER_ISR.c **** *******************************************************************************/
 351:.\Generated_Source\PSoC5/UART_TIMER_ISR.c **** void UART_TIMER_ISR_Disable(void)
 352:.\Generated_Source\PSoC5/UART_TIMER_ISR.c **** {
 444              		.loc 1 352 0
 445              		.cfi_startproc
 446              		@ args = 0, pretend = 0, frame = 0
ARM GAS  C:\Users\yqh\AppData\Local\Temp\ccxIv92U.s 			page 15


 447              		@ frame_needed = 1, uses_anonymous_args = 0
 448              		@ link register save eliminated.
 449 0000 80B4     		push	{r7}
 450              		.cfi_def_cfa_offset 4
 451              		.cfi_offset 7, -4
 452 0002 00AF     		add	r7, sp, #0
 453              		.cfi_def_cfa_register 7
 353:.\Generated_Source\PSoC5/UART_TIMER_ISR.c ****     /* Disable the general interrupt. */
 354:.\Generated_Source\PSoC5/UART_TIMER_ISR.c ****     *UART_TIMER_ISR_INTC_CLR_EN = UART_TIMER_ISR__INTC_MASK;
 454              		.loc 1 354 0
 455 0004 034B     		ldr	r3, .L35
 456 0006 4FF40022 		mov	r2, #524288
 457 000a 1A60     		str	r2, [r3]
 355:.\Generated_Source\PSoC5/UART_TIMER_ISR.c **** }
 458              		.loc 1 355 0
 459 000c BD46     		mov	sp, r7
 460              		.cfi_def_cfa_register 13
 461              		@ sp needed
 462 000e 5DF8047B 		ldr	r7, [sp], #4
 463              		.cfi_restore 7
 464              		.cfi_def_cfa_offset 0
 465 0012 7047     		bx	lr
 466              	.L36:
 467              		.align	2
 468              	.L35:
 469 0014 80E100E0 		.word	-536813184
 470              		.cfi_endproc
 471              	.LFE73:
 472              		.size	UART_TIMER_ISR_Disable, .-UART_TIMER_ISR_Disable
 473              		.section	.text.UART_TIMER_ISR_SetPending,"ax",%progbits
 474              		.align	2
 475              		.global	UART_TIMER_ISR_SetPending
 476              		.thumb
 477              		.thumb_func
 478              		.type	UART_TIMER_ISR_SetPending, %function
 479              	UART_TIMER_ISR_SetPending:
 480              	.LFB74:
 356:.\Generated_Source\PSoC5/UART_TIMER_ISR.c **** 
 357:.\Generated_Source\PSoC5/UART_TIMER_ISR.c **** 
 358:.\Generated_Source\PSoC5/UART_TIMER_ISR.c **** /*******************************************************************************
 359:.\Generated_Source\PSoC5/UART_TIMER_ISR.c **** * Function Name: UART_TIMER_ISR_SetPending
 360:.\Generated_Source\PSoC5/UART_TIMER_ISR.c **** ********************************************************************************
 361:.\Generated_Source\PSoC5/UART_TIMER_ISR.c **** *
 362:.\Generated_Source\PSoC5/UART_TIMER_ISR.c **** * Summary:
 363:.\Generated_Source\PSoC5/UART_TIMER_ISR.c **** *   Causes the Interrupt to enter the pending state, a software method of
 364:.\Generated_Source\PSoC5/UART_TIMER_ISR.c **** *   generating the interrupt.
 365:.\Generated_Source\PSoC5/UART_TIMER_ISR.c **** *
 366:.\Generated_Source\PSoC5/UART_TIMER_ISR.c **** * Parameters:
 367:.\Generated_Source\PSoC5/UART_TIMER_ISR.c **** *   None
 368:.\Generated_Source\PSoC5/UART_TIMER_ISR.c **** *
 369:.\Generated_Source\PSoC5/UART_TIMER_ISR.c **** * Return:
 370:.\Generated_Source\PSoC5/UART_TIMER_ISR.c **** *   None
 371:.\Generated_Source\PSoC5/UART_TIMER_ISR.c **** *
 372:.\Generated_Source\PSoC5/UART_TIMER_ISR.c **** * Side Effects:
 373:.\Generated_Source\PSoC5/UART_TIMER_ISR.c **** *   If interrupts are enabled and the interrupt is set up properly, the ISR is
 374:.\Generated_Source\PSoC5/UART_TIMER_ISR.c **** *   entered (depending on the priority of this interrupt and other pending 
 375:.\Generated_Source\PSoC5/UART_TIMER_ISR.c **** *   interrupts).
ARM GAS  C:\Users\yqh\AppData\Local\Temp\ccxIv92U.s 			page 16


 376:.\Generated_Source\PSoC5/UART_TIMER_ISR.c **** *
 377:.\Generated_Source\PSoC5/UART_TIMER_ISR.c **** *******************************************************************************/
 378:.\Generated_Source\PSoC5/UART_TIMER_ISR.c **** void UART_TIMER_ISR_SetPending(void)
 379:.\Generated_Source\PSoC5/UART_TIMER_ISR.c **** {
 481              		.loc 1 379 0
 482              		.cfi_startproc
 483              		@ args = 0, pretend = 0, frame = 0
 484              		@ frame_needed = 1, uses_anonymous_args = 0
 485              		@ link register save eliminated.
 486 0000 80B4     		push	{r7}
 487              		.cfi_def_cfa_offset 4
 488              		.cfi_offset 7, -4
 489 0002 00AF     		add	r7, sp, #0
 490              		.cfi_def_cfa_register 7
 380:.\Generated_Source\PSoC5/UART_TIMER_ISR.c ****     *UART_TIMER_ISR_INTC_SET_PD = UART_TIMER_ISR__INTC_MASK;
 491              		.loc 1 380 0
 492 0004 034B     		ldr	r3, .L38
 493 0006 4FF40022 		mov	r2, #524288
 494 000a 1A60     		str	r2, [r3]
 381:.\Generated_Source\PSoC5/UART_TIMER_ISR.c **** }
 495              		.loc 1 381 0
 496 000c BD46     		mov	sp, r7
 497              		.cfi_def_cfa_register 13
 498              		@ sp needed
 499 000e 5DF8047B 		ldr	r7, [sp], #4
 500              		.cfi_restore 7
 501              		.cfi_def_cfa_offset 0
 502 0012 7047     		bx	lr
 503              	.L39:
 504              		.align	2
 505              	.L38:
 506 0014 00E200E0 		.word	-536813056
 507              		.cfi_endproc
 508              	.LFE74:
 509              		.size	UART_TIMER_ISR_SetPending, .-UART_TIMER_ISR_SetPending
 510              		.section	.text.UART_TIMER_ISR_ClearPending,"ax",%progbits
 511              		.align	2
 512              		.global	UART_TIMER_ISR_ClearPending
 513              		.thumb
 514              		.thumb_func
 515              		.type	UART_TIMER_ISR_ClearPending, %function
 516              	UART_TIMER_ISR_ClearPending:
 517              	.LFB75:
 382:.\Generated_Source\PSoC5/UART_TIMER_ISR.c **** 
 383:.\Generated_Source\PSoC5/UART_TIMER_ISR.c **** 
 384:.\Generated_Source\PSoC5/UART_TIMER_ISR.c **** /*******************************************************************************
 385:.\Generated_Source\PSoC5/UART_TIMER_ISR.c **** * Function Name: UART_TIMER_ISR_ClearPending
 386:.\Generated_Source\PSoC5/UART_TIMER_ISR.c **** ********************************************************************************
 387:.\Generated_Source\PSoC5/UART_TIMER_ISR.c **** *
 388:.\Generated_Source\PSoC5/UART_TIMER_ISR.c **** * Summary:
 389:.\Generated_Source\PSoC5/UART_TIMER_ISR.c **** *   Clears a pending interrupt in the interrupt controller.
 390:.\Generated_Source\PSoC5/UART_TIMER_ISR.c **** *
 391:.\Generated_Source\PSoC5/UART_TIMER_ISR.c **** *   Note Some interrupt sources are clear-on-read and require the block 
 392:.\Generated_Source\PSoC5/UART_TIMER_ISR.c **** *   interrupt/status register to be read/cleared with the appropriate block API 
 393:.\Generated_Source\PSoC5/UART_TIMER_ISR.c **** *   (GPIO, UART, and so on). Otherwise the ISR will continue to remain in 
 394:.\Generated_Source\PSoC5/UART_TIMER_ISR.c **** *   pending state even though the interrupt itself is cleared using this API.
 395:.\Generated_Source\PSoC5/UART_TIMER_ISR.c **** *
ARM GAS  C:\Users\yqh\AppData\Local\Temp\ccxIv92U.s 			page 17


 396:.\Generated_Source\PSoC5/UART_TIMER_ISR.c **** * Parameters:
 397:.\Generated_Source\PSoC5/UART_TIMER_ISR.c **** *   None
 398:.\Generated_Source\PSoC5/UART_TIMER_ISR.c **** *
 399:.\Generated_Source\PSoC5/UART_TIMER_ISR.c **** * Return:
 400:.\Generated_Source\PSoC5/UART_TIMER_ISR.c **** *   None
 401:.\Generated_Source\PSoC5/UART_TIMER_ISR.c **** *
 402:.\Generated_Source\PSoC5/UART_TIMER_ISR.c **** *******************************************************************************/
 403:.\Generated_Source\PSoC5/UART_TIMER_ISR.c **** void UART_TIMER_ISR_ClearPending(void)
 404:.\Generated_Source\PSoC5/UART_TIMER_ISR.c **** {
 518              		.loc 1 404 0
 519              		.cfi_startproc
 520              		@ args = 0, pretend = 0, frame = 0
 521              		@ frame_needed = 1, uses_anonymous_args = 0
 522              		@ link register save eliminated.
 523 0000 80B4     		push	{r7}
 524              		.cfi_def_cfa_offset 4
 525              		.cfi_offset 7, -4
 526 0002 00AF     		add	r7, sp, #0
 527              		.cfi_def_cfa_register 7
 405:.\Generated_Source\PSoC5/UART_TIMER_ISR.c ****     *UART_TIMER_ISR_INTC_CLR_PD = UART_TIMER_ISR__INTC_MASK;
 528              		.loc 1 405 0
 529 0004 034B     		ldr	r3, .L41
 530 0006 4FF40022 		mov	r2, #524288
 531 000a 1A60     		str	r2, [r3]
 406:.\Generated_Source\PSoC5/UART_TIMER_ISR.c **** }
 532              		.loc 1 406 0
 533 000c BD46     		mov	sp, r7
 534              		.cfi_def_cfa_register 13
 535              		@ sp needed
 536 000e 5DF8047B 		ldr	r7, [sp], #4
 537              		.cfi_restore 7
 538              		.cfi_def_cfa_offset 0
 539 0012 7047     		bx	lr
 540              	.L42:
 541              		.align	2
 542              	.L41:
 543 0014 80E200E0 		.word	-536812928
 544              		.cfi_endproc
 545              	.LFE75:
 546              		.size	UART_TIMER_ISR_ClearPending, .-UART_TIMER_ISR_ClearPending
 547              		.text
 548              	.Letext0:
 549              		.file 2 "c:\\program files (x86)\\cypress\\psoc creator\\3.3\\psoc creator\\import\\gnu\\arm\\4.9.
 550              		.file 3 "c:\\program files (x86)\\cypress\\psoc creator\\3.3\\psoc creator\\import\\gnu\\arm\\4.9.
 551              		.file 4 "Generated_Source\\PSoC5/cytypes.h"
 552              		.file 5 "./softuart.h"
 553              		.file 6 "Generated_Source\\PSoC5/core_cm3.h"
 554              		.file 7 "./system.h"