ARM GAS  C:\Users\yqh\AppData\Local\Temp\ccpJxCTG.s 			page 1


   1              		.syntax unified
   2              		.cpu cortex-m3
   3              		.fpu softvfp
   4              		.eabi_attribute 20, 1
   5              		.eabi_attribute 21, 1
   6              		.eabi_attribute 23, 3
   7              		.eabi_attribute 24, 1
   8              		.eabi_attribute 25, 1
   9              		.eabi_attribute 26, 1
  10              		.eabi_attribute 30, 6
  11              		.eabi_attribute 34, 1
  12              		.eabi_attribute 18, 4
  13              		.thumb
  14              		.file	"UART_READER.c"
  15              		.text
  16              	.Ltext0:
  17              		.cfi_sections	.debug_frame
  18              		.global	UART_READER_initVar
  19              		.bss
  20              		.type	UART_READER_initVar, %object
  21              		.size	UART_READER_initVar, 1
  22              	UART_READER_initVar:
  23 0000 00       		.space	1
  24              		.section	.text.UART_READER_Start,"ax",%progbits
  25              		.align	2
  26              		.global	UART_READER_Start
  27              		.thumb
  28              		.thumb_func
  29              		.type	UART_READER_Start, %function
  30              	UART_READER_Start:
  31              	.LFB0:
  32              		.file 1 ".\\Generated_Source\\PSoC5\\UART_READER.c"
   1:.\Generated_Source\PSoC5/UART_READER.c **** /*******************************************************************************
   2:.\Generated_Source\PSoC5/UART_READER.c **** * File Name: UART_READER.c
   3:.\Generated_Source\PSoC5/UART_READER.c **** * Version 2.50
   4:.\Generated_Source\PSoC5/UART_READER.c **** *
   5:.\Generated_Source\PSoC5/UART_READER.c **** * Description:
   6:.\Generated_Source\PSoC5/UART_READER.c **** *  This file provides all API functionality of the UART component
   7:.\Generated_Source\PSoC5/UART_READER.c **** *
   8:.\Generated_Source\PSoC5/UART_READER.c **** * Note:
   9:.\Generated_Source\PSoC5/UART_READER.c **** *
  10:.\Generated_Source\PSoC5/UART_READER.c **** ********************************************************************************
  11:.\Generated_Source\PSoC5/UART_READER.c **** * Copyright 2008-2015, Cypress Semiconductor Corporation.  All rights reserved.
  12:.\Generated_Source\PSoC5/UART_READER.c **** * You may use this file only in accordance with the license, terms, conditions,
  13:.\Generated_Source\PSoC5/UART_READER.c **** * disclaimers, and limitations in the end user license agreement accompanying
  14:.\Generated_Source\PSoC5/UART_READER.c **** * the software package with which this file was provided.
  15:.\Generated_Source\PSoC5/UART_READER.c **** *******************************************************************************/
  16:.\Generated_Source\PSoC5/UART_READER.c **** 
  17:.\Generated_Source\PSoC5/UART_READER.c **** #include "UART_READER.h"
  18:.\Generated_Source\PSoC5/UART_READER.c **** #if (UART_READER_INTERNAL_CLOCK_USED)
  19:.\Generated_Source\PSoC5/UART_READER.c ****     #include "UART_READER_IntClock.h"
  20:.\Generated_Source\PSoC5/UART_READER.c **** #endif /* End UART_READER_INTERNAL_CLOCK_USED */
  21:.\Generated_Source\PSoC5/UART_READER.c **** 
  22:.\Generated_Source\PSoC5/UART_READER.c **** 
  23:.\Generated_Source\PSoC5/UART_READER.c **** /***************************************
  24:.\Generated_Source\PSoC5/UART_READER.c **** * Global data allocation
  25:.\Generated_Source\PSoC5/UART_READER.c **** ***************************************/
ARM GAS  C:\Users\yqh\AppData\Local\Temp\ccpJxCTG.s 			page 2


  26:.\Generated_Source\PSoC5/UART_READER.c **** 
  27:.\Generated_Source\PSoC5/UART_READER.c **** uint8 UART_READER_initVar = 0u;
  28:.\Generated_Source\PSoC5/UART_READER.c **** 
  29:.\Generated_Source\PSoC5/UART_READER.c **** #if (UART_READER_TX_INTERRUPT_ENABLED && UART_READER_TX_ENABLED)
  30:.\Generated_Source\PSoC5/UART_READER.c ****     volatile uint8 UART_READER_txBuffer[UART_READER_TX_BUFFER_SIZE];
  31:.\Generated_Source\PSoC5/UART_READER.c ****     volatile uint8 UART_READER_txBufferRead = 0u;
  32:.\Generated_Source\PSoC5/UART_READER.c ****     uint8 UART_READER_txBufferWrite = 0u;
  33:.\Generated_Source\PSoC5/UART_READER.c **** #endif /* (UART_READER_TX_INTERRUPT_ENABLED && UART_READER_TX_ENABLED) */
  34:.\Generated_Source\PSoC5/UART_READER.c **** 
  35:.\Generated_Source\PSoC5/UART_READER.c **** #if (UART_READER_RX_INTERRUPT_ENABLED && (UART_READER_RX_ENABLED || UART_READER_HD_ENABLED))
  36:.\Generated_Source\PSoC5/UART_READER.c ****     uint8 UART_READER_errorStatus = 0u;
  37:.\Generated_Source\PSoC5/UART_READER.c ****     volatile uint8 UART_READER_rxBuffer[UART_READER_RX_BUFFER_SIZE];
  38:.\Generated_Source\PSoC5/UART_READER.c ****     volatile uint8 UART_READER_rxBufferRead  = 0u;
  39:.\Generated_Source\PSoC5/UART_READER.c ****     volatile uint8 UART_READER_rxBufferWrite = 0u;
  40:.\Generated_Source\PSoC5/UART_READER.c ****     volatile uint8 UART_READER_rxBufferLoopDetect = 0u;
  41:.\Generated_Source\PSoC5/UART_READER.c ****     volatile uint8 UART_READER_rxBufferOverflow   = 0u;
  42:.\Generated_Source\PSoC5/UART_READER.c ****     #if (UART_READER_RXHW_ADDRESS_ENABLED)
  43:.\Generated_Source\PSoC5/UART_READER.c ****         volatile uint8 UART_READER_rxAddressMode = UART_READER_RX_ADDRESS_MODE;
  44:.\Generated_Source\PSoC5/UART_READER.c ****         volatile uint8 UART_READER_rxAddressDetected = 0u;
  45:.\Generated_Source\PSoC5/UART_READER.c ****     #endif /* (UART_READER_RXHW_ADDRESS_ENABLED) */
  46:.\Generated_Source\PSoC5/UART_READER.c **** #endif /* (UART_READER_RX_INTERRUPT_ENABLED && (UART_READER_RX_ENABLED || UART_READER_HD_ENABLED)) 
  47:.\Generated_Source\PSoC5/UART_READER.c **** 
  48:.\Generated_Source\PSoC5/UART_READER.c **** 
  49:.\Generated_Source\PSoC5/UART_READER.c **** /*******************************************************************************
  50:.\Generated_Source\PSoC5/UART_READER.c **** * Function Name: UART_READER_Start
  51:.\Generated_Source\PSoC5/UART_READER.c **** ********************************************************************************
  52:.\Generated_Source\PSoC5/UART_READER.c **** *
  53:.\Generated_Source\PSoC5/UART_READER.c **** * Summary:
  54:.\Generated_Source\PSoC5/UART_READER.c **** *  This is the preferred method to begin component operation.
  55:.\Generated_Source\PSoC5/UART_READER.c **** *  UART_READER_Start() sets the initVar variable, calls the
  56:.\Generated_Source\PSoC5/UART_READER.c **** *  UART_READER_Init() function, and then calls the
  57:.\Generated_Source\PSoC5/UART_READER.c **** *  UART_READER_Enable() function.
  58:.\Generated_Source\PSoC5/UART_READER.c **** *
  59:.\Generated_Source\PSoC5/UART_READER.c **** * Parameters:
  60:.\Generated_Source\PSoC5/UART_READER.c **** *  None.
  61:.\Generated_Source\PSoC5/UART_READER.c **** *
  62:.\Generated_Source\PSoC5/UART_READER.c **** * Return:
  63:.\Generated_Source\PSoC5/UART_READER.c **** *  None.
  64:.\Generated_Source\PSoC5/UART_READER.c **** *
  65:.\Generated_Source\PSoC5/UART_READER.c **** * Global variables:
  66:.\Generated_Source\PSoC5/UART_READER.c **** *  The UART_READER_intiVar variable is used to indicate initial
  67:.\Generated_Source\PSoC5/UART_READER.c **** *  configuration of this component. The variable is initialized to zero (0u)
  68:.\Generated_Source\PSoC5/UART_READER.c **** *  and set to one (1u) the first time UART_READER_Start() is called. This
  69:.\Generated_Source\PSoC5/UART_READER.c **** *  allows for component initialization without re-initialization in all
  70:.\Generated_Source\PSoC5/UART_READER.c **** *  subsequent calls to the UART_READER_Start() routine.
  71:.\Generated_Source\PSoC5/UART_READER.c **** *
  72:.\Generated_Source\PSoC5/UART_READER.c **** * Reentrant:
  73:.\Generated_Source\PSoC5/UART_READER.c **** *  No.
  74:.\Generated_Source\PSoC5/UART_READER.c **** *
  75:.\Generated_Source\PSoC5/UART_READER.c **** *******************************************************************************/
  76:.\Generated_Source\PSoC5/UART_READER.c **** void UART_READER_Start(void) 
  77:.\Generated_Source\PSoC5/UART_READER.c **** {
  33              		.loc 1 77 0
  34              		.cfi_startproc
  35              		@ args = 0, pretend = 0, frame = 0
  36              		@ frame_needed = 1, uses_anonymous_args = 0
  37 0000 80B5     		push	{r7, lr}
ARM GAS  C:\Users\yqh\AppData\Local\Temp\ccpJxCTG.s 			page 3


  38              		.cfi_def_cfa_offset 8
  39              		.cfi_offset 7, -8
  40              		.cfi_offset 14, -4
  41 0002 00AF     		add	r7, sp, #0
  42              		.cfi_def_cfa_register 7
  78:.\Generated_Source\PSoC5/UART_READER.c ****     /* If not initialized then initialize all required hardware and software */
  79:.\Generated_Source\PSoC5/UART_READER.c ****     if(UART_READER_initVar == 0u)
  43              		.loc 1 79 0
  44 0004 054B     		ldr	r3, .L3
  45 0006 1B78     		ldrb	r3, [r3]	@ zero_extendqisi2
  46 0008 002B     		cmp	r3, #0
  47 000a 04D1     		bne	.L2
  80:.\Generated_Source\PSoC5/UART_READER.c ****     {
  81:.\Generated_Source\PSoC5/UART_READER.c ****         UART_READER_Init();
  48              		.loc 1 81 0
  49 000c FFF7FEFF 		bl	UART_READER_Init
  82:.\Generated_Source\PSoC5/UART_READER.c ****         UART_READER_initVar = 1u;
  50              		.loc 1 82 0
  51 0010 024B     		ldr	r3, .L3
  52 0012 0122     		movs	r2, #1
  53 0014 1A70     		strb	r2, [r3]
  54              	.L2:
  83:.\Generated_Source\PSoC5/UART_READER.c ****     }
  84:.\Generated_Source\PSoC5/UART_READER.c **** 
  85:.\Generated_Source\PSoC5/UART_READER.c ****     UART_READER_Enable();
  55              		.loc 1 85 0
  56 0016 FFF7FEFF 		bl	UART_READER_Enable
  86:.\Generated_Source\PSoC5/UART_READER.c **** }
  57              		.loc 1 86 0
  58 001a 80BD     		pop	{r7, pc}
  59              	.L4:
  60              		.align	2
  61              	.L3:
  62 001c 00000000 		.word	UART_READER_initVar
  63              		.cfi_endproc
  64              	.LFE0:
  65              		.size	UART_READER_Start, .-UART_READER_Start
  66              		.section	.text.UART_READER_Init,"ax",%progbits
  67              		.align	2
  68              		.global	UART_READER_Init
  69              		.thumb
  70              		.thumb_func
  71              		.type	UART_READER_Init, %function
  72              	UART_READER_Init:
  73              	.LFB1:
  87:.\Generated_Source\PSoC5/UART_READER.c **** 
  88:.\Generated_Source\PSoC5/UART_READER.c **** 
  89:.\Generated_Source\PSoC5/UART_READER.c **** /*******************************************************************************
  90:.\Generated_Source\PSoC5/UART_READER.c **** * Function Name: UART_READER_Init
  91:.\Generated_Source\PSoC5/UART_READER.c **** ********************************************************************************
  92:.\Generated_Source\PSoC5/UART_READER.c **** *
  93:.\Generated_Source\PSoC5/UART_READER.c **** * Summary:
  94:.\Generated_Source\PSoC5/UART_READER.c **** *  Initializes or restores the component according to the customizer Configure
  95:.\Generated_Source\PSoC5/UART_READER.c **** *  dialog settings. It is not necessary to call UART_READER_Init() because
  96:.\Generated_Source\PSoC5/UART_READER.c **** *  the UART_READER_Start() API calls this function and is the preferred
  97:.\Generated_Source\PSoC5/UART_READER.c **** *  method to begin component operation.
  98:.\Generated_Source\PSoC5/UART_READER.c **** *
ARM GAS  C:\Users\yqh\AppData\Local\Temp\ccpJxCTG.s 			page 4


  99:.\Generated_Source\PSoC5/UART_READER.c **** * Parameters:
 100:.\Generated_Source\PSoC5/UART_READER.c **** *  None.
 101:.\Generated_Source\PSoC5/UART_READER.c **** *
 102:.\Generated_Source\PSoC5/UART_READER.c **** * Return:
 103:.\Generated_Source\PSoC5/UART_READER.c **** *  None.
 104:.\Generated_Source\PSoC5/UART_READER.c **** *
 105:.\Generated_Source\PSoC5/UART_READER.c **** *******************************************************************************/
 106:.\Generated_Source\PSoC5/UART_READER.c **** void UART_READER_Init(void) 
 107:.\Generated_Source\PSoC5/UART_READER.c **** {
  74              		.loc 1 107 0
  75              		.cfi_startproc
  76              		@ args = 0, pretend = 0, frame = 0
  77              		@ frame_needed = 1, uses_anonymous_args = 0
  78              		@ link register save eliminated.
  79 0000 80B4     		push	{r7}
  80              		.cfi_def_cfa_offset 4
  81              		.cfi_offset 7, -4
  82 0002 00AF     		add	r7, sp, #0
  83              		.cfi_def_cfa_register 7
 108:.\Generated_Source\PSoC5/UART_READER.c ****     #if(UART_READER_RX_ENABLED || UART_READER_HD_ENABLED)
 109:.\Generated_Source\PSoC5/UART_READER.c **** 
 110:.\Generated_Source\PSoC5/UART_READER.c ****         #if (UART_READER_RX_INTERRUPT_ENABLED)
 111:.\Generated_Source\PSoC5/UART_READER.c ****             /* Set RX interrupt vector and priority */
 112:.\Generated_Source\PSoC5/UART_READER.c ****             (void) CyIntSetVector(UART_READER_RX_VECT_NUM, &UART_READER_RXISR);
 113:.\Generated_Source\PSoC5/UART_READER.c ****             CyIntSetPriority(UART_READER_RX_VECT_NUM, UART_READER_RX_PRIOR_NUM);
 114:.\Generated_Source\PSoC5/UART_READER.c ****             UART_READER_errorStatus = 0u;
 115:.\Generated_Source\PSoC5/UART_READER.c ****         #endif /* (UART_READER_RX_INTERRUPT_ENABLED) */
 116:.\Generated_Source\PSoC5/UART_READER.c **** 
 117:.\Generated_Source\PSoC5/UART_READER.c ****         #if (UART_READER_RXHW_ADDRESS_ENABLED)
 118:.\Generated_Source\PSoC5/UART_READER.c ****             UART_READER_SetRxAddressMode(UART_READER_RX_ADDRESS_MODE);
 119:.\Generated_Source\PSoC5/UART_READER.c ****             UART_READER_SetRxAddress1(UART_READER_RX_HW_ADDRESS1);
 120:.\Generated_Source\PSoC5/UART_READER.c ****             UART_READER_SetRxAddress2(UART_READER_RX_HW_ADDRESS2);
 121:.\Generated_Source\PSoC5/UART_READER.c ****         #endif /* End UART_READER_RXHW_ADDRESS_ENABLED */
 122:.\Generated_Source\PSoC5/UART_READER.c **** 
 123:.\Generated_Source\PSoC5/UART_READER.c ****         /* Init Count7 period */
 124:.\Generated_Source\PSoC5/UART_READER.c ****         UART_READER_RXBITCTR_PERIOD_REG = UART_READER_RXBITCTR_INIT;
  84              		.loc 1 124 0
  85 0004 044B     		ldr	r3, .L6
  86 0006 7222     		movs	r2, #114
  87 0008 1A70     		strb	r2, [r3]
 125:.\Generated_Source\PSoC5/UART_READER.c ****         /* Configure the Initial RX interrupt mask */
 126:.\Generated_Source\PSoC5/UART_READER.c ****         UART_READER_RXSTATUS_MASK_REG  = UART_READER_INIT_RX_INTERRUPTS_MASK;
  88              		.loc 1 126 0
  89 000a 044B     		ldr	r3, .L6+4
  90 000c 2022     		movs	r2, #32
  91 000e 1A70     		strb	r2, [r3]
 127:.\Generated_Source\PSoC5/UART_READER.c ****     #endif /* End UART_READER_RX_ENABLED || UART_READER_HD_ENABLED*/
 128:.\Generated_Source\PSoC5/UART_READER.c **** 
 129:.\Generated_Source\PSoC5/UART_READER.c ****     #if(UART_READER_TX_ENABLED)
 130:.\Generated_Source\PSoC5/UART_READER.c ****         #if (UART_READER_TX_INTERRUPT_ENABLED)
 131:.\Generated_Source\PSoC5/UART_READER.c ****             /* Set TX interrupt vector and priority */
 132:.\Generated_Source\PSoC5/UART_READER.c ****             (void) CyIntSetVector(UART_READER_TX_VECT_NUM, &UART_READER_TXISR);
 133:.\Generated_Source\PSoC5/UART_READER.c ****             CyIntSetPriority(UART_READER_TX_VECT_NUM, UART_READER_TX_PRIOR_NUM);
 134:.\Generated_Source\PSoC5/UART_READER.c ****         #endif /* (UART_READER_TX_INTERRUPT_ENABLED) */
 135:.\Generated_Source\PSoC5/UART_READER.c **** 
 136:.\Generated_Source\PSoC5/UART_READER.c ****         /* Write Counter Value for TX Bit Clk Generator*/
 137:.\Generated_Source\PSoC5/UART_READER.c ****         #if (UART_READER_TXCLKGEN_DP)
ARM GAS  C:\Users\yqh\AppData\Local\Temp\ccpJxCTG.s 			page 5


 138:.\Generated_Source\PSoC5/UART_READER.c ****             UART_READER_TXBITCLKGEN_CTR_REG = UART_READER_BIT_CENTER;
 139:.\Generated_Source\PSoC5/UART_READER.c ****             UART_READER_TXBITCLKTX_COMPLETE_REG = ((UART_READER_NUMBER_OF_DATA_BITS +
 140:.\Generated_Source\PSoC5/UART_READER.c ****                         UART_READER_NUMBER_OF_START_BIT) * UART_READER_OVER_SAMPLE_COUNT) - 1u;
 141:.\Generated_Source\PSoC5/UART_READER.c ****         #else
 142:.\Generated_Source\PSoC5/UART_READER.c ****             UART_READER_TXBITCTR_PERIOD_REG = ((UART_READER_NUMBER_OF_DATA_BITS +
 143:.\Generated_Source\PSoC5/UART_READER.c ****                         UART_READER_NUMBER_OF_START_BIT) * UART_READER_OVER_SAMPLE_8) - 1u;
 144:.\Generated_Source\PSoC5/UART_READER.c ****         #endif /* End UART_READER_TXCLKGEN_DP */
 145:.\Generated_Source\PSoC5/UART_READER.c **** 
 146:.\Generated_Source\PSoC5/UART_READER.c ****         /* Configure the Initial TX interrupt mask */
 147:.\Generated_Source\PSoC5/UART_READER.c ****         #if (UART_READER_TX_INTERRUPT_ENABLED)
 148:.\Generated_Source\PSoC5/UART_READER.c ****             UART_READER_TXSTATUS_MASK_REG = UART_READER_TX_STS_FIFO_EMPTY;
 149:.\Generated_Source\PSoC5/UART_READER.c ****         #else
 150:.\Generated_Source\PSoC5/UART_READER.c ****             UART_READER_TXSTATUS_MASK_REG = UART_READER_INIT_TX_INTERRUPTS_MASK;
 151:.\Generated_Source\PSoC5/UART_READER.c ****         #endif /*End UART_READER_TX_INTERRUPT_ENABLED*/
 152:.\Generated_Source\PSoC5/UART_READER.c **** 
 153:.\Generated_Source\PSoC5/UART_READER.c ****     #endif /* End UART_READER_TX_ENABLED */
 154:.\Generated_Source\PSoC5/UART_READER.c **** 
 155:.\Generated_Source\PSoC5/UART_READER.c ****     #if(UART_READER_PARITY_TYPE_SW)  /* Write Parity to Control Register */
 156:.\Generated_Source\PSoC5/UART_READER.c ****         UART_READER_WriteControlRegister( \
 157:.\Generated_Source\PSoC5/UART_READER.c ****             (UART_READER_ReadControlRegister() & (uint8)~UART_READER_CTRL_PARITY_TYPE_MASK) | \
 158:.\Generated_Source\PSoC5/UART_READER.c ****             (uint8)(UART_READER_PARITY_TYPE << UART_READER_CTRL_PARITY_TYPE0_SHIFT) );
 159:.\Generated_Source\PSoC5/UART_READER.c ****     #endif /* End UART_READER_PARITY_TYPE_SW */
 160:.\Generated_Source\PSoC5/UART_READER.c **** }
  92              		.loc 1 160 0
  93 0010 BD46     		mov	sp, r7
  94              		.cfi_def_cfa_register 13
  95              		@ sp needed
  96 0012 5DF8047B 		ldr	r7, [sp], #4
  97              		.cfi_restore 7
  98              		.cfi_def_cfa_offset 0
  99 0016 7047     		bx	lr
 100              	.L7:
 101              		.align	2
 102              	.L6:
 103 0018 84640040 		.word	1073767556
 104 001c 88650040 		.word	1073767816
 105              		.cfi_endproc
 106              	.LFE1:
 107              		.size	UART_READER_Init, .-UART_READER_Init
 108              		.section	.text.UART_READER_Enable,"ax",%progbits
 109              		.align	2
 110              		.global	UART_READER_Enable
 111              		.thumb
 112              		.thumb_func
 113              		.type	UART_READER_Enable, %function
 114              	UART_READER_Enable:
 115              	.LFB2:
 161:.\Generated_Source\PSoC5/UART_READER.c **** 
 162:.\Generated_Source\PSoC5/UART_READER.c **** 
 163:.\Generated_Source\PSoC5/UART_READER.c **** /*******************************************************************************
 164:.\Generated_Source\PSoC5/UART_READER.c **** * Function Name: UART_READER_Enable
 165:.\Generated_Source\PSoC5/UART_READER.c **** ********************************************************************************
 166:.\Generated_Source\PSoC5/UART_READER.c **** *
 167:.\Generated_Source\PSoC5/UART_READER.c **** * Summary:
 168:.\Generated_Source\PSoC5/UART_READER.c **** *  Activates the hardware and begins component operation. It is not necessary
 169:.\Generated_Source\PSoC5/UART_READER.c **** *  to call UART_READER_Enable() because the UART_READER_Start() API
 170:.\Generated_Source\PSoC5/UART_READER.c **** *  calls this function, which is the preferred method to begin component
ARM GAS  C:\Users\yqh\AppData\Local\Temp\ccpJxCTG.s 			page 6


 171:.\Generated_Source\PSoC5/UART_READER.c **** *  operation.
 172:.\Generated_Source\PSoC5/UART_READER.c **** 
 173:.\Generated_Source\PSoC5/UART_READER.c **** * Parameters:
 174:.\Generated_Source\PSoC5/UART_READER.c **** *  None.
 175:.\Generated_Source\PSoC5/UART_READER.c **** *
 176:.\Generated_Source\PSoC5/UART_READER.c **** * Return:
 177:.\Generated_Source\PSoC5/UART_READER.c **** *  None.
 178:.\Generated_Source\PSoC5/UART_READER.c **** *
 179:.\Generated_Source\PSoC5/UART_READER.c **** * Global Variables:
 180:.\Generated_Source\PSoC5/UART_READER.c **** *  UART_READER_rxAddressDetected - set to initial state (0).
 181:.\Generated_Source\PSoC5/UART_READER.c **** *
 182:.\Generated_Source\PSoC5/UART_READER.c **** *******************************************************************************/
 183:.\Generated_Source\PSoC5/UART_READER.c **** void UART_READER_Enable(void) 
 184:.\Generated_Source\PSoC5/UART_READER.c **** {
 116              		.loc 1 184 0
 117              		.cfi_startproc
 118              		@ args = 0, pretend = 0, frame = 8
 119              		@ frame_needed = 1, uses_anonymous_args = 0
 120 0000 80B5     		push	{r7, lr}
 121              		.cfi_def_cfa_offset 8
 122              		.cfi_offset 7, -8
 123              		.cfi_offset 14, -4
 124 0002 82B0     		sub	sp, sp, #8
 125              		.cfi_def_cfa_offset 16
 126 0004 00AF     		add	r7, sp, #0
 127              		.cfi_def_cfa_register 7
 185:.\Generated_Source\PSoC5/UART_READER.c ****     uint8 enableInterrupts;
 186:.\Generated_Source\PSoC5/UART_READER.c ****     enableInterrupts = CyEnterCriticalSection();
 128              		.loc 1 186 0
 129 0006 FFF7FEFF 		bl	CyEnterCriticalSection
 130 000a 0346     		mov	r3, r0
 131 000c FB71     		strb	r3, [r7, #7]
 187:.\Generated_Source\PSoC5/UART_READER.c **** 
 188:.\Generated_Source\PSoC5/UART_READER.c ****     #if (UART_READER_RX_ENABLED || UART_READER_HD_ENABLED)
 189:.\Generated_Source\PSoC5/UART_READER.c ****         /* RX Counter (Count7) Enable */
 190:.\Generated_Source\PSoC5/UART_READER.c ****         UART_READER_RXBITCTR_CONTROL_REG |= UART_READER_CNTR_ENABLE;
 132              		.loc 1 190 0
 133 000e 0B4A     		ldr	r2, .L9
 134 0010 0A4B     		ldr	r3, .L9
 135 0012 1B78     		ldrb	r3, [r3]
 136 0014 DBB2     		uxtb	r3, r3
 137 0016 43F02003 		orr	r3, r3, #32
 138 001a DBB2     		uxtb	r3, r3
 139 001c 1370     		strb	r3, [r2]
 191:.\Generated_Source\PSoC5/UART_READER.c **** 
 192:.\Generated_Source\PSoC5/UART_READER.c ****         /* Enable the RX Interrupt */
 193:.\Generated_Source\PSoC5/UART_READER.c ****         UART_READER_RXSTATUS_ACTL_REG  |= UART_READER_INT_ENABLE;
 140              		.loc 1 193 0
 141 001e 084A     		ldr	r2, .L9+4
 142 0020 074B     		ldr	r3, .L9+4
 143 0022 1B78     		ldrb	r3, [r3]
 144 0024 DBB2     		uxtb	r3, r3
 145 0026 43F01003 		orr	r3, r3, #16
 146 002a DBB2     		uxtb	r3, r3
 147 002c 1370     		strb	r3, [r2]
 194:.\Generated_Source\PSoC5/UART_READER.c **** 
 195:.\Generated_Source\PSoC5/UART_READER.c ****         #if (UART_READER_RX_INTERRUPT_ENABLED)
ARM GAS  C:\Users\yqh\AppData\Local\Temp\ccpJxCTG.s 			page 7


 196:.\Generated_Source\PSoC5/UART_READER.c ****             UART_READER_EnableRxInt();
 197:.\Generated_Source\PSoC5/UART_READER.c **** 
 198:.\Generated_Source\PSoC5/UART_READER.c ****             #if (UART_READER_RXHW_ADDRESS_ENABLED)
 199:.\Generated_Source\PSoC5/UART_READER.c ****                 UART_READER_rxAddressDetected = 0u;
 200:.\Generated_Source\PSoC5/UART_READER.c ****             #endif /* (UART_READER_RXHW_ADDRESS_ENABLED) */
 201:.\Generated_Source\PSoC5/UART_READER.c ****         #endif /* (UART_READER_RX_INTERRUPT_ENABLED) */
 202:.\Generated_Source\PSoC5/UART_READER.c ****     #endif /* (UART_READER_RX_ENABLED || UART_READER_HD_ENABLED) */
 203:.\Generated_Source\PSoC5/UART_READER.c **** 
 204:.\Generated_Source\PSoC5/UART_READER.c ****     #if(UART_READER_TX_ENABLED)
 205:.\Generated_Source\PSoC5/UART_READER.c ****         /* TX Counter (DP/Count7) Enable */
 206:.\Generated_Source\PSoC5/UART_READER.c ****         #if(!UART_READER_TXCLKGEN_DP)
 207:.\Generated_Source\PSoC5/UART_READER.c ****             UART_READER_TXBITCTR_CONTROL_REG |= UART_READER_CNTR_ENABLE;
 208:.\Generated_Source\PSoC5/UART_READER.c ****         #endif /* End UART_READER_TXCLKGEN_DP */
 209:.\Generated_Source\PSoC5/UART_READER.c **** 
 210:.\Generated_Source\PSoC5/UART_READER.c ****         /* Enable the TX Interrupt */
 211:.\Generated_Source\PSoC5/UART_READER.c ****         UART_READER_TXSTATUS_ACTL_REG |= UART_READER_INT_ENABLE;
 212:.\Generated_Source\PSoC5/UART_READER.c ****         #if (UART_READER_TX_INTERRUPT_ENABLED)
 213:.\Generated_Source\PSoC5/UART_READER.c ****             UART_READER_ClearPendingTxInt(); /* Clear history of TX_NOT_EMPTY */
 214:.\Generated_Source\PSoC5/UART_READER.c ****             UART_READER_EnableTxInt();
 215:.\Generated_Source\PSoC5/UART_READER.c ****         #endif /* (UART_READER_TX_INTERRUPT_ENABLED) */
 216:.\Generated_Source\PSoC5/UART_READER.c ****      #endif /* (UART_READER_TX_INTERRUPT_ENABLED) */
 217:.\Generated_Source\PSoC5/UART_READER.c **** 
 218:.\Generated_Source\PSoC5/UART_READER.c ****     #if (UART_READER_INTERNAL_CLOCK_USED)
 219:.\Generated_Source\PSoC5/UART_READER.c ****         UART_READER_IntClock_Start();  /* Enable the clock */
 220:.\Generated_Source\PSoC5/UART_READER.c ****     #endif /* (UART_READER_INTERNAL_CLOCK_USED) */
 221:.\Generated_Source\PSoC5/UART_READER.c **** 
 222:.\Generated_Source\PSoC5/UART_READER.c ****     CyExitCriticalSection(enableInterrupts);
 148              		.loc 1 222 0
 149 002e FB79     		ldrb	r3, [r7, #7]	@ zero_extendqisi2
 150 0030 1846     		mov	r0, r3
 151 0032 FFF7FEFF 		bl	CyExitCriticalSection
 223:.\Generated_Source\PSoC5/UART_READER.c **** }
 152              		.loc 1 223 0
 153 0036 0837     		adds	r7, r7, #8
 154              		.cfi_def_cfa_offset 8
 155 0038 BD46     		mov	sp, r7
 156              		.cfi_def_cfa_register 13
 157              		@ sp needed
 158 003a 80BD     		pop	{r7, pc}
 159              	.L10:
 160              		.align	2
 161              	.L9:
 162 003c 94640040 		.word	1073767572
 163 0040 98650040 		.word	1073767832
 164              		.cfi_endproc
 165              	.LFE2:
 166              		.size	UART_READER_Enable, .-UART_READER_Enable
 167              		.section	.text.UART_READER_Stop,"ax",%progbits
 168              		.align	2
 169              		.global	UART_READER_Stop
 170              		.thumb
 171              		.thumb_func
 172              		.type	UART_READER_Stop, %function
 173              	UART_READER_Stop:
 174              	.LFB3:
 224:.\Generated_Source\PSoC5/UART_READER.c **** 
 225:.\Generated_Source\PSoC5/UART_READER.c **** 
ARM GAS  C:\Users\yqh\AppData\Local\Temp\ccpJxCTG.s 			page 8


 226:.\Generated_Source\PSoC5/UART_READER.c **** /*******************************************************************************
 227:.\Generated_Source\PSoC5/UART_READER.c **** * Function Name: UART_READER_Stop
 228:.\Generated_Source\PSoC5/UART_READER.c **** ********************************************************************************
 229:.\Generated_Source\PSoC5/UART_READER.c **** *
 230:.\Generated_Source\PSoC5/UART_READER.c **** * Summary:
 231:.\Generated_Source\PSoC5/UART_READER.c **** *  Disables the UART operation.
 232:.\Generated_Source\PSoC5/UART_READER.c **** *
 233:.\Generated_Source\PSoC5/UART_READER.c **** * Parameters:
 234:.\Generated_Source\PSoC5/UART_READER.c **** *  None.
 235:.\Generated_Source\PSoC5/UART_READER.c **** *
 236:.\Generated_Source\PSoC5/UART_READER.c **** * Return:
 237:.\Generated_Source\PSoC5/UART_READER.c **** *  None.
 238:.\Generated_Source\PSoC5/UART_READER.c **** *
 239:.\Generated_Source\PSoC5/UART_READER.c **** *******************************************************************************/
 240:.\Generated_Source\PSoC5/UART_READER.c **** void UART_READER_Stop(void) 
 241:.\Generated_Source\PSoC5/UART_READER.c **** {
 175              		.loc 1 241 0
 176              		.cfi_startproc
 177              		@ args = 0, pretend = 0, frame = 8
 178              		@ frame_needed = 1, uses_anonymous_args = 0
 179 0000 80B5     		push	{r7, lr}
 180              		.cfi_def_cfa_offset 8
 181              		.cfi_offset 7, -8
 182              		.cfi_offset 14, -4
 183 0002 82B0     		sub	sp, sp, #8
 184              		.cfi_def_cfa_offset 16
 185 0004 00AF     		add	r7, sp, #0
 186              		.cfi_def_cfa_register 7
 242:.\Generated_Source\PSoC5/UART_READER.c ****     uint8 enableInterrupts;
 243:.\Generated_Source\PSoC5/UART_READER.c ****     enableInterrupts = CyEnterCriticalSection();
 187              		.loc 1 243 0
 188 0006 FFF7FEFF 		bl	CyEnterCriticalSection
 189 000a 0346     		mov	r3, r0
 190 000c FB71     		strb	r3, [r7, #7]
 244:.\Generated_Source\PSoC5/UART_READER.c **** 
 245:.\Generated_Source\PSoC5/UART_READER.c ****     /* Write Bit Counter Disable */
 246:.\Generated_Source\PSoC5/UART_READER.c ****     #if (UART_READER_RX_ENABLED || UART_READER_HD_ENABLED)
 247:.\Generated_Source\PSoC5/UART_READER.c ****         UART_READER_RXBITCTR_CONTROL_REG &= (uint8) ~UART_READER_CNTR_ENABLE;
 191              		.loc 1 247 0
 192 000e 0B4A     		ldr	r2, .L12
 193 0010 0A4B     		ldr	r3, .L12
 194 0012 1B78     		ldrb	r3, [r3]
 195 0014 DBB2     		uxtb	r3, r3
 196 0016 23F02003 		bic	r3, r3, #32
 197 001a DBB2     		uxtb	r3, r3
 198 001c 1370     		strb	r3, [r2]
 248:.\Generated_Source\PSoC5/UART_READER.c ****     #endif /* (UART_READER_RX_ENABLED || UART_READER_HD_ENABLED) */
 249:.\Generated_Source\PSoC5/UART_READER.c **** 
 250:.\Generated_Source\PSoC5/UART_READER.c ****     #if (UART_READER_TX_ENABLED)
 251:.\Generated_Source\PSoC5/UART_READER.c ****         #if(!UART_READER_TXCLKGEN_DP)
 252:.\Generated_Source\PSoC5/UART_READER.c ****             UART_READER_TXBITCTR_CONTROL_REG &= (uint8) ~UART_READER_CNTR_ENABLE;
 253:.\Generated_Source\PSoC5/UART_READER.c ****         #endif /* (!UART_READER_TXCLKGEN_DP) */
 254:.\Generated_Source\PSoC5/UART_READER.c ****     #endif /* (UART_READER_TX_ENABLED) */
 255:.\Generated_Source\PSoC5/UART_READER.c **** 
 256:.\Generated_Source\PSoC5/UART_READER.c ****     #if (UART_READER_INTERNAL_CLOCK_USED)
 257:.\Generated_Source\PSoC5/UART_READER.c ****         UART_READER_IntClock_Stop();   /* Disable the clock */
 258:.\Generated_Source\PSoC5/UART_READER.c ****     #endif /* (UART_READER_INTERNAL_CLOCK_USED) */
ARM GAS  C:\Users\yqh\AppData\Local\Temp\ccpJxCTG.s 			page 9


 259:.\Generated_Source\PSoC5/UART_READER.c **** 
 260:.\Generated_Source\PSoC5/UART_READER.c ****     /* Disable internal interrupt component */
 261:.\Generated_Source\PSoC5/UART_READER.c ****     #if (UART_READER_RX_ENABLED || UART_READER_HD_ENABLED)
 262:.\Generated_Source\PSoC5/UART_READER.c ****         UART_READER_RXSTATUS_ACTL_REG  &= (uint8) ~UART_READER_INT_ENABLE;
 199              		.loc 1 262 0
 200 001e 084A     		ldr	r2, .L12+4
 201 0020 074B     		ldr	r3, .L12+4
 202 0022 1B78     		ldrb	r3, [r3]
 203 0024 DBB2     		uxtb	r3, r3
 204 0026 23F01003 		bic	r3, r3, #16
 205 002a DBB2     		uxtb	r3, r3
 206 002c 1370     		strb	r3, [r2]
 263:.\Generated_Source\PSoC5/UART_READER.c **** 
 264:.\Generated_Source\PSoC5/UART_READER.c ****         #if (UART_READER_RX_INTERRUPT_ENABLED)
 265:.\Generated_Source\PSoC5/UART_READER.c ****             UART_READER_DisableRxInt();
 266:.\Generated_Source\PSoC5/UART_READER.c ****         #endif /* (UART_READER_RX_INTERRUPT_ENABLED) */
 267:.\Generated_Source\PSoC5/UART_READER.c ****     #endif /* (UART_READER_RX_ENABLED || UART_READER_HD_ENABLED) */
 268:.\Generated_Source\PSoC5/UART_READER.c **** 
 269:.\Generated_Source\PSoC5/UART_READER.c ****     #if (UART_READER_TX_ENABLED)
 270:.\Generated_Source\PSoC5/UART_READER.c ****         UART_READER_TXSTATUS_ACTL_REG &= (uint8) ~UART_READER_INT_ENABLE;
 271:.\Generated_Source\PSoC5/UART_READER.c **** 
 272:.\Generated_Source\PSoC5/UART_READER.c ****         #if (UART_READER_TX_INTERRUPT_ENABLED)
 273:.\Generated_Source\PSoC5/UART_READER.c ****             UART_READER_DisableTxInt();
 274:.\Generated_Source\PSoC5/UART_READER.c ****         #endif /* (UART_READER_TX_INTERRUPT_ENABLED) */
 275:.\Generated_Source\PSoC5/UART_READER.c ****     #endif /* (UART_READER_TX_ENABLED) */
 276:.\Generated_Source\PSoC5/UART_READER.c **** 
 277:.\Generated_Source\PSoC5/UART_READER.c ****     CyExitCriticalSection(enableInterrupts);
 207              		.loc 1 277 0
 208 002e FB79     		ldrb	r3, [r7, #7]	@ zero_extendqisi2
 209 0030 1846     		mov	r0, r3
 210 0032 FFF7FEFF 		bl	CyExitCriticalSection
 278:.\Generated_Source\PSoC5/UART_READER.c **** }
 211              		.loc 1 278 0
 212 0036 0837     		adds	r7, r7, #8
 213              		.cfi_def_cfa_offset 8
 214 0038 BD46     		mov	sp, r7
 215              		.cfi_def_cfa_register 13
 216              		@ sp needed
 217 003a 80BD     		pop	{r7, pc}
 218              	.L13:
 219              		.align	2
 220              	.L12:
 221 003c 94640040 		.word	1073767572
 222 0040 98650040 		.word	1073767832
 223              		.cfi_endproc
 224              	.LFE3:
 225              		.size	UART_READER_Stop, .-UART_READER_Stop
 226              		.section	.text.UART_READER_ReadControlRegister,"ax",%progbits
 227              		.align	2
 228              		.global	UART_READER_ReadControlRegister
 229              		.thumb
 230              		.thumb_func
 231              		.type	UART_READER_ReadControlRegister, %function
 232              	UART_READER_ReadControlRegister:
 233              	.LFB4:
 279:.\Generated_Source\PSoC5/UART_READER.c **** 
 280:.\Generated_Source\PSoC5/UART_READER.c **** 
ARM GAS  C:\Users\yqh\AppData\Local\Temp\ccpJxCTG.s 			page 10


 281:.\Generated_Source\PSoC5/UART_READER.c **** /*******************************************************************************
 282:.\Generated_Source\PSoC5/UART_READER.c **** * Function Name: UART_READER_ReadControlRegister
 283:.\Generated_Source\PSoC5/UART_READER.c **** ********************************************************************************
 284:.\Generated_Source\PSoC5/UART_READER.c **** *
 285:.\Generated_Source\PSoC5/UART_READER.c **** * Summary:
 286:.\Generated_Source\PSoC5/UART_READER.c **** *  Returns the current value of the control register.
 287:.\Generated_Source\PSoC5/UART_READER.c **** *
 288:.\Generated_Source\PSoC5/UART_READER.c **** * Parameters:
 289:.\Generated_Source\PSoC5/UART_READER.c **** *  None.
 290:.\Generated_Source\PSoC5/UART_READER.c **** *
 291:.\Generated_Source\PSoC5/UART_READER.c **** * Return:
 292:.\Generated_Source\PSoC5/UART_READER.c **** *  Contents of the control register.
 293:.\Generated_Source\PSoC5/UART_READER.c **** *
 294:.\Generated_Source\PSoC5/UART_READER.c **** *******************************************************************************/
 295:.\Generated_Source\PSoC5/UART_READER.c **** uint8 UART_READER_ReadControlRegister(void) 
 296:.\Generated_Source\PSoC5/UART_READER.c **** {
 234              		.loc 1 296 0
 235              		.cfi_startproc
 236              		@ args = 0, pretend = 0, frame = 0
 237              		@ frame_needed = 1, uses_anonymous_args = 0
 238              		@ link register save eliminated.
 239 0000 80B4     		push	{r7}
 240              		.cfi_def_cfa_offset 4
 241              		.cfi_offset 7, -4
 242 0002 00AF     		add	r7, sp, #0
 243              		.cfi_def_cfa_register 7
 297:.\Generated_Source\PSoC5/UART_READER.c ****     #if (UART_READER_CONTROL_REG_REMOVED)
 298:.\Generated_Source\PSoC5/UART_READER.c ****         return(0u);
 299:.\Generated_Source\PSoC5/UART_READER.c ****     #else
 300:.\Generated_Source\PSoC5/UART_READER.c ****         return(UART_READER_CONTROL_REG);
 244              		.loc 1 300 0
 245 0004 034B     		ldr	r3, .L16
 246 0006 1B78     		ldrb	r3, [r3]
 247 0008 DBB2     		uxtb	r3, r3
 301:.\Generated_Source\PSoC5/UART_READER.c ****     #endif /* (UART_READER_CONTROL_REG_REMOVED) */
 302:.\Generated_Source\PSoC5/UART_READER.c **** }
 248              		.loc 1 302 0
 249 000a 1846     		mov	r0, r3
 250 000c BD46     		mov	sp, r7
 251              		.cfi_def_cfa_register 13
 252              		@ sp needed
 253 000e 5DF8047B 		ldr	r7, [sp], #4
 254              		.cfi_restore 7
 255              		.cfi_def_cfa_offset 0
 256 0012 7047     		bx	lr
 257              	.L17:
 258              		.align	2
 259              	.L16:
 260 0014 72640040 		.word	1073767538
 261              		.cfi_endproc
 262              	.LFE4:
 263              		.size	UART_READER_ReadControlRegister, .-UART_READER_ReadControlRegister
 264              		.section	.text.UART_READER_WriteControlRegister,"ax",%progbits
 265              		.align	2
 266              		.global	UART_READER_WriteControlRegister
 267              		.thumb
 268              		.thumb_func
ARM GAS  C:\Users\yqh\AppData\Local\Temp\ccpJxCTG.s 			page 11


 269              		.type	UART_READER_WriteControlRegister, %function
 270              	UART_READER_WriteControlRegister:
 271              	.LFB5:
 303:.\Generated_Source\PSoC5/UART_READER.c **** 
 304:.\Generated_Source\PSoC5/UART_READER.c **** 
 305:.\Generated_Source\PSoC5/UART_READER.c **** /*******************************************************************************
 306:.\Generated_Source\PSoC5/UART_READER.c **** * Function Name: UART_READER_WriteControlRegister
 307:.\Generated_Source\PSoC5/UART_READER.c **** ********************************************************************************
 308:.\Generated_Source\PSoC5/UART_READER.c **** *
 309:.\Generated_Source\PSoC5/UART_READER.c **** * Summary:
 310:.\Generated_Source\PSoC5/UART_READER.c **** *  Writes an 8-bit value into the control register
 311:.\Generated_Source\PSoC5/UART_READER.c **** *
 312:.\Generated_Source\PSoC5/UART_READER.c **** * Parameters:
 313:.\Generated_Source\PSoC5/UART_READER.c **** *  control:  control register value
 314:.\Generated_Source\PSoC5/UART_READER.c **** *
 315:.\Generated_Source\PSoC5/UART_READER.c **** * Return:
 316:.\Generated_Source\PSoC5/UART_READER.c **** *  None.
 317:.\Generated_Source\PSoC5/UART_READER.c **** *
 318:.\Generated_Source\PSoC5/UART_READER.c **** *******************************************************************************/
 319:.\Generated_Source\PSoC5/UART_READER.c **** void  UART_READER_WriteControlRegister(uint8 control) 
 320:.\Generated_Source\PSoC5/UART_READER.c **** {
 272              		.loc 1 320 0
 273              		.cfi_startproc
 274              		@ args = 0, pretend = 0, frame = 8
 275              		@ frame_needed = 1, uses_anonymous_args = 0
 276              		@ link register save eliminated.
 277 0000 80B4     		push	{r7}
 278              		.cfi_def_cfa_offset 4
 279              		.cfi_offset 7, -4
 280 0002 83B0     		sub	sp, sp, #12
 281              		.cfi_def_cfa_offset 16
 282 0004 00AF     		add	r7, sp, #0
 283              		.cfi_def_cfa_register 7
 284 0006 0346     		mov	r3, r0
 285 0008 FB71     		strb	r3, [r7, #7]
 321:.\Generated_Source\PSoC5/UART_READER.c ****     #if (UART_READER_CONTROL_REG_REMOVED)
 322:.\Generated_Source\PSoC5/UART_READER.c ****         if(0u != control)
 323:.\Generated_Source\PSoC5/UART_READER.c ****         {
 324:.\Generated_Source\PSoC5/UART_READER.c ****             /* Suppress compiler warning */
 325:.\Generated_Source\PSoC5/UART_READER.c ****         }
 326:.\Generated_Source\PSoC5/UART_READER.c ****     #else
 327:.\Generated_Source\PSoC5/UART_READER.c ****        UART_READER_CONTROL_REG = control;
 286              		.loc 1 327 0
 287 000a 044A     		ldr	r2, .L19
 288 000c FB79     		ldrb	r3, [r7, #7]
 289 000e 1370     		strb	r3, [r2]
 328:.\Generated_Source\PSoC5/UART_READER.c ****     #endif /* (UART_READER_CONTROL_REG_REMOVED) */
 329:.\Generated_Source\PSoC5/UART_READER.c **** }
 290              		.loc 1 329 0
 291 0010 0C37     		adds	r7, r7, #12
 292              		.cfi_def_cfa_offset 4
 293 0012 BD46     		mov	sp, r7
 294              		.cfi_def_cfa_register 13
 295              		@ sp needed
 296 0014 5DF8047B 		ldr	r7, [sp], #4
 297              		.cfi_restore 7
 298              		.cfi_def_cfa_offset 0
ARM GAS  C:\Users\yqh\AppData\Local\Temp\ccpJxCTG.s 			page 12


 299 0018 7047     		bx	lr
 300              	.L20:
 301 001a 00BF     		.align	2
 302              	.L19:
 303 001c 72640040 		.word	1073767538
 304              		.cfi_endproc
 305              	.LFE5:
 306              		.size	UART_READER_WriteControlRegister, .-UART_READER_WriteControlRegister
 307              		.section	.text.UART_READER_SetRxInterruptMode,"ax",%progbits
 308              		.align	2
 309              		.global	UART_READER_SetRxInterruptMode
 310              		.thumb
 311              		.thumb_func
 312              		.type	UART_READER_SetRxInterruptMode, %function
 313              	UART_READER_SetRxInterruptMode:
 314              	.LFB6:
 330:.\Generated_Source\PSoC5/UART_READER.c **** 
 331:.\Generated_Source\PSoC5/UART_READER.c **** 
 332:.\Generated_Source\PSoC5/UART_READER.c **** #if(UART_READER_RX_ENABLED || UART_READER_HD_ENABLED)
 333:.\Generated_Source\PSoC5/UART_READER.c ****     /*******************************************************************************
 334:.\Generated_Source\PSoC5/UART_READER.c ****     * Function Name: UART_READER_SetRxInterruptMode
 335:.\Generated_Source\PSoC5/UART_READER.c ****     ********************************************************************************
 336:.\Generated_Source\PSoC5/UART_READER.c ****     *
 337:.\Generated_Source\PSoC5/UART_READER.c ****     * Summary:
 338:.\Generated_Source\PSoC5/UART_READER.c ****     *  Configures the RX interrupt sources enabled.
 339:.\Generated_Source\PSoC5/UART_READER.c ****     *
 340:.\Generated_Source\PSoC5/UART_READER.c ****     * Parameters:
 341:.\Generated_Source\PSoC5/UART_READER.c ****     *  IntSrc:  Bit field containing the RX interrupts to enable. Based on the 
 342:.\Generated_Source\PSoC5/UART_READER.c ****     *  bit-field arrangement of the status register. This value must be a 
 343:.\Generated_Source\PSoC5/UART_READER.c ****     *  combination of status register bit-masks shown below:
 344:.\Generated_Source\PSoC5/UART_READER.c ****     *      UART_READER_RX_STS_FIFO_NOTEMPTY    Interrupt on byte received.
 345:.\Generated_Source\PSoC5/UART_READER.c ****     *      UART_READER_RX_STS_PAR_ERROR        Interrupt on parity error.
 346:.\Generated_Source\PSoC5/UART_READER.c ****     *      UART_READER_RX_STS_STOP_ERROR       Interrupt on stop error.
 347:.\Generated_Source\PSoC5/UART_READER.c ****     *      UART_READER_RX_STS_BREAK            Interrupt on break.
 348:.\Generated_Source\PSoC5/UART_READER.c ****     *      UART_READER_RX_STS_OVERRUN          Interrupt on overrun error.
 349:.\Generated_Source\PSoC5/UART_READER.c ****     *      UART_READER_RX_STS_ADDR_MATCH       Interrupt on address match.
 350:.\Generated_Source\PSoC5/UART_READER.c ****     *      UART_READER_RX_STS_MRKSPC           Interrupt on address detect.
 351:.\Generated_Source\PSoC5/UART_READER.c ****     *
 352:.\Generated_Source\PSoC5/UART_READER.c ****     * Return:
 353:.\Generated_Source\PSoC5/UART_READER.c ****     *  None.
 354:.\Generated_Source\PSoC5/UART_READER.c ****     *
 355:.\Generated_Source\PSoC5/UART_READER.c ****     * Theory:
 356:.\Generated_Source\PSoC5/UART_READER.c ****     *  Enables the output of specific status bits to the interrupt controller
 357:.\Generated_Source\PSoC5/UART_READER.c ****     *
 358:.\Generated_Source\PSoC5/UART_READER.c ****     *******************************************************************************/
 359:.\Generated_Source\PSoC5/UART_READER.c ****     void UART_READER_SetRxInterruptMode(uint8 intSrc) 
 360:.\Generated_Source\PSoC5/UART_READER.c ****     {
 315              		.loc 1 360 0
 316              		.cfi_startproc
 317              		@ args = 0, pretend = 0, frame = 8
 318              		@ frame_needed = 1, uses_anonymous_args = 0
 319              		@ link register save eliminated.
 320 0000 80B4     		push	{r7}
 321              		.cfi_def_cfa_offset 4
 322              		.cfi_offset 7, -4
 323 0002 83B0     		sub	sp, sp, #12
 324              		.cfi_def_cfa_offset 16
ARM GAS  C:\Users\yqh\AppData\Local\Temp\ccpJxCTG.s 			page 13


 325 0004 00AF     		add	r7, sp, #0
 326              		.cfi_def_cfa_register 7
 327 0006 0346     		mov	r3, r0
 328 0008 FB71     		strb	r3, [r7, #7]
 361:.\Generated_Source\PSoC5/UART_READER.c ****         UART_READER_RXSTATUS_MASK_REG  = intSrc;
 329              		.loc 1 361 0
 330 000a 044A     		ldr	r2, .L22
 331 000c FB79     		ldrb	r3, [r7, #7]
 332 000e 1370     		strb	r3, [r2]
 362:.\Generated_Source\PSoC5/UART_READER.c ****     }
 333              		.loc 1 362 0
 334 0010 0C37     		adds	r7, r7, #12
 335              		.cfi_def_cfa_offset 4
 336 0012 BD46     		mov	sp, r7
 337              		.cfi_def_cfa_register 13
 338              		@ sp needed
 339 0014 5DF8047B 		ldr	r7, [sp], #4
 340              		.cfi_restore 7
 341              		.cfi_def_cfa_offset 0
 342 0018 7047     		bx	lr
 343              	.L23:
 344 001a 00BF     		.align	2
 345              	.L22:
 346 001c 88650040 		.word	1073767816
 347              		.cfi_endproc
 348              	.LFE6:
 349              		.size	UART_READER_SetRxInterruptMode, .-UART_READER_SetRxInterruptMode
 350              		.section	.text.UART_READER_ReadRxData,"ax",%progbits
 351              		.align	2
 352              		.global	UART_READER_ReadRxData
 353              		.thumb
 354              		.thumb_func
 355              		.type	UART_READER_ReadRxData, %function
 356              	UART_READER_ReadRxData:
 357              	.LFB7:
 363:.\Generated_Source\PSoC5/UART_READER.c **** 
 364:.\Generated_Source\PSoC5/UART_READER.c **** 
 365:.\Generated_Source\PSoC5/UART_READER.c ****     /*******************************************************************************
 366:.\Generated_Source\PSoC5/UART_READER.c ****     * Function Name: UART_READER_ReadRxData
 367:.\Generated_Source\PSoC5/UART_READER.c ****     ********************************************************************************
 368:.\Generated_Source\PSoC5/UART_READER.c ****     *
 369:.\Generated_Source\PSoC5/UART_READER.c ****     * Summary:
 370:.\Generated_Source\PSoC5/UART_READER.c ****     *  Returns the next byte of received data. This function returns data without
 371:.\Generated_Source\PSoC5/UART_READER.c ****     *  checking the status. You must check the status separately.
 372:.\Generated_Source\PSoC5/UART_READER.c ****     *
 373:.\Generated_Source\PSoC5/UART_READER.c ****     * Parameters:
 374:.\Generated_Source\PSoC5/UART_READER.c ****     *  None.
 375:.\Generated_Source\PSoC5/UART_READER.c ****     *
 376:.\Generated_Source\PSoC5/UART_READER.c ****     * Return:
 377:.\Generated_Source\PSoC5/UART_READER.c ****     *  Received data from RX register
 378:.\Generated_Source\PSoC5/UART_READER.c ****     *
 379:.\Generated_Source\PSoC5/UART_READER.c ****     * Global Variables:
 380:.\Generated_Source\PSoC5/UART_READER.c ****     *  UART_READER_rxBuffer - RAM buffer pointer for save received data.
 381:.\Generated_Source\PSoC5/UART_READER.c ****     *  UART_READER_rxBufferWrite - cyclic index for write to rxBuffer,
 382:.\Generated_Source\PSoC5/UART_READER.c ****     *     checked to identify new data.
 383:.\Generated_Source\PSoC5/UART_READER.c ****     *  UART_READER_rxBufferRead - cyclic index for read from rxBuffer,
 384:.\Generated_Source\PSoC5/UART_READER.c ****     *     incremented after each byte has been read from buffer.
ARM GAS  C:\Users\yqh\AppData\Local\Temp\ccpJxCTG.s 			page 14


 385:.\Generated_Source\PSoC5/UART_READER.c ****     *  UART_READER_rxBufferLoopDetect - cleared if loop condition was detected
 386:.\Generated_Source\PSoC5/UART_READER.c ****     *     in RX ISR.
 387:.\Generated_Source\PSoC5/UART_READER.c ****     *
 388:.\Generated_Source\PSoC5/UART_READER.c ****     * Reentrant:
 389:.\Generated_Source\PSoC5/UART_READER.c ****     *  No.
 390:.\Generated_Source\PSoC5/UART_READER.c ****     *
 391:.\Generated_Source\PSoC5/UART_READER.c ****     *******************************************************************************/
 392:.\Generated_Source\PSoC5/UART_READER.c ****     uint8 UART_READER_ReadRxData(void) 
 393:.\Generated_Source\PSoC5/UART_READER.c ****     {
 358              		.loc 1 393 0
 359              		.cfi_startproc
 360              		@ args = 0, pretend = 0, frame = 8
 361              		@ frame_needed = 1, uses_anonymous_args = 0
 362              		@ link register save eliminated.
 363 0000 80B4     		push	{r7}
 364              		.cfi_def_cfa_offset 4
 365              		.cfi_offset 7, -4
 366 0002 83B0     		sub	sp, sp, #12
 367              		.cfi_def_cfa_offset 16
 368 0004 00AF     		add	r7, sp, #0
 369              		.cfi_def_cfa_register 7
 394:.\Generated_Source\PSoC5/UART_READER.c ****         uint8 rxData;
 395:.\Generated_Source\PSoC5/UART_READER.c **** 
 396:.\Generated_Source\PSoC5/UART_READER.c ****     #if (UART_READER_RX_INTERRUPT_ENABLED)
 397:.\Generated_Source\PSoC5/UART_READER.c **** 
 398:.\Generated_Source\PSoC5/UART_READER.c ****         uint8 locRxBufferRead;
 399:.\Generated_Source\PSoC5/UART_READER.c ****         uint8 locRxBufferWrite;
 400:.\Generated_Source\PSoC5/UART_READER.c **** 
 401:.\Generated_Source\PSoC5/UART_READER.c ****         /* Protect variables that could change on interrupt */
 402:.\Generated_Source\PSoC5/UART_READER.c ****         UART_READER_DisableRxInt();
 403:.\Generated_Source\PSoC5/UART_READER.c **** 
 404:.\Generated_Source\PSoC5/UART_READER.c ****         locRxBufferRead  = UART_READER_rxBufferRead;
 405:.\Generated_Source\PSoC5/UART_READER.c ****         locRxBufferWrite = UART_READER_rxBufferWrite;
 406:.\Generated_Source\PSoC5/UART_READER.c **** 
 407:.\Generated_Source\PSoC5/UART_READER.c ****         if( (UART_READER_rxBufferLoopDetect != 0u) || (locRxBufferRead != locRxBufferWrite) )
 408:.\Generated_Source\PSoC5/UART_READER.c ****         {
 409:.\Generated_Source\PSoC5/UART_READER.c ****             rxData = UART_READER_rxBuffer[locRxBufferRead];
 410:.\Generated_Source\PSoC5/UART_READER.c ****             locRxBufferRead++;
 411:.\Generated_Source\PSoC5/UART_READER.c **** 
 412:.\Generated_Source\PSoC5/UART_READER.c ****             if(locRxBufferRead >= UART_READER_RX_BUFFER_SIZE)
 413:.\Generated_Source\PSoC5/UART_READER.c ****             {
 414:.\Generated_Source\PSoC5/UART_READER.c ****                 locRxBufferRead = 0u;
 415:.\Generated_Source\PSoC5/UART_READER.c ****             }
 416:.\Generated_Source\PSoC5/UART_READER.c ****             /* Update the real pointer */
 417:.\Generated_Source\PSoC5/UART_READER.c ****             UART_READER_rxBufferRead = locRxBufferRead;
 418:.\Generated_Source\PSoC5/UART_READER.c **** 
 419:.\Generated_Source\PSoC5/UART_READER.c ****             if(UART_READER_rxBufferLoopDetect != 0u)
 420:.\Generated_Source\PSoC5/UART_READER.c ****             {
 421:.\Generated_Source\PSoC5/UART_READER.c ****                 UART_READER_rxBufferLoopDetect = 0u;
 422:.\Generated_Source\PSoC5/UART_READER.c ****                 #if ((UART_READER_RX_INTERRUPT_ENABLED) && (UART_READER_FLOW_CONTROL != 0u))
 423:.\Generated_Source\PSoC5/UART_READER.c ****                     /* When Hardware Flow Control selected - return RX mask */
 424:.\Generated_Source\PSoC5/UART_READER.c ****                     #if( UART_READER_HD_ENABLED )
 425:.\Generated_Source\PSoC5/UART_READER.c ****                         if((UART_READER_CONTROL_REG & UART_READER_CTRL_HD_SEND) == 0u)
 426:.\Generated_Source\PSoC5/UART_READER.c ****                         {   /* In Half duplex mode return RX mask only in RX
 427:.\Generated_Source\PSoC5/UART_READER.c ****                             *  configuration set, otherwise
 428:.\Generated_Source\PSoC5/UART_READER.c ****                             *  mask will be returned in LoadRxConfig() API.
 429:.\Generated_Source\PSoC5/UART_READER.c ****                             */
ARM GAS  C:\Users\yqh\AppData\Local\Temp\ccpJxCTG.s 			page 15


 430:.\Generated_Source\PSoC5/UART_READER.c ****                             UART_READER_RXSTATUS_MASK_REG  |= UART_READER_RX_STS_FIFO_NOTEMPTY;
 431:.\Generated_Source\PSoC5/UART_READER.c ****                         }
 432:.\Generated_Source\PSoC5/UART_READER.c ****                     #else
 433:.\Generated_Source\PSoC5/UART_READER.c ****                         UART_READER_RXSTATUS_MASK_REG  |= UART_READER_RX_STS_FIFO_NOTEMPTY;
 434:.\Generated_Source\PSoC5/UART_READER.c ****                     #endif /* end UART_READER_HD_ENABLED */
 435:.\Generated_Source\PSoC5/UART_READER.c ****                 #endif /* ((UART_READER_RX_INTERRUPT_ENABLED) && (UART_READER_FLOW_CONTROL != 0u)) 
 436:.\Generated_Source\PSoC5/UART_READER.c ****             }
 437:.\Generated_Source\PSoC5/UART_READER.c ****         }
 438:.\Generated_Source\PSoC5/UART_READER.c ****         else
 439:.\Generated_Source\PSoC5/UART_READER.c ****         {   /* Needs to check status for RX_STS_FIFO_NOTEMPTY bit */
 440:.\Generated_Source\PSoC5/UART_READER.c ****             rxData = UART_READER_RXDATA_REG;
 441:.\Generated_Source\PSoC5/UART_READER.c ****         }
 442:.\Generated_Source\PSoC5/UART_READER.c **** 
 443:.\Generated_Source\PSoC5/UART_READER.c ****         UART_READER_EnableRxInt();
 444:.\Generated_Source\PSoC5/UART_READER.c **** 
 445:.\Generated_Source\PSoC5/UART_READER.c ****     #else
 446:.\Generated_Source\PSoC5/UART_READER.c **** 
 447:.\Generated_Source\PSoC5/UART_READER.c ****         /* Needs to check status for RX_STS_FIFO_NOTEMPTY bit */
 448:.\Generated_Source\PSoC5/UART_READER.c ****         rxData = UART_READER_RXDATA_REG;
 370              		.loc 1 448 0
 371 0006 054B     		ldr	r3, .L26
 372 0008 1B78     		ldrb	r3, [r3]
 373 000a FB71     		strb	r3, [r7, #7]
 449:.\Generated_Source\PSoC5/UART_READER.c **** 
 450:.\Generated_Source\PSoC5/UART_READER.c ****     #endif /* (UART_READER_RX_INTERRUPT_ENABLED) */
 451:.\Generated_Source\PSoC5/UART_READER.c **** 
 452:.\Generated_Source\PSoC5/UART_READER.c ****         return(rxData);
 374              		.loc 1 452 0
 375 000c FB79     		ldrb	r3, [r7, #7]	@ zero_extendqisi2
 453:.\Generated_Source\PSoC5/UART_READER.c ****     }
 376              		.loc 1 453 0
 377 000e 1846     		mov	r0, r3
 378 0010 0C37     		adds	r7, r7, #12
 379              		.cfi_def_cfa_offset 4
 380 0012 BD46     		mov	sp, r7
 381              		.cfi_def_cfa_register 13
 382              		@ sp needed
 383 0014 5DF8047B 		ldr	r7, [sp], #4
 384              		.cfi_restore 7
 385              		.cfi_def_cfa_offset 0
 386 0018 7047     		bx	lr
 387              	.L27:
 388 001a 00BF     		.align	2
 389              	.L26:
 390 001c 48650040 		.word	1073767752
 391              		.cfi_endproc
 392              	.LFE7:
 393              		.size	UART_READER_ReadRxData, .-UART_READER_ReadRxData
 394              		.section	.text.UART_READER_ReadRxStatus,"ax",%progbits
 395              		.align	2
 396              		.global	UART_READER_ReadRxStatus
 397              		.thumb
 398              		.thumb_func
 399              		.type	UART_READER_ReadRxStatus, %function
 400              	UART_READER_ReadRxStatus:
 401              	.LFB8:
 454:.\Generated_Source\PSoC5/UART_READER.c **** 
ARM GAS  C:\Users\yqh\AppData\Local\Temp\ccpJxCTG.s 			page 16


 455:.\Generated_Source\PSoC5/UART_READER.c **** 
 456:.\Generated_Source\PSoC5/UART_READER.c ****     /*******************************************************************************
 457:.\Generated_Source\PSoC5/UART_READER.c ****     * Function Name: UART_READER_ReadRxStatus
 458:.\Generated_Source\PSoC5/UART_READER.c ****     ********************************************************************************
 459:.\Generated_Source\PSoC5/UART_READER.c ****     *
 460:.\Generated_Source\PSoC5/UART_READER.c ****     * Summary:
 461:.\Generated_Source\PSoC5/UART_READER.c ****     *  Returns the current state of the receiver status register and the software
 462:.\Generated_Source\PSoC5/UART_READER.c ****     *  buffer overflow status.
 463:.\Generated_Source\PSoC5/UART_READER.c ****     *
 464:.\Generated_Source\PSoC5/UART_READER.c ****     * Parameters:
 465:.\Generated_Source\PSoC5/UART_READER.c ****     *  None.
 466:.\Generated_Source\PSoC5/UART_READER.c ****     *
 467:.\Generated_Source\PSoC5/UART_READER.c ****     * Return:
 468:.\Generated_Source\PSoC5/UART_READER.c ****     *  Current state of the status register.
 469:.\Generated_Source\PSoC5/UART_READER.c ****     *
 470:.\Generated_Source\PSoC5/UART_READER.c ****     * Side Effect:
 471:.\Generated_Source\PSoC5/UART_READER.c ****     *  All status register bits are clear-on-read except
 472:.\Generated_Source\PSoC5/UART_READER.c ****     *  UART_READER_RX_STS_FIFO_NOTEMPTY.
 473:.\Generated_Source\PSoC5/UART_READER.c ****     *  UART_READER_RX_STS_FIFO_NOTEMPTY clears immediately after RX data
 474:.\Generated_Source\PSoC5/UART_READER.c ****     *  register read.
 475:.\Generated_Source\PSoC5/UART_READER.c ****     *
 476:.\Generated_Source\PSoC5/UART_READER.c ****     * Global Variables:
 477:.\Generated_Source\PSoC5/UART_READER.c ****     *  UART_READER_rxBufferOverflow - used to indicate overload condition.
 478:.\Generated_Source\PSoC5/UART_READER.c ****     *   It set to one in RX interrupt when there isn't free space in
 479:.\Generated_Source\PSoC5/UART_READER.c ****     *   UART_READER_rxBufferRead to write new data. This condition returned
 480:.\Generated_Source\PSoC5/UART_READER.c ****     *   and cleared to zero by this API as an
 481:.\Generated_Source\PSoC5/UART_READER.c ****     *   UART_READER_RX_STS_SOFT_BUFF_OVER bit along with RX Status register
 482:.\Generated_Source\PSoC5/UART_READER.c ****     *   bits.
 483:.\Generated_Source\PSoC5/UART_READER.c ****     *
 484:.\Generated_Source\PSoC5/UART_READER.c ****     *******************************************************************************/
 485:.\Generated_Source\PSoC5/UART_READER.c ****     uint8 UART_READER_ReadRxStatus(void) 
 486:.\Generated_Source\PSoC5/UART_READER.c ****     {
 402              		.loc 1 486 0
 403              		.cfi_startproc
 404              		@ args = 0, pretend = 0, frame = 8
 405              		@ frame_needed = 1, uses_anonymous_args = 0
 406              		@ link register save eliminated.
 407 0000 80B4     		push	{r7}
 408              		.cfi_def_cfa_offset 4
 409              		.cfi_offset 7, -4
 410 0002 83B0     		sub	sp, sp, #12
 411              		.cfi_def_cfa_offset 16
 412 0004 00AF     		add	r7, sp, #0
 413              		.cfi_def_cfa_register 7
 487:.\Generated_Source\PSoC5/UART_READER.c ****         uint8 status;
 488:.\Generated_Source\PSoC5/UART_READER.c **** 
 489:.\Generated_Source\PSoC5/UART_READER.c ****         status = UART_READER_RXSTATUS_REG & UART_READER_RX_HW_MASK;
 414              		.loc 1 489 0
 415 0006 064B     		ldr	r3, .L30
 416 0008 1B78     		ldrb	r3, [r3]
 417 000a DBB2     		uxtb	r3, r3
 418 000c 03F07F03 		and	r3, r3, #127
 419 0010 FB71     		strb	r3, [r7, #7]
 490:.\Generated_Source\PSoC5/UART_READER.c **** 
 491:.\Generated_Source\PSoC5/UART_READER.c ****     #if (UART_READER_RX_INTERRUPT_ENABLED)
 492:.\Generated_Source\PSoC5/UART_READER.c ****         if(UART_READER_rxBufferOverflow != 0u)
 493:.\Generated_Source\PSoC5/UART_READER.c ****         {
ARM GAS  C:\Users\yqh\AppData\Local\Temp\ccpJxCTG.s 			page 17


 494:.\Generated_Source\PSoC5/UART_READER.c ****             status |= UART_READER_RX_STS_SOFT_BUFF_OVER;
 495:.\Generated_Source\PSoC5/UART_READER.c ****             UART_READER_rxBufferOverflow = 0u;
 496:.\Generated_Source\PSoC5/UART_READER.c ****         }
 497:.\Generated_Source\PSoC5/UART_READER.c ****     #endif /* (UART_READER_RX_INTERRUPT_ENABLED) */
 498:.\Generated_Source\PSoC5/UART_READER.c **** 
 499:.\Generated_Source\PSoC5/UART_READER.c ****         return(status);
 420              		.loc 1 499 0
 421 0012 FB79     		ldrb	r3, [r7, #7]	@ zero_extendqisi2
 500:.\Generated_Source\PSoC5/UART_READER.c ****     }
 422              		.loc 1 500 0
 423 0014 1846     		mov	r0, r3
 424 0016 0C37     		adds	r7, r7, #12
 425              		.cfi_def_cfa_offset 4
 426 0018 BD46     		mov	sp, r7
 427              		.cfi_def_cfa_register 13
 428              		@ sp needed
 429 001a 5DF8047B 		ldr	r7, [sp], #4
 430              		.cfi_restore 7
 431              		.cfi_def_cfa_offset 0
 432 001e 7047     		bx	lr
 433              	.L31:
 434              		.align	2
 435              	.L30:
 436 0020 68650040 		.word	1073767784
 437              		.cfi_endproc
 438              	.LFE8:
 439              		.size	UART_READER_ReadRxStatus, .-UART_READER_ReadRxStatus
 440              		.section	.text.UART_READER_GetChar,"ax",%progbits
 441              		.align	2
 442              		.global	UART_READER_GetChar
 443              		.thumb
 444              		.thumb_func
 445              		.type	UART_READER_GetChar, %function
 446              	UART_READER_GetChar:
 447              	.LFB9:
 501:.\Generated_Source\PSoC5/UART_READER.c **** 
 502:.\Generated_Source\PSoC5/UART_READER.c **** 
 503:.\Generated_Source\PSoC5/UART_READER.c ****     /*******************************************************************************
 504:.\Generated_Source\PSoC5/UART_READER.c ****     * Function Name: UART_READER_GetChar
 505:.\Generated_Source\PSoC5/UART_READER.c ****     ********************************************************************************
 506:.\Generated_Source\PSoC5/UART_READER.c ****     *
 507:.\Generated_Source\PSoC5/UART_READER.c ****     * Summary:
 508:.\Generated_Source\PSoC5/UART_READER.c ****     *  Returns the last received byte of data. UART_READER_GetChar() is
 509:.\Generated_Source\PSoC5/UART_READER.c ****     *  designed for ASCII characters and returns a uint8 where 1 to 255 are values
 510:.\Generated_Source\PSoC5/UART_READER.c ****     *  for valid characters and 0 indicates an error occurred or no data is present.
 511:.\Generated_Source\PSoC5/UART_READER.c ****     *
 512:.\Generated_Source\PSoC5/UART_READER.c ****     * Parameters:
 513:.\Generated_Source\PSoC5/UART_READER.c ****     *  None.
 514:.\Generated_Source\PSoC5/UART_READER.c ****     *
 515:.\Generated_Source\PSoC5/UART_READER.c ****     * Return:
 516:.\Generated_Source\PSoC5/UART_READER.c ****     *  Character read from UART RX buffer. ASCII characters from 1 to 255 are valid.
 517:.\Generated_Source\PSoC5/UART_READER.c ****     *  A returned zero signifies an error condition or no data available.
 518:.\Generated_Source\PSoC5/UART_READER.c ****     *
 519:.\Generated_Source\PSoC5/UART_READER.c ****     * Global Variables:
 520:.\Generated_Source\PSoC5/UART_READER.c ****     *  UART_READER_rxBuffer - RAM buffer pointer for save received data.
 521:.\Generated_Source\PSoC5/UART_READER.c ****     *  UART_READER_rxBufferWrite - cyclic index for write to rxBuffer,
 522:.\Generated_Source\PSoC5/UART_READER.c ****     *     checked to identify new data.
ARM GAS  C:\Users\yqh\AppData\Local\Temp\ccpJxCTG.s 			page 18


 523:.\Generated_Source\PSoC5/UART_READER.c ****     *  UART_READER_rxBufferRead - cyclic index for read from rxBuffer,
 524:.\Generated_Source\PSoC5/UART_READER.c ****     *     incremented after each byte has been read from buffer.
 525:.\Generated_Source\PSoC5/UART_READER.c ****     *  UART_READER_rxBufferLoopDetect - cleared if loop condition was detected
 526:.\Generated_Source\PSoC5/UART_READER.c ****     *     in RX ISR.
 527:.\Generated_Source\PSoC5/UART_READER.c ****     *
 528:.\Generated_Source\PSoC5/UART_READER.c ****     * Reentrant:
 529:.\Generated_Source\PSoC5/UART_READER.c ****     *  No.
 530:.\Generated_Source\PSoC5/UART_READER.c ****     *
 531:.\Generated_Source\PSoC5/UART_READER.c ****     *******************************************************************************/
 532:.\Generated_Source\PSoC5/UART_READER.c ****     uint8 UART_READER_GetChar(void) 
 533:.\Generated_Source\PSoC5/UART_READER.c ****     {
 448              		.loc 1 533 0
 449              		.cfi_startproc
 450              		@ args = 0, pretend = 0, frame = 8
 451              		@ frame_needed = 1, uses_anonymous_args = 0
 452              		@ link register save eliminated.
 453 0000 80B4     		push	{r7}
 454              		.cfi_def_cfa_offset 4
 455              		.cfi_offset 7, -4
 456 0002 83B0     		sub	sp, sp, #12
 457              		.cfi_def_cfa_offset 16
 458 0004 00AF     		add	r7, sp, #0
 459              		.cfi_def_cfa_register 7
 534:.\Generated_Source\PSoC5/UART_READER.c ****         uint8 rxData = 0u;
 460              		.loc 1 534 0
 461 0006 0023     		movs	r3, #0
 462 0008 FB71     		strb	r3, [r7, #7]
 535:.\Generated_Source\PSoC5/UART_READER.c ****         uint8 rxStatus;
 536:.\Generated_Source\PSoC5/UART_READER.c **** 
 537:.\Generated_Source\PSoC5/UART_READER.c ****     #if (UART_READER_RX_INTERRUPT_ENABLED)
 538:.\Generated_Source\PSoC5/UART_READER.c ****         uint8 locRxBufferRead;
 539:.\Generated_Source\PSoC5/UART_READER.c ****         uint8 locRxBufferWrite;
 540:.\Generated_Source\PSoC5/UART_READER.c **** 
 541:.\Generated_Source\PSoC5/UART_READER.c ****         /* Protect variables that could change on interrupt */
 542:.\Generated_Source\PSoC5/UART_READER.c ****         UART_READER_DisableRxInt();
 543:.\Generated_Source\PSoC5/UART_READER.c **** 
 544:.\Generated_Source\PSoC5/UART_READER.c ****         locRxBufferRead  = UART_READER_rxBufferRead;
 545:.\Generated_Source\PSoC5/UART_READER.c ****         locRxBufferWrite = UART_READER_rxBufferWrite;
 546:.\Generated_Source\PSoC5/UART_READER.c **** 
 547:.\Generated_Source\PSoC5/UART_READER.c ****         if( (UART_READER_rxBufferLoopDetect != 0u) || (locRxBufferRead != locRxBufferWrite) )
 548:.\Generated_Source\PSoC5/UART_READER.c ****         {
 549:.\Generated_Source\PSoC5/UART_READER.c ****             rxData = UART_READER_rxBuffer[locRxBufferRead];
 550:.\Generated_Source\PSoC5/UART_READER.c ****             locRxBufferRead++;
 551:.\Generated_Source\PSoC5/UART_READER.c ****             if(locRxBufferRead >= UART_READER_RX_BUFFER_SIZE)
 552:.\Generated_Source\PSoC5/UART_READER.c ****             {
 553:.\Generated_Source\PSoC5/UART_READER.c ****                 locRxBufferRead = 0u;
 554:.\Generated_Source\PSoC5/UART_READER.c ****             }
 555:.\Generated_Source\PSoC5/UART_READER.c ****             /* Update the real pointer */
 556:.\Generated_Source\PSoC5/UART_READER.c ****             UART_READER_rxBufferRead = locRxBufferRead;
 557:.\Generated_Source\PSoC5/UART_READER.c **** 
 558:.\Generated_Source\PSoC5/UART_READER.c ****             if(UART_READER_rxBufferLoopDetect != 0u)
 559:.\Generated_Source\PSoC5/UART_READER.c ****             {
 560:.\Generated_Source\PSoC5/UART_READER.c ****                 UART_READER_rxBufferLoopDetect = 0u;
 561:.\Generated_Source\PSoC5/UART_READER.c ****                 #if( (UART_READER_RX_INTERRUPT_ENABLED) && (UART_READER_FLOW_CONTROL != 0u) )
 562:.\Generated_Source\PSoC5/UART_READER.c ****                     /* When Hardware Flow Control selected - return RX mask */
 563:.\Generated_Source\PSoC5/UART_READER.c ****                     #if( UART_READER_HD_ENABLED )
 564:.\Generated_Source\PSoC5/UART_READER.c ****                         if((UART_READER_CONTROL_REG & UART_READER_CTRL_HD_SEND) == 0u)
ARM GAS  C:\Users\yqh\AppData\Local\Temp\ccpJxCTG.s 			page 19


 565:.\Generated_Source\PSoC5/UART_READER.c ****                         {   /* In Half duplex mode return RX mask only if
 566:.\Generated_Source\PSoC5/UART_READER.c ****                             *  RX configuration set, otherwise
 567:.\Generated_Source\PSoC5/UART_READER.c ****                             *  mask will be returned in LoadRxConfig() API.
 568:.\Generated_Source\PSoC5/UART_READER.c ****                             */
 569:.\Generated_Source\PSoC5/UART_READER.c ****                             UART_READER_RXSTATUS_MASK_REG |= UART_READER_RX_STS_FIFO_NOTEMPTY;
 570:.\Generated_Source\PSoC5/UART_READER.c ****                         }
 571:.\Generated_Source\PSoC5/UART_READER.c ****                     #else
 572:.\Generated_Source\PSoC5/UART_READER.c ****                         UART_READER_RXSTATUS_MASK_REG |= UART_READER_RX_STS_FIFO_NOTEMPTY;
 573:.\Generated_Source\PSoC5/UART_READER.c ****                     #endif /* end UART_READER_HD_ENABLED */
 574:.\Generated_Source\PSoC5/UART_READER.c ****                 #endif /* UART_READER_RX_INTERRUPT_ENABLED and Hardware flow control*/
 575:.\Generated_Source\PSoC5/UART_READER.c ****             }
 576:.\Generated_Source\PSoC5/UART_READER.c **** 
 577:.\Generated_Source\PSoC5/UART_READER.c ****         }
 578:.\Generated_Source\PSoC5/UART_READER.c ****         else
 579:.\Generated_Source\PSoC5/UART_READER.c ****         {   rxStatus = UART_READER_RXSTATUS_REG;
 580:.\Generated_Source\PSoC5/UART_READER.c ****             if((rxStatus & UART_READER_RX_STS_FIFO_NOTEMPTY) != 0u)
 581:.\Generated_Source\PSoC5/UART_READER.c ****             {   /* Read received data from FIFO */
 582:.\Generated_Source\PSoC5/UART_READER.c ****                 rxData = UART_READER_RXDATA_REG;
 583:.\Generated_Source\PSoC5/UART_READER.c ****                 /*Check status on error*/
 584:.\Generated_Source\PSoC5/UART_READER.c ****                 if((rxStatus & (UART_READER_RX_STS_BREAK | UART_READER_RX_STS_PAR_ERROR |
 585:.\Generated_Source\PSoC5/UART_READER.c ****                                 UART_READER_RX_STS_STOP_ERROR | UART_READER_RX_STS_OVERRUN)) != 0u)
 586:.\Generated_Source\PSoC5/UART_READER.c ****                 {
 587:.\Generated_Source\PSoC5/UART_READER.c ****                     rxData = 0u;
 588:.\Generated_Source\PSoC5/UART_READER.c ****                 }
 589:.\Generated_Source\PSoC5/UART_READER.c ****             }
 590:.\Generated_Source\PSoC5/UART_READER.c ****         }
 591:.\Generated_Source\PSoC5/UART_READER.c **** 
 592:.\Generated_Source\PSoC5/UART_READER.c ****         UART_READER_EnableRxInt();
 593:.\Generated_Source\PSoC5/UART_READER.c **** 
 594:.\Generated_Source\PSoC5/UART_READER.c ****     #else
 595:.\Generated_Source\PSoC5/UART_READER.c **** 
 596:.\Generated_Source\PSoC5/UART_READER.c ****         rxStatus =UART_READER_RXSTATUS_REG;
 463              		.loc 1 596 0
 464 000a 0C4B     		ldr	r3, .L35
 465 000c 1B78     		ldrb	r3, [r3]
 466 000e BB71     		strb	r3, [r7, #6]
 597:.\Generated_Source\PSoC5/UART_READER.c ****         if((rxStatus & UART_READER_RX_STS_FIFO_NOTEMPTY) != 0u)
 467              		.loc 1 597 0
 468 0010 BB79     		ldrb	r3, [r7, #6]	@ zero_extendqisi2
 469 0012 03F02003 		and	r3, r3, #32
 470 0016 002B     		cmp	r3, #0
 471 0018 09D0     		beq	.L33
 598:.\Generated_Source\PSoC5/UART_READER.c ****         {
 599:.\Generated_Source\PSoC5/UART_READER.c ****             /* Read received data from FIFO */
 600:.\Generated_Source\PSoC5/UART_READER.c ****             rxData = UART_READER_RXDATA_REG;
 472              		.loc 1 600 0
 473 001a 094B     		ldr	r3, .L35+4
 474 001c 1B78     		ldrb	r3, [r3]
 475 001e FB71     		strb	r3, [r7, #7]
 601:.\Generated_Source\PSoC5/UART_READER.c **** 
 602:.\Generated_Source\PSoC5/UART_READER.c ****             /*Check status on error*/
 603:.\Generated_Source\PSoC5/UART_READER.c ****             if((rxStatus & (UART_READER_RX_STS_BREAK | UART_READER_RX_STS_PAR_ERROR |
 604:.\Generated_Source\PSoC5/UART_READER.c ****                             UART_READER_RX_STS_STOP_ERROR | UART_READER_RX_STS_OVERRUN)) != 0u)
 476              		.loc 1 604 0
 477 0020 BB79     		ldrb	r3, [r7, #6]	@ zero_extendqisi2
 478 0022 03F01E03 		and	r3, r3, #30
 603:.\Generated_Source\PSoC5/UART_READER.c ****                             UART_READER_RX_STS_STOP_ERROR | UART_READER_RX_STS_OVERRUN)) != 0u)
ARM GAS  C:\Users\yqh\AppData\Local\Temp\ccpJxCTG.s 			page 20


 479              		.loc 1 603 0
 480 0026 002B     		cmp	r3, #0
 481 0028 01D0     		beq	.L33
 605:.\Generated_Source\PSoC5/UART_READER.c ****             {
 606:.\Generated_Source\PSoC5/UART_READER.c ****                 rxData = 0u;
 482              		.loc 1 606 0
 483 002a 0023     		movs	r3, #0
 484 002c FB71     		strb	r3, [r7, #7]
 485              	.L33:
 607:.\Generated_Source\PSoC5/UART_READER.c ****             }
 608:.\Generated_Source\PSoC5/UART_READER.c ****         }
 609:.\Generated_Source\PSoC5/UART_READER.c ****     #endif /* (UART_READER_RX_INTERRUPT_ENABLED) */
 610:.\Generated_Source\PSoC5/UART_READER.c **** 
 611:.\Generated_Source\PSoC5/UART_READER.c ****         return(rxData);
 486              		.loc 1 611 0
 487 002e FB79     		ldrb	r3, [r7, #7]	@ zero_extendqisi2
 612:.\Generated_Source\PSoC5/UART_READER.c ****     }
 488              		.loc 1 612 0
 489 0030 1846     		mov	r0, r3
 490 0032 0C37     		adds	r7, r7, #12
 491              		.cfi_def_cfa_offset 4
 492 0034 BD46     		mov	sp, r7
 493              		.cfi_def_cfa_register 13
 494              		@ sp needed
 495 0036 5DF8047B 		ldr	r7, [sp], #4
 496              		.cfi_restore 7
 497              		.cfi_def_cfa_offset 0
 498 003a 7047     		bx	lr
 499              	.L36:
 500              		.align	2
 501              	.L35:
 502 003c 68650040 		.word	1073767784
 503 0040 48650040 		.word	1073767752
 504              		.cfi_endproc
 505              	.LFE9:
 506              		.size	UART_READER_GetChar, .-UART_READER_GetChar
 507              		.section	.text.UART_READER_GetByte,"ax",%progbits
 508              		.align	2
 509              		.global	UART_READER_GetByte
 510              		.thumb
 511              		.thumb_func
 512              		.type	UART_READER_GetByte, %function
 513              	UART_READER_GetByte:
 514              	.LFB10:
 613:.\Generated_Source\PSoC5/UART_READER.c **** 
 614:.\Generated_Source\PSoC5/UART_READER.c **** 
 615:.\Generated_Source\PSoC5/UART_READER.c ****     /*******************************************************************************
 616:.\Generated_Source\PSoC5/UART_READER.c ****     * Function Name: UART_READER_GetByte
 617:.\Generated_Source\PSoC5/UART_READER.c ****     ********************************************************************************
 618:.\Generated_Source\PSoC5/UART_READER.c ****     *
 619:.\Generated_Source\PSoC5/UART_READER.c ****     * Summary:
 620:.\Generated_Source\PSoC5/UART_READER.c ****     *  Reads UART RX buffer immediately, returns received character and error
 621:.\Generated_Source\PSoC5/UART_READER.c ****     *  condition.
 622:.\Generated_Source\PSoC5/UART_READER.c ****     *
 623:.\Generated_Source\PSoC5/UART_READER.c ****     * Parameters:
 624:.\Generated_Source\PSoC5/UART_READER.c ****     *  None.
 625:.\Generated_Source\PSoC5/UART_READER.c ****     *
ARM GAS  C:\Users\yqh\AppData\Local\Temp\ccpJxCTG.s 			page 21


 626:.\Generated_Source\PSoC5/UART_READER.c ****     * Return:
 627:.\Generated_Source\PSoC5/UART_READER.c ****     *  MSB contains status and LSB contains UART RX data. If the MSB is nonzero,
 628:.\Generated_Source\PSoC5/UART_READER.c ****     *  an error has occurred.
 629:.\Generated_Source\PSoC5/UART_READER.c ****     *
 630:.\Generated_Source\PSoC5/UART_READER.c ****     * Reentrant:
 631:.\Generated_Source\PSoC5/UART_READER.c ****     *  No.
 632:.\Generated_Source\PSoC5/UART_READER.c ****     *
 633:.\Generated_Source\PSoC5/UART_READER.c ****     *******************************************************************************/
 634:.\Generated_Source\PSoC5/UART_READER.c ****     uint16 UART_READER_GetByte(void) 
 635:.\Generated_Source\PSoC5/UART_READER.c ****     {
 515              		.loc 1 635 0
 516              		.cfi_startproc
 517              		@ args = 0, pretend = 0, frame = 0
 518              		@ frame_needed = 1, uses_anonymous_args = 0
 519 0000 98B5     		push	{r3, r4, r7, lr}
 520              		.cfi_def_cfa_offset 16
 521              		.cfi_offset 3, -16
 522              		.cfi_offset 4, -12
 523              		.cfi_offset 7, -8
 524              		.cfi_offset 14, -4
 525 0002 00AF     		add	r7, sp, #0
 526              		.cfi_def_cfa_register 7
 636:.\Generated_Source\PSoC5/UART_READER.c ****         
 637:.\Generated_Source\PSoC5/UART_READER.c ****     #if (UART_READER_RX_INTERRUPT_ENABLED)
 638:.\Generated_Source\PSoC5/UART_READER.c ****         uint16 locErrorStatus;
 639:.\Generated_Source\PSoC5/UART_READER.c ****         /* Protect variables that could change on interrupt */
 640:.\Generated_Source\PSoC5/UART_READER.c ****         UART_READER_DisableRxInt();
 641:.\Generated_Source\PSoC5/UART_READER.c ****         locErrorStatus = (uint16)UART_READER_errorStatus;
 642:.\Generated_Source\PSoC5/UART_READER.c ****         UART_READER_errorStatus = 0u;
 643:.\Generated_Source\PSoC5/UART_READER.c ****         UART_READER_EnableRxInt();
 644:.\Generated_Source\PSoC5/UART_READER.c ****         return ( (uint16)(locErrorStatus << 8u) | UART_READER_ReadRxData() );
 645:.\Generated_Source\PSoC5/UART_READER.c ****     #else
 646:.\Generated_Source\PSoC5/UART_READER.c ****         return ( ((uint16)UART_READER_ReadRxStatus() << 8u) | UART_READER_ReadRxData() );
 527              		.loc 1 646 0
 528 0004 FFF7FEFF 		bl	UART_READER_ReadRxStatus
 529 0008 0346     		mov	r3, r0
 530 000a 1B02     		lsls	r3, r3, #8
 531 000c 9CB2     		uxth	r4, r3
 532 000e FFF7FEFF 		bl	UART_READER_ReadRxData
 533 0012 0346     		mov	r3, r0
 534 0014 9BB2     		uxth	r3, r3
 535 0016 2246     		mov	r2, r4	@ movhi
 536 0018 1343     		orrs	r3, r3, r2
 537 001a 9BB2     		uxth	r3, r3
 538 001c 9BB2     		uxth	r3, r3
 647:.\Generated_Source\PSoC5/UART_READER.c ****     #endif /* UART_READER_RX_INTERRUPT_ENABLED */
 648:.\Generated_Source\PSoC5/UART_READER.c ****         
 649:.\Generated_Source\PSoC5/UART_READER.c ****     }
 539              		.loc 1 649 0
 540 001e 1846     		mov	r0, r3
 541 0020 98BD     		pop	{r3, r4, r7, pc}
 542              		.cfi_endproc
 543              	.LFE10:
 544              		.size	UART_READER_GetByte, .-UART_READER_GetByte
 545 0022 00BF     		.section	.text.UART_READER_GetRxBufferSize,"ax",%progbits
 546              		.align	2
 547              		.global	UART_READER_GetRxBufferSize
ARM GAS  C:\Users\yqh\AppData\Local\Temp\ccpJxCTG.s 			page 22


 548              		.thumb
 549              		.thumb_func
 550              		.type	UART_READER_GetRxBufferSize, %function
 551              	UART_READER_GetRxBufferSize:
 552              	.LFB11:
 650:.\Generated_Source\PSoC5/UART_READER.c **** 
 651:.\Generated_Source\PSoC5/UART_READER.c **** 
 652:.\Generated_Source\PSoC5/UART_READER.c ****     /*******************************************************************************
 653:.\Generated_Source\PSoC5/UART_READER.c ****     * Function Name: UART_READER_GetRxBufferSize
 654:.\Generated_Source\PSoC5/UART_READER.c ****     ********************************************************************************
 655:.\Generated_Source\PSoC5/UART_READER.c ****     *
 656:.\Generated_Source\PSoC5/UART_READER.c ****     * Summary:
 657:.\Generated_Source\PSoC5/UART_READER.c ****     *  Returns the number of received bytes available in the RX buffer.
 658:.\Generated_Source\PSoC5/UART_READER.c ****     *  * RX software buffer is disabled (RX Buffer Size parameter is equal to 4): 
 659:.\Generated_Source\PSoC5/UART_READER.c ****     *    returns 0 for empty RX FIFO or 1 for not empty RX FIFO.
 660:.\Generated_Source\PSoC5/UART_READER.c ****     *  * RX software buffer is enabled: returns the number of bytes available in 
 661:.\Generated_Source\PSoC5/UART_READER.c ****     *    the RX software buffer. Bytes available in the RX FIFO do not take to 
 662:.\Generated_Source\PSoC5/UART_READER.c ****     *    account.
 663:.\Generated_Source\PSoC5/UART_READER.c ****     *
 664:.\Generated_Source\PSoC5/UART_READER.c ****     * Parameters:
 665:.\Generated_Source\PSoC5/UART_READER.c ****     *  None.
 666:.\Generated_Source\PSoC5/UART_READER.c ****     *
 667:.\Generated_Source\PSoC5/UART_READER.c ****     * Return:
 668:.\Generated_Source\PSoC5/UART_READER.c ****     *  uint8: Number of bytes in the RX buffer. 
 669:.\Generated_Source\PSoC5/UART_READER.c ****     *    Return value type depends on RX Buffer Size parameter.
 670:.\Generated_Source\PSoC5/UART_READER.c ****     *
 671:.\Generated_Source\PSoC5/UART_READER.c ****     * Global Variables:
 672:.\Generated_Source\PSoC5/UART_READER.c ****     *  UART_READER_rxBufferWrite - used to calculate left bytes.
 673:.\Generated_Source\PSoC5/UART_READER.c ****     *  UART_READER_rxBufferRead - used to calculate left bytes.
 674:.\Generated_Source\PSoC5/UART_READER.c ****     *  UART_READER_rxBufferLoopDetect - checked to decide left bytes amount.
 675:.\Generated_Source\PSoC5/UART_READER.c ****     *
 676:.\Generated_Source\PSoC5/UART_READER.c ****     * Reentrant:
 677:.\Generated_Source\PSoC5/UART_READER.c ****     *  No.
 678:.\Generated_Source\PSoC5/UART_READER.c ****     *
 679:.\Generated_Source\PSoC5/UART_READER.c ****     * Theory:
 680:.\Generated_Source\PSoC5/UART_READER.c ****     *  Allows the user to find out how full the RX Buffer is.
 681:.\Generated_Source\PSoC5/UART_READER.c ****     *
 682:.\Generated_Source\PSoC5/UART_READER.c ****     *******************************************************************************/
 683:.\Generated_Source\PSoC5/UART_READER.c ****     uint8 UART_READER_GetRxBufferSize(void)
 684:.\Generated_Source\PSoC5/UART_READER.c ****                                                             
 685:.\Generated_Source\PSoC5/UART_READER.c ****     {
 553              		.loc 1 685 0
 554              		.cfi_startproc
 555              		@ args = 0, pretend = 0, frame = 8
 556              		@ frame_needed = 1, uses_anonymous_args = 0
 557              		@ link register save eliminated.
 558 0000 80B4     		push	{r7}
 559              		.cfi_def_cfa_offset 4
 560              		.cfi_offset 7, -4
 561 0002 83B0     		sub	sp, sp, #12
 562              		.cfi_def_cfa_offset 16
 563 0004 00AF     		add	r7, sp, #0
 564              		.cfi_def_cfa_register 7
 686:.\Generated_Source\PSoC5/UART_READER.c ****         uint8 size;
 687:.\Generated_Source\PSoC5/UART_READER.c **** 
 688:.\Generated_Source\PSoC5/UART_READER.c ****     #if (UART_READER_RX_INTERRUPT_ENABLED)
 689:.\Generated_Source\PSoC5/UART_READER.c **** 
ARM GAS  C:\Users\yqh\AppData\Local\Temp\ccpJxCTG.s 			page 23


 690:.\Generated_Source\PSoC5/UART_READER.c ****         /* Protect variables that could change on interrupt */
 691:.\Generated_Source\PSoC5/UART_READER.c ****         UART_READER_DisableRxInt();
 692:.\Generated_Source\PSoC5/UART_READER.c **** 
 693:.\Generated_Source\PSoC5/UART_READER.c ****         if(UART_READER_rxBufferRead == UART_READER_rxBufferWrite)
 694:.\Generated_Source\PSoC5/UART_READER.c ****         {
 695:.\Generated_Source\PSoC5/UART_READER.c ****             if(UART_READER_rxBufferLoopDetect != 0u)
 696:.\Generated_Source\PSoC5/UART_READER.c ****             {
 697:.\Generated_Source\PSoC5/UART_READER.c ****                 size = UART_READER_RX_BUFFER_SIZE;
 698:.\Generated_Source\PSoC5/UART_READER.c ****             }
 699:.\Generated_Source\PSoC5/UART_READER.c ****             else
 700:.\Generated_Source\PSoC5/UART_READER.c ****             {
 701:.\Generated_Source\PSoC5/UART_READER.c ****                 size = 0u;
 702:.\Generated_Source\PSoC5/UART_READER.c ****             }
 703:.\Generated_Source\PSoC5/UART_READER.c ****         }
 704:.\Generated_Source\PSoC5/UART_READER.c ****         else if(UART_READER_rxBufferRead < UART_READER_rxBufferWrite)
 705:.\Generated_Source\PSoC5/UART_READER.c ****         {
 706:.\Generated_Source\PSoC5/UART_READER.c ****             size = (UART_READER_rxBufferWrite - UART_READER_rxBufferRead);
 707:.\Generated_Source\PSoC5/UART_READER.c ****         }
 708:.\Generated_Source\PSoC5/UART_READER.c ****         else
 709:.\Generated_Source\PSoC5/UART_READER.c ****         {
 710:.\Generated_Source\PSoC5/UART_READER.c ****             size = (UART_READER_RX_BUFFER_SIZE - UART_READER_rxBufferRead) + UART_READER_rxBufferWr
 711:.\Generated_Source\PSoC5/UART_READER.c ****         }
 712:.\Generated_Source\PSoC5/UART_READER.c **** 
 713:.\Generated_Source\PSoC5/UART_READER.c ****         UART_READER_EnableRxInt();
 714:.\Generated_Source\PSoC5/UART_READER.c **** 
 715:.\Generated_Source\PSoC5/UART_READER.c ****     #else
 716:.\Generated_Source\PSoC5/UART_READER.c **** 
 717:.\Generated_Source\PSoC5/UART_READER.c ****         /* We can only know if there is data in the fifo. */
 718:.\Generated_Source\PSoC5/UART_READER.c ****         size = ((UART_READER_RXSTATUS_REG & UART_READER_RX_STS_FIFO_NOTEMPTY) != 0u) ? 1u : 0u;
 565              		.loc 1 718 0
 566 0006 094B     		ldr	r3, .L43
 567 0008 1B78     		ldrb	r3, [r3]
 568 000a DBB2     		uxtb	r3, r3
 569 000c 03F02003 		and	r3, r3, #32
 570 0010 002B     		cmp	r3, #0
 571 0012 01D0     		beq	.L40
 572              		.loc 1 718 0 is_stmt 0 discriminator 1
 573 0014 0123     		movs	r3, #1
 574 0016 00E0     		b	.L41
 575              	.L40:
 576              		.loc 1 718 0 discriminator 2
 577 0018 0023     		movs	r3, #0
 578              	.L41:
 579              		.loc 1 718 0 discriminator 4
 580 001a FB71     		strb	r3, [r7, #7]
 719:.\Generated_Source\PSoC5/UART_READER.c **** 
 720:.\Generated_Source\PSoC5/UART_READER.c ****     #endif /* (UART_READER_RX_INTERRUPT_ENABLED) */
 721:.\Generated_Source\PSoC5/UART_READER.c **** 
 722:.\Generated_Source\PSoC5/UART_READER.c ****         return(size);
 581              		.loc 1 722 0 is_stmt 1 discriminator 4
 582 001c FB79     		ldrb	r3, [r7, #7]	@ zero_extendqisi2
 723:.\Generated_Source\PSoC5/UART_READER.c ****     }
 583              		.loc 1 723 0 discriminator 4
 584 001e 1846     		mov	r0, r3
 585 0020 0C37     		adds	r7, r7, #12
 586              		.cfi_def_cfa_offset 4
 587 0022 BD46     		mov	sp, r7
ARM GAS  C:\Users\yqh\AppData\Local\Temp\ccpJxCTG.s 			page 24


 588              		.cfi_def_cfa_register 13
 589              		@ sp needed
 590 0024 5DF8047B 		ldr	r7, [sp], #4
 591              		.cfi_restore 7
 592              		.cfi_def_cfa_offset 0
 593 0028 7047     		bx	lr
 594              	.L44:
 595 002a 00BF     		.align	2
 596              	.L43:
 597 002c 68650040 		.word	1073767784
 598              		.cfi_endproc
 599              	.LFE11:
 600              		.size	UART_READER_GetRxBufferSize, .-UART_READER_GetRxBufferSize
 601              		.section	.text.UART_READER_ClearRxBuffer,"ax",%progbits
 602              		.align	2
 603              		.global	UART_READER_ClearRxBuffer
 604              		.thumb
 605              		.thumb_func
 606              		.type	UART_READER_ClearRxBuffer, %function
 607              	UART_READER_ClearRxBuffer:
 608              	.LFB12:
 724:.\Generated_Source\PSoC5/UART_READER.c **** 
 725:.\Generated_Source\PSoC5/UART_READER.c **** 
 726:.\Generated_Source\PSoC5/UART_READER.c ****     /*******************************************************************************
 727:.\Generated_Source\PSoC5/UART_READER.c ****     * Function Name: UART_READER_ClearRxBuffer
 728:.\Generated_Source\PSoC5/UART_READER.c ****     ********************************************************************************
 729:.\Generated_Source\PSoC5/UART_READER.c ****     *
 730:.\Generated_Source\PSoC5/UART_READER.c ****     * Summary:
 731:.\Generated_Source\PSoC5/UART_READER.c ****     *  Clears the receiver memory buffer and hardware RX FIFO of all received data.
 732:.\Generated_Source\PSoC5/UART_READER.c ****     *
 733:.\Generated_Source\PSoC5/UART_READER.c ****     * Parameters:
 734:.\Generated_Source\PSoC5/UART_READER.c ****     *  None.
 735:.\Generated_Source\PSoC5/UART_READER.c ****     *
 736:.\Generated_Source\PSoC5/UART_READER.c ****     * Return:
 737:.\Generated_Source\PSoC5/UART_READER.c ****     *  None.
 738:.\Generated_Source\PSoC5/UART_READER.c ****     *
 739:.\Generated_Source\PSoC5/UART_READER.c ****     * Global Variables:
 740:.\Generated_Source\PSoC5/UART_READER.c ****     *  UART_READER_rxBufferWrite - cleared to zero.
 741:.\Generated_Source\PSoC5/UART_READER.c ****     *  UART_READER_rxBufferRead - cleared to zero.
 742:.\Generated_Source\PSoC5/UART_READER.c ****     *  UART_READER_rxBufferLoopDetect - cleared to zero.
 743:.\Generated_Source\PSoC5/UART_READER.c ****     *  UART_READER_rxBufferOverflow - cleared to zero.
 744:.\Generated_Source\PSoC5/UART_READER.c ****     *
 745:.\Generated_Source\PSoC5/UART_READER.c ****     * Reentrant:
 746:.\Generated_Source\PSoC5/UART_READER.c ****     *  No.
 747:.\Generated_Source\PSoC5/UART_READER.c ****     *
 748:.\Generated_Source\PSoC5/UART_READER.c ****     * Theory:
 749:.\Generated_Source\PSoC5/UART_READER.c ****     *  Setting the pointers to zero makes the system believe there is no data to
 750:.\Generated_Source\PSoC5/UART_READER.c ****     *  read and writing will resume at address 0 overwriting any data that may
 751:.\Generated_Source\PSoC5/UART_READER.c ****     *  have remained in the RAM.
 752:.\Generated_Source\PSoC5/UART_READER.c ****     *
 753:.\Generated_Source\PSoC5/UART_READER.c ****     * Side Effects:
 754:.\Generated_Source\PSoC5/UART_READER.c ****     *  Any received data not read from the RAM or FIFO buffer will be lost.
 755:.\Generated_Source\PSoC5/UART_READER.c ****     *
 756:.\Generated_Source\PSoC5/UART_READER.c ****     *******************************************************************************/
 757:.\Generated_Source\PSoC5/UART_READER.c ****     void UART_READER_ClearRxBuffer(void) 
 758:.\Generated_Source\PSoC5/UART_READER.c ****     {
 609              		.loc 1 758 0
ARM GAS  C:\Users\yqh\AppData\Local\Temp\ccpJxCTG.s 			page 25


 610              		.cfi_startproc
 611              		@ args = 0, pretend = 0, frame = 8
 612              		@ frame_needed = 1, uses_anonymous_args = 0
 613 0000 80B5     		push	{r7, lr}
 614              		.cfi_def_cfa_offset 8
 615              		.cfi_offset 7, -8
 616              		.cfi_offset 14, -4
 617 0002 82B0     		sub	sp, sp, #8
 618              		.cfi_def_cfa_offset 16
 619 0004 00AF     		add	r7, sp, #0
 620              		.cfi_def_cfa_register 7
 759:.\Generated_Source\PSoC5/UART_READER.c ****         uint8 enableInterrupts;
 760:.\Generated_Source\PSoC5/UART_READER.c **** 
 761:.\Generated_Source\PSoC5/UART_READER.c ****         /* Clear the HW FIFO */
 762:.\Generated_Source\PSoC5/UART_READER.c ****         enableInterrupts = CyEnterCriticalSection();
 621              		.loc 1 762 0
 622 0006 FFF7FEFF 		bl	CyEnterCriticalSection
 623 000a 0346     		mov	r3, r0
 624 000c FB71     		strb	r3, [r7, #7]
 763:.\Generated_Source\PSoC5/UART_READER.c ****         UART_READER_RXDATA_AUX_CTL_REG |= (uint8)  UART_READER_RX_FIFO_CLR;
 625              		.loc 1 763 0
 626 000e 0B4A     		ldr	r2, .L46
 627 0010 0A4B     		ldr	r3, .L46
 628 0012 1B78     		ldrb	r3, [r3]
 629 0014 DBB2     		uxtb	r3, r3
 630 0016 43F00103 		orr	r3, r3, #1
 631 001a DBB2     		uxtb	r3, r3
 632 001c 1370     		strb	r3, [r2]
 764:.\Generated_Source\PSoC5/UART_READER.c ****         UART_READER_RXDATA_AUX_CTL_REG &= (uint8) ~UART_READER_RX_FIFO_CLR;
 633              		.loc 1 764 0
 634 001e 074A     		ldr	r2, .L46
 635 0020 064B     		ldr	r3, .L46
 636 0022 1B78     		ldrb	r3, [r3]
 637 0024 DBB2     		uxtb	r3, r3
 638 0026 23F00103 		bic	r3, r3, #1
 639 002a DBB2     		uxtb	r3, r3
 640 002c 1370     		strb	r3, [r2]
 765:.\Generated_Source\PSoC5/UART_READER.c ****         CyExitCriticalSection(enableInterrupts);
 641              		.loc 1 765 0
 642 002e FB79     		ldrb	r3, [r7, #7]	@ zero_extendqisi2
 643 0030 1846     		mov	r0, r3
 644 0032 FFF7FEFF 		bl	CyExitCriticalSection
 766:.\Generated_Source\PSoC5/UART_READER.c **** 
 767:.\Generated_Source\PSoC5/UART_READER.c ****     #if (UART_READER_RX_INTERRUPT_ENABLED)
 768:.\Generated_Source\PSoC5/UART_READER.c **** 
 769:.\Generated_Source\PSoC5/UART_READER.c ****         /* Protect variables that could change on interrupt. */
 770:.\Generated_Source\PSoC5/UART_READER.c ****         UART_READER_DisableRxInt();
 771:.\Generated_Source\PSoC5/UART_READER.c **** 
 772:.\Generated_Source\PSoC5/UART_READER.c ****         UART_READER_rxBufferRead = 0u;
 773:.\Generated_Source\PSoC5/UART_READER.c ****         UART_READER_rxBufferWrite = 0u;
 774:.\Generated_Source\PSoC5/UART_READER.c ****         UART_READER_rxBufferLoopDetect = 0u;
 775:.\Generated_Source\PSoC5/UART_READER.c ****         UART_READER_rxBufferOverflow = 0u;
 776:.\Generated_Source\PSoC5/UART_READER.c **** 
 777:.\Generated_Source\PSoC5/UART_READER.c ****         UART_READER_EnableRxInt();
 778:.\Generated_Source\PSoC5/UART_READER.c **** 
 779:.\Generated_Source\PSoC5/UART_READER.c ****     #endif /* (UART_READER_RX_INTERRUPT_ENABLED) */
 780:.\Generated_Source\PSoC5/UART_READER.c **** 
ARM GAS  C:\Users\yqh\AppData\Local\Temp\ccpJxCTG.s 			page 26


 781:.\Generated_Source\PSoC5/UART_READER.c ****     }
 645              		.loc 1 781 0
 646 0036 0837     		adds	r7, r7, #8
 647              		.cfi_def_cfa_offset 8
 648 0038 BD46     		mov	sp, r7
 649              		.cfi_def_cfa_register 13
 650              		@ sp needed
 651 003a 80BD     		pop	{r7, pc}
 652              	.L47:
 653              		.align	2
 654              	.L46:
 655 003c 98650040 		.word	1073767832
 656              		.cfi_endproc
 657              	.LFE12:
 658              		.size	UART_READER_ClearRxBuffer, .-UART_READER_ClearRxBuffer
 659              		.section	.text.UART_READER_SetRxAddressMode,"ax",%progbits
 660              		.align	2
 661              		.global	UART_READER_SetRxAddressMode
 662              		.thumb
 663              		.thumb_func
 664              		.type	UART_READER_SetRxAddressMode, %function
 665              	UART_READER_SetRxAddressMode:
 666              	.LFB13:
 782:.\Generated_Source\PSoC5/UART_READER.c **** 
 783:.\Generated_Source\PSoC5/UART_READER.c **** 
 784:.\Generated_Source\PSoC5/UART_READER.c ****     /*******************************************************************************
 785:.\Generated_Source\PSoC5/UART_READER.c ****     * Function Name: UART_READER_SetRxAddressMode
 786:.\Generated_Source\PSoC5/UART_READER.c ****     ********************************************************************************
 787:.\Generated_Source\PSoC5/UART_READER.c ****     *
 788:.\Generated_Source\PSoC5/UART_READER.c ****     * Summary:
 789:.\Generated_Source\PSoC5/UART_READER.c ****     *  Sets the software controlled Addressing mode used by the RX portion of the
 790:.\Generated_Source\PSoC5/UART_READER.c ****     *  UART.
 791:.\Generated_Source\PSoC5/UART_READER.c ****     *
 792:.\Generated_Source\PSoC5/UART_READER.c ****     * Parameters:
 793:.\Generated_Source\PSoC5/UART_READER.c ****     *  addressMode: Enumerated value indicating the mode of RX addressing
 794:.\Generated_Source\PSoC5/UART_READER.c ****     *  UART_READER__B_UART__AM_SW_BYTE_BYTE -  Software Byte-by-Byte address
 795:.\Generated_Source\PSoC5/UART_READER.c ****     *                                               detection
 796:.\Generated_Source\PSoC5/UART_READER.c ****     *  UART_READER__B_UART__AM_SW_DETECT_TO_BUFFER - Software Detect to Buffer
 797:.\Generated_Source\PSoC5/UART_READER.c ****     *                                               address detection
 798:.\Generated_Source\PSoC5/UART_READER.c ****     *  UART_READER__B_UART__AM_HW_BYTE_BY_BYTE - Hardware Byte-by-Byte address
 799:.\Generated_Source\PSoC5/UART_READER.c ****     *                                               detection
 800:.\Generated_Source\PSoC5/UART_READER.c ****     *  UART_READER__B_UART__AM_HW_DETECT_TO_BUFFER - Hardware Detect to Buffer
 801:.\Generated_Source\PSoC5/UART_READER.c ****     *                                               address detection
 802:.\Generated_Source\PSoC5/UART_READER.c ****     *  UART_READER__B_UART__AM_NONE - No address detection
 803:.\Generated_Source\PSoC5/UART_READER.c ****     *
 804:.\Generated_Source\PSoC5/UART_READER.c ****     * Return:
 805:.\Generated_Source\PSoC5/UART_READER.c ****     *  None.
 806:.\Generated_Source\PSoC5/UART_READER.c ****     *
 807:.\Generated_Source\PSoC5/UART_READER.c ****     * Global Variables:
 808:.\Generated_Source\PSoC5/UART_READER.c ****     *  UART_READER_rxAddressMode - the parameter stored in this variable for
 809:.\Generated_Source\PSoC5/UART_READER.c ****     *   the farther usage in RX ISR.
 810:.\Generated_Source\PSoC5/UART_READER.c ****     *  UART_READER_rxAddressDetected - set to initial state (0).
 811:.\Generated_Source\PSoC5/UART_READER.c ****     *
 812:.\Generated_Source\PSoC5/UART_READER.c ****     *******************************************************************************/
 813:.\Generated_Source\PSoC5/UART_READER.c ****     void UART_READER_SetRxAddressMode(uint8 addressMode)
 814:.\Generated_Source\PSoC5/UART_READER.c ****                                                         
 815:.\Generated_Source\PSoC5/UART_READER.c ****     {
ARM GAS  C:\Users\yqh\AppData\Local\Temp\ccpJxCTG.s 			page 27


 667              		.loc 1 815 0
 668              		.cfi_startproc
 669              		@ args = 0, pretend = 0, frame = 8
 670              		@ frame_needed = 1, uses_anonymous_args = 0
 671              		@ link register save eliminated.
 672 0000 80B4     		push	{r7}
 673              		.cfi_def_cfa_offset 4
 674              		.cfi_offset 7, -4
 675 0002 83B0     		sub	sp, sp, #12
 676              		.cfi_def_cfa_offset 16
 677 0004 00AF     		add	r7, sp, #0
 678              		.cfi_def_cfa_register 7
 679 0006 0346     		mov	r3, r0
 680 0008 FB71     		strb	r3, [r7, #7]
 816:.\Generated_Source\PSoC5/UART_READER.c ****         #if(UART_READER_RXHW_ADDRESS_ENABLED)
 817:.\Generated_Source\PSoC5/UART_READER.c ****             #if(UART_READER_CONTROL_REG_REMOVED)
 818:.\Generated_Source\PSoC5/UART_READER.c ****                 if(0u != addressMode)
 819:.\Generated_Source\PSoC5/UART_READER.c ****                 {
 820:.\Generated_Source\PSoC5/UART_READER.c ****                     /* Suppress compiler warning */
 821:.\Generated_Source\PSoC5/UART_READER.c ****                 }
 822:.\Generated_Source\PSoC5/UART_READER.c ****             #else /* UART_READER_CONTROL_REG_REMOVED */
 823:.\Generated_Source\PSoC5/UART_READER.c ****                 uint8 tmpCtrl;
 824:.\Generated_Source\PSoC5/UART_READER.c ****                 tmpCtrl = UART_READER_CONTROL_REG & (uint8)~UART_READER_CTRL_RXADDR_MODE_MASK;
 825:.\Generated_Source\PSoC5/UART_READER.c ****                 tmpCtrl |= (uint8)(addressMode << UART_READER_CTRL_RXADDR_MODE0_SHIFT);
 826:.\Generated_Source\PSoC5/UART_READER.c ****                 UART_READER_CONTROL_REG = tmpCtrl;
 827:.\Generated_Source\PSoC5/UART_READER.c **** 
 828:.\Generated_Source\PSoC5/UART_READER.c ****                 #if(UART_READER_RX_INTERRUPT_ENABLED && \
 829:.\Generated_Source\PSoC5/UART_READER.c ****                    (UART_READER_RXBUFFERSIZE > UART_READER_FIFO_LENGTH) )
 830:.\Generated_Source\PSoC5/UART_READER.c ****                     UART_READER_rxAddressMode = addressMode;
 831:.\Generated_Source\PSoC5/UART_READER.c ****                     UART_READER_rxAddressDetected = 0u;
 832:.\Generated_Source\PSoC5/UART_READER.c ****                 #endif /* End UART_READER_RXBUFFERSIZE > UART_READER_FIFO_LENGTH*/
 833:.\Generated_Source\PSoC5/UART_READER.c ****             #endif /* End UART_READER_CONTROL_REG_REMOVED */
 834:.\Generated_Source\PSoC5/UART_READER.c ****         #else /* UART_READER_RXHW_ADDRESS_ENABLED */
 835:.\Generated_Source\PSoC5/UART_READER.c ****             if(0u != addressMode)
 836:.\Generated_Source\PSoC5/UART_READER.c ****             {
 837:.\Generated_Source\PSoC5/UART_READER.c ****                 /* Suppress compiler warning */
 838:.\Generated_Source\PSoC5/UART_READER.c ****             }
 839:.\Generated_Source\PSoC5/UART_READER.c ****         #endif /* End UART_READER_RXHW_ADDRESS_ENABLED */
 840:.\Generated_Source\PSoC5/UART_READER.c ****     }
 681              		.loc 1 840 0
 682 000a 0C37     		adds	r7, r7, #12
 683              		.cfi_def_cfa_offset 4
 684 000c BD46     		mov	sp, r7
 685              		.cfi_def_cfa_register 13
 686              		@ sp needed
 687 000e 5DF8047B 		ldr	r7, [sp], #4
 688              		.cfi_restore 7
 689              		.cfi_def_cfa_offset 0
 690 0012 7047     		bx	lr
 691              		.cfi_endproc
 692              	.LFE13:
 693              		.size	UART_READER_SetRxAddressMode, .-UART_READER_SetRxAddressMode
 694              		.section	.text.UART_READER_SetRxAddress1,"ax",%progbits
 695              		.align	2
 696              		.global	UART_READER_SetRxAddress1
 697              		.thumb
 698              		.thumb_func
ARM GAS  C:\Users\yqh\AppData\Local\Temp\ccpJxCTG.s 			page 28


 699              		.type	UART_READER_SetRxAddress1, %function
 700              	UART_READER_SetRxAddress1:
 701              	.LFB14:
 841:.\Generated_Source\PSoC5/UART_READER.c **** 
 842:.\Generated_Source\PSoC5/UART_READER.c **** 
 843:.\Generated_Source\PSoC5/UART_READER.c ****     /*******************************************************************************
 844:.\Generated_Source\PSoC5/UART_READER.c ****     * Function Name: UART_READER_SetRxAddress1
 845:.\Generated_Source\PSoC5/UART_READER.c ****     ********************************************************************************
 846:.\Generated_Source\PSoC5/UART_READER.c ****     *
 847:.\Generated_Source\PSoC5/UART_READER.c ****     * Summary:
 848:.\Generated_Source\PSoC5/UART_READER.c ****     *  Sets the first of two hardware-detectable receiver addresses.
 849:.\Generated_Source\PSoC5/UART_READER.c ****     *
 850:.\Generated_Source\PSoC5/UART_READER.c ****     * Parameters:
 851:.\Generated_Source\PSoC5/UART_READER.c ****     *  address: Address #1 for hardware address detection.
 852:.\Generated_Source\PSoC5/UART_READER.c ****     *
 853:.\Generated_Source\PSoC5/UART_READER.c ****     * Return:
 854:.\Generated_Source\PSoC5/UART_READER.c ****     *  None.
 855:.\Generated_Source\PSoC5/UART_READER.c ****     *
 856:.\Generated_Source\PSoC5/UART_READER.c ****     *******************************************************************************/
 857:.\Generated_Source\PSoC5/UART_READER.c ****     void UART_READER_SetRxAddress1(uint8 address) 
 858:.\Generated_Source\PSoC5/UART_READER.c ****     {
 702              		.loc 1 858 0
 703              		.cfi_startproc
 704              		@ args = 0, pretend = 0, frame = 8
 705              		@ frame_needed = 1, uses_anonymous_args = 0
 706              		@ link register save eliminated.
 707 0000 80B4     		push	{r7}
 708              		.cfi_def_cfa_offset 4
 709              		.cfi_offset 7, -4
 710 0002 83B0     		sub	sp, sp, #12
 711              		.cfi_def_cfa_offset 16
 712 0004 00AF     		add	r7, sp, #0
 713              		.cfi_def_cfa_register 7
 714 0006 0346     		mov	r3, r0
 715 0008 FB71     		strb	r3, [r7, #7]
 859:.\Generated_Source\PSoC5/UART_READER.c ****         UART_READER_RXADDRESS1_REG = address;
 716              		.loc 1 859 0
 717 000a 044A     		ldr	r2, .L50
 718 000c FB79     		ldrb	r3, [r7, #7]
 719 000e 1370     		strb	r3, [r2]
 860:.\Generated_Source\PSoC5/UART_READER.c ****     }
 720              		.loc 1 860 0
 721 0010 0C37     		adds	r7, r7, #12
 722              		.cfi_def_cfa_offset 4
 723 0012 BD46     		mov	sp, r7
 724              		.cfi_def_cfa_register 13
 725              		@ sp needed
 726 0014 5DF8047B 		ldr	r7, [sp], #4
 727              		.cfi_restore 7
 728              		.cfi_def_cfa_offset 0
 729 0018 7047     		bx	lr
 730              	.L51:
 731 001a 00BF     		.align	2
 732              	.L50:
 733 001c 28650040 		.word	1073767720
 734              		.cfi_endproc
 735              	.LFE14:
ARM GAS  C:\Users\yqh\AppData\Local\Temp\ccpJxCTG.s 			page 29


 736              		.size	UART_READER_SetRxAddress1, .-UART_READER_SetRxAddress1
 737              		.section	.text.UART_READER_SetRxAddress2,"ax",%progbits
 738              		.align	2
 739              		.global	UART_READER_SetRxAddress2
 740              		.thumb
 741              		.thumb_func
 742              		.type	UART_READER_SetRxAddress2, %function
 743              	UART_READER_SetRxAddress2:
 744              	.LFB15:
 861:.\Generated_Source\PSoC5/UART_READER.c **** 
 862:.\Generated_Source\PSoC5/UART_READER.c **** 
 863:.\Generated_Source\PSoC5/UART_READER.c ****     /*******************************************************************************
 864:.\Generated_Source\PSoC5/UART_READER.c ****     * Function Name: UART_READER_SetRxAddress2
 865:.\Generated_Source\PSoC5/UART_READER.c ****     ********************************************************************************
 866:.\Generated_Source\PSoC5/UART_READER.c ****     *
 867:.\Generated_Source\PSoC5/UART_READER.c ****     * Summary:
 868:.\Generated_Source\PSoC5/UART_READER.c ****     *  Sets the second of two hardware-detectable receiver addresses.
 869:.\Generated_Source\PSoC5/UART_READER.c ****     *
 870:.\Generated_Source\PSoC5/UART_READER.c ****     * Parameters:
 871:.\Generated_Source\PSoC5/UART_READER.c ****     *  address: Address #2 for hardware address detection.
 872:.\Generated_Source\PSoC5/UART_READER.c ****     *
 873:.\Generated_Source\PSoC5/UART_READER.c ****     * Return:
 874:.\Generated_Source\PSoC5/UART_READER.c ****     *  None.
 875:.\Generated_Source\PSoC5/UART_READER.c ****     *
 876:.\Generated_Source\PSoC5/UART_READER.c ****     *******************************************************************************/
 877:.\Generated_Source\PSoC5/UART_READER.c ****     void UART_READER_SetRxAddress2(uint8 address) 
 878:.\Generated_Source\PSoC5/UART_READER.c ****     {
 745              		.loc 1 878 0
 746              		.cfi_startproc
 747              		@ args = 0, pretend = 0, frame = 8
 748              		@ frame_needed = 1, uses_anonymous_args = 0
 749              		@ link register save eliminated.
 750 0000 80B4     		push	{r7}
 751              		.cfi_def_cfa_offset 4
 752              		.cfi_offset 7, -4
 753 0002 83B0     		sub	sp, sp, #12
 754              		.cfi_def_cfa_offset 16
 755 0004 00AF     		add	r7, sp, #0
 756              		.cfi_def_cfa_register 7
 757 0006 0346     		mov	r3, r0
 758 0008 FB71     		strb	r3, [r7, #7]
 879:.\Generated_Source\PSoC5/UART_READER.c ****         UART_READER_RXADDRESS2_REG = address;
 759              		.loc 1 879 0
 760 000a 044A     		ldr	r2, .L53
 761 000c FB79     		ldrb	r3, [r7, #7]
 762 000e 1370     		strb	r3, [r2]
 880:.\Generated_Source\PSoC5/UART_READER.c ****     }
 763              		.loc 1 880 0
 764 0010 0C37     		adds	r7, r7, #12
 765              		.cfi_def_cfa_offset 4
 766 0012 BD46     		mov	sp, r7
 767              		.cfi_def_cfa_register 13
 768              		@ sp needed
 769 0014 5DF8047B 		ldr	r7, [sp], #4
 770              		.cfi_restore 7
 771              		.cfi_def_cfa_offset 0
 772 0018 7047     		bx	lr
ARM GAS  C:\Users\yqh\AppData\Local\Temp\ccpJxCTG.s 			page 30


 773              	.L54:
 774 001a 00BF     		.align	2
 775              	.L53:
 776 001c 38650040 		.word	1073767736
 777              		.cfi_endproc
 778              	.LFE15:
 779              		.size	UART_READER_SetRxAddress2, .-UART_READER_SetRxAddress2
 780              		.section	.text.UART_READER_SetTxInterruptMode,"ax",%progbits
 781              		.align	2
 782              		.global	UART_READER_SetTxInterruptMode
 783              		.thumb
 784              		.thumb_func
 785              		.type	UART_READER_SetTxInterruptMode, %function
 786              	UART_READER_SetTxInterruptMode:
 787              	.LFB16:
 881:.\Generated_Source\PSoC5/UART_READER.c **** 
 882:.\Generated_Source\PSoC5/UART_READER.c **** #endif  /* UART_READER_RX_ENABLED || UART_READER_HD_ENABLED*/
 883:.\Generated_Source\PSoC5/UART_READER.c **** 
 884:.\Generated_Source\PSoC5/UART_READER.c **** 
 885:.\Generated_Source\PSoC5/UART_READER.c **** #if( (UART_READER_TX_ENABLED) || (UART_READER_HD_ENABLED) )
 886:.\Generated_Source\PSoC5/UART_READER.c ****     /*******************************************************************************
 887:.\Generated_Source\PSoC5/UART_READER.c ****     * Function Name: UART_READER_SetTxInterruptMode
 888:.\Generated_Source\PSoC5/UART_READER.c ****     ********************************************************************************
 889:.\Generated_Source\PSoC5/UART_READER.c ****     *
 890:.\Generated_Source\PSoC5/UART_READER.c ****     * Summary:
 891:.\Generated_Source\PSoC5/UART_READER.c ****     *  Configures the TX interrupt sources to be enabled, but does not enable the
 892:.\Generated_Source\PSoC5/UART_READER.c ****     *  interrupt.
 893:.\Generated_Source\PSoC5/UART_READER.c ****     *
 894:.\Generated_Source\PSoC5/UART_READER.c ****     * Parameters:
 895:.\Generated_Source\PSoC5/UART_READER.c ****     *  intSrc: Bit field containing the TX interrupt sources to enable
 896:.\Generated_Source\PSoC5/UART_READER.c ****     *   UART_READER_TX_STS_COMPLETE        Interrupt on TX byte complete
 897:.\Generated_Source\PSoC5/UART_READER.c ****     *   UART_READER_TX_STS_FIFO_EMPTY      Interrupt when TX FIFO is empty
 898:.\Generated_Source\PSoC5/UART_READER.c ****     *   UART_READER_TX_STS_FIFO_FULL       Interrupt when TX FIFO is full
 899:.\Generated_Source\PSoC5/UART_READER.c ****     *   UART_READER_TX_STS_FIFO_NOT_FULL   Interrupt when TX FIFO is not full
 900:.\Generated_Source\PSoC5/UART_READER.c ****     *
 901:.\Generated_Source\PSoC5/UART_READER.c ****     * Return:
 902:.\Generated_Source\PSoC5/UART_READER.c ****     *  None.
 903:.\Generated_Source\PSoC5/UART_READER.c ****     *
 904:.\Generated_Source\PSoC5/UART_READER.c ****     * Theory:
 905:.\Generated_Source\PSoC5/UART_READER.c ****     *  Enables the output of specific status bits to the interrupt controller
 906:.\Generated_Source\PSoC5/UART_READER.c ****     *
 907:.\Generated_Source\PSoC5/UART_READER.c ****     *******************************************************************************/
 908:.\Generated_Source\PSoC5/UART_READER.c ****     void UART_READER_SetTxInterruptMode(uint8 intSrc) 
 909:.\Generated_Source\PSoC5/UART_READER.c ****     {
 788              		.loc 1 909 0
 789              		.cfi_startproc
 790              		@ args = 0, pretend = 0, frame = 8
 791              		@ frame_needed = 1, uses_anonymous_args = 0
 792              		@ link register save eliminated.
 793 0000 80B4     		push	{r7}
 794              		.cfi_def_cfa_offset 4
 795              		.cfi_offset 7, -4
 796 0002 83B0     		sub	sp, sp, #12
 797              		.cfi_def_cfa_offset 16
 798 0004 00AF     		add	r7, sp, #0
 799              		.cfi_def_cfa_register 7
 800 0006 0346     		mov	r3, r0
ARM GAS  C:\Users\yqh\AppData\Local\Temp\ccpJxCTG.s 			page 31


 801 0008 FB71     		strb	r3, [r7, #7]
 910:.\Generated_Source\PSoC5/UART_READER.c ****         UART_READER_TXSTATUS_MASK_REG = intSrc;
 802              		.loc 1 910 0
 803 000a 044A     		ldr	r2, .L56
 804 000c FB79     		ldrb	r3, [r7, #7]
 805 000e 1370     		strb	r3, [r2]
 911:.\Generated_Source\PSoC5/UART_READER.c ****     }
 806              		.loc 1 911 0
 807 0010 0C37     		adds	r7, r7, #12
 808              		.cfi_def_cfa_offset 4
 809 0012 BD46     		mov	sp, r7
 810              		.cfi_def_cfa_register 13
 811              		@ sp needed
 812 0014 5DF8047B 		ldr	r7, [sp], #4
 813              		.cfi_restore 7
 814              		.cfi_def_cfa_offset 0
 815 0018 7047     		bx	lr
 816              	.L57:
 817 001a 00BF     		.align	2
 818              	.L56:
 819 001c 88650040 		.word	1073767816
 820              		.cfi_endproc
 821              	.LFE16:
 822              		.size	UART_READER_SetTxInterruptMode, .-UART_READER_SetTxInterruptMode
 823              		.section	.text.UART_READER_WriteTxData,"ax",%progbits
 824              		.align	2
 825              		.global	UART_READER_WriteTxData
 826              		.thumb
 827              		.thumb_func
 828              		.type	UART_READER_WriteTxData, %function
 829              	UART_READER_WriteTxData:
 830              	.LFB17:
 912:.\Generated_Source\PSoC5/UART_READER.c **** 
 913:.\Generated_Source\PSoC5/UART_READER.c **** 
 914:.\Generated_Source\PSoC5/UART_READER.c ****     /*******************************************************************************
 915:.\Generated_Source\PSoC5/UART_READER.c ****     * Function Name: UART_READER_WriteTxData
 916:.\Generated_Source\PSoC5/UART_READER.c ****     ********************************************************************************
 917:.\Generated_Source\PSoC5/UART_READER.c ****     *
 918:.\Generated_Source\PSoC5/UART_READER.c ****     * Summary:
 919:.\Generated_Source\PSoC5/UART_READER.c ****     *  Places a byte of data into the transmit buffer to be sent when the bus is
 920:.\Generated_Source\PSoC5/UART_READER.c ****     *  available without checking the TX status register. You must check status
 921:.\Generated_Source\PSoC5/UART_READER.c ****     *  separately.
 922:.\Generated_Source\PSoC5/UART_READER.c ****     *
 923:.\Generated_Source\PSoC5/UART_READER.c ****     * Parameters:
 924:.\Generated_Source\PSoC5/UART_READER.c ****     *  txDataByte: data byte
 925:.\Generated_Source\PSoC5/UART_READER.c ****     *
 926:.\Generated_Source\PSoC5/UART_READER.c ****     * Return:
 927:.\Generated_Source\PSoC5/UART_READER.c ****     * None.
 928:.\Generated_Source\PSoC5/UART_READER.c ****     *
 929:.\Generated_Source\PSoC5/UART_READER.c ****     * Global Variables:
 930:.\Generated_Source\PSoC5/UART_READER.c ****     *  UART_READER_txBuffer - RAM buffer pointer for save data for transmission
 931:.\Generated_Source\PSoC5/UART_READER.c ****     *  UART_READER_txBufferWrite - cyclic index for write to txBuffer,
 932:.\Generated_Source\PSoC5/UART_READER.c ****     *    incremented after each byte saved to buffer.
 933:.\Generated_Source\PSoC5/UART_READER.c ****     *  UART_READER_txBufferRead - cyclic index for read from txBuffer,
 934:.\Generated_Source\PSoC5/UART_READER.c ****     *    checked to identify the condition to write to FIFO directly or to TX buffer
 935:.\Generated_Source\PSoC5/UART_READER.c ****     *  UART_READER_initVar - checked to identify that the component has been
 936:.\Generated_Source\PSoC5/UART_READER.c ****     *    initialized.
ARM GAS  C:\Users\yqh\AppData\Local\Temp\ccpJxCTG.s 			page 32


 937:.\Generated_Source\PSoC5/UART_READER.c ****     *
 938:.\Generated_Source\PSoC5/UART_READER.c ****     * Reentrant:
 939:.\Generated_Source\PSoC5/UART_READER.c ****     *  No.
 940:.\Generated_Source\PSoC5/UART_READER.c ****     *
 941:.\Generated_Source\PSoC5/UART_READER.c ****     *******************************************************************************/
 942:.\Generated_Source\PSoC5/UART_READER.c ****     void UART_READER_WriteTxData(uint8 txDataByte) 
 943:.\Generated_Source\PSoC5/UART_READER.c ****     {
 831              		.loc 1 943 0
 832              		.cfi_startproc
 833              		@ args = 0, pretend = 0, frame = 8
 834              		@ frame_needed = 1, uses_anonymous_args = 0
 835              		@ link register save eliminated.
 836 0000 80B4     		push	{r7}
 837              		.cfi_def_cfa_offset 4
 838              		.cfi_offset 7, -4
 839 0002 83B0     		sub	sp, sp, #12
 840              		.cfi_def_cfa_offset 16
 841 0004 00AF     		add	r7, sp, #0
 842              		.cfi_def_cfa_register 7
 843 0006 0346     		mov	r3, r0
 844 0008 FB71     		strb	r3, [r7, #7]
 944:.\Generated_Source\PSoC5/UART_READER.c ****         /* If not Initialized then skip this function*/
 945:.\Generated_Source\PSoC5/UART_READER.c ****         if(UART_READER_initVar != 0u)
 845              		.loc 1 945 0
 846 000a 064B     		ldr	r3, .L60
 847 000c 1B78     		ldrb	r3, [r3]	@ zero_extendqisi2
 848 000e 002B     		cmp	r3, #0
 849 0010 02D0     		beq	.L58
 946:.\Generated_Source\PSoC5/UART_READER.c ****         {
 947:.\Generated_Source\PSoC5/UART_READER.c ****         #if (UART_READER_TX_INTERRUPT_ENABLED)
 948:.\Generated_Source\PSoC5/UART_READER.c **** 
 949:.\Generated_Source\PSoC5/UART_READER.c ****             /* Protect variables that could change on interrupt. */
 950:.\Generated_Source\PSoC5/UART_READER.c ****             UART_READER_DisableTxInt();
 951:.\Generated_Source\PSoC5/UART_READER.c **** 
 952:.\Generated_Source\PSoC5/UART_READER.c ****             if( (UART_READER_txBufferRead == UART_READER_txBufferWrite) &&
 953:.\Generated_Source\PSoC5/UART_READER.c ****                 ((UART_READER_TXSTATUS_REG & UART_READER_TX_STS_FIFO_FULL) == 0u) )
 954:.\Generated_Source\PSoC5/UART_READER.c ****             {
 955:.\Generated_Source\PSoC5/UART_READER.c ****                 /* Add directly to the FIFO. */
 956:.\Generated_Source\PSoC5/UART_READER.c ****                 UART_READER_TXDATA_REG = txDataByte;
 957:.\Generated_Source\PSoC5/UART_READER.c ****             }
 958:.\Generated_Source\PSoC5/UART_READER.c ****             else
 959:.\Generated_Source\PSoC5/UART_READER.c ****             {
 960:.\Generated_Source\PSoC5/UART_READER.c ****                 if(UART_READER_txBufferWrite >= UART_READER_TX_BUFFER_SIZE)
 961:.\Generated_Source\PSoC5/UART_READER.c ****                 {
 962:.\Generated_Source\PSoC5/UART_READER.c ****                     UART_READER_txBufferWrite = 0u;
 963:.\Generated_Source\PSoC5/UART_READER.c ****                 }
 964:.\Generated_Source\PSoC5/UART_READER.c **** 
 965:.\Generated_Source\PSoC5/UART_READER.c ****                 UART_READER_txBuffer[UART_READER_txBufferWrite] = txDataByte;
 966:.\Generated_Source\PSoC5/UART_READER.c **** 
 967:.\Generated_Source\PSoC5/UART_READER.c ****                 /* Add to the software buffer. */
 968:.\Generated_Source\PSoC5/UART_READER.c ****                 UART_READER_txBufferWrite++;
 969:.\Generated_Source\PSoC5/UART_READER.c ****             }
 970:.\Generated_Source\PSoC5/UART_READER.c **** 
 971:.\Generated_Source\PSoC5/UART_READER.c ****             UART_READER_EnableTxInt();
 972:.\Generated_Source\PSoC5/UART_READER.c **** 
 973:.\Generated_Source\PSoC5/UART_READER.c ****         #else
 974:.\Generated_Source\PSoC5/UART_READER.c **** 
ARM GAS  C:\Users\yqh\AppData\Local\Temp\ccpJxCTG.s 			page 33


 975:.\Generated_Source\PSoC5/UART_READER.c ****             /* Add directly to the FIFO. */
 976:.\Generated_Source\PSoC5/UART_READER.c ****             UART_READER_TXDATA_REG = txDataByte;
 850              		.loc 1 976 0
 851 0012 054A     		ldr	r2, .L60+4
 852 0014 FB79     		ldrb	r3, [r7, #7]
 853 0016 1370     		strb	r3, [r2]
 854              	.L58:
 977:.\Generated_Source\PSoC5/UART_READER.c **** 
 978:.\Generated_Source\PSoC5/UART_READER.c ****         #endif /*(UART_READER_TX_INTERRUPT_ENABLED) */
 979:.\Generated_Source\PSoC5/UART_READER.c ****         }
 980:.\Generated_Source\PSoC5/UART_READER.c ****     }
 855              		.loc 1 980 0
 856 0018 0C37     		adds	r7, r7, #12
 857              		.cfi_def_cfa_offset 4
 858 001a BD46     		mov	sp, r7
 859              		.cfi_def_cfa_register 13
 860              		@ sp needed
 861 001c 5DF8047B 		ldr	r7, [sp], #4
 862              		.cfi_restore 7
 863              		.cfi_def_cfa_offset 0
 864 0020 7047     		bx	lr
 865              	.L61:
 866 0022 00BF     		.align	2
 867              	.L60:
 868 0024 00000000 		.word	UART_READER_initVar
 869 0028 58650040 		.word	1073767768
 870              		.cfi_endproc
 871              	.LFE17:
 872              		.size	UART_READER_WriteTxData, .-UART_READER_WriteTxData
 873              		.section	.text.UART_READER_ReadTxStatus,"ax",%progbits
 874              		.align	2
 875              		.global	UART_READER_ReadTxStatus
 876              		.thumb
 877              		.thumb_func
 878              		.type	UART_READER_ReadTxStatus, %function
 879              	UART_READER_ReadTxStatus:
 880              	.LFB18:
 981:.\Generated_Source\PSoC5/UART_READER.c **** 
 982:.\Generated_Source\PSoC5/UART_READER.c **** 
 983:.\Generated_Source\PSoC5/UART_READER.c ****     /*******************************************************************************
 984:.\Generated_Source\PSoC5/UART_READER.c ****     * Function Name: UART_READER_ReadTxStatus
 985:.\Generated_Source\PSoC5/UART_READER.c ****     ********************************************************************************
 986:.\Generated_Source\PSoC5/UART_READER.c ****     *
 987:.\Generated_Source\PSoC5/UART_READER.c ****     * Summary:
 988:.\Generated_Source\PSoC5/UART_READER.c ****     *  Reads the status register for the TX portion of the UART.
 989:.\Generated_Source\PSoC5/UART_READER.c ****     *
 990:.\Generated_Source\PSoC5/UART_READER.c ****     * Parameters:
 991:.\Generated_Source\PSoC5/UART_READER.c ****     *  None.
 992:.\Generated_Source\PSoC5/UART_READER.c ****     *
 993:.\Generated_Source\PSoC5/UART_READER.c ****     * Return:
 994:.\Generated_Source\PSoC5/UART_READER.c ****     *  Contents of the status register
 995:.\Generated_Source\PSoC5/UART_READER.c ****     *
 996:.\Generated_Source\PSoC5/UART_READER.c ****     * Theory:
 997:.\Generated_Source\PSoC5/UART_READER.c ****     *  This function reads the TX status register, which is cleared on read.
 998:.\Generated_Source\PSoC5/UART_READER.c ****     *  It is up to the user to handle all bits in this return value accordingly,
 999:.\Generated_Source\PSoC5/UART_READER.c ****     *  even if the bit was not enabled as an interrupt source the event happened
1000:.\Generated_Source\PSoC5/UART_READER.c ****     *  and must be handled accordingly.
ARM GAS  C:\Users\yqh\AppData\Local\Temp\ccpJxCTG.s 			page 34


1001:.\Generated_Source\PSoC5/UART_READER.c ****     *
1002:.\Generated_Source\PSoC5/UART_READER.c ****     *******************************************************************************/
1003:.\Generated_Source\PSoC5/UART_READER.c ****     uint8 UART_READER_ReadTxStatus(void) 
1004:.\Generated_Source\PSoC5/UART_READER.c ****     {
 881              		.loc 1 1004 0
 882              		.cfi_startproc
 883              		@ args = 0, pretend = 0, frame = 0
 884              		@ frame_needed = 1, uses_anonymous_args = 0
 885              		@ link register save eliminated.
 886 0000 80B4     		push	{r7}
 887              		.cfi_def_cfa_offset 4
 888              		.cfi_offset 7, -4
 889 0002 00AF     		add	r7, sp, #0
 890              		.cfi_def_cfa_register 7
1005:.\Generated_Source\PSoC5/UART_READER.c ****         return(UART_READER_TXSTATUS_REG);
 891              		.loc 1 1005 0
 892 0004 034B     		ldr	r3, .L64
 893 0006 1B78     		ldrb	r3, [r3]
 894 0008 DBB2     		uxtb	r3, r3
1006:.\Generated_Source\PSoC5/UART_READER.c ****     }
 895              		.loc 1 1006 0
 896 000a 1846     		mov	r0, r3
 897 000c BD46     		mov	sp, r7
 898              		.cfi_def_cfa_register 13
 899              		@ sp needed
 900 000e 5DF8047B 		ldr	r7, [sp], #4
 901              		.cfi_restore 7
 902              		.cfi_def_cfa_offset 0
 903 0012 7047     		bx	lr
 904              	.L65:
 905              		.align	2
 906              	.L64:
 907 0014 68650040 		.word	1073767784
 908              		.cfi_endproc
 909              	.LFE18:
 910              		.size	UART_READER_ReadTxStatus, .-UART_READER_ReadTxStatus
 911              		.section	.text.UART_READER_PutChar,"ax",%progbits
 912              		.align	2
 913              		.global	UART_READER_PutChar
 914              		.thumb
 915              		.thumb_func
 916              		.type	UART_READER_PutChar, %function
 917              	UART_READER_PutChar:
 918              	.LFB19:
1007:.\Generated_Source\PSoC5/UART_READER.c **** 
1008:.\Generated_Source\PSoC5/UART_READER.c **** 
1009:.\Generated_Source\PSoC5/UART_READER.c ****     /*******************************************************************************
1010:.\Generated_Source\PSoC5/UART_READER.c ****     * Function Name: UART_READER_PutChar
1011:.\Generated_Source\PSoC5/UART_READER.c ****     ********************************************************************************
1012:.\Generated_Source\PSoC5/UART_READER.c ****     *
1013:.\Generated_Source\PSoC5/UART_READER.c ****     * Summary:
1014:.\Generated_Source\PSoC5/UART_READER.c ****     *  Puts a byte of data into the transmit buffer to be sent when the bus is
1015:.\Generated_Source\PSoC5/UART_READER.c ****     *  available. This is a blocking API that waits until the TX buffer has room to
1016:.\Generated_Source\PSoC5/UART_READER.c ****     *  hold the data.
1017:.\Generated_Source\PSoC5/UART_READER.c ****     *
1018:.\Generated_Source\PSoC5/UART_READER.c ****     * Parameters:
1019:.\Generated_Source\PSoC5/UART_READER.c ****     *  txDataByte: Byte containing the data to transmit
ARM GAS  C:\Users\yqh\AppData\Local\Temp\ccpJxCTG.s 			page 35


1020:.\Generated_Source\PSoC5/UART_READER.c ****     *
1021:.\Generated_Source\PSoC5/UART_READER.c ****     * Return:
1022:.\Generated_Source\PSoC5/UART_READER.c ****     *  None.
1023:.\Generated_Source\PSoC5/UART_READER.c ****     *
1024:.\Generated_Source\PSoC5/UART_READER.c ****     * Global Variables:
1025:.\Generated_Source\PSoC5/UART_READER.c ****     *  UART_READER_txBuffer - RAM buffer pointer for save data for transmission
1026:.\Generated_Source\PSoC5/UART_READER.c ****     *  UART_READER_txBufferWrite - cyclic index for write to txBuffer,
1027:.\Generated_Source\PSoC5/UART_READER.c ****     *     checked to identify free space in txBuffer and incremented after each byte
1028:.\Generated_Source\PSoC5/UART_READER.c ****     *     saved to buffer.
1029:.\Generated_Source\PSoC5/UART_READER.c ****     *  UART_READER_txBufferRead - cyclic index for read from txBuffer,
1030:.\Generated_Source\PSoC5/UART_READER.c ****     *     checked to identify free space in txBuffer.
1031:.\Generated_Source\PSoC5/UART_READER.c ****     *  UART_READER_initVar - checked to identify that the component has been
1032:.\Generated_Source\PSoC5/UART_READER.c ****     *     initialized.
1033:.\Generated_Source\PSoC5/UART_READER.c ****     *
1034:.\Generated_Source\PSoC5/UART_READER.c ****     * Reentrant:
1035:.\Generated_Source\PSoC5/UART_READER.c ****     *  No.
1036:.\Generated_Source\PSoC5/UART_READER.c ****     *
1037:.\Generated_Source\PSoC5/UART_READER.c ****     * Theory:
1038:.\Generated_Source\PSoC5/UART_READER.c ****     *  Allows the user to transmit any byte of data in a single transfer
1039:.\Generated_Source\PSoC5/UART_READER.c ****     *
1040:.\Generated_Source\PSoC5/UART_READER.c ****     *******************************************************************************/
1041:.\Generated_Source\PSoC5/UART_READER.c ****     void UART_READER_PutChar(uint8 txDataByte) 
1042:.\Generated_Source\PSoC5/UART_READER.c ****     {
 919              		.loc 1 1042 0
 920              		.cfi_startproc
 921              		@ args = 0, pretend = 0, frame = 8
 922              		@ frame_needed = 1, uses_anonymous_args = 0
 923              		@ link register save eliminated.
 924 0000 80B4     		push	{r7}
 925              		.cfi_def_cfa_offset 4
 926              		.cfi_offset 7, -4
 927 0002 83B0     		sub	sp, sp, #12
 928              		.cfi_def_cfa_offset 16
 929 0004 00AF     		add	r7, sp, #0
 930              		.cfi_def_cfa_register 7
 931 0006 0346     		mov	r3, r0
 932 0008 FB71     		strb	r3, [r7, #7]
1043:.\Generated_Source\PSoC5/UART_READER.c ****     #if (UART_READER_TX_INTERRUPT_ENABLED)
1044:.\Generated_Source\PSoC5/UART_READER.c ****         /* The temporary output pointer is used since it takes two instructions
1045:.\Generated_Source\PSoC5/UART_READER.c ****         *  to increment with a wrap, and we can't risk doing that with the real
1046:.\Generated_Source\PSoC5/UART_READER.c ****         *  pointer and getting an interrupt in between instructions.
1047:.\Generated_Source\PSoC5/UART_READER.c ****         */
1048:.\Generated_Source\PSoC5/UART_READER.c ****         uint8 locTxBufferWrite;
1049:.\Generated_Source\PSoC5/UART_READER.c ****         uint8 locTxBufferRead;
1050:.\Generated_Source\PSoC5/UART_READER.c **** 
1051:.\Generated_Source\PSoC5/UART_READER.c ****         do
1052:.\Generated_Source\PSoC5/UART_READER.c ****         { /* Block if software buffer is full, so we don't overwrite. */
1053:.\Generated_Source\PSoC5/UART_READER.c **** 
1054:.\Generated_Source\PSoC5/UART_READER.c ****         #if ((UART_READER_TX_BUFFER_SIZE > UART_READER_MAX_BYTE_VALUE) && (CY_PSOC3))
1055:.\Generated_Source\PSoC5/UART_READER.c ****             /* Disable TX interrupt to protect variables from modification */
1056:.\Generated_Source\PSoC5/UART_READER.c ****             UART_READER_DisableTxInt();
1057:.\Generated_Source\PSoC5/UART_READER.c ****         #endif /* (UART_READER_TX_BUFFER_SIZE > UART_READER_MAX_BYTE_VALUE) && (CY_PSOC3) */
1058:.\Generated_Source\PSoC5/UART_READER.c **** 
1059:.\Generated_Source\PSoC5/UART_READER.c ****             locTxBufferWrite = UART_READER_txBufferWrite;
1060:.\Generated_Source\PSoC5/UART_READER.c ****             locTxBufferRead  = UART_READER_txBufferRead;
1061:.\Generated_Source\PSoC5/UART_READER.c **** 
1062:.\Generated_Source\PSoC5/UART_READER.c ****         #if ((UART_READER_TX_BUFFER_SIZE > UART_READER_MAX_BYTE_VALUE) && (CY_PSOC3))
ARM GAS  C:\Users\yqh\AppData\Local\Temp\ccpJxCTG.s 			page 36


1063:.\Generated_Source\PSoC5/UART_READER.c ****             /* Enable interrupt to continue transmission */
1064:.\Generated_Source\PSoC5/UART_READER.c ****             UART_READER_EnableTxInt();
1065:.\Generated_Source\PSoC5/UART_READER.c ****         #endif /* (UART_READER_TX_BUFFER_SIZE > UART_READER_MAX_BYTE_VALUE) && (CY_PSOC3) */
1066:.\Generated_Source\PSoC5/UART_READER.c ****         }
1067:.\Generated_Source\PSoC5/UART_READER.c ****         while( (locTxBufferWrite < locTxBufferRead) ? (locTxBufferWrite == (locTxBufferRead - 1u)) 
1068:.\Generated_Source\PSoC5/UART_READER.c ****                                 ((locTxBufferWrite - locTxBufferRead) ==
1069:.\Generated_Source\PSoC5/UART_READER.c ****                                 (uint8)(UART_READER_TX_BUFFER_SIZE - 1u)) );
1070:.\Generated_Source\PSoC5/UART_READER.c **** 
1071:.\Generated_Source\PSoC5/UART_READER.c ****         if( (locTxBufferRead == locTxBufferWrite) &&
1072:.\Generated_Source\PSoC5/UART_READER.c ****             ((UART_READER_TXSTATUS_REG & UART_READER_TX_STS_FIFO_FULL) == 0u) )
1073:.\Generated_Source\PSoC5/UART_READER.c ****         {
1074:.\Generated_Source\PSoC5/UART_READER.c ****             /* Add directly to the FIFO */
1075:.\Generated_Source\PSoC5/UART_READER.c ****             UART_READER_TXDATA_REG = txDataByte;
1076:.\Generated_Source\PSoC5/UART_READER.c ****         }
1077:.\Generated_Source\PSoC5/UART_READER.c ****         else
1078:.\Generated_Source\PSoC5/UART_READER.c ****         {
1079:.\Generated_Source\PSoC5/UART_READER.c ****             if(locTxBufferWrite >= UART_READER_TX_BUFFER_SIZE)
1080:.\Generated_Source\PSoC5/UART_READER.c ****             {
1081:.\Generated_Source\PSoC5/UART_READER.c ****                 locTxBufferWrite = 0u;
1082:.\Generated_Source\PSoC5/UART_READER.c ****             }
1083:.\Generated_Source\PSoC5/UART_READER.c ****             /* Add to the software buffer. */
1084:.\Generated_Source\PSoC5/UART_READER.c ****             UART_READER_txBuffer[locTxBufferWrite] = txDataByte;
1085:.\Generated_Source\PSoC5/UART_READER.c ****             locTxBufferWrite++;
1086:.\Generated_Source\PSoC5/UART_READER.c **** 
1087:.\Generated_Source\PSoC5/UART_READER.c ****             /* Finally, update the real output pointer */
1088:.\Generated_Source\PSoC5/UART_READER.c ****         #if ((UART_READER_TX_BUFFER_SIZE > UART_READER_MAX_BYTE_VALUE) && (CY_PSOC3))
1089:.\Generated_Source\PSoC5/UART_READER.c ****             UART_READER_DisableTxInt();
1090:.\Generated_Source\PSoC5/UART_READER.c ****         #endif /* (UART_READER_TX_BUFFER_SIZE > UART_READER_MAX_BYTE_VALUE) && (CY_PSOC3) */
1091:.\Generated_Source\PSoC5/UART_READER.c **** 
1092:.\Generated_Source\PSoC5/UART_READER.c ****             UART_READER_txBufferWrite = locTxBufferWrite;
1093:.\Generated_Source\PSoC5/UART_READER.c **** 
1094:.\Generated_Source\PSoC5/UART_READER.c ****         #if ((UART_READER_TX_BUFFER_SIZE > UART_READER_MAX_BYTE_VALUE) && (CY_PSOC3))
1095:.\Generated_Source\PSoC5/UART_READER.c ****             UART_READER_EnableTxInt();
1096:.\Generated_Source\PSoC5/UART_READER.c ****         #endif /* (UART_READER_TX_BUFFER_SIZE > UART_READER_MAX_BYTE_VALUE) && (CY_PSOC3) */
1097:.\Generated_Source\PSoC5/UART_READER.c **** 
1098:.\Generated_Source\PSoC5/UART_READER.c ****             if(0u != (UART_READER_TXSTATUS_REG & UART_READER_TX_STS_FIFO_EMPTY))
1099:.\Generated_Source\PSoC5/UART_READER.c ****             {
1100:.\Generated_Source\PSoC5/UART_READER.c ****                 /* Trigger TX interrupt to send software buffer */
1101:.\Generated_Source\PSoC5/UART_READER.c ****                 UART_READER_SetPendingTxInt();
1102:.\Generated_Source\PSoC5/UART_READER.c ****             }
1103:.\Generated_Source\PSoC5/UART_READER.c ****         }
1104:.\Generated_Source\PSoC5/UART_READER.c **** 
1105:.\Generated_Source\PSoC5/UART_READER.c ****     #else
1106:.\Generated_Source\PSoC5/UART_READER.c **** 
1107:.\Generated_Source\PSoC5/UART_READER.c ****         while((UART_READER_TXSTATUS_REG & UART_READER_TX_STS_FIFO_FULL) != 0u)
 933              		.loc 1 1107 0
 934 000a 00BF     		nop
 935              	.L67:
 936              		.loc 1 1107 0 is_stmt 0 discriminator 1
 937 000c 074B     		ldr	r3, .L68
 938 000e 1B78     		ldrb	r3, [r3]
 939 0010 DBB2     		uxtb	r3, r3
 940 0012 03F02003 		and	r3, r3, #32
 941 0016 002B     		cmp	r3, #0
 942 0018 F8D1     		bne	.L67
1108:.\Generated_Source\PSoC5/UART_READER.c ****         {
1109:.\Generated_Source\PSoC5/UART_READER.c ****             /* Wait for room in the FIFO */
ARM GAS  C:\Users\yqh\AppData\Local\Temp\ccpJxCTG.s 			page 37


1110:.\Generated_Source\PSoC5/UART_READER.c ****         }
1111:.\Generated_Source\PSoC5/UART_READER.c **** 
1112:.\Generated_Source\PSoC5/UART_READER.c ****         /* Add directly to the FIFO */
1113:.\Generated_Source\PSoC5/UART_READER.c ****         UART_READER_TXDATA_REG = txDataByte;
 943              		.loc 1 1113 0 is_stmt 1
 944 001a 054A     		ldr	r2, .L68+4
 945 001c FB79     		ldrb	r3, [r7, #7]
 946 001e 1370     		strb	r3, [r2]
1114:.\Generated_Source\PSoC5/UART_READER.c **** 
1115:.\Generated_Source\PSoC5/UART_READER.c ****     #endif /* UART_READER_TX_INTERRUPT_ENABLED */
1116:.\Generated_Source\PSoC5/UART_READER.c ****     }
 947              		.loc 1 1116 0
 948 0020 0C37     		adds	r7, r7, #12
 949              		.cfi_def_cfa_offset 4
 950 0022 BD46     		mov	sp, r7
 951              		.cfi_def_cfa_register 13
 952              		@ sp needed
 953 0024 5DF8047B 		ldr	r7, [sp], #4
 954              		.cfi_restore 7
 955              		.cfi_def_cfa_offset 0
 956 0028 7047     		bx	lr
 957              	.L69:
 958 002a 00BF     		.align	2
 959              	.L68:
 960 002c 68650040 		.word	1073767784
 961 0030 58650040 		.word	1073767768
 962              		.cfi_endproc
 963              	.LFE19:
 964              		.size	UART_READER_PutChar, .-UART_READER_PutChar
 965              		.section	.text.UART_READER_PutString,"ax",%progbits
 966              		.align	2
 967              		.global	UART_READER_PutString
 968              		.thumb
 969              		.thumb_func
 970              		.type	UART_READER_PutString, %function
 971              	UART_READER_PutString:
 972              	.LFB20:
1117:.\Generated_Source\PSoC5/UART_READER.c **** 
1118:.\Generated_Source\PSoC5/UART_READER.c **** 
1119:.\Generated_Source\PSoC5/UART_READER.c ****     /*******************************************************************************
1120:.\Generated_Source\PSoC5/UART_READER.c ****     * Function Name: UART_READER_PutString
1121:.\Generated_Source\PSoC5/UART_READER.c ****     ********************************************************************************
1122:.\Generated_Source\PSoC5/UART_READER.c ****     *
1123:.\Generated_Source\PSoC5/UART_READER.c ****     * Summary:
1124:.\Generated_Source\PSoC5/UART_READER.c ****     *  Sends a NULL terminated string to the TX buffer for transmission.
1125:.\Generated_Source\PSoC5/UART_READER.c ****     *
1126:.\Generated_Source\PSoC5/UART_READER.c ****     * Parameters:
1127:.\Generated_Source\PSoC5/UART_READER.c ****     *  string[]: Pointer to the null terminated string array residing in RAM or ROM
1128:.\Generated_Source\PSoC5/UART_READER.c ****     *
1129:.\Generated_Source\PSoC5/UART_READER.c ****     * Return:
1130:.\Generated_Source\PSoC5/UART_READER.c ****     *  None.
1131:.\Generated_Source\PSoC5/UART_READER.c ****     *
1132:.\Generated_Source\PSoC5/UART_READER.c ****     * Global Variables:
1133:.\Generated_Source\PSoC5/UART_READER.c ****     *  UART_READER_initVar - checked to identify that the component has been
1134:.\Generated_Source\PSoC5/UART_READER.c ****     *     initialized.
1135:.\Generated_Source\PSoC5/UART_READER.c ****     *
1136:.\Generated_Source\PSoC5/UART_READER.c ****     * Reentrant:
ARM GAS  C:\Users\yqh\AppData\Local\Temp\ccpJxCTG.s 			page 38


1137:.\Generated_Source\PSoC5/UART_READER.c ****     *  No.
1138:.\Generated_Source\PSoC5/UART_READER.c ****     *
1139:.\Generated_Source\PSoC5/UART_READER.c ****     * Theory:
1140:.\Generated_Source\PSoC5/UART_READER.c ****     *  If there is not enough memory in the TX buffer for the entire string, this
1141:.\Generated_Source\PSoC5/UART_READER.c ****     *  function blocks until the last character of the string is loaded into the
1142:.\Generated_Source\PSoC5/UART_READER.c ****     *  TX buffer.
1143:.\Generated_Source\PSoC5/UART_READER.c ****     *
1144:.\Generated_Source\PSoC5/UART_READER.c ****     *******************************************************************************/
1145:.\Generated_Source\PSoC5/UART_READER.c ****     void UART_READER_PutString(const char8 string[]) 
1146:.\Generated_Source\PSoC5/UART_READER.c ****     {
 973              		.loc 1 1146 0
 974              		.cfi_startproc
 975              		@ args = 0, pretend = 0, frame = 16
 976              		@ frame_needed = 1, uses_anonymous_args = 0
 977 0000 80B5     		push	{r7, lr}
 978              		.cfi_def_cfa_offset 8
 979              		.cfi_offset 7, -8
 980              		.cfi_offset 14, -4
 981 0002 84B0     		sub	sp, sp, #16
 982              		.cfi_def_cfa_offset 24
 983 0004 00AF     		add	r7, sp, #0
 984              		.cfi_def_cfa_register 7
 985 0006 7860     		str	r0, [r7, #4]
1147:.\Generated_Source\PSoC5/UART_READER.c ****         uint16 bufIndex = 0u;
 986              		.loc 1 1147 0
 987 0008 0023     		movs	r3, #0
 988 000a FB81     		strh	r3, [r7, #14]	@ movhi
1148:.\Generated_Source\PSoC5/UART_READER.c **** 
1149:.\Generated_Source\PSoC5/UART_READER.c ****         /* If not Initialized then skip this function */
1150:.\Generated_Source\PSoC5/UART_READER.c ****         if(UART_READER_initVar != 0u)
 989              		.loc 1 1150 0
 990 000c 0B4B     		ldr	r3, .L74
 991 000e 1B78     		ldrb	r3, [r3]	@ zero_extendqisi2
 992 0010 002B     		cmp	r3, #0
 993 0012 10D0     		beq	.L70
1151:.\Generated_Source\PSoC5/UART_READER.c ****         {
1152:.\Generated_Source\PSoC5/UART_READER.c ****             /* This is a blocking function, it will not exit until all data is sent */
1153:.\Generated_Source\PSoC5/UART_READER.c ****             while(string[bufIndex] != (char8) 0)
 994              		.loc 1 1153 0
 995 0014 09E0     		b	.L72
 996              	.L73:
1154:.\Generated_Source\PSoC5/UART_READER.c ****             {
1155:.\Generated_Source\PSoC5/UART_READER.c ****                 UART_READER_PutChar((uint8)string[bufIndex]);
 997              		.loc 1 1155 0
 998 0016 FB89     		ldrh	r3, [r7, #14]
 999 0018 7A68     		ldr	r2, [r7, #4]
 1000 001a 1344     		add	r3, r3, r2
 1001 001c 1B78     		ldrb	r3, [r3]	@ zero_extendqisi2
 1002 001e 1846     		mov	r0, r3
 1003 0020 FFF7FEFF 		bl	UART_READER_PutChar
1156:.\Generated_Source\PSoC5/UART_READER.c ****                 bufIndex++;
 1004              		.loc 1 1156 0
 1005 0024 FB89     		ldrh	r3, [r7, #14]
 1006 0026 0133     		adds	r3, r3, #1
 1007 0028 FB81     		strh	r3, [r7, #14]	@ movhi
 1008              	.L72:
1153:.\Generated_Source\PSoC5/UART_READER.c ****             {
ARM GAS  C:\Users\yqh\AppData\Local\Temp\ccpJxCTG.s 			page 39


 1009              		.loc 1 1153 0
 1010 002a FB89     		ldrh	r3, [r7, #14]
 1011 002c 7A68     		ldr	r2, [r7, #4]
 1012 002e 1344     		add	r3, r3, r2
 1013 0030 1B78     		ldrb	r3, [r3]	@ zero_extendqisi2
 1014 0032 002B     		cmp	r3, #0
 1015 0034 EFD1     		bne	.L73
 1016              	.L70:
1157:.\Generated_Source\PSoC5/UART_READER.c ****             }
1158:.\Generated_Source\PSoC5/UART_READER.c ****         }
1159:.\Generated_Source\PSoC5/UART_READER.c ****     }
 1017              		.loc 1 1159 0
 1018 0036 1037     		adds	r7, r7, #16
 1019              		.cfi_def_cfa_offset 8
 1020 0038 BD46     		mov	sp, r7
 1021              		.cfi_def_cfa_register 13
 1022              		@ sp needed
 1023 003a 80BD     		pop	{r7, pc}
 1024              	.L75:
 1025              		.align	2
 1026              	.L74:
 1027 003c 00000000 		.word	UART_READER_initVar
 1028              		.cfi_endproc
 1029              	.LFE20:
 1030              		.size	UART_READER_PutString, .-UART_READER_PutString
 1031              		.section	.text.UART_READER_PutArray,"ax",%progbits
 1032              		.align	2
 1033              		.global	UART_READER_PutArray
 1034              		.thumb
 1035              		.thumb_func
 1036              		.type	UART_READER_PutArray, %function
 1037              	UART_READER_PutArray:
 1038              	.LFB21:
1160:.\Generated_Source\PSoC5/UART_READER.c **** 
1161:.\Generated_Source\PSoC5/UART_READER.c **** 
1162:.\Generated_Source\PSoC5/UART_READER.c ****     /*******************************************************************************
1163:.\Generated_Source\PSoC5/UART_READER.c ****     * Function Name: UART_READER_PutArray
1164:.\Generated_Source\PSoC5/UART_READER.c ****     ********************************************************************************
1165:.\Generated_Source\PSoC5/UART_READER.c ****     *
1166:.\Generated_Source\PSoC5/UART_READER.c ****     * Summary:
1167:.\Generated_Source\PSoC5/UART_READER.c ****     *  Places N bytes of data from a memory array into the TX buffer for
1168:.\Generated_Source\PSoC5/UART_READER.c ****     *  transmission.
1169:.\Generated_Source\PSoC5/UART_READER.c ****     *
1170:.\Generated_Source\PSoC5/UART_READER.c ****     * Parameters:
1171:.\Generated_Source\PSoC5/UART_READER.c ****     *  string[]: Address of the memory array residing in RAM or ROM.
1172:.\Generated_Source\PSoC5/UART_READER.c ****     *  byteCount: Number of bytes to be transmitted. The type depends on TX Buffer
1173:.\Generated_Source\PSoC5/UART_READER.c ****     *             Size parameter.
1174:.\Generated_Source\PSoC5/UART_READER.c ****     *
1175:.\Generated_Source\PSoC5/UART_READER.c ****     * Return:
1176:.\Generated_Source\PSoC5/UART_READER.c ****     *  None.
1177:.\Generated_Source\PSoC5/UART_READER.c ****     *
1178:.\Generated_Source\PSoC5/UART_READER.c ****     * Global Variables:
1179:.\Generated_Source\PSoC5/UART_READER.c ****     *  UART_READER_initVar - checked to identify that the component has been
1180:.\Generated_Source\PSoC5/UART_READER.c ****     *     initialized.
1181:.\Generated_Source\PSoC5/UART_READER.c ****     *
1182:.\Generated_Source\PSoC5/UART_READER.c ****     * Reentrant:
1183:.\Generated_Source\PSoC5/UART_READER.c ****     *  No.
ARM GAS  C:\Users\yqh\AppData\Local\Temp\ccpJxCTG.s 			page 40


1184:.\Generated_Source\PSoC5/UART_READER.c ****     *
1185:.\Generated_Source\PSoC5/UART_READER.c ****     * Theory:
1186:.\Generated_Source\PSoC5/UART_READER.c ****     *  If there is not enough memory in the TX buffer for the entire string, this
1187:.\Generated_Source\PSoC5/UART_READER.c ****     *  function blocks until the last character of the string is loaded into the
1188:.\Generated_Source\PSoC5/UART_READER.c ****     *  TX buffer.
1189:.\Generated_Source\PSoC5/UART_READER.c ****     *
1190:.\Generated_Source\PSoC5/UART_READER.c ****     *******************************************************************************/
1191:.\Generated_Source\PSoC5/UART_READER.c ****     void UART_READER_PutArray(const uint8 string[], uint8 byteCount)
1192:.\Generated_Source\PSoC5/UART_READER.c ****                                                                     
1193:.\Generated_Source\PSoC5/UART_READER.c ****     {
 1039              		.loc 1 1193 0
 1040              		.cfi_startproc
 1041              		@ args = 0, pretend = 0, frame = 16
 1042              		@ frame_needed = 1, uses_anonymous_args = 0
 1043 0000 80B5     		push	{r7, lr}
 1044              		.cfi_def_cfa_offset 8
 1045              		.cfi_offset 7, -8
 1046              		.cfi_offset 14, -4
 1047 0002 84B0     		sub	sp, sp, #16
 1048              		.cfi_def_cfa_offset 24
 1049 0004 00AF     		add	r7, sp, #0
 1050              		.cfi_def_cfa_register 7
 1051 0006 7860     		str	r0, [r7, #4]
 1052 0008 0B46     		mov	r3, r1
 1053 000a FB70     		strb	r3, [r7, #3]
1194:.\Generated_Source\PSoC5/UART_READER.c ****         uint8 bufIndex = 0u;
 1054              		.loc 1 1194 0
 1055 000c 0023     		movs	r3, #0
 1056 000e FB73     		strb	r3, [r7, #15]
1195:.\Generated_Source\PSoC5/UART_READER.c **** 
1196:.\Generated_Source\PSoC5/UART_READER.c ****         /* If not Initialized then skip this function */
1197:.\Generated_Source\PSoC5/UART_READER.c ****         if(UART_READER_initVar != 0u)
 1057              		.loc 1 1197 0
 1058 0010 0A4B     		ldr	r3, .L80
 1059 0012 1B78     		ldrb	r3, [r3]	@ zero_extendqisi2
 1060 0014 002B     		cmp	r3, #0
 1061 0016 0ED0     		beq	.L76
1198:.\Generated_Source\PSoC5/UART_READER.c ****         {
1199:.\Generated_Source\PSoC5/UART_READER.c ****             while(bufIndex < byteCount)
 1062              		.loc 1 1199 0
 1063 0018 09E0     		b	.L78
 1064              	.L79:
1200:.\Generated_Source\PSoC5/UART_READER.c ****             {
1201:.\Generated_Source\PSoC5/UART_READER.c ****                 UART_READER_PutChar(string[bufIndex]);
 1065              		.loc 1 1201 0
 1066 001a FB7B     		ldrb	r3, [r7, #15]	@ zero_extendqisi2
 1067 001c 7A68     		ldr	r2, [r7, #4]
 1068 001e 1344     		add	r3, r3, r2
 1069 0020 1B78     		ldrb	r3, [r3]	@ zero_extendqisi2
 1070 0022 1846     		mov	r0, r3
 1071 0024 FFF7FEFF 		bl	UART_READER_PutChar
1202:.\Generated_Source\PSoC5/UART_READER.c ****                 bufIndex++;
 1072              		.loc 1 1202 0
 1073 0028 FB7B     		ldrb	r3, [r7, #15]	@ zero_extendqisi2
 1074 002a 0133     		adds	r3, r3, #1
 1075 002c FB73     		strb	r3, [r7, #15]
 1076              	.L78:
ARM GAS  C:\Users\yqh\AppData\Local\Temp\ccpJxCTG.s 			page 41


1199:.\Generated_Source\PSoC5/UART_READER.c ****             {
 1077              		.loc 1 1199 0
 1078 002e FA7B     		ldrb	r2, [r7, #15]	@ zero_extendqisi2
 1079 0030 FB78     		ldrb	r3, [r7, #3]	@ zero_extendqisi2
 1080 0032 9A42     		cmp	r2, r3
 1081 0034 F1D3     		bcc	.L79
 1082              	.L76:
1203:.\Generated_Source\PSoC5/UART_READER.c ****             }
1204:.\Generated_Source\PSoC5/UART_READER.c ****         }
1205:.\Generated_Source\PSoC5/UART_READER.c ****     }
 1083              		.loc 1 1205 0
 1084 0036 1037     		adds	r7, r7, #16
 1085              		.cfi_def_cfa_offset 8
 1086 0038 BD46     		mov	sp, r7
 1087              		.cfi_def_cfa_register 13
 1088              		@ sp needed
 1089 003a 80BD     		pop	{r7, pc}
 1090              	.L81:
 1091              		.align	2
 1092              	.L80:
 1093 003c 00000000 		.word	UART_READER_initVar
 1094              		.cfi_endproc
 1095              	.LFE21:
 1096              		.size	UART_READER_PutArray, .-UART_READER_PutArray
 1097              		.section	.text.UART_READER_PutCRLF,"ax",%progbits
 1098              		.align	2
 1099              		.global	UART_READER_PutCRLF
 1100              		.thumb
 1101              		.thumb_func
 1102              		.type	UART_READER_PutCRLF, %function
 1103              	UART_READER_PutCRLF:
 1104              	.LFB22:
1206:.\Generated_Source\PSoC5/UART_READER.c **** 
1207:.\Generated_Source\PSoC5/UART_READER.c **** 
1208:.\Generated_Source\PSoC5/UART_READER.c ****     /*******************************************************************************
1209:.\Generated_Source\PSoC5/UART_READER.c ****     * Function Name: UART_READER_PutCRLF
1210:.\Generated_Source\PSoC5/UART_READER.c ****     ********************************************************************************
1211:.\Generated_Source\PSoC5/UART_READER.c ****     *
1212:.\Generated_Source\PSoC5/UART_READER.c ****     * Summary:
1213:.\Generated_Source\PSoC5/UART_READER.c ****     *  Writes a byte of data followed by a carriage return (0x0D) and line feed
1214:.\Generated_Source\PSoC5/UART_READER.c ****     *  (0x0A) to the transmit buffer.
1215:.\Generated_Source\PSoC5/UART_READER.c ****     *
1216:.\Generated_Source\PSoC5/UART_READER.c ****     * Parameters:
1217:.\Generated_Source\PSoC5/UART_READER.c ****     *  txDataByte: Data byte to transmit before the carriage return and line feed.
1218:.\Generated_Source\PSoC5/UART_READER.c ****     *
1219:.\Generated_Source\PSoC5/UART_READER.c ****     * Return:
1220:.\Generated_Source\PSoC5/UART_READER.c ****     *  None.
1221:.\Generated_Source\PSoC5/UART_READER.c ****     *
1222:.\Generated_Source\PSoC5/UART_READER.c ****     * Global Variables:
1223:.\Generated_Source\PSoC5/UART_READER.c ****     *  UART_READER_initVar - checked to identify that the component has been
1224:.\Generated_Source\PSoC5/UART_READER.c ****     *     initialized.
1225:.\Generated_Source\PSoC5/UART_READER.c ****     *
1226:.\Generated_Source\PSoC5/UART_READER.c ****     * Reentrant:
1227:.\Generated_Source\PSoC5/UART_READER.c ****     *  No.
1228:.\Generated_Source\PSoC5/UART_READER.c ****     *
1229:.\Generated_Source\PSoC5/UART_READER.c ****     *******************************************************************************/
1230:.\Generated_Source\PSoC5/UART_READER.c ****     void UART_READER_PutCRLF(uint8 txDataByte) 
ARM GAS  C:\Users\yqh\AppData\Local\Temp\ccpJxCTG.s 			page 42


1231:.\Generated_Source\PSoC5/UART_READER.c ****     {
 1105              		.loc 1 1231 0
 1106              		.cfi_startproc
 1107              		@ args = 0, pretend = 0, frame = 8
 1108              		@ frame_needed = 1, uses_anonymous_args = 0
 1109 0000 80B5     		push	{r7, lr}
 1110              		.cfi_def_cfa_offset 8
 1111              		.cfi_offset 7, -8
 1112              		.cfi_offset 14, -4
 1113 0002 82B0     		sub	sp, sp, #8
 1114              		.cfi_def_cfa_offset 16
 1115 0004 00AF     		add	r7, sp, #0
 1116              		.cfi_def_cfa_register 7
 1117 0006 0346     		mov	r3, r0
 1118 0008 FB71     		strb	r3, [r7, #7]
1232:.\Generated_Source\PSoC5/UART_READER.c ****         /* If not Initialized then skip this function */
1233:.\Generated_Source\PSoC5/UART_READER.c ****         if(UART_READER_initVar != 0u)
 1119              		.loc 1 1233 0
 1120 000a 084B     		ldr	r3, .L84
 1121 000c 1B78     		ldrb	r3, [r3]	@ zero_extendqisi2
 1122 000e 002B     		cmp	r3, #0
 1123 0010 09D0     		beq	.L82
1234:.\Generated_Source\PSoC5/UART_READER.c ****         {
1235:.\Generated_Source\PSoC5/UART_READER.c ****             UART_READER_PutChar(txDataByte);
 1124              		.loc 1 1235 0
 1125 0012 FB79     		ldrb	r3, [r7, #7]	@ zero_extendqisi2
 1126 0014 1846     		mov	r0, r3
 1127 0016 FFF7FEFF 		bl	UART_READER_PutChar
1236:.\Generated_Source\PSoC5/UART_READER.c ****             UART_READER_PutChar(0x0Du);
 1128              		.loc 1 1236 0
 1129 001a 0D20     		movs	r0, #13
 1130 001c FFF7FEFF 		bl	UART_READER_PutChar
1237:.\Generated_Source\PSoC5/UART_READER.c ****             UART_READER_PutChar(0x0Au);
 1131              		.loc 1 1237 0
 1132 0020 0A20     		movs	r0, #10
 1133 0022 FFF7FEFF 		bl	UART_READER_PutChar
 1134              	.L82:
1238:.\Generated_Source\PSoC5/UART_READER.c ****         }
1239:.\Generated_Source\PSoC5/UART_READER.c ****     }
 1135              		.loc 1 1239 0
 1136 0026 0837     		adds	r7, r7, #8
 1137              		.cfi_def_cfa_offset 8
 1138 0028 BD46     		mov	sp, r7
 1139              		.cfi_def_cfa_register 13
 1140              		@ sp needed
 1141 002a 80BD     		pop	{r7, pc}
 1142              	.L85:
 1143              		.align	2
 1144              	.L84:
 1145 002c 00000000 		.word	UART_READER_initVar
 1146              		.cfi_endproc
 1147              	.LFE22:
 1148              		.size	UART_READER_PutCRLF, .-UART_READER_PutCRLF
 1149              		.section	.text.UART_READER_GetTxBufferSize,"ax",%progbits
 1150              		.align	2
 1151              		.global	UART_READER_GetTxBufferSize
 1152              		.thumb
ARM GAS  C:\Users\yqh\AppData\Local\Temp\ccpJxCTG.s 			page 43


 1153              		.thumb_func
 1154              		.type	UART_READER_GetTxBufferSize, %function
 1155              	UART_READER_GetTxBufferSize:
 1156              	.LFB23:
1240:.\Generated_Source\PSoC5/UART_READER.c **** 
1241:.\Generated_Source\PSoC5/UART_READER.c **** 
1242:.\Generated_Source\PSoC5/UART_READER.c ****     /*******************************************************************************
1243:.\Generated_Source\PSoC5/UART_READER.c ****     * Function Name: UART_READER_GetTxBufferSize
1244:.\Generated_Source\PSoC5/UART_READER.c ****     ********************************************************************************
1245:.\Generated_Source\PSoC5/UART_READER.c ****     *
1246:.\Generated_Source\PSoC5/UART_READER.c ****     * Summary:
1247:.\Generated_Source\PSoC5/UART_READER.c ****     *  Returns the number of bytes in the TX buffer which are waiting to be 
1248:.\Generated_Source\PSoC5/UART_READER.c ****     *  transmitted.
1249:.\Generated_Source\PSoC5/UART_READER.c ****     *  * TX software buffer is disabled (TX Buffer Size parameter is equal to 4): 
1250:.\Generated_Source\PSoC5/UART_READER.c ****     *    returns 0 for empty TX FIFO, 1 for not full TX FIFO or 4 for full TX FIFO.
1251:.\Generated_Source\PSoC5/UART_READER.c ****     *  * TX software buffer is enabled: returns the number of bytes in the TX 
1252:.\Generated_Source\PSoC5/UART_READER.c ****     *    software buffer which are waiting to be transmitted. Bytes available in the
1253:.\Generated_Source\PSoC5/UART_READER.c ****     *    TX FIFO do not count.
1254:.\Generated_Source\PSoC5/UART_READER.c ****     *
1255:.\Generated_Source\PSoC5/UART_READER.c ****     * Parameters:
1256:.\Generated_Source\PSoC5/UART_READER.c ****     *  None.
1257:.\Generated_Source\PSoC5/UART_READER.c ****     *
1258:.\Generated_Source\PSoC5/UART_READER.c ****     * Return:
1259:.\Generated_Source\PSoC5/UART_READER.c ****     *  Number of bytes used in the TX buffer. Return value type depends on the TX 
1260:.\Generated_Source\PSoC5/UART_READER.c ****     *  Buffer Size parameter.
1261:.\Generated_Source\PSoC5/UART_READER.c ****     *
1262:.\Generated_Source\PSoC5/UART_READER.c ****     * Global Variables:
1263:.\Generated_Source\PSoC5/UART_READER.c ****     *  UART_READER_txBufferWrite - used to calculate left space.
1264:.\Generated_Source\PSoC5/UART_READER.c ****     *  UART_READER_txBufferRead - used to calculate left space.
1265:.\Generated_Source\PSoC5/UART_READER.c ****     *
1266:.\Generated_Source\PSoC5/UART_READER.c ****     * Reentrant:
1267:.\Generated_Source\PSoC5/UART_READER.c ****     *  No.
1268:.\Generated_Source\PSoC5/UART_READER.c ****     *
1269:.\Generated_Source\PSoC5/UART_READER.c ****     * Theory:
1270:.\Generated_Source\PSoC5/UART_READER.c ****     *  Allows the user to find out how full the TX Buffer is.
1271:.\Generated_Source\PSoC5/UART_READER.c ****     *
1272:.\Generated_Source\PSoC5/UART_READER.c ****     *******************************************************************************/
1273:.\Generated_Source\PSoC5/UART_READER.c ****     uint8 UART_READER_GetTxBufferSize(void)
1274:.\Generated_Source\PSoC5/UART_READER.c ****                                                             
1275:.\Generated_Source\PSoC5/UART_READER.c ****     {
 1157              		.loc 1 1275 0
 1158              		.cfi_startproc
 1159              		@ args = 0, pretend = 0, frame = 8
 1160              		@ frame_needed = 1, uses_anonymous_args = 0
 1161              		@ link register save eliminated.
 1162 0000 80B4     		push	{r7}
 1163              		.cfi_def_cfa_offset 4
 1164              		.cfi_offset 7, -4
 1165 0002 83B0     		sub	sp, sp, #12
 1166              		.cfi_def_cfa_offset 16
 1167 0004 00AF     		add	r7, sp, #0
 1168              		.cfi_def_cfa_register 7
1276:.\Generated_Source\PSoC5/UART_READER.c ****         uint8 size;
1277:.\Generated_Source\PSoC5/UART_READER.c **** 
1278:.\Generated_Source\PSoC5/UART_READER.c ****     #if (UART_READER_TX_INTERRUPT_ENABLED)
1279:.\Generated_Source\PSoC5/UART_READER.c **** 
1280:.\Generated_Source\PSoC5/UART_READER.c ****         /* Protect variables that could change on interrupt. */
ARM GAS  C:\Users\yqh\AppData\Local\Temp\ccpJxCTG.s 			page 44


1281:.\Generated_Source\PSoC5/UART_READER.c ****         UART_READER_DisableTxInt();
1282:.\Generated_Source\PSoC5/UART_READER.c **** 
1283:.\Generated_Source\PSoC5/UART_READER.c ****         if(UART_READER_txBufferRead == UART_READER_txBufferWrite)
1284:.\Generated_Source\PSoC5/UART_READER.c ****         {
1285:.\Generated_Source\PSoC5/UART_READER.c ****             size = 0u;
1286:.\Generated_Source\PSoC5/UART_READER.c ****         }
1287:.\Generated_Source\PSoC5/UART_READER.c ****         else if(UART_READER_txBufferRead < UART_READER_txBufferWrite)
1288:.\Generated_Source\PSoC5/UART_READER.c ****         {
1289:.\Generated_Source\PSoC5/UART_READER.c ****             size = (UART_READER_txBufferWrite - UART_READER_txBufferRead);
1290:.\Generated_Source\PSoC5/UART_READER.c ****         }
1291:.\Generated_Source\PSoC5/UART_READER.c ****         else
1292:.\Generated_Source\PSoC5/UART_READER.c ****         {
1293:.\Generated_Source\PSoC5/UART_READER.c ****             size = (UART_READER_TX_BUFFER_SIZE - UART_READER_txBufferRead) +
1294:.\Generated_Source\PSoC5/UART_READER.c ****                     UART_READER_txBufferWrite;
1295:.\Generated_Source\PSoC5/UART_READER.c ****         }
1296:.\Generated_Source\PSoC5/UART_READER.c **** 
1297:.\Generated_Source\PSoC5/UART_READER.c ****         UART_READER_EnableTxInt();
1298:.\Generated_Source\PSoC5/UART_READER.c **** 
1299:.\Generated_Source\PSoC5/UART_READER.c ****     #else
1300:.\Generated_Source\PSoC5/UART_READER.c **** 
1301:.\Generated_Source\PSoC5/UART_READER.c ****         size = UART_READER_TXSTATUS_REG;
 1169              		.loc 1 1301 0
 1170 0006 0E4B     		ldr	r3, .L91
 1171 0008 1B78     		ldrb	r3, [r3]
 1172 000a FB71     		strb	r3, [r7, #7]
1302:.\Generated_Source\PSoC5/UART_READER.c **** 
1303:.\Generated_Source\PSoC5/UART_READER.c ****         /* Is the fifo is full. */
1304:.\Generated_Source\PSoC5/UART_READER.c ****         if((size & UART_READER_TX_STS_FIFO_FULL) != 0u)
 1173              		.loc 1 1304 0
 1174 000c FB79     		ldrb	r3, [r7, #7]	@ zero_extendqisi2
 1175 000e 03F02003 		and	r3, r3, #32
 1176 0012 002B     		cmp	r3, #0
 1177 0014 02D0     		beq	.L87
1305:.\Generated_Source\PSoC5/UART_READER.c ****         {
1306:.\Generated_Source\PSoC5/UART_READER.c ****             size = UART_READER_FIFO_LENGTH;
 1178              		.loc 1 1306 0
 1179 0016 0423     		movs	r3, #4
 1180 0018 FB71     		strb	r3, [r7, #7]
 1181 001a 09E0     		b	.L88
 1182              	.L87:
1307:.\Generated_Source\PSoC5/UART_READER.c ****         }
1308:.\Generated_Source\PSoC5/UART_READER.c ****         else if((size & UART_READER_TX_STS_FIFO_EMPTY) != 0u)
 1183              		.loc 1 1308 0
 1184 001c FB79     		ldrb	r3, [r7, #7]	@ zero_extendqisi2
 1185 001e 03F00203 		and	r3, r3, #2
 1186 0022 002B     		cmp	r3, #0
 1187 0024 02D0     		beq	.L89
1309:.\Generated_Source\PSoC5/UART_READER.c ****         {
1310:.\Generated_Source\PSoC5/UART_READER.c ****             size = 0u;
 1188              		.loc 1 1310 0
 1189 0026 0023     		movs	r3, #0
 1190 0028 FB71     		strb	r3, [r7, #7]
 1191 002a 01E0     		b	.L88
 1192              	.L89:
1311:.\Generated_Source\PSoC5/UART_READER.c ****         }
1312:.\Generated_Source\PSoC5/UART_READER.c ****         else
1313:.\Generated_Source\PSoC5/UART_READER.c ****         {
ARM GAS  C:\Users\yqh\AppData\Local\Temp\ccpJxCTG.s 			page 45


1314:.\Generated_Source\PSoC5/UART_READER.c ****             /* We only know there is data in the fifo. */
1315:.\Generated_Source\PSoC5/UART_READER.c ****             size = 1u;
 1193              		.loc 1 1315 0
 1194 002c 0123     		movs	r3, #1
 1195 002e FB71     		strb	r3, [r7, #7]
 1196              	.L88:
1316:.\Generated_Source\PSoC5/UART_READER.c ****         }
1317:.\Generated_Source\PSoC5/UART_READER.c **** 
1318:.\Generated_Source\PSoC5/UART_READER.c ****     #endif /* (UART_READER_TX_INTERRUPT_ENABLED) */
1319:.\Generated_Source\PSoC5/UART_READER.c **** 
1320:.\Generated_Source\PSoC5/UART_READER.c ****     return(size);
 1197              		.loc 1 1320 0
 1198 0030 FB79     		ldrb	r3, [r7, #7]	@ zero_extendqisi2
1321:.\Generated_Source\PSoC5/UART_READER.c ****     }
 1199              		.loc 1 1321 0
 1200 0032 1846     		mov	r0, r3
 1201 0034 0C37     		adds	r7, r7, #12
 1202              		.cfi_def_cfa_offset 4
 1203 0036 BD46     		mov	sp, r7
 1204              		.cfi_def_cfa_register 13
 1205              		@ sp needed
 1206 0038 5DF8047B 		ldr	r7, [sp], #4
 1207              		.cfi_restore 7
 1208              		.cfi_def_cfa_offset 0
 1209 003c 7047     		bx	lr
 1210              	.L92:
 1211 003e 00BF     		.align	2
 1212              	.L91:
 1213 0040 68650040 		.word	1073767784
 1214              		.cfi_endproc
 1215              	.LFE23:
 1216              		.size	UART_READER_GetTxBufferSize, .-UART_READER_GetTxBufferSize
 1217              		.section	.text.UART_READER_ClearTxBuffer,"ax",%progbits
 1218              		.align	2
 1219              		.global	UART_READER_ClearTxBuffer
 1220              		.thumb
 1221              		.thumb_func
 1222              		.type	UART_READER_ClearTxBuffer, %function
 1223              	UART_READER_ClearTxBuffer:
 1224              	.LFB24:
1322:.\Generated_Source\PSoC5/UART_READER.c **** 
1323:.\Generated_Source\PSoC5/UART_READER.c **** 
1324:.\Generated_Source\PSoC5/UART_READER.c ****     /*******************************************************************************
1325:.\Generated_Source\PSoC5/UART_READER.c ****     * Function Name: UART_READER_ClearTxBuffer
1326:.\Generated_Source\PSoC5/UART_READER.c ****     ********************************************************************************
1327:.\Generated_Source\PSoC5/UART_READER.c ****     *
1328:.\Generated_Source\PSoC5/UART_READER.c ****     * Summary:
1329:.\Generated_Source\PSoC5/UART_READER.c ****     *  Clears all data from the TX buffer and hardware TX FIFO.
1330:.\Generated_Source\PSoC5/UART_READER.c ****     *
1331:.\Generated_Source\PSoC5/UART_READER.c ****     * Parameters:
1332:.\Generated_Source\PSoC5/UART_READER.c ****     *  None.
1333:.\Generated_Source\PSoC5/UART_READER.c ****     *
1334:.\Generated_Source\PSoC5/UART_READER.c ****     * Return:
1335:.\Generated_Source\PSoC5/UART_READER.c ****     *  None.
1336:.\Generated_Source\PSoC5/UART_READER.c ****     *
1337:.\Generated_Source\PSoC5/UART_READER.c ****     * Global Variables:
1338:.\Generated_Source\PSoC5/UART_READER.c ****     *  UART_READER_txBufferWrite - cleared to zero.
ARM GAS  C:\Users\yqh\AppData\Local\Temp\ccpJxCTG.s 			page 46


1339:.\Generated_Source\PSoC5/UART_READER.c ****     *  UART_READER_txBufferRead - cleared to zero.
1340:.\Generated_Source\PSoC5/UART_READER.c ****     *
1341:.\Generated_Source\PSoC5/UART_READER.c ****     * Reentrant:
1342:.\Generated_Source\PSoC5/UART_READER.c ****     *  No.
1343:.\Generated_Source\PSoC5/UART_READER.c ****     *
1344:.\Generated_Source\PSoC5/UART_READER.c ****     * Theory:
1345:.\Generated_Source\PSoC5/UART_READER.c ****     *  Setting the pointers to zero makes the system believe there is no data to
1346:.\Generated_Source\PSoC5/UART_READER.c ****     *  read and writing will resume at address 0 overwriting any data that may have
1347:.\Generated_Source\PSoC5/UART_READER.c ****     *  remained in the RAM.
1348:.\Generated_Source\PSoC5/UART_READER.c ****     *
1349:.\Generated_Source\PSoC5/UART_READER.c ****     * Side Effects:
1350:.\Generated_Source\PSoC5/UART_READER.c ****     *  Data waiting in the transmit buffer is not sent; a byte that is currently
1351:.\Generated_Source\PSoC5/UART_READER.c ****     *  transmitting finishes transmitting.
1352:.\Generated_Source\PSoC5/UART_READER.c ****     *
1353:.\Generated_Source\PSoC5/UART_READER.c ****     *******************************************************************************/
1354:.\Generated_Source\PSoC5/UART_READER.c ****     void UART_READER_ClearTxBuffer(void) 
1355:.\Generated_Source\PSoC5/UART_READER.c ****     {
 1225              		.loc 1 1355 0
 1226              		.cfi_startproc
 1227              		@ args = 0, pretend = 0, frame = 8
 1228              		@ frame_needed = 1, uses_anonymous_args = 0
 1229 0000 80B5     		push	{r7, lr}
 1230              		.cfi_def_cfa_offset 8
 1231              		.cfi_offset 7, -8
 1232              		.cfi_offset 14, -4
 1233 0002 82B0     		sub	sp, sp, #8
 1234              		.cfi_def_cfa_offset 16
 1235 0004 00AF     		add	r7, sp, #0
 1236              		.cfi_def_cfa_register 7
1356:.\Generated_Source\PSoC5/UART_READER.c ****         uint8 enableInterrupts;
1357:.\Generated_Source\PSoC5/UART_READER.c **** 
1358:.\Generated_Source\PSoC5/UART_READER.c ****         enableInterrupts = CyEnterCriticalSection();
 1237              		.loc 1 1358 0
 1238 0006 FFF7FEFF 		bl	CyEnterCriticalSection
 1239 000a 0346     		mov	r3, r0
 1240 000c FB71     		strb	r3, [r7, #7]
1359:.\Generated_Source\PSoC5/UART_READER.c ****         /* Clear the HW FIFO */
1360:.\Generated_Source\PSoC5/UART_READER.c ****         UART_READER_TXDATA_AUX_CTL_REG |= (uint8)  UART_READER_TX_FIFO_CLR;
 1241              		.loc 1 1360 0
 1242 000e 0B4A     		ldr	r2, .L94
 1243 0010 0A4B     		ldr	r3, .L94
 1244 0012 1B78     		ldrb	r3, [r3]
 1245 0014 DBB2     		uxtb	r3, r3
 1246 0016 43F00203 		orr	r3, r3, #2
 1247 001a DBB2     		uxtb	r3, r3
 1248 001c 1370     		strb	r3, [r2]
1361:.\Generated_Source\PSoC5/UART_READER.c ****         UART_READER_TXDATA_AUX_CTL_REG &= (uint8) ~UART_READER_TX_FIFO_CLR;
 1249              		.loc 1 1361 0
 1250 001e 074A     		ldr	r2, .L94
 1251 0020 064B     		ldr	r3, .L94
 1252 0022 1B78     		ldrb	r3, [r3]
 1253 0024 DBB2     		uxtb	r3, r3
 1254 0026 23F00203 		bic	r3, r3, #2
 1255 002a DBB2     		uxtb	r3, r3
 1256 002c 1370     		strb	r3, [r2]
1362:.\Generated_Source\PSoC5/UART_READER.c ****         CyExitCriticalSection(enableInterrupts);
 1257              		.loc 1 1362 0
ARM GAS  C:\Users\yqh\AppData\Local\Temp\ccpJxCTG.s 			page 47


 1258 002e FB79     		ldrb	r3, [r7, #7]	@ zero_extendqisi2
 1259 0030 1846     		mov	r0, r3
 1260 0032 FFF7FEFF 		bl	CyExitCriticalSection
1363:.\Generated_Source\PSoC5/UART_READER.c **** 
1364:.\Generated_Source\PSoC5/UART_READER.c ****     #if (UART_READER_TX_INTERRUPT_ENABLED)
1365:.\Generated_Source\PSoC5/UART_READER.c **** 
1366:.\Generated_Source\PSoC5/UART_READER.c ****         /* Protect variables that could change on interrupt. */
1367:.\Generated_Source\PSoC5/UART_READER.c ****         UART_READER_DisableTxInt();
1368:.\Generated_Source\PSoC5/UART_READER.c **** 
1369:.\Generated_Source\PSoC5/UART_READER.c ****         UART_READER_txBufferRead = 0u;
1370:.\Generated_Source\PSoC5/UART_READER.c ****         UART_READER_txBufferWrite = 0u;
1371:.\Generated_Source\PSoC5/UART_READER.c **** 
1372:.\Generated_Source\PSoC5/UART_READER.c ****         /* Enable Tx interrupt. */
1373:.\Generated_Source\PSoC5/UART_READER.c ****         UART_READER_EnableTxInt();
1374:.\Generated_Source\PSoC5/UART_READER.c **** 
1375:.\Generated_Source\PSoC5/UART_READER.c ****     #endif /* (UART_READER_TX_INTERRUPT_ENABLED) */
1376:.\Generated_Source\PSoC5/UART_READER.c ****     }
 1261              		.loc 1 1376 0
 1262 0036 0837     		adds	r7, r7, #8
 1263              		.cfi_def_cfa_offset 8
 1264 0038 BD46     		mov	sp, r7
 1265              		.cfi_def_cfa_register 13
 1266              		@ sp needed
 1267 003a 80BD     		pop	{r7, pc}
 1268              	.L95:
 1269              		.align	2
 1270              	.L94:
 1271 003c 98650040 		.word	1073767832
 1272              		.cfi_endproc
 1273              	.LFE24:
 1274              		.size	UART_READER_ClearTxBuffer, .-UART_READER_ClearTxBuffer
 1275              		.section	.text.UART_READER_SendBreak,"ax",%progbits
 1276              		.align	2
 1277              		.global	UART_READER_SendBreak
 1278              		.thumb
 1279              		.thumb_func
 1280              		.type	UART_READER_SendBreak, %function
 1281              	UART_READER_SendBreak:
 1282              	.LFB25:
1377:.\Generated_Source\PSoC5/UART_READER.c **** 
1378:.\Generated_Source\PSoC5/UART_READER.c **** 
1379:.\Generated_Source\PSoC5/UART_READER.c ****     /*******************************************************************************
1380:.\Generated_Source\PSoC5/UART_READER.c ****     * Function Name: UART_READER_SendBreak
1381:.\Generated_Source\PSoC5/UART_READER.c ****     ********************************************************************************
1382:.\Generated_Source\PSoC5/UART_READER.c ****     *
1383:.\Generated_Source\PSoC5/UART_READER.c ****     * Summary:
1384:.\Generated_Source\PSoC5/UART_READER.c ****     *  Transmits a break signal on the bus.
1385:.\Generated_Source\PSoC5/UART_READER.c ****     *
1386:.\Generated_Source\PSoC5/UART_READER.c ****     * Parameters:
1387:.\Generated_Source\PSoC5/UART_READER.c ****     *  uint8 retMode:  Send Break return mode. See the following table for options.
1388:.\Generated_Source\PSoC5/UART_READER.c ****     *   UART_READER_SEND_BREAK - Initialize registers for break, send the Break
1389:.\Generated_Source\PSoC5/UART_READER.c ****     *       signal and return immediately.
1390:.\Generated_Source\PSoC5/UART_READER.c ****     *   UART_READER_WAIT_FOR_COMPLETE_REINIT - Wait until break transmission is
1391:.\Generated_Source\PSoC5/UART_READER.c ****     *       complete, reinitialize registers to normal transmission mode then return
1392:.\Generated_Source\PSoC5/UART_READER.c ****     *   UART_READER_REINIT - Reinitialize registers to normal transmission mode
1393:.\Generated_Source\PSoC5/UART_READER.c ****     *       then return.
1394:.\Generated_Source\PSoC5/UART_READER.c ****     *   UART_READER_SEND_WAIT_REINIT - Performs both options: 
ARM GAS  C:\Users\yqh\AppData\Local\Temp\ccpJxCTG.s 			page 48


1395:.\Generated_Source\PSoC5/UART_READER.c ****     *      UART_READER_SEND_BREAK and UART_READER_WAIT_FOR_COMPLETE_REINIT.
1396:.\Generated_Source\PSoC5/UART_READER.c ****     *      This option is recommended for most cases.
1397:.\Generated_Source\PSoC5/UART_READER.c ****     *
1398:.\Generated_Source\PSoC5/UART_READER.c ****     * Return:
1399:.\Generated_Source\PSoC5/UART_READER.c ****     *  None.
1400:.\Generated_Source\PSoC5/UART_READER.c ****     *
1401:.\Generated_Source\PSoC5/UART_READER.c ****     * Global Variables:
1402:.\Generated_Source\PSoC5/UART_READER.c ****     *  UART_READER_initVar - checked to identify that the component has been
1403:.\Generated_Source\PSoC5/UART_READER.c ****     *     initialized.
1404:.\Generated_Source\PSoC5/UART_READER.c ****     *  txPeriod - static variable, used for keeping TX period configuration.
1405:.\Generated_Source\PSoC5/UART_READER.c ****     *
1406:.\Generated_Source\PSoC5/UART_READER.c ****     * Reentrant:
1407:.\Generated_Source\PSoC5/UART_READER.c ****     *  No.
1408:.\Generated_Source\PSoC5/UART_READER.c ****     *
1409:.\Generated_Source\PSoC5/UART_READER.c ****     * Theory:
1410:.\Generated_Source\PSoC5/UART_READER.c ****     *  SendBreak function initializes registers to send 13-bit break signal. It is
1411:.\Generated_Source\PSoC5/UART_READER.c ****     *  important to return the registers configuration to normal for continue 8-bit
1412:.\Generated_Source\PSoC5/UART_READER.c ****     *  operation.
1413:.\Generated_Source\PSoC5/UART_READER.c ****     *  There are 3 variants for this API usage:
1414:.\Generated_Source\PSoC5/UART_READER.c ****     *  1) SendBreak(3) - function will send the Break signal and take care on the
1415:.\Generated_Source\PSoC5/UART_READER.c ****     *     configuration returning. Function will block CPU until transmission
1416:.\Generated_Source\PSoC5/UART_READER.c ****     *     complete.
1417:.\Generated_Source\PSoC5/UART_READER.c ****     *  2) User may want to use blocking time if UART configured to the low speed
1418:.\Generated_Source\PSoC5/UART_READER.c ****     *     operation
1419:.\Generated_Source\PSoC5/UART_READER.c ****     *     Example for this case:
1420:.\Generated_Source\PSoC5/UART_READER.c ****     *     SendBreak(0);     - initialize Break signal transmission
1421:.\Generated_Source\PSoC5/UART_READER.c ****     *         Add your code here to use CPU time
1422:.\Generated_Source\PSoC5/UART_READER.c ****     *     SendBreak(1);     - complete Break operation
1423:.\Generated_Source\PSoC5/UART_READER.c ****     *  3) Same to 2) but user may want to initialize and use the interrupt to
1424:.\Generated_Source\PSoC5/UART_READER.c ****     *     complete break operation.
1425:.\Generated_Source\PSoC5/UART_READER.c ****     *     Example for this case:
1426:.\Generated_Source\PSoC5/UART_READER.c ****     *     Initialize TX interrupt with "TX - On TX Complete" parameter
1427:.\Generated_Source\PSoC5/UART_READER.c ****     *     SendBreak(0);     - initialize Break signal transmission
1428:.\Generated_Source\PSoC5/UART_READER.c ****     *         Add your code here to use CPU time
1429:.\Generated_Source\PSoC5/UART_READER.c ****     *     When interrupt appear with UART_READER_TX_STS_COMPLETE status:
1430:.\Generated_Source\PSoC5/UART_READER.c ****     *     SendBreak(2);     - complete Break operation
1431:.\Generated_Source\PSoC5/UART_READER.c ****     *
1432:.\Generated_Source\PSoC5/UART_READER.c ****     * Side Effects:
1433:.\Generated_Source\PSoC5/UART_READER.c ****     *  The UART_READER_SendBreak() function initializes registers to send a
1434:.\Generated_Source\PSoC5/UART_READER.c ****     *  break signal.
1435:.\Generated_Source\PSoC5/UART_READER.c ****     *  Break signal length depends on the break signal bits configuration.
1436:.\Generated_Source\PSoC5/UART_READER.c ****     *  The register configuration should be reinitialized before normal 8-bit
1437:.\Generated_Source\PSoC5/UART_READER.c ****     *  communication can continue.
1438:.\Generated_Source\PSoC5/UART_READER.c ****     *
1439:.\Generated_Source\PSoC5/UART_READER.c ****     *******************************************************************************/
1440:.\Generated_Source\PSoC5/UART_READER.c ****     void UART_READER_SendBreak(uint8 retMode) 
1441:.\Generated_Source\PSoC5/UART_READER.c ****     {
 1283              		.loc 1 1441 0
 1284              		.cfi_startproc
 1285              		@ args = 0, pretend = 0, frame = 16
 1286              		@ frame_needed = 1, uses_anonymous_args = 0
 1287 0000 80B5     		push	{r7, lr}
 1288              		.cfi_def_cfa_offset 8
 1289              		.cfi_offset 7, -8
 1290              		.cfi_offset 14, -4
 1291 0002 84B0     		sub	sp, sp, #16
 1292              		.cfi_def_cfa_offset 24
ARM GAS  C:\Users\yqh\AppData\Local\Temp\ccpJxCTG.s 			page 49


 1293 0004 00AF     		add	r7, sp, #0
 1294              		.cfi_def_cfa_register 7
 1295 0006 0346     		mov	r3, r0
 1296 0008 FB71     		strb	r3, [r7, #7]
1442:.\Generated_Source\PSoC5/UART_READER.c **** 
1443:.\Generated_Source\PSoC5/UART_READER.c ****         /* If not Initialized then skip this function*/
1444:.\Generated_Source\PSoC5/UART_READER.c ****         if(UART_READER_initVar != 0u)
 1297              		.loc 1 1444 0
 1298 000a 214B     		ldr	r3, .L104
 1299 000c 1B78     		ldrb	r3, [r3]	@ zero_extendqisi2
 1300 000e 002B     		cmp	r3, #0
 1301 0010 3BD0     		beq	.L96
 1302              	.LBB2:
1445:.\Generated_Source\PSoC5/UART_READER.c ****         {
1446:.\Generated_Source\PSoC5/UART_READER.c ****             /* Set the Counter to 13-bits and transmit a 00 byte */
1447:.\Generated_Source\PSoC5/UART_READER.c ****             /* When that is done then reset the counter value back */
1448:.\Generated_Source\PSoC5/UART_READER.c ****             uint8 tmpStat;
1449:.\Generated_Source\PSoC5/UART_READER.c **** 
1450:.\Generated_Source\PSoC5/UART_READER.c ****         #if(UART_READER_HD_ENABLED) /* Half Duplex mode*/
1451:.\Generated_Source\PSoC5/UART_READER.c **** 
1452:.\Generated_Source\PSoC5/UART_READER.c ****             if( (retMode == UART_READER_SEND_BREAK) ||
 1303              		.loc 1 1452 0
 1304 0012 FB79     		ldrb	r3, [r7, #7]	@ zero_extendqisi2
 1305 0014 002B     		cmp	r3, #0
 1306 0016 02D0     		beq	.L98
 1307              		.loc 1 1452 0 is_stmt 0 discriminator 1
 1308 0018 FB79     		ldrb	r3, [r7, #7]	@ zero_extendqisi2
 1309 001a 032B     		cmp	r3, #3
 1310 001c 13D1     		bne	.L99
 1311              	.L98:
1453:.\Generated_Source\PSoC5/UART_READER.c ****                 (retMode == UART_READER_SEND_WAIT_REINIT ) )
1454:.\Generated_Source\PSoC5/UART_READER.c ****             {
1455:.\Generated_Source\PSoC5/UART_READER.c ****                 /* CTRL_HD_SEND_BREAK - sends break bits in HD mode */
1456:.\Generated_Source\PSoC5/UART_READER.c ****                 UART_READER_WriteControlRegister(UART_READER_ReadControlRegister() |
 1312              		.loc 1 1456 0 is_stmt 1
 1313 001e FFF7FEFF 		bl	UART_READER_ReadControlRegister
 1314 0022 0346     		mov	r3, r0
 1315 0024 43F00203 		orr	r3, r3, #2
 1316 0028 DBB2     		uxtb	r3, r3
 1317 002a 1846     		mov	r0, r3
 1318 002c FFF7FEFF 		bl	UART_READER_WriteControlRegister
1457:.\Generated_Source\PSoC5/UART_READER.c ****                                                       UART_READER_CTRL_HD_SEND_BREAK);
1458:.\Generated_Source\PSoC5/UART_READER.c ****                 /* Send zeros */
1459:.\Generated_Source\PSoC5/UART_READER.c ****                 UART_READER_TXDATA_REG = 0u;
 1319              		.loc 1 1459 0
 1320 0030 184B     		ldr	r3, .L104+4
 1321 0032 0022     		movs	r2, #0
 1322 0034 1A70     		strb	r2, [r3]
 1323              	.L100:
1460:.\Generated_Source\PSoC5/UART_READER.c **** 
1461:.\Generated_Source\PSoC5/UART_READER.c ****                 do /* Wait until transmit starts */
1462:.\Generated_Source\PSoC5/UART_READER.c ****                 {
1463:.\Generated_Source\PSoC5/UART_READER.c ****                     tmpStat = UART_READER_TXSTATUS_REG;
 1324              		.loc 1 1463 0 discriminator 1
 1325 0036 184B     		ldr	r3, .L104+8
 1326 0038 1B78     		ldrb	r3, [r3]
 1327 003a FB73     		strb	r3, [r7, #15]
ARM GAS  C:\Users\yqh\AppData\Local\Temp\ccpJxCTG.s 			page 50


1464:.\Generated_Source\PSoC5/UART_READER.c ****                 }
1465:.\Generated_Source\PSoC5/UART_READER.c ****                 while((tmpStat & UART_READER_TX_STS_FIFO_EMPTY) != 0u);
 1328              		.loc 1 1465 0 discriminator 1
 1329 003c FB7B     		ldrb	r3, [r7, #15]	@ zero_extendqisi2
 1330 003e 03F00203 		and	r3, r3, #2
 1331 0042 002B     		cmp	r3, #0
 1332 0044 F7D1     		bne	.L100
 1333              	.L99:
1466:.\Generated_Source\PSoC5/UART_READER.c ****             }
1467:.\Generated_Source\PSoC5/UART_READER.c **** 
1468:.\Generated_Source\PSoC5/UART_READER.c ****             if( (retMode == UART_READER_WAIT_FOR_COMPLETE_REINIT) ||
 1334              		.loc 1 1468 0
 1335 0046 FB79     		ldrb	r3, [r7, #7]	@ zero_extendqisi2
 1336 0048 012B     		cmp	r3, #1
 1337 004a 02D0     		beq	.L101
 1338              		.loc 1 1468 0 is_stmt 0 discriminator 1
 1339 004c FB79     		ldrb	r3, [r7, #7]	@ zero_extendqisi2
 1340 004e 032B     		cmp	r3, #3
 1341 0050 09D1     		bne	.L102
 1342              	.L101:
1469:.\Generated_Source\PSoC5/UART_READER.c ****                 (retMode == UART_READER_SEND_WAIT_REINIT) )
1470:.\Generated_Source\PSoC5/UART_READER.c ****             {
1471:.\Generated_Source\PSoC5/UART_READER.c ****                 do /* Wait until transmit complete */
1472:.\Generated_Source\PSoC5/UART_READER.c ****                 {
1473:.\Generated_Source\PSoC5/UART_READER.c ****                     tmpStat = UART_READER_TXSTATUS_REG;
 1343              		.loc 1 1473 0 is_stmt 1 discriminator 1
 1344 0052 114B     		ldr	r3, .L104+8
 1345 0054 1B78     		ldrb	r3, [r3]
 1346 0056 FB73     		strb	r3, [r7, #15]
1474:.\Generated_Source\PSoC5/UART_READER.c ****                 }
1475:.\Generated_Source\PSoC5/UART_READER.c ****                 while(((uint8)~tmpStat & UART_READER_TX_STS_COMPLETE) != 0u);
 1347              		.loc 1 1475 0 discriminator 1
 1348 0058 FB7B     		ldrb	r3, [r7, #15]
 1349 005a DB43     		mvns	r3, r3
 1350 005c DBB2     		uxtb	r3, r3
 1351 005e 03F00103 		and	r3, r3, #1
 1352 0062 002B     		cmp	r3, #0
 1353 0064 F5D1     		bne	.L101
 1354              	.L102:
1476:.\Generated_Source\PSoC5/UART_READER.c ****             }
1477:.\Generated_Source\PSoC5/UART_READER.c **** 
1478:.\Generated_Source\PSoC5/UART_READER.c ****             if( (retMode == UART_READER_WAIT_FOR_COMPLETE_REINIT) ||
 1355              		.loc 1 1478 0
 1356 0066 FB79     		ldrb	r3, [r7, #7]	@ zero_extendqisi2
 1357 0068 012B     		cmp	r3, #1
 1358 006a 05D0     		beq	.L103
 1359              		.loc 1 1478 0 is_stmt 0 discriminator 1
 1360 006c FB79     		ldrb	r3, [r7, #7]	@ zero_extendqisi2
 1361 006e 022B     		cmp	r3, #2
 1362 0070 02D0     		beq	.L103
1479:.\Generated_Source\PSoC5/UART_READER.c ****                 (retMode == UART_READER_REINIT) ||
 1363              		.loc 1 1479 0 is_stmt 1
 1364 0072 FB79     		ldrb	r3, [r7, #7]	@ zero_extendqisi2
 1365 0074 032B     		cmp	r3, #3
 1366 0076 08D1     		bne	.L96
 1367              	.L103:
1480:.\Generated_Source\PSoC5/UART_READER.c ****                 (retMode == UART_READER_SEND_WAIT_REINIT) )
ARM GAS  C:\Users\yqh\AppData\Local\Temp\ccpJxCTG.s 			page 51


1481:.\Generated_Source\PSoC5/UART_READER.c ****             {
1482:.\Generated_Source\PSoC5/UART_READER.c ****                 UART_READER_WriteControlRegister(UART_READER_ReadControlRegister() &
 1368              		.loc 1 1482 0
 1369 0078 FFF7FEFF 		bl	UART_READER_ReadControlRegister
 1370 007c 0346     		mov	r3, r0
 1371 007e 23F00203 		bic	r3, r3, #2
 1372 0082 DBB2     		uxtb	r3, r3
 1373 0084 1846     		mov	r0, r3
 1374 0086 FFF7FEFF 		bl	UART_READER_WriteControlRegister
 1375              	.L96:
 1376              	.LBE2:
1483:.\Generated_Source\PSoC5/UART_READER.c ****                                               (uint8)~UART_READER_CTRL_HD_SEND_BREAK);
1484:.\Generated_Source\PSoC5/UART_READER.c ****             }
1485:.\Generated_Source\PSoC5/UART_READER.c **** 
1486:.\Generated_Source\PSoC5/UART_READER.c ****         #else /* UART_READER_HD_ENABLED Full Duplex mode */
1487:.\Generated_Source\PSoC5/UART_READER.c **** 
1488:.\Generated_Source\PSoC5/UART_READER.c ****             static uint8 txPeriod;
1489:.\Generated_Source\PSoC5/UART_READER.c **** 
1490:.\Generated_Source\PSoC5/UART_READER.c ****             if( (retMode == UART_READER_SEND_BREAK) ||
1491:.\Generated_Source\PSoC5/UART_READER.c ****                 (retMode == UART_READER_SEND_WAIT_REINIT) )
1492:.\Generated_Source\PSoC5/UART_READER.c ****             {
1493:.\Generated_Source\PSoC5/UART_READER.c ****                 /* CTRL_HD_SEND_BREAK - skip to send parity bit at Break signal in Full Duplex mode
1494:.\Generated_Source\PSoC5/UART_READER.c ****                 #if( (UART_READER_PARITY_TYPE != UART_READER__B_UART__NONE_REVB) || \
1495:.\Generated_Source\PSoC5/UART_READER.c ****                                     (UART_READER_PARITY_TYPE_SW != 0u) )
1496:.\Generated_Source\PSoC5/UART_READER.c ****                     UART_READER_WriteControlRegister(UART_READER_ReadControlRegister() |
1497:.\Generated_Source\PSoC5/UART_READER.c ****                                                           UART_READER_CTRL_HD_SEND_BREAK);
1498:.\Generated_Source\PSoC5/UART_READER.c ****                 #endif /* End UART_READER_PARITY_TYPE != UART_READER__B_UART__NONE_REVB  */
1499:.\Generated_Source\PSoC5/UART_READER.c **** 
1500:.\Generated_Source\PSoC5/UART_READER.c ****                 #if(UART_READER_TXCLKGEN_DP)
1501:.\Generated_Source\PSoC5/UART_READER.c ****                     txPeriod = UART_READER_TXBITCLKTX_COMPLETE_REG;
1502:.\Generated_Source\PSoC5/UART_READER.c ****                     UART_READER_TXBITCLKTX_COMPLETE_REG = UART_READER_TXBITCTR_BREAKBITS;
1503:.\Generated_Source\PSoC5/UART_READER.c ****                 #else
1504:.\Generated_Source\PSoC5/UART_READER.c ****                     txPeriod = UART_READER_TXBITCTR_PERIOD_REG;
1505:.\Generated_Source\PSoC5/UART_READER.c ****                     UART_READER_TXBITCTR_PERIOD_REG = UART_READER_TXBITCTR_BREAKBITS8X;
1506:.\Generated_Source\PSoC5/UART_READER.c ****                 #endif /* End UART_READER_TXCLKGEN_DP */
1507:.\Generated_Source\PSoC5/UART_READER.c **** 
1508:.\Generated_Source\PSoC5/UART_READER.c ****                 /* Send zeros */
1509:.\Generated_Source\PSoC5/UART_READER.c ****                 UART_READER_TXDATA_REG = 0u;
1510:.\Generated_Source\PSoC5/UART_READER.c **** 
1511:.\Generated_Source\PSoC5/UART_READER.c ****                 do /* Wait until transmit starts */
1512:.\Generated_Source\PSoC5/UART_READER.c ****                 {
1513:.\Generated_Source\PSoC5/UART_READER.c ****                     tmpStat = UART_READER_TXSTATUS_REG;
1514:.\Generated_Source\PSoC5/UART_READER.c ****                 }
1515:.\Generated_Source\PSoC5/UART_READER.c ****                 while((tmpStat & UART_READER_TX_STS_FIFO_EMPTY) != 0u);
1516:.\Generated_Source\PSoC5/UART_READER.c ****             }
1517:.\Generated_Source\PSoC5/UART_READER.c **** 
1518:.\Generated_Source\PSoC5/UART_READER.c ****             if( (retMode == UART_READER_WAIT_FOR_COMPLETE_REINIT) ||
1519:.\Generated_Source\PSoC5/UART_READER.c ****                 (retMode == UART_READER_SEND_WAIT_REINIT) )
1520:.\Generated_Source\PSoC5/UART_READER.c ****             {
1521:.\Generated_Source\PSoC5/UART_READER.c ****                 do /* Wait until transmit complete */
1522:.\Generated_Source\PSoC5/UART_READER.c ****                 {
1523:.\Generated_Source\PSoC5/UART_READER.c ****                     tmpStat = UART_READER_TXSTATUS_REG;
1524:.\Generated_Source\PSoC5/UART_READER.c ****                 }
1525:.\Generated_Source\PSoC5/UART_READER.c ****                 while(((uint8)~tmpStat & UART_READER_TX_STS_COMPLETE) != 0u);
1526:.\Generated_Source\PSoC5/UART_READER.c ****             }
1527:.\Generated_Source\PSoC5/UART_READER.c **** 
1528:.\Generated_Source\PSoC5/UART_READER.c ****             if( (retMode == UART_READER_WAIT_FOR_COMPLETE_REINIT) ||
ARM GAS  C:\Users\yqh\AppData\Local\Temp\ccpJxCTG.s 			page 52


1529:.\Generated_Source\PSoC5/UART_READER.c ****                 (retMode == UART_READER_REINIT) ||
1530:.\Generated_Source\PSoC5/UART_READER.c ****                 (retMode == UART_READER_SEND_WAIT_REINIT) )
1531:.\Generated_Source\PSoC5/UART_READER.c ****             {
1532:.\Generated_Source\PSoC5/UART_READER.c **** 
1533:.\Generated_Source\PSoC5/UART_READER.c ****             #if(UART_READER_TXCLKGEN_DP)
1534:.\Generated_Source\PSoC5/UART_READER.c ****                 UART_READER_TXBITCLKTX_COMPLETE_REG = txPeriod;
1535:.\Generated_Source\PSoC5/UART_READER.c ****             #else
1536:.\Generated_Source\PSoC5/UART_READER.c ****                 UART_READER_TXBITCTR_PERIOD_REG = txPeriod;
1537:.\Generated_Source\PSoC5/UART_READER.c ****             #endif /* End UART_READER_TXCLKGEN_DP */
1538:.\Generated_Source\PSoC5/UART_READER.c **** 
1539:.\Generated_Source\PSoC5/UART_READER.c ****             #if( (UART_READER_PARITY_TYPE != UART_READER__B_UART__NONE_REVB) || \
1540:.\Generated_Source\PSoC5/UART_READER.c ****                  (UART_READER_PARITY_TYPE_SW != 0u) )
1541:.\Generated_Source\PSoC5/UART_READER.c ****                 UART_READER_WriteControlRegister(UART_READER_ReadControlRegister() &
1542:.\Generated_Source\PSoC5/UART_READER.c ****                                                       (uint8) ~UART_READER_CTRL_HD_SEND_BREAK);
1543:.\Generated_Source\PSoC5/UART_READER.c ****             #endif /* End UART_READER_PARITY_TYPE != NONE */
1544:.\Generated_Source\PSoC5/UART_READER.c ****             }
1545:.\Generated_Source\PSoC5/UART_READER.c ****         #endif    /* End UART_READER_HD_ENABLED */
1546:.\Generated_Source\PSoC5/UART_READER.c ****         }
1547:.\Generated_Source\PSoC5/UART_READER.c ****     }
 1377              		.loc 1 1547 0
 1378 008a 1037     		adds	r7, r7, #16
 1379              		.cfi_def_cfa_offset 8
 1380 008c BD46     		mov	sp, r7
 1381              		.cfi_def_cfa_register 13
 1382              		@ sp needed
 1383 008e 80BD     		pop	{r7, pc}
 1384              	.L105:
 1385              		.align	2
 1386              	.L104:
 1387 0090 00000000 		.word	UART_READER_initVar
 1388 0094 58650040 		.word	1073767768
 1389 0098 68650040 		.word	1073767784
 1390              		.cfi_endproc
 1391              	.LFE25:
 1392              		.size	UART_READER_SendBreak, .-UART_READER_SendBreak
 1393              		.section	.text.UART_READER_SetTxAddressMode,"ax",%progbits
 1394              		.align	2
 1395              		.global	UART_READER_SetTxAddressMode
 1396              		.thumb
 1397              		.thumb_func
 1398              		.type	UART_READER_SetTxAddressMode, %function
 1399              	UART_READER_SetTxAddressMode:
 1400              	.LFB26:
1548:.\Generated_Source\PSoC5/UART_READER.c **** 
1549:.\Generated_Source\PSoC5/UART_READER.c **** 
1550:.\Generated_Source\PSoC5/UART_READER.c ****     /*******************************************************************************
1551:.\Generated_Source\PSoC5/UART_READER.c ****     * Function Name: UART_READER_SetTxAddressMode
1552:.\Generated_Source\PSoC5/UART_READER.c ****     ********************************************************************************
1553:.\Generated_Source\PSoC5/UART_READER.c ****     *
1554:.\Generated_Source\PSoC5/UART_READER.c ****     * Summary:
1555:.\Generated_Source\PSoC5/UART_READER.c ****     *  Configures the transmitter to signal the next bytes is address or data.
1556:.\Generated_Source\PSoC5/UART_READER.c ****     *
1557:.\Generated_Source\PSoC5/UART_READER.c ****     * Parameters:
1558:.\Generated_Source\PSoC5/UART_READER.c ****     *  addressMode: 
1559:.\Generated_Source\PSoC5/UART_READER.c ****     *       UART_READER_SET_SPACE - Configure the transmitter to send the next
1560:.\Generated_Source\PSoC5/UART_READER.c ****     *                                    byte as a data.
1561:.\Generated_Source\PSoC5/UART_READER.c ****     *       UART_READER_SET_MARK  - Configure the transmitter to send the next
ARM GAS  C:\Users\yqh\AppData\Local\Temp\ccpJxCTG.s 			page 53


1562:.\Generated_Source\PSoC5/UART_READER.c ****     *                                    byte as an address.
1563:.\Generated_Source\PSoC5/UART_READER.c ****     *
1564:.\Generated_Source\PSoC5/UART_READER.c ****     * Return:
1565:.\Generated_Source\PSoC5/UART_READER.c ****     *  None.
1566:.\Generated_Source\PSoC5/UART_READER.c ****     *
1567:.\Generated_Source\PSoC5/UART_READER.c ****     * Side Effects:
1568:.\Generated_Source\PSoC5/UART_READER.c ****     *  This function sets and clears UART_READER_CTRL_MARK bit in the Control
1569:.\Generated_Source\PSoC5/UART_READER.c ****     *  register.
1570:.\Generated_Source\PSoC5/UART_READER.c ****     *
1571:.\Generated_Source\PSoC5/UART_READER.c ****     *******************************************************************************/
1572:.\Generated_Source\PSoC5/UART_READER.c ****     void UART_READER_SetTxAddressMode(uint8 addressMode) 
1573:.\Generated_Source\PSoC5/UART_READER.c ****     {
 1401              		.loc 1 1573 0
 1402              		.cfi_startproc
 1403              		@ args = 0, pretend = 0, frame = 8
 1404              		@ frame_needed = 1, uses_anonymous_args = 0
 1405 0000 80B5     		push	{r7, lr}
 1406              		.cfi_def_cfa_offset 8
 1407              		.cfi_offset 7, -8
 1408              		.cfi_offset 14, -4
 1409 0002 82B0     		sub	sp, sp, #8
 1410              		.cfi_def_cfa_offset 16
 1411 0004 00AF     		add	r7, sp, #0
 1412              		.cfi_def_cfa_register 7
 1413 0006 0346     		mov	r3, r0
 1414 0008 FB71     		strb	r3, [r7, #7]
1574:.\Generated_Source\PSoC5/UART_READER.c ****         /* Mark/Space sending enable */
1575:.\Generated_Source\PSoC5/UART_READER.c ****         if(addressMode != 0u)
 1415              		.loc 1 1575 0
 1416 000a FB79     		ldrb	r3, [r7, #7]	@ zero_extendqisi2
 1417 000c 002B     		cmp	r3, #0
 1418 000e 09D0     		beq	.L107
1576:.\Generated_Source\PSoC5/UART_READER.c ****         {
1577:.\Generated_Source\PSoC5/UART_READER.c ****         #if( UART_READER_CONTROL_REG_REMOVED == 0u )
1578:.\Generated_Source\PSoC5/UART_READER.c ****             UART_READER_WriteControlRegister(UART_READER_ReadControlRegister() |
 1419              		.loc 1 1578 0
 1420 0010 FFF7FEFF 		bl	UART_READER_ReadControlRegister
 1421 0014 0346     		mov	r3, r0
 1422 0016 43F00403 		orr	r3, r3, #4
 1423 001a DBB2     		uxtb	r3, r3
 1424 001c 1846     		mov	r0, r3
 1425 001e FFF7FEFF 		bl	UART_READER_WriteControlRegister
 1426 0022 08E0     		b	.L106
 1427              	.L107:
1579:.\Generated_Source\PSoC5/UART_READER.c ****                                                   UART_READER_CTRL_MARK);
1580:.\Generated_Source\PSoC5/UART_READER.c ****         #endif /* End UART_READER_CONTROL_REG_REMOVED == 0u */
1581:.\Generated_Source\PSoC5/UART_READER.c ****         }
1582:.\Generated_Source\PSoC5/UART_READER.c ****         else
1583:.\Generated_Source\PSoC5/UART_READER.c ****         {
1584:.\Generated_Source\PSoC5/UART_READER.c ****         #if( UART_READER_CONTROL_REG_REMOVED == 0u )
1585:.\Generated_Source\PSoC5/UART_READER.c ****             UART_READER_WriteControlRegister(UART_READER_ReadControlRegister() &
 1428              		.loc 1 1585 0
 1429 0024 FFF7FEFF 		bl	UART_READER_ReadControlRegister
 1430 0028 0346     		mov	r3, r0
 1431 002a 23F00403 		bic	r3, r3, #4
 1432 002e DBB2     		uxtb	r3, r3
 1433 0030 1846     		mov	r0, r3
ARM GAS  C:\Users\yqh\AppData\Local\Temp\ccpJxCTG.s 			page 54


 1434 0032 FFF7FEFF 		bl	UART_READER_WriteControlRegister
 1435              	.L106:
1586:.\Generated_Source\PSoC5/UART_READER.c ****                                                   (uint8) ~UART_READER_CTRL_MARK);
1587:.\Generated_Source\PSoC5/UART_READER.c ****         #endif /* End UART_READER_CONTROL_REG_REMOVED == 0u */
1588:.\Generated_Source\PSoC5/UART_READER.c ****         }
1589:.\Generated_Source\PSoC5/UART_READER.c ****     }
 1436              		.loc 1 1589 0
 1437 0036 0837     		adds	r7, r7, #8
 1438              		.cfi_def_cfa_offset 8
 1439 0038 BD46     		mov	sp, r7
 1440              		.cfi_def_cfa_register 13
 1441              		@ sp needed
 1442 003a 80BD     		pop	{r7, pc}
 1443              		.cfi_endproc
 1444              	.LFE26:
 1445              		.size	UART_READER_SetTxAddressMode, .-UART_READER_SetTxAddressMode
 1446              		.section	.text.UART_READER_LoadRxConfig,"ax",%progbits
 1447              		.align	2
 1448              		.global	UART_READER_LoadRxConfig
 1449              		.thumb
 1450              		.thumb_func
 1451              		.type	UART_READER_LoadRxConfig, %function
 1452              	UART_READER_LoadRxConfig:
 1453              	.LFB27:
1590:.\Generated_Source\PSoC5/UART_READER.c **** 
1591:.\Generated_Source\PSoC5/UART_READER.c **** #endif  /* EndUART_READER_TX_ENABLED */
1592:.\Generated_Source\PSoC5/UART_READER.c **** 
1593:.\Generated_Source\PSoC5/UART_READER.c **** #if(UART_READER_HD_ENABLED)
1594:.\Generated_Source\PSoC5/UART_READER.c **** 
1595:.\Generated_Source\PSoC5/UART_READER.c **** 
1596:.\Generated_Source\PSoC5/UART_READER.c ****     /*******************************************************************************
1597:.\Generated_Source\PSoC5/UART_READER.c ****     * Function Name: UART_READER_LoadRxConfig
1598:.\Generated_Source\PSoC5/UART_READER.c ****     ********************************************************************************
1599:.\Generated_Source\PSoC5/UART_READER.c ****     *
1600:.\Generated_Source\PSoC5/UART_READER.c ****     * Summary:
1601:.\Generated_Source\PSoC5/UART_READER.c ****     *  Loads the receiver configuration in half duplex mode. After calling this
1602:.\Generated_Source\PSoC5/UART_READER.c ****     *  function, the UART is ready to receive data.
1603:.\Generated_Source\PSoC5/UART_READER.c ****     *
1604:.\Generated_Source\PSoC5/UART_READER.c ****     * Parameters:
1605:.\Generated_Source\PSoC5/UART_READER.c ****     *  None.
1606:.\Generated_Source\PSoC5/UART_READER.c ****     *
1607:.\Generated_Source\PSoC5/UART_READER.c ****     * Return:
1608:.\Generated_Source\PSoC5/UART_READER.c ****     *  None.
1609:.\Generated_Source\PSoC5/UART_READER.c ****     *
1610:.\Generated_Source\PSoC5/UART_READER.c ****     * Side Effects:
1611:.\Generated_Source\PSoC5/UART_READER.c ****     *  Valid only in half duplex mode. You must make sure that the previous
1612:.\Generated_Source\PSoC5/UART_READER.c ****     *  transaction is complete and it is safe to unload the transmitter
1613:.\Generated_Source\PSoC5/UART_READER.c ****     *  configuration.
1614:.\Generated_Source\PSoC5/UART_READER.c ****     *
1615:.\Generated_Source\PSoC5/UART_READER.c ****     *******************************************************************************/
1616:.\Generated_Source\PSoC5/UART_READER.c ****     void UART_READER_LoadRxConfig(void) 
1617:.\Generated_Source\PSoC5/UART_READER.c ****     {
 1454              		.loc 1 1617 0
 1455              		.cfi_startproc
 1456              		@ args = 0, pretend = 0, frame = 0
 1457              		@ frame_needed = 1, uses_anonymous_args = 0
 1458 0000 80B5     		push	{r7, lr}
ARM GAS  C:\Users\yqh\AppData\Local\Temp\ccpJxCTG.s 			page 55


 1459              		.cfi_def_cfa_offset 8
 1460              		.cfi_offset 7, -8
 1461              		.cfi_offset 14, -4
 1462 0002 00AF     		add	r7, sp, #0
 1463              		.cfi_def_cfa_register 7
1618:.\Generated_Source\PSoC5/UART_READER.c ****         UART_READER_WriteControlRegister(UART_READER_ReadControlRegister() &
 1464              		.loc 1 1618 0
 1465 0004 FFF7FEFF 		bl	UART_READER_ReadControlRegister
 1466 0008 0346     		mov	r3, r0
 1467 000a 23F00103 		bic	r3, r3, #1
 1468 000e DBB2     		uxtb	r3, r3
 1469 0010 1846     		mov	r0, r3
 1470 0012 FFF7FEFF 		bl	UART_READER_WriteControlRegister
1619:.\Generated_Source\PSoC5/UART_READER.c ****                                                 (uint8)~UART_READER_CTRL_HD_SEND);
1620:.\Generated_Source\PSoC5/UART_READER.c ****         UART_READER_RXBITCTR_PERIOD_REG = UART_READER_HD_RXBITCTR_INIT;
 1471              		.loc 1 1620 0
 1472 0016 024B     		ldr	r3, .L110
 1473 0018 7222     		movs	r2, #114
 1474 001a 1A70     		strb	r2, [r3]
1621:.\Generated_Source\PSoC5/UART_READER.c **** 
1622:.\Generated_Source\PSoC5/UART_READER.c ****     #if (UART_READER_RX_INTERRUPT_ENABLED)
1623:.\Generated_Source\PSoC5/UART_READER.c ****         /* Enable RX interrupt after set RX configuration */
1624:.\Generated_Source\PSoC5/UART_READER.c ****         UART_READER_SetRxInterruptMode(UART_READER_INIT_RX_INTERRUPTS_MASK);
1625:.\Generated_Source\PSoC5/UART_READER.c ****     #endif /* (UART_READER_RX_INTERRUPT_ENABLED) */
1626:.\Generated_Source\PSoC5/UART_READER.c ****     }
 1475              		.loc 1 1626 0
 1476 001c 80BD     		pop	{r7, pc}
 1477              	.L111:
 1478 001e 00BF     		.align	2
 1479              	.L110:
 1480 0020 84640040 		.word	1073767556
 1481              		.cfi_endproc
 1482              	.LFE27:
 1483              		.size	UART_READER_LoadRxConfig, .-UART_READER_LoadRxConfig
 1484              		.section	.text.UART_READER_LoadTxConfig,"ax",%progbits
 1485              		.align	2
 1486              		.global	UART_READER_LoadTxConfig
 1487              		.thumb
 1488              		.thumb_func
 1489              		.type	UART_READER_LoadTxConfig, %function
 1490              	UART_READER_LoadTxConfig:
 1491              	.LFB28:
1627:.\Generated_Source\PSoC5/UART_READER.c **** 
1628:.\Generated_Source\PSoC5/UART_READER.c **** 
1629:.\Generated_Source\PSoC5/UART_READER.c ****     /*******************************************************************************
1630:.\Generated_Source\PSoC5/UART_READER.c ****     * Function Name: UART_READER_LoadTxConfig
1631:.\Generated_Source\PSoC5/UART_READER.c ****     ********************************************************************************
1632:.\Generated_Source\PSoC5/UART_READER.c ****     *
1633:.\Generated_Source\PSoC5/UART_READER.c ****     * Summary:
1634:.\Generated_Source\PSoC5/UART_READER.c ****     *  Loads the transmitter configuration in half duplex mode. After calling this
1635:.\Generated_Source\PSoC5/UART_READER.c ****     *  function, the UART is ready to transmit data.
1636:.\Generated_Source\PSoC5/UART_READER.c ****     *
1637:.\Generated_Source\PSoC5/UART_READER.c ****     * Parameters:
1638:.\Generated_Source\PSoC5/UART_READER.c ****     *  None.
1639:.\Generated_Source\PSoC5/UART_READER.c ****     *
1640:.\Generated_Source\PSoC5/UART_READER.c ****     * Return:
1641:.\Generated_Source\PSoC5/UART_READER.c ****     *  None.
ARM GAS  C:\Users\yqh\AppData\Local\Temp\ccpJxCTG.s 			page 56


1642:.\Generated_Source\PSoC5/UART_READER.c ****     *
1643:.\Generated_Source\PSoC5/UART_READER.c ****     * Side Effects:
1644:.\Generated_Source\PSoC5/UART_READER.c ****     *  Valid only in half duplex mode. You must make sure that the previous
1645:.\Generated_Source\PSoC5/UART_READER.c ****     *  transaction is complete and it is safe to unload the receiver configuration.
1646:.\Generated_Source\PSoC5/UART_READER.c ****     *
1647:.\Generated_Source\PSoC5/UART_READER.c ****     *******************************************************************************/
1648:.\Generated_Source\PSoC5/UART_READER.c ****     void UART_READER_LoadTxConfig(void) 
1649:.\Generated_Source\PSoC5/UART_READER.c ****     {
 1492              		.loc 1 1649 0
 1493              		.cfi_startproc
 1494              		@ args = 0, pretend = 0, frame = 0
 1495              		@ frame_needed = 1, uses_anonymous_args = 0
 1496 0000 80B5     		push	{r7, lr}
 1497              		.cfi_def_cfa_offset 8
 1498              		.cfi_offset 7, -8
 1499              		.cfi_offset 14, -4
 1500 0002 00AF     		add	r7, sp, #0
 1501              		.cfi_def_cfa_register 7
1650:.\Generated_Source\PSoC5/UART_READER.c ****     #if (UART_READER_RX_INTERRUPT_ENABLED)
1651:.\Generated_Source\PSoC5/UART_READER.c ****         /* Disable RX interrupts before set TX configuration */
1652:.\Generated_Source\PSoC5/UART_READER.c ****         UART_READER_SetRxInterruptMode(0u);
1653:.\Generated_Source\PSoC5/UART_READER.c ****     #endif /* (UART_READER_RX_INTERRUPT_ENABLED) */
1654:.\Generated_Source\PSoC5/UART_READER.c **** 
1655:.\Generated_Source\PSoC5/UART_READER.c ****         UART_READER_WriteControlRegister(UART_READER_ReadControlRegister() | UART_READER_CTRL_HD_SE
 1502              		.loc 1 1655 0
 1503 0004 FFF7FEFF 		bl	UART_READER_ReadControlRegister
 1504 0008 0346     		mov	r3, r0
 1505 000a 43F00103 		orr	r3, r3, #1
 1506 000e DBB2     		uxtb	r3, r3
 1507 0010 1846     		mov	r0, r3
 1508 0012 FFF7FEFF 		bl	UART_READER_WriteControlRegister
1656:.\Generated_Source\PSoC5/UART_READER.c ****         UART_READER_RXBITCTR_PERIOD_REG = UART_READER_HD_TXBITCTR_INIT;
 1509              		.loc 1 1656 0
 1510 0016 024B     		ldr	r3, .L113
 1511 0018 6F22     		movs	r2, #111
 1512 001a 1A70     		strb	r2, [r3]
1657:.\Generated_Source\PSoC5/UART_READER.c ****     }
 1513              		.loc 1 1657 0
 1514 001c 80BD     		pop	{r7, pc}
 1515              	.L114:
 1516 001e 00BF     		.align	2
 1517              	.L113:
 1518 0020 84640040 		.word	1073767556
 1519              		.cfi_endproc
 1520              	.LFE28:
 1521              		.size	UART_READER_LoadTxConfig, .-UART_READER_LoadTxConfig
 1522              		.text
 1523              	.Letext0:
 1524              		.file 2 ".\\Generated_Source\\PSoC5\\cytypes.h"