ARM GAS  C:\Users\yqh\AppData\Local\Temp\ccpJxCTG.s 			page 1


   1              		.syntax unified
   2              		.cpu cortex-m3
   3              		.fpu softvfp
   4              		.eabi_attribute 20, 1
   5              		.eabi_attribute 21, 1
   6              		.eabi_attribute 23, 3
   7              		.eabi_attribute 24, 1
   8              		.eabi_attribute 25, 1
   9              		.eabi_attribute 26, 1
  10              		.eabi_attribute 30, 6
  11              		.eabi_attribute 34, 1
  12              		.eabi_attribute 18, 4
  13              		.thumb
  14              		.file	"UART_READER.c"
  15              		.text
  16              	.Ltext0:
  17              		.cfi_sections	.debug_frame
  18              		.global	UART_READER_initVar
  19              		.bss
  20              		.type	UART_READER_initVar, %object
  21              		.size	UART_READER_initVar, 1
  22              	UART_READER_initVar:
  23 0000 00       		.space	1
  24              		.section	.text.UART_READER_Start,"ax",%progbits
  25              		.align	2
  26              		.global	UART_READER_Start
  27              		.thumb
  28              		.thumb_func
  29              		.type	UART_READER_Start, %function
  30              	UART_READER_Start:
  31              	.LFB0:
  32              		.file 1 ".\\Generated_Source\\PSoC5\\UART_READER.c"
   1:.\Generated_Source\PSoC5/UART_READER.c **** /*******************************************************************************
   2:.\Generated_Source\PSoC5/UART_READER.c **** * File Name: UART_READER.c
   3:.\Generated_Source\PSoC5/UART_READER.c **** * Version 2.50
   4:.\Generated_Source\PSoC5/UART_READER.c **** *
   5:.\Generated_Source\PSoC5/UART_READER.c **** * Description:
   6:.\Generated_Source\PSoC5/UART_READER.c **** *  This file provides all API functionality of the UART component
   7:.\Generated_Source\PSoC5/UART_READER.c **** *
   8:.\Generated_Source\PSoC5/UART_READER.c **** * Note:
   9:.\Generated_Source\PSoC5/UART_READER.c **** *
  10:.\Generated_Source\PSoC5/UART_READER.c **** ********************************************************************************
  11:.\Generated_Source\PSoC5/UART_READER.c **** * Copyright 2008-2015, Cypress Semiconductor Corporation.  All rights reserved.
  12:.\Generated_Source\PSoC5/UART_READER.c **** * You may use this file only in accordance with the license, terms, conditions,
  13:.\Generated_Source\PSoC5/UART_READER.c **** * disclaimers, and limitations in the end user license agreement accompanying
  14:.\Generated_Source\PSoC5/UART_READER.c **** * the software package with which this file was provided.
  15:.\Generated_Source\PSoC5/UART_READER.c **** *******************************************************************************/
  16:.\Generated_Source\PSoC5/UART_READER.c **** 
  17:.\Generated_Source\PSoC5/UART_READER.c **** #include "UART_READER.h"
  18:.\Generated_Source\PSoC5/UART_READER.c **** #if (UART_READER_INTERNAL_CLOCK_USED)
  19:.\Generated_Source\PSoC5/UART_READER.c ****     #include "UART_READER_IntClock.h"
  20:.\Generated_Source\PSoC5/UART_READER.c **** #endif /* End UART_READER_INTERNAL_CLOCK_USED */
  21:.\Generated_Source\PSoC5/UART_READER.c **** 
  22:.\Generated_Source\PSoC5/UART_READER.c **** 
  23:.\Generated_Source\PSoC5/UART_READER.c **** /***************************************
  24:.\Generated_Source\PSoC5/UART_READER.c **** * Global data allocation
  25:.\Generated_Source\PSoC5/UART_READER.c **** ***************************************/
ARM GAS  C:\Users\yqh\AppData\Local\Temp\ccpJxCTG.s 			page 2


  26:.\Generated_Source\PSoC5/UART_READER.c **** 
  27:.\Generated_Source\PSoC5/UART_READER.c **** uint8 UART_READER_initVar = 0u;
  28:.\Generated_Source\PSoC5/UART_READER.c **** 
  29:.\Generated_Source\PSoC5/UART_READER.c **** #if (UART_READER_TX_INTERRUPT_ENABLED && UART_READER_TX_ENABLED)
  30:.\Generated_Source\PSoC5/UART_READER.c ****     volatile uint8 UART_READER_txBuffer[UART_READER_TX_BUFFER_SIZE];
  31:.\Generated_Source\PSoC5/UART_READER.c ****     volatile uint8 UART_READER_txBufferRead = 0u;
  32:.\Generated_Source\PSoC5/UART_READER.c ****     uint8 UART_READER_txBufferWrite = 0u;
  33:.\Generated_Source\PSoC5/UART_READER.c **** #endif /* (UART_READER_TX_INTERRUPT_ENABLED && UART_READER_TX_ENABLED) */
  34:.\Generated_Source\PSoC5/UART_READER.c **** 
  35:.\Generated_Source\PSoC5/UART_READER.c **** #if (UART_READER_RX_INTERRUPT_ENABLED && (UART_READER_RX_ENABLED || UART_READER_HD_ENABLED))
  36:.\Generated_Source\PSoC5/UART_READER.c ****     uint8 UART_READER_errorStatus = 0u;
  37:.\Generated_Source\PSoC5/UART_READER.c ****     volatile uint8 UART_READER_rxBuffer[UART_READER_RX_BUFFER_SIZE];
  38:.\Generated_Source\PSoC5/UART_READER.c ****     volatile uint8 UART_READER_rxBufferRead  = 0u;
  39:.\Generated_Source\PSoC5/UART_READER.c ****     volatile uint8 UART_READER_rxBufferWrite = 0u;
  40:.\Generated_Source\PSoC5/UART_READER.c ****     volatile uint8 UART_READER_rxBufferLoopDetect = 0u;
  41:.\Generated_Source\PSoC5/UART_READER.c ****     volatile uint8 UART_READER_rxBufferOverflow   = 0u;
  42:.\Generated_Source\PSoC5/UART_READER.c ****     #if (UART_READER_RXHW_ADDRESS_ENABLED)
  43:.\Generated_Source\PSoC5/UART_READER.c ****         volatile uint8 UART_READER_rxAddressMode = UART_READER_RX_ADDRESS_MODE;
  44:.\Generated_Source\PSoC5/UART_READER.c ****         volatile uint8 UART_READER_rxAddressDetected = 0u;
  45:.\Generated_Source\PSoC5/UART_READER.c ****     #endif /* (UART_READER_RXHW_ADDRESS_ENABLED) */
  46:.\Generated_Source\PSoC5/UART_READER.c **** #endif /* (UART_READER_RX_INTERRUPT_ENABLED && (UART_READER_RX_ENABLED || UART_READER_HD_ENABLED)) 
  47:.\Generated_Source\PSoC5/UART_READER.c **** 
  48:.\Generated_Source\PSoC5/UART_READER.c **** 
  49:.\Generated_Source\PSoC5/UART_READER.c **** /*******************************************************************************
  50:.\Generated_Source\PSoC5/UART_READER.c **** * Function Name: UART_READER_Start
  51:.\Generated_Source\PSoC5/UART_READER.c **** ********************************************************************************
  52:.\Generated_Source\PSoC5/UART_READER.c **** *
  53:.\Generated_Source\PSoC5/UART_READER.c **** * Summary:
  54:.\Generated_Source\PSoC5/UART_READER.c **** *  This is the preferred method to begin component operation.
  55:.\Generated_Source\PSoC5/UART_READER.c **** *  UART_READER_Start() sets the initVar variable, calls the
  56:.\Generated_Source\PSoC5/UART_READER.c **** *  UART_READER_Init() function, and then calls the
  57:.\Generated_Source\PSoC5/UART_READER.c **** *  UART_READER_Enable() function.
  58:.\Generated_Source\PSoC5/UART_READER.c **** *
  59:.\Generated_Source\PSoC5/UART_READER.c **** * Parameters:
  60:.\Generated_Source\PSoC5/UART_READER.c **** *  None.
  61:.\Generated_Source\PSoC5/UART_READER.c **** *
  62:.\Generated_Source\PSoC5/UART_READER.c **** * Return:
  63:.\Generated_Source\PSoC5/UART_READER.c **** *  None.
  64:.\Generated_Source\PSoC5/UART_READER.c **** *
  65:.\Generated_Source\PSoC5/UART_READER.c **** * Global variables:
  66:.\Generated_Source\PSoC5/UART_READER.c **** *  The UART_READER_intiVar variable is used to indicate initial
  67:.\Generated_Source\PSoC5/UART_READER.c **** *  configuration of this component. The variable is initialized to zero (0u)
  68:.\Generated_Source\PSoC5/UART_READER.c **** *  and set to one (1u) the first time UART_READER_Start() is called. This
  69:.\Generated_Source\PSoC5/UART_READER.c **** *  allows for component initialization without re-initialization in all
  70:.\Generated_Source\PSoC5/UART_READER.c **** *  subsequent calls to the UART_READER_Start() routine.
  71:.\Generated_Source\PSoC5/UART_READER.c **** *
  72:.\Generated_Source\PSoC5/UART_READER.c **** * Reentrant:
  73:.\Generated_Source\PSoC5/UART_READER.c **** *  No.
  74:.\Generated_Source\PSoC5/UART_READER.c **** *
  75:.\Generated_Source\PSoC5/UART_READER.c **** *******************************************************************************/
  76:.\Generated_Source\PSoC5/UART_READER.c **** void UART_READER_Start(void) 
  77:.\Generated_Source\PSoC5/UART_READER.c **** {
  33              		.loc 1 77 0
  34              		.cfi_startproc
  35              		@ args = 0, pretend = 0, frame = 0
  36              		@ frame_needed = 1, uses_anonymous_args = 0
  37 0000 80B5     		push	{r7, lr}
ARM GAS  C:\Users\yqh\AppData\Local\Temp\ccpJxCTG.s 			page 3


  38              		.cfi_def_cfa_offset 8
  39              		.cfi_offset 7, -8
  40              		.cfi_offset 14, -4
  41 0002 00AF     		add	r7, sp, #0
  42              		.cfi_def_cfa_register 7
  78:.\Generated_Source\PSoC5/UART_READER.c ****     /* If not initialized then initialize all required hardware and software */
  79:.\Generated_Source\PSoC5/UART_READER.c ****     if(UART_READER_initVar == 0u)
  43              		.loc 1 79 0
  44 0004 054B     		ldr	r3, .L3
  45 0006 1B78     		ldrb	r3, [r3]	@ zero_extendqisi2
  46 0008 002B     		cmp	r3, #0
  47 000a 04D1     		bne	.L2
  80:.\Generated_Source\PSoC5/UART_READER.c ****     {
  81:.\Generated_Source\PSoC5/UART_READER.c ****         UART_READER_Init();
  48              		.loc 1 81 0
  49 000c FFF7FEFF 		bl	UART_READER_Init
  82:.\Generated_Source\PSoC5/UART_READER.c ****         UART_READER_initVar = 1u;
  50              		.loc 1 82 0
  51 0010 024B     		ldr	r3, .L3
  52 0012 0122     		movs	r2, #1
  53 0014 1A70     		strb	r2, [r3]
  54              	.L2:
  83:.\Generated_Source\PSoC5/UART_READER.c ****     }
  84:.\Generated_Source\PSoC5/UART_READER.c **** 
  85:.\Generated_Source\PSoC5/UART_READER.c ****     UART_READER_Enable();
  55              		.loc 1 85 0
  56 0016 FFF7FEFF 		bl	UART_READER_Enable
  86:.\Generated_Source\PSoC5/UART_READER.c **** }
  57              		.loc 1 86 0
  58 001a 80BD     		pop	{r7, pc}
  59              	.L4:
  60              		.align	2
  61              	.L3:
  62 001c 00000000 		.word	UART_READER_initVar
  63              		.cfi_endproc
  64              	.LFE0:
  65              		.size	UART_READER_Start, .-UART_READER_Start
  66              		.section	.text.UART_READER_Init,"ax",%progbits
  67              		.align	2
  68              		.global	UART_READER_Init
  69              		.thumb
  70              		.thumb_func
  71              		.type	UART_READER_Init, %function
  72              	UART_READER_Init:
  73              	.LFB1:
  87:.\Generated_Source\PSoC5/UART_READER.c **** 
  88:.\Generated_Source\PSoC5/UART_READER.c **** 
  89:.\Generated_Source\PSoC5/UART_READER.c **** /*******************************************************************************
  90:.\Generated_Source\PSoC5/UART_READER.c **** * Function Name: UART_READER_Init
  91:.\Generated_Source\PSoC5/UART_READER.c **** ********************************************************************************
  92:.\Generated_Source\PSoC5/UART_READER.c **** *
  93:.\Generated_Source\PSoC5/UART_READER.c **** * Summary:
  94:.\Generated_Source\PSoC5/UART_READER.c **** *  Initializes or restores the component according to the customizer Configure
  95:.\Generated_Source\PSoC5/UART_READER.c **** *  dialog settings. It is not necessary to call UART_READER_Init() because
  96:.\Generated_Source\PSoC5/UART_READER.c **** *  the UART_READER_Start() API calls this function and is the preferred
  97:.\Generated_Source\PSoC5/UART_READER.c **** *  method to begin component operation.
  98:.\Generated_Source\PSoC5/UART_READER.c **** *
ARM GAS  C:\Users\yqh\AppData\Local\Temp\ccpJxCTG.s 			page 4


  99:.\Generated_Source\PSoC5/UART_READER.c **** * Parameters:
 100:.\Generated_Source\PSoC5/UART_READER.c **** *  None.
 101:.\Generated_Source\PSoC5/UART_READER.c **** *
 102:.\Generated_Source\PSoC5/UART_READER.c **** * Return:
 103:.\Generated_Source\PSoC5/UART_READER.c **** *  None.
 104:.\Generated_Source\PSoC5/UART_READER.c **** *
 105:.\Generated_Source\PSoC5/UART_READER.c **** *******************************************************************************/
 106:.\Generated_Source\PSoC5/UART_READER.c **** void UART_READER_Init(void) 
 107:.\Generated_Source\PSoC5/UART_READER.c **** {
  74              		.loc 1 107 0
  75              		.cfi_startproc
  76              		@ args = 0, pretend = 0, frame = 0
  77              		@ frame_needed = 1, uses_anonymous_args = 0
  78              		@ link register save eliminated.
  79 0000 80B4     		push	{r7}
  80              		.cfi_def_cfa_offset 4
  81              		.cfi_offset 7, -4
  82 0002 00AF     		add	r7, sp, #0
  83              		.cfi_def_cfa_register 7
 108:.\Generated_Source\PSoC5/UART_READER.c ****     #if(UART_READER_RX_ENABLED || UART_READER_HD_ENABLED)
 109:.\Generated_Source\PSoC5/UART_READER.c **** 
 110:.\Generated_Source\PSoC5/UART_READER.c ****         #if (UART_READER_RX_INTERRUPT_ENABLED)
 111:.\Generated_Source\PSoC5/UART_READER.c ****             /* Set RX interrupt vector and priority */
 112:.\Generated_Source\PSoC5/UART_READER.c ****             (void) CyIntSetVector(UART_READER_RX_VECT_NUM, &UART_READER_RXISR);
 113:.\Generated_Source\PSoC5/UART_READER.c ****             CyIntSetPriority(UART_READER_RX_VECT_NUM, UART_READER_RX_PRIOR_NUM);
 114:.\Generated_Source\PSoC5/UART_READER.c ****             UART_READER_errorStatus = 0u;
 115:.\Generated_Source\PSoC5/UART_READER.c ****         #endif /* (UART_READER_RX_INTERRUPT_ENABLED) */
 116:.\Generated_Source\PSoC5/UART_READER.c **** 
 117:.\Generated_Source\PSoC5/UART_READER.c ****         #if (UART_READER_RXHW_ADDRESS_ENABLED)
 118:.\Generated_Source\PSoC5/UART_READER.c ****             UART_READER_SetRxAddressMode(UART_READER_RX_ADDRESS_MODE);
 119:.\Generated_Source\PSoC5/UART_READER.c ****             UART_READER_SetRxAddress1(UART_READER_RX_HW_ADDRESS1);
 120:.\Generated_Source\PSoC5/UART_READER.c ****             UART_READER_SetRxAddress2(UART_READER_RX_HW_ADDRESS2);
 121:.\Generated_Source\PSoC5/UART_READER.c ****         #endif /* End UART_READER_RXHW_ADDRESS_ENABLED */
 122:.\Generated_Source\PSoC5/UART_READER.c **** 
 123:.\Generated_Source\PSoC5/UART_READER.c ****         /* Init Count7 period */
 124:.\Generated_Source\PSoC5/UART_READER.c ****         UART_READER_RXBITCTR_PERIOD_REG = UART_READER_RXBITCTR_INIT;
  84              		.loc 1 124 0
  85 0004 044B     		ldr	r3, .L6
  86 0006 7222     		movs	r2, #114
  87 0008 1A70     		strb	r2, [r3]
 125:.\Generated_Source\PSoC5/UART_READER.c ****         /* Configure the Initial RX interrupt mask */
 126:.\Generated_Source\PSoC5/UART_READER.c ****         UART_READER_RXSTATUS_MASK_REG  = UART_READER_INIT_RX_INTERRUPTS_MASK;
  88              		.loc 1 126 0
  89 000a 044B     		ldr	r3, .L6+4
  90 000c 2022     		movs	r2, #32
  91 000e 1A70     		strb	r2, [r3]
 127:.\Generated_Source\PSoC5/UART_READER.c ****     #endif /* End UART_READER_RX_ENABLED || UART_READER_HD_ENABLED*/
 128:.\Generated_Source\PSoC5/UART_READER.c **** 
 129:.\Generated_Source\PSoC5/UART_READER.c ****     #if(UART_READER_TX_ENABLED)
 130:.\Generated_Source\PSoC5/UART_READER.c ****         #if (UART_READER_TX_INTERRUPT_ENABLED)
 131:.\Generated_Source\PSoC5/UART_READER.c ****             /* Set TX interrupt vector and priority */
 132:.\Generated_Source\PSoC5/UART_READER.c ****             (void) CyIntSetVector(UART_READER_TX_VECT_NUM, &UART_READER_TXISR);
 133:.\Generated_Source\PSoC5/UART_READER.c ****             CyIntSetPriority(UART_READER_TX_VECT_NUM, UART_READER_TX_PRIOR_NUM);
 134:.\Generated_Source\PSoC5/UART_READER.c ****         #endif /* (UART_READER_TX_INTERRUPT_ENABLED) */
 135:.\Generated_Source\PSoC5/UART_READER.c **** 
 136:.\Generated_Source\PSoC5/UART_READER.c ****         /* Write Counter Value for TX Bit Clk Generator*/
 137:.\Generated_Source\PSoC5/UART_READER.c ****         #if (UART_READER_TXCLKGEN_DP)
ARM GAS  C:\Users\yqh\AppData\Local\Temp\ccpJxCTG.s 			page 5


 138:.\Generated_Source\PSoC5/UART_READER.c ****             UART_READER_TXBITCLKGEN_CTR_REG = UART_READER_BIT_CENTER;
 139:.\Generated_Source\PSoC5/UART_READER.c ****             UART_READER_TXBITCLKTX_COMPLETE_REG = ((UART_READER_NUMBER_OF_DATA_BITS +
 140:.\Generated_Source\PSoC5/UART_READER.c ****                         UART_READER_NUMBER_OF_START_BIT) * UART_READER_OVER_SAMPLE_COUNT) - 1u;
 141:.\Generated_Source\PSoC5/UART_READER.c ****         #else
 142:.\Generated_Source\PSoC5/UART_READER.c ****             UART_READER_TXBITCTR_PERIOD_REG = ((UART_READER_NUMBER_OF_DATA_BITS +
 143:.\Generated_Source\PSoC5/UART_READER.c ****                         UART_READER_NUMBER_OF_START_BIT) * UART_READER_OVER_SAMPLE_8) - 1u;
 144:.\Generated_Source\PSoC5/UART_READER.c ****         #endif /* End UART_READER_TXCLKGEN_DP */
 145:.\Generated_Source\PSoC5/UART_READER.c **** 
 146:.\Generated_Source\PSoC5/UART_READER.c ****         /* Configure the Initial TX interrupt mask */
 147:.\Generated_Source\PSoC5/UART_READER.c ****         #if (UART_READER_TX_INTERRUPT_ENABLED)
 148:.\Generated_Source\PSoC5/UART_READER.c ****             UART_READER_TXSTATUS_MASK_REG = UART_READER_TX_STS_FIFO_EMPTY;
 149:.\Generated_Source\PSoC5/UART_READER.c ****         #else
 150:.\Generated_Source\PSoC5/UART_READER.c ****             UART_READER_TXSTATUS_MASK_REG = UART_READER_INIT_TX_INTERRUPTS_MASK;
 151:.\Generated_Source\PSoC5/UART_READER.c ****         #endif /*End UART_READER_TX_INTERRUPT_ENABLED*/
 152:.\Generated_Source\PSoC5/UART_READER.c **** 
 153:.\Generated_Source\PSoC5/UART_READER.c ****     #endif /* End UART_READER_TX_ENABLED */
 154:.\Generated_Source\PSoC5/UART_READER.c **** 
 155:.\Generated_Source\PSoC5/UART_READER.c ****     #if(UART_READER_PARITY_TYPE_SW)  /* Write Parity to Control Register */
 156:.\Generated_Source\PSoC5/UART_READER.c ****         UART_READER_WriteControlRegister( \
 157:.\Generated_Source\PSoC5/UART_READER.c ****             (UART_READER_ReadControlRegister() & (uint8)~UART_READER_CTRL_PARITY_TYPE_MASK) | \
 158:.\Generated_Source\PSoC5/UART_READER.c ****             (uint8)(UART_READER_PARITY_TYPE << UART_READER_CTRL_PARITY_TYPE0_SHIFT) );
 159:.\Generated_Source\PSoC5/UART_READER.c ****     #endif /* End UART_READER_PARITY_TYPE_SW */
 160:.\Generated_Source\PSoC5/UART_READER.c **** }
  92              		.loc 1 160 0
  93 0010 BD46     		mov	sp, r7
  94              		.cfi_def_cfa_register 13
  95              		@ sp needed
  96 0012 5DF8047B 		ldr	r7, [sp], #4
  97              		.cfi_restore 7
  98              		.cfi_def_cfa_offset 0
  99 0016 7047     		bx	lr
 100              	.L7:
 101              		.align	2
 102              	.L6:
 103 0018 84640040 		.word	1073767556
 104 001c 88650040 		.word	1073767816
 105              		.cfi_endproc
 106              	.LFE1:
 107              		.size	UART_READER_Init, .-UART_READER_Init
 108              		.section	.text.UART_READER_Enable,"ax",%progbits
 109              		.align	2
 110              		.global	UART_READER_Enable
 111              		.thumb
 112              		.thumb_func
 113              		.type	UART_READER_Enable, %function
 114              	UART_READER_Enable:
 115              	.LFB2:
 161:.\Generated_Source\PSoC5/UART_READER.c **** 
 162:.\Generated_Source\PSoC5/UART_READER.c **** 
 163:.\Generated_Source\PSoC5/UART_READER.c **** /*******************************************************************************
 164:.\Generated_Source\PSoC5/UART_READER.c **** * Function Name: UART_READER_Enable
 165:.\Generated_Source\PSoC5/UART_READER.c **** ********************************************************************************
 166:.\Generated_Source\PSoC5/UART_READER.c **** *
 167:.\Generated_Source\PSoC5/UART_READER.c **** * Summary:
 168:.\Generated_Source\PSoC5/UART_READER.c **** *  Activates the hardware and begins component operation. It is not necessary
 169:.\Generated_Source\PSoC5/UART_READER.c **** *  to call UART_READER_Enable() because the UART_READER_Start() API
 170:.\Generated_Source\PSoC5/UART_READER.c **** *  calls this function, which is the preferred method to begin component
ARM GAS  C:\Users\yqh\AppData\Local\Temp\ccpJxCTG.s 			page 6


 171:.\Generated_Source\PSoC5/UART_READER.c **** *  operation.
 172:.\Generated_Source\PSoC5/UART_READER.c **** 
 173:.\Generated_Source\PSoC5/UART_READER.c **** * Parameters:
 174:.\Generated_Source\PSoC5/UART_READER.c **** *  None.
 175:.\Generated_Source\PSoC5/UART_READER.c **** *
 176:.\Generated_Source\PSoC5/UART_READER.c **** * Return:
 177:.\Generated_Source\PSoC5/UART_READER.c **** *  None.
 178:.\Generated_Source\PSoC5/UART_READER.c **** *
 179:.\Generated_Source\PSoC5/UART_READER.c **** * Global Variables:
 180:.\Generated_Source\PSoC5/UART_READER.c **** *  UART_READER_rxAddressDetected - set to initial state (0).
 181:.\Generated_Source\PSoC5/UART_READER.c **** *
 182:.\Generated_Source\PSoC5/UART_READER.c **** *******************************************************************************/
 183:.\Generated_Source\PSoC5/UART_READER.c **** void UART_READER_Enable(void) 
 184:.\Generated_Source\PSoC5/UART_READER.c **** {
 116              		.loc 1 184 0
 117              		.cfi_startproc
 118              		@ args = 0, pretend = 0, frame = 8
 119              		@ frame_needed = 1, uses_anonymous_args = 0
 120 0000 80B5     		push	{r7, lr}
 121              		.cfi_def_cfa_offset 8
 122              		.cfi_offset 7, -8
 123              		.cfi_offset 14, -4
 124 0002 82B0     		sub	sp, sp, #8
 125              		.cfi_def_cfa_offset 16
 126 0004 00AF     		add	r7, sp, #0
 127              		.cfi_def_cfa_register 7
 185:.\Generated_Source\PSoC5/UART_READER.c ****     uint8 enableInterrupts;
 186:.\Generated_Source\PSoC5/UART_READER.c ****     enableInterrupts = CyEnterCriticalSection();
 128              		.loc 1 186 0
 129 0006 FFF7FEFF 		bl	CyEnterCriticalSection
 130 000a 0346     		mov	r3, r0
 131 000c FB71     		strb	r3, [r7, #7]
 187:.\Generated_Source\PSoC5/UART_READER.c **** 
 188:.\Generated_Source\PSoC5/UART_READER.c ****     #if (UART_READER_RX_ENABLED || UART_READER_HD_ENABLED)
 189:.\Generated_Source\PSoC5/UART_READER.c ****         /* RX Counter (Count7) Enable */
 190:.\Generated_Source\PSoC5/UART_READER.c ****         UART_READER_RXBITCTR_CONTROL_REG |= UART_READER_CNTR_ENABLE;
 132              		.loc 1 190 0
 133 000e 0B4A     		ldr	r2, .L9
 134 0010 0A4B     		ldr	r3, .L9
 135 0012 1B78     		ldrb	r3, [r3]
 136 0014 DBB2     		uxtb	r3, r3
 137 0016 43F02003 		orr	r3, r3, #32
 138 001a DBB2     		uxtb	r3, r3
 139 001c 1370     		strb	r3, [r2]
 191:.\Generated_Source\PSoC5/UART_READER.c **** 
 192:.\Generated_Source\PSoC5/UART_READER.c ****         /* Enable the RX Interrupt */
 193:.\Generated_Source\PSoC5/UART_READER.c ****         UART_READER_RXSTATUS_ACTL_REG  |= UART_READER_INT_ENABLE;
 140              		.loc 1 193 0
 141 001e 084A     		ldr	r2, .L9+4
 142 0020 074B     		ldr	r3, .L9+4
 143 0022 1B78     		ldrb	r3, [r3]
 144 0024 DBB2     		uxtb	r3, r3
 145 0026 43F01003 		orr	r3, r3, #16
 146 002a DBB2     		uxtb	r3, r3
 147 002c 1370     		strb	r3, [r2]
 194:.\Generated_Source\PSoC5/UART_READER.c **** 
 195:.\Generated_Source\PSoC5/UART_READER.c ****         #if (UART_READER_RX_INTERRUPT_ENABLED)
ARM GAS  C:\Users\yqh\AppData\Local\Temp\ccpJxCTG.s 			page 7


 196:.\Generated_Source\PSoC5/UART_READER.c ****             UART_READER_EnableRxInt();
 197:.\Generated_Source\PSoC5/UART_READER.c **** 
 198:.\Generated_Source\PSoC5/UART_READER.c ****             #if (UART_READER_RXHW_ADDRESS_ENABLED)
 199:.\Generated_Source\PSoC5/UART_READER.c ****                 UART_READER_rxAddressDetected = 0u;
 200:.\Generated_Source\PSoC5/UART_READER.c ****             #endif /* (UART_READER_RXHW_ADDRESS_ENABLED) */
 201:.\Generated_Source\PSoC5/UART_READER.c ****         #endif /* (UART_READER_RX_INTERRUPT_ENABLED) */
 202:.\Generated_Source\PSoC5/UART_READER.c ****     #endif /* (UART_READER_RX_ENABLED || UART_READER_HD_ENABLED) */
 203:.\Generated_Source\PSoC5/UART_READER.c **** 
 204:.\Generated_Source\PSoC5/UART_READER.c ****     #if(UART_READER_TX_ENABLED)
 205:.\Generated_Source\PSoC5/UART_READER.c ****         /* TX Counter (DP/Count7) Enable */
 206:.\Generated_Source\PSoC5/UART_READER.c ****         #if(!UART_READER_TXCLKGEN_DP)
 207:.\Generated_Source\PSoC5/UART_READER.c ****             UART_READER_TXBITCTR_CONTROL_REG |= UART_READER_CNTR_ENABLE;
 208:.\Generated_Source\PSoC5/UART_READER.c ****         #endif /* End UART_READER_TXCLKGEN_DP */
 209:.\Generated_Source\PSoC5/UART_READER.c **** 
 210:.\Generated_Source\PSoC5/UART_READER.c ****         /* Enable the TX Interrupt */
 211:.\Generated_Source\PSoC5/UART_READER.c ****         UART_READER_TXSTATUS_ACTL_REG |= UART_READER_INT_ENABLE;
 212:.\Generated_Source\PSoC5/UART_READER.c ****         #if (UART_READER_TX_INTERRUPT_ENABLED)
 213:.\Generated_Source\PSoC5/UART_READER.c ****             UART_READER_ClearPendingTxInt(); /* Clear history of TX_NOT_EMPTY */
 214:.\Generated_Source\PSoC5/UART_READER.c ****             UART_READER_EnableTxInt();
 215:.\Generated_Source\PSoC5/UART_READER.c ****         #endif /* (UART_READER_TX_INTERRUPT_ENABLED) */
 216:.\Generated_Source\PSoC5/UART_READER.c ****      #endif /* (UART_READER_TX_INTERRUPT_ENABLED) */
 217:.\Generated_Source\PSoC5/UART_READER.c **** 
 218:.\Generated_Source\PSoC5/UART_READER.c ****     #if (UART_READER_INTERNAL_CLOCK_USED)
 219:.\Generated_Source\PSoC5/UART_READER.c ****         UART_READER_IntClock_Start();  /* Enable the clock */
 220:.\Generated_Source\PSoC5/UART_READER.c ****     #endif /* (UART_READER_INTERNAL_CLOCK_USED) */
 221:.\Generated_Source\PSoC5/UART_READER.c **** 
 222:.\Generated_Source\PSoC5/UART_READER.c ****     CyExitCriticalSection(enableInterrupts);
 148              		.loc 1 222 0
 149 002e FB79     		ldrb	r3, [r7, #7]	@ zero_extendqisi2
 150 0030 1846     		mov	r0, r3
 151 0032 FFF7FEFF 		bl	CyExitCriticalSection
 223:.\Generated_Source\PSoC5/UART_READER.c **** }
 152              		.loc 1 223 0
 153 0036 0837     		adds	r7, r7, #8
 154              		.cfi_def_cfa_offset 8
 155 0038 BD46     		mov	sp, r7
 156              		.cfi_def_cfa_register 13
 157              		@ sp needed
 158 003a 80BD     		pop	{r7, pc}
 159              	.L10:
 160              		.align	2
 161              	.L9:
 162 003c 94640040 		.word	1073767572
 163 0040 98650040 		.word	1073767832
 164              		.cfi_endproc
 165              	.LFE2:
 166              		.size	UART_READER_Enable, .-UART_READER_Enable
 167              		.section	.text.UART_READER_Stop,"ax",%progbits
 168              		.align	2
 169              		.global	UART_READER_Stop
 170              		.thumb
 171              		.thumb_func
 172              		.type	UART_READER_Stop, %function
 173              	UART_READER_Stop:
 174              	.LFB3:
 224:.\Generated_Source\PSoC5/UART_READER.c **** 
 225:.\Generated_Source\PSoC5/UART_READER.c **** 
ARM GAS  C:\Users\yqh\AppData\Local\Temp\ccpJxCTG.s 			page 8


 226:.\Generated_Source\PSoC5/UART_READER.c **** /*******************************************************************************
 227:.\Generated_Source\PSoC5/UART_READER.c **** * Function Name: UART_READER_Stop
 228:.\Generated_Source\PSoC5/UART_READER.c **** ********************************************************************************
 229:.\Generated_Source\PSoC5/UART_READER.c **** *
 230:.\Generated_Source\PSoC5/UART_READER.c **** * Summary:
 231:.\Generated_Source\PSoC5/UART_READER.c **** *  Disables the UART operation.
 232:.\Generated_Source\PSoC5/UART_READER.c **** *
 233:.\Generated_Source\PSoC5/UART_READER.c **** * Parameters:
 234:.\Generated_Source\PSoC5/UART_READER.c **** *  None.
 235:.\Generated_Source\PSoC5/UART_READER.c **** *
 236:.\Generated_Source\PSoC5/UART_READER.c **** * Return:
 237:.\Generated_Source\PSoC5/UART_READER.c **** *  None.
 238:.\Generated_Source\PSoC5/UART_READER.c **** *
 239:.\Generated_Source\PSoC5/UART_READER.c **** *******************************************************************************/
 240:.\Generated_Source\PSoC5/UART_READER.c **** void UART_READER_Stop(void) 
 241:.\Generated_Source\PSoC5/UART_READER.c **** {
 175              		.loc 1 241 0
 176              		.cfi_startproc
 177              		@ args = 0, pretend = 0, frame = 8
 178              		@ frame_needed = 1, uses_anonymous_args = 0
 179 0000 80B5     		push	{r7, lr}
 180              		.cfi_def_cfa_offset 8
 181              		.cfi_offset 7, -8
 182              		.cfi_offset 14, -4
 183 0002 82B0     		sub	sp, sp, #8
 184              		.cfi_def_cfa_offset 16
 185 0004 00AF     		add	r7, sp, #0
 186              		.cfi_def_cfa_register 7
 242:.\Generated_Source\PSoC5/UART_READER.c ****     uint8 enableInterrupts;
 243:.\Generated_Source\PSoC5/UART_READER.c ****     enableInterrupts = CyEnterCriticalSection();
 187              		.loc 1 243 0
 188 0006 FFF7FEFF 		bl	CyEnterCriticalSection
 189 000a 0346     		mov	r3, r0
 190 000c FB71     		strb	r3, [r7, #7]
 244:.\Generated_Source\PSoC5/UART_READER.c **** 
 245:.\Generated_Source\PSoC5/UART_READER.c ****     /* Write Bit Counter Disable */
 246:.\Generated_Source\PSoC5/UART_READER.c ****     #if (UART_READER_RX_ENABLED || UART_READER_HD_ENABLED)
 247:.\Generated_Source\PSoC5/UART_READER.c ****         UART_READER_RXBITCTR_CONTROL_REG &= (uint8) ~UART_READER_CNTR_ENABLE;
 191              		.loc 1 247 0
 192 000e 0B4A     		ldr	r2, .L12
 193 0010 0A4B     		ldr	r3, .L12
 194 0012 1B78     		ldrb	r3, [r3]
 195 0014 DBB2     		uxtb	r3, r3
 196 0016 23F02003 		bic	r3, r3, #32
 197 001a DBB2     		uxtb	r3, r3
 198 001c 1370     		strb	r3, [r2]
 248:.\Generated_Source\PSoC5/UART_READER.c ****     #endif /* (UART_READER_RX_ENABLED || UART_READER_HD_ENABLED) */
 249:.\Generated_Source\PSoC5/UART_READER.c **** 
 250:.\Generated_Source\PSoC5/UART_READER.c ****     #if (UART_READER_TX_ENABLED)
 251:.\Generated_Source\PSoC5/UART_READER.c ****         #if(!UART_READER_TXCLKGEN_DP)
 252:.\Generated_Source\PSoC5/UART_READER.c ****             UART_READER_TXBITCTR_CONTROL_REG &= (uint8) ~UART_READER_CNTR_ENABLE;
 253:.\Generated_Source\PSoC5/UART_READER.c ****         #endif /* (!UART_READER_TXCLKGEN_DP) */
 254:.\Generated_Source\PSoC5/UART_READER.c ****     #endif /* (UART_READER_TX_ENABLED) */
 255:.\Generated_Source\PSoC5/UART_READER.c **** 
 256:.\Generated_Source\PSoC5/UART_READER.c ****     #if (UART_READER_INTERNAL_CLOCK_USED)
 257:.\Generated_Source\PSoC5/UART_READER.c ****         UART_READER_IntClock_Stop();   /* Disable the clock */
 258:.\Generated_Source\PSoC5/UART_READER.c ****     #endif /* (UART_READER_INTERNAL_CLOCK_USED) */
ARM GAS  C:\Users\yqh\AppData\Local\Temp\ccpJxCTG.s 			page 9


 259:.\Generated_Source\PSoC5/UART_READER.c **** 
 260:.\Generated_Source\PSoC5/UART_READER.c ****     /* Disable internal interrupt component */
 261:.\Generated_Source\PSoC5/UART_READER.c ****     #if (UART_READER_RX_ENABLED || UART_READER_HD_ENABLED)
 262:.\Generated_Source\PSoC5/UART_READER.c ****         UART_READER_RXSTATUS_ACTL_REG  &= (uint8) ~UART_READER_INT_ENABLE;
 199              		.loc 1 262 0
 200 001e 084A     		ldr	r2, .L12+4
 201 0020 074B     		ldr	r3, .L12+4
 202 0022 1B78     		ldrb	r3, [r3]
 203 0024 DBB2     		uxtb	r3, r3
 204 0026 23F01003 		bic	r3, r3, #16
 205 002a DBB2     		uxtb	r3, r3
 206 002c 1370     		strb	r3, [r2]
 263:.\Generated_Source\PSoC5/UART_READER.c **** 
 264:.\Generated_Source\PSoC5/UART_READER.c ****         #if (UART_READER_RX_INTERRUPT_ENABLED)
 265:.\Generated_Source\PSoC5/UART_READER.c ****             UART_READER_DisableRxInt();
 266:.\Generated_Source\PSoC5/UART_READER.c ****         #endif /* (UART_READER_RX_INTERRUPT_ENABLED) */
 267:.\Generated_Source\PSoC5/UART_READER.c ****     #endif /* (UART_READER_RX_ENABLED || UART_READER_HD_ENABLED) */
 268:.\Generated_Source\PSoC5/UART_READER.c **** 
 269:.\Generated_Source\PSoC5/UART_READER.c ****     #if (UART_READER_TX_ENABLED)
 270:.\Generated_Source\PSoC5/UART_READER.c ****         UART_READER_TXSTATUS_ACTL_REG &= (uint8) ~UART_READER_INT_ENABLE;
 271:.\Generated_Source\PSoC5/UART_READER.c **** 
 272:.\Generated_Source\PSoC5/UART_READER.c ****         #if (UART_READER_TX_INTERRUPT_ENABLED)
 273:.\Generated_Source\PSoC5/UART_READER.c ****             UART_READER_DisableTxInt();
 274:.\Generated_Source\PSoC5/UART_READER.c ****         #endif /* (UART_READER_TX_INTERRUPT_ENABLED) */
 275:.\Generated_Source\PSoC5/UART_READER.c ****     #endif /* (UART_READER_TX_ENABLED) */
 276:.\Generated_Source\PSoC5/UART_READER.c **** 
 277:.\Generated_Source\PSoC5/UART_READER.c ****     CyExitCriticalSection(enableInterrupts);
 207              		.loc 1 277 0
 208 002e FB79     		ldrb	r3, [r7, #7]	@ zero_extendqisi2
 209 0030 1846     		mov	r0, r3
 210 0032 FFF7FEFF 		bl	CyExitCriticalSection
 278:.\Generated_Source\PSoC5/UART_READER.c **** }
 211              		.loc 1 278 0
 212 0036 0837     		adds	r7, r7, #8
 213              		.cfi_def_cfa_offset 8
 214 0038 BD46     		mov	sp, r7
 215              		.cfi_def_cfa_register 13
 216              		@ sp needed
 217 003a 80BD     		pop	{r7, pc}
 218              	.L13:
 219              		.align	2
 220              	.L12:
 221 003c 94640040 		.word	1073767572
 222 0040 98650040 		.word	1073767832
 223              		.cfi_endproc
 224              	.LFE3:
 225              		.size	UART_READER_Stop, .-UART_READER_Stop
 226              		.section	.text.UART_READER_ReadControlRegister,"ax",%progbits
 227              		.align	2
 228              		.global	UART_READER_ReadControlRegister
 229              		.thumb
 230              		.thumb_func
 231              		.type	UART_READER_ReadControlRegister, %function
 232              	UART_READER_ReadControlRegister:
 233              	.LFB4:
 279:.\Generated_Source\PSoC5/UART_READER.c **** 
 280:.\Generated_Source\PSoC5/UART_READER.c **** 
ARM GAS  C:\Users\yqh\AppData\Local\Temp\ccpJxCTG.s 			page 10


 281:.\Generated_Source\PSoC5/UART_READER.c **** /*******************************************************************************
 282:.\Generated_Source\PSoC5/UART_READER.c **** * Function Name: UART_READER_ReadControlRegister
 283:.\Generated_Source\PSoC5/UART_READER.c **** ********************************************************************************
 284:.\Generated_Source\PSoC5/UART_READER.c **** *
 285:.\Generated_Source\PSoC5/UART_READER.c **** * Summary:
 286:.\Generated_Source\PSoC5/UART_READER.c **** *  Returns the current value of the control register.
 287:.\Generated_Source\PSoC5/UART_READER.c **** *
 288:.\Generated_Source\PSoC5/UART_READER.c **** * Parameters:
 289:.\Generated_Source\PSoC5/UART_READER.c **** *  None.
 290:.\Generated_Source\PSoC5/UART_READER.c **** *
 291:.\Generated_Source\PSoC5/UART_READER.c **** * Return:
 292:.\Generated_Source\PSoC5/UART_READER.c **** *  Contents of the control register.
 293:.\Generated_Source\PSoC5/UART_READER.c **** *
 294:.\Generated_Source\PSoC5/UART_READER.c **** *******************************************************************************/
 295:.\Generated_Source\PSoC5/UART_READER.c **** uint8 UART_READER_ReadControlRegister(void) 
 296:.\Generated_Source\PSoC5/UART_READER.c **** {
 234              		.loc 1 296 0
 235              		.cfi_startproc
 236              		@ args = 0, pretend = 0, frame = 0
 237              		@ frame_needed = 1, uses_anonymous_args = 0
 238              		@ link register save eliminated.
 239 0000 80B4     		push	{r7}
 240              		.cfi_def_cfa_offset 4
 241              		.cfi_offset 7, -4
 242 0002 00AF     		add	r7, sp, #0
 243              		.cfi_def_cfa_register 7
 297:.\Generated_Source\PSoC5/UART_READER.c ****     #if (UART_READER_CONTROL_REG_REMOVED)
 298:.\Generated_Source\PSoC5/UART_READER.c ****         return(0u);
 299:.\Generated_Source\PSoC5/UART_READER.c ****     #else
 300:.\Generated_Source\PSoC5/UART_READER.c ****         return(UART_READER_CONTROL_REG);
 244              		.loc 1 300 0
 245 0004 034B     		ldr	r3, .L16
 246 0006 1B78     		ldrb	r3, [r3]
 247 0008 DBB2     		uxtb	r3, r3
 301:.\Generated_Source\PSoC5/UART_READER.c ****     #endif /* (UART_READER_CONTROL_REG_REMOVED) */
 302:.\Generated_Source\PSoC5/UART_READER.c **** }
 248              		.loc 1 302 0
 249 000a 1846     		mov	r0, r3
 250 000c BD46     		mov	sp, r7
 251              		.cfi_def_cfa_register 13
 252              		@ sp needed
 253 000e 5DF8047B 		ldr	r7, [sp], #4
 254              		.cfi_restore 7
 255              		.cfi_def_cfa_offset 0
 256 0012 7047     		bx	lr
 257              	.L17:
 258              		.align	2
 259              	.L16:
 260 0014 72640040 		.word	1073767538
 261              		.cfi_endproc
 262              	.LFE4:
 263              		.size	UART_READER_ReadControlRegister, .-UART_READER_ReadControlRegister
 264              		.section	.text.UART_READER_WriteControlRegister,"ax",%progbits
 265              		.align	2
 266              		.global	UART_READER_WriteControlRegister
 267              		.thumb
 268              		.thumb_func
ARM GAS  C:\Users\yqh\AppData\Local\Temp\ccpJxCTG.s 			page 11


 269              		.type	UART_READER_WriteControlRegister, %function
 270              	UART_READER_WriteControlRegister:
 271              	.LFB5:
 303:.\Generated_Source\PSoC5/UART_READER.c **** 
 304:.\Generated_Source\PSoC5/UART_READER.c **** 
 305:.\Generated_Source\PSoC5/UART_READER.c **** /*******************************************************************************
 306:.\Generated_Source\PSoC5/UART_READER.c **** * Function Name: UART_READER_WriteControlRegister
 307:.\Generated_Source\PSoC5/UART_READER.c **** ********************************************************************************
 308:.\Generated_Source\PSoC5/UART_READER.c **** *
 309:.\Generated_Source\PSoC5/UART_READER.c **** * Summary:
 310:.\Generated_Source\PSoC5/UART_READER.c **** *  Writes an 8-bit value into the control register
 311:.\Generated_Source\PSoC5/UART_READER.c **** *
 312:.\Generated_Source\PSoC5/UART_READER.c **** * Parameters:
 313:.\Generated_Source\PSoC5/UART_READER.c **** *  control:  control register value
 314:.\Generated_Source\PSoC5/UART_READER.c **** *
 315:.\Generated_Source\PSoC5/UART_READER.c **** * Return:
 316:.\Generated_Source\PSoC5/UART_READER.c **** *  None.
 317:.\Generated_Source\PSoC5/UART_READER.c **** *
 318:.\Generated_Source\PSoC5/UART_READER.c **** *******************************************************************************/
 319:.\Generated_Source\PSoC5/UART_READER.c **** void  UART_READER_WriteControlRegister(uint8 control) 
 320:.\Generated_Source\PSoC5/UART_READER.c **** {
 272              		.loc 1 320 0
 273              		.cfi_startproc
 274              		@ args = 0, pretend = 0, frame = 8
 275              		@ frame_needed = 1, uses_anonymous_args = 0
 276              		@ link register save eliminated.
 277 0000 80B4     		push	{r7}
 278              		.cfi_def_cfa_offset 4
 279              		.cfi_offset 7, -4
 280 0002 83B0     		sub	sp, sp, #12
 281              		.cfi_def_cfa_offset 16
 282 0004 00AF     		add	r7, sp, #0
 283              		.cfi_def_cfa_register 7
 284 0006 0346     		mov	r3, r0
 285 0008 FB71     		strb	r3, [r7, #7]
 321:.\Generated_Source\PSoC5/UART_READER.c ****     #if (UART_READER_CONTROL_REG_REMOVED)
 322:.\Generated_Source\PSoC5/UART_READER.c ****         if(0u != control)
 323:.\Generated_Source\PSoC5/UART_READER.c ****         {
 324:.\Generated_Source\PSoC5/UART_READER.c ****             /* Suppress compiler warning */
 325:.\Generated_Source\PSoC5/UART_READER.c ****         }
 326:.\Generated_Source\PSoC5/UART_READER.c ****     #else
 327:.\Generated_Source\PSoC5/UART_READER.c ****        UART_READER_CONTROL_REG = control;
 286              		.loc 1 327 0
 287 000a 044A     		ldr	r2, .L19
 288 000c FB79     		ldrb	r3, [r7, #7]
 289 000e 1370     		strb	r3, [r2]
 328:.\Generated_Source\PSoC5/UART_READER.c ****     #endif /* (UART_READER_CONTROL_REG_REMOVED) */
 329:.\Generated_Source\PSoC5/UART_READER.c **** }
 290              		.loc 1 329 0
 291 0010 0C37     		adds	r7, r7, #12
 292              		.cfi_def_cfa_offset 4
 293 0012 BD46     		mov	sp, r7
 294              		.cfi_def_cfa_register 13
 295              		@ sp needed
 296 0014 5DF8047B 		ldr	r7, [sp], #4
 297              		.cfi_restore 7
 298              		.cfi_def_cfa_offset 0
ARM GAS  C:\Users\yqh\AppData\Local\Temp\ccpJxCTG.s 			page 12


 299 0018 7047     		bx	lr
 300              	.L20:
 301 001a 00BF     		.align	2
 302              	.L19:
 303 001c 72640040 		.word	1073767538
 304              		.cfi_endproc
 305              	.LFE5:
 306              		.size	UART_READER_WriteControlRegister, .-UART_READER_WriteControlRegister
 307              		.section	.text.UART_READER_SetRxInterruptMode,"ax",%progbits
 308              		.align	2
 309              		.global	UART_READER_SetRxInterruptMode
 310              		.thumb
 311              		.thumb_func
 312              		.type	UART_READER_SetRxInterruptMode, %function
 313              	UART_READER_SetRxInterruptMode:
 314              	.LFB6:
 330:.\Generated_Source\PSoC5/UART_READER.c **** 
 331:.\Generated_Source\PSoC5/UART_READER.c **** 
 332:.\Generated_Source\PSoC5/UART_READER.c **** #if(UART_READER_RX_ENABLED || UART_READER_HD_ENABLED)
 333:.\Generated_Source\PSoC5/UART_READER.c ****     /*******************************************************************************
 334:.\Generated_Source\PSoC5/UART_READER.c ****     * Function Name: UART_READER_SetRxInterruptMode
 335:.\Generated_Source\PSoC5/UART_READER.c ****     ********************************************************************************
 336:.\Generated_Source\PSoC5/UART_READER.c ****     *
 337:.\Generated_Source\PSoC5/UART_READER.c ****     * Summary:
 338:.\Generated_Source\PSoC5/UART_READER.c ****     *  Configures the RX interrupt sources enabled.
 339:.\Generated_Source\PSoC5/UART_READER.c ****     *
 340:.\Generated_Source\PSoC5/UART_READER.c ****     * Parameters:
 341:.\Generated_Source\PSoC5/UART_READER.c ****     *  IntSrc:  Bit field containing the RX interrupts to enable. Based on the 
 342:.\Generated_Source\PSoC5/UART_READER.c ****     *  bit-field arrangement of the status register. This value must be a 
 343:.\Generated_Source\PSoC5/UART_READER.c ****     *  combination of status register bit-masks shown below:
 344:.\Generated_Source\PSoC5/UART_READER.c ****     *      UART_READER_RX_STS_FIFO_NOTEMPTY    Interrupt on byte received.
 345:.\Generated_Source\PSoC5/UART_READER.c ****     *      UART_READER_RX_STS_PAR_ERROR        Interrupt on parity error.
 346:.\Generated_Source\PSoC5/UART_READER.c ****     *      UART_READER_RX_STS_STOP_ERROR       Interrupt on stop error.
 347:.\Generated_Source\PSoC5/UART_READER.c ****     *      UART_READER_RX_STS_BREAK            Interrupt on break.
 348:.\Generated_Source\PSoC5/UART_READER.c ****     *      UART_READER_RX_STS_OVERRUN          Interrupt on overrun error.
 349:.\Generated_Source\PSoC5/UART_READER.c ****     *      UART_READER_RX_STS_ADDR_MATCH       Interrupt on address match.
 350:.\Generated_Source\PSoC5/UART_READER.c ****     *      UART_READER_RX_STS_MRKSPC           Interrupt on address detect.
 351:.\Generated_Source\PSoC5/UART_READER.c ****     *
 352:.\Generated_Source\PSoC5/UART_READER.c ****     * Return:
 353:.\Generated_Source\PSoC5/UART_READER.c ****     *  None.
 354:.\Generated_Source\PSoC5/UART_READER.c ****     *
 355:.\Generated_Source\PSoC5/UART_READER.c ****     * Theory:
 356:.\Generated_Source\PSoC5/UART_READER.c ****     *  Enables the output of specific status bits to the interrupt controller
 357:.\Generated_Source\PSoC5/UART_READER.c ****     *
 358:.\Generated_Source\PSoC5/UART_READER.c ****     *******************************************************************************/
 359:.\Generated_Source\PSoC5/UART_READER.c ****     void UART_READER_SetRxInterruptMode(uint8 intSrc) 
 360:.\Generated_Source\PSoC5/UART_READER.c ****     {
 315              		.loc 1 360 0
 316              		.cfi_startproc
 317              		@ args = 0, pretend = 0, frame = 8
 318              		@ frame_needed = 1, uses_anonymous_args = 0
 319              		@ link register save eliminated.
 320 0000 80B4     		push	{r7}
 321              		.cfi_def_cfa_offset 4
 322              		.cfi_offset 7, -4
 323 0002 83B0     		sub	sp, sp, #12
 324              		.cfi_def_cfa_offset 16
ARM GAS  C:\Users\yqh\AppData\Local\Temp\ccpJxCTG.s 			page 13


 325 0004 00AF     		add	r7, sp, #0
 326              		.cfi_def_cfa_register 7
 327 0006 0346     		mov	r3, r0
 328 0008 FB71     		strb	r3, [r7, #7]
 361:.\Generated_Source\PSoC5/UART_READER.c ****         UART_READER_RXSTATUS_MASK_REG  = intSrc;
 329              		.loc 1 361 0
 330 000a 044A     		ldr	r2, .L22
 331 000c FB79     		ldrb	r3, [r7, #7]
 332 000e 1370     		strb	r3, [r2]
 362:.\Generated_Source\PSoC5/UART_READER.c ****     }
 333              		.loc 1 362 0
 334 0010 0C37     		adds	r7, r7, #12
 335              		.cfi_def_cfa_offset 4
 336 0012 BD46     		mov	sp, r7
 337              		.cfi_def_cfa_register 13
 338              		@ sp needed
 339 0014 5DF8047B 		ldr	r7, [sp], #4
 340              		.cfi_restore 7
 341              		.cfi_def_cfa_offset 0
 342 0018 7047     		bx	lr
 343              	.L23:
 344 001a 00BF     		.align	2
 345              	.L22:
 346 001c 88650040 		.word	1073767816
 347              		.cfi_endproc
 348              	.LFE6:
 349              		.size	UART_READER_SetRxInterruptMode, .-UART_READER_SetRxInterruptMode
 350              		.section	.text.UART_READER_ReadRxData,"ax",%progbits
 351              		.align	2
 352              		.global	UART_READER_ReadRxData
 353              		.thumb
 354              		.thumb_func
 355              		.type	UART_READER_ReadRxData, %function
 356              	UART_READER_ReadRxData:
 357              	.LFB7:
 363:.\Generated_Source\PSoC5/UART_READER.c **** 
 364:.\Generated_Source\PSoC5/UART_READER.c **** 
 365:.\Generated_Source\PSoC5/UART_READER.c ****     /*******************************************************************************
 366:.\Generated_Source\PSoC5/UART_READER.c ****     * Function Name: UART_READER_ReadRxData
 367:.\Generated_Source\PSoC5/UART_READER.c ****     ********************************************************************************
 368:.\Generated_Source\PSoC5/UART_READER.c ****     *
 369:.\Generated_Source\PSoC5/UART_READER.c ****     * Summary:
 370:.\Generated_Source\PSoC5/UART_READER.c ****     *  Returns the next byte of received data. This function returns data without
 371:.\Generated_Source\PSoC5/UART_READER.c ****     *  checking the status. You must check the status separately.
 372:.\Generated_Source\PSoC5/UART_READER.c ****     *
 373:.\Generated_Source\PSoC5/UART_READER.c ****     * Parameters:
 374:.\Generated_Source\PSoC5/UART_READER.c ****     *  None.
 375:.\Generated_Source\PSoC5/UART_READER.c ****     *
 376:.\Generated_Source\PSoC5/UART_READER.c ****     * Return:
 377:.\Generated_Source\PSoC5/UART_READER.c ****     *  Received data from RX register
 378:.\Generated_Source\PSoC5/UART_READER.c ****     *
 379:.\Generated_Source\PSoC5/UART_READER.c ****     * Global Variables:
 380:.\Generated_Source\PSoC5/UART_READER.c ****     *  UART_READER_rxBuffer - RAM buffer pointer for save received data.
 381:.\Generated_Source\PSoC5/UART_READER.c ****     *  UART_READER_rxBufferWrite - cyclic index for write to rxBuffer,
 382:.\Generated_Source\PSoC5/UART_READER.c ****     *     checked to identify new data.
 383:.\Generated_Source\PSoC5/UART_READER.c ****     *  UART_READER_rxBufferRead - cyclic index for read from rxBuffer,
 384:.\Generated_Source\PSoC5/UART_READER.c ****     *     incremented after each byte has been read from buffer.
ARM GAS  C:\Users\yqh\AppData\Local\Temp\ccpJxCTG.s 			page 14


 385:.\Generated_Source\PSoC5/UART_READER.c ****     *  UART_READER_rxBufferLoopDetect - cleared if loop condition was detected
 386:.\Generated_Source\PSoC5/UART_READER.c ****     *     in RX ISR.
 387:.\Generated_Source\PSoC5/UART_READER.c ****     *
 388:.\Generated_Source\PSoC5/UART_READER.c ****     * Reentrant:
 389:.\Generated_Source\PSoC5/UART_READER.c ****     *  No.
 390:.\Generated_Source\PSoC5/UART_READER.c ****     *
 391:.\Generated_Source\PSoC5/UART_READER.c ****     *******************************************************************************/
 392:.\Generated_Source\PSoC5/UART_READER.c ****     uint8 UART_READER_ReadRxData(void) 
 393:.\Generated_Source\PSoC5/UART_READER.c ****     {
 358              		.loc 1 393 0
 359              		.cfi_startproc
 360              		@ args = 0, pretend = 0, frame = 8
 361              		@ frame_needed = 1, uses_anonymous_args = 0
 362              		@ link register save eliminated.
 363 0000 80B4     		push	{r7}
 364              		.cfi_def_cfa_offset 4
 365              		.cfi_offset 7, -4
 366 0002 83B0     		sub	sp, sp, #12
 367              		.cfi_def_cfa_offset 16
 368 0004 00AF     		add	r7, sp, #0
 369              		.cfi_def_cfa_register 7
 394:.\Generated_Source\PSoC5/UART_READER.c ****         uint8 rxData;
 395:.\Generated_Source\PSoC5/UART_READER.c **** 
 396:.\Generated_Source\PSoC5/UART_READER.c ****     #if (UART_READER_RX_INTERRUPT_ENABLED)
 397:.\Generated_Source\PSoC5/UART_READER.c **** 
 398:.\Generated_Source\PSoC5/UART_READER.c ****         uint8 locRxBufferRead;
 399:.\Generated_Source\PSoC5/UART_READER.c ****         uint8 locRxBufferWrite;
 400:.\Generated_Source\PSoC5/UART_READER.c **** 
 401:.\Generated_Source\PSoC5/UART_READER.c ****         /* Protect variables that could change on interrupt */
 402:.\Generated_Source\PSoC5/UART_READER.c ****         UART_READER_DisableRxInt();
 403:.\Generated_Source\PSoC5/UART_READER.c **** 
 404:.\Generated_Source\PSoC5/UART_READER.c ****         locRxBufferRead  = UART_READER_rxBufferRead;
 405:.\Generated_Source\PSoC5/UART_READER.c ****         locRxBufferWrite = UART_READER_rxBufferWrite;
 406:.\Generated_Source\PSoC5/UART_READER.c **** 
 407:.\Generated_Source\PSoC5/UART_READER.c ****         if( (UART_READER_rxBufferLoopDetect != 0u) || (locRxBufferRead != locRxBufferWrite) )
 408:.\Generated_Source\PSoC5/UART_READER.c ****         {
 409:.\Generated_Source\PSoC5/UART_READER.c ****             rxData = UART_READER_rxBuffer[locRxBufferRead];
 410:.\Generated_Source\PSoC5/UART_READER.c ****             locRxBufferRead++;
 411:.\Generated_Source\PSoC5/UART_READER.c **** 
 412:.\Generated_Source\PSoC5/UART_READER.c ****             if(locRxBufferRead >= UART_READER_RX_BUFFER_SIZE)
 413:.\Generated_Source\PSoC5/UART_READER.c ****             {
 414:.\Generated_Source\PSoC5/UART_READER.c ****                 locRxBufferRead = 0u;
 415:.\Generated_Source\PSoC5/UART_READER.c ****             }
 416:.\Generated_Source\PSoC5/UART_READER.c ****             /* Update the real pointer */
 417:.\Generated_Source\PSoC5/UART_READER.c ****             UART_READER_rxBufferRead = locRxBufferRead;
 418:.\Generated_Source\PSoC5/UART_READER.c **** 
 419:.\Generated_Source\PSoC5/UART_READER.c ****             if(UART_READER_rxBufferLoopDetect != 0u)
 420:.\Generated_Source\PSoC5/UART_READER.c ****             {
 421:.\Generated_Source\PSoC5/UART_READER.c ****                 UART_READER_rxBufferLoopDetect = 0u;
 422:.\Generated_Source\PSoC5/UART_READER.c ****                 #if ((UART_READER_RX_INTERRUPT_ENABLED) && (UART_READER_FLOW_CONTROL != 0u))
 423:.\Generated_Source\PSoC5/UART_READER.c ****                     /* When Hardware Flow Control selected - return RX mask */
 424:.\Generated_Source\PSoC5/UART_READER.c ****                     #if( UART_READER_HD_ENABLED )
 425:.\Generated_Source\PSoC5/UART_READER.c ****                         if((UART_READER_CONTROL_REG & UART_READER_CTRL_HD_SEND) == 0u)
 426:.\Generated_Source\PSoC5/UART_READER.c ****                         {   /* In Half duplex mode return RX mask only in RX
 427:.\Generated_Source\PSoC5/UART_READER.c ****                             *  configuration set, otherwise
 428:.\Generated_Source\PSoC5/UART_READER.c ****                             *  mask will be returned in LoadRxConfig() API.
 429:.\Generated_Source\PSoC5/UART_READER.c ****                             */
ARM GAS  C:\Users\yqh\AppData\Local\Temp\ccpJxCTG.s 			page 15


 430:.\Generated_Source\PSoC5/UART_READER.c ****                             UART_READER_RXSTATUS_MASK_REG  |= UART_READER_RX_STS_FIFO_NOTEMPTY;
 431:.\Generated_Source\PSoC5/UART_READER.c ****                         }
 432:.\Generated_Source\PSoC5/UART_READER.c ****                     #else
 433:.\Generated_Source\PSoC5/UART_READER.c ****                         UART_READER_RXSTATUS_MASK_REG  |= UART_READER_RX_STS_FIFO_NOTEMPTY;
 434:.\Generated_Source\PSoC5/UART_READER.c ****                     #endif /* end UART_READER_HD_ENABLED */
 435:.\Generated_Source\PSoC5/UART_READER.c ****                 #endif /* ((UART_READER_RX_INTERRUPT_ENABLED) && (UART_READER_FLOW_CONTROL != 0u)) 
 436:.\Generated_Source\PSoC5/UART_READER.c ****             }
 437:.\Generated_Source\PSoC5/UART_READER.c ****         }
 438:.\Generated_Source\PSoC5/UART_READER.c ****         else
 439:.\Generated_Source\PSoC5/UART_READER.c ****         {   /* Needs to check status for RX_STS_FIFO_NOTEMPTY bit */
 440:.\Generated_Source\PSoC5/UART_READER.c ****             rxData = UART_READER_RXDATA_REG;
 441:.\Generated_Source\PSoC5/UART_READER.c ****         }
 442:.\Generated_Source\PSoC5/UART_READER.c **** 
 443:.\Generated_Source\PSoC5/UART_READER.c ****         UART_READER_EnableRxInt();
 444:.\Generated_Source\PSoC5/UART_READER.c **** 
 445:.\Generated_Source\PSoC5/UART_READER.c ****     #else
 446:.\Generated_Source\PSoC5/UART_READER.c **** 
 447:.\Generated_Source\PSoC5/UART_READER.c ****         /* Needs to check status for RX_STS_FIFO_NOTEMPTY bit */
 448:.\Generated_Source\PSoC5/UART_READER.c ****         rxData = UART_READER_RXDATA_REG;
 370              		.loc 1 448 0
 371 0006 054B     		ldr	r3, .L26
 372 0008 1B78     		ldrb	r3, [r3]
 373 000a FB71     		strb	r3, [r7, #7]
 449:.\Generated_Source\PSoC5/UART_READER.c **** 
 450:.\Generated_Source\PSoC5/UART_READER.c ****     #endif /* (UART_READER_RX_INTERRUPT_ENABLED) */
 451:.\Generated_Source\PSoC5/UART_READER.c **** 
 452:.\Generated_Source\PSoC5/UART_READER.c ****         return(rxData);
 374              		.loc 1 452 0
 375 000c FB79     		ldrb	r3, [r7, #7]	@ zero_extendqisi2
 453:.\Generated_Source\PSoC5/UART_READER.c ****     }
 376              		.loc 1 453 0
 377 000e 1846     		mov	r0, r3
 378 0010 0C37     		adds	r7, r7, #12
 379              		.cfi_def_cfa_offset 4
 380 0012 BD46     		mov	sp, r7
 381              		.cfi_def_cfa_register 13
 382              		@ sp needed
 383 0014 5DF8047B 		ldr	r7, [sp], #4
 384              		.cfi_restore 7
 385              		.cfi_def_cfa_offset 0
 386 0018 7047     		bx	lr
 387              	.L27:
 388 001a 00BF     		.align	2
 389              	.L26:
 390 001c 48650040 		.word	1073767752
 391              		.cfi_endproc
 392              	.LFE7:
 393              		.size	UART_READER_ReadRxData, .-UART_READER_ReadRxData
 394              		.section	.text.UART_READER_ReadRxStatus,"ax",%progbits
 395              		.align	2
 396              		.global	UART_READER_ReadRxStatus
 397              		.thumb
 398              		.thumb_func
 399              		.type	UART_READER_ReadRxStatus, %function
 400              	UART_READER_ReadRxStatus:
 401              	.LFB8:
 454:.\Generated_Source\PSoC5/UART_READER.c **** 
ARM GAS  C:\Users\yqh\AppData\Local\Temp\ccpJxCTG.s 			page 16


 455:.\Generated_Source\PSoC5/UART_READER.c **** 
 456:.\Generated_Source\PSoC5/UART_READER.c ****     /*******************************************************************************
 457:.\Generated_Source\PSoC5/UART_READER.c ****     * Function Name: UART_READER_ReadRxStatus
 458:.\Generated_Source\PSoC5/UART_READER.c ****     ********************************************************************************
 459:.\Generated_Source\PSoC5/UART_READER.c ****     *
 460:.\Generated_Source\PSoC5/UART_READER.c ****     * Summary:
 461:.\Generated_Source\PSoC5/UART_READER.c ****     *  Returns the current state of the receiver status register and the software
 462:.\Generated_Source\PSoC5/UART_READER.c ****     *  buffer overflow status.
 463:.\Generated_Source\PSoC5/UART_READER.c ****     *
 464:.\Generated_Source\PSoC5/UART_READER.c ****     * Parameters:
 465:.\Generated_Source\PSoC5/UART_READER.c ****     *  None.
 466:.\Generated_Source\PSoC5/UART_READER.c ****     *
 467:.\Generated_Source\PSoC5/UART_READER.c ****     * Return:
 468:.\Generated_Source\PSoC5/UART_READER.c ****     *  Current state of the status register.
 469:.\Generated_Source\PSoC5/UART_READER.c ****     *
 470:.\Generated_Source\PSoC5/UART_READER.c ****     * Side Effect:
 471:.\Generated_Source\PSoC5/UART_READER.c ****     *  All status register bits are clear-on-read except
 472:.\Generated_Source\PSoC5/UART_READER.c ****     *  UART_READER_RX_STS_FIFO_NOTEMPTY.
 473:.\Generated_Source\PSoC5/UART_READER.c ****     *  UART_READER_RX_STS_FIFO_NOTEMPTY clears immediately after RX data
 474:.\Generated_Source\PSoC5/UART_READER.c ****     *  register read.
 475:.\Generated_Source\PSoC5/UART_READER.c ****     *
 476:.\Generated_Source\PSoC5/UART_READER.c ****     * Global Variables:
 477:.\Generated_Source\PSoC5/UART_READER.c ****     *  UART_READER_rxBufferOverflow - used to indicate overload condition.
 478:.\Generated_Source\PSoC5/UART_READER.c ****     *   It set to one in RX interrupt when there isn't free space in
 479:.\Generated_Source\PSoC5/UART_READER.c ****     *   UART_READER_rxBufferRead to write new data. This condition returned
 480:.\Generated_Source\PSoC5/UART_READER.c ****     *   and cleared to zero by this API as an
 481:.\Generated_Source\PSoC5/UART_READER.c ****     *   UART_READER_RX_STS_SOFT_BUFF_OVER bit along with RX Status register
 482:.\Generated_Source\PSoC5/UART_READER.c ****     *   bits.
 483:.\Generated_Source\PSoC5/UART_READER.c ****     *
 484:.\Generated_Source\PSoC5/UART_READER.c ****     *******************************************************************************/
 485:.\Generated_Source\PSoC5/UART_READER.c ****     uint8 UART_READER_ReadRxStatus(void) 
 486:.\Generated_Source\PSoC5/UART_READER.c ****     {
 402              		.loc 1 486 0
 403              		.cfi_startproc
 404              		@ args = 0, pretend = 0, frame = 8
 405              		@ frame_needed = 1, uses_anonymous_args = 0
 406              		@ link register save eliminated.
 407 0000 80B4     		push	{r7}
 408              		.cfi_def_cfa_offset 4
 409              		.cfi_offset 7, -4
 410 0002 83B0     		sub	sp, sp, #12
 411              		.cfi_def_cfa_offset 16
 412 0004 00AF     		add	r7, sp, #0
 413              		.cfi_def_cfa_register 7
 487:.\Generated_Source\PSoC5/UART_READER.c ****         uint8 status;
 488:.\Generated_Source\PSoC5/UART_READER.c **** 
 489:.\Generated_Source\PSoC5/UART_READER.c ****         status = UART_READER_RXSTATUS_REG & UART_READER_RX_HW_MASK;
 414              		.loc 1 489 0
 415 0006 064B     		ldr	r3, .L30
 416 0008 1B78     		ldrb	r3, [r3]
 417 000a DBB2     		uxtb	r3, r3
 418 000c 03F07F03 		and	r3, r3, #127
 419 0010 FB71     		strb	r3, [r7, #7]
 490:.\Generated_Source\PSoC5/UART_READER.c **** 
 491:.\Generated_Source\PSoC5/UART_READER.c ****     #if (UART_READER_RX_INTERRUPT_ENABLED)
 492:.\Generated_Source\PSoC5/UART_READER.c ****         if(UART_READER_rxBufferOverflow != 0u)
 493:.\Generated_Source\PSoC5/UART_READER.c ****         {
ARM GAS  C:\Users\yqh\AppData\Local\Temp\ccpJxCTG.s 			page 17


 494:.\Generated_Source\PSoC5/UART_READER.c ****             status |= UART_READER_RX_STS_SOFT_BUFF_OVER;
 495:.\Generated_Source\PSoC5/UART_READER.c ****             UART_READER_rxBufferOverflow = 0u;
 496:.\Generated_Source\PSoC5/UART_READER.c ****         }
 497:.\Generated_Source\PSoC5/UART_READER.c ****     #endif /* (UART_READER_RX_INTERRUPT_ENABLED) */
 498:.\Generated_Source\PSoC5/UART_READER.c **** 
 499:.\Generated_Source\PSoC5/UART_READER.c ****         return(status);
 420              		.loc 1 499 0
 421 0012 FB79     		ldrb	r3, [r7, #7]	@ zero_extendqisi2
 500:.\Generated_Source\PSoC5/UART_READER.c ****     }
 422              		.loc 1 500 0
 423 0014 1846     		mov	r0, r3
 424 0016 0C37     		adds	r7, r7, #12
 425              		.cfi_def_cfa_offset 4
 426 0018 BD46     		mov	sp, r7
 427              		.cfi_def_cfa_register 13
 428              		@ sp needed
 429 001a 5DF8047B 		ldr	r7, [sp], #4
 430              		.cfi_restore 7
 431              		.cfi_def_cfa_offset 0
 432 001e 7047     		bx	lr
 433              	.L31:
 434              		.align	2
 435              	.L30:
 436 0020 68650040 		.word	1073767784
 437              		.cfi_endproc
 438              	.LFE8:
 439              		.size	UART_READER_ReadRxStatus, .-UART_READER_ReadRxStatus
 440              		.section	.text.UART_READER_GetChar,"ax",%progbits
 441              		.align	2
 442              		.global	UART_READER_GetChar
 443              		.thumb
 444              		.thumb_func
 445              		.type	UART_READER_GetChar, %function
 446              	UART_READER_GetChar:
 447              	.LFB9:
 501:.\Generated_Source\PSoC5/UART_READER.c **** 
 502:.\Generated_Source\PSoC5/UART_READER.c **** 
 503:.\Generated_Source\PSoC5/UART_READER.c ****     /*******************************************************************************
 504:.\Generated_Source\PSoC5/UART_READER.c ****     * Function Name: UART_READER_GetChar
 505:.\Generated_Source\PSoC5/UART_READER.c ****     ********************************************************************************
 506:.\Generated_Source\PSoC5/UART_READER.c ****     *
 507:.\Generated_Source\PSoC5/UART_READER.c ****     * Summary:
 508:.\Generated_Source\PSoC5/UART_READER.c ****     *  Returns the last received byte of data. UART_READER_GetChar() is
 509:.\Generated_Source\PSoC5/UART_READER.c ****     *  designed for ASCII characters and returns a uint8 where 1 to 255 are values
 510:.\Generated_Source\PSoC5/UART_READER.c ****     *  for valid characters and 0 indicates an error occurred or no data is present.
 511:.\Generated_Source\PSoC5/UART_READER.c ****     *
 512:.\Generated_Source\PSoC5/UART_READER.c ****     * Parameters:
 513:.\Generated_Source\PSoC5/UART_READER.c ****     *  None.
 514:.\Generated_Source\PSoC5/UART_READER.c ****     *
 515:.\Generated_Source\PSoC5/UART_READER.c ****     * Return:
 516:.\Generated_Source\PSoC5/UART_READER.c ****     *  Character read from UART RX buffer. ASCII characters from 1 to 255 are valid.
 517:.\Generated_Source\PSoC5/UART_READER.c ****     *  A returned zero signifies an error condition or no data available.
 518:.\Generated_Source\PSoC5/UART_READER.c ****     *
 519:.\Generated_Source\PSoC5/UART_READER.c ****     * Global Variables:
 520:.\Generated_Source\PSoC5/UART_READER.c ****     *  UART_READER_rxBuffer - RAM buffer pointer for save received data.
 521:.\Generated_Source\PSoC5/UART_READER.c ****     *  UART_READER_rxBufferWrite - cyclic index for write to rxBuffer,
 522:.\Generated_Source\PSoC5/UART_READER.c ****     *     checked to identify new data.
ARM GAS  C:\Users\yqh\AppData\Local\Temp\ccpJxCTG.s 			page 18


 523:.\Generated_Source\PSoC5/UART_READER.c ****     *  UART_READER_rxBufferRead - cyclic index for read from rxBuffer,
 524:.\Generated_Source\PSoC5/UART_READER.c ****     *     incremented after each byte has been read from buffer.
 525:.\Generated_Source\PSoC5/UART_READER.c ****     *  UART_READER_rxBufferLoopDetect - cleared if loop condition was detected
 526:.\Generated_Source\PSoC5/UART_READER.c ****     *     in RX ISR.
 527:.\Generated_Source\PSoC5/UART_READER.c ****     *
 528:.\Generated_Source\PSoC5/UART_READER.c ****     * Reentrant:
 529:.\Generated_Source\PSoC5/UART_READER.c ****     *  No.
 530:.\Generated_Source\PSoC5/UART_READER.c ****     *
 531:.\Generated_Source\PSoC5/UART_READER.c ****     *******************************************************************************/
 532:.\Generated_Source\PSoC5/UART_READER.c ****     uint8 UART_READER_GetChar(void) 
 533:.\Generated_Source\PSoC5/UART_READER.c ****     {
 448              		.loc 1 533 0
 449              		.cfi_startproc
 450              		@ args = 0, pretend = 0, frame = 8
 451              		@ frame_needed = 1, uses_anonymous_args = 0
 452              		@ link register save eliminated.
 453 0000 80B4     		push	{r7}
 454              		.cfi_def_cfa_offset 4
 455              		.cfi_offset 7, -4
 456 0002 83B0     		sub	sp, sp, #12
 457              		.cfi_def_cfa_offset 16
 458 0004 00AF     		add	r7, sp, #0
 459              		.cfi_def_cfa_register 7
 534:.\Generated_Source\PSoC5/UART_READER.c ****         uint8 rxData = 0u;
 460              		.loc 1 534 0
 461 0006 0023     		movs	r3, #0
 462 0008 FB71     		strb	r3, [r7, #7]
 535:.\Generated_Source\PSoC5/UART_READER.c ****         uint8 rxStatus;
 536:.\Generated_Source\PSoC5/UART_READER.c **** 
 537:.\Generated_Source\PSoC5/UART_READER.c ****     #if (UART_READER_RX_INTERRUPT_ENABLED)
 538:.\Generated_Source\PSoC5/UART_READER.c ****         uint8 locRxBufferRead;
 539:.\Generated_Source\PSoC5/UART_READER.c ****         uint8 locRxBufferWrite;
 540:.\Generated_Source\PSoC5/UART_READER.c **** 
 541:.\Generated_Source\PSoC5/UART_READER.c ****         /* Protect variables that could change on interrupt */
 542:.\Generated_Source\PSoC5/UART_READER.c ****         UART_READER_DisableRxInt();
 543:.\Generated_Source\PSoC5/UART_READER.c **** 
 544:.\Generated_Source\PSoC5/UART_READER.c ****         locRxBufferRead  = UART_READER_rxBufferRead;
 545:.\Generated_Source\PSoC5/UART_READER.c ****         locRxBufferWrite = UART_READER_rxBufferWrite;
 546:.\Generated_Source\PSoC5/UART_READER.c **** 
 547:.\Generated_Source\PSoC5/UART_READER.c ****         if( (UART_READER_rxBufferLoopDetect != 0u) || (locRxBufferRead != locRxBufferWrite) )
 548:.\Generated_Source\PSoC5/UART_READER.c ****         {
 549:.\Generated_Source\PSoC5/UART_READER.c ****             rxData = UART_READER_rxBuffer[locRxBufferRead];
 550:.\Generated_Source\PSoC5/UART_READER.c ****             locRxBufferRead++;
 551:.\Generated_Source\PSoC5/UART_READER.c ****             if(locRxBufferRead >= UART_READER_RX_BUFFER_SIZE)
 552:.\Generated_Source\PSoC5/UART_READER.c ****             {
 553:.\Generated_Source\PSoC5/UART_READER.c ****                 locRxBufferRead = 0u;
 554:.\Generated_Source\PSoC5/UART_READER.c ****             }
 555:.\Generated_Source\PSoC5/UART_READER.c ****             /* Update the real pointer */
 556:.\Generated_Source\PSoC5/UART_READER.c ****             UART_READER_rxBufferRead = locRxBufferRead;
 557:.\Generated_Source\PSoC5/UART_READER.c **** 
 558:.\Generated_Source\PSoC5/UART_READER.c ****             if(UART_READER_rxBufferLoopDetect != 0u)
 559:.\Generated_Source\PSoC5/UART_READER.c ****             {
 560:.\Generated_Source\PSoC5/UART_READER.c ****                 UART_READER_rxBufferLoopDetect = 0u;
 561:.\Generated_Source\PSoC5/UART_READER.c ****                 #if( (UART_READER_RX_INTERRUPT_ENABLED) && (UART_READER_FLOW_CONTROL != 0u) )
 562:.\Generated_Source\PSoC5/UART_READER.c ****                     /* When Hardware Flow Control selected - return RX mask */
 563:.\Generated_Source\PSoC5/UART_READER.c ****                     #if( UART_READER_HD_ENABLED )
 564:.\Generated_Source\PSoC5/UART_READER.c ****                         if((UART_READER_CONTROL_REG & UART_READER_CTRL_HD_SEND) == 0u)
ARM GAS  C:\Users\yqh\AppData\Local\Temp\ccpJxCTG.s 			page 19


 565:.\Generated_Source\PSoC5/UART_READER.c ****                         {   /* In Half duplex mode return RX mask only if
 566:.\Generated_Source\PSoC5/UART_READER.c ****                             *  RX configuration set, otherwise
 567:.\Generated_Source\PSoC5/UART_READER.c ****                             *  mask will be returned in LoadRxConfig() API.
 568:.\Generated_Source\PSoC5/UART_READER.c ****                             */
 569:.\Generated_Source\PSoC5/UART_READER.c ****                             UART_READER_RXSTATUS_MASK_REG |= UART_READER_RX_STS_FIFO_NOTEMPTY;
 570:.\Generated_Source\PSoC5/UART_READER.c ****                         }
 571:.\Generated_Source\PSoC5/UART_READER.c ****                     #else
 572:.\Generated_Source\PSoC5/UART_READER.c ****                         UART_READER_RXSTATUS_MASK_REG |= UART_READER_RX_STS_FIFO_NOTEMPTY;
 573:.\Generated_Source\PSoC5/UART_READER.c ****                     #endif /* end UART_READER_HD_ENABLED */
 574:.\Generated_Source\PSoC5/UART_READER.c ****                 #endif /* UART_READER_RX_INTERRUPT_ENABLED and Hardware flow control*/
 575:.\Generated_Source\PSoC5/UART_READER.c ****             }
 576:.\Generated_Source\PSoC5/UART_READER.c **** 
 577:.\Generated_Source\PSoC5/UART_READER.c ****         }
 578:.\Generated_Source\PSoC5/UART_READER.c ****         else
 579:.\Generated_Source\PSoC5/UART_READER.c ****         {   rxStatus = UART_READER_RXSTATUS_REG;
 580:.\Generated_Source\PSoC5/UART_READER.c ****             if((rxStatus & UART_READER_RX_STS_FIFO_NOTEMPTY) != 0u)
 581:.\Generated_Source\PSoC5/UART_READER.c ****             {   /* Read received data from FIFO */
 582:.\Generated_Source\PSoC5/UART_READER.c ****                 rxData = UART_READER_RXDATA_REG;
 583:.\Generated_Source\PSoC5/UART_READER.c ****                 /*Check status on error*/
 584:.\Generated_Source\PSoC5/UART_READER.c ****                 if((rxStatus & (UART_READER_RX_STS_BREAK | UART_READER_RX_STS_PAR_ERROR |
 585:.\Generated_Source\PSoC5/UART_READER.c ****                                 UART_READER_RX_STS_STOP_ERROR | UART_READER_RX_STS_OVERRUN)) != 0u)
 586:.\Generated_Source\PSoC5/UART_READER.c ****                 {
 587:.\Generated_Source\PSoC5/UART_READER.c ****                     rxData = 0u;
 588:.\Generated_Source\PSoC5/UART_READER.c ****                 }
 589:.\Generated_Source\PSoC5/UART_READER.c ****             }
 590:.\Generated_Source\PSoC5/UART_READER.c ****         }
 591:.\Generated_Source\PSoC5/UART_READER.c **** 
 592:.\Generated_Source\PSoC5/UART_READER.c ****         UART_READER_EnableRxInt();
 593:.\Generated_Source\PSoC5/UART_READER.c **** 
 594:.\Generated_Source\PSoC5/UART_READER.c ****     #else
 595:.\Generated_Source\PSoC5/UART_READER.c **** 
 596:.\Generated_Source\PSoC5/UART_READER.c ****         rxStatus =UART_READER_RXSTATUS_REG;
 463              		.loc 1 596 0
 464 000a 0C4B     		ldr	r3, .L35
 465 000c 1B78     		ldrb	r3, [r3]
 466 000e BB71     		strb	r3, [r7, #6]
 597:.\Generated_Source\PSoC5/UART_READER.c ****         if((rxStatus & UART_READER_RX_STS_FIFO_NOTEMPTY) != 0u)
 467              		.loc 1 597 0
 468 0010 BB79     		ldrb	r3, [r7, #6]	@ zero_extendqisi2
 469 0012 03F02003 		and	r3, r3, #32
 470 0016 002B     		cmp	r3, #0
 471 0018 09D0     		beq	.L33
 598:.\Generated_Source\PSoC5/UART_READER.c ****         {
 599:.\Generated_Source\PSoC5/UART_READER.c ****             /* Read received data from FIFO */
 600:.\Generated_Source\PSoC5/UART_READER.c ****             rxData = UART_READER_RXDATA_REG;
 472              		.loc 1 600 0
 473 001a 094B     		ldr	r3, .L35+4
 474 001c 1B78     		ldrb	r3, [r3]
 475 001e FB71     		strb	r3, [r7, #7]
 601:.\Generated_Source\PSoC5/UART_READER.c **** 
 602:.\Generated_Source\PSoC5/UART_READER.c ****             /*Check status on error*/
 603:.\Generated_Source\PSoC5/UART_READER.c ****             if((rxStatus & (UART_READER_RX_STS_BREAK | UART_READER_RX_STS_PAR_ERROR |
 604:.\Generated_Source\PSoC5/UART_READER.c ****                             UART_READER_RX_STS_STOP_ERROR | UART_READER_RX_STS_OVERRUN)) != 0u)
 476              		.loc 1 604 0
 477 0020 BB79     		ldrb	r3, [r7, #6]	@ zero_extendqisi2
 478 0022 03F01E03 		and	r3, r3, #30
 603:.\Generated_Source\PSoC5/UART_READER.c ****                             UART_READER_RX_STS_STOP_ERROR | UART_READER_RX_STS_OVERRUN)) != 0u)
ARM GAS  C:\Users\yqh\AppData\Local\Temp\ccpJxCTG.s 			page 20


 479              		.loc 1 603 0
 480 0026 002B     		cmp	r3, #0
 481 0028 01D0     		beq	.L33
 605:.\Generated_Source\PSoC5/UART_READER.c ****             {
 606:.\Generated_Source\PSoC5/UART_READER.c ****                 rxData = 0u;
 482              		.loc 1 606 0
 483 002a 0023     		movs	r3, #0
 484 002c FB71     		strb	r3, [r7, #7]
 485              	.L33:
 607:.\Generated_Source\PSoC5/UART_READER.c ****             }
 608:.\Generated_Source\PSoC5/UART_READER.c ****         }
 609:.\Generated_Source\PSoC5/UART_READER.c ****     #endif /* (UART_READER_RX_INTERRUPT_ENABLED) */
 610:.\Generated_Source\PSoC5/UART_READER.c **** 
 611:.\Generated_Source\PSoC5/UART_READER.c ****         return(rxData);
 486              		.loc 1 611 0
 487 002e FB79     		ldrb	r3, [r7, #7]	@ zero_extendqisi2
 612:.\Generated_Source\PSoC5/UART_READER.c ****     }
 488              		.loc 1 612 0
 489 0030 1846     		mov	r0, r3
 490 0032 0C37     		adds	r7, r7, #12
 491              		.cfi_def_cfa_offset 4
 492 0034 BD46     		mov	sp, r7
 493              		.cfi_def_cfa_register 13
 494              		@ sp needed
 495 0036 5DF8047B 		ldr	r7, [sp], #4
 496              		.cfi_restore 7
 497              		.cfi_def_cfa_offset 0
 498 003a 7047     		bx	lr
 499              	.L36:
 500              		.align	2
 501              	.L35:
 502 003c 68650040 		.word	1073767784
 503 0040 48650040 		.word	1073767752
 504              		.cfi_endproc
 505              	.LFE9:
 506              		.size	UART_READER_GetChar, .-UART_READER_GetChar
 507              		.section	.text.UART_READER_GetByte,"ax",%progbits
 508              		.align	2
 509              		.global	UART_READER_GetByte
 510              		.thumb
 511              		.thumb_func
 512              		.type	UART_READER_GetByte, %function
 513              	UART_READER_GetByte:
 514              	.LFB10:
 613:.\Generated_Source\PSoC5/UART_READER.c **** 
 614:.\Generated_Source\PSoC5/UART_READER.c **** 
 615:.\Generated_Source\PSoC5/UART_READER.c ****     /*******************************************************************************
 616:.\Generated_Source\PSoC5/UART_READER.c ****     * Function Name: UART_READER_GetByte
 617:.\Generated_Source\PSoC5/UART_READER.c ****     ********************************************************************************
 618:.\Generated_Source\PSoC5/UART_READER.c ****     *
 619:.\Generated_Source\PSoC5/UART_READER.c ****     * Summary:
 620:.\Generated_Source\PSoC5/UART_READER.c ****     *  Reads UART RX buffer immediately, returns received character and error
 621:.\Generated_Source\PSoC5/UART_READER.c ****     *  condition.
 622:.\Generated_Source\PSoC5/UART_READER.c ****     *
 623:.\Generated_Source\PSoC5/UART_READER.c ****     * Parameters:
 624:.\Generated_Source\PSoC5/UART_READER.c ****     *  None.
 625:.\Generated_Source\PSoC5/UART_READER.c ****     *
ARM GAS  C:\Users\yqh\AppData\Local\Temp\ccpJxCTG.s 			page 21


 626:.\Generated_Source\PSoC5/UART_READER.c ****     * Return:
 627:.\Generated_Source\PSoC5/UART_READER.c ****     *  MSB contains status and LSB contains UART RX data. If the MSB is nonzero,
 628:.\Generated_Source\PSoC5/UART_READER.c ****     *  an error has occurred.
 629:.\Generated_Source\PSoC5/UART_READER.c ****     *
 630:.\Generated_Source\PSoC5/UART_READER.c ****     * Reentrant:
 631:.\Generated_Source\PSoC5/UART_READER.c ****     *  No.
 632:.\Generated_Source\PSoC5/UART_READER.c ****     *
 633:.\Generated_Source\PSoC5/UART_READER.c ****     *******************************************************************************/
 634:.\Generated_Source\PSoC5/UART_READER.c ****     uint16 UART_READER_GetByte(void) 
 635:.\Generated_Source\PSoC5/UART_READER.c ****     {
 515              		.loc 1 635 0
 516              		.cfi_startproc
 517              		@ args = 0, pretend = 0, frame = 0
 518              		@ frame_needed = 1, uses_anonymous_args = 0
 519 0000 98B5     		push	{r3, r4, r7, lr}
 520              		.cfi_def_cfa_offset 16
 521              		.cfi_offset 3, -16
 522              		.cfi_offset 4, -12
 523              		.cfi_offset 7, -8
 524              		.cfi_offset 14, -4
 525 0002 00AF     		add	r7, sp, #0
 526              		.cfi_def_cfa_register 7
 636:.\Generated_Source\PSoC5/UART_READER.c ****         
 637:.\Generated_Source\PSoC5/UART_READER.c ****     #if (UART_READER_RX_INTERRUPT_ENABLED)
 638:.\Generated_Source\PSoC5/UART_READER.c ****         uint16 locErrorStatus;
 639:.\Generated_Source\PSoC5/UART_READER.c ****         /* Protect variables that could change on interrupt */
 640:.\Generated_Source\PSoC5/UART_READER.c ****         UART_READER_DisableRxInt();
 641:.\Generated_Source\PSoC5/UART_READER.c ****         locErrorStatus = (uint16)UART_READER_errorStatus;
 642:.\Generated_Source\PSoC5/UART_READER.c ****         UART_READER_errorStatus = 0u;
 643:.\Generated_Source\PSoC5/UART_READER.c ****         UART_READER_EnableRxInt();
 644:.\Generated_Source\PSoC5/UART_READER.c ****         return ( (uint16)(locErrorStatus << 8u) | UART_READER_ReadRxData() );
 645:.\Generated_Source\PSoC5/UART_READER.c ****     #else
 646:.\Generated_Source\PSoC5/UART_READER.c ****         return ( ((uint16)UART_READER_ReadRxStatus() << 8u) | UART_READER_ReadRxData() );
 527              		.loc 1 646 0
 528 0004 FFF7FEFF 		bl	UART_READER_ReadRxStatus
 529 0008 0346     		mov	r3, r0
 530 000a 1B02     		lsls	r3, r3, #8
 531 000c 9CB2     		uxth	r4, r3
 532 000e FFF7FEFF 		bl	UART_READER_ReadRxData
 533 0012 0346     		mov	r3, r0
 534 0014 9BB2     		uxth	r3, r3
 535 0016 2246     		mov	r2, r4	@ movhi
 536 0018 1343     		orrs	r3, r3, r2
 537 001a 9BB2     		uxth	r3, r3
 538 001c 9BB2     		uxth	r3, r3
 647:.\Generated_Source\PSoC5/UART_READER.c ****     #endif /* UART_READER_RX_INTERRUPT_ENABLED */
 648:.\Generated_Source\PSoC5/UART_READER.c ****         
 649:.\Generated_Source\PSoC5/UART_READER.c ****     }
 539              		.loc 1 649 0
 540 001e 1846     		mov	r0, r3
 541 0020 98BD     		pop	{r3, r4, r7, pc}
 542              		.cfi_endproc
 543              	.LFE10:
 544              		.size	UART_READER_GetByte, .-UART_READER_GetByte
 545 0022 00BF     		.section	.text.UART_READER_GetRxBufferSize,"ax",%progbits
 546              		.align	2
 547              		.global	UART_READER_GetRxBufferSize
ARM GAS  C:\Users\yqh\AppData\Local\Temp\ccpJxCTG.s 			page 22


 548              		.thumb
 549              		.thumb_func
 550              		.type	UART_READER_GetRxBufferSize, %function
 551              	UART_READER_GetRxBufferSize:
 552              	.LFB11:
 650:.\Generated_Source\PSoC5/UART_READER.c **** 
 651:.\Generated_Source\PSoC5/UART_READER.c **** 
 652:.\Generated_Source\PSoC5/UART_READER.c ****     /*******************************************************************************
 653:.\Generated_Source\PSoC5/UART_READER.c ****     * Function Name: UART_READER_GetRxBufferSize
 654:.\Generated_Source\PSoC5/UART_READER.c ****     ********************************************************************************
 655:.\Generated_Source\PSoC5/UART_READER.c ****     *
 656:.\Generated_Source\PSoC5/UART_READER.c ****     * Summary:
 657:.\Generated_Source\PSoC5/UART_READER.c ****     *  Returns the number of received bytes available in the RX buffer.
 658:.\Generated_Source\PSoC5/UART_READER.c ****     *  * RX software buffer is disabled (RX Buffer Size parameter is equal to 4): 
 659:.\Generated_Source\PSoC5/UART_READER.c ****     *    returns 0 for empty RX FIFO or 1 for not empty RX FIFO.
 660:.\Generated_Source\PSoC5/UART_READER.c ****     *  * RX software buffer is enabled: returns the number of bytes available in 
 661:.\Generated_Source\PSoC5/UART_READER.c ****     *    the RX software buffer. Bytes available in the RX FIFO do not take to 
 662:.\Generated_Source\PSoC5/UART_READER.c ****     *    account.
 663:.\Generated_Source\PSoC5/UART_READER.c ****     *
 664:.\Generated_Source\PSoC5/UART_READER.c ****     * Parameters:
 665:.\Generated_Source\PSoC5/UART_READER.c ****     *  None.
 666:.\Generated_Source\PSoC5/UART_READER.c ****     *
 667:.\Generated_Source\PSoC5/UART_READER.c ****     * Return:
 668:.\Generated_Source\PSoC5/UART_READER.c ****     *  uint8: Number of bytes in the RX buffer. 
 669:.\Generated_Source\PSoC5/UART_READER.c ****     *    Return value type depends on RX Buffer Size parameter.
 670:.\Generated_Source\PSoC5/UART_READER.c ****     *
 671:.\Generated_Source\PSoC5/UART_READER.c ****     * Global Variables:
 672:.\Generated_Source\PSoC5/UART_READER.c ****     *  UART_READER_rxBufferWrite - used to calculate left bytes.
 673:.\Generated_Source\PSoC5/UART_READER.c ****     *  UART_READER_rxBufferRead - used to calculate left bytes.
 674:.\Generated_Source\PSoC5/UART_READER.c ****     *  UART_READER_rxBufferLoopDetect - checked to decide left bytes amount.
 675:.\Generated_Source\PSoC5/UART_READER.c ****     *
 676:.\Generated_Source\PSoC5/UART_READER.c ****     * Reentrant:
 677:.\Generated_Source\PSoC5/UART_READER.c ****     *  No.
 678:.\Generated_Source\PSoC5/UART_READER.c ****     *
 679:.\Generated_Source\PSoC5/UART_READER.c ****     * Theory:
 680:.\Generated_Source\PSoC5/UART_READER.c ****     *  Allows the user to find out how full the RX Buffer is.
 681:.\Generated_Source\PSoC5/UART_READER.c ****     *
 682:.\Generated_Source\PSoC5/UART_READER.c ****     *******************************************************************************/
 683:.\Generated_Source\PSoC5/UART_READER.c ****     uint8 UART_READER_GetRxBufferSize(void)
 684:.\Generated_Source\PSoC5/UART_READER.c ****                                                             
 685:.\Generated_Source\PSoC5/UART_READER.c ****     {
 553              		.loc 1 685 0
 554              		.cfi_startproc
 555              		@ args = 0, pretend = 0, frame = 8
 556              		@ frame_needed = 1, uses_anonymous_args = 0
 557              		@ link register save eliminated.
 558 0000 80B4     		push	{r7}
 559              		.cfi_def_cfa_offset 4
 560              		.cfi_offset 7, -4
 561 0002 83B0     		sub	sp, sp, #12
 562              		.cfi_def_cfa_offset 16
 563 0004 00AF     		add	r7, sp, #0
 564              		.cfi_def_cfa_register 7
 686:.\Generated_Source\PSoC5/UART_READER.c ****         uint8 size;
 687:.\Generated_Source\PSoC5/UART_READER.c **** 
 688:.\Generated_Source\PSoC5/UART_READER.c ****     #if (UART_READER_RX_INTERRUPT_ENABLED)
 689:.\Generated_Source\PSoC5/UART_READER.c **** 
ARM GAS  C:\Users\yqh\AppData\Local\Temp\ccpJxCTG.s 			page 23


 690:.\Generated_Source\PSoC5/UART_READER.c ****         /* Protect variables that could change on interrupt */
 691:.\Generated_Source\PSoC5/UART_READER.c ****         UART_READER_DisableRxInt();
 692:.\Generated_Source\PSoC5/UART_READER.c **** 
 693:.\Generated_Source\PSoC5/UART_READER.c ****         if(UART_READER_rxBufferRead == UART_READER_rxBufferWrite)
 694:.\Generated_Source\PSoC5/UART_READER.c ****         {
 695:.\Generated_Source\PSoC5/UART_READER.c ****             if(UART_READER_rxBufferLoopDetect != 0u)
 696:.\Generated_Source\PSoC5/UART_READER.c ****             {
 697:.\Generated_Source\PSoC5/UART_READER.c ****                 size = UART_READER_RX_BUFFER_SIZE;
 698:.\Generated_Source\PSoC5/UART_READER.c ****             }
 699:.\Generated_Source\PSoC5/UART_READER.c ****             else
 700:.\Generated_Source\PSoC5/UART_READER.c ****             {
 701:.\Generated_Source\PSoC5/UART_READER.c ****                 size = 0u;
 702:.\Generated_Source\PSoC5/UART_READER.c ****             }
 703:.\Generated_Source\PSoC5/UART_READER.c ****         }
 704:.\Generated_Source\PSoC5/UART_READER.c ****         else if(UART_READER_rxBufferRead < UART_READER_rxBufferWrite)
 705:.\Generated_Source\PSoC5/UART_READER.c ****         {
 706:.\Generated_Source\PSoC5/UART_READER.c ****             size = (UART_READER_rxBufferWrite - UART_READER_rxBufferRead);
 707:.\Generated_Source\PSoC5/UART_READER.c ****         }
 708:.\Generated_Source\PSoC5/UART_READER.c ****         else
 709:.\Generated_Source\PSoC5/UART_READER.c ****         {
 710:.\Generated_Source\PSoC5/UART_READER.c ****             size = (UART_READER_RX_BUFFER_SIZE - UART_READER_rxBufferRead) + UART_READER_rxBufferWr
 711:.\Generated_Source\PSoC5/UART_READER.c ****         }
 712:.\Generated_Source\PSoC5/UART_READER.c **** 
 713:.\Generated_Source\PSoC5/UART_READER.c ****         UART_READER_EnableRxInt();
 714:.\Generated_Source\PSoC5/UART_READER.c **** 
 715:.\Generated_Source\PSoC5/UART_READER.c ****     #else
 716:.\Generated_Source\PSoC5/UART_READER.c **** 
 717:.\Generated_Source\PSoC5/UART_READER.c ****         /* We can only know if there is data in the fifo. */
 718:.\Generated_Source\PSoC5/UART_READER.c ****         size = ((UART_READER_RXSTATUS_REG & UART_READER_RX_STS_FIFO_NOTEMPTY) != 0u) ? 1u : 0u;
 565              		.loc 1 718 0
 566 0006 094B     		ldr	r3, .L43
 567 0008 1B78     		ldrb	r3, [r3]
 568 000a DBB2     		uxtb	r3, r3
 569 000c 03F02003 		and	r3, r3, #32
 570 0010 002B     		cmp	r3, #0
 571 0012 01D0     		beq	.L40
 572              		.loc 1 718 0 is_stmt 0 discriminator 1
 573 0014 0123     		movs	r3, #1
 574 0016 00E0     		b	.L41
 575              	.L40:
 576              		.loc 1 718 0 discriminator 2
 577 0018 0023     		movs	r3, #0
 578              	.L41:
 579              		.loc 1 718 0 discriminator 4
 580 001a FB71     		strb	r3, [r7, #7]
 719:.\Generated_Source\PSoC5/UART_READER.c **** 
 720:.\Generated_Source\PSoC5/UART_READER.c ****     #endif /* (UART_READER_RX_INTERRUPT_ENABLED) */
 721:.\Generated_Source\PSoC5/UART_READER.c **** 
 722:.\Generated_Source\PSoC5/UART_READER.c ****         return(size);
 581              		.loc 1 722 0 is_stmt 1 discriminator 4
 582 001c FB79     		ldrb	r3, [r7, #7]	@ zero_extendqisi2
 723:.\Generated_Source\PSoC5/UART_READER.c ****     }
 583              		.loc 1 723 0 discriminator 4
 584 001e 1846     		mov	r0, r3
 585 0020 0C37     		adds	r7, r7, #12
 586              		.cfi_def_cfa_offset 4
 587 0022 BD46     		mov	sp, r7
ARM GAS  C:\Users\yqh\AppData\Local\Temp\ccpJxCTG.s 			page 24


 588              		.cfi_def_cfa_register 13
 589              		@ sp needed
 590 0024 5DF8047B 		ldr	r7, [sp], #4
 591              		.cfi_restore 7
 592              		.cfi_def_cfa_offset 0
 593 0028 7047     		bx	lr
 594              	.L44:
 595 002a 00BF     		.align	2
 596              	.L43:
 597 002c 68650040 		.word	1073767784
 598              		.cfi_endproc
 599              	.LFE11:
 600              		.size	UART_READER_GetRxBufferSize, .-UART_READER_GetRxBufferSize
 601              		.section	.text.UART_READER_ClearRxBuffer,"ax",%progbits
 602              		.align	2
 603              		.global	UART_READER_ClearRxBuffer
 604              		.thumb
 605              		.thumb_func
 606              		.type	UART_READER_ClearRxBuffer, %function
 607              	UART_READER_ClearRxBuffer:
 608              	.LFB12:
 724:.\Generated_Source\PSoC5/UART_READER.c **** 
 725:.\Generated_Source\PSoC5/UART_READER.c **** 
 726:.\Generated_Source\PSoC5/UART_READER.c ****     /*******************************************************************************
 727:.\Generated_Source\PSoC5/UART_READER.c ****     * Function Name: UART_READER_ClearRxBuffer
 728:.\Generated_Source\PSoC5/UART_READER.c ****     ********************************************************************************
 729:.\Generated_Source\PSoC5/UART_READER.c ****     *
 730:.\Generated_Source\PSoC5/UART_READER.c ****     * Summary:
 731:.\Generated_Source\PSoC5/UART_READER.c ****     *  Clears the receiver memory buffer and hardware RX FIFO of all received data.
 732:.\Generated_Source\PSoC5/UART_READER.c ****     *
 733:.\Generated_Source\PSoC5/UART_READER.c ****     * Parameters:
 734:.\Generated_Source\PSoC5/UART_READER.c ****     *  None.
 735:.\Generated_Source\PSoC5/UART_READER.c ****     *
 736:.\Generated_Source\PSoC5/UART_READER.c ****     * Return:
 737:.\Generated_Source\PSoC5/UART_READER.c ****     *  None.
 738:.\Generated_Source\PSoC5/UART_READER.c ****     *
 739:.\Generated_Source\PSoC5/UART_READER.c ****     * Global Variables:
 740:.\Generated_Source\PSoC5/UART_READER.c ****     *  UART_READER_rxBufferWrite - cleared to zero.
 741:.\Generated_Source\PSoC5/UART_READER.c ****     *  UART_READER_rxBufferRead - cleared to zero.
 742:.\Generated_Source\PSoC5/UART_READER.c ****     *  UART_READER_rxBufferLoopDetect - cleared to zero.
 743:.\Generated_Source\PSoC5/UART_READER.c ****     *  UART_READER_rxBufferOverflow - cleared to zero.
 744:.\Generated_Source\PSoC5/UART_READER.c ****     *
 745:.\Generated_Source\PSoC5/UART_READER.c ****     * Reentrant:
 746:.\Generated_Source\PSoC5/UART_READER.c ****     *  No.
 747:.\Generated_Source\PSoC5/UART_READER.c ****     *
 748:.\Generated_Source\PSoC5/UART_READER.c ****     * Theory:
 749:.\Generated_Source\PSoC5/UART_READER.c ****     *  Setting the pointers to zero makes the system believe there is no data to
 750:.\Generated_Source\PSoC5/UART_READER.c ****     *  read and writing will resume at address 0 overwriting any data that may
 751:.\Generated_Source\PSoC5/UART_READER.c ****     *  have remained in the RAM.
 752:.\Generated_Source\PSoC5/UART_READER.c ****     *
 753:.\Generated_Source\PSoC5/UART_READER.c ****     * Side Effects:
 754:.\Generated_Source\PSoC5/UART_READER.c ****     *  Any received data not read from the RAM or FIFO buffer will be lost.
 755:.\Generated_Source\PSoC5/UART_READER.c ****     *
 756:.\Generated_Source\PSoC5/UART_READER.c ****     *******************************************************************************/
 757:.\Generated_Source\PSoC5/UART_READER.c ****     void UART_READER_ClearRxBuffer(void) 
 758:.\Generated_Source\PSoC5/UART_READER.c ****     {
 609              		.loc 1 758 0
ARM GAS  C:\Users\yqh\AppData\Local\Temp\ccpJxCTG.s 			page 25


 610              		.cfi_startproc
 611              		@ args = 0, pretend = 0, frame = 8
 612              		@ frame_needed = 1, uses_anonymous_args = 0
 613 0000 80B5     		push	{r7, lr}
 614              		.cfi_def_cfa_offset 8
 615              		.cfi_offset 7, -8
 616              		.cfi_offset 14, -4
 617 0002 82B0     		sub	sp, sp, #8
 618              		.cfi_def_cfa_offset 16
 619 0004 00AF     		add	r7, sp, #0
 620              		.cfi_def_cfa_register 7
 759:.\Generated_Source\PSoC5/UART_READER.c ****         uint8 enableInterrupts;
 760:.\Generated_Source\PSoC5/UART_READER.c **** 
 761:.\Generated_Source\PSoC5/UART_READER.c ****         /* Clear the HW FIFO */
 762:.\Generated_Source\PSoC5/UART_READER.c ****         enableInterrupts = CyEnterCriticalSection();
 621              		.loc 1 762 0
 622 0006 FFF7FEFF 		bl	CyEnterCriticalSection
 623 000a 0346     		mov	r3, r0
 624 000c FB71     		strb	r3, [r7, #7]
 763:.\Generated_Source\PSoC5/UART_READER.c ****         UART_READER_RXDATA_AUX_CTL_REG |= (uint8)  UART_READER_RX_FIFO_CLR;
 625              		.loc 1 763 0
 626 000e 0B4A     		ldr	r2, .L46
 627 0010 0A4B     		ldr	r3, .L46
 628 0012 1B78     		ldrb	r3, [r3]
 629 0014 DBB2     		uxtb	r3, r3
 630 0016 43F00103 		orr	r3, r3, #1
 631 001a DBB2     		uxtb	r3, r3
 632 001c 1370     		strb	r3, [r2]
 764:.\Generated_Source\PSoC5/UART_READER.c ****         UART_READER_RXDATA_AUX_CTL_REG &= (uint8) ~UART_READER_RX_FIFO_CLR;
 633              		.loc 1 764 0
 634 001e 074A     		ldr	r2, .L46
 635 0020 064B     		ldr	r3, .L46
 636 0022 1B78     		ldrb	r3, [r3]
 637 0024 DBB2     		uxtb	r3, r3
 638 0026 23F00103 		bic	r3, r3, #1
 639 002a DBB2     		uxtb	r3, r3
 640 002c 1370     		strb	r3, [r2]
 765:.\Generated_Source\PSoC5/UART_READER.c ****         CyExitCriticalSection(enableInterrupts);
 641              		.loc 1 765 0
 642 002e FB79     		ldrb	r3, [r7, #7]	@ zero_extendqisi2
 643 0030 1846     		mov	r0, r3
 644 0032 FFF7FEFF 		bl	CyExitCriticalSection
 766:.\Generated_Source\PSoC5/UART_READER.c **** 
 767:.\Generated_Source\PSoC5/UART_READER.c ****     #if (UART_READER_RX_INTERRUPT_ENABLED)
 768:.\Generated_Source\PSoC5/UART_READER.c **** 
 769:.\Generated_Source\PSoC5/UART_READER.c ****         /* Protect variables that could change on interrupt. */
 770:.\Generated_Source\PSoC5/UART_READER.c ****         UART_READER_DisableRxInt();
 771:.\Generated_Source\PSoC5/UART_READER.c **** 
 772:.\Generated_Source\PSoC5/UART_READER.c ****         UART_READER_rxBufferRead = 0u;
 773:.\Generated_Source\PSoC5/UART_READER.c ****         UART_READER_rxBufferWrite = 0u;
 774:.\Generated_Source\PSoC5/UART_READER.c ****         UART_READER_rxBufferLoopDetect = 0u;
 775:.\Generated_Source\PSoC5/UART_READER.c ****         UART_READER_rxBufferOverflow = 0u;
 776:.\Generated_Source\PSoC5/UART_READER.c **** 
 777:.\Generated_Source\PSoC5/UART_READER.c ****         UART_READER_EnableRxInt();
 778:.\Generated_Source\PSoC5/UART_READER.c **** 
 779:.\Generated_Source\PSoC5/UART_READER.c ****     #endif /* (UART_READER_RX_INTERRUPT_ENABLED) */
 780:.\Generated_Source\PSoC5/UART_READER.c **** 
ARM GAS  C:\Users\yqh\AppData\Local\Temp\ccpJxCTG.s 			page 26


 781:.\Generated_Source\PSoC5/UART_READER.c ****     }
 645              		.loc 1 781 0
 646 0036 0837     		adds	r7, r7, #8
 647              		.cfi_def_cfa_offset 8
 648 0038 BD46     		mov	sp, r7
 649              		.cfi_def_cfa_register 13
 650              		@ sp needed
 651 003a 80BD     		pop	{r7, pc}
 652              	.L47:
 653              		.align	2
 654              	.L46:
 655 003c 98650040 		.word	1073767832
 656              		.cfi_endproc
 657              	.LFE12:
 658              		.size	UART_READER_ClearRxBuffer, .-UART_READER_ClearRxBuffer
 659              		.section	.text.UART_READER_SetRxAddressMode,"ax",%progbits
 660              		.align	2
 661              		.global	UART_READER_SetRxAddressMode
 662              		.thumb
 663              		.thumb_func
 664              		.type	UART_READER_SetRxAddressMode, %function
 665              	UART_READER_SetRxAddressMode:
 666              	.LFB13:
 782:.\Generated_Source\PSoC5/UART_READER.c **** 
 783:.\Generated_Source\PSoC5/UART_READER.c **** 
 784:.\Generated_Source\PSoC5/UART_READER.c ****     /*******************************************************************************
 785:.\Generated_Source\PSoC5/UART_READER.c ****     * Function Name: UART_READER_SetRxAddressMode
 786:.\Generated_Source\PSoC5/UART_READER.c ****     ********************************************************************************
 787:.\Generated_Source\PSoC5/UART_READER.c ****     *
 788:.\Generated_Source\PSoC5/UART_READER.c ****     * Summary:
 789:.\Generated_Source\PSoC5/UART_READER.c ****     *  Sets the software controlled Addressing mode used by the RX portion of the
 790:.\Generated_Source\PSoC5/UART_READER.c ****     *  UART.
 791:.\Generated_Source\PSoC5/UART_READER.c ****     *
 792:.\Generated_Source\PSoC5/UART_READER.c ****     * Parameters:
 793:.\Generated_Source\PSoC5/UART_READER.c ****     *  addressMode: Enumerated value indicating the mode of RX addressing
 794:.\Generated_Source\PSoC5/UART_READER.c ****     *  UART_READER__B_UART__AM_SW_BYTE_BYTE -  Software Byte-by-Byte address
 795:.\Generated_Source\PSoC5/UART_READER.c ****     *                                               detection
 796:.\Generated_Source\PSoC5/UART_READER.c ****     *  UART_READER__B_UART__AM_SW_DETECT_TO_BUFFER - Software Detect to Buffer
 797:.\Generated_Source\PSoC5/UART_READER.c ****     *                                               address detection
 798:.\Generated_Source\PSoC5/UART_READER.c ****     *  UART_READER__B_UART__AM_HW_BYTE_BY_BYTE - Hardware Byte-by-Byte address
 799:.\Generated_Source\PSoC5/UART_READER.c ****     *                                               detection
 800:.\Generated_Source\PSoC5/UART_READER.c ****     *  UART_READER__B_UART__AM_HW_DETECT_TO_BUFFER - Hardware Detect to Buffer
 801:.\Generated_Source\PSoC5/UART_READER.c ****     *                                               address detection
 802:.\Generated_Source\PSoC5/UART_READER.c ****     *  UART_READER__B_UART__AM_NONE - No address detection
 803:.\Generated_Source\PSoC5/UART_READER.c ****     *
 804:.\Generated_Source\PSoC5/UART_READER.c ****     * Return:
 805:.\Generated_Source\PSoC5/UART_READER.c ****     *  None.
 806:.\Generated_Source\PSoC5/UART_READER.c ****     *
 807:.\Generated_Source\PSoC5/UART_READER.c ****     * Global Variables:
 808:.\Generated_Source\PSoC5/UART_READER.c ****     *  UART_READER_rxAddressMode - the parameter stored in this variable for
 809:.\Generated_Source\PSoC5/UART_READER.c ****     *   the farther usage in RX ISR.
 810:.\Generated_Source\PSoC5/UART_READER.c ****     *  UART_READER_rxAddressDetected - set to initial state (0).
 811:.\Generated_Source\PSoC5/UART_READER.c ****     *
 812:.\Generated_Source\PSoC5/UART_READER.c ****     *******************************************************************************/
 813:.\Generated_Source\PSoC5/UART_READER.c ****     void UART_READER_SetRxAddressMode(uint8 addressMode)
 814:.\Generated_Source\PSoC5/UART_READER.c ****                                                         
 815:.\Generated_Source\PSoC5/UART_READER.c ****     {
ARM GAS  C:\Users\yqh\AppData\Local\Temp\ccpJxCTG.s 			page 27


 667              		.loc 1 815 0
 668              		.cfi_startproc
 669              		@ args = 0, pretend = 0, frame = 8
 670              		@ frame_needed = 1, uses_anonymous_args = 0
 671              		@ link register save eliminated.
 672 0000 80B4     		push	{r7}
 673              		.cfi_def_cfa_offset 4
 674              		.cfi_offset 7, -4
 675 0002 83B0     		sub	sp, sp, #12
 676              		.cfi_def_cfa_offset 16
 677 0004 00AF     		add	r7, sp, #0
 678              		.cfi_def_cfa_register 7
 679 0006 0346     		mov	r3, r0
 680 0008 FB71     		strb	r3, [r7, #7]
 816:.\Generated_Source\PSoC5/UART_READER.c ****         #if(UART_READER_RXHW_ADDRESS_ENABLED)
 817:.\Generated_Source\PSoC5/UART_READER.c ****             #if(UART_READER_CONTROL_REG_REMOVED)
 818:.\Generated_Source\PSoC5/UART_READER.c ****                 if(0u != addressMode)
 819:.\Generated_Source\PSoC5/UART_READER.c ****                 {
 820:.\Generated_Source\PSoC5/UART_READER.c ****                     /* Suppress compiler warning */
 821:.\Generated_Source\PSoC5/UART_READER.c ****                 }
 822:.\Generated_Source\PSoC5/UART_READER.c ****             #else /* UART_READER_CONTROL_REG_REMOVED */
 823:.\Generated_Source\PSoC5/UART_READER.c ****                 uint8 tmpCtrl;
 824:.\Generated_Source\PSoC5/UART_READER.c ****                 tmpCtrl = UART_READER_CONTROL_REG & (uint8)~UART_READER_CTRL_RXADDR_MODE_MASK;
 825:.\Generated_Source\PSoC5/UART_READER.c ****                 tmpCtrl |= (uint8)(addressMode << UART_READER_CTRL_RXADDR_MODE0_SHIFT);
 826:.\Generated_Source\PSoC5/UART_READER.c ****                 UART_READER_CONTROL_REG = tmpCtrl;
 827:.\Generated_Source\PSoC5/UART_READER.c **** 
 828:.\Generated_Source\PSoC5/UART_READER.c ****                 #if(UART_READER_RX_INTERRUPT_ENABLED && \
 829:.\Generated_Source\PSoC5/UART_READER.c ****                    (UART_READER_RXBUFFERSIZE > UART_READER_FIFO_LENGTH) )
 830:.\Generated_Source\PSoC5/UART_READER.c ****                     UART_READER_rxAddressMode = addressMode;
 831:.\Generated_Source\PSoC5/UART_READER.c ****                     UART_READER_rxAddressDetected = 0u;
 832:.\Generated_Source\PSoC5/UART_READER.c ****                 #endif /* End UART_READER_RXBUFFERSIZE > UART_READER_FIFO_LENGTH*/
 833:.\Generated_Source\PSoC5/UART_READER.c ****             #endif /* End UART_READER_CONTROL_REG_REMOVED */
 834:.\Generated_Source\PSoC5/UART_READER.c ****         #else /* UART_READER_RXHW_ADDRESS_ENABLED */
 835:.\Generated_Source\PSoC5/UART_READER.c ****             if(0u != addressMode)
 836:.\Generated_Source\PSoC5/UART_READER.c ****             {
 837:.\Generated_Source\PSoC5/UART_READER.c ****                 /* Suppress compiler warning */
 838:.\Generated_Source\PSoC5/UART_READER.c ****             }
 839:.\Generated_Source\PSoC5/UART_READER.c ****         #endif /* End UART_READER_RXHW_ADDRESS_ENABLED */
 840:.\Generated_Source\PSoC5/UART_READER.c ****     }
 681              		.loc 1 840 0
 682 000a 0C37     		adds	r7, r7, #12
 683              		.cfi_def_cfa_offset 4
 684 000c BD46     		mov	sp, r7
 685              		.cfi_def_cfa_register 13
 686              		@ sp needed
 687 000e 5DF8047B 		ldr	r7, [sp], #4
 688              		.cfi_restore 7
 689              		.cfi_def_cfa_offset 0
 690 0012 7047     		bx	lr
 691              		.cfi_endproc
 692              	.LFE13:
 693              		.size	UART_READER_SetRxAddressMode, .-UART_READER_SetRxAddressMode
 694              		.section	.text.UART_READER_SetRxAddress1,"ax",%progbits
 695              		.align	2
 696              		.global	UART_READER_SetRxAddress1
 697              		.thumb
 698              		.thumb_func
ARM GAS  C:\Users\yqh\AppData\Local\Temp\ccpJxCTG.s 			page 28


 699              		.type	UART_READER_SetRxAddress1, %function
 700              	UART_READER_SetRxAddress1:
 701              	.LFB14:
 841:.\Generated_Source\PSoC5/UART_READER.c **** 
 842:.\Generated_Source\PSoC5/UART_READER.c **** 
 843:.\Generated_Source\PSoC5/UART_READER.c ****     /*******************************************************************************
 844:.\Generated_Source\PSoC5/UART_READER.c ****     * Function Name: UART_READER_SetRxAddress1
 845:.\Generated_Source\PSoC5/UART_READER.c ****     ********************************************************************************
 846:.\Generated_Source\PSoC5/UART_READER.c ****     *
 847:.\Generated_Source\PSoC5/UART_READER.c ****     * Summary:
 848:.\Generated_Source\PSoC5/UART_READER.c ****     *  Sets the first of two hardware-detectable receiver addresses.
 849:.\Generated_Source\PSoC5/UART_READER.c ****     *
 850:.\Generated_Source\PSoC5/UART_READER.c ****     * Parameters:
 851:.\Generated_Source\PSoC5/UART_READER.c ****     *  address: Address #1 for hardware address detection.
 852:.\Generated_Source\PSoC5/UART_READER.c ****     *
 853:.\Generated_Source\PSoC5/UART_READER.c ****     * Return:
 854:.\Generated_Source\PSoC5/UART_READER.c ****     *  None.
 855:.\Generated_Source\PSoC5/UART_READER.c ****     *
 856:.\Generated_Source\PSoC5/UART_READER.c ****     *******************************************************************************/
 857:.\Generated_Source\PSoC5/UART_READER.c ****     void UART_READER_SetRxAddress1(uint8 address) 
 858:.\Generated_Source\PSoC5/UART_READER.c ****     {
 702              		.loc 1 858 0
 703              		.cfi_startproc
 704              		@ args = 0, pretend = 0, frame = 8
 705              		@ frame_needed = 1, uses_anonymous_args = 0
 706              		@ link register save eliminated.
 707 0000 80B4     		push	{r7}
 708              		.cfi_def_cfa_offset 4
 709              		.cfi_offset 7, -4
 710 0002 83B0     		sub	sp, sp, #12
 711              		.cfi_def_cfa_offset 16
 712 0004 00AF     		add	r7, sp, #0
 713              		.cfi_def_cfa_register 7
 714 0006 0346     		mov	r3, r0
 715 0008 FB71     		strb	r3, [r7, #7]
 859:.\Generated_Source\PSoC5/UART_READER.c ****         UART_READER_RXADDRESS1_REG = address;
 716              		.loc 1 859 0
 717 000a 044A     		ldr	r2, .L50
 718 000c FB79     		ldrb	r3, [r7, #7]
 719 000e 1370     		strb	r3, [r2]
 860:.\Generated_Source\PSoC5/UART_READER.c ****     }
 720              		.loc 1 860 0
 721 0010 0C37     		adds	r7, r7, #12
 722              		.cfi_def_cfa_offset 4
 723 0012 BD46     		mov	sp, r7
 724              		.cfi_def_cfa_register 13
 725              		@ sp needed
 726 0014 5DF8047B 		ldr	r7, [sp], #4
 727              		.cfi_restore 7
 728              		.cfi_def_cfa_offset 0
 729 0018 7047     		bx	lr
 730              	.L51:
 731 001a 00BF     		.align	2
 732              	.L50:
 733 001c 28650040 		.word	1073767720
 734              		.cfi_endproc
 735              	.LFE14:
ARM GAS  C:\Users\yqh\AppData\Local\Temp\ccpJxCTG.s 			page 29


 736              		.size	UART_READER_SetRxAddress1, .-UART_READER_SetRxAddress1
 737              		.section	.text.UART_READER_SetRxAddress2,"ax",%progbits
 738              		.align	2
 739              		.global	UART_READER_SetRxAddress2
 740              		.thumb
 741              		.thumb_func
 742              		.type	UART_READER_SetRxAddress2, %function
 743              	UART_READER_SetRxAddress2:
 744              	.LFB15:
 861:.\Generated_Source\PSoC5/UART_READER.c **** 
 862:.\Generated_Source\PSoC5/UART_READER.c **** 
 863:.\Generated_Source\PSoC5/UART_READER.c ****     /*******************************************************************************
 864:.\Generated_Source\PSoC5/UART_READER.c ****     * Function Name: UART_READER_SetRxAddress2
 865:.\Generated_Source\PSoC5/UART_READER.c ****     ********************************************************************************
 866:.\Generated_Source\PSoC5/UART_READER.c ****     *
 867:.\Generated_Source\PSoC5/UART_READER.c ****     * Summary:
 868:.\Generated_Source\PSoC5/UART_READER.c ****     *  Sets the second of two hardware-detectable receiver addresses.
 869:.\Generated_Source\PSoC5/UART_READER.c ****     *
 870:.\Generated_Source\PSoC5/UART_READER.c ****     * Parameters:
 871:.\Generated_Source\PSoC5/UART_READER.c ****     *  address: Address #2 for hardware address detection.
 872:.\Generated_Source\PSoC5/UART_READER.c ****     *
 873:.\Generated_Source\PSoC5/UART_READER.c ****     * Return:
 874:.\Generated_Source\PSoC5/UART_READER.c ****     *  None.
 875:.\Generated_Source\PSoC5/UART_READER.c ****     *
 876:.\Generated_Source\PSoC5/UART_READER.c ****     *******************************************************************************/
 877:.\Generated_Source\PSoC5/UART_READER.c ****     void UART_READER_SetRxAddress2(uint8 address) 
 878:.\Generated_Source\PSoC5/UART_READER.c ****     {
 745              		.loc 1 878 0
 746              		.cfi_startproc
 747              		@ args = 0, pretend = 0, frame = 8
 748              		@ frame_needed = 1, uses_anonymous_args = 0
 749              		@ link register save eliminated.
 750 0000 80B4     		push	{r7}
 751              		.cfi_def_cfa_offset 4
 752              		.cfi_offset 7, -4
 753 0002 83B0     		sub	sp, sp, #12
 754              		.cfi_def_cfa_offset 16
 755 0004 00AF     		add	r7, sp, #0
 756              		.cfi_def_cfa_register 7
 757 0006 0346     		mov	r3, r0
 758 0008 FB71     		strb	r3, [r7, #7]
 879:.\Generated_Source\PSoC5/UART_READER.c ****         UART_READER_RXADDRESS2_REG = address;
 759              		.loc 1 879 0
 760 000a 044A     		ldr	r2, .L53
 761 000c FB79     		ldrb	r3, [r7, #7]
 762 000e 1370     		strb	r3, [r2]
 880:.\Generated_Source\PSoC5/UART_READER.c ****     }
 763              		.loc 1 880 0
 764 0010 0C37     		adds	r7, r7, #12
 765              		.cfi_def_cfa_offset 4
 766 0012 BD46     		mov	sp, r7
 767              		.cfi_def_cfa_register 13
 768              		@ sp needed
 769 0014 5DF8047B 		ldr	r7, [sp], #4
 770              		.cfi_restore 7
 771              		.cfi_def_cfa_offset 0
 772 0018 7047     		bx	lr
ARM GAS  C:\Users\yqh\AppData\Local\Temp\ccpJxCTG.s 			page 30


 773              	.L54:
 774 001a 00BF     		.align	2
 775              	.L53:
 776 001c 38650040 		.word	1073767736
 777              		.cfi_endproc
 778              	.LFE15:
 779              		.size	UART_READER_SetRxAddress2, .-UART_READER_SetRxAddress2
 780              		.section	.text.UART_READER_SetTxInterruptMode,"ax",%progbits
 781              		.align	2
 782              		.global	UART_READER_SetTxInterruptMode
 783              		.thumb
 784              		.thumb_func
 785              		.type	UART_READER_SetTxInterruptMode, %function
 786              	UART_READER_SetTxInterruptMode:
 787              	.LFB16:
 881:.\Generated_Source\PSoC5/UART_READER.c **** 
 882:.\Generated_Source\PSoC5/UART_READER.c **** #endif  /* UART_READER_RX_ENABLED || UART_READER_HD_ENABLED*/
 883:.\Generated_Source\PSoC5/UART_READER.c **** 
 884:.\Generated_Source\PSoC5/UART_READER.c **** 
 885:.\Generated_Source\PSoC5/UART_READER.c **** #if( (UART_READER_TX_ENABLED) || (UART_READER_HD_ENABLED) )
 886:.\Generated_Source\PSoC5/UART_READER.c ****     /*******************************************************************************
 887:.\Generated_Source\PSoC5/UART_READER.c ****     * Function Name: UART_READER_SetTxInterruptMode
 888:.\Generated_Source\PSoC5/UART_READER.c ****     ********************************************************************************
 889:.\Generated_Source\PSoC5/UART_READER.c ****     *
 890:.\Generated_Source\PSoC5/UART_READER.c ****     * Summary:
 891:.\Generated_Source\PSoC5/UART_READER.c ****     *  Configures the TX interrupt sources to be enabled, but does not enable the
 892:.\Generated_Source\PSoC5/UART_READER.c ****     *  interrupt.
 893:.\Generated_Source\PSoC5/UART_READER.c ****     *
 894:.\Generated_Source\PSoC5/UART_READER.c ****     * Parameters:
 895:.\Generated_Source\PSoC5/UART_READER.c ****     *  intSrc: Bit field containing the TX interrupt sources to enable
 896:.\Generated_Source\PSoC5/UART_READER.c ****     *   UART_READER_TX_STS_COMPLETE        Interrupt on TX byte complete
 897:.\Generated_Source\PSoC5/UART_READER.c ****     *   UART_READER_TX_STS_FIFO_EMPTY      Interrupt when TX FIFO is empty
 898:.\Generated_Source\PSoC5/UART_READER.c ****     *   UART_READER_TX_STS_FIFO_FULL       Interrupt when TX FIFO is full
 899:.\Generated_Source\PSoC5/UART_READER.c ****     *   UART_READER_TX_STS_FIFO_NOT_FULL   Interrupt when TX FIFO is not full
 900:.\Generated_Source\PSoC5/UART_READER.c ****     *
 901:.\Generated_Source\PSoC5/UART_READER.c ****     * Return:
 902:.\Generated_Source\PSoC5/UART_READER.c ****     *  None.
 903:.\Generated_Source\PSoC5/UART_READER.c ****     *
 904:.\Generated_Source\PSoC5/UART_READER.c ****     * Theory:
 905:.\Generated_Source\PSoC5/UART_READER.c ****     *  Enables the output of specific status bits to the interrupt controller
 906:.\Generated_Source\PSoC5/UART_READER.c ****     *
 907:.\Generated_Source\PSoC5/UART_READER.c ****     *******************************************************************************/
 908:.\Generated_Source\PSoC5/UART_READER.c ****     void UART_READER_SetTxInterruptMode(uint8 intSrc) 
 909:.\Generated_Source\PSoC5/UART_READER.c ****     {
 788              		.loc 1 909 0
 789              		.cfi_startproc
 790              		@ args = 0, pretend = 0, frame = 8
 791              		@ frame_needed = 1, uses_anonymous_args = 0
 792              		@ link register save eliminated.
 793 0000 80B4     		push	{r7}
 794              		.cfi_def_cfa_offset 4
 795              		.cfi_offset 7, -4
 796 0002 83B0     		sub	sp, sp, #12
 797              		.cfi_def_cfa_offset 16
 798 0004 00AF     		add	r7, sp, #0
 799              		.cfi_def_cfa_register 7
 800 0006 0346     		mov	r3, r0
ARM GAS  C:\Users\yqh\AppData\Local\Temp\ccpJxCTG.s 			page 31


 801 0008 FB71     		strb	r3, [r7, #7]
 910:.\Generated_Source\PSoC5/UART_READER.c ****         UART_READER_TXSTATUS_MASK_REG = intSrc;
 802              		.loc 1 910 0
 803 000a 044A     		ldr	r2, .L56
 804 000c FB79     		ldrb	r3, [r7, #7]
 805 000e 1370     		strb	r3, [r2]
 911:.\Generated_Source\PSoC5/UART_READER.c ****     }
 806              		.loc 1 911 0
 807 0010 0C37     		adds	r7, r7, #12
 808              		.cfi_def_cfa_offset 4
 809 0012 BD46     		mov	sp, r7
 810              		.cfi_def_cfa_register 13
 811              		@ sp needed
 812 0014 5DF8047B 		ldr	r7, [sp], #4
 813              		.cfi_restore 7
 814              		.cfi_def_cfa_offset 0
 815 0018 7047     		bx	lr
 816              	.L57:
 817 001a 00BF     		.align	2
 818              	.L56:
 819 001c 88650040 		.word	1073767816
 820              		.cfi_endproc
 821              	.LFE16:
 822              		.size	UART_READER_SetTxInterruptMode, .-UART_READER_SetTxInterruptMode
 823              		.section	.text.UART_READER_WriteTxData,"ax",%progbits
 824              		.align	2
 825              		.global	UART_READER_WriteTxData
 826              		.thumb
 827              		.thumb_func
 828              		.type	UART_READER_WriteTxData, %function
 829              	UART_READER_WriteTxData:
 830              	.LFB17:
 912:.\Generated_Source\PSoC5/UART_READER.c **** 
 913:.\Generated_Source\PSoC5/UART_READER.c **** 
 914:.\Generated_Source\PSoC5/UART_READER.c ****     /*******************************************************************************
 915:.\Generated_Source\PSoC5/UART_READER.c ****     * Function Name: UART_READER_WriteTxData
 916:.\Generated_Source\PSoC5/UART_READER.c ****     ********************************************************************************
 917:.\Generated_Source\PSoC5/UART_READER.c ****     *
 918:.\Generated_Source\PSoC5/UART_READER.c ****     * Summary:
 919:.\Generated_Source\PSoC5/UART_READER.c ****     *  Places a byte of data into the transmit buffer to be sent when the bus is
 920:.\Generated_Source\PSoC5/UART_READER.c ****     *  available without checking the TX status register. You must check status
 921:.\Generated_Source\PSoC5/UART_READER.c ****     *  separately.
 922:.\Generated_Source\PSoC5/UART_READER.c ****     *
 923:.\Generated_Source\PSoC5/UART_READER.c ****     * Parameters:
 924:.\Generated_Source\PSoC5/UART_READER.c ****     *  txDataByte: data byte
 925:.\Generated_Source\PSoC5/UART_READER.c ****     *
 926:.\Generated_Source\PSoC5/UART_READER.c ****     * Return:
 927:.\Generated_Source\PSoC5/UART_READER.c ****     * None.
 928:.\Generated_Source\PSoC5/UART_READER.c ****     *
 929:.\Generated_Source\PSoC5/UART_READER.c ****     * Global Variables:
 930:.\Generated_Source\PSoC5/UART_READER.c ****     *  UART_READER_txBuffer - RAM buffer pointer for save data for transmission
 931:.\Generated_Source\PSoC5/UART_READER.c ****     *  UART_READER_txBufferWrite - cyclic index for write to txBuffer,
 932:.\Generated_Source\PSoC5/UART_READER.c ****     *    incremented after each byte saved to buffer.
 933:.\Generated_Source\PSoC5/UART_READER.c ****     *  UART_READER_txBufferRead - cyclic index for read from txBuffer,
 934:.\Generated_Source\PSoC5/UART_READER.c ****     *    checked to identify the condition to write to FIFO directly or to TX buffer
 935:.\Generated_Source\PSoC5/UART_READER.c ****     *  UART_READER_initVar - checked to identify that the component has been
 936:.\Generated_Source\PSoC5/UART_READER.c ****     *    initialized.
ARM GAS  C:\Users\yqh\AppData\Local\Temp\ccpJxCTG.s 			page 32


 937:.\Generated_Source\PSoC5/UART_READER.c ****     *
 938:.\Generated_Source\PSoC5/UART_READER.c ****     * Reentrant:
 939:.\Generated_Source\PSoC5/UART_READER.c ****     *  No.
 940:.\Generated_Source\PSoC5/UART_READER.c ****     *
 941:.\Generated_Source\PSoC5/UART_READER.c ****     *******************************************************************************/
 942:.\Generated_Source\PSoC5/UART_READER.c ****     void UART_READER_WriteTxData(uint8 txDataByte) 
 943:.\Generated_Source\PSoC5/UART_READER.c ****     {
 831              		.loc 1 943 0
 832              		.cfi_startproc
 833              		@ args = 0, pretend = 0, frame = 8
 834              		@ frame_needed = 1, uses_anonymous_args = 0
 835              		@ link register save eliminated.
 836 0000 80B4     		push	{r7}
 837              		.cfi_def_cfa_offset 4
 838              		.cfi_offset 7, -4
 839 0002 83B0     		sub	sp, sp, #12
 840              		.cfi_def_cfa_offset 16
 841 0004 00AF     		add	r7, sp, #0
 842              		.cfi_def_cfa_register 7
 843 0006 0346     		mov	r3, r0
 844 0008 FB71     		strb	r3, [r7, #7]
 944:.\Generated_Source\PSoC5/UART_READER.c ****         /* If not Initialized then skip this function*/
 945:.\Generated_Source\PSoC5/UART_READER.c ****         if(UART_READER_initVar != 0u)
 845              		.loc 1 945 0
 846 000a 064B     		ldr	r3, .L60
 847 000c 1B78     		ldrb	r3, [r3]	@ zero_extendqisi2
 848 000e 002B     		cmp	r3, #0
 849 0010 02D0     		beq	.L58
 946:.\Generated_Source\PSoC5/UART_READER.c ****         {
 947:.\Generated_Source\PSoC5/UART_READER.c ****         #if (UART_READER_TX_INTERRUPT_ENABLED)
 948:.\Generated_Source\PSoC5/UART_READER.c **** 
 949:.\Generated_Source\PSoC5/UART_READER.c ****             /* Protect variables that could change on interrupt. */
 950:.\Generated_Source\PSoC5/UART_READER.c ****             UART_READER_DisableTxInt();
 951:.\Generated_Source\PSoC5/UART_READER.c **** 
 952:.\Generated_Source\PSoC5/UART_READER.c ****             if( (UART_READER_txBufferRead == UART_READER_txBufferWrite) &&
 953:.\Generated_Source\PSoC5/UART_READER.c ****                 ((UART_READER_TXSTATUS_REG & UART_READER_TX_STS_FIFO_FULL) == 0u) )
 954:.\Generated_Source\PSoC5/UART_READER.c ****             {
 955:.\Generated_Source\PSoC5/UART_READER.c ****                 /* Add directly to the FIFO. */
 956:.\Generated_Source\PSoC5/UART_READER.c ****                 UART_READER_TXDATA_REG = txDataByte;
 957:.\Generated_Source\PSoC5/UART_READER.c ****             }
 958:.\Generated_Source\PSoC5/UART_READER.c ****             else
 959:.\Generated_Source\PSoC5/UART_READER.c ****             {
 960:.\Generated_Source\PSoC5/UART_READER.c ****                 if(UART_READER_txBufferWrite >= UART_READER_TX_BUFFER_SIZE)
 961:.\Generated_Source\PSoC5/UART_READER.c ****                 {
 962:.\Generated_Source\PSoC5/UART_READER.c ****                     UART_READER_txBufferWrite = 0u;
 963:.\Generated_Source\PSoC5/UART_READER.c ****                 }
 964:.\Generated_Source\PSoC5/UART_READER.c **** 
 965:.\Generated_Source\PSoC5/UART_READER.c ****                 UART_READER_txBuffer[UART_READER_txBufferWrite] = txDataByte;
 966:.\Generated_Source\PSoC5/UART_READER.c **** 
 967:.\Generated_Source\PSoC5/UART_READER.c ****                 /* Add to the software buffer. */
 968:.\Generated_Source\PSoC5/UART_READER.c ****                 UART_READER_txBufferWrite++;
 969:.\Generated_Source\PSoC5/UART_READER.c ****             }
 970:.\Generated_Source\PSoC5/UART_READER.c **** 
 971:.\Generated_Source\PSoC5/UART_READER.c ****             UART_READER_EnableTxInt();
 972:.\Generated_Source\PSoC5/UART_READER.c **** 
 973:.\Generated_Source\PSoC5/UART_READER.c ****         #else
 974:.\Generated_Source\PSoC5/UART_READER.c **** 
ARM GAS  C:\Users\yqh\AppData\Local\Temp\ccpJxCTG.s 			page 33


 975:.\Generated_Source\PSoC5/UART_READER.c ****             /* Add directly to the FIFO. */
 976:.\Generated_Source\PSoC5/UART_READER.c ****             UART_READER_TXDATA_REG = txDataByte;
 850              		.loc 1 976 0
 851 0012 054A     		ldr	r2, .L60+4
 852 0014 FB79     		ldrb	r3, [r7, #7]
 853 0016 1370     		strb	r3, [r2]
 854              	.L58:
 977:.\Generated_Source\PSoC5/UART_READER.c **** 
 978:.\Generated_Source\PSoC5/UART_READER.c ****         #endif /*(UART_READER_TX_INTERRUPT_ENABLED) */
 979:.\Generated_Source\PSoC5/UART_READER.c ****         }
 980:.\Generated_Source\PSoC5/UART_READER.c ****     }
 855              		.loc 1 980 0
 856 0018 0C37     		adds	r7, r7, #12
 857              		.cfi_def_cfa_offset 4
 858 001a BD46     		mov	sp, r7
 859              		.cfi_def_cfa_register 13
 860              		@ sp needed
 861 001c 5DF8047B 		ldr	r7, [sp], #4
 862              		.cfi_restore 7
 863              		.cfi_def_cfa_offset 0
 864 0020 7047     		bx	lr
 865              	.L61:
 866 0022 00BF     		.align	2
 867              	.L60:
 868 0024 00000000 		.word	UART_READER_initVar
 869 0028 58650040 		.word	1073767768
 870              		.cfi_endproc
 871              	.LFE17:
 872              		.size	UART_READER_WriteTxData, .-UART_READER_WriteTxData
 873              		.section	.text.UART_READER_ReadTxStatus,"ax",%progbits
 874              		.align	2
 875              		.global	UART_READER_ReadTxStatus
 876              		.thumb
 877              		.thumb_func
 878              		.type	UART_READER_ReadTxStatus, %function
 879              	UART_READER_ReadTxStatus:
 880              	.LFB18:
 981:.\Generated_Source\PSoC5/UART_READER.c **** 
 982:.\Generated_Source\PSoC5/UART_READER.c **** 
 983:.\Generated_Source\PSoC5/UART_READER.c ****     /*******************************************************************************
 984:.\Generated_Source\PSoC5/UART_READER.c ****     * Function Name: UART_READER_ReadTxStatus
 985:.\Generated_Source\PSoC5/UART_READER.c ****     ********************************************************************************
 986:.\Generated_Source\PSoC5/UART_READER.c ****     *
 987:.\Generated_Source\PSoC5/UART_READER.c ****     * Summary:
 988:.\Generated_Source\PSoC5/UART_READER.c ****     *  Reads the status register for the TX portion of the UART.
 989:.\Generated_Source\PSoC5/UART_READER.c ****     *
 990:.\Generated_Source\PSoC5/UART_READER.c ****     * Parameters:
 991:.\Generated_Source\PSoC5/UART_READER.c ****     *  None.
 992:.\Generated_Source\PSoC5/UART_READER.c ****     *
 993:.\Generated_Source\PSoC5/UART_READER.c ****     * Return:
 994:.\Generated_Source\PSoC5/UART_READER.c ****     *  Contents of the status register
 995:.\Generated_Source\PSoC5/UART_READER.c ****     *
 996:.\Generated_Source\PSoC5/UART_READER.c ****     * Theory:
 997:.\Generated_Source\PSoC5/UART_READER.c ****     *  This function reads the TX status register, which is cleared on read.
 998:.\Generated_Source\PSoC5/UART_READER.c ****     *  It is up to the user to handle all bits in this return value accordingly,
 999:.\Generated_Source\PSoC5/UART_READER.c ****     *  even if the bit was not enabled as an interrupt source the event happened
1000:.\Generated_Source\PSoC5/UART_READER.c ****     *  and must be handled accordingly.
ARM GAS  C:\Users\yqh\AppData\Local\Temp\ccpJxCTG.s 			page 34


1001:.\Generated_Source\PSoC5/UART_READER.c ****     *
1002:.\Generated_Source\PSoC5/UART_READER.c ****     *******************************************************************************/
1003:.\Generated_Source\PSoC5/UART_READER.c ****     uint8 UART_READER_ReadTxStatus(void) 
1004:.\Generated_Source\PSoC5/UART_READER.c ****     {
 881              		.loc 1 1004 0
 882              		.cfi_startproc
 883              		@ args = 0, pretend = 0, frame = 0
 884              		@ frame_needed = 1, uses_anonymous_args = 0
 885              		@ link register save eliminated.
 886 0000 80B4     		push	{r7}
 887              		.cfi_def_cfa_offset 4
 888              		.cfi_offset 7, -4
 889 0002 00AF     		add	r7, sp, #0
 890              		.cfi_def_cfa_register 7
1005:.\Generated_Source\PSoC5/UART_READER.c ****         return(UART_READER_TXSTATUS_REG);
 891              		.loc 1 1005 0
 892 0004 034B     		ldr	r3, .L64
 893 0006 1B78     		ldrb	r3, [r3]
 894 0008 DBB2     		uxtb	r3, r3
1006:.\Generated_Source\PSoC5/UART_READER.c ****     }
 895              		.loc 1 1006 0
 896 000a 1846     		mov	r0, r3
 897 000c BD46     		mov	sp, r7
 898              		.cfi_def_cfa_register 13
 899              		@ sp needed
 900 000e 5DF8047B 		ldr	r7, [sp], #4
 901              		.cfi_restore 7
 902              		.cfi_def_cfa_offset 0
 903 0012 7047     		bx	lr
 904              	.L65:
 905              		.align	2
 906              	.L64:
 907 0014 68650040 		.word	1073767784
 908              		.cfi_endproc
 909              	.LFE18:
 910              		.size	UART_READER_ReadTxStatus, .-UART_READER_ReadTxStatus
 911              		.section	.text.UART_READER_PutChar,"ax",%progbits
 912              		.align	2
 913              		.global	UART_READER_PutChar
 914              		.thumb
 915              		.thumb_func
 916              		.type	UART_READER_PutChar, %function
 917              	UART_READER_PutChar:
 918              	.LFB19:
1007:.\Generated_Source\PSoC5/UART_READER.c **** 
1008:.\Generated_Source\PSoC5/UART_READER.c **** 
1009:.\Generated_Source\PSoC5/UART_READER.c ****     /*******************************************************************************
1010:.\Generated_Source\PSoC5/UART_READER.c ****     * Function Name: UART_READER_PutChar
1011:.\Generated_Source\PSoC5/UART_READER.c ****     ********************************************************************************
1012:.\Generated_Source\PSoC5/UART_READER.c ****     *
1013:.\Generated_Source\PSoC5/UART_READER.c ****     * Summary:
1014:.\Generated_Source\PSoC5/UART_READER.c ****     *  Puts a byte of data into the transmit buffer to be sent when the bus is
1015:.\Generated_Source\PSoC5/UART_READER.c ****     *  available. This is a blocking API that waits until the TX buffer has room to
1016:.\Generated_Source\PSoC5/UART_READER.c ****     *  hold the data.
1017:.\Generated_Source\PSoC5/UART_READER.c ****     *
1018:.\Generated_Source\PSoC5/UART_READER.c ****     * Parameters:
1019:.\Generated_Source\PSoC5/UART_READER.c ****     *  txDataByte: Byte containing the data to transmit
ARM GAS  C:\Users\yqh\AppData\Local\Temp\ccpJxCTG.s 			page 35


1020:.\Generated_Source\PSoC5/UART_READER.c ****     *
1021:.\Generated_Source\PSoC5/UART_READER.c ****     * Return:
1022:.\Generated_Source\PSoC5/UART_READER.c ****     *  None.
1023:.\Generated_Source\PSoC5/UART_READER.c ****     *
1024:.\Generated_Source\PSoC5/UART_READER.c ****     * Global Variables:
1025:.\Generated_Source\PSoC5/UART_READER.c ****     *  UART_READER_txBuffer - RAM buffer pointer for save data for transmission
1026:.\Generated_Source\PSoC5/UART_READER.c ****     *  UART_READER_txBufferWrite - cyclic index for write to txBuffer,
1027:.\Generated_Source\PSoC5/UART_READER.c ****     *     checked to identify free space in txBuffer and incremented after each byte
1028:.\Generated_Source\PSoC5/UART_READER.c ****     *     saved to buffer.
1029:.\Generated_Source\PSoC5/UART_READER.c ****     *  UART_READER_txBufferRead - cyclic index for read from txBuffer,
1030:.\Generated_Source\PSoC5/UART_READER.c ****     *     checked to identify free space in txBuffer.
1031:.\Generated_Source\PSoC5/UART_READER.c ****     *  UART_READER_initVar - checked to identify that the component has been
1032:.\Generated_Source\PSoC5/UART_READER.c ****     *     initialized.
1033:.\Generated_Source\PSoC5/UART_READER.c ****     *
1034:.\Generated_Source\PSoC5/UART_READER.c ****     * Reentrant:
1035:.\Generated_Source\PSoC5/UART_READER.c ****     *  No.
1036:.\Generated_Source\PSoC5/UART_READER.c ****     *
1037:.\Generated_Source\PSoC5/UART_READER.c ****     * Theory:
1038:.\Generated_Source\PSoC5/UART_READER.c ****     *  Allows the user to transmit any byte of data in a single transfer
1039:.\Generated_Source\PSoC5/UART_READER.c ****     *
1040:.\Generated_Source\PSoC5/UART_READER.c ****     *******************************************************************************/
1041:.\Generated_Source\PSoC5/UART_READER.c ****     void UART_READER_PutChar(uint8 txDataByte) 
1042:.\Generated_Source\PSoC5/UART_READER.c ****     {
 919              		.loc 1 1042 0
 920              		.cfi_startproc
 921              		@ args = 0, pretend = 0, frame = 8
 922              		@ frame_needed = 1, uses_anonymous_args = 0
 923              		@ link register save eliminated.
 924 0000 80B4     		push	{r7}
 925              		.cfi_def_cfa_offset 4
 926              		.cfi_offset 7, -4
 927 0002 83B0     		sub	sp, sp, #12
 928              		.cfi_def_cfa_offset 16
 929 0004 00AF     		add	r7, sp, #0
 930              		.cfi_def_cfa_register 7
 931 0006 0346     		mov	r3, r0
 932 0008 FB71     		strb	r3, [r7, #7]
1043:.\Generated_Source\PSoC5/UART_READER.c ****     #if (UART_READER_TX_INTERRUPT_ENABLED)
1044:.\Generated_Source\PSoC5/UART_READER.c ****         /* The temporary output pointer is used since it takes two instructions
1045:.\Generated_Source\PSoC5/UART_READER.c ****         *  to increment with a wrap, and we can't risk doing that with the real
1046:.\Generated_Source\PSoC5/UART_READER.c ****         *  pointer and getting an interrupt in between instructions.
1047:.\Generated_Source\PSoC5/UART_READER.c ****         */
1048:.\Generated_Source\PSoC5/UART_READER.c ****         uint8 locTxBufferWrite;
1049:.\Generated_Source\PSoC5/UART_READER.c ****         uint8 locTxBufferRead;
1050:.\Generated_Source\PSoC5/UART_READER.c **** 
1051:.\Generated_Source\PSoC5/UART_READER.c ****         do
1052:.\Generated_Source\PSoC5/UART_READER.c ****         { /* Block if software buffer is full, so we don't overwrite. */
1053:.\Generated_Source\PSoC5/UART_READER.c **** 
1054:.\Generated_Source\PSoC5/UART_READER.c ****         #if ((UART_READER_TX_BUFFER_SIZE > UART_READER_MAX_BYTE_VALUE) && (CY_PSOC3))
1055:.\Generated_Source\PSoC5/UART_READER.c ****             /* Disable TX interrupt to protect variables from modification */
1056:.\Generated_Source\PSoC5/UART_READER.c ****             UART_READER_DisableTxInt();
1057:.\Generated_Source\PSoC5/UART_READER.c ****         #endif /* (UART_READER_TX_BUFFER_SIZE > UART_READER_MAX_BYTE_VALUE) && (CY_PSOC3) */
1058:.\Generated_Source\PSoC5/UART_READER.c **** 
1059:.\Generated_Source\PSoC5/UART_READER.c ****             locTxBufferWrite = UART_READER_txBufferWrite;
1060:.\Generated_Source\PSoC5/UART_READER.c ****             locTxBufferRead  = UART_READER_txBufferRead;
1061:.\Generated_Source\PSoC5/UART_READER.c **** 
1062:.\Generated_Source\PSoC5/UART_READER.c ****         #if ((UART_READER_TX_BUFFER_SIZE > UART_READER_MAX_BYTE_VALUE) && (CY_PSOC3))
ARM GAS  C:\Users\yqh\AppData\Local\Temp\ccpJxCTG.s 			page 36


1063:.\Generated_Source\PSoC5/UART_READER.c ****             /* Enable interrupt to continue transmission */
1064:.\Generated_Source\PSoC5/UART_READER.c ****             UART_READER_EnableTxInt();
1065:.\Generated_Source\PSoC5/UART_READER.c ****         #endif /* (UART_READER_TX_BUFFER_SIZE > UART_READER_MAX_BYTE_VALUE) && (CY_PSOC3) */
1066:.\Generated_Source\PSoC5/UART_READER.c ****         }
1067:.\Generated_Source\PSoC5/UART_READER.c ****         while( (locTxBufferWrite < locTxBufferRead) ? (locTxBufferWrite == (locTxBufferRead - 1u)) 
1068:.\Generated_Source\PSoC5/UART_READER.c ****                                 ((locTxBufferWrite - locTxBufferRead) ==
1069:.\Generated_Source\PSoC5/UART_READER.c ****                                 (uint8)(UART_READER_TX_BUFFER_SIZE - 1u)) );
1070:.\Generated_Source\PSoC5/UART_READER.c **** 
1071:.\Generated_Source\PSoC5/UART_READER.c ****         if( (locTxBufferRead == locTxBufferWrite) &&
1072:.\Generated_Source\PSoC5/UART_READER.c ****             ((UART_READER_TXSTATUS_REG & UART_READER_TX_STS_FIFO_FULL) == 0u) )
1073:.\Generated_Source\PSoC5/UART_READER.c ****         {
1074:.\Generated_Source\PSoC5/UART_READER.c ****             /* Add directly to the FIFO */
1075:.\Generated_Source\PSoC5/UART_READER.c ****             UART_READER_TXDATA_REG = txDataByte;
1076:.\Generated_Source\PSoC5/UART_READER.c ****         }
1077:.\Generated_Source\PSoC5/UART_READER.c ****         else
1078:.\Generated_Source\PSoC5/UART_READER.c ****         {
1079:.\Generated_Source\PSoC5/UART_READER.c ****             if(locTxBufferWrite >= UART_READER_TX_BUFFER_SIZE)
1080:.\Generated_Source\PSoC5/UART_READER.c ****             {
1081:.\Generated_Source\PSoC5/UART_READER.c ****                 locTxBufferWrite = 0u;
1082:.\Generated_Source\PSoC5/UART_READER.c ****             }
1083:.\Generated_Source\PSoC5/UART_READER.c ****             /* Add to the software buffer. */
1084:.\Generated_Source\PSoC5/UART_READER.c ****             UART_READER_txBuffer[locTxBufferWrite] = txDataByte;
1085:.\Generated_Source\PSoC5/UART_READER.c ****             locTxBufferWrite++;
1086:.\Generated_Source\PSoC5/UART_READER.c **** 
1087:.\Generated_Source\PSoC5/UART_READER.c ****             /* Finally, update the real output pointer */
1088:.\Generated_Source\PSoC5/UART_READER.c ****         #if ((UART_READER_TX_BUFFER_SIZE > UART_READER_MAX_BYTE_VALUE) && (CY_PSOC3))
1089:.\Generated_Source\PSoC5/UART_READER.c ****             UART_READER_DisableTxInt();
1090:.\Generated_Source\PSoC5/UART_READER.c ****         #endif /* (UART_READER_TX_BUFFER_SIZE > UART_READER_MAX_BYTE_VALUE) && (CY_PSOC3) */
1091:.\Generated_Source\PSoC5/UART_READER.c **** 
1092:.\Generated_Source\PSoC5/UART_READER.c ****             UART_READER_txBufferWrite = locTxBufferWrite;
1093:.\Generated_Source\PSoC5/UART_READER.c **** 
1094:.\Generated_Source\PSoC5/UART_READER.c ****         #if ((UART_READER_TX_BUFFER_SIZE > UART_READER_MAX_BYTE_VALUE) && (CY_PSOC3))
1095:.\Generated_Source\PSoC5/UART_READER.c ****             UART_READER_EnableTxInt();
1096:.\Generated_Source\PSoC5/UART_READER.c ****         #endif /* (UART_READER_TX_BUFFER_SIZE > UART_READER_MAX_BYTE_VALUE) && (CY_PSOC3) */
1097:.\Generated_Source\PSoC5/UART_READER.c **** 
1098:.\Generated_Source\PSoC5/UART_READER.c ****             if(0u != (UART_READER_TXSTATUS_REG & UART_READER_TX_STS_FIFO_EMPTY))
1099:.\Generated_Source\PSoC5/UART_READER.c ****             {
1100:.\Generated_Source\PSoC5/UART_READER.c ****                 /* Trigger TX interrupt to send software buffer */
1101:.\Generated_Source\PSoC5/UART_READER.c ****                 UART_READER_SetPendingTxInt();
1102:.\Generated_Source\PSoC5/UART_READER.c ****             }
1103:.\Generated_Source\PSoC5/UART_READER.c ****         }
1104:.\Generated_Source\PSoC5/UART_READER.c **** 
1105:.\Generated_Source\PSoC5/UART_READER.c ****     #else
1106:.\Generated_Source\PSoC5/UART_READER.c **** 
1107:.\Generated_Source\PSoC5/UART_READER.c ****         while((UART_READER_TXSTATUS_REG & UART_READER_TX_STS_FIFO_FULL) != 0u)
 933              		.loc 1 1107 0
 934 000a 00BF     		nop
 935              	.L67:
 936              		.loc 1 1107 0 is_stmt 0 discriminator 1
 937 000c 074B     		ldr	r3, .L68
 938 000e 1B78     		ldrb	r3, [r3]
 939 0010 DBB2     		uxtb	r3, r3
 940 0012 03F02003 		and	r3, r3, #32
 941 0016 002B     		cmp	r3, #0
 942 0018 F8D1     		bne	.L67
1108:.\Generated_Source\PSoC5/UART_READER.c ****         {
1109:.\Generated_Source\PSoC5/UART_READER.c ****             /* Wait for room in the FIFO */
ARM GAS  C:\Users\yqh\AppData\Local\Temp\ccpJxCTG.s 			page 37


1110:.\Generated_Source\PSoC5/UART_READER.c ****         }
1111:.\Generated_Source\PSoC5/UART_READER.c **** 
1112:.\Generated_Source\PSoC5/UART_READER.c ****         /* Add directly to the FIFO */
1113:.\Generated_Source\PSoC5/UART_READER.c ****         UART_READER_TXDATA_REG = txDataByte;
 943              		.loc 1 1113 0 is_stmt 1
 944 001a 054A     		ldr	r2, .L68+4
 945 001c FB79     		ldrb	r3, [r7, #7]
 946 001e 1370     		strb	r3, [r2]
1114:.\Generated_Source\PSoC5/UART_READER.c **** 
1115:.\Generated_Source\PSoC5/UART_READER.c ****     #endif /* UART_READER_TX_INTERRUPT_ENABLED */
1116:.\Generated_Source\PSoC5/UART_READER.c ****     }
 947              		.loc 1 1116 0
 948 0020 0C37     		adds	r7, r7, #12
 949              		.cfi_def_cfa_offset 4
 950 0022 BD46     		mov	sp, r7
 951              		.cfi_def_cfa_register 13
 952              		@ sp needed
 953 0024 5DF8047B 		ldr	r7, [sp], #4
 954              		.cfi_restore 7
 955              		.cfi_def_cfa_offset 0
 956 0028 7047     		bx	lr
 957              	.L69:
 958 002a 00BF     		.align	2
 959              	.L68:
 960 002c 68650040 		.word	1073767784
 961 0030 58650040 		.word	1073767768
 962              		.cfi_endproc
 963              	.LFE19:
 964              		.size	UART_READER_PutChar, .-UART_READER_PutChar
 965              		.section	.text.UART_READER_PutString,"ax",%progbits
 966              		.align	2
 967              		.global	UART_READER_PutString
 968              		.thumb
 969              		.thumb_func
 970              		.type	UART_READER_PutString, %function
 971              	UART_READER_PutString:
 972              	.LFB20:
1117:.\Generated_Source\PSoC5/UART_READER.c **** 
1118:.\Generated_Source\PSoC5/UART_READER.c **** 
1119:.\Generated_Source\PSoC5/UART_READER.c ****     /*******************************************************************************
1120:.\Generated_Source\PSoC5/UART_READER.c ****     * Function Name: UART_READER_PutString
1121:.\Generated_Source\PSoC5/UART_READER.c ****     ********************************************************************************
1122:.\Generated_Source\PSoC5/UART_READER.c ****     *
1123:.\Generated_Source\PSoC5/UART_READER.c ****     * Summary:
1124:.\Generated_Source\PSoC5/UART_READER.c ****     *  Sends a NULL terminated string to the TX buffer for transmission.
1125:.\Generated_Source\PSoC5/UART_READER.c ****     *
1126:.\Generated_Source\PSoC5/UART_READER.c ****     * Parameters:
1127:.\Generated_Source\PSoC5/UART_READER.c ****     *  string[]: Pointer to the null terminated string array residing in RAM or ROM
1128:.\Generated_Source\PSoC5/UART_READER.c ****     *
1129:.\Generated_Source\PSoC5/UART_READER.c ****     * Return:
1130:.\Generated_Source\PSoC5/UART_READER.c ****     *  None.
1131:.\Generated_Source\PSoC5/UART_READER.c ****     *
1132:.\Generated_Source\PSoC5/UART_READER.c ****     * Global Variables:
1133:.\Generated_Source\PSoC5/UART_READER.c ****     *  UART_READER_initVar - checked to identify that the component has been
1134:.\Generated_Source\PSoC5/UART_READER.c ****     *     initialized.
1135:.\Generated_Source\PSoC5/UART_READER.c ****     *
1136:.\Generated_Source\PSoC5/UART_READER.c ****     * Reentrant:
ARM GAS  C:\Users\yqh\AppData\Local\Temp\ccpJxCTG.s 			page 38


1137:.\Generated_Source\PSoC5/UART_READER.c ****     *  No.
1138:.\Generated_Source\PSoC5/UART_READER.c ****     *
1139:.\Generated_Source\PSoC5/UART_READER.c ****     * Theory:
1140:.\Generated_Source\PSoC5/UART_READER.c ****     *  If there is not enough memory in the TX buffer for the entire string, this
1141:.\Generated_Source\PSoC5/UART_READER.c ****     *  function blocks until the last character of the string is loaded into the
1142:.\Generated_Source\PSoC5/UART_READER.c ****     *  TX buffer.
1143:.\Generated_Source\PSoC5/UART_READER.c ****     *
1144:.\Generated_Source\PSoC5/UART_READER.c ****     *******************************************************************************/
1145:.\Generated_Source\PSoC5/UART_READER.c ****     void UART_READER_PutString(const char8 string[]) 
1146:.\Generated_Source\PSoC5/UART_READER.c ****     {
 973              		.loc 1 1146 0
 974              		.cfi_startproc
 975              		@ args = 0, pretend = 0, frame = 16
 976              		@ frame_needed = 1, uses_anonymous_args = 0
 977 0000 80B5     		push	{r7, lr}
 978              		.cfi_def_cfa_offset 8
 979              		.cfi_offset 7, -8
 980              		.cfi_offset 14, -4
 981 0002 84B0     		sub	sp, sp, #16
 982              		.cfi_def_cfa_offset 24
 983 0004 00AF     		add	r7, sp, #0
 984              		.cfi_def_cfa_register 7
 985 0006 7860     		str	r0, [r7, #4]
1147:.\Generated_Source\PSoC5/UART_READER.c ****         uint16 bufIndex = 0u;
 986              		.loc 1 1147 0
 987 0008 0023     		movs	r3, #0
 988 000a FB81     		strh	r3, [r7, #14]	@ movhi
1148:.\Generated_Source\PSoC5/UART_READER.c **** 
1149:.\Generated_Source\PSoC5/UART_READER.c ****         /* If not Initialized then skip this function */
1150:.\Generated_Source\PSoC5/UART_READER.c ****         if(UART_READER_initVar != 0u)
 989              		.loc 1 1150 0
 990 000c 0B4B     		ldr	r3, .L74
 991 000e 1B78     		ldrb	r3, [r3]	@ zero_extendqisi2
 992 0010 002B     		cmp	r3, #0
 993 0012 10D0     		beq	.L70
1151:.\Generated_Source\PSoC5/UART_READER.c ****         {
1152:.\Generated_Source\PSoC5/UART_READER.c ****             /* This is a blocking function, it will not exit until all data is sent */
1153:.\Generated_Source\PSoC5/UART_READER.c ****             while(string[bufIndex] != (char8) 0)
 994              		.loc 1 1153 0
 995 0014 09E0     		b	.L72
 996              	.L73:
1154:.\Generated_Source\PSoC5/UART_READER.c ****             {
1155:.\Generated_Source\PSoC5/UART_READER.c ****                 UART_READER_PutChar((uint8)string[bufIndex]);
 997              		.loc 1 1155 0
 998 0016 FB89     		ldrh	r3, [r7, #14]
 999 0018 7A68     		ldr	r2, [r7, #4]
 1000 001a 1344     		add	r3, r3, r2
 1001 001c 1B78     		ldrb	r3, [r3]	@ zero_extendqisi2
 1002 001e 1846     		mov	r0, r3
 1003 0020 FFF7FEFF 		bl	UART_READER_PutChar
1156:.\Generated_Source\PSoC5/UART_READER.c ****                 bufIndex++;
 1004              		.loc 1 1156 0
 1005 0024 FB89     		ldrh	r3, [r7, #14]
 1006 0026 0133     		adds	r3, r3, #1
 1007 0028 FB81     		strh	r3, [r7, #14]	@ movhi
 1008              	.L72:
1153:.\Generated_Source\PSoC5/UART_READER.c ****             {
ARM GAS  C:\Users\yqh\AppData\Local\Temp\ccpJxCTG.s 			page 39


 1009              		.loc 1 1153 0
 1010 002a FB89     		ldrh	r3, [r7, #14]
 1011 002c 7A68     		ldr	r2, [r7, #4]
 1012 002e 1344     		add	r3, r3, r2
 1013 0030 1B78     		ldrb	r3, [r3]	@ zero_extendqisi2
 1014 0032 002B     		cmp	r3, #0
 1015 0034 EFD1     		bne	.L73
 1016              	.L70:
1157:.\Generated_Source\PSoC5/UART_READER.c ****             }
1158:.\Generated_Source\PSoC5/UART_READER.c ****         }
1159:.\Generated_Source\PSoC5/UART_READER.c ****     }
 1017              		.loc 1 1159 0
 1018 0036 1037     		adds	r7, r7, #16
 1019              		.cfi_def_cfa_offset 8
 1020 0038 BD46     		mov	sp, r7
 1021              		.cfi_def_cfa_register 13
 1022              		@ sp needed
 1023 003a 80BD     		pop	{r7, pc}
 1024              	.L75:
 1025              		.align	2
 1026              	.L74:
 1027 003c 00000000 		.word	UART_READER_initVar
 1028              		.cfi_endproc
 1029              	.LFE20:
 1030              		.size	UART_READER_PutString, .-UART_READER_PutString
 1031              		.section	.text.UART_READER_PutArray,"ax",%progbits
 1032              		.align	2
 1033              		.global	UART_READER_PutArray
 1034              		.thumb
 1035              		.thumb_func
 1036              		.type	UART_READER_PutArray, %function
 1037              	UART_READER_PutArray:
 1038              	.LFB21:
1160:.\Generated_Source\PSoC5/UART_READER.c **** 
1161:.\Generated_Source\PSoC5/UART_READER.c **** 
1162:.\Generated_Source\PSoC5/UART_READER.c ****     /*******************************************************************************
1163:.\Generated_Source\PSoC5/UART_READER.c ****     * Function Name: UART_READER_PutArray
1164:.\Generated_Source\PSoC5/UART_READER.c ****     ********************************************************************************
1165:.\Generated_Source\PSoC5/UART_READER.c ****     *
1166:.\Generated_Source\PSoC5/UART_READER.c ****     * Summary:
1167:.\Generated_Source\PSoC5/UART_READER.c ****     *  Places N bytes of data from a memory array into the TX buffer for
1168:.\Generated_Source\PSoC5/UART_READER.c ****     *  transmission.
1169:.\Generated_Source\PSoC5/UART_READER.c ****     *
1170:.\Generated_Source\PSoC5/UART_READER.c ****     * Parameters:
1171:.\Generated_Source\PSoC5/UART_READER.c ****     *  string[]: Address of the memory array residing in RAM or ROM.
1172:.\Generated_Source\PSoC5/UART_READER.c ****     *  byteCount: Number of bytes to be transmitted. The type depends on TX Buffer
1173:.\Generated_Source\PSoC5/UART_READER.c ****     *             Size parameter.
1174:.\Generated_Source\PSoC5/UART_READER.c ****     *
1175:.\Generated_Source\PSoC5/UART_READER.c ****     * Return:
1176:.\Generated_Source\PSoC5/UART_READER.c ****     *  None.
1177:.\Generated_Source\PSoC5/UART_READER.c ****     *
1178:.\Generated_Source\PSoC5/UART_READER.c ****     * Global Variables:
1179:.\Generated_Source\PSoC5/UART_READER.c ****     *  UART_READER_initVar - checked to identify that the component has been
1180:.\Generated_Source\PSoC5/UART_READER.c ****     *     initialized.
1181:.\Generated_Source\PSoC5/UART_READER.c ****     *
1182:.\Generated_Source\PSoC5/UART_READER.c ****     * Reentrant:
1183:.\Generated_Source\PSoC5/UART_READER.c ****     *  No.
ARM GAS  C:\Users\yqh\AppData\Local\Temp\ccpJxCTG.s 			page 40


1184:.\Generated_Source\PSoC5/UART_READER.c ****     *
1185:.\Generated_Source\PSoC5/UART_READER.c ****     * Theory:
1186:.\Generated_Source\PSoC5/UART_READER.c ****     *  If there is not enough memory in the TX buffer for the entire string, this
1187:.\Generated_Source\PSoC5/UART_READER.c ****     *  function blocks until the last character of the string is loaded into the
1188:.\Generated_Source\PSoC5/UART_READER.c ****     *  TX buffer.
1189:.\Generated_Source\PSoC5/UART_READER.c ****     *
1190:.\Generated_Source\PSoC5/UART_READER.c ****     *******************************************************************************/
1191:.\Generated_Source\PSoC5/UART_READER.c ****     void UART_READER_PutArray(const uint8 string[], uint8 byteCount)
1192:.\Generated_Source\PSoC5/UART_READER.c ****                                                                     
1193:.\Generated_Source\PSoC5/UART_READER.c ****     {
 1039              		.loc 1 1193 0
 1040              		.cfi_startproc
 1041              		@ args = 0, pretend = 0, frame = 16
 1042              		@ frame_needed = 1, uses_anonymous_args = 0
 1043 0000 80B5     		push	{r7, lr}
 1044              		.cfi_def_cfa_offset 8
 1045              		.cfi_offset 7, -8
 1046              		.cfi_offset 14, -4
 1047 0002 84B0     		sub	sp, sp, #16
 1048              		.cfi_def_cfa_offset 24
 1049 0004 00AF     		add	r7, sp, #0
 1050              		.cfi_def_cfa_register 7
 1051 0006 7860     		str	r0, [r7, #4]
 1052 0008 0B46     		mov	r3, r1
 1053 000a FB70     		strb	r3, [r7, #3]
1194:.\Generated_Source\PSoC5/UART_READER.c ****         uint8 bufIndex = 0u;
 1054              		.loc 1 1194 0
 1055 000c 0023     		movs	r3, #0
 1056 000e FB73     		strb	r3, [r7, #15]
1195:.\Generated_Source\PSoC5/UART_READER.c **** 
1196:.\Generated_Source\PSoC5/UART_READER.c ****         /* If not Initialized then skip this function */
1197:.\Generated_Source\PSoC5/UART_READER.c ****         if(UART_READER_initVar != 0u)
 1057              		.loc 1 1197 0
 1058 0010 0A4B     		ldr	r3, .L80
 1059 0012 1B78     		ldrb	r3, [r3]	@ zero_extendqisi2
 1060 0014 002B     		cmp	r3, #0
 1061 0016 0ED0     		beq	.L76
1198:.\Generated_Source\PSoC5/UART_READER.c ****         {
1199:.\Generated_Source\PSoC5/UART_READER.c ****             while(bufIndex < byteCount)
 1062              		.loc 1 1199 0
 1063 0018 09E0     		b	.L78
 1064              	.L79:
1200:.\Generated_Source\PSoC5/UART_READER.c ****             {
1201:.\Generated_Source\PSoC5/UART_READER.c ****                 UART_READER_PutChar(string[bufIndex]);
 1065              		.loc 1 1201 0
 1066 001a FB7B     		ldrb	r3, [r7, #15]	@ zero_extendqisi2
 1067 001c 7A68     		ldr	r2, [r7, #4]
 1068 001e 1344     		add	r3, r3, r2
 1069 0020 1B78     		ldrb	r3, [r3]	@ zero_extendqisi2
 1070 0022 1846     		mov	r0, r3
 1071 0024 FFF7FEFF 		bl	UART_READER_PutChar
1202:.\Generated_Source\PSoC5/UART_READER.c ****                 bufIndex++;
 1072              		.loc 1 1202 0
 1073 0028 FB7B     		ldrb	r3, [r7, #15]	@ zero_extendqisi2
 1074 002a 0133     		adds	r3, r3, #1
 1075 002c FB73     		strb	r3, [r7, #15]
 1076              	.L78:
ARM GAS  C:\Users\yqh\AppData\Local\Temp\ccpJxCTG.s 			page 41


1199:.\Generated_Source\PSoC5/UART_READER.c ****             {
 1077              		.loc 1 1199 0
 1078 002e FA7B     		ldrb	r2, [r7, #15]	@ zero_extendqisi2
 1079 0030 FB78     		ldrb	r3, [r7, #3]	@ zero_extendqisi2
 1080 0032 9A42     		cmp	r2, r3
 1081 0034 F1D3     		bcc	.L79
 1082              	.L76:
1203:.\Generated_Source\PSoC5/UART_READER.c ****             }
1204:.\Generated_Source\PSoC5/UART_READER.c ****         }
1205:.\Generated_Source\PSoC5/UART_READER.c ****     }
 1083              		.loc 1 1205 0
 1084 0036 1037     		adds	r7, r7, #16
 1085              		.cfi_def_cfa_offset 8
 1086 0038 BD46     		mov	sp, r7
 1087              		.cfi_def_cfa_register 13
 1088              		@ sp needed
 1089 003a 80BD     		pop	{r7, pc}
 1090              	.L81:
 1091              		.align	2
 1092              	.L80:
 1093 003c 00000000 		.word	UART_READER_initVar
 1094              		.cfi_endproc
 1095              	.LFE21:
 1096              		.size	UART_READER_PutArray, .-UART_READER_PutArray
 1097              		.section	.text.UART_READER_PutCRLF,"ax",%progbits
 1098              		.align	2
 1099              		.global	UART_READER_PutCRLF
 1100              		.thumb
 1101              		.thumb_func
 1102              		.type	UART_READER_PutCRLF, %function
 1103              	UART_READER_PutCRLF:
 1104              	.LFB22:
1206:.\Generated_Source\PSoC5/UART_READER.c **** 
1207:.\Generated_Source\PSoC5/UART_READER.c **** 
1208:.\Generated_Source\PSoC5/UART_READER.c ****     /*******************************************************************************
1209:.\Generated_Source\PSoC5/UART_READER.c ****     * Function Name: UART_READER_PutCRLF
1210:.\Generated_Source\PSoC5/UART_READER.c ****     ********************************************************************************
1211:.\Generated_Source\PSoC5/UART_READER.c ****     *
1212:.\Generated_Source\PSoC5/UART_READER.c ****     * Summary:
1213:.\Generated_Source\PSoC5/UART_READER.c ****     *  Writes a byte of data followed by a carriage return (0x0D) and line feed
1214:.\Generated_Source\PSoC5/UART_READER.c ****     *  (0x0A) to the transmit buffer.
1215:.\Generated_Source\PSoC5/UART_READER.c ****     *
1216:.\Generated_Source\PSoC5/UART_READER.c ****     * Parameters:
1217:.\Generated_Source\PSoC5/UART_READER.c ****     *  txDataByte: Data byte to transmit before the carriage return and line feed.
1218:.\Generated_Source\PSoC5/UART_READER.c ****     *
1219:.\Generated_Source\PSoC5/UART_READER.c ****     * Return:
1220:.\Generated_Source\PSoC5/UART_READER.c ****     *  None.
1221:.\Generated_Source\PSoC5/UART_READER.c ****     *
1222:.\Generated_Source\PSoC5/UART_READER.c ****     * Global Variables:
1223:.\Generated_Source\PSoC5/UART_READER.c ****     *  UART_READER_initVar - checked to identify that the component has been
1224:.\Generated_Source\PSoC5/UART_READER.c ****     *     initialized.
1225:.\Generated_Source\PSoC5/UART_READER.c ****     *
1226:.\Generated_Source\PSoC5/UART_READER.c ****     * Reentrant:
1227:.\Generated_Source\PSoC5/UART_READER.c ****     *  No.
1228:.\Generated_Source\PSoC5/UART_READER.c ****     *
1229:.\Generated_Source\PSoC5/UART_READER.c ****     *******************************************************************************/
1230:.\Generated_Source\PSoC5/UART_READER.c ****     void UART_READER_PutCRLF(uint8 txDataByte) 
ARM GAS  C:\Users\yqh\AppData\Local\Temp\ccpJxCTG.s 			page 42


1231:.\Generated_Source\PSoC5/UART_READER.c ****     {
 1105              		.loc 1 1231 0
 1106              		.cfi_startproc
 1107              		@ args = 0, pretend = 0, frame = 8
 1108              		@ frame_needed = 1, uses_anonymous_args = 0
 1109 0000 80B5     		push	{r7, lr}
 1110              		.cfi_def_cfa_offset 8
 1111              		.cfi_offset 7, -8
 1112              		.cfi_offset 14, -4
 1113 0002 82B0     		sub	sp, sp, #8
 1114              		.cfi_def_cfa_offset 16
 1115 0004 00AF     		add	r7, sp, #0
 1116              		.cfi_def_cfa_register 7
 1117 0006 0346     		mov	r3, r0
 1118 0008 FB71     		strb	r3, [r7, #7]
1232:.\Generated_Source\PSoC5/UART_READER.c ****         /* If not Initialized then skip this function */
1233:.\Generated_Source\PSoC5/UART_READER.c ****         if(UART_READER_initVar != 0u)
 1119              		.loc 1 1233 0
 1120 000a 084B     		ldr	r3, .L84
 1121 000c 1B78     		ldrb	r3, [r3]	@ zero_extendqisi2
 1122 000e 002B     		cmp	r3, #0
 1123 0010 09D0     		beq	.L82
1234:.\Generated_Source\PSoC5/UART_READER.c ****         {
1235:.\Generated_Source\PSoC5/UART_READER.c ****             UART_READER_PutChar(txDataByte);
 1124              		.loc 1 1235 0
 1125 0012 FB79     		ldrb	r3, [r7, #7]	@ zero_extendqisi2
 1126 0014 1846     		mov	r0, r3
 1127 0016 FFF7FEFF 		bl	UART_READER_PutChar
1236:.\Generated_Source\PSoC5/UART_READER.c ****             UART_READER_PutChar(0x0Du);
 1128              		.loc 1 1236 0
 1129 001a 0D20     		movs	r0, #13
 1130 001c FFF7FEFF 		bl	UART_READER_PutChar
1237:.\Generated_Source\PSoC5/UART_READER.c ****             UART_READER_PutChar(0x0Au);
 1131              		.loc 1 1237 0
 1132 0020 0A20     		movs	r0, #10
 1133 0022 FFF7FEFF 		bl	UART_READER_PutChar
 1134              	.L82:
1238:.\Generated_Source\PSoC5/UART_READER.c ****         }
1239:.\Generated_Source\PSoC5/UART_READER.c ****     }
 1135              		.loc 1 1239 0
 1136 0026 0837     		adds	r7, r7, #8
 1137              		.cfi_def_cfa_offset 8
 1138 0028 BD46     		mov	sp, r7
 1139              		.cfi_def_cfa_register 13
 1140              		@ sp needed
 1141 002a 80BD     		pop	{r7, pc}
 1142              	.L85:
 1143              		.align	2
 1144              	.L84:
 1145 002c 00000000 		.word	UART_READER_initVar
 1146              		.cfi_endproc
 1147              	.LFE22:
 1148              		.size	UART_READER_PutCRLF, .-UART_READER_PutCRLF
 1149              		.section	.text.UART_READER_GetTxBufferSize,"ax",%progbits
 1150              		.align	2
 1151              		.global	UART_READER_GetTxBufferSize
 1152              		.thumb
ARM GAS  C:\Users\yqh\AppData\Local\Temp\ccpJxCTG.s 			page 43


 1153              		.thumb_func
 1154              		.type	UART_READER_GetTxBufferSize, %function
 1155              	UART_READER_GetTxBufferSize:
 1156              	.LFB23:
1240:.\Generated_Source\PSoC5/UART_READER.c **** 
1241:.\Generated_Source\PSoC5/UART_READER.c **** 
1242:.\Generated_Source\PSoC5/UART_READER.c ****     /*******************************************************************************
1243:.\Generated_Source\PSoC5/UART_READER.c ****     * Function Name: UART_READER_GetTxBufferSize
1244:.\Generated_Source\PSoC5/UART_READER.c ****     ********************************************************************************
1245:.\Generated_Source\PSoC5/UART_READER.c ****     *
1246:.\Generated_Source\PSoC5/UART_READER.c ****     * Summary:
1247:.\Generated_Source\PSoC5/UART_READER.c ****     *  Returns the number of bytes in the TX buffer which are waiting to be 
1248:.\Generated_Source\PSoC5/UART_READER.c ****     *  transmitted.
1249:.\Generated_Source\PSoC5/UART_READER.c ****     *  * TX software buffer is disabled (TX Buffer Size parameter is equal to 4): 
1250:.\Generated_Source\PSoC5/UART_READER.c ****     *    returns 0 for empty TX FIFO, 1 for not full TX FIFO or 4 for full TX FIFO.
1251:.\Generated_Source\PSoC5/UART_READER.c ****     *  * TX software buffer is enabled: returns the number of bytes in the TX 
1252:.\Generated_Source\PSoC5/UART_READER.c ****     *    software buffer which are waiting to be transmitted. Bytes available in the
1253:.\Generated_Source\PSoC5/UART_READER.c ****     *    TX FIFO do not count.
1254:.\Generated_Source\PSoC5/UART_READER.c ****     *
1255:.\Generated_Source\PSoC5/UART_READER.c ****     * Parameters:
1256:.\Generated_Source\PSoC5/UART_READER.c ****     *  None.
1257:.\Generated_Source\PSoC5/UART_READER.c ****     *
1258:.\Generated_Source\PSoC5/UART_READER.c ****     * Return:
1259:.\Generated_Source\PSoC5/UART_READER.c ****     *  Number of bytes used in the TX buffer. Return value type depends on the TX 
1260:.\Generated_Source\PSoC5/UART_READER.c ****     *  Buffer Size parameter.
1261:.\Generated_Source\PSoC5/UART_READER.c ****     *
1262:.\Generated_Source\PSoC5/UART_READER.c ****     * Global Variables:
1263:.\Generated_Source\PSoC5/UART_READER.c ****     *  UART_READER_txBufferWrite - used to calculate left space.
1264:.\Generated_Source\PSoC5/UART_READER.c ****     *  UART_READER_txBufferRead - used to calculate left space.
1265:.\Generated_Source\PSoC5/UART_READER.c ****     *
1266:.\Generated_Source\PSoC5/UART_READER.c ****     * Reentrant:
1267:.\Generated_Source\PSoC5/UART_READER.c ****     *  No.
1268:.\Generated_Source\PSoC5/UART_READER.c ****     *
1269:.\Generated_Source\PSoC5/UART_READER.c ****     * Theory:
1270:.\Generated_Source\PSoC5/UART_READER.c ****     *  Allows the user to find out how full the TX Buffer is.
1271:.\Generated_Source\PSoC5/UART_READER.c ****     *
1272:.\Generated_Source\PSoC5/UART_READER.c ****     *******************************************************************************/
1273:.\Generated_Source\PSoC5/UART_READER.c ****     uint8 UART_READER_GetTxBufferSize(void)
1274:.\Generated_Source\PSoC5/UART_READER.c ****                                                             
1275:.\Generated_Source\PSoC5/UART_READER.c ****     {
 1157              		.loc 1 1275 0
 1158              		.cfi_startproc
 1159              		@ args = 0, pretend = 0, frame = 8
 1160              		@ frame_needed = 1, uses_anonymous_args = 0
 1161              		@ link register save eliminated.
 1162 0000 80B4     		push	{r7}
 1163              		.cfi_def_cfa_offset 4
 1164              		.cfi_offset 7, -4
 1165 0002 83B0     		sub	sp, sp, #12
 1166              		.cfi_def_cfa_offset 16
 1167 0004 00AF     		add	r7, sp, #0
 1168              		.cfi_def_cfa_register 7
1276:.\Generated_Source\PSoC5/UART_READER.c ****         uint8 size;
1277:.\Generated_Source\PSoC5/UART_READER.c **** 
1278:.\Generated_Source\PSoC5/UART_READER.c ****     #if (UART_READER_TX_INTERRUPT_ENABLED)
1279:.\Generated_Source\PSoC5/UART_READER.c **** 
1280:.\Generated_Source\PSoC5/UART_READER.c ****         /* Protect variables that could change on interrupt. */
ARM GAS  C:\Users\yqh\AppData\Local\Temp\ccpJxCTG.s 			page 44


1281:.\Generated_Source\PSoC5/UART_READER.c ****         UART_READER_DisableTxInt();
1282:.\Generated_Source\PSoC5/UART_READER.c **** 
1283:.\Generated_Source\PSoC5/UART_READER.c ****         if(UART_READER_txBufferRead == UART_READER_txBufferWrite)
1284:.\Generated_Source\PSoC5/UART_READER.c ****         {
1285:.\Generated_Source\PSoC5/UART_READER.c ****             size = 0u;
1286:.\Generated_Source\PSoC5/UART_READER.c ****         }
1287:.\Generated_Source\PSoC5/UART_READER.c ****         else if(UART_READER_txBufferRead < UART_READER_txBufferWrite)
1288:.\Generated_Source\PSoC5/UART_READER.c ****         {
1289:.\Generated_Source\PSoC5/UART_READER.c ****             size = (UART_READER_txBufferWrite - UART_READER_txBufferRead);
1290:.\Generated_Source\PSoC5/UART_READER.c ****         }
1291:.\Generated_Source\PSoC5/UART_READER.c ****         else
1292:.\Generated_Source\PSoC5/UART_READER.c ****         {
1293:.\Generated_Source\PSoC5/UART_READER.c ****             size = (UART_READER_TX_BUFFER_SIZE - UART_READER_txBufferRead) +
1294:.\Generated_Source\PSoC5/UART_READER.c ****                     UART_READER_txBufferWrite;
1295:.\Generated_Source\PSoC5/UART_READER.c ****         }
1296:.\Generated_Source\PSoC5/UART_READER.c **** 
1297:.\Generated_Source\PSoC5/UART_READER.c ****         UART_READER_EnableTxInt();
1298:.\Generated_Source\PSoC5/UART_READER.c **** 
1299:.\Generated_Source\PSoC5/UART_READER.c ****     #else
1300:.\Generated_Source\PSoC5/UART_READER.c **** 
1301:.\Generated_Source\PSoC5/UART_READER.c ****         size = UART_READER_TXSTATUS_REG;
 1169              		.loc 1 1301 0
 1170 0006 0E4B     		ldr	r3, .L91
 1171 0008 1B78     		ldrb	r3, [r3]
 1172 000a FB71     		strb	r3, [r7, #7]
1302:.\Generated_Source\PSoC5/UART_READER.c **** 
1303:.\Generated_Source\PSoC5/UART_READER.c ****         /* Is the fifo is full. */
1304:.\Generated_Source\PSoC5/UART_READER.c ****         if((size & UART_READER_TX_STS_FIFO_FULL) != 0u)
 1173              		.loc 1 1304 0
 1174 000c FB79     		ldrb	r3, [r7, #7]	@ zero_extendqisi2
 1175 000e 03F02003 		and	r3, r3, #32
 1176 0012 002B     		cmp	r3, #0
 1177 0014 02D0     		beq	.L87
1305:.\Generated_Source\PSoC5/UART_READER.c ****         {
1306:.\Generated_Source\PSoC5/UART_READER.c ****             size = UART_READER_FIFO_LENGTH;
 1178              		.loc 1 1306 0
 1179 0016 0423     		movs	r3, #4
 1180 0018 FB71     		strb	r3, [r7, #7]
 1181 001a 09E0     		b	.L88
 1182              	.L87:
1307:.\Generated_Source\PSoC5/UART_READER.c ****         }
1308:.\Generated_Source\PSoC5/UART_READER.c ****         else if((size & UART_READER_TX_STS_FIFO_EMPTY) != 0u)
 1183              		.loc 1 1308 0
 1184 001c FB79     		ldrb	r3, [r7, #7]	@ zero_extendqisi2
 1185 001e 03F00203 		and	r3, r3, #2
 1186 0022 002B     		cmp	r3, #0
 1187 0024 02D0     		beq	.L89
1309:.\Generated_Source\PSoC5/UART_READER.c ****         {
1310:.\Generated_Source\PSoC5/UART_READER.c ****             size = 0u;
 1188              		.loc 1 1310 0
 1189 0026 0023     		movs	r3, #0
 1190 0028 FB71     		strb	r3, [r7, #7]
 1191 002a 01E0     		b	.L88
 1192              	.L89:
1311:.\Generated_Source\PSoC5/UART_READER.c ****         }
1312:.\Generated_Source\PSoC5/UART_READER.c ****         else
1313:.\Generated_Source\PSoC5/UART_READER.c ****         {
ARM GAS  C:\Users\yqh\AppData\Local\Temp\ccpJxCTG.s 			page 45


1314:.\Generated_Source\PSoC5/UART_READER.c ****             /* We only know there is data in the fifo. */
1315:.\Generated_Source\PSoC5/UART_READER.c ****             size = 1u;
 1193              		.loc 1 1315 0
 1194 002c 0123     		movs	r3, #1
 1195 002e FB71     		strb	r3, [r7, #7]
 1196              	.L88:
1316:.\Generated_Source\PSoC5/UART_READER.c ****         }
1317:.\Generated_Source\PSoC5/UART_READER.c **** 
1318:.\Generated_Source\PSoC5/UART_READER.c ****     #endif /* (UART_READER_TX_INTERRUPT_ENABLED) */
1319:.\Generated_Source\PSoC5/UART_READER.c **** 
1320:.\Generated_Source\PSoC5/UART_READER.c ****     return(size);
 1197              		.loc 1 1320 0
 1198 0030 FB79     		ldrb	r3, [r7, #7]	@ zero_extendqisi2
1321:.\Generated_Source\PSoC5/UART_READER.c ****     }
 1199              		.loc 1 1321 0
 1200 0032 1846     		mov	r0, r3
 1201 0034 0C37     		adds	r7, r7, #12
 1202              		.cfi_def_cfa_offset 4
 1203 0036 BD46     		mov	sp, r7
 1204              		.cfi_def_cfa_register 13
 1205              		@ sp needed
 1206 0038 5DF8047B 		ldr	r7, [sp], #4
 1207              		.cfi_restore 7
 1208              		.cfi_def_cfa_offset 0
 1209 003c 7047     		bx	lr
 1210              	.L92:
 1211 003e 00BF     		.align	2
 1212              	.L91:
 1213 0040 68650040 		.word	1073767784
 1214              		.cfi_endproc
 1215              	.LFE23:
 1216              		.size	UART_READER_GetTxBufferSize, .-UART_READER_GetTxBufferSize
 1217              		.section	.text.UART_READER_ClearTxBuffer,"ax",%progbits
 1218              		.align	2
 1219              		.global	UART_READER_ClearTxBuffer
 1220              		.thumb
 1221              		.thumb_func
 1222              		.type	UART_READER_ClearTxBuffer, %function
 1223              	UART_READER_ClearTxBuffer:
 1224              	.LFB24:
1322:.\Generated_Source\PSoC5/UART_READER.c **** 
1323:.\Generated_Source\PSoC5/UART_READER.c **** 
1324:.\Generated_Source\PSoC5/UART_READER.c ****     /*******************************************************************************
1325:.\Generated_Source\PSoC5/UART_READER.c ****     * Function Name: UART_READER_ClearTxBuffer
1326:.\Generated_Source\PSoC5/UART_READER.c ****     ********************************************************************************
1327:.\Generated_Source\PSoC5/UART_READER.c ****     *
1328:.\Generated_Source\PSoC5/UART_READER.c ****     * Summary:
1329:.\Generated_Source\PSoC5/UART_READER.c ****     *  Clears all data from the TX buffer and hardware TX FIFO.
1330:.\Generated_Source\PSoC5/UART_READER.c ****     *
1331:.\Generated_Source\PSoC5/UART_READER.c ****     * Parameters:
1332:.\Generated_Source\PSoC5/UART_READER.c ****     *  None.
1333:.\Generated_Source\PSoC5/UART_READER.c ****     *
1334:.\Generated_Source\PSoC5/UART_READER.c ****     * Return:
1335:.\Generated_Source\PSoC5/UART_READER.c ****     *  None.
1336:.\Generated_Source\PSoC5/UART_READER.c ****     *
1337:.\Generated_Source\PSoC5/UART_READER.c ****     * Global Variables:
1338:.\Generated_Source\PSoC5/UART_READER.c ****     *  UART_READER_txBufferWrite - cleared to zero.
ARM GAS  C:\Users\yqh\AppData\Local\Temp\ccpJxCTG.s 			page 46


1339:.\Generated_Source\PSoC5/UART_READER.c ****     *  UART_READER_txBufferRead - cleared to zero.
1340:.\Generated_Source\PSoC5/UART_READER.c ****     *
1341:.\Generated_Source\PSoC5/UART_READER.c ****     * Reentrant:
1342:.\Generated_Source\PSoC5/UART_READER.c ****     *  No.
1343:.\Generated_Source\PSoC5/UART_READER.c ****     *
1344:.\Generated_Source\PSoC5/UART_READER.c ****     * Theory:
1345:.\Generated_Source\PSoC5/UART_READER.c ****     *  Setting the pointers to zero makes the system believe there is no data to
1346:.\Generated_Source\PSoC5/UART_READER.c ****     *  read and writing will resume at address 0 overwriting any data that may have
1347:.\Generated_Source\PSoC5/UART_READER.c ****     *  remained in the RAM.
1348:.\Generated_Source\PSoC5/UART_READER.c ****     *
1349:.\Generated_Source\PSoC5/UART_READER.c ****     * Side Effects:
1350:.\Generated_Source\PSoC5/UART_READER.c ****     *  Data waiting in the transmit buffer is not sent; a byte that is currently
1351:.\Generated_Source\PSoC5/UART_READER.c ****     *  transmitting finishes transmitting.
1352:.\Generated_Source\PSoC5/UART_READER.c ****     *
1353:.\Generated_Source\PSoC5/UART_READER.c ****     *******************************************************************************/
1354:.\Generated_Source\PSoC5/UART_READER.c ****     void UART_READER_ClearTxBuffer(void) 
1355:.\Generated_Source\PSoC5/UART_READER.c ****     {
 1225              		.loc 1 1355 0
 1226              		.cfi_startproc
 1227              		@ args = 0, pretend = 0, frame = 8
 1228              		@ frame_needed = 1, uses_anonymous_args = 0
 1229 0000 80B5     		push	{r7, lr}
 1230              		.cfi_def_cfa_offset 8
 1231              		.cfi_offset 7, -8
 1232              		.cfi_offset 14, -4
 1233 0002 82B0     		sub	sp, sp, #8
 1234              		.cfi_def_cfa_offset 16
 1235 0004 00AF     		add	r7, sp, #0
 1236              		.cfi_def_cfa_register 7
1356:.\Generated_Source\PSoC5/UART_READER.c ****         uint8 enableInterrupts;
1357:.\Generated_Source\PSoC5/UART_READER.c **** 
1358:.\Generated_Source\PSoC5/UART_READER.c ****         enableInterrupts = CyEnterCriticalSection();
 1237              		.loc 1 1358 0
 1238 0006 FFF7FEFF 		bl	CyEnterCriticalSection
 1239 000a 0346     		mov	r3, r0
 1240 000c FB71     		strb	r3, [r7, #7]
1359:.\Generated_Source\PSoC5/UART_READER.c ****         /* Clear the HW FIFO */
1360:.\Generated_Source\PSoC5/UART_READER.c ****         UART_READER_TXDATA_AUX_CTL_REG |= (uint8)  UART_READER_TX_FIFO_CLR;
 1241              		.loc 1 1360 0
 1242 000e 0B4A     		ldr	r2, .L94
 1243 0010 0A4B     		ldr	r3, .L94
 1244 0012 1B78     		ldrb	r3, [r3]
 1245 0014 DBB2     		uxtb	r3, r3
 1246 0016 43F00203 		orr	r3, r3, #2
 1247 001a DBB2     		uxtb	r3, r3
 1248 001c 1370     		strb	r3, [r2]
1361:.\Generated_Source\PSoC5/UART_READER.c ****         UART_READER_TXDATA_AUX_CTL_REG &= (uint8) ~UART_READER_TX_FIFO_CLR;
 1249              		.loc 1 1361 0
 1250 001e 074A     		ldr	r2, .L94
 1251 0020 064B     		ldr	r3, .L94
 1252 0022 1B78     		ldrb	r3, [r3]
 1253 0024 DBB2     		uxtb	r3, r3
 1254 0026 23F00203 		bic	r3, r3, #2
 1255 002a DBB2     		uxtb	r3, r3
 1256 002c 1370     		strb	r3, [r2]
1362:.\Generated_Source\PSoC5/UART_READER.c ****         CyExitCriticalSection(enableInterrupts);
 1257              		.loc 1 1362 0
ARM GAS  C:\Users\yqh\AppData\Local\Temp\ccpJxCTG.s 			page 47


 1258 002e FB79     		ldrb	r3, [r7, #7]	@ zero_extendqisi2
 1259 0030 1846     		mov	r0, r3
 1260 0032 FFF7FEFF 		bl	CyExitCriticalSection
1363:.\Generated_Source\PSoC5/UART_READER.c **** 
1364:.\Generated_Source\PSoC5/UART_READER.c ****     #if (UART_READER_TX_INTERRUPT_ENABLED)
1365:.\Generated_Source\PSoC5/UART_READER.c **** 
1366:.\Generated_Source\PSoC5/UART_READER.c ****         /* Protect variables that could change on interrupt. */
1367:.\Generated_Source\PSoC5/UART_READER.c ****         UART_READER_DisableTxInt();
1368:.\Generated_Source\PSoC5/UART_READER.c **** 
1369:.\Generated_Source\PSoC5/UART_READER.c ****         UART_READER_txBufferRead = 0u;
1370:.\Generated_Source\PSoC5/UART_READER.c ****         UART_READER_txBufferWrite = 0u;
1371:.\Generated_Source\PSoC5/UART_READER.c **** 
1372:.\Generated_Source\PSoC5/UART_READER.c ****         /* Enable Tx interrupt. */
1373:.\Generated_Source\PSoC5/UART_READER.c ****         UART_READER_EnableTxInt();
1374:.\Generated_Source\PSoC5/UART_READER.c **** 
1375:.\Generated_Source\PSoC5/UART_READER.c ****     #endif /* (UART_READER_TX_INTERRUPT_ENABLED) */
1376:.\Generated_Source\PSoC5/UART_READER.c ****     }
 1261              		.loc 1 1376 0
 1262 0036 0837     		adds	r7, r7, #8
 1263              		.cfi_def_cfa_offset 8
 1264 0038 BD46     		mov	sp, r7
 1265              		.cfi_def_cfa_register 13
 1266              		@ sp needed
 1267 003a 80BD     		pop	{r7, pc}
 1268              	.L95:
 1269              		.align	2
 1270              	.L94:
 1271 003c 98650040 		.word	1073767832
 1272              		.cfi_endproc
 1273              	.LFE24:
 1274              		.size	UART_READER_ClearTxBuffer, .-UART_READER_ClearTxBuffer
 1275              		.section	.text.UART_READER_SendBreak,"ax",%progbits
 1276              		.align	2
 1277              		.global	UART_READER_SendBreak
 1278              		.thumb
 1279              		.thumb_func
 1280              		.type	UART_READER_SendBreak, %function
 1281              	UART_READER_SendBreak:
 1282              	.LFB25:
1377:.\Generated_Source\PSoC5/UART_READER.c **** 
1378:.\Generated_Source\PSoC5/UART_READER.c **** 
1379:.\Generated_Source\PSoC5/UART_READER.c ****     /*******************************************************************************
1380:.\Generated_Source\PSoC5/UART_READER.c ****     * Function Name: UART_READER_SendBreak
1381:.\Generated_Source\PSoC5/UART_READER.c ****     ********************************************************************************
1382:.\Generated_Source\PSoC5/UART_READER.c ****     *
1383:.\Generated_Source\PSoC5/UART_READER.c ****     * Summary:
1384:.\Generated_Source\PSoC5/UART_READER.c ****     *  Transmits a break signal on the bus.
1385:.\Generated_Source\PSoC5/UART_READER.c ****     *
1386:.\Generated_Source\PSoC5/UART_READER.c ****     * Parameters:
1387:.\Generated_Source\PSoC5/UART_READER.c ****     *  uint8 retMode:  Send Break return mode. See the following table for options.
1388:.\Generated_Source\PSoC5/UART_READER.c ****     *   UART_READER_SEND_BREAK - Initialize registers for break, send the Break
1389:.\Generated_Source\PSoC5/UART_READER.c ****     *       signal and return immediately.
1390:.\Generated_Source\PSoC5/UART_READER.c ****     *   UART_READER_WAIT_FOR_COMPLETE_REINIT - Wait until break transmission is
1391:.\Generated_Source\PSoC5/UART_READER.c ****     *       complete, reinitialize registers to normal transmission mode then return
1392:.\Generated_Source\PSoC5/UART_READER.c ****     *   UART_READER_REINIT - Reinitialize registers to normal transmission mode
1393:.\Generated_Source\PSoC5/UART_READER.c ****     *       then return.
1394:.\Generated_Source\PSoC5/UART_READER.c ****     *   UART_READER_SEND_WAIT_REINIT - Performs both options: 
ARM GAS  C:\Users\yqh\AppData\Local\Temp\ccpJxCTG.s 			page 48


1395:.\Generated_Source\PSoC5/UART_READER.c ****     *      UART_READER_SEND_BREAK and UART_READER_WAIT_FOR_COMPLETE_REINIT.
1396:.\Generated_Source\PSoC5/UART_READER.c ****     *      This option is recommended for most cases.
1397:.\Generated_Source\PSoC5/UART_READER.c ****     *
1398:.\Generated_Source\PSoC5/UART_READER.c ****     * Return:
1399:.\Generated_Source\PSoC5/UART_READER.c ****     *  None.
1400:.\Generated_Source\PSoC5/UART_READER.c ****     *
1401:.\Generated_Source\PSoC5/UART_READER.c ****     * Global Variables:
1402:.\Generated_Source\PSoC5/UART_READER.c ****     *  UART_READER_initVar - checked to identify that the component has been
1403:.\Generated_Source\PSoC5/UART_READER.c ****     *     initialized.
1404:.\Generated_Source\PSoC5/UART_READER.c ****     *  txPeriod - static variable, used for keeping TX period configuration.
1405:.\Generated_Source\PSoC5/UART_READER.c ****     *
1406:.\Generated_Source\PSoC5/UART_READER.c ****     * Reentrant:
1407:.\Generated_Source\PSoC5/UART_READER.c ****     *  No.
1408:.\Generated_Source\PSoC5/UART_READER.c ****     *
1409:.\Generated_Source\PSoC5/UART_READER.c ****     * Theory:
1410:.\Generated_Source\PSoC5/UART_READER.c ****     *  SendBreak function initializes registers to send 13-bit break signal. It is
1411:.\Generated_Source\PSoC5/UART_READER.c ****     *  important to return the registers configuration to normal for continue 8-bit
1412:.\Generated_Source\PSoC5/UART_READER.c ****     *  operation.
1413:.\Generated_Source\PSoC5/UART_READER.c ****     *  There are 3 variants for this API usage:
1414:.\Generated_Source\PSoC5/UART_READER.c ****     *  1) SendBreak(3) - function will send the Break signal and take care on the
1415:.\Generated_Source\PSoC5/UART_READER.c ****     *     configuration returning. Function will block CPU until transmission
1416:.\Generated_Source\PSoC5/UART_READER.c ****     *     complete.
1417:.\Generated_Source\PSoC5/UART_READER.c ****     *  2) User may want to use blocking time if UART configured to the low speed
1418:.\Generated_Source\PSoC5/UART_READER.c ****     *     operation
1419:.\Generated_Source\PSoC5/UART_READER.c ****     *     Example for this case:
1420:.\Generated_Source\PSoC5/UART_READER.c ****     *     SendBreak(0);     - initialize Break signal transmission
1421:.\Generated_Source\PSoC5/UART_READER.c ****     *         Add your code here to use CPU time
1422:.\Generated_Source\PSoC5/UART_READER.c ****     *     SendBreak(1);     - complete Break operation
1423:.\Generated_Source\PSoC5/UART_READER.c ****     *  3) Same to 2) but user may want to initialize and use the interrupt to
1424:.\Generated_Source\PSoC5/UART_READER.c ****     *     complete break operation.
1425:.\Generated_Source\PSoC5/UART_READER.c ****     *     Example for this case:
1426:.\Generated_Source\PSoC5/UART_READER.c ****     *     Initialize TX interrupt with "TX - On TX Complete" parameter
1427:.\Generated_Source\PSoC5/UART_READER.c ****     *     SendBreak(0);     - initialize Break signal transmission
1428:.\Generated_Source\PSoC5/UART_READER.c ****     *         Add your code here to use CPU time
1429:.\Generated_Source\PSoC5/UART_READER.c ****     *     When interrupt appear with UART_READER_TX_STS_COMPLETE status:
1430:.\Generated_Source\PSoC5/UART_READER.c ****     *     SendBreak(2);     - complete Break operation
1431:.\Generated_Source\PSoC5/UART_READER.c ****     *
1432:.\Generated_Source\PSoC5/UART_READER.c ****     * Side Effects:
1433:.\Generated_Source\PSoC5/UART_READER.c ****     *  The UART_READER_SendBreak() function initializes registers to send a
1434:.\Generated_Source\PSoC5/UART_READER.c ****     *  break signal.
1435:.\Generated_Source\PSoC5/UART_READER.c ****     *  Break signal length depends on the break signal bits configuration.
1436:.\Generated_Source\PSoC5/UART_READER.c ****     *  The register configuration should be reinitialized before normal 8-bit
1437:.\Generated_Source\PSoC5/UART_READER.c ****     *  communication can continue.
1438:.\Generated_Source\PSoC5/UART_READER.c ****     *
1439:.\Generated_Source\PSoC5/UART_READER.c ****     *******************************************************************************/
1440:.\Generated_Source\PSoC5/UART_READER.c ****     void UART_READER_SendBreak(uint8 retMode) 
1441:.\Generated_Source\PSoC5/UART_READER.c ****     {
 1283              		.loc 1 1441 0
 1284              		.cfi_startproc
 1285              		@ args = 0, pretend = 0, frame = 16
 1286              		@ frame_needed = 1, uses_anonymous_args = 0
 1287 0000 80B5     		push	{r7, lr}
 1288              		.cfi_def_cfa_offset 8
 1289              		.cfi_offset 7, -8
 1290              		.cfi_offset 14, -4
 1291 0002 84B0     		sub	sp, sp, #16
 1292              		.cfi_def_cfa_offset 24
ARM GAS  C:\Users\yqh\AppData\Local\Temp\ccpJxCTG.s 			page 49


 1293 0004 00AF     		add	r7, sp, #0
 1294              		.cfi_def_cfa_register 7
 1295 0006 0346     		mov	r3, r0
 1296 0008 FB71     		strb	r3, [r7, #7]
1442:.\Generated_Source\PSoC5/UART_READER.c **** 
1443:.\Generated_Source\PSoC5/UART_READER.c ****         /* If not Initialized then skip this function*/
1444:.\Generated_Source\PSoC5/UART_READER.c ****         if(UART_READER_initVar != 0u)
 1297              		.loc 1 1444 0
 1298 000a 214B     		ldr	r3, .L104
 1299 000c 1B78     		ldrb	r3, [r3]	@ zero_extendqisi2
 1300 000e 002B     		cmp	r3, #0
 1301 0010 3BD0     		beq	.L96
 1302              	.LBB2:
1445:.\Generated_Source\PSoC5/UART_READER.c ****         {
1446:.\Generated_Source\PSoC5/UART_READER.c ****             /* Set the Counter to 13-bits and transmit a 00 byte */
1447:.\Generated_Source\PSoC5/UART_READER.c ****             /* When that is done then reset the counter value back */
1448:.\Generated_Source\PSoC5/UART_READER.c ****             uint8 tmpStat;
1449:.\Generated_Source\PSoC5/UART_READER.c **** 
1450:.\Generated_Source\PSoC5/UART_READER.c ****         #if(UART_READER_HD_ENABLED) /* Half Duplex mode*/
1451:.\Generated_Source\PSoC5/UART_READER.c **** 
1452:.\Generated_Source\PSoC5/UART_READER.c ****             if( (retMode == UART_READER_SEND_BREAK) ||
 1303              		.loc 1 1452 0
 1304 0012 FB79     		ldrb	r3, [r7, #7]	@ zero_extendqisi2
 1305 0014 002B     		cmp	r3, #0
 1306 0016 02D0     		beq	.L98
 1307              		.loc 1 1452 0 is_stmt 0 discriminator 1
 1308 0018 FB79     		ldrb	r3, [r7, #7]	@ zero_extendqisi2
 1309 001a 032B     		cmp	r3, #3
 1310 001c 13D1     		bne	.L99
 1311              	.L98:
1453:.\Generated_Source\PSoC5/UART_READER.c ****                 (retMode == UART_READER_SEND_WAIT_REINIT ) )
1454:.\Generated_Source\PSoC5/UART_READER.c ****             {
1455:.\Generated_Source\PSoC5/UART_READER.c ****                 /* CTRL_HD_SEND_BREAK - sends break bits in HD mode */
1456:.\Generated_Source\PSoC5/UART_READER.c ****                 UART_READER_WriteControlRegister(UART_READER_ReadControlRegister() |
 1312              		.loc 1 1456 0 is_stmt 1
 1313 001e FFF7FEFF 		bl	UART_READER_ReadControlRegister
 1314 0022 0346     		mov	r3, r0
 1315 0024 43F00203 		orr	r3, r3, #2
 1316 0028 DBB2     		uxtb	r3, r3
 1317 002a 1846     		mov	r0, r3
 1318 002c FFF7FEFF 		bl	UART_READER_WriteControlRegister
1457:.\Generated_Source\PSoC5/UART_READER.c ****                                                       UART_READER_CTRL_HD_SEND_BREAK);
1458:.\Generated_Source\PSoC5/UART_READER.c ****                 /* Send zeros */
1459:.\Generated_Source\PSoC5/UART_READER.c ****                 UART_READER_TXDATA_REG = 0u;
 1319              		.loc 1 1459 0
 1320 0030 184B     		ldr	r3, .L104+4
 1321 0032 0022     		movs	r2, #0
 1322 0034 1A70     		strb	r2, [r3]
 1323              	.L100:
1460:.\Generated_Source\PSoC5/UART_READER.c **** 
1461:.\Generated_Source\PSoC5/UART_READER.c ****                 do /* Wait until transmit starts */
1462:.\Generated_Source\PSoC5/UART_READER.c ****                 {
1463:.\Generated_Source\PSoC5/UART_READER.c ****                     tmpStat = UART_READER_TXSTATUS_REG;
 1324              		.loc 1 1463 0 discriminator 1
 1325 0036 184B     		ldr	r3, .L104+8
 1326 0038 1B78     		ldrb	r3, [r3]
 1327 003a FB73     		strb	r3, [r7, #15]
ARM GAS  C:\Users\yqh\AppData\Local\Temp\ccpJxCTG.s 			page 50


1464:.\Generated_Source\PSoC5/UART_READER.c ****                 }
1465:.\Generated_Source\PSoC5/UART_READER.c ****                 while((tmpStat & UART_READER_TX_STS_FIFO_EMPTY) != 0u);
 1328              		.loc 1 1465 0 discriminator 1
 1329 003c FB7B     		ldrb	r3, [r7, #15]	@ zero_extendqisi2
 1330 003e 03F00203 		and	r3, r3, #2
 1331 0042 002B     		cmp	r3, #0
 1332 0044 F7D1     		bne	.L100
 1333              	.L99:
1466:.\Generated_Source\PSoC5/UART_READER.c ****             }
1467:.\Generated_Source\PSoC5/UART_READER.c **** 
1468:.\Generated_Source\PSoC5/UART_READER.c ****             if( (retMode == UART_READER_WAIT_FOR_COMPLETE_REINIT) ||
 1334              		.loc 1 1468 0
 1335 0046 FB79     		ldrb	r3, [r7, #7]	@ zero_extendqisi2
 1336 0048 012B     		cmp	r3, #1
 1337 004a 02D0     		beq	.L101
 1338              		.loc 1 1468 0 is_stmt 0 discriminator 1
 1339 004c FB79     		ldrb	r3, [r7, #7]	@ zero_extendqisi2
 1340 004e 032B     		cmp	r3, #3
 1341 0050 09D1     		bne	.L102
 1342              	.L101:
1469:.\Generated_Source\PSoC5/UART_READER.c ****                 (retMode == UART_READER_SEND_WAIT_REINIT) )
1470:.\Generated_Source\PSoC5/UART_READER.c ****             {
1471:.\Generated_Source\PSoC5/UART_READER.c ****                 do /* Wait until transmit complete */
1472:.\Generated_Source\PSoC5/UART_READER.c ****                 {
1473:.\Generated_Source\PSoC5/UART_READER.c ****                     tmpStat = UART_READER_TXSTATUS_REG;
 1343              		.loc 1 1473 0 is_stmt 1 discriminator 1
 1344 0052 114B     		ldr	r3, .L104+8
 1345 0054 1B78     		ldrb	r3, [r3]
 1346 0056 FB73     		strb	r3, [r7, #15]
1474:.\Generated_Source\PSoC5/UART_READER.c ****                 }
1475:.\Generated_Source\PSoC5/UART_READER.c ****                 while(((uint8)~tmpStat & UART_READER_TX_STS_COMPLETE) != 0u);
 1347              		.loc 1 1475 0 discriminator 1
 1348 0058 FB7B     		ldrb	r3, [r7, #15]
 1349 005a DB43     		mvns	r3, r3
 1350 005c DBB2     		uxtb	r3, r3
 1351 005e 03F00103 		and	r3, r3, #1
 1352 0062 002B     		cmp	r3, #0
 1353 0064 F5D1     		bne	.L101
 1354              	.L102:
1476:.\Generated_Source\PSoC5/UART_READER.c ****             }
1477:.\Generated_Source\PSoC5/UART_READER.c **** 
1478:.\Generated_Source\PSoC5/UART_READER.c ****             if( (retMode == UART_READER_WAIT_FOR_COMPLETE_REINIT) ||
 1355              		.loc 1 1478 0
 1356 0066 FB79     		ldrb	r3, [r7, #7]	@ zero_extendqisi2
 1357 0068 012B     		cmp	r3, #1
 1358 006a 05D0     		beq	.L103
 1359              		.loc 1 1478 0 is_stmt 0 discriminator 1
 1360 006c FB79     		ldrb	r3, [r7, #7]	@ zero_extendqisi2
 1361 006e 022B     		cmp	r3, #2
 1362 0070 02D0     		beq	.L103
1479:.\Generated_Source\PSoC5/UART_READER.c ****                 (retMode == UART_READER_REINIT) ||
 1363              		.loc 1 1479 0 is_stmt 1
 1364 0072 FB79     		ldrb	r3, [r7, #7]	@ zero_extendqisi2
 1365 0074 032B     		cmp	r3, #3
 1366 0076 08D1     		bne	.L96
 1367              	.L103:
1480:.\Generated_Source\PSoC5/UART_READER.c ****                 (retMode == UART_READER_SEND_WAIT_REINIT) )
ARM GAS  C:\Users\yqh\AppData\Local\Temp\ccpJxCTG.s 			page 51


1481:.\Generated_Source\PSoC5/UART_READER.c ****             {
1482:.\Generated_Source\PSoC5/UART_READER.c ****                 UART_READER_WriteControlRegister(UART_READER_ReadControlRegister() &
 1368              		.loc 1 1482 0
 1369 0078 FFF7FEFF 		bl	UART_READER_ReadControlRegister
 1370 007c 0346     		mov	r3, r0
 1371 007e 23F00203 		bic	r3, r3, #2
 1372 0082 DBB2     		uxtb	r3, r3
 1373 0084 1846     		mov	r0, r3
 1374 0086 FFF7FEFF 		bl	UART_READER_WriteControlRegister
 1375              	.L96:
 1376              	.LBE2:
1483:.\Generated_Source\PSoC5/UART_READER.c ****                                               (uint8)~UART_READER_CTRL_HD_SEND_BREAK);
1484:.\Generated_Source\PSoC5/UART_READER.c ****             }
1485:.\Generated_Source\PSoC5/UART_READER.c **** 
1486:.\Generated_Source\PSoC5/UART_READER.c ****         #else /* UART_READER_HD_ENABLED Full Duplex mode */
1487:.\Generated_Source\PSoC5/UART_READER.c **** 
1488:.\Generated_Source\PSoC5/UART_READER.c ****             static uint8 txPeriod;
1489:.\Generated_Source\PSoC5/UART_READER.c **** 
1490:.\Generated_Source\PSoC5/UART_READER.c ****             if( (retMode == UART_READER_SEND_BREAK) ||
1491:.\Generated_Source\PSoC5/UART_READER.c ****                 (retMode == UART_READER_SEND_WAIT_REINIT) )
1492:.\Generated_Source\PSoC5/UART_READER.c ****             {
1493:.\Generated_Source\PSoC5/UART_READER.c ****                 /* CTRL_HD_SEND_BREAK - skip to send parity bit at Break signal in Full Duplex mode
1494:.\Generated_Source\PSoC5/UART_READER.c ****                 #if( (UART_READER_PARITY_TYPE != UART_READER__B_UART__NONE_REVB) || \
1495:.\Generated_Source\PSoC5/UART_READER.c ****                                     (UART_READER_PARITY_TYPE_SW != 0u) )
1496:.\Generated_Source\PSoC5/UART_READER.c ****                     UART_READER_WriteControlRegister(UART_READER_ReadControlRegister() |
1497:.\Generated_Source\PSoC5/UART_READER.c ****                                                           UART_READER_CTRL_HD_SEND_BREAK);
1498:.\Generated_Source\PSoC5/UART_READER.c ****                 #endif /* End UART_READER_PARITY_TYPE != UART_READER__B_UART__NONE_REVB  */
1499:.\Generated_Source\PSoC5/UART_READER.c **** 
1500:.\Generated_Source\PSoC5/UART_READER.c ****                 #if(UART_READER_TXCLKGEN_DP)
1501:.\Generated_Source\PSoC5/UART_READER.c ****                     txPeriod = UART_READER_TXBITCLKTX_COMPLETE_REG;
1502:.\Generated_Source\PSoC5/UART_READER.c ****                     UART_READER_TXBITCLKTX_COMPLETE_REG = UART_READER_TXBITCTR_BREAKBITS;
1503:.\Generated_Source\PSoC5/UART_READER.c ****                 #else
1504:.\Generated_Source\PSoC5/UART_READER.c ****                     txPeriod = UART_READER_TXBITCTR_PERIOD_REG;
1505:.\Generated_Source\PSoC5/UART_READER.c ****                     UART_READER_TXBITCTR_PERIOD_REG = UART_READER_TXBITCTR_BREAKBITS8X;
1506:.\Generated_Source\PSoC5/UART_READER.c ****                 #endif /* End UART_READER_TXCLKGEN_DP */
1507:.\Generated_Source\PSoC5/UART_READER.c **** 
1508:.\Generated_Source\PSoC5/UART_READER.c ****                 /* Send zeros */
1509:.\Generated_Source\PSoC5/UART_READER.c ****                 UART_READER_TXDATA_REG = 0u;
1510:.\Generated_Source\PSoC5/UART_READER.c **** 
1511:.\Generated_Source\PSoC5/UART_READER.c ****                 do /* Wait until transmit starts */
1512:.\Generated_Source\PSoC5/UART_READER.c ****                 {
1513:.\Generated_Source\PSoC5/UART_READER.c ****                     tmpStat = UART_READER_TXSTATUS_REG;
1514:.\Generated_Source\PSoC5/UART_READER.c ****                 }
1515:.\Generated_Source\PSoC5/UART_READER.c ****                 while((tmpStat & UART_READER_TX_STS_FIFO_EMPTY) != 0u);
1516:.\Generated_Source\PSoC5/UART_READER.c ****             }
1517:.\Generated_Source\PSoC5/UART_READER.c **** 
1518:.\Generated_Source\PSoC5/UART_READER.c ****             if( (retMode == UART_READER_WAIT_FOR_COMPLETE_REINIT) ||
1519:.\Generated_Source\PSoC5/UART_READER.c ****                 (retMode == UART_READER_SEND_WAIT_REINIT) )
1520:.\Generated_Source\PSoC5/UART_READER.c ****             {
1521:.\Generated_Source\PSoC5/UART_READER.c ****                 do /* Wait until transmit complete */
1522:.\Generated_Source\PSoC5/UART_READER.c ****                 {
1523:.\Generated_Source\PSoC5/UART_READER.c ****                     tmpStat = UART_READER_TXSTATUS_REG;
1524:.\Generated_Source\PSoC5/UART_READER.c ****                 }
1525:.\Generated_Source\PSoC5/UART_READER.c ****                 while(((uint8)~tmpStat & UART_READER_TX_STS_COMPLETE) != 0u);
1526:.\Generated_Source\PSoC5/UART_READER.c ****             }
1527:.\Generated_Source\PSoC5/UART_READER.c **** 
1528:.\Generated_Source\PSoC5/UART_READER.c ****             if( (retMode == UART_READER_WAIT_FOR_COMPLETE_REINIT) ||
ARM GAS  C:\Users\yqh\AppData\Local\Temp\ccpJxCTG.s 			page 52


1529:.\Generated_Source\PSoC5/UART_READER.c ****                 (retMode == UART_READER_REINIT) ||
1530:.\Generated_Source\PSoC5/UART_READER.c ****                 (retMode == UART_READER_SEND_WAIT_REINIT) )
1531:.\Generated_Source\PSoC5/UART_READER.c ****             {
1532:.\Generated_Source\PSoC5/UART_READER.c **** 
1533:.\Generated_Source\PSoC5/UART_READER.c ****             #if(UART_READER_TXCLKGEN_DP)
1534:.\Generated_Source\PSoC5/UART_READER.c ****                 UART_READER_TXBITCLKTX_COMPLETE_REG = txPeriod;
1535:.\Generated_Source\PSoC5/UART_READER.c ****             #else
1536:.\Generated_Source\PSoC5/UART_READER.c ****                 UART_READER_TXBITCTR_PERIOD_REG = txPeriod;
1537:.\Generated_Source\PSoC5/UART_READER.c ****             #endif /* End UART_READER_TXCLKGEN_DP */
1538:.\Generated_Source\PSoC5/UART_READER.c **** 
1539:.\Generated_Source\PSoC5/UART_READER.c ****             #if( (UART_READER_PARITY_TYPE != UART_READER__B_UART__NONE_REVB) || \
1540:.\Generated_Source\PSoC5/UART_READER.c ****                  (UART_READER_PARITY_TYPE_SW != 0u) )
1541:.\Generated_Source\PSoC5/UART_READER.c ****                 UART_READER_WriteControlRegister(UART_READER_ReadControlRegister() &
1542:.\Generated_Source\PSoC5/UART_READER.c ****                                                       (uint8) ~UART_READER_CTRL_HD_SEND_BREAK);
1543:.\Generated_Source\PSoC5/UART_READER.c ****             #endif /* End UART_READER_PARITY_TYPE != NONE */
1544:.\Generated_Source\PSoC5/UART_READER.c ****             }
1545:.\Generated_Source\PSoC5/UART_READER.c ****         #endif    /* End UART_READER_HD_ENABLED */
1546:.\Generated_Source\PSoC5/UART_READER.c ****         }
1547:.\Generated_Source\PSoC5/UART_READER.c ****     }
 1377              		.loc 1 1547 0
 1378 008a 1037     		adds	r7, r7, #16
 1379              		.cfi_def_cfa_offset 8
 1380 008c BD46     		mov	sp, r7
 1381              		.cfi_def_cfa_register 13
 1382              		@ sp needed
 1383 008e 80BD     		pop	{r7, pc}
 1384              	.L105:
 1385              		.align	2
 1386              	.L104:
 1387 0090 00000000 		.word	UART_READER_initVar
 1388 0094 58650040 		.word	1073767768
 1389 0098 68650040 		.word	1073767784
 1390              		.cfi_endproc
 1391              	.LFE25:
 1392              		.size	UART_READER_SendBreak, .-UART_READER_SendBreak
 1393              		.section	.text.UART_READER_SetTxAddressMode,"ax",%progbits
 1394              		.align	2
 1395              		.global	UART_READER_SetTxAddressMode
 1396              		.thumb
 1397              		.thumb_func
 1398              		.type	UART_READER_SetTxAddressMode, %function
 1399              	UART_READER_SetTxAddressMode:
 1400              	.LFB26:
1548:.\Generated_Source\PSoC5/UART_READER.c **** 
1549:.\Generated_Source\PSoC5/UART_READER.c **** 
1550:.\Generated_Source\PSoC5/UART_READER.c ****     /*******************************************************************************
1551:.\Generated_Source\PSoC5/UART_READER.c ****     * Function Name: UART_READER_SetTxAddressMode
1552:.\Generated_Source\PSoC5/UART_READER.c ****     ********************************************************************************
1553:.\Generated_Source\PSoC5/UART_READER.c ****     *
1554:.\Generated_Source\PSoC5/UART_READER.c ****     * Summary:
1555:.\Generated_Source\PSoC5/UART_READER.c ****     *  Configures the transmitter to signal the next bytes is address or data.
1556:.\Generated_Source\PSoC5/UART_READER.c ****     *
1557:.\Generated_Source\PSoC5/UART_READER.c ****     * Parameters:
1558:.\Generated_Source\PSoC5/UART_READER.c ****     *  addressMode: 
1559:.\Generated_Source\PSoC5/UART_READER.c ****     *       UART_READER_SET_SPACE - Configure the transmitter to send the next
1560:.\Generated_Source\PSoC5/UART_READER.c ****     *                                    byte as a data.
1561:.\Generated_Source\PSoC5/UART_READER.c ****     *       UART_READER_SET_MARK  - Configure the transmitter to send the next
ARM GAS  C:\Users\yqh\AppData\Local\Temp\ccpJxCTG.s 			page 53


1562:.\Generated_Source\PSoC5/UART_READER.c ****     *                                    byte as an address.
1563:.\Generated_Source\PSoC5/UART_READER.c ****     *
1564:.\Generated_Source\PSoC5/UART_READER.c ****     * Return:
1565:.\Generated_Source\PSoC5/UART_READER.c ****     *  None.
1566:.\Generated_Source\PSoC5/UART_READER.c ****     *
1567:.\Generated_Source\PSoC5/UART_READER.c ****     * Side Effects:
1568:.\Generated_Source\PSoC5/UART_READER.c ****     *  This function sets and clears UART_READER_CTRL_MARK bit in the Control
1569:.\Generated_Source\PSoC5/UART_READER.c ****     *  register.
1570:.\Generated_Source\PSoC5/UART_READER.c ****     *
1571:.\Generated_Source\PSoC5/UART_READER.c ****     *******************************************************************************/
1572:.\Generated_Source\PSoC5/UART_READER.c ****     void UART_READER_SetTxAddressMode(uint8 addressMode) 
1573:.\Generated_Source\PSoC5/UART_READER.c ****     {
 1401              		.loc 1 1573 0
 1402              		.cfi_startproc
 1403              		@ args = 0, pretend = 0, frame = 8
 1404              		@ frame_needed = 1, uses_anonymous_args = 0
 1405 0000 80B5     		push	{r7, lr}
 1406              		.cfi_def_cfa_offset 8
 1407              		.cfi_offset 7, -8
 1408              		.cfi_offset 14, -4
 1409 0002 82B0     		sub	sp, sp, #8
 1410              		.cfi_def_cfa_offset 16
 1411 0004 00AF     		add	r7, sp, #0
 1412              		.cfi_def_cfa_register 7
 1413 0006 0346     		mov	r3, r0
 1414 0008 FB71     		strb	r3, [r7, #7]
1574:.\Generated_Source\PSoC5/UART_READER.c ****         /* Mark/Space sending enable */
1575:.\Generated_Source\PSoC5/UART_READER.c ****         if(addressMode != 0u)
 1415              		.loc 1 1575 0
 1416 000a FB79     		ldrb	r3, [r7, #7]	@ zero_extendqisi2
 1417 000c 002B     		cmp	r3, #0
 1418 000e 09D0     		beq	.L107
1576:.\Generated_Source\PSoC5/UART_READER.c ****         {
1577:.\Generated_Source\PSoC5/UART_READER.c ****         #if( UART_READER_CONTROL_REG_REMOVED == 0u )
1578:.\Generated_Source\PSoC5/UART_READER.c ****             UART_READER_WriteControlRegister(UART_READER_ReadControlRegister() |
 1419              		.loc 1 1578 0
 1420 0010 FFF7FEFF 		bl	UART_READER_ReadControlRegister
 1421 0014 0346     		mov	r3, r0
 1422 0016 43F00403 		orr	r3, r3, #4
 1423 001a DBB2     		uxtb	r3, r3
 1424 001c 1846     		mov	r0, r3
 1425 001e FFF7FEFF 		bl	UART_READER_WriteControlRegister
 1426 0022 08E0     		b	.L106
 1427              	.L107:
1579:.\Generated_Source\PSoC5/UART_READER.c ****                                                   UART_READER_CTRL_MARK);
1580:.\Generated_Source\PSoC5/UART_READER.c ****         #endif /* End UART_READER_CONTROL_REG_REMOVED == 0u */
1581:.\Generated_Source\PSoC5/UART_READER.c ****         }
1582:.\Generated_Source\PSoC5/UART_READER.c ****         else
1583:.\Generated_Source\PSoC5/UART_READER.c ****         {
1584:.\Generated_Source\PSoC5/UART_READER.c ****         #if( UART_READER_CONTROL_REG_REMOVED == 0u )
1585:.\Generated_Source\PSoC5/UART_READER.c ****             UART_READER_WriteControlRegister(UART_READER_ReadControlRegister() &
 1428              		.loc 1 1585 0
 1429 0024 FFF7FEFF 		bl	UART_READER_ReadControlRegister
 1430 0028 0346     		mov	r3, r0
 1431 002a 23F00403 		bic	r3, r3, #4
 1432 002e DBB2     		uxtb	r3, r3
 1433 0030 1846     		mov	r0, r3
ARM GAS  C:\Users\yqh\AppData\Local\Temp\ccpJxCTG.s 			page 54


 1434 0032 FFF7FEFF 		bl	UART_READER_WriteControlRegister
 1435              	.L106:
1586:.\Generated_Source\PSoC5/UART_READER.c ****                                                   (uint8) ~UART_READER_CTRL_MARK);
1587:.\Generated_Source\PSoC5/UART_READER.c ****         #endif /* End UART_READER_CONTROL_REG_REMOVED == 0u */
1588:.\Generated_Source\PSoC5/UART_READER.c ****         }
1589:.\Generated_Source\PSoC5/UART_READER.c ****     }
 1436              		.loc 1 1589 0
 1437 0036 0837     		adds	r7, r7, #8
 1438              		.cfi_def_cfa_offset 8
 1439 0038 BD46     		mov	sp, r7
 1440              		.cfi_def_cfa_register 13
 1441              		@ sp needed
 1442 003a 80BD     		pop	{r7, pc}
 1443              		.cfi_endproc
 1444              	.LFE26:
 1445              		.size	UART_READER_SetTxAddressMode, .-UART_READER_SetTxAddressMode
 1446              		.section	.text.UART_READER_LoadRxConfig,"ax",%progbits
 1447              		.align	2
 1448              		.global	UART_READER_LoadRxConfig
 1449              		.thumb
 1450              		.thumb_func
 1451              		.type	UART_READER_LoadRxConfig, %function
 1452              	UART_READER_LoadRxConfig:
 1453              	.LFB27:
1590:.\Generated_Source\PSoC5/UART_READER.c **** 
1591:.\Generated_Source\PSoC5/UART_READER.c **** #endif  /* EndUART_READER_TX_ENABLED */
1592:.\Generated_Source\PSoC5/UART_READER.c **** 
1593:.\Generated_Source\PSoC5/UART_READER.c **** #if(UART_READER_HD_ENABLED)
1594:.\Generated_Source\PSoC5/UART_READER.c **** 
1595:.\Generated_Source\PSoC5/UART_READER.c **** 
1596:.\Generated_Source\PSoC5/UART_READER.c ****     /*******************************************************************************
1597:.\Generated_Source\PSoC5/UART_READER.c ****     * Function Name: UART_READER_LoadRxConfig
1598:.\Generated_Source\PSoC5/UART_READER.c ****     ********************************************************************************
1599:.\Generated_Source\PSoC5/UART_READER.c ****     *
1600:.\Generated_Source\PSoC5/UART_READER.c ****     * Summary:
1601:.\Generated_Source\PSoC5/UART_READER.c ****     *  Loads the receiver configuration in half duplex mode. After calling this
1602:.\Generated_Source\PSoC5/UART_READER.c ****     *  function, the UART is ready to receive data.
1603:.\Generated_Source\PSoC5/UART_READER.c ****     *
1604:.\Generated_Source\PSoC5/UART_READER.c ****     * Parameters:
1605:.\Generated_Source\PSoC5/UART_READER.c ****     *  None.
1606:.\Generated_Source\PSoC5/UART_READER.c ****     *
1607:.\Generated_Source\PSoC5/UART_READER.c ****     * Return:
1608:.\Generated_Source\PSoC5/UART_READER.c ****     *  None.
1609:.\Generated_Source\PSoC5/UART_READER.c ****     *
1610:.\Generated_Source\PSoC5/UART_READER.c ****     * Side Effects:
1611:.\Generated_Source\PSoC5/UART_READER.c ****     *  Valid only in half duplex mode. You must make sure that the previous
1612:.\Generated_Source\PSoC5/UART_READER.c ****     *  transaction is complete and it is safe to unload the transmitter
1613:.\Generated_Source\PSoC5/UART_READER.c ****     *  configuration.
1614:.\Generated_Source\PSoC5/UART_READER.c ****     *
1615:.\Generated_Source\PSoC5/UART_READER.c ****     *******************************************************************************/
1616:.\Generated_Source\PSoC5/UART_READER.c ****     void UART_READER_LoadRxConfig(void) 
1617:.\Generated_Source\PSoC5/UART_READER.c ****     {
 1454              		.loc 1 1617 0
 1455              		.cfi_startproc
 1456              		@ args = 0, pretend = 0, frame = 0
 1457              		@ frame_needed = 1, uses_anonymous_args = 0
 1458 0000 80B5     		push	{r7, lr}
ARM GAS  C:\Users\yqh\AppData\Local\Temp\ccpJxCTG.s 			page 55


 1459              		.cfi_def_cfa_offset 8
 1460              		.cfi_offset 7, -8
 1461              		.cfi_offset 14, -4
 1462 0002 00AF     		add	r7, sp, #0
 1463              		.cfi_def_cfa_register 7
1618:.\Generated_Source\PSoC5/UART_READER.c ****         UART_READER_WriteControlRegister(UART_READER_ReadControlRegister() &
 1464              		.loc 1 1618 0
 1465 0004 FFF7FEFF 		bl	UART_READER_ReadControlRegister
 1466 0008 0346     		mov	r3, r0
 1467 000a 23F00103 		bic	r3, r3, #1
 1468 000e DBB2     		uxtb	r3, r3
 1469 0010 1846     		mov	r0, r3
 1470 0012 FFF7FEFF 		bl	UART_READER_WriteControlRegister
1619:.\Generated_Source\PSoC5/UART_READER.c ****                                                 (uint8)~UART_READER_CTRL_HD_SEND);
1620:.\Generated_Source\PSoC5/UART_READER.c ****         UART_READER_RXBITCTR_PERIOD_REG = UART_READER_HD_RXBITCTR_INIT;
 1471              		.loc 1 1620 0
 1472 0016 024B     		ldr	r3, .L110
 1473 0018 7222     		movs	r2, #114
 1474 001a 1A70     		strb	r2, [r3]
1621:.\Generated_Source\PSoC5/UART_READER.c **** 
1622:.\Generated_Source\PSoC5/UART_READER.c ****     #if (UART_READER_RX_INTERRUPT_ENABLED)
1623:.\Generated_Source\PSoC5/UART_READER.c ****         /* Enable RX interrupt after set RX configuration */
1624:.\Generated_Source\PSoC5/UART_READER.c ****         UART_READER_SetRxInterruptMode(UART_READER_INIT_RX_INTERRUPTS_MASK);
1625:.\Generated_Source\PSoC5/UART_READER.c ****     #endif /* (UART_READER_RX_INTERRUPT_ENABLED) */
1626:.\Generated_Source\PSoC5/UART_READER.c ****     }
 1475              		.loc 1 1626 0
 1476 001c 80BD     		pop	{r7, pc}
 1477              	.L111:
 1478 001e 00BF     		.align	2
 1479              	.L110:
 1480 0020 84640040 		.word	1073767556
 1481              		.cfi_endproc
 1482              	.LFE27:
 1483              		.size	UART_READER_LoadRxConfig, .-UART_READER_LoadRxConfig
 1484              		.section	.text.UART_READER_LoadTxConfig,"ax",%progbits
 1485              		.align	2
 1486              		.global	UART_READER_LoadTxConfig
 1487              		.thumb
 1488              		.thumb_func
 1489              		.type	UART_READER_LoadTxConfig, %function
 1490              	UART_READER_LoadTxConfig:
 1491              	.LFB28:
1627:.\Generated_Source\PSoC5/UART_READER.c **** 
1628:.\Generated_Source\PSoC5/UART_READER.c **** 
1629:.\Generated_Source\PSoC5/UART_READER.c ****     /*******************************************************************************
1630:.\Generated_Source\PSoC5/UART_READER.c ****     * Function Name: UART_READER_LoadTxConfig
1631:.\Generated_Source\PSoC5/UART_READER.c ****     ********************************************************************************
1632:.\Generated_Source\PSoC5/UART_READER.c ****     *
1633:.\Generated_Source\PSoC5/UART_READER.c ****     * Summary:
1634:.\Generated_Source\PSoC5/UART_READER.c ****     *  Loads the transmitter configuration in half duplex mode. After calling this
1635:.\Generated_Source\PSoC5/UART_READER.c ****     *  function, the UART is ready to transmit data.
1636:.\Generated_Source\PSoC5/UART_READER.c ****     *
1637:.\Generated_Source\PSoC5/UART_READER.c ****     * Parameters:
1638:.\Generated_Source\PSoC5/UART_READER.c ****     *  None.
1639:.\Generated_Source\PSoC5/UART_READER.c ****     *
1640:.\Generated_Source\PSoC5/UART_READER.c ****     * Return:
1641:.\Generated_Source\PSoC5/UART_READER.c ****     *  None.
ARM GAS  C:\Users\yqh\AppData\Local\Temp\ccpJxCTG.s 			page 56


1642:.\Generated_Source\PSoC5/UART_READER.c ****     *
1643:.\Generated_Source\PSoC5/UART_READER.c ****     * Side Effects:
1644:.\Generated_Source\PSoC5/UART_READER.c ****     *  Valid only in half duplex mode. You must make sure that the previous
1645:.\Generated_Source\PSoC5/UART_READER.c ****     *  transaction is complete and it is safe to unload the receiver configuration.
1646:.\Generated_Source\PSoC5/UART_READER.c ****     *
1647:.\Generated_Source\PSoC5/UART_READER.c ****     *******************************************************************************/
1648:.\Generated_Source\PSoC5/UART_READER.c ****     void UART_READER_LoadTxConfig(void) 
1649:.\Generated_Source\PSoC5/UART_READER.c ****     {
 1492              		.loc 1 1649 0
 1493              		.cfi_startproc
 1494              		@ args = 0, pretend = 0, frame = 0
 1495              		@ frame_needed = 1, uses_anonymous_args = 0
 1496 0000 80B5     		push	{r7, lr}
 1497              		.cfi_def_cfa_offset 8
 1498              		.cfi_offset 7, -8
 1499              		.cfi_offset 14, -4
 1500 0002 00AF     		add	r7, sp, #0
 1501              		.cfi_def_cfa_register 7
1650:.\Generated_Source\PSoC5/UART_READER.c ****     #if (UART_READER_RX_INTERRUPT_ENABLED)
1651:.\Generated_Source\PSoC5/UART_READER.c ****         /* Disable RX interrupts before set TX configuration */
1652:.\Generated_Source\PSoC5/UART_READER.c ****         UART_READER_SetRxInterruptMode(0u);
1653:.\Generated_Source\PSoC5/UART_READER.c ****     #endif /* (UART_READER_RX_INTERRUPT_ENABLED) */
1654:.\Generated_Source\PSoC5/UART_READER.c **** 
1655:.\Generated_Source\PSoC5/UART_READER.c ****         UART_READER_WriteControlRegister(UART_READER_ReadControlRegister() | UART_READER_CTRL_HD_SE
 1502              		.loc 1 1655 0
 1503 0004 FFF7FEFF 		bl	UART_READER_ReadControlRegister
 1504 0008 0346     		mov	r3, r0
 1505 000a 43F00103 		orr	r3, r3, #1
 1506 000e DBB2     		uxtb	r3, r3
 1507 0010 1846     		mov	r0, r3
 1508 0012 FFF7FEFF 		bl	UART_READER_WriteControlRegister
1656:.\Generated_Source\PSoC5/UART_READER.c ****         UART_READER_RXBITCTR_PERIOD_REG = UART_READER_HD_TXBITCTR_INIT;
 1509              		.loc 1 1656 0
 1510 0016 024B     		ldr	r3, .L113
 1511 0018 6F22     		movs	r2, #111
 1512 001a 1A70     		strb	r2, [r3]
1657:.\Generated_Source\PSoC5/UART_READER.c ****     }
 1513              		.loc 1 1657 0
 1514 001c 80BD     		pop	{r7, pc}
 1515              	.L114:
 1516 001e 00BF     		.align	2
 1517              	.L113:
 1518 0020 84640040 		.word	1073767556
 1519              		.cfi_endproc
 1520              	.LFE28:
 1521              		.size	UART_READER_LoadTxConfig, .-UART_READER_LoadTxConfig
 1522              		.text
 1523              	.Letext0:
 1524              		.file 2 ".\\Generated_Source\\PSoC5\\cytypes.h"
 1525              		.section	.debug_info,"",%progbits
 1526              	.Ldebug_info0:
 1527 0000 11050000 		.4byte	0x511
 1528 0004 0400     		.2byte	0x4
 1529 0006 00000000 		.4byte	.Ldebug_abbrev0
 1530 000a 04       		.byte	0x4
 1531 000b 01       		.uleb128 0x1
 1532 000c 18020000 		.4byte	.LASF61
ARM GAS  C:\Users\yqh\AppData\Local\Temp\ccpJxCTG.s 			page 57


 1533 0010 01       		.byte	0x1
 1534 0011 57010000 		.4byte	.LASF62
 1535 0015 57030000 		.4byte	.LASF63
 1536 0019 00000000 		.4byte	.Ldebug_ranges0+0
 1537 001d 00000000 		.4byte	0
 1538 0021 00000000 		.4byte	.Ldebug_line0
 1539 0025 02       		.uleb128 0x2
 1540 0026 01       		.byte	0x1
 1541 0027 06       		.byte	0x6
 1542 0028 9F000000 		.4byte	.LASF0
 1543 002c 02       		.uleb128 0x2
 1544 002d 01       		.byte	0x1
 1545 002e 08       		.byte	0x8
 1546 002f 06030000 		.4byte	.LASF1
 1547 0033 02       		.uleb128 0x2
 1548 0034 02       		.byte	0x2
 1549 0035 05       		.byte	0x5
 1550 0036 4D030000 		.4byte	.LASF2
 1551 003a 02       		.uleb128 0x2
 1552 003b 02       		.byte	0x2
 1553 003c 07       		.byte	0x7
 1554 003d B6010000 		.4byte	.LASF3
 1555 0041 02       		.uleb128 0x2
 1556 0042 04       		.byte	0x4
 1557 0043 05       		.byte	0x5
 1558 0044 C8000000 		.4byte	.LASF4
 1559 0048 02       		.uleb128 0x2
 1560 0049 04       		.byte	0x4
 1561 004a 07       		.byte	0x7
 1562 004b 8B010000 		.4byte	.LASF5
 1563 004f 02       		.uleb128 0x2
 1564 0050 08       		.byte	0x8
 1565 0051 05       		.byte	0x5
 1566 0052 91000000 		.4byte	.LASF6
 1567 0056 02       		.uleb128 0x2
 1568 0057 08       		.byte	0x8
 1569 0058 07       		.byte	0x7
 1570 0059 65000000 		.4byte	.LASF7
 1571 005d 03       		.uleb128 0x3
 1572 005e 04       		.byte	0x4
 1573 005f 05       		.byte	0x5
 1574 0060 696E7400 		.ascii	"int\000"
 1575 0064 02       		.uleb128 0x2
 1576 0065 04       		.byte	0x4
 1577 0066 07       		.byte	0x7
 1578 0067 7E010000 		.4byte	.LASF8
 1579 006b 04       		.uleb128 0x4
 1580 006c 03010000 		.4byte	.LASF9
 1581 0070 02       		.byte	0x2
 1582 0071 9201     		.2byte	0x192
 1583 0073 2C000000 		.4byte	0x2c
 1584 0077 04       		.uleb128 0x4
 1585 0078 00000000 		.4byte	.LASF10
 1586 007c 02       		.byte	0x2
 1587 007d 9301     		.2byte	0x193
 1588 007f 3A000000 		.4byte	0x3a
 1589 0083 02       		.uleb128 0x2
ARM GAS  C:\Users\yqh\AppData\Local\Temp\ccpJxCTG.s 			page 58


 1590 0084 04       		.byte	0x4
 1591 0085 04       		.byte	0x4
 1592 0086 AF020000 		.4byte	.LASF11
 1593 008a 02       		.uleb128 0x2
 1594 008b 08       		.byte	0x8
 1595 008c 04       		.byte	0x4
 1596 008d 1A010000 		.4byte	.LASF12
 1597 0091 04       		.uleb128 0x4
 1598 0092 21040000 		.4byte	.LASF13
 1599 0096 02       		.byte	0x2
 1600 0097 A301     		.2byte	0x1a3
 1601 0099 9D000000 		.4byte	0x9d
 1602 009d 02       		.uleb128 0x2
 1603 009e 01       		.byte	0x1
 1604 009f 08       		.byte	0x8
 1605 00a0 E8030000 		.4byte	.LASF14
 1606 00a4 04       		.uleb128 0x4
 1607 00a5 01030000 		.4byte	.LASF15
 1608 00a9 02       		.byte	0x2
 1609 00aa 3C02     		.2byte	0x23c
 1610 00ac B0000000 		.4byte	0xb0
 1611 00b0 05       		.uleb128 0x5
 1612 00b1 6B000000 		.4byte	0x6b
 1613 00b5 02       		.uleb128 0x2
 1614 00b6 04       		.byte	0x4
 1615 00b7 07       		.byte	0x7
 1616 00b8 07020000 		.4byte	.LASF16
 1617 00bc 06       		.uleb128 0x6
 1618 00bd D2010000 		.4byte	.LASF17
 1619 00c1 01       		.byte	0x1
 1620 00c2 4C       		.byte	0x4c
 1621 00c3 00000000 		.4byte	.LFB0
 1622 00c7 20000000 		.4byte	.LFE0-.LFB0
 1623 00cb 01       		.uleb128 0x1
 1624 00cc 9C       		.byte	0x9c
 1625 00cd 07       		.uleb128 0x7
 1626 00ce 09010000 		.4byte	.LASF18
 1627 00d2 01       		.byte	0x1
 1628 00d3 6A       		.byte	0x6a
 1629 00d4 00000000 		.4byte	.LFB1
 1630 00d8 20000000 		.4byte	.LFE1-.LFB1
 1631 00dc 01       		.uleb128 0x1
 1632 00dd 9C       		.byte	0x9c
 1633 00de 08       		.uleb128 0x8
 1634 00df C8040000 		.4byte	.LASF19
 1635 00e3 01       		.byte	0x1
 1636 00e4 B7       		.byte	0xb7
 1637 00e5 00000000 		.4byte	.LFB2
 1638 00e9 44000000 		.4byte	.LFE2-.LFB2
 1639 00ed 01       		.uleb128 0x1
 1640 00ee 9C       		.byte	0x9c
 1641 00ef 02010000 		.4byte	0x102
 1642 00f3 09       		.uleb128 0x9
 1643 00f4 51040000 		.4byte	.LASF21
 1644 00f8 01       		.byte	0x1
 1645 00f9 B9       		.byte	0xb9
 1646 00fa 6B000000 		.4byte	0x6b
ARM GAS  C:\Users\yqh\AppData\Local\Temp\ccpJxCTG.s 			page 59


 1647 00fe 02       		.uleb128 0x2
 1648 00ff 91       		.byte	0x91
 1649 0100 77       		.sleb128 -9
 1650 0101 00       		.byte	0
 1651 0102 08       		.uleb128 0x8
 1652 0103 40040000 		.4byte	.LASF20
 1653 0107 01       		.byte	0x1
 1654 0108 F0       		.byte	0xf0
 1655 0109 00000000 		.4byte	.LFB3
 1656 010d 44000000 		.4byte	.LFE3-.LFB3
 1657 0111 01       		.uleb128 0x1
 1658 0112 9C       		.byte	0x9c
 1659 0113 26010000 		.4byte	0x126
 1660 0117 09       		.uleb128 0x9
 1661 0118 51040000 		.4byte	.LASF21
 1662 011c 01       		.byte	0x1
 1663 011d F2       		.byte	0xf2
 1664 011e 6B000000 		.4byte	0x6b
 1665 0122 02       		.uleb128 0x2
 1666 0123 91       		.byte	0x91
 1667 0124 77       		.sleb128 -9
 1668 0125 00       		.byte	0
 1669 0126 0A       		.uleb128 0xa
 1670 0127 01040000 		.4byte	.LASF32
 1671 012b 01       		.byte	0x1
 1672 012c 2701     		.2byte	0x127
 1673 012e 6B000000 		.4byte	0x6b
 1674 0132 00000000 		.4byte	.LFB4
 1675 0136 18000000 		.4byte	.LFE4-.LFB4
 1676 013a 01       		.uleb128 0x1
 1677 013b 9C       		.byte	0x9c
 1678 013c 0B       		.uleb128 0xb
 1679 013d 62040000 		.4byte	.LASF22
 1680 0141 01       		.byte	0x1
 1681 0142 3F01     		.2byte	0x13f
 1682 0144 00000000 		.4byte	.LFB5
 1683 0148 20000000 		.4byte	.LFE5-.LFB5
 1684 014c 01       		.uleb128 0x1
 1685 014d 9C       		.byte	0x9c
 1686 014e 62010000 		.4byte	0x162
 1687 0152 0C       		.uleb128 0xc
 1688 0153 47010000 		.4byte	.LASF24
 1689 0157 01       		.byte	0x1
 1690 0158 3F01     		.2byte	0x13f
 1691 015a 6B000000 		.4byte	0x6b
 1692 015e 02       		.uleb128 0x2
 1693 015f 91       		.byte	0x91
 1694 0160 77       		.sleb128 -9
 1695 0161 00       		.byte	0
 1696 0162 0B       		.uleb128 0xb
 1697 0163 2E030000 		.4byte	.LASF23
 1698 0167 01       		.byte	0x1
 1699 0168 6701     		.2byte	0x167
 1700 016a 00000000 		.4byte	.LFB6
 1701 016e 20000000 		.4byte	.LFE6-.LFB6
 1702 0172 01       		.uleb128 0x1
 1703 0173 9C       		.byte	0x9c
ARM GAS  C:\Users\yqh\AppData\Local\Temp\ccpJxCTG.s 			page 60


 1704 0174 88010000 		.4byte	0x188
 1705 0178 0C       		.uleb128 0xc
 1706 0179 E4010000 		.4byte	.LASF25
 1707 017d 01       		.byte	0x1
 1708 017e 6701     		.2byte	0x167
 1709 0180 6B000000 		.4byte	0x6b
 1710 0184 02       		.uleb128 0x2
 1711 0185 91       		.byte	0x91
 1712 0186 77       		.sleb128 -9
 1713 0187 00       		.byte	0
 1714 0188 0D       		.uleb128 0xd
 1715 0189 D1020000 		.4byte	.LASF27
 1716 018d 01       		.byte	0x1
 1717 018e 8801     		.2byte	0x188
 1718 0190 6B000000 		.4byte	0x6b
 1719 0194 00000000 		.4byte	.LFB7
 1720 0198 20000000 		.4byte	.LFE7-.LFB7
 1721 019c 01       		.uleb128 0x1
 1722 019d 9C       		.byte	0x9c
 1723 019e B2010000 		.4byte	0x1b2
 1724 01a2 0E       		.uleb128 0xe
 1725 01a3 DA030000 		.4byte	.LASF26
 1726 01a7 01       		.byte	0x1
 1727 01a8 8A01     		.2byte	0x18a
 1728 01aa 6B000000 		.4byte	0x6b
 1729 01ae 02       		.uleb128 0x2
 1730 01af 91       		.byte	0x91
 1731 01b0 77       		.sleb128 -9
 1732 01b1 00       		.byte	0
 1733 01b2 0D       		.uleb128 0xd
 1734 01b3 27040000 		.4byte	.LASF28
 1735 01b7 01       		.byte	0x1
 1736 01b8 E501     		.2byte	0x1e5
 1737 01ba 6B000000 		.4byte	0x6b
 1738 01be 00000000 		.4byte	.LFB8
 1739 01c2 24000000 		.4byte	.LFE8-.LFB8
 1740 01c6 01       		.uleb128 0x1
 1741 01c7 9C       		.byte	0x9c
 1742 01c8 DC010000 		.4byte	0x1dc
 1743 01cc 0E       		.uleb128 0xe
 1744 01cd AB000000 		.4byte	.LASF29
 1745 01d1 01       		.byte	0x1
 1746 01d2 E701     		.2byte	0x1e7
 1747 01d4 6B000000 		.4byte	0x6b
 1748 01d8 02       		.uleb128 0x2
 1749 01d9 91       		.byte	0x91
 1750 01da 77       		.sleb128 -9
 1751 01db 00       		.byte	0
 1752 01dc 0D       		.uleb128 0xd
 1753 01dd 9D010000 		.4byte	.LASF30
 1754 01e1 01       		.byte	0x1
 1755 01e2 1402     		.2byte	0x214
 1756 01e4 6B000000 		.4byte	0x6b
 1757 01e8 00000000 		.4byte	.LFB9
 1758 01ec 44000000 		.4byte	.LFE9-.LFB9
 1759 01f0 01       		.uleb128 0x1
 1760 01f1 9C       		.byte	0x9c
ARM GAS  C:\Users\yqh\AppData\Local\Temp\ccpJxCTG.s 			page 61


 1761 01f2 15020000 		.4byte	0x215
 1762 01f6 0E       		.uleb128 0xe
 1763 01f7 DA030000 		.4byte	.LASF26
 1764 01fb 01       		.byte	0x1
 1765 01fc 1602     		.2byte	0x216
 1766 01fe 6B000000 		.4byte	0x6b
 1767 0202 02       		.uleb128 0x2
 1768 0203 91       		.byte	0x91
 1769 0204 77       		.sleb128 -9
 1770 0205 0E       		.uleb128 0xe
 1771 0206 A6020000 		.4byte	.LASF31
 1772 020a 01       		.byte	0x1
 1773 020b 1702     		.2byte	0x217
 1774 020d 6B000000 		.4byte	0x6b
 1775 0211 02       		.uleb128 0x2
 1776 0212 91       		.byte	0x91
 1777 0213 76       		.sleb128 -10
 1778 0214 00       		.byte	0
 1779 0215 0F       		.uleb128 0xf
 1780 0216 A0040000 		.4byte	.LASF33
 1781 021a 01       		.byte	0x1
 1782 021b 7A02     		.2byte	0x27a
 1783 021d 77000000 		.4byte	0x77
 1784 0221 00000000 		.4byte	.LFB10
 1785 0225 22000000 		.4byte	.LFE10-.LFB10
 1786 0229 01       		.uleb128 0x1
 1787 022a 9C       		.byte	0x9c
 1788 022b 0D       		.uleb128 0xd
 1789 022c 2C000000 		.4byte	.LASF34
 1790 0230 01       		.byte	0x1
 1791 0231 AB02     		.2byte	0x2ab
 1792 0233 6B000000 		.4byte	0x6b
 1793 0237 00000000 		.4byte	.LFB11
 1794 023b 30000000 		.4byte	.LFE11-.LFB11
 1795 023f 01       		.uleb128 0x1
 1796 0240 9C       		.byte	0x9c
 1797 0241 55020000 		.4byte	0x255
 1798 0245 0E       		.uleb128 0xe
 1799 0246 B1010000 		.4byte	.LASF35
 1800 024a 01       		.byte	0x1
 1801 024b AE02     		.2byte	0x2ae
 1802 024d 6B000000 		.4byte	0x6b
 1803 0251 02       		.uleb128 0x2
 1804 0252 91       		.byte	0x91
 1805 0253 77       		.sleb128 -9
 1806 0254 00       		.byte	0
 1807 0255 10       		.uleb128 0x10
 1808 0256 14030000 		.4byte	.LASF36
 1809 025a 01       		.byte	0x1
 1810 025b F502     		.2byte	0x2f5
 1811 025d 00000000 		.4byte	.LFB12
 1812 0261 40000000 		.4byte	.LFE12-.LFB12
 1813 0265 01       		.uleb128 0x1
 1814 0266 9C       		.byte	0x9c
 1815 0267 7B020000 		.4byte	0x27b
 1816 026b 0E       		.uleb128 0xe
 1817 026c 51040000 		.4byte	.LASF21
ARM GAS  C:\Users\yqh\AppData\Local\Temp\ccpJxCTG.s 			page 62


 1818 0270 01       		.byte	0x1
 1819 0271 F702     		.2byte	0x2f7
 1820 0273 6B000000 		.4byte	0x6b
 1821 0277 02       		.uleb128 0x2
 1822 0278 91       		.byte	0x91
 1823 0279 77       		.sleb128 -9
 1824 027a 00       		.byte	0
 1825 027b 0B       		.uleb128 0xb
 1826 027c 48000000 		.4byte	.LASF37
 1827 0280 01       		.byte	0x1
 1828 0281 2D03     		.2byte	0x32d
 1829 0283 00000000 		.4byte	.LFB13
 1830 0287 14000000 		.4byte	.LFE13-.LFB13
 1831 028b 01       		.uleb128 0x1
 1832 028c 9C       		.byte	0x9c
 1833 028d A1020000 		.4byte	0x2a1
 1834 0291 0C       		.uleb128 0xc
 1835 0292 21010000 		.4byte	.LASF38
 1836 0296 01       		.byte	0x1
 1837 0297 2D03     		.2byte	0x32d
 1838 0299 6B000000 		.4byte	0x6b
 1839 029d 02       		.uleb128 0x2
 1840 029e 91       		.byte	0x91
 1841 029f 77       		.sleb128 -9
 1842 02a0 00       		.byte	0
 1843 02a1 0B       		.uleb128 0xb
 1844 02a2 9E030000 		.4byte	.LASF39
 1845 02a6 01       		.byte	0x1
 1846 02a7 5903     		.2byte	0x359
 1847 02a9 00000000 		.4byte	.LFB14
 1848 02ad 20000000 		.4byte	.LFE14-.LFB14
 1849 02b1 01       		.uleb128 0x1
 1850 02b2 9C       		.byte	0x9c
 1851 02b3 C7020000 		.4byte	0x2c7
 1852 02b7 0C       		.uleb128 0xc
 1853 02b8 10020000 		.4byte	.LASF40
 1854 02bc 01       		.byte	0x1
 1855 02bd 5903     		.2byte	0x359
 1856 02bf 6B000000 		.4byte	0x6b
 1857 02c3 02       		.uleb128 0x2
 1858 02c4 91       		.byte	0x91
 1859 02c5 77       		.sleb128 -9
 1860 02c6 00       		.byte	0
 1861 02c7 0B       		.uleb128 0xb
 1862 02c8 2D010000 		.4byte	.LASF41
 1863 02cc 01       		.byte	0x1
 1864 02cd 6D03     		.2byte	0x36d
 1865 02cf 00000000 		.4byte	.LFB15
 1866 02d3 20000000 		.4byte	.LFE15-.LFB15
 1867 02d7 01       		.uleb128 0x1
 1868 02d8 9C       		.byte	0x9c
 1869 02d9 ED020000 		.4byte	0x2ed
 1870 02dd 0C       		.uleb128 0xc
 1871 02de 10020000 		.4byte	.LASF40
 1872 02e2 01       		.byte	0x1
 1873 02e3 6D03     		.2byte	0x36d
 1874 02e5 6B000000 		.4byte	0x6b
ARM GAS  C:\Users\yqh\AppData\Local\Temp\ccpJxCTG.s 			page 63


 1875 02e9 02       		.uleb128 0x2
 1876 02ea 91       		.byte	0x91
 1877 02eb 77       		.sleb128 -9
 1878 02ec 00       		.byte	0
 1879 02ed 0B       		.uleb128 0xb
 1880 02ee F1040000 		.4byte	.LASF42
 1881 02f2 01       		.byte	0x1
 1882 02f3 8C03     		.2byte	0x38c
 1883 02f5 00000000 		.4byte	.LFB16
 1884 02f9 20000000 		.4byte	.LFE16-.LFB16
 1885 02fd 01       		.uleb128 0x1
 1886 02fe 9C       		.byte	0x9c
 1887 02ff 13030000 		.4byte	0x313
 1888 0303 0C       		.uleb128 0xc
 1889 0304 E4010000 		.4byte	.LASF25
 1890 0308 01       		.byte	0x1
 1891 0309 8C03     		.2byte	0x38c
 1892 030b 6B000000 		.4byte	0x6b
 1893 030f 02       		.uleb128 0x2
 1894 0310 91       		.byte	0x91
 1895 0311 77       		.sleb128 -9
 1896 0312 00       		.byte	0
 1897 0313 0B       		.uleb128 0xb
 1898 0314 B8030000 		.4byte	.LASF43
 1899 0318 01       		.byte	0x1
 1900 0319 AE03     		.2byte	0x3ae
 1901 031b 00000000 		.4byte	.LFB17
 1902 031f 2C000000 		.4byte	.LFE17-.LFB17
 1903 0323 01       		.uleb128 0x1
 1904 0324 9C       		.byte	0x9c
 1905 0325 39030000 		.4byte	0x339
 1906 0329 0C       		.uleb128 0xc
 1907 032a 07000000 		.4byte	.LASF44
 1908 032e 01       		.byte	0x1
 1909 032f AE03     		.2byte	0x3ae
 1910 0331 6B000000 		.4byte	0x6b
 1911 0335 02       		.uleb128 0x2
 1912 0336 91       		.byte	0x91
 1913 0337 77       		.sleb128 -9
 1914 0338 00       		.byte	0
 1915 0339 0A       		.uleb128 0xa
 1916 033a EA000000 		.4byte	.LASF45
 1917 033e 01       		.byte	0x1
 1918 033f EB03     		.2byte	0x3eb
 1919 0341 6B000000 		.4byte	0x6b
 1920 0345 00000000 		.4byte	.LFB18
 1921 0349 18000000 		.4byte	.LFE18-.LFB18
 1922 034d 01       		.uleb128 0x1
 1923 034e 9C       		.byte	0x9c
 1924 034f 0B       		.uleb128 0xb
 1925 0350 ED030000 		.4byte	.LASF46
 1926 0354 01       		.byte	0x1
 1927 0355 1104     		.2byte	0x411
 1928 0357 00000000 		.4byte	.LFB19
 1929 035b 34000000 		.4byte	.LFE19-.LFB19
 1930 035f 01       		.uleb128 0x1
 1931 0360 9C       		.byte	0x9c
ARM GAS  C:\Users\yqh\AppData\Local\Temp\ccpJxCTG.s 			page 64


 1932 0361 75030000 		.4byte	0x375
 1933 0365 0C       		.uleb128 0xc
 1934 0366 07000000 		.4byte	.LASF44
 1935 036a 01       		.byte	0x1
 1936 036b 1104     		.2byte	0x411
 1937 036d 6B000000 		.4byte	0x6b
 1938 0371 02       		.uleb128 0x2
 1939 0372 91       		.byte	0x91
 1940 0373 77       		.sleb128 -9
 1941 0374 00       		.byte	0
 1942 0375 10       		.uleb128 0x10
 1943 0376 B2000000 		.4byte	.LASF47
 1944 037a 01       		.byte	0x1
 1945 037b 7904     		.2byte	0x479
 1946 037d 00000000 		.4byte	.LFB20
 1947 0381 40000000 		.4byte	.LFE20-.LFB20
 1948 0385 01       		.uleb128 0x1
 1949 0386 9C       		.byte	0x9c
 1950 0387 AA030000 		.4byte	0x3aa
 1951 038b 0C       		.uleb128 0xc
 1952 038c E1030000 		.4byte	.LASF48
 1953 0390 01       		.byte	0x1
 1954 0391 7904     		.2byte	0x479
 1955 0393 AA030000 		.4byte	0x3aa
 1956 0397 02       		.uleb128 0x2
 1957 0398 91       		.byte	0x91
 1958 0399 6C       		.sleb128 -20
 1959 039a 0E       		.uleb128 0xe
 1960 039b C9010000 		.4byte	.LASF49
 1961 039f 01       		.byte	0x1
 1962 03a0 7B04     		.2byte	0x47b
 1963 03a2 77000000 		.4byte	0x77
 1964 03a6 02       		.uleb128 0x2
 1965 03a7 91       		.byte	0x91
 1966 03a8 76       		.sleb128 -10
 1967 03a9 00       		.byte	0
 1968 03aa 11       		.uleb128 0x11
 1969 03ab 04       		.byte	0x4
 1970 03ac B0030000 		.4byte	0x3b0
 1971 03b0 12       		.uleb128 0x12
 1972 03b1 91000000 		.4byte	0x91
 1973 03b5 10       		.uleb128 0x10
 1974 03b6 7C000000 		.4byte	.LASF50
 1975 03ba 01       		.byte	0x1
 1976 03bb A704     		.2byte	0x4a7
 1977 03bd 00000000 		.4byte	.LFB21
 1978 03c1 40000000 		.4byte	.LFE21-.LFB21
 1979 03c5 01       		.uleb128 0x1
 1980 03c6 9C       		.byte	0x9c
 1981 03c7 F9030000 		.4byte	0x3f9
 1982 03cb 0C       		.uleb128 0xc
 1983 03cc E1030000 		.4byte	.LASF48
 1984 03d0 01       		.byte	0x1
 1985 03d1 A704     		.2byte	0x4a7
 1986 03d3 F9030000 		.4byte	0x3f9
 1987 03d7 02       		.uleb128 0x2
 1988 03d8 91       		.byte	0x91
ARM GAS  C:\Users\yqh\AppData\Local\Temp\ccpJxCTG.s 			page 65


 1989 03d9 6C       		.sleb128 -20
 1990 03da 0C       		.uleb128 0xc
 1991 03db D0030000 		.4byte	.LASF51
 1992 03df 01       		.byte	0x1
 1993 03e0 A704     		.2byte	0x4a7
 1994 03e2 6B000000 		.4byte	0x6b
 1995 03e6 02       		.uleb128 0x2
 1996 03e7 91       		.byte	0x91
 1997 03e8 6B       		.sleb128 -21
 1998 03e9 0E       		.uleb128 0xe
 1999 03ea C9010000 		.4byte	.LASF49
 2000 03ee 01       		.byte	0x1
 2001 03ef AA04     		.2byte	0x4aa
 2002 03f1 6B000000 		.4byte	0x6b
 2003 03f5 02       		.uleb128 0x2
 2004 03f6 91       		.byte	0x91
 2005 03f7 77       		.sleb128 -9
 2006 03f8 00       		.byte	0
 2007 03f9 11       		.uleb128 0x11
 2008 03fa 04       		.byte	0x4
 2009 03fb FF030000 		.4byte	0x3ff
 2010 03ff 12       		.uleb128 0x12
 2011 0400 6B000000 		.4byte	0x6b
 2012 0404 10       		.uleb128 0x10
 2013 0405 B4040000 		.4byte	.LASF52
 2014 0409 01       		.byte	0x1
 2015 040a CE04     		.2byte	0x4ce
 2016 040c 00000000 		.4byte	.LFB22
 2017 0410 30000000 		.4byte	.LFE22-.LFB22
 2018 0414 01       		.uleb128 0x1
 2019 0415 9C       		.byte	0x9c
 2020 0416 2A040000 		.4byte	0x42a
 2021 041a 0C       		.uleb128 0xc
 2022 041b 07000000 		.4byte	.LASF44
 2023 041f 01       		.byte	0x1
 2024 0420 CE04     		.2byte	0x4ce
 2025 0422 6B000000 		.4byte	0x6b
 2026 0426 02       		.uleb128 0x2
 2027 0427 91       		.byte	0x91
 2028 0428 77       		.sleb128 -9
 2029 0429 00       		.byte	0
 2030 042a 0D       		.uleb128 0xd
 2031 042b B5020000 		.4byte	.LASF53
 2032 042f 01       		.byte	0x1
 2033 0430 F904     		.2byte	0x4f9
 2034 0432 6B000000 		.4byte	0x6b
 2035 0436 00000000 		.4byte	.LFB23
 2036 043a 44000000 		.4byte	.LFE23-.LFB23
 2037 043e 01       		.uleb128 0x1
 2038 043f 9C       		.byte	0x9c
 2039 0440 54040000 		.4byte	0x454
 2040 0444 0E       		.uleb128 0xe
 2041 0445 B1010000 		.4byte	.LASF35
 2042 0449 01       		.byte	0x1
 2043 044a FC04     		.2byte	0x4fc
 2044 044c 6B000000 		.4byte	0x6b
 2045 0450 02       		.uleb128 0x2
ARM GAS  C:\Users\yqh\AppData\Local\Temp\ccpJxCTG.s 			page 66


 2046 0451 91       		.byte	0x91
 2047 0452 77       		.sleb128 -9
 2048 0453 00       		.byte	0
 2049 0454 10       		.uleb128 0x10
 2050 0455 12000000 		.4byte	.LASF54
 2051 0459 01       		.byte	0x1
 2052 045a 4A05     		.2byte	0x54a
 2053 045c 00000000 		.4byte	.LFB24
 2054 0460 40000000 		.4byte	.LFE24-.LFB24
 2055 0464 01       		.uleb128 0x1
 2056 0465 9C       		.byte	0x9c
 2057 0466 7A040000 		.4byte	0x47a
 2058 046a 0E       		.uleb128 0xe
 2059 046b 51040000 		.4byte	.LASF21
 2060 046f 01       		.byte	0x1
 2061 0470 4C05     		.2byte	0x54c
 2062 0472 6B000000 		.4byte	0x6b
 2063 0476 02       		.uleb128 0x2
 2064 0477 91       		.byte	0x91
 2065 0478 77       		.sleb128 -9
 2066 0479 00       		.byte	0
 2067 047a 10       		.uleb128 0x10
 2068 047b DB040000 		.4byte	.LASF55
 2069 047f 01       		.byte	0x1
 2070 0480 A005     		.2byte	0x5a0
 2071 0482 00000000 		.4byte	.LFB25
 2072 0486 9C000000 		.4byte	.LFE25-.LFB25
 2073 048a 01       		.uleb128 0x1
 2074 048b 9C       		.byte	0x9c
 2075 048c B9040000 		.4byte	0x4b9
 2076 0490 0C       		.uleb128 0xc
 2077 0491 4F010000 		.4byte	.LASF56
 2078 0495 01       		.byte	0x1
 2079 0496 A005     		.2byte	0x5a0
 2080 0498 6B000000 		.4byte	0x6b
 2081 049c 02       		.uleb128 0x2
 2082 049d 91       		.byte	0x91
 2083 049e 6F       		.sleb128 -17
 2084 049f 13       		.uleb128 0x13
 2085 04a0 12000000 		.4byte	.LBB2
 2086 04a4 78000000 		.4byte	.LBE2-.LBB2
 2087 04a8 0E       		.uleb128 0xe
 2088 04a9 FF010000 		.4byte	.LASF57
 2089 04ad 01       		.byte	0x1
 2090 04ae A805     		.2byte	0x5a8
 2091 04b0 6B000000 		.4byte	0x6b
 2092 04b4 02       		.uleb128 0x2
 2093 04b5 91       		.byte	0x91
 2094 04b6 77       		.sleb128 -9
 2095 04b7 00       		.byte	0
 2096 04b8 00       		.byte	0
 2097 04b9 10       		.uleb128 0x10
 2098 04ba 83040000 		.4byte	.LASF58
 2099 04be 01       		.byte	0x1
 2100 04bf 2406     		.2byte	0x624
 2101 04c1 00000000 		.4byte	.LFB26
 2102 04c5 3C000000 		.4byte	.LFE26-.LFB26
ARM GAS  C:\Users\yqh\AppData\Local\Temp\ccpJxCTG.s 			page 67


 2103 04c9 01       		.uleb128 0x1
 2104 04ca 9C       		.byte	0x9c
 2105 04cb DF040000 		.4byte	0x4df
 2106 04cf 0C       		.uleb128 0xc
 2107 04d0 21010000 		.4byte	.LASF38
 2108 04d4 01       		.byte	0x1
 2109 04d5 2406     		.2byte	0x624
 2110 04d7 6B000000 		.4byte	0x6b
 2111 04db 02       		.uleb128 0x2
 2112 04dc 91       		.byte	0x91
 2113 04dd 77       		.sleb128 -9
 2114 04de 00       		.byte	0
 2115 04df 14       		.uleb128 0x14
 2116 04e0 D1000000 		.4byte	.LASF59
 2117 04e4 01       		.byte	0x1
 2118 04e5 5006     		.2byte	0x650
 2119 04e7 00000000 		.4byte	.LFB27
 2120 04eb 24000000 		.4byte	.LFE27-.LFB27
 2121 04ef 01       		.uleb128 0x1
 2122 04f0 9C       		.byte	0x9c
 2123 04f1 14       		.uleb128 0x14
 2124 04f2 E8020000 		.4byte	.LASF60
 2125 04f6 01       		.byte	0x1
 2126 04f7 7006     		.2byte	0x670
 2127 04f9 00000000 		.4byte	.LFB28
 2128 04fd 24000000 		.4byte	.LFE28-.LFB28
 2129 0501 01       		.uleb128 0x1
 2130 0502 9C       		.byte	0x9c
 2131 0503 15       		.uleb128 0x15
 2132 0504 EB010000 		.4byte	.LASF64
 2133 0508 01       		.byte	0x1
 2134 0509 1B       		.byte	0x1b
 2135 050a 6B000000 		.4byte	0x6b
 2136 050e 05       		.uleb128 0x5
 2137 050f 03       		.byte	0x3
 2138 0510 00000000 		.4byte	UART_READER_initVar
 2139 0514 00       		.byte	0
 2140              		.section	.debug_abbrev,"",%progbits
 2141              	.Ldebug_abbrev0:
 2142 0000 01       		.uleb128 0x1
 2143 0001 11       		.uleb128 0x11
 2144 0002 01       		.byte	0x1
 2145 0003 25       		.uleb128 0x25
 2146 0004 0E       		.uleb128 0xe
 2147 0005 13       		.uleb128 0x13
 2148 0006 0B       		.uleb128 0xb
 2149 0007 03       		.uleb128 0x3
 2150 0008 0E       		.uleb128 0xe
 2151 0009 1B       		.uleb128 0x1b
 2152 000a 0E       		.uleb128 0xe
 2153 000b 55       		.uleb128 0x55
 2154 000c 17       		.uleb128 0x17
 2155 000d 11       		.uleb128 0x11
 2156 000e 01       		.uleb128 0x1
 2157 000f 10       		.uleb128 0x10
 2158 0010 17       		.uleb128 0x17
 2159 0011 00       		.byte	0
ARM GAS  C:\Users\yqh\AppData\Local\Temp\ccpJxCTG.s 			page 68


 2160 0012 00       		.byte	0
 2161 0013 02       		.uleb128 0x2
 2162 0014 24       		.uleb128 0x24
 2163 0015 00       		.byte	0
 2164 0016 0B       		.uleb128 0xb
 2165 0017 0B       		.uleb128 0xb
 2166 0018 3E       		.uleb128 0x3e
 2167 0019 0B       		.uleb128 0xb
 2168 001a 03       		.uleb128 0x3
 2169 001b 0E       		.uleb128 0xe
 2170 001c 00       		.byte	0
 2171 001d 00       		.byte	0
 2172 001e 03       		.uleb128 0x3
 2173 001f 24       		.uleb128 0x24
 2174 0020 00       		.byte	0
 2175 0021 0B       		.uleb128 0xb
 2176 0022 0B       		.uleb128 0xb
 2177 0023 3E       		.uleb128 0x3e
 2178 0024 0B       		.uleb128 0xb
 2179 0025 03       		.uleb128 0x3
 2180 0026 08       		.uleb128 0x8
 2181 0027 00       		.byte	0
 2182 0028 00       		.byte	0
 2183 0029 04       		.uleb128 0x4
 2184 002a 16       		.uleb128 0x16
 2185 002b 00       		.byte	0
 2186 002c 03       		.uleb128 0x3
 2187 002d 0E       		.uleb128 0xe
 2188 002e 3A       		.uleb128 0x3a
 2189 002f 0B       		.uleb128 0xb
 2190 0030 3B       		.uleb128 0x3b
 2191 0031 05       		.uleb128 0x5
 2192 0032 49       		.uleb128 0x49
 2193 0033 13       		.uleb128 0x13
 2194 0034 00       		.byte	0
 2195 0035 00       		.byte	0
 2196 0036 05       		.uleb128 0x5
 2197 0037 35       		.uleb128 0x35
 2198 0038 00       		.byte	0
 2199 0039 49       		.uleb128 0x49
 2200 003a 13       		.uleb128 0x13
 2201 003b 00       		.byte	0
 2202 003c 00       		.byte	0
 2203 003d 06       		.uleb128 0x6
 2204 003e 2E       		.uleb128 0x2e
 2205 003f 00       		.byte	0
 2206 0040 3F       		.uleb128 0x3f
 2207 0041 19       		.uleb128 0x19
 2208 0042 03       		.uleb128 0x3
 2209 0043 0E       		.uleb128 0xe
 2210 0044 3A       		.uleb128 0x3a
 2211 0045 0B       		.uleb128 0xb
 2212 0046 3B       		.uleb128 0x3b
 2213 0047 0B       		.uleb128 0xb
 2214 0048 27       		.uleb128 0x27
 2215 0049 19       		.uleb128 0x19
 2216 004a 11       		.uleb128 0x11
ARM GAS  C:\Users\yqh\AppData\Local\Temp\ccpJxCTG.s 			page 69


 2217 004b 01       		.uleb128 0x1
 2218 004c 12       		.uleb128 0x12
 2219 004d 06       		.uleb128 0x6
 2220 004e 40       		.uleb128 0x40
 2221 004f 18       		.uleb128 0x18
 2222 0050 9642     		.uleb128 0x2116
 2223 0052 19       		.uleb128 0x19
 2224 0053 00       		.byte	0
 2225 0054 00       		.byte	0
 2226 0055 07       		.uleb128 0x7
 2227 0056 2E       		.uleb128 0x2e
 2228 0057 00       		.byte	0
 2229 0058 3F       		.uleb128 0x3f
 2230 0059 19       		.uleb128 0x19
 2231 005a 03       		.uleb128 0x3
 2232 005b 0E       		.uleb128 0xe
 2233 005c 3A       		.uleb128 0x3a
 2234 005d 0B       		.uleb128 0xb
 2235 005e 3B       		.uleb128 0x3b
 2236 005f 0B       		.uleb128 0xb
 2237 0060 27       		.uleb128 0x27
 2238 0061 19       		.uleb128 0x19
 2239 0062 11       		.uleb128 0x11
 2240 0063 01       		.uleb128 0x1
 2241 0064 12       		.uleb128 0x12
 2242 0065 06       		.uleb128 0x6
 2243 0066 40       		.uleb128 0x40
 2244 0067 18       		.uleb128 0x18
 2245 0068 9742     		.uleb128 0x2117
 2246 006a 19       		.uleb128 0x19
 2247 006b 00       		.byte	0
 2248 006c 00       		.byte	0
 2249 006d 08       		.uleb128 0x8
 2250 006e 2E       		.uleb128 0x2e
 2251 006f 01       		.byte	0x1
 2252 0070 3F       		.uleb128 0x3f
 2253 0071 19       		.uleb128 0x19
 2254 0072 03       		.uleb128 0x3
 2255 0073 0E       		.uleb128 0xe
 2256 0074 3A       		.uleb128 0x3a
 2257 0075 0B       		.uleb128 0xb
 2258 0076 3B       		.uleb128 0x3b
 2259 0077 0B       		.uleb128 0xb
 2260 0078 27       		.uleb128 0x27
 2261 0079 19       		.uleb128 0x19
 2262 007a 11       		.uleb128 0x11
 2263 007b 01       		.uleb128 0x1
 2264 007c 12       		.uleb128 0x12
 2265 007d 06       		.uleb128 0x6
 2266 007e 40       		.uleb128 0x40
 2267 007f 18       		.uleb128 0x18
 2268 0080 9642     		.uleb128 0x2116
 2269 0082 19       		.uleb128 0x19
 2270 0083 01       		.uleb128 0x1
 2271 0084 13       		.uleb128 0x13
 2272 0085 00       		.byte	0
 2273 0086 00       		.byte	0
ARM GAS  C:\Users\yqh\AppData\Local\Temp\ccpJxCTG.s 			page 70


 2274 0087 09       		.uleb128 0x9
 2275 0088 34       		.uleb128 0x34
 2276 0089 00       		.byte	0
 2277 008a 03       		.uleb128 0x3
 2278 008b 0E       		.uleb128 0xe
 2279 008c 3A       		.uleb128 0x3a
 2280 008d 0B       		.uleb128 0xb
 2281 008e 3B       		.uleb128 0x3b
 2282 008f 0B       		.uleb128 0xb
 2283 0090 49       		.uleb128 0x49
 2284 0091 13       		.uleb128 0x13
 2285 0092 02       		.uleb128 0x2
 2286 0093 18       		.uleb128 0x18
 2287 0094 00       		.byte	0
 2288 0095 00       		.byte	0
 2289 0096 0A       		.uleb128 0xa
 2290 0097 2E       		.uleb128 0x2e
 2291 0098 00       		.byte	0
 2292 0099 3F       		.uleb128 0x3f
 2293 009a 19       		.uleb128 0x19
 2294 009b 03       		.uleb128 0x3
 2295 009c 0E       		.uleb128 0xe
 2296 009d 3A       		.uleb128 0x3a
 2297 009e 0B       		.uleb128 0xb
 2298 009f 3B       		.uleb128 0x3b
 2299 00a0 05       		.uleb128 0x5
 2300 00a1 27       		.uleb128 0x27
 2301 00a2 19       		.uleb128 0x19
 2302 00a3 49       		.uleb128 0x49
 2303 00a4 13       		.uleb128 0x13
 2304 00a5 11       		.uleb128 0x11
 2305 00a6 01       		.uleb128 0x1
 2306 00a7 12       		.uleb128 0x12
 2307 00a8 06       		.uleb128 0x6
 2308 00a9 40       		.uleb128 0x40
 2309 00aa 18       		.uleb128 0x18
 2310 00ab 9742     		.uleb128 0x2117
 2311 00ad 19       		.uleb128 0x19
 2312 00ae 00       		.byte	0
 2313 00af 00       		.byte	0
 2314 00b0 0B       		.uleb128 0xb
 2315 00b1 2E       		.uleb128 0x2e
 2316 00b2 01       		.byte	0x1
 2317 00b3 3F       		.uleb128 0x3f
 2318 00b4 19       		.uleb128 0x19
 2319 00b5 03       		.uleb128 0x3
 2320 00b6 0E       		.uleb128 0xe
 2321 00b7 3A       		.uleb128 0x3a
 2322 00b8 0B       		.uleb128 0xb
 2323 00b9 3B       		.uleb128 0x3b
 2324 00ba 05       		.uleb128 0x5
 2325 00bb 27       		.uleb128 0x27
 2326 00bc 19       		.uleb128 0x19
 2327 00bd 11       		.uleb128 0x11
 2328 00be 01       		.uleb128 0x1
 2329 00bf 12       		.uleb128 0x12
 2330 00c0 06       		.uleb128 0x6
ARM GAS  C:\Users\yqh\AppData\Local\Temp\ccpJxCTG.s 			page 71


 2331 00c1 40       		.uleb128 0x40
 2332 00c2 18       		.uleb128 0x18
 2333 00c3 9742     		.uleb128 0x2117
 2334 00c5 19       		.uleb128 0x19
 2335 00c6 01       		.uleb128 0x1
 2336 00c7 13       		.uleb128 0x13
 2337 00c8 00       		.byte	0
 2338 00c9 00       		.byte	0
 2339 00ca 0C       		.uleb128 0xc
 2340 00cb 05       		.uleb128 0x5
 2341 00cc 00       		.byte	0
 2342 00cd 03       		.uleb128 0x3
 2343 00ce 0E       		.uleb128 0xe
 2344 00cf 3A       		.uleb128 0x3a
 2345 00d0 0B       		.uleb128 0xb
 2346 00d1 3B       		.uleb128 0x3b
 2347 00d2 05       		.uleb128 0x5
 2348 00d3 49       		.uleb128 0x49
 2349 00d4 13       		.uleb128 0x13
 2350 00d5 02       		.uleb128 0x2
 2351 00d6 18       		.uleb128 0x18
 2352 00d7 00       		.byte	0
 2353 00d8 00       		.byte	0
 2354 00d9 0D       		.uleb128 0xd
 2355 00da 2E       		.uleb128 0x2e
 2356 00db 01       		.byte	0x1
 2357 00dc 3F       		.uleb128 0x3f
 2358 00dd 19       		.uleb128 0x19
 2359 00de 03       		.uleb128 0x3
 2360 00df 0E       		.uleb128 0xe
 2361 00e0 3A       		.uleb128 0x3a
 2362 00e1 0B       		.uleb128 0xb
 2363 00e2 3B       		.uleb128 0x3b
 2364 00e3 05       		.uleb128 0x5
 2365 00e4 27       		.uleb128 0x27
 2366 00e5 19       		.uleb128 0x19
 2367 00e6 49       		.uleb128 0x49
 2368 00e7 13       		.uleb128 0x13
 2369 00e8 11       		.uleb128 0x11
 2370 00e9 01       		.uleb128 0x1
 2371 00ea 12       		.uleb128 0x12
 2372 00eb 06       		.uleb128 0x6
 2373 00ec 40       		.uleb128 0x40
 2374 00ed 18       		.uleb128 0x18
 2375 00ee 9742     		.uleb128 0x2117
 2376 00f0 19       		.uleb128 0x19
 2377 00f1 01       		.uleb128 0x1
 2378 00f2 13       		.uleb128 0x13
 2379 00f3 00       		.byte	0
 2380 00f4 00       		.byte	0
 2381 00f5 0E       		.uleb128 0xe
 2382 00f6 34       		.uleb128 0x34
 2383 00f7 00       		.byte	0
 2384 00f8 03       		.uleb128 0x3
 2385 00f9 0E       		.uleb128 0xe
 2386 00fa 3A       		.uleb128 0x3a
 2387 00fb 0B       		.uleb128 0xb
ARM GAS  C:\Users\yqh\AppData\Local\Temp\ccpJxCTG.s 			page 72


 2388 00fc 3B       		.uleb128 0x3b
 2389 00fd 05       		.uleb128 0x5
 2390 00fe 49       		.uleb128 0x49
 2391 00ff 13       		.uleb128 0x13
 2392 0100 02       		.uleb128 0x2
 2393 0101 18       		.uleb128 0x18
 2394 0102 00       		.byte	0
 2395 0103 00       		.byte	0
 2396 0104 0F       		.uleb128 0xf
 2397 0105 2E       		.uleb128 0x2e
 2398 0106 00       		.byte	0
 2399 0107 3F       		.uleb128 0x3f
 2400 0108 19       		.uleb128 0x19
 2401 0109 03       		.uleb128 0x3
 2402 010a 0E       		.uleb128 0xe
 2403 010b 3A       		.uleb128 0x3a
 2404 010c 0B       		.uleb128 0xb
 2405 010d 3B       		.uleb128 0x3b
 2406 010e 05       		.uleb128 0x5
 2407 010f 27       		.uleb128 0x27
 2408 0110 19       		.uleb128 0x19
 2409 0111 49       		.uleb128 0x49
 2410 0112 13       		.uleb128 0x13
 2411 0113 11       		.uleb128 0x11
 2412 0114 01       		.uleb128 0x1
 2413 0115 12       		.uleb128 0x12
 2414 0116 06       		.uleb128 0x6
 2415 0117 40       		.uleb128 0x40
 2416 0118 18       		.uleb128 0x18
 2417 0119 9642     		.uleb128 0x2116
 2418 011b 19       		.uleb128 0x19
 2419 011c 00       		.byte	0
 2420 011d 00       		.byte	0
 2421 011e 10       		.uleb128 0x10
 2422 011f 2E       		.uleb128 0x2e
 2423 0120 01       		.byte	0x1
 2424 0121 3F       		.uleb128 0x3f
 2425 0122 19       		.uleb128 0x19
 2426 0123 03       		.uleb128 0x3
 2427 0124 0E       		.uleb128 0xe
 2428 0125 3A       		.uleb128 0x3a
 2429 0126 0B       		.uleb128 0xb
 2430 0127 3B       		.uleb128 0x3b
 2431 0128 05       		.uleb128 0x5
 2432 0129 27       		.uleb128 0x27
 2433 012a 19       		.uleb128 0x19
 2434 012b 11       		.uleb128 0x11
 2435 012c 01       		.uleb128 0x1
 2436 012d 12       		.uleb128 0x12
 2437 012e 06       		.uleb128 0x6
 2438 012f 40       		.uleb128 0x40
 2439 0130 18       		.uleb128 0x18
 2440 0131 9642     		.uleb128 0x2116
 2441 0133 19       		.uleb128 0x19
 2442 0134 01       		.uleb128 0x1
 2443 0135 13       		.uleb128 0x13
 2444 0136 00       		.byte	0
ARM GAS  C:\Users\yqh\AppData\Local\Temp\ccpJxCTG.s 			page 73


 2445 0137 00       		.byte	0
 2446 0138 11       		.uleb128 0x11
 2447 0139 0F       		.uleb128 0xf
 2448 013a 00       		.byte	0
 2449 013b 0B       		.uleb128 0xb
 2450 013c 0B       		.uleb128 0xb
 2451 013d 49       		.uleb128 0x49
 2452 013e 13       		.uleb128 0x13
 2453 013f 00       		.byte	0
 2454 0140 00       		.byte	0
 2455 0141 12       		.uleb128 0x12
 2456 0142 26       		.uleb128 0x26
 2457 0143 00       		.byte	0
 2458 0144 49       		.uleb128 0x49
 2459 0145 13       		.uleb128 0x13
 2460 0146 00       		.byte	0
 2461 0147 00       		.byte	0
 2462 0148 13       		.uleb128 0x13
 2463 0149 0B       		.uleb128 0xb
 2464 014a 01       		.byte	0x1
 2465 014b 11       		.uleb128 0x11
 2466 014c 01       		.uleb128 0x1
 2467 014d 12       		.uleb128 0x12
 2468 014e 06       		.uleb128 0x6
 2469 014f 00       		.byte	0
 2470 0150 00       		.byte	0
 2471 0151 14       		.uleb128 0x14
 2472 0152 2E       		.uleb128 0x2e
 2473 0153 00       		.byte	0
 2474 0154 3F       		.uleb128 0x3f
 2475 0155 19       		.uleb128 0x19
 2476 0156 03       		.uleb128 0x3
 2477 0157 0E       		.uleb128 0xe
 2478 0158 3A       		.uleb128 0x3a
 2479 0159 0B       		.uleb128 0xb
 2480 015a 3B       		.uleb128 0x3b
 2481 015b 05       		.uleb128 0x5
 2482 015c 27       		.uleb128 0x27
 2483 015d 19       		.uleb128 0x19
 2484 015e 11       		.uleb128 0x11
 2485 015f 01       		.uleb128 0x1
 2486 0160 12       		.uleb128 0x12
 2487 0161 06       		.uleb128 0x6
 2488 0162 40       		.uleb128 0x40
 2489 0163 18       		.uleb128 0x18
 2490 0164 9642     		.uleb128 0x2116
 2491 0166 19       		.uleb128 0x19
 2492 0167 00       		.byte	0
 2493 0168 00       		.byte	0
 2494 0169 15       		.uleb128 0x15
 2495 016a 34       		.uleb128 0x34
 2496 016b 00       		.byte	0
 2497 016c 03       		.uleb128 0x3
 2498 016d 0E       		.uleb128 0xe
 2499 016e 3A       		.uleb128 0x3a
 2500 016f 0B       		.uleb128 0xb
 2501 0170 3B       		.uleb128 0x3b
ARM GAS  C:\Users\yqh\AppData\Local\Temp\ccpJxCTG.s 			page 74


 2502 0171 0B       		.uleb128 0xb
 2503 0172 49       		.uleb128 0x49
 2504 0173 13       		.uleb128 0x13
 2505 0174 3F       		.uleb128 0x3f
 2506 0175 19       		.uleb128 0x19
 2507 0176 02       		.uleb128 0x2
 2508 0177 18       		.uleb128 0x18
 2509 0178 00       		.byte	0
 2510 0179 00       		.byte	0
 2511 017a 00       		.byte	0
 2512              		.section	.debug_aranges,"",%progbits
 2513 0000 FC000000 		.4byte	0xfc
 2514 0004 0200     		.2byte	0x2
 2515 0006 00000000 		.4byte	.Ldebug_info0
 2516 000a 04       		.byte	0x4
 2517 000b 00       		.byte	0
 2518 000c 0000     		.2byte	0
 2519 000e 0000     		.2byte	0
 2520 0010 00000000 		.4byte	.LFB0
 2521 0014 20000000 		.4byte	.LFE0-.LFB0
 2522 0018 00000000 		.4byte	.LFB1
 2523 001c 20000000 		.4byte	.LFE1-.LFB1
 2524 0020 00000000 		.4byte	.LFB2
 2525 0024 44000000 		.4byte	.LFE2-.LFB2
 2526 0028 00000000 		.4byte	.LFB3
 2527 002c 44000000 		.4byte	.LFE3-.LFB3
 2528 0030 00000000 		.4byte	.LFB4
 2529 0034 18000000 		.4byte	.LFE4-.LFB4
 2530 0038 00000000 		.4byte	.LFB5
 2531 003c 20000000 		.4byte	.LFE5-.LFB5
 2532 0040 00000000 		.4byte	.LFB6
 2533 0044 20000000 		.4byte	.LFE6-.LFB6
 2534 0048 00000000 		.4byte	.LFB7
 2535 004c 20000000 		.4byte	.LFE7-.LFB7
 2536 0050 00000000 		.4byte	.LFB8
 2537 0054 24000000 		.4byte	.LFE8-.LFB8
 2538 0058 00000000 		.4byte	.LFB9
 2539 005c 44000000 		.4byte	.LFE9-.LFB9
 2540 0060 00000000 		.4byte	.LFB10
 2541 0064 22000000 		.4byte	.LFE10-.LFB10
 2542 0068 00000000 		.4byte	.LFB11
 2543 006c 30000000 		.4byte	.LFE11-.LFB11
 2544 0070 00000000 		.4byte	.LFB12
 2545 0074 40000000 		.4byte	.LFE12-.LFB12
 2546 0078 00000000 		.4byte	.LFB13
 2547 007c 14000000 		.4byte	.LFE13-.LFB13
 2548 0080 00000000 		.4byte	.LFB14
 2549 0084 20000000 		.4byte	.LFE14-.LFB14
 2550 0088 00000000 		.4byte	.LFB15
 2551 008c 20000000 		.4byte	.LFE15-.LFB15
 2552 0090 00000000 		.4byte	.LFB16
 2553 0094 20000000 		.4byte	.LFE16-.LFB16
 2554 0098 00000000 		.4byte	.LFB17
 2555 009c 2C000000 		.4byte	.LFE17-.LFB17
 2556 00a0 00000000 		.4byte	.LFB18
 2557 00a4 18000000 		.4byte	.LFE18-.LFB18
 2558 00a8 00000000 		.4byte	.LFB19
ARM GAS  C:\Users\yqh\AppData\Local\Temp\ccpJxCTG.s 			page 75


 2559 00ac 34000000 		.4byte	.LFE19-.LFB19
 2560 00b0 00000000 		.4byte	.LFB20
 2561 00b4 40000000 		.4byte	.LFE20-.LFB20
 2562 00b8 00000000 		.4byte	.LFB21
 2563 00bc 40000000 		.4byte	.LFE21-.LFB21
 2564 00c0 00000000 		.4byte	.LFB22
 2565 00c4 30000000 		.4byte	.LFE22-.LFB22
 2566 00c8 00000000 		.4byte	.LFB23
 2567 00cc 44000000 		.4byte	.LFE23-.LFB23
 2568 00d0 00000000 		.4byte	.LFB24
 2569 00d4 40000000 		.4byte	.LFE24-.LFB24
 2570 00d8 00000000 		.4byte	.LFB25
 2571 00dc 9C000000 		.4byte	.LFE25-.LFB25
 2572 00e0 00000000 		.4byte	.LFB26
 2573 00e4 3C000000 		.4byte	.LFE26-.LFB26
 2574 00e8 00000000 		.4byte	.LFB27
 2575 00ec 24000000 		.4byte	.LFE27-.LFB27
 2576 00f0 00000000 		.4byte	.LFB28
 2577 00f4 24000000 		.4byte	.LFE28-.LFB28
 2578 00f8 00000000 		.4byte	0
 2579 00fc 00000000 		.4byte	0
 2580              		.section	.debug_ranges,"",%progbits
 2581              	.Ldebug_ranges0:
 2582 0000 00000000 		.4byte	.LFB0
 2583 0004 20000000 		.4byte	.LFE0
 2584 0008 00000000 		.4byte	.LFB1
 2585 000c 20000000 		.4byte	.LFE1
 2586 0010 00000000 		.4byte	.LFB2
 2587 0014 44000000 		.4byte	.LFE2
 2588 0018 00000000 		.4byte	.LFB3
 2589 001c 44000000 		.4byte	.LFE3
 2590 0020 00000000 		.4byte	.LFB4
 2591 0024 18000000 		.4byte	.LFE4
 2592 0028 00000000 		.4byte	.LFB5
 2593 002c 20000000 		.4byte	.LFE5
 2594 0030 00000000 		.4byte	.LFB6
 2595 0034 20000000 		.4byte	.LFE6
 2596 0038 00000000 		.4byte	.LFB7
 2597 003c 20000000 		.4byte	.LFE7
 2598 0040 00000000 		.4byte	.LFB8
 2599 0044 24000000 		.4byte	.LFE8
 2600 0048 00000000 		.4byte	.LFB9
 2601 004c 44000000 		.4byte	.LFE9
 2602 0050 00000000 		.4byte	.LFB10
 2603 0054 22000000 		.4byte	.LFE10
 2604 0058 00000000 		.4byte	.LFB11
 2605 005c 30000000 		.4byte	.LFE11
 2606 0060 00000000 		.4byte	.LFB12
 2607 0064 40000000 		.4byte	.LFE12
 2608 0068 00000000 		.4byte	.LFB13
 2609 006c 14000000 		.4byte	.LFE13
 2610 0070 00000000 		.4byte	.LFB14
 2611 0074 20000000 		.4byte	.LFE14
 2612 0078 00000000 		.4byte	.LFB15
 2613 007c 20000000 		.4byte	.LFE15
 2614 0080 00000000 		.4byte	.LFB16
 2615 0084 20000000 		.4byte	.LFE16
ARM GAS  C:\Users\yqh\AppData\Local\Temp\ccpJxCTG.s 			page 76


 2616 0088 00000000 		.4byte	.LFB17
 2617 008c 2C000000 		.4byte	.LFE17
 2618 0090 00000000 		.4byte	.LFB18
 2619 0094 18000000 		.4byte	.LFE18
 2620 0098 00000000 		.4byte	.LFB19
 2621 009c 34000000 		.4byte	.LFE19
 2622 00a0 00000000 		.4byte	.LFB20
 2623 00a4 40000000 		.4byte	.LFE20
 2624 00a8 00000000 		.4byte	.LFB21
 2625 00ac 40000000 		.4byte	.LFE21
 2626 00b0 00000000 		.4byte	.LFB22
 2627 00b4 30000000 		.4byte	.LFE22
 2628 00b8 00000000 		.4byte	.LFB23
 2629 00bc 44000000 		.4byte	.LFE23
 2630 00c0 00000000 		.4byte	.LFB24
 2631 00c4 40000000 		.4byte	.LFE24
 2632 00c8 00000000 		.4byte	.LFB25
 2633 00cc 9C000000 		.4byte	.LFE25
 2634 00d0 00000000 		.4byte	.LFB26
 2635 00d4 3C000000 		.4byte	.LFE26
 2636 00d8 00000000 		.4byte	.LFB27
 2637 00dc 24000000 		.4byte	.LFE27
 2638 00e0 00000000 		.4byte	.LFB28
 2639 00e4 24000000 		.4byte	.LFE28
 2640 00e8 00000000 		.4byte	0
 2641 00ec 00000000 		.4byte	0
 2642              		.section	.debug_line,"",%progbits
 2643              	.Ldebug_line0:
 2644 0000 00030000 		.section	.debug_str,"MS",%progbits,1
 2644      02004A00 
 2644      00000201 
 2644      FB0E0D00 
 2644      01010101 
 2645              	.LASF10:
 2646 0000 75696E74 		.ascii	"uint16\000"
 2646      313600
 2647              	.LASF44:
 2648 0007 74784461 		.ascii	"txDataByte\000"
 2648      74614279 
 2648      746500
 2649              	.LASF54:
 2650 0012 55415254 		.ascii	"UART_READER_ClearTxBuffer\000"
 2650      5F524541 
 2650      4445525F 
 2650      436C6561 
 2650      72547842 
 2651              	.LASF34:
 2652 002c 55415254 		.ascii	"UART_READER_GetRxBufferSize\000"
 2652      5F524541 
 2652      4445525F 
 2652      47657452 
 2652      78427566 
 2653              	.LASF37:
 2654 0048 55415254 		.ascii	"UART_READER_SetRxAddressMode\000"
 2654      5F524541 
 2654      4445525F 
 2654      53657452 
ARM GAS  C:\Users\yqh\AppData\Local\Temp\ccpJxCTG.s 			page 77


 2654      78416464 
 2655              	.LASF7:
 2656 0065 6C6F6E67 		.ascii	"long long unsigned int\000"
 2656      206C6F6E 
 2656      6720756E 
 2656      7369676E 
 2656      65642069 
 2657              	.LASF50:
 2658 007c 55415254 		.ascii	"UART_READER_PutArray\000"
 2658      5F524541 
 2658      4445525F 
 2658      50757441 
 2658      72726179 
 2659              	.LASF6:
 2660 0091 6C6F6E67 		.ascii	"long long int\000"
 2660      206C6F6E 
 2660      6720696E 
 2660      7400
 2661              	.LASF0:
 2662 009f 7369676E 		.ascii	"signed char\000"
 2662      65642063 
 2662      68617200 
 2663              	.LASF29:
 2664 00ab 73746174 		.ascii	"status\000"
 2664      757300
 2665              	.LASF47:
 2666 00b2 55415254 		.ascii	"UART_READER_PutString\000"
 2666      5F524541 
 2666      4445525F 
 2666      50757453 
 2666      7472696E 
 2667              	.LASF4:
 2668 00c8 6C6F6E67 		.ascii	"long int\000"
 2668      20696E74 
 2668      00
 2669              	.LASF59:
 2670 00d1 55415254 		.ascii	"UART_READER_LoadRxConfig\000"
 2670      5F524541 
 2670      4445525F 
 2670      4C6F6164 
 2670      5278436F 
 2671              	.LASF45:
 2672 00ea 55415254 		.ascii	"UART_READER_ReadTxStatus\000"
 2672      5F524541 
 2672      4445525F 
 2672      52656164 
 2672      54785374 
 2673              	.LASF9:
 2674 0103 75696E74 		.ascii	"uint8\000"
 2674      3800
 2675              	.LASF18:
 2676 0109 55415254 		.ascii	"UART_READER_Init\000"
 2676      5F524541 
 2676      4445525F 
 2676      496E6974 
 2676      00
 2677              	.LASF12:
ARM GAS  C:\Users\yqh\AppData\Local\Temp\ccpJxCTG.s 			page 78


 2678 011a 646F7562 		.ascii	"double\000"
 2678      6C6500
 2679              	.LASF38:
 2680 0121 61646472 		.ascii	"addressMode\000"
 2680      6573734D 
 2680      6F646500 
 2681              	.LASF41:
 2682 012d 55415254 		.ascii	"UART_READER_SetRxAddress2\000"
 2682      5F524541 
 2682      4445525F 
 2682      53657452 
 2682      78416464 
 2683              	.LASF24:
 2684 0147 636F6E74 		.ascii	"control\000"
 2684      726F6C00 
 2685              	.LASF56:
 2686 014f 7265744D 		.ascii	"retMode\000"
 2686      6F646500 
 2687              	.LASF62:
 2688 0157 2E5C4765 		.ascii	".\\Generated_Source\\PSoC5\\UART_READER.c\000"
 2688      6E657261 
 2688      7465645F 
 2688      536F7572 
 2688      63655C50 
 2689              	.LASF8:
 2690 017e 756E7369 		.ascii	"unsigned int\000"
 2690      676E6564 
 2690      20696E74 
 2690      00
 2691              	.LASF5:
 2692 018b 6C6F6E67 		.ascii	"long unsigned int\000"
 2692      20756E73 
 2692      69676E65 
 2692      6420696E 
 2692      7400
 2693              	.LASF30:
 2694 019d 55415254 		.ascii	"UART_READER_GetChar\000"
 2694      5F524541 
 2694      4445525F 
 2694      47657443 
 2694      68617200 
 2695              	.LASF35:
 2696 01b1 73697A65 		.ascii	"size\000"
 2696      00
 2697              	.LASF3:
 2698 01b6 73686F72 		.ascii	"short unsigned int\000"
 2698      7420756E 
 2698      7369676E 
 2698      65642069 
 2698      6E7400
 2699              	.LASF49:
 2700 01c9 62756649 		.ascii	"bufIndex\000"
 2700      6E646578 
 2700      00
 2701              	.LASF17:
 2702 01d2 55415254 		.ascii	"UART_READER_Start\000"
 2702      5F524541 
ARM GAS  C:\Users\yqh\AppData\Local\Temp\ccpJxCTG.s 			page 79


 2702      4445525F 
 2702      53746172 
 2702      7400
 2703              	.LASF25:
 2704 01e4 696E7453 		.ascii	"intSrc\000"
 2704      726300
 2705              	.LASF64:
 2706 01eb 55415254 		.ascii	"UART_READER_initVar\000"
 2706      5F524541 
 2706      4445525F 
 2706      696E6974 
 2706      56617200 
 2707              	.LASF57:
 2708 01ff 746D7053 		.ascii	"tmpStat\000"
 2708      74617400 
 2709              	.LASF16:
 2710 0207 73697A65 		.ascii	"sizetype\000"
 2710      74797065 
 2710      00
 2711              	.LASF40:
 2712 0210 61646472 		.ascii	"address\000"
 2712      65737300 
 2713              	.LASF61:
 2714 0218 474E5520 		.ascii	"GNU C 4.9.3 20150303 (release) [ARM/embedded-4_9-br"
 2714      4320342E 
 2714      392E3320 
 2714      32303135 
 2714      30333033 
 2715 024b 616E6368 		.ascii	"anch revision 221220] -mcpu=cortex-m3 -mthumb -g -O"
 2715      20726576 
 2715      6973696F 
 2715      6E203232 
 2715      31323230 
 2716 027e 30202D66 		.ascii	"0 -ffunction-sections -ffat-lto-objects\000"
 2716      66756E63 
 2716      74696F6E 
 2716      2D736563 
 2716      74696F6E 
 2717              	.LASF31:
 2718 02a6 72785374 		.ascii	"rxStatus\000"
 2718      61747573 
 2718      00
 2719              	.LASF11:
 2720 02af 666C6F61 		.ascii	"float\000"
 2720      7400
 2721              	.LASF53:
 2722 02b5 55415254 		.ascii	"UART_READER_GetTxBufferSize\000"
 2722      5F524541 
 2722      4445525F 
 2722      47657454 
 2722      78427566 
 2723              	.LASF27:
 2724 02d1 55415254 		.ascii	"UART_READER_ReadRxData\000"
 2724      5F524541 
 2724      4445525F 
 2724      52656164 
 2724      52784461 
ARM GAS  C:\Users\yqh\AppData\Local\Temp\ccpJxCTG.s 			page 80


 2725              	.LASF60:
 2726 02e8 55415254 		.ascii	"UART_READER_LoadTxConfig\000"
 2726      5F524541 
 2726      4445525F 
 2726      4C6F6164 
 2726      5478436F 
 2727              	.LASF15:
 2728 0301 72656738 		.ascii	"reg8\000"
 2728      00
 2729              	.LASF1:
 2730 0306 756E7369 		.ascii	"unsigned char\000"
 2730      676E6564 
 2730      20636861 
 2730      7200
 2731              	.LASF36:
 2732 0314 55415254 		.ascii	"UART_READER_ClearRxBuffer\000"
 2732      5F524541 
 2732      4445525F 
 2732      436C6561 
 2732      72527842 
 2733              	.LASF23:
 2734 032e 55415254 		.ascii	"UART_READER_SetRxInterruptMode\000"
 2734      5F524541 
 2734      4445525F 
 2734      53657452 
 2734      78496E74 
 2735              	.LASF2:
 2736 034d 73686F72 		.ascii	"short int\000"
 2736      7420696E 
 2736      7400
 2737              	.LASF63:
 2738 0357 433A5C55 		.ascii	"C:\\Users\\yqh\\Documents\\works\\NanoNXT\\Pass_TOC"
 2738      73657273 
 2738      5C797168 
 2738      5C446F63 
 2738      756D656E 
 2739 0384 5C332E35 		.ascii	"\\3.5.2\\nanoNxt_ICM3.cydsn\000"
 2739      2E325C6E 
 2739      616E6F4E 
 2739      78745F49 
 2739      434D332E 
 2740              	.LASF39:
 2741 039e 55415254 		.ascii	"UART_READER_SetRxAddress1\000"
 2741      5F524541 
 2741      4445525F 
 2741      53657452 
 2741      78416464 
 2742              	.LASF43:
 2743 03b8 55415254 		.ascii	"UART_READER_WriteTxData\000"
 2743      5F524541 
 2743      4445525F 
 2743      57726974 
 2743      65547844 
 2744              	.LASF51:
 2745 03d0 62797465 		.ascii	"byteCount\000"
 2745      436F756E 
 2745      7400
ARM GAS  C:\Users\yqh\AppData\Local\Temp\ccpJxCTG.s 			page 81


 2746              	.LASF26:
 2747 03da 72784461 		.ascii	"rxData\000"
 2747      746100
 2748              	.LASF48:
 2749 03e1 73747269 		.ascii	"string\000"
 2749      6E6700
 2750              	.LASF14:
 2751 03e8 63686172 		.ascii	"char\000"
 2751      00
 2752              	.LASF46:
 2753 03ed 55415254 		.ascii	"UART_READER_PutChar\000"
 2753      5F524541 
 2753      4445525F 
 2753      50757443 
 2753      68617200 
 2754              	.LASF32:
 2755 0401 55415254 		.ascii	"UART_READER_ReadControlRegister\000"
 2755      5F524541 
 2755      4445525F 
 2755      52656164 
 2755      436F6E74 
 2756              	.LASF13:
 2757 0421 63686172 		.ascii	"char8\000"
 2757      3800
 2758              	.LASF28:
 2759 0427 55415254 		.ascii	"UART_READER_ReadRxStatus\000"
 2759      5F524541 
 2759      4445525F 
 2759      52656164 
 2759      52785374 
 2760              	.LASF20:
 2761 0440 55415254 		.ascii	"UART_READER_Stop\000"
 2761      5F524541 
 2761      4445525F 
 2761      53746F70 
 2761      00
 2762              	.LASF21:
 2763 0451 656E6162 		.ascii	"enableInterrupts\000"
 2763      6C65496E 
 2763      74657272 
 2763      75707473 
 2763      00
 2764              	.LASF22:
 2765 0462 55415254 		.ascii	"UART_READER_WriteControlRegister\000"
 2765      5F524541 
 2765      4445525F 
 2765      57726974 
 2765      65436F6E 
 2766              	.LASF58:
 2767 0483 55415254 		.ascii	"UART_READER_SetTxAddressMode\000"
 2767      5F524541 
 2767      4445525F 
 2767      53657454 
 2767      78416464 
 2768              	.LASF33:
 2769 04a0 55415254 		.ascii	"UART_READER_GetByte\000"
 2769      5F524541 
ARM GAS  C:\Users\yqh\AppData\Local\Temp\ccpJxCTG.s 			page 82


 2769      4445525F 
 2769      47657442 
 2769      79746500 
 2770              	.LASF52:
 2771 04b4 55415254 		.ascii	"UART_READER_PutCRLF\000"
 2771      5F524541 
 2771      4445525F 
 2771      50757443 
 2771      524C4600 
 2772              	.LASF19:
 2773 04c8 55415254 		.ascii	"UART_READER_Enable\000"
 2773      5F524541 
 2773      4445525F 
 2773      456E6162 
 2773      6C6500
 2774              	.LASF55:
 2775 04db 55415254 		.ascii	"UART_READER_SendBreak\000"
 2775      5F524541 
 2775      4445525F 
 2775      53656E64 
 2775      42726561 
 2776              	.LASF42:
 2777 04f1 55415254 		.ascii	"UART_READER_SetTxInterruptMode\000"
 2777      5F524541 
 2777      4445525F 
 2777      53657454 
 2777      78496E74 
 2778              		.ident	"GCC: (GNU Tools for ARM Embedded Processors) 4.9.3 20150303 (release) [ARM/embedded-4_9-br
