ARM GAS  C:\Users\Yiquing\AppData\Local\Temp\cc5OWbyO.s 			page 1


   1              		.syntax unified
   2              		.cpu cortex-m3
   3              		.fpu softvfp
   4              		.eabi_attribute 20, 1
   5              		.eabi_attribute 21, 1
   6              		.eabi_attribute 23, 3
   7              		.eabi_attribute 24, 1
   8              		.eabi_attribute 25, 1
   9              		.eabi_attribute 26, 1
  10              		.eabi_attribute 30, 4
  11              		.eabi_attribute 34, 1
  12              		.eabi_attribute 18, 4
  13              		.thumb
  14              		.file	"i2cuart.c"
  15              		.text
  16              	.Ltext0:
  17              		.cfi_sections	.debug_frame
  18              		.section	.text.SendPAC,"ax",%progbits
  19              		.align	1
  20              		.global	SendPAC
  21              		.thumb
  22              		.thumb_func
  23              		.type	SendPAC, %function
  24              	SendPAC:
  25              	.LFB63:
  26              		.file 1 ".\\i2cuart.c"
   1:.\i2cuart.c   **** /* =======================================
   2:.\i2cuart.c   ****  *
   3:.\i2cuart.c   ****  * Copyright YOUR COMPANY, THE YEAR
   4:.\i2cuart.c   ****  * All Rights Reserved
   5:.\i2cuart.c   ****  * UNPUBLISHED, LICENSED SOFTWARE.
   6:.\i2cuart.c   ****  *
   7:.\i2cuart.c   ****  * CONFIDENTIAL AND PROPRIETARY INFORMATION
   8:.\i2cuart.c   ****  * WHICH IS THE PROPERTY OF your company.
   9:.\i2cuart.c   ****  *
  10:.\i2cuart.c   ****  * ========================================
  11:.\i2cuart.c   **** */
  12:.\i2cuart.c   **** 
  13:.\i2cuart.c   **** /* [] END OF FILE */
  14:.\i2cuart.c   **** 
  15:.\i2cuart.c   **** #include <project.h>
  16:.\i2cuart.c   **** #include "system.h"
  17:.\i2cuart.c   **** #include "LED_0.h"
  18:.\i2cuart.c   **** #include "LED_1.h"
  19:.\i2cuart.c   **** #include "LED_2.h"
  20:.\i2cuart.c   **** #include "i2cuart.h"
  21:.\i2cuart.c   **** 
  22:.\i2cuart.c   **** 
  23:.\i2cuart.c   **** void SendPAC()
  24:.\i2cuart.c   **** {
  27              		.loc 1 24 0
  28              		.cfi_startproc
  29              		@ args = 0, pretend = 0, frame = 0
  30              		@ frame_needed = 0, uses_anonymous_args = 0
  31 0000 38B5     		push	{r3, r4, r5, lr}
  32              		.cfi_def_cfa_offset 16
  33              		.cfi_offset 3, -16
ARM GAS  C:\Users\Yiquing\AppData\Local\Temp\cc5OWbyO.s 			page 2


  34              		.cfi_offset 4, -12
  35              		.cfi_offset 5, -8
  36              		.cfi_offset 14, -4
  25:.\i2cuart.c   ****     int i,j;
  26:.\i2cuart.c   ****     LED_GRN_Write(0);
  37              		.loc 1 26 0
  38 0002 0020     		movs	r0, #0
  39 0004 FFF7FEFF 		bl	LED_GRN_Write
  40              	.LVL0:
  27:.\i2cuart.c   ****     LED_YEL_Write(0);
  41              		.loc 1 27 0
  42 0008 0020     		movs	r0, #0
  43 000a FFF7FEFF 		bl	LED_YEL_Write
  44              	.LVL1:
  45 000e 1425     		movs	r5, #20
  46              	.LVL2:
  47              	.L2:
  24:.\i2cuart.c   **** {
  48              		.loc 1 24 0 discriminator 1
  49 0010 0024     		movs	r4, #0
  50              	.LVL3:
  51              	.L5:
  52 0012 094B     		ldr	r3, .L7
  53 0014 2344     		add	r3, r3, r4
  28:.\i2cuart.c   ****   
  29:.\i2cuart.c   ****     for( i = 0; i < 20; i++)
  30:.\i2cuart.c   ****     {
  31:.\i2cuart.c   ****         for( j= 0; j < 12 ; j++)
  32:.\i2cuart.c   ****          UART_1_PutChar(MyI2C_Regs.buffer[j]);
  54              		.loc 1 32 0 discriminator 2
  55 0016 9879     		ldrb	r0, [r3, #6]	@ zero_extendqisi2
  31:.\i2cuart.c   ****         for( j= 0; j < 12 ; j++)
  56              		.loc 1 31 0 discriminator 2
  57 0018 0134     		adds	r4, r4, #1
  58              	.LVL4:
  59              		.loc 1 32 0 discriminator 2
  60 001a FFF7FEFF 		bl	UART_1_PutChar
  61              	.LVL5:
  31:.\i2cuart.c   ****         for( j= 0; j < 12 ; j++)
  62              		.loc 1 31 0 discriminator 2
  63 001e 0C2C     		cmp	r4, #12
  64 0020 F7D1     		bne	.L5
  65              	.LVL6:
  29:.\i2cuart.c   ****     for( i = 0; i < 20; i++)
  66              		.loc 1 29 0
  67 0022 013D     		subs	r5, r5, #1
  68              	.LVL7:
  69 0024 F4D1     		bne	.L2
  33:.\i2cuart.c   ****     }
  34:.\i2cuart.c   **** 
  35:.\i2cuart.c   ****     LED_GRN_Write(1);
  70              		.loc 1 35 0
  71 0026 0120     		movs	r0, #1
  72 0028 FFF7FEFF 		bl	LED_GRN_Write
  73              	.LVL8:
  36:.\i2cuart.c   ****     LED_YEL_Write(1);
  37:.\i2cuart.c   **** }
ARM GAS  C:\Users\Yiquing\AppData\Local\Temp\cc5OWbyO.s 			page 3


  74              		.loc 1 37 0
  75 002c BDE83840 		pop	{r3, r4, r5, lr}
  76              	.LVL9:
  36:.\i2cuart.c   ****     LED_YEL_Write(1);
  77              		.loc 1 36 0
  78 0030 0120     		movs	r0, #1
  79 0032 FFF7FEBF 		b	LED_YEL_Write
  80              	.LVL10:
  81              	.L8:
  82 0036 00BF     		.align	2
  83              	.L7:
  84 0038 00000000 		.word	MyI2C_Regs
  85              		.cfi_endproc
  86              	.LFE63:
  87              		.size	SendPAC, .-SendPAC
  88              		.section	.text.ReadPAC,"ax",%progbits
  89              		.align	1
  90              		.global	ReadPAC
  91              		.thumb
  92              		.thumb_func
  93              		.type	ReadPAC, %function
  94              	ReadPAC:
  95              	.LFB64:
  38:.\i2cuart.c   **** 
  39:.\i2cuart.c   **** int ReadPAC()
  40:.\i2cuart.c   **** {
  96              		.loc 1 40 0
  97              		.cfi_startproc
  98              		@ args = 0, pretend = 0, frame = 0
  99              		@ frame_needed = 0, uses_anonymous_args = 0
 100              	.LVL11:
 101 0000 10B5     		push	{r4, lr}
 102              		.cfi_def_cfa_offset 8
 103              		.cfi_offset 4, -8
 104              		.cfi_offset 14, -4
  41:.\i2cuart.c   ****     int byteCount =0;
  42:.\i2cuart.c   ****     char tmp;
  43:.\i2cuart.c   ****     char ret = 0;
  44:.\i2cuart.c   ****    
  45:.\i2cuart.c   **** 
  46:.\i2cuart.c   ****     if(UART_1_ReadRxStatus() ==   UART_1_RX_STS_FIFO_NOTEMPTY)
 105              		.loc 1 46 0
 106 0002 FFF7FEFF 		bl	UART_1_ReadRxStatus
 107              	.LVL12:
 108 0006 2028     		cmp	r0, #32
 109 0008 01D0     		beq	.L10
  43:.\i2cuart.c   ****     char ret = 0;
 110              		.loc 1 43 0
 111 000a 0020     		movs	r0, #0
 112 000c 10BD     		pop	{r4, pc}
 113              	.L10:
 114              		.loc 1 46 0
 115 000e 0024     		movs	r4, #0
 116              	.LVL13:
 117              	.L13:
  47:.\i2cuart.c   ****     {
  48:.\i2cuart.c   ****         while(byteCount < 12)
ARM GAS  C:\Users\Yiquing\AppData\Local\Temp\cc5OWbyO.s 			page 4


  49:.\i2cuart.c   ****         {
  50:.\i2cuart.c   ****             
  51:.\i2cuart.c   ****             if(UART_1_ReadRxStatus() ==   UART_1_RX_STS_FIFO_NOTEMPTY)
 118              		.loc 1 51 0
 119 0010 FFF7FEFF 		bl	UART_1_ReadRxStatus
 120              	.LVL14:
 121 0014 2028     		cmp	r0, #32
 122 0016 FBD1     		bne	.L13
  52:.\i2cuart.c   ****             {
  53:.\i2cuart.c   ****                 tmp = UART_1_GetChar();
 123              		.loc 1 53 0
 124 0018 FFF7FEFF 		bl	UART_1_GetChar
 125              	.LVL15:
  54:.\i2cuart.c   ****                 if(tmp == 0x02)
 126              		.loc 1 54 0
 127 001c 0228     		cmp	r0, #2
 128 001e 01D0     		beq	.L21
  55:.\i2cuart.c   ****                 {
  56:.\i2cuart.c   ****                     MyI2C_Regs.buffer[byteCount] = tmp;
  57:.\i2cuart.c   ****                     byteCount++;
  58:.\i2cuart.c   ****                 }
  59:.\i2cuart.c   ****                 else if(byteCount > 0)
 129              		.loc 1 59 0
 130 0020 002C     		cmp	r4, #0
 131 0022 F5D0     		beq	.L13
 132              	.L21:
  60:.\i2cuart.c   ****                 {
  61:.\i2cuart.c   ****                   MyI2C_Regs.buffer[byteCount] = tmp;
 133              		.loc 1 61 0
 134 0024 094B     		ldr	r3, .L22
 135 0026 2344     		add	r3, r3, r4
  62:.\i2cuart.c   ****                   byteCount++;
 136              		.loc 1 62 0
 137 0028 0134     		adds	r4, r4, #1
 138              	.LVL16:
  48:.\i2cuart.c   ****         while(byteCount < 12)
 139              		.loc 1 48 0
 140 002a 0B2C     		cmp	r4, #11
  61:.\i2cuart.c   ****                   MyI2C_Regs.buffer[byteCount] = tmp;
 141              		.loc 1 61 0
 142 002c 9871     		strb	r0, [r3, #6]
  48:.\i2cuart.c   ****         while(byteCount < 12)
 143              		.loc 1 48 0
 144 002e EFDD     		ble	.L13
  63:.\i2cuart.c   ****                 }
  64:.\i2cuart.c   ****             }
  65:.\i2cuart.c   ****             
  66:.\i2cuart.c   ****         }
  67:.\i2cuart.c   ****         UART_1_ClearRxBuffer();
 145              		.loc 1 67 0
 146 0030 FFF7FEFF 		bl	UART_1_ClearRxBuffer
 147              	.LVL17:
  68:.\i2cuart.c   ****         MyI2C_Regs.cmd = 0;
 148              		.loc 1 68 0
 149 0034 054B     		ldr	r3, .L22
 150 0036 0022     		movs	r2, #0
 151 0038 9A70     		strb	r2, [r3, #2]
ARM GAS  C:\Users\Yiquing\AppData\Local\Temp\cc5OWbyO.s 			page 5


  69:.\i2cuart.c   ****         card_in_buf = 1;
 152              		.loc 1 69 0
 153 003a 054A     		ldr	r2, .L22+4
 154 003c 0120     		movs	r0, #1
 155 003e 1060     		str	r0, [r2]
  70:.\i2cuart.c   ****         MyI2C_Regs.status |= STAT_CHANGE | STAT_CARD_IN;
 156              		.loc 1 70 0
 157 0040 1A78     		ldrb	r2, [r3]	@ zero_extendqisi2
 158 0042 42F00302 		orr	r2, r2, #3
 159 0046 1A70     		strb	r2, [r3]
 160              	.LVL18:
 161 0048 10BD     		pop	{r4, pc}
 162              	.LVL19:
 163              	.L23:
 164 004a 00BF     		.align	2
 165              	.L22:
 166 004c 00000000 		.word	MyI2C_Regs
 167 0050 00000000 		.word	card_in_buf
 168              		.cfi_endproc
 169              	.LFE64:
 170              		.size	ReadPAC, .-ReadPAC
 171              		.section	.text.SetupUART,"ax",%progbits
 172              		.align	1
 173              		.global	SetupUART
 174              		.thumb
 175              		.thumb_func
 176              		.type	SetupUART, %function
 177              	SetupUART:
 178              	.LFB65:
  71:.\i2cuart.c   ****         ret = 1;
  72:.\i2cuart.c   ****    
  73:.\i2cuart.c   ****     }
  74:.\i2cuart.c   ****     
  75:.\i2cuart.c   ****     return ret;
  76:.\i2cuart.c   **** }
  77:.\i2cuart.c   **** 
  78:.\i2cuart.c   **** void SetupUART(char accessType)
  79:.\i2cuart.c   **** {
 179              		.loc 1 79 0
 180              		.cfi_startproc
 181              		@ args = 0, pretend = 0, frame = 0
 182              		@ frame_needed = 0, uses_anonymous_args = 0
 183              	.LVL20:
 184 0000 38B5     		push	{r3, r4, r5, lr}
 185              		.cfi_def_cfa_offset 16
 186              		.cfi_offset 3, -16
 187              		.cfi_offset 4, -12
 188              		.cfi_offset 5, -8
 189              		.cfi_offset 14, -4
  80:.\i2cuart.c   **** 
  81:.\i2cuart.c   ****     
  82:.\i2cuart.c   ****     if(currentAccessType != accessType)
 190              		.loc 1 82 0
 191 0002 084B     		ldr	r3, .L30
  79:.\i2cuart.c   **** {
 192              		.loc 1 79 0
 193 0004 0446     		mov	r4, r0
ARM GAS  C:\Users\Yiquing\AppData\Local\Temp\cc5OWbyO.s 			page 6


 194              		.loc 1 82 0
 195 0006 1A78     		ldrb	r2, [r3]	@ zero_extendqisi2
 196 0008 1D46     		mov	r5, r3
 197 000a 8242     		cmp	r2, r0
 198 000c 09D0     		beq	.L24
  83:.\i2cuart.c   ****     {
  84:.\i2cuart.c   ****         switch(accessType)
 199              		.loc 1 84 0
 200 000e 0C28     		cmp	r0, #12
 201 0010 03D0     		beq	.L27
 202 0012 1A28     		cmp	r0, #26
 203 0014 04D1     		bne	.L26
  85:.\i2cuart.c   ****         {
  86:.\i2cuart.c   ****             case PAC:
  87:.\i2cuart.c   ****                OptSelect_Write(0);
  88:.\i2cuart.c   ****                 break;
  89:.\i2cuart.c   ****             case HID:
  90:.\i2cuart.c   ****                OptSelect_Write(1);
 204              		.loc 1 90 0
 205 0016 0120     		movs	r0, #1
 206              	.LVL21:
 207 0018 00E0     		b	.L29
 208              	.LVL22:
 209              	.L27:
  87:.\i2cuart.c   ****                OptSelect_Write(0);
 210              		.loc 1 87 0
 211 001a 0020     		movs	r0, #0
 212              	.LVL23:
 213              	.L29:
 214              		.loc 1 90 0
 215 001c FFF7FEFF 		bl	OptSelect_Write
 216              	.LVL24:
 217              	.L26:
  91:.\i2cuart.c   ****                 break;
  92:.\i2cuart.c   ****                 
  93:.\i2cuart.c   ****         }
  94:.\i2cuart.c   ****         currentAccessType = accessType;
 218              		.loc 1 94 0
 219 0020 2C70     		strb	r4, [r5]
 220              	.L24:
 221 0022 38BD     		pop	{r3, r4, r5, pc}
 222              	.L31:
 223              		.align	2
 224              	.L30:
 225 0024 00000000 		.word	currentAccessType
 226              		.cfi_endproc
 227              	.LFE65:
 228              		.size	SetupUART, .-SetupUART
 229              		.section	.text.copyPanelBufI2C,"ax",%progbits
 230              		.align	1
 231              		.global	copyPanelBufI2C
 232              		.thumb
 233              		.thumb_func
 234              		.type	copyPanelBufI2C, %function
 235              	copyPanelBufI2C:
 236              	.LFB66:
  95:.\i2cuart.c   ****     }
ARM GAS  C:\Users\Yiquing\AppData\Local\Temp\cc5OWbyO.s 			page 7


  96:.\i2cuart.c   ****     
  97:.\i2cuart.c   **** }
  98:.\i2cuart.c   **** 
  99:.\i2cuart.c   **** ////////////////OSDP PANEL//////////////////
 100:.\i2cuart.c   **** 
 101:.\i2cuart.c   **** PanelBuf panelReadBuf, panelSendBuf;
 102:.\i2cuart.c   **** 
 103:.\i2cuart.c   **** struct OSDP_MSG_HEADER {
 104:.\i2cuart.c   ****     unsigned char addr;
 105:.\i2cuart.c   ****     union{
 106:.\i2cuart.c   ****         short len;
 107:.\i2cuart.c   ****         unsigned char length[2];
 108:.\i2cuart.c   ****     }u;
 109:.\i2cuart.c   ****     unsigned char cmnd;
 110:.\i2cuart.c   ****     unsigned char ctrl;
 111:.\i2cuart.c   ****     unsigned char seq;
 112:.\i2cuart.c   ****     unsigned char checksum;
 113:.\i2cuart.c   **** } osdp_msg_header,osdp_reader_msg_header;
 114:.\i2cuart.c   **** 
 115:.\i2cuart.c   **** 
 116:.\i2cuart.c   **** void copyPanelBufI2C(PanelBuf *p)
 117:.\i2cuart.c   **** {
 237              		.loc 1 117 0
 238              		.cfi_startproc
 239              		@ args = 0, pretend = 0, frame = 0
 240              		@ frame_needed = 0, uses_anonymous_args = 0
 241              	.LVL25:
 118:.\i2cuart.c   ****     int i;
 119:.\i2cuart.c   ****     MyI2C_Regs.osdp_data_length = p->len;
 242              		.loc 1 119 0
 243 0000 90F88020 		ldrb	r2, [r0, #128]	@ zero_extendqisi2
 244 0004 0A4B     		ldr	r3, .L37
 120:.\i2cuart.c   ****     if (p->len >  OSDP_BUFFER_LENGTH) p->len = OSDP_BUFFER_LENGTH;
 245              		.loc 1 120 0
 246 0006 802A     		cmp	r2, #128
 247 0008 1946     		mov	r1, r3
 117:.\i2cuart.c   **** {
 248              		.loc 1 117 0
 249 000a 10B5     		push	{r4, lr}
 250              		.cfi_def_cfa_offset 8
 251              		.cfi_offset 4, -8
 252              		.cfi_offset 14, -4
 119:.\i2cuart.c   ****     MyI2C_Regs.osdp_data_length = p->len;
 253              		.loc 1 119 0
 254 000c 83F84B20 		strb	r2, [r3, #75]
 255              		.loc 1 120 0
 256 0010 84BF     		itt	hi
 257 0012 8023     		movhi	r3, #128
 258 0014 80F88030 		strbhi	r3, [r0, #128]
 117:.\i2cuart.c   **** {
 259              		.loc 1 117 0
 260 0018 0023     		movs	r3, #0
 261              	.L34:
 262              	.LVL26:
 121:.\i2cuart.c   ****     for (i=0; i < p->len; i++){
 263              		.loc 1 121 0 discriminator 1
 264 001a 90F88020 		ldrb	r2, [r0, #128]	@ zero_extendqisi2
ARM GAS  C:\Users\Yiquing\AppData\Local\Temp\cc5OWbyO.s 			page 8


 265 001e 9342     		cmp	r3, r2
 266 0020 05DA     		bge	.L36
 122:.\i2cuart.c   ****         MyI2C_Regs.osdp_buffer[i] = p->buf[i];
 267              		.loc 1 122 0 discriminator 2
 268 0022 C45C     		ldrb	r4, [r0, r3]	@ zero_extendqisi2
 269 0024 CA18     		adds	r2, r1, r3
 270 0026 82F84D40 		strb	r4, [r2, #77]
 121:.\i2cuart.c   ****     for (i=0; i < p->len; i++){
 271              		.loc 1 121 0 discriminator 2
 272 002a 0133     		adds	r3, r3, #1
 273              	.LVL27:
 274 002c F5E7     		b	.L34
 275              	.L36:
 123:.\i2cuart.c   ****     }
 124:.\i2cuart.c   **** }
 276              		.loc 1 124 0
 277 002e 10BD     		pop	{r4, pc}
 278              	.L38:
 279              		.align	2
 280              	.L37:
 281 0030 00000000 		.word	MyI2C_Regs
 282              		.cfi_endproc
 283              	.LFE66:
 284              		.size	copyPanelBufI2C, .-copyPanelBufI2C
 285              		.section	.text.ClearOsdpBuffer,"ax",%progbits
 286              		.align	1
 287              		.global	ClearOsdpBuffer
 288              		.thumb
 289              		.thumb_func
 290              		.type	ClearOsdpBuffer, %function
 291              	ClearOsdpBuffer:
 292              	.LFB68:
 125:.\i2cuart.c   **** void copyI2CPanelBuf()
 126:.\i2cuart.c   **** {
 127:.\i2cuart.c   ****     int i;
 128:.\i2cuart.c   ****     panelSendBuf.len = MyI2C_Regs.osdp_data_length;
 129:.\i2cuart.c   ****     if (panelSendBuf.len >  OSDP_BUFFER_LENGTH) panelSendBuf.len = OSDP_BUFFER_LENGTH;
 130:.\i2cuart.c   ****     for (i=0; i < panelSendBuf.len; i++){
 131:.\i2cuart.c   ****         panelSendBuf.buf[i] = MyI2C_Regs.osdp_buffer[i];
 132:.\i2cuart.c   ****     }
 133:.\i2cuart.c   ****     panelSendBuf.pending = 1;  //ready to send
 134:.\i2cuart.c   ****     SendOSDP();
 135:.\i2cuart.c   ****     panelSendBuf.pending = 0; //send out command
 136:.\i2cuart.c   **** 
 137:.\i2cuart.c   **** }
 138:.\i2cuart.c   **** 
 139:.\i2cuart.c   **** 
 140:.\i2cuart.c   **** void ClearOsdpBuffer()
 141:.\i2cuart.c   **** {
 293              		.loc 1 141 0
 294              		.cfi_startproc
 295              		@ args = 0, pretend = 0, frame = 0
 296              		@ frame_needed = 0, uses_anonymous_args = 0
 297 0000 08B5     		push	{r3, lr}
 298              		.cfi_def_cfa_offset 8
 299              		.cfi_offset 3, -8
 300              		.cfi_offset 14, -4
ARM GAS  C:\Users\Yiquing\AppData\Local\Temp\cc5OWbyO.s 			page 9


 142:.\i2cuart.c   ****     int i;
 143:.\i2cuart.c   ****         UART_ACS_ClearRxBuffer();
 301              		.loc 1 143 0
 302 0002 FFF7FEFF 		bl	UART_ACS_ClearRxBuffer
 303              	.LVL28:
 144:.\i2cuart.c   ****         for ( i=0; i<OSDP_BUFFER_LENGTH; i++){
 304              		.loc 1 144 0
 305 0006 0023     		movs	r3, #0
 306              	.LVL29:
 307              	.L41:
 308 0008 054A     		ldr	r2, .L43
 145:.\i2cuart.c   ****             MyI2C_Regs.osdp_buffer[i]=0;
 309              		.loc 1 145 0 discriminator 2
 310 000a 0021     		movs	r1, #0
 311 000c 9818     		adds	r0, r3, r2
 144:.\i2cuart.c   ****         for ( i=0; i<OSDP_BUFFER_LENGTH; i++){
 312              		.loc 1 144 0 discriminator 2
 313 000e 0133     		adds	r3, r3, #1
 314              	.LVL30:
 315 0010 802B     		cmp	r3, #128
 316              		.loc 1 145 0 discriminator 2
 317 0012 80F84D10 		strb	r1, [r0, #77]
 144:.\i2cuart.c   ****         for ( i=0; i<OSDP_BUFFER_LENGTH; i++){
 318              		.loc 1 144 0 discriminator 2
 319 0016 F7D1     		bne	.L41
 146:.\i2cuart.c   ****         }
 147:.\i2cuart.c   ****         MyI2C_Regs.osdp_data_length = 0;
 320              		.loc 1 147 0
 321 0018 82F84B10 		strb	r1, [r2, #75]
 322 001c 08BD     		pop	{r3, pc}
 323              	.LVL31:
 324              	.L44:
 325 001e 00BF     		.align	2
 326              	.L43:
 327 0020 00000000 		.word	MyI2C_Regs
 328              		.cfi_endproc
 329              	.LFE68:
 330              		.size	ClearOsdpBuffer, .-ClearOsdpBuffer
 331              		.section	.text.calcChecksum,"ax",%progbits
 332              		.align	1
 333              		.global	calcChecksum
 334              		.thumb
 335              		.thumb_func
 336              		.type	calcChecksum, %function
 337              	calcChecksum:
 338              	.LFB69:
 148:.\i2cuart.c   **** }
 149:.\i2cuart.c   **** 
 150:.\i2cuart.c   **** unsigned char calcChecksum(unsigned char * msg, int len)
 151:.\i2cuart.c   **** {
 339              		.loc 1 151 0
 340              		.cfi_startproc
 341              		@ args = 0, pretend = 0, frame = 0
 342              		@ frame_needed = 0, uses_anonymous_args = 0
 343              	.LVL32:
 344 0000 10B5     		push	{r4, lr}
 345              		.cfi_def_cfa_offset 8
ARM GAS  C:\Users\Yiquing\AppData\Local\Temp\cc5OWbyO.s 			page 10


 346              		.cfi_offset 4, -8
 347              		.cfi_offset 14, -4
 152:.\i2cuart.c   ****     unsigned char i, ret;
 153:.\i2cuart.c   ****     unsigned char sum = 0;
 154:.\i2cuart.c   ****     for(i = 0; i < len; i++)
 348              		.loc 1 154 0
 349 0002 0023     		movs	r3, #0
 153:.\i2cuart.c   ****     unsigned char sum = 0;
 350              		.loc 1 153 0
 351 0004 1A46     		mov	r2, r3
 352              	.LVL33:
 353              	.L46:
 354 0006 5C1C     		adds	r4, r3, #1
 355 0008 DBB2     		uxtb	r3, r3
 356              	.LVL34:
 357              		.loc 1 154 0 discriminator 1
 358 000a 8B42     		cmp	r3, r1
 359 000c 04DA     		bge	.L48
 155:.\i2cuart.c   ****     {
 156:.\i2cuart.c   ****         sum += msg[i];
 360              		.loc 1 156 0 discriminator 2
 361 000e C35C     		ldrb	r3, [r0, r3]	@ zero_extendqisi2
 362 0010 1A44     		add	r2, r2, r3
 363              	.LVL35:
 364 0012 D2B2     		uxtb	r2, r2
 365              	.LVL36:
 366 0014 2346     		mov	r3, r4
 367 0016 F6E7     		b	.L46
 368              	.LVL37:
 369              	.L48:
 157:.\i2cuart.c   ****     }
 158:.\i2cuart.c   ****     ret = (unsigned char)((0x100 - sum) & 0xFF);
 370              		.loc 1 158 0
 371 0018 5042     		negs	r0, r2
 372              	.LVL38:
 159:.\i2cuart.c   ****     return ret;
 160:.\i2cuart.c   **** }
 373              		.loc 1 160 0
 374 001a C0B2     		uxtb	r0, r0
 375 001c 10BD     		pop	{r4, pc}
 376              		.cfi_endproc
 377              	.LFE69:
 378              		.size	calcChecksum, .-calcChecksum
 379              		.section	.text.SendOSDP,"ax",%progbits
 380              		.align	1
 381              		.global	SendOSDP
 382              		.thumb
 383              		.thumb_func
 384              		.type	SendOSDP, %function
 385              	SendOSDP:
 386              	.LFB70:
 161:.\i2cuart.c   **** 
 162:.\i2cuart.c   **** 
 163:.\i2cuart.c   **** void SendOSDP()
 164:.\i2cuart.c   **** {
 387              		.loc 1 164 0
 388              		.cfi_startproc
ARM GAS  C:\Users\Yiquing\AppData\Local\Temp\cc5OWbyO.s 			page 11


 389              		@ args = 0, pretend = 0, frame = 0
 390              		@ frame_needed = 0, uses_anonymous_args = 0
 391 0000 10B5     		push	{r4, lr}
 392              		.cfi_def_cfa_offset 8
 393              		.cfi_offset 4, -8
 394              		.cfi_offset 14, -4
 165:.\i2cuart.c   ****     
 166:.\i2cuart.c   **** //            Clock_5_SetDividerValue(625); //  48000000/625=9600
 167:.\i2cuart.c   ****     Mode_Sel_ACS_Write(1); //set io chip to 485
 395              		.loc 1 167 0
 396 0002 0120     		movs	r0, #1
 397 0004 FFF7FEFF 		bl	Mode_Sel_ACS_Write
 398              	.LVL39:
 168:.\i2cuart.c   ****     TX_EN_Write(1);
 169:.\i2cuart.c   ****     UART_ACS_LoadTxConfig();
 170:.\i2cuart.c   ****     MyI2C_Regs.osdp_cmd = OSDP_READ; //send only once
 399              		.loc 1 170 0
 400 0008 124C     		ldr	r4, .L51
 168:.\i2cuart.c   ****     TX_EN_Write(1);
 401              		.loc 1 168 0
 402 000a 0120     		movs	r0, #1
 403 000c FFF7FEFF 		bl	TX_EN_Write
 404              	.LVL40:
 169:.\i2cuart.c   ****     UART_ACS_LoadTxConfig();
 405              		.loc 1 169 0
 406 0010 FFF7FEFF 		bl	UART_ACS_LoadTxConfig
 407              	.LVL41:
 408              		.loc 1 170 0
 409 0014 0320     		movs	r0, #3
 410 0016 84F84900 		strb	r0, [r4, #73]
 171:.\i2cuart.c   ****     CyDelay(3); //Driver Output Enable Time, do not reduce. 
 411              		.loc 1 171 0
 412 001a FFF7FEFF 		bl	CyDelay
 413              	.LVL42:
 172:.\i2cuart.c   ****     if(panelSendBuf.buf[0] == 0x53){
 414              		.loc 1 172 0
 415 001e 0E48     		ldr	r0, .L51+4
 416 0020 0378     		ldrb	r3, [r0]	@ zero_extendqisi2
 417 0022 532B     		cmp	r3, #83
 418 0024 06D1     		bne	.L50
 173:.\i2cuart.c   ****         UART_ACS_PutArray(panelSendBuf.buf,panelSendBuf.len); 
 419              		.loc 1 173 0
 420 0026 90F88010 		ldrb	r1, [r0, #128]	@ zero_extendqisi2
 421 002a FFF7FEFF 		bl	UART_ACS_PutArray
 422              	.LVL43:
 174:.\i2cuart.c   ****         CyDelay(5); //minmum 4m
 423              		.loc 1 174 0
 424 002e 0520     		movs	r0, #5
 425 0030 FFF7FEFF 		bl	CyDelay
 426              	.LVL44:
 427              	.L50:
 175:.\i2cuart.c   ****     }
 176:.\i2cuart.c   **** 
 177:.\i2cuart.c   ****     UART_ACS_LoadRxConfig();
 428              		.loc 1 177 0
 429 0034 FFF7FEFF 		bl	UART_ACS_LoadRxConfig
 430              	.LVL45:
ARM GAS  C:\Users\Yiquing\AppData\Local\Temp\cc5OWbyO.s 			page 12


 178:.\i2cuart.c   ****     TX_EN_Write(0);
 431              		.loc 1 178 0
 432 0038 0020     		movs	r0, #0
 433 003a FFF7FEFF 		bl	TX_EN_Write
 434              	.LVL46:
 179:.\i2cuart.c   ****     Mode_Sel_ACS_Write(1); //set the chip to RS485 mode
 435              		.loc 1 179 0
 436 003e 0120     		movs	r0, #1
 437 0040 FFF7FEFF 		bl	Mode_Sel_ACS_Write
 438              	.LVL47:
 180:.\i2cuart.c   ****     MyI2C_Regs.osdp_status |= OSDP_DATA_SENT;
 439              		.loc 1 180 0
 440 0044 94F84A30 		ldrb	r3, [r4, #74]	@ zero_extendqisi2
 441 0048 43F00103 		orr	r3, r3, #1
 442 004c 84F84A30 		strb	r3, [r4, #74]
 443 0050 10BD     		pop	{r4, pc}
 444              	.L52:
 445 0052 00BF     		.align	2
 446              	.L51:
 447 0054 00000000 		.word	MyI2C_Regs
 448 0058 00000000 		.word	panelSendBuf
 449              		.cfi_endproc
 450              	.LFE70:
 451              		.size	SendOSDP, .-SendOSDP
 452              		.section	.text.copyI2CPanelBuf,"ax",%progbits
 453              		.align	1
 454              		.global	copyI2CPanelBuf
 455              		.thumb
 456              		.thumb_func
 457              		.type	copyI2CPanelBuf, %function
 458              	copyI2CPanelBuf:
 459              	.LFB67:
 126:.\i2cuart.c   **** {
 460              		.loc 1 126 0
 461              		.cfi_startproc
 462              		@ args = 0, pretend = 0, frame = 0
 463              		@ frame_needed = 0, uses_anonymous_args = 0
 464 0000 10B5     		push	{r4, lr}
 465              		.cfi_def_cfa_offset 8
 466              		.cfi_offset 4, -8
 467              		.cfi_offset 14, -4
 128:.\i2cuart.c   ****     panelSendBuf.len = MyI2C_Regs.osdp_data_length;
 468              		.loc 1 128 0
 469 0002 0E4A     		ldr	r2, .L60
 470 0004 0E4C     		ldr	r4, .L60+4
 471 0006 92F84B30 		ldrb	r3, [r2, #75]	@ zero_extendqisi2
 129:.\i2cuart.c   ****     if (panelSendBuf.len >  OSDP_BUFFER_LENGTH) panelSendBuf.len = OSDP_BUFFER_LENGTH;
 472              		.loc 1 129 0
 473 000a 802B     		cmp	r3, #128
 474 000c 88BF     		it	hi
 475 000e 8023     		movhi	r3, #128
 476 0010 84F88030 		strb	r3, [r4, #128]
 130:.\i2cuart.c   ****     for (i=0; i < panelSendBuf.len; i++){
 477              		.loc 1 130 0
 478 0014 94F88010 		ldrb	r1, [r4, #128]	@ zero_extendqisi2
 479 0018 0023     		movs	r3, #0
 480              	.L56:
ARM GAS  C:\Users\Yiquing\AppData\Local\Temp\cc5OWbyO.s 			page 13


 481              	.LVL48:
 130:.\i2cuart.c   ****     for (i=0; i < panelSendBuf.len; i++){
 482              		.loc 1 130 0 is_stmt 0 discriminator 1
 483 001a 8B42     		cmp	r3, r1
 484 001c 05DA     		bge	.L59
 485 001e D018     		adds	r0, r2, r3
 131:.\i2cuart.c   ****         panelSendBuf.buf[i] = MyI2C_Regs.osdp_buffer[i];
 486              		.loc 1 131 0 is_stmt 1 discriminator 2
 487 0020 90F84D00 		ldrb	r0, [r0, #77]	@ zero_extendqisi2
 488 0024 E054     		strb	r0, [r4, r3]
 130:.\i2cuart.c   ****     for (i=0; i < panelSendBuf.len; i++){
 489              		.loc 1 130 0 discriminator 2
 490 0026 0133     		adds	r3, r3, #1
 491              	.LVL49:
 492 0028 F7E7     		b	.L56
 493              	.L59:
 133:.\i2cuart.c   ****     panelSendBuf.pending = 1;  //ready to send
 494              		.loc 1 133 0
 495 002a 0123     		movs	r3, #1
 496              	.LVL50:
 497 002c 84F88130 		strb	r3, [r4, #129]
 134:.\i2cuart.c   ****     SendOSDP();
 498              		.loc 1 134 0
 499 0030 FFF7FEFF 		bl	SendOSDP
 500              	.LVL51:
 135:.\i2cuart.c   ****     panelSendBuf.pending = 0; //send out command
 501              		.loc 1 135 0
 502 0034 0023     		movs	r3, #0
 503 0036 84F88130 		strb	r3, [r4, #129]
 504 003a 10BD     		pop	{r4, pc}
 505              	.L61:
 506              		.align	2
 507              	.L60:
 508 003c 00000000 		.word	MyI2C_Regs
 509 0040 00000000 		.word	panelSendBuf
 510              		.cfi_endproc
 511              	.LFE67:
 512              		.size	copyI2CPanelBuf, .-copyI2CPanelBuf
 513              		.section	.text.sendOSDPAck,"ax",%progbits
 514              		.align	1
 515              		.global	sendOSDPAck
 516              		.thumb
 517              		.thumb_func
 518              		.type	sendOSDPAck, %function
 519              	sendOSDPAck:
 520              	.LFB71:
 181:.\i2cuart.c   **** //    CyDelay(1); //Driver Output Enable Time, do not reduce. 
 182:.\i2cuart.c   **** }
 183:.\i2cuart.c   **** 
 184:.\i2cuart.c   **** 
 185:.\i2cuart.c   **** void sendOSDPAck(struct OSDP_MSG_HEADER msg){
 521              		.loc 1 185 0
 522              		.cfi_startproc
 523              		@ args = 0, pretend = 0, frame = 8
 524              		@ frame_needed = 0, uses_anonymous_args = 0
 525 0000 13B5     		push	{r0, r1, r4, lr}
 526              		.cfi_def_cfa_offset 16
ARM GAS  C:\Users\Yiquing\AppData\Local\Temp\cc5OWbyO.s 			page 14


 527              		.cfi_offset 0, -16
 528              		.cfi_offset 1, -12
 529              		.cfi_offset 4, -8
 530              		.cfi_offset 14, -4
 531              		.loc 1 185 0
 532 0002 02AB     		add	r3, sp, #8
 533 0004 03E90300 		stmdb	r3, {r0, r1}
 186:.\i2cuart.c   ****     
 187:.\i2cuart.c   ****     panelSendBuf.buf[0] = 0x53;
 534              		.loc 1 187 0
 535 0008 0F4C     		ldr	r4, .L63
 536 000a 5323     		movs	r3, #83
 537 000c 2370     		strb	r3, [r4]
 188:.\i2cuart.c   ****     panelSendBuf.buf[1] = msg.addr | 0x80;
 538              		.loc 1 188 0
 539 000e 9DF80030 		ldrb	r3, [sp]	@ zero_extendqisi2
 189:.\i2cuart.c   ****     panelSendBuf.buf[2] = 7;
 190:.\i2cuart.c   ****     panelSendBuf.buf[3] = 0;
 191:.\i2cuart.c   ****     panelSendBuf.buf[4] = msg.ctrl;
 192:.\i2cuart.c   ****     panelSendBuf.buf[5] = 0x40;
 193:.\i2cuart.c   ****     panelSendBuf.buf[6] = calcChecksum(panelSendBuf.buf, 6);
 540              		.loc 1 193 0
 541 0012 2046     		mov	r0, r4
 188:.\i2cuart.c   ****     panelSendBuf.buf[1] = msg.addr | 0x80;
 542              		.loc 1 188 0
 543 0014 63F07F03 		orn	r3, r3, #127
 544 0018 6370     		strb	r3, [r4, #1]
 189:.\i2cuart.c   ****     panelSendBuf.buf[2] = 7;
 545              		.loc 1 189 0
 546 001a 0723     		movs	r3, #7
 547 001c A370     		strb	r3, [r4, #2]
 190:.\i2cuart.c   ****     panelSendBuf.buf[3] = 0;
 548              		.loc 1 190 0
 549 001e 0023     		movs	r3, #0
 550 0020 E370     		strb	r3, [r4, #3]
 191:.\i2cuart.c   ****     panelSendBuf.buf[4] = msg.ctrl;
 551              		.loc 1 191 0
 552 0022 9DF80530 		ldrb	r3, [sp, #5]	@ zero_extendqisi2
 553              		.loc 1 193 0
 554 0026 0621     		movs	r1, #6
 191:.\i2cuart.c   ****     panelSendBuf.buf[4] = msg.ctrl;
 555              		.loc 1 191 0
 556 0028 2371     		strb	r3, [r4, #4]
 192:.\i2cuart.c   ****     panelSendBuf.buf[5] = 0x40;
 557              		.loc 1 192 0
 558 002a 4023     		movs	r3, #64
 559 002c 6371     		strb	r3, [r4, #5]
 560              		.loc 1 193 0
 561 002e FFF7FEFF 		bl	calcChecksum
 562              	.LVL52:
 194:.\i2cuart.c   ****     panelSendBuf.len = msg.u.len;
 563              		.loc 1 194 0
 564 0032 BDF80230 		ldrh	r3, [sp, #2]
 193:.\i2cuart.c   ****     panelSendBuf.buf[6] = calcChecksum(panelSendBuf.buf, 6);
 565              		.loc 1 193 0
 566 0036 A071     		strb	r0, [r4, #6]
 567              		.loc 1 194 0
ARM GAS  C:\Users\Yiquing\AppData\Local\Temp\cc5OWbyO.s 			page 15


 568 0038 84F88030 		strb	r3, [r4, #128]
 195:.\i2cuart.c   ****     SendOSDP();
 196:.\i2cuart.c   **** }
 569              		.loc 1 196 0
 570 003c 02B0     		add	sp, sp, #8
 571              		@ sp needed
 572 003e BDE81040 		pop	{r4, lr}
 195:.\i2cuart.c   ****     SendOSDP();
 573              		.loc 1 195 0
 574 0042 FFF7FEBF 		b	SendOSDP
 575              	.LVL53:
 576              	.L64:
 577 0046 00BF     		.align	2
 578              	.L63:
 579 0048 00000000 		.word	panelSendBuf
 580              		.cfi_endproc
 581              	.LFE71:
 582              		.size	sendOSDPAck, .-sendOSDPAck
 583              		.section	.text.sendOSDPNak,"ax",%progbits
 584              		.align	1
 585              		.global	sendOSDPNak
 586              		.thumb
 587              		.thumb_func
 588              		.type	sendOSDPNak, %function
 589              	sendOSDPNak:
 590              	.LFB72:
 197:.\i2cuart.c   **** 
 198:.\i2cuart.c   **** void sendOSDPNak(struct OSDP_MSG_HEADER msg){
 591              		.loc 1 198 0
 592              		.cfi_startproc
 593              		@ args = 0, pretend = 0, frame = 8
 594              		@ frame_needed = 0, uses_anonymous_args = 0
 595 0000 37B5     		push	{r0, r1, r2, r4, r5, lr}
 596              		.cfi_def_cfa_offset 24
 597              		.cfi_offset 0, -24
 598              		.cfi_offset 1, -20
 599              		.cfi_offset 2, -16
 600              		.cfi_offset 4, -12
 601              		.cfi_offset 5, -8
 602              		.cfi_offset 14, -4
 603              		.loc 1 198 0
 604 0002 02AB     		add	r3, sp, #8
 605 0004 03E90300 		stmdb	r3, {r0, r1}
 199:.\i2cuart.c   ****     
 200:.\i2cuart.c   ****     panelSendBuf.buf[0] = 0x53;
 606              		.loc 1 200 0
 607 0008 0F4C     		ldr	r4, .L66
 608 000a 5323     		movs	r3, #83
 609 000c 2370     		strb	r3, [r4]
 201:.\i2cuart.c   ****     panelSendBuf.buf[1] = msg.addr | 0x80;
 610              		.loc 1 201 0
 611 000e 9DF80030 		ldrb	r3, [sp]	@ zero_extendqisi2
 202:.\i2cuart.c   ****     panelSendBuf.buf[2] = 8;
 612              		.loc 1 202 0
 613 0012 0825     		movs	r5, #8
 201:.\i2cuart.c   ****     panelSendBuf.buf[1] = msg.addr | 0x80;
 614              		.loc 1 201 0
ARM GAS  C:\Users\Yiquing\AppData\Local\Temp\cc5OWbyO.s 			page 16


 615 0014 63F07F03 		orn	r3, r3, #127
 616 0018 6370     		strb	r3, [r4, #1]
 203:.\i2cuart.c   ****     panelSendBuf.buf[3] = 0;
 617              		.loc 1 203 0
 618 001a 0023     		movs	r3, #0
 619 001c E370     		strb	r3, [r4, #3]
 204:.\i2cuart.c   ****     panelSendBuf.buf[4] = msg.ctrl;
 620              		.loc 1 204 0
 621 001e 9DF80530 		ldrb	r3, [sp, #5]	@ zero_extendqisi2
 205:.\i2cuart.c   ****     panelSendBuf.buf[5] = 0x41;
 206:.\i2cuart.c   ****     panelSendBuf.buf[6] = 0x01;
 207:.\i2cuart.c   ****     panelSendBuf.buf[7] = calcChecksum(panelSendBuf.buf, 7);
 622              		.loc 1 207 0
 623 0022 2046     		mov	r0, r4
 204:.\i2cuart.c   ****     panelSendBuf.buf[4] = msg.ctrl;
 624              		.loc 1 204 0
 625 0024 2371     		strb	r3, [r4, #4]
 205:.\i2cuart.c   ****     panelSendBuf.buf[5] = 0x41;
 626              		.loc 1 205 0
 627 0026 4123     		movs	r3, #65
 628 0028 6371     		strb	r3, [r4, #5]
 629              		.loc 1 207 0
 630 002a 0721     		movs	r1, #7
 206:.\i2cuart.c   ****     panelSendBuf.buf[6] = 0x01;
 631              		.loc 1 206 0
 632 002c 0123     		movs	r3, #1
 202:.\i2cuart.c   ****     panelSendBuf.buf[2] = 8;
 633              		.loc 1 202 0
 634 002e A570     		strb	r5, [r4, #2]
 206:.\i2cuart.c   ****     panelSendBuf.buf[6] = 0x01;
 635              		.loc 1 206 0
 636 0030 A371     		strb	r3, [r4, #6]
 637              		.loc 1 207 0
 638 0032 FFF7FEFF 		bl	calcChecksum
 639              	.LVL54:
 208:.\i2cuart.c   ****     panelSendBuf.len = 8;
 640              		.loc 1 208 0
 641 0036 84F88050 		strb	r5, [r4, #128]
 207:.\i2cuart.c   ****     panelSendBuf.buf[7] = calcChecksum(panelSendBuf.buf, 7);
 642              		.loc 1 207 0
 643 003a E071     		strb	r0, [r4, #7]
 209:.\i2cuart.c   ****     SendOSDP();
 210:.\i2cuart.c   **** }
 644              		.loc 1 210 0
 645 003c 03B0     		add	sp, sp, #12
 646              		@ sp needed
 647 003e BDE83040 		pop	{r4, r5, lr}
 209:.\i2cuart.c   ****     SendOSDP();
 648              		.loc 1 209 0
 649 0042 FFF7FEBF 		b	SendOSDP
 650              	.LVL55:
 651              	.L67:
 652 0046 00BF     		.align	2
 653              	.L66:
 654 0048 00000000 		.word	panelSendBuf
 655              		.cfi_endproc
 656              	.LFE72:
ARM GAS  C:\Users\Yiquing\AppData\Local\Temp\cc5OWbyO.s 			page 17


 657              		.size	sendOSDPNak, .-sendOSDPNak
 658              		.section	.text.ReadOSDP,"ax",%progbits
 659              		.align	1
 660              		.global	ReadOSDP
 661              		.thumb
 662              		.thumb_func
 663              		.type	ReadOSDP, %function
 664              	ReadOSDP:
 665              	.LFB73:
 211:.\i2cuart.c   **** 
 212:.\i2cuart.c   **** void ReadOSDP()
 213:.\i2cuart.c   **** {
 666              		.loc 1 213 0
 667              		.cfi_startproc
 668              		@ args = 0, pretend = 0, frame = 0
 669              		@ frame_needed = 0, uses_anonymous_args = 0
 670              	.LVL56:
 671 0000 F8B5     		push	{r3, r4, r5, r6, r7, lr}
 672              		.cfi_def_cfa_offset 24
 673              		.cfi_offset 3, -24
 674              		.cfi_offset 4, -20
 675              		.cfi_offset 5, -16
 676              		.cfi_offset 6, -12
 677              		.cfi_offset 7, -8
 678              		.cfi_offset 14, -4
 214:.\i2cuart.c   ****     int byteCount =0;
 215:.\i2cuart.c   ****     unsigned char tmp = 0;
 216:.\i2cuart.c   ****     char msg_started = 0;
 217:.\i2cuart.c   ****     int i;
 218:.\i2cuart.c   ****     
 219:.\i2cuart.c   **** //    Mode_Sel_ACS_Write(1); //set the chip to RS485 mode
 220:.\i2cuart.c   **** //    CyDelay(1); //Driver Output Enable Time, do not reduce. 
 221:.\i2cuart.c   ****     if (UART_ACS_GetRxBufferSize()>= 7)
 679              		.loc 1 221 0
 680 0002 FFF7FEFF 		bl	UART_ACS_GetRxBufferSize
 681              	.LVL57:
 682 0006 0628     		cmp	r0, #6
 683 0008 66D9     		bls	.L68
 684 000a 0724     		movs	r4, #7
 685              	.LVL58:
 686              	.L73:
 222:.\i2cuart.c   ****     {
 223:.\i2cuart.c   ****         for(i=0;i<7;i++) {
 224:.\i2cuart.c   ****             tmp = UART_ACS_GetChar();
 687              		.loc 1 224 0
 688 000c FFF7FEFF 		bl	UART_ACS_GetChar
 689              	.LVL59:
 225:.\i2cuart.c   ****             if (tmp == 0x53) {
 690              		.loc 1 225 0
 691 0010 5328     		cmp	r0, #83
 224:.\i2cuart.c   ****             tmp = UART_ACS_GetChar();
 692              		.loc 1 224 0
 693 0012 0646     		mov	r6, r0
 694              	.LVL60:
 695              		.loc 1 225 0
 696 0014 02D0     		beq	.L71
 697              	.LVL61:
ARM GAS  C:\Users\Yiquing\AppData\Local\Temp\cc5OWbyO.s 			page 18


 223:.\i2cuart.c   ****         for(i=0;i<7;i++) {
 698              		.loc 1 223 0
 699 0016 013C     		subs	r4, r4, #1
 700              	.LVL62:
 701 0018 F8D1     		bne	.L73
 702 001a F8BD     		pop	{r3, r4, r5, r6, r7, pc}
 703              	.LVL63:
 704              	.L71:
 226:.\i2cuart.c   ****                 msg_started = 1;
 227:.\i2cuart.c   ****                 break;
 228:.\i2cuart.c   ****             }
 229:.\i2cuart.c   ****         } 
 230:.\i2cuart.c   ****         
 231:.\i2cuart.c   ****         if (msg_started){
 232:.\i2cuart.c   ****             tmp = UART_ACS_GetChar();  //ADDR
 705              		.loc 1 232 0
 706 001c FFF7FEFF 		bl	UART_ACS_GetChar
 707              	.LVL64:
 233:.\i2cuart.c   ****             osdp_msg_header.addr = tmp;
 708              		.loc 1 233 0
 709 0020 2E4C     		ldr	r4, .L87
 710              	.LVL65:
 711 0022 2070     		strb	r0, [r4]
 234:.\i2cuart.c   ****             
 235:.\i2cuart.c   ****             tmp = UART_ACS_GetChar();
 712              		.loc 1 235 0
 713 0024 FFF7FEFF 		bl	UART_ACS_GetChar
 714              	.LVL66:
 236:.\i2cuart.c   ****             osdp_msg_header.u.length[0] = tmp;
 715              		.loc 1 236 0
 716 0028 A070     		strb	r0, [r4, #2]
 237:.\i2cuart.c   ****             
 238:.\i2cuart.c   ****             tmp = UART_ACS_GetChar();
 717              		.loc 1 238 0
 718 002a FFF7FEFF 		bl	UART_ACS_GetChar
 719              	.LVL67:
 239:.\i2cuart.c   ****             osdp_msg_header.u.length[1] = tmp;
 720              		.loc 1 239 0
 721 002e E070     		strb	r0, [r4, #3]
 240:.\i2cuart.c   ****             
 241:.\i2cuart.c   ****             tmp = UART_ACS_GetChar();
 722              		.loc 1 241 0
 723 0030 FFF7FEFF 		bl	UART_ACS_GetChar
 724              	.LVL68:
 242:.\i2cuart.c   ****             osdp_msg_header.ctrl = tmp;
 725              		.loc 1 242 0
 726 0034 6071     		strb	r0, [r4, #5]
 243:.\i2cuart.c   ****             osdp_msg_header.seq = tmp & 0x03;
 727              		.loc 1 243 0
 728 0036 00F00300 		and	r0, r0, #3
 729              	.LVL69:
 730 003a A071     		strb	r0, [r4, #6]
 244:.\i2cuart.c   ****             
 245:.\i2cuart.c   ****             tmp = UART_ACS_GetChar();
 731              		.loc 1 245 0
 732 003c FFF7FEFF 		bl	UART_ACS_GetChar
 733              	.LVL70:
ARM GAS  C:\Users\Yiquing\AppData\Local\Temp\cc5OWbyO.s 			page 19


 246:.\i2cuart.c   ****             osdp_msg_header.cmnd = tmp;
 247:.\i2cuart.c   ****             
 248:.\i2cuart.c   ****         } 
 249:.\i2cuart.c   ****         else
 250:.\i2cuart.c   ****         {
 251:.\i2cuart.c   ****             //the message is not started yet
 252:.\i2cuart.c   ****             return;
 253:.\i2cuart.c   ****         }
 254:.\i2cuart.c   ****         
 255:.\i2cuart.c   ****         if (osdp_msg_header.u.len <7) return; //discard bad message, too short.
 734              		.loc 1 255 0
 735 0040 6188     		ldrh	r1, [r4, #2]
 246:.\i2cuart.c   ****             osdp_msg_header.cmnd = tmp;
 736              		.loc 1 246 0
 737 0042 2071     		strb	r0, [r4, #4]
 738              		.loc 1 255 0
 739 0044 0AB2     		sxth	r2, r1
 740 0046 062A     		cmp	r2, #6
 741 0048 2546     		mov	r5, r4
 742 004a 45DD     		ble	.L68
 256:.\i2cuart.c   ****         
 257:.\i2cuart.c   ****         byteCount = 0;
 258:.\i2cuart.c   ****         panelReadBuf.buf[byteCount] = 0x53;
 743              		.loc 1 258 0
 744 004c 244B     		ldr	r3, .L87+4
 259:.\i2cuart.c   ****         byteCount++;
 260:.\i2cuart.c   ****         panelReadBuf.buf[byteCount] = osdp_msg_header.addr;
 261:.\i2cuart.c   ****         byteCount++;
 262:.\i2cuart.c   ****         panelReadBuf.buf[byteCount] = osdp_msg_header.u.length[0];
 263:.\i2cuart.c   ****         byteCount++;
 264:.\i2cuart.c   ****         panelReadBuf.buf[byteCount] = osdp_msg_header.u.length[1];
 265:.\i2cuart.c   ****         byteCount++;
 266:.\i2cuart.c   ****         panelReadBuf.buf[byteCount] = osdp_msg_header.ctrl;
 267:.\i2cuart.c   ****         byteCount++;
 268:.\i2cuart.c   ****         panelReadBuf.buf[byteCount] = osdp_msg_header.cmnd;
 269:.\i2cuart.c   ****         byteCount++;
 270:.\i2cuart.c   ****         
 271:.\i2cuart.c   ****         if(osdp_msg_header.u.len > OSDP_BUFFER_LENGTH){
 745              		.loc 1 271 0
 746 004e 802A     		cmp	r2, #128
 258:.\i2cuart.c   ****         panelReadBuf.buf[byteCount] = 0x53;
 747              		.loc 1 258 0
 748 0050 1E70     		strb	r6, [r3]
 749              	.LVL71:
 260:.\i2cuart.c   ****         panelReadBuf.buf[byteCount] = osdp_msg_header.addr;
 750              		.loc 1 260 0
 751 0052 2678     		ldrb	r6, [r4]	@ zero_extendqisi2
 268:.\i2cuart.c   ****         panelReadBuf.buf[byteCount] = osdp_msg_header.cmnd;
 752              		.loc 1 268 0
 753 0054 5871     		strb	r0, [r3, #5]
 260:.\i2cuart.c   ****         panelReadBuf.buf[byteCount] = osdp_msg_header.addr;
 754              		.loc 1 260 0
 755 0056 5E70     		strb	r6, [r3, #1]
 756              	.LVL72:
 262:.\i2cuart.c   ****         panelReadBuf.buf[byteCount] = osdp_msg_header.u.length[0];
 757              		.loc 1 262 0
 758 0058 A678     		ldrb	r6, [r4, #2]	@ zero_extendqisi2
ARM GAS  C:\Users\Yiquing\AppData\Local\Temp\cc5OWbyO.s 			page 20


 759 005a 1F46     		mov	r7, r3
 760 005c 9E70     		strb	r6, [r3, #2]
 761              	.LVL73:
 264:.\i2cuart.c   ****         panelReadBuf.buf[byteCount] = osdp_msg_header.u.length[1];
 762              		.loc 1 264 0
 763 005e E678     		ldrb	r6, [r4, #3]	@ zero_extendqisi2
 764 0060 DE70     		strb	r6, [r3, #3]
 765              	.LVL74:
 266:.\i2cuart.c   ****         panelReadBuf.buf[byteCount] = osdp_msg_header.ctrl;
 766              		.loc 1 266 0
 767 0062 6679     		ldrb	r6, [r4, #5]	@ zero_extendqisi2
 768 0064 1E71     		strb	r6, [r3, #4]
 769              	.LVL75:
 770              		.loc 1 271 0
 771 0066 04DD     		ble	.L74
 272:.\i2cuart.c   ****             //error, the message is too long
 273:.\i2cuart.c   ****             ClearOsdpBuffer();
 772              		.loc 1 273 0
 773 0068 FFF7FEFF 		bl	ClearOsdpBuffer
 774              	.LVL76:
 274:.\i2cuart.c   ****             osdp_msg_header.u.len = 0;
 775              		.loc 1 274 0
 776 006c 0023     		movs	r3, #0
 777 006e 6380     		strh	r3, [r4, #2]	@ movhi
 275:.\i2cuart.c   ****             return;
 778              		.loc 1 275 0
 779 0070 F8BD     		pop	{r3, r4, r5, r6, r7, pc}
 780              	.LVL77:
 781              	.L74:
 276:.\i2cuart.c   ****         } else {
 277:.\i2cuart.c   ****             panelReadBuf.len = osdp_msg_header.u.len;
 782              		.loc 1 277 0
 783 0072 83F88010 		strb	r1, [r3, #128]
 269:.\i2cuart.c   ****         byteCount++;
 784              		.loc 1 269 0
 785 0076 0624     		movs	r4, #6
 786              	.LVL78:
 787              	.L77:
 278:.\i2cuart.c   ****         }
 279:.\i2cuart.c   ****         
 280:.\i2cuart.c   ****         
 281:.\i2cuart.c   ****         for (; byteCount<osdp_msg_header.u.len;){  //may need timeout here
 788              		.loc 1 281 0 discriminator 1
 789 0078 B5F90230 		ldrsh	r3, [r5, #2]
 790 007c 174E     		ldr	r6, .L87
 791 007e 9C42     		cmp	r4, r3
 792 0080 0FDA     		bge	.L79
 282:.\i2cuart.c   ****             if (UART_ACS_GetRxBufferSize()>0){
 793              		.loc 1 282 0
 794 0082 FFF7FEFF 		bl	UART_ACS_GetRxBufferSize
 795              	.LVL79:
 796 0086 0028     		cmp	r0, #0
 797 0088 F6D0     		beq	.L77
 283:.\i2cuart.c   ****                 tmp = UART_ACS_GetChar();
 798              		.loc 1 283 0
 799 008a FFF7FEFF 		bl	UART_ACS_GetChar
 800              	.LVL80:
ARM GAS  C:\Users\Yiquing\AppData\Local\Temp\cc5OWbyO.s 			page 21


 284:.\i2cuart.c   ****                 panelReadBuf.buf[byteCount] = tmp;
 285:.\i2cuart.c   ****                 if (byteCount == (osdp_msg_header.u.len - 1))
 801              		.loc 1 285 0
 802 008e B6F90230 		ldrsh	r3, [r6, #2]
 284:.\i2cuart.c   ****                 panelReadBuf.buf[byteCount] = tmp;
 803              		.loc 1 284 0
 804 0092 3855     		strb	r0, [r7, r4]
 805              		.loc 1 285 0
 806 0094 013B     		subs	r3, r3, #1
 807 0096 9C42     		cmp	r4, r3
 808 0098 01D1     		bne	.L78
 286:.\i2cuart.c   ****                 {
 287:.\i2cuart.c   ****                     //last byte
 288:.\i2cuart.c   ****                     osdp_msg_header.checksum = tmp;
 809              		.loc 1 288 0
 810 009a F071     		strb	r0, [r6, #7]
 289:.\i2cuart.c   ****                     break;
 811              		.loc 1 289 0
 812 009c 01E0     		b	.L79
 813              	.L78:
 290:.\i2cuart.c   ****                 }
 291:.\i2cuart.c   ****                 byteCount++;
 814              		.loc 1 291 0
 815 009e 0134     		adds	r4, r4, #1
 816              	.LVL81:
 817 00a0 EAE7     		b	.L77
 818              	.LVL82:
 819              	.L79:
 292:.\i2cuart.c   ****             }
 293:.\i2cuart.c   ****         }
 294:.\i2cuart.c   ****         //last byte
 295:.\i2cuart.c   ****         
 296:.\i2cuart.c   ****         tmp = calcChecksum(panelReadBuf.buf,osdp_msg_header.u.len-1);
 820              		.loc 1 296 0
 821 00a2 B5F90210 		ldrsh	r1, [r5, #2]
 822 00a6 0E48     		ldr	r0, .L87+4
 823 00a8 0139     		subs	r1, r1, #1
 824 00aa FFF7FEFF 		bl	calcChecksum
 825              	.LVL83:
 297:.\i2cuart.c   ****         if (tmp != osdp_msg_header.checksum)
 826              		.loc 1 297 0
 827 00ae EB79     		ldrb	r3, [r5, #7]	@ zero_extendqisi2
 296:.\i2cuart.c   ****         tmp = calcChecksum(panelReadBuf.buf,osdp_msg_header.u.len-1);
 828              		.loc 1 296 0
 829 00b0 0A4C     		ldr	r4, .L87
 830              	.LVL84:
 831              		.loc 1 297 0
 832 00b2 8342     		cmp	r3, r0
 833 00b4 05D0     		beq	.L81
 298:.\i2cuart.c   ****         {
 299:.\i2cuart.c   ****             sendOSDPNak(osdp_msg_header); //no delay, send it back in <3ms
 834              		.loc 1 299 0
 835 00b6 2068     		ldr	r0, [r4]	@ unaligned
 836              	.LVL85:
 837 00b8 6168     		ldr	r1, [r4, #4]	@ unaligned
 300:.\i2cuart.c   ****             return; //error!
 301:.\i2cuart.c   ****         }
ARM GAS  C:\Users\Yiquing\AppData\Local\Temp\cc5OWbyO.s 			page 22


 302:.\i2cuart.c   ****         
 303:.\i2cuart.c   **** /* takecare ack        
 304:.\i2cuart.c   ****         if (osdp_msg_header.u.len == 7 && osdp_msg_header.cmnd == 0x60){
 305:.\i2cuart.c   ****             tmp = calcChecksum(panelReadBuf.buf,osdp_msg_header.u.len-1);
 306:.\i2cuart.c   ****             if (tmp == osdp_msg_header.checksum){
 307:.\i2cuart.c   ****                 if (panelSendBuf.pending)
 308:.\i2cuart.c   ****                 {
 309:.\i2cuart.c   ****                     panelSendBuf.buf[4] = osdp_msg_header.ctrl;
 310:.\i2cuart.c   ****                     panelSendBuf.buf[panelSendBuf.len-1]
 311:.\i2cuart.c   ****                         = calcChecksum(panelSendBuf.buf, panelSendBuf.len-1);
 312:.\i2cuart.c   ****                     SendOSDP();
 313:.\i2cuart.c   ****                     panelSendBuf.pending = 0; //send out command
 314:.\i2cuart.c   ****                 }
 315:.\i2cuart.c   ****                 else
 316:.\i2cuart.c   ****                 {                   
 317:.\i2cuart.c   ****                     sendOSDPAck(osdp_msg_header); //no delay, send it back in <3ms
 318:.\i2cuart.c   ****                 }
 319:.\i2cuart.c   ****             }
 320:.\i2cuart.c   ****             else
 321:.\i2cuart.c   ****             {
 322:.\i2cuart.c   ****                 sendOSDPNak(osdp_msg_header); //no delay, send it back in <3ms
 323:.\i2cuart.c   ****             }
 324:.\i2cuart.c   ****             return;  //not send to upper layer
 325:.\i2cuart.c   ****         }
 326:.\i2cuart.c   **** */
 327:.\i2cuart.c   ****         
 328:.\i2cuart.c   ****         copyPanelBufI2C(&panelReadBuf);         //send to firmware
 329:.\i2cuart.c   ****         MyI2C_Regs.osdp_status |= OSDP_DATA_IN_READY;
 330:.\i2cuart.c   ****         
 331:.\i2cuart.c   ****     }
 332:.\i2cuart.c   **** }
 838              		.loc 1 332 0
 839 00ba BDE8F840 		pop	{r3, r4, r5, r6, r7, lr}
 299:.\i2cuart.c   ****             sendOSDPNak(osdp_msg_header); //no delay, send it back in <3ms
 840              		.loc 1 299 0
 841 00be FFF7FEBF 		b	sendOSDPNak
 842              	.LVL86:
 843              	.L81:
 328:.\i2cuart.c   ****         copyPanelBufI2C(&panelReadBuf);         //send to firmware
 844              		.loc 1 328 0
 845 00c2 0748     		ldr	r0, .L87+4
 846              	.LVL87:
 847 00c4 FFF7FEFF 		bl	copyPanelBufI2C
 848              	.LVL88:
 329:.\i2cuart.c   ****         MyI2C_Regs.osdp_status |= OSDP_DATA_IN_READY;
 849              		.loc 1 329 0
 850 00c8 064B     		ldr	r3, .L87+8
 851 00ca 93F84A20 		ldrb	r2, [r3, #74]	@ zero_extendqisi2
 852 00ce 42F00202 		orr	r2, r2, #2
 853 00d2 83F84A20 		strb	r2, [r3, #74]
 854 00d6 F8BD     		pop	{r3, r4, r5, r6, r7, pc}
 855              	.LVL89:
 856              	.L68:
 857 00d8 F8BD     		pop	{r3, r4, r5, r6, r7, pc}
 858              	.L88:
 859 00da 00BF     		.align	2
 860              	.L87:
ARM GAS  C:\Users\Yiquing\AppData\Local\Temp\cc5OWbyO.s 			page 23


 861 00dc 00000000 		.word	osdp_msg_header
 862 00e0 00000000 		.word	panelReadBuf
 863 00e4 00000000 		.word	MyI2C_Regs
 864              		.cfi_endproc
 865              	.LFE73:
 866              		.size	ReadOSDP, .-ReadOSDP
 867              		.section	.text.SetOSDPRate,"ax",%progbits
 868              		.align	1
 869              		.global	SetOSDPRate
 870              		.thumb
 871              		.thumb_func
 872              		.type	SetOSDPRate, %function
 873              	SetOSDPRate:
 874              	.LFB74:
 333:.\i2cuart.c   **** 
 334:.\i2cuart.c   **** void SetOSDPRate(){
 875              		.loc 1 334 0
 876              		.cfi_startproc
 877              		@ args = 0, pretend = 0, frame = 0
 878              		@ frame_needed = 0, uses_anonymous_args = 0
 879 0000 08B5     		push	{r3, lr}
 880              		.cfi_def_cfa_offset 8
 881              		.cfi_offset 3, -8
 882              		.cfi_offset 14, -4
 335:.\i2cuart.c   ****     char rate;
 336:.\i2cuart.c   ****     
 337:.\i2cuart.c   ****     UART_ACS_Start();
 883              		.loc 1 337 0
 884 0002 FFF7FEFF 		bl	UART_ACS_Start
 885              	.LVL90:
 338:.\i2cuart.c   **** 
 339:.\i2cuart.c   ****     rate = MyI2C_Regs.osdp_rate;
 886              		.loc 1 339 0
 887 0006 0C4B     		ldr	r3, .L97
 340:.\i2cuart.c   ****     switch(rate){
 888              		.loc 1 340 0
 889 0008 93F84C30 		ldrb	r3, [r3, #76]	@ zero_extendqisi2
 890 000c 013B     		subs	r3, r3, #1
 891 000e 032B     		cmp	r3, #3
 892 0010 11D8     		bhi	.L89
 893 0012 DFE803F0 		tbb	[pc, r3]
 894              	.L92:
 895 0016 02       		.byte	(.L91-.L92)/2
 896 0017 05       		.byte	(.L93-.L92)/2
 897 0018 08       		.byte	(.L94-.L92)/2
 898 0019 0A       		.byte	(.L95-.L92)/2
 899              		.p2align 1
 900              	.L91:
 341:.\i2cuart.c   ****         case OSDP_9600:
 342:.\i2cuart.c   ****             Clock_5_SetDividerValue(625); //  48000000/625=9600
 901              		.loc 1 342 0
 902 001a 4FF41C70 		mov	r0, #624
 903 001e 05E0     		b	.L96
 904              	.L93:
 343:.\i2cuart.c   ****             break;
 344:.\i2cuart.c   ****         case OSDP_19200:
 345:.\i2cuart.c   ****             Clock_5_SetDividerValue(312);
ARM GAS  C:\Users\Yiquing\AppData\Local\Temp\cc5OWbyO.s 			page 24


 905              		.loc 1 345 0
 906 0020 40F23710 		movw	r0, #311
 907 0024 02E0     		b	.L96
 908              	.L94:
 346:.\i2cuart.c   ****             break;
 347:.\i2cuart.c   ****         case OSDP_38400:
 348:.\i2cuart.c   ****             Clock_5_SetDividerValue(156);
 909              		.loc 1 348 0
 910 0026 9B20     		movs	r0, #155
 911 0028 00E0     		b	.L96
 912              	.L95:
 349:.\i2cuart.c   ****             break;
 350:.\i2cuart.c   ****         case OSDP_115200:
 351:.\i2cuart.c   ****             Clock_5_SetDividerValue(52);
 913              		.loc 1 351 0
 914 002a 3320     		movs	r0, #51
 915              	.L96:
 916 002c 0121     		movs	r1, #1
 352:.\i2cuart.c   ****             break;
 353:.\i2cuart.c   ****         default:;    
 354:.\i2cuart.c   ****     }
 355:.\i2cuart.c   ****     
 356:.\i2cuart.c   **** }
 917              		.loc 1 356 0
 918 002e BDE80840 		pop	{r3, lr}
 351:.\i2cuart.c   ****             Clock_5_SetDividerValue(52);
 919              		.loc 1 351 0
 920 0032 FFF7FEBF 		b	Clock_5_SetDividerRegister
 921              	.LVL91:
 922              	.L89:
 923 0036 08BD     		pop	{r3, pc}
 924              	.L98:
 925              		.align	2
 926              	.L97:
 927 0038 00000000 		.word	MyI2C_Regs
 928              		.cfi_endproc
 929              	.LFE74:
 930              		.size	SetOSDPRate, .-SetOSDPRate
 931              		.section	.text.copyReaderBufI2C,"ax",%progbits
 932              		.align	1
 933              		.global	copyReaderBufI2C
 934              		.thumb
 935              		.thumb_func
 936              		.type	copyReaderBufI2C, %function
 937              	copyReaderBufI2C:
 938              	.LFB75:
 357:.\i2cuart.c   **** 
 358:.\i2cuart.c   **** ////////////////OSDP READER//////////////////
 359:.\i2cuart.c   **** ReaderBuf readerSendBuffer, readerReadBuffer;
 360:.\i2cuart.c   **** unsigned char OSDPReaderTask;
 361:.\i2cuart.c   **** 
 362:.\i2cuart.c   **** 
 363:.\i2cuart.c   **** void copyReaderBufI2C(ReaderBuf *p)
 364:.\i2cuart.c   **** {
 939              		.loc 1 364 0
 940              		.cfi_startproc
 941              		@ args = 0, pretend = 0, frame = 0
ARM GAS  C:\Users\Yiquing\AppData\Local\Temp\cc5OWbyO.s 			page 25


 942              		@ frame_needed = 0, uses_anonymous_args = 0
 943              	.LVL92:
 365:.\i2cuart.c   ****     int i;
 366:.\i2cuart.c   **** //yqh    if (MyI2C_Regs.osdp_reader_cmd != OSDP_BUSY){  //avoid overwrite
 367:.\i2cuart.c   ****         MyI2C_Regs.osdp_reader_data_length = p->len;
 944              		.loc 1 367 0
 945 0000 90F83030 		ldrb	r3, [r0, #48]	@ zero_extendqisi2
 946 0004 0D4A     		ldr	r2, .L103
 364:.\i2cuart.c   **** {
 947              		.loc 1 364 0
 948 0006 10B5     		push	{r4, lr}
 949              		.cfi_def_cfa_offset 8
 950              		.cfi_offset 4, -8
 951              		.cfi_offset 14, -4
 952              		.loc 1 367 0
 953 0008 82F8CE30 		strb	r3, [r2, #206]
 954              	.LVL93:
 368:.\i2cuart.c   ****         for (i=0; i < p->len; i++){
 955              		.loc 1 368 0
 956 000c 0023     		movs	r3, #0
 957              	.LVL94:
 958              	.L100:
 959              		.loc 1 368 0 is_stmt 0 discriminator 1
 960 000e 90F83010 		ldrb	r1, [r0, #48]	@ zero_extendqisi2
 961 0012 8B42     		cmp	r3, r1
 962 0014 05DA     		bge	.L102
 369:.\i2cuart.c   ****             MyI2C_Regs.osdp_reader_buffer[i] = p->buf[i];
 963              		.loc 1 369 0 is_stmt 1 discriminator 2
 964 0016 C45C     		ldrb	r4, [r0, r3]	@ zero_extendqisi2
 965 0018 D118     		adds	r1, r2, r3
 966 001a 81F8D040 		strb	r4, [r1, #208]
 368:.\i2cuart.c   ****         for (i=0; i < p->len; i++){
 967              		.loc 1 368 0 discriminator 2
 968 001e 0133     		adds	r3, r3, #1
 969              	.LVL95:
 970 0020 F5E7     		b	.L100
 971              	.L102:
 370:.\i2cuart.c   ****         }
 371:.\i2cuart.c   **** //yqh    }
 372:.\i2cuart.c   ****         MyI2C_Regs.osdp_status |= OSDP_READER_DATA_IN_READY;
 972              		.loc 1 372 0
 973 0022 92F84A30 		ldrb	r3, [r2, #74]	@ zero_extendqisi2
 974              	.LVL96:
 975 0026 43F02003 		orr	r3, r3, #32
 976 002a 82F84A30 		strb	r3, [r2, #74]
 373:.\i2cuart.c   ****         MyI2C_Regs.osdp_reader_cmd = OSDP_READ;  //clear completed command
 977              		.loc 1 373 0
 978 002e 0323     		movs	r3, #3
 979 0030 82F8CD30 		strb	r3, [r2, #205]
 374:.\i2cuart.c   ****         OSDPReaderTimer_Start();
 375:.\i2cuart.c   **** }
 980              		.loc 1 375 0
 981 0034 BDE81040 		pop	{r4, lr}
 374:.\i2cuart.c   ****         OSDPReaderTimer_Start();
 982              		.loc 1 374 0
 983 0038 FFF7FEBF 		b	OSDPReaderTimer_Start
 984              	.LVL97:
ARM GAS  C:\Users\Yiquing\AppData\Local\Temp\cc5OWbyO.s 			page 26


 985              	.L104:
 986              		.align	2
 987              	.L103:
 988 003c 00000000 		.word	MyI2C_Regs
 989              		.cfi_endproc
 990              	.LFE75:
 991              		.size	copyReaderBufI2C, .-copyReaderBufI2C
 992              		.section	.text.copyI2CReaderBuf,"ax",%progbits
 993              		.align	1
 994              		.global	copyI2CReaderBuf
 995              		.thumb
 996              		.thumb_func
 997              		.type	copyI2CReaderBuf, %function
 998              	copyI2CReaderBuf:
 999              	.LFB76:
 376:.\i2cuart.c   **** void copyI2CReaderBuf(ReaderBuf *p)
 377:.\i2cuart.c   **** {
 1000              		.loc 1 377 0
 1001              		.cfi_startproc
 1002              		@ args = 0, pretend = 0, frame = 0
 1003              		@ frame_needed = 0, uses_anonymous_args = 0
 1004              	.LVL98:
 1005 0000 10B5     		push	{r4, lr}
 1006              		.cfi_def_cfa_offset 8
 1007              		.cfi_offset 4, -8
 1008              		.cfi_offset 14, -4
 378:.\i2cuart.c   ****     int i;
 379:.\i2cuart.c   ****     p->len = MyI2C_Regs.osdp_reader_data_length;
 1009              		.loc 1 379 0
 1010 0002 0749     		ldr	r1, .L109
 380:.\i2cuart.c   ****     for (i=0; i < p->len; i++){
 1011              		.loc 1 380 0
 1012 0004 0023     		movs	r3, #0
 379:.\i2cuart.c   ****     p->len = MyI2C_Regs.osdp_reader_data_length;
 1013              		.loc 1 379 0
 1014 0006 91F8CE20 		ldrb	r2, [r1, #206]	@ zero_extendqisi2
 1015 000a 80F83020 		strb	r2, [r0, #48]
 1016              	.LVL99:
 1017              	.L106:
 1018              		.loc 1 380 0 discriminator 1
 1019 000e 9342     		cmp	r3, r2
 1020 0010 05DA     		bge	.L108
 1021 0012 CC18     		adds	r4, r1, r3
 381:.\i2cuart.c   ****         p->buf[i] = MyI2C_Regs.osdp_reader_buffer[i];
 1022              		.loc 1 381 0 discriminator 2
 1023 0014 94F8D040 		ldrb	r4, [r4, #208]	@ zero_extendqisi2
 1024 0018 C454     		strb	r4, [r0, r3]
 380:.\i2cuart.c   ****     for (i=0; i < p->len; i++){
 1025              		.loc 1 380 0 discriminator 2
 1026 001a 0133     		adds	r3, r3, #1
 1027              	.LVL100:
 1028 001c F7E7     		b	.L106
 1029              	.L108:
 382:.\i2cuart.c   ****     }
 383:.\i2cuart.c   **** }
 1030              		.loc 1 383 0
 1031 001e 10BD     		pop	{r4, pc}
ARM GAS  C:\Users\Yiquing\AppData\Local\Temp\cc5OWbyO.s 			page 27


 1032              	.L110:
 1033              		.align	2
 1034              	.L109:
 1035 0020 00000000 		.word	MyI2C_Regs
 1036              		.cfi_endproc
 1037              	.LFE76:
 1038              		.size	copyI2CReaderBuf, .-copyI2CReaderBuf
 1039              		.section	.text.KeepAliveInterruptHandler,"ax",%progbits
 1040              		.align	1
 1041              		.global	KeepAliveInterruptHandler
 1042              		.thumb
 1043              		.thumb_func
 1044              		.type	KeepAliveInterruptHandler, %function
 1045              	KeepAliveInterruptHandler:
 1046              	.LFB77:
 384:.\i2cuart.c   **** 
 385:.\i2cuart.c   **** 
 386:.\i2cuart.c   **** 
 387:.\i2cuart.c   **** 
 388:.\i2cuart.c   **** uint8 InterruptCnt;
 389:.\i2cuart.c   **** 
 390:.\i2cuart.c   **** //keep alive timer interrupt for OSDP reader dual authentication
 391:.\i2cuart.c   **** CY_ISR(KeepAliveInterruptHandler)
 392:.\i2cuart.c   **** {
 1047              		.loc 1 392 0
 1048              		.cfi_startproc
 1049              		@ args = 0, pretend = 0, frame = 0
 1050              		@ frame_needed = 0, uses_anonymous_args = 0
 1051              		@ link register save eliminated.
 393:.\i2cuart.c   **** 	/* Read Status register in order to clear the sticky Terminal Count (TC) bit 
 394:.\i2cuart.c   **** 	 * in the status register.
 395:.\i2cuart.c   **** 	 */
 396:.\i2cuart.c   ****    	OSDPReaderTimer_STATUS;
 1052              		.loc 1 396 0
 1053 0000 034B     		ldr	r3, .L112
 1054 0002 1B78     		ldrb	r3, [r3]	@ zero_extendqisi2
 397:.\i2cuart.c   ****     OSDPReaderTask |= (0x1 << OSDP_SEND_READER);  //send the command to the card reader
 1055              		.loc 1 397 0
 1056 0004 034B     		ldr	r3, .L112+4
 1057 0006 1A78     		ldrb	r2, [r3]	@ zero_extendqisi2
 1058 0008 42F00402 		orr	r2, r2, #4
 1059 000c 1A70     		strb	r2, [r3]
 1060 000e 7047     		bx	lr
 1061              	.L113:
 1062              		.align	2
 1063              	.L112:
 1064 0010 64650040 		.word	1073767780
 1065 0014 00000000 		.word	OSDPReaderTask
 1066              		.cfi_endproc
 1067              	.LFE77:
 1068              		.size	KeepAliveInterruptHandler, .-KeepAliveInterruptHandler
 1069              		.section	.text.ClearOsdpReaderBuffer,"ax",%progbits
 1070              		.align	1
 1071              		.global	ClearOsdpReaderBuffer
 1072              		.thumb
 1073              		.thumb_func
 1074              		.type	ClearOsdpReaderBuffer, %function
ARM GAS  C:\Users\Yiquing\AppData\Local\Temp\cc5OWbyO.s 			page 28


 1075              	ClearOsdpReaderBuffer:
 1076              	.LFB78:
 398:.\i2cuart.c   **** }
 399:.\i2cuart.c   **** 
 400:.\i2cuart.c   **** void ClearOsdpReaderBuffer()
 401:.\i2cuart.c   **** {
 1077              		.loc 1 401 0
 1078              		.cfi_startproc
 1079              		@ args = 0, pretend = 0, frame = 0
 1080              		@ frame_needed = 0, uses_anonymous_args = 0
 1081 0000 08B5     		push	{r3, lr}
 1082              		.cfi_def_cfa_offset 8
 1083              		.cfi_offset 3, -8
 1084              		.cfi_offset 14, -4
 402:.\i2cuart.c   ****     int i;
 403:.\i2cuart.c   ****         UART_READER_ClearRxBuffer();
 1085              		.loc 1 403 0
 1086 0002 FFF7FEFF 		bl	UART_READER_ClearRxBuffer
 1087              	.LVL101:
 404:.\i2cuart.c   ****         MyI2C_Regs.osdp_reader_data_length = 0;
 1088              		.loc 1 404 0
 1089 0006 094A     		ldr	r2, .L118
 1090 0008 0023     		movs	r3, #0
 405:.\i2cuart.c   ****         MyI2C_Regs.osdp_status &= ~OSDP_READER_DATA_IN_READY;
 1091              		.loc 1 405 0
 1092 000a 92F84A10 		ldrb	r1, [r2, #74]	@ zero_extendqisi2
 404:.\i2cuart.c   ****         MyI2C_Regs.osdp_reader_data_length = 0;
 1093              		.loc 1 404 0
 1094 000e 82F8CE30 		strb	r3, [r2, #206]
 1095              		.loc 1 405 0
 1096 0012 21F02001 		bic	r1, r1, #32
 1097 0016 82F84A10 		strb	r1, [r2, #74]
 1098              	.LVL102:
 1099              	.L116:
 1100 001a D118     		adds	r1, r2, r3
 406:.\i2cuart.c   ****         for ( i=0; i<OSDP_READER_BUFFER_LENGTH; i++){
 1101              		.loc 1 406 0 discriminator 2
 1102 001c 0133     		adds	r3, r3, #1
 1103              	.LVL103:
 407:.\i2cuart.c   ****             MyI2C_Regs.osdp_reader_buffer[i]=0;
 1104              		.loc 1 407 0 discriminator 2
 1105 001e 0020     		movs	r0, #0
 406:.\i2cuart.c   ****         for ( i=0; i<OSDP_READER_BUFFER_LENGTH; i++){
 1106              		.loc 1 406 0 discriminator 2
 1107 0020 302B     		cmp	r3, #48
 1108              		.loc 1 407 0 discriminator 2
 1109 0022 81F8D000 		strb	r0, [r1, #208]
 406:.\i2cuart.c   ****         for ( i=0; i<OSDP_READER_BUFFER_LENGTH; i++){
 1110              		.loc 1 406 0 discriminator 2
 1111 0026 F8D1     		bne	.L116
 408:.\i2cuart.c   ****         }
 409:.\i2cuart.c   **** }
 1112              		.loc 1 409 0
 1113 0028 08BD     		pop	{r3, pc}
 1114              	.LVL104:
 1115              	.L119:
 1116 002a 00BF     		.align	2
ARM GAS  C:\Users\Yiquing\AppData\Local\Temp\cc5OWbyO.s 			page 29


 1117              	.L118:
 1118 002c 00000000 		.word	MyI2C_Regs
 1119              		.cfi_endproc
 1120              	.LFE78:
 1121              		.size	ClearOsdpReaderBuffer, .-ClearOsdpReaderBuffer
 1122              		.section	.text.SendOSDPReader,"ax",%progbits
 1123              		.align	1
 1124              		.global	SendOSDPReader
 1125              		.thumb
 1126              		.thumb_func
 1127              		.type	SendOSDPReader, %function
 1128              	SendOSDPReader:
 1129              	.LFB79:
 410:.\i2cuart.c   **** 
 411:.\i2cuart.c   **** void SendOSDPReader()
 412:.\i2cuart.c   **** {
 1130              		.loc 1 412 0
 1131              		.cfi_startproc
 1132              		@ args = 0, pretend = 0, frame = 0
 1133              		@ frame_needed = 0, uses_anonymous_args = 0
 1134 0000 08B5     		push	{r3, lr}
 1135              		.cfi_def_cfa_offset 8
 1136              		.cfi_offset 3, -8
 1137              		.cfi_offset 14, -4
 413:.\i2cuart.c   **** //            Clock_6_SetDividerValue(625); //  48000000/625=9600
 414:.\i2cuart.c   ****     
 415:.\i2cuart.c   ****     Mode_Sel_CR_Write(1); //set the SP335e chip to RS485
 1138              		.loc 1 415 0
 1139 0002 0120     		movs	r0, #1
 1140 0004 FFF7FEFF 		bl	Mode_Sel_CR_Write
 1141              	.LVL105:
 416:.\i2cuart.c   ****     CR_DE_Write(1);
 1142              		.loc 1 416 0
 1143 0008 0120     		movs	r0, #1
 1144 000a FFF7FEFF 		bl	CR_DE_Write
 1145              	.LVL106:
 417:.\i2cuart.c   ****     UART_READER_LoadTxConfig();
 1146              		.loc 1 417 0
 1147 000e FFF7FEFF 		bl	UART_READER_LoadTxConfig
 1148              	.LVL107:
 418:.\i2cuart.c   ****     CyDelay(3); //Driver Output Enable Time, do not reduce. 
 1149              		.loc 1 418 0
 1150 0012 0320     		movs	r0, #3
 1151 0014 FFF7FEFF 		bl	CyDelay
 1152              	.LVL108:
 419:.\i2cuart.c   ****     if(readerSendBuffer.buf[0] == 0x53){
 1153              		.loc 1 419 0
 1154 0018 0A48     		ldr	r0, .L122
 1155 001a 0378     		ldrb	r3, [r0]	@ zero_extendqisi2
 1156 001c 532B     		cmp	r3, #83
 1157 001e 06D1     		bne	.L121
 420:.\i2cuart.c   ****         UART_READER_PutArray(readerSendBuffer.buf,readerSendBuffer.len); 
 1158              		.loc 1 420 0
 1159 0020 90F83010 		ldrb	r1, [r0, #48]	@ zero_extendqisi2
 1160 0024 FFF7FEFF 		bl	UART_READER_PutArray
 1161              	.LVL109:
 421:.\i2cuart.c   ****         CyDelay(5); //minmum 4ms
ARM GAS  C:\Users\Yiquing\AppData\Local\Temp\cc5OWbyO.s 			page 30


 1162              		.loc 1 421 0
 1163 0028 0520     		movs	r0, #5
 1164 002a FFF7FEFF 		bl	CyDelay
 1165              	.LVL110:
 1166              	.L121:
 422:.\i2cuart.c   ****     }
 423:.\i2cuart.c   **** 
 424:.\i2cuart.c   ****     UART_READER_LoadRxConfig();  //set to receiving mode
 1167              		.loc 1 424 0
 1168 002e FFF7FEFF 		bl	UART_READER_LoadRxConfig
 1169              	.LVL111:
 425:.\i2cuart.c   ****     CR_DE_Write(0);
 1170              		.loc 1 425 0
 1171 0032 0020     		movs	r0, #0
 1172 0034 FFF7FEFF 		bl	CR_DE_Write
 1173              	.LVL112:
 426:.\i2cuart.c   ****     Mode_Sel_CR_Write(1); //set the chip to RS485 mode
 427:.\i2cuart.c   **** 
 428:.\i2cuart.c   **** }
 1174              		.loc 1 428 0
 1175 0038 BDE80840 		pop	{r3, lr}
 426:.\i2cuart.c   ****     Mode_Sel_CR_Write(1); //set the chip to RS485 mode
 1176              		.loc 1 426 0
 1177 003c 0120     		movs	r0, #1
 1178 003e FFF7FEBF 		b	Mode_Sel_CR_Write
 1179              	.LVL113:
 1180              	.L123:
 1181 0042 00BF     		.align	2
 1182              	.L122:
 1183 0044 00000000 		.word	readerSendBuffer
 1184              		.cfi_endproc
 1185              	.LFE79:
 1186              		.size	SendOSDPReader, .-SendOSDPReader
 1187              		.section	.text.ReadOSDPReader,"ax",%progbits
 1188              		.align	1
 1189              		.global	ReadOSDPReader
 1190              		.thumb
 1191              		.thumb_func
 1192              		.type	ReadOSDPReader, %function
 1193              	ReadOSDPReader:
 1194              	.LFB80:
 429:.\i2cuart.c   **** 
 430:.\i2cuart.c   **** void ReadOSDPReader()
 431:.\i2cuart.c   **** {
 1195              		.loc 1 431 0
 1196              		.cfi_startproc
 1197              		@ args = 0, pretend = 0, frame = 0
 1198              		@ frame_needed = 0, uses_anonymous_args = 0
 1199              	.LVL114:
 1200 0000 70B5     		push	{r4, r5, r6, lr}
 1201              		.cfi_def_cfa_offset 16
 1202              		.cfi_offset 4, -16
 1203              		.cfi_offset 5, -12
 1204              		.cfi_offset 6, -8
 1205              		.cfi_offset 14, -4
 432:.\i2cuart.c   ****     int byteCount =0;
 433:.\i2cuart.c   ****     unsigned char tmp = 0;
ARM GAS  C:\Users\Yiquing\AppData\Local\Temp\cc5OWbyO.s 			page 31


 434:.\i2cuart.c   ****     char msg_started = 0;
 435:.\i2cuart.c   ****     int i;
 436:.\i2cuart.c   ****     
 437:.\i2cuart.c   **** //    Mode_Sel_CR_Write(1); //set the chip to RS485 mode
 438:.\i2cuart.c   **** //    CyDelay(1); //Driver Output Enable Time, do not reduce. 
 439:.\i2cuart.c   **** 
 440:.\i2cuart.c   ****     if (UART_READER_GetRxBufferSize()>= 7)
 1206              		.loc 1 440 0
 1207 0002 FFF7FEFF 		bl	UART_READER_GetRxBufferSize
 1208              	.LVL115:
 1209 0006 0628     		cmp	r0, #6
 1210 0008 39D9     		bls	.L124
 1211 000a 0724     		movs	r4, #7
 1212              	.LVL116:
 1213              	.L129:
 441:.\i2cuart.c   ****     {
 442:.\i2cuart.c   ****         for(i=0;i<7;i++) {
 443:.\i2cuart.c   ****             tmp = UART_READER_GetChar();
 1214              		.loc 1 443 0
 1215 000c FFF7FEFF 		bl	UART_READER_GetChar
 1216              	.LVL117:
 444:.\i2cuart.c   ****             if (tmp == 0x53) {
 1217              		.loc 1 444 0
 1218 0010 5328     		cmp	r0, #83
 443:.\i2cuart.c   ****             tmp = UART_READER_GetChar();
 1219              		.loc 1 443 0
 1220 0012 0546     		mov	r5, r0
 1221              	.LVL118:
 1222              		.loc 1 444 0
 1223 0014 02D0     		beq	.L127
 1224              	.LVL119:
 442:.\i2cuart.c   ****         for(i=0;i<7;i++) {
 1225              		.loc 1 442 0
 1226 0016 013C     		subs	r4, r4, #1
 1227              	.LVL120:
 1228 0018 F8D1     		bne	.L129
 1229 001a 70BD     		pop	{r4, r5, r6, pc}
 1230              	.LVL121:
 1231              	.L127:
 445:.\i2cuart.c   ****                 msg_started = 1;
 446:.\i2cuart.c   ****                 break;
 447:.\i2cuart.c   ****             }
 448:.\i2cuart.c   ****         } 
 449:.\i2cuart.c   ****         
 450:.\i2cuart.c   ****         if (msg_started){
 451:.\i2cuart.c   ****             tmp = UART_READER_GetChar();
 1232              		.loc 1 451 0
 1233 001c FFF7FEFF 		bl	UART_READER_GetChar
 1234              	.LVL122:
 452:.\i2cuart.c   ****             osdp_reader_msg_header.addr = tmp;
 1235              		.loc 1 452 0
 1236 0020 174C     		ldr	r4, .L141
 1237              	.LVL123:
 1238 0022 2070     		strb	r0, [r4]
 453:.\i2cuart.c   ****             
 454:.\i2cuart.c   ****             tmp = UART_READER_GetChar();
 1239              		.loc 1 454 0
ARM GAS  C:\Users\Yiquing\AppData\Local\Temp\cc5OWbyO.s 			page 32


 1240 0024 FFF7FEFF 		bl	UART_READER_GetChar
 1241              	.LVL124:
 455:.\i2cuart.c   ****             osdp_reader_msg_header.u.length[0] = tmp;
 1242              		.loc 1 455 0
 1243 0028 A070     		strb	r0, [r4, #2]
 456:.\i2cuart.c   ****             
 457:.\i2cuart.c   ****             tmp = UART_READER_GetChar();
 1244              		.loc 1 457 0
 1245 002a FFF7FEFF 		bl	UART_READER_GetChar
 1246              	.LVL125:
 458:.\i2cuart.c   ****             osdp_reader_msg_header.u.length[1] = tmp;
 1247              		.loc 1 458 0
 1248 002e E070     		strb	r0, [r4, #3]
 459:.\i2cuart.c   ****         } 
 460:.\i2cuart.c   ****         else
 461:.\i2cuart.c   ****         {
 462:.\i2cuart.c   ****             //the message is not started yet
 463:.\i2cuart.c   ****             return;
 464:.\i2cuart.c   ****         }
 465:.\i2cuart.c   ****         
 466:.\i2cuart.c   ****         if (osdp_reader_msg_header.u.len <5) return; //discard bad message, too short.
 1249              		.loc 1 466 0
 1250 0030 6188     		ldrh	r1, [r4, #2]
 1251 0032 2646     		mov	r6, r4
 1252 0034 0AB2     		sxth	r2, r1
 1253 0036 042A     		cmp	r2, #4
 1254 0038 21DD     		ble	.L124
 467:.\i2cuart.c   ****         
 468:.\i2cuart.c   ****         byteCount = 0;
 469:.\i2cuart.c   ****         readerReadBuffer.buf[byteCount] = 0x53;
 1255              		.loc 1 469 0
 1256 003a 124B     		ldr	r3, .L141+4
 470:.\i2cuart.c   ****         byteCount++;
 471:.\i2cuart.c   ****         readerReadBuffer.buf[byteCount] = osdp_reader_msg_header.addr;
 472:.\i2cuart.c   ****         byteCount++;
 473:.\i2cuart.c   ****         readerReadBuffer.buf[byteCount] = osdp_reader_msg_header.u.length[0];
 474:.\i2cuart.c   ****         byteCount++;
 475:.\i2cuart.c   ****         readerReadBuffer.buf[byteCount] = osdp_reader_msg_header.u.length[1];
 476:.\i2cuart.c   ****         byteCount++;
 477:.\i2cuart.c   ****         
 478:.\i2cuart.c   ****         if(osdp_reader_msg_header.u.len > OSDP_READER_BUFFER_LENGTH){
 1257              		.loc 1 478 0
 1258 003c 302A     		cmp	r2, #48
 469:.\i2cuart.c   ****         readerReadBuffer.buf[byteCount] = 0x53;
 1259              		.loc 1 469 0
 1260 003e 1D70     		strb	r5, [r3]
 1261              	.LVL126:
 471:.\i2cuart.c   ****         readerReadBuffer.buf[byteCount] = osdp_reader_msg_header.addr;
 1262              		.loc 1 471 0
 1263 0040 2578     		ldrb	r5, [r4]	@ zero_extendqisi2
 475:.\i2cuart.c   ****         readerReadBuffer.buf[byteCount] = osdp_reader_msg_header.u.length[1];
 1264              		.loc 1 475 0
 1265 0042 D870     		strb	r0, [r3, #3]
 471:.\i2cuart.c   ****         readerReadBuffer.buf[byteCount] = osdp_reader_msg_header.addr;
 1266              		.loc 1 471 0
 1267 0044 5D70     		strb	r5, [r3, #1]
 1268              	.LVL127:
ARM GAS  C:\Users\Yiquing\AppData\Local\Temp\cc5OWbyO.s 			page 33


 473:.\i2cuart.c   ****         readerReadBuffer.buf[byteCount] = osdp_reader_msg_header.u.length[0];
 1269              		.loc 1 473 0
 1270 0046 A578     		ldrb	r5, [r4, #2]	@ zero_extendqisi2
 1271 0048 9D70     		strb	r5, [r3, #2]
 1272              	.LVL128:
 1273 004a 1D46     		mov	r5, r3
 1274              		.loc 1 478 0
 1275 004c 02DD     		ble	.L130
 479:.\i2cuart.c   ****             //error, the message is too long
 480:.\i2cuart.c   ****             osdp_reader_msg_header.u.len = OSDP_READER_BUFFER_LENGTH;
 1276              		.loc 1 480 0
 1277 004e 3023     		movs	r3, #48
 1278 0050 6380     		strh	r3, [r4, #2]	@ movhi
 481:.\i2cuart.c   ****             return;
 1279              		.loc 1 481 0
 1280 0052 70BD     		pop	{r4, r5, r6, pc}
 1281              	.L130:
 482:.\i2cuart.c   ****         } else {
 483:.\i2cuart.c   ****             readerReadBuffer.len = osdp_reader_msg_header.u.len;
 1282              		.loc 1 483 0
 1283 0054 83F83010 		strb	r1, [r3, #48]
 476:.\i2cuart.c   ****         byteCount++;
 1284              		.loc 1 476 0
 1285 0058 0424     		movs	r4, #4
 1286              	.LVL129:
 1287              	.L133:
 484:.\i2cuart.c   ****         }
 485:.\i2cuart.c   ****         
 486:.\i2cuart.c   ****         for (; byteCount<osdp_reader_msg_header.u.len;){  //may need timeout here
 1288              		.loc 1 486 0 discriminator 1
 1289 005a B6F90230 		ldrsh	r3, [r6, #2]
 1290 005e 9C42     		cmp	r4, r3
 1291 0060 08DA     		bge	.L140
 487:.\i2cuart.c   ****             if (UART_READER_GetRxBufferSize()>0){
 1292              		.loc 1 487 0
 1293 0062 FFF7FEFF 		bl	UART_READER_GetRxBufferSize
 1294              	.LVL130:
 1295 0066 0028     		cmp	r0, #0
 1296 0068 F7D0     		beq	.L133
 488:.\i2cuart.c   ****                 tmp = UART_READER_GetChar();
 1297              		.loc 1 488 0
 1298 006a FFF7FEFF 		bl	UART_READER_GetChar
 1299              	.LVL131:
 489:.\i2cuart.c   ****                 readerReadBuffer.buf[byteCount] = tmp;
 1300              		.loc 1 489 0
 1301 006e 2855     		strb	r0, [r5, r4]
 490:.\i2cuart.c   ****                 byteCount++;
 1302              		.loc 1 490 0
 1303 0070 0134     		adds	r4, r4, #1
 1304              	.LVL132:
 1305 0072 F2E7     		b	.L133
 1306              	.LVL133:
 1307              	.L140:
 491:.\i2cuart.c   ****             }
 492:.\i2cuart.c   ****         }
 493:.\i2cuart.c   ****         
 494:.\i2cuart.c   **** //yqh        if (MyI2C_Regs.osdp_reader_cmd != OSDP_BUSY && 
ARM GAS  C:\Users\Yiquing\AppData\Local\Temp\cc5OWbyO.s 			page 34


 495:.\i2cuart.c   **** //yqh            MyI2C_Regs.osdp_reader_cmd != OSDP_SEND){  //avoid overwrite
 496:.\i2cuart.c   **** //yqh            MyI2C_Regs.osdp_reader_cmd = OSDP_BUSY;
 497:.\i2cuart.c   ****         copyReaderBufI2C(&readerReadBuffer);
 1308              		.loc 1 497 0
 1309 0074 0348     		ldr	r0, .L141+4
 498:.\i2cuart.c   **** //yqh        }
 499:.\i2cuart.c   ****     }    
 500:.\i2cuart.c   **** }
 1310              		.loc 1 500 0
 1311 0076 BDE87040 		pop	{r4, r5, r6, lr}
 1312              	.LVL134:
 497:.\i2cuart.c   ****         copyReaderBufI2C(&readerReadBuffer);
 1313              		.loc 1 497 0
 1314 007a FFF7FEBF 		b	copyReaderBufI2C
 1315              	.LVL135:
 1316              	.L124:
 1317 007e 70BD     		pop	{r4, r5, r6, pc}
 1318              	.L142:
 1319              		.align	2
 1320              	.L141:
 1321 0080 00000000 		.word	osdp_reader_msg_header
 1322 0084 00000000 		.word	readerReadBuffer
 1323              		.cfi_endproc
 1324              	.LFE80:
 1325              		.size	ReadOSDPReader, .-ReadOSDPReader
 1326              		.section	.text.SetOSDPReaderSpeed,"ax",%progbits
 1327              		.align	1
 1328              		.global	SetOSDPReaderSpeed
 1329              		.thumb
 1330              		.thumb_func
 1331              		.type	SetOSDPReaderSpeed, %function
 1332              	SetOSDPReaderSpeed:
 1333              	.LFB81:
 501:.\i2cuart.c   **** 
 502:.\i2cuart.c   **** void SetOSDPReaderSpeed(){
 1334              		.loc 1 502 0
 1335              		.cfi_startproc
 1336              		@ args = 0, pretend = 0, frame = 0
 1337              		@ frame_needed = 0, uses_anonymous_args = 0
 1338              		@ link register save eliminated.
 1339              	.LVL136:
 503:.\i2cuart.c   ****     char rate;
 504:.\i2cuart.c   ****     rate = MyI2C_Regs.osdp_reader_rate;
 1340              		.loc 1 504 0
 1341 0000 0B4B     		ldr	r3, .L151
 505:.\i2cuart.c   ****     switch(rate){
 1342              		.loc 1 505 0
 1343 0002 93F8CF30 		ldrb	r3, [r3, #207]	@ zero_extendqisi2
 1344 0006 013B     		subs	r3, r3, #1
 1345 0008 032B     		cmp	r3, #3
 1346 000a 0FD8     		bhi	.L143
 1347 000c DFE803F0 		tbb	[pc, r3]
 1348              	.L146:
 1349 0010 02       		.byte	(.L145-.L146)/2
 1350 0011 05       		.byte	(.L147-.L146)/2
 1351 0012 08       		.byte	(.L148-.L146)/2
 1352 0013 0A       		.byte	(.L149-.L146)/2
ARM GAS  C:\Users\Yiquing\AppData\Local\Temp\cc5OWbyO.s 			page 35


 1353              		.p2align 1
 1354              	.L145:
 506:.\i2cuart.c   ****         case OSDP_9600:
 507:.\i2cuart.c   ****             Clock_6_SetDividerValue(625); //  48000000/625=9600
 1355              		.loc 1 507 0
 1356 0014 4FF41C70 		mov	r0, #624
 1357 0018 05E0     		b	.L150
 1358              	.L147:
 508:.\i2cuart.c   ****             break;
 509:.\i2cuart.c   ****         case OSDP_19200:
 510:.\i2cuart.c   ****             Clock_6_SetDividerValue(312);
 1359              		.loc 1 510 0
 1360 001a 40F23710 		movw	r0, #311
 1361 001e 02E0     		b	.L150
 1362              	.L148:
 511:.\i2cuart.c   ****             break;
 512:.\i2cuart.c   ****         case OSDP_38400:
 513:.\i2cuart.c   ****             Clock_6_SetDividerValue(156);
 1363              		.loc 1 513 0
 1364 0020 9B20     		movs	r0, #155
 1365 0022 00E0     		b	.L150
 1366              	.L149:
 514:.\i2cuart.c   ****             break;
 515:.\i2cuart.c   ****         case OSDP_115200:
 516:.\i2cuart.c   ****             Clock_6_SetDividerValue(52);
 1367              		.loc 1 516 0
 1368 0024 3320     		movs	r0, #51
 1369              	.L150:
 1370 0026 0121     		movs	r1, #1
 1371 0028 FFF7FEBF 		b	Clock_6_SetDividerRegister
 1372              	.LVL137:
 1373              	.L143:
 1374 002c 7047     		bx	lr
 1375              	.L152:
 1376 002e 00BF     		.align	2
 1377              	.L151:
 1378 0030 00000000 		.word	MyI2C_Regs
 1379              		.cfi_endproc
 1380              	.LFE81:
 1381              		.size	SetOSDPReaderSpeed, .-SetOSDPReaderSpeed
 1382              		.section	.text.SetOSDPKeepALive,"ax",%progbits
 1383              		.align	1
 1384              		.global	SetOSDPKeepALive
 1385              		.thumb
 1386              		.thumb_func
 1387              		.type	SetOSDPKeepALive, %function
 1388              	SetOSDPKeepALive:
 1389              	.LFB82:
 517:.\i2cuart.c   ****             break;
 518:.\i2cuart.c   ****         default:;    
 519:.\i2cuart.c   ****     }
 520:.\i2cuart.c   **** }
 521:.\i2cuart.c   **** 
 522:.\i2cuart.c   **** 
 523:.\i2cuart.c   **** void SetOSDPKeepALive(){
 1390              		.loc 1 523 0
 1391              		.cfi_startproc
ARM GAS  C:\Users\Yiquing\AppData\Local\Temp\cc5OWbyO.s 			page 36


 1392              		@ args = 0, pretend = 0, frame = 0
 1393              		@ frame_needed = 0, uses_anonymous_args = 0
 1394 0000 10B5     		push	{r4, lr}
 1395              		.cfi_def_cfa_offset 8
 1396              		.cfi_offset 4, -8
 1397              		.cfi_offset 14, -4
 524:.\i2cuart.c   ****     int i;
 525:.\i2cuart.c   ****     unsigned char msg_size;
 526:.\i2cuart.c   ****     
 527:.\i2cuart.c   ****     msg_size=  MyI2C_Regs.osdp_reader_data_length;
 1398              		.loc 1 527 0
 1399 0002 0D4B     		ldr	r3, .L160
 1400 0004 93F8CE20 		ldrb	r2, [r3, #206]	@ zero_extendqisi2
 1401              	.LVL138:
 1402 0008 1C46     		mov	r4, r3
 528:.\i2cuart.c   ****     
 529:.\i2cuart.c   ****     if (msg_size <= OSDP_READER_BUFFER_LENGTH){
 1403              		.loc 1 529 0
 1404 000a 302A     		cmp	r2, #48
 1405 000c 12D8     		bhi	.L153
 1406 000e 0023     		movs	r3, #0
 1407              	.LVL139:
 1408              	.L155:
 530:.\i2cuart.c   ****         for ( i=0; i<msg_size; i++){
 1409              		.loc 1 530 0 discriminator 1
 1410 0010 9342     		cmp	r3, r2
 1411 0012 1146     		mov	r1, r2
 1412 0014 0948     		ldr	r0, .L160+4
 1413 0016 05DA     		bge	.L157
 1414 0018 E118     		adds	r1, r4, r3
 531:.\i2cuart.c   ****             readerSendBuffer.buf[i]=MyI2C_Regs.osdp_reader_buffer[i];
 1415              		.loc 1 531 0 discriminator 2
 1416 001a 91F8D010 		ldrb	r1, [r1, #208]	@ zero_extendqisi2
 1417 001e C154     		strb	r1, [r0, r3]
 530:.\i2cuart.c   ****         for ( i=0; i<msg_size; i++){
 1418              		.loc 1 530 0 discriminator 2
 1419 0020 0133     		adds	r3, r3, #1
 1420              	.LVL140:
 1421 0022 F5E7     		b	.L155
 1422              	.LVL141:
 1423              	.L157:
 532:.\i2cuart.c   ****         }
 533:.\i2cuart.c   ****         for ( i=msg_size; i< OSDP_READER_BUFFER_LENGTH; i++){
 1424              		.loc 1 533 0 discriminator 1
 1425 0024 3029     		cmp	r1, #48
 1426 0026 03D0     		beq	.L159
 534:.\i2cuart.c   ****             readerSendBuffer.buf[i] = 0;
 1427              		.loc 1 534 0 discriminator 2
 1428 0028 0023     		movs	r3, #0
 1429 002a 4354     		strb	r3, [r0, r1]
 533:.\i2cuart.c   ****         for ( i=msg_size; i< OSDP_READER_BUFFER_LENGTH; i++){
 1430              		.loc 1 533 0 discriminator 2
 1431 002c 0131     		adds	r1, r1, #1
 1432              	.LVL142:
 1433 002e F9E7     		b	.L157
 1434              	.L159:
 535:.\i2cuart.c   ****         }
ARM GAS  C:\Users\Yiquing\AppData\Local\Temp\cc5OWbyO.s 			page 37


 536:.\i2cuart.c   ****         readerSendBuffer.len = msg_size;
 1435              		.loc 1 536 0
 1436 0030 80F83020 		strb	r2, [r0, #48]
 1437              	.LVL143:
 1438              	.L153:
 1439 0034 10BD     		pop	{r4, pc}
 1440              	.LVL144:
 1441              	.L161:
 1442 0036 00BF     		.align	2
 1443              	.L160:
 1444 0038 00000000 		.word	MyI2C_Regs
 1445 003c 00000000 		.word	readerSendBuffer
 1446              		.cfi_endproc
 1447              	.LFE82:
 1448              		.size	SetOSDPKeepALive, .-SetOSDPKeepALive
 1449              		.comm	InterruptCnt,1,1
 1450              		.comm	OSDPReaderTask,1,1
 1451              		.comm	readerReadBuffer,49,1
 1452              		.comm	readerSendBuffer,49,1
 1453              		.comm	osdp_reader_msg_header,8,2
 1454              		.comm	osdp_msg_header,8,2
 1455              		.comm	panelSendBuf,130,1
 1456              		.comm	panelReadBuf,130,1
 1457              		.comm	card_in_buf,4,4
 1458              		.comm	card_ack,4,4
 1459              		.comm	TAMPERCR_POLARITY,4,4
 1460              		.comm	old,1,1
 1461              		.comm	currentAccessType,1,1
 1462              		.comm	s,40,4
 1463              		.text
 1464              	.Letext0:
 1465              		.file 2 "c:\\program files (x86)\\cypress\\psoc creator\\3.2\\psoc creator\\import\\gnu\\arm\\4.8.
 1466              		.file 3 "c:\\program files (x86)\\cypress\\psoc creator\\3.2\\psoc creator\\import\\gnu\\arm\\4.8.
 1467              		.file 4 "Generated_Source\\PSoC5/cytypes.h"
 1468              		.file 5 ".\\softuart.h"
 1469              		.file 6 ".\\system.h"
 1470              		.file 7 ".\\i2cuart.h"
 1471              		.file 8 "Generated_Source\\PSoC5/core_cm3.h"
 1472              		.file 9 "Generated_Source\\PSoC5/LED_0.h"
 1473              		.file 10 "Generated_Source\\PSoC5/LED_1.h"
 1474              		.file 11 "Generated_Source\\PSoC5/UART_1.h"
 1475              		.file 12 "Generated_Source\\PSoC5/OptSelect.h"
 1476              		.file 13 "Generated_Source\\PSoC5/UART_ACS.h"
 1477              		.file 14 "Generated_Source\\PSoC5/Mode_Sel_ACS.h"
 1478              		.file 15 "Generated_Source\\PSoC5/TX_EN.h"
 1479              		.file 16 "Generated_Source\\PSoC5/CyLib.h"
 1480              		.file 17 "Generated_Source\\PSoC5/Clock_5.h"
 1481              		.file 18 "Generated_Source\\PSoC5/OSDPReaderTimer.h"
 1482              		.file 19 "Generated_Source\\PSoC5/UART_READER.h"
 1483              		.file 20 "Generated_Source\\PSoC5/Mode_Sel_CR.h"
 1484              		.file 21 "Generated_Source\\PSoC5/CR_DE.h"
 1485              		.file 22 "Generated_Source\\PSoC5/Clock_6.h"