ARM GAS  C:\Users\Yiquing\AppData\Local\Temp\cchFXnbu.s 			page 1


   1              		.syntax unified
   2              		.cpu cortex-m3
   3              		.fpu softvfp
   4              		.eabi_attribute 20, 1
   5              		.eabi_attribute 21, 1
   6              		.eabi_attribute 23, 3
   7              		.eabi_attribute 24, 1
   8              		.eabi_attribute 25, 1
   9              		.eabi_attribute 26, 1
  10              		.eabi_attribute 30, 4
  11              		.eabi_attribute 34, 1
  12              		.eabi_attribute 18, 4
  13              		.thumb
  14              		.file	"isr_keepalive.c"
  15              		.text
  16              	.Ltext0:
  17              		.cfi_sections	.debug_frame
  18              		.section	.text.isr_keepalive_Interrupt,"ax",%progbits
  19              		.align	1
  20              		.global	isr_keepalive_Interrupt
  21              		.thumb
  22              		.thumb_func
  23              		.type	isr_keepalive_Interrupt, %function
  24              	isr_keepalive_Interrupt:
  25              	.LFB3:
  26              		.file 1 ".\\Generated_Source\\PSoC5\\isr_keepalive.c"
   1:.\Generated_Source\PSoC5/isr_keepalive.c **** /*******************************************************************************
   2:.\Generated_Source\PSoC5/isr_keepalive.c **** * File Name: isr_keepalive.c  
   3:.\Generated_Source\PSoC5/isr_keepalive.c **** * Version 1.70
   4:.\Generated_Source\PSoC5/isr_keepalive.c **** *
   5:.\Generated_Source\PSoC5/isr_keepalive.c **** *  Description:
   6:.\Generated_Source\PSoC5/isr_keepalive.c **** *   API for controlling the state of an interrupt.
   7:.\Generated_Source\PSoC5/isr_keepalive.c **** *
   8:.\Generated_Source\PSoC5/isr_keepalive.c **** *
   9:.\Generated_Source\PSoC5/isr_keepalive.c **** *  Note:
  10:.\Generated_Source\PSoC5/isr_keepalive.c **** *
  11:.\Generated_Source\PSoC5/isr_keepalive.c **** ********************************************************************************
  12:.\Generated_Source\PSoC5/isr_keepalive.c **** * Copyright 2008-2015, Cypress Semiconductor Corporation.  All rights reserved.
  13:.\Generated_Source\PSoC5/isr_keepalive.c **** * You may use this file only in accordance with the license, terms, conditions, 
  14:.\Generated_Source\PSoC5/isr_keepalive.c **** * disclaimers, and limitations in the end user license agreement accompanying 
  15:.\Generated_Source\PSoC5/isr_keepalive.c **** * the software package with which this file was provided.
  16:.\Generated_Source\PSoC5/isr_keepalive.c **** *******************************************************************************/
  17:.\Generated_Source\PSoC5/isr_keepalive.c **** 
  18:.\Generated_Source\PSoC5/isr_keepalive.c **** 
  19:.\Generated_Source\PSoC5/isr_keepalive.c **** #include <cydevice_trm.h>
  20:.\Generated_Source\PSoC5/isr_keepalive.c **** #include <CyLib.h>
  21:.\Generated_Source\PSoC5/isr_keepalive.c **** #include <isr_keepalive.h>
  22:.\Generated_Source\PSoC5/isr_keepalive.c **** 
  23:.\Generated_Source\PSoC5/isr_keepalive.c **** #if !defined(isr_keepalive__REMOVED) /* Check for removal by optimization */
  24:.\Generated_Source\PSoC5/isr_keepalive.c **** 
  25:.\Generated_Source\PSoC5/isr_keepalive.c **** /*******************************************************************************
  26:.\Generated_Source\PSoC5/isr_keepalive.c **** *  Place your includes, defines and code here 
  27:.\Generated_Source\PSoC5/isr_keepalive.c **** ********************************************************************************/
  28:.\Generated_Source\PSoC5/isr_keepalive.c **** /* `#START isr_keepalive_intc` */
  29:.\Generated_Source\PSoC5/isr_keepalive.c **** /* `#END` */
  30:.\Generated_Source\PSoC5/isr_keepalive.c **** 
  31:.\Generated_Source\PSoC5/isr_keepalive.c **** #ifndef CYINT_IRQ_BASE
ARM GAS  C:\Users\Yiquing\AppData\Local\Temp\cchFXnbu.s 			page 2


  32:.\Generated_Source\PSoC5/isr_keepalive.c **** #define CYINT_IRQ_BASE      16
  33:.\Generated_Source\PSoC5/isr_keepalive.c **** #endif /* CYINT_IRQ_BASE */
  34:.\Generated_Source\PSoC5/isr_keepalive.c **** #ifndef CYINT_VECT_TABLE
  35:.\Generated_Source\PSoC5/isr_keepalive.c **** #define CYINT_VECT_TABLE    ((cyisraddress **) CYREG_NVIC_VECT_OFFSET)
  36:.\Generated_Source\PSoC5/isr_keepalive.c **** #endif /* CYINT_VECT_TABLE */
  37:.\Generated_Source\PSoC5/isr_keepalive.c **** 
  38:.\Generated_Source\PSoC5/isr_keepalive.c **** /* Declared in startup, used to set unused interrupts to. */
  39:.\Generated_Source\PSoC5/isr_keepalive.c **** CY_ISR_PROTO(IntDefaultHandler);
  40:.\Generated_Source\PSoC5/isr_keepalive.c **** 
  41:.\Generated_Source\PSoC5/isr_keepalive.c **** 
  42:.\Generated_Source\PSoC5/isr_keepalive.c **** /*******************************************************************************
  43:.\Generated_Source\PSoC5/isr_keepalive.c **** * Function Name: isr_keepalive_Start
  44:.\Generated_Source\PSoC5/isr_keepalive.c **** ********************************************************************************
  45:.\Generated_Source\PSoC5/isr_keepalive.c **** *
  46:.\Generated_Source\PSoC5/isr_keepalive.c **** * Summary:
  47:.\Generated_Source\PSoC5/isr_keepalive.c **** *  Set up the interrupt and enable it. This function disables the interrupt, 
  48:.\Generated_Source\PSoC5/isr_keepalive.c **** *  sets the default interrupt vector, sets the priority from the value in the
  49:.\Generated_Source\PSoC5/isr_keepalive.c **** *  Design Wide Resources Interrupt Editor, then enables the interrupt to the 
  50:.\Generated_Source\PSoC5/isr_keepalive.c **** *  interrupt controller.
  51:.\Generated_Source\PSoC5/isr_keepalive.c **** *
  52:.\Generated_Source\PSoC5/isr_keepalive.c **** * Parameters:  
  53:.\Generated_Source\PSoC5/isr_keepalive.c **** *   None
  54:.\Generated_Source\PSoC5/isr_keepalive.c **** *
  55:.\Generated_Source\PSoC5/isr_keepalive.c **** * Return:
  56:.\Generated_Source\PSoC5/isr_keepalive.c **** *   None
  57:.\Generated_Source\PSoC5/isr_keepalive.c **** *
  58:.\Generated_Source\PSoC5/isr_keepalive.c **** *******************************************************************************/
  59:.\Generated_Source\PSoC5/isr_keepalive.c **** void isr_keepalive_Start(void)
  60:.\Generated_Source\PSoC5/isr_keepalive.c **** {
  61:.\Generated_Source\PSoC5/isr_keepalive.c ****     /* For all we know the interrupt is active. */
  62:.\Generated_Source\PSoC5/isr_keepalive.c ****     isr_keepalive_Disable();
  63:.\Generated_Source\PSoC5/isr_keepalive.c **** 
  64:.\Generated_Source\PSoC5/isr_keepalive.c ****     /* Set the ISR to point to the isr_keepalive Interrupt. */
  65:.\Generated_Source\PSoC5/isr_keepalive.c ****     isr_keepalive_SetVector(&isr_keepalive_Interrupt);
  66:.\Generated_Source\PSoC5/isr_keepalive.c **** 
  67:.\Generated_Source\PSoC5/isr_keepalive.c ****     /* Set the priority. */
  68:.\Generated_Source\PSoC5/isr_keepalive.c ****     isr_keepalive_SetPriority((uint8)isr_keepalive_INTC_PRIOR_NUMBER);
  69:.\Generated_Source\PSoC5/isr_keepalive.c **** 
  70:.\Generated_Source\PSoC5/isr_keepalive.c ****     /* Enable it. */
  71:.\Generated_Source\PSoC5/isr_keepalive.c ****     isr_keepalive_Enable();
  72:.\Generated_Source\PSoC5/isr_keepalive.c **** }
  73:.\Generated_Source\PSoC5/isr_keepalive.c **** 
  74:.\Generated_Source\PSoC5/isr_keepalive.c **** 
  75:.\Generated_Source\PSoC5/isr_keepalive.c **** /*******************************************************************************
  76:.\Generated_Source\PSoC5/isr_keepalive.c **** * Function Name: isr_keepalive_StartEx
  77:.\Generated_Source\PSoC5/isr_keepalive.c **** ********************************************************************************
  78:.\Generated_Source\PSoC5/isr_keepalive.c **** *
  79:.\Generated_Source\PSoC5/isr_keepalive.c **** * Summary:
  80:.\Generated_Source\PSoC5/isr_keepalive.c **** *  Sets up the interrupt and enables it. This function disables the interrupt,
  81:.\Generated_Source\PSoC5/isr_keepalive.c **** *  sets the interrupt vector based on the address passed in, sets the priority 
  82:.\Generated_Source\PSoC5/isr_keepalive.c **** *  from the value in the Design Wide Resources Interrupt Editor, then enables 
  83:.\Generated_Source\PSoC5/isr_keepalive.c **** *  the interrupt to the interrupt controller.
  84:.\Generated_Source\PSoC5/isr_keepalive.c **** *  
  85:.\Generated_Source\PSoC5/isr_keepalive.c **** *  When defining ISR functions, the CY_ISR and CY_ISR_PROTO macros should be 
  86:.\Generated_Source\PSoC5/isr_keepalive.c **** *  used to provide consistent definition across compilers:
  87:.\Generated_Source\PSoC5/isr_keepalive.c **** *  
  88:.\Generated_Source\PSoC5/isr_keepalive.c **** *  Function definition example:
ARM GAS  C:\Users\Yiquing\AppData\Local\Temp\cchFXnbu.s 			page 3


  89:.\Generated_Source\PSoC5/isr_keepalive.c **** *   CY_ISR(MyISR)
  90:.\Generated_Source\PSoC5/isr_keepalive.c **** *   {
  91:.\Generated_Source\PSoC5/isr_keepalive.c **** *   }
  92:.\Generated_Source\PSoC5/isr_keepalive.c **** *   Function prototype example:
  93:.\Generated_Source\PSoC5/isr_keepalive.c **** *   CY_ISR_PROTO(MyISR);
  94:.\Generated_Source\PSoC5/isr_keepalive.c **** *
  95:.\Generated_Source\PSoC5/isr_keepalive.c **** * Parameters:  
  96:.\Generated_Source\PSoC5/isr_keepalive.c **** *   address: Address of the ISR to set in the interrupt vector table.
  97:.\Generated_Source\PSoC5/isr_keepalive.c **** *
  98:.\Generated_Source\PSoC5/isr_keepalive.c **** * Return:
  99:.\Generated_Source\PSoC5/isr_keepalive.c **** *   None
 100:.\Generated_Source\PSoC5/isr_keepalive.c **** *
 101:.\Generated_Source\PSoC5/isr_keepalive.c **** *******************************************************************************/
 102:.\Generated_Source\PSoC5/isr_keepalive.c **** void isr_keepalive_StartEx(cyisraddress address)
 103:.\Generated_Source\PSoC5/isr_keepalive.c **** {
 104:.\Generated_Source\PSoC5/isr_keepalive.c ****     /* For all we know the interrupt is active. */
 105:.\Generated_Source\PSoC5/isr_keepalive.c ****     isr_keepalive_Disable();
 106:.\Generated_Source\PSoC5/isr_keepalive.c **** 
 107:.\Generated_Source\PSoC5/isr_keepalive.c ****     /* Set the ISR to point to the isr_keepalive Interrupt. */
 108:.\Generated_Source\PSoC5/isr_keepalive.c ****     isr_keepalive_SetVector(address);
 109:.\Generated_Source\PSoC5/isr_keepalive.c **** 
 110:.\Generated_Source\PSoC5/isr_keepalive.c ****     /* Set the priority. */
 111:.\Generated_Source\PSoC5/isr_keepalive.c ****     isr_keepalive_SetPriority((uint8)isr_keepalive_INTC_PRIOR_NUMBER);
 112:.\Generated_Source\PSoC5/isr_keepalive.c **** 
 113:.\Generated_Source\PSoC5/isr_keepalive.c ****     /* Enable it. */
 114:.\Generated_Source\PSoC5/isr_keepalive.c ****     isr_keepalive_Enable();
 115:.\Generated_Source\PSoC5/isr_keepalive.c **** }
 116:.\Generated_Source\PSoC5/isr_keepalive.c **** 
 117:.\Generated_Source\PSoC5/isr_keepalive.c **** 
 118:.\Generated_Source\PSoC5/isr_keepalive.c **** /*******************************************************************************
 119:.\Generated_Source\PSoC5/isr_keepalive.c **** * Function Name: isr_keepalive_Stop
 120:.\Generated_Source\PSoC5/isr_keepalive.c **** ********************************************************************************
 121:.\Generated_Source\PSoC5/isr_keepalive.c **** *
 122:.\Generated_Source\PSoC5/isr_keepalive.c **** * Summary:
 123:.\Generated_Source\PSoC5/isr_keepalive.c **** *   Disables and removes the interrupt.
 124:.\Generated_Source\PSoC5/isr_keepalive.c **** *
 125:.\Generated_Source\PSoC5/isr_keepalive.c **** * Parameters:  
 126:.\Generated_Source\PSoC5/isr_keepalive.c **** *   None
 127:.\Generated_Source\PSoC5/isr_keepalive.c **** *
 128:.\Generated_Source\PSoC5/isr_keepalive.c **** * Return:
 129:.\Generated_Source\PSoC5/isr_keepalive.c **** *   None
 130:.\Generated_Source\PSoC5/isr_keepalive.c **** *
 131:.\Generated_Source\PSoC5/isr_keepalive.c **** *******************************************************************************/
 132:.\Generated_Source\PSoC5/isr_keepalive.c **** void isr_keepalive_Stop(void)
 133:.\Generated_Source\PSoC5/isr_keepalive.c **** {
 134:.\Generated_Source\PSoC5/isr_keepalive.c ****     /* Disable this interrupt. */
 135:.\Generated_Source\PSoC5/isr_keepalive.c ****     isr_keepalive_Disable();
 136:.\Generated_Source\PSoC5/isr_keepalive.c **** 
 137:.\Generated_Source\PSoC5/isr_keepalive.c ****     /* Set the ISR to point to the passive one. */
 138:.\Generated_Source\PSoC5/isr_keepalive.c ****     isr_keepalive_SetVector(&IntDefaultHandler);
 139:.\Generated_Source\PSoC5/isr_keepalive.c **** }
 140:.\Generated_Source\PSoC5/isr_keepalive.c **** 
 141:.\Generated_Source\PSoC5/isr_keepalive.c **** 
 142:.\Generated_Source\PSoC5/isr_keepalive.c **** /*******************************************************************************
 143:.\Generated_Source\PSoC5/isr_keepalive.c **** * Function Name: isr_keepalive_Interrupt
 144:.\Generated_Source\PSoC5/isr_keepalive.c **** ********************************************************************************
 145:.\Generated_Source\PSoC5/isr_keepalive.c **** *
ARM GAS  C:\Users\Yiquing\AppData\Local\Temp\cchFXnbu.s 			page 4


 146:.\Generated_Source\PSoC5/isr_keepalive.c **** * Summary:
 147:.\Generated_Source\PSoC5/isr_keepalive.c **** *   The default Interrupt Service Routine for isr_keepalive.
 148:.\Generated_Source\PSoC5/isr_keepalive.c **** *
 149:.\Generated_Source\PSoC5/isr_keepalive.c **** *   Add custom code between the coments to keep the next version of this file
 150:.\Generated_Source\PSoC5/isr_keepalive.c **** *   from over writting your code.
 151:.\Generated_Source\PSoC5/isr_keepalive.c **** *
 152:.\Generated_Source\PSoC5/isr_keepalive.c **** * Parameters:  
 153:.\Generated_Source\PSoC5/isr_keepalive.c **** *
 154:.\Generated_Source\PSoC5/isr_keepalive.c **** * Return:
 155:.\Generated_Source\PSoC5/isr_keepalive.c **** *   None
 156:.\Generated_Source\PSoC5/isr_keepalive.c **** *
 157:.\Generated_Source\PSoC5/isr_keepalive.c **** *******************************************************************************/
 158:.\Generated_Source\PSoC5/isr_keepalive.c **** CY_ISR(isr_keepalive_Interrupt)
 159:.\Generated_Source\PSoC5/isr_keepalive.c **** {
  27              		.loc 1 159 0
  28              		.cfi_startproc
  29              		@ args = 0, pretend = 0, frame = 0
  30              		@ frame_needed = 0, uses_anonymous_args = 0
  31              		@ link register save eliminated.
  32 0000 7047     		bx	lr
  33              		.cfi_endproc
  34              	.LFE3:
  35              		.size	isr_keepalive_Interrupt, .-isr_keepalive_Interrupt
  36              		.section	.text.isr_keepalive_Start,"ax",%progbits
  37              		.align	1
  38              		.global	isr_keepalive_Start
  39              		.thumb
  40              		.thumb_func
  41              		.type	isr_keepalive_Start, %function
  42              	isr_keepalive_Start:
  43              	.LFB0:
  60:.\Generated_Source\PSoC5/isr_keepalive.c **** {
  44              		.loc 1 60 0
  45              		.cfi_startproc
  46              		@ args = 0, pretend = 0, frame = 0
  47              		@ frame_needed = 0, uses_anonymous_args = 0
  48              		@ link register save eliminated.
  49              	.LBB22:
  50              	.LBB23:
 160:.\Generated_Source\PSoC5/isr_keepalive.c ****     /*  Place your Interrupt code here. */
 161:.\Generated_Source\PSoC5/isr_keepalive.c ****     /* `#START isr_keepalive_Interrupt` */
 162:.\Generated_Source\PSoC5/isr_keepalive.c **** 
 163:.\Generated_Source\PSoC5/isr_keepalive.c ****     /* `#END` */
 164:.\Generated_Source\PSoC5/isr_keepalive.c **** }
 165:.\Generated_Source\PSoC5/isr_keepalive.c **** 
 166:.\Generated_Source\PSoC5/isr_keepalive.c **** 
 167:.\Generated_Source\PSoC5/isr_keepalive.c **** /*******************************************************************************
 168:.\Generated_Source\PSoC5/isr_keepalive.c **** * Function Name: isr_keepalive_SetVector
 169:.\Generated_Source\PSoC5/isr_keepalive.c **** ********************************************************************************
 170:.\Generated_Source\PSoC5/isr_keepalive.c **** *
 171:.\Generated_Source\PSoC5/isr_keepalive.c **** * Summary:
 172:.\Generated_Source\PSoC5/isr_keepalive.c **** *   Change the ISR vector for the Interrupt. Note calling isr_keepalive_Start
 173:.\Generated_Source\PSoC5/isr_keepalive.c **** *   will override any effect this method would have had. To set the vector 
 174:.\Generated_Source\PSoC5/isr_keepalive.c **** *   before the component has been started use isr_keepalive_StartEx instead.
 175:.\Generated_Source\PSoC5/isr_keepalive.c **** * 
 176:.\Generated_Source\PSoC5/isr_keepalive.c **** *   When defining ISR functions, the CY_ISR and CY_ISR_PROTO macros should be 
 177:.\Generated_Source\PSoC5/isr_keepalive.c **** *   used to provide consistent definition across compilers:
ARM GAS  C:\Users\Yiquing\AppData\Local\Temp\cchFXnbu.s 			page 5


 178:.\Generated_Source\PSoC5/isr_keepalive.c **** *
 179:.\Generated_Source\PSoC5/isr_keepalive.c **** *   Function definition example:
 180:.\Generated_Source\PSoC5/isr_keepalive.c **** *   CY_ISR(MyISR)
 181:.\Generated_Source\PSoC5/isr_keepalive.c **** *   {
 182:.\Generated_Source\PSoC5/isr_keepalive.c **** *   }
 183:.\Generated_Source\PSoC5/isr_keepalive.c **** *
 184:.\Generated_Source\PSoC5/isr_keepalive.c **** *   Function prototype example:
 185:.\Generated_Source\PSoC5/isr_keepalive.c **** *     CY_ISR_PROTO(MyISR);
 186:.\Generated_Source\PSoC5/isr_keepalive.c **** *
 187:.\Generated_Source\PSoC5/isr_keepalive.c **** * Parameters:
 188:.\Generated_Source\PSoC5/isr_keepalive.c **** *   address: Address of the ISR to set in the interrupt vector table.
 189:.\Generated_Source\PSoC5/isr_keepalive.c **** *
 190:.\Generated_Source\PSoC5/isr_keepalive.c **** * Return:
 191:.\Generated_Source\PSoC5/isr_keepalive.c **** *   None
 192:.\Generated_Source\PSoC5/isr_keepalive.c **** *
 193:.\Generated_Source\PSoC5/isr_keepalive.c **** *******************************************************************************/
 194:.\Generated_Source\PSoC5/isr_keepalive.c **** void isr_keepalive_SetVector(cyisraddress address)
 195:.\Generated_Source\PSoC5/isr_keepalive.c **** {
 196:.\Generated_Source\PSoC5/isr_keepalive.c ****     cyisraddress * ramVectorTable;
 197:.\Generated_Source\PSoC5/isr_keepalive.c **** 
 198:.\Generated_Source\PSoC5/isr_keepalive.c ****     ramVectorTable = (cyisraddress *) *CYINT_VECT_TABLE;
 199:.\Generated_Source\PSoC5/isr_keepalive.c **** 
 200:.\Generated_Source\PSoC5/isr_keepalive.c ****     ramVectorTable[CYINT_IRQ_BASE + (uint32)isr_keepalive__INTC_NUMBER] = address;
 201:.\Generated_Source\PSoC5/isr_keepalive.c **** }
 202:.\Generated_Source\PSoC5/isr_keepalive.c **** 
 203:.\Generated_Source\PSoC5/isr_keepalive.c **** 
 204:.\Generated_Source\PSoC5/isr_keepalive.c **** /*******************************************************************************
 205:.\Generated_Source\PSoC5/isr_keepalive.c **** * Function Name: isr_keepalive_GetVector
 206:.\Generated_Source\PSoC5/isr_keepalive.c **** ********************************************************************************
 207:.\Generated_Source\PSoC5/isr_keepalive.c **** *
 208:.\Generated_Source\PSoC5/isr_keepalive.c **** * Summary:
 209:.\Generated_Source\PSoC5/isr_keepalive.c **** *   Gets the "address" of the current ISR vector for the Interrupt.
 210:.\Generated_Source\PSoC5/isr_keepalive.c **** *
 211:.\Generated_Source\PSoC5/isr_keepalive.c **** * Parameters:
 212:.\Generated_Source\PSoC5/isr_keepalive.c **** *   None
 213:.\Generated_Source\PSoC5/isr_keepalive.c **** *
 214:.\Generated_Source\PSoC5/isr_keepalive.c **** * Return:
 215:.\Generated_Source\PSoC5/isr_keepalive.c **** *   Address of the ISR in the interrupt vector table.
 216:.\Generated_Source\PSoC5/isr_keepalive.c **** *
 217:.\Generated_Source\PSoC5/isr_keepalive.c **** *******************************************************************************/
 218:.\Generated_Source\PSoC5/isr_keepalive.c **** cyisraddress isr_keepalive_GetVector(void)
 219:.\Generated_Source\PSoC5/isr_keepalive.c **** {
 220:.\Generated_Source\PSoC5/isr_keepalive.c ****     cyisraddress * ramVectorTable;
 221:.\Generated_Source\PSoC5/isr_keepalive.c **** 
 222:.\Generated_Source\PSoC5/isr_keepalive.c ****     ramVectorTable = (cyisraddress *) *CYINT_VECT_TABLE;
 223:.\Generated_Source\PSoC5/isr_keepalive.c **** 
 224:.\Generated_Source\PSoC5/isr_keepalive.c ****     return ramVectorTable[CYINT_IRQ_BASE + (uint32)isr_keepalive__INTC_NUMBER];
 225:.\Generated_Source\PSoC5/isr_keepalive.c **** }
 226:.\Generated_Source\PSoC5/isr_keepalive.c **** 
 227:.\Generated_Source\PSoC5/isr_keepalive.c **** 
 228:.\Generated_Source\PSoC5/isr_keepalive.c **** /*******************************************************************************
 229:.\Generated_Source\PSoC5/isr_keepalive.c **** * Function Name: isr_keepalive_SetPriority
 230:.\Generated_Source\PSoC5/isr_keepalive.c **** ********************************************************************************
 231:.\Generated_Source\PSoC5/isr_keepalive.c **** *
 232:.\Generated_Source\PSoC5/isr_keepalive.c **** * Summary:
 233:.\Generated_Source\PSoC5/isr_keepalive.c **** *   Sets the Priority of the Interrupt. 
 234:.\Generated_Source\PSoC5/isr_keepalive.c **** *
ARM GAS  C:\Users\Yiquing\AppData\Local\Temp\cchFXnbu.s 			page 6


 235:.\Generated_Source\PSoC5/isr_keepalive.c **** *   Note calling isr_keepalive_Start or isr_keepalive_StartEx will 
 236:.\Generated_Source\PSoC5/isr_keepalive.c **** *   override any effect this API would have had. This API should only be called
 237:.\Generated_Source\PSoC5/isr_keepalive.c **** *   after isr_keepalive_Start or isr_keepalive_StartEx has been called. 
 238:.\Generated_Source\PSoC5/isr_keepalive.c **** *   To set the initial priority for the component, use the Design-Wide Resources
 239:.\Generated_Source\PSoC5/isr_keepalive.c **** *   Interrupt Editor.
 240:.\Generated_Source\PSoC5/isr_keepalive.c **** *
 241:.\Generated_Source\PSoC5/isr_keepalive.c **** *   Note This API has no effect on Non-maskable interrupt NMI).
 242:.\Generated_Source\PSoC5/isr_keepalive.c **** *
 243:.\Generated_Source\PSoC5/isr_keepalive.c **** * Parameters:
 244:.\Generated_Source\PSoC5/isr_keepalive.c **** *   priority: Priority of the interrupt, 0 being the highest priority
 245:.\Generated_Source\PSoC5/isr_keepalive.c **** *             PSoC 3 and PSoC 5LP: Priority is from 0 to 7.
 246:.\Generated_Source\PSoC5/isr_keepalive.c **** *             PSoC 4: Priority is from 0 to 3.
 247:.\Generated_Source\PSoC5/isr_keepalive.c **** *
 248:.\Generated_Source\PSoC5/isr_keepalive.c **** * Return:
 249:.\Generated_Source\PSoC5/isr_keepalive.c **** *   None
 250:.\Generated_Source\PSoC5/isr_keepalive.c **** *
 251:.\Generated_Source\PSoC5/isr_keepalive.c **** *******************************************************************************/
 252:.\Generated_Source\PSoC5/isr_keepalive.c **** void isr_keepalive_SetPriority(uint8 priority)
 253:.\Generated_Source\PSoC5/isr_keepalive.c **** {
 254:.\Generated_Source\PSoC5/isr_keepalive.c ****     *isr_keepalive_INTC_PRIOR = priority << 5;
 255:.\Generated_Source\PSoC5/isr_keepalive.c **** }
 256:.\Generated_Source\PSoC5/isr_keepalive.c **** 
 257:.\Generated_Source\PSoC5/isr_keepalive.c **** 
 258:.\Generated_Source\PSoC5/isr_keepalive.c **** /*******************************************************************************
 259:.\Generated_Source\PSoC5/isr_keepalive.c **** * Function Name: isr_keepalive_GetPriority
 260:.\Generated_Source\PSoC5/isr_keepalive.c **** ********************************************************************************
 261:.\Generated_Source\PSoC5/isr_keepalive.c **** *
 262:.\Generated_Source\PSoC5/isr_keepalive.c **** * Summary:
 263:.\Generated_Source\PSoC5/isr_keepalive.c **** *   Gets the Priority of the Interrupt.
 264:.\Generated_Source\PSoC5/isr_keepalive.c **** *
 265:.\Generated_Source\PSoC5/isr_keepalive.c **** * Parameters:
 266:.\Generated_Source\PSoC5/isr_keepalive.c **** *   None
 267:.\Generated_Source\PSoC5/isr_keepalive.c **** *
 268:.\Generated_Source\PSoC5/isr_keepalive.c **** * Return:
 269:.\Generated_Source\PSoC5/isr_keepalive.c **** *   Priority of the interrupt, 0 being the highest priority
 270:.\Generated_Source\PSoC5/isr_keepalive.c **** *    PSoC 3 and PSoC 5LP: Priority is from 0 to 7.
 271:.\Generated_Source\PSoC5/isr_keepalive.c **** *    PSoC 4: Priority is from 0 to 3.
 272:.\Generated_Source\PSoC5/isr_keepalive.c **** *
 273:.\Generated_Source\PSoC5/isr_keepalive.c **** *******************************************************************************/
 274:.\Generated_Source\PSoC5/isr_keepalive.c **** uint8 isr_keepalive_GetPriority(void)
 275:.\Generated_Source\PSoC5/isr_keepalive.c **** {
 276:.\Generated_Source\PSoC5/isr_keepalive.c ****     uint8 priority;
 277:.\Generated_Source\PSoC5/isr_keepalive.c **** 
 278:.\Generated_Source\PSoC5/isr_keepalive.c **** 
 279:.\Generated_Source\PSoC5/isr_keepalive.c ****     priority = *isr_keepalive_INTC_PRIOR >> 5;
 280:.\Generated_Source\PSoC5/isr_keepalive.c **** 
 281:.\Generated_Source\PSoC5/isr_keepalive.c ****     return priority;
 282:.\Generated_Source\PSoC5/isr_keepalive.c **** }
 283:.\Generated_Source\PSoC5/isr_keepalive.c **** 
 284:.\Generated_Source\PSoC5/isr_keepalive.c **** 
 285:.\Generated_Source\PSoC5/isr_keepalive.c **** /*******************************************************************************
 286:.\Generated_Source\PSoC5/isr_keepalive.c **** * Function Name: isr_keepalive_Enable
 287:.\Generated_Source\PSoC5/isr_keepalive.c **** ********************************************************************************
 288:.\Generated_Source\PSoC5/isr_keepalive.c **** *
 289:.\Generated_Source\PSoC5/isr_keepalive.c **** * Summary:
 290:.\Generated_Source\PSoC5/isr_keepalive.c **** *   Enables the interrupt to the interrupt controller. Do not call this function
 291:.\Generated_Source\PSoC5/isr_keepalive.c **** *   unless ISR_Start() has been called or the functionality of the ISR_Start() 
ARM GAS  C:\Users\Yiquing\AppData\Local\Temp\cchFXnbu.s 			page 7


 292:.\Generated_Source\PSoC5/isr_keepalive.c **** *   function, which sets the vector and the priority, has been called.
 293:.\Generated_Source\PSoC5/isr_keepalive.c **** *
 294:.\Generated_Source\PSoC5/isr_keepalive.c **** * Parameters:
 295:.\Generated_Source\PSoC5/isr_keepalive.c **** *   None
 296:.\Generated_Source\PSoC5/isr_keepalive.c **** *
 297:.\Generated_Source\PSoC5/isr_keepalive.c **** * Return:
 298:.\Generated_Source\PSoC5/isr_keepalive.c **** *   None
 299:.\Generated_Source\PSoC5/isr_keepalive.c **** *
 300:.\Generated_Source\PSoC5/isr_keepalive.c **** *******************************************************************************/
 301:.\Generated_Source\PSoC5/isr_keepalive.c **** void isr_keepalive_Enable(void)
 302:.\Generated_Source\PSoC5/isr_keepalive.c **** {
 303:.\Generated_Source\PSoC5/isr_keepalive.c ****     /* Enable the general interrupt. */
 304:.\Generated_Source\PSoC5/isr_keepalive.c ****     *isr_keepalive_INTC_SET_EN = isr_keepalive__INTC_MASK;
 305:.\Generated_Source\PSoC5/isr_keepalive.c **** }
 306:.\Generated_Source\PSoC5/isr_keepalive.c **** 
 307:.\Generated_Source\PSoC5/isr_keepalive.c **** 
 308:.\Generated_Source\PSoC5/isr_keepalive.c **** /*******************************************************************************
 309:.\Generated_Source\PSoC5/isr_keepalive.c **** * Function Name: isr_keepalive_GetState
 310:.\Generated_Source\PSoC5/isr_keepalive.c **** ********************************************************************************
 311:.\Generated_Source\PSoC5/isr_keepalive.c **** *
 312:.\Generated_Source\PSoC5/isr_keepalive.c **** * Summary:
 313:.\Generated_Source\PSoC5/isr_keepalive.c **** *   Gets the state (enabled, disabled) of the Interrupt.
 314:.\Generated_Source\PSoC5/isr_keepalive.c **** *
 315:.\Generated_Source\PSoC5/isr_keepalive.c **** * Parameters:
 316:.\Generated_Source\PSoC5/isr_keepalive.c **** *   None
 317:.\Generated_Source\PSoC5/isr_keepalive.c **** *
 318:.\Generated_Source\PSoC5/isr_keepalive.c **** * Return:
 319:.\Generated_Source\PSoC5/isr_keepalive.c **** *   1 if enabled, 0 if disabled.
 320:.\Generated_Source\PSoC5/isr_keepalive.c **** *
 321:.\Generated_Source\PSoC5/isr_keepalive.c **** *******************************************************************************/
 322:.\Generated_Source\PSoC5/isr_keepalive.c **** uint8 isr_keepalive_GetState(void)
 323:.\Generated_Source\PSoC5/isr_keepalive.c **** {
 324:.\Generated_Source\PSoC5/isr_keepalive.c ****     /* Get the state of the general interrupt. */
 325:.\Generated_Source\PSoC5/isr_keepalive.c ****     return ((*isr_keepalive_INTC_SET_EN & (uint32)isr_keepalive__INTC_MASK) != 0u) ? 1u:0u;
 326:.\Generated_Source\PSoC5/isr_keepalive.c **** }
 327:.\Generated_Source\PSoC5/isr_keepalive.c **** 
 328:.\Generated_Source\PSoC5/isr_keepalive.c **** 
 329:.\Generated_Source\PSoC5/isr_keepalive.c **** /*******************************************************************************
 330:.\Generated_Source\PSoC5/isr_keepalive.c **** * Function Name: isr_keepalive_Disable
 331:.\Generated_Source\PSoC5/isr_keepalive.c **** ********************************************************************************
 332:.\Generated_Source\PSoC5/isr_keepalive.c **** *
 333:.\Generated_Source\PSoC5/isr_keepalive.c **** * Summary:
 334:.\Generated_Source\PSoC5/isr_keepalive.c **** *   Disables the Interrupt in the interrupt controller.
 335:.\Generated_Source\PSoC5/isr_keepalive.c **** *
 336:.\Generated_Source\PSoC5/isr_keepalive.c **** * Parameters:
 337:.\Generated_Source\PSoC5/isr_keepalive.c **** *   None
 338:.\Generated_Source\PSoC5/isr_keepalive.c **** *
 339:.\Generated_Source\PSoC5/isr_keepalive.c **** * Return:
 340:.\Generated_Source\PSoC5/isr_keepalive.c **** *   None
 341:.\Generated_Source\PSoC5/isr_keepalive.c **** *
 342:.\Generated_Source\PSoC5/isr_keepalive.c **** *******************************************************************************/
 343:.\Generated_Source\PSoC5/isr_keepalive.c **** void isr_keepalive_Disable(void)
 344:.\Generated_Source\PSoC5/isr_keepalive.c **** {
 345:.\Generated_Source\PSoC5/isr_keepalive.c ****     /* Disable the general interrupt. */
 346:.\Generated_Source\PSoC5/isr_keepalive.c ****     *isr_keepalive_INTC_CLR_EN = isr_keepalive__INTC_MASK;
  51              		.loc 1 346 0
  52 0000 074A     		ldr	r2, .L3
ARM GAS  C:\Users\Yiquing\AppData\Local\Temp\cchFXnbu.s 			page 8


  53 0002 2023     		movs	r3, #32
  54 0004 1360     		str	r3, [r2]
  55              	.LVL0:
  56              	.LBE23:
  57              	.LBE22:
  58              	.LBB24:
  59              	.LBB25:
 198:.\Generated_Source\PSoC5/isr_keepalive.c ****     ramVectorTable = (cyisraddress *) *CYINT_VECT_TABLE;
  60              		.loc 1 198 0
  61 0006 02F68832 		addw	r2, r2, #2952
  62 000a 1268     		ldr	r2, [r2]
  63              	.LVL1:
 200:.\Generated_Source\PSoC5/isr_keepalive.c ****     ramVectorTable[CYINT_IRQ_BASE + (uint32)isr_keepalive__INTC_NUMBER] = address;
  64              		.loc 1 200 0
  65 000c 0549     		ldr	r1, .L3+4
  66 000e 5165     		str	r1, [r2, #84]
  67              	.LVL2:
  68              	.LBE25:
  69              	.LBE24:
  70              	.LBB26:
  71              	.LBB27:
 254:.\Generated_Source\PSoC5/isr_keepalive.c ****     *isr_keepalive_INTC_PRIOR = priority << 5;
  72              		.loc 1 254 0
  73 0010 054A     		ldr	r2, .L3+8
  74              	.LVL3:
  75 0012 E021     		movs	r1, #224
  76 0014 1170     		strb	r1, [r2]
  77              	.LBE27:
  78              	.LBE26:
  79              	.LBB28:
  80              	.LBB29:
 304:.\Generated_Source\PSoC5/isr_keepalive.c ****     *isr_keepalive_INTC_SET_EN = isr_keepalive__INTC_MASK;
  81              		.loc 1 304 0
  82 0016 6FF44171 		mvn	r1, #772
  83 001a 0A44     		add	r2, r2, r1
  84 001c 1360     		str	r3, [r2]
  85 001e 7047     		bx	lr
  86              	.L4:
  87              		.align	2
  88              	.L3:
  89 0020 80E100E0 		.word	-536813184
  90 0024 00000000 		.word	isr_keepalive_Interrupt
  91 0028 05E400E0 		.word	-536812539
  92              	.LBE29:
  93              	.LBE28:
  94              		.cfi_endproc
  95              	.LFE0:
  96              		.size	isr_keepalive_Start, .-isr_keepalive_Start
  97              		.section	.text.isr_keepalive_StartEx,"ax",%progbits
  98              		.align	1
  99              		.global	isr_keepalive_StartEx
 100              		.thumb
 101              		.thumb_func
 102              		.type	isr_keepalive_StartEx, %function
 103              	isr_keepalive_StartEx:
 104              	.LFB1:
 103:.\Generated_Source\PSoC5/isr_keepalive.c **** {
ARM GAS  C:\Users\Yiquing\AppData\Local\Temp\cchFXnbu.s 			page 9


 105              		.loc 1 103 0
 106              		.cfi_startproc
 107              		@ args = 0, pretend = 0, frame = 0
 108              		@ frame_needed = 0, uses_anonymous_args = 0
 109              		@ link register save eliminated.
 110              	.LVL4:
 111              	.LBB30:
 112              	.LBB31:
 113              		.loc 1 346 0
 114 0000 074A     		ldr	r2, .L6
 115 0002 2023     		movs	r3, #32
 116 0004 1360     		str	r3, [r2]
 117              	.LVL5:
 118              	.LBE31:
 119              	.LBE30:
 120              	.LBB32:
 121              	.LBB33:
 198:.\Generated_Source\PSoC5/isr_keepalive.c ****     ramVectorTable = (cyisraddress *) *CYINT_VECT_TABLE;
 122              		.loc 1 198 0
 123 0006 02F68832 		addw	r2, r2, #2952
 124 000a 1268     		ldr	r2, [r2]
 125              	.LVL6:
 126              	.LBE33:
 127              	.LBE32:
 128              	.LBB35:
 129              	.LBB36:
 254:.\Generated_Source\PSoC5/isr_keepalive.c ****     *isr_keepalive_INTC_PRIOR = priority << 5;
 130              		.loc 1 254 0
 131 000c E021     		movs	r1, #224
 132              	.LBE36:
 133              	.LBE35:
 134              	.LBB38:
 135              	.LBB34:
 200:.\Generated_Source\PSoC5/isr_keepalive.c ****     ramVectorTable[CYINT_IRQ_BASE + (uint32)isr_keepalive__INTC_NUMBER] = address;
 136              		.loc 1 200 0
 137 000e 5065     		str	r0, [r2, #84]
 138              	.LVL7:
 139              	.LBE34:
 140              	.LBE38:
 141              	.LBB39:
 142              	.LBB37:
 254:.\Generated_Source\PSoC5/isr_keepalive.c ****     *isr_keepalive_INTC_PRIOR = priority << 5;
 143              		.loc 1 254 0
 144 0010 044A     		ldr	r2, .L6+4
 145              	.LVL8:
 146 0012 1170     		strb	r1, [r2]
 147              	.LBE37:
 148              	.LBE39:
 149              	.LBB40:
 150              	.LBB41:
 304:.\Generated_Source\PSoC5/isr_keepalive.c ****     *isr_keepalive_INTC_SET_EN = isr_keepalive__INTC_MASK;
 151              		.loc 1 304 0
 152 0014 6FF44171 		mvn	r1, #772
 153 0018 0A44     		add	r2, r2, r1
 154 001a 1360     		str	r3, [r2]
 155 001c 7047     		bx	lr
 156              	.L7:
ARM GAS  C:\Users\Yiquing\AppData\Local\Temp\cchFXnbu.s 			page 10


 157 001e 00BF     		.align	2
 158              	.L6:
 159 0020 80E100E0 		.word	-536813184
 160 0024 05E400E0 		.word	-536812539
 161              	.LBE41:
 162              	.LBE40:
 163              		.cfi_endproc
 164              	.LFE1:
 165              		.size	isr_keepalive_StartEx, .-isr_keepalive_StartEx
 166              		.section	.text.isr_keepalive_Stop,"ax",%progbits
 167              		.align	1
 168              		.global	isr_keepalive_Stop
 169              		.thumb
 170              		.thumb_func
 171              		.type	isr_keepalive_Stop, %function
 172              	isr_keepalive_Stop:
 173              	.LFB2:
 133:.\Generated_Source\PSoC5/isr_keepalive.c **** {
 174              		.loc 1 133 0
 175              		.cfi_startproc
 176              		@ args = 0, pretend = 0, frame = 0
 177              		@ frame_needed = 0, uses_anonymous_args = 0
 178              		@ link register save eliminated.
 179              	.LBB42:
 180              	.LBB43:
 181              		.loc 1 346 0
 182 0000 044B     		ldr	r3, .L9
 183 0002 2022     		movs	r2, #32
 184 0004 1A60     		str	r2, [r3]
 185              	.LVL9:
 186              	.LBE43:
 187              	.LBE42:
 188              	.LBB44:
 189              	.LBB45:
 198:.\Generated_Source\PSoC5/isr_keepalive.c ****     ramVectorTable = (cyisraddress *) *CYINT_VECT_TABLE;
 190              		.loc 1 198 0
 191 0006 03F68833 		addw	r3, r3, #2952
 192 000a 1B68     		ldr	r3, [r3]
 193              	.LVL10:
 200:.\Generated_Source\PSoC5/isr_keepalive.c ****     ramVectorTable[CYINT_IRQ_BASE + (uint32)isr_keepalive__INTC_NUMBER] = address;
 194              		.loc 1 200 0
 195 000c 024A     		ldr	r2, .L9+4
 196 000e 5A65     		str	r2, [r3, #84]
 197 0010 7047     		bx	lr
 198              	.L10:
 199 0012 00BF     		.align	2
 200              	.L9:
 201 0014 80E100E0 		.word	-536813184
 202 0018 00000000 		.word	IntDefaultHandler
 203              	.LBE45:
 204              	.LBE44:
 205              		.cfi_endproc
 206              	.LFE2:
 207              		.size	isr_keepalive_Stop, .-isr_keepalive_Stop
 208              		.section	.text.isr_keepalive_SetVector,"ax",%progbits
 209              		.align	1
 210              		.global	isr_keepalive_SetVector
ARM GAS  C:\Users\Yiquing\AppData\Local\Temp\cchFXnbu.s 			page 11


 211              		.thumb
 212              		.thumb_func
 213              		.type	isr_keepalive_SetVector, %function
 214              	isr_keepalive_SetVector:
 215              	.LFB4:
 195:.\Generated_Source\PSoC5/isr_keepalive.c **** {
 216              		.loc 1 195 0
 217              		.cfi_startproc
 218              		@ args = 0, pretend = 0, frame = 0
 219              		@ frame_needed = 0, uses_anonymous_args = 0
 220              		@ link register save eliminated.
 221              	.LVL11:
 198:.\Generated_Source\PSoC5/isr_keepalive.c ****     ramVectorTable = (cyisraddress *) *CYINT_VECT_TABLE;
 222              		.loc 1 198 0
 223 0000 014B     		ldr	r3, .L12
 224 0002 1B68     		ldr	r3, [r3]
 225              	.LVL12:
 200:.\Generated_Source\PSoC5/isr_keepalive.c ****     ramVectorTable[CYINT_IRQ_BASE + (uint32)isr_keepalive__INTC_NUMBER] = address;
 226              		.loc 1 200 0
 227 0004 5865     		str	r0, [r3, #84]
 228 0006 7047     		bx	lr
 229              	.L13:
 230              		.align	2
 231              	.L12:
 232 0008 08ED00E0 		.word	-536810232
 233              		.cfi_endproc
 234              	.LFE4:
 235              		.size	isr_keepalive_SetVector, .-isr_keepalive_SetVector
 236              		.section	.text.isr_keepalive_GetVector,"ax",%progbits
 237              		.align	1
 238              		.global	isr_keepalive_GetVector
 239              		.thumb
 240              		.thumb_func
 241              		.type	isr_keepalive_GetVector, %function
 242              	isr_keepalive_GetVector:
 243              	.LFB5:
 219:.\Generated_Source\PSoC5/isr_keepalive.c **** {
 244              		.loc 1 219 0
 245              		.cfi_startproc
 246              		@ args = 0, pretend = 0, frame = 0
 247              		@ frame_needed = 0, uses_anonymous_args = 0
 248              		@ link register save eliminated.
 249              	.LVL13:
 222:.\Generated_Source\PSoC5/isr_keepalive.c ****     ramVectorTable = (cyisraddress *) *CYINT_VECT_TABLE;
 250              		.loc 1 222 0
 251 0000 014B     		ldr	r3, .L15
 252              	.LVL14:
 224:.\Generated_Source\PSoC5/isr_keepalive.c ****     return ramVectorTable[CYINT_IRQ_BASE + (uint32)isr_keepalive__INTC_NUMBER];
 253              		.loc 1 224 0
 254 0002 1B68     		ldr	r3, [r3]
 255              	.LVL15:
 225:.\Generated_Source\PSoC5/isr_keepalive.c **** }
 256              		.loc 1 225 0
 257 0004 586D     		ldr	r0, [r3, #84]
 258 0006 7047     		bx	lr
 259              	.L16:
 260              		.align	2
ARM GAS  C:\Users\Yiquing\AppData\Local\Temp\cchFXnbu.s 			page 12


 261              	.L15:
 262 0008 08ED00E0 		.word	-536810232
 263              		.cfi_endproc
 264              	.LFE5:
 265              		.size	isr_keepalive_GetVector, .-isr_keepalive_GetVector
 266              		.section	.text.isr_keepalive_SetPriority,"ax",%progbits
 267              		.align	1
 268              		.global	isr_keepalive_SetPriority
 269              		.thumb
 270              		.thumb_func
 271              		.type	isr_keepalive_SetPriority, %function
 272              	isr_keepalive_SetPriority:
 273              	.LFB6:
 253:.\Generated_Source\PSoC5/isr_keepalive.c **** {
 274              		.loc 1 253 0
 275              		.cfi_startproc
 276              		@ args = 0, pretend = 0, frame = 0
 277              		@ frame_needed = 0, uses_anonymous_args = 0
 278              		@ link register save eliminated.
 279              	.LVL16:
 254:.\Generated_Source\PSoC5/isr_keepalive.c ****     *isr_keepalive_INTC_PRIOR = priority << 5;
 280              		.loc 1 254 0
 281 0000 4001     		lsls	r0, r0, #5
 282              	.LVL17:
 283 0002 024B     		ldr	r3, .L18
 284 0004 C0B2     		uxtb	r0, r0
 285 0006 1870     		strb	r0, [r3]
 286 0008 7047     		bx	lr
 287              	.L19:
 288 000a 00BF     		.align	2
 289              	.L18:
 290 000c 05E400E0 		.word	-536812539
 291              		.cfi_endproc
 292              	.LFE6:
 293              		.size	isr_keepalive_SetPriority, .-isr_keepalive_SetPriority
 294              		.section	.text.isr_keepalive_GetPriority,"ax",%progbits
 295              		.align	1
 296              		.global	isr_keepalive_GetPriority
 297              		.thumb
 298              		.thumb_func
 299              		.type	isr_keepalive_GetPriority, %function
 300              	isr_keepalive_GetPriority:
 301              	.LFB7:
 275:.\Generated_Source\PSoC5/isr_keepalive.c **** {
 302              		.loc 1 275 0
 303              		.cfi_startproc
 304              		@ args = 0, pretend = 0, frame = 0
 305              		@ frame_needed = 0, uses_anonymous_args = 0
 306              		@ link register save eliminated.
 279:.\Generated_Source\PSoC5/isr_keepalive.c ****     priority = *isr_keepalive_INTC_PRIOR >> 5;
 307              		.loc 1 279 0
 308 0000 014B     		ldr	r3, .L21
 309 0002 1878     		ldrb	r0, [r3]	@ zero_extendqisi2
 310              	.LVL18:
 282:.\Generated_Source\PSoC5/isr_keepalive.c **** }
 311              		.loc 1 282 0
 312 0004 4009     		lsrs	r0, r0, #5
ARM GAS  C:\Users\Yiquing\AppData\Local\Temp\cchFXnbu.s 			page 13


 313              	.LVL19:
 314 0006 7047     		bx	lr
 315              	.L22:
 316              		.align	2
 317              	.L21:
 318 0008 05E400E0 		.word	-536812539
 319              		.cfi_endproc
 320              	.LFE7:
 321              		.size	isr_keepalive_GetPriority, .-isr_keepalive_GetPriority
 322              		.section	.text.isr_keepalive_Enable,"ax",%progbits
 323              		.align	1
 324              		.global	isr_keepalive_Enable
 325              		.thumb
 326              		.thumb_func
 327              		.type	isr_keepalive_Enable, %function
 328              	isr_keepalive_Enable:
 329              	.LFB8:
 302:.\Generated_Source\PSoC5/isr_keepalive.c **** {
 330              		.loc 1 302 0
 331              		.cfi_startproc
 332              		@ args = 0, pretend = 0, frame = 0
 333              		@ frame_needed = 0, uses_anonymous_args = 0
 334              		@ link register save eliminated.
 304:.\Generated_Source\PSoC5/isr_keepalive.c ****     *isr_keepalive_INTC_SET_EN = isr_keepalive__INTC_MASK;
 335              		.loc 1 304 0
 336 0000 014B     		ldr	r3, .L24
 337 0002 2022     		movs	r2, #32
 338 0004 1A60     		str	r2, [r3]
 339 0006 7047     		bx	lr
 340              	.L25:
 341              		.align	2
 342              	.L24:
 343 0008 00E100E0 		.word	-536813312
 344              		.cfi_endproc
 345              	.LFE8:
 346              		.size	isr_keepalive_Enable, .-isr_keepalive_Enable
 347              		.section	.text.isr_keepalive_GetState,"ax",%progbits
 348              		.align	1
 349              		.global	isr_keepalive_GetState
 350              		.thumb
 351              		.thumb_func
 352              		.type	isr_keepalive_GetState, %function
 353              	isr_keepalive_GetState:
 354              	.LFB9:
 323:.\Generated_Source\PSoC5/isr_keepalive.c **** {
 355              		.loc 1 323 0
 356              		.cfi_startproc
 357              		@ args = 0, pretend = 0, frame = 0
 358              		@ frame_needed = 0, uses_anonymous_args = 0
 359              		@ link register save eliminated.
 325:.\Generated_Source\PSoC5/isr_keepalive.c ****     return ((*isr_keepalive_INTC_SET_EN & (uint32)isr_keepalive__INTC_MASK) != 0u) ? 1u:0u;
 360              		.loc 1 325 0
 361 0000 024B     		ldr	r3, .L27
 362 0002 1868     		ldr	r0, [r3]
 326:.\Generated_Source\PSoC5/isr_keepalive.c **** }
 363              		.loc 1 326 0
 364 0004 C0F34010 		ubfx	r0, r0, #5, #1
ARM GAS  C:\Users\Yiquing\AppData\Local\Temp\cchFXnbu.s 			page 14


 365 0008 7047     		bx	lr
 366              	.L28:
 367 000a 00BF     		.align	2
 368              	.L27:
 369 000c 00E100E0 		.word	-536813312
 370              		.cfi_endproc
 371              	.LFE9:
 372              		.size	isr_keepalive_GetState, .-isr_keepalive_GetState
 373              		.section	.text.isr_keepalive_Disable,"ax",%progbits
 374              		.align	1
 375              		.global	isr_keepalive_Disable
 376              		.thumb
 377              		.thumb_func
 378              		.type	isr_keepalive_Disable, %function
 379              	isr_keepalive_Disable:
 380              	.LFB10:
 344:.\Generated_Source\PSoC5/isr_keepalive.c **** {
 381              		.loc 1 344 0
 382              		.cfi_startproc
 383              		@ args = 0, pretend = 0, frame = 0
 384              		@ frame_needed = 0, uses_anonymous_args = 0
 385              		@ link register save eliminated.
 386              		.loc 1 346 0
 387 0000 014B     		ldr	r3, .L30
 388 0002 2022     		movs	r2, #32
 389 0004 1A60     		str	r2, [r3]
 390 0006 7047     		bx	lr
 391              	.L31:
 392              		.align	2
 393              	.L30:
 394 0008 80E100E0 		.word	-536813184
 395              		.cfi_endproc
 396              	.LFE10:
 397              		.size	isr_keepalive_Disable, .-isr_keepalive_Disable
 398              		.section	.text.isr_keepalive_SetPending,"ax",%progbits
 399              		.align	1
 400              		.global	isr_keepalive_SetPending
 401              		.thumb
 402              		.thumb_func
 403              		.type	isr_keepalive_SetPending, %function
 404              	isr_keepalive_SetPending:
 405              	.LFB11:
 347:.\Generated_Source\PSoC5/isr_keepalive.c **** }
 348:.\Generated_Source\PSoC5/isr_keepalive.c **** 
 349:.\Generated_Source\PSoC5/isr_keepalive.c **** 
 350:.\Generated_Source\PSoC5/isr_keepalive.c **** /*******************************************************************************
 351:.\Generated_Source\PSoC5/isr_keepalive.c **** * Function Name: isr_keepalive_SetPending
 352:.\Generated_Source\PSoC5/isr_keepalive.c **** ********************************************************************************
 353:.\Generated_Source\PSoC5/isr_keepalive.c **** *
 354:.\Generated_Source\PSoC5/isr_keepalive.c **** * Summary:
 355:.\Generated_Source\PSoC5/isr_keepalive.c **** *   Causes the Interrupt to enter the pending state, a software method of
 356:.\Generated_Source\PSoC5/isr_keepalive.c **** *   generating the interrupt.
 357:.\Generated_Source\PSoC5/isr_keepalive.c **** *
 358:.\Generated_Source\PSoC5/isr_keepalive.c **** * Parameters:
 359:.\Generated_Source\PSoC5/isr_keepalive.c **** *   None
 360:.\Generated_Source\PSoC5/isr_keepalive.c **** *
 361:.\Generated_Source\PSoC5/isr_keepalive.c **** * Return:
ARM GAS  C:\Users\Yiquing\AppData\Local\Temp\cchFXnbu.s 			page 15


 362:.\Generated_Source\PSoC5/isr_keepalive.c **** *   None
 363:.\Generated_Source\PSoC5/isr_keepalive.c **** *
 364:.\Generated_Source\PSoC5/isr_keepalive.c **** * Side Effects:
 365:.\Generated_Source\PSoC5/isr_keepalive.c **** *   If interrupts are enabled and the interrupt is set up properly, the ISR is
 366:.\Generated_Source\PSoC5/isr_keepalive.c **** *   entered (depending on the priority of this interrupt and other pending 
 367:.\Generated_Source\PSoC5/isr_keepalive.c **** *   interrupts).
 368:.\Generated_Source\PSoC5/isr_keepalive.c **** *
 369:.\Generated_Source\PSoC5/isr_keepalive.c **** *******************************************************************************/
 370:.\Generated_Source\PSoC5/isr_keepalive.c **** void isr_keepalive_SetPending(void)
 371:.\Generated_Source\PSoC5/isr_keepalive.c **** {
 406              		.loc 1 371 0
 407              		.cfi_startproc
 408              		@ args = 0, pretend = 0, frame = 0
 409              		@ frame_needed = 0, uses_anonymous_args = 0
 410              		@ link register save eliminated.
 372:.\Generated_Source\PSoC5/isr_keepalive.c ****     *isr_keepalive_INTC_SET_PD = isr_keepalive__INTC_MASK;
 411              		.loc 1 372 0
 412 0000 014B     		ldr	r3, .L33
 413 0002 2022     		movs	r2, #32
 414 0004 1A60     		str	r2, [r3]
 415 0006 7047     		bx	lr
 416              	.L34:
 417              		.align	2
 418              	.L33:
 419 0008 00E200E0 		.word	-536813056
 420              		.cfi_endproc
 421              	.LFE11:
 422              		.size	isr_keepalive_SetPending, .-isr_keepalive_SetPending
 423              		.section	.text.isr_keepalive_ClearPending,"ax",%progbits
 424              		.align	1
 425              		.global	isr_keepalive_ClearPending
 426              		.thumb
 427              		.thumb_func
 428              		.type	isr_keepalive_ClearPending, %function
 429              	isr_keepalive_ClearPending:
 430              	.LFB12:
 373:.\Generated_Source\PSoC5/isr_keepalive.c **** }
 374:.\Generated_Source\PSoC5/isr_keepalive.c **** 
 375:.\Generated_Source\PSoC5/isr_keepalive.c **** 
 376:.\Generated_Source\PSoC5/isr_keepalive.c **** /*******************************************************************************
 377:.\Generated_Source\PSoC5/isr_keepalive.c **** * Function Name: isr_keepalive_ClearPending
 378:.\Generated_Source\PSoC5/isr_keepalive.c **** ********************************************************************************
 379:.\Generated_Source\PSoC5/isr_keepalive.c **** *
 380:.\Generated_Source\PSoC5/isr_keepalive.c **** * Summary:
 381:.\Generated_Source\PSoC5/isr_keepalive.c **** *   Clears a pending interrupt in the interrupt controller.
 382:.\Generated_Source\PSoC5/isr_keepalive.c **** *
 383:.\Generated_Source\PSoC5/isr_keepalive.c **** *   Note Some interrupt sources are clear-on-read and require the block 
 384:.\Generated_Source\PSoC5/isr_keepalive.c **** *   interrupt/status register to be read/cleared with the appropriate block API 
 385:.\Generated_Source\PSoC5/isr_keepalive.c **** *   (GPIO, UART, and so on). Otherwise the ISR will continue to remain in 
 386:.\Generated_Source\PSoC5/isr_keepalive.c **** *   pending state even though the interrupt itself is cleared using this API.
 387:.\Generated_Source\PSoC5/isr_keepalive.c **** *
 388:.\Generated_Source\PSoC5/isr_keepalive.c **** * Parameters:
 389:.\Generated_Source\PSoC5/isr_keepalive.c **** *   None
 390:.\Generated_Source\PSoC5/isr_keepalive.c **** *
 391:.\Generated_Source\PSoC5/isr_keepalive.c **** * Return:
 392:.\Generated_Source\PSoC5/isr_keepalive.c **** *   None
 393:.\Generated_Source\PSoC5/isr_keepalive.c **** *
ARM GAS  C:\Users\Yiquing\AppData\Local\Temp\cchFXnbu.s 			page 16


 394:.\Generated_Source\PSoC5/isr_keepalive.c **** *******************************************************************************/
 395:.\Generated_Source\PSoC5/isr_keepalive.c **** void isr_keepalive_ClearPending(void)
 396:.\Generated_Source\PSoC5/isr_keepalive.c **** {
 431              		.loc 1 396 0
 432              		.cfi_startproc
 433              		@ args = 0, pretend = 0, frame = 0
 434              		@ frame_needed = 0, uses_anonymous_args = 0
 435              		@ link register save eliminated.
 397:.\Generated_Source\PSoC5/isr_keepalive.c ****     *isr_keepalive_INTC_CLR_PD = isr_keepalive__INTC_MASK;
 436              		.loc 1 397 0
 437 0000 014B     		ldr	r3, .L36
 438 0002 2022     		movs	r2, #32
 439 0004 1A60     		str	r2, [r3]
 440 0006 7047     		bx	lr
 441              	.L37:
 442              		.align	2
 443              	.L36:
 444 0008 80E200E0 		.word	-536812928
 445              		.cfi_endproc
 446              	.LFE12:
 447              		.size	isr_keepalive_ClearPending, .-isr_keepalive_ClearPending
 448              		.text
 449              	.Letext0:
 450              		.file 2 "Generated_Source\\PSoC5/cytypes.h"