ARM GAS  C:\Users\Yiquing\AppData\Local\Temp\ccLOi9NU.s 			page 1


   1              		.syntax unified
   2              		.cpu cortex-m3
   3              		.fpu softvfp
   4              		.eabi_attribute 20, 1
   5              		.eabi_attribute 21, 1
   6              		.eabi_attribute 23, 3
   7              		.eabi_attribute 24, 1
   8              		.eabi_attribute 25, 1
   9              		.eabi_attribute 26, 1
  10              		.eabi_attribute 30, 4
  11              		.eabi_attribute 34, 1
  12              		.eabi_attribute 18, 4
  13              		.thumb
  14              		.file	"OSDPReaderTimer_PM.c"
  15              		.text
  16              	.Ltext0:
  17              		.cfi_sections	.debug_frame
  18              		.section	.text.OSDPReaderTimer_SaveConfig,"ax",%progbits
  19              		.align	1
  20              		.global	OSDPReaderTimer_SaveConfig
  21              		.thumb
  22              		.thumb_func
  23              		.type	OSDPReaderTimer_SaveConfig, %function
  24              	OSDPReaderTimer_SaveConfig:
  25              	.LFB0:
  26              		.file 1 ".\\Generated_Source\\PSoC5\\OSDPReaderTimer_PM.c"
   1:.\Generated_Source\PSoC5/OSDPReaderTimer_PM.c **** /*******************************************************************************
   2:.\Generated_Source\PSoC5/OSDPReaderTimer_PM.c **** * File Name: OSDPReaderTimer_PM.c
   3:.\Generated_Source\PSoC5/OSDPReaderTimer_PM.c **** * Version 2.70
   4:.\Generated_Source\PSoC5/OSDPReaderTimer_PM.c **** *
   5:.\Generated_Source\PSoC5/OSDPReaderTimer_PM.c **** *  Description:
   6:.\Generated_Source\PSoC5/OSDPReaderTimer_PM.c **** *     This file provides the power management source code to API for the
   7:.\Generated_Source\PSoC5/OSDPReaderTimer_PM.c **** *     Timer.
   8:.\Generated_Source\PSoC5/OSDPReaderTimer_PM.c **** *
   9:.\Generated_Source\PSoC5/OSDPReaderTimer_PM.c **** *   Note:
  10:.\Generated_Source\PSoC5/OSDPReaderTimer_PM.c **** *     None
  11:.\Generated_Source\PSoC5/OSDPReaderTimer_PM.c **** *
  12:.\Generated_Source\PSoC5/OSDPReaderTimer_PM.c **** *******************************************************************************
  13:.\Generated_Source\PSoC5/OSDPReaderTimer_PM.c **** * Copyright 2008-2014, Cypress Semiconductor Corporation.  All rights reserved.
  14:.\Generated_Source\PSoC5/OSDPReaderTimer_PM.c **** * You may use this file only in accordance with the license, terms, conditions,
  15:.\Generated_Source\PSoC5/OSDPReaderTimer_PM.c **** * disclaimers, and limitations in the end user license agreement accompanying
  16:.\Generated_Source\PSoC5/OSDPReaderTimer_PM.c **** * the software package with which this file was provided.
  17:.\Generated_Source\PSoC5/OSDPReaderTimer_PM.c **** ********************************************************************************/
  18:.\Generated_Source\PSoC5/OSDPReaderTimer_PM.c **** 
  19:.\Generated_Source\PSoC5/OSDPReaderTimer_PM.c **** #include "OSDPReaderTimer.h"
  20:.\Generated_Source\PSoC5/OSDPReaderTimer_PM.c **** 
  21:.\Generated_Source\PSoC5/OSDPReaderTimer_PM.c **** static OSDPReaderTimer_backupStruct OSDPReaderTimer_backup;
  22:.\Generated_Source\PSoC5/OSDPReaderTimer_PM.c **** 
  23:.\Generated_Source\PSoC5/OSDPReaderTimer_PM.c **** 
  24:.\Generated_Source\PSoC5/OSDPReaderTimer_PM.c **** /*******************************************************************************
  25:.\Generated_Source\PSoC5/OSDPReaderTimer_PM.c **** * Function Name: OSDPReaderTimer_SaveConfig
  26:.\Generated_Source\PSoC5/OSDPReaderTimer_PM.c **** ********************************************************************************
  27:.\Generated_Source\PSoC5/OSDPReaderTimer_PM.c **** *
  28:.\Generated_Source\PSoC5/OSDPReaderTimer_PM.c **** * Summary:
  29:.\Generated_Source\PSoC5/OSDPReaderTimer_PM.c **** *     Save the current user configuration
  30:.\Generated_Source\PSoC5/OSDPReaderTimer_PM.c **** *
  31:.\Generated_Source\PSoC5/OSDPReaderTimer_PM.c **** * Parameters:
ARM GAS  C:\Users\Yiquing\AppData\Local\Temp\ccLOi9NU.s 			page 2


  32:.\Generated_Source\PSoC5/OSDPReaderTimer_PM.c **** *  void
  33:.\Generated_Source\PSoC5/OSDPReaderTimer_PM.c **** *
  34:.\Generated_Source\PSoC5/OSDPReaderTimer_PM.c **** * Return:
  35:.\Generated_Source\PSoC5/OSDPReaderTimer_PM.c **** *  void
  36:.\Generated_Source\PSoC5/OSDPReaderTimer_PM.c **** *
  37:.\Generated_Source\PSoC5/OSDPReaderTimer_PM.c **** * Global variables:
  38:.\Generated_Source\PSoC5/OSDPReaderTimer_PM.c **** *  OSDPReaderTimer_backup:  Variables of this global structure are modified to
  39:.\Generated_Source\PSoC5/OSDPReaderTimer_PM.c **** *  store the values of non retention configuration registers when Sleep() API is
  40:.\Generated_Source\PSoC5/OSDPReaderTimer_PM.c **** *  called.
  41:.\Generated_Source\PSoC5/OSDPReaderTimer_PM.c **** *
  42:.\Generated_Source\PSoC5/OSDPReaderTimer_PM.c **** *******************************************************************************/
  43:.\Generated_Source\PSoC5/OSDPReaderTimer_PM.c **** void OSDPReaderTimer_SaveConfig(void) 
  44:.\Generated_Source\PSoC5/OSDPReaderTimer_PM.c **** {
  27              		.loc 1 44 0
  28              		.cfi_startproc
  29              		@ args = 0, pretend = 0, frame = 0
  30              		@ frame_needed = 0, uses_anonymous_args = 0
  31 0000 10B5     		push	{r4, lr}
  32              		.cfi_def_cfa_offset 8
  33              		.cfi_offset 4, -8
  34              		.cfi_offset 14, -4
  45:.\Generated_Source\PSoC5/OSDPReaderTimer_PM.c ****     #if (!OSDPReaderTimer_UsingFixedFunction)
  46:.\Generated_Source\PSoC5/OSDPReaderTimer_PM.c ****         OSDPReaderTimer_backup.TimerUdb = OSDPReaderTimer_ReadCounter();
  35              		.loc 1 46 0
  36 0002 FFF7FEFF 		bl	OSDPReaderTimer_ReadCounter
  37              	.LVL0:
  38 0006 044C     		ldr	r4, .L2
  47:.\Generated_Source\PSoC5/OSDPReaderTimer_PM.c ****         OSDPReaderTimer_backup.InterruptMaskValue = OSDPReaderTimer_STATUS_MASK;
  39              		.loc 1 47 0
  40 0008 044B     		ldr	r3, .L2+4
  46:.\Generated_Source\PSoC5/OSDPReaderTimer_PM.c ****         OSDPReaderTimer_backup.TimerUdb = OSDPReaderTimer_ReadCounter();
  41              		.loc 1 46 0
  42 000a 6080     		strh	r0, [r4, #2]	@ movhi
  43              		.loc 1 47 0
  44 000c 1B78     		ldrb	r3, [r3]	@ zero_extendqisi2
  45 000e 2371     		strb	r3, [r4, #4]
  48:.\Generated_Source\PSoC5/OSDPReaderTimer_PM.c ****         #if (OSDPReaderTimer_UsingHWCaptureCounter)
  49:.\Generated_Source\PSoC5/OSDPReaderTimer_PM.c ****             OSDPReaderTimer_backup.TimerCaptureCounter = OSDPReaderTimer_ReadCaptureCount();
  50:.\Generated_Source\PSoC5/OSDPReaderTimer_PM.c ****         #endif /* Back Up capture counter register  */
  51:.\Generated_Source\PSoC5/OSDPReaderTimer_PM.c **** 
  52:.\Generated_Source\PSoC5/OSDPReaderTimer_PM.c ****         #if(!OSDPReaderTimer_UDB_CONTROL_REG_REMOVED)
  53:.\Generated_Source\PSoC5/OSDPReaderTimer_PM.c ****             OSDPReaderTimer_backup.TimerControlRegister = OSDPReaderTimer_ReadControlRegister();
  46              		.loc 1 53 0
  47 0010 FFF7FEFF 		bl	OSDPReaderTimer_ReadControlRegister
  48              	.LVL1:
  49 0014 6071     		strb	r0, [r4, #5]
  50 0016 10BD     		pop	{r4, pc}
  51              	.L3:
  52              		.align	2
  53              	.L2:
  54 0018 00000000 		.word	.LANCHOR0
  55 001c 84650040 		.word	1073767812
  56              		.cfi_endproc
  57              	.LFE0:
  58              		.size	OSDPReaderTimer_SaveConfig, .-OSDPReaderTimer_SaveConfig
  59              		.section	.text.OSDPReaderTimer_RestoreConfig,"ax",%progbits
  60              		.align	1
ARM GAS  C:\Users\Yiquing\AppData\Local\Temp\ccLOi9NU.s 			page 3


  61              		.global	OSDPReaderTimer_RestoreConfig
  62              		.thumb
  63              		.thumb_func
  64              		.type	OSDPReaderTimer_RestoreConfig, %function
  65              	OSDPReaderTimer_RestoreConfig:
  66              	.LFB1:
  54:.\Generated_Source\PSoC5/OSDPReaderTimer_PM.c ****         #endif /* Backup the enable state of the Timer component */
  55:.\Generated_Source\PSoC5/OSDPReaderTimer_PM.c ****     #endif /* Backup non retention registers in UDB implementation. All fixed function registers ar
  56:.\Generated_Source\PSoC5/OSDPReaderTimer_PM.c **** }
  57:.\Generated_Source\PSoC5/OSDPReaderTimer_PM.c **** 
  58:.\Generated_Source\PSoC5/OSDPReaderTimer_PM.c **** 
  59:.\Generated_Source\PSoC5/OSDPReaderTimer_PM.c **** /*******************************************************************************
  60:.\Generated_Source\PSoC5/OSDPReaderTimer_PM.c **** * Function Name: OSDPReaderTimer_RestoreConfig
  61:.\Generated_Source\PSoC5/OSDPReaderTimer_PM.c **** ********************************************************************************
  62:.\Generated_Source\PSoC5/OSDPReaderTimer_PM.c **** *
  63:.\Generated_Source\PSoC5/OSDPReaderTimer_PM.c **** * Summary:
  64:.\Generated_Source\PSoC5/OSDPReaderTimer_PM.c **** *  Restores the current user configuration.
  65:.\Generated_Source\PSoC5/OSDPReaderTimer_PM.c **** *
  66:.\Generated_Source\PSoC5/OSDPReaderTimer_PM.c **** * Parameters:
  67:.\Generated_Source\PSoC5/OSDPReaderTimer_PM.c **** *  void
  68:.\Generated_Source\PSoC5/OSDPReaderTimer_PM.c **** *
  69:.\Generated_Source\PSoC5/OSDPReaderTimer_PM.c **** * Return:
  70:.\Generated_Source\PSoC5/OSDPReaderTimer_PM.c **** *  void
  71:.\Generated_Source\PSoC5/OSDPReaderTimer_PM.c **** *
  72:.\Generated_Source\PSoC5/OSDPReaderTimer_PM.c **** * Global variables:
  73:.\Generated_Source\PSoC5/OSDPReaderTimer_PM.c **** *  OSDPReaderTimer_backup:  Variables of this global structure are used to
  74:.\Generated_Source\PSoC5/OSDPReaderTimer_PM.c **** *  restore the values of non retention registers on wakeup from sleep mode.
  75:.\Generated_Source\PSoC5/OSDPReaderTimer_PM.c **** *
  76:.\Generated_Source\PSoC5/OSDPReaderTimer_PM.c **** *******************************************************************************/
  77:.\Generated_Source\PSoC5/OSDPReaderTimer_PM.c **** void OSDPReaderTimer_RestoreConfig(void) 
  78:.\Generated_Source\PSoC5/OSDPReaderTimer_PM.c **** {   
  67              		.loc 1 78 0
  68              		.cfi_startproc
  69              		@ args = 0, pretend = 0, frame = 0
  70              		@ frame_needed = 0, uses_anonymous_args = 0
  71 0000 10B5     		push	{r4, lr}
  72              		.cfi_def_cfa_offset 8
  73              		.cfi_offset 4, -8
  74              		.cfi_offset 14, -4
  79:.\Generated_Source\PSoC5/OSDPReaderTimer_PM.c ****     #if (!OSDPReaderTimer_UsingFixedFunction)
  80:.\Generated_Source\PSoC5/OSDPReaderTimer_PM.c **** 
  81:.\Generated_Source\PSoC5/OSDPReaderTimer_PM.c ****         OSDPReaderTimer_WriteCounter(OSDPReaderTimer_backup.TimerUdb);
  75              		.loc 1 81 0
  76 0002 064C     		ldr	r4, .L5
  77 0004 6088     		ldrh	r0, [r4, #2]
  78 0006 FFF7FEFF 		bl	OSDPReaderTimer_WriteCounter
  79              	.LVL2:
  82:.\Generated_Source\PSoC5/OSDPReaderTimer_PM.c ****         OSDPReaderTimer_STATUS_MASK =OSDPReaderTimer_backup.InterruptMaskValue;
  80              		.loc 1 82 0
  81 000a 2279     		ldrb	r2, [r4, #4]	@ zero_extendqisi2
  82 000c 044B     		ldr	r3, .L5+4
  83 000e 1A70     		strb	r2, [r3]
  83:.\Generated_Source\PSoC5/OSDPReaderTimer_PM.c ****         #if (OSDPReaderTimer_UsingHWCaptureCounter)
  84:.\Generated_Source\PSoC5/OSDPReaderTimer_PM.c ****             OSDPReaderTimer_SetCaptureCount(OSDPReaderTimer_backup.TimerCaptureCounter);
  85:.\Generated_Source\PSoC5/OSDPReaderTimer_PM.c ****         #endif /* Restore Capture counter register*/
  86:.\Generated_Source\PSoC5/OSDPReaderTimer_PM.c **** 
  87:.\Generated_Source\PSoC5/OSDPReaderTimer_PM.c ****         #if(!OSDPReaderTimer_UDB_CONTROL_REG_REMOVED)
ARM GAS  C:\Users\Yiquing\AppData\Local\Temp\ccLOi9NU.s 			page 4


  88:.\Generated_Source\PSoC5/OSDPReaderTimer_PM.c ****             OSDPReaderTimer_WriteControlRegister(OSDPReaderTimer_backup.TimerControlRegister);
  84              		.loc 1 88 0
  85 0010 6079     		ldrb	r0, [r4, #5]	@ zero_extendqisi2
  89:.\Generated_Source\PSoC5/OSDPReaderTimer_PM.c ****         #endif /* Restore the enable state of the Timer component */
  90:.\Generated_Source\PSoC5/OSDPReaderTimer_PM.c ****     #endif /* Restore non retention registers in the UDB implementation only */
  91:.\Generated_Source\PSoC5/OSDPReaderTimer_PM.c **** }
  86              		.loc 1 91 0
  87 0012 BDE81040 		pop	{r4, lr}
  88:.\Generated_Source\PSoC5/OSDPReaderTimer_PM.c ****             OSDPReaderTimer_WriteControlRegister(OSDPReaderTimer_backup.TimerControlRegister);
  88              		.loc 1 88 0
  89 0016 FFF7FEBF 		b	OSDPReaderTimer_WriteControlRegister
  90              	.LVL3:
  91              	.L6:
  92 001a 00BF     		.align	2
  93              	.L5:
  94 001c 00000000 		.word	.LANCHOR0
  95 0020 84650040 		.word	1073767812
  96              		.cfi_endproc
  97              	.LFE1:
  98              		.size	OSDPReaderTimer_RestoreConfig, .-OSDPReaderTimer_RestoreConfig
  99              		.section	.text.OSDPReaderTimer_Sleep,"ax",%progbits
 100              		.align	1
 101              		.global	OSDPReaderTimer_Sleep
 102              		.thumb
 103              		.thumb_func
 104              		.type	OSDPReaderTimer_Sleep, %function
 105              	OSDPReaderTimer_Sleep:
 106              	.LFB2:
  92:.\Generated_Source\PSoC5/OSDPReaderTimer_PM.c **** 
  93:.\Generated_Source\PSoC5/OSDPReaderTimer_PM.c **** 
  94:.\Generated_Source\PSoC5/OSDPReaderTimer_PM.c **** /*******************************************************************************
  95:.\Generated_Source\PSoC5/OSDPReaderTimer_PM.c **** * Function Name: OSDPReaderTimer_Sleep
  96:.\Generated_Source\PSoC5/OSDPReaderTimer_PM.c **** ********************************************************************************
  97:.\Generated_Source\PSoC5/OSDPReaderTimer_PM.c **** *
  98:.\Generated_Source\PSoC5/OSDPReaderTimer_PM.c **** * Summary:
  99:.\Generated_Source\PSoC5/OSDPReaderTimer_PM.c **** *     Stop and Save the user configuration
 100:.\Generated_Source\PSoC5/OSDPReaderTimer_PM.c **** *
 101:.\Generated_Source\PSoC5/OSDPReaderTimer_PM.c **** * Parameters:
 102:.\Generated_Source\PSoC5/OSDPReaderTimer_PM.c **** *  void
 103:.\Generated_Source\PSoC5/OSDPReaderTimer_PM.c **** *
 104:.\Generated_Source\PSoC5/OSDPReaderTimer_PM.c **** * Return:
 105:.\Generated_Source\PSoC5/OSDPReaderTimer_PM.c **** *  void
 106:.\Generated_Source\PSoC5/OSDPReaderTimer_PM.c **** *
 107:.\Generated_Source\PSoC5/OSDPReaderTimer_PM.c **** * Global variables:
 108:.\Generated_Source\PSoC5/OSDPReaderTimer_PM.c **** *  OSDPReaderTimer_backup.TimerEnableState:  Is modified depending on the
 109:.\Generated_Source\PSoC5/OSDPReaderTimer_PM.c **** *  enable state of the block before entering sleep mode.
 110:.\Generated_Source\PSoC5/OSDPReaderTimer_PM.c **** *
 111:.\Generated_Source\PSoC5/OSDPReaderTimer_PM.c **** *******************************************************************************/
 112:.\Generated_Source\PSoC5/OSDPReaderTimer_PM.c **** void OSDPReaderTimer_Sleep(void) 
 113:.\Generated_Source\PSoC5/OSDPReaderTimer_PM.c **** {
 107              		.loc 1 113 0
 108              		.cfi_startproc
 109              		@ args = 0, pretend = 0, frame = 0
 110              		@ frame_needed = 0, uses_anonymous_args = 0
 111 0000 08B5     		push	{r3, lr}
 112              		.cfi_def_cfa_offset 8
 113              		.cfi_offset 3, -8
ARM GAS  C:\Users\Yiquing\AppData\Local\Temp\ccLOi9NU.s 			page 5


 114              		.cfi_offset 14, -4
 114:.\Generated_Source\PSoC5/OSDPReaderTimer_PM.c ****     #if(!OSDPReaderTimer_UDB_CONTROL_REG_REMOVED)
 115:.\Generated_Source\PSoC5/OSDPReaderTimer_PM.c ****         /* Save Counter's enable state */
 116:.\Generated_Source\PSoC5/OSDPReaderTimer_PM.c ****         if(OSDPReaderTimer_CTRL_ENABLE == (OSDPReaderTimer_CONTROL & OSDPReaderTimer_CTRL_ENABLE))
 115              		.loc 1 116 0
 116 0002 074B     		ldr	r3, .L11
 117 0004 1B78     		ldrb	r3, [r3]	@ zero_extendqisi2
 118 0006 13F0800F 		tst	r3, #128
 119 000a 064B     		ldr	r3, .L11+4
 117:.\Generated_Source\PSoC5/OSDPReaderTimer_PM.c ****         {
 118:.\Generated_Source\PSoC5/OSDPReaderTimer_PM.c ****             /* Timer is enabled */
 119:.\Generated_Source\PSoC5/OSDPReaderTimer_PM.c ****             OSDPReaderTimer_backup.TimerEnableState = 1u;
 120              		.loc 1 119 0
 121 000c 14BF     		ite	ne
 122 000e 0122     		movne	r2, #1
 120:.\Generated_Source\PSoC5/OSDPReaderTimer_PM.c ****         }
 121:.\Generated_Source\PSoC5/OSDPReaderTimer_PM.c ****         else
 122:.\Generated_Source\PSoC5/OSDPReaderTimer_PM.c ****         {
 123:.\Generated_Source\PSoC5/OSDPReaderTimer_PM.c ****             /* Timer is disabled */
 124:.\Generated_Source\PSoC5/OSDPReaderTimer_PM.c ****             OSDPReaderTimer_backup.TimerEnableState = 0u;
 123              		.loc 1 124 0
 124 0010 0022     		moveq	r2, #0
 125 0012 1A70     		strb	r2, [r3]
 125:.\Generated_Source\PSoC5/OSDPReaderTimer_PM.c ****         }
 126:.\Generated_Source\PSoC5/OSDPReaderTimer_PM.c ****     #endif /* Back up enable state from the Timer control register */
 127:.\Generated_Source\PSoC5/OSDPReaderTimer_PM.c ****     OSDPReaderTimer_Stop();
 126              		.loc 1 127 0
 127 0014 FFF7FEFF 		bl	OSDPReaderTimer_Stop
 128              	.LVL4:
 128:.\Generated_Source\PSoC5/OSDPReaderTimer_PM.c ****     OSDPReaderTimer_SaveConfig();
 129:.\Generated_Source\PSoC5/OSDPReaderTimer_PM.c **** }
 129              		.loc 1 129 0
 130 0018 BDE80840 		pop	{r3, lr}
 128:.\Generated_Source\PSoC5/OSDPReaderTimer_PM.c ****     OSDPReaderTimer_SaveConfig();
 131              		.loc 1 128 0
 132 001c FFF7FEBF 		b	OSDPReaderTimer_SaveConfig
 133              	.LVL5:
 134              	.L12:
 135              		.align	2
 136              	.L11:
 137 0020 77650040 		.word	1073767799
 138 0024 00000000 		.word	.LANCHOR0
 139              		.cfi_endproc
 140              	.LFE2:
 141              		.size	OSDPReaderTimer_Sleep, .-OSDPReaderTimer_Sleep
 142              		.section	.text.OSDPReaderTimer_Wakeup,"ax",%progbits
 143              		.align	1
 144              		.global	OSDPReaderTimer_Wakeup
 145              		.thumb
 146              		.thumb_func
 147              		.type	OSDPReaderTimer_Wakeup, %function
 148              	OSDPReaderTimer_Wakeup:
 149              	.LFB3:
 130:.\Generated_Source\PSoC5/OSDPReaderTimer_PM.c **** 
 131:.\Generated_Source\PSoC5/OSDPReaderTimer_PM.c **** 
 132:.\Generated_Source\PSoC5/OSDPReaderTimer_PM.c **** /*******************************************************************************
 133:.\Generated_Source\PSoC5/OSDPReaderTimer_PM.c **** * Function Name: OSDPReaderTimer_Wakeup
ARM GAS  C:\Users\Yiquing\AppData\Local\Temp\ccLOi9NU.s 			page 6


 134:.\Generated_Source\PSoC5/OSDPReaderTimer_PM.c **** ********************************************************************************
 135:.\Generated_Source\PSoC5/OSDPReaderTimer_PM.c **** *
 136:.\Generated_Source\PSoC5/OSDPReaderTimer_PM.c **** * Summary:
 137:.\Generated_Source\PSoC5/OSDPReaderTimer_PM.c **** *  Restores and enables the user configuration
 138:.\Generated_Source\PSoC5/OSDPReaderTimer_PM.c **** *
 139:.\Generated_Source\PSoC5/OSDPReaderTimer_PM.c **** * Parameters:
 140:.\Generated_Source\PSoC5/OSDPReaderTimer_PM.c **** *  void
 141:.\Generated_Source\PSoC5/OSDPReaderTimer_PM.c **** *
 142:.\Generated_Source\PSoC5/OSDPReaderTimer_PM.c **** * Return:
 143:.\Generated_Source\PSoC5/OSDPReaderTimer_PM.c **** *  void
 144:.\Generated_Source\PSoC5/OSDPReaderTimer_PM.c **** *
 145:.\Generated_Source\PSoC5/OSDPReaderTimer_PM.c **** * Global variables:
 146:.\Generated_Source\PSoC5/OSDPReaderTimer_PM.c **** *  OSDPReaderTimer_backup.enableState:  Is used to restore the enable state of
 147:.\Generated_Source\PSoC5/OSDPReaderTimer_PM.c **** *  block on wakeup from sleep mode.
 148:.\Generated_Source\PSoC5/OSDPReaderTimer_PM.c **** *
 149:.\Generated_Source\PSoC5/OSDPReaderTimer_PM.c **** *******************************************************************************/
 150:.\Generated_Source\PSoC5/OSDPReaderTimer_PM.c **** void OSDPReaderTimer_Wakeup(void) 
 151:.\Generated_Source\PSoC5/OSDPReaderTimer_PM.c **** {
 150              		.loc 1 151 0
 151              		.cfi_startproc
 152              		@ args = 0, pretend = 0, frame = 0
 153              		@ frame_needed = 0, uses_anonymous_args = 0
 154 0000 08B5     		push	{r3, lr}
 155              		.cfi_def_cfa_offset 8
 156              		.cfi_offset 3, -8
 157              		.cfi_offset 14, -4
 152:.\Generated_Source\PSoC5/OSDPReaderTimer_PM.c ****     OSDPReaderTimer_RestoreConfig();
 158              		.loc 1 152 0
 159 0002 FFF7FEFF 		bl	OSDPReaderTimer_RestoreConfig
 160              	.LVL6:
 153:.\Generated_Source\PSoC5/OSDPReaderTimer_PM.c ****     #if(!OSDPReaderTimer_UDB_CONTROL_REG_REMOVED)
 154:.\Generated_Source\PSoC5/OSDPReaderTimer_PM.c ****         if(OSDPReaderTimer_backup.TimerEnableState == 1u)
 161              		.loc 1 154 0
 162 0006 044B     		ldr	r3, .L16
 163 0008 1B78     		ldrb	r3, [r3]	@ zero_extendqisi2
 164 000a 012B     		cmp	r3, #1
 165 000c 03D1     		bne	.L13
 155:.\Generated_Source\PSoC5/OSDPReaderTimer_PM.c ****         {     /* Enable Timer's operation */
 156:.\Generated_Source\PSoC5/OSDPReaderTimer_PM.c ****                 OSDPReaderTimer_Enable();
 157:.\Generated_Source\PSoC5/OSDPReaderTimer_PM.c ****         } /* Do nothing if Timer was disabled before */
 158:.\Generated_Source\PSoC5/OSDPReaderTimer_PM.c ****     #endif /* Remove this code section if Control register is removed */
 159:.\Generated_Source\PSoC5/OSDPReaderTimer_PM.c **** }
 166              		.loc 1 159 0
 167 000e BDE80840 		pop	{r3, lr}
 156:.\Generated_Source\PSoC5/OSDPReaderTimer_PM.c ****                 OSDPReaderTimer_Enable();
 168              		.loc 1 156 0
 169 0012 FFF7FEBF 		b	OSDPReaderTimer_Enable
 170              	.LVL7:
 171              	.L13:
 172 0016 08BD     		pop	{r3, pc}
 173              	.L17:
 174              		.align	2
 175              	.L16:
 176 0018 00000000 		.word	.LANCHOR0
 177              		.cfi_endproc
 178              	.LFE3:
 179              		.size	OSDPReaderTimer_Wakeup, .-OSDPReaderTimer_Wakeup
ARM GAS  C:\Users\Yiquing\AppData\Local\Temp\ccLOi9NU.s 			page 7


 180              		.bss
 181              		.align	1
 182              		.set	.LANCHOR0,. + 0
 183              		.type	OSDPReaderTimer_backup, %object
 184              		.size	OSDPReaderTimer_backup, 6
 185              	OSDPReaderTimer_backup:
 186 0000 00000000 		.space	6
 186      0000
 187              		.text
 188              	.Letext0:
 189              		.file 2 ".\\Generated_Source\\PSoC5\\cytypes.h"
 190              		.file 3 ".\\Generated_Source\\PSoC5\\OSDPReaderTimer.h"