ARM GAS  C:\Users\Yiquing\AppData\Local\Temp\ccvaGiH9.s 			page 1


   1              		.syntax unified
   2              		.cpu cortex-m3
   3              		.fpu softvfp
   4              		.eabi_attribute 20, 1
   5              		.eabi_attribute 21, 1
   6              		.eabi_attribute 23, 3
   7              		.eabi_attribute 24, 1
   8              		.eabi_attribute 25, 1
   9              		.eabi_attribute 26, 1
  10              		.eabi_attribute 30, 4
  11              		.eabi_attribute 34, 1
  12              		.eabi_attribute 18, 4
  13              		.thumb
  14              		.file	"UART_OSDP.c"
  15              		.text
  16              	.Ltext0:
  17              		.cfi_sections	.debug_frame
  18              		.section	.text.UART_OSDP_Init,"ax",%progbits
  19              		.align	1
  20              		.global	UART_OSDP_Init
  21              		.thumb
  22              		.thumb_func
  23              		.type	UART_OSDP_Init, %function
  24              	UART_OSDP_Init:
  25              	.LFB1:
  26              		.file 1 ".\\Generated_Source\\PSoC5\\UART_OSDP.c"
   1:.\Generated_Source\PSoC5/UART_OSDP.c **** /*******************************************************************************
   2:.\Generated_Source\PSoC5/UART_OSDP.c **** * File Name: UART_OSDP.c
   3:.\Generated_Source\PSoC5/UART_OSDP.c **** * Version 2.50
   4:.\Generated_Source\PSoC5/UART_OSDP.c **** *
   5:.\Generated_Source\PSoC5/UART_OSDP.c **** * Description:
   6:.\Generated_Source\PSoC5/UART_OSDP.c **** *  This file provides all API functionality of the UART component
   7:.\Generated_Source\PSoC5/UART_OSDP.c **** *
   8:.\Generated_Source\PSoC5/UART_OSDP.c **** * Note:
   9:.\Generated_Source\PSoC5/UART_OSDP.c **** *
  10:.\Generated_Source\PSoC5/UART_OSDP.c **** ********************************************************************************
  11:.\Generated_Source\PSoC5/UART_OSDP.c **** * Copyright 2008-2015, Cypress Semiconductor Corporation.  All rights reserved.
  12:.\Generated_Source\PSoC5/UART_OSDP.c **** * You may use this file only in accordance with the license, terms, conditions,
  13:.\Generated_Source\PSoC5/UART_OSDP.c **** * disclaimers, and limitations in the end user license agreement accompanying
  14:.\Generated_Source\PSoC5/UART_OSDP.c **** * the software package with which this file was provided.
  15:.\Generated_Source\PSoC5/UART_OSDP.c **** *******************************************************************************/
  16:.\Generated_Source\PSoC5/UART_OSDP.c **** 
  17:.\Generated_Source\PSoC5/UART_OSDP.c **** #include "UART_OSDP.h"
  18:.\Generated_Source\PSoC5/UART_OSDP.c **** #if (UART_OSDP_INTERNAL_CLOCK_USED)
  19:.\Generated_Source\PSoC5/UART_OSDP.c ****     #include "UART_OSDP_IntClock.h"
  20:.\Generated_Source\PSoC5/UART_OSDP.c **** #endif /* End UART_OSDP_INTERNAL_CLOCK_USED */
  21:.\Generated_Source\PSoC5/UART_OSDP.c **** 
  22:.\Generated_Source\PSoC5/UART_OSDP.c **** 
  23:.\Generated_Source\PSoC5/UART_OSDP.c **** /***************************************
  24:.\Generated_Source\PSoC5/UART_OSDP.c **** * Global data allocation
  25:.\Generated_Source\PSoC5/UART_OSDP.c **** ***************************************/
  26:.\Generated_Source\PSoC5/UART_OSDP.c **** 
  27:.\Generated_Source\PSoC5/UART_OSDP.c **** uint8 UART_OSDP_initVar = 0u;
  28:.\Generated_Source\PSoC5/UART_OSDP.c **** 
  29:.\Generated_Source\PSoC5/UART_OSDP.c **** #if (UART_OSDP_TX_INTERRUPT_ENABLED && UART_OSDP_TX_ENABLED)
  30:.\Generated_Source\PSoC5/UART_OSDP.c ****     volatile uint8 UART_OSDP_txBuffer[UART_OSDP_TX_BUFFER_SIZE];
  31:.\Generated_Source\PSoC5/UART_OSDP.c ****     volatile uint8 UART_OSDP_txBufferRead = 0u;
ARM GAS  C:\Users\Yiquing\AppData\Local\Temp\ccvaGiH9.s 			page 2


  32:.\Generated_Source\PSoC5/UART_OSDP.c ****     uint8 UART_OSDP_txBufferWrite = 0u;
  33:.\Generated_Source\PSoC5/UART_OSDP.c **** #endif /* (UART_OSDP_TX_INTERRUPT_ENABLED && UART_OSDP_TX_ENABLED) */
  34:.\Generated_Source\PSoC5/UART_OSDP.c **** 
  35:.\Generated_Source\PSoC5/UART_OSDP.c **** #if (UART_OSDP_RX_INTERRUPT_ENABLED && (UART_OSDP_RX_ENABLED || UART_OSDP_HD_ENABLED))
  36:.\Generated_Source\PSoC5/UART_OSDP.c ****     uint8 UART_OSDP_errorStatus = 0u;
  37:.\Generated_Source\PSoC5/UART_OSDP.c ****     volatile uint8 UART_OSDP_rxBuffer[UART_OSDP_RX_BUFFER_SIZE];
  38:.\Generated_Source\PSoC5/UART_OSDP.c ****     volatile uint16 UART_OSDP_rxBufferRead  = 0u;
  39:.\Generated_Source\PSoC5/UART_OSDP.c ****     volatile uint16 UART_OSDP_rxBufferWrite = 0u;
  40:.\Generated_Source\PSoC5/UART_OSDP.c ****     volatile uint8 UART_OSDP_rxBufferLoopDetect = 0u;
  41:.\Generated_Source\PSoC5/UART_OSDP.c ****     volatile uint8 UART_OSDP_rxBufferOverflow   = 0u;
  42:.\Generated_Source\PSoC5/UART_OSDP.c ****     #if (UART_OSDP_RXHW_ADDRESS_ENABLED)
  43:.\Generated_Source\PSoC5/UART_OSDP.c ****         volatile uint8 UART_OSDP_rxAddressMode = UART_OSDP_RX_ADDRESS_MODE;
  44:.\Generated_Source\PSoC5/UART_OSDP.c ****         volatile uint8 UART_OSDP_rxAddressDetected = 0u;
  45:.\Generated_Source\PSoC5/UART_OSDP.c ****     #endif /* (UART_OSDP_RXHW_ADDRESS_ENABLED) */
  46:.\Generated_Source\PSoC5/UART_OSDP.c **** #endif /* (UART_OSDP_RX_INTERRUPT_ENABLED && (UART_OSDP_RX_ENABLED || UART_OSDP_HD_ENABLED)) */
  47:.\Generated_Source\PSoC5/UART_OSDP.c **** 
  48:.\Generated_Source\PSoC5/UART_OSDP.c **** 
  49:.\Generated_Source\PSoC5/UART_OSDP.c **** /*******************************************************************************
  50:.\Generated_Source\PSoC5/UART_OSDP.c **** * Function Name: UART_OSDP_Start
  51:.\Generated_Source\PSoC5/UART_OSDP.c **** ********************************************************************************
  52:.\Generated_Source\PSoC5/UART_OSDP.c **** *
  53:.\Generated_Source\PSoC5/UART_OSDP.c **** * Summary:
  54:.\Generated_Source\PSoC5/UART_OSDP.c **** *  This is the preferred method to begin component operation.
  55:.\Generated_Source\PSoC5/UART_OSDP.c **** *  UART_OSDP_Start() sets the initVar variable, calls the
  56:.\Generated_Source\PSoC5/UART_OSDP.c **** *  UART_OSDP_Init() function, and then calls the
  57:.\Generated_Source\PSoC5/UART_OSDP.c **** *  UART_OSDP_Enable() function.
  58:.\Generated_Source\PSoC5/UART_OSDP.c **** *
  59:.\Generated_Source\PSoC5/UART_OSDP.c **** * Parameters:
  60:.\Generated_Source\PSoC5/UART_OSDP.c **** *  None.
  61:.\Generated_Source\PSoC5/UART_OSDP.c **** *
  62:.\Generated_Source\PSoC5/UART_OSDP.c **** * Return:
  63:.\Generated_Source\PSoC5/UART_OSDP.c **** *  None.
  64:.\Generated_Source\PSoC5/UART_OSDP.c **** *
  65:.\Generated_Source\PSoC5/UART_OSDP.c **** * Global variables:
  66:.\Generated_Source\PSoC5/UART_OSDP.c **** *  The UART_OSDP_intiVar variable is used to indicate initial
  67:.\Generated_Source\PSoC5/UART_OSDP.c **** *  configuration of this component. The variable is initialized to zero (0u)
  68:.\Generated_Source\PSoC5/UART_OSDP.c **** *  and set to one (1u) the first time UART_OSDP_Start() is called. This
  69:.\Generated_Source\PSoC5/UART_OSDP.c **** *  allows for component initialization without re-initialization in all
  70:.\Generated_Source\PSoC5/UART_OSDP.c **** *  subsequent calls to the UART_OSDP_Start() routine.
  71:.\Generated_Source\PSoC5/UART_OSDP.c **** *
  72:.\Generated_Source\PSoC5/UART_OSDP.c **** * Reentrant:
  73:.\Generated_Source\PSoC5/UART_OSDP.c **** *  No.
  74:.\Generated_Source\PSoC5/UART_OSDP.c **** *
  75:.\Generated_Source\PSoC5/UART_OSDP.c **** *******************************************************************************/
  76:.\Generated_Source\PSoC5/UART_OSDP.c **** void UART_OSDP_Start(void) 
  77:.\Generated_Source\PSoC5/UART_OSDP.c **** {
  78:.\Generated_Source\PSoC5/UART_OSDP.c ****     /* If not initialized then initialize all required hardware and software */
  79:.\Generated_Source\PSoC5/UART_OSDP.c ****     if(UART_OSDP_initVar == 0u)
  80:.\Generated_Source\PSoC5/UART_OSDP.c ****     {
  81:.\Generated_Source\PSoC5/UART_OSDP.c ****         UART_OSDP_Init();
  82:.\Generated_Source\PSoC5/UART_OSDP.c ****         UART_OSDP_initVar = 1u;
  83:.\Generated_Source\PSoC5/UART_OSDP.c ****     }
  84:.\Generated_Source\PSoC5/UART_OSDP.c **** 
  85:.\Generated_Source\PSoC5/UART_OSDP.c ****     UART_OSDP_Enable();
  86:.\Generated_Source\PSoC5/UART_OSDP.c **** }
  87:.\Generated_Source\PSoC5/UART_OSDP.c **** 
  88:.\Generated_Source\PSoC5/UART_OSDP.c **** 
ARM GAS  C:\Users\Yiquing\AppData\Local\Temp\ccvaGiH9.s 			page 3


  89:.\Generated_Source\PSoC5/UART_OSDP.c **** /*******************************************************************************
  90:.\Generated_Source\PSoC5/UART_OSDP.c **** * Function Name: UART_OSDP_Init
  91:.\Generated_Source\PSoC5/UART_OSDP.c **** ********************************************************************************
  92:.\Generated_Source\PSoC5/UART_OSDP.c **** *
  93:.\Generated_Source\PSoC5/UART_OSDP.c **** * Summary:
  94:.\Generated_Source\PSoC5/UART_OSDP.c **** *  Initializes or restores the component according to the customizer Configure
  95:.\Generated_Source\PSoC5/UART_OSDP.c **** *  dialog settings. It is not necessary to call UART_OSDP_Init() because
  96:.\Generated_Source\PSoC5/UART_OSDP.c **** *  the UART_OSDP_Start() API calls this function and is the preferred
  97:.\Generated_Source\PSoC5/UART_OSDP.c **** *  method to begin component operation.
  98:.\Generated_Source\PSoC5/UART_OSDP.c **** *
  99:.\Generated_Source\PSoC5/UART_OSDP.c **** * Parameters:
 100:.\Generated_Source\PSoC5/UART_OSDP.c **** *  None.
 101:.\Generated_Source\PSoC5/UART_OSDP.c **** *
 102:.\Generated_Source\PSoC5/UART_OSDP.c **** * Return:
 103:.\Generated_Source\PSoC5/UART_OSDP.c **** *  None.
 104:.\Generated_Source\PSoC5/UART_OSDP.c **** *
 105:.\Generated_Source\PSoC5/UART_OSDP.c **** *******************************************************************************/
 106:.\Generated_Source\PSoC5/UART_OSDP.c **** void UART_OSDP_Init(void) 
 107:.\Generated_Source\PSoC5/UART_OSDP.c **** {
  27              		.loc 1 107 0
  28              		.cfi_startproc
  29              		@ args = 0, pretend = 0, frame = 0
  30              		@ frame_needed = 0, uses_anonymous_args = 0
  31 0000 08B5     		push	{r3, lr}
  32              		.cfi_def_cfa_offset 8
  33              		.cfi_offset 3, -8
  34              		.cfi_offset 14, -4
 108:.\Generated_Source\PSoC5/UART_OSDP.c ****     #if(UART_OSDP_RX_ENABLED || UART_OSDP_HD_ENABLED)
 109:.\Generated_Source\PSoC5/UART_OSDP.c **** 
 110:.\Generated_Source\PSoC5/UART_OSDP.c ****         #if (UART_OSDP_RX_INTERRUPT_ENABLED)
 111:.\Generated_Source\PSoC5/UART_OSDP.c ****             /* Set RX interrupt vector and priority */
 112:.\Generated_Source\PSoC5/UART_OSDP.c ****             (void) CyIntSetVector(UART_OSDP_RX_VECT_NUM, &UART_OSDP_RXISR);
  35              		.loc 1 112 0
  36 0002 0949     		ldr	r1, .L2
  37 0004 0020     		movs	r0, #0
  38 0006 FFF7FEFF 		bl	CyIntSetVector
  39              	.LVL0:
 113:.\Generated_Source\PSoC5/UART_OSDP.c ****             CyIntSetPriority(UART_OSDP_RX_VECT_NUM, UART_OSDP_RX_PRIOR_NUM);
  40              		.loc 1 113 0
  41 000a 0020     		movs	r0, #0
  42 000c 0721     		movs	r1, #7
  43 000e FFF7FEFF 		bl	CyIntSetPriority
  44              	.LVL1:
 114:.\Generated_Source\PSoC5/UART_OSDP.c ****             UART_OSDP_errorStatus = 0u;
  45              		.loc 1 114 0
  46 0012 064B     		ldr	r3, .L2+4
  47 0014 0022     		movs	r2, #0
  48 0016 1A70     		strb	r2, [r3]
 115:.\Generated_Source\PSoC5/UART_OSDP.c ****         #endif /* (UART_OSDP_RX_INTERRUPT_ENABLED) */
 116:.\Generated_Source\PSoC5/UART_OSDP.c **** 
 117:.\Generated_Source\PSoC5/UART_OSDP.c ****         #if (UART_OSDP_RXHW_ADDRESS_ENABLED)
 118:.\Generated_Source\PSoC5/UART_OSDP.c ****             UART_OSDP_SetRxAddressMode(UART_OSDP_RX_ADDRESS_MODE);
 119:.\Generated_Source\PSoC5/UART_OSDP.c ****             UART_OSDP_SetRxAddress1(UART_OSDP_RX_HW_ADDRESS1);
 120:.\Generated_Source\PSoC5/UART_OSDP.c ****             UART_OSDP_SetRxAddress2(UART_OSDP_RX_HW_ADDRESS2);
 121:.\Generated_Source\PSoC5/UART_OSDP.c ****         #endif /* End UART_OSDP_RXHW_ADDRESS_ENABLED */
 122:.\Generated_Source\PSoC5/UART_OSDP.c **** 
 123:.\Generated_Source\PSoC5/UART_OSDP.c ****         /* Init Count7 period */
ARM GAS  C:\Users\Yiquing\AppData\Local\Temp\ccvaGiH9.s 			page 4


 124:.\Generated_Source\PSoC5/UART_OSDP.c ****         UART_OSDP_RXBITCTR_PERIOD_REG = UART_OSDP_RXBITCTR_INIT;
  49              		.loc 1 124 0
  50 0018 054B     		ldr	r3, .L2+8
  51 001a 7222     		movs	r2, #114
  52 001c 1A70     		strb	r2, [r3]
 125:.\Generated_Source\PSoC5/UART_OSDP.c ****         /* Configure the Initial RX interrupt mask */
 126:.\Generated_Source\PSoC5/UART_OSDP.c ****         UART_OSDP_RXSTATUS_MASK_REG  = UART_OSDP_INIT_RX_INTERRUPTS_MASK;
  53              		.loc 1 126 0
  54 001e 2022     		movs	r2, #32
  55 0020 A3F58273 		sub	r3, r3, #260
  56 0024 1A70     		strb	r2, [r3]
  57 0026 08BD     		pop	{r3, pc}
  58              	.L3:
  59              		.align	2
  60              	.L2:
  61 0028 00000000 		.word	UART_OSDP_RXISR
  62 002c 00000000 		.word	.LANCHOR0
  63 0030 86650040 		.word	1073767814
  64              		.cfi_endproc
  65              	.LFE1:
  66              		.size	UART_OSDP_Init, .-UART_OSDP_Init
  67              		.section	.text.UART_OSDP_Enable,"ax",%progbits
  68              		.align	1
  69              		.global	UART_OSDP_Enable
  70              		.thumb
  71              		.thumb_func
  72              		.type	UART_OSDP_Enable, %function
  73              	UART_OSDP_Enable:
  74              	.LFB2:
 127:.\Generated_Source\PSoC5/UART_OSDP.c ****     #endif /* End UART_OSDP_RX_ENABLED || UART_OSDP_HD_ENABLED*/
 128:.\Generated_Source\PSoC5/UART_OSDP.c **** 
 129:.\Generated_Source\PSoC5/UART_OSDP.c ****     #if(UART_OSDP_TX_ENABLED)
 130:.\Generated_Source\PSoC5/UART_OSDP.c ****         #if (UART_OSDP_TX_INTERRUPT_ENABLED)
 131:.\Generated_Source\PSoC5/UART_OSDP.c ****             /* Set TX interrupt vector and priority */
 132:.\Generated_Source\PSoC5/UART_OSDP.c ****             (void) CyIntSetVector(UART_OSDP_TX_VECT_NUM, &UART_OSDP_TXISR);
 133:.\Generated_Source\PSoC5/UART_OSDP.c ****             CyIntSetPriority(UART_OSDP_TX_VECT_NUM, UART_OSDP_TX_PRIOR_NUM);
 134:.\Generated_Source\PSoC5/UART_OSDP.c ****         #endif /* (UART_OSDP_TX_INTERRUPT_ENABLED) */
 135:.\Generated_Source\PSoC5/UART_OSDP.c **** 
 136:.\Generated_Source\PSoC5/UART_OSDP.c ****         /* Write Counter Value for TX Bit Clk Generator*/
 137:.\Generated_Source\PSoC5/UART_OSDP.c ****         #if (UART_OSDP_TXCLKGEN_DP)
 138:.\Generated_Source\PSoC5/UART_OSDP.c ****             UART_OSDP_TXBITCLKGEN_CTR_REG = UART_OSDP_BIT_CENTER;
 139:.\Generated_Source\PSoC5/UART_OSDP.c ****             UART_OSDP_TXBITCLKTX_COMPLETE_REG = ((UART_OSDP_NUMBER_OF_DATA_BITS +
 140:.\Generated_Source\PSoC5/UART_OSDP.c ****                         UART_OSDP_NUMBER_OF_START_BIT) * UART_OSDP_OVER_SAMPLE_COUNT) - 1u;
 141:.\Generated_Source\PSoC5/UART_OSDP.c ****         #else
 142:.\Generated_Source\PSoC5/UART_OSDP.c ****             UART_OSDP_TXBITCTR_PERIOD_REG = ((UART_OSDP_NUMBER_OF_DATA_BITS +
 143:.\Generated_Source\PSoC5/UART_OSDP.c ****                         UART_OSDP_NUMBER_OF_START_BIT) * UART_OSDP_OVER_SAMPLE_8) - 1u;
 144:.\Generated_Source\PSoC5/UART_OSDP.c ****         #endif /* End UART_OSDP_TXCLKGEN_DP */
 145:.\Generated_Source\PSoC5/UART_OSDP.c **** 
 146:.\Generated_Source\PSoC5/UART_OSDP.c ****         /* Configure the Initial TX interrupt mask */
 147:.\Generated_Source\PSoC5/UART_OSDP.c ****         #if (UART_OSDP_TX_INTERRUPT_ENABLED)
 148:.\Generated_Source\PSoC5/UART_OSDP.c ****             UART_OSDP_TXSTATUS_MASK_REG = UART_OSDP_TX_STS_FIFO_EMPTY;
 149:.\Generated_Source\PSoC5/UART_OSDP.c ****         #else
 150:.\Generated_Source\PSoC5/UART_OSDP.c ****             UART_OSDP_TXSTATUS_MASK_REG = UART_OSDP_INIT_TX_INTERRUPTS_MASK;
 151:.\Generated_Source\PSoC5/UART_OSDP.c ****         #endif /*End UART_OSDP_TX_INTERRUPT_ENABLED*/
 152:.\Generated_Source\PSoC5/UART_OSDP.c **** 
 153:.\Generated_Source\PSoC5/UART_OSDP.c ****     #endif /* End UART_OSDP_TX_ENABLED */
 154:.\Generated_Source\PSoC5/UART_OSDP.c **** 
ARM GAS  C:\Users\Yiquing\AppData\Local\Temp\ccvaGiH9.s 			page 5


 155:.\Generated_Source\PSoC5/UART_OSDP.c ****     #if(UART_OSDP_PARITY_TYPE_SW)  /* Write Parity to Control Register */
 156:.\Generated_Source\PSoC5/UART_OSDP.c ****         UART_OSDP_WriteControlRegister( \
 157:.\Generated_Source\PSoC5/UART_OSDP.c ****             (UART_OSDP_ReadControlRegister() & (uint8)~UART_OSDP_CTRL_PARITY_TYPE_MASK) | \
 158:.\Generated_Source\PSoC5/UART_OSDP.c ****             (uint8)(UART_OSDP_PARITY_TYPE << UART_OSDP_CTRL_PARITY_TYPE0_SHIFT) );
 159:.\Generated_Source\PSoC5/UART_OSDP.c ****     #endif /* End UART_OSDP_PARITY_TYPE_SW */
 160:.\Generated_Source\PSoC5/UART_OSDP.c **** }
 161:.\Generated_Source\PSoC5/UART_OSDP.c **** 
 162:.\Generated_Source\PSoC5/UART_OSDP.c **** 
 163:.\Generated_Source\PSoC5/UART_OSDP.c **** /*******************************************************************************
 164:.\Generated_Source\PSoC5/UART_OSDP.c **** * Function Name: UART_OSDP_Enable
 165:.\Generated_Source\PSoC5/UART_OSDP.c **** ********************************************************************************
 166:.\Generated_Source\PSoC5/UART_OSDP.c **** *
 167:.\Generated_Source\PSoC5/UART_OSDP.c **** * Summary:
 168:.\Generated_Source\PSoC5/UART_OSDP.c **** *  Activates the hardware and begins component operation. It is not necessary
 169:.\Generated_Source\PSoC5/UART_OSDP.c **** *  to call UART_OSDP_Enable() because the UART_OSDP_Start() API
 170:.\Generated_Source\PSoC5/UART_OSDP.c **** *  calls this function, which is the preferred method to begin component
 171:.\Generated_Source\PSoC5/UART_OSDP.c **** *  operation.
 172:.\Generated_Source\PSoC5/UART_OSDP.c **** 
 173:.\Generated_Source\PSoC5/UART_OSDP.c **** * Parameters:
 174:.\Generated_Source\PSoC5/UART_OSDP.c **** *  None.
 175:.\Generated_Source\PSoC5/UART_OSDP.c **** *
 176:.\Generated_Source\PSoC5/UART_OSDP.c **** * Return:
 177:.\Generated_Source\PSoC5/UART_OSDP.c **** *  None.
 178:.\Generated_Source\PSoC5/UART_OSDP.c **** *
 179:.\Generated_Source\PSoC5/UART_OSDP.c **** * Global Variables:
 180:.\Generated_Source\PSoC5/UART_OSDP.c **** *  UART_OSDP_rxAddressDetected - set to initial state (0).
 181:.\Generated_Source\PSoC5/UART_OSDP.c **** *
 182:.\Generated_Source\PSoC5/UART_OSDP.c **** *******************************************************************************/
 183:.\Generated_Source\PSoC5/UART_OSDP.c **** void UART_OSDP_Enable(void) 
 184:.\Generated_Source\PSoC5/UART_OSDP.c **** {
  75              		.loc 1 184 0
  76              		.cfi_startproc
  77              		@ args = 0, pretend = 0, frame = 0
  78              		@ frame_needed = 0, uses_anonymous_args = 0
  79 0000 08B5     		push	{r3, lr}
  80              		.cfi_def_cfa_offset 8
  81              		.cfi_offset 3, -8
  82              		.cfi_offset 14, -4
 185:.\Generated_Source\PSoC5/UART_OSDP.c ****     uint8 enableInterrupts;
 186:.\Generated_Source\PSoC5/UART_OSDP.c ****     enableInterrupts = CyEnterCriticalSection();
  83              		.loc 1 186 0
  84 0002 FFF7FEFF 		bl	CyEnterCriticalSection
  85              	.LVL2:
 187:.\Generated_Source\PSoC5/UART_OSDP.c **** 
 188:.\Generated_Source\PSoC5/UART_OSDP.c ****     #if (UART_OSDP_RX_ENABLED || UART_OSDP_HD_ENABLED)
 189:.\Generated_Source\PSoC5/UART_OSDP.c ****         /* RX Counter (Count7) Enable */
 190:.\Generated_Source\PSoC5/UART_OSDP.c ****         UART_OSDP_RXBITCTR_CONTROL_REG |= UART_OSDP_CNTR_ENABLE;
  86              		.loc 1 190 0
  87 0006 094B     		ldr	r3, .L5
  88 0008 1A78     		ldrb	r2, [r3]	@ zero_extendqisi2
 191:.\Generated_Source\PSoC5/UART_OSDP.c **** 
 192:.\Generated_Source\PSoC5/UART_OSDP.c ****         /* Enable the RX Interrupt */
 193:.\Generated_Source\PSoC5/UART_OSDP.c ****         UART_OSDP_RXSTATUS_ACTL_REG  |= UART_OSDP_INT_ENABLE;
  89              		.loc 1 193 0
  90 000a A3F58273 		sub	r3, r3, #260
 190:.\Generated_Source\PSoC5/UART_OSDP.c ****         UART_OSDP_RXBITCTR_CONTROL_REG |= UART_OSDP_CNTR_ENABLE;
  91              		.loc 1 190 0
ARM GAS  C:\Users\Yiquing\AppData\Local\Temp\ccvaGiH9.s 			page 6


  92 000e 42F02002 		orr	r2, r2, #32
  93 0012 83F80421 		strb	r2, [r3, #260]
  94              		.loc 1 193 0
  95 0016 1A78     		ldrb	r2, [r3]	@ zero_extendqisi2
  96 0018 42F01002 		orr	r2, r2, #16
  97 001c 1A70     		strb	r2, [r3]
 194:.\Generated_Source\PSoC5/UART_OSDP.c **** 
 195:.\Generated_Source\PSoC5/UART_OSDP.c ****         #if (UART_OSDP_RX_INTERRUPT_ENABLED)
 196:.\Generated_Source\PSoC5/UART_OSDP.c ****             UART_OSDP_EnableRxInt();
  98              		.loc 1 196 0
  99 001e 044B     		ldr	r3, .L5+4
 100 0020 0122     		movs	r2, #1
 101 0022 1A60     		str	r2, [r3]
 197:.\Generated_Source\PSoC5/UART_OSDP.c **** 
 198:.\Generated_Source\PSoC5/UART_OSDP.c ****             #if (UART_OSDP_RXHW_ADDRESS_ENABLED)
 199:.\Generated_Source\PSoC5/UART_OSDP.c ****                 UART_OSDP_rxAddressDetected = 0u;
 200:.\Generated_Source\PSoC5/UART_OSDP.c ****             #endif /* (UART_OSDP_RXHW_ADDRESS_ENABLED) */
 201:.\Generated_Source\PSoC5/UART_OSDP.c ****         #endif /* (UART_OSDP_RX_INTERRUPT_ENABLED) */
 202:.\Generated_Source\PSoC5/UART_OSDP.c ****     #endif /* (UART_OSDP_RX_ENABLED || UART_OSDP_HD_ENABLED) */
 203:.\Generated_Source\PSoC5/UART_OSDP.c **** 
 204:.\Generated_Source\PSoC5/UART_OSDP.c ****     #if(UART_OSDP_TX_ENABLED)
 205:.\Generated_Source\PSoC5/UART_OSDP.c ****         /* TX Counter (DP/Count7) Enable */
 206:.\Generated_Source\PSoC5/UART_OSDP.c ****         #if(!UART_OSDP_TXCLKGEN_DP)
 207:.\Generated_Source\PSoC5/UART_OSDP.c ****             UART_OSDP_TXBITCTR_CONTROL_REG |= UART_OSDP_CNTR_ENABLE;
 208:.\Generated_Source\PSoC5/UART_OSDP.c ****         #endif /* End UART_OSDP_TXCLKGEN_DP */
 209:.\Generated_Source\PSoC5/UART_OSDP.c **** 
 210:.\Generated_Source\PSoC5/UART_OSDP.c ****         /* Enable the TX Interrupt */
 211:.\Generated_Source\PSoC5/UART_OSDP.c ****         UART_OSDP_TXSTATUS_ACTL_REG |= UART_OSDP_INT_ENABLE;
 212:.\Generated_Source\PSoC5/UART_OSDP.c ****         #if (UART_OSDP_TX_INTERRUPT_ENABLED)
 213:.\Generated_Source\PSoC5/UART_OSDP.c ****             UART_OSDP_ClearPendingTxInt(); /* Clear history of TX_NOT_EMPTY */
 214:.\Generated_Source\PSoC5/UART_OSDP.c ****             UART_OSDP_EnableTxInt();
 215:.\Generated_Source\PSoC5/UART_OSDP.c ****         #endif /* (UART_OSDP_TX_INTERRUPT_ENABLED) */
 216:.\Generated_Source\PSoC5/UART_OSDP.c ****      #endif /* (UART_OSDP_TX_INTERRUPT_ENABLED) */
 217:.\Generated_Source\PSoC5/UART_OSDP.c **** 
 218:.\Generated_Source\PSoC5/UART_OSDP.c ****     #if (UART_OSDP_INTERNAL_CLOCK_USED)
 219:.\Generated_Source\PSoC5/UART_OSDP.c ****         UART_OSDP_IntClock_Start();  /* Enable the clock */
 220:.\Generated_Source\PSoC5/UART_OSDP.c ****     #endif /* (UART_OSDP_INTERNAL_CLOCK_USED) */
 221:.\Generated_Source\PSoC5/UART_OSDP.c **** 
 222:.\Generated_Source\PSoC5/UART_OSDP.c ****     CyExitCriticalSection(enableInterrupts);
 223:.\Generated_Source\PSoC5/UART_OSDP.c **** }
 102              		.loc 1 223 0
 103 0024 BDE80840 		pop	{r3, lr}
 222:.\Generated_Source\PSoC5/UART_OSDP.c ****     CyExitCriticalSection(enableInterrupts);
 104              		.loc 1 222 0
 105 0028 FFF7FEBF 		b	CyExitCriticalSection
 106              	.LVL3:
 107              	.L6:
 108              		.align	2
 109              	.L5:
 110 002c 96650040 		.word	1073767830
 111 0030 00E100E0 		.word	-536813312
 112              		.cfi_endproc
 113              	.LFE2:
 114              		.size	UART_OSDP_Enable, .-UART_OSDP_Enable
 115              		.section	.text.UART_OSDP_Start,"ax",%progbits
 116              		.align	1
 117              		.global	UART_OSDP_Start
ARM GAS  C:\Users\Yiquing\AppData\Local\Temp\ccvaGiH9.s 			page 7


 118              		.thumb
 119              		.thumb_func
 120              		.type	UART_OSDP_Start, %function
 121              	UART_OSDP_Start:
 122              	.LFB0:
  77:.\Generated_Source\PSoC5/UART_OSDP.c **** {
 123              		.loc 1 77 0
 124              		.cfi_startproc
 125              		@ args = 0, pretend = 0, frame = 0
 126              		@ frame_needed = 0, uses_anonymous_args = 0
 127 0000 10B5     		push	{r4, lr}
 128              		.cfi_def_cfa_offset 8
 129              		.cfi_offset 4, -8
 130              		.cfi_offset 14, -4
  79:.\Generated_Source\PSoC5/UART_OSDP.c ****     if(UART_OSDP_initVar == 0u)
 131              		.loc 1 79 0
 132 0002 054C     		ldr	r4, .L10
 133 0004 6378     		ldrb	r3, [r4, #1]	@ zero_extendqisi2
 134 0006 1BB9     		cbnz	r3, .L8
  81:.\Generated_Source\PSoC5/UART_OSDP.c ****         UART_OSDP_Init();
 135              		.loc 1 81 0
 136 0008 FFF7FEFF 		bl	UART_OSDP_Init
 137              	.LVL4:
  82:.\Generated_Source\PSoC5/UART_OSDP.c ****         UART_OSDP_initVar = 1u;
 138              		.loc 1 82 0
 139 000c 0123     		movs	r3, #1
 140 000e 6370     		strb	r3, [r4, #1]
 141              	.L8:
  86:.\Generated_Source\PSoC5/UART_OSDP.c **** }
 142              		.loc 1 86 0
 143 0010 BDE81040 		pop	{r4, lr}
  85:.\Generated_Source\PSoC5/UART_OSDP.c ****     UART_OSDP_Enable();
 144              		.loc 1 85 0
 145 0014 FFF7FEBF 		b	UART_OSDP_Enable
 146              	.LVL5:
 147              	.L11:
 148              		.align	2
 149              	.L10:
 150 0018 00000000 		.word	.LANCHOR0
 151              		.cfi_endproc
 152              	.LFE0:
 153              		.size	UART_OSDP_Start, .-UART_OSDP_Start
 154              		.section	.text.UART_OSDP_Stop,"ax",%progbits
 155              		.align	1
 156              		.global	UART_OSDP_Stop
 157              		.thumb
 158              		.thumb_func
 159              		.type	UART_OSDP_Stop, %function
 160              	UART_OSDP_Stop:
 161              	.LFB3:
 224:.\Generated_Source\PSoC5/UART_OSDP.c **** 
 225:.\Generated_Source\PSoC5/UART_OSDP.c **** 
 226:.\Generated_Source\PSoC5/UART_OSDP.c **** /*******************************************************************************
 227:.\Generated_Source\PSoC5/UART_OSDP.c **** * Function Name: UART_OSDP_Stop
 228:.\Generated_Source\PSoC5/UART_OSDP.c **** ********************************************************************************
 229:.\Generated_Source\PSoC5/UART_OSDP.c **** *
 230:.\Generated_Source\PSoC5/UART_OSDP.c **** * Summary:
ARM GAS  C:\Users\Yiquing\AppData\Local\Temp\ccvaGiH9.s 			page 8


 231:.\Generated_Source\PSoC5/UART_OSDP.c **** *  Disables the UART operation.
 232:.\Generated_Source\PSoC5/UART_OSDP.c **** *
 233:.\Generated_Source\PSoC5/UART_OSDP.c **** * Parameters:
 234:.\Generated_Source\PSoC5/UART_OSDP.c **** *  None.
 235:.\Generated_Source\PSoC5/UART_OSDP.c **** *
 236:.\Generated_Source\PSoC5/UART_OSDP.c **** * Return:
 237:.\Generated_Source\PSoC5/UART_OSDP.c **** *  None.
 238:.\Generated_Source\PSoC5/UART_OSDP.c **** *
 239:.\Generated_Source\PSoC5/UART_OSDP.c **** *******************************************************************************/
 240:.\Generated_Source\PSoC5/UART_OSDP.c **** void UART_OSDP_Stop(void) 
 241:.\Generated_Source\PSoC5/UART_OSDP.c **** {
 162              		.loc 1 241 0
 163              		.cfi_startproc
 164              		@ args = 0, pretend = 0, frame = 0
 165              		@ frame_needed = 0, uses_anonymous_args = 0
 166 0000 08B5     		push	{r3, lr}
 167              		.cfi_def_cfa_offset 8
 168              		.cfi_offset 3, -8
 169              		.cfi_offset 14, -4
 242:.\Generated_Source\PSoC5/UART_OSDP.c ****     uint8 enableInterrupts;
 243:.\Generated_Source\PSoC5/UART_OSDP.c ****     enableInterrupts = CyEnterCriticalSection();
 170              		.loc 1 243 0
 171 0002 FFF7FEFF 		bl	CyEnterCriticalSection
 172              	.LVL6:
 244:.\Generated_Source\PSoC5/UART_OSDP.c **** 
 245:.\Generated_Source\PSoC5/UART_OSDP.c ****     /* Write Bit Counter Disable */
 246:.\Generated_Source\PSoC5/UART_OSDP.c ****     #if (UART_OSDP_RX_ENABLED || UART_OSDP_HD_ENABLED)
 247:.\Generated_Source\PSoC5/UART_OSDP.c ****         UART_OSDP_RXBITCTR_CONTROL_REG &= (uint8) ~UART_OSDP_CNTR_ENABLE;
 173              		.loc 1 247 0
 174 0006 094B     		ldr	r3, .L13
 175 0008 1A78     		ldrb	r2, [r3]	@ zero_extendqisi2
 248:.\Generated_Source\PSoC5/UART_OSDP.c ****     #endif /* (UART_OSDP_RX_ENABLED || UART_OSDP_HD_ENABLED) */
 249:.\Generated_Source\PSoC5/UART_OSDP.c **** 
 250:.\Generated_Source\PSoC5/UART_OSDP.c ****     #if (UART_OSDP_TX_ENABLED)
 251:.\Generated_Source\PSoC5/UART_OSDP.c ****         #if(!UART_OSDP_TXCLKGEN_DP)
 252:.\Generated_Source\PSoC5/UART_OSDP.c ****             UART_OSDP_TXBITCTR_CONTROL_REG &= (uint8) ~UART_OSDP_CNTR_ENABLE;
 253:.\Generated_Source\PSoC5/UART_OSDP.c ****         #endif /* (!UART_OSDP_TXCLKGEN_DP) */
 254:.\Generated_Source\PSoC5/UART_OSDP.c ****     #endif /* (UART_OSDP_TX_ENABLED) */
 255:.\Generated_Source\PSoC5/UART_OSDP.c **** 
 256:.\Generated_Source\PSoC5/UART_OSDP.c ****     #if (UART_OSDP_INTERNAL_CLOCK_USED)
 257:.\Generated_Source\PSoC5/UART_OSDP.c ****         UART_OSDP_IntClock_Stop();   /* Disable the clock */
 258:.\Generated_Source\PSoC5/UART_OSDP.c ****     #endif /* (UART_OSDP_INTERNAL_CLOCK_USED) */
 259:.\Generated_Source\PSoC5/UART_OSDP.c **** 
 260:.\Generated_Source\PSoC5/UART_OSDP.c ****     /* Disable internal interrupt component */
 261:.\Generated_Source\PSoC5/UART_OSDP.c ****     #if (UART_OSDP_RX_ENABLED || UART_OSDP_HD_ENABLED)
 262:.\Generated_Source\PSoC5/UART_OSDP.c ****         UART_OSDP_RXSTATUS_ACTL_REG  &= (uint8) ~UART_OSDP_INT_ENABLE;
 176              		.loc 1 262 0
 177 000a A3F58273 		sub	r3, r3, #260
 247:.\Generated_Source\PSoC5/UART_OSDP.c ****         UART_OSDP_RXBITCTR_CONTROL_REG &= (uint8) ~UART_OSDP_CNTR_ENABLE;
 178              		.loc 1 247 0
 179 000e 02F0DF02 		and	r2, r2, #223
 180 0012 83F80421 		strb	r2, [r3, #260]
 181              		.loc 1 262 0
 182 0016 1A78     		ldrb	r2, [r3]	@ zero_extendqisi2
 183 0018 02F0EF02 		and	r2, r2, #239
 184 001c 1A70     		strb	r2, [r3]
 263:.\Generated_Source\PSoC5/UART_OSDP.c **** 
ARM GAS  C:\Users\Yiquing\AppData\Local\Temp\ccvaGiH9.s 			page 9


 264:.\Generated_Source\PSoC5/UART_OSDP.c ****         #if (UART_OSDP_RX_INTERRUPT_ENABLED)
 265:.\Generated_Source\PSoC5/UART_OSDP.c ****             UART_OSDP_DisableRxInt();
 185              		.loc 1 265 0
 186 001e 044B     		ldr	r3, .L13+4
 187 0020 0122     		movs	r2, #1
 188 0022 1A60     		str	r2, [r3]
 266:.\Generated_Source\PSoC5/UART_OSDP.c ****         #endif /* (UART_OSDP_RX_INTERRUPT_ENABLED) */
 267:.\Generated_Source\PSoC5/UART_OSDP.c ****     #endif /* (UART_OSDP_RX_ENABLED || UART_OSDP_HD_ENABLED) */
 268:.\Generated_Source\PSoC5/UART_OSDP.c **** 
 269:.\Generated_Source\PSoC5/UART_OSDP.c ****     #if (UART_OSDP_TX_ENABLED)
 270:.\Generated_Source\PSoC5/UART_OSDP.c ****         UART_OSDP_TXSTATUS_ACTL_REG &= (uint8) ~UART_OSDP_INT_ENABLE;
 271:.\Generated_Source\PSoC5/UART_OSDP.c **** 
 272:.\Generated_Source\PSoC5/UART_OSDP.c ****         #if (UART_OSDP_TX_INTERRUPT_ENABLED)
 273:.\Generated_Source\PSoC5/UART_OSDP.c ****             UART_OSDP_DisableTxInt();
 274:.\Generated_Source\PSoC5/UART_OSDP.c ****         #endif /* (UART_OSDP_TX_INTERRUPT_ENABLED) */
 275:.\Generated_Source\PSoC5/UART_OSDP.c ****     #endif /* (UART_OSDP_TX_ENABLED) */
 276:.\Generated_Source\PSoC5/UART_OSDP.c **** 
 277:.\Generated_Source\PSoC5/UART_OSDP.c ****     CyExitCriticalSection(enableInterrupts);
 278:.\Generated_Source\PSoC5/UART_OSDP.c **** }
 189              		.loc 1 278 0
 190 0024 BDE80840 		pop	{r3, lr}
 277:.\Generated_Source\PSoC5/UART_OSDP.c ****     CyExitCriticalSection(enableInterrupts);
 191              		.loc 1 277 0
 192 0028 FFF7FEBF 		b	CyExitCriticalSection
 193              	.LVL7:
 194              	.L14:
 195              		.align	2
 196              	.L13:
 197 002c 96650040 		.word	1073767830
 198 0030 80E100E0 		.word	-536813184
 199              		.cfi_endproc
 200              	.LFE3:
 201              		.size	UART_OSDP_Stop, .-UART_OSDP_Stop
 202              		.section	.text.UART_OSDP_ReadControlRegister,"ax",%progbits
 203              		.align	1
 204              		.global	UART_OSDP_ReadControlRegister
 205              		.thumb
 206              		.thumb_func
 207              		.type	UART_OSDP_ReadControlRegister, %function
 208              	UART_OSDP_ReadControlRegister:
 209              	.LFB4:
 279:.\Generated_Source\PSoC5/UART_OSDP.c **** 
 280:.\Generated_Source\PSoC5/UART_OSDP.c **** 
 281:.\Generated_Source\PSoC5/UART_OSDP.c **** /*******************************************************************************
 282:.\Generated_Source\PSoC5/UART_OSDP.c **** * Function Name: UART_OSDP_ReadControlRegister
 283:.\Generated_Source\PSoC5/UART_OSDP.c **** ********************************************************************************
 284:.\Generated_Source\PSoC5/UART_OSDP.c **** *
 285:.\Generated_Source\PSoC5/UART_OSDP.c **** * Summary:
 286:.\Generated_Source\PSoC5/UART_OSDP.c **** *  Returns the current value of the control register.
 287:.\Generated_Source\PSoC5/UART_OSDP.c **** *
 288:.\Generated_Source\PSoC5/UART_OSDP.c **** * Parameters:
 289:.\Generated_Source\PSoC5/UART_OSDP.c **** *  None.
 290:.\Generated_Source\PSoC5/UART_OSDP.c **** *
 291:.\Generated_Source\PSoC5/UART_OSDP.c **** * Return:
 292:.\Generated_Source\PSoC5/UART_OSDP.c **** *  Contents of the control register.
 293:.\Generated_Source\PSoC5/UART_OSDP.c **** *
 294:.\Generated_Source\PSoC5/UART_OSDP.c **** *******************************************************************************/
ARM GAS  C:\Users\Yiquing\AppData\Local\Temp\ccvaGiH9.s 			page 10


 295:.\Generated_Source\PSoC5/UART_OSDP.c **** uint8 UART_OSDP_ReadControlRegister(void) 
 296:.\Generated_Source\PSoC5/UART_OSDP.c **** {
 210              		.loc 1 296 0
 211              		.cfi_startproc
 212              		@ args = 0, pretend = 0, frame = 0
 213              		@ frame_needed = 0, uses_anonymous_args = 0
 214              		@ link register save eliminated.
 297:.\Generated_Source\PSoC5/UART_OSDP.c ****     #if (UART_OSDP_CONTROL_REG_REMOVED)
 298:.\Generated_Source\PSoC5/UART_OSDP.c ****         return(0u);
 299:.\Generated_Source\PSoC5/UART_OSDP.c ****     #else
 300:.\Generated_Source\PSoC5/UART_OSDP.c ****         return(UART_OSDP_CONTROL_REG);
 215              		.loc 1 300 0
 216 0000 014B     		ldr	r3, .L16
 217 0002 1878     		ldrb	r0, [r3]	@ zero_extendqisi2
 301:.\Generated_Source\PSoC5/UART_OSDP.c ****     #endif /* (UART_OSDP_CONTROL_REG_REMOVED) */
 302:.\Generated_Source\PSoC5/UART_OSDP.c **** }
 218              		.loc 1 302 0
 219 0004 7047     		bx	lr
 220              	.L17:
 221 0006 00BF     		.align	2
 222              	.L16:
 223 0008 75650040 		.word	1073767797
 224              		.cfi_endproc
 225              	.LFE4:
 226              		.size	UART_OSDP_ReadControlRegister, .-UART_OSDP_ReadControlRegister
 227              		.section	.text.UART_OSDP_WriteControlRegister,"ax",%progbits
 228              		.align	1
 229              		.global	UART_OSDP_WriteControlRegister
 230              		.thumb
 231              		.thumb_func
 232              		.type	UART_OSDP_WriteControlRegister, %function
 233              	UART_OSDP_WriteControlRegister:
 234              	.LFB5:
 303:.\Generated_Source\PSoC5/UART_OSDP.c **** 
 304:.\Generated_Source\PSoC5/UART_OSDP.c **** 
 305:.\Generated_Source\PSoC5/UART_OSDP.c **** /*******************************************************************************
 306:.\Generated_Source\PSoC5/UART_OSDP.c **** * Function Name: UART_OSDP_WriteControlRegister
 307:.\Generated_Source\PSoC5/UART_OSDP.c **** ********************************************************************************
 308:.\Generated_Source\PSoC5/UART_OSDP.c **** *
 309:.\Generated_Source\PSoC5/UART_OSDP.c **** * Summary:
 310:.\Generated_Source\PSoC5/UART_OSDP.c **** *  Writes an 8-bit value into the control register
 311:.\Generated_Source\PSoC5/UART_OSDP.c **** *
 312:.\Generated_Source\PSoC5/UART_OSDP.c **** * Parameters:
 313:.\Generated_Source\PSoC5/UART_OSDP.c **** *  control:  control register value
 314:.\Generated_Source\PSoC5/UART_OSDP.c **** *
 315:.\Generated_Source\PSoC5/UART_OSDP.c **** * Return:
 316:.\Generated_Source\PSoC5/UART_OSDP.c **** *  None.
 317:.\Generated_Source\PSoC5/UART_OSDP.c **** *
 318:.\Generated_Source\PSoC5/UART_OSDP.c **** *******************************************************************************/
 319:.\Generated_Source\PSoC5/UART_OSDP.c **** void  UART_OSDP_WriteControlRegister(uint8 control) 
 320:.\Generated_Source\PSoC5/UART_OSDP.c **** {
 235              		.loc 1 320 0
 236              		.cfi_startproc
 237              		@ args = 0, pretend = 0, frame = 0
 238              		@ frame_needed = 0, uses_anonymous_args = 0
 239              		@ link register save eliminated.
 240              	.LVL8:
ARM GAS  C:\Users\Yiquing\AppData\Local\Temp\ccvaGiH9.s 			page 11


 321:.\Generated_Source\PSoC5/UART_OSDP.c ****     #if (UART_OSDP_CONTROL_REG_REMOVED)
 322:.\Generated_Source\PSoC5/UART_OSDP.c ****         if(0u != control)
 323:.\Generated_Source\PSoC5/UART_OSDP.c ****         {
 324:.\Generated_Source\PSoC5/UART_OSDP.c ****             /* Suppress compiler warning */
 325:.\Generated_Source\PSoC5/UART_OSDP.c ****         }
 326:.\Generated_Source\PSoC5/UART_OSDP.c ****     #else
 327:.\Generated_Source\PSoC5/UART_OSDP.c ****        UART_OSDP_CONTROL_REG = control;
 241              		.loc 1 327 0
 242 0000 014B     		ldr	r3, .L19
 243 0002 1870     		strb	r0, [r3]
 244 0004 7047     		bx	lr
 245              	.L20:
 246 0006 00BF     		.align	2
 247              	.L19:
 248 0008 75650040 		.word	1073767797
 249              		.cfi_endproc
 250              	.LFE5:
 251              		.size	UART_OSDP_WriteControlRegister, .-UART_OSDP_WriteControlRegister
 252              		.section	.text.UART_OSDP_SetRxInterruptMode,"ax",%progbits
 253              		.align	1
 254              		.global	UART_OSDP_SetRxInterruptMode
 255              		.thumb
 256              		.thumb_func
 257              		.type	UART_OSDP_SetRxInterruptMode, %function
 258              	UART_OSDP_SetRxInterruptMode:
 259              	.LFB6:
 328:.\Generated_Source\PSoC5/UART_OSDP.c ****     #endif /* (UART_OSDP_CONTROL_REG_REMOVED) */
 329:.\Generated_Source\PSoC5/UART_OSDP.c **** }
 330:.\Generated_Source\PSoC5/UART_OSDP.c **** 
 331:.\Generated_Source\PSoC5/UART_OSDP.c **** 
 332:.\Generated_Source\PSoC5/UART_OSDP.c **** #if(UART_OSDP_RX_ENABLED || UART_OSDP_HD_ENABLED)
 333:.\Generated_Source\PSoC5/UART_OSDP.c ****     /*******************************************************************************
 334:.\Generated_Source\PSoC5/UART_OSDP.c ****     * Function Name: UART_OSDP_SetRxInterruptMode
 335:.\Generated_Source\PSoC5/UART_OSDP.c ****     ********************************************************************************
 336:.\Generated_Source\PSoC5/UART_OSDP.c ****     *
 337:.\Generated_Source\PSoC5/UART_OSDP.c ****     * Summary:
 338:.\Generated_Source\PSoC5/UART_OSDP.c ****     *  Configures the RX interrupt sources enabled.
 339:.\Generated_Source\PSoC5/UART_OSDP.c ****     *
 340:.\Generated_Source\PSoC5/UART_OSDP.c ****     * Parameters:
 341:.\Generated_Source\PSoC5/UART_OSDP.c ****     *  IntSrc:  Bit field containing the RX interrupts to enable. Based on the 
 342:.\Generated_Source\PSoC5/UART_OSDP.c ****     *  bit-field arrangement of the status register. This value must be a 
 343:.\Generated_Source\PSoC5/UART_OSDP.c ****     *  combination of status register bit-masks shown below:
 344:.\Generated_Source\PSoC5/UART_OSDP.c ****     *      UART_OSDP_RX_STS_FIFO_NOTEMPTY    Interrupt on byte received.
 345:.\Generated_Source\PSoC5/UART_OSDP.c ****     *      UART_OSDP_RX_STS_PAR_ERROR        Interrupt on parity error.
 346:.\Generated_Source\PSoC5/UART_OSDP.c ****     *      UART_OSDP_RX_STS_STOP_ERROR       Interrupt on stop error.
 347:.\Generated_Source\PSoC5/UART_OSDP.c ****     *      UART_OSDP_RX_STS_BREAK            Interrupt on break.
 348:.\Generated_Source\PSoC5/UART_OSDP.c ****     *      UART_OSDP_RX_STS_OVERRUN          Interrupt on overrun error.
 349:.\Generated_Source\PSoC5/UART_OSDP.c ****     *      UART_OSDP_RX_STS_ADDR_MATCH       Interrupt on address match.
 350:.\Generated_Source\PSoC5/UART_OSDP.c ****     *      UART_OSDP_RX_STS_MRKSPC           Interrupt on address detect.
 351:.\Generated_Source\PSoC5/UART_OSDP.c ****     *
 352:.\Generated_Source\PSoC5/UART_OSDP.c ****     * Return:
 353:.\Generated_Source\PSoC5/UART_OSDP.c ****     *  None.
 354:.\Generated_Source\PSoC5/UART_OSDP.c ****     *
 355:.\Generated_Source\PSoC5/UART_OSDP.c ****     * Theory:
 356:.\Generated_Source\PSoC5/UART_OSDP.c ****     *  Enables the output of specific status bits to the interrupt controller
 357:.\Generated_Source\PSoC5/UART_OSDP.c ****     *
 358:.\Generated_Source\PSoC5/UART_OSDP.c ****     *******************************************************************************/
ARM GAS  C:\Users\Yiquing\AppData\Local\Temp\ccvaGiH9.s 			page 12


 359:.\Generated_Source\PSoC5/UART_OSDP.c ****     void UART_OSDP_SetRxInterruptMode(uint8 intSrc) 
 360:.\Generated_Source\PSoC5/UART_OSDP.c ****     {
 260              		.loc 1 360 0
 261              		.cfi_startproc
 262              		@ args = 0, pretend = 0, frame = 0
 263              		@ frame_needed = 0, uses_anonymous_args = 0
 264              		@ link register save eliminated.
 265              	.LVL9:
 361:.\Generated_Source\PSoC5/UART_OSDP.c ****         UART_OSDP_RXSTATUS_MASK_REG  = intSrc;
 266              		.loc 1 361 0
 267 0000 014B     		ldr	r3, .L22
 268 0002 1870     		strb	r0, [r3]
 269 0004 7047     		bx	lr
 270              	.L23:
 271 0006 00BF     		.align	2
 272              	.L22:
 273 0008 82640040 		.word	1073767554
 274              		.cfi_endproc
 275              	.LFE6:
 276              		.size	UART_OSDP_SetRxInterruptMode, .-UART_OSDP_SetRxInterruptMode
 277              		.section	.text.UART_OSDP_ReadRxData,"ax",%progbits
 278              		.align	1
 279              		.global	UART_OSDP_ReadRxData
 280              		.thumb
 281              		.thumb_func
 282              		.type	UART_OSDP_ReadRxData, %function
 283              	UART_OSDP_ReadRxData:
 284              	.LFB7:
 362:.\Generated_Source\PSoC5/UART_OSDP.c ****     }
 363:.\Generated_Source\PSoC5/UART_OSDP.c **** 
 364:.\Generated_Source\PSoC5/UART_OSDP.c **** 
 365:.\Generated_Source\PSoC5/UART_OSDP.c ****     /*******************************************************************************
 366:.\Generated_Source\PSoC5/UART_OSDP.c ****     * Function Name: UART_OSDP_ReadRxData
 367:.\Generated_Source\PSoC5/UART_OSDP.c ****     ********************************************************************************
 368:.\Generated_Source\PSoC5/UART_OSDP.c ****     *
 369:.\Generated_Source\PSoC5/UART_OSDP.c ****     * Summary:
 370:.\Generated_Source\PSoC5/UART_OSDP.c ****     *  Returns the next byte of received data. This function returns data without
 371:.\Generated_Source\PSoC5/UART_OSDP.c ****     *  checking the status. You must check the status separately.
 372:.\Generated_Source\PSoC5/UART_OSDP.c ****     *
 373:.\Generated_Source\PSoC5/UART_OSDP.c ****     * Parameters:
 374:.\Generated_Source\PSoC5/UART_OSDP.c ****     *  None.
 375:.\Generated_Source\PSoC5/UART_OSDP.c ****     *
 376:.\Generated_Source\PSoC5/UART_OSDP.c ****     * Return:
 377:.\Generated_Source\PSoC5/UART_OSDP.c ****     *  Received data from RX register
 378:.\Generated_Source\PSoC5/UART_OSDP.c ****     *
 379:.\Generated_Source\PSoC5/UART_OSDP.c ****     * Global Variables:
 380:.\Generated_Source\PSoC5/UART_OSDP.c ****     *  UART_OSDP_rxBuffer - RAM buffer pointer for save received data.
 381:.\Generated_Source\PSoC5/UART_OSDP.c ****     *  UART_OSDP_rxBufferWrite - cyclic index for write to rxBuffer,
 382:.\Generated_Source\PSoC5/UART_OSDP.c ****     *     checked to identify new data.
 383:.\Generated_Source\PSoC5/UART_OSDP.c ****     *  UART_OSDP_rxBufferRead - cyclic index for read from rxBuffer,
 384:.\Generated_Source\PSoC5/UART_OSDP.c ****     *     incremented after each byte has been read from buffer.
 385:.\Generated_Source\PSoC5/UART_OSDP.c ****     *  UART_OSDP_rxBufferLoopDetect - cleared if loop condition was detected
 386:.\Generated_Source\PSoC5/UART_OSDP.c ****     *     in RX ISR.
 387:.\Generated_Source\PSoC5/UART_OSDP.c ****     *
 388:.\Generated_Source\PSoC5/UART_OSDP.c ****     * Reentrant:
 389:.\Generated_Source\PSoC5/UART_OSDP.c ****     *  No.
 390:.\Generated_Source\PSoC5/UART_OSDP.c ****     *
ARM GAS  C:\Users\Yiquing\AppData\Local\Temp\ccvaGiH9.s 			page 13


 391:.\Generated_Source\PSoC5/UART_OSDP.c ****     *******************************************************************************/
 392:.\Generated_Source\PSoC5/UART_OSDP.c ****     uint8 UART_OSDP_ReadRxData(void) 
 393:.\Generated_Source\PSoC5/UART_OSDP.c ****     {
 285              		.loc 1 393 0
 286              		.cfi_startproc
 287              		@ args = 0, pretend = 0, frame = 0
 288              		@ frame_needed = 0, uses_anonymous_args = 0
 289              		@ link register save eliminated.
 394:.\Generated_Source\PSoC5/UART_OSDP.c ****         uint8 rxData;
 395:.\Generated_Source\PSoC5/UART_OSDP.c **** 
 396:.\Generated_Source\PSoC5/UART_OSDP.c ****     #if (UART_OSDP_RX_INTERRUPT_ENABLED)
 397:.\Generated_Source\PSoC5/UART_OSDP.c **** 
 398:.\Generated_Source\PSoC5/UART_OSDP.c ****         uint16 locRxBufferRead;
 399:.\Generated_Source\PSoC5/UART_OSDP.c ****         uint16 locRxBufferWrite;
 400:.\Generated_Source\PSoC5/UART_OSDP.c **** 
 401:.\Generated_Source\PSoC5/UART_OSDP.c ****         /* Protect variables that could change on interrupt */
 402:.\Generated_Source\PSoC5/UART_OSDP.c ****         UART_OSDP_DisableRxInt();
 290              		.loc 1 402 0
 291 0000 114B     		ldr	r3, .L33
 292 0002 0122     		movs	r2, #1
 293 0004 1A60     		str	r2, [r3]
 403:.\Generated_Source\PSoC5/UART_OSDP.c **** 
 404:.\Generated_Source\PSoC5/UART_OSDP.c ****         locRxBufferRead  = UART_OSDP_rxBufferRead;
 294              		.loc 1 404 0
 295 0006 114A     		ldr	r2, .L33+4
 296 0008 5388     		ldrh	r3, [r2, #2]
 405:.\Generated_Source\PSoC5/UART_OSDP.c ****         locRxBufferWrite = UART_OSDP_rxBufferWrite;
 297              		.loc 1 405 0
 298 000a 9188     		ldrh	r1, [r2, #4]
 406:.\Generated_Source\PSoC5/UART_OSDP.c **** 
 407:.\Generated_Source\PSoC5/UART_OSDP.c ****         if( (UART_OSDP_rxBufferLoopDetect != 0u) || (locRxBufferRead != locRxBufferWrite) )
 299              		.loc 1 407 0
 300 000c 9079     		ldrb	r0, [r2, #6]	@ zero_extendqisi2
 404:.\Generated_Source\PSoC5/UART_OSDP.c ****         locRxBufferRead  = UART_OSDP_rxBufferRead;
 301              		.loc 1 404 0
 302 000e 9BB2     		uxth	r3, r3
 303              	.LVL10:
 405:.\Generated_Source\PSoC5/UART_OSDP.c ****         locRxBufferWrite = UART_OSDP_rxBufferWrite;
 304              		.loc 1 405 0
 305 0010 89B2     		uxth	r1, r1
 306              	.LVL11:
 307              		.loc 1 407 0
 308 0012 08B9     		cbnz	r0, .L25
 309              		.loc 1 407 0 is_stmt 0 discriminator 1
 310 0014 8B42     		cmp	r3, r1
 311 0016 0FD0     		beq	.L26
 312              	.L25:
 408:.\Generated_Source\PSoC5/UART_OSDP.c ****         {
 409:.\Generated_Source\PSoC5/UART_OSDP.c ****             rxData = UART_OSDP_rxBuffer[locRxBufferRead];
 313              		.loc 1 409 0 is_stmt 1
 314 0018 0D49     		ldr	r1, .L33+8
 315              	.LVL12:
 316 001a C85C     		ldrb	r0, [r1, r3]	@ zero_extendqisi2
 410:.\Generated_Source\PSoC5/UART_OSDP.c ****             locRxBufferRead++;
 317              		.loc 1 410 0
 318 001c 0133     		adds	r3, r3, #1
 319              	.LVL13:
ARM GAS  C:\Users\Yiquing\AppData\Local\Temp\ccvaGiH9.s 			page 14


 320 001e 9BB2     		uxth	r3, r3
 321              	.LVL14:
 411:.\Generated_Source\PSoC5/UART_OSDP.c **** 
 412:.\Generated_Source\PSoC5/UART_OSDP.c ****             if(locRxBufferRead >= UART_OSDP_RX_BUFFER_SIZE)
 413:.\Generated_Source\PSoC5/UART_OSDP.c ****             {
 414:.\Generated_Source\PSoC5/UART_OSDP.c ****                 locRxBufferRead = 0u;
 322              		.loc 1 414 0
 323 0020 B3F5807F 		cmp	r3, #256
 324 0024 28BF     		it	cs
 325 0026 0023     		movcs	r3, #0
 415:.\Generated_Source\PSoC5/UART_OSDP.c ****             }
 416:.\Generated_Source\PSoC5/UART_OSDP.c ****             /* Update the real pointer */
 417:.\Generated_Source\PSoC5/UART_OSDP.c ****             UART_OSDP_rxBufferRead = locRxBufferRead;
 326              		.loc 1 417 0
 327 0028 5380     		strh	r3, [r2, #2]	@ movhi
 418:.\Generated_Source\PSoC5/UART_OSDP.c **** 
 419:.\Generated_Source\PSoC5/UART_OSDP.c ****             if(UART_OSDP_rxBufferLoopDetect != 0u)
 328              		.loc 1 419 0
 329 002a 9379     		ldrb	r3, [r2, #6]	@ zero_extendqisi2
 409:.\Generated_Source\PSoC5/UART_OSDP.c ****             rxData = UART_OSDP_rxBuffer[locRxBufferRead];
 330              		.loc 1 409 0
 331 002c C0B2     		uxtb	r0, r0
 332              	.LVL15:
 333              		.loc 1 419 0
 334 002e 33B1     		cbz	r3, .L28
 420:.\Generated_Source\PSoC5/UART_OSDP.c ****             {
 421:.\Generated_Source\PSoC5/UART_OSDP.c ****                 UART_OSDP_rxBufferLoopDetect = 0u;
 335              		.loc 1 421 0
 336 0030 064B     		ldr	r3, .L33+4
 337 0032 0022     		movs	r2, #0
 338 0034 9A71     		strb	r2, [r3, #6]
 339 0036 02E0     		b	.L28
 340              	.LVL16:
 341              	.L26:
 422:.\Generated_Source\PSoC5/UART_OSDP.c ****                 #if ((UART_OSDP_RX_INTERRUPT_ENABLED) && (UART_OSDP_FLOW_CONTROL != 0u))
 423:.\Generated_Source\PSoC5/UART_OSDP.c ****                     /* When Hardware Flow Control selected - return RX mask */
 424:.\Generated_Source\PSoC5/UART_OSDP.c ****                     #if( UART_OSDP_HD_ENABLED )
 425:.\Generated_Source\PSoC5/UART_OSDP.c ****                         if((UART_OSDP_CONTROL_REG & UART_OSDP_CTRL_HD_SEND) == 0u)
 426:.\Generated_Source\PSoC5/UART_OSDP.c ****                         {   /* In Half duplex mode return RX mask only in RX
 427:.\Generated_Source\PSoC5/UART_OSDP.c ****                             *  configuration set, otherwise
 428:.\Generated_Source\PSoC5/UART_OSDP.c ****                             *  mask will be returned in LoadRxConfig() API.
 429:.\Generated_Source\PSoC5/UART_OSDP.c ****                             */
 430:.\Generated_Source\PSoC5/UART_OSDP.c ****                             UART_OSDP_RXSTATUS_MASK_REG  |= UART_OSDP_RX_STS_FIFO_NOTEMPTY;
 431:.\Generated_Source\PSoC5/UART_OSDP.c ****                         }
 432:.\Generated_Source\PSoC5/UART_OSDP.c ****                     #else
 433:.\Generated_Source\PSoC5/UART_OSDP.c ****                         UART_OSDP_RXSTATUS_MASK_REG  |= UART_OSDP_RX_STS_FIFO_NOTEMPTY;
 434:.\Generated_Source\PSoC5/UART_OSDP.c ****                     #endif /* end UART_OSDP_HD_ENABLED */
 435:.\Generated_Source\PSoC5/UART_OSDP.c ****                 #endif /* ((UART_OSDP_RX_INTERRUPT_ENABLED) && (UART_OSDP_FLOW_CONTROL != 0u)) */
 436:.\Generated_Source\PSoC5/UART_OSDP.c ****             }
 437:.\Generated_Source\PSoC5/UART_OSDP.c ****         }
 438:.\Generated_Source\PSoC5/UART_OSDP.c ****         else
 439:.\Generated_Source\PSoC5/UART_OSDP.c ****         {   /* Needs to check status for RX_STS_FIFO_NOTEMPTY bit */
 440:.\Generated_Source\PSoC5/UART_OSDP.c ****             rxData = UART_OSDP_RXDATA_REG;
 342              		.loc 1 440 0
 343 0038 064B     		ldr	r3, .L33+12
 344              	.LVL17:
 345 003a 1878     		ldrb	r0, [r3]	@ zero_extendqisi2
ARM GAS  C:\Users\Yiquing\AppData\Local\Temp\ccvaGiH9.s 			page 15


 346 003c C0B2     		uxtb	r0, r0
 347              	.LVL18:
 348              	.L28:
 441:.\Generated_Source\PSoC5/UART_OSDP.c ****         }
 442:.\Generated_Source\PSoC5/UART_OSDP.c **** 
 443:.\Generated_Source\PSoC5/UART_OSDP.c ****         UART_OSDP_EnableRxInt();
 349              		.loc 1 443 0
 350 003e 064B     		ldr	r3, .L33+16
 351 0040 0122     		movs	r2, #1
 352 0042 1A60     		str	r2, [r3]
 444:.\Generated_Source\PSoC5/UART_OSDP.c **** 
 445:.\Generated_Source\PSoC5/UART_OSDP.c ****     #else
 446:.\Generated_Source\PSoC5/UART_OSDP.c **** 
 447:.\Generated_Source\PSoC5/UART_OSDP.c ****         /* Needs to check status for RX_STS_FIFO_NOTEMPTY bit */
 448:.\Generated_Source\PSoC5/UART_OSDP.c ****         rxData = UART_OSDP_RXDATA_REG;
 449:.\Generated_Source\PSoC5/UART_OSDP.c **** 
 450:.\Generated_Source\PSoC5/UART_OSDP.c ****     #endif /* (UART_OSDP_RX_INTERRUPT_ENABLED) */
 451:.\Generated_Source\PSoC5/UART_OSDP.c **** 
 452:.\Generated_Source\PSoC5/UART_OSDP.c ****         return(rxData);
 453:.\Generated_Source\PSoC5/UART_OSDP.c ****     }
 353              		.loc 1 453 0
 354 0044 7047     		bx	lr
 355              	.L34:
 356 0046 00BF     		.align	2
 357              	.L33:
 358 0048 80E100E0 		.word	-536813184
 359 004c 00000000 		.word	.LANCHOR0
 360 0050 00000000 		.word	UART_OSDP_rxBuffer
 361 0054 46650040 		.word	1073767750
 362 0058 00E100E0 		.word	-536813312
 363              		.cfi_endproc
 364              	.LFE7:
 365              		.size	UART_OSDP_ReadRxData, .-UART_OSDP_ReadRxData
 366              		.section	.text.UART_OSDP_ReadRxStatus,"ax",%progbits
 367              		.align	1
 368              		.global	UART_OSDP_ReadRxStatus
 369              		.thumb
 370              		.thumb_func
 371              		.type	UART_OSDP_ReadRxStatus, %function
 372              	UART_OSDP_ReadRxStatus:
 373              	.LFB8:
 454:.\Generated_Source\PSoC5/UART_OSDP.c **** 
 455:.\Generated_Source\PSoC5/UART_OSDP.c **** 
 456:.\Generated_Source\PSoC5/UART_OSDP.c ****     /*******************************************************************************
 457:.\Generated_Source\PSoC5/UART_OSDP.c ****     * Function Name: UART_OSDP_ReadRxStatus
 458:.\Generated_Source\PSoC5/UART_OSDP.c ****     ********************************************************************************
 459:.\Generated_Source\PSoC5/UART_OSDP.c ****     *
 460:.\Generated_Source\PSoC5/UART_OSDP.c ****     * Summary:
 461:.\Generated_Source\PSoC5/UART_OSDP.c ****     *  Returns the current state of the receiver status register and the software
 462:.\Generated_Source\PSoC5/UART_OSDP.c ****     *  buffer overflow status.
 463:.\Generated_Source\PSoC5/UART_OSDP.c ****     *
 464:.\Generated_Source\PSoC5/UART_OSDP.c ****     * Parameters:
 465:.\Generated_Source\PSoC5/UART_OSDP.c ****     *  None.
 466:.\Generated_Source\PSoC5/UART_OSDP.c ****     *
 467:.\Generated_Source\PSoC5/UART_OSDP.c ****     * Return:
 468:.\Generated_Source\PSoC5/UART_OSDP.c ****     *  Current state of the status register.
 469:.\Generated_Source\PSoC5/UART_OSDP.c ****     *
ARM GAS  C:\Users\Yiquing\AppData\Local\Temp\ccvaGiH9.s 			page 16


 470:.\Generated_Source\PSoC5/UART_OSDP.c ****     * Side Effect:
 471:.\Generated_Source\PSoC5/UART_OSDP.c ****     *  All status register bits are clear-on-read except
 472:.\Generated_Source\PSoC5/UART_OSDP.c ****     *  UART_OSDP_RX_STS_FIFO_NOTEMPTY.
 473:.\Generated_Source\PSoC5/UART_OSDP.c ****     *  UART_OSDP_RX_STS_FIFO_NOTEMPTY clears immediately after RX data
 474:.\Generated_Source\PSoC5/UART_OSDP.c ****     *  register read.
 475:.\Generated_Source\PSoC5/UART_OSDP.c ****     *
 476:.\Generated_Source\PSoC5/UART_OSDP.c ****     * Global Variables:
 477:.\Generated_Source\PSoC5/UART_OSDP.c ****     *  UART_OSDP_rxBufferOverflow - used to indicate overload condition.
 478:.\Generated_Source\PSoC5/UART_OSDP.c ****     *   It set to one in RX interrupt when there isn't free space in
 479:.\Generated_Source\PSoC5/UART_OSDP.c ****     *   UART_OSDP_rxBufferRead to write new data. This condition returned
 480:.\Generated_Source\PSoC5/UART_OSDP.c ****     *   and cleared to zero by this API as an
 481:.\Generated_Source\PSoC5/UART_OSDP.c ****     *   UART_OSDP_RX_STS_SOFT_BUFF_OVER bit along with RX Status register
 482:.\Generated_Source\PSoC5/UART_OSDP.c ****     *   bits.
 483:.\Generated_Source\PSoC5/UART_OSDP.c ****     *
 484:.\Generated_Source\PSoC5/UART_OSDP.c ****     *******************************************************************************/
 485:.\Generated_Source\PSoC5/UART_OSDP.c ****     uint8 UART_OSDP_ReadRxStatus(void) 
 486:.\Generated_Source\PSoC5/UART_OSDP.c ****     {
 374              		.loc 1 486 0
 375              		.cfi_startproc
 376              		@ args = 0, pretend = 0, frame = 0
 377              		@ frame_needed = 0, uses_anonymous_args = 0
 378              		@ link register save eliminated.
 487:.\Generated_Source\PSoC5/UART_OSDP.c ****         uint8 status;
 488:.\Generated_Source\PSoC5/UART_OSDP.c **** 
 489:.\Generated_Source\PSoC5/UART_OSDP.c ****         status = UART_OSDP_RXSTATUS_REG & UART_OSDP_RX_HW_MASK;
 379              		.loc 1 489 0
 380 0000 054B     		ldr	r3, .L40
 381 0002 1878     		ldrb	r0, [r3]	@ zero_extendqisi2
 490:.\Generated_Source\PSoC5/UART_OSDP.c **** 
 491:.\Generated_Source\PSoC5/UART_OSDP.c ****     #if (UART_OSDP_RX_INTERRUPT_ENABLED)
 492:.\Generated_Source\PSoC5/UART_OSDP.c ****         if(UART_OSDP_rxBufferOverflow != 0u)
 382              		.loc 1 492 0
 383 0004 054B     		ldr	r3, .L40+4
 489:.\Generated_Source\PSoC5/UART_OSDP.c ****         status = UART_OSDP_RXSTATUS_REG & UART_OSDP_RX_HW_MASK;
 384              		.loc 1 489 0
 385 0006 00F07F00 		and	r0, r0, #127
 386              	.LVL19:
 387              		.loc 1 492 0
 388 000a DA79     		ldrb	r2, [r3, #7]	@ zero_extendqisi2
 389 000c 1AB1     		cbz	r2, .L36
 493:.\Generated_Source\PSoC5/UART_OSDP.c ****         {
 494:.\Generated_Source\PSoC5/UART_OSDP.c ****             status |= UART_OSDP_RX_STS_SOFT_BUFF_OVER;
 495:.\Generated_Source\PSoC5/UART_OSDP.c ****             UART_OSDP_rxBufferOverflow = 0u;
 390              		.loc 1 495 0
 391 000e 0022     		movs	r2, #0
 494:.\Generated_Source\PSoC5/UART_OSDP.c ****             status |= UART_OSDP_RX_STS_SOFT_BUFF_OVER;
 392              		.loc 1 494 0
 393 0010 40F08000 		orr	r0, r0, #128
 394              	.LVL20:
 395              		.loc 1 495 0
 396 0014 DA71     		strb	r2, [r3, #7]
 397              	.LVL21:
 398              	.L36:
 496:.\Generated_Source\PSoC5/UART_OSDP.c ****         }
 497:.\Generated_Source\PSoC5/UART_OSDP.c ****     #endif /* (UART_OSDP_RX_INTERRUPT_ENABLED) */
 498:.\Generated_Source\PSoC5/UART_OSDP.c **** 
 499:.\Generated_Source\PSoC5/UART_OSDP.c ****         return(status);
ARM GAS  C:\Users\Yiquing\AppData\Local\Temp\ccvaGiH9.s 			page 17


 500:.\Generated_Source\PSoC5/UART_OSDP.c ****     }
 399              		.loc 1 500 0
 400 0016 7047     		bx	lr
 401              	.L41:
 402              		.align	2
 403              	.L40:
 404 0018 62640040 		.word	1073767522
 405 001c 00000000 		.word	.LANCHOR0
 406              		.cfi_endproc
 407              	.LFE8:
 408              		.size	UART_OSDP_ReadRxStatus, .-UART_OSDP_ReadRxStatus
 409              		.section	.text.UART_OSDP_GetChar,"ax",%progbits
 410              		.align	1
 411              		.global	UART_OSDP_GetChar
 412              		.thumb
 413              		.thumb_func
 414              		.type	UART_OSDP_GetChar, %function
 415              	UART_OSDP_GetChar:
 416              	.LFB9:
 501:.\Generated_Source\PSoC5/UART_OSDP.c **** 
 502:.\Generated_Source\PSoC5/UART_OSDP.c **** 
 503:.\Generated_Source\PSoC5/UART_OSDP.c ****     /*******************************************************************************
 504:.\Generated_Source\PSoC5/UART_OSDP.c ****     * Function Name: UART_OSDP_GetChar
 505:.\Generated_Source\PSoC5/UART_OSDP.c ****     ********************************************************************************
 506:.\Generated_Source\PSoC5/UART_OSDP.c ****     *
 507:.\Generated_Source\PSoC5/UART_OSDP.c ****     * Summary:
 508:.\Generated_Source\PSoC5/UART_OSDP.c ****     *  Returns the last received byte of data. UART_OSDP_GetChar() is
 509:.\Generated_Source\PSoC5/UART_OSDP.c ****     *  designed for ASCII characters and returns a uint8 where 1 to 255 are values
 510:.\Generated_Source\PSoC5/UART_OSDP.c ****     *  for valid characters and 0 indicates an error occurred or no data is present.
 511:.\Generated_Source\PSoC5/UART_OSDP.c ****     *
 512:.\Generated_Source\PSoC5/UART_OSDP.c ****     * Parameters:
 513:.\Generated_Source\PSoC5/UART_OSDP.c ****     *  None.
 514:.\Generated_Source\PSoC5/UART_OSDP.c ****     *
 515:.\Generated_Source\PSoC5/UART_OSDP.c ****     * Return:
 516:.\Generated_Source\PSoC5/UART_OSDP.c ****     *  Character read from UART RX buffer. ASCII characters from 1 to 255 are valid.
 517:.\Generated_Source\PSoC5/UART_OSDP.c ****     *  A returned zero signifies an error condition or no data available.
 518:.\Generated_Source\PSoC5/UART_OSDP.c ****     *
 519:.\Generated_Source\PSoC5/UART_OSDP.c ****     * Global Variables:
 520:.\Generated_Source\PSoC5/UART_OSDP.c ****     *  UART_OSDP_rxBuffer - RAM buffer pointer for save received data.
 521:.\Generated_Source\PSoC5/UART_OSDP.c ****     *  UART_OSDP_rxBufferWrite - cyclic index for write to rxBuffer,
 522:.\Generated_Source\PSoC5/UART_OSDP.c ****     *     checked to identify new data.
 523:.\Generated_Source\PSoC5/UART_OSDP.c ****     *  UART_OSDP_rxBufferRead - cyclic index for read from rxBuffer,
 524:.\Generated_Source\PSoC5/UART_OSDP.c ****     *     incremented after each byte has been read from buffer.
 525:.\Generated_Source\PSoC5/UART_OSDP.c ****     *  UART_OSDP_rxBufferLoopDetect - cleared if loop condition was detected
 526:.\Generated_Source\PSoC5/UART_OSDP.c ****     *     in RX ISR.
 527:.\Generated_Source\PSoC5/UART_OSDP.c ****     *
 528:.\Generated_Source\PSoC5/UART_OSDP.c ****     * Reentrant:
 529:.\Generated_Source\PSoC5/UART_OSDP.c ****     *  No.
 530:.\Generated_Source\PSoC5/UART_OSDP.c ****     *
 531:.\Generated_Source\PSoC5/UART_OSDP.c ****     *******************************************************************************/
 532:.\Generated_Source\PSoC5/UART_OSDP.c ****     uint8 UART_OSDP_GetChar(void) 
 533:.\Generated_Source\PSoC5/UART_OSDP.c ****     {
 417              		.loc 1 533 0
 418              		.cfi_startproc
 419              		@ args = 0, pretend = 0, frame = 0
 420              		@ frame_needed = 0, uses_anonymous_args = 0
 421              		@ link register save eliminated.
ARM GAS  C:\Users\Yiquing\AppData\Local\Temp\ccvaGiH9.s 			page 18


 422              	.LVL22:
 534:.\Generated_Source\PSoC5/UART_OSDP.c ****         uint8 rxData = 0u;
 535:.\Generated_Source\PSoC5/UART_OSDP.c ****         uint8 rxStatus;
 536:.\Generated_Source\PSoC5/UART_OSDP.c **** 
 537:.\Generated_Source\PSoC5/UART_OSDP.c ****     #if (UART_OSDP_RX_INTERRUPT_ENABLED)
 538:.\Generated_Source\PSoC5/UART_OSDP.c ****         uint16 locRxBufferRead;
 539:.\Generated_Source\PSoC5/UART_OSDP.c ****         uint16 locRxBufferWrite;
 540:.\Generated_Source\PSoC5/UART_OSDP.c **** 
 541:.\Generated_Source\PSoC5/UART_OSDP.c ****         /* Protect variables that could change on interrupt */
 542:.\Generated_Source\PSoC5/UART_OSDP.c ****         UART_OSDP_DisableRxInt();
 423              		.loc 1 542 0
 424 0000 164B     		ldr	r3, .L54
 425 0002 0122     		movs	r2, #1
 426 0004 1A60     		str	r2, [r3]
 543:.\Generated_Source\PSoC5/UART_OSDP.c **** 
 544:.\Generated_Source\PSoC5/UART_OSDP.c ****         locRxBufferRead  = UART_OSDP_rxBufferRead;
 427              		.loc 1 544 0
 428 0006 164A     		ldr	r2, .L54+4
 429 0008 5388     		ldrh	r3, [r2, #2]
 545:.\Generated_Source\PSoC5/UART_OSDP.c ****         locRxBufferWrite = UART_OSDP_rxBufferWrite;
 430              		.loc 1 545 0
 431 000a 9188     		ldrh	r1, [r2, #4]
 546:.\Generated_Source\PSoC5/UART_OSDP.c **** 
 547:.\Generated_Source\PSoC5/UART_OSDP.c ****         if( (UART_OSDP_rxBufferLoopDetect != 0u) || (locRxBufferRead != locRxBufferWrite) )
 432              		.loc 1 547 0
 433 000c 9079     		ldrb	r0, [r2, #6]	@ zero_extendqisi2
 544:.\Generated_Source\PSoC5/UART_OSDP.c ****         locRxBufferRead  = UART_OSDP_rxBufferRead;
 434              		.loc 1 544 0
 435 000e 9BB2     		uxth	r3, r3
 436              	.LVL23:
 545:.\Generated_Source\PSoC5/UART_OSDP.c ****         locRxBufferWrite = UART_OSDP_rxBufferWrite;
 437              		.loc 1 545 0
 438 0010 89B2     		uxth	r1, r1
 439              	.LVL24:
 440              		.loc 1 547 0
 441 0012 08B9     		cbnz	r0, .L43
 442              		.loc 1 547 0 is_stmt 0 discriminator 1
 443 0014 8B42     		cmp	r3, r1
 444 0016 0FD0     		beq	.L44
 445              	.L43:
 548:.\Generated_Source\PSoC5/UART_OSDP.c ****         {
 549:.\Generated_Source\PSoC5/UART_OSDP.c ****             rxData = UART_OSDP_rxBuffer[locRxBufferRead];
 446              		.loc 1 549 0 is_stmt 1
 447 0018 1249     		ldr	r1, .L54+8
 448              	.LVL25:
 449 001a C85C     		ldrb	r0, [r1, r3]	@ zero_extendqisi2
 550:.\Generated_Source\PSoC5/UART_OSDP.c ****             locRxBufferRead++;
 450              		.loc 1 550 0
 451 001c 0133     		adds	r3, r3, #1
 452              	.LVL26:
 453 001e 9BB2     		uxth	r3, r3
 454              	.LVL27:
 551:.\Generated_Source\PSoC5/UART_OSDP.c ****             if(locRxBufferRead >= UART_OSDP_RX_BUFFER_SIZE)
 552:.\Generated_Source\PSoC5/UART_OSDP.c ****             {
 553:.\Generated_Source\PSoC5/UART_OSDP.c ****                 locRxBufferRead = 0u;
 455              		.loc 1 553 0
 456 0020 B3F5807F 		cmp	r3, #256
ARM GAS  C:\Users\Yiquing\AppData\Local\Temp\ccvaGiH9.s 			page 19


 457 0024 28BF     		it	cs
 458 0026 0023     		movcs	r3, #0
 554:.\Generated_Source\PSoC5/UART_OSDP.c ****             }
 555:.\Generated_Source\PSoC5/UART_OSDP.c ****             /* Update the real pointer */
 556:.\Generated_Source\PSoC5/UART_OSDP.c ****             UART_OSDP_rxBufferRead = locRxBufferRead;
 459              		.loc 1 556 0
 460 0028 5380     		strh	r3, [r2, #2]	@ movhi
 557:.\Generated_Source\PSoC5/UART_OSDP.c **** 
 558:.\Generated_Source\PSoC5/UART_OSDP.c ****             if(UART_OSDP_rxBufferLoopDetect != 0u)
 461              		.loc 1 558 0
 462 002a 9379     		ldrb	r3, [r2, #6]	@ zero_extendqisi2
 549:.\Generated_Source\PSoC5/UART_OSDP.c ****             rxData = UART_OSDP_rxBuffer[locRxBufferRead];
 463              		.loc 1 549 0
 464 002c C0B2     		uxtb	r0, r0
 465              	.LVL28:
 466              		.loc 1 558 0
 467 002e 8BB1     		cbz	r3, .L46
 559:.\Generated_Source\PSoC5/UART_OSDP.c ****             {
 560:.\Generated_Source\PSoC5/UART_OSDP.c ****                 UART_OSDP_rxBufferLoopDetect = 0u;
 468              		.loc 1 560 0
 469 0030 0B4B     		ldr	r3, .L54+4
 470 0032 0022     		movs	r2, #0
 471 0034 9A71     		strb	r2, [r3, #6]
 472 0036 0DE0     		b	.L46
 473              	.LVL29:
 474              	.L44:
 561:.\Generated_Source\PSoC5/UART_OSDP.c ****                 #if( (UART_OSDP_RX_INTERRUPT_ENABLED) && (UART_OSDP_FLOW_CONTROL != 0u) )
 562:.\Generated_Source\PSoC5/UART_OSDP.c ****                     /* When Hardware Flow Control selected - return RX mask */
 563:.\Generated_Source\PSoC5/UART_OSDP.c ****                     #if( UART_OSDP_HD_ENABLED )
 564:.\Generated_Source\PSoC5/UART_OSDP.c ****                         if((UART_OSDP_CONTROL_REG & UART_OSDP_CTRL_HD_SEND) == 0u)
 565:.\Generated_Source\PSoC5/UART_OSDP.c ****                         {   /* In Half duplex mode return RX mask only if
 566:.\Generated_Source\PSoC5/UART_OSDP.c ****                             *  RX configuration set, otherwise
 567:.\Generated_Source\PSoC5/UART_OSDP.c ****                             *  mask will be returned in LoadRxConfig() API.
 568:.\Generated_Source\PSoC5/UART_OSDP.c ****                             */
 569:.\Generated_Source\PSoC5/UART_OSDP.c ****                             UART_OSDP_RXSTATUS_MASK_REG |= UART_OSDP_RX_STS_FIFO_NOTEMPTY;
 570:.\Generated_Source\PSoC5/UART_OSDP.c ****                         }
 571:.\Generated_Source\PSoC5/UART_OSDP.c ****                     #else
 572:.\Generated_Source\PSoC5/UART_OSDP.c ****                         UART_OSDP_RXSTATUS_MASK_REG |= UART_OSDP_RX_STS_FIFO_NOTEMPTY;
 573:.\Generated_Source\PSoC5/UART_OSDP.c ****                     #endif /* end UART_OSDP_HD_ENABLED */
 574:.\Generated_Source\PSoC5/UART_OSDP.c ****                 #endif /* UART_OSDP_RX_INTERRUPT_ENABLED and Hardware flow control*/
 575:.\Generated_Source\PSoC5/UART_OSDP.c ****             }
 576:.\Generated_Source\PSoC5/UART_OSDP.c **** 
 577:.\Generated_Source\PSoC5/UART_OSDP.c ****         }
 578:.\Generated_Source\PSoC5/UART_OSDP.c ****         else
 579:.\Generated_Source\PSoC5/UART_OSDP.c ****         {   rxStatus = UART_OSDP_RXSTATUS_REG;
 475              		.loc 1 579 0
 476 0038 0B4B     		ldr	r3, .L54+12
 477              	.LVL30:
 478 003a 1B78     		ldrb	r3, [r3]	@ zero_extendqisi2
 479 003c DBB2     		uxtb	r3, r3
 480              	.LVL31:
 580:.\Generated_Source\PSoC5/UART_OSDP.c ****             if((rxStatus & UART_OSDP_RX_STS_FIFO_NOTEMPTY) != 0u)
 481              		.loc 1 580 0
 482 003e 03F02002 		and	r2, r3, #32
 483 0042 02F0FF00 		and	r0, r2, #255
 484 0046 2AB1     		cbz	r2, .L46
 581:.\Generated_Source\PSoC5/UART_OSDP.c ****             {   /* Read received data from FIFO */
ARM GAS  C:\Users\Yiquing\AppData\Local\Temp\ccvaGiH9.s 			page 20


 582:.\Generated_Source\PSoC5/UART_OSDP.c ****                 rxData = UART_OSDP_RXDATA_REG;
 485              		.loc 1 582 0
 486 0048 084A     		ldr	r2, .L54+16
 583:.\Generated_Source\PSoC5/UART_OSDP.c ****                 /*Check status on error*/
 584:.\Generated_Source\PSoC5/UART_OSDP.c ****                 if((rxStatus & (UART_OSDP_RX_STS_BREAK | UART_OSDP_RX_STS_PAR_ERROR |
 585:.\Generated_Source\PSoC5/UART_OSDP.c ****                                 UART_OSDP_RX_STS_STOP_ERROR | UART_OSDP_RX_STS_OVERRUN)) != 0u)
 586:.\Generated_Source\PSoC5/UART_OSDP.c ****                 {
 587:.\Generated_Source\PSoC5/UART_OSDP.c ****                     rxData = 0u;
 487              		.loc 1 587 0
 488 004a 13F01E0F 		tst	r3, #30
 582:.\Generated_Source\PSoC5/UART_OSDP.c ****                 rxData = UART_OSDP_RXDATA_REG;
 489              		.loc 1 582 0
 490 004e 1078     		ldrb	r0, [r2]	@ zero_extendqisi2
 491              	.LVL32:
 492              		.loc 1 587 0
 493 0050 18BF     		it	ne
 494 0052 0020     		movne	r0, #0
 495              	.LVL33:
 496              	.L46:
 588:.\Generated_Source\PSoC5/UART_OSDP.c ****                 }
 589:.\Generated_Source\PSoC5/UART_OSDP.c ****             }
 590:.\Generated_Source\PSoC5/UART_OSDP.c ****         }
 591:.\Generated_Source\PSoC5/UART_OSDP.c **** 
 592:.\Generated_Source\PSoC5/UART_OSDP.c ****         UART_OSDP_EnableRxInt();
 497              		.loc 1 592 0
 498 0054 064B     		ldr	r3, .L54+20
 499 0056 0122     		movs	r2, #1
 500 0058 1A60     		str	r2, [r3]
 593:.\Generated_Source\PSoC5/UART_OSDP.c **** 
 594:.\Generated_Source\PSoC5/UART_OSDP.c ****     #else
 595:.\Generated_Source\PSoC5/UART_OSDP.c **** 
 596:.\Generated_Source\PSoC5/UART_OSDP.c ****         rxStatus =UART_OSDP_RXSTATUS_REG;
 597:.\Generated_Source\PSoC5/UART_OSDP.c ****         if((rxStatus & UART_OSDP_RX_STS_FIFO_NOTEMPTY) != 0u)
 598:.\Generated_Source\PSoC5/UART_OSDP.c ****         {
 599:.\Generated_Source\PSoC5/UART_OSDP.c ****             /* Read received data from FIFO */
 600:.\Generated_Source\PSoC5/UART_OSDP.c ****             rxData = UART_OSDP_RXDATA_REG;
 601:.\Generated_Source\PSoC5/UART_OSDP.c **** 
 602:.\Generated_Source\PSoC5/UART_OSDP.c ****             /*Check status on error*/
 603:.\Generated_Source\PSoC5/UART_OSDP.c ****             if((rxStatus & (UART_OSDP_RX_STS_BREAK | UART_OSDP_RX_STS_PAR_ERROR |
 604:.\Generated_Source\PSoC5/UART_OSDP.c ****                             UART_OSDP_RX_STS_STOP_ERROR | UART_OSDP_RX_STS_OVERRUN)) != 0u)
 605:.\Generated_Source\PSoC5/UART_OSDP.c ****             {
 606:.\Generated_Source\PSoC5/UART_OSDP.c ****                 rxData = 0u;
 607:.\Generated_Source\PSoC5/UART_OSDP.c ****             }
 608:.\Generated_Source\PSoC5/UART_OSDP.c ****         }
 609:.\Generated_Source\PSoC5/UART_OSDP.c ****     #endif /* (UART_OSDP_RX_INTERRUPT_ENABLED) */
 610:.\Generated_Source\PSoC5/UART_OSDP.c **** 
 611:.\Generated_Source\PSoC5/UART_OSDP.c ****         return(rxData);
 612:.\Generated_Source\PSoC5/UART_OSDP.c ****     }
 501              		.loc 1 612 0
 502 005a 7047     		bx	lr
 503              	.L55:
 504              		.align	2
 505              	.L54:
 506 005c 80E100E0 		.word	-536813184
 507 0060 00000000 		.word	.LANCHOR0
 508 0064 00000000 		.word	UART_OSDP_rxBuffer
 509 0068 62640040 		.word	1073767522
ARM GAS  C:\Users\Yiquing\AppData\Local\Temp\ccvaGiH9.s 			page 21


 510 006c 46650040 		.word	1073767750
 511 0070 00E100E0 		.word	-536813312
 512              		.cfi_endproc
 513              	.LFE9:
 514              		.size	UART_OSDP_GetChar, .-UART_OSDP_GetChar
 515              		.section	.text.UART_OSDP_GetByte,"ax",%progbits
 516              		.align	1
 517              		.global	UART_OSDP_GetByte
 518              		.thumb
 519              		.thumb_func
 520              		.type	UART_OSDP_GetByte, %function
 521              	UART_OSDP_GetByte:
 522              	.LFB10:
 613:.\Generated_Source\PSoC5/UART_OSDP.c **** 
 614:.\Generated_Source\PSoC5/UART_OSDP.c **** 
 615:.\Generated_Source\PSoC5/UART_OSDP.c ****     /*******************************************************************************
 616:.\Generated_Source\PSoC5/UART_OSDP.c ****     * Function Name: UART_OSDP_GetByte
 617:.\Generated_Source\PSoC5/UART_OSDP.c ****     ********************************************************************************
 618:.\Generated_Source\PSoC5/UART_OSDP.c ****     *
 619:.\Generated_Source\PSoC5/UART_OSDP.c ****     * Summary:
 620:.\Generated_Source\PSoC5/UART_OSDP.c ****     *  Reads UART RX buffer immediately, returns received character and error
 621:.\Generated_Source\PSoC5/UART_OSDP.c ****     *  condition.
 622:.\Generated_Source\PSoC5/UART_OSDP.c ****     *
 623:.\Generated_Source\PSoC5/UART_OSDP.c ****     * Parameters:
 624:.\Generated_Source\PSoC5/UART_OSDP.c ****     *  None.
 625:.\Generated_Source\PSoC5/UART_OSDP.c ****     *
 626:.\Generated_Source\PSoC5/UART_OSDP.c ****     * Return:
 627:.\Generated_Source\PSoC5/UART_OSDP.c ****     *  MSB contains status and LSB contains UART RX data. If the MSB is nonzero,
 628:.\Generated_Source\PSoC5/UART_OSDP.c ****     *  an error has occurred.
 629:.\Generated_Source\PSoC5/UART_OSDP.c ****     *
 630:.\Generated_Source\PSoC5/UART_OSDP.c ****     * Reentrant:
 631:.\Generated_Source\PSoC5/UART_OSDP.c ****     *  No.
 632:.\Generated_Source\PSoC5/UART_OSDP.c ****     *
 633:.\Generated_Source\PSoC5/UART_OSDP.c ****     *******************************************************************************/
 634:.\Generated_Source\PSoC5/UART_OSDP.c ****     uint16 UART_OSDP_GetByte(void) 
 635:.\Generated_Source\PSoC5/UART_OSDP.c ****     {
 523              		.loc 1 635 0
 524              		.cfi_startproc
 525              		@ args = 0, pretend = 0, frame = 0
 526              		@ frame_needed = 0, uses_anonymous_args = 0
 527 0000 10B5     		push	{r4, lr}
 528              		.cfi_def_cfa_offset 8
 529              		.cfi_offset 4, -8
 530              		.cfi_offset 14, -4
 636:.\Generated_Source\PSoC5/UART_OSDP.c ****         
 637:.\Generated_Source\PSoC5/UART_OSDP.c ****     #if (UART_OSDP_RX_INTERRUPT_ENABLED)
 638:.\Generated_Source\PSoC5/UART_OSDP.c ****         uint16 locErrorStatus;
 639:.\Generated_Source\PSoC5/UART_OSDP.c ****         /* Protect variables that could change on interrupt */
 640:.\Generated_Source\PSoC5/UART_OSDP.c ****         UART_OSDP_DisableRxInt();
 531              		.loc 1 640 0
 532 0002 074A     		ldr	r2, .L57
 533 0004 0123     		movs	r3, #1
 534 0006 1360     		str	r3, [r2]
 641:.\Generated_Source\PSoC5/UART_OSDP.c ****         locErrorStatus = (uint16)UART_OSDP_errorStatus;
 535              		.loc 1 641 0
 536 0008 064A     		ldr	r2, .L57+4
 642:.\Generated_Source\PSoC5/UART_OSDP.c ****         UART_OSDP_errorStatus = 0u;
ARM GAS  C:\Users\Yiquing\AppData\Local\Temp\ccvaGiH9.s 			page 22


 537              		.loc 1 642 0
 538 000a 0021     		movs	r1, #0
 641:.\Generated_Source\PSoC5/UART_OSDP.c ****         locErrorStatus = (uint16)UART_OSDP_errorStatus;
 539              		.loc 1 641 0
 540 000c 1478     		ldrb	r4, [r2]	@ zero_extendqisi2
 541              	.LVL34:
 542              		.loc 1 642 0
 543 000e 1170     		strb	r1, [r2]
 643:.\Generated_Source\PSoC5/UART_OSDP.c ****         UART_OSDP_EnableRxInt();
 544              		.loc 1 643 0
 545 0010 054A     		ldr	r2, .L57+8
 546 0012 1360     		str	r3, [r2]
 644:.\Generated_Source\PSoC5/UART_OSDP.c ****         return ( (uint16)(locErrorStatus << 8u) | UART_OSDP_ReadRxData() );
 547              		.loc 1 644 0
 548 0014 FFF7FEFF 		bl	UART_OSDP_ReadRxData
 549              	.LVL35:
 550 0018 40EA0420 		orr	r0, r0, r4, lsl #8
 645:.\Generated_Source\PSoC5/UART_OSDP.c ****     #else
 646:.\Generated_Source\PSoC5/UART_OSDP.c ****         return ( ((uint16)UART_OSDP_ReadRxStatus() << 8u) | UART_OSDP_ReadRxData() );
 647:.\Generated_Source\PSoC5/UART_OSDP.c ****     #endif /* UART_OSDP_RX_INTERRUPT_ENABLED */
 648:.\Generated_Source\PSoC5/UART_OSDP.c ****         
 649:.\Generated_Source\PSoC5/UART_OSDP.c ****     }
 551              		.loc 1 649 0
 552 001c 80B2     		uxth	r0, r0
 553 001e 10BD     		pop	{r4, pc}
 554              	.LVL36:
 555              	.L58:
 556              		.align	2
 557              	.L57:
 558 0020 80E100E0 		.word	-536813184
 559 0024 00000000 		.word	.LANCHOR0
 560 0028 00E100E0 		.word	-536813312
 561              		.cfi_endproc
 562              	.LFE10:
 563              		.size	UART_OSDP_GetByte, .-UART_OSDP_GetByte
 564              		.section	.text.UART_OSDP_GetRxBufferSize,"ax",%progbits
 565              		.align	1
 566              		.global	UART_OSDP_GetRxBufferSize
 567              		.thumb
 568              		.thumb_func
 569              		.type	UART_OSDP_GetRxBufferSize, %function
 570              	UART_OSDP_GetRxBufferSize:
 571              	.LFB11:
 650:.\Generated_Source\PSoC5/UART_OSDP.c **** 
 651:.\Generated_Source\PSoC5/UART_OSDP.c **** 
 652:.\Generated_Source\PSoC5/UART_OSDP.c ****     /*******************************************************************************
 653:.\Generated_Source\PSoC5/UART_OSDP.c ****     * Function Name: UART_OSDP_GetRxBufferSize
 654:.\Generated_Source\PSoC5/UART_OSDP.c ****     ********************************************************************************
 655:.\Generated_Source\PSoC5/UART_OSDP.c ****     *
 656:.\Generated_Source\PSoC5/UART_OSDP.c ****     * Summary:
 657:.\Generated_Source\PSoC5/UART_OSDP.c ****     *  Returns the number of received bytes available in the RX buffer.
 658:.\Generated_Source\PSoC5/UART_OSDP.c ****     *  * RX software buffer is disabled (RX Buffer Size parameter is equal to 4): 
 659:.\Generated_Source\PSoC5/UART_OSDP.c ****     *    returns 0 for empty RX FIFO or 1 for not empty RX FIFO.
 660:.\Generated_Source\PSoC5/UART_OSDP.c ****     *  * RX software buffer is enabled: returns the number of bytes available in 
 661:.\Generated_Source\PSoC5/UART_OSDP.c ****     *    the RX software buffer. Bytes available in the RX FIFO do not take to 
 662:.\Generated_Source\PSoC5/UART_OSDP.c ****     *    account.
 663:.\Generated_Source\PSoC5/UART_OSDP.c ****     *
ARM GAS  C:\Users\Yiquing\AppData\Local\Temp\ccvaGiH9.s 			page 23


 664:.\Generated_Source\PSoC5/UART_OSDP.c ****     * Parameters:
 665:.\Generated_Source\PSoC5/UART_OSDP.c ****     *  None.
 666:.\Generated_Source\PSoC5/UART_OSDP.c ****     *
 667:.\Generated_Source\PSoC5/UART_OSDP.c ****     * Return:
 668:.\Generated_Source\PSoC5/UART_OSDP.c ****     *  uint16: Number of bytes in the RX buffer. 
 669:.\Generated_Source\PSoC5/UART_OSDP.c ****     *    Return value type depends on RX Buffer Size parameter.
 670:.\Generated_Source\PSoC5/UART_OSDP.c ****     *
 671:.\Generated_Source\PSoC5/UART_OSDP.c ****     * Global Variables:
 672:.\Generated_Source\PSoC5/UART_OSDP.c ****     *  UART_OSDP_rxBufferWrite - used to calculate left bytes.
 673:.\Generated_Source\PSoC5/UART_OSDP.c ****     *  UART_OSDP_rxBufferRead - used to calculate left bytes.
 674:.\Generated_Source\PSoC5/UART_OSDP.c ****     *  UART_OSDP_rxBufferLoopDetect - checked to decide left bytes amount.
 675:.\Generated_Source\PSoC5/UART_OSDP.c ****     *
 676:.\Generated_Source\PSoC5/UART_OSDP.c ****     * Reentrant:
 677:.\Generated_Source\PSoC5/UART_OSDP.c ****     *  No.
 678:.\Generated_Source\PSoC5/UART_OSDP.c ****     *
 679:.\Generated_Source\PSoC5/UART_OSDP.c ****     * Theory:
 680:.\Generated_Source\PSoC5/UART_OSDP.c ****     *  Allows the user to find out how full the RX Buffer is.
 681:.\Generated_Source\PSoC5/UART_OSDP.c ****     *
 682:.\Generated_Source\PSoC5/UART_OSDP.c ****     *******************************************************************************/
 683:.\Generated_Source\PSoC5/UART_OSDP.c ****     uint16 UART_OSDP_GetRxBufferSize(void)
 684:.\Generated_Source\PSoC5/UART_OSDP.c ****                                                             
 685:.\Generated_Source\PSoC5/UART_OSDP.c ****     {
 572              		.loc 1 685 0
 573              		.cfi_startproc
 574              		@ args = 0, pretend = 0, frame = 0
 575              		@ frame_needed = 0, uses_anonymous_args = 0
 576              		@ link register save eliminated.
 686:.\Generated_Source\PSoC5/UART_OSDP.c ****         uint16 size;
 687:.\Generated_Source\PSoC5/UART_OSDP.c **** 
 688:.\Generated_Source\PSoC5/UART_OSDP.c ****     #if (UART_OSDP_RX_INTERRUPT_ENABLED)
 689:.\Generated_Source\PSoC5/UART_OSDP.c **** 
 690:.\Generated_Source\PSoC5/UART_OSDP.c ****         /* Protect variables that could change on interrupt */
 691:.\Generated_Source\PSoC5/UART_OSDP.c ****         UART_OSDP_DisableRxInt();
 577              		.loc 1 691 0
 578 0000 114B     		ldr	r3, .L65
 579 0002 0122     		movs	r2, #1
 580 0004 1A60     		str	r2, [r3]
 692:.\Generated_Source\PSoC5/UART_OSDP.c **** 
 693:.\Generated_Source\PSoC5/UART_OSDP.c ****         if(UART_OSDP_rxBufferRead == UART_OSDP_rxBufferWrite)
 581              		.loc 1 693 0
 582 0006 114B     		ldr	r3, .L65+4
 583 0008 5988     		ldrh	r1, [r3, #2]
 584 000a 9A88     		ldrh	r2, [r3, #4]
 585 000c 89B2     		uxth	r1, r1
 586 000e 92B2     		uxth	r2, r2
 587 0010 9142     		cmp	r1, r2
 588 0012 06D1     		bne	.L60
 694:.\Generated_Source\PSoC5/UART_OSDP.c ****         {
 695:.\Generated_Source\PSoC5/UART_OSDP.c ****             if(UART_OSDP_rxBufferLoopDetect != 0u)
 589              		.loc 1 695 0
 590 0014 9B79     		ldrb	r3, [r3, #6]	@ zero_extendqisi2
 591 0016 002B     		cmp	r3, #0
 696:.\Generated_Source\PSoC5/UART_OSDP.c ****             {
 697:.\Generated_Source\PSoC5/UART_OSDP.c ****                 size = UART_OSDP_RX_BUFFER_SIZE;
 592              		.loc 1 697 0
 593 0018 0CBF     		ite	eq
 594 001a 0020     		moveq	r0, #0
ARM GAS  C:\Users\Yiquing\AppData\Local\Temp\ccvaGiH9.s 			page 24


 595 001c 4FF48070 		movne	r0, #256
 596 0020 0DE0     		b	.L61
 597              	.L60:
 698:.\Generated_Source\PSoC5/UART_OSDP.c ****             }
 699:.\Generated_Source\PSoC5/UART_OSDP.c ****             else
 700:.\Generated_Source\PSoC5/UART_OSDP.c ****             {
 701:.\Generated_Source\PSoC5/UART_OSDP.c ****                 size = 0u;
 702:.\Generated_Source\PSoC5/UART_OSDP.c ****             }
 703:.\Generated_Source\PSoC5/UART_OSDP.c ****         }
 704:.\Generated_Source\PSoC5/UART_OSDP.c ****         else if(UART_OSDP_rxBufferRead < UART_OSDP_rxBufferWrite)
 598              		.loc 1 704 0
 599 0022 5988     		ldrh	r1, [r3, #2]
 600 0024 9A88     		ldrh	r2, [r3, #4]
 601 0026 89B2     		uxth	r1, r1
 705:.\Generated_Source\PSoC5/UART_OSDP.c ****         {
 706:.\Generated_Source\PSoC5/UART_OSDP.c ****             size = (UART_OSDP_rxBufferWrite - UART_OSDP_rxBufferRead);
 602              		.loc 1 706 0
 603 0028 9888     		ldrh	r0, [r3, #4]
 704:.\Generated_Source\PSoC5/UART_OSDP.c ****         else if(UART_OSDP_rxBufferRead < UART_OSDP_rxBufferWrite)
 604              		.loc 1 704 0
 605 002a 92B2     		uxth	r2, r2
 606 002c 9142     		cmp	r1, r2
 707:.\Generated_Source\PSoC5/UART_OSDP.c ****         }
 708:.\Generated_Source\PSoC5/UART_OSDP.c ****         else
 709:.\Generated_Source\PSoC5/UART_OSDP.c ****         {
 710:.\Generated_Source\PSoC5/UART_OSDP.c ****             size = (UART_OSDP_RX_BUFFER_SIZE - UART_OSDP_rxBufferRead) + UART_OSDP_rxBufferWrite;
 607              		.loc 1 710 0
 608 002e 29BF     		itett	cs
 609 0030 80B2     		uxthcs	r0, r0
 706:.\Generated_Source\PSoC5/UART_OSDP.c ****             size = (UART_OSDP_rxBufferWrite - UART_OSDP_rxBufferRead);
 610              		.loc 1 706 0
 611 0032 5B88     		ldrhcc	r3, [r3, #2]
 612              		.loc 1 710 0
 613 0034 5B88     		ldrhcs	r3, [r3, #2]
 614 0036 00F58070 		addcs	r0, r0, #256
 615 003a C01A     		subs	r0, r0, r3
 616 003c 80B2     		uxth	r0, r0
 617              	.LVL37:
 618              	.L61:
 711:.\Generated_Source\PSoC5/UART_OSDP.c ****         }
 712:.\Generated_Source\PSoC5/UART_OSDP.c **** 
 713:.\Generated_Source\PSoC5/UART_OSDP.c ****         UART_OSDP_EnableRxInt();
 619              		.loc 1 713 0
 620 003e 044B     		ldr	r3, .L65+8
 621 0040 0122     		movs	r2, #1
 622 0042 1A60     		str	r2, [r3]
 714:.\Generated_Source\PSoC5/UART_OSDP.c **** 
 715:.\Generated_Source\PSoC5/UART_OSDP.c ****     #else
 716:.\Generated_Source\PSoC5/UART_OSDP.c **** 
 717:.\Generated_Source\PSoC5/UART_OSDP.c ****         /* We can only know if there is data in the fifo. */
 718:.\Generated_Source\PSoC5/UART_OSDP.c ****         size = ((UART_OSDP_RXSTATUS_REG & UART_OSDP_RX_STS_FIFO_NOTEMPTY) != 0u) ? 1u : 0u;
 719:.\Generated_Source\PSoC5/UART_OSDP.c **** 
 720:.\Generated_Source\PSoC5/UART_OSDP.c ****     #endif /* (UART_OSDP_RX_INTERRUPT_ENABLED) */
 721:.\Generated_Source\PSoC5/UART_OSDP.c **** 
 722:.\Generated_Source\PSoC5/UART_OSDP.c ****         return(size);
 723:.\Generated_Source\PSoC5/UART_OSDP.c ****     }
 623              		.loc 1 723 0
ARM GAS  C:\Users\Yiquing\AppData\Local\Temp\ccvaGiH9.s 			page 25


 624 0044 7047     		bx	lr
 625              	.L66:
 626 0046 00BF     		.align	2
 627              	.L65:
 628 0048 80E100E0 		.word	-536813184
 629 004c 00000000 		.word	.LANCHOR0
 630 0050 00E100E0 		.word	-536813312
 631              		.cfi_endproc
 632              	.LFE11:
 633              		.size	UART_OSDP_GetRxBufferSize, .-UART_OSDP_GetRxBufferSize
 634              		.section	.text.UART_OSDP_ClearRxBuffer,"ax",%progbits
 635              		.align	1
 636              		.global	UART_OSDP_ClearRxBuffer
 637              		.thumb
 638              		.thumb_func
 639              		.type	UART_OSDP_ClearRxBuffer, %function
 640              	UART_OSDP_ClearRxBuffer:
 641              	.LFB12:
 724:.\Generated_Source\PSoC5/UART_OSDP.c **** 
 725:.\Generated_Source\PSoC5/UART_OSDP.c **** 
 726:.\Generated_Source\PSoC5/UART_OSDP.c ****     /*******************************************************************************
 727:.\Generated_Source\PSoC5/UART_OSDP.c ****     * Function Name: UART_OSDP_ClearRxBuffer
 728:.\Generated_Source\PSoC5/UART_OSDP.c ****     ********************************************************************************
 729:.\Generated_Source\PSoC5/UART_OSDP.c ****     *
 730:.\Generated_Source\PSoC5/UART_OSDP.c ****     * Summary:
 731:.\Generated_Source\PSoC5/UART_OSDP.c ****     *  Clears the receiver memory buffer and hardware RX FIFO of all received data.
 732:.\Generated_Source\PSoC5/UART_OSDP.c ****     *
 733:.\Generated_Source\PSoC5/UART_OSDP.c ****     * Parameters:
 734:.\Generated_Source\PSoC5/UART_OSDP.c ****     *  None.
 735:.\Generated_Source\PSoC5/UART_OSDP.c ****     *
 736:.\Generated_Source\PSoC5/UART_OSDP.c ****     * Return:
 737:.\Generated_Source\PSoC5/UART_OSDP.c ****     *  None.
 738:.\Generated_Source\PSoC5/UART_OSDP.c ****     *
 739:.\Generated_Source\PSoC5/UART_OSDP.c ****     * Global Variables:
 740:.\Generated_Source\PSoC5/UART_OSDP.c ****     *  UART_OSDP_rxBufferWrite - cleared to zero.
 741:.\Generated_Source\PSoC5/UART_OSDP.c ****     *  UART_OSDP_rxBufferRead - cleared to zero.
 742:.\Generated_Source\PSoC5/UART_OSDP.c ****     *  UART_OSDP_rxBufferLoopDetect - cleared to zero.
 743:.\Generated_Source\PSoC5/UART_OSDP.c ****     *  UART_OSDP_rxBufferOverflow - cleared to zero.
 744:.\Generated_Source\PSoC5/UART_OSDP.c ****     *
 745:.\Generated_Source\PSoC5/UART_OSDP.c ****     * Reentrant:
 746:.\Generated_Source\PSoC5/UART_OSDP.c ****     *  No.
 747:.\Generated_Source\PSoC5/UART_OSDP.c ****     *
 748:.\Generated_Source\PSoC5/UART_OSDP.c ****     * Theory:
 749:.\Generated_Source\PSoC5/UART_OSDP.c ****     *  Setting the pointers to zero makes the system believe there is no data to
 750:.\Generated_Source\PSoC5/UART_OSDP.c ****     *  read and writing will resume at address 0 overwriting any data that may
 751:.\Generated_Source\PSoC5/UART_OSDP.c ****     *  have remained in the RAM.
 752:.\Generated_Source\PSoC5/UART_OSDP.c ****     *
 753:.\Generated_Source\PSoC5/UART_OSDP.c ****     * Side Effects:
 754:.\Generated_Source\PSoC5/UART_OSDP.c ****     *  Any received data not read from the RAM or FIFO buffer will be lost.
 755:.\Generated_Source\PSoC5/UART_OSDP.c ****     *
 756:.\Generated_Source\PSoC5/UART_OSDP.c ****     *******************************************************************************/
 757:.\Generated_Source\PSoC5/UART_OSDP.c ****     void UART_OSDP_ClearRxBuffer(void) 
 758:.\Generated_Source\PSoC5/UART_OSDP.c ****     {
 642              		.loc 1 758 0
 643              		.cfi_startproc
 644              		@ args = 0, pretend = 0, frame = 0
 645              		@ frame_needed = 0, uses_anonymous_args = 0
ARM GAS  C:\Users\Yiquing\AppData\Local\Temp\ccvaGiH9.s 			page 26


 646 0000 08B5     		push	{r3, lr}
 647              		.cfi_def_cfa_offset 8
 648              		.cfi_offset 3, -8
 649              		.cfi_offset 14, -4
 759:.\Generated_Source\PSoC5/UART_OSDP.c ****         uint8 enableInterrupts;
 760:.\Generated_Source\PSoC5/UART_OSDP.c **** 
 761:.\Generated_Source\PSoC5/UART_OSDP.c ****         /* Clear the HW FIFO */
 762:.\Generated_Source\PSoC5/UART_OSDP.c ****         enableInterrupts = CyEnterCriticalSection();
 650              		.loc 1 762 0
 651 0002 FFF7FEFF 		bl	CyEnterCriticalSection
 652              	.LVL38:
 763:.\Generated_Source\PSoC5/UART_OSDP.c ****         UART_OSDP_RXDATA_AUX_CTL_REG |= (uint8)  UART_OSDP_RX_FIFO_CLR;
 653              		.loc 1 763 0
 654 0006 0B4B     		ldr	r3, .L68
 655 0008 1A78     		ldrb	r2, [r3]	@ zero_extendqisi2
 656 000a 42F00102 		orr	r2, r2, #1
 657 000e 1A70     		strb	r2, [r3]
 764:.\Generated_Source\PSoC5/UART_OSDP.c ****         UART_OSDP_RXDATA_AUX_CTL_REG &= (uint8) ~UART_OSDP_RX_FIFO_CLR;
 658              		.loc 1 764 0
 659 0010 1A78     		ldrb	r2, [r3]	@ zero_extendqisi2
 660 0012 02F0FE02 		and	r2, r2, #254
 661 0016 1A70     		strb	r2, [r3]
 765:.\Generated_Source\PSoC5/UART_OSDP.c ****         CyExitCriticalSection(enableInterrupts);
 662              		.loc 1 765 0
 663 0018 FFF7FEFF 		bl	CyExitCriticalSection
 664              	.LVL39:
 766:.\Generated_Source\PSoC5/UART_OSDP.c **** 
 767:.\Generated_Source\PSoC5/UART_OSDP.c ****     #if (UART_OSDP_RX_INTERRUPT_ENABLED)
 768:.\Generated_Source\PSoC5/UART_OSDP.c **** 
 769:.\Generated_Source\PSoC5/UART_OSDP.c ****         /* Protect variables that could change on interrupt. */
 770:.\Generated_Source\PSoC5/UART_OSDP.c ****         UART_OSDP_DisableRxInt();
 665              		.loc 1 770 0
 666 001c 064B     		ldr	r3, .L68+4
 667 001e 0121     		movs	r1, #1
 668 0020 1960     		str	r1, [r3]
 771:.\Generated_Source\PSoC5/UART_OSDP.c **** 
 772:.\Generated_Source\PSoC5/UART_OSDP.c ****         UART_OSDP_rxBufferRead = 0u;
 669              		.loc 1 772 0
 670 0022 064B     		ldr	r3, .L68+8
 671 0024 0022     		movs	r2, #0
 672 0026 5A80     		strh	r2, [r3, #2]	@ movhi
 773:.\Generated_Source\PSoC5/UART_OSDP.c ****         UART_OSDP_rxBufferWrite = 0u;
 673              		.loc 1 773 0
 674 0028 9A80     		strh	r2, [r3, #4]	@ movhi
 774:.\Generated_Source\PSoC5/UART_OSDP.c ****         UART_OSDP_rxBufferLoopDetect = 0u;
 675              		.loc 1 774 0
 676 002a 9A71     		strb	r2, [r3, #6]
 775:.\Generated_Source\PSoC5/UART_OSDP.c ****         UART_OSDP_rxBufferOverflow = 0u;
 677              		.loc 1 775 0
 678 002c DA71     		strb	r2, [r3, #7]
 776:.\Generated_Source\PSoC5/UART_OSDP.c **** 
 777:.\Generated_Source\PSoC5/UART_OSDP.c ****         UART_OSDP_EnableRxInt();
 679              		.loc 1 777 0
 680 002e 044B     		ldr	r3, .L68+12
 681 0030 1960     		str	r1, [r3]
 682 0032 08BD     		pop	{r3, pc}
 683              	.L69:
ARM GAS  C:\Users\Yiquing\AppData\Local\Temp\ccvaGiH9.s 			page 27


 684              		.align	2
 685              	.L68:
 686 0034 96650040 		.word	1073767830
 687 0038 80E100E0 		.word	-536813184
 688 003c 00000000 		.word	.LANCHOR0
 689 0040 00E100E0 		.word	-536813312
 690              		.cfi_endproc
 691              	.LFE12:
 692              		.size	UART_OSDP_ClearRxBuffer, .-UART_OSDP_ClearRxBuffer
 693              		.section	.text.UART_OSDP_SetRxAddressMode,"ax",%progbits
 694              		.align	1
 695              		.global	UART_OSDP_SetRxAddressMode
 696              		.thumb
 697              		.thumb_func
 698              		.type	UART_OSDP_SetRxAddressMode, %function
 699              	UART_OSDP_SetRxAddressMode:
 700              	.LFB13:
 778:.\Generated_Source\PSoC5/UART_OSDP.c **** 
 779:.\Generated_Source\PSoC5/UART_OSDP.c ****     #endif /* (UART_OSDP_RX_INTERRUPT_ENABLED) */
 780:.\Generated_Source\PSoC5/UART_OSDP.c **** 
 781:.\Generated_Source\PSoC5/UART_OSDP.c ****     }
 782:.\Generated_Source\PSoC5/UART_OSDP.c **** 
 783:.\Generated_Source\PSoC5/UART_OSDP.c **** 
 784:.\Generated_Source\PSoC5/UART_OSDP.c ****     /*******************************************************************************
 785:.\Generated_Source\PSoC5/UART_OSDP.c ****     * Function Name: UART_OSDP_SetRxAddressMode
 786:.\Generated_Source\PSoC5/UART_OSDP.c ****     ********************************************************************************
 787:.\Generated_Source\PSoC5/UART_OSDP.c ****     *
 788:.\Generated_Source\PSoC5/UART_OSDP.c ****     * Summary:
 789:.\Generated_Source\PSoC5/UART_OSDP.c ****     *  Sets the software controlled Addressing mode used by the RX portion of the
 790:.\Generated_Source\PSoC5/UART_OSDP.c ****     *  UART.
 791:.\Generated_Source\PSoC5/UART_OSDP.c ****     *
 792:.\Generated_Source\PSoC5/UART_OSDP.c ****     * Parameters:
 793:.\Generated_Source\PSoC5/UART_OSDP.c ****     *  addressMode: Enumerated value indicating the mode of RX addressing
 794:.\Generated_Source\PSoC5/UART_OSDP.c ****     *  UART_OSDP__B_UART__AM_SW_BYTE_BYTE -  Software Byte-by-Byte address
 795:.\Generated_Source\PSoC5/UART_OSDP.c ****     *                                               detection
 796:.\Generated_Source\PSoC5/UART_OSDP.c ****     *  UART_OSDP__B_UART__AM_SW_DETECT_TO_BUFFER - Software Detect to Buffer
 797:.\Generated_Source\PSoC5/UART_OSDP.c ****     *                                               address detection
 798:.\Generated_Source\PSoC5/UART_OSDP.c ****     *  UART_OSDP__B_UART__AM_HW_BYTE_BY_BYTE - Hardware Byte-by-Byte address
 799:.\Generated_Source\PSoC5/UART_OSDP.c ****     *                                               detection
 800:.\Generated_Source\PSoC5/UART_OSDP.c ****     *  UART_OSDP__B_UART__AM_HW_DETECT_TO_BUFFER - Hardware Detect to Buffer
 801:.\Generated_Source\PSoC5/UART_OSDP.c ****     *                                               address detection
 802:.\Generated_Source\PSoC5/UART_OSDP.c ****     *  UART_OSDP__B_UART__AM_NONE - No address detection
 803:.\Generated_Source\PSoC5/UART_OSDP.c ****     *
 804:.\Generated_Source\PSoC5/UART_OSDP.c ****     * Return:
 805:.\Generated_Source\PSoC5/UART_OSDP.c ****     *  None.
 806:.\Generated_Source\PSoC5/UART_OSDP.c ****     *
 807:.\Generated_Source\PSoC5/UART_OSDP.c ****     * Global Variables:
 808:.\Generated_Source\PSoC5/UART_OSDP.c ****     *  UART_OSDP_rxAddressMode - the parameter stored in this variable for
 809:.\Generated_Source\PSoC5/UART_OSDP.c ****     *   the farther usage in RX ISR.
 810:.\Generated_Source\PSoC5/UART_OSDP.c ****     *  UART_OSDP_rxAddressDetected - set to initial state (0).
 811:.\Generated_Source\PSoC5/UART_OSDP.c ****     *
 812:.\Generated_Source\PSoC5/UART_OSDP.c ****     *******************************************************************************/
 813:.\Generated_Source\PSoC5/UART_OSDP.c ****     void UART_OSDP_SetRxAddressMode(uint8 addressMode)
 814:.\Generated_Source\PSoC5/UART_OSDP.c ****                                                         
 815:.\Generated_Source\PSoC5/UART_OSDP.c ****     {
 701              		.loc 1 815 0
 702              		.cfi_startproc
ARM GAS  C:\Users\Yiquing\AppData\Local\Temp\ccvaGiH9.s 			page 28


 703              		@ args = 0, pretend = 0, frame = 0
 704              		@ frame_needed = 0, uses_anonymous_args = 0
 705              		@ link register save eliminated.
 706              	.LVL40:
 707 0000 7047     		bx	lr
 708              		.cfi_endproc
 709              	.LFE13:
 710              		.size	UART_OSDP_SetRxAddressMode, .-UART_OSDP_SetRxAddressMode
 711              		.section	.text.UART_OSDP_SetRxAddress1,"ax",%progbits
 712              		.align	1
 713              		.global	UART_OSDP_SetRxAddress1
 714              		.thumb
 715              		.thumb_func
 716              		.type	UART_OSDP_SetRxAddress1, %function
 717              	UART_OSDP_SetRxAddress1:
 718              	.LFB14:
 816:.\Generated_Source\PSoC5/UART_OSDP.c ****         #if(UART_OSDP_RXHW_ADDRESS_ENABLED)
 817:.\Generated_Source\PSoC5/UART_OSDP.c ****             #if(UART_OSDP_CONTROL_REG_REMOVED)
 818:.\Generated_Source\PSoC5/UART_OSDP.c ****                 if(0u != addressMode)
 819:.\Generated_Source\PSoC5/UART_OSDP.c ****                 {
 820:.\Generated_Source\PSoC5/UART_OSDP.c ****                     /* Suppress compiler warning */
 821:.\Generated_Source\PSoC5/UART_OSDP.c ****                 }
 822:.\Generated_Source\PSoC5/UART_OSDP.c ****             #else /* UART_OSDP_CONTROL_REG_REMOVED */
 823:.\Generated_Source\PSoC5/UART_OSDP.c ****                 uint8 tmpCtrl;
 824:.\Generated_Source\PSoC5/UART_OSDP.c ****                 tmpCtrl = UART_OSDP_CONTROL_REG & (uint8)~UART_OSDP_CTRL_RXADDR_MODE_MASK;
 825:.\Generated_Source\PSoC5/UART_OSDP.c ****                 tmpCtrl |= (uint8)(addressMode << UART_OSDP_CTRL_RXADDR_MODE0_SHIFT);
 826:.\Generated_Source\PSoC5/UART_OSDP.c ****                 UART_OSDP_CONTROL_REG = tmpCtrl;
 827:.\Generated_Source\PSoC5/UART_OSDP.c **** 
 828:.\Generated_Source\PSoC5/UART_OSDP.c ****                 #if(UART_OSDP_RX_INTERRUPT_ENABLED && \
 829:.\Generated_Source\PSoC5/UART_OSDP.c ****                    (UART_OSDP_RXBUFFERSIZE > UART_OSDP_FIFO_LENGTH) )
 830:.\Generated_Source\PSoC5/UART_OSDP.c ****                     UART_OSDP_rxAddressMode = addressMode;
 831:.\Generated_Source\PSoC5/UART_OSDP.c ****                     UART_OSDP_rxAddressDetected = 0u;
 832:.\Generated_Source\PSoC5/UART_OSDP.c ****                 #endif /* End UART_OSDP_RXBUFFERSIZE > UART_OSDP_FIFO_LENGTH*/
 833:.\Generated_Source\PSoC5/UART_OSDP.c ****             #endif /* End UART_OSDP_CONTROL_REG_REMOVED */
 834:.\Generated_Source\PSoC5/UART_OSDP.c ****         #else /* UART_OSDP_RXHW_ADDRESS_ENABLED */
 835:.\Generated_Source\PSoC5/UART_OSDP.c ****             if(0u != addressMode)
 836:.\Generated_Source\PSoC5/UART_OSDP.c ****             {
 837:.\Generated_Source\PSoC5/UART_OSDP.c ****                 /* Suppress compiler warning */
 838:.\Generated_Source\PSoC5/UART_OSDP.c ****             }
 839:.\Generated_Source\PSoC5/UART_OSDP.c ****         #endif /* End UART_OSDP_RXHW_ADDRESS_ENABLED */
 840:.\Generated_Source\PSoC5/UART_OSDP.c ****     }
 841:.\Generated_Source\PSoC5/UART_OSDP.c **** 
 842:.\Generated_Source\PSoC5/UART_OSDP.c **** 
 843:.\Generated_Source\PSoC5/UART_OSDP.c ****     /*******************************************************************************
 844:.\Generated_Source\PSoC5/UART_OSDP.c ****     * Function Name: UART_OSDP_SetRxAddress1
 845:.\Generated_Source\PSoC5/UART_OSDP.c ****     ********************************************************************************
 846:.\Generated_Source\PSoC5/UART_OSDP.c ****     *
 847:.\Generated_Source\PSoC5/UART_OSDP.c ****     * Summary:
 848:.\Generated_Source\PSoC5/UART_OSDP.c ****     *  Sets the first of two hardware-detectable receiver addresses.
 849:.\Generated_Source\PSoC5/UART_OSDP.c ****     *
 850:.\Generated_Source\PSoC5/UART_OSDP.c ****     * Parameters:
 851:.\Generated_Source\PSoC5/UART_OSDP.c ****     *  address: Address #1 for hardware address detection.
 852:.\Generated_Source\PSoC5/UART_OSDP.c ****     *
 853:.\Generated_Source\PSoC5/UART_OSDP.c ****     * Return:
 854:.\Generated_Source\PSoC5/UART_OSDP.c ****     *  None.
 855:.\Generated_Source\PSoC5/UART_OSDP.c ****     *
 856:.\Generated_Source\PSoC5/UART_OSDP.c ****     *******************************************************************************/
ARM GAS  C:\Users\Yiquing\AppData\Local\Temp\ccvaGiH9.s 			page 29


 857:.\Generated_Source\PSoC5/UART_OSDP.c ****     void UART_OSDP_SetRxAddress1(uint8 address) 
 858:.\Generated_Source\PSoC5/UART_OSDP.c ****     {
 719              		.loc 1 858 0
 720              		.cfi_startproc
 721              		@ args = 0, pretend = 0, frame = 0
 722              		@ frame_needed = 0, uses_anonymous_args = 0
 723              		@ link register save eliminated.
 724              	.LVL41:
 859:.\Generated_Source\PSoC5/UART_OSDP.c ****         UART_OSDP_RXADDRESS1_REG = address;
 725              		.loc 1 859 0
 726 0000 014B     		ldr	r3, .L72
 727 0002 1870     		strb	r0, [r3]
 728 0004 7047     		bx	lr
 729              	.L73:
 730 0006 00BF     		.align	2
 731              	.L72:
 732 0008 26650040 		.word	1073767718
 733              		.cfi_endproc
 734              	.LFE14:
 735              		.size	UART_OSDP_SetRxAddress1, .-UART_OSDP_SetRxAddress1
 736              		.section	.text.UART_OSDP_SetRxAddress2,"ax",%progbits
 737              		.align	1
 738              		.global	UART_OSDP_SetRxAddress2
 739              		.thumb
 740              		.thumb_func
 741              		.type	UART_OSDP_SetRxAddress2, %function
 742              	UART_OSDP_SetRxAddress2:
 743              	.LFB15:
 860:.\Generated_Source\PSoC5/UART_OSDP.c ****     }
 861:.\Generated_Source\PSoC5/UART_OSDP.c **** 
 862:.\Generated_Source\PSoC5/UART_OSDP.c **** 
 863:.\Generated_Source\PSoC5/UART_OSDP.c ****     /*******************************************************************************
 864:.\Generated_Source\PSoC5/UART_OSDP.c ****     * Function Name: UART_OSDP_SetRxAddress2
 865:.\Generated_Source\PSoC5/UART_OSDP.c ****     ********************************************************************************
 866:.\Generated_Source\PSoC5/UART_OSDP.c ****     *
 867:.\Generated_Source\PSoC5/UART_OSDP.c ****     * Summary:
 868:.\Generated_Source\PSoC5/UART_OSDP.c ****     *  Sets the second of two hardware-detectable receiver addresses.
 869:.\Generated_Source\PSoC5/UART_OSDP.c ****     *
 870:.\Generated_Source\PSoC5/UART_OSDP.c ****     * Parameters:
 871:.\Generated_Source\PSoC5/UART_OSDP.c ****     *  address: Address #2 for hardware address detection.
 872:.\Generated_Source\PSoC5/UART_OSDP.c ****     *
 873:.\Generated_Source\PSoC5/UART_OSDP.c ****     * Return:
 874:.\Generated_Source\PSoC5/UART_OSDP.c ****     *  None.
 875:.\Generated_Source\PSoC5/UART_OSDP.c ****     *
 876:.\Generated_Source\PSoC5/UART_OSDP.c ****     *******************************************************************************/
 877:.\Generated_Source\PSoC5/UART_OSDP.c ****     void UART_OSDP_SetRxAddress2(uint8 address) 
 878:.\Generated_Source\PSoC5/UART_OSDP.c ****     {
 744              		.loc 1 878 0
 745              		.cfi_startproc
 746              		@ args = 0, pretend = 0, frame = 0
 747              		@ frame_needed = 0, uses_anonymous_args = 0
 748              		@ link register save eliminated.
 749              	.LVL42:
 879:.\Generated_Source\PSoC5/UART_OSDP.c ****         UART_OSDP_RXADDRESS2_REG = address;
 750              		.loc 1 879 0
 751 0000 014B     		ldr	r3, .L75
 752 0002 1870     		strb	r0, [r3]
ARM GAS  C:\Users\Yiquing\AppData\Local\Temp\ccvaGiH9.s 			page 30


 753 0004 7047     		bx	lr
 754              	.L76:
 755 0006 00BF     		.align	2
 756              	.L75:
 757 0008 36650040 		.word	1073767734
 758              		.cfi_endproc
 759              	.LFE15:
 760              		.size	UART_OSDP_SetRxAddress2, .-UART_OSDP_SetRxAddress2
 761              		.section	.text.UART_OSDP_SetTxInterruptMode,"ax",%progbits
 762              		.align	1
 763              		.global	UART_OSDP_SetTxInterruptMode
 764              		.thumb
 765              		.thumb_func
 766              		.type	UART_OSDP_SetTxInterruptMode, %function
 767              	UART_OSDP_SetTxInterruptMode:
 768              	.LFB16:
 880:.\Generated_Source\PSoC5/UART_OSDP.c ****     }
 881:.\Generated_Source\PSoC5/UART_OSDP.c **** 
 882:.\Generated_Source\PSoC5/UART_OSDP.c **** #endif  /* UART_OSDP_RX_ENABLED || UART_OSDP_HD_ENABLED*/
 883:.\Generated_Source\PSoC5/UART_OSDP.c **** 
 884:.\Generated_Source\PSoC5/UART_OSDP.c **** 
 885:.\Generated_Source\PSoC5/UART_OSDP.c **** #if( (UART_OSDP_TX_ENABLED) || (UART_OSDP_HD_ENABLED) )
 886:.\Generated_Source\PSoC5/UART_OSDP.c ****     /*******************************************************************************
 887:.\Generated_Source\PSoC5/UART_OSDP.c ****     * Function Name: UART_OSDP_SetTxInterruptMode
 888:.\Generated_Source\PSoC5/UART_OSDP.c ****     ********************************************************************************
 889:.\Generated_Source\PSoC5/UART_OSDP.c ****     *
 890:.\Generated_Source\PSoC5/UART_OSDP.c ****     * Summary:
 891:.\Generated_Source\PSoC5/UART_OSDP.c ****     *  Configures the TX interrupt sources to be enabled, but does not enable the
 892:.\Generated_Source\PSoC5/UART_OSDP.c ****     *  interrupt.
 893:.\Generated_Source\PSoC5/UART_OSDP.c ****     *
 894:.\Generated_Source\PSoC5/UART_OSDP.c ****     * Parameters:
 895:.\Generated_Source\PSoC5/UART_OSDP.c ****     *  intSrc: Bit field containing the TX interrupt sources to enable
 896:.\Generated_Source\PSoC5/UART_OSDP.c ****     *   UART_OSDP_TX_STS_COMPLETE        Interrupt on TX byte complete
 897:.\Generated_Source\PSoC5/UART_OSDP.c ****     *   UART_OSDP_TX_STS_FIFO_EMPTY      Interrupt when TX FIFO is empty
 898:.\Generated_Source\PSoC5/UART_OSDP.c ****     *   UART_OSDP_TX_STS_FIFO_FULL       Interrupt when TX FIFO is full
 899:.\Generated_Source\PSoC5/UART_OSDP.c ****     *   UART_OSDP_TX_STS_FIFO_NOT_FULL   Interrupt when TX FIFO is not full
 900:.\Generated_Source\PSoC5/UART_OSDP.c ****     *
 901:.\Generated_Source\PSoC5/UART_OSDP.c ****     * Return:
 902:.\Generated_Source\PSoC5/UART_OSDP.c ****     *  None.
 903:.\Generated_Source\PSoC5/UART_OSDP.c ****     *
 904:.\Generated_Source\PSoC5/UART_OSDP.c ****     * Theory:
 905:.\Generated_Source\PSoC5/UART_OSDP.c ****     *  Enables the output of specific status bits to the interrupt controller
 906:.\Generated_Source\PSoC5/UART_OSDP.c ****     *
 907:.\Generated_Source\PSoC5/UART_OSDP.c ****     *******************************************************************************/
 908:.\Generated_Source\PSoC5/UART_OSDP.c ****     void UART_OSDP_SetTxInterruptMode(uint8 intSrc) 
 909:.\Generated_Source\PSoC5/UART_OSDP.c ****     {
 769              		.loc 1 909 0
 770              		.cfi_startproc
 771              		@ args = 0, pretend = 0, frame = 0
 772              		@ frame_needed = 0, uses_anonymous_args = 0
 773              		@ link register save eliminated.
 774              	.LVL43:
 910:.\Generated_Source\PSoC5/UART_OSDP.c ****         UART_OSDP_TXSTATUS_MASK_REG = intSrc;
 775              		.loc 1 910 0
 776 0000 014B     		ldr	r3, .L78
 777 0002 1870     		strb	r0, [r3]
 778 0004 7047     		bx	lr
ARM GAS  C:\Users\Yiquing\AppData\Local\Temp\ccvaGiH9.s 			page 31


 779              	.L79:
 780 0006 00BF     		.align	2
 781              	.L78:
 782 0008 82640040 		.word	1073767554
 783              		.cfi_endproc
 784              	.LFE16:
 785              		.size	UART_OSDP_SetTxInterruptMode, .-UART_OSDP_SetTxInterruptMode
 786              		.section	.text.UART_OSDP_WriteTxData,"ax",%progbits
 787              		.align	1
 788              		.global	UART_OSDP_WriteTxData
 789              		.thumb
 790              		.thumb_func
 791              		.type	UART_OSDP_WriteTxData, %function
 792              	UART_OSDP_WriteTxData:
 793              	.LFB17:
 911:.\Generated_Source\PSoC5/UART_OSDP.c ****     }
 912:.\Generated_Source\PSoC5/UART_OSDP.c **** 
 913:.\Generated_Source\PSoC5/UART_OSDP.c **** 
 914:.\Generated_Source\PSoC5/UART_OSDP.c ****     /*******************************************************************************
 915:.\Generated_Source\PSoC5/UART_OSDP.c ****     * Function Name: UART_OSDP_WriteTxData
 916:.\Generated_Source\PSoC5/UART_OSDP.c ****     ********************************************************************************
 917:.\Generated_Source\PSoC5/UART_OSDP.c ****     *
 918:.\Generated_Source\PSoC5/UART_OSDP.c ****     * Summary:
 919:.\Generated_Source\PSoC5/UART_OSDP.c ****     *  Places a byte of data into the transmit buffer to be sent when the bus is
 920:.\Generated_Source\PSoC5/UART_OSDP.c ****     *  available without checking the TX status register. You must check status
 921:.\Generated_Source\PSoC5/UART_OSDP.c ****     *  separately.
 922:.\Generated_Source\PSoC5/UART_OSDP.c ****     *
 923:.\Generated_Source\PSoC5/UART_OSDP.c ****     * Parameters:
 924:.\Generated_Source\PSoC5/UART_OSDP.c ****     *  txDataByte: data byte
 925:.\Generated_Source\PSoC5/UART_OSDP.c ****     *
 926:.\Generated_Source\PSoC5/UART_OSDP.c ****     * Return:
 927:.\Generated_Source\PSoC5/UART_OSDP.c ****     * None.
 928:.\Generated_Source\PSoC5/UART_OSDP.c ****     *
 929:.\Generated_Source\PSoC5/UART_OSDP.c ****     * Global Variables:
 930:.\Generated_Source\PSoC5/UART_OSDP.c ****     *  UART_OSDP_txBuffer - RAM buffer pointer for save data for transmission
 931:.\Generated_Source\PSoC5/UART_OSDP.c ****     *  UART_OSDP_txBufferWrite - cyclic index for write to txBuffer,
 932:.\Generated_Source\PSoC5/UART_OSDP.c ****     *    incremented after each byte saved to buffer.
 933:.\Generated_Source\PSoC5/UART_OSDP.c ****     *  UART_OSDP_txBufferRead - cyclic index for read from txBuffer,
 934:.\Generated_Source\PSoC5/UART_OSDP.c ****     *    checked to identify the condition to write to FIFO directly or to TX buffer
 935:.\Generated_Source\PSoC5/UART_OSDP.c ****     *  UART_OSDP_initVar - checked to identify that the component has been
 936:.\Generated_Source\PSoC5/UART_OSDP.c ****     *    initialized.
 937:.\Generated_Source\PSoC5/UART_OSDP.c ****     *
 938:.\Generated_Source\PSoC5/UART_OSDP.c ****     * Reentrant:
 939:.\Generated_Source\PSoC5/UART_OSDP.c ****     *  No.
 940:.\Generated_Source\PSoC5/UART_OSDP.c ****     *
 941:.\Generated_Source\PSoC5/UART_OSDP.c ****     *******************************************************************************/
 942:.\Generated_Source\PSoC5/UART_OSDP.c ****     void UART_OSDP_WriteTxData(uint8 txDataByte) 
 943:.\Generated_Source\PSoC5/UART_OSDP.c ****     {
 794              		.loc 1 943 0
 795              		.cfi_startproc
 796              		@ args = 0, pretend = 0, frame = 0
 797              		@ frame_needed = 0, uses_anonymous_args = 0
 798              		@ link register save eliminated.
 799              	.LVL44:
 944:.\Generated_Source\PSoC5/UART_OSDP.c ****         /* If not Initialized then skip this function*/
 945:.\Generated_Source\PSoC5/UART_OSDP.c ****         if(UART_OSDP_initVar != 0u)
 800              		.loc 1 945 0
ARM GAS  C:\Users\Yiquing\AppData\Local\Temp\ccvaGiH9.s 			page 32


 801 0000 024B     		ldr	r3, .L85
 802 0002 5B78     		ldrb	r3, [r3, #1]	@ zero_extendqisi2
 803 0004 0BB1     		cbz	r3, .L80
 946:.\Generated_Source\PSoC5/UART_OSDP.c ****         {
 947:.\Generated_Source\PSoC5/UART_OSDP.c ****         #if (UART_OSDP_TX_INTERRUPT_ENABLED)
 948:.\Generated_Source\PSoC5/UART_OSDP.c **** 
 949:.\Generated_Source\PSoC5/UART_OSDP.c ****             /* Protect variables that could change on interrupt. */
 950:.\Generated_Source\PSoC5/UART_OSDP.c ****             UART_OSDP_DisableTxInt();
 951:.\Generated_Source\PSoC5/UART_OSDP.c **** 
 952:.\Generated_Source\PSoC5/UART_OSDP.c ****             if( (UART_OSDP_txBufferRead == UART_OSDP_txBufferWrite) &&
 953:.\Generated_Source\PSoC5/UART_OSDP.c ****                 ((UART_OSDP_TXSTATUS_REG & UART_OSDP_TX_STS_FIFO_FULL) == 0u) )
 954:.\Generated_Source\PSoC5/UART_OSDP.c ****             {
 955:.\Generated_Source\PSoC5/UART_OSDP.c ****                 /* Add directly to the FIFO. */
 956:.\Generated_Source\PSoC5/UART_OSDP.c ****                 UART_OSDP_TXDATA_REG = txDataByte;
 957:.\Generated_Source\PSoC5/UART_OSDP.c ****             }
 958:.\Generated_Source\PSoC5/UART_OSDP.c ****             else
 959:.\Generated_Source\PSoC5/UART_OSDP.c ****             {
 960:.\Generated_Source\PSoC5/UART_OSDP.c ****                 if(UART_OSDP_txBufferWrite >= UART_OSDP_TX_BUFFER_SIZE)
 961:.\Generated_Source\PSoC5/UART_OSDP.c ****                 {
 962:.\Generated_Source\PSoC5/UART_OSDP.c ****                     UART_OSDP_txBufferWrite = 0u;
 963:.\Generated_Source\PSoC5/UART_OSDP.c ****                 }
 964:.\Generated_Source\PSoC5/UART_OSDP.c **** 
 965:.\Generated_Source\PSoC5/UART_OSDP.c ****                 UART_OSDP_txBuffer[UART_OSDP_txBufferWrite] = txDataByte;
 966:.\Generated_Source\PSoC5/UART_OSDP.c **** 
 967:.\Generated_Source\PSoC5/UART_OSDP.c ****                 /* Add to the software buffer. */
 968:.\Generated_Source\PSoC5/UART_OSDP.c ****                 UART_OSDP_txBufferWrite++;
 969:.\Generated_Source\PSoC5/UART_OSDP.c ****             }
 970:.\Generated_Source\PSoC5/UART_OSDP.c **** 
 971:.\Generated_Source\PSoC5/UART_OSDP.c ****             UART_OSDP_EnableTxInt();
 972:.\Generated_Source\PSoC5/UART_OSDP.c **** 
 973:.\Generated_Source\PSoC5/UART_OSDP.c ****         #else
 974:.\Generated_Source\PSoC5/UART_OSDP.c **** 
 975:.\Generated_Source\PSoC5/UART_OSDP.c ****             /* Add directly to the FIFO. */
 976:.\Generated_Source\PSoC5/UART_OSDP.c ****             UART_OSDP_TXDATA_REG = txDataByte;
 804              		.loc 1 976 0
 805 0006 024B     		ldr	r3, .L85+4
 806 0008 1870     		strb	r0, [r3]
 807              	.L80:
 808 000a 7047     		bx	lr
 809              	.L86:
 810              		.align	2
 811              	.L85:
 812 000c 00000000 		.word	.LANCHOR0
 813 0010 56650040 		.word	1073767766
 814              		.cfi_endproc
 815              	.LFE17:
 816              		.size	UART_OSDP_WriteTxData, .-UART_OSDP_WriteTxData
 817              		.section	.text.UART_OSDP_ReadTxStatus,"ax",%progbits
 818              		.align	1
 819              		.global	UART_OSDP_ReadTxStatus
 820              		.thumb
 821              		.thumb_func
 822              		.type	UART_OSDP_ReadTxStatus, %function
 823              	UART_OSDP_ReadTxStatus:
 824              	.LFB18:
 977:.\Generated_Source\PSoC5/UART_OSDP.c **** 
 978:.\Generated_Source\PSoC5/UART_OSDP.c ****         #endif /*(UART_OSDP_TX_INTERRUPT_ENABLED) */
ARM GAS  C:\Users\Yiquing\AppData\Local\Temp\ccvaGiH9.s 			page 33


 979:.\Generated_Source\PSoC5/UART_OSDP.c ****         }
 980:.\Generated_Source\PSoC5/UART_OSDP.c ****     }
 981:.\Generated_Source\PSoC5/UART_OSDP.c **** 
 982:.\Generated_Source\PSoC5/UART_OSDP.c **** 
 983:.\Generated_Source\PSoC5/UART_OSDP.c ****     /*******************************************************************************
 984:.\Generated_Source\PSoC5/UART_OSDP.c ****     * Function Name: UART_OSDP_ReadTxStatus
 985:.\Generated_Source\PSoC5/UART_OSDP.c ****     ********************************************************************************
 986:.\Generated_Source\PSoC5/UART_OSDP.c ****     *
 987:.\Generated_Source\PSoC5/UART_OSDP.c ****     * Summary:
 988:.\Generated_Source\PSoC5/UART_OSDP.c ****     *  Reads the status register for the TX portion of the UART.
 989:.\Generated_Source\PSoC5/UART_OSDP.c ****     *
 990:.\Generated_Source\PSoC5/UART_OSDP.c ****     * Parameters:
 991:.\Generated_Source\PSoC5/UART_OSDP.c ****     *  None.
 992:.\Generated_Source\PSoC5/UART_OSDP.c ****     *
 993:.\Generated_Source\PSoC5/UART_OSDP.c ****     * Return:
 994:.\Generated_Source\PSoC5/UART_OSDP.c ****     *  Contents of the status register
 995:.\Generated_Source\PSoC5/UART_OSDP.c ****     *
 996:.\Generated_Source\PSoC5/UART_OSDP.c ****     * Theory:
 997:.\Generated_Source\PSoC5/UART_OSDP.c ****     *  This function reads the TX status register, which is cleared on read.
 998:.\Generated_Source\PSoC5/UART_OSDP.c ****     *  It is up to the user to handle all bits in this return value accordingly,
 999:.\Generated_Source\PSoC5/UART_OSDP.c ****     *  even if the bit was not enabled as an interrupt source the event happened
1000:.\Generated_Source\PSoC5/UART_OSDP.c ****     *  and must be handled accordingly.
1001:.\Generated_Source\PSoC5/UART_OSDP.c ****     *
1002:.\Generated_Source\PSoC5/UART_OSDP.c ****     *******************************************************************************/
1003:.\Generated_Source\PSoC5/UART_OSDP.c ****     uint8 UART_OSDP_ReadTxStatus(void) 
1004:.\Generated_Source\PSoC5/UART_OSDP.c ****     {
 825              		.loc 1 1004 0
 826              		.cfi_startproc
 827              		@ args = 0, pretend = 0, frame = 0
 828              		@ frame_needed = 0, uses_anonymous_args = 0
 829              		@ link register save eliminated.
1005:.\Generated_Source\PSoC5/UART_OSDP.c ****         return(UART_OSDP_TXSTATUS_REG);
 830              		.loc 1 1005 0
 831 0000 014B     		ldr	r3, .L88
 832 0002 1878     		ldrb	r0, [r3]	@ zero_extendqisi2
1006:.\Generated_Source\PSoC5/UART_OSDP.c ****     }
 833              		.loc 1 1006 0
 834 0004 7047     		bx	lr
 835              	.L89:
 836 0006 00BF     		.align	2
 837              	.L88:
 838 0008 62640040 		.word	1073767522
 839              		.cfi_endproc
 840              	.LFE18:
 841              		.size	UART_OSDP_ReadTxStatus, .-UART_OSDP_ReadTxStatus
 842              		.section	.text.UART_OSDP_PutChar,"ax",%progbits
 843              		.align	1
 844              		.global	UART_OSDP_PutChar
 845              		.thumb
 846              		.thumb_func
 847              		.type	UART_OSDP_PutChar, %function
 848              	UART_OSDP_PutChar:
 849              	.LFB19:
1007:.\Generated_Source\PSoC5/UART_OSDP.c **** 
1008:.\Generated_Source\PSoC5/UART_OSDP.c **** 
1009:.\Generated_Source\PSoC5/UART_OSDP.c ****     /*******************************************************************************
1010:.\Generated_Source\PSoC5/UART_OSDP.c ****     * Function Name: UART_OSDP_PutChar
ARM GAS  C:\Users\Yiquing\AppData\Local\Temp\ccvaGiH9.s 			page 34


1011:.\Generated_Source\PSoC5/UART_OSDP.c ****     ********************************************************************************
1012:.\Generated_Source\PSoC5/UART_OSDP.c ****     *
1013:.\Generated_Source\PSoC5/UART_OSDP.c ****     * Summary:
1014:.\Generated_Source\PSoC5/UART_OSDP.c ****     *  Puts a byte of data into the transmit buffer to be sent when the bus is
1015:.\Generated_Source\PSoC5/UART_OSDP.c ****     *  available. This is a blocking API that waits until the TX buffer has room to
1016:.\Generated_Source\PSoC5/UART_OSDP.c ****     *  hold the data.
1017:.\Generated_Source\PSoC5/UART_OSDP.c ****     *
1018:.\Generated_Source\PSoC5/UART_OSDP.c ****     * Parameters:
1019:.\Generated_Source\PSoC5/UART_OSDP.c ****     *  txDataByte: Byte containing the data to transmit
1020:.\Generated_Source\PSoC5/UART_OSDP.c ****     *
1021:.\Generated_Source\PSoC5/UART_OSDP.c ****     * Return:
1022:.\Generated_Source\PSoC5/UART_OSDP.c ****     *  None.
1023:.\Generated_Source\PSoC5/UART_OSDP.c ****     *
1024:.\Generated_Source\PSoC5/UART_OSDP.c ****     * Global Variables:
1025:.\Generated_Source\PSoC5/UART_OSDP.c ****     *  UART_OSDP_txBuffer - RAM buffer pointer for save data for transmission
1026:.\Generated_Source\PSoC5/UART_OSDP.c ****     *  UART_OSDP_txBufferWrite - cyclic index for write to txBuffer,
1027:.\Generated_Source\PSoC5/UART_OSDP.c ****     *     checked to identify free space in txBuffer and incremented after each byte
1028:.\Generated_Source\PSoC5/UART_OSDP.c ****     *     saved to buffer.
1029:.\Generated_Source\PSoC5/UART_OSDP.c ****     *  UART_OSDP_txBufferRead - cyclic index for read from txBuffer,
1030:.\Generated_Source\PSoC5/UART_OSDP.c ****     *     checked to identify free space in txBuffer.
1031:.\Generated_Source\PSoC5/UART_OSDP.c ****     *  UART_OSDP_initVar - checked to identify that the component has been
1032:.\Generated_Source\PSoC5/UART_OSDP.c ****     *     initialized.
1033:.\Generated_Source\PSoC5/UART_OSDP.c ****     *
1034:.\Generated_Source\PSoC5/UART_OSDP.c ****     * Reentrant:
1035:.\Generated_Source\PSoC5/UART_OSDP.c ****     *  No.
1036:.\Generated_Source\PSoC5/UART_OSDP.c ****     *
1037:.\Generated_Source\PSoC5/UART_OSDP.c ****     * Theory:
1038:.\Generated_Source\PSoC5/UART_OSDP.c ****     *  Allows the user to transmit any byte of data in a single transfer
1039:.\Generated_Source\PSoC5/UART_OSDP.c ****     *
1040:.\Generated_Source\PSoC5/UART_OSDP.c ****     *******************************************************************************/
1041:.\Generated_Source\PSoC5/UART_OSDP.c ****     void UART_OSDP_PutChar(uint8 txDataByte) 
1042:.\Generated_Source\PSoC5/UART_OSDP.c ****     {
 850              		.loc 1 1042 0
 851              		.cfi_startproc
 852              		@ args = 0, pretend = 0, frame = 0
 853              		@ frame_needed = 0, uses_anonymous_args = 0
 854              		@ link register save eliminated.
 855              	.LVL45:
 856              	.L92:
1043:.\Generated_Source\PSoC5/UART_OSDP.c ****     #if (UART_OSDP_TX_INTERRUPT_ENABLED)
1044:.\Generated_Source\PSoC5/UART_OSDP.c ****         /* The temporary output pointer is used since it takes two instructions
1045:.\Generated_Source\PSoC5/UART_OSDP.c ****         *  to increment with a wrap, and we can't risk doing that with the real
1046:.\Generated_Source\PSoC5/UART_OSDP.c ****         *  pointer and getting an interrupt in between instructions.
1047:.\Generated_Source\PSoC5/UART_OSDP.c ****         */
1048:.\Generated_Source\PSoC5/UART_OSDP.c ****         uint8 locTxBufferWrite;
1049:.\Generated_Source\PSoC5/UART_OSDP.c ****         uint8 locTxBufferRead;
1050:.\Generated_Source\PSoC5/UART_OSDP.c **** 
1051:.\Generated_Source\PSoC5/UART_OSDP.c ****         do
1052:.\Generated_Source\PSoC5/UART_OSDP.c ****         { /* Block if software buffer is full, so we don't overwrite. */
1053:.\Generated_Source\PSoC5/UART_OSDP.c **** 
1054:.\Generated_Source\PSoC5/UART_OSDP.c ****         #if ((UART_OSDP_TX_BUFFER_SIZE > UART_OSDP_MAX_BYTE_VALUE) && (CY_PSOC3))
1055:.\Generated_Source\PSoC5/UART_OSDP.c ****             /* Disable TX interrupt to protect variables from modification */
1056:.\Generated_Source\PSoC5/UART_OSDP.c ****             UART_OSDP_DisableTxInt();
1057:.\Generated_Source\PSoC5/UART_OSDP.c ****         #endif /* (UART_OSDP_TX_BUFFER_SIZE > UART_OSDP_MAX_BYTE_VALUE) && (CY_PSOC3) */
1058:.\Generated_Source\PSoC5/UART_OSDP.c **** 
1059:.\Generated_Source\PSoC5/UART_OSDP.c ****             locTxBufferWrite = UART_OSDP_txBufferWrite;
1060:.\Generated_Source\PSoC5/UART_OSDP.c ****             locTxBufferRead  = UART_OSDP_txBufferRead;
ARM GAS  C:\Users\Yiquing\AppData\Local\Temp\ccvaGiH9.s 			page 35


1061:.\Generated_Source\PSoC5/UART_OSDP.c **** 
1062:.\Generated_Source\PSoC5/UART_OSDP.c ****         #if ((UART_OSDP_TX_BUFFER_SIZE > UART_OSDP_MAX_BYTE_VALUE) && (CY_PSOC3))
1063:.\Generated_Source\PSoC5/UART_OSDP.c ****             /* Enable interrupt to continue transmission */
1064:.\Generated_Source\PSoC5/UART_OSDP.c ****             UART_OSDP_EnableTxInt();
1065:.\Generated_Source\PSoC5/UART_OSDP.c ****         #endif /* (UART_OSDP_TX_BUFFER_SIZE > UART_OSDP_MAX_BYTE_VALUE) && (CY_PSOC3) */
1066:.\Generated_Source\PSoC5/UART_OSDP.c ****         }
1067:.\Generated_Source\PSoC5/UART_OSDP.c ****         while( (locTxBufferWrite < locTxBufferRead) ? (locTxBufferWrite == (locTxBufferRead - 1u)) 
1068:.\Generated_Source\PSoC5/UART_OSDP.c ****                                 ((locTxBufferWrite - locTxBufferRead) ==
1069:.\Generated_Source\PSoC5/UART_OSDP.c ****                                 (uint8)(UART_OSDP_TX_BUFFER_SIZE - 1u)) );
1070:.\Generated_Source\PSoC5/UART_OSDP.c **** 
1071:.\Generated_Source\PSoC5/UART_OSDP.c ****         if( (locTxBufferRead == locTxBufferWrite) &&
1072:.\Generated_Source\PSoC5/UART_OSDP.c ****             ((UART_OSDP_TXSTATUS_REG & UART_OSDP_TX_STS_FIFO_FULL) == 0u) )
1073:.\Generated_Source\PSoC5/UART_OSDP.c ****         {
1074:.\Generated_Source\PSoC5/UART_OSDP.c ****             /* Add directly to the FIFO */
1075:.\Generated_Source\PSoC5/UART_OSDP.c ****             UART_OSDP_TXDATA_REG = txDataByte;
1076:.\Generated_Source\PSoC5/UART_OSDP.c ****         }
1077:.\Generated_Source\PSoC5/UART_OSDP.c ****         else
1078:.\Generated_Source\PSoC5/UART_OSDP.c ****         {
1079:.\Generated_Source\PSoC5/UART_OSDP.c ****             if(locTxBufferWrite >= UART_OSDP_TX_BUFFER_SIZE)
1080:.\Generated_Source\PSoC5/UART_OSDP.c ****             {
1081:.\Generated_Source\PSoC5/UART_OSDP.c ****                 locTxBufferWrite = 0u;
1082:.\Generated_Source\PSoC5/UART_OSDP.c ****             }
1083:.\Generated_Source\PSoC5/UART_OSDP.c ****             /* Add to the software buffer. */
1084:.\Generated_Source\PSoC5/UART_OSDP.c ****             UART_OSDP_txBuffer[locTxBufferWrite] = txDataByte;
1085:.\Generated_Source\PSoC5/UART_OSDP.c ****             locTxBufferWrite++;
1086:.\Generated_Source\PSoC5/UART_OSDP.c **** 
1087:.\Generated_Source\PSoC5/UART_OSDP.c ****             /* Finally, update the real output pointer */
1088:.\Generated_Source\PSoC5/UART_OSDP.c ****         #if ((UART_OSDP_TX_BUFFER_SIZE > UART_OSDP_MAX_BYTE_VALUE) && (CY_PSOC3))
1089:.\Generated_Source\PSoC5/UART_OSDP.c ****             UART_OSDP_DisableTxInt();
1090:.\Generated_Source\PSoC5/UART_OSDP.c ****         #endif /* (UART_OSDP_TX_BUFFER_SIZE > UART_OSDP_MAX_BYTE_VALUE) && (CY_PSOC3) */
1091:.\Generated_Source\PSoC5/UART_OSDP.c **** 
1092:.\Generated_Source\PSoC5/UART_OSDP.c ****             UART_OSDP_txBufferWrite = locTxBufferWrite;
1093:.\Generated_Source\PSoC5/UART_OSDP.c **** 
1094:.\Generated_Source\PSoC5/UART_OSDP.c ****         #if ((UART_OSDP_TX_BUFFER_SIZE > UART_OSDP_MAX_BYTE_VALUE) && (CY_PSOC3))
1095:.\Generated_Source\PSoC5/UART_OSDP.c ****             UART_OSDP_EnableTxInt();
1096:.\Generated_Source\PSoC5/UART_OSDP.c ****         #endif /* (UART_OSDP_TX_BUFFER_SIZE > UART_OSDP_MAX_BYTE_VALUE) && (CY_PSOC3) */
1097:.\Generated_Source\PSoC5/UART_OSDP.c **** 
1098:.\Generated_Source\PSoC5/UART_OSDP.c ****             if(0u != (UART_OSDP_TXSTATUS_REG & UART_OSDP_TX_STS_FIFO_EMPTY))
1099:.\Generated_Source\PSoC5/UART_OSDP.c ****             {
1100:.\Generated_Source\PSoC5/UART_OSDP.c ****                 /* Trigger TX interrupt to send software buffer */
1101:.\Generated_Source\PSoC5/UART_OSDP.c ****                 UART_OSDP_SetPendingTxInt();
1102:.\Generated_Source\PSoC5/UART_OSDP.c ****             }
1103:.\Generated_Source\PSoC5/UART_OSDP.c ****         }
1104:.\Generated_Source\PSoC5/UART_OSDP.c **** 
1105:.\Generated_Source\PSoC5/UART_OSDP.c ****     #else
1106:.\Generated_Source\PSoC5/UART_OSDP.c **** 
1107:.\Generated_Source\PSoC5/UART_OSDP.c ****         while((UART_OSDP_TXSTATUS_REG & UART_OSDP_TX_STS_FIFO_FULL) != 0u)
 857              		.loc 1 1107 0 discriminator 1
 858 0000 034B     		ldr	r3, .L93
 859 0002 1B78     		ldrb	r3, [r3]	@ zero_extendqisi2
 860 0004 9B06     		lsls	r3, r3, #26
 861 0006 FBD4     		bmi	.L92
1108:.\Generated_Source\PSoC5/UART_OSDP.c ****         {
1109:.\Generated_Source\PSoC5/UART_OSDP.c ****             /* Wait for room in the FIFO */
1110:.\Generated_Source\PSoC5/UART_OSDP.c ****         }
1111:.\Generated_Source\PSoC5/UART_OSDP.c **** 
1112:.\Generated_Source\PSoC5/UART_OSDP.c ****         /* Add directly to the FIFO */
ARM GAS  C:\Users\Yiquing\AppData\Local\Temp\ccvaGiH9.s 			page 36


1113:.\Generated_Source\PSoC5/UART_OSDP.c ****         UART_OSDP_TXDATA_REG = txDataByte;
 862              		.loc 1 1113 0
 863 0008 024B     		ldr	r3, .L93+4
 864 000a 1870     		strb	r0, [r3]
 865 000c 7047     		bx	lr
 866              	.L94:
 867 000e 00BF     		.align	2
 868              	.L93:
 869 0010 62640040 		.word	1073767522
 870 0014 56650040 		.word	1073767766
 871              		.cfi_endproc
 872              	.LFE19:
 873              		.size	UART_OSDP_PutChar, .-UART_OSDP_PutChar
 874              		.section	.text.UART_OSDP_PutString,"ax",%progbits
 875              		.align	1
 876              		.global	UART_OSDP_PutString
 877              		.thumb
 878              		.thumb_func
 879              		.type	UART_OSDP_PutString, %function
 880              	UART_OSDP_PutString:
 881              	.LFB20:
1114:.\Generated_Source\PSoC5/UART_OSDP.c **** 
1115:.\Generated_Source\PSoC5/UART_OSDP.c ****     #endif /* UART_OSDP_TX_INTERRUPT_ENABLED */
1116:.\Generated_Source\PSoC5/UART_OSDP.c ****     }
1117:.\Generated_Source\PSoC5/UART_OSDP.c **** 
1118:.\Generated_Source\PSoC5/UART_OSDP.c **** 
1119:.\Generated_Source\PSoC5/UART_OSDP.c ****     /*******************************************************************************
1120:.\Generated_Source\PSoC5/UART_OSDP.c ****     * Function Name: UART_OSDP_PutString
1121:.\Generated_Source\PSoC5/UART_OSDP.c ****     ********************************************************************************
1122:.\Generated_Source\PSoC5/UART_OSDP.c ****     *
1123:.\Generated_Source\PSoC5/UART_OSDP.c ****     * Summary:
1124:.\Generated_Source\PSoC5/UART_OSDP.c ****     *  Sends a NULL terminated string to the TX buffer for transmission.
1125:.\Generated_Source\PSoC5/UART_OSDP.c ****     *
1126:.\Generated_Source\PSoC5/UART_OSDP.c ****     * Parameters:
1127:.\Generated_Source\PSoC5/UART_OSDP.c ****     *  string[]: Pointer to the null terminated string array residing in RAM or ROM
1128:.\Generated_Source\PSoC5/UART_OSDP.c ****     *
1129:.\Generated_Source\PSoC5/UART_OSDP.c ****     * Return:
1130:.\Generated_Source\PSoC5/UART_OSDP.c ****     *  None.
1131:.\Generated_Source\PSoC5/UART_OSDP.c ****     *
1132:.\Generated_Source\PSoC5/UART_OSDP.c ****     * Global Variables:
1133:.\Generated_Source\PSoC5/UART_OSDP.c ****     *  UART_OSDP_initVar - checked to identify that the component has been
1134:.\Generated_Source\PSoC5/UART_OSDP.c ****     *     initialized.
1135:.\Generated_Source\PSoC5/UART_OSDP.c ****     *
1136:.\Generated_Source\PSoC5/UART_OSDP.c ****     * Reentrant:
1137:.\Generated_Source\PSoC5/UART_OSDP.c ****     *  No.
1138:.\Generated_Source\PSoC5/UART_OSDP.c ****     *
1139:.\Generated_Source\PSoC5/UART_OSDP.c ****     * Theory:
1140:.\Generated_Source\PSoC5/UART_OSDP.c ****     *  If there is not enough memory in the TX buffer for the entire string, this
1141:.\Generated_Source\PSoC5/UART_OSDP.c ****     *  function blocks until the last character of the string is loaded into the
1142:.\Generated_Source\PSoC5/UART_OSDP.c ****     *  TX buffer.
1143:.\Generated_Source\PSoC5/UART_OSDP.c ****     *
1144:.\Generated_Source\PSoC5/UART_OSDP.c ****     *******************************************************************************/
1145:.\Generated_Source\PSoC5/UART_OSDP.c ****     void UART_OSDP_PutString(const char8 string[]) 
1146:.\Generated_Source\PSoC5/UART_OSDP.c ****     {
 882              		.loc 1 1146 0
 883              		.cfi_startproc
 884              		@ args = 0, pretend = 0, frame = 0
ARM GAS  C:\Users\Yiquing\AppData\Local\Temp\ccvaGiH9.s 			page 37


 885              		@ frame_needed = 0, uses_anonymous_args = 0
 886              	.LVL46:
 887 0000 38B5     		push	{r3, r4, r5, lr}
 888              		.cfi_def_cfa_offset 16
 889              		.cfi_offset 3, -16
 890              		.cfi_offset 4, -12
 891              		.cfi_offset 5, -8
 892              		.cfi_offset 14, -4
1147:.\Generated_Source\PSoC5/UART_OSDP.c ****         uint16 bufIndex = 0u;
1148:.\Generated_Source\PSoC5/UART_OSDP.c **** 
1149:.\Generated_Source\PSoC5/UART_OSDP.c ****         /* If not Initialized then skip this function */
1150:.\Generated_Source\PSoC5/UART_OSDP.c ****         if(UART_OSDP_initVar != 0u)
 893              		.loc 1 1150 0
 894 0002 064B     		ldr	r3, .L100
1146:.\Generated_Source\PSoC5/UART_OSDP.c ****     {
 895              		.loc 1 1146 0
 896 0004 0546     		mov	r5, r0
 897              		.loc 1 1150 0
 898 0006 5B78     		ldrb	r3, [r3, #1]	@ zero_extendqisi2
 899 0008 3BB1     		cbz	r3, .L95
 900 000a 0024     		movs	r4, #0
 901              	.LVL47:
 902              	.L97:
1151:.\Generated_Source\PSoC5/UART_OSDP.c ****         {
1152:.\Generated_Source\PSoC5/UART_OSDP.c ****             /* This is a blocking function, it will not exit until all data is sent */
1153:.\Generated_Source\PSoC5/UART_OSDP.c ****             while(string[bufIndex] != (char8) 0)
 903              		.loc 1 1153 0 discriminator 1
 904 000c A3B2     		uxth	r3, r4
 905 000e E85C     		ldrb	r0, [r5, r3]	@ zero_extendqisi2
 906 0010 0134     		adds	r4, r4, #1
 907              	.LVL48:
 908 0012 10B1     		cbz	r0, .L95
1154:.\Generated_Source\PSoC5/UART_OSDP.c ****             {
1155:.\Generated_Source\PSoC5/UART_OSDP.c ****                 UART_OSDP_PutChar((uint8)string[bufIndex]);
 909              		.loc 1 1155 0
 910 0014 FFF7FEFF 		bl	UART_OSDP_PutChar
 911              	.LVL49:
 912 0018 F8E7     		b	.L97
 913              	.LVL50:
 914              	.L95:
 915 001a 38BD     		pop	{r3, r4, r5, pc}
 916              	.LVL51:
 917              	.L101:
 918              		.align	2
 919              	.L100:
 920 001c 00000000 		.word	.LANCHOR0
 921              		.cfi_endproc
 922              	.LFE20:
 923              		.size	UART_OSDP_PutString, .-UART_OSDP_PutString
 924              		.section	.text.UART_OSDP_PutArray,"ax",%progbits
 925              		.align	1
 926              		.global	UART_OSDP_PutArray
 927              		.thumb
 928              		.thumb_func
 929              		.type	UART_OSDP_PutArray, %function
 930              	UART_OSDP_PutArray:
 931              	.LFB21:
ARM GAS  C:\Users\Yiquing\AppData\Local\Temp\ccvaGiH9.s 			page 38


1156:.\Generated_Source\PSoC5/UART_OSDP.c ****                 bufIndex++;
1157:.\Generated_Source\PSoC5/UART_OSDP.c ****             }
1158:.\Generated_Source\PSoC5/UART_OSDP.c ****         }
1159:.\Generated_Source\PSoC5/UART_OSDP.c ****     }
1160:.\Generated_Source\PSoC5/UART_OSDP.c **** 
1161:.\Generated_Source\PSoC5/UART_OSDP.c **** 
1162:.\Generated_Source\PSoC5/UART_OSDP.c ****     /*******************************************************************************
1163:.\Generated_Source\PSoC5/UART_OSDP.c ****     * Function Name: UART_OSDP_PutArray
1164:.\Generated_Source\PSoC5/UART_OSDP.c ****     ********************************************************************************
1165:.\Generated_Source\PSoC5/UART_OSDP.c ****     *
1166:.\Generated_Source\PSoC5/UART_OSDP.c ****     * Summary:
1167:.\Generated_Source\PSoC5/UART_OSDP.c ****     *  Places N bytes of data from a memory array into the TX buffer for
1168:.\Generated_Source\PSoC5/UART_OSDP.c ****     *  transmission.
1169:.\Generated_Source\PSoC5/UART_OSDP.c ****     *
1170:.\Generated_Source\PSoC5/UART_OSDP.c ****     * Parameters:
1171:.\Generated_Source\PSoC5/UART_OSDP.c ****     *  string[]: Address of the memory array residing in RAM or ROM.
1172:.\Generated_Source\PSoC5/UART_OSDP.c ****     *  byteCount: Number of bytes to be transmitted. The type depends on TX Buffer
1173:.\Generated_Source\PSoC5/UART_OSDP.c ****     *             Size parameter.
1174:.\Generated_Source\PSoC5/UART_OSDP.c ****     *
1175:.\Generated_Source\PSoC5/UART_OSDP.c ****     * Return:
1176:.\Generated_Source\PSoC5/UART_OSDP.c ****     *  None.
1177:.\Generated_Source\PSoC5/UART_OSDP.c ****     *
1178:.\Generated_Source\PSoC5/UART_OSDP.c ****     * Global Variables:
1179:.\Generated_Source\PSoC5/UART_OSDP.c ****     *  UART_OSDP_initVar - checked to identify that the component has been
1180:.\Generated_Source\PSoC5/UART_OSDP.c ****     *     initialized.
1181:.\Generated_Source\PSoC5/UART_OSDP.c ****     *
1182:.\Generated_Source\PSoC5/UART_OSDP.c ****     * Reentrant:
1183:.\Generated_Source\PSoC5/UART_OSDP.c ****     *  No.
1184:.\Generated_Source\PSoC5/UART_OSDP.c ****     *
1185:.\Generated_Source\PSoC5/UART_OSDP.c ****     * Theory:
1186:.\Generated_Source\PSoC5/UART_OSDP.c ****     *  If there is not enough memory in the TX buffer for the entire string, this
1187:.\Generated_Source\PSoC5/UART_OSDP.c ****     *  function blocks until the last character of the string is loaded into the
1188:.\Generated_Source\PSoC5/UART_OSDP.c ****     *  TX buffer.
1189:.\Generated_Source\PSoC5/UART_OSDP.c ****     *
1190:.\Generated_Source\PSoC5/UART_OSDP.c ****     *******************************************************************************/
1191:.\Generated_Source\PSoC5/UART_OSDP.c ****     void UART_OSDP_PutArray(const uint8 string[], uint8 byteCount)
1192:.\Generated_Source\PSoC5/UART_OSDP.c ****                                                                     
1193:.\Generated_Source\PSoC5/UART_OSDP.c ****     {
 932              		.loc 1 1193 0
 933              		.cfi_startproc
 934              		@ args = 0, pretend = 0, frame = 0
 935              		@ frame_needed = 0, uses_anonymous_args = 0
 936              	.LVL52:
 937 0000 70B5     		push	{r4, r5, r6, lr}
 938              		.cfi_def_cfa_offset 16
 939              		.cfi_offset 4, -16
 940              		.cfi_offset 5, -12
 941              		.cfi_offset 6, -8
 942              		.cfi_offset 14, -4
1194:.\Generated_Source\PSoC5/UART_OSDP.c ****         uint8 bufIndex = 0u;
1195:.\Generated_Source\PSoC5/UART_OSDP.c **** 
1196:.\Generated_Source\PSoC5/UART_OSDP.c ****         /* If not Initialized then skip this function */
1197:.\Generated_Source\PSoC5/UART_OSDP.c ****         if(UART_OSDP_initVar != 0u)
 943              		.loc 1 1197 0
 944 0002 074B     		ldr	r3, .L107
1193:.\Generated_Source\PSoC5/UART_OSDP.c ****     {
 945              		.loc 1 1193 0
ARM GAS  C:\Users\Yiquing\AppData\Local\Temp\ccvaGiH9.s 			page 39


 946 0004 0546     		mov	r5, r0
 947              		.loc 1 1197 0
 948 0006 5B78     		ldrb	r3, [r3, #1]	@ zero_extendqisi2
1193:.\Generated_Source\PSoC5/UART_OSDP.c ****     {
 949              		.loc 1 1193 0
 950 0008 0E46     		mov	r6, r1
 951              		.loc 1 1197 0
 952 000a 43B1     		cbz	r3, .L102
 953 000c 0024     		movs	r4, #0
 954              	.LVL53:
 955              	.L104:
1198:.\Generated_Source\PSoC5/UART_OSDP.c ****         {
1199:.\Generated_Source\PSoC5/UART_OSDP.c ****             while(bufIndex < byteCount)
 956              		.loc 1 1199 0 discriminator 1
 957 000e E3B2     		uxtb	r3, r4
 958 0010 B342     		cmp	r3, r6
 959 0012 04D2     		bcs	.L102
1200:.\Generated_Source\PSoC5/UART_OSDP.c ****             {
1201:.\Generated_Source\PSoC5/UART_OSDP.c ****                 UART_OSDP_PutChar(string[bufIndex]);
 960              		.loc 1 1201 0
 961 0014 285D     		ldrb	r0, [r5, r4]	@ zero_extendqisi2
 962 0016 FFF7FEFF 		bl	UART_OSDP_PutChar
 963              	.LVL54:
 964 001a 0134     		adds	r4, r4, #1
 965              	.LVL55:
 966 001c F7E7     		b	.L104
 967              	.LVL56:
 968              	.L102:
 969 001e 70BD     		pop	{r4, r5, r6, pc}
 970              	.LVL57:
 971              	.L108:
 972              		.align	2
 973              	.L107:
 974 0020 00000000 		.word	.LANCHOR0
 975              		.cfi_endproc
 976              	.LFE21:
 977              		.size	UART_OSDP_PutArray, .-UART_OSDP_PutArray
 978              		.section	.text.UART_OSDP_PutCRLF,"ax",%progbits
 979              		.align	1
 980              		.global	UART_OSDP_PutCRLF
 981              		.thumb
 982              		.thumb_func
 983              		.type	UART_OSDP_PutCRLF, %function
 984              	UART_OSDP_PutCRLF:
 985              	.LFB22:
1202:.\Generated_Source\PSoC5/UART_OSDP.c ****                 bufIndex++;
1203:.\Generated_Source\PSoC5/UART_OSDP.c ****             }
1204:.\Generated_Source\PSoC5/UART_OSDP.c ****         }
1205:.\Generated_Source\PSoC5/UART_OSDP.c ****     }
1206:.\Generated_Source\PSoC5/UART_OSDP.c **** 
1207:.\Generated_Source\PSoC5/UART_OSDP.c **** 
1208:.\Generated_Source\PSoC5/UART_OSDP.c ****     /*******************************************************************************
1209:.\Generated_Source\PSoC5/UART_OSDP.c ****     * Function Name: UART_OSDP_PutCRLF
1210:.\Generated_Source\PSoC5/UART_OSDP.c ****     ********************************************************************************
1211:.\Generated_Source\PSoC5/UART_OSDP.c ****     *
1212:.\Generated_Source\PSoC5/UART_OSDP.c ****     * Summary:
1213:.\Generated_Source\PSoC5/UART_OSDP.c ****     *  Writes a byte of data followed by a carriage return (0x0D) and line feed
ARM GAS  C:\Users\Yiquing\AppData\Local\Temp\ccvaGiH9.s 			page 40


1214:.\Generated_Source\PSoC5/UART_OSDP.c ****     *  (0x0A) to the transmit buffer.
1215:.\Generated_Source\PSoC5/UART_OSDP.c ****     *
1216:.\Generated_Source\PSoC5/UART_OSDP.c ****     * Parameters:
1217:.\Generated_Source\PSoC5/UART_OSDP.c ****     *  txDataByte: Data byte to transmit before the carriage return and line feed.
1218:.\Generated_Source\PSoC5/UART_OSDP.c ****     *
1219:.\Generated_Source\PSoC5/UART_OSDP.c ****     * Return:
1220:.\Generated_Source\PSoC5/UART_OSDP.c ****     *  None.
1221:.\Generated_Source\PSoC5/UART_OSDP.c ****     *
1222:.\Generated_Source\PSoC5/UART_OSDP.c ****     * Global Variables:
1223:.\Generated_Source\PSoC5/UART_OSDP.c ****     *  UART_OSDP_initVar - checked to identify that the component has been
1224:.\Generated_Source\PSoC5/UART_OSDP.c ****     *     initialized.
1225:.\Generated_Source\PSoC5/UART_OSDP.c ****     *
1226:.\Generated_Source\PSoC5/UART_OSDP.c ****     * Reentrant:
1227:.\Generated_Source\PSoC5/UART_OSDP.c ****     *  No.
1228:.\Generated_Source\PSoC5/UART_OSDP.c ****     *
1229:.\Generated_Source\PSoC5/UART_OSDP.c ****     *******************************************************************************/
1230:.\Generated_Source\PSoC5/UART_OSDP.c ****     void UART_OSDP_PutCRLF(uint8 txDataByte) 
1231:.\Generated_Source\PSoC5/UART_OSDP.c ****     {
 986              		.loc 1 1231 0
 987              		.cfi_startproc
 988              		@ args = 0, pretend = 0, frame = 0
 989              		@ frame_needed = 0, uses_anonymous_args = 0
 990              	.LVL58:
 991 0000 08B5     		push	{r3, lr}
 992              		.cfi_def_cfa_offset 8
 993              		.cfi_offset 3, -8
 994              		.cfi_offset 14, -4
1232:.\Generated_Source\PSoC5/UART_OSDP.c ****         /* If not Initialized then skip this function */
1233:.\Generated_Source\PSoC5/UART_OSDP.c ****         if(UART_OSDP_initVar != 0u)
 995              		.loc 1 1233 0
 996 0002 074B     		ldr	r3, .L111
 997 0004 5B78     		ldrb	r3, [r3, #1]	@ zero_extendqisi2
 998 0006 4BB1     		cbz	r3, .L109
1234:.\Generated_Source\PSoC5/UART_OSDP.c ****         {
1235:.\Generated_Source\PSoC5/UART_OSDP.c ****             UART_OSDP_PutChar(txDataByte);
 999              		.loc 1 1235 0
 1000 0008 FFF7FEFF 		bl	UART_OSDP_PutChar
 1001              	.LVL59:
1236:.\Generated_Source\PSoC5/UART_OSDP.c ****             UART_OSDP_PutChar(0x0Du);
 1002              		.loc 1 1236 0
 1003 000c 0D20     		movs	r0, #13
 1004 000e FFF7FEFF 		bl	UART_OSDP_PutChar
 1005              	.LVL60:
1237:.\Generated_Source\PSoC5/UART_OSDP.c ****             UART_OSDP_PutChar(0x0Au);
1238:.\Generated_Source\PSoC5/UART_OSDP.c ****         }
1239:.\Generated_Source\PSoC5/UART_OSDP.c ****     }
 1006              		.loc 1 1239 0
 1007 0012 BDE80840 		pop	{r3, lr}
1237:.\Generated_Source\PSoC5/UART_OSDP.c ****             UART_OSDP_PutChar(0x0Au);
 1008              		.loc 1 1237 0
 1009 0016 0A20     		movs	r0, #10
 1010 0018 FFF7FEBF 		b	UART_OSDP_PutChar
 1011              	.LVL61:
 1012              	.L109:
 1013 001c 08BD     		pop	{r3, pc}
 1014              	.L112:
 1015 001e 00BF     		.align	2
ARM GAS  C:\Users\Yiquing\AppData\Local\Temp\ccvaGiH9.s 			page 41


 1016              	.L111:
 1017 0020 00000000 		.word	.LANCHOR0
 1018              		.cfi_endproc
 1019              	.LFE22:
 1020              		.size	UART_OSDP_PutCRLF, .-UART_OSDP_PutCRLF
 1021              		.section	.text.UART_OSDP_GetTxBufferSize,"ax",%progbits
 1022              		.align	1
 1023              		.global	UART_OSDP_GetTxBufferSize
 1024              		.thumb
 1025              		.thumb_func
 1026              		.type	UART_OSDP_GetTxBufferSize, %function
 1027              	UART_OSDP_GetTxBufferSize:
 1028              	.LFB23:
1240:.\Generated_Source\PSoC5/UART_OSDP.c **** 
1241:.\Generated_Source\PSoC5/UART_OSDP.c **** 
1242:.\Generated_Source\PSoC5/UART_OSDP.c ****     /*******************************************************************************
1243:.\Generated_Source\PSoC5/UART_OSDP.c ****     * Function Name: UART_OSDP_GetTxBufferSize
1244:.\Generated_Source\PSoC5/UART_OSDP.c ****     ********************************************************************************
1245:.\Generated_Source\PSoC5/UART_OSDP.c ****     *
1246:.\Generated_Source\PSoC5/UART_OSDP.c ****     * Summary:
1247:.\Generated_Source\PSoC5/UART_OSDP.c ****     *  Returns the number of bytes in the TX buffer which are waiting to be 
1248:.\Generated_Source\PSoC5/UART_OSDP.c ****     *  transmitted.
1249:.\Generated_Source\PSoC5/UART_OSDP.c ****     *  * TX software buffer is disabled (TX Buffer Size parameter is equal to 4): 
1250:.\Generated_Source\PSoC5/UART_OSDP.c ****     *    returns 0 for empty TX FIFO, 1 for not full TX FIFO or 4 for full TX FIFO.
1251:.\Generated_Source\PSoC5/UART_OSDP.c ****     *  * TX software buffer is enabled: returns the number of bytes in the TX 
1252:.\Generated_Source\PSoC5/UART_OSDP.c ****     *    software buffer which are waiting to be transmitted. Bytes available in the
1253:.\Generated_Source\PSoC5/UART_OSDP.c ****     *    TX FIFO do not count.
1254:.\Generated_Source\PSoC5/UART_OSDP.c ****     *
1255:.\Generated_Source\PSoC5/UART_OSDP.c ****     * Parameters:
1256:.\Generated_Source\PSoC5/UART_OSDP.c ****     *  None.
1257:.\Generated_Source\PSoC5/UART_OSDP.c ****     *
1258:.\Generated_Source\PSoC5/UART_OSDP.c ****     * Return:
1259:.\Generated_Source\PSoC5/UART_OSDP.c ****     *  Number of bytes used in the TX buffer. Return value type depends on the TX 
1260:.\Generated_Source\PSoC5/UART_OSDP.c ****     *  Buffer Size parameter.
1261:.\Generated_Source\PSoC5/UART_OSDP.c ****     *
1262:.\Generated_Source\PSoC5/UART_OSDP.c ****     * Global Variables:
1263:.\Generated_Source\PSoC5/UART_OSDP.c ****     *  UART_OSDP_txBufferWrite - used to calculate left space.
1264:.\Generated_Source\PSoC5/UART_OSDP.c ****     *  UART_OSDP_txBufferRead - used to calculate left space.
1265:.\Generated_Source\PSoC5/UART_OSDP.c ****     *
1266:.\Generated_Source\PSoC5/UART_OSDP.c ****     * Reentrant:
1267:.\Generated_Source\PSoC5/UART_OSDP.c ****     *  No.
1268:.\Generated_Source\PSoC5/UART_OSDP.c ****     *
1269:.\Generated_Source\PSoC5/UART_OSDP.c ****     * Theory:
1270:.\Generated_Source\PSoC5/UART_OSDP.c ****     *  Allows the user to find out how full the TX Buffer is.
1271:.\Generated_Source\PSoC5/UART_OSDP.c ****     *
1272:.\Generated_Source\PSoC5/UART_OSDP.c ****     *******************************************************************************/
1273:.\Generated_Source\PSoC5/UART_OSDP.c ****     uint8 UART_OSDP_GetTxBufferSize(void)
1274:.\Generated_Source\PSoC5/UART_OSDP.c ****                                                             
1275:.\Generated_Source\PSoC5/UART_OSDP.c ****     {
 1029              		.loc 1 1275 0
 1030              		.cfi_startproc
 1031              		@ args = 0, pretend = 0, frame = 0
 1032              		@ frame_needed = 0, uses_anonymous_args = 0
 1033              		@ link register save eliminated.
1276:.\Generated_Source\PSoC5/UART_OSDP.c ****         uint8 size;
1277:.\Generated_Source\PSoC5/UART_OSDP.c **** 
1278:.\Generated_Source\PSoC5/UART_OSDP.c ****     #if (UART_OSDP_TX_INTERRUPT_ENABLED)
ARM GAS  C:\Users\Yiquing\AppData\Local\Temp\ccvaGiH9.s 			page 42


1279:.\Generated_Source\PSoC5/UART_OSDP.c **** 
1280:.\Generated_Source\PSoC5/UART_OSDP.c ****         /* Protect variables that could change on interrupt. */
1281:.\Generated_Source\PSoC5/UART_OSDP.c ****         UART_OSDP_DisableTxInt();
1282:.\Generated_Source\PSoC5/UART_OSDP.c **** 
1283:.\Generated_Source\PSoC5/UART_OSDP.c ****         if(UART_OSDP_txBufferRead == UART_OSDP_txBufferWrite)
1284:.\Generated_Source\PSoC5/UART_OSDP.c ****         {
1285:.\Generated_Source\PSoC5/UART_OSDP.c ****             size = 0u;
1286:.\Generated_Source\PSoC5/UART_OSDP.c ****         }
1287:.\Generated_Source\PSoC5/UART_OSDP.c ****         else if(UART_OSDP_txBufferRead < UART_OSDP_txBufferWrite)
1288:.\Generated_Source\PSoC5/UART_OSDP.c ****         {
1289:.\Generated_Source\PSoC5/UART_OSDP.c ****             size = (UART_OSDP_txBufferWrite - UART_OSDP_txBufferRead);
1290:.\Generated_Source\PSoC5/UART_OSDP.c ****         }
1291:.\Generated_Source\PSoC5/UART_OSDP.c ****         else
1292:.\Generated_Source\PSoC5/UART_OSDP.c ****         {
1293:.\Generated_Source\PSoC5/UART_OSDP.c ****             size = (UART_OSDP_TX_BUFFER_SIZE - UART_OSDP_txBufferRead) +
1294:.\Generated_Source\PSoC5/UART_OSDP.c ****                     UART_OSDP_txBufferWrite;
1295:.\Generated_Source\PSoC5/UART_OSDP.c ****         }
1296:.\Generated_Source\PSoC5/UART_OSDP.c **** 
1297:.\Generated_Source\PSoC5/UART_OSDP.c ****         UART_OSDP_EnableTxInt();
1298:.\Generated_Source\PSoC5/UART_OSDP.c **** 
1299:.\Generated_Source\PSoC5/UART_OSDP.c ****     #else
1300:.\Generated_Source\PSoC5/UART_OSDP.c **** 
1301:.\Generated_Source\PSoC5/UART_OSDP.c ****         size = UART_OSDP_TXSTATUS_REG;
 1034              		.loc 1 1301 0
 1035 0000 054B     		ldr	r3, .L116
 1036 0002 1878     		ldrb	r0, [r3]	@ zero_extendqisi2
 1037 0004 C0B2     		uxtb	r0, r0
 1038              	.LVL62:
1302:.\Generated_Source\PSoC5/UART_OSDP.c **** 
1303:.\Generated_Source\PSoC5/UART_OSDP.c ****         /* Is the fifo is full. */
1304:.\Generated_Source\PSoC5/UART_OSDP.c ****         if((size & UART_OSDP_TX_STS_FIFO_FULL) != 0u)
 1039              		.loc 1 1304 0
 1040 0006 8306     		lsls	r3, r0, #26
1305:.\Generated_Source\PSoC5/UART_OSDP.c ****         {
1306:.\Generated_Source\PSoC5/UART_OSDP.c ****             size = UART_OSDP_FIFO_LENGTH;
1307:.\Generated_Source\PSoC5/UART_OSDP.c ****         }
1308:.\Generated_Source\PSoC5/UART_OSDP.c ****         else if((size & UART_OSDP_TX_STS_FIFO_EMPTY) != 0u)
 1041              		.loc 1 1308 0
 1042 0008 5ABF     		itte	pl
 1043 000a 80F00200 		eorpl	r0, r0, #2
 1044              	.LVL63:
 1045 000e C0F34000 		ubfxpl	r0, r0, #1, #1
1306:.\Generated_Source\PSoC5/UART_OSDP.c ****             size = UART_OSDP_FIFO_LENGTH;
 1046              		.loc 1 1306 0
 1047 0012 0420     		movmi	r0, #4
 1048              	.LVL64:
1309:.\Generated_Source\PSoC5/UART_OSDP.c ****         {
1310:.\Generated_Source\PSoC5/UART_OSDP.c ****             size = 0u;
1311:.\Generated_Source\PSoC5/UART_OSDP.c ****         }
1312:.\Generated_Source\PSoC5/UART_OSDP.c ****         else
1313:.\Generated_Source\PSoC5/UART_OSDP.c ****         {
1314:.\Generated_Source\PSoC5/UART_OSDP.c ****             /* We only know there is data in the fifo. */
1315:.\Generated_Source\PSoC5/UART_OSDP.c ****             size = 1u;
1316:.\Generated_Source\PSoC5/UART_OSDP.c ****         }
1317:.\Generated_Source\PSoC5/UART_OSDP.c **** 
1318:.\Generated_Source\PSoC5/UART_OSDP.c ****     #endif /* (UART_OSDP_TX_INTERRUPT_ENABLED) */
1319:.\Generated_Source\PSoC5/UART_OSDP.c **** 
ARM GAS  C:\Users\Yiquing\AppData\Local\Temp\ccvaGiH9.s 			page 43


1320:.\Generated_Source\PSoC5/UART_OSDP.c ****     return(size);
1321:.\Generated_Source\PSoC5/UART_OSDP.c ****     }
 1049              		.loc 1 1321 0
 1050 0014 7047     		bx	lr
 1051              	.L117:
 1052 0016 00BF     		.align	2
 1053              	.L116:
 1054 0018 62640040 		.word	1073767522
 1055              		.cfi_endproc
 1056              	.LFE23:
 1057              		.size	UART_OSDP_GetTxBufferSize, .-UART_OSDP_GetTxBufferSize
 1058              		.section	.text.UART_OSDP_ClearTxBuffer,"ax",%progbits
 1059              		.align	1
 1060              		.global	UART_OSDP_ClearTxBuffer
 1061              		.thumb
 1062              		.thumb_func
 1063              		.type	UART_OSDP_ClearTxBuffer, %function
 1064              	UART_OSDP_ClearTxBuffer:
 1065              	.LFB24:
1322:.\Generated_Source\PSoC5/UART_OSDP.c **** 
1323:.\Generated_Source\PSoC5/UART_OSDP.c **** 
1324:.\Generated_Source\PSoC5/UART_OSDP.c ****     /*******************************************************************************
1325:.\Generated_Source\PSoC5/UART_OSDP.c ****     * Function Name: UART_OSDP_ClearTxBuffer
1326:.\Generated_Source\PSoC5/UART_OSDP.c ****     ********************************************************************************
1327:.\Generated_Source\PSoC5/UART_OSDP.c ****     *
1328:.\Generated_Source\PSoC5/UART_OSDP.c ****     * Summary:
1329:.\Generated_Source\PSoC5/UART_OSDP.c ****     *  Clears all data from the TX buffer and hardware TX FIFO.
1330:.\Generated_Source\PSoC5/UART_OSDP.c ****     *
1331:.\Generated_Source\PSoC5/UART_OSDP.c ****     * Parameters:
1332:.\Generated_Source\PSoC5/UART_OSDP.c ****     *  None.
1333:.\Generated_Source\PSoC5/UART_OSDP.c ****     *
1334:.\Generated_Source\PSoC5/UART_OSDP.c ****     * Return:
1335:.\Generated_Source\PSoC5/UART_OSDP.c ****     *  None.
1336:.\Generated_Source\PSoC5/UART_OSDP.c ****     *
1337:.\Generated_Source\PSoC5/UART_OSDP.c ****     * Global Variables:
1338:.\Generated_Source\PSoC5/UART_OSDP.c ****     *  UART_OSDP_txBufferWrite - cleared to zero.
1339:.\Generated_Source\PSoC5/UART_OSDP.c ****     *  UART_OSDP_txBufferRead - cleared to zero.
1340:.\Generated_Source\PSoC5/UART_OSDP.c ****     *
1341:.\Generated_Source\PSoC5/UART_OSDP.c ****     * Reentrant:
1342:.\Generated_Source\PSoC5/UART_OSDP.c ****     *  No.
1343:.\Generated_Source\PSoC5/UART_OSDP.c ****     *
1344:.\Generated_Source\PSoC5/UART_OSDP.c ****     * Theory:
1345:.\Generated_Source\PSoC5/UART_OSDP.c ****     *  Setting the pointers to zero makes the system believe there is no data to
1346:.\Generated_Source\PSoC5/UART_OSDP.c ****     *  read and writing will resume at address 0 overwriting any data that may have
1347:.\Generated_Source\PSoC5/UART_OSDP.c ****     *  remained in the RAM.
1348:.\Generated_Source\PSoC5/UART_OSDP.c ****     *
1349:.\Generated_Source\PSoC5/UART_OSDP.c ****     * Side Effects:
1350:.\Generated_Source\PSoC5/UART_OSDP.c ****     *  Data waiting in the transmit buffer is not sent; a byte that is currently
1351:.\Generated_Source\PSoC5/UART_OSDP.c ****     *  transmitting finishes transmitting.
1352:.\Generated_Source\PSoC5/UART_OSDP.c ****     *
1353:.\Generated_Source\PSoC5/UART_OSDP.c ****     *******************************************************************************/
1354:.\Generated_Source\PSoC5/UART_OSDP.c ****     void UART_OSDP_ClearTxBuffer(void) 
1355:.\Generated_Source\PSoC5/UART_OSDP.c ****     {
 1066              		.loc 1 1355 0
 1067              		.cfi_startproc
 1068              		@ args = 0, pretend = 0, frame = 0
 1069              		@ frame_needed = 0, uses_anonymous_args = 0
ARM GAS  C:\Users\Yiquing\AppData\Local\Temp\ccvaGiH9.s 			page 44


 1070 0000 08B5     		push	{r3, lr}
 1071              		.cfi_def_cfa_offset 8
 1072              		.cfi_offset 3, -8
 1073              		.cfi_offset 14, -4
1356:.\Generated_Source\PSoC5/UART_OSDP.c ****         uint8 enableInterrupts;
1357:.\Generated_Source\PSoC5/UART_OSDP.c **** 
1358:.\Generated_Source\PSoC5/UART_OSDP.c ****         enableInterrupts = CyEnterCriticalSection();
 1074              		.loc 1 1358 0
 1075 0002 FFF7FEFF 		bl	CyEnterCriticalSection
 1076              	.LVL65:
1359:.\Generated_Source\PSoC5/UART_OSDP.c ****         /* Clear the HW FIFO */
1360:.\Generated_Source\PSoC5/UART_OSDP.c ****         UART_OSDP_TXDATA_AUX_CTL_REG |= (uint8)  UART_OSDP_TX_FIFO_CLR;
 1077              		.loc 1 1360 0
 1078 0006 064B     		ldr	r3, .L119
 1079 0008 1A78     		ldrb	r2, [r3]	@ zero_extendqisi2
 1080 000a 42F00202 		orr	r2, r2, #2
 1081 000e 1A70     		strb	r2, [r3]
1361:.\Generated_Source\PSoC5/UART_OSDP.c ****         UART_OSDP_TXDATA_AUX_CTL_REG &= (uint8) ~UART_OSDP_TX_FIFO_CLR;
 1082              		.loc 1 1361 0
 1083 0010 1A78     		ldrb	r2, [r3]	@ zero_extendqisi2
 1084 0012 02F0FD02 		and	r2, r2, #253
 1085 0016 1A70     		strb	r2, [r3]
1362:.\Generated_Source\PSoC5/UART_OSDP.c ****         CyExitCriticalSection(enableInterrupts);
1363:.\Generated_Source\PSoC5/UART_OSDP.c **** 
1364:.\Generated_Source\PSoC5/UART_OSDP.c ****     #if (UART_OSDP_TX_INTERRUPT_ENABLED)
1365:.\Generated_Source\PSoC5/UART_OSDP.c **** 
1366:.\Generated_Source\PSoC5/UART_OSDP.c ****         /* Protect variables that could change on interrupt. */
1367:.\Generated_Source\PSoC5/UART_OSDP.c ****         UART_OSDP_DisableTxInt();
1368:.\Generated_Source\PSoC5/UART_OSDP.c **** 
1369:.\Generated_Source\PSoC5/UART_OSDP.c ****         UART_OSDP_txBufferRead = 0u;
1370:.\Generated_Source\PSoC5/UART_OSDP.c ****         UART_OSDP_txBufferWrite = 0u;
1371:.\Generated_Source\PSoC5/UART_OSDP.c **** 
1372:.\Generated_Source\PSoC5/UART_OSDP.c ****         /* Enable Tx interrupt. */
1373:.\Generated_Source\PSoC5/UART_OSDP.c ****         UART_OSDP_EnableTxInt();
1374:.\Generated_Source\PSoC5/UART_OSDP.c **** 
1375:.\Generated_Source\PSoC5/UART_OSDP.c ****     #endif /* (UART_OSDP_TX_INTERRUPT_ENABLED) */
1376:.\Generated_Source\PSoC5/UART_OSDP.c ****     }
 1086              		.loc 1 1376 0
 1087 0018 BDE80840 		pop	{r3, lr}
1362:.\Generated_Source\PSoC5/UART_OSDP.c ****         CyExitCriticalSection(enableInterrupts);
 1088              		.loc 1 1362 0
 1089 001c FFF7FEBF 		b	CyExitCriticalSection
 1090              	.LVL66:
 1091              	.L120:
 1092              		.align	2
 1093              	.L119:
 1094 0020 96650040 		.word	1073767830
 1095              		.cfi_endproc
 1096              	.LFE24:
 1097              		.size	UART_OSDP_ClearTxBuffer, .-UART_OSDP_ClearTxBuffer
 1098              		.section	.text.UART_OSDP_SendBreak,"ax",%progbits
 1099              		.align	1
 1100              		.global	UART_OSDP_SendBreak
 1101              		.thumb
 1102              		.thumb_func
 1103              		.type	UART_OSDP_SendBreak, %function
 1104              	UART_OSDP_SendBreak:
ARM GAS  C:\Users\Yiquing\AppData\Local\Temp\ccvaGiH9.s 			page 45


 1105              	.LFB25:
1377:.\Generated_Source\PSoC5/UART_OSDP.c **** 
1378:.\Generated_Source\PSoC5/UART_OSDP.c **** 
1379:.\Generated_Source\PSoC5/UART_OSDP.c ****     /*******************************************************************************
1380:.\Generated_Source\PSoC5/UART_OSDP.c ****     * Function Name: UART_OSDP_SendBreak
1381:.\Generated_Source\PSoC5/UART_OSDP.c ****     ********************************************************************************
1382:.\Generated_Source\PSoC5/UART_OSDP.c ****     *
1383:.\Generated_Source\PSoC5/UART_OSDP.c ****     * Summary:
1384:.\Generated_Source\PSoC5/UART_OSDP.c ****     *  Transmits a break signal on the bus.
1385:.\Generated_Source\PSoC5/UART_OSDP.c ****     *
1386:.\Generated_Source\PSoC5/UART_OSDP.c ****     * Parameters:
1387:.\Generated_Source\PSoC5/UART_OSDP.c ****     *  uint8 retMode:  Send Break return mode. See the following table for options.
1388:.\Generated_Source\PSoC5/UART_OSDP.c ****     *   UART_OSDP_SEND_BREAK - Initialize registers for break, send the Break
1389:.\Generated_Source\PSoC5/UART_OSDP.c ****     *       signal and return immediately.
1390:.\Generated_Source\PSoC5/UART_OSDP.c ****     *   UART_OSDP_WAIT_FOR_COMPLETE_REINIT - Wait until break transmission is
1391:.\Generated_Source\PSoC5/UART_OSDP.c ****     *       complete, reinitialize registers to normal transmission mode then return
1392:.\Generated_Source\PSoC5/UART_OSDP.c ****     *   UART_OSDP_REINIT - Reinitialize registers to normal transmission mode
1393:.\Generated_Source\PSoC5/UART_OSDP.c ****     *       then return.
1394:.\Generated_Source\PSoC5/UART_OSDP.c ****     *   UART_OSDP_SEND_WAIT_REINIT - Performs both options: 
1395:.\Generated_Source\PSoC5/UART_OSDP.c ****     *      UART_OSDP_SEND_BREAK and UART_OSDP_WAIT_FOR_COMPLETE_REINIT.
1396:.\Generated_Source\PSoC5/UART_OSDP.c ****     *      This option is recommended for most cases.
1397:.\Generated_Source\PSoC5/UART_OSDP.c ****     *
1398:.\Generated_Source\PSoC5/UART_OSDP.c ****     * Return:
1399:.\Generated_Source\PSoC5/UART_OSDP.c ****     *  None.
1400:.\Generated_Source\PSoC5/UART_OSDP.c ****     *
1401:.\Generated_Source\PSoC5/UART_OSDP.c ****     * Global Variables:
1402:.\Generated_Source\PSoC5/UART_OSDP.c ****     *  UART_OSDP_initVar - checked to identify that the component has been
1403:.\Generated_Source\PSoC5/UART_OSDP.c ****     *     initialized.
1404:.\Generated_Source\PSoC5/UART_OSDP.c ****     *  txPeriod - static variable, used for keeping TX period configuration.
1405:.\Generated_Source\PSoC5/UART_OSDP.c ****     *
1406:.\Generated_Source\PSoC5/UART_OSDP.c ****     * Reentrant:
1407:.\Generated_Source\PSoC5/UART_OSDP.c ****     *  No.
1408:.\Generated_Source\PSoC5/UART_OSDP.c ****     *
1409:.\Generated_Source\PSoC5/UART_OSDP.c ****     * Theory:
1410:.\Generated_Source\PSoC5/UART_OSDP.c ****     *  SendBreak function initializes registers to send 13-bit break signal. It is
1411:.\Generated_Source\PSoC5/UART_OSDP.c ****     *  important to return the registers configuration to normal for continue 8-bit
1412:.\Generated_Source\PSoC5/UART_OSDP.c ****     *  operation.
1413:.\Generated_Source\PSoC5/UART_OSDP.c ****     *  There are 3 variants for this API usage:
1414:.\Generated_Source\PSoC5/UART_OSDP.c ****     *  1) SendBreak(3) - function will send the Break signal and take care on the
1415:.\Generated_Source\PSoC5/UART_OSDP.c ****     *     configuration returning. Function will block CPU until transmission
1416:.\Generated_Source\PSoC5/UART_OSDP.c ****     *     complete.
1417:.\Generated_Source\PSoC5/UART_OSDP.c ****     *  2) User may want to use blocking time if UART configured to the low speed
1418:.\Generated_Source\PSoC5/UART_OSDP.c ****     *     operation
1419:.\Generated_Source\PSoC5/UART_OSDP.c ****     *     Example for this case:
1420:.\Generated_Source\PSoC5/UART_OSDP.c ****     *     SendBreak(0);     - initialize Break signal transmission
1421:.\Generated_Source\PSoC5/UART_OSDP.c ****     *         Add your code here to use CPU time
1422:.\Generated_Source\PSoC5/UART_OSDP.c ****     *     SendBreak(1);     - complete Break operation
1423:.\Generated_Source\PSoC5/UART_OSDP.c ****     *  3) Same to 2) but user may want to initialize and use the interrupt to
1424:.\Generated_Source\PSoC5/UART_OSDP.c ****     *     complete break operation.
1425:.\Generated_Source\PSoC5/UART_OSDP.c ****     *     Example for this case:
1426:.\Generated_Source\PSoC5/UART_OSDP.c ****     *     Initialize TX interrupt with "TX - On TX Complete" parameter
1427:.\Generated_Source\PSoC5/UART_OSDP.c ****     *     SendBreak(0);     - initialize Break signal transmission
1428:.\Generated_Source\PSoC5/UART_OSDP.c ****     *         Add your code here to use CPU time
1429:.\Generated_Source\PSoC5/UART_OSDP.c ****     *     When interrupt appear with UART_OSDP_TX_STS_COMPLETE status:
1430:.\Generated_Source\PSoC5/UART_OSDP.c ****     *     SendBreak(2);     - complete Break operation
1431:.\Generated_Source\PSoC5/UART_OSDP.c ****     *
1432:.\Generated_Source\PSoC5/UART_OSDP.c ****     * Side Effects:
ARM GAS  C:\Users\Yiquing\AppData\Local\Temp\ccvaGiH9.s 			page 46


1433:.\Generated_Source\PSoC5/UART_OSDP.c ****     *  The UART_OSDP_SendBreak() function initializes registers to send a
1434:.\Generated_Source\PSoC5/UART_OSDP.c ****     *  break signal.
1435:.\Generated_Source\PSoC5/UART_OSDP.c ****     *  Break signal length depends on the break signal bits configuration.
1436:.\Generated_Source\PSoC5/UART_OSDP.c ****     *  The register configuration should be reinitialized before normal 8-bit
1437:.\Generated_Source\PSoC5/UART_OSDP.c ****     *  communication can continue.
1438:.\Generated_Source\PSoC5/UART_OSDP.c ****     *
1439:.\Generated_Source\PSoC5/UART_OSDP.c ****     *******************************************************************************/
1440:.\Generated_Source\PSoC5/UART_OSDP.c ****     void UART_OSDP_SendBreak(uint8 retMode) 
1441:.\Generated_Source\PSoC5/UART_OSDP.c ****     {
 1106              		.loc 1 1441 0
 1107              		.cfi_startproc
 1108              		@ args = 0, pretend = 0, frame = 0
 1109              		@ frame_needed = 0, uses_anonymous_args = 0
 1110              		@ link register save eliminated.
 1111              	.LVL67:
1442:.\Generated_Source\PSoC5/UART_OSDP.c **** 
1443:.\Generated_Source\PSoC5/UART_OSDP.c ****         /* If not Initialized then skip this function*/
1444:.\Generated_Source\PSoC5/UART_OSDP.c ****         if(UART_OSDP_initVar != 0u)
 1112              		.loc 1 1444 0
 1113 0000 134B     		ldr	r3, .L146
 1114 0002 5B78     		ldrb	r3, [r3, #1]	@ zero_extendqisi2
 1115 0004 1BB3     		cbz	r3, .L121
 1116              	.LBB31:
1445:.\Generated_Source\PSoC5/UART_OSDP.c ****         {
1446:.\Generated_Source\PSoC5/UART_OSDP.c ****             /* Set the Counter to 13-bits and transmit a 00 byte */
1447:.\Generated_Source\PSoC5/UART_OSDP.c ****             /* When that is done then reset the counter value back */
1448:.\Generated_Source\PSoC5/UART_OSDP.c ****             uint8 tmpStat;
1449:.\Generated_Source\PSoC5/UART_OSDP.c **** 
1450:.\Generated_Source\PSoC5/UART_OSDP.c ****         #if(UART_OSDP_HD_ENABLED) /* Half Duplex mode*/
1451:.\Generated_Source\PSoC5/UART_OSDP.c **** 
1452:.\Generated_Source\PSoC5/UART_OSDP.c ****             if( (retMode == UART_OSDP_SEND_BREAK) ||
 1117              		.loc 1 1452 0
 1118 0006 08B1     		cbz	r0, .L124
 1119              		.loc 1 1452 0 is_stmt 0 discriminator 1
 1120 0008 0328     		cmp	r0, #3
 1121 000a 1ED1     		bne	.L125
 1122              	.L124:
 1123              	.LBB32:
 1124              	.LBB33:
 300:.\Generated_Source\PSoC5/UART_OSDP.c ****         return(UART_OSDP_CONTROL_REG);
 1125              		.loc 1 300 0 is_stmt 1
 1126 000c 114B     		ldr	r3, .L146+4
 1127 000e 1A78     		ldrb	r2, [r3]	@ zero_extendqisi2
 1128              	.LBE33:
 1129              	.LBE32:
1453:.\Generated_Source\PSoC5/UART_OSDP.c ****                 (retMode == UART_OSDP_SEND_WAIT_REINIT ) )
1454:.\Generated_Source\PSoC5/UART_OSDP.c ****             {
1455:.\Generated_Source\PSoC5/UART_OSDP.c ****                 /* CTRL_HD_SEND_BREAK - sends break bits in HD mode */
1456:.\Generated_Source\PSoC5/UART_OSDP.c ****                 UART_OSDP_WriteControlRegister(UART_OSDP_ReadControlRegister() |
 1130              		.loc 1 1456 0
 1131 0010 42F00202 		orr	r2, r2, #2
 1132              	.LVL68:
 1133              	.LBB34:
 1134              	.LBB35:
 327:.\Generated_Source\PSoC5/UART_OSDP.c ****        UART_OSDP_CONTROL_REG = control;
 1135              		.loc 1 327 0
 1136 0014 1A70     		strb	r2, [r3]
ARM GAS  C:\Users\Yiquing\AppData\Local\Temp\ccvaGiH9.s 			page 47


 1137              	.LBE35:
 1138              	.LBE34:
1457:.\Generated_Source\PSoC5/UART_OSDP.c ****                                                       UART_OSDP_CTRL_HD_SEND_BREAK);
1458:.\Generated_Source\PSoC5/UART_OSDP.c ****                 /* Send zeros */
1459:.\Generated_Source\PSoC5/UART_OSDP.c ****                 UART_OSDP_TXDATA_REG = 0u;
 1139              		.loc 1 1459 0
 1140 0016 0022     		movs	r2, #0
 1141              	.LVL69:
 1142 0018 03F81F2C 		strb	r2, [r3, #-31]
 1143              	.L127:
1460:.\Generated_Source\PSoC5/UART_OSDP.c **** 
1461:.\Generated_Source\PSoC5/UART_OSDP.c ****                 do /* Wait until transmit starts */
1462:.\Generated_Source\PSoC5/UART_OSDP.c ****                 {
1463:.\Generated_Source\PSoC5/UART_OSDP.c ****                     tmpStat = UART_OSDP_TXSTATUS_REG;
 1144              		.loc 1 1463 0 discriminator 1
 1145 001c 0E4B     		ldr	r3, .L146+8
 1146 001e 1B78     		ldrb	r3, [r3]	@ zero_extendqisi2
 1147              	.LVL70:
1464:.\Generated_Source\PSoC5/UART_OSDP.c ****                 }
1465:.\Generated_Source\PSoC5/UART_OSDP.c ****                 while((tmpStat & UART_OSDP_TX_STS_FIFO_EMPTY) != 0u);
 1148              		.loc 1 1465 0 discriminator 1
 1149 0020 9A07     		lsls	r2, r3, #30
 1150 0022 FBD4     		bmi	.L127
1466:.\Generated_Source\PSoC5/UART_OSDP.c ****             }
1467:.\Generated_Source\PSoC5/UART_OSDP.c **** 
1468:.\Generated_Source\PSoC5/UART_OSDP.c ****             if( (retMode == UART_OSDP_WAIT_FOR_COMPLETE_REINIT) ||
 1151              		.loc 1 1468 0
 1152 0024 00F0FD03 		and	r3, r0, #253
 1153              	.LVL71:
 1154 0028 012B     		cmp	r3, #1
 1155              	.L145:
 1156 002a 03D0     		beq	.L132
 1157              	.L131:
1469:.\Generated_Source\PSoC5/UART_OSDP.c ****                 (retMode == UART_OSDP_SEND_WAIT_REINIT) )
1470:.\Generated_Source\PSoC5/UART_OSDP.c ****             {
1471:.\Generated_Source\PSoC5/UART_OSDP.c ****                 do /* Wait until transmit complete */
1472:.\Generated_Source\PSoC5/UART_OSDP.c ****                 {
1473:.\Generated_Source\PSoC5/UART_OSDP.c ****                     tmpStat = UART_OSDP_TXSTATUS_REG;
1474:.\Generated_Source\PSoC5/UART_OSDP.c ****                 }
1475:.\Generated_Source\PSoC5/UART_OSDP.c ****                 while(((uint8)~tmpStat & UART_OSDP_TX_STS_COMPLETE) != 0u);
1476:.\Generated_Source\PSoC5/UART_OSDP.c ****             }
1477:.\Generated_Source\PSoC5/UART_OSDP.c **** 
1478:.\Generated_Source\PSoC5/UART_OSDP.c ****             if( (retMode == UART_OSDP_WAIT_FOR_COMPLETE_REINIT) ||
 1158              		.loc 1 1478 0
 1159 002c 0138     		subs	r0, r0, #1
 1160              	.LVL72:
 1161 002e 0228     		cmp	r0, #2
 1162 0030 05D9     		bls	.L129
 1163 0032 7047     		bx	lr
 1164              	.LVL73:
 1165              	.L132:
1473:.\Generated_Source\PSoC5/UART_OSDP.c ****                     tmpStat = UART_OSDP_TXSTATUS_REG;
 1166              		.loc 1 1473 0 discriminator 1
 1167 0034 084B     		ldr	r3, .L146+8
 1168 0036 1B78     		ldrb	r3, [r3]	@ zero_extendqisi2
 1169              	.LVL74:
1475:.\Generated_Source\PSoC5/UART_OSDP.c ****                 while(((uint8)~tmpStat & UART_OSDP_TX_STS_COMPLETE) != 0u);
ARM GAS  C:\Users\Yiquing\AppData\Local\Temp\ccvaGiH9.s 			page 48


 1170              		.loc 1 1475 0 discriminator 1
 1171 0038 DB07     		lsls	r3, r3, #31
 1172              	.LVL75:
 1173 003a FBD5     		bpl	.L132
 1174 003c F6E7     		b	.L131
 1175              	.LVL76:
 1176              	.L129:
 1177              	.LBB36:
 1178              	.LBB37:
 300:.\Generated_Source\PSoC5/UART_OSDP.c ****         return(UART_OSDP_CONTROL_REG);
 1179              		.loc 1 300 0
 1180 003e 054B     		ldr	r3, .L146+4
 1181 0040 1A78     		ldrb	r2, [r3]	@ zero_extendqisi2
 1182              	.LBE37:
 1183              	.LBE36:
1479:.\Generated_Source\PSoC5/UART_OSDP.c ****                 (retMode == UART_OSDP_REINIT) ||
1480:.\Generated_Source\PSoC5/UART_OSDP.c ****                 (retMode == UART_OSDP_SEND_WAIT_REINIT) )
1481:.\Generated_Source\PSoC5/UART_OSDP.c ****             {
1482:.\Generated_Source\PSoC5/UART_OSDP.c ****                 UART_OSDP_WriteControlRegister(UART_OSDP_ReadControlRegister() &
 1184              		.loc 1 1482 0
 1185 0042 02F0FD02 		and	r2, r2, #253
 1186              	.LVL77:
 1187              	.LBB38:
 1188              	.LBB39:
 327:.\Generated_Source\PSoC5/UART_OSDP.c ****        UART_OSDP_CONTROL_REG = control;
 1189              		.loc 1 327 0
 1190 0046 1A70     		strb	r2, [r3]
 1191 0048 7047     		bx	lr
 1192              	.LVL78:
 1193              	.L125:
 1194              	.LBE39:
 1195              	.LBE38:
1468:.\Generated_Source\PSoC5/UART_OSDP.c ****             if( (retMode == UART_OSDP_WAIT_FOR_COMPLETE_REINIT) ||
 1196              		.loc 1 1468 0
 1197 004a 0128     		cmp	r0, #1
 1198 004c EDE7     		b	.L145
 1199              	.L121:
 1200 004e 7047     		bx	lr
 1201              	.L147:
 1202              		.align	2
 1203              	.L146:
 1204 0050 00000000 		.word	.LANCHOR0
 1205 0054 75650040 		.word	1073767797
 1206 0058 62640040 		.word	1073767522
 1207              	.LBE31:
 1208              		.cfi_endproc
 1209              	.LFE25:
 1210              		.size	UART_OSDP_SendBreak, .-UART_OSDP_SendBreak
 1211              		.section	.text.UART_OSDP_SetTxAddressMode,"ax",%progbits
 1212              		.align	1
 1213              		.global	UART_OSDP_SetTxAddressMode
 1214              		.thumb
 1215              		.thumb_func
 1216              		.type	UART_OSDP_SetTxAddressMode, %function
 1217              	UART_OSDP_SetTxAddressMode:
 1218              	.LFB26:
1483:.\Generated_Source\PSoC5/UART_OSDP.c ****                                               (uint8)~UART_OSDP_CTRL_HD_SEND_BREAK);
ARM GAS  C:\Users\Yiquing\AppData\Local\Temp\ccvaGiH9.s 			page 49


1484:.\Generated_Source\PSoC5/UART_OSDP.c ****             }
1485:.\Generated_Source\PSoC5/UART_OSDP.c **** 
1486:.\Generated_Source\PSoC5/UART_OSDP.c ****         #else /* UART_OSDP_HD_ENABLED Full Duplex mode */
1487:.\Generated_Source\PSoC5/UART_OSDP.c **** 
1488:.\Generated_Source\PSoC5/UART_OSDP.c ****             static uint8 txPeriod;
1489:.\Generated_Source\PSoC5/UART_OSDP.c **** 
1490:.\Generated_Source\PSoC5/UART_OSDP.c ****             if( (retMode == UART_OSDP_SEND_BREAK) ||
1491:.\Generated_Source\PSoC5/UART_OSDP.c ****                 (retMode == UART_OSDP_SEND_WAIT_REINIT) )
1492:.\Generated_Source\PSoC5/UART_OSDP.c ****             {
1493:.\Generated_Source\PSoC5/UART_OSDP.c ****                 /* CTRL_HD_SEND_BREAK - skip to send parity bit at Break signal in Full Duplex mode
1494:.\Generated_Source\PSoC5/UART_OSDP.c ****                 #if( (UART_OSDP_PARITY_TYPE != UART_OSDP__B_UART__NONE_REVB) || \
1495:.\Generated_Source\PSoC5/UART_OSDP.c ****                                     (UART_OSDP_PARITY_TYPE_SW != 0u) )
1496:.\Generated_Source\PSoC5/UART_OSDP.c ****                     UART_OSDP_WriteControlRegister(UART_OSDP_ReadControlRegister() |
1497:.\Generated_Source\PSoC5/UART_OSDP.c ****                                                           UART_OSDP_CTRL_HD_SEND_BREAK);
1498:.\Generated_Source\PSoC5/UART_OSDP.c ****                 #endif /* End UART_OSDP_PARITY_TYPE != UART_OSDP__B_UART__NONE_REVB  */
1499:.\Generated_Source\PSoC5/UART_OSDP.c **** 
1500:.\Generated_Source\PSoC5/UART_OSDP.c ****                 #if(UART_OSDP_TXCLKGEN_DP)
1501:.\Generated_Source\PSoC5/UART_OSDP.c ****                     txPeriod = UART_OSDP_TXBITCLKTX_COMPLETE_REG;
1502:.\Generated_Source\PSoC5/UART_OSDP.c ****                     UART_OSDP_TXBITCLKTX_COMPLETE_REG = UART_OSDP_TXBITCTR_BREAKBITS;
1503:.\Generated_Source\PSoC5/UART_OSDP.c ****                 #else
1504:.\Generated_Source\PSoC5/UART_OSDP.c ****                     txPeriod = UART_OSDP_TXBITCTR_PERIOD_REG;
1505:.\Generated_Source\PSoC5/UART_OSDP.c ****                     UART_OSDP_TXBITCTR_PERIOD_REG = UART_OSDP_TXBITCTR_BREAKBITS8X;
1506:.\Generated_Source\PSoC5/UART_OSDP.c ****                 #endif /* End UART_OSDP_TXCLKGEN_DP */
1507:.\Generated_Source\PSoC5/UART_OSDP.c **** 
1508:.\Generated_Source\PSoC5/UART_OSDP.c ****                 /* Send zeros */
1509:.\Generated_Source\PSoC5/UART_OSDP.c ****                 UART_OSDP_TXDATA_REG = 0u;
1510:.\Generated_Source\PSoC5/UART_OSDP.c **** 
1511:.\Generated_Source\PSoC5/UART_OSDP.c ****                 do /* Wait until transmit starts */
1512:.\Generated_Source\PSoC5/UART_OSDP.c ****                 {
1513:.\Generated_Source\PSoC5/UART_OSDP.c ****                     tmpStat = UART_OSDP_TXSTATUS_REG;
1514:.\Generated_Source\PSoC5/UART_OSDP.c ****                 }
1515:.\Generated_Source\PSoC5/UART_OSDP.c ****                 while((tmpStat & UART_OSDP_TX_STS_FIFO_EMPTY) != 0u);
1516:.\Generated_Source\PSoC5/UART_OSDP.c ****             }
1517:.\Generated_Source\PSoC5/UART_OSDP.c **** 
1518:.\Generated_Source\PSoC5/UART_OSDP.c ****             if( (retMode == UART_OSDP_WAIT_FOR_COMPLETE_REINIT) ||
1519:.\Generated_Source\PSoC5/UART_OSDP.c ****                 (retMode == UART_OSDP_SEND_WAIT_REINIT) )
1520:.\Generated_Source\PSoC5/UART_OSDP.c ****             {
1521:.\Generated_Source\PSoC5/UART_OSDP.c ****                 do /* Wait until transmit complete */
1522:.\Generated_Source\PSoC5/UART_OSDP.c ****                 {
1523:.\Generated_Source\PSoC5/UART_OSDP.c ****                     tmpStat = UART_OSDP_TXSTATUS_REG;
1524:.\Generated_Source\PSoC5/UART_OSDP.c ****                 }
1525:.\Generated_Source\PSoC5/UART_OSDP.c ****                 while(((uint8)~tmpStat & UART_OSDP_TX_STS_COMPLETE) != 0u);
1526:.\Generated_Source\PSoC5/UART_OSDP.c ****             }
1527:.\Generated_Source\PSoC5/UART_OSDP.c **** 
1528:.\Generated_Source\PSoC5/UART_OSDP.c ****             if( (retMode == UART_OSDP_WAIT_FOR_COMPLETE_REINIT) ||
1529:.\Generated_Source\PSoC5/UART_OSDP.c ****                 (retMode == UART_OSDP_REINIT) ||
1530:.\Generated_Source\PSoC5/UART_OSDP.c ****                 (retMode == UART_OSDP_SEND_WAIT_REINIT) )
1531:.\Generated_Source\PSoC5/UART_OSDP.c ****             {
1532:.\Generated_Source\PSoC5/UART_OSDP.c **** 
1533:.\Generated_Source\PSoC5/UART_OSDP.c ****             #if(UART_OSDP_TXCLKGEN_DP)
1534:.\Generated_Source\PSoC5/UART_OSDP.c ****                 UART_OSDP_TXBITCLKTX_COMPLETE_REG = txPeriod;
1535:.\Generated_Source\PSoC5/UART_OSDP.c ****             #else
1536:.\Generated_Source\PSoC5/UART_OSDP.c ****                 UART_OSDP_TXBITCTR_PERIOD_REG = txPeriod;
1537:.\Generated_Source\PSoC5/UART_OSDP.c ****             #endif /* End UART_OSDP_TXCLKGEN_DP */
1538:.\Generated_Source\PSoC5/UART_OSDP.c **** 
1539:.\Generated_Source\PSoC5/UART_OSDP.c ****             #if( (UART_OSDP_PARITY_TYPE != UART_OSDP__B_UART__NONE_REVB) || \
1540:.\Generated_Source\PSoC5/UART_OSDP.c ****                  (UART_OSDP_PARITY_TYPE_SW != 0u) )
ARM GAS  C:\Users\Yiquing\AppData\Local\Temp\ccvaGiH9.s 			page 50


1541:.\Generated_Source\PSoC5/UART_OSDP.c ****                 UART_OSDP_WriteControlRegister(UART_OSDP_ReadControlRegister() &
1542:.\Generated_Source\PSoC5/UART_OSDP.c ****                                                       (uint8) ~UART_OSDP_CTRL_HD_SEND_BREAK);
1543:.\Generated_Source\PSoC5/UART_OSDP.c ****             #endif /* End UART_OSDP_PARITY_TYPE != NONE */
1544:.\Generated_Source\PSoC5/UART_OSDP.c ****             }
1545:.\Generated_Source\PSoC5/UART_OSDP.c ****         #endif    /* End UART_OSDP_HD_ENABLED */
1546:.\Generated_Source\PSoC5/UART_OSDP.c ****         }
1547:.\Generated_Source\PSoC5/UART_OSDP.c ****     }
1548:.\Generated_Source\PSoC5/UART_OSDP.c **** 
1549:.\Generated_Source\PSoC5/UART_OSDP.c **** 
1550:.\Generated_Source\PSoC5/UART_OSDP.c ****     /*******************************************************************************
1551:.\Generated_Source\PSoC5/UART_OSDP.c ****     * Function Name: UART_OSDP_SetTxAddressMode
1552:.\Generated_Source\PSoC5/UART_OSDP.c ****     ********************************************************************************
1553:.\Generated_Source\PSoC5/UART_OSDP.c ****     *
1554:.\Generated_Source\PSoC5/UART_OSDP.c ****     * Summary:
1555:.\Generated_Source\PSoC5/UART_OSDP.c ****     *  Configures the transmitter to signal the next bytes is address or data.
1556:.\Generated_Source\PSoC5/UART_OSDP.c ****     *
1557:.\Generated_Source\PSoC5/UART_OSDP.c ****     * Parameters:
1558:.\Generated_Source\PSoC5/UART_OSDP.c ****     *  addressMode: 
1559:.\Generated_Source\PSoC5/UART_OSDP.c ****     *       UART_OSDP_SET_SPACE - Configure the transmitter to send the next
1560:.\Generated_Source\PSoC5/UART_OSDP.c ****     *                                    byte as a data.
1561:.\Generated_Source\PSoC5/UART_OSDP.c ****     *       UART_OSDP_SET_MARK  - Configure the transmitter to send the next
1562:.\Generated_Source\PSoC5/UART_OSDP.c ****     *                                    byte as an address.
1563:.\Generated_Source\PSoC5/UART_OSDP.c ****     *
1564:.\Generated_Source\PSoC5/UART_OSDP.c ****     * Return:
1565:.\Generated_Source\PSoC5/UART_OSDP.c ****     *  None.
1566:.\Generated_Source\PSoC5/UART_OSDP.c ****     *
1567:.\Generated_Source\PSoC5/UART_OSDP.c ****     * Side Effects:
1568:.\Generated_Source\PSoC5/UART_OSDP.c ****     *  This function sets and clears UART_OSDP_CTRL_MARK bit in the Control
1569:.\Generated_Source\PSoC5/UART_OSDP.c ****     *  register.
1570:.\Generated_Source\PSoC5/UART_OSDP.c ****     *
1571:.\Generated_Source\PSoC5/UART_OSDP.c ****     *******************************************************************************/
1572:.\Generated_Source\PSoC5/UART_OSDP.c ****     void UART_OSDP_SetTxAddressMode(uint8 addressMode) 
1573:.\Generated_Source\PSoC5/UART_OSDP.c ****     {
 1219              		.loc 1 1573 0
 1220              		.cfi_startproc
 1221              		@ args = 0, pretend = 0, frame = 0
 1222              		@ frame_needed = 0, uses_anonymous_args = 0
 1223              		@ link register save eliminated.
 1224              	.LVL79:
 1225 0000 044B     		ldr	r3, .L152
 1226              	.LBB40:
 1227              	.LBB41:
 300:.\Generated_Source\PSoC5/UART_OSDP.c ****         return(UART_OSDP_CONTROL_REG);
 1228              		.loc 1 300 0
 1229 0002 1A78     		ldrb	r2, [r3]	@ zero_extendqisi2
 1230              	.LBE41:
 1231              	.LBE40:
1574:.\Generated_Source\PSoC5/UART_OSDP.c ****         /* Mark/Space sending enable */
1575:.\Generated_Source\PSoC5/UART_OSDP.c ****         if(addressMode != 0u)
 1232              		.loc 1 1575 0
 1233 0004 10B1     		cbz	r0, .L149
1576:.\Generated_Source\PSoC5/UART_OSDP.c ****         {
1577:.\Generated_Source\PSoC5/UART_OSDP.c ****         #if( UART_OSDP_CONTROL_REG_REMOVED == 0u )
1578:.\Generated_Source\PSoC5/UART_OSDP.c ****             UART_OSDP_WriteControlRegister(UART_OSDP_ReadControlRegister() |
 1234              		.loc 1 1578 0
 1235 0006 42F00402 		orr	r2, r2, #4
 1236              	.LVL80:
ARM GAS  C:\Users\Yiquing\AppData\Local\Temp\ccvaGiH9.s 			page 51


 1237 000a 01E0     		b	.L151
 1238              	.LVL81:
 1239              	.L149:
1579:.\Generated_Source\PSoC5/UART_OSDP.c ****                                                   UART_OSDP_CTRL_MARK);
1580:.\Generated_Source\PSoC5/UART_OSDP.c ****         #endif /* End UART_OSDP_CONTROL_REG_REMOVED == 0u */
1581:.\Generated_Source\PSoC5/UART_OSDP.c ****         }
1582:.\Generated_Source\PSoC5/UART_OSDP.c ****         else
1583:.\Generated_Source\PSoC5/UART_OSDP.c ****         {
1584:.\Generated_Source\PSoC5/UART_OSDP.c ****         #if( UART_OSDP_CONTROL_REG_REMOVED == 0u )
1585:.\Generated_Source\PSoC5/UART_OSDP.c ****             UART_OSDP_WriteControlRegister(UART_OSDP_ReadControlRegister() &
 1240              		.loc 1 1585 0
 1241 000c 02F0FB02 		and	r2, r2, #251
 1242              	.L151:
 1243              	.LVL82:
 1244              	.LBB42:
 1245              	.LBB43:
 327:.\Generated_Source\PSoC5/UART_OSDP.c ****        UART_OSDP_CONTROL_REG = control;
 1246              		.loc 1 327 0
 1247 0010 1A70     		strb	r2, [r3]
 1248 0012 7047     		bx	lr
 1249              	.L153:
 1250              		.align	2
 1251              	.L152:
 1252 0014 75650040 		.word	1073767797
 1253              	.LBE43:
 1254              	.LBE42:
 1255              		.cfi_endproc
 1256              	.LFE26:
 1257              		.size	UART_OSDP_SetTxAddressMode, .-UART_OSDP_SetTxAddressMode
 1258              		.section	.text.UART_OSDP_LoadRxConfig,"ax",%progbits
 1259              		.align	1
 1260              		.global	UART_OSDP_LoadRxConfig
 1261              		.thumb
 1262              		.thumb_func
 1263              		.type	UART_OSDP_LoadRxConfig, %function
 1264              	UART_OSDP_LoadRxConfig:
 1265              	.LFB27:
1586:.\Generated_Source\PSoC5/UART_OSDP.c ****                                                   (uint8) ~UART_OSDP_CTRL_MARK);
1587:.\Generated_Source\PSoC5/UART_OSDP.c ****         #endif /* End UART_OSDP_CONTROL_REG_REMOVED == 0u */
1588:.\Generated_Source\PSoC5/UART_OSDP.c ****         }
1589:.\Generated_Source\PSoC5/UART_OSDP.c ****     }
1590:.\Generated_Source\PSoC5/UART_OSDP.c **** 
1591:.\Generated_Source\PSoC5/UART_OSDP.c **** #endif  /* EndUART_OSDP_TX_ENABLED */
1592:.\Generated_Source\PSoC5/UART_OSDP.c **** 
1593:.\Generated_Source\PSoC5/UART_OSDP.c **** #if(UART_OSDP_HD_ENABLED)
1594:.\Generated_Source\PSoC5/UART_OSDP.c **** 
1595:.\Generated_Source\PSoC5/UART_OSDP.c **** 
1596:.\Generated_Source\PSoC5/UART_OSDP.c ****     /*******************************************************************************
1597:.\Generated_Source\PSoC5/UART_OSDP.c ****     * Function Name: UART_OSDP_LoadRxConfig
1598:.\Generated_Source\PSoC5/UART_OSDP.c ****     ********************************************************************************
1599:.\Generated_Source\PSoC5/UART_OSDP.c ****     *
1600:.\Generated_Source\PSoC5/UART_OSDP.c ****     * Summary:
1601:.\Generated_Source\PSoC5/UART_OSDP.c ****     *  Loads the receiver configuration in half duplex mode. After calling this
1602:.\Generated_Source\PSoC5/UART_OSDP.c ****     *  function, the UART is ready to receive data.
1603:.\Generated_Source\PSoC5/UART_OSDP.c ****     *
1604:.\Generated_Source\PSoC5/UART_OSDP.c ****     * Parameters:
1605:.\Generated_Source\PSoC5/UART_OSDP.c ****     *  None.
ARM GAS  C:\Users\Yiquing\AppData\Local\Temp\ccvaGiH9.s 			page 52


1606:.\Generated_Source\PSoC5/UART_OSDP.c ****     *
1607:.\Generated_Source\PSoC5/UART_OSDP.c ****     * Return:
1608:.\Generated_Source\PSoC5/UART_OSDP.c ****     *  None.
1609:.\Generated_Source\PSoC5/UART_OSDP.c ****     *
1610:.\Generated_Source\PSoC5/UART_OSDP.c ****     * Side Effects:
1611:.\Generated_Source\PSoC5/UART_OSDP.c ****     *  Valid only in half duplex mode. You must make sure that the previous
1612:.\Generated_Source\PSoC5/UART_OSDP.c ****     *  transaction is complete and it is safe to unload the transmitter
1613:.\Generated_Source\PSoC5/UART_OSDP.c ****     *  configuration.
1614:.\Generated_Source\PSoC5/UART_OSDP.c ****     *
1615:.\Generated_Source\PSoC5/UART_OSDP.c ****     *******************************************************************************/
1616:.\Generated_Source\PSoC5/UART_OSDP.c ****     void UART_OSDP_LoadRxConfig(void) 
1617:.\Generated_Source\PSoC5/UART_OSDP.c ****     {
 1266              		.loc 1 1617 0
 1267              		.cfi_startproc
 1268              		@ args = 0, pretend = 0, frame = 0
 1269              		@ frame_needed = 0, uses_anonymous_args = 0
 1270              		@ link register save eliminated.
 1271              	.LBB44:
 1272              	.LBB45:
 300:.\Generated_Source\PSoC5/UART_OSDP.c ****         return(UART_OSDP_CONTROL_REG);
 1273              		.loc 1 300 0
 1274 0000 064B     		ldr	r3, .L155
 1275 0002 1A78     		ldrb	r2, [r3]	@ zero_extendqisi2
 1276              	.LBE45:
 1277              	.LBE44:
 1278              	.LBB46:
 1279              	.LBB47:
 361:.\Generated_Source\PSoC5/UART_OSDP.c ****         UART_OSDP_RXSTATUS_MASK_REG  = intSrc;
 1280              		.loc 1 361 0
 1281 0004 F33B     		subs	r3, r3, #243
 1282              	.LBE47:
 1283              	.LBE46:
1618:.\Generated_Source\PSoC5/UART_OSDP.c ****         UART_OSDP_WriteControlRegister(UART_OSDP_ReadControlRegister() &
 1284              		.loc 1 1618 0
 1285 0006 02F0FE02 		and	r2, r2, #254
 1286              	.LVL83:
 1287              	.LBB49:
 1288              	.LBB50:
 327:.\Generated_Source\PSoC5/UART_OSDP.c ****        UART_OSDP_CONTROL_REG = control;
 1289              		.loc 1 327 0
 1290 000a 83F8F320 		strb	r2, [r3, #243]
 1291              	.LBE50:
 1292              	.LBE49:
1619:.\Generated_Source\PSoC5/UART_OSDP.c ****                                                 (uint8)~UART_OSDP_CTRL_HD_SEND);
1620:.\Generated_Source\PSoC5/UART_OSDP.c ****         UART_OSDP_RXBITCTR_PERIOD_REG = UART_OSDP_HD_RXBITCTR_INIT;
 1293              		.loc 1 1620 0
 1294 000e 7222     		movs	r2, #114
 1295              	.LVL84:
 1296 0010 83F80421 		strb	r2, [r3, #260]
 1297              	.LVL85:
 1298              	.LBB51:
 1299              	.LBB48:
 361:.\Generated_Source\PSoC5/UART_OSDP.c ****         UART_OSDP_RXSTATUS_MASK_REG  = intSrc;
 1300              		.loc 1 361 0
 1301 0014 2022     		movs	r2, #32
 1302 0016 1A70     		strb	r2, [r3]
 1303 0018 7047     		bx	lr
ARM GAS  C:\Users\Yiquing\AppData\Local\Temp\ccvaGiH9.s 			page 53


 1304              	.L156:
 1305 001a 00BF     		.align	2
 1306              	.L155:
 1307 001c 75650040 		.word	1073767797
 1308              	.LBE48:
 1309              	.LBE51:
 1310              		.cfi_endproc
 1311              	.LFE27:
 1312              		.size	UART_OSDP_LoadRxConfig, .-UART_OSDP_LoadRxConfig
 1313              		.section	.text.UART_OSDP_LoadTxConfig,"ax",%progbits
 1314              		.align	1
 1315              		.global	UART_OSDP_LoadTxConfig
 1316              		.thumb
 1317              		.thumb_func
 1318              		.type	UART_OSDP_LoadTxConfig, %function
 1319              	UART_OSDP_LoadTxConfig:
 1320              	.LFB28:
1621:.\Generated_Source\PSoC5/UART_OSDP.c **** 
1622:.\Generated_Source\PSoC5/UART_OSDP.c ****     #if (UART_OSDP_RX_INTERRUPT_ENABLED)
1623:.\Generated_Source\PSoC5/UART_OSDP.c ****         /* Enable RX interrupt after set RX configuration */
1624:.\Generated_Source\PSoC5/UART_OSDP.c ****         UART_OSDP_SetRxInterruptMode(UART_OSDP_INIT_RX_INTERRUPTS_MASK);
1625:.\Generated_Source\PSoC5/UART_OSDP.c ****     #endif /* (UART_OSDP_RX_INTERRUPT_ENABLED) */
1626:.\Generated_Source\PSoC5/UART_OSDP.c ****     }
1627:.\Generated_Source\PSoC5/UART_OSDP.c **** 
1628:.\Generated_Source\PSoC5/UART_OSDP.c **** 
1629:.\Generated_Source\PSoC5/UART_OSDP.c ****     /*******************************************************************************
1630:.\Generated_Source\PSoC5/UART_OSDP.c ****     * Function Name: UART_OSDP_LoadTxConfig
1631:.\Generated_Source\PSoC5/UART_OSDP.c ****     ********************************************************************************
1632:.\Generated_Source\PSoC5/UART_OSDP.c ****     *
1633:.\Generated_Source\PSoC5/UART_OSDP.c ****     * Summary:
1634:.\Generated_Source\PSoC5/UART_OSDP.c ****     *  Loads the transmitter configuration in half duplex mode. After calling this
1635:.\Generated_Source\PSoC5/UART_OSDP.c ****     *  function, the UART is ready to transmit data.
1636:.\Generated_Source\PSoC5/UART_OSDP.c ****     *
1637:.\Generated_Source\PSoC5/UART_OSDP.c ****     * Parameters:
1638:.\Generated_Source\PSoC5/UART_OSDP.c ****     *  None.
1639:.\Generated_Source\PSoC5/UART_OSDP.c ****     *
1640:.\Generated_Source\PSoC5/UART_OSDP.c ****     * Return:
1641:.\Generated_Source\PSoC5/UART_OSDP.c ****     *  None.
1642:.\Generated_Source\PSoC5/UART_OSDP.c ****     *
1643:.\Generated_Source\PSoC5/UART_OSDP.c ****     * Side Effects:
1644:.\Generated_Source\PSoC5/UART_OSDP.c ****     *  Valid only in half duplex mode. You must make sure that the previous
1645:.\Generated_Source\PSoC5/UART_OSDP.c ****     *  transaction is complete and it is safe to unload the receiver configuration.
1646:.\Generated_Source\PSoC5/UART_OSDP.c ****     *
1647:.\Generated_Source\PSoC5/UART_OSDP.c ****     *******************************************************************************/
1648:.\Generated_Source\PSoC5/UART_OSDP.c ****     void UART_OSDP_LoadTxConfig(void) 
1649:.\Generated_Source\PSoC5/UART_OSDP.c ****     {
 1321              		.loc 1 1649 0
 1322              		.cfi_startproc
 1323              		@ args = 0, pretend = 0, frame = 0
 1324              		@ frame_needed = 0, uses_anonymous_args = 0
 1325              		@ link register save eliminated.
 1326              	.LVL86:
 1327              	.LBB52:
 1328              	.LBB53:
 361:.\Generated_Source\PSoC5/UART_OSDP.c ****         UART_OSDP_RXSTATUS_MASK_REG  = intSrc;
 1329              		.loc 1 361 0
 1330 0000 064B     		ldr	r3, .L158
ARM GAS  C:\Users\Yiquing\AppData\Local\Temp\ccvaGiH9.s 			page 54


 1331 0002 0022     		movs	r2, #0
 1332 0004 1A70     		strb	r2, [r3]
 1333              	.LBE53:
 1334              	.LBE52:
 1335              	.LBB54:
 1336              	.LBB55:
 300:.\Generated_Source\PSoC5/UART_OSDP.c ****         return(UART_OSDP_CONTROL_REG);
 1337              		.loc 1 300 0
 1338 0006 93F8F320 		ldrb	r2, [r3, #243]	@ zero_extendqisi2
 1339              	.LBE55:
 1340              	.LBE54:
1650:.\Generated_Source\PSoC5/UART_OSDP.c ****     #if (UART_OSDP_RX_INTERRUPT_ENABLED)
1651:.\Generated_Source\PSoC5/UART_OSDP.c ****         /* Disable RX interrupts before set TX configuration */
1652:.\Generated_Source\PSoC5/UART_OSDP.c ****         UART_OSDP_SetRxInterruptMode(0u);
1653:.\Generated_Source\PSoC5/UART_OSDP.c ****     #endif /* (UART_OSDP_RX_INTERRUPT_ENABLED) */
1654:.\Generated_Source\PSoC5/UART_OSDP.c **** 
1655:.\Generated_Source\PSoC5/UART_OSDP.c ****         UART_OSDP_WriteControlRegister(UART_OSDP_ReadControlRegister() | UART_OSDP_CTRL_HD_SEND);
 1341              		.loc 1 1655 0
 1342 000a 42F00102 		orr	r2, r2, #1
 1343              	.LVL87:
 1344              	.LBB56:
 1345              	.LBB57:
 327:.\Generated_Source\PSoC5/UART_OSDP.c ****        UART_OSDP_CONTROL_REG = control;
 1346              		.loc 1 327 0
 1347 000e 83F8F320 		strb	r2, [r3, #243]
 1348              	.LBE57:
 1349              	.LBE56:
1656:.\Generated_Source\PSoC5/UART_OSDP.c ****         UART_OSDP_RXBITCTR_PERIOD_REG = UART_OSDP_HD_TXBITCTR_INIT;
 1350              		.loc 1 1656 0
 1351 0012 6F22     		movs	r2, #111
 1352              	.LVL88:
 1353 0014 83F80421 		strb	r2, [r3, #260]
 1354 0018 7047     		bx	lr
 1355              	.L159:
 1356 001a 00BF     		.align	2
 1357              	.L158:
 1358 001c 82640040 		.word	1073767554
 1359              		.cfi_endproc
 1360              	.LFE28:
 1361              		.size	UART_OSDP_LoadTxConfig, .-UART_OSDP_LoadTxConfig
 1362              		.global	UART_OSDP_rxBufferOverflow
 1363              		.global	UART_OSDP_rxBufferLoopDetect
 1364              		.global	UART_OSDP_rxBufferWrite
 1365              		.global	UART_OSDP_rxBufferRead
 1366              		.comm	UART_OSDP_rxBuffer,256,1
 1367              		.global	UART_OSDP_errorStatus
 1368              		.global	UART_OSDP_initVar
 1369              		.bss
 1370              		.align	1
 1371              		.set	.LANCHOR0,. + 0
 1372              		.type	UART_OSDP_errorStatus, %object
 1373              		.size	UART_OSDP_errorStatus, 1
 1374              	UART_OSDP_errorStatus:
 1375 0000 00       		.space	1
 1376              		.type	UART_OSDP_initVar, %object
 1377              		.size	UART_OSDP_initVar, 1
 1378              	UART_OSDP_initVar:
ARM GAS  C:\Users\Yiquing\AppData\Local\Temp\ccvaGiH9.s 			page 55


 1379 0001 00       		.space	1
 1380              		.type	UART_OSDP_rxBufferRead, %object
 1381              		.size	UART_OSDP_rxBufferRead, 2
 1382              	UART_OSDP_rxBufferRead:
 1383 0002 0000     		.space	2
 1384              		.type	UART_OSDP_rxBufferWrite, %object
 1385              		.size	UART_OSDP_rxBufferWrite, 2
 1386              	UART_OSDP_rxBufferWrite:
 1387 0004 0000     		.space	2
 1388              		.type	UART_OSDP_rxBufferLoopDetect, %object
 1389              		.size	UART_OSDP_rxBufferLoopDetect, 1
 1390              	UART_OSDP_rxBufferLoopDetect:
 1391 0006 00       		.space	1
 1392              		.type	UART_OSDP_rxBufferOverflow, %object
 1393              		.size	UART_OSDP_rxBufferOverflow, 1
 1394              	UART_OSDP_rxBufferOverflow:
 1395 0007 00       		.space	1
 1396              		.text
 1397              	.Letext0:
 1398              		.file 2 ".\\Generated_Source\\PSoC5\\cytypes.h"
 1399              		.file 3 ".\\Generated_Source\\PSoC5\\CyLib.h"