ARM GAS  C:\Users\Yiquing\AppData\Local\Temp\ccvaGiH9.s 			page 1


   1              		.syntax unified
   2              		.cpu cortex-m3
   3              		.fpu softvfp
   4              		.eabi_attribute 20, 1
   5              		.eabi_attribute 21, 1
   6              		.eabi_attribute 23, 3
   7              		.eabi_attribute 24, 1
   8              		.eabi_attribute 25, 1
   9              		.eabi_attribute 26, 1
  10              		.eabi_attribute 30, 4
  11              		.eabi_attribute 34, 1
  12              		.eabi_attribute 18, 4
  13              		.thumb
  14              		.file	"UART_OSDP.c"
  15              		.text
  16              	.Ltext0:
  17              		.cfi_sections	.debug_frame
  18              		.section	.text.UART_OSDP_Init,"ax",%progbits
  19              		.align	1
  20              		.global	UART_OSDP_Init
  21              		.thumb
  22              		.thumb_func
  23              		.type	UART_OSDP_Init, %function
  24              	UART_OSDP_Init:
  25              	.LFB1:
  26              		.file 1 ".\\Generated_Source\\PSoC5\\UART_OSDP.c"
   1:.\Generated_Source\PSoC5/UART_OSDP.c **** /*******************************************************************************
   2:.\Generated_Source\PSoC5/UART_OSDP.c **** * File Name: UART_OSDP.c
   3:.\Generated_Source\PSoC5/UART_OSDP.c **** * Version 2.50
   4:.\Generated_Source\PSoC5/UART_OSDP.c **** *
   5:.\Generated_Source\PSoC5/UART_OSDP.c **** * Description:
   6:.\Generated_Source\PSoC5/UART_OSDP.c **** *  This file provides all API functionality of the UART component
   7:.\Generated_Source\PSoC5/UART_OSDP.c **** *
   8:.\Generated_Source\PSoC5/UART_OSDP.c **** * Note:
   9:.\Generated_Source\PSoC5/UART_OSDP.c **** *
  10:.\Generated_Source\PSoC5/UART_OSDP.c **** ********************************************************************************
  11:.\Generated_Source\PSoC5/UART_OSDP.c **** * Copyright 2008-2015, Cypress Semiconductor Corporation.  All rights reserved.
  12:.\Generated_Source\PSoC5/UART_OSDP.c **** * You may use this file only in accordance with the license, terms, conditions,
  13:.\Generated_Source\PSoC5/UART_OSDP.c **** * disclaimers, and limitations in the end user license agreement accompanying
  14:.\Generated_Source\PSoC5/UART_OSDP.c **** * the software package with which this file was provided.
  15:.\Generated_Source\PSoC5/UART_OSDP.c **** *******************************************************************************/
  16:.\Generated_Source\PSoC5/UART_OSDP.c **** 
  17:.\Generated_Source\PSoC5/UART_OSDP.c **** #include "UART_OSDP.h"
  18:.\Generated_Source\PSoC5/UART_OSDP.c **** #if (UART_OSDP_INTERNAL_CLOCK_USED)
  19:.\Generated_Source\PSoC5/UART_OSDP.c ****     #include "UART_OSDP_IntClock.h"
  20:.\Generated_Source\PSoC5/UART_OSDP.c **** #endif /* End UART_OSDP_INTERNAL_CLOCK_USED */
  21:.\Generated_Source\PSoC5/UART_OSDP.c **** 
  22:.\Generated_Source\PSoC5/UART_OSDP.c **** 
  23:.\Generated_Source\PSoC5/UART_OSDP.c **** /***************************************
  24:.\Generated_Source\PSoC5/UART_OSDP.c **** * Global data allocation
  25:.\Generated_Source\PSoC5/UART_OSDP.c **** ***************************************/
  26:.\Generated_Source\PSoC5/UART_OSDP.c **** 
  27:.\Generated_Source\PSoC5/UART_OSDP.c **** uint8 UART_OSDP_initVar = 0u;
  28:.\Generated_Source\PSoC5/UART_OSDP.c **** 
  29:.\Generated_Source\PSoC5/UART_OSDP.c **** #if (UART_OSDP_TX_INTERRUPT_ENABLED && UART_OSDP_TX_ENABLED)
  30:.\Generated_Source\PSoC5/UART_OSDP.c ****     volatile uint8 UART_OSDP_txBuffer[UART_OSDP_TX_BUFFER_SIZE];
  31:.\Generated_Source\PSoC5/UART_OSDP.c ****     volatile uint8 UART_OSDP_txBufferRead = 0u;
ARM GAS  C:\Users\Yiquing\AppData\Local\Temp\ccvaGiH9.s 			page 2


  32:.\Generated_Source\PSoC5/UART_OSDP.c ****     uint8 UART_OSDP_txBufferWrite = 0u;
  33:.\Generated_Source\PSoC5/UART_OSDP.c **** #endif /* (UART_OSDP_TX_INTERRUPT_ENABLED && UART_OSDP_TX_ENABLED) */
  34:.\Generated_Source\PSoC5/UART_OSDP.c **** 
  35:.\Generated_Source\PSoC5/UART_OSDP.c **** #if (UART_OSDP_RX_INTERRUPT_ENABLED && (UART_OSDP_RX_ENABLED || UART_OSDP_HD_ENABLED))
  36:.\Generated_Source\PSoC5/UART_OSDP.c ****     uint8 UART_OSDP_errorStatus = 0u;
  37:.\Generated_Source\PSoC5/UART_OSDP.c ****     volatile uint8 UART_OSDP_rxBuffer[UART_OSDP_RX_BUFFER_SIZE];
  38:.\Generated_Source\PSoC5/UART_OSDP.c ****     volatile uint16 UART_OSDP_rxBufferRead  = 0u;
  39:.\Generated_Source\PSoC5/UART_OSDP.c ****     volatile uint16 UART_OSDP_rxBufferWrite = 0u;
  40:.\Generated_Source\PSoC5/UART_OSDP.c ****     volatile uint8 UART_OSDP_rxBufferLoopDetect = 0u;
  41:.\Generated_Source\PSoC5/UART_OSDP.c ****     volatile uint8 UART_OSDP_rxBufferOverflow   = 0u;
  42:.\Generated_Source\PSoC5/UART_OSDP.c ****     #if (UART_OSDP_RXHW_ADDRESS_ENABLED)
  43:.\Generated_Source\PSoC5/UART_OSDP.c ****         volatile uint8 UART_OSDP_rxAddressMode = UART_OSDP_RX_ADDRESS_MODE;
  44:.\Generated_Source\PSoC5/UART_OSDP.c ****         volatile uint8 UART_OSDP_rxAddressDetected = 0u;
  45:.\Generated_Source\PSoC5/UART_OSDP.c ****     #endif /* (UART_OSDP_RXHW_ADDRESS_ENABLED) */
  46:.\Generated_Source\PSoC5/UART_OSDP.c **** #endif /* (UART_OSDP_RX_INTERRUPT_ENABLED && (UART_OSDP_RX_ENABLED || UART_OSDP_HD_ENABLED)) */
  47:.\Generated_Source\PSoC5/UART_OSDP.c **** 
  48:.\Generated_Source\PSoC5/UART_OSDP.c **** 
  49:.\Generated_Source\PSoC5/UART_OSDP.c **** /*******************************************************************************
  50:.\Generated_Source\PSoC5/UART_OSDP.c **** * Function Name: UART_OSDP_Start
  51:.\Generated_Source\PSoC5/UART_OSDP.c **** ********************************************************************************
  52:.\Generated_Source\PSoC5/UART_OSDP.c **** *
  53:.\Generated_Source\PSoC5/UART_OSDP.c **** * Summary:
  54:.\Generated_Source\PSoC5/UART_OSDP.c **** *  This is the preferred method to begin component operation.
  55:.\Generated_Source\PSoC5/UART_OSDP.c **** *  UART_OSDP_Start() sets the initVar variable, calls the
  56:.\Generated_Source\PSoC5/UART_OSDP.c **** *  UART_OSDP_Init() function, and then calls the
  57:.\Generated_Source\PSoC5/UART_OSDP.c **** *  UART_OSDP_Enable() function.
  58:.\Generated_Source\PSoC5/UART_OSDP.c **** *
  59:.\Generated_Source\PSoC5/UART_OSDP.c **** * Parameters:
  60:.\Generated_Source\PSoC5/UART_OSDP.c **** *  None.
  61:.\Generated_Source\PSoC5/UART_OSDP.c **** *
  62:.\Generated_Source\PSoC5/UART_OSDP.c **** * Return:
  63:.\Generated_Source\PSoC5/UART_OSDP.c **** *  None.
  64:.\Generated_Source\PSoC5/UART_OSDP.c **** *
  65:.\Generated_Source\PSoC5/UART_OSDP.c **** * Global variables:
  66:.\Generated_Source\PSoC5/UART_OSDP.c **** *  The UART_OSDP_intiVar variable is used to indicate initial
  67:.\Generated_Source\PSoC5/UART_OSDP.c **** *  configuration of this component. The variable is initialized to zero (0u)
  68:.\Generated_Source\PSoC5/UART_OSDP.c **** *  and set to one (1u) the first time UART_OSDP_Start() is called. This
  69:.\Generated_Source\PSoC5/UART_OSDP.c **** *  allows for component initialization without re-initialization in all
  70:.\Generated_Source\PSoC5/UART_OSDP.c **** *  subsequent calls to the UART_OSDP_Start() routine.
  71:.\Generated_Source\PSoC5/UART_OSDP.c **** *
  72:.\Generated_Source\PSoC5/UART_OSDP.c **** * Reentrant:
  73:.\Generated_Source\PSoC5/UART_OSDP.c **** *  No.
  74:.\Generated_Source\PSoC5/UART_OSDP.c **** *
  75:.\Generated_Source\PSoC5/UART_OSDP.c **** *******************************************************************************/
  76:.\Generated_Source\PSoC5/UART_OSDP.c **** void UART_OSDP_Start(void) 
  77:.\Generated_Source\PSoC5/UART_OSDP.c **** {
  78:.\Generated_Source\PSoC5/UART_OSDP.c ****     /* If not initialized then initialize all required hardware and software */
  79:.\Generated_Source\PSoC5/UART_OSDP.c ****     if(UART_OSDP_initVar == 0u)
  80:.\Generated_Source\PSoC5/UART_OSDP.c ****     {
  81:.\Generated_Source\PSoC5/UART_OSDP.c ****         UART_OSDP_Init();
  82:.\Generated_Source\PSoC5/UART_OSDP.c ****         UART_OSDP_initVar = 1u;
  83:.\Generated_Source\PSoC5/UART_OSDP.c ****     }
  84:.\Generated_Source\PSoC5/UART_OSDP.c **** 
  85:.\Generated_Source\PSoC5/UART_OSDP.c ****     UART_OSDP_Enable();
  86:.\Generated_Source\PSoC5/UART_OSDP.c **** }
  87:.\Generated_Source\PSoC5/UART_OSDP.c **** 
  88:.\Generated_Source\PSoC5/UART_OSDP.c **** 
ARM GAS  C:\Users\Yiquing\AppData\Local\Temp\ccvaGiH9.s 			page 3


  89:.\Generated_Source\PSoC5/UART_OSDP.c **** /*******************************************************************************
  90:.\Generated_Source\PSoC5/UART_OSDP.c **** * Function Name: UART_OSDP_Init
  91:.\Generated_Source\PSoC5/UART_OSDP.c **** ********************************************************************************
  92:.\Generated_Source\PSoC5/UART_OSDP.c **** *
  93:.\Generated_Source\PSoC5/UART_OSDP.c **** * Summary:
  94:.\Generated_Source\PSoC5/UART_OSDP.c **** *  Initializes or restores the component according to the customizer Configure
  95:.\Generated_Source\PSoC5/UART_OSDP.c **** *  dialog settings. It is not necessary to call UART_OSDP_Init() because
  96:.\Generated_Source\PSoC5/UART_OSDP.c **** *  the UART_OSDP_Start() API calls this function and is the preferred
  97:.\Generated_Source\PSoC5/UART_OSDP.c **** *  method to begin component operation.
  98:.\Generated_Source\PSoC5/UART_OSDP.c **** *
  99:.\Generated_Source\PSoC5/UART_OSDP.c **** * Parameters:
 100:.\Generated_Source\PSoC5/UART_OSDP.c **** *  None.
 101:.\Generated_Source\PSoC5/UART_OSDP.c **** *
 102:.\Generated_Source\PSoC5/UART_OSDP.c **** * Return:
 103:.\Generated_Source\PSoC5/UART_OSDP.c **** *  None.
 104:.\Generated_Source\PSoC5/UART_OSDP.c **** *
 105:.\Generated_Source\PSoC5/UART_OSDP.c **** *******************************************************************************/
 106:.\Generated_Source\PSoC5/UART_OSDP.c **** void UART_OSDP_Init(void) 
 107:.\Generated_Source\PSoC5/UART_OSDP.c **** {
  27              		.loc 1 107 0
  28              		.cfi_startproc
  29              		@ args = 0, pretend = 0, frame = 0
  30              		@ frame_needed = 0, uses_anonymous_args = 0
  31 0000 08B5     		push	{r3, lr}
  32              		.cfi_def_cfa_offset 8
  33              		.cfi_offset 3, -8
  34              		.cfi_offset 14, -4
 108:.\Generated_Source\PSoC5/UART_OSDP.c ****     #if(UART_OSDP_RX_ENABLED || UART_OSDP_HD_ENABLED)
 109:.\Generated_Source\PSoC5/UART_OSDP.c **** 
 110:.\Generated_Source\PSoC5/UART_OSDP.c ****         #if (UART_OSDP_RX_INTERRUPT_ENABLED)
 111:.\Generated_Source\PSoC5/UART_OSDP.c ****             /* Set RX interrupt vector and priority */
 112:.\Generated_Source\PSoC5/UART_OSDP.c ****             (void) CyIntSetVector(UART_OSDP_RX_VECT_NUM, &UART_OSDP_RXISR);
  35              		.loc 1 112 0
  36 0002 0949     		ldr	r1, .L2
  37 0004 0020     		movs	r0, #0
  38 0006 FFF7FEFF 		bl	CyIntSetVector
  39              	.LVL0:
 113:.\Generated_Source\PSoC5/UART_OSDP.c ****             CyIntSetPriority(UART_OSDP_RX_VECT_NUM, UART_OSDP_RX_PRIOR_NUM);
  40              		.loc 1 113 0
  41 000a 0020     		movs	r0, #0
  42 000c 0721     		movs	r1, #7
  43 000e FFF7FEFF 		bl	CyIntSetPriority
  44              	.LVL1:
 114:.\Generated_Source\PSoC5/UART_OSDP.c ****             UART_OSDP_errorStatus = 0u;
  45              		.loc 1 114 0
  46 0012 064B     		ldr	r3, .L2+4
  47 0014 0022     		movs	r2, #0
  48 0016 1A70     		strb	r2, [r3]
 115:.\Generated_Source\PSoC5/UART_OSDP.c ****         #endif /* (UART_OSDP_RX_INTERRUPT_ENABLED) */
 116:.\Generated_Source\PSoC5/UART_OSDP.c **** 
 117:.\Generated_Source\PSoC5/UART_OSDP.c ****         #if (UART_OSDP_RXHW_ADDRESS_ENABLED)
 118:.\Generated_Source\PSoC5/UART_OSDP.c ****             UART_OSDP_SetRxAddressMode(UART_OSDP_RX_ADDRESS_MODE);
 119:.\Generated_Source\PSoC5/UART_OSDP.c ****             UART_OSDP_SetRxAddress1(UART_OSDP_RX_HW_ADDRESS1);
 120:.\Generated_Source\PSoC5/UART_OSDP.c ****             UART_OSDP_SetRxAddress2(UART_OSDP_RX_HW_ADDRESS2);
 121:.\Generated_Source\PSoC5/UART_OSDP.c ****         #endif /* End UART_OSDP_RXHW_ADDRESS_ENABLED */
 122:.\Generated_Source\PSoC5/UART_OSDP.c **** 
 123:.\Generated_Source\PSoC5/UART_OSDP.c ****         /* Init Count7 period */
ARM GAS  C:\Users\Yiquing\AppData\Local\Temp\ccvaGiH9.s 			page 4


 124:.\Generated_Source\PSoC5/UART_OSDP.c ****         UART_OSDP_RXBITCTR_PERIOD_REG = UART_OSDP_RXBITCTR_INIT;
  49              		.loc 1 124 0
  50 0018 054B     		ldr	r3, .L2+8
  51 001a 7222     		movs	r2, #114
  52 001c 1A70     		strb	r2, [r3]
 125:.\Generated_Source\PSoC5/UART_OSDP.c ****         /* Configure the Initial RX interrupt mask */
 126:.\Generated_Source\PSoC5/UART_OSDP.c ****         UART_OSDP_RXSTATUS_MASK_REG  = UART_OSDP_INIT_RX_INTERRUPTS_MASK;
  53              		.loc 1 126 0
  54 001e 2022     		movs	r2, #32
  55 0020 A3F58273 		sub	r3, r3, #260
  56 0024 1A70     		strb	r2, [r3]
  57 0026 08BD     		pop	{r3, pc}
  58              	.L3:
  59              		.align	2
  60              	.L2:
  61 0028 00000000 		.word	UART_OSDP_RXISR
  62 002c 00000000 		.word	.LANCHOR0
  63 0030 86650040 		.word	1073767814
  64              		.cfi_endproc
  65              	.LFE1:
  66              		.size	UART_OSDP_Init, .-UART_OSDP_Init
  67              		.section	.text.UART_OSDP_Enable,"ax",%progbits
  68              		.align	1
  69              		.global	UART_OSDP_Enable
  70              		.thumb
  71              		.thumb_func
  72              		.type	UART_OSDP_Enable, %function
  73              	UART_OSDP_Enable:
  74              	.LFB2:
 127:.\Generated_Source\PSoC5/UART_OSDP.c ****     #endif /* End UART_OSDP_RX_ENABLED || UART_OSDP_HD_ENABLED*/
 128:.\Generated_Source\PSoC5/UART_OSDP.c **** 
 129:.\Generated_Source\PSoC5/UART_OSDP.c ****     #if(UART_OSDP_TX_ENABLED)
 130:.\Generated_Source\PSoC5/UART_OSDP.c ****         #if (UART_OSDP_TX_INTERRUPT_ENABLED)
 131:.\Generated_Source\PSoC5/UART_OSDP.c ****             /* Set TX interrupt vector and priority */
 132:.\Generated_Source\PSoC5/UART_OSDP.c ****             (void) CyIntSetVector(UART_OSDP_TX_VECT_NUM, &UART_OSDP_TXISR);
 133:.\Generated_Source\PSoC5/UART_OSDP.c ****             CyIntSetPriority(UART_OSDP_TX_VECT_NUM, UART_OSDP_TX_PRIOR_NUM);
 134:.\Generated_Source\PSoC5/UART_OSDP.c ****         #endif /* (UART_OSDP_TX_INTERRUPT_ENABLED) */
 135:.\Generated_Source\PSoC5/UART_OSDP.c **** 
 136:.\Generated_Source\PSoC5/UART_OSDP.c ****         /* Write Counter Value for TX Bit Clk Generator*/
 137:.\Generated_Source\PSoC5/UART_OSDP.c ****         #if (UART_OSDP_TXCLKGEN_DP)
 138:.\Generated_Source\PSoC5/UART_OSDP.c ****             UART_OSDP_TXBITCLKGEN_CTR_REG = UART_OSDP_BIT_CENTER;
 139:.\Generated_Source\PSoC5/UART_OSDP.c ****             UART_OSDP_TXBITCLKTX_COMPLETE_REG = ((UART_OSDP_NUMBER_OF_DATA_BITS +
 140:.\Generated_Source\PSoC5/UART_OSDP.c ****                         UART_OSDP_NUMBER_OF_START_BIT) * UART_OSDP_OVER_SAMPLE_COUNT) - 1u;
 141:.\Generated_Source\PSoC5/UART_OSDP.c ****         #else
 142:.\Generated_Source\PSoC5/UART_OSDP.c ****             UART_OSDP_TXBITCTR_PERIOD_REG = ((UART_OSDP_NUMBER_OF_DATA_BITS +
 143:.\Generated_Source\PSoC5/UART_OSDP.c ****                         UART_OSDP_NUMBER_OF_START_BIT) * UART_OSDP_OVER_SAMPLE_8) - 1u;
 144:.\Generated_Source\PSoC5/UART_OSDP.c ****         #endif /* End UART_OSDP_TXCLKGEN_DP */
 145:.\Generated_Source\PSoC5/UART_OSDP.c **** 
 146:.\Generated_Source\PSoC5/UART_OSDP.c ****         /* Configure the Initial TX interrupt mask */
 147:.\Generated_Source\PSoC5/UART_OSDP.c ****         #if (UART_OSDP_TX_INTERRUPT_ENABLED)
 148:.\Generated_Source\PSoC5/UART_OSDP.c ****             UART_OSDP_TXSTATUS_MASK_REG = UART_OSDP_TX_STS_FIFO_EMPTY;
 149:.\Generated_Source\PSoC5/UART_OSDP.c ****         #else
 150:.\Generated_Source\PSoC5/UART_OSDP.c ****             UART_OSDP_TXSTATUS_MASK_REG = UART_OSDP_INIT_TX_INTERRUPTS_MASK;
 151:.\Generated_Source\PSoC5/UART_OSDP.c ****         #endif /*End UART_OSDP_TX_INTERRUPT_ENABLED*/
 152:.\Generated_Source\PSoC5/UART_OSDP.c **** 
 153:.\Generated_Source\PSoC5/UART_OSDP.c ****     #endif /* End UART_OSDP_TX_ENABLED */
 154:.\Generated_Source\PSoC5/UART_OSDP.c **** 
ARM GAS  C:\Users\Yiquing\AppData\Local\Temp\ccvaGiH9.s 			page 5


 155:.\Generated_Source\PSoC5/UART_OSDP.c ****     #if(UART_OSDP_PARITY_TYPE_SW)  /* Write Parity to Control Register */
 156:.\Generated_Source\PSoC5/UART_OSDP.c ****         UART_OSDP_WriteControlRegister( \
 157:.\Generated_Source\PSoC5/UART_OSDP.c ****             (UART_OSDP_ReadControlRegister() & (uint8)~UART_OSDP_CTRL_PARITY_TYPE_MASK) | \
 158:.\Generated_Source\PSoC5/UART_OSDP.c ****             (uint8)(UART_OSDP_PARITY_TYPE << UART_OSDP_CTRL_PARITY_TYPE0_SHIFT) );
 159:.\Generated_Source\PSoC5/UART_OSDP.c ****     #endif /* End UART_OSDP_PARITY_TYPE_SW */
 160:.\Generated_Source\PSoC5/UART_OSDP.c **** }
 161:.\Generated_Source\PSoC5/UART_OSDP.c **** 
 162:.\Generated_Source\PSoC5/UART_OSDP.c **** 
 163:.\Generated_Source\PSoC5/UART_OSDP.c **** /*******************************************************************************
 164:.\Generated_Source\PSoC5/UART_OSDP.c **** * Function Name: UART_OSDP_Enable
 165:.\Generated_Source\PSoC5/UART_OSDP.c **** ********************************************************************************
 166:.\Generated_Source\PSoC5/UART_OSDP.c **** *
 167:.\Generated_Source\PSoC5/UART_OSDP.c **** * Summary:
 168:.\Generated_Source\PSoC5/UART_OSDP.c **** *  Activates the hardware and begins component operation. It is not necessary
 169:.\Generated_Source\PSoC5/UART_OSDP.c **** *  to call UART_OSDP_Enable() because the UART_OSDP_Start() API
 170:.\Generated_Source\PSoC5/UART_OSDP.c **** *  calls this function, which is the preferred method to begin component
 171:.\Generated_Source\PSoC5/UART_OSDP.c **** *  operation.
 172:.\Generated_Source\PSoC5/UART_OSDP.c **** 
 173:.\Generated_Source\PSoC5/UART_OSDP.c **** * Parameters:
 174:.\Generated_Source\PSoC5/UART_OSDP.c **** *  None.
 175:.\Generated_Source\PSoC5/UART_OSDP.c **** *
 176:.\Generated_Source\PSoC5/UART_OSDP.c **** * Return:
 177:.\Generated_Source\PSoC5/UART_OSDP.c **** *  None.
 178:.\Generated_Source\PSoC5/UART_OSDP.c **** *
 179:.\Generated_Source\PSoC5/UART_OSDP.c **** * Global Variables:
 180:.\Generated_Source\PSoC5/UART_OSDP.c **** *  UART_OSDP_rxAddressDetected - set to initial state (0).
 181:.\Generated_Source\PSoC5/UART_OSDP.c **** *
 182:.\Generated_Source\PSoC5/UART_OSDP.c **** *******************************************************************************/
 183:.\Generated_Source\PSoC5/UART_OSDP.c **** void UART_OSDP_Enable(void) 
 184:.\Generated_Source\PSoC5/UART_OSDP.c **** {
  75              		.loc 1 184 0
  76              		.cfi_startproc
  77              		@ args = 0, pretend = 0, frame = 0
  78              		@ frame_needed = 0, uses_anonymous_args = 0
  79 0000 08B5     		push	{r3, lr}
  80              		.cfi_def_cfa_offset 8
  81              		.cfi_offset 3, -8
  82              		.cfi_offset 14, -4
 185:.\Generated_Source\PSoC5/UART_OSDP.c ****     uint8 enableInterrupts;
 186:.\Generated_Source\PSoC5/UART_OSDP.c ****     enableInterrupts = CyEnterCriticalSection();
  83              		.loc 1 186 0
  84 0002 FFF7FEFF 		bl	CyEnterCriticalSection
  85              	.LVL2:
 187:.\Generated_Source\PSoC5/UART_OSDP.c **** 
 188:.\Generated_Source\PSoC5/UART_OSDP.c ****     #if (UART_OSDP_RX_ENABLED || UART_OSDP_HD_ENABLED)
 189:.\Generated_Source\PSoC5/UART_OSDP.c ****         /* RX Counter (Count7) Enable */
 190:.\Generated_Source\PSoC5/UART_OSDP.c ****         UART_OSDP_RXBITCTR_CONTROL_REG |= UART_OSDP_CNTR_ENABLE;
  86              		.loc 1 190 0
  87 0006 094B     		ldr	r3, .L5
  88 0008 1A78     		ldrb	r2, [r3]	@ zero_extendqisi2
 191:.\Generated_Source\PSoC5/UART_OSDP.c **** 
 192:.\Generated_Source\PSoC5/UART_OSDP.c ****         /* Enable the RX Interrupt */
 193:.\Generated_Source\PSoC5/UART_OSDP.c ****         UART_OSDP_RXSTATUS_ACTL_REG  |= UART_OSDP_INT_ENABLE;
  89              		.loc 1 193 0
  90 000a A3F58273 		sub	r3, r3, #260
 190:.\Generated_Source\PSoC5/UART_OSDP.c ****         UART_OSDP_RXBITCTR_CONTROL_REG |= UART_OSDP_CNTR_ENABLE;
  91              		.loc 1 190 0
ARM GAS  C:\Users\Yiquing\AppData\Local\Temp\ccvaGiH9.s 			page 6


  92 000e 42F02002 		orr	r2, r2, #32
  93 0012 83F80421 		strb	r2, [r3, #260]
  94              		.loc 1 193 0
  95 0016 1A78     		ldrb	r2, [r3]	@ zero_extendqisi2
  96 0018 42F01002 		orr	r2, r2, #16
  97 001c 1A70     		strb	r2, [r3]
 194:.\Generated_Source\PSoC5/UART_OSDP.c **** 
 195:.\Generated_Source\PSoC5/UART_OSDP.c ****         #if (UART_OSDP_RX_INTERRUPT_ENABLED)
 196:.\Generated_Source\PSoC5/UART_OSDP.c ****             UART_OSDP_EnableRxInt();
  98              		.loc 1 196 0
  99 001e 044B     		ldr	r3, .L5+4
 100 0020 0122     		movs	r2, #1
 101 0022 1A60     		str	r2, [r3]
 197:.\Generated_Source\PSoC5/UART_OSDP.c **** 
 198:.\Generated_Source\PSoC5/UART_OSDP.c ****             #if (UART_OSDP_RXHW_ADDRESS_ENABLED)
 199:.\Generated_Source\PSoC5/UART_OSDP.c ****                 UART_OSDP_rxAddressDetected = 0u;
 200:.\Generated_Source\PSoC5/UART_OSDP.c ****             #endif /* (UART_OSDP_RXHW_ADDRESS_ENABLED) */
 201:.\Generated_Source\PSoC5/UART_OSDP.c ****         #endif /* (UART_OSDP_RX_INTERRUPT_ENABLED) */
 202:.\Generated_Source\PSoC5/UART_OSDP.c ****     #endif /* (UART_OSDP_RX_ENABLED || UART_OSDP_HD_ENABLED) */
 203:.\Generated_Source\PSoC5/UART_OSDP.c **** 
 204:.\Generated_Source\PSoC5/UART_OSDP.c ****     #if(UART_OSDP_TX_ENABLED)
 205:.\Generated_Source\PSoC5/UART_OSDP.c ****         /* TX Counter (DP/Count7) Enable */
 206:.\Generated_Source\PSoC5/UART_OSDP.c ****         #if(!UART_OSDP_TXCLKGEN_DP)
 207:.\Generated_Source\PSoC5/UART_OSDP.c ****             UART_OSDP_TXBITCTR_CONTROL_REG |= UART_OSDP_CNTR_ENABLE;
 208:.\Generated_Source\PSoC5/UART_OSDP.c ****         #endif /* End UART_OSDP_TXCLKGEN_DP */
 209:.\Generated_Source\PSoC5/UART_OSDP.c **** 
 210:.\Generated_Source\PSoC5/UART_OSDP.c ****         /* Enable the TX Interrupt */
 211:.\Generated_Source\PSoC5/UART_OSDP.c ****         UART_OSDP_TXSTATUS_ACTL_REG |= UART_OSDP_INT_ENABLE;
 212:.\Generated_Source\PSoC5/UART_OSDP.c ****         #if (UART_OSDP_TX_INTERRUPT_ENABLED)
 213:.\Generated_Source\PSoC5/UART_OSDP.c ****             UART_OSDP_ClearPendingTxInt(); /* Clear history of TX_NOT_EMPTY */
 214:.\Generated_Source\PSoC5/UART_OSDP.c ****             UART_OSDP_EnableTxInt();
 215:.\Generated_Source\PSoC5/UART_OSDP.c ****         #endif /* (UART_OSDP_TX_INTERRUPT_ENABLED) */
 216:.\Generated_Source\PSoC5/UART_OSDP.c ****      #endif /* (UART_OSDP_TX_INTERRUPT_ENABLED) */
 217:.\Generated_Source\PSoC5/UART_OSDP.c **** 
 218:.\Generated_Source\PSoC5/UART_OSDP.c ****     #if (UART_OSDP_INTERNAL_CLOCK_USED)
 219:.\Generated_Source\PSoC5/UART_OSDP.c ****         UART_OSDP_IntClock_Start();  /* Enable the clock */
 220:.\Generated_Source\PSoC5/UART_OSDP.c ****     #endif /* (UART_OSDP_INTERNAL_CLOCK_USED) */
 221:.\Generated_Source\PSoC5/UART_OSDP.c **** 
 222:.\Generated_Source\PSoC5/UART_OSDP.c ****     CyExitCriticalSection(enableInterrupts);
 223:.\Generated_Source\PSoC5/UART_OSDP.c **** }
 102              		.loc 1 223 0
 103 0024 BDE80840 		pop	{r3, lr}
 222:.\Generated_Source\PSoC5/UART_OSDP.c ****     CyExitCriticalSection(enableInterrupts);
 104              		.loc 1 222 0
 105 0028 FFF7FEBF 		b	CyExitCriticalSection
 106              	.LVL3:
 107              	.L6:
 108              		.align	2
 109              	.L5:
 110 002c 96650040 		.word	1073767830
 111 0030 00E100E0 		.word	-536813312
 112              		.cfi_endproc
 113              	.LFE2:
 114              		.size	UART_OSDP_Enable, .-UART_OSDP_Enable
 115              		.section	.text.UART_OSDP_Start,"ax",%progbits
 116              		.align	1
 117              		.global	UART_OSDP_Start
ARM GAS  C:\Users\Yiquing\AppData\Local\Temp\ccvaGiH9.s 			page 7


 118              		.thumb
 119              		.thumb_func
 120              		.type	UART_OSDP_Start, %function
 121              	UART_OSDP_Start:
 122              	.LFB0:
  77:.\Generated_Source\PSoC5/UART_OSDP.c **** {
 123              		.loc 1 77 0
 124              		.cfi_startproc
 125              		@ args = 0, pretend = 0, frame = 0
 126              		@ frame_needed = 0, uses_anonymous_args = 0
 127 0000 10B5     		push	{r4, lr}
 128              		.cfi_def_cfa_offset 8
 129              		.cfi_offset 4, -8
 130              		.cfi_offset 14, -4
  79:.\Generated_Source\PSoC5/UART_OSDP.c ****     if(UART_OSDP_initVar == 0u)
 131              		.loc 1 79 0
 132 0002 054C     		ldr	r4, .L10
 133 0004 6378     		ldrb	r3, [r4, #1]	@ zero_extendqisi2
 134 0006 1BB9     		cbnz	r3, .L8
  81:.\Generated_Source\PSoC5/UART_OSDP.c ****         UART_OSDP_Init();
 135              		.loc 1 81 0
 136 0008 FFF7FEFF 		bl	UART_OSDP_Init
 137              	.LVL4:
  82:.\Generated_Source\PSoC5/UART_OSDP.c ****         UART_OSDP_initVar = 1u;
 138              		.loc 1 82 0
 139 000c 0123     		movs	r3, #1
 140 000e 6370     		strb	r3, [r4, #1]
 141              	.L8:
  86:.\Generated_Source\PSoC5/UART_OSDP.c **** }
 142              		.loc 1 86 0
 143 0010 BDE81040 		pop	{r4, lr}
  85:.\Generated_Source\PSoC5/UART_OSDP.c ****     UART_OSDP_Enable();
 144              		.loc 1 85 0
 145 0014 FFF7FEBF 		b	UART_OSDP_Enable
 146              	.LVL5:
 147              	.L11:
 148              		.align	2
 149              	.L10:
 150 0018 00000000 		.word	.LANCHOR0
 151              		.cfi_endproc
 152              	.LFE0:
 153              		.size	UART_OSDP_Start, .-UART_OSDP_Start
 154              		.section	.text.UART_OSDP_Stop,"ax",%progbits
 155              		.align	1
 156              		.global	UART_OSDP_Stop
 157              		.thumb
 158              		.thumb_func
 159              		.type	UART_OSDP_Stop, %function
 160              	UART_OSDP_Stop:
 161              	.LFB3:
 224:.\Generated_Source\PSoC5/UART_OSDP.c **** 
 225:.\Generated_Source\PSoC5/UART_OSDP.c **** 
 226:.\Generated_Source\PSoC5/UART_OSDP.c **** /*******************************************************************************
 227:.\Generated_Source\PSoC5/UART_OSDP.c **** * Function Name: UART_OSDP_Stop
 228:.\Generated_Source\PSoC5/UART_OSDP.c **** ********************************************************************************
 229:.\Generated_Source\PSoC5/UART_OSDP.c **** *
 230:.\Generated_Source\PSoC5/UART_OSDP.c **** * Summary:
ARM GAS  C:\Users\Yiquing\AppData\Local\Temp\ccvaGiH9.s 			page 8


 231:.\Generated_Source\PSoC5/UART_OSDP.c **** *  Disables the UART operation.
 232:.\Generated_Source\PSoC5/UART_OSDP.c **** *
 233:.\Generated_Source\PSoC5/UART_OSDP.c **** * Parameters:
 234:.\Generated_Source\PSoC5/UART_OSDP.c **** *  None.
 235:.\Generated_Source\PSoC5/UART_OSDP.c **** *
 236:.\Generated_Source\PSoC5/UART_OSDP.c **** * Return:
 237:.\Generated_Source\PSoC5/UART_OSDP.c **** *  None.
 238:.\Generated_Source\PSoC5/UART_OSDP.c **** *
 239:.\Generated_Source\PSoC5/UART_OSDP.c **** *******************************************************************************/
 240:.\Generated_Source\PSoC5/UART_OSDP.c **** void UART_OSDP_Stop(void) 
 241:.\Generated_Source\PSoC5/UART_OSDP.c **** {
 162              		.loc 1 241 0
 163              		.cfi_startproc
 164              		@ args = 0, pretend = 0, frame = 0
 165              		@ frame_needed = 0, uses_anonymous_args = 0
 166 0000 08B5     		push	{r3, lr}
 167              		.cfi_def_cfa_offset 8
 168              		.cfi_offset 3, -8
 169              		.cfi_offset 14, -4
 242:.\Generated_Source\PSoC5/UART_OSDP.c ****     uint8 enableInterrupts;
 243:.\Generated_Source\PSoC5/UART_OSDP.c ****     enableInterrupts = CyEnterCriticalSection();
 170              		.loc 1 243 0
 171 0002 FFF7FEFF 		bl	CyEnterCriticalSection
 172              	.LVL6:
 244:.\Generated_Source\PSoC5/UART_OSDP.c **** 
 245:.\Generated_Source\PSoC5/UART_OSDP.c ****     /* Write Bit Counter Disable */
 246:.\Generated_Source\PSoC5/UART_OSDP.c ****     #if (UART_OSDP_RX_ENABLED || UART_OSDP_HD_ENABLED)
 247:.\Generated_Source\PSoC5/UART_OSDP.c ****         UART_OSDP_RXBITCTR_CONTROL_REG &= (uint8) ~UART_OSDP_CNTR_ENABLE;
 173              		.loc 1 247 0
 174 0006 094B     		ldr	r3, .L13
 175 0008 1A78     		ldrb	r2, [r3]	@ zero_extendqisi2
 248:.\Generated_Source\PSoC5/UART_OSDP.c ****     #endif /* (UART_OSDP_RX_ENABLED || UART_OSDP_HD_ENABLED) */
 249:.\Generated_Source\PSoC5/UART_OSDP.c **** 
 250:.\Generated_Source\PSoC5/UART_OSDP.c ****     #if (UART_OSDP_TX_ENABLED)
 251:.\Generated_Source\PSoC5/UART_OSDP.c ****         #if(!UART_OSDP_TXCLKGEN_DP)
 252:.\Generated_Source\PSoC5/UART_OSDP.c ****             UART_OSDP_TXBITCTR_CONTROL_REG &= (uint8) ~UART_OSDP_CNTR_ENABLE;
 253:.\Generated_Source\PSoC5/UART_OSDP.c ****         #endif /* (!UART_OSDP_TXCLKGEN_DP) */
 254:.\Generated_Source\PSoC5/UART_OSDP.c ****     #endif /* (UART_OSDP_TX_ENABLED) */
 255:.\Generated_Source\PSoC5/UART_OSDP.c **** 
 256:.\Generated_Source\PSoC5/UART_OSDP.c ****     #if (UART_OSDP_INTERNAL_CLOCK_USED)
 257:.\Generated_Source\PSoC5/UART_OSDP.c ****         UART_OSDP_IntClock_Stop();   /* Disable the clock */
 258:.\Generated_Source\PSoC5/UART_OSDP.c ****     #endif /* (UART_OSDP_INTERNAL_CLOCK_USED) */
 259:.\Generated_Source\PSoC5/UART_OSDP.c **** 
 260:.\Generated_Source\PSoC5/UART_OSDP.c ****     /* Disable internal interrupt component */
 261:.\Generated_Source\PSoC5/UART_OSDP.c ****     #if (UART_OSDP_RX_ENABLED || UART_OSDP_HD_ENABLED)
 262:.\Generated_Source\PSoC5/UART_OSDP.c ****         UART_OSDP_RXSTATUS_ACTL_REG  &= (uint8) ~UART_OSDP_INT_ENABLE;
 176              		.loc 1 262 0
 177 000a A3F58273 		sub	r3, r3, #260
 247:.\Generated_Source\PSoC5/UART_OSDP.c ****         UART_OSDP_RXBITCTR_CONTROL_REG &= (uint8) ~UART_OSDP_CNTR_ENABLE;
 178              		.loc 1 247 0
 179 000e 02F0DF02 		and	r2, r2, #223
 180 0012 83F80421 		strb	r2, [r3, #260]
 181              		.loc 1 262 0
 182 0016 1A78     		ldrb	r2, [r3]	@ zero_extendqisi2
 183 0018 02F0EF02 		and	r2, r2, #239
 184 001c 1A70     		strb	r2, [r3]
 263:.\Generated_Source\PSoC5/UART_OSDP.c **** 
ARM GAS  C:\Users\Yiquing\AppData\Local\Temp\ccvaGiH9.s 			page 9


 264:.\Generated_Source\PSoC5/UART_OSDP.c ****         #if (UART_OSDP_RX_INTERRUPT_ENABLED)
 265:.\Generated_Source\PSoC5/UART_OSDP.c ****             UART_OSDP_DisableRxInt();
 185              		.loc 1 265 0
 186 001e 044B     		ldr	r3, .L13+4
 187 0020 0122     		movs	r2, #1
 188 0022 1A60     		str	r2, [r3]
 266:.\Generated_Source\PSoC5/UART_OSDP.c ****         #endif /* (UART_OSDP_RX_INTERRUPT_ENABLED) */
 267:.\Generated_Source\PSoC5/UART_OSDP.c ****     #endif /* (UART_OSDP_RX_ENABLED || UART_OSDP_HD_ENABLED) */
 268:.\Generated_Source\PSoC5/UART_OSDP.c **** 
 269:.\Generated_Source\PSoC5/UART_OSDP.c ****     #if (UART_OSDP_TX_ENABLED)
 270:.\Generated_Source\PSoC5/UART_OSDP.c ****         UART_OSDP_TXSTATUS_ACTL_REG &= (uint8) ~UART_OSDP_INT_ENABLE;
 271:.\Generated_Source\PSoC5/UART_OSDP.c **** 
 272:.\Generated_Source\PSoC5/UART_OSDP.c ****         #if (UART_OSDP_TX_INTERRUPT_ENABLED)
 273:.\Generated_Source\PSoC5/UART_OSDP.c ****             UART_OSDP_DisableTxInt();
 274:.\Generated_Source\PSoC5/UART_OSDP.c ****         #endif /* (UART_OSDP_TX_INTERRUPT_ENABLED) */
 275:.\Generated_Source\PSoC5/UART_OSDP.c ****     #endif /* (UART_OSDP_TX_ENABLED) */
 276:.\Generated_Source\PSoC5/UART_OSDP.c **** 
 277:.\Generated_Source\PSoC5/UART_OSDP.c ****     CyExitCriticalSection(enableInterrupts);
 278:.\Generated_Source\PSoC5/UART_OSDP.c **** }
 189              		.loc 1 278 0
 190 0024 BDE80840 		pop	{r3, lr}
 277:.\Generated_Source\PSoC5/UART_OSDP.c ****     CyExitCriticalSection(enableInterrupts);
 191              		.loc 1 277 0
 192 0028 FFF7FEBF 		b	CyExitCriticalSection
 193              	.LVL7:
 194              	.L14:
 195              		.align	2
 196              	.L13:
 197 002c 96650040 		.word	1073767830
 198 0030 80E100E0 		.word	-536813184
 199              		.cfi_endproc
 200              	.LFE3:
 201              		.size	UART_OSDP_Stop, .-UART_OSDP_Stop
 202              		.section	.text.UART_OSDP_ReadControlRegister,"ax",%progbits
 203              		.align	1
 204              		.global	UART_OSDP_ReadControlRegister
 205              		.thumb
 206              		.thumb_func
 207              		.type	UART_OSDP_ReadControlRegister, %function
 208              	UART_OSDP_ReadControlRegister:
 209              	.LFB4:
 279:.\Generated_Source\PSoC5/UART_OSDP.c **** 
 280:.\Generated_Source\PSoC5/UART_OSDP.c **** 
 281:.\Generated_Source\PSoC5/UART_OSDP.c **** /*******************************************************************************
 282:.\Generated_Source\PSoC5/UART_OSDP.c **** * Function Name: UART_OSDP_ReadControlRegister
 283:.\Generated_Source\PSoC5/UART_OSDP.c **** ********************************************************************************
 284:.\Generated_Source\PSoC5/UART_OSDP.c **** *
 285:.\Generated_Source\PSoC5/UART_OSDP.c **** * Summary:
 286:.\Generated_Source\PSoC5/UART_OSDP.c **** *  Returns the current value of the control register.
 287:.\Generated_Source\PSoC5/UART_OSDP.c **** *
 288:.\Generated_Source\PSoC5/UART_OSDP.c **** * Parameters:
 289:.\Generated_Source\PSoC5/UART_OSDP.c **** *  None.
 290:.\Generated_Source\PSoC5/UART_OSDP.c **** *
 291:.\Generated_Source\PSoC5/UART_OSDP.c **** * Return:
 292:.\Generated_Source\PSoC5/UART_OSDP.c **** *  Contents of the control register.
 293:.\Generated_Source\PSoC5/UART_OSDP.c **** *
 294:.\Generated_Source\PSoC5/UART_OSDP.c **** *******************************************************************************/
ARM GAS  C:\Users\Yiquing\AppData\Local\Temp\ccvaGiH9.s 			page 10


 295:.\Generated_Source\PSoC5/UART_OSDP.c **** uint8 UART_OSDP_ReadControlRegister(void) 
 296:.\Generated_Source\PSoC5/UART_OSDP.c **** {
 210              		.loc 1 296 0
 211              		.cfi_startproc
 212              		@ args = 0, pretend = 0, frame = 0
 213              		@ frame_needed = 0, uses_anonymous_args = 0
 214              		@ link register save eliminated.
 297:.\Generated_Source\PSoC5/UART_OSDP.c ****     #if (UART_OSDP_CONTROL_REG_REMOVED)
 298:.\Generated_Source\PSoC5/UART_OSDP.c ****         return(0u);
 299:.\Generated_Source\PSoC5/UART_OSDP.c ****     #else
 300:.\Generated_Source\PSoC5/UART_OSDP.c ****         return(UART_OSDP_CONTROL_REG);
 215              		.loc 1 300 0
 216 0000 014B     		ldr	r3, .L16
 217 0002 1878     		ldrb	r0, [r3]	@ zero_extendqisi2
 301:.\Generated_Source\PSoC5/UART_OSDP.c ****     #endif /* (UART_OSDP_CONTROL_REG_REMOVED) */
 302:.\Generated_Source\PSoC5/UART_OSDP.c **** }
 218              		.loc 1 302 0
 219 0004 7047     		bx	lr
 220              	.L17:
 221 0006 00BF     		.align	2
 222              	.L16:
 223 0008 75650040 		.word	1073767797
 224              		.cfi_endproc
 225              	.LFE4:
 226              		.size	UART_OSDP_ReadControlRegister, .-UART_OSDP_ReadControlRegister
 227              		.section	.text.UART_OSDP_WriteControlRegister,"ax",%progbits
 228              		.align	1
 229              		.global	UART_OSDP_WriteControlRegister
 230              		.thumb
 231              		.thumb_func
 232              		.type	UART_OSDP_WriteControlRegister, %function
 233              	UART_OSDP_WriteControlRegister:
 234              	.LFB5:
 303:.\Generated_Source\PSoC5/UART_OSDP.c **** 
 304:.\Generated_Source\PSoC5/UART_OSDP.c **** 
 305:.\Generated_Source\PSoC5/UART_OSDP.c **** /*******************************************************************************
 306:.\Generated_Source\PSoC5/UART_OSDP.c **** * Function Name: UART_OSDP_WriteControlRegister
 307:.\Generated_Source\PSoC5/UART_OSDP.c **** ********************************************************************************
 308:.\Generated_Source\PSoC5/UART_OSDP.c **** *
 309:.\Generated_Source\PSoC5/UART_OSDP.c **** * Summary:
 310:.\Generated_Source\PSoC5/UART_OSDP.c **** *  Writes an 8-bit value into the control register
 311:.\Generated_Source\PSoC5/UART_OSDP.c **** *
 312:.\Generated_Source\PSoC5/UART_OSDP.c **** * Parameters:
 313:.\Generated_Source\PSoC5/UART_OSDP.c **** *  control:  control register value
 314:.\Generated_Source\PSoC5/UART_OSDP.c **** *
 315:.\Generated_Source\PSoC5/UART_OSDP.c **** * Return:
 316:.\Generated_Source\PSoC5/UART_OSDP.c **** *  None.
 317:.\Generated_Source\PSoC5/UART_OSDP.c **** *
 318:.\Generated_Source\PSoC5/UART_OSDP.c **** *******************************************************************************/
 319:.\Generated_Source\PSoC5/UART_OSDP.c **** void  UART_OSDP_WriteControlRegister(uint8 control) 
 320:.\Generated_Source\PSoC5/UART_OSDP.c **** {
 235              		.loc 1 320 0
 236              		.cfi_startproc
 237              		@ args = 0, pretend = 0, frame = 0
 238              		@ frame_needed = 0, uses_anonymous_args = 0
 239              		@ link register save eliminated.
 240              	.LVL8:
ARM GAS  C:\Users\Yiquing\AppData\Local\Temp\ccvaGiH9.s 			page 11


 321:.\Generated_Source\PSoC5/UART_OSDP.c ****     #if (UART_OSDP_CONTROL_REG_REMOVED)
 322:.\Generated_Source\PSoC5/UART_OSDP.c ****         if(0u != control)
 323:.\Generated_Source\PSoC5/UART_OSDP.c ****         {
 324:.\Generated_Source\PSoC5/UART_OSDP.c ****             /* Suppress compiler warning */
 325:.\Generated_Source\PSoC5/UART_OSDP.c ****         }
 326:.\Generated_Source\PSoC5/UART_OSDP.c ****     #else
 327:.\Generated_Source\PSoC5/UART_OSDP.c ****        UART_OSDP_CONTROL_REG = control;
 241              		.loc 1 327 0
 242 0000 014B     		ldr	r3, .L19
 243 0002 1870     		strb	r0, [r3]
 244 0004 7047     		bx	lr
 245              	.L20:
 246 0006 00BF     		.align	2
 247              	.L19:
 248 0008 75650040 		.word	1073767797
 249              		.cfi_endproc
 250              	.LFE5:
 251              		.size	UART_OSDP_WriteControlRegister, .-UART_OSDP_WriteControlRegister
 252              		.section	.text.UART_OSDP_SetRxInterruptMode,"ax",%progbits
 253              		.align	1
 254              		.global	UART_OSDP_SetRxInterruptMode
 255              		.thumb
 256              		.thumb_func
 257              		.type	UART_OSDP_SetRxInterruptMode, %function
 258              	UART_OSDP_SetRxInterruptMode:
 259              	.LFB6:
 328:.\Generated_Source\PSoC5/UART_OSDP.c ****     #endif /* (UART_OSDP_CONTROL_REG_REMOVED) */
 329:.\Generated_Source\PSoC5/UART_OSDP.c **** }
 330:.\Generated_Source\PSoC5/UART_OSDP.c **** 
 331:.\Generated_Source\PSoC5/UART_OSDP.c **** 
 332:.\Generated_Source\PSoC5/UART_OSDP.c **** #if(UART_OSDP_RX_ENABLED || UART_OSDP_HD_ENABLED)
 333:.\Generated_Source\PSoC5/UART_OSDP.c ****     /*******************************************************************************
 334:.\Generated_Source\PSoC5/UART_OSDP.c ****     * Function Name: UART_OSDP_SetRxInterruptMode
 335:.\Generated_Source\PSoC5/UART_OSDP.c ****     ********************************************************************************
 336:.\Generated_Source\PSoC5/UART_OSDP.c ****     *
 337:.\Generated_Source\PSoC5/UART_OSDP.c ****     * Summary:
 338:.\Generated_Source\PSoC5/UART_OSDP.c ****     *  Configures the RX interrupt sources enabled.
 339:.\Generated_Source\PSoC5/UART_OSDP.c ****     *
 340:.\Generated_Source\PSoC5/UART_OSDP.c ****     * Parameters:
 341:.\Generated_Source\PSoC5/UART_OSDP.c ****     *  IntSrc:  Bit field containing the RX interrupts to enable. Based on the 
 342:.\Generated_Source\PSoC5/UART_OSDP.c ****     *  bit-field arrangement of the status register. This value must be a 
 343:.\Generated_Source\PSoC5/UART_OSDP.c ****     *  combination of status register bit-masks shown below:
 344:.\Generated_Source\PSoC5/UART_OSDP.c ****     *      UART_OSDP_RX_STS_FIFO_NOTEMPTY    Interrupt on byte received.
 345:.\Generated_Source\PSoC5/UART_OSDP.c ****     *      UART_OSDP_RX_STS_PAR_ERROR        Interrupt on parity error.
 346:.\Generated_Source\PSoC5/UART_OSDP.c ****     *      UART_OSDP_RX_STS_STOP_ERROR       Interrupt on stop error.
 347:.\Generated_Source\PSoC5/UART_OSDP.c ****     *      UART_OSDP_RX_STS_BREAK            Interrupt on break.
 348:.\Generated_Source\PSoC5/UART_OSDP.c ****     *      UART_OSDP_RX_STS_OVERRUN          Interrupt on overrun error.
 349:.\Generated_Source\PSoC5/UART_OSDP.c ****     *      UART_OSDP_RX_STS_ADDR_MATCH       Interrupt on address match.
 350:.\Generated_Source\PSoC5/UART_OSDP.c ****     *      UART_OSDP_RX_STS_MRKSPC           Interrupt on address detect.
 351:.\Generated_Source\PSoC5/UART_OSDP.c ****     *
 352:.\Generated_Source\PSoC5/UART_OSDP.c ****     * Return:
 353:.\Generated_Source\PSoC5/UART_OSDP.c ****     *  None.
 354:.\Generated_Source\PSoC5/UART_OSDP.c ****     *
 355:.\Generated_Source\PSoC5/UART_OSDP.c ****     * Theory:
 356:.\Generated_Source\PSoC5/UART_OSDP.c ****     *  Enables the output of specific status bits to the interrupt controller
 357:.\Generated_Source\PSoC5/UART_OSDP.c ****     *
 358:.\Generated_Source\PSoC5/UART_OSDP.c ****     *******************************************************************************/
ARM GAS  C:\Users\Yiquing\AppData\Local\Temp\ccvaGiH9.s 			page 12


 359:.\Generated_Source\PSoC5/UART_OSDP.c ****     void UART_OSDP_SetRxInterruptMode(uint8 intSrc) 
 360:.\Generated_Source\PSoC5/UART_OSDP.c ****     {
 260              		.loc 1 360 0
 261              		.cfi_startproc
 262              		@ args = 0, pretend = 0, frame = 0
 263              		@ frame_needed = 0, uses_anonymous_args = 0
 264              		@ link register save eliminated.
 265              	.LVL9:
 361:.\Generated_Source\PSoC5/UART_OSDP.c ****         UART_OSDP_RXSTATUS_MASK_REG  = intSrc;
 266              		.loc 1 361 0
 267 0000 014B     		ldr	r3, .L22
 268 0002 1870     		strb	r0, [r3]
 269 0004 7047     		bx	lr
 270              	.L23:
 271 0006 00BF     		.align	2
 272              	.L22:
 273 0008 82640040 		.word	1073767554
 274              		.cfi_endproc
 275              	.LFE6:
 276              		.size	UART_OSDP_SetRxInterruptMode, .-UART_OSDP_SetRxInterruptMode
 277              		.section	.text.UART_OSDP_ReadRxData,"ax",%progbits
 278              		.align	1
 279              		.global	UART_OSDP_ReadRxData
 280              		.thumb
 281              		.thumb_func
 282              		.type	UART_OSDP_ReadRxData, %function
 283              	UART_OSDP_ReadRxData:
 284              	.LFB7:
 362:.\Generated_Source\PSoC5/UART_OSDP.c ****     }
 363:.\Generated_Source\PSoC5/UART_OSDP.c **** 
 364:.\Generated_Source\PSoC5/UART_OSDP.c **** 
 365:.\Generated_Source\PSoC5/UART_OSDP.c ****     /*******************************************************************************
 366:.\Generated_Source\PSoC5/UART_OSDP.c ****     * Function Name: UART_OSDP_ReadRxData
 367:.\Generated_Source\PSoC5/UART_OSDP.c ****     ********************************************************************************
 368:.\Generated_Source\PSoC5/UART_OSDP.c ****     *
 369:.\Generated_Source\PSoC5/UART_OSDP.c ****     * Summary:
 370:.\Generated_Source\PSoC5/UART_OSDP.c ****     *  Returns the next byte of received data. This function returns data without
 371:.\Generated_Source\PSoC5/UART_OSDP.c ****     *  checking the status. You must check the status separately.
 372:.\Generated_Source\PSoC5/UART_OSDP.c ****     *
 373:.\Generated_Source\PSoC5/UART_OSDP.c ****     * Parameters:
 374:.\Generated_Source\PSoC5/UART_OSDP.c ****     *  None.
 375:.\Generated_Source\PSoC5/UART_OSDP.c ****     *
 376:.\Generated_Source\PSoC5/UART_OSDP.c ****     * Return:
 377:.\Generated_Source\PSoC5/UART_OSDP.c ****     *  Received data from RX register
 378:.\Generated_Source\PSoC5/UART_OSDP.c ****     *
 379:.\Generated_Source\PSoC5/UART_OSDP.c ****     * Global Variables:
 380:.\Generated_Source\PSoC5/UART_OSDP.c ****     *  UART_OSDP_rxBuffer - RAM buffer pointer for save received data.
 381:.\Generated_Source\PSoC5/UART_OSDP.c ****     *  UART_OSDP_rxBufferWrite - cyclic index for write to rxBuffer,
 382:.\Generated_Source\PSoC5/UART_OSDP.c ****     *     checked to identify new data.
 383:.\Generated_Source\PSoC5/UART_OSDP.c ****     *  UART_OSDP_rxBufferRead - cyclic index for read from rxBuffer,
 384:.\Generated_Source\PSoC5/UART_OSDP.c ****     *     incremented after each byte has been read from buffer.
 385:.\Generated_Source\PSoC5/UART_OSDP.c ****     *  UART_OSDP_rxBufferLoopDetect - cleared if loop condition was detected
 386:.\Generated_Source\PSoC5/UART_OSDP.c ****     *     in RX ISR.
 387:.\Generated_Source\PSoC5/UART_OSDP.c ****     *
 388:.\Generated_Source\PSoC5/UART_OSDP.c ****     * Reentrant:
 389:.\Generated_Source\PSoC5/UART_OSDP.c ****     *  No.
 390:.\Generated_Source\PSoC5/UART_OSDP.c ****     *
ARM GAS  C:\Users\Yiquing\AppData\Local\Temp\ccvaGiH9.s 			page 13


 391:.\Generated_Source\PSoC5/UART_OSDP.c ****     *******************************************************************************/
 392:.\Generated_Source\PSoC5/UART_OSDP.c ****     uint8 UART_OSDP_ReadRxData(void) 
 393:.\Generated_Source\PSoC5/UART_OSDP.c ****     {
 285              		.loc 1 393 0
 286              		.cfi_startproc
 287              		@ args = 0, pretend = 0, frame = 0
 288              		@ frame_needed = 0, uses_anonymous_args = 0
 289              		@ link register save eliminated.
 394:.\Generated_Source\PSoC5/UART_OSDP.c ****         uint8 rxData;
 395:.\Generated_Source\PSoC5/UART_OSDP.c **** 
 396:.\Generated_Source\PSoC5/UART_OSDP.c ****     #if (UART_OSDP_RX_INTERRUPT_ENABLED)
 397:.\Generated_Source\PSoC5/UART_OSDP.c **** 
 398:.\Generated_Source\PSoC5/UART_OSDP.c ****         uint16 locRxBufferRead;
 399:.\Generated_Source\PSoC5/UART_OSDP.c ****         uint16 locRxBufferWrite;
 400:.\Generated_Source\PSoC5/UART_OSDP.c **** 
 401:.\Generated_Source\PSoC5/UART_OSDP.c ****         /* Protect variables that could change on interrupt */
 402:.\Generated_Source\PSoC5/UART_OSDP.c ****         UART_OSDP_DisableRxInt();
 290              		.loc 1 402 0
 291 0000 114B     		ldr	r3, .L33
 292 0002 0122     		movs	r2, #1
 293 0004 1A60     		str	r2, [r3]
 403:.\Generated_Source\PSoC5/UART_OSDP.c **** 
 404:.\Generated_Source\PSoC5/UART_OSDP.c ****         locRxBufferRead  = UART_OSDP_rxBufferRead;
 294              		.loc 1 404 0
 295 0006 114A     		ldr	r2, .L33+4
 296 0008 5388     		ldrh	r3, [r2, #2]
 405:.\Generated_Source\PSoC5/UART_OSDP.c ****         locRxBufferWrite = UART_OSDP_rxBufferWrite;
 297              		.loc 1 405 0
 298 000a 9188     		ldrh	r1, [r2, #4]
 406:.\Generated_Source\PSoC5/UART_OSDP.c **** 
 407:.\Generated_Source\PSoC5/UART_OSDP.c ****         if( (UART_OSDP_rxBufferLoopDetect != 0u) || (locRxBufferRead != locRxBufferWrite) )
 299              		.loc 1 407 0
 300 000c 9079     		ldrb	r0, [r2, #6]	@ zero_extendqisi2
 404:.\Generated_Source\PSoC5/UART_OSDP.c ****         locRxBufferRead  = UART_OSDP_rxBufferRead;
 301              		.loc 1 404 0
 302 000e 9BB2     		uxth	r3, r3
 303              	.LVL10:
 405:.\Generated_Source\PSoC5/UART_OSDP.c ****         locRxBufferWrite = UART_OSDP_rxBufferWrite;
 304              		.loc 1 405 0
 305 0010 89B2     		uxth	r1, r1
 306              	.LVL11:
 307              		.loc 1 407 0
 308 0012 08B9     		cbnz	r0, .L25
 309              		.loc 1 407 0 is_stmt 0 discriminator 1
 310 0014 8B42     		cmp	r3, r1
 311 0016 0FD0     		beq	.L26
 312              	.L25:
 408:.\Generated_Source\PSoC5/UART_OSDP.c ****         {
 409:.\Generated_Source\PSoC5/UART_OSDP.c ****             rxData = UART_OSDP_rxBuffer[locRxBufferRead];
 313              		.loc 1 409 0 is_stmt 1
 314 0018 0D49     		ldr	r1, .L33+8
 315              	.LVL12:
 316 001a C85C     		ldrb	r0, [r1, r3]	@ zero_extendqisi2
 410:.\Generated_Source\PSoC5/UART_OSDP.c ****             locRxBufferRead++;
 317              		.loc 1 410 0
 318 001c 0133     		adds	r3, r3, #1
 319              	.LVL13:
ARM GAS  C:\Users\Yiquing\AppData\Local\Temp\ccvaGiH9.s 			page 14


 320 001e 9BB2     		uxth	r3, r3
 321              	.LVL14:
 411:.\Generated_Source\PSoC5/UART_OSDP.c **** 
 412:.\Generated_Source\PSoC5/UART_OSDP.c ****             if(locRxBufferRead >= UART_OSDP_RX_BUFFER_SIZE)
 413:.\Generated_Source\PSoC5/UART_OSDP.c ****             {
 414:.\Generated_Source\PSoC5/UART_OSDP.c ****                 locRxBufferRead = 0u;
 322              		.loc 1 414 0
 323 0020 B3F5807F 		cmp	r3, #256
 324 0024 28BF     		it	cs
 325 0026 0023     		movcs	r3, #0
 415:.\Generated_Source\PSoC5/UART_OSDP.c ****             }
 416:.\Generated_Source\PSoC5/UART_OSDP.c ****             /* Update the real pointer */
 417:.\Generated_Source\PSoC5/UART_OSDP.c ****             UART_OSDP_rxBufferRead = locRxBufferRead;
 326              		.loc 1 417 0
 327 0028 5380     		strh	r3, [r2, #2]	@ movhi
 418:.\Generated_Source\PSoC5/UART_OSDP.c **** 
 419:.\Generated_Source\PSoC5/UART_OSDP.c ****             if(UART_OSDP_rxBufferLoopDetect != 0u)
 328              		.loc 1 419 0
 329 002a 9379     		ldrb	r3, [r2, #6]	@ zero_extendqisi2
 409:.\Generated_Source\PSoC5/UART_OSDP.c ****             rxData = UART_OSDP_rxBuffer[locRxBufferRead];
 330              		.loc 1 409 0
 331 002c C0B2     		uxtb	r0, r0
 332              	.LVL15:
 333              		.loc 1 419 0
 334 002e 33B1     		cbz	r3, .L28
 420:.\Generated_Source\PSoC5/UART_OSDP.c ****             {
 421:.\Generated_Source\PSoC5/UART_OSDP.c ****                 UART_OSDP_rxBufferLoopDetect = 0u;
 335              		.loc 1 421 0
 336 0030 064B     		ldr	r3, .L33+4
 337 0032 0022     		movs	r2, #0
 338 0034 9A71     		strb	r2, [r3, #6]
 339 0036 02E0     		b	.L28
 340              	.LVL16:
 341              	.L26:
 422:.\Generated_Source\PSoC5/UART_OSDP.c ****                 #if ((UART_OSDP_RX_INTERRUPT_ENABLED) && (UART_OSDP_FLOW_CONTROL != 0u))
 423:.\Generated_Source\PSoC5/UART_OSDP.c ****                     /* When Hardware Flow Control selected - return RX mask */
 424:.\Generated_Source\PSoC5/UART_OSDP.c ****                     #if( UART_OSDP_HD_ENABLED )
 425:.\Generated_Source\PSoC5/UART_OSDP.c ****                         if((UART_OSDP_CONTROL_REG & UART_OSDP_CTRL_HD_SEND) == 0u)
 426:.\Generated_Source\PSoC5/UART_OSDP.c ****                         {   /* In Half duplex mode return RX mask only in RX
 427:.\Generated_Source\PSoC5/UART_OSDP.c ****                             *  configuration set, otherwise
 428:.\Generated_Source\PSoC5/UART_OSDP.c ****                             *  mask will be returned in LoadRxConfig() API.
 429:.\Generated_Source\PSoC5/UART_OSDP.c ****                             */
 430:.\Generated_Source\PSoC5/UART_OSDP.c ****                             UART_OSDP_RXSTATUS_MASK_REG  |= UART_OSDP_RX_STS_FIFO_NOTEMPTY;
 431:.\Generated_Source\PSoC5/UART_OSDP.c ****                         }
 432:.\Generated_Source\PSoC5/UART_OSDP.c ****                     #else
 433:.\Generated_Source\PSoC5/UART_OSDP.c ****                         UART_OSDP_RXSTATUS_MASK_REG  |= UART_OSDP_RX_STS_FIFO_NOTEMPTY;
 434:.\Generated_Source\PSoC5/UART_OSDP.c ****                     #endif /* end UART_OSDP_HD_ENABLED */
 435:.\Generated_Source\PSoC5/UART_OSDP.c ****                 #endif /* ((UART_OSDP_RX_INTERRUPT_ENABLED) && (UART_OSDP_FLOW_CONTROL != 0u)) */
 436:.\Generated_Source\PSoC5/UART_OSDP.c ****             }
 437:.\Generated_Source\PSoC5/UART_OSDP.c ****         }
 438:.\Generated_Source\PSoC5/UART_OSDP.c ****         else
 439:.\Generated_Source\PSoC5/UART_OSDP.c ****         {   /* Needs to check status for RX_STS_FIFO_NOTEMPTY bit */
 440:.\Generated_Source\PSoC5/UART_OSDP.c ****             rxData = UART_OSDP_RXDATA_REG;
 342              		.loc 1 440 0
 343 0038 064B     		ldr	r3, .L33+12
 344              	.LVL17:
 345 003a 1878     		ldrb	r0, [r3]	@ zero_extendqisi2
ARM GAS  C:\Users\Yiquing\AppData\Local\Temp\ccvaGiH9.s 			page 15


 346 003c C0B2     		uxtb	r0, r0
 347              	.LVL18:
 348              	.L28:
 441:.\Generated_Source\PSoC5/UART_OSDP.c ****         }
 442:.\Generated_Source\PSoC5/UART_OSDP.c **** 
 443:.\Generated_Source\PSoC5/UART_OSDP.c ****         UART_OSDP_EnableRxInt();
 349              		.loc 1 443 0
 350 003e 064B     		ldr	r3, .L33+16
 351 0040 0122     		movs	r2, #1
 352 0042 1A60     		str	r2, [r3]
 444:.\Generated_Source\PSoC5/UART_OSDP.c **** 
 445:.\Generated_Source\PSoC5/UART_OSDP.c ****     #else
 446:.\Generated_Source\PSoC5/UART_OSDP.c **** 
 447:.\Generated_Source\PSoC5/UART_OSDP.c ****         /* Needs to check status for RX_STS_FIFO_NOTEMPTY bit */
 448:.\Generated_Source\PSoC5/UART_OSDP.c ****         rxData = UART_OSDP_RXDATA_REG;
 449:.\Generated_Source\PSoC5/UART_OSDP.c **** 
 450:.\Generated_Source\PSoC5/UART_OSDP.c ****     #endif /* (UART_OSDP_RX_INTERRUPT_ENABLED) */
 451:.\Generated_Source\PSoC5/UART_OSDP.c **** 
 452:.\Generated_Source\PSoC5/UART_OSDP.c ****         return(rxData);
 453:.\Generated_Source\PSoC5/UART_OSDP.c ****     }
 353              		.loc 1 453 0
 354 0044 7047     		bx	lr
 355              	.L34:
 356 0046 00BF     		.align	2
 357              	.L33:
 358 0048 80E100E0 		.word	-536813184
 359 004c 00000000 		.word	.LANCHOR0
 360 0050 00000000 		.word	UART_OSDP_rxBuffer
 361 0054 46650040 		.word	1073767750
 362 0058 00E100E0 		.word	-536813312
 363              		.cfi_endproc
 364              	.LFE7:
 365              		.size	UART_OSDP_ReadRxData, .-UART_OSDP_ReadRxData
 366              		.section	.text.UART_OSDP_ReadRxStatus,"ax",%progbits
 367              		.align	1
 368              		.global	UART_OSDP_ReadRxStatus
 369              		.thumb
 370              		.thumb_func
 371              		.type	UART_OSDP_ReadRxStatus, %function
 372              	UART_OSDP_ReadRxStatus:
 373              	.LFB8:
 454:.\Generated_Source\PSoC5/UART_OSDP.c **** 
 455:.\Generated_Source\PSoC5/UART_OSDP.c **** 
 456:.\Generated_Source\PSoC5/UART_OSDP.c ****     /*******************************************************************************
 457:.\Generated_Source\PSoC5/UART_OSDP.c ****     * Function Name: UART_OSDP_ReadRxStatus
 458:.\Generated_Source\PSoC5/UART_OSDP.c ****     ********************************************************************************
 459:.\Generated_Source\PSoC5/UART_OSDP.c ****     *
 460:.\Generated_Source\PSoC5/UART_OSDP.c ****     * Summary:
 461:.\Generated_Source\PSoC5/UART_OSDP.c ****     *  Returns the current state of the receiver status register and the software
 462:.\Generated_Source\PSoC5/UART_OSDP.c ****     *  buffer overflow status.
 463:.\Generated_Source\PSoC5/UART_OSDP.c ****     *
 464:.\Generated_Source\PSoC5/UART_OSDP.c ****     * Parameters:
 465:.\Generated_Source\PSoC5/UART_OSDP.c ****     *  None.
 466:.\Generated_Source\PSoC5/UART_OSDP.c ****     *
 467:.\Generated_Source\PSoC5/UART_OSDP.c ****     * Return:
 468:.\Generated_Source\PSoC5/UART_OSDP.c ****     *  Current state of the status register.
 469:.\Generated_Source\PSoC5/UART_OSDP.c ****     *
ARM GAS  C:\Users\Yiquing\AppData\Local\Temp\ccvaGiH9.s 			page 16


 470:.\Generated_Source\PSoC5/UART_OSDP.c ****     * Side Effect:
 471:.\Generated_Source\PSoC5/UART_OSDP.c ****     *  All status register bits are clear-on-read except
 472:.\Generated_Source\PSoC5/UART_OSDP.c ****     *  UART_OSDP_RX_STS_FIFO_NOTEMPTY.
 473:.\Generated_Source\PSoC5/UART_OSDP.c ****     *  UART_OSDP_RX_STS_FIFO_NOTEMPTY clears immediately after RX data
 474:.\Generated_Source\PSoC5/UART_OSDP.c ****     *  register read.
 475:.\Generated_Source\PSoC5/UART_OSDP.c ****     *
 476:.\Generated_Source\PSoC5/UART_OSDP.c ****     * Global Variables:
 477:.\Generated_Source\PSoC5/UART_OSDP.c ****     *  UART_OSDP_rxBufferOverflow - used to indicate overload condition.
 478:.\Generated_Source\PSoC5/UART_OSDP.c ****     *   It set to one in RX interrupt when there isn't free space in
 479:.\Generated_Source\PSoC5/UART_OSDP.c ****     *   UART_OSDP_rxBufferRead to write new data. This condition returned
 480:.\Generated_Source\PSoC5/UART_OSDP.c ****     *   and cleared to zero by this API as an
 481:.\Generated_Source\PSoC5/UART_OSDP.c ****     *   UART_OSDP_RX_STS_SOFT_BUFF_OVER bit along with RX Status register
 482:.\Generated_Source\PSoC5/UART_OSDP.c ****     *   bits.
 483:.\Generated_Source\PSoC5/UART_OSDP.c ****     *
 484:.\Generated_Source\PSoC5/UART_OSDP.c ****     *******************************************************************************/
 485:.\Generated_Source\PSoC5/UART_OSDP.c ****     uint8 UART_OSDP_ReadRxStatus(void) 
 486:.\Generated_Source\PSoC5/UART_OSDP.c ****     {
 374              		.loc 1 486 0
 375              		.cfi_startproc
 376              		@ args = 0, pretend = 0, frame = 0
 377              		@ frame_needed = 0, uses_anonymous_args = 0
 378              		@ link register save eliminated.
 487:.\Generated_Source\PSoC5/UART_OSDP.c ****         uint8 status;
 488:.\Generated_Source\PSoC5/UART_OSDP.c **** 
 489:.\Generated_Source\PSoC5/UART_OSDP.c ****         status = UART_OSDP_RXSTATUS_REG & UART_OSDP_RX_HW_MASK;
 379              		.loc 1 489 0
 380 0000 054B     		ldr	r3, .L40
 381 0002 1878     		ldrb	r0, [r3]	@ zero_extendqisi2
 490:.\Generated_Source\PSoC5/UART_OSDP.c **** 
 491:.\Generated_Source\PSoC5/UART_OSDP.c ****     #if (UART_OSDP_RX_INTERRUPT_ENABLED)
 492:.\Generated_Source\PSoC5/UART_OSDP.c ****         if(UART_OSDP_rxBufferOverflow != 0u)
 382              		.loc 1 492 0
 383 0004 054B     		ldr	r3, .L40+4
 489:.\Generated_Source\PSoC5/UART_OSDP.c ****         status = UART_OSDP_RXSTATUS_REG & UART_OSDP_RX_HW_MASK;
 384              		.loc 1 489 0
 385 0006 00F07F00 		and	r0, r0, #127
 386              	.LVL19:
 387              		.loc 1 492 0
 388 000a DA79     		ldrb	r2, [r3, #7]	@ zero_extendqisi2
 389 000c 1AB1     		cbz	r2, .L36
 493:.\Generated_Source\PSoC5/UART_OSDP.c ****         {
 494:.\Generated_Source\PSoC5/UART_OSDP.c ****             status |= UART_OSDP_RX_STS_SOFT_BUFF_OVER;
 495:.\Generated_Source\PSoC5/UART_OSDP.c ****             UART_OSDP_rxBufferOverflow = 0u;
 390              		.loc 1 495 0
 391 000e 0022     		movs	r2, #0
 494:.\Generated_Source\PSoC5/UART_OSDP.c ****             status |= UART_OSDP_RX_STS_SOFT_BUFF_OVER;
 392              		.loc 1 494 0
 393 0010 40F08000 		orr	r0, r0, #128
 394              	.LVL20:
 395              		.loc 1 495 0
 396 0014 DA71     		strb	r2, [r3, #7]
 397              	.LVL21:
 398              	.L36:
 496:.\Generated_Source\PSoC5/UART_OSDP.c ****         }
 497:.\Generated_Source\PSoC5/UART_OSDP.c ****     #endif /* (UART_OSDP_RX_INTERRUPT_ENABLED) */
 498:.\Generated_Source\PSoC5/UART_OSDP.c **** 
 499:.\Generated_Source\PSoC5/UART_OSDP.c ****         return(status);
ARM GAS  C:\Users\Yiquing\AppData\Local\Temp\ccvaGiH9.s 			page 17


 500:.\Generated_Source\PSoC5/UART_OSDP.c ****     }
 399              		.loc 1 500 0
 400 0016 7047     		bx	lr
 401              	.L41:
 402              		.align	2
 403              	.L40:
 404 0018 62640040 		.word	1073767522
 405 001c 00000000 		.word	.LANCHOR0
 406              		.cfi_endproc
 407              	.LFE8:
 408              		.size	UART_OSDP_ReadRxStatus, .-UART_OSDP_ReadRxStatus
 409              		.section	.text.UART_OSDP_GetChar,"ax",%progbits
 410              		.align	1
 411              		.global	UART_OSDP_GetChar
 412              		.thumb
 413              		.thumb_func
 414              		.type	UART_OSDP_GetChar, %function
 415              	UART_OSDP_GetChar:
 416              	.LFB9:
 501:.\Generated_Source\PSoC5/UART_OSDP.c **** 
 502:.\Generated_Source\PSoC5/UART_OSDP.c **** 
 503:.\Generated_Source\PSoC5/UART_OSDP.c ****     /*******************************************************************************
 504:.\Generated_Source\PSoC5/UART_OSDP.c ****     * Function Name: UART_OSDP_GetChar
 505:.\Generated_Source\PSoC5/UART_OSDP.c ****     ********************************************************************************
 506:.\Generated_Source\PSoC5/UART_OSDP.c ****     *
 507:.\Generated_Source\PSoC5/UART_OSDP.c ****     * Summary:
 508:.\Generated_Source\PSoC5/UART_OSDP.c ****     *  Returns the last received byte of data. UART_OSDP_GetChar() is
 509:.\Generated_Source\PSoC5/UART_OSDP.c ****     *  designed for ASCII characters and returns a uint8 where 1 to 255 are values
 510:.\Generated_Source\PSoC5/UART_OSDP.c ****     *  for valid characters and 0 indicates an error occurred or no data is present.
 511:.\Generated_Source\PSoC5/UART_OSDP.c ****     *
 512:.\Generated_Source\PSoC5/UART_OSDP.c ****     * Parameters:
 513:.\Generated_Source\PSoC5/UART_OSDP.c ****     *  None.
 514:.\Generated_Source\PSoC5/UART_OSDP.c ****     *
 515:.\Generated_Source\PSoC5/UART_OSDP.c ****     * Return:
 516:.\Generated_Source\PSoC5/UART_OSDP.c ****     *  Character read from UART RX buffer. ASCII characters from 1 to 255 are valid.
 517:.\Generated_Source\PSoC5/UART_OSDP.c ****     *  A returned zero signifies an error condition or no data available.
 518:.\Generated_Source\PSoC5/UART_OSDP.c ****     *
 519:.\Generated_Source\PSoC5/UART_OSDP.c ****     * Global Variables:
 520:.\Generated_Source\PSoC5/UART_OSDP.c ****     *  UART_OSDP_rxBuffer - RAM buffer pointer for save received data.
 521:.\Generated_Source\PSoC5/UART_OSDP.c ****     *  UART_OSDP_rxBufferWrite - cyclic index for write to rxBuffer,
 522:.\Generated_Source\PSoC5/UART_OSDP.c ****     *     checked to identify new data.
 523:.\Generated_Source\PSoC5/UART_OSDP.c ****     *  UART_OSDP_rxBufferRead - cyclic index for read from rxBuffer,
 524:.\Generated_Source\PSoC5/UART_OSDP.c ****     *     incremented after each byte has been read from buffer.
 525:.\Generated_Source\PSoC5/UART_OSDP.c ****     *  UART_OSDP_rxBufferLoopDetect - cleared if loop condition was detected
 526:.\Generated_Source\PSoC5/UART_OSDP.c ****     *     in RX ISR.
 527:.\Generated_Source\PSoC5/UART_OSDP.c ****     *
 528:.\Generated_Source\PSoC5/UART_OSDP.c ****     * Reentrant:
 529:.\Generated_Source\PSoC5/UART_OSDP.c ****     *  No.
 530:.\Generated_Source\PSoC5/UART_OSDP.c ****     *
 531:.\Generated_Source\PSoC5/UART_OSDP.c ****     *******************************************************************************/
 532:.\Generated_Source\PSoC5/UART_OSDP.c ****     uint8 UART_OSDP_GetChar(void) 
 533:.\Generated_Source\PSoC5/UART_OSDP.c ****     {
 417              		.loc 1 533 0
 418              		.cfi_startproc
 419              		@ args = 0, pretend = 0, frame = 0
 420              		@ frame_needed = 0, uses_anonymous_args = 0
 421              		@ link register save eliminated.
ARM GAS  C:\Users\Yiquing\AppData\Local\Temp\ccvaGiH9.s 			page 18


 422              	.LVL22:
 534:.\Generated_Source\PSoC5/UART_OSDP.c ****         uint8 rxData = 0u;
 535:.\Generated_Source\PSoC5/UART_OSDP.c ****         uint8 rxStatus;
 536:.\Generated_Source\PSoC5/UART_OSDP.c **** 
 537:.\Generated_Source\PSoC5/UART_OSDP.c ****     #if (UART_OSDP_RX_INTERRUPT_ENABLED)
 538:.\Generated_Source\PSoC5/UART_OSDP.c ****         uint16 locRxBufferRead;
 539:.\Generated_Source\PSoC5/UART_OSDP.c ****         uint16 locRxBufferWrite;
 540:.\Generated_Source\PSoC5/UART_OSDP.c **** 
 541:.\Generated_Source\PSoC5/UART_OSDP.c ****         /* Protect variables that could change on interrupt */
 542:.\Generated_Source\PSoC5/UART_OSDP.c ****         UART_OSDP_DisableRxInt();
 423              		.loc 1 542 0
 424 0000 164B     		ldr	r3, .L54
 425 0002 0122     		movs	r2, #1
 426 0004 1A60     		str	r2, [r3]
 543:.\Generated_Source\PSoC5/UART_OSDP.c **** 
 544:.\Generated_Source\PSoC5/UART_OSDP.c ****         locRxBufferRead  = UART_OSDP_rxBufferRead;
 427              		.loc 1 544 0
 428 0006 164A     		ldr	r2, .L54+4
 429 0008 5388     		ldrh	r3, [r2, #2]
 545:.\Generated_Source\PSoC5/UART_OSDP.c ****         locRxBufferWrite = UART_OSDP_rxBufferWrite;
 430              		.loc 1 545 0
 431 000a 9188     		ldrh	r1, [r2, #4]
 546:.\Generated_Source\PSoC5/UART_OSDP.c **** 
 547:.\Generated_Source\PSoC5/UART_OSDP.c ****         if( (UART_OSDP_rxBufferLoopDetect != 0u) || (locRxBufferRead != locRxBufferWrite) )
 432              		.loc 1 547 0
 433 000c 9079     		ldrb	r0, [r2, #6]	@ zero_extendqisi2
 544:.\Generated_Source\PSoC5/UART_OSDP.c ****         locRxBufferRead  = UART_OSDP_rxBufferRead;
 434              		.loc 1 544 0
 435 000e 9BB2     		uxth	r3, r3
 436              	.LVL23:
 545:.\Generated_Source\PSoC5/UART_OSDP.c ****         locRxBufferWrite = UART_OSDP_rxBufferWrite;
 437              		.loc 1 545 0
 438 0010 89B2     		uxth	r1, r1
 439              	.LVL24:
 440              		.loc 1 547 0
 441 0012 08B9     		cbnz	r0, .L43
 442              		.loc 1 547 0 is_stmt 0 discriminator 1
 443 0014 8B42     		cmp	r3, r1
 444 0016 0FD0     		beq	.L44
 445              	.L43:
 548:.\Generated_Source\PSoC5/UART_OSDP.c ****         {
 549:.\Generated_Source\PSoC5/UART_OSDP.c ****             rxData = UART_OSDP_rxBuffer[locRxBufferRead];
 446              		.loc 1 549 0 is_stmt 1
 447 0018 1249     		ldr	r1, .L54+8
 448              	.LVL25:
 449 001a C85C     		ldrb	r0, [r1, r3]	@ zero_extendqisi2
 550:.\Generated_Source\PSoC5/UART_OSDP.c ****             locRxBufferRead++;
 450              		.loc 1 550 0
 451 001c 0133     		adds	r3, r3, #1
 452              	.LVL26:
 453 001e 9BB2     		uxth	r3, r3
 454              	.LVL27:
 551:.\Generated_Source\PSoC5/UART_OSDP.c ****             if(locRxBufferRead >= UART_OSDP_RX_BUFFER_SIZE)
 552:.\Generated_Source\PSoC5/UART_OSDP.c ****             {
 553:.\Generated_Source\PSoC5/UART_OSDP.c ****                 locRxBufferRead = 0u;
 455              		.loc 1 553 0
 456 0020 B3F5807F 		cmp	r3, #256
ARM GAS  C:\Users\Yiquing\AppData\Local\Temp\ccvaGiH9.s 			page 19


 457 0024 28BF     		it	cs
 458 0026 0023     		movcs	r3, #0
 554:.\Generated_Source\PSoC5/UART_OSDP.c ****             }
 555:.\Generated_Source\PSoC5/UART_OSDP.c ****             /* Update the real pointer */
 556:.\Generated_Source\PSoC5/UART_OSDP.c ****             UART_OSDP_rxBufferRead = locRxBufferRead;
 459              		.loc 1 556 0
 460 0028 5380     		strh	r3, [r2, #2]	@ movhi
 557:.\Generated_Source\PSoC5/UART_OSDP.c **** 
 558:.\Generated_Source\PSoC5/UART_OSDP.c ****             if(UART_OSDP_rxBufferLoopDetect != 0u)
 461              		.loc 1 558 0
 462 002a 9379     		ldrb	r3, [r2, #6]	@ zero_extendqisi2
 549:.\Generated_Source\PSoC5/UART_OSDP.c ****             rxData = UART_OSDP_rxBuffer[locRxBufferRead];
 463              		.loc 1 549 0
 464 002c C0B2     		uxtb	r0, r0
 465              	.LVL28:
 466              		.loc 1 558 0
 467 002e 8BB1     		cbz	r3, .L46
 559:.\Generated_Source\PSoC5/UART_OSDP.c ****             {
 560:.\Generated_Source\PSoC5/UART_OSDP.c ****                 UART_OSDP_rxBufferLoopDetect = 0u;
 468              		.loc 1 560 0
 469 0030 0B4B     		ldr	r3, .L54+4
 470 0032 0022     		movs	r2, #0
 471 0034 9A71     		strb	r2, [r3, #6]
 472 0036 0DE0     		b	.L46
 473              	.LVL29:
 474              	.L44:
 561:.\Generated_Source\PSoC5/UART_OSDP.c ****                 #if( (UART_OSDP_RX_INTERRUPT_ENABLED) && (UART_OSDP_FLOW_CONTROL != 0u) )
 562:.\Generated_Source\PSoC5/UART_OSDP.c ****                     /* When Hardware Flow Control selected - return RX mask */
 563:.\Generated_Source\PSoC5/UART_OSDP.c ****                     #if( UART_OSDP_HD_ENABLED )
 564:.\Generated_Source\PSoC5/UART_OSDP.c ****                         if((UART_OSDP_CONTROL_REG & UART_OSDP_CTRL_HD_SEND) == 0u)
 565:.\Generated_Source\PSoC5/UART_OSDP.c ****                         {   /* In Half duplex mode return RX mask only if
 566:.\Generated_Source\PSoC5/UART_OSDP.c ****                             *  RX configuration set, otherwise
 567:.\Generated_Source\PSoC5/UART_OSDP.c ****                             *  mask will be returned in LoadRxConfig() API.
 568:.\Generated_Source\PSoC5/UART_OSDP.c ****                             */
 569:.\Generated_Source\PSoC5/UART_OSDP.c ****                             UART_OSDP_RXSTATUS_MASK_REG |= UART_OSDP_RX_STS_FIFO_NOTEMPTY;
 570:.\Generated_Source\PSoC5/UART_OSDP.c ****                         }
 571:.\Generated_Source\PSoC5/UART_OSDP.c ****                     #else
 572:.\Generated_Source\PSoC5/UART_OSDP.c ****                         UART_OSDP_RXSTATUS_MASK_REG |= UART_OSDP_RX_STS_FIFO_NOTEMPTY;
 573:.\Generated_Source\PSoC5/UART_OSDP.c ****                     #endif /* end UART_OSDP_HD_ENABLED */
 574:.\Generated_Source\PSoC5/UART_OSDP.c ****                 #endif /* UART_OSDP_RX_INTERRUPT_ENABLED and Hardware flow control*/
 575:.\Generated_Source\PSoC5/UART_OSDP.c ****             }
 576:.\Generated_Source\PSoC5/UART_OSDP.c **** 
 577:.\Generated_Source\PSoC5/UART_OSDP.c ****         }
 578:.\Generated_Source\PSoC5/UART_OSDP.c ****         else
 579:.\Generated_Source\PSoC5/UART_OSDP.c ****         {   rxStatus = UART_OSDP_RXSTATUS_REG;
 475              		.loc 1 579 0
 476 0038 0B4B     		ldr	r3, .L54+12
 477              	.LVL30:
 478 003a 1B78     		ldrb	r3, [r3]	@ zero_extendqisi2
 479 003c DBB2     		uxtb	r3, r3
 480              	.LVL31:
 580:.\Generated_Source\PSoC5/UART_OSDP.c ****             if((rxStatus & UART_OSDP_RX_STS_FIFO_NOTEMPTY) != 0u)
 481              		.loc 1 580 0
 482 003e 03F02002 		and	r2, r3, #32
 483 0042 02F0FF00 		and	r0, r2, #255
 484 0046 2AB1     		cbz	r2, .L46
 581:.\Generated_Source\PSoC5/UART_OSDP.c ****             {   /* Read received data from FIFO */
ARM GAS  C:\Users\Yiquing\AppData\Local\Temp\ccvaGiH9.s 			page 20


 582:.\Generated_Source\PSoC5/UART_OSDP.c ****                 rxData = UART_OSDP_RXDATA_REG;
 485              		.loc 1 582 0
 486 0048 084A     		ldr	r2, .L54+16
 583:.\Generated_Source\PSoC5/UART_OSDP.c ****                 /*Check status on error*/
 584:.\Generated_Source\PSoC5/UART_OSDP.c ****                 if((rxStatus & (UART_OSDP_RX_STS_BREAK | UART_OSDP_RX_STS_PAR_ERROR |
 585:.\Generated_Source\PSoC5/UART_OSDP.c ****                                 UART_OSDP_RX_STS_STOP_ERROR | UART_OSDP_RX_STS_OVERRUN)) != 0u)
 586:.\Generated_Source\PSoC5/UART_OSDP.c ****                 {
 587:.\Generated_Source\PSoC5/UART_OSDP.c ****                     rxData = 0u;
 487              		.loc 1 587 0
 488 004a 13F01E0F 		tst	r3, #30
 582:.\Generated_Source\PSoC5/UART_OSDP.c ****                 rxData = UART_OSDP_RXDATA_REG;
 489              		.loc 1 582 0
 490 004e 1078     		ldrb	r0, [r2]	@ zero_extendqisi2
 491              	.LVL32:
 492              		.loc 1 587 0
 493 0050 18BF     		it	ne
 494 0052 0020     		movne	r0, #0
 495              	.LVL33:
 496              	.L46:
 588:.\Generated_Source\PSoC5/UART_OSDP.c ****                 }
 589:.\Generated_Source\PSoC5/UART_OSDP.c ****             }
 590:.\Generated_Source\PSoC5/UART_OSDP.c ****         }
 591:.\Generated_Source\PSoC5/UART_OSDP.c **** 
 592:.\Generated_Source\PSoC5/UART_OSDP.c ****         UART_OSDP_EnableRxInt();
 497              		.loc 1 592 0
 498 0054 064B     		ldr	r3, .L54+20
 499 0056 0122     		movs	r2, #1
 500 0058 1A60     		str	r2, [r3]
 593:.\Generated_Source\PSoC5/UART_OSDP.c **** 
 594:.\Generated_Source\PSoC5/UART_OSDP.c ****     #else
 595:.\Generated_Source\PSoC5/UART_OSDP.c **** 
 596:.\Generated_Source\PSoC5/UART_OSDP.c ****         rxStatus =UART_OSDP_RXSTATUS_REG;
 597:.\Generated_Source\PSoC5/UART_OSDP.c ****         if((rxStatus & UART_OSDP_RX_STS_FIFO_NOTEMPTY) != 0u)
 598:.\Generated_Source\PSoC5/UART_OSDP.c ****         {
 599:.\Generated_Source\PSoC5/UART_OSDP.c ****             /* Read received data from FIFO */
 600:.\Generated_Source\PSoC5/UART_OSDP.c ****             rxData = UART_OSDP_RXDATA_REG;
 601:.\Generated_Source\PSoC5/UART_OSDP.c **** 
 602:.\Generated_Source\PSoC5/UART_OSDP.c ****             /*Check status on error*/
 603:.\Generated_Source\PSoC5/UART_OSDP.c ****             if((rxStatus & (UART_OSDP_RX_STS_BREAK | UART_OSDP_RX_STS_PAR_ERROR |
 604:.\Generated_Source\PSoC5/UART_OSDP.c ****                             UART_OSDP_RX_STS_STOP_ERROR | UART_OSDP_RX_STS_OVERRUN)) != 0u)
 605:.\Generated_Source\PSoC5/UART_OSDP.c ****             {
 606:.\Generated_Source\PSoC5/UART_OSDP.c ****                 rxData = 0u;
 607:.\Generated_Source\PSoC5/UART_OSDP.c ****             }
 608:.\Generated_Source\PSoC5/UART_OSDP.c ****         }
 609:.\Generated_Source\PSoC5/UART_OSDP.c ****     #endif /* (UART_OSDP_RX_INTERRUPT_ENABLED) */
 610:.\Generated_Source\PSoC5/UART_OSDP.c **** 
 611:.\Generated_Source\PSoC5/UART_OSDP.c ****         return(rxData);
 612:.\Generated_Source\PSoC5/UART_OSDP.c ****     }
 501              		.loc 1 612 0
 502 005a 7047     		bx	lr
 503              	.L55:
 504              		.align	2
 505              	.L54:
 506 005c 80E100E0 		.word	-536813184
 507 0060 00000000 		.word	.LANCHOR0
 508 0064 00000000 		.word	UART_OSDP_rxBuffer
 509 0068 62640040 		.word	1073767522
ARM GAS  C:\Users\Yiquing\AppData\Local\Temp\ccvaGiH9.s 			page 21


 510 006c 46650040 		.word	1073767750
 511 0070 00E100E0 		.word	-536813312
 512              		.cfi_endproc
 513              	.LFE9:
 514              		.size	UART_OSDP_GetChar, .-UART_OSDP_GetChar
 515              		.section	.text.UART_OSDP_GetByte,"ax",%progbits
 516              		.align	1
 517              		.global	UART_OSDP_GetByte
 518              		.thumb
 519              		.thumb_func
 520              		.type	UART_OSDP_GetByte, %function
 521              	UART_OSDP_GetByte:
 522              	.LFB10:
 613:.\Generated_Source\PSoC5/UART_OSDP.c **** 
 614:.\Generated_Source\PSoC5/UART_OSDP.c **** 
 615:.\Generated_Source\PSoC5/UART_OSDP.c ****     /*******************************************************************************
 616:.\Generated_Source\PSoC5/UART_OSDP.c ****     * Function Name: UART_OSDP_GetByte
 617:.\Generated_Source\PSoC5/UART_OSDP.c ****     ********************************************************************************
 618:.\Generated_Source\PSoC5/UART_OSDP.c ****     *
 619:.\Generated_Source\PSoC5/UART_OSDP.c ****     * Summary:
 620:.\Generated_Source\PSoC5/UART_OSDP.c ****     *  Reads UART RX buffer immediately, returns received character and error
 621:.\Generated_Source\PSoC5/UART_OSDP.c ****     *  condition.
 622:.\Generated_Source\PSoC5/UART_OSDP.c ****     *
 623:.\Generated_Source\PSoC5/UART_OSDP.c ****     * Parameters:
 624:.\Generated_Source\PSoC5/UART_OSDP.c ****     *  None.
 625:.\Generated_Source\PSoC5/UART_OSDP.c ****     *
 626:.\Generated_Source\PSoC5/UART_OSDP.c ****     * Return:
 627:.\Generated_Source\PSoC5/UART_OSDP.c ****     *  MSB contains status and LSB contains UART RX data. If the MSB is nonzero,
 628:.\Generated_Source\PSoC5/UART_OSDP.c ****     *  an error has occurred.
 629:.\Generated_Source\PSoC5/UART_OSDP.c ****     *
 630:.\Generated_Source\PSoC5/UART_OSDP.c ****     * Reentrant:
 631:.\Generated_Source\PSoC5/UART_OSDP.c ****     *  No.
 632:.\Generated_Source\PSoC5/UART_OSDP.c ****     *
 633:.\Generated_Source\PSoC5/UART_OSDP.c ****     *******************************************************************************/
 634:.\Generated_Source\PSoC5/UART_OSDP.c ****     uint16 UART_OSDP_GetByte(void) 
 635:.\Generated_Source\PSoC5/UART_OSDP.c ****     {
 523              		.loc 1 635 0
 524              		.cfi_startproc
 525              		@ args = 0, pretend = 0, frame = 0
 526              		@ frame_needed = 0, uses_anonymous_args = 0
 527 0000 10B5     		push	{r4, lr}
 528              		.cfi_def_cfa_offset 8
 529              		.cfi_offset 4, -8
 530              		.cfi_offset 14, -4
 636:.\Generated_Source\PSoC5/UART_OSDP.c ****         
 637:.\Generated_Source\PSoC5/UART_OSDP.c ****     #if (UART_OSDP_RX_INTERRUPT_ENABLED)
 638:.\Generated_Source\PSoC5/UART_OSDP.c ****         uint16 locErrorStatus;
 639:.\Generated_Source\PSoC5/UART_OSDP.c ****         /* Protect variables that could change on interrupt */
 640:.\Generated_Source\PSoC5/UART_OSDP.c ****         UART_OSDP_DisableRxInt();
 531              		.loc 1 640 0
 532 0002 074A     		ldr	r2, .L57
 533 0004 0123     		movs	r3, #1
 534 0006 1360     		str	r3, [r2]
 641:.\Generated_Source\PSoC5/UART_OSDP.c ****         locErrorStatus = (uint16)UART_OSDP_errorStatus;
 535              		.loc 1 641 0
 536 0008 064A     		ldr	r2, .L57+4
 642:.\Generated_Source\PSoC5/UART_OSDP.c ****         UART_OSDP_errorStatus = 0u;
ARM GAS  C:\Users\Yiquing\AppData\Local\Temp\ccvaGiH9.s 			page 22


 537              		.loc 1 642 0
 538 000a 0021     		movs	r1, #0
 641:.\Generated_Source\PSoC5/UART_OSDP.c ****         locErrorStatus = (uint16)UART_OSDP_errorStatus;
 539              		.loc 1 641 0
 540 000c 1478     		ldrb	r4, [r2]	@ zero_extendqisi2
 541              	.LVL34:
 542              		.loc 1 642 0
 543 000e 1170     		strb	r1, [r2]
 643:.\Generated_Source\PSoC5/UART_OSDP.c ****         UART_OSDP_EnableRxInt();
 544              		.loc 1 643 0
 545 0010 054A     		ldr	r2, .L57+8
 546 0012 1360     		str	r3, [r2]
 644:.\Generated_Source\PSoC5/UART_OSDP.c ****         return ( (uint16)(locErrorStatus << 8u) | UART_OSDP_ReadRxData() );
 547              		.loc 1 644 0
 548 0014 FFF7FEFF 		bl	UART_OSDP_ReadRxData
 549              	.LVL35:
 550 0018 40EA0420 		orr	r0, r0, r4, lsl #8
 645:.\Generated_Source\PSoC5/UART_OSDP.c ****     #else
 646:.\Generated_Source\PSoC5/UART_OSDP.c ****         return ( ((uint16)UART_OSDP_ReadRxStatus() << 8u) | UART_OSDP_ReadRxData() );
 647:.\Generated_Source\PSoC5/UART_OSDP.c ****     #endif /* UART_OSDP_RX_INTERRUPT_ENABLED */
 648:.\Generated_Source\PSoC5/UART_OSDP.c ****         
 649:.\Generated_Source\PSoC5/UART_OSDP.c ****     }
 551              		.loc 1 649 0
 552 001c 80B2     		uxth	r0, r0
 553 001e 10BD     		pop	{r4, pc}
 554              	.LVL36:
 555              	.L58:
 556              		.align	2
 557              	.L57:
 558 0020 80E100E0 		.word	-536813184
 559 0024 00000000 		.word	.LANCHOR0
 560 0028 00E100E0 		.word	-536813312
 561              		.cfi_endproc
 562              	.LFE10:
 563              		.size	UART_OSDP_GetByte, .-UART_OSDP_GetByte
 564              		.section	.text.UART_OSDP_GetRxBufferSize,"ax",%progbits
 565              		.align	1
 566              		.global	UART_OSDP_GetRxBufferSize
 567              		.thumb
 568              		.thumb_func
 569              		.type	UART_OSDP_GetRxBufferSize, %function
 570              	UART_OSDP_GetRxBufferSize:
 571              	.LFB11:
 650:.\Generated_Source\PSoC5/UART_OSDP.c **** 
 651:.\Generated_Source\PSoC5/UART_OSDP.c **** 
 652:.\Generated_Source\PSoC5/UART_OSDP.c ****     /*******************************************************************************
 653:.\Generated_Source\PSoC5/UART_OSDP.c ****     * Function Name: UART_OSDP_GetRxBufferSize
 654:.\Generated_Source\PSoC5/UART_OSDP.c ****     ********************************************************************************
 655:.\Generated_Source\PSoC5/UART_OSDP.c ****     *
 656:.\Generated_Source\PSoC5/UART_OSDP.c ****     * Summary:
 657:.\Generated_Source\PSoC5/UART_OSDP.c ****     *  Returns the number of received bytes available in the RX buffer.
 658:.\Generated_Source\PSoC5/UART_OSDP.c ****     *  * RX software buffer is disabled (RX Buffer Size parameter is equal to 4): 
 659:.\Generated_Source\PSoC5/UART_OSDP.c ****     *    returns 0 for empty RX FIFO or 1 for not empty RX FIFO.
 660:.\Generated_Source\PSoC5/UART_OSDP.c ****     *  * RX software buffer is enabled: returns the number of bytes available in 
 661:.\Generated_Source\PSoC5/UART_OSDP.c ****     *    the RX software buffer. Bytes available in the RX FIFO do not take to 
 662:.\Generated_Source\PSoC5/UART_OSDP.c ****     *    account.
 663:.\Generated_Source\PSoC5/UART_OSDP.c ****     *
ARM GAS  C:\Users\Yiquing\AppData\Local\Temp\ccvaGiH9.s 			page 23


 664:.\Generated_Source\PSoC5/UART_OSDP.c ****     * Parameters:
 665:.\Generated_Source\PSoC5/UART_OSDP.c ****     *  None.
 666:.\Generated_Source\PSoC5/UART_OSDP.c ****     *
 667:.\Generated_Source\PSoC5/UART_OSDP.c ****     * Return:
 668:.\Generated_Source\PSoC5/UART_OSDP.c ****     *  uint16: Number of bytes in the RX buffer. 
 669:.\Generated_Source\PSoC5/UART_OSDP.c ****     *    Return value type depends on RX Buffer Size parameter.
 670:.\Generated_Source\PSoC5/UART_OSDP.c ****     *
 671:.\Generated_Source\PSoC5/UART_OSDP.c ****     * Global Variables:
 672:.\Generated_Source\PSoC5/UART_OSDP.c ****     *  UART_OSDP_rxBufferWrite - used to calculate left bytes.
 673:.\Generated_Source\PSoC5/UART_OSDP.c ****     *  UART_OSDP_rxBufferRead - used to calculate left bytes.
 674:.\Generated_Source\PSoC5/UART_OSDP.c ****     *  UART_OSDP_rxBufferLoopDetect - checked to decide left bytes amount.
 675:.\Generated_Source\PSoC5/UART_OSDP.c ****     *
 676:.\Generated_Source\PSoC5/UART_OSDP.c ****     * Reentrant:
 677:.\Generated_Source\PSoC5/UART_OSDP.c ****     *  No.
 678:.\Generated_Source\PSoC5/UART_OSDP.c ****     *
 679:.\Generated_Source\PSoC5/UART_OSDP.c ****     * Theory:
 680:.\Generated_Source\PSoC5/UART_OSDP.c ****     *  Allows the user to find out how full the RX Buffer is.
 681:.\Generated_Source\PSoC5/UART_OSDP.c ****     *
 682:.\Generated_Source\PSoC5/UART_OSDP.c ****     *******************************************************************************/
 683:.\Generated_Source\PSoC5/UART_OSDP.c ****     uint16 UART_OSDP_GetRxBufferSize(void)
 684:.\Generated_Source\PSoC5/UART_OSDP.c ****                                                             
 685:.\Generated_Source\PSoC5/UART_OSDP.c ****     {
 572              		.loc 1 685 0
 573              		.cfi_startproc
 574              		@ args = 0, pretend = 0, frame = 0
 575              		@ frame_needed = 0, uses_anonymous_args = 0
 576              		@ link register save eliminated.
 686:.\Generated_Source\PSoC5/UART_OSDP.c ****         uint16 size;
 687:.\Generated_Source\PSoC5/UART_OSDP.c **** 
 688:.\Generated_Source\PSoC5/UART_OSDP.c ****     #if (UART_OSDP_RX_INTERRUPT_ENABLED)
 689:.\Generated_Source\PSoC5/UART_OSDP.c **** 
 690:.\Generated_Source\PSoC5/UART_OSDP.c ****         /* Protect variables that could change on interrupt */
 691:.\Generated_Source\PSoC5/UART_OSDP.c ****         UART_OSDP_DisableRxInt();
 577              		.loc 1 691 0
 578 0000 114B     		ldr	r3, .L65
 579 0002 0122     		movs	r2, #1
 580 0004 1A60     		str	r2, [r3]
 692:.\Generated_Source\PSoC5/UART_OSDP.c **** 
 693:.\Generated_Source\PSoC5/UART_OSDP.c ****         if(UART_OSDP_rxBufferRead == UART_OSDP_rxBufferWrite)
 581              		.loc 1 693 0
 582 0006 114B     		ldr	r3, .L65+4
 583 0008 5988     		ldrh	r1, [r3, #2]
 584 000a 9A88     		ldrh	r2, [r3, #4]
 585 000c 89B2     		uxth	r1, r1
 586 000e 92B2     		uxth	r2, r2
 587 0010 9142     		cmp	r1, r2
 588 0012 06D1     		bne	.L60
 694:.\Generated_Source\PSoC5/UART_OSDP.c ****         {
 695:.\Generated_Source\PSoC5/UART_OSDP.c ****             if(UART_OSDP_rxBufferLoopDetect != 0u)
 589              		.loc 1 695 0
 590 0014 9B79     		ldrb	r3, [r3, #6]	@ zero_extendqisi2
 591 0016 002B     		cmp	r3, #0
 696:.\Generated_Source\PSoC5/UART_OSDP.c ****             {
 697:.\Generated_Source\PSoC5/UART_OSDP.c ****                 size = UART_OSDP_RX_BUFFER_SIZE;
 592              		.loc 1 697 0
 593 0018 0CBF     		ite	eq
 594 001a 0020     		moveq	r0, #0
ARM GAS  C:\Users\Yiquing\AppData\Local\Temp\ccvaGiH9.s 			page 24


 595 001c 4FF48070 		movne	r0, #256
 596 0020 0DE0     		b	.L61
 597              	.L60:
 698:.\Generated_Source\PSoC5/UART_OSDP.c ****             }
 699:.\Generated_Source\PSoC5/UART_OSDP.c ****             else
 700:.\Generated_Source\PSoC5/UART_OSDP.c ****             {
 701:.\Generated_Source\PSoC5/UART_OSDP.c ****                 size = 0u;
 702:.\Generated_Source\PSoC5/UART_OSDP.c ****             }
 703:.\Generated_Source\PSoC5/UART_OSDP.c ****         }
 704:.\Generated_Source\PSoC5/UART_OSDP.c ****         else if(UART_OSDP_rxBufferRead < UART_OSDP_rxBufferWrite)
 598              		.loc 1 704 0
 599 0022 5988     		ldrh	r1, [r3, #2]
 600 0024 9A88     		ldrh	r2, [r3, #4]
 601 0026 89B2     		uxth	r1, r1
 705:.\Generated_Source\PSoC5/UART_OSDP.c ****         {
 706:.\Generated_Source\PSoC5/UART_OSDP.c ****             size = (UART_OSDP_rxBufferWrite - UART_OSDP_rxBufferRead);
 602              		.loc 1 706 0
 603 0028 9888     		ldrh	r0, [r3, #4]
 704:.\Generated_Source\PSoC5/UART_OSDP.c ****         else if(UART_OSDP_rxBufferRead < UART_OSDP_rxBufferWrite)
 604              		.loc 1 704 0
 605 002a 92B2     		uxth	r2, r2
 606 002c 9142     		cmp	r1, r2
 707:.\Generated_Source\PSoC5/UART_OSDP.c ****         }
 708:.\Generated_Source\PSoC5/UART_OSDP.c ****         else
 709:.\Generated_Source\PSoC5/UART_OSDP.c ****         {
 710:.\Generated_Source\PSoC5/UART_OSDP.c ****             size = (UART_OSDP_RX_BUFFER_SIZE - UART_OSDP_rxBufferRead) + UART_OSDP_rxBufferWrite;
 607              		.loc 1 710 0
 608 002e 29BF     		itett	cs
 609 0030 80B2     		uxthcs	r0, r0
 706:.\Generated_Source\PSoC5/UART_OSDP.c ****             size = (UART_OSDP_rxBufferWrite - UART_OSDP_rxBufferRead);
 610              		.loc 1 706 0
 611 0032 5B88     		ldrhcc	r3, [r3, #2]
 612              		.loc 1 710 0
 613 0034 5B88     		ldrhcs	r3, [r3, #2]
 614 0036 00F58070 		addcs	r0, r0, #256
 615 003a C01A     		subs	r0, r0, r3
 616 003c 80B2     		uxth	r0, r0
 617              	.LVL37:
 618              	.L61:
 711:.\Generated_Source\PSoC5/UART_OSDP.c ****         }
 712:.\Generated_Source\PSoC5/UART_OSDP.c **** 
 713:.\Generated_Source\PSoC5/UART_OSDP.c ****         UART_OSDP_EnableRxInt();
 619              		.loc 1 713 0
 620 003e 044B     		ldr	r3, .L65+8
 621 0040 0122     		movs	r2, #1
 622 0042 1A60     		str	r2, [r3]
 714:.\Generated_Source\PSoC5/UART_OSDP.c **** 
 715:.\Generated_Source\PSoC5/UART_OSDP.c ****     #else
 716:.\Generated_Source\PSoC5/UART_OSDP.c **** 
 717:.\Generated_Source\PSoC5/UART_OSDP.c ****         /* We can only know if there is data in the fifo. */
 718:.\Generated_Source\PSoC5/UART_OSDP.c ****         size = ((UART_OSDP_RXSTATUS_REG & UART_OSDP_RX_STS_FIFO_NOTEMPTY) != 0u) ? 1u : 0u;
 719:.\Generated_Source\PSoC5/UART_OSDP.c **** 
 720:.\Generated_Source\PSoC5/UART_OSDP.c ****     #endif /* (UART_OSDP_RX_INTERRUPT_ENABLED) */
 721:.\Generated_Source\PSoC5/UART_OSDP.c **** 
 722:.\Generated_Source\PSoC5/UART_OSDP.c ****         return(size);
 723:.\Generated_Source\PSoC5/UART_OSDP.c ****     }
 623              		.loc 1 723 0
ARM GAS  C:\Users\Yiquing\AppData\Local\Temp\ccvaGiH9.s 			page 25


 624 0044 7047     		bx	lr
 625              	.L66:
 626 0046 00BF     		.align	2
 627              	.L65:
 628 0048 80E100E0 		.word	-536813184
 629 004c 00000000 		.word	.LANCHOR0
 630 0050 00E100E0 		.word	-536813312
 631              		.cfi_endproc
 632              	.LFE11:
 633              		.size	UART_OSDP_GetRxBufferSize, .-UART_OSDP_GetRxBufferSize
 634              		.section	.text.UART_OSDP_ClearRxBuffer,"ax",%progbits
 635              		.align	1
 636              		.global	UART_OSDP_ClearRxBuffer
 637              		.thumb
 638              		.thumb_func
 639              		.type	UART_OSDP_ClearRxBuffer, %function
 640              	UART_OSDP_ClearRxBuffer:
 641              	.LFB12:
 724:.\Generated_Source\PSoC5/UART_OSDP.c **** 
 725:.\Generated_Source\PSoC5/UART_OSDP.c **** 
 726:.\Generated_Source\PSoC5/UART_OSDP.c ****     /*******************************************************************************
 727:.\Generated_Source\PSoC5/UART_OSDP.c ****     * Function Name: UART_OSDP_ClearRxBuffer
 728:.\Generated_Source\PSoC5/UART_OSDP.c ****     ********************************************************************************
 729:.\Generated_Source\PSoC5/UART_OSDP.c ****     *
 730:.\Generated_Source\PSoC5/UART_OSDP.c ****     * Summary:
 731:.\Generated_Source\PSoC5/UART_OSDP.c ****     *  Clears the receiver memory buffer and hardware RX FIFO of all received data.
 732:.\Generated_Source\PSoC5/UART_OSDP.c ****     *
 733:.\Generated_Source\PSoC5/UART_OSDP.c ****     * Parameters:
 734:.\Generated_Source\PSoC5/UART_OSDP.c ****     *  None.
 735:.\Generated_Source\PSoC5/UART_OSDP.c ****     *
 736:.\Generated_Source\PSoC5/UART_OSDP.c ****     * Return:
 737:.\Generated_Source\PSoC5/UART_OSDP.c ****     *  None.
 738:.\Generated_Source\PSoC5/UART_OSDP.c ****     *
 739:.\Generated_Source\PSoC5/UART_OSDP.c ****     * Global Variables:
 740:.\Generated_Source\PSoC5/UART_OSDP.c ****     *  UART_OSDP_rxBufferWrite - cleared to zero.
 741:.\Generated_Source\PSoC5/UART_OSDP.c ****     *  UART_OSDP_rxBufferRead - cleared to zero.
 742:.\Generated_Source\PSoC5/UART_OSDP.c ****     *  UART_OSDP_rxBufferLoopDetect - cleared to zero.
 743:.\Generated_Source\PSoC5/UART_OSDP.c ****     *  UART_OSDP_rxBufferOverflow - cleared to zero.
 744:.\Generated_Source\PSoC5/UART_OSDP.c ****     *
 745:.\Generated_Source\PSoC5/UART_OSDP.c ****     * Reentrant:
 746:.\Generated_Source\PSoC5/UART_OSDP.c ****     *  No.
 747:.\Generated_Source\PSoC5/UART_OSDP.c ****     *
 748:.\Generated_Source\PSoC5/UART_OSDP.c ****     * Theory:
 749:.\Generated_Source\PSoC5/UART_OSDP.c ****     *  Setting the pointers to zero makes the system believe there is no data to
 750:.\Generated_Source\PSoC5/UART_OSDP.c ****     *  read and writing will resume at address 0 overwriting any data that may
 751:.\Generated_Source\PSoC5/UART_OSDP.c ****     *  have remained in the RAM.
 752:.\Generated_Source\PSoC5/UART_OSDP.c ****     *
 753:.\Generated_Source\PSoC5/UART_OSDP.c ****     * Side Effects:
 754:.\Generated_Source\PSoC5/UART_OSDP.c ****     *  Any received data not read from the RAM or FIFO buffer will be lost.
 755:.\Generated_Source\PSoC5/UART_OSDP.c ****     *
 756:.\Generated_Source\PSoC5/UART_OSDP.c ****     *******************************************************************************/
 757:.\Generated_Source\PSoC5/UART_OSDP.c ****     void UART_OSDP_ClearRxBuffer(void) 
 758:.\Generated_Source\PSoC5/UART_OSDP.c ****     {
 642              		.loc 1 758 0
 643              		.cfi_startproc
 644              		@ args = 0, pretend = 0, frame = 0
 645              		@ frame_needed = 0, uses_anonymous_args = 0
ARM GAS  C:\Users\Yiquing\AppData\Local\Temp\ccvaGiH9.s 			page 26


 646 0000 08B5     		push	{r3, lr}
 647              		.cfi_def_cfa_offset 8
 648              		.cfi_offset 3, -8
 649              		.cfi_offset 14, -4
 759:.\Generated_Source\PSoC5/UART_OSDP.c ****         uint8 enableInterrupts;
 760:.\Generated_Source\PSoC5/UART_OSDP.c **** 
 761:.\Generated_Source\PSoC5/UART_OSDP.c ****         /* Clear the HW FIFO */
 762:.\Generated_Source\PSoC5/UART_OSDP.c ****         enableInterrupts = CyEnterCriticalSection();
 650              		.loc 1 762 0
 651 0002 FFF7FEFF 		bl	CyEnterCriticalSection
 652              	.LVL38:
 763:.\Generated_Source\PSoC5/UART_OSDP.c ****         UART_OSDP_RXDATA_AUX_CTL_REG |= (uint8)  UART_OSDP_RX_FIFO_CLR;
 653              		.loc 1 763 0
 654 0006 0B4B     		ldr	r3, .L68
 655 0008 1A78     		ldrb	r2, [r3]	@ zero_extendqisi2
 656 000a 42F00102 		orr	r2, r2, #1
 657 000e 1A70     		strb	r2, [r3]
 764:.\Generated_Source\PSoC5/UART_OSDP.c ****         UART_OSDP_RXDATA_AUX_CTL_REG &= (uint8) ~UART_OSDP_RX_FIFO_CLR;
 658              		.loc 1 764 0
 659 0010 1A78     		ldrb	r2, [r3]	@ zero_extendqisi2
 660 0012 02F0FE02 		and	r2, r2, #254
 661 0016 1A70     		strb	r2, [r3]
 765:.\Generated_Source\PSoC5/UART_OSDP.c ****         CyExitCriticalSection(enableInterrupts);
 662              		.loc 1 765 0
 663 0018 FFF7FEFF 		bl	CyExitCriticalSection
 664              	.LVL39:
 766:.\Generated_Source\PSoC5/UART_OSDP.c **** 
 767:.\Generated_Source\PSoC5/UART_OSDP.c ****     #if (UART_OSDP_RX_INTERRUPT_ENABLED)
 768:.\Generated_Source\PSoC5/UART_OSDP.c **** 
 769:.\Generated_Source\PSoC5/UART_OSDP.c ****         /* Protect variables that could change on interrupt. */
 770:.\Generated_Source\PSoC5/UART_OSDP.c ****         UART_OSDP_DisableRxInt();
 665              		.loc 1 770 0
 666 001c 064B     		ldr	r3, .L68+4
 667 001e 0121     		movs	r1, #1
 668 0020 1960     		str	r1, [r3]
 771:.\Generated_Source\PSoC5/UART_OSDP.c **** 
 772:.\Generated_Source\PSoC5/UART_OSDP.c ****         UART_OSDP_rxBufferRead = 0u;
 669              		.loc 1 772 0
 670 0022 064B     		ldr	r3, .L68+8
 671 0024 0022     		movs	r2, #0
 672 0026 5A80     		strh	r2, [r3, #2]	@ movhi
 773:.\Generated_Source\PSoC5/UART_OSDP.c ****         UART_OSDP_rxBufferWrite = 0u;
 673              		.loc 1 773 0
 674 0028 9A80     		strh	r2, [r3, #4]	@ movhi
 774:.\Generated_Source\PSoC5/UART_OSDP.c ****         UART_OSDP_rxBufferLoopDetect = 0u;
 675              		.loc 1 774 0
 676 002a 9A71     		strb	r2, [r3, #6]
 775:.\Generated_Source\PSoC5/UART_OSDP.c ****         UART_OSDP_rxBufferOverflow = 0u;
 677              		.loc 1 775 0
 678 002c DA71     		strb	r2, [r3, #7]
 776:.\Generated_Source\PSoC5/UART_OSDP.c **** 
 777:.\Generated_Source\PSoC5/UART_OSDP.c ****         UART_OSDP_EnableRxInt();
 679              		.loc 1 777 0
 680 002e 044B     		ldr	r3, .L68+12
 681 0030 1960     		str	r1, [r3]
 682 0032 08BD     		pop	{r3, pc}
 683              	.L69:
ARM GAS  C:\Users\Yiquing\AppData\Local\Temp\ccvaGiH9.s 			page 27


 684              		.align	2
 685              	.L68:
 686 0034 96650040 		.word	1073767830
 687 0038 80E100E0 		.word	-536813184
 688 003c 00000000 		.word	.LANCHOR0
 689 0040 00E100E0 		.word	-536813312
 690              		.cfi_endproc
 691              	.LFE12:
 692              		.size	UART_OSDP_ClearRxBuffer, .-UART_OSDP_ClearRxBuffer
 693              		.section	.text.UART_OSDP_SetRxAddressMode,"ax",%progbits
 694              		.align	1
 695              		.global	UART_OSDP_SetRxAddressMode
 696              		.thumb
 697              		.thumb_func
 698              		.type	UART_OSDP_SetRxAddressMode, %function
 699              	UART_OSDP_SetRxAddressMode:
 700              	.LFB13:
 778:.\Generated_Source\PSoC5/UART_OSDP.c **** 
 779:.\Generated_Source\PSoC5/UART_OSDP.c ****     #endif /* (UART_OSDP_RX_INTERRUPT_ENABLED) */
 780:.\Generated_Source\PSoC5/UART_OSDP.c **** 
 781:.\Generated_Source\PSoC5/UART_OSDP.c ****     }
 782:.\Generated_Source\PSoC5/UART_OSDP.c **** 
 783:.\Generated_Source\PSoC5/UART_OSDP.c **** 
 784:.\Generated_Source\PSoC5/UART_OSDP.c ****     /*******************************************************************************
 785:.\Generated_Source\PSoC5/UART_OSDP.c ****     * Function Name: UART_OSDP_SetRxAddressMode
 786:.\Generated_Source\PSoC5/UART_OSDP.c ****     ********************************************************************************
 787:.\Generated_Source\PSoC5/UART_OSDP.c ****     *
 788:.\Generated_Source\PSoC5/UART_OSDP.c ****     * Summary:
 789:.\Generated_Source\PSoC5/UART_OSDP.c ****     *  Sets the software controlled Addressing mode used by the RX portion of the
 790:.\Generated_Source\PSoC5/UART_OSDP.c ****     *  UART.
 791:.\Generated_Source\PSoC5/UART_OSDP.c ****     *
 792:.\Generated_Source\PSoC5/UART_OSDP.c ****     * Parameters:
 793:.\Generated_Source\PSoC5/UART_OSDP.c ****     *  addressMode: Enumerated value indicating the mode of RX addressing
 794:.\Generated_Source\PSoC5/UART_OSDP.c ****     *  UART_OSDP__B_UART__AM_SW_BYTE_BYTE -  Software Byte-by-Byte address
 795:.\Generated_Source\PSoC5/UART_OSDP.c ****     *                                               detection
 796:.\Generated_Source\PSoC5/UART_OSDP.c ****     *  UART_OSDP__B_UART__AM_SW_DETECT_TO_BUFFER - Software Detect to Buffer
 797:.\Generated_Source\PSoC5/UART_OSDP.c ****     *                                               address detection
 798:.\Generated_Source\PSoC5/UART_OSDP.c ****     *  UART_OSDP__B_UART__AM_HW_BYTE_BY_BYTE - Hardware Byte-by-Byte address
 799:.\Generated_Source\PSoC5/UART_OSDP.c ****     *                                               detection
 800:.\Generated_Source\PSoC5/UART_OSDP.c ****     *  UART_OSDP__B_UART__AM_HW_DETECT_TO_BUFFER - Hardware Detect to Buffer
 801:.\Generated_Source\PSoC5/UART_OSDP.c ****     *                                               address detection
 802:.\Generated_Source\PSoC5/UART_OSDP.c ****     *  UART_OSDP__B_UART__AM_NONE - No address detection
 803:.\Generated_Source\PSoC5/UART_OSDP.c ****     *
 804:.\Generated_Source\PSoC5/UART_OSDP.c ****     * Return:
 805:.\Generated_Source\PSoC5/UART_OSDP.c ****     *  None.
 806:.\Generated_Source\PSoC5/UART_OSDP.c ****     *
 807:.\Generated_Source\PSoC5/UART_OSDP.c ****     * Global Variables:
 808:.\Generated_Source\PSoC5/UART_OSDP.c ****     *  UART_OSDP_rxAddressMode - the parameter stored in this variable for
 809:.\Generated_Source\PSoC5/UART_OSDP.c ****     *   the farther usage in RX ISR.
 810:.\Generated_Source\PSoC5/UART_OSDP.c ****     *  UART_OSDP_rxAddressDetected - set to initial state (0).
 811:.\Generated_Source\PSoC5/UART_OSDP.c ****     *
 812:.\Generated_Source\PSoC5/UART_OSDP.c ****     *******************************************************************************/
 813:.\Generated_Source\PSoC5/UART_OSDP.c ****     void UART_OSDP_SetRxAddressMode(uint8 addressMode)
 814:.\Generated_Source\PSoC5/UART_OSDP.c ****                                                         
 815:.\Generated_Source\PSoC5/UART_OSDP.c ****     {
 701              		.loc 1 815 0
 702              		.cfi_startproc
ARM GAS  C:\Users\Yiquing\AppData\Local\Temp\ccvaGiH9.s 			page 28


 703              		@ args = 0, pretend = 0, frame = 0
 704              		@ frame_needed = 0, uses_anonymous_args = 0
 705              		@ link register save eliminated.
 706              	.LVL40:
 707 0000 7047     		bx	lr
 708              		.cfi_endproc
 709              	.LFE13:
 710              		.size	UART_OSDP_SetRxAddressMode, .-UART_OSDP_SetRxAddressMode
 711              		.section	.text.UART_OSDP_SetRxAddress1,"ax",%progbits
 712              		.align	1
 713              		.global	UART_OSDP_SetRxAddress1
 714              		.thumb
 715              		.thumb_func
 716              		.type	UART_OSDP_SetRxAddress1, %function
 717              	UART_OSDP_SetRxAddress1:
 718              	.LFB14:
 816:.\Generated_Source\PSoC5/UART_OSDP.c ****         #if(UART_OSDP_RXHW_ADDRESS_ENABLED)
 817:.\Generated_Source\PSoC5/UART_OSDP.c ****             #if(UART_OSDP_CONTROL_REG_REMOVED)
 818:.\Generated_Source\PSoC5/UART_OSDP.c ****                 if(0u != addressMode)
 819:.\Generated_Source\PSoC5/UART_OSDP.c ****                 {
 820:.\Generated_Source\PSoC5/UART_OSDP.c ****                     /* Suppress compiler warning */
 821:.\Generated_Source\PSoC5/UART_OSDP.c ****                 }
 822:.\Generated_Source\PSoC5/UART_OSDP.c ****             #else /* UART_OSDP_CONTROL_REG_REMOVED */
 823:.\Generated_Source\PSoC5/UART_OSDP.c ****                 uint8 tmpCtrl;
 824:.\Generated_Source\PSoC5/UART_OSDP.c ****                 tmpCtrl = UART_OSDP_CONTROL_REG & (uint8)~UART_OSDP_CTRL_RXADDR_MODE_MASK;
 825:.\Generated_Source\PSoC5/UART_OSDP.c ****                 tmpCtrl |= (uint8)(addressMode << UART_OSDP_CTRL_RXADDR_MODE0_SHIFT);
 826:.\Generated_Source\PSoC5/UART_OSDP.c ****                 UART_OSDP_CONTROL_REG = tmpCtrl;
 827:.\Generated_Source\PSoC5/UART_OSDP.c **** 
 828:.\Generated_Source\PSoC5/UART_OSDP.c ****                 #if(UART_OSDP_RX_INTERRUPT_ENABLED && \
 829:.\Generated_Source\PSoC5/UART_OSDP.c ****                    (UART_OSDP_RXBUFFERSIZE > UART_OSDP_FIFO_LENGTH) )
 830:.\Generated_Source\PSoC5/UART_OSDP.c ****                     UART_OSDP_rxAddressMode = addressMode;
 831:.\Generated_Source\PSoC5/UART_OSDP.c ****                     UART_OSDP_rxAddressDetected = 0u;
 832:.\Generated_Source\PSoC5/UART_OSDP.c ****                 #endif /* End UART_OSDP_RXBUFFERSIZE > UART_OSDP_FIFO_LENGTH*/
 833:.\Generated_Source\PSoC5/UART_OSDP.c ****             #endif /* End UART_OSDP_CONTROL_REG_REMOVED */
 834:.\Generated_Source\PSoC5/UART_OSDP.c ****         #else /* UART_OSDP_RXHW_ADDRESS_ENABLED */
 835:.\Generated_Source\PSoC5/UART_OSDP.c ****             if(0u != addressMode)
 836:.\Generated_Source\PSoC5/UART_OSDP.c ****             {
 837:.\Generated_Source\PSoC5/UART_OSDP.c ****                 /* Suppress compiler warning */
 838:.\Generated_Source\PSoC5/UART_OSDP.c ****             }
 839:.\Generated_Source\PSoC5/UART_OSDP.c ****         #endif /* End UART_OSDP_RXHW_ADDRESS_ENABLED */
 840:.\Generated_Source\PSoC5/UART_OSDP.c ****     }
 841:.\Generated_Source\PSoC5/UART_OSDP.c **** 
 842:.\Generated_Source\PSoC5/UART_OSDP.c **** 
 843:.\Generated_Source\PSoC5/UART_OSDP.c ****     /*******************************************************************************
 844:.\Generated_Source\PSoC5/UART_OSDP.c ****     * Function Name: UART_OSDP_SetRxAddress1
 845:.\Generated_Source\PSoC5/UART_OSDP.c ****     ********************************************************************************
 846:.\Generated_Source\PSoC5/UART_OSDP.c ****     *
 847:.\Generated_Source\PSoC5/UART_OSDP.c ****     * Summary:
 848:.\Generated_Source\PSoC5/UART_OSDP.c ****     *  Sets the first of two hardware-detectable receiver addresses.
 849:.\Generated_Source\PSoC5/UART_OSDP.c ****     *
 850:.\Generated_Source\PSoC5/UART_OSDP.c ****     * Parameters:
 851:.\Generated_Source\PSoC5/UART_OSDP.c ****     *  address: Address #1 for hardware address detection.
 852:.\Generated_Source\PSoC5/UART_OSDP.c ****     *
 853:.\Generated_Source\PSoC5/UART_OSDP.c ****     * Return:
 854:.\Generated_Source\PSoC5/UART_OSDP.c ****     *  None.
 855:.\Generated_Source\PSoC5/UART_OSDP.c ****     *
 856:.\Generated_Source\PSoC5/UART_OSDP.c ****     *******************************************************************************/
ARM GAS  C:\Users\Yiquing\AppData\Local\Temp\ccvaGiH9.s 			page 29


 857:.\Generated_Source\PSoC5/UART_OSDP.c ****     void UART_OSDP_SetRxAddress1(uint8 address) 
 858:.\Generated_Source\PSoC5/UART_OSDP.c ****     {
 719              		.loc 1 858 0
 720              		.cfi_startproc
 721              		@ args = 0, pretend = 0, frame = 0
 722              		@ frame_needed = 0, uses_anonymous_args = 0
 723              		@ link register save eliminated.
 724              	.LVL41:
 859:.\Generated_Source\PSoC5/UART_OSDP.c ****         UART_OSDP_RXADDRESS1_REG = address;
 725              		.loc 1 859 0
 726 0000 014B     		ldr	r3, .L72
 727 0002 1870     		strb	r0, [r3]
 728 0004 7047     		bx	lr
 729              	.L73:
 730 0006 00BF     		.align	2
 731              	.L72:
 732 0008 26650040 		.word	1073767718
 733              		.cfi_endproc
 734              	.LFE14:
 735              		.size	UART_OSDP_SetRxAddress1, .-UART_OSDP_SetRxAddress1
 736              		.section	.text.UART_OSDP_SetRxAddress2,"ax",%progbits
 737              		.align	1
 738              		.global	UART_OSDP_SetRxAddress2
 739              		.thumb
 740              		.thumb_func
 741              		.type	UART_OSDP_SetRxAddress2, %function
 742              	UART_OSDP_SetRxAddress2:
 743              	.LFB15:
 860:.\Generated_Source\PSoC5/UART_OSDP.c ****     }
 861:.\Generated_Source\PSoC5/UART_OSDP.c **** 
 862:.\Generated_Source\PSoC5/UART_OSDP.c **** 
 863:.\Generated_Source\PSoC5/UART_OSDP.c ****     /*******************************************************************************
 864:.\Generated_Source\PSoC5/UART_OSDP.c ****     * Function Name: UART_OSDP_SetRxAddress2
 865:.\Generated_Source\PSoC5/UART_OSDP.c ****     ********************************************************************************
 866:.\Generated_Source\PSoC5/UART_OSDP.c ****     *
 867:.\Generated_Source\PSoC5/UART_OSDP.c ****     * Summary:
 868:.\Generated_Source\PSoC5/UART_OSDP.c ****     *  Sets the second of two hardware-detectable receiver addresses.
 869:.\Generated_Source\PSoC5/UART_OSDP.c ****     *
 870:.\Generated_Source\PSoC5/UART_OSDP.c ****     * Parameters:
 871:.\Generated_Source\PSoC5/UART_OSDP.c ****     *  address: Address #2 for hardware address detection.
 872:.\Generated_Source\PSoC5/UART_OSDP.c ****     *
 873:.\Generated_Source\PSoC5/UART_OSDP.c ****     * Return:
 874:.\Generated_Source\PSoC5/UART_OSDP.c ****     *  None.
 875:.\Generated_Source\PSoC5/UART_OSDP.c ****     *
 876:.\Generated_Source\PSoC5/UART_OSDP.c ****     *******************************************************************************/
 877:.\Generated_Source\PSoC5/UART_OSDP.c ****     void UART_OSDP_SetRxAddress2(uint8 address) 
 878:.\Generated_Source\PSoC5/UART_OSDP.c ****     {
 744              		.loc 1 878 0
 745              		.cfi_startproc
 746              		@ args = 0, pretend = 0, frame = 0
 747              		@ frame_needed = 0, uses_anonymous_args = 0
 748              		@ link register save eliminated.
 749              	.LVL42:
 879:.\Generated_Source\PSoC5/UART_OSDP.c ****         UART_OSDP_RXADDRESS2_REG = address;
 750              		.loc 1 879 0
 751 0000 014B     		ldr	r3, .L75
 752 0002 1870     		strb	r0, [r3]
ARM GAS  C:\Users\Yiquing\AppData\Local\Temp\ccvaGiH9.s 			page 30


 753 0004 7047     		bx	lr
 754              	.L76:
 755 0006 00BF     		.align	2
 756              	.L75:
 757 0008 36650040 		.word	1073767734
 758              		.cfi_endproc
 759              	.LFE15:
 760              		.size	UART_OSDP_SetRxAddress2, .-UART_OSDP_SetRxAddress2
 761              		.section	.text.UART_OSDP_SetTxInterruptMode,"ax",%progbits
 762              		.align	1
 763              		.global	UART_OSDP_SetTxInterruptMode
 764              		.thumb
 765              		.thumb_func
 766              		.type	UART_OSDP_SetTxInterruptMode, %function
 767              	UART_OSDP_SetTxInterruptMode:
 768              	.LFB16:
 880:.\Generated_Source\PSoC5/UART_OSDP.c ****     }
 881:.\Generated_Source\PSoC5/UART_OSDP.c **** 
 882:.\Generated_Source\PSoC5/UART_OSDP.c **** #endif  /* UART_OSDP_RX_ENABLED || UART_OSDP_HD_ENABLED*/
 883:.\Generated_Source\PSoC5/UART_OSDP.c **** 
 884:.\Generated_Source\PSoC5/UART_OSDP.c **** 
 885:.\Generated_Source\PSoC5/UART_OSDP.c **** #if( (UART_OSDP_TX_ENABLED) || (UART_OSDP_HD_ENABLED) )
 886:.\Generated_Source\PSoC5/UART_OSDP.c ****     /*******************************************************************************
 887:.\Generated_Source\PSoC5/UART_OSDP.c ****     * Function Name: UART_OSDP_SetTxInterruptMode
 888:.\Generated_Source\PSoC5/UART_OSDP.c ****     ********************************************************************************
 889:.\Generated_Source\PSoC5/UART_OSDP.c ****     *
 890:.\Generated_Source\PSoC5/UART_OSDP.c ****     * Summary:
 891:.\Generated_Source\PSoC5/UART_OSDP.c ****     *  Configures the TX interrupt sources to be enabled, but does not enable the
 892:.\Generated_Source\PSoC5/UART_OSDP.c ****     *  interrupt.
 893:.\Generated_Source\PSoC5/UART_OSDP.c ****     *
 894:.\Generated_Source\PSoC5/UART_OSDP.c ****     * Parameters:
 895:.\Generated_Source\PSoC5/UART_OSDP.c ****     *  intSrc: Bit field containing the TX interrupt sources to enable
 896:.\Generated_Source\PSoC5/UART_OSDP.c ****     *   UART_OSDP_TX_STS_COMPLETE        Interrupt on TX byte complete
 897:.\Generated_Source\PSoC5/UART_OSDP.c ****     *   UART_OSDP_TX_STS_FIFO_EMPTY      Interrupt when TX FIFO is empty
 898:.\Generated_Source\PSoC5/UART_OSDP.c ****     *   UART_OSDP_TX_STS_FIFO_FULL       Interrupt when TX FIFO is full
 899:.\Generated_Source\PSoC5/UART_OSDP.c ****     *   UART_OSDP_TX_STS_FIFO_NOT_FULL   Interrupt when TX FIFO is not full
 900:.\Generated_Source\PSoC5/UART_OSDP.c ****     *
 901:.\Generated_Source\PSoC5/UART_OSDP.c ****     * Return:
 902:.\Generated_Source\PSoC5/UART_OSDP.c ****     *  None.
 903:.\Generated_Source\PSoC5/UART_OSDP.c ****     *
 904:.\Generated_Source\PSoC5/UART_OSDP.c ****     * Theory:
 905:.\Generated_Source\PSoC5/UART_OSDP.c ****     *  Enables the output of specific status bits to the interrupt controller
 906:.\Generated_Source\PSoC5/UART_OSDP.c ****     *
 907:.\Generated_Source\PSoC5/UART_OSDP.c ****     *******************************************************************************/
 908:.\Generated_Source\PSoC5/UART_OSDP.c ****     void UART_OSDP_SetTxInterruptMode(uint8 intSrc) 
 909:.\Generated_Source\PSoC5/UART_OSDP.c ****     {
 769              		.loc 1 909 0
 770              		.cfi_startproc
 771              		@ args = 0, pretend = 0, frame = 0
 772              		@ frame_needed = 0, uses_anonymous_args = 0
 773              		@ link register save eliminated.
 774              	.LVL43:
 910:.\Generated_Source\PSoC5/UART_OSDP.c ****         UART_OSDP_TXSTATUS_MASK_REG = intSrc;
 775              		.loc 1 910 0
 776 0000 014B     		ldr	r3, .L78
 777 0002 1870     		strb	r0, [r3]
 778 0004 7047     		bx	lr
ARM GAS  C:\Users\Yiquing\AppData\Local\Temp\ccvaGiH9.s 			page 31


 779              	.L79:
 780 0006 00BF     		.align	2
 781              	.L78:
 782 0008 82640040 		.word	1073767554
 783              		.cfi_endproc
 784              	.LFE16:
 785              		.size	UART_OSDP_SetTxInterruptMode, .-UART_OSDP_SetTxInterruptMode
 786              		.section	.text.UART_OSDP_WriteTxData,"ax",%progbits
 787              		.align	1
 788              		.global	UART_OSDP_WriteTxData
 789              		.thumb
 790              		.thumb_func
 791              		.type	UART_OSDP_WriteTxData, %function
 792              	UART_OSDP_WriteTxData:
 793              	.LFB17:
 911:.\Generated_Source\PSoC5/UART_OSDP.c ****     }
 912:.\Generated_Source\PSoC5/UART_OSDP.c **** 
 913:.\Generated_Source\PSoC5/UART_OSDP.c **** 
 914:.\Generated_Source\PSoC5/UART_OSDP.c ****     /*******************************************************************************
 915:.\Generated_Source\PSoC5/UART_OSDP.c ****     * Function Name: UART_OSDP_WriteTxData
 916:.\Generated_Source\PSoC5/UART_OSDP.c ****     ********************************************************************************
 917:.\Generated_Source\PSoC5/UART_OSDP.c ****     *
 918:.\Generated_Source\PSoC5/UART_OSDP.c ****     * Summary:
 919:.\Generated_Source\PSoC5/UART_OSDP.c ****     *  Places a byte of data into the transmit buffer to be sent when the bus is
 920:.\Generated_Source\PSoC5/UART_OSDP.c ****     *  available without checking the TX status register. You must check status
 921:.\Generated_Source\PSoC5/UART_OSDP.c ****     *  separately.
 922:.\Generated_Source\PSoC5/UART_OSDP.c ****     *
 923:.\Generated_Source\PSoC5/UART_OSDP.c ****     * Parameters:
 924:.\Generated_Source\PSoC5/UART_OSDP.c ****     *  txDataByte: data byte
 925:.\Generated_Source\PSoC5/UART_OSDP.c ****     *
 926:.\Generated_Source\PSoC5/UART_OSDP.c ****     * Return:
 927:.\Generated_Source\PSoC5/UART_OSDP.c ****     * None.
 928:.\Generated_Source\PSoC5/UART_OSDP.c ****     *
 929:.\Generated_Source\PSoC5/UART_OSDP.c ****     * Global Variables:
 930:.\Generated_Source\PSoC5/UART_OSDP.c ****     *  UART_OSDP_txBuffer - RAM buffer pointer for save data for transmission
 931:.\Generated_Source\PSoC5/UART_OSDP.c ****     *  UART_OSDP_txBufferWrite - cyclic index for write to txBuffer,
 932:.\Generated_Source\PSoC5/UART_OSDP.c ****     *    incremented after each byte saved to buffer.
 933:.\Generated_Source\PSoC5/UART_OSDP.c ****     *  UART_OSDP_txBufferRead - cyclic index for read from txBuffer,
 934:.\Generated_Source\PSoC5/UART_OSDP.c ****     *    checked to identify the condition to write to FIFO directly or to TX buffer
 935:.\Generated_Source\PSoC5/UART_OSDP.c ****     *  UART_OSDP_initVar - checked to identify that the component has been
 936:.\Generated_Source\PSoC5/UART_OSDP.c ****     *    initialized.
 937:.\Generated_Source\PSoC5/UART_OSDP.c ****     *
 938:.\Generated_Source\PSoC5/UART_OSDP.c ****     * Reentrant:
 939:.\Generated_Source\PSoC5/UART_OSDP.c ****     *  No.
 940:.\Generated_Source\PSoC5/UART_OSDP.c ****     *
 941:.\Generated_Source\PSoC5/UART_OSDP.c ****     *******************************************************************************/
 942:.\Generated_Source\PSoC5/UART_OSDP.c ****     void UART_OSDP_WriteTxData(uint8 txDataByte) 
 943:.\Generated_Source\PSoC5/UART_OSDP.c ****     {
 794              		.loc 1 943 0
 795              		.cfi_startproc
 796              		@ args = 0, pretend = 0, frame = 0
 797              		@ frame_needed = 0, uses_anonymous_args = 0
 798              		@ link register save eliminated.
 799              	.LVL44:
 944:.\Generated_Source\PSoC5/UART_OSDP.c ****         /* If not Initialized then skip this function*/
 945:.\Generated_Source\PSoC5/UART_OSDP.c ****         if(UART_OSDP_initVar != 0u)
 800              		.loc 1 945 0
ARM GAS  C:\Users\Yiquing\AppData\Local\Temp\ccvaGiH9.s 			page 32


 801 0000 024B     		ldr	r3, .L85
 802 0002 5B78     		ldrb	r3, [r3, #1]	@ zero_extendqisi2
 803 0004 0BB1     		cbz	r3, .L80
 946:.\Generated_Source\PSoC5/UART_OSDP.c ****         {
 947:.\Generated_Source\PSoC5/UART_OSDP.c ****         #if (UART_OSDP_TX_INTERRUPT_ENABLED)
 948:.\Generated_Source\PSoC5/UART_OSDP.c **** 
 949:.\Generated_Source\PSoC5/UART_OSDP.c ****             /* Protect variables that could change on interrupt. */
 950:.\Generated_Source\PSoC5/UART_OSDP.c ****             UART_OSDP_DisableTxInt();
 951:.\Generated_Source\PSoC5/UART_OSDP.c **** 
 952:.\Generated_Source\PSoC5/UART_OSDP.c ****             if( (UART_OSDP_txBufferRead == UART_OSDP_txBufferWrite) &&
 953:.\Generated_Source\PSoC5/UART_OSDP.c ****                 ((UART_OSDP_TXSTATUS_REG & UART_OSDP_TX_STS_FIFO_FULL) == 0u) )
 954:.\Generated_Source\PSoC5/UART_OSDP.c ****             {
 955:.\Generated_Source\PSoC5/UART_OSDP.c ****                 /* Add directly to the FIFO. */
 956:.\Generated_Source\PSoC5/UART_OSDP.c ****                 UART_OSDP_TXDATA_REG = txDataByte;
 957:.\Generated_Source\PSoC5/UART_OSDP.c ****             }
 958:.\Generated_Source\PSoC5/UART_OSDP.c ****             else
 959:.\Generated_Source\PSoC5/UART_OSDP.c ****             {
 960:.\Generated_Source\PSoC5/UART_OSDP.c ****                 if(UART_OSDP_txBufferWrite >= UART_OSDP_TX_BUFFER_SIZE)
 961:.\Generated_Source\PSoC5/UART_OSDP.c ****                 {
 962:.\Generated_Source\PSoC5/UART_OSDP.c ****                     UART_OSDP_txBufferWrite = 0u;
 963:.\Generated_Source\PSoC5/UART_OSDP.c ****                 }
 964:.\Generated_Source\PSoC5/UART_OSDP.c **** 
 965:.\Generated_Source\PSoC5/UART_OSDP.c ****                 UART_OSDP_txBuffer[UART_OSDP_txBufferWrite] = txDataByte;
 966:.\Generated_Source\PSoC5/UART_OSDP.c **** 
 967:.\Generated_Source\PSoC5/UART_OSDP.c ****                 /* Add to the software buffer. */
 968:.\Generated_Source\PSoC5/UART_OSDP.c ****                 UART_OSDP_txBufferWrite++;
 969:.\Generated_Source\PSoC5/UART_OSDP.c ****             }
 970:.\Generated_Source\PSoC5/UART_OSDP.c **** 
 971:.\Generated_Source\PSoC5/UART_OSDP.c ****             UART_OSDP_EnableTxInt();
 972:.\Generated_Source\PSoC5/UART_OSDP.c **** 
 973:.\Generated_Source\PSoC5/UART_OSDP.c ****         #else
 974:.\Generated_Source\PSoC5/UART_OSDP.c **** 
 975:.\Generated_Source\PSoC5/UART_OSDP.c ****             /* Add directly to the FIFO. */
 976:.\Generated_Source\PSoC5/UART_OSDP.c ****             UART_OSDP_TXDATA_REG = txDataByte;
 804              		.loc 1 976 0
 805 0006 024B     		ldr	r3, .L85+4
 806 0008 1870     		strb	r0, [r3]
 807              	.L80:
 808 000a 7047     		bx	lr
 809              	.L86:
 810              		.align	2
 811              	.L85:
 812 000c 00000000 		.word	.LANCHOR0
 813 0010 56650040 		.word	1073767766
 814              		.cfi_endproc
 815              	.LFE17:
 816              		.size	UART_OSDP_WriteTxData, .-UART_OSDP_WriteTxData
 817              		.section	.text.UART_OSDP_ReadTxStatus,"ax",%progbits
 818              		.align	1
 819              		.global	UART_OSDP_ReadTxStatus
 820              		.thumb
 821              		.thumb_func
 822              		.type	UART_OSDP_ReadTxStatus, %function
 823              	UART_OSDP_ReadTxStatus:
 824              	.LFB18:
 977:.\Generated_Source\PSoC5/UART_OSDP.c **** 
 978:.\Generated_Source\PSoC5/UART_OSDP.c ****         #endif /*(UART_OSDP_TX_INTERRUPT_ENABLED) */
ARM GAS  C:\Users\Yiquing\AppData\Local\Temp\ccvaGiH9.s 			page 33


 979:.\Generated_Source\PSoC5/UART_OSDP.c ****         }
 980:.\Generated_Source\PSoC5/UART_OSDP.c ****     }
 981:.\Generated_Source\PSoC5/UART_OSDP.c **** 
 982:.\Generated_Source\PSoC5/UART_OSDP.c **** 
 983:.\Generated_Source\PSoC5/UART_OSDP.c ****     /*******************************************************************************
 984:.\Generated_Source\PSoC5/UART_OSDP.c ****     * Function Name: UART_OSDP_ReadTxStatus
 985:.\Generated_Source\PSoC5/UART_OSDP.c ****     ********************************************************************************
 986:.\Generated_Source\PSoC5/UART_OSDP.c ****     *
 987:.\Generated_Source\PSoC5/UART_OSDP.c ****     * Summary:
 988:.\Generated_Source\PSoC5/UART_OSDP.c ****     *  Reads the status register for the TX portion of the UART.
 989:.\Generated_Source\PSoC5/UART_OSDP.c ****     *
 990:.\Generated_Source\PSoC5/UART_OSDP.c ****     * Parameters:
 991:.\Generated_Source\PSoC5/UART_OSDP.c ****     *  None.
 992:.\Generated_Source\PSoC5/UART_OSDP.c ****     *
 993:.\Generated_Source\PSoC5/UART_OSDP.c ****     * Return:
 994:.\Generated_Source\PSoC5/UART_OSDP.c ****     *  Contents of the status register
 995:.\Generated_Source\PSoC5/UART_OSDP.c ****     *
 996:.\Generated_Source\PSoC5/UART_OSDP.c ****     * Theory:
 997:.\Generated_Source\PSoC5/UART_OSDP.c ****     *  This function reads the TX status register, which is cleared on read.
 998:.\Generated_Source\PSoC5/UART_OSDP.c ****     *  It is up to the user to handle all bits in this return value accordingly,
 999:.\Generated_Source\PSoC5/UART_OSDP.c ****     *  even if the bit was not enabled as an interrupt source the event happened
1000:.\Generated_Source\PSoC5/UART_OSDP.c ****     *  and must be handled accordingly.
1001:.\Generated_Source\PSoC5/UART_OSDP.c ****     *
1002:.\Generated_Source\PSoC5/UART_OSDP.c ****     *******************************************************************************/
1003:.\Generated_Source\PSoC5/UART_OSDP.c ****     uint8 UART_OSDP_ReadTxStatus(void) 
1004:.\Generated_Source\PSoC5/UART_OSDP.c ****     {
 825              		.loc 1 1004 0
 826              		.cfi_startproc
 827              		@ args = 0, pretend = 0, frame = 0
 828              		@ frame_needed = 0, uses_anonymous_args = 0
 829              		@ link register save eliminated.
1005:.\Generated_Source\PSoC5/UART_OSDP.c ****         return(UART_OSDP_TXSTATUS_REG);
 830              		.loc 1 1005 0
 831 0000 014B     		ldr	r3, .L88
 832 0002 1878     		ldrb	r0, [r3]	@ zero_extendqisi2
1006:.\Generated_Source\PSoC5/UART_OSDP.c ****     }
 833              		.loc 1 1006 0
 834 0004 7047     		bx	lr
 835              	.L89:
 836 0006 00BF     		.align	2
 837              	.L88:
 838 0008 62640040 		.word	1073767522
 839              		.cfi_endproc
 840              	.LFE18:
 841              		.size	UART_OSDP_ReadTxStatus, .-UART_OSDP_ReadTxStatus
 842              		.section	.text.UART_OSDP_PutChar,"ax",%progbits
 843              		.align	1
 844              		.global	UART_OSDP_PutChar
 845              		.thumb
 846              		.thumb_func
 847              		.type	UART_OSDP_PutChar, %function
 848              	UART_OSDP_PutChar:
 849              	.LFB19:
1007:.\Generated_Source\PSoC5/UART_OSDP.c **** 
1008:.\Generated_Source\PSoC5/UART_OSDP.c **** 
1009:.\Generated_Source\PSoC5/UART_OSDP.c ****     /*******************************************************************************
1010:.\Generated_Source\PSoC5/UART_OSDP.c ****     * Function Name: UART_OSDP_PutChar
ARM GAS  C:\Users\Yiquing\AppData\Local\Temp\ccvaGiH9.s 			page 34


1011:.\Generated_Source\PSoC5/UART_OSDP.c ****     ********************************************************************************
1012:.\Generated_Source\PSoC5/UART_OSDP.c ****     *
1013:.\Generated_Source\PSoC5/UART_OSDP.c ****     * Summary:
1014:.\Generated_Source\PSoC5/UART_OSDP.c ****     *  Puts a byte of data into the transmit buffer to be sent when the bus is
1015:.\Generated_Source\PSoC5/UART_OSDP.c ****     *  available. This is a blocking API that waits until the TX buffer has room to
1016:.\Generated_Source\PSoC5/UART_OSDP.c ****     *  hold the data.
1017:.\Generated_Source\PSoC5/UART_OSDP.c ****     *
1018:.\Generated_Source\PSoC5/UART_OSDP.c ****     * Parameters:
1019:.\Generated_Source\PSoC5/UART_OSDP.c ****     *  txDataByte: Byte containing the data to transmit
1020:.\Generated_Source\PSoC5/UART_OSDP.c ****     *
1021:.\Generated_Source\PSoC5/UART_OSDP.c ****     * Return:
1022:.\Generated_Source\PSoC5/UART_OSDP.c ****     *  None.
1023:.\Generated_Source\PSoC5/UART_OSDP.c ****     *
1024:.\Generated_Source\PSoC5/UART_OSDP.c ****     * Global Variables:
1025:.\Generated_Source\PSoC5/UART_OSDP.c ****     *  UART_OSDP_txBuffer - RAM buffer pointer for save data for transmission
1026:.\Generated_Source\PSoC5/UART_OSDP.c ****     *  UART_OSDP_txBufferWrite - cyclic index for write to txBuffer,
1027:.\Generated_Source\PSoC5/UART_OSDP.c ****     *     checked to identify free space in txBuffer and incremented after each byte
1028:.\Generated_Source\PSoC5/UART_OSDP.c ****     *     saved to buffer.
1029:.\Generated_Source\PSoC5/UART_OSDP.c ****     *  UART_OSDP_txBufferRead - cyclic index for read from txBuffer,
1030:.\Generated_Source\PSoC5/UART_OSDP.c ****     *     checked to identify free space in txBuffer.
1031:.\Generated_Source\PSoC5/UART_OSDP.c ****     *  UART_OSDP_initVar - checked to identify that the component has been
1032:.\Generated_Source\PSoC5/UART_OSDP.c ****     *     initialized.
1033:.\Generated_Source\PSoC5/UART_OSDP.c ****     *
1034:.\Generated_Source\PSoC5/UART_OSDP.c ****     * Reentrant:
1035:.\Generated_Source\PSoC5/UART_OSDP.c ****     *  No.
1036:.\Generated_Source\PSoC5/UART_OSDP.c ****     *
1037:.\Generated_Source\PSoC5/UART_OSDP.c ****     * Theory:
1038:.\Generated_Source\PSoC5/UART_OSDP.c ****     *  Allows the user to transmit any byte of data in a single transfer
1039:.\Generated_Source\PSoC5/UART_OSDP.c ****     *
1040:.\Generated_Source\PSoC5/UART_OSDP.c ****     *******************************************************************************/
1041:.\Generated_Source\PSoC5/UART_OSDP.c ****     void UART_OSDP_PutChar(uint8 txDataByte) 
1042:.\Generated_Source\PSoC5/UART_OSDP.c ****     {
 850              		.loc 1 1042 0
 851              		.cfi_startproc
 852              		@ args = 0, pretend = 0, frame = 0
 853              		@ frame_needed = 0, uses_anonymous_args = 0
 854              		@ link register save eliminated.
 855              	.LVL45:
 856              	.L92:
1043:.\Generated_Source\PSoC5/UART_OSDP.c ****     #if (UART_OSDP_TX_INTERRUPT_ENABLED)
1044:.\Generated_Source\PSoC5/UART_OSDP.c ****         /* The temporary output pointer is used since it takes two instructions
1045:.\Generated_Source\PSoC5/UART_OSDP.c ****         *  to increment with a wrap, and we can't risk doing that with the real
1046:.\Generated_Source\PSoC5/UART_OSDP.c ****         *  pointer and getting an interrupt in between instructions.
1047:.\Generated_Source\PSoC5/UART_OSDP.c ****         */
1048:.\Generated_Source\PSoC5/UART_OSDP.c ****         uint8 locTxBufferWrite;
1049:.\Generated_Source\PSoC5/UART_OSDP.c ****         uint8 locTxBufferRead;
1050:.\Generated_Source\PSoC5/UART_OSDP.c **** 
1051:.\Generated_Source\PSoC5/UART_OSDP.c ****         do
1052:.\Generated_Source\PSoC5/UART_OSDP.c ****         { /* Block if software buffer is full, so we don't overwrite. */
1053:.\Generated_Source\PSoC5/UART_OSDP.c **** 
1054:.\Generated_Source\PSoC5/UART_OSDP.c ****         #if ((UART_OSDP_TX_BUFFER_SIZE > UART_OSDP_MAX_BYTE_VALUE) && (CY_PSOC3))
1055:.\Generated_Source\PSoC5/UART_OSDP.c ****             /* Disable TX interrupt to protect variables from modification */
1056:.\Generated_Source\PSoC5/UART_OSDP.c ****             UART_OSDP_DisableTxInt();
1057:.\Generated_Source\PSoC5/UART_OSDP.c ****         #endif /* (UART_OSDP_TX_BUFFER_SIZE > UART_OSDP_MAX_BYTE_VALUE) && (CY_PSOC3) */
1058:.\Generated_Source\PSoC5/UART_OSDP.c **** 
1059:.\Generated_Source\PSoC5/UART_OSDP.c ****             locTxBufferWrite = UART_OSDP_txBufferWrite;
1060:.\Generated_Source\PSoC5/UART_OSDP.c ****             locTxBufferRead  = UART_OSDP_txBufferRead;
ARM GAS  C:\Users\Yiquing\AppData\Local\Temp\ccvaGiH9.s 			page 35


1061:.\Generated_Source\PSoC5/UART_OSDP.c **** 
1062:.\Generated_Source\PSoC5/UART_OSDP.c ****         #if ((UART_OSDP_TX_BUFFER_SIZE > UART_OSDP_MAX_BYTE_VALUE) && (CY_PSOC3))
1063:.\Generated_Source\PSoC5/UART_OSDP.c ****             /* Enable interrupt to continue transmission */
1064:.\Generated_Source\PSoC5/UART_OSDP.c ****             UART_OSDP_EnableTxInt();
1065:.\Generated_Source\PSoC5/UART_OSDP.c ****         #endif /* (UART_OSDP_TX_BUFFER_SIZE > UART_OSDP_MAX_BYTE_VALUE) && (CY_PSOC3) */
1066:.\Generated_Source\PSoC5/UART_OSDP.c ****         }
1067:.\Generated_Source\PSoC5/UART_OSDP.c ****         while( (locTxBufferWrite < locTxBufferRead) ? (locTxBufferWrite == (locTxBufferRead - 1u)) 
1068:.\Generated_Source\PSoC5/UART_OSDP.c ****                                 ((locTxBufferWrite - locTxBufferRead) ==
1069:.\Generated_Source\PSoC5/UART_OSDP.c ****                                 (uint8)(UART_OSDP_TX_BUFFER_SIZE - 1u)) );
1070:.\Generated_Source\PSoC5/UART_OSDP.c **** 
1071:.\Generated_Source\PSoC5/UART_OSDP.c ****         if( (locTxBufferRead == locTxBufferWrite) &&
1072:.\Generated_Source\PSoC5/UART_OSDP.c ****             ((UART_OSDP_TXSTATUS_REG & UART_OSDP_TX_STS_FIFO_FULL) == 0u) )
1073:.\Generated_Source\PSoC5/UART_OSDP.c ****         {
1074:.\Generated_Source\PSoC5/UART_OSDP.c ****             /* Add directly to the FIFO */
1075:.\Generated_Source\PSoC5/UART_OSDP.c ****             UART_OSDP_TXDATA_REG = txDataByte;
1076:.\Generated_Source\PSoC5/UART_OSDP.c ****         }
1077:.\Generated_Source\PSoC5/UART_OSDP.c ****         else
1078:.\Generated_Source\PSoC5/UART_OSDP.c ****         {
1079:.\Generated_Source\PSoC5/UART_OSDP.c ****             if(locTxBufferWrite >= UART_OSDP_TX_BUFFER_SIZE)
1080:.\Generated_Source\PSoC5/UART_OSDP.c ****             {
1081:.\Generated_Source\PSoC5/UART_OSDP.c ****                 locTxBufferWrite = 0u;
1082:.\Generated_Source\PSoC5/UART_OSDP.c ****             }
1083:.\Generated_Source\PSoC5/UART_OSDP.c ****             /* Add to the software buffer. */
1084:.\Generated_Source\PSoC5/UART_OSDP.c ****             UART_OSDP_txBuffer[locTxBufferWrite] = txDataByte;
1085:.\Generated_Source\PSoC5/UART_OSDP.c ****             locTxBufferWrite++;
1086:.\Generated_Source\PSoC5/UART_OSDP.c **** 
1087:.\Generated_Source\PSoC5/UART_OSDP.c ****             /* Finally, update the real output pointer */
1088:.\Generated_Source\PSoC5/UART_OSDP.c ****         #if ((UART_OSDP_TX_BUFFER_SIZE > UART_OSDP_MAX_BYTE_VALUE) && (CY_PSOC3))
1089:.\Generated_Source\PSoC5/UART_OSDP.c ****             UART_OSDP_DisableTxInt();
1090:.\Generated_Source\PSoC5/UART_OSDP.c ****         #endif /* (UART_OSDP_TX_BUFFER_SIZE > UART_OSDP_MAX_BYTE_VALUE) && (CY_PSOC3) */
1091:.\Generated_Source\PSoC5/UART_OSDP.c **** 
1092:.\Generated_Source\PSoC5/UART_OSDP.c ****             UART_OSDP_txBufferWrite = locTxBufferWrite;
1093:.\Generated_Source\PSoC5/UART_OSDP.c **** 
1094:.\Generated_Source\PSoC5/UART_OSDP.c ****         #if ((UART_OSDP_TX_BUFFER_SIZE > UART_OSDP_MAX_BYTE_VALUE) && (CY_PSOC3))
1095:.\Generated_Source\PSoC5/UART_OSDP.c ****             UART_OSDP_EnableTxInt();
1096:.\Generated_Source\PSoC5/UART_OSDP.c ****         #endif /* (UART_OSDP_TX_BUFFER_SIZE > UART_OSDP_MAX_BYTE_VALUE) && (CY_PSOC3) */
1097:.\Generated_Source\PSoC5/UART_OSDP.c **** 
1098:.\Generated_Source\PSoC5/UART_OSDP.c ****             if(0u != (UART_OSDP_TXSTATUS_REG & UART_OSDP_TX_STS_FIFO_EMPTY))
1099:.\Generated_Source\PSoC5/UART_OSDP.c ****             {
1100:.\Generated_Source\PSoC5/UART_OSDP.c ****                 /* Trigger TX interrupt to send software buffer */
1101:.\Generated_Source\PSoC5/UART_OSDP.c ****                 UART_OSDP_SetPendingTxInt();
1102:.\Generated_Source\PSoC5/UART_OSDP.c ****             }
1103:.\Generated_Source\PSoC5/UART_OSDP.c ****         }
1104:.\Generated_Source\PSoC5/UART_OSDP.c **** 
1105:.\Generated_Source\PSoC5/UART_OSDP.c ****     #else
1106:.\Generated_Source\PSoC5/UART_OSDP.c **** 
1107:.\Generated_Source\PSoC5/UART_OSDP.c ****         while((UART_OSDP_TXSTATUS_REG & UART_OSDP_TX_STS_FIFO_FULL) != 0u)
 857              		.loc 1 1107 0 discriminator 1
 858 0000 034B     		ldr	r3, .L93
 859 0002 1B78     		ldrb	r3, [r3]	@ zero_extendqisi2
 860 0004 9B06     		lsls	r3, r3, #26
 861 0006 FBD4     		bmi	.L92
1108:.\Generated_Source\PSoC5/UART_OSDP.c ****         {
1109:.\Generated_Source\PSoC5/UART_OSDP.c ****             /* Wait for room in the FIFO */
1110:.\Generated_Source\PSoC5/UART_OSDP.c ****         }
1111:.\Generated_Source\PSoC5/UART_OSDP.c **** 
1112:.\Generated_Source\PSoC5/UART_OSDP.c ****         /* Add directly to the FIFO */
ARM GAS  C:\Users\Yiquing\AppData\Local\Temp\ccvaGiH9.s 			page 36


1113:.\Generated_Source\PSoC5/UART_OSDP.c ****         UART_OSDP_TXDATA_REG = txDataByte;
 862              		.loc 1 1113 0
 863 0008 024B     		ldr	r3, .L93+4
 864 000a 1870     		strb	r0, [r3]
 865 000c 7047     		bx	lr
 866              	.L94:
 867 000e 00BF     		.align	2
 868              	.L93:
 869 0010 62640040 		.word	1073767522
 870 0014 56650040 		.word	1073767766
 871              		.cfi_endproc
 872              	.LFE19:
 873              		.size	UART_OSDP_PutChar, .-UART_OSDP_PutChar
 874              		.section	.text.UART_OSDP_PutString,"ax",%progbits
 875              		.align	1
 876              		.global	UART_OSDP_PutString
 877              		.thumb
 878              		.thumb_func
 879              		.type	UART_OSDP_PutString, %function
 880              	UART_OSDP_PutString:
 881              	.LFB20:
1114:.\Generated_Source\PSoC5/UART_OSDP.c **** 
1115:.\Generated_Source\PSoC5/UART_OSDP.c ****     #endif /* UART_OSDP_TX_INTERRUPT_ENABLED */
1116:.\Generated_Source\PSoC5/UART_OSDP.c ****     }
1117:.\Generated_Source\PSoC5/UART_OSDP.c **** 
1118:.\Generated_Source\PSoC5/UART_OSDP.c **** 
1119:.\Generated_Source\PSoC5/UART_OSDP.c ****     /*******************************************************************************
1120:.\Generated_Source\PSoC5/UART_OSDP.c ****     * Function Name: UART_OSDP_PutString
1121:.\Generated_Source\PSoC5/UART_OSDP.c ****     ********************************************************************************
1122:.\Generated_Source\PSoC5/UART_OSDP.c ****     *
1123:.\Generated_Source\PSoC5/UART_OSDP.c ****     * Summary:
1124:.\Generated_Source\PSoC5/UART_OSDP.c ****     *  Sends a NULL terminated string to the TX buffer for transmission.
1125:.\Generated_Source\PSoC5/UART_OSDP.c ****     *
1126:.\Generated_Source\PSoC5/UART_OSDP.c ****     * Parameters:
1127:.\Generated_Source\PSoC5/UART_OSDP.c ****     *  string[]: Pointer to the null terminated string array residing in RAM or ROM
1128:.\Generated_Source\PSoC5/UART_OSDP.c ****     *
1129:.\Generated_Source\PSoC5/UART_OSDP.c ****     * Return:
1130:.\Generated_Source\PSoC5/UART_OSDP.c ****     *  None.
1131:.\Generated_Source\PSoC5/UART_OSDP.c ****     *
1132:.\Generated_Source\PSoC5/UART_OSDP.c ****     * Global Variables:
1133:.\Generated_Source\PSoC5/UART_OSDP.c ****     *  UART_OSDP_initVar - checked to identify that the component has been
1134:.\Generated_Source\PSoC5/UART_OSDP.c ****     *     initialized.
1135:.\Generated_Source\PSoC5/UART_OSDP.c ****     *
1136:.\Generated_Source\PSoC5/UART_OSDP.c ****     * Reentrant:
1137:.\Generated_Source\PSoC5/UART_OSDP.c ****     *  No.
1138:.\Generated_Source\PSoC5/UART_OSDP.c ****     *
1139:.\Generated_Source\PSoC5/UART_OSDP.c ****     * Theory:
1140:.\Generated_Source\PSoC5/UART_OSDP.c ****     *  If there is not enough memory in the TX buffer for the entire string, this
1141:.\Generated_Source\PSoC5/UART_OSDP.c ****     *  function blocks until the last character of the string is loaded into the
1142:.\Generated_Source\PSoC5/UART_OSDP.c ****     *  TX buffer.
1143:.\Generated_Source\PSoC5/UART_OSDP.c ****     *
1144:.\Generated_Source\PSoC5/UART_OSDP.c ****     *******************************************************************************/
1145:.\Generated_Source\PSoC5/UART_OSDP.c ****     void UART_OSDP_PutString(const char8 string[]) 
1146:.\Generated_Source\PSoC5/UART_OSDP.c ****     {
 882              		.loc 1 1146 0
 883              		.cfi_startproc
 884              		@ args = 0, pretend = 0, frame = 0
ARM GAS  C:\Users\Yiquing\AppData\Local\Temp\ccvaGiH9.s 			page 37


 885              		@ frame_needed = 0, uses_anonymous_args = 0
 886              	.LVL46:
 887 0000 38B5     		push	{r3, r4, r5, lr}
 888              		.cfi_def_cfa_offset 16
 889              		.cfi_offset 3, -16
 890              		.cfi_offset 4, -12
 891              		.cfi_offset 5, -8
 892              		.cfi_offset 14, -4
1147:.\Generated_Source\PSoC5/UART_OSDP.c ****         uint16 bufIndex = 0u;
1148:.\Generated_Source\PSoC5/UART_OSDP.c **** 
1149:.\Generated_Source\PSoC5/UART_OSDP.c ****         /* If not Initialized then skip this function */
1150:.\Generated_Source\PSoC5/UART_OSDP.c ****         if(UART_OSDP_initVar != 0u)
 893              		.loc 1 1150 0
 894 0002 064B     		ldr	r3, .L100
1146:.\Generated_Source\PSoC5/UART_OSDP.c ****     {
 895              		.loc 1 1146 0
 896 0004 0546     		mov	r5, r0
 897              		.loc 1 1150 0
 898 0006 5B78     		ldrb	r3, [r3, #1]	@ zero_extendqisi2
 899 0008 3BB1     		cbz	r3, .L95
 900 000a 0024     		movs	r4, #0
 901              	.LVL47:
 902              	.L97:
1151:.\Generated_Source\PSoC5/UART_OSDP.c ****         {
1152:.\Generated_Source\PSoC5/UART_OSDP.c ****             /* This is a blocking function, it will not exit until all data is sent */
1153:.\Generated_Source\PSoC5/UART_OSDP.c ****             while(string[bufIndex] != (char8) 0)
 903              		.loc 1 1153 0 discriminator 1
 904 000c A3B2     		uxth	r3, r4
 905 000e E85C     		ldrb	r0, [r5, r3]	@ zero_extendqisi2
 906 0010 0134     		adds	r4, r4, #1
 907              	.LVL48:
 908 0012 10B1     		cbz	r0, .L95
1154:.\Generated_Source\PSoC5/UART_OSDP.c ****             {
1155:.\Generated_Source\PSoC5/UART_OSDP.c ****                 UART_OSDP_PutChar((uint8)string[bufIndex]);
 909              		.loc 1 1155 0
 910 0014 FFF7FEFF 		bl	UART_OSDP_PutChar
 911              	.LVL49:
 912 0018 F8E7     		b	.L97
 913              	.LVL50:
 914              	.L95:
 915 001a 38BD     		pop	{r3, r4, r5, pc}
 916              	.LVL51:
 917              	.L101:
 918              		.align	2
 919              	.L100:
 920 001c 00000000 		.word	.LANCHOR0
 921              		.cfi_endproc
 922              	.LFE20:
 923              		.size	UART_OSDP_PutString, .-UART_OSDP_PutString
 924              		.section	.text.UART_OSDP_PutArray,"ax",%progbits
 925              		.align	1
 926              		.global	UART_OSDP_PutArray
 927              		.thumb
 928              		.thumb_func
 929              		.type	UART_OSDP_PutArray, %function
 930              	UART_OSDP_PutArray:
 931              	.LFB21:
ARM GAS  C:\Users\Yiquing\AppData\Local\Temp\ccvaGiH9.s 			page 38


1156:.\Generated_Source\PSoC5/UART_OSDP.c ****                 bufIndex++;
1157:.\Generated_Source\PSoC5/UART_OSDP.c ****             }
1158:.\Generated_Source\PSoC5/UART_OSDP.c ****         }
1159:.\Generated_Source\PSoC5/UART_OSDP.c ****     }
1160:.\Generated_Source\PSoC5/UART_OSDP.c **** 
1161:.\Generated_Source\PSoC5/UART_OSDP.c **** 
1162:.\Generated_Source\PSoC5/UART_OSDP.c ****     /*******************************************************************************
1163:.\Generated_Source\PSoC5/UART_OSDP.c ****     * Function Name: UART_OSDP_PutArray
1164:.\Generated_Source\PSoC5/UART_OSDP.c ****     ********************************************************************************
1165:.\Generated_Source\PSoC5/UART_OSDP.c ****     *
1166:.\Generated_Source\PSoC5/UART_OSDP.c ****     * Summary:
1167:.\Generated_Source\PSoC5/UART_OSDP.c ****     *  Places N bytes of data from a memory array into the TX buffer for
1168:.\Generated_Source\PSoC5/UART_OSDP.c ****     *  transmission.
1169:.\Generated_Source\PSoC5/UART_OSDP.c ****     *
1170:.\Generated_Source\PSoC5/UART_OSDP.c ****     * Parameters:
1171:.\Generated_Source\PSoC5/UART_OSDP.c ****     *  string[]: Address of the memory array residing in RAM or ROM.
1172:.\Generated_Source\PSoC5/UART_OSDP.c ****     *  byteCount: Number of bytes to be transmitted. The type depends on TX Buffer
1173:.\Generated_Source\PSoC5/UART_OSDP.c ****     *             Size parameter.
1174:.\Generated_Source\PSoC5/UART_OSDP.c ****     *
1175:.\Generated_Source\PSoC5/UART_OSDP.c ****     * Return:
1176:.\Generated_Source\PSoC5/UART_OSDP.c ****     *  None.
1177:.\Generated_Source\PSoC5/UART_OSDP.c ****     *
1178:.\Generated_Source\PSoC5/UART_OSDP.c ****     * Global Variables:
1179:.\Generated_Source\PSoC5/UART_OSDP.c ****     *  UART_OSDP_initVar - checked to identify that the component has been
1180:.\Generated_Source\PSoC5/UART_OSDP.c ****     *     initialized.
1181:.\Generated_Source\PSoC5/UART_OSDP.c ****     *
1182:.\Generated_Source\PSoC5/UART_OSDP.c ****     * Reentrant:
1183:.\Generated_Source\PSoC5/UART_OSDP.c ****     *  No.
1184:.\Generated_Source\PSoC5/UART_OSDP.c ****     *
1185:.\Generated_Source\PSoC5/UART_OSDP.c ****     * Theory:
1186:.\Generated_Source\PSoC5/UART_OSDP.c ****     *  If there is not enough memory in the TX buffer for the entire string, this
1187:.\Generated_Source\PSoC5/UART_OSDP.c ****     *  function blocks until the last character of the string is loaded into the
1188:.\Generated_Source\PSoC5/UART_OSDP.c ****     *  TX buffer.
1189:.\Generated_Source\PSoC5/UART_OSDP.c ****     *
1190:.\Generated_Source\PSoC5/UART_OSDP.c ****     *******************************************************************************/
1191:.\Generated_Source\PSoC5/UART_OSDP.c ****     void UART_OSDP_PutArray(const uint8 string[], uint8 byteCount)
1192:.\Generated_Source\PSoC5/UART_OSDP.c ****                                                                     
1193:.\Generated_Source\PSoC5/UART_OSDP.c ****     {
 932              		.loc 1 1193 0
 933              		.cfi_startproc
 934              		@ args = 0, pretend = 0, frame = 0
 935              		@ frame_needed = 0, uses_anonymous_args = 0
 936              	.LVL52:
 937 0000 70B5     		push	{r4, r5, r6, lr}
 938              		.cfi_def_cfa_offset 16
 939              		.cfi_offset 4, -16
 940              		.cfi_offset 5, -12
 941              		.cfi_offset 6, -8
 942              		.cfi_offset 14, -4
1194:.\Generated_Source\PSoC5/UART_OSDP.c ****         uint8 bufIndex = 0u;
1195:.\Generated_Source\PSoC5/UART_OSDP.c **** 
1196:.\Generated_Source\PSoC5/UART_OSDP.c ****         /* If not Initialized then skip this function */
1197:.\Generated_Source\PSoC5/UART_OSDP.c ****         if(UART_OSDP_initVar != 0u)
 943              		.loc 1 1197 0
 944 0002 074B     		ldr	r3, .L107
1193:.\Generated_Source\PSoC5/UART_OSDP.c ****     {
 945              		.loc 1 1193 0
ARM GAS  C:\Users\Yiquing\AppData\Local\Temp\ccvaGiH9.s 			page 39


 946 0004 0546     		mov	r5, r0
 947              		.loc 1 1197 0
 948 0006 5B78     		ldrb	r3, [r3, #1]	@ zero_extendqisi2
1193:.\Generated_Source\PSoC5/UART_OSDP.c ****     {
 949              		.loc 1 1193 0
 950 0008 0E46     		mov	r6, r1
 951              		.loc 1 1197 0
 952 000a 43B1     		cbz	r3, .L102
 953 000c 0024     		movs	r4, #0
 954              	.LVL53:
 955              	.L104:
1198:.\Generated_Source\PSoC5/UART_OSDP.c ****         {
1199:.\Generated_Source\PSoC5/UART_OSDP.c ****             while(bufIndex < byteCount)
 956              		.loc 1 1199 0 discriminator 1
 957 000e E3B2     		uxtb	r3, r4
 958 0010 B342     		cmp	r3, r6
 959 0012 04D2     		bcs	.L102
1200:.\Generated_Source\PSoC5/UART_OSDP.c ****             {
1201:.\Generated_Source\PSoC5/UART_OSDP.c ****                 UART_OSDP_PutChar(string[bufIndex]);
 960              		.loc 1 1201 0
 961 0014 285D     		ldrb	r0, [r5, r4]	@ zero_extendqisi2
 962 0016 FFF7FEFF 		bl	UART_OSDP_PutChar
 963              	.LVL54:
 964 001a 0134     		adds	r4, r4, #1
 965              	.LVL55:
 966 001c F7E7     		b	.L104
 967              	.LVL56:
 968              	.L102:
 969 001e 70BD     		pop	{r4, r5, r6, pc}
 970              	.LVL57:
 971              	.L108:
 972              		.align	2
 973              	.L107:
 974 0020 00000000 		.word	.LANCHOR0
 975              		.cfi_endproc
 976              	.LFE21:
 977              		.size	UART_OSDP_PutArray, .-UART_OSDP_PutArray
 978              		.section	.text.UART_OSDP_PutCRLF,"ax",%progbits
 979              		.align	1
 980              		.global	UART_OSDP_PutCRLF
 981              		.thumb
 982              		.thumb_func
 983              		.type	UART_OSDP_PutCRLF, %function
 984              	UART_OSDP_PutCRLF:
 985              	.LFB22:
1202:.\Generated_Source\PSoC5/UART_OSDP.c ****                 bufIndex++;
1203:.\Generated_Source\PSoC5/UART_OSDP.c ****             }
1204:.\Generated_Source\PSoC5/UART_OSDP.c ****         }
1205:.\Generated_Source\PSoC5/UART_OSDP.c ****     }
1206:.\Generated_Source\PSoC5/UART_OSDP.c **** 
1207:.\Generated_Source\PSoC5/UART_OSDP.c **** 
1208:.\Generated_Source\PSoC5/UART_OSDP.c ****     /*******************************************************************************
1209:.\Generated_Source\PSoC5/UART_OSDP.c ****     * Function Name: UART_OSDP_PutCRLF
1210:.\Generated_Source\PSoC5/UART_OSDP.c ****     ********************************************************************************
1211:.\Generated_Source\PSoC5/UART_OSDP.c ****     *
1212:.\Generated_Source\PSoC5/UART_OSDP.c ****     * Summary:
1213:.\Generated_Source\PSoC5/UART_OSDP.c ****     *  Writes a byte of data followed by a carriage return (0x0D) and line feed
ARM GAS  C:\Users\Yiquing\AppData\Local\Temp\ccvaGiH9.s 			page 40


1214:.\Generated_Source\PSoC5/UART_OSDP.c ****     *  (0x0A) to the transmit buffer.
1215:.\Generated_Source\PSoC5/UART_OSDP.c ****     *
1216:.\Generated_Source\PSoC5/UART_OSDP.c ****     * Parameters:
1217:.\Generated_Source\PSoC5/UART_OSDP.c ****     *  txDataByte: Data byte to transmit before the carriage return and line feed.
1218:.\Generated_Source\PSoC5/UART_OSDP.c ****     *
1219:.\Generated_Source\PSoC5/UART_OSDP.c ****     * Return:
1220:.\Generated_Source\PSoC5/UART_OSDP.c ****     *  None.
1221:.\Generated_Source\PSoC5/UART_OSDP.c ****     *
1222:.\Generated_Source\PSoC5/UART_OSDP.c ****     * Global Variables:
1223:.\Generated_Source\PSoC5/UART_OSDP.c ****     *  UART_OSDP_initVar - checked to identify that the component has been
1224:.\Generated_Source\PSoC5/UART_OSDP.c ****     *     initialized.
1225:.\Generated_Source\PSoC5/UART_OSDP.c ****     *
1226:.\Generated_Source\PSoC5/UART_OSDP.c ****     * Reentrant:
1227:.\Generated_Source\PSoC5/UART_OSDP.c ****     *  No.
1228:.\Generated_Source\PSoC5/UART_OSDP.c ****     *
1229:.\Generated_Source\PSoC5/UART_OSDP.c ****     *******************************************************************************/
1230:.\Generated_Source\PSoC5/UART_OSDP.c ****     void UART_OSDP_PutCRLF(uint8 txDataByte) 
1231:.\Generated_Source\PSoC5/UART_OSDP.c ****     {
 986              		.loc 1 1231 0
 987              		.cfi_startproc
 988              		@ args = 0, pretend = 0, frame = 0
 989              		@ frame_needed = 0, uses_anonymous_args = 0
 990              	.LVL58:
 991 0000 08B5     		push	{r3, lr}
 992              		.cfi_def_cfa_offset 8
 993              		.cfi_offset 3, -8
 994              		.cfi_offset 14, -4
1232:.\Generated_Source\PSoC5/UART_OSDP.c ****         /* If not Initialized then skip this function */
1233:.\Generated_Source\PSoC5/UART_OSDP.c ****         if(UART_OSDP_initVar != 0u)
 995              		.loc 1 1233 0
 996 0002 074B     		ldr	r3, .L111
 997 0004 5B78     		ldrb	r3, [r3, #1]	@ zero_extendqisi2
 998 0006 4BB1     		cbz	r3, .L109
1234:.\Generated_Source\PSoC5/UART_OSDP.c ****         {
1235:.\Generated_Source\PSoC5/UART_OSDP.c ****             UART_OSDP_PutChar(txDataByte);
 999              		.loc 1 1235 0
 1000 0008 FFF7FEFF 		bl	UART_OSDP_PutChar
 1001              	.LVL59:
1236:.\Generated_Source\PSoC5/UART_OSDP.c ****             UART_OSDP_PutChar(0x0Du);
 1002              		.loc 1 1236 0
 1003 000c 0D20     		movs	r0, #13
 1004 000e FFF7FEFF 		bl	UART_OSDP_PutChar
 1005              	.LVL60:
1237:.\Generated_Source\PSoC5/UART_OSDP.c ****             UART_OSDP_PutChar(0x0Au);
1238:.\Generated_Source\PSoC5/UART_OSDP.c ****         }
1239:.\Generated_Source\PSoC5/UART_OSDP.c ****     }
 1006              		.loc 1 1239 0
 1007 0012 BDE80840 		pop	{r3, lr}
1237:.\Generated_Source\PSoC5/UART_OSDP.c ****             UART_OSDP_PutChar(0x0Au);
 1008              		.loc 1 1237 0
 1009 0016 0A20     		movs	r0, #10
 1010 0018 FFF7FEBF 		b	UART_OSDP_PutChar
 1011              	.LVL61:
 1012              	.L109:
 1013 001c 08BD     		pop	{r3, pc}
 1014              	.L112:
 1015 001e 00BF     		.align	2
ARM GAS  C:\Users\Yiquing\AppData\Local\Temp\ccvaGiH9.s 			page 41


 1016              	.L111:
 1017 0020 00000000 		.word	.LANCHOR0
 1018              		.cfi_endproc
 1019              	.LFE22:
 1020              		.size	UART_OSDP_PutCRLF, .-UART_OSDP_PutCRLF
 1021              		.section	.text.UART_OSDP_GetTxBufferSize,"ax",%progbits
 1022              		.align	1
 1023              		.global	UART_OSDP_GetTxBufferSize
 1024              		.thumb
 1025              		.thumb_func
 1026              		.type	UART_OSDP_GetTxBufferSize, %function
 1027              	UART_OSDP_GetTxBufferSize:
 1028              	.LFB23:
1240:.\Generated_Source\PSoC5/UART_OSDP.c **** 
1241:.\Generated_Source\PSoC5/UART_OSDP.c **** 
1242:.\Generated_Source\PSoC5/UART_OSDP.c ****     /*******************************************************************************
1243:.\Generated_Source\PSoC5/UART_OSDP.c ****     * Function Name: UART_OSDP_GetTxBufferSize
1244:.\Generated_Source\PSoC5/UART_OSDP.c ****     ********************************************************************************
1245:.\Generated_Source\PSoC5/UART_OSDP.c ****     *
1246:.\Generated_Source\PSoC5/UART_OSDP.c ****     * Summary:
1247:.\Generated_Source\PSoC5/UART_OSDP.c ****     *  Returns the number of bytes in the TX buffer which are waiting to be 
1248:.\Generated_Source\PSoC5/UART_OSDP.c ****     *  transmitted.
1249:.\Generated_Source\PSoC5/UART_OSDP.c ****     *  * TX software buffer is disabled (TX Buffer Size parameter is equal to 4): 
1250:.\Generated_Source\PSoC5/UART_OSDP.c ****     *    returns 0 for empty TX FIFO, 1 for not full TX FIFO or 4 for full TX FIFO.
1251:.\Generated_Source\PSoC5/UART_OSDP.c ****     *  * TX software buffer is enabled: returns the number of bytes in the TX 
1252:.\Generated_Source\PSoC5/UART_OSDP.c ****     *    software buffer which are waiting to be transmitted. Bytes available in the
1253:.\Generated_Source\PSoC5/UART_OSDP.c ****     *    TX FIFO do not count.
1254:.\Generated_Source\PSoC5/UART_OSDP.c ****     *
1255:.\Generated_Source\PSoC5/UART_OSDP.c ****     * Parameters:
1256:.\Generated_Source\PSoC5/UART_OSDP.c ****     *  None.
1257:.\Generated_Source\PSoC5/UART_OSDP.c ****     *
1258:.\Generated_Source\PSoC5/UART_OSDP.c ****     * Return:
1259:.\Generated_Source\PSoC5/UART_OSDP.c ****     *  Number of bytes used in the TX buffer. Return value type depends on the TX 
1260:.\Generated_Source\PSoC5/UART_OSDP.c ****     *  Buffer Size parameter.
1261:.\Generated_Source\PSoC5/UART_OSDP.c ****     *
1262:.\Generated_Source\PSoC5/UART_OSDP.c ****     * Global Variables:
1263:.\Generated_Source\PSoC5/UART_OSDP.c ****     *  UART_OSDP_txBufferWrite - used to calculate left space.
1264:.\Generated_Source\PSoC5/UART_OSDP.c ****     *  UART_OSDP_txBufferRead - used to calculate left space.
1265:.\Generated_Source\PSoC5/UART_OSDP.c ****     *
1266:.\Generated_Source\PSoC5/UART_OSDP.c ****     * Reentrant:
1267:.\Generated_Source\PSoC5/UART_OSDP.c ****     *  No.
1268:.\Generated_Source\PSoC5/UART_OSDP.c ****     *
1269:.\Generated_Source\PSoC5/UART_OSDP.c ****     * Theory:
1270:.\Generated_Source\PSoC5/UART_OSDP.c ****     *  Allows the user to find out how full the TX Buffer is.
1271:.\Generated_Source\PSoC5/UART_OSDP.c ****     *
1272:.\Generated_Source\PSoC5/UART_OSDP.c ****     *******************************************************************************/
1273:.\Generated_Source\PSoC5/UART_OSDP.c ****     uint8 UART_OSDP_GetTxBufferSize(void)
1274:.\Generated_Source\PSoC5/UART_OSDP.c ****                                                             
1275:.\Generated_Source\PSoC5/UART_OSDP.c ****     {
 1029              		.loc 1 1275 0
 1030              		.cfi_startproc
 1031              		@ args = 0, pretend = 0, frame = 0
 1032              		@ frame_needed = 0, uses_anonymous_args = 0
 1033              		@ link register save eliminated.
1276:.\Generated_Source\PSoC5/UART_OSDP.c ****         uint8 size;
1277:.\Generated_Source\PSoC5/UART_OSDP.c **** 
1278:.\Generated_Source\PSoC5/UART_OSDP.c ****     #if (UART_OSDP_TX_INTERRUPT_ENABLED)
ARM GAS  C:\Users\Yiquing\AppData\Local\Temp\ccvaGiH9.s 			page 42


1279:.\Generated_Source\PSoC5/UART_OSDP.c **** 
1280:.\Generated_Source\PSoC5/UART_OSDP.c ****         /* Protect variables that could change on interrupt. */
1281:.\Generated_Source\PSoC5/UART_OSDP.c ****         UART_OSDP_DisableTxInt();
1282:.\Generated_Source\PSoC5/UART_OSDP.c **** 
1283:.\Generated_Source\PSoC5/UART_OSDP.c ****         if(UART_OSDP_txBufferRead == UART_OSDP_txBufferWrite)
1284:.\Generated_Source\PSoC5/UART_OSDP.c ****         {
1285:.\Generated_Source\PSoC5/UART_OSDP.c ****             size = 0u;
1286:.\Generated_Source\PSoC5/UART_OSDP.c ****         }
1287:.\Generated_Source\PSoC5/UART_OSDP.c ****         else if(UART_OSDP_txBufferRead < UART_OSDP_txBufferWrite)
1288:.\Generated_Source\PSoC5/UART_OSDP.c ****         {
1289:.\Generated_Source\PSoC5/UART_OSDP.c ****             size = (UART_OSDP_txBufferWrite - UART_OSDP_txBufferRead);
1290:.\Generated_Source\PSoC5/UART_OSDP.c ****         }
1291:.\Generated_Source\PSoC5/UART_OSDP.c ****         else
1292:.\Generated_Source\PSoC5/UART_OSDP.c ****         {
1293:.\Generated_Source\PSoC5/UART_OSDP.c ****             size = (UART_OSDP_TX_BUFFER_SIZE - UART_OSDP_txBufferRead) +
1294:.\Generated_Source\PSoC5/UART_OSDP.c ****                     UART_OSDP_txBufferWrite;
1295:.\Generated_Source\PSoC5/UART_OSDP.c ****         }
1296:.\Generated_Source\PSoC5/UART_OSDP.c **** 
1297:.\Generated_Source\PSoC5/UART_OSDP.c ****         UART_OSDP_EnableTxInt();
1298:.\Generated_Source\PSoC5/UART_OSDP.c **** 
1299:.\Generated_Source\PSoC5/UART_OSDP.c ****     #else
1300:.\Generated_Source\PSoC5/UART_OSDP.c **** 
1301:.\Generated_Source\PSoC5/UART_OSDP.c ****         size = UART_OSDP_TXSTATUS_REG;
 1034              		.loc 1 1301 0
 1035 0000 054B     		ldr	r3, .L116
 1036 0002 1878     		ldrb	r0, [r3]	@ zero_extendqisi2
 1037 0004 C0B2     		uxtb	r0, r0
 1038              	.LVL62:
1302:.\Generated_Source\PSoC5/UART_OSDP.c **** 
1303:.\Generated_Source\PSoC5/UART_OSDP.c ****         /* Is the fifo is full. */
1304:.\Generated_Source\PSoC5/UART_OSDP.c ****         if((size & UART_OSDP_TX_STS_FIFO_FULL) != 0u)
 1039              		.loc 1 1304 0
 1040 0006 8306     		lsls	r3, r0, #26
1305:.\Generated_Source\PSoC5/UART_OSDP.c ****         {
1306:.\Generated_Source\PSoC5/UART_OSDP.c ****             size = UART_OSDP_FIFO_LENGTH;
1307:.\Generated_Source\PSoC5/UART_OSDP.c ****         }
1308:.\Generated_Source\PSoC5/UART_OSDP.c ****         else if((size & UART_OSDP_TX_STS_FIFO_EMPTY) != 0u)
 1041              		.loc 1 1308 0
 1042 0008 5ABF     		itte	pl
 1043 000a 80F00200 		eorpl	r0, r0, #2
 1044              	.LVL63:
 1045 000e C0F34000 		ubfxpl	r0, r0, #1, #1
1306:.\Generated_Source\PSoC5/UART_OSDP.c ****             size = UART_OSDP_FIFO_LENGTH;
 1046              		.loc 1 1306 0
 1047 0012 0420     		movmi	r0, #4
 1048              	.LVL64:
1309:.\Generated_Source\PSoC5/UART_OSDP.c ****         {
1310:.\Generated_Source\PSoC5/UART_OSDP.c ****             size = 0u;
1311:.\Generated_Source\PSoC5/UART_OSDP.c ****         }
1312:.\Generated_Source\PSoC5/UART_OSDP.c ****         else
1313:.\Generated_Source\PSoC5/UART_OSDP.c ****         {
1314:.\Generated_Source\PSoC5/UART_OSDP.c ****             /* We only know there is data in the fifo. */
1315:.\Generated_Source\PSoC5/UART_OSDP.c ****             size = 1u;
1316:.\Generated_Source\PSoC5/UART_OSDP.c ****         }
1317:.\Generated_Source\PSoC5/UART_OSDP.c **** 
1318:.\Generated_Source\PSoC5/UART_OSDP.c ****     #endif /* (UART_OSDP_TX_INTERRUPT_ENABLED) */
1319:.\Generated_Source\PSoC5/UART_OSDP.c **** 
ARM GAS  C:\Users\Yiquing\AppData\Local\Temp\ccvaGiH9.s 			page 43


1320:.\Generated_Source\PSoC5/UART_OSDP.c ****     return(size);
1321:.\Generated_Source\PSoC5/UART_OSDP.c ****     }
 1049              		.loc 1 1321 0
 1050 0014 7047     		bx	lr
 1051              	.L117:
 1052 0016 00BF     		.align	2
 1053              	.L116:
 1054 0018 62640040 		.word	1073767522
 1055              		.cfi_endproc
 1056              	.LFE23:
 1057              		.size	UART_OSDP_GetTxBufferSize, .-UART_OSDP_GetTxBufferSize
 1058              		.section	.text.UART_OSDP_ClearTxBuffer,"ax",%progbits
 1059              		.align	1
 1060              		.global	UART_OSDP_ClearTxBuffer
 1061              		.thumb
 1062              		.thumb_func
 1063              		.type	UART_OSDP_ClearTxBuffer, %function
 1064              	UART_OSDP_ClearTxBuffer:
 1065              	.LFB24:
1322:.\Generated_Source\PSoC5/UART_OSDP.c **** 
1323:.\Generated_Source\PSoC5/UART_OSDP.c **** 
1324:.\Generated_Source\PSoC5/UART_OSDP.c ****     /*******************************************************************************
1325:.\Generated_Source\PSoC5/UART_OSDP.c ****     * Function Name: UART_OSDP_ClearTxBuffer
1326:.\Generated_Source\PSoC5/UART_OSDP.c ****     ********************************************************************************
1327:.\Generated_Source\PSoC5/UART_OSDP.c ****     *
1328:.\Generated_Source\PSoC5/UART_OSDP.c ****     * Summary:
1329:.\Generated_Source\PSoC5/UART_OSDP.c ****     *  Clears all data from the TX buffer and hardware TX FIFO.
1330:.\Generated_Source\PSoC5/UART_OSDP.c ****     *
1331:.\Generated_Source\PSoC5/UART_OSDP.c ****     * Parameters:
1332:.\Generated_Source\PSoC5/UART_OSDP.c ****     *  None.
1333:.\Generated_Source\PSoC5/UART_OSDP.c ****     *
1334:.\Generated_Source\PSoC5/UART_OSDP.c ****     * Return:
1335:.\Generated_Source\PSoC5/UART_OSDP.c ****     *  None.
1336:.\Generated_Source\PSoC5/UART_OSDP.c ****     *
1337:.\Generated_Source\PSoC5/UART_OSDP.c ****     * Global Variables:
1338:.\Generated_Source\PSoC5/UART_OSDP.c ****     *  UART_OSDP_txBufferWrite - cleared to zero.
1339:.\Generated_Source\PSoC5/UART_OSDP.c ****     *  UART_OSDP_txBufferRead - cleared to zero.
1340:.\Generated_Source\PSoC5/UART_OSDP.c ****     *
1341:.\Generated_Source\PSoC5/UART_OSDP.c ****     * Reentrant:
1342:.\Generated_Source\PSoC5/UART_OSDP.c ****     *  No.
1343:.\Generated_Source\PSoC5/UART_OSDP.c ****     *
1344:.\Generated_Source\PSoC5/UART_OSDP.c ****     * Theory:
1345:.\Generated_Source\PSoC5/UART_OSDP.c ****     *  Setting the pointers to zero makes the system believe there is no data to
1346:.\Generated_Source\PSoC5/UART_OSDP.c ****     *  read and writing will resume at address 0 overwriting any data that may have
1347:.\Generated_Source\PSoC5/UART_OSDP.c ****     *  remained in the RAM.
1348:.\Generated_Source\PSoC5/UART_OSDP.c ****     *
1349:.\Generated_Source\PSoC5/UART_OSDP.c ****     * Side Effects:
1350:.\Generated_Source\PSoC5/UART_OSDP.c ****     *  Data waiting in the transmit buffer is not sent; a byte that is currently
1351:.\Generated_Source\PSoC5/UART_OSDP.c ****     *  transmitting finishes transmitting.
1352:.\Generated_Source\PSoC5/UART_OSDP.c ****     *
1353:.\Generated_Source\PSoC5/UART_OSDP.c ****     *******************************************************************************/
1354:.\Generated_Source\PSoC5/UART_OSDP.c ****     void UART_OSDP_ClearTxBuffer(void) 
1355:.\Generated_Source\PSoC5/UART_OSDP.c ****     {
 1066              		.loc 1 1355 0
 1067              		.cfi_startproc
 1068              		@ args = 0, pretend = 0, frame = 0
 1069              		@ frame_needed = 0, uses_anonymous_args = 0
ARM GAS  C:\Users\Yiquing\AppData\Local\Temp\ccvaGiH9.s 			page 44


 1070 0000 08B5     		push	{r3, lr}
 1071              		.cfi_def_cfa_offset 8
 1072              		.cfi_offset 3, -8
 1073              		.cfi_offset 14, -4
1356:.\Generated_Source\PSoC5/UART_OSDP.c ****         uint8 enableInterrupts;
1357:.\Generated_Source\PSoC5/UART_OSDP.c **** 
1358:.\Generated_Source\PSoC5/UART_OSDP.c ****         enableInterrupts = CyEnterCriticalSection();
 1074              		.loc 1 1358 0
 1075 0002 FFF7FEFF 		bl	CyEnterCriticalSection
 1076              	.LVL65:
1359:.\Generated_Source\PSoC5/UART_OSDP.c ****         /* Clear the HW FIFO */
1360:.\Generated_Source\PSoC5/UART_OSDP.c ****         UART_OSDP_TXDATA_AUX_CTL_REG |= (uint8)  UART_OSDP_TX_FIFO_CLR;
 1077              		.loc 1 1360 0
 1078 0006 064B     		ldr	r3, .L119
 1079 0008 1A78     		ldrb	r2, [r3]	@ zero_extendqisi2
 1080 000a 42F00202 		orr	r2, r2, #2
 1081 000e 1A70     		strb	r2, [r3]
1361:.\Generated_Source\PSoC5/UART_OSDP.c ****         UART_OSDP_TXDATA_AUX_CTL_REG &= (uint8) ~UART_OSDP_TX_FIFO_CLR;
 1082              		.loc 1 1361 0
 1083 0010 1A78     		ldrb	r2, [r3]	@ zero_extendqisi2
 1084 0012 02F0FD02 		and	r2, r2, #253
 1085 0016 1A70     		strb	r2, [r3]
1362:.\Generated_Source\PSoC5/UART_OSDP.c ****         CyExitCriticalSection(enableInterrupts);
1363:.\Generated_Source\PSoC5/UART_OSDP.c **** 
1364:.\Generated_Source\PSoC5/UART_OSDP.c ****     #if (UART_OSDP_TX_INTERRUPT_ENABLED)
1365:.\Generated_Source\PSoC5/UART_OSDP.c **** 
1366:.\Generated_Source\PSoC5/UART_OSDP.c ****         /* Protect variables that could change on interrupt. */
1367:.\Generated_Source\PSoC5/UART_OSDP.c ****         UART_OSDP_DisableTxInt();
1368:.\Generated_Source\PSoC5/UART_OSDP.c **** 
1369:.\Generated_Source\PSoC5/UART_OSDP.c ****         UART_OSDP_txBufferRead = 0u;
1370:.\Generated_Source\PSoC5/UART_OSDP.c ****         UART_OSDP_txBufferWrite = 0u;
1371:.\Generated_Source\PSoC5/UART_OSDP.c **** 
1372:.\Generated_Source\PSoC5/UART_OSDP.c ****         /* Enable Tx interrupt. */
1373:.\Generated_Source\PSoC5/UART_OSDP.c ****         UART_OSDP_EnableTxInt();
1374:.\Generated_Source\PSoC5/UART_OSDP.c **** 
1375:.\Generated_Source\PSoC5/UART_OSDP.c ****     #endif /* (UART_OSDP_TX_INTERRUPT_ENABLED) */
1376:.\Generated_Source\PSoC5/UART_OSDP.c ****     }
 1086              		.loc 1 1376 0
 1087 0018 BDE80840 		pop	{r3, lr}
1362:.\Generated_Source\PSoC5/UART_OSDP.c ****         CyExitCriticalSection(enableInterrupts);
 1088              		.loc 1 1362 0
 1089 001c FFF7FEBF 		b	CyExitCriticalSection
 1090              	.LVL66:
 1091              	.L120:
 1092              		.align	2
 1093              	.L119:
 1094 0020 96650040 		.word	1073767830
 1095              		.cfi_endproc
 1096              	.LFE24:
 1097              		.size	UART_OSDP_ClearTxBuffer, .-UART_OSDP_ClearTxBuffer
 1098              		.section	.text.UART_OSDP_SendBreak,"ax",%progbits
 1099              		.align	1
 1100              		.global	UART_OSDP_SendBreak
 1101              		.thumb
 1102              		.thumb_func
 1103              		.type	UART_OSDP_SendBreak, %function
 1104              	UART_OSDP_SendBreak:
ARM GAS  C:\Users\Yiquing\AppData\Local\Temp\ccvaGiH9.s 			page 45


 1105              	.LFB25:
1377:.\Generated_Source\PSoC5/UART_OSDP.c **** 
1378:.\Generated_Source\PSoC5/UART_OSDP.c **** 
1379:.\Generated_Source\PSoC5/UART_OSDP.c ****     /*******************************************************************************
1380:.\Generated_Source\PSoC5/UART_OSDP.c ****     * Function Name: UART_OSDP_SendBreak
1381:.\Generated_Source\PSoC5/UART_OSDP.c ****     ********************************************************************************
1382:.\Generated_Source\PSoC5/UART_OSDP.c ****     *
1383:.\Generated_Source\PSoC5/UART_OSDP.c ****     * Summary:
1384:.\Generated_Source\PSoC5/UART_OSDP.c ****     *  Transmits a break signal on the bus.
1385:.\Generated_Source\PSoC5/UART_OSDP.c ****     *
1386:.\Generated_Source\PSoC5/UART_OSDP.c ****     * Parameters:
1387:.\Generated_Source\PSoC5/UART_OSDP.c ****     *  uint8 retMode:  Send Break return mode. See the following table for options.
1388:.\Generated_Source\PSoC5/UART_OSDP.c ****     *   UART_OSDP_SEND_BREAK - Initialize registers for break, send the Break
1389:.\Generated_Source\PSoC5/UART_OSDP.c ****     *       signal and return immediately.
1390:.\Generated_Source\PSoC5/UART_OSDP.c ****     *   UART_OSDP_WAIT_FOR_COMPLETE_REINIT - Wait until break transmission is
1391:.\Generated_Source\PSoC5/UART_OSDP.c ****     *       complete, reinitialize registers to normal transmission mode then return
1392:.\Generated_Source\PSoC5/UART_OSDP.c ****     *   UART_OSDP_REINIT - Reinitialize registers to normal transmission mode
1393:.\Generated_Source\PSoC5/UART_OSDP.c ****     *       then return.
1394:.\Generated_Source\PSoC5/UART_OSDP.c ****     *   UART_OSDP_SEND_WAIT_REINIT - Performs both options: 
1395:.\Generated_Source\PSoC5/UART_OSDP.c ****     *      UART_OSDP_SEND_BREAK and UART_OSDP_WAIT_FOR_COMPLETE_REINIT.
1396:.\Generated_Source\PSoC5/UART_OSDP.c ****     *      This option is recommended for most cases.
1397:.\Generated_Source\PSoC5/UART_OSDP.c ****     *
1398:.\Generated_Source\PSoC5/UART_OSDP.c ****     * Return:
1399:.\Generated_Source\PSoC5/UART_OSDP.c ****     *  None.
1400:.\Generated_Source\PSoC5/UART_OSDP.c ****     *
1401:.\Generated_Source\PSoC5/UART_OSDP.c ****     * Global Variables:
1402:.\Generated_Source\PSoC5/UART_OSDP.c ****     *  UART_OSDP_initVar - checked to identify that the component has been
1403:.\Generated_Source\PSoC5/UART_OSDP.c ****     *     initialized.
1404:.\Generated_Source\PSoC5/UART_OSDP.c ****     *  txPeriod - static variable, used for keeping TX period configuration.
1405:.\Generated_Source\PSoC5/UART_OSDP.c ****     *
1406:.\Generated_Source\PSoC5/UART_OSDP.c ****     * Reentrant:
1407:.\Generated_Source\PSoC5/UART_OSDP.c ****     *  No.
1408:.\Generated_Source\PSoC5/UART_OSDP.c ****     *
1409:.\Generated_Source\PSoC5/UART_OSDP.c ****     * Theory:
1410:.\Generated_Source\PSoC5/UART_OSDP.c ****     *  SendBreak function initializes registers to send 13-bit break signal. It is
1411:.\Generated_Source\PSoC5/UART_OSDP.c ****     *  important to return the registers configuration to normal for continue 8-bit
1412:.\Generated_Source\PSoC5/UART_OSDP.c ****     *  operation.
1413:.\Generated_Source\PSoC5/UART_OSDP.c ****     *  There are 3 variants for this API usage:
1414:.\Generated_Source\PSoC5/UART_OSDP.c ****     *  1) SendBreak(3) - function will send the Break signal and take care on the
1415:.\Generated_Source\PSoC5/UART_OSDP.c ****     *     configuration returning. Function will block CPU until transmission
1416:.\Generated_Source\PSoC5/UART_OSDP.c ****     *     complete.
1417:.\Generated_Source\PSoC5/UART_OSDP.c ****     *  2) User may want to use blocking time if UART configured to the low speed
1418:.\Generated_Source\PSoC5/UART_OSDP.c ****     *     operation
1419:.\Generated_Source\PSoC5/UART_OSDP.c ****     *     Example for this case:
1420:.\Generated_Source\PSoC5/UART_OSDP.c ****     *     SendBreak(0);     - initialize Break signal transmission
1421:.\Generated_Source\PSoC5/UART_OSDP.c ****     *         Add your code here to use CPU time
1422:.\Generated_Source\PSoC5/UART_OSDP.c ****     *     SendBreak(1);     - complete Break operation
1423:.\Generated_Source\PSoC5/UART_OSDP.c ****     *  3) Same to 2) but user may want to initialize and use the interrupt to
1424:.\Generated_Source\PSoC5/UART_OSDP.c ****     *     complete break operation.
1425:.\Generated_Source\PSoC5/UART_OSDP.c ****     *     Example for this case:
1426:.\Generated_Source\PSoC5/UART_OSDP.c ****     *     Initialize TX interrupt with "TX - On TX Complete" parameter
1427:.\Generated_Source\PSoC5/UART_OSDP.c ****     *     SendBreak(0);     - initialize Break signal transmission
1428:.\Generated_Source\PSoC5/UART_OSDP.c ****     *         Add your code here to use CPU time
1429:.\Generated_Source\PSoC5/UART_OSDP.c ****     *     When interrupt appear with UART_OSDP_TX_STS_COMPLETE status:
1430:.\Generated_Source\PSoC5/UART_OSDP.c ****     *     SendBreak(2);     - complete Break operation
1431:.\Generated_Source\PSoC5/UART_OSDP.c ****     *
1432:.\Generated_Source\PSoC5/UART_OSDP.c ****     * Side Effects:
ARM GAS  C:\Users\Yiquing\AppData\Local\Temp\ccvaGiH9.s 			page 46


1433:.\Generated_Source\PSoC5/UART_OSDP.c ****     *  The UART_OSDP_SendBreak() function initializes registers to send a
1434:.\Generated_Source\PSoC5/UART_OSDP.c ****     *  break signal.
1435:.\Generated_Source\PSoC5/UART_OSDP.c ****     *  Break signal length depends on the break signal bits configuration.
1436:.\Generated_Source\PSoC5/UART_OSDP.c ****     *  The register configuration should be reinitialized before normal 8-bit
1437:.\Generated_Source\PSoC5/UART_OSDP.c ****     *  communication can continue.
1438:.\Generated_Source\PSoC5/UART_OSDP.c ****     *
1439:.\Generated_Source\PSoC5/UART_OSDP.c ****     *******************************************************************************/
1440:.\Generated_Source\PSoC5/UART_OSDP.c ****     void UART_OSDP_SendBreak(uint8 retMode) 
1441:.\Generated_Source\PSoC5/UART_OSDP.c ****     {
 1106              		.loc 1 1441 0
 1107              		.cfi_startproc
 1108              		@ args = 0, pretend = 0, frame = 0
 1109              		@ frame_needed = 0, uses_anonymous_args = 0
 1110              		@ link register save eliminated.
 1111              	.LVL67:
1442:.\Generated_Source\PSoC5/UART_OSDP.c **** 
1443:.\Generated_Source\PSoC5/UART_OSDP.c ****         /* If not Initialized then skip this function*/
1444:.\Generated_Source\PSoC5/UART_OSDP.c ****         if(UART_OSDP_initVar != 0u)
 1112              		.loc 1 1444 0
 1113 0000 134B     		ldr	r3, .L146
 1114 0002 5B78     		ldrb	r3, [r3, #1]	@ zero_extendqisi2
 1115 0004 1BB3     		cbz	r3, .L121
 1116              	.LBB31:
1445:.\Generated_Source\PSoC5/UART_OSDP.c ****         {
1446:.\Generated_Source\PSoC5/UART_OSDP.c ****             /* Set the Counter to 13-bits and transmit a 00 byte */
1447:.\Generated_Source\PSoC5/UART_OSDP.c ****             /* When that is done then reset the counter value back */
1448:.\Generated_Source\PSoC5/UART_OSDP.c ****             uint8 tmpStat;
1449:.\Generated_Source\PSoC5/UART_OSDP.c **** 
1450:.\Generated_Source\PSoC5/UART_OSDP.c ****         #if(UART_OSDP_HD_ENABLED) /* Half Duplex mode*/
1451:.\Generated_Source\PSoC5/UART_OSDP.c **** 
1452:.\Generated_Source\PSoC5/UART_OSDP.c ****             if( (retMode == UART_OSDP_SEND_BREAK) ||
 1117              		.loc 1 1452 0
 1118 0006 08B1     		cbz	r0, .L124
 1119              		.loc 1 1452 0 is_stmt 0 discriminator 1
 1120 0008 0328     		cmp	r0, #3
 1121 000a 1ED1     		bne	.L125
 1122              	.L124:
 1123              	.LBB32:
 1124              	.LBB33:
 300:.\Generated_Source\PSoC5/UART_OSDP.c ****         return(UART_OSDP_CONTROL_REG);
 1125              		.loc 1 300 0 is_stmt 1
 1126 000c 114B     		ldr	r3, .L146+4
 1127 000e 1A78     		ldrb	r2, [r3]	@ zero_extendqisi2
 1128              	.LBE33:
 1129              	.LBE32:
1453:.\Generated_Source\PSoC5/UART_OSDP.c ****                 (retMode == UART_OSDP_SEND_WAIT_REINIT ) )
1454:.\Generated_Source\PSoC5/UART_OSDP.c ****             {
1455:.\Generated_Source\PSoC5/UART_OSDP.c ****                 /* CTRL_HD_SEND_BREAK - sends break bits in HD mode */
1456:.\Generated_Source\PSoC5/UART_OSDP.c ****                 UART_OSDP_WriteControlRegister(UART_OSDP_ReadControlRegister() |
 1130              		.loc 1 1456 0
 1131 0010 42F00202 		orr	r2, r2, #2
 1132              	.LVL68:
 1133              	.LBB34:
 1134              	.LBB35:
 327:.\Generated_Source\PSoC5/UART_OSDP.c ****        UART_OSDP_CONTROL_REG = control;
 1135              		.loc 1 327 0
 1136 0014 1A70     		strb	r2, [r3]
ARM GAS  C:\Users\Yiquing\AppData\Local\Temp\ccvaGiH9.s 			page 47


 1137              	.LBE35:
 1138              	.LBE34:
1457:.\Generated_Source\PSoC5/UART_OSDP.c ****                                                       UART_OSDP_CTRL_HD_SEND_BREAK);
1458:.\Generated_Source\PSoC5/UART_OSDP.c ****                 /* Send zeros */
1459:.\Generated_Source\PSoC5/UART_OSDP.c ****                 UART_OSDP_TXDATA_REG = 0u;
 1139              		.loc 1 1459 0
 1140 0016 0022     		movs	r2, #0
 1141              	.LVL69:
 1142 0018 03F81F2C 		strb	r2, [r3, #-31]
 1143              	.L127:
1460:.\Generated_Source\PSoC5/UART_OSDP.c **** 
1461:.\Generated_Source\PSoC5/UART_OSDP.c ****                 do /* Wait until transmit starts */
1462:.\Generated_Source\PSoC5/UART_OSDP.c ****                 {
1463:.\Generated_Source\PSoC5/UART_OSDP.c ****                     tmpStat = UART_OSDP_TXSTATUS_REG;
 1144              		.loc 1 1463 0 discriminator 1
 1145 001c 0E4B     		ldr	r3, .L146+8
 1146 001e 1B78     		ldrb	r3, [r3]	@ zero_extendqisi2
 1147              	.LVL70:
1464:.\Generated_Source\PSoC5/UART_OSDP.c ****                 }
1465:.\Generated_Source\PSoC5/UART_OSDP.c ****                 while((tmpStat & UART_OSDP_TX_STS_FIFO_EMPTY) != 0u);
 1148              		.loc 1 1465 0 discriminator 1
 1149 0020 9A07     		lsls	r2, r3, #30
 1150 0022 FBD4     		bmi	.L127
1466:.\Generated_Source\PSoC5/UART_OSDP.c ****             }
1467:.\Generated_Source\PSoC5/UART_OSDP.c **** 
1468:.\Generated_Source\PSoC5/UART_OSDP.c ****             if( (retMode == UART_OSDP_WAIT_FOR_COMPLETE_REINIT) ||
 1151              		.loc 1 1468 0
 1152 0024 00F0FD03 		and	r3, r0, #253
 1153              	.LVL71:
 1154 0028 012B     		cmp	r3, #1
 1155              	.L145:
 1156 002a 03D0     		beq	.L132
 1157              	.L131:
1469:.\Generated_Source\PSoC5/UART_OSDP.c ****                 (retMode == UART_OSDP_SEND_WAIT_REINIT) )
1470:.\Generated_Source\PSoC5/UART_OSDP.c ****             {
1471:.\Generated_Source\PSoC5/UART_OSDP.c ****                 do /* Wait until transmit complete */
1472:.\Generated_Source\PSoC5/UART_OSDP.c ****                 {
1473:.\Generated_Source\PSoC5/UART_OSDP.c ****                     tmpStat = UART_OSDP_TXSTATUS_REG;
1474:.\Generated_Source\PSoC5/UART_OSDP.c ****                 }
1475:.\Generated_Source\PSoC5/UART_OSDP.c ****                 while(((uint8)~tmpStat & UART_OSDP_TX_STS_COMPLETE) != 0u);
1476:.\Generated_Source\PSoC5/UART_OSDP.c ****             }
1477:.\Generated_Source\PSoC5/UART_OSDP.c **** 
1478:.\Generated_Source\PSoC5/UART_OSDP.c ****             if( (retMode == UART_OSDP_WAIT_FOR_COMPLETE_REINIT) ||
 1158              		.loc 1 1478 0
 1159 002c 0138     		subs	r0, r0, #1
 1160              	.LVL72:
 1161 002e 0228     		cmp	r0, #2
 1162 0030 05D9     		bls	.L129
 1163 0032 7047     		bx	lr
 1164              	.LVL73:
 1165              	.L132:
1473:.\Generated_Source\PSoC5/UART_OSDP.c ****                     tmpStat = UART_OSDP_TXSTATUS_REG;
 1166              		.loc 1 1473 0 discriminator 1
 1167 0034 084B     		ldr	r3, .L146+8
 1168 0036 1B78     		ldrb	r3, [r3]	@ zero_extendqisi2
 1169              	.LVL74:
1475:.\Generated_Source\PSoC5/UART_OSDP.c ****                 while(((uint8)~tmpStat & UART_OSDP_TX_STS_COMPLETE) != 0u);
ARM GAS  C:\Users\Yiquing\AppData\Local\Temp\ccvaGiH9.s 			page 48


 1170              		.loc 1 1475 0 discriminator 1
 1171 0038 DB07     		lsls	r3, r3, #31
 1172              	.LVL75:
 1173 003a FBD5     		bpl	.L132
 1174 003c F6E7     		b	.L131
 1175              	.LVL76:
 1176              	.L129:
 1177              	.LBB36:
 1178              	.LBB37:
 300:.\Generated_Source\PSoC5/UART_OSDP.c ****         return(UART_OSDP_CONTROL_REG);
 1179              		.loc 1 300 0
 1180 003e 054B     		ldr	r3, .L146+4
 1181 0040 1A78     		ldrb	r2, [r3]	@ zero_extendqisi2
 1182              	.LBE37:
 1183              	.LBE36:
1479:.\Generated_Source\PSoC5/UART_OSDP.c ****                 (retMode == UART_OSDP_REINIT) ||
1480:.\Generated_Source\PSoC5/UART_OSDP.c ****                 (retMode == UART_OSDP_SEND_WAIT_REINIT) )
1481:.\Generated_Source\PSoC5/UART_OSDP.c ****             {
1482:.\Generated_Source\PSoC5/UART_OSDP.c ****                 UART_OSDP_WriteControlRegister(UART_OSDP_ReadControlRegister() &
 1184              		.loc 1 1482 0
 1185 0042 02F0FD02 		and	r2, r2, #253
 1186              	.LVL77:
 1187              	.LBB38:
 1188              	.LBB39:
 327:.\Generated_Source\PSoC5/UART_OSDP.c ****        UART_OSDP_CONTROL_REG = control;
 1189              		.loc 1 327 0
 1190 0046 1A70     		strb	r2, [r3]
 1191 0048 7047     		bx	lr
 1192              	.LVL78:
 1193              	.L125:
 1194              	.LBE39:
 1195              	.LBE38:
1468:.\Generated_Source\PSoC5/UART_OSDP.c ****             if( (retMode == UART_OSDP_WAIT_FOR_COMPLETE_REINIT) ||
 1196              		.loc 1 1468 0
 1197 004a 0128     		cmp	r0, #1
 1198 004c EDE7     		b	.L145
 1199              	.L121:
 1200 004e 7047     		bx	lr
 1201              	.L147:
 1202              		.align	2
 1203              	.L146:
 1204 0050 00000000 		.word	.LANCHOR0
 1205 0054 75650040 		.word	1073767797
 1206 0058 62640040 		.word	1073767522
 1207              	.LBE31:
 1208              		.cfi_endproc
 1209              	.LFE25:
 1210              		.size	UART_OSDP_SendBreak, .-UART_OSDP_SendBreak
 1211              		.section	.text.UART_OSDP_SetTxAddressMode,"ax",%progbits
 1212              		.align	1
 1213              		.global	UART_OSDP_SetTxAddressMode
 1214              		.thumb
 1215              		.thumb_func
 1216              		.type	UART_OSDP_SetTxAddressMode, %function
 1217              	UART_OSDP_SetTxAddressMode:
 1218              	.LFB26:
1483:.\Generated_Source\PSoC5/UART_OSDP.c ****                                               (uint8)~UART_OSDP_CTRL_HD_SEND_BREAK);
ARM GAS  C:\Users\Yiquing\AppData\Local\Temp\ccvaGiH9.s 			page 49


1484:.\Generated_Source\PSoC5/UART_OSDP.c ****             }
1485:.\Generated_Source\PSoC5/UART_OSDP.c **** 
1486:.\Generated_Source\PSoC5/UART_OSDP.c ****         #else /* UART_OSDP_HD_ENABLED Full Duplex mode */
1487:.\Generated_Source\PSoC5/UART_OSDP.c **** 
1488:.\Generated_Source\PSoC5/UART_OSDP.c ****             static uint8 txPeriod;
1489:.\Generated_Source\PSoC5/UART_OSDP.c **** 
1490:.\Generated_Source\PSoC5/UART_OSDP.c ****             if( (retMode == UART_OSDP_SEND_BREAK) ||
1491:.\Generated_Source\PSoC5/UART_OSDP.c ****                 (retMode == UART_OSDP_SEND_WAIT_REINIT) )
1492:.\Generated_Source\PSoC5/UART_OSDP.c ****             {
1493:.\Generated_Source\PSoC5/UART_OSDP.c ****                 /* CTRL_HD_SEND_BREAK - skip to send parity bit at Break signal in Full Duplex mode
1494:.\Generated_Source\PSoC5/UART_OSDP.c ****                 #if( (UART_OSDP_PARITY_TYPE != UART_OSDP__B_UART__NONE_REVB) || \
1495:.\Generated_Source\PSoC5/UART_OSDP.c ****                                     (UART_OSDP_PARITY_TYPE_SW != 0u) )
1496:.\Generated_Source\PSoC5/UART_OSDP.c ****                     UART_OSDP_WriteControlRegister(UART_OSDP_ReadControlRegister() |
1497:.\Generated_Source\PSoC5/UART_OSDP.c ****                                                           UART_OSDP_CTRL_HD_SEND_BREAK);
1498:.\Generated_Source\PSoC5/UART_OSDP.c ****                 #endif /* End UART_OSDP_PARITY_TYPE != UART_OSDP__B_UART__NONE_REVB  */
1499:.\Generated_Source\PSoC5/UART_OSDP.c **** 
1500:.\Generated_Source\PSoC5/UART_OSDP.c ****                 #if(UART_OSDP_TXCLKGEN_DP)
1501:.\Generated_Source\PSoC5/UART_OSDP.c ****                     txPeriod = UART_OSDP_TXBITCLKTX_COMPLETE_REG;
1502:.\Generated_Source\PSoC5/UART_OSDP.c ****                     UART_OSDP_TXBITCLKTX_COMPLETE_REG = UART_OSDP_TXBITCTR_BREAKBITS;
1503:.\Generated_Source\PSoC5/UART_OSDP.c ****                 #else
1504:.\Generated_Source\PSoC5/UART_OSDP.c ****                     txPeriod = UART_OSDP_TXBITCTR_PERIOD_REG;
1505:.\Generated_Source\PSoC5/UART_OSDP.c ****                     UART_OSDP_TXBITCTR_PERIOD_REG = UART_OSDP_TXBITCTR_BREAKBITS8X;
1506:.\Generated_Source\PSoC5/UART_OSDP.c ****                 #endif /* End UART_OSDP_TXCLKGEN_DP */
1507:.\Generated_Source\PSoC5/UART_OSDP.c **** 
1508:.\Generated_Source\PSoC5/UART_OSDP.c ****                 /* Send zeros */
1509:.\Generated_Source\PSoC5/UART_OSDP.c ****                 UART_OSDP_TXDATA_REG = 0u;
1510:.\Generated_Source\PSoC5/UART_OSDP.c **** 
1511:.\Generated_Source\PSoC5/UART_OSDP.c ****                 do /* Wait until transmit starts */
1512:.\Generated_Source\PSoC5/UART_OSDP.c ****                 {
1513:.\Generated_Source\PSoC5/UART_OSDP.c ****                     tmpStat = UART_OSDP_TXSTATUS_REG;
1514:.\Generated_Source\PSoC5/UART_OSDP.c ****                 }
1515:.\Generated_Source\PSoC5/UART_OSDP.c ****                 while((tmpStat & UART_OSDP_TX_STS_FIFO_EMPTY) != 0u);
1516:.\Generated_Source\PSoC5/UART_OSDP.c ****             }
1517:.\Generated_Source\PSoC5/UART_OSDP.c **** 
1518:.\Generated_Source\PSoC5/UART_OSDP.c ****             if( (retMode == UART_OSDP_WAIT_FOR_COMPLETE_REINIT) ||
1519:.\Generated_Source\PSoC5/UART_OSDP.c ****                 (retMode == UART_OSDP_SEND_WAIT_REINIT) )
1520:.\Generated_Source\PSoC5/UART_OSDP.c ****             {
1521:.\Generated_Source\PSoC5/UART_OSDP.c ****                 do /* Wait until transmit complete */
1522:.\Generated_Source\PSoC5/UART_OSDP.c ****                 {
1523:.\Generated_Source\PSoC5/UART_OSDP.c ****                     tmpStat = UART_OSDP_TXSTATUS_REG;
1524:.\Generated_Source\PSoC5/UART_OSDP.c ****                 }
1525:.\Generated_Source\PSoC5/UART_OSDP.c ****                 while(((uint8)~tmpStat & UART_OSDP_TX_STS_COMPLETE) != 0u);
1526:.\Generated_Source\PSoC5/UART_OSDP.c ****             }
1527:.\Generated_Source\PSoC5/UART_OSDP.c **** 
1528:.\Generated_Source\PSoC5/UART_OSDP.c ****             if( (retMode == UART_OSDP_WAIT_FOR_COMPLETE_REINIT) ||
1529:.\Generated_Source\PSoC5/UART_OSDP.c ****                 (retMode == UART_OSDP_REINIT) ||
1530:.\Generated_Source\PSoC5/UART_OSDP.c ****                 (retMode == UART_OSDP_SEND_WAIT_REINIT) )
1531:.\Generated_Source\PSoC5/UART_OSDP.c ****             {
1532:.\Generated_Source\PSoC5/UART_OSDP.c **** 
1533:.\Generated_Source\PSoC5/UART_OSDP.c ****             #if(UART_OSDP_TXCLKGEN_DP)
1534:.\Generated_Source\PSoC5/UART_OSDP.c ****                 UART_OSDP_TXBITCLKTX_COMPLETE_REG = txPeriod;
1535:.\Generated_Source\PSoC5/UART_OSDP.c ****             #else
1536:.\Generated_Source\PSoC5/UART_OSDP.c ****                 UART_OSDP_TXBITCTR_PERIOD_REG = txPeriod;
1537:.\Generated_Source\PSoC5/UART_OSDP.c ****             #endif /* End UART_OSDP_TXCLKGEN_DP */
1538:.\Generated_Source\PSoC5/UART_OSDP.c **** 
1539:.\Generated_Source\PSoC5/UART_OSDP.c ****             #if( (UART_OSDP_PARITY_TYPE != UART_OSDP__B_UART__NONE_REVB) || \
1540:.\Generated_Source\PSoC5/UART_OSDP.c ****                  (UART_OSDP_PARITY_TYPE_SW != 0u) )
ARM GAS  C:\Users\Yiquing\AppData\Local\Temp\ccvaGiH9.s 			page 50


1541:.\Generated_Source\PSoC5/UART_OSDP.c ****                 UART_OSDP_WriteControlRegister(UART_OSDP_ReadControlRegister() &
1542:.\Generated_Source\PSoC5/UART_OSDP.c ****                                                       (uint8) ~UART_OSDP_CTRL_HD_SEND_BREAK);
1543:.\Generated_Source\PSoC5/UART_OSDP.c ****             #endif /* End UART_OSDP_PARITY_TYPE != NONE */
1544:.\Generated_Source\PSoC5/UART_OSDP.c ****             }
1545:.\Generated_Source\PSoC5/UART_OSDP.c ****         #endif    /* End UART_OSDP_HD_ENABLED */
1546:.\Generated_Source\PSoC5/UART_OSDP.c ****         }
1547:.\Generated_Source\PSoC5/UART_OSDP.c ****     }
1548:.\Generated_Source\PSoC5/UART_OSDP.c **** 
1549:.\Generated_Source\PSoC5/UART_OSDP.c **** 
1550:.\Generated_Source\PSoC5/UART_OSDP.c ****     /*******************************************************************************
1551:.\Generated_Source\PSoC5/UART_OSDP.c ****     * Function Name: UART_OSDP_SetTxAddressMode
1552:.\Generated_Source\PSoC5/UART_OSDP.c ****     ********************************************************************************
1553:.\Generated_Source\PSoC5/UART_OSDP.c ****     *
1554:.\Generated_Source\PSoC5/UART_OSDP.c ****     * Summary:
1555:.\Generated_Source\PSoC5/UART_OSDP.c ****     *  Configures the transmitter to signal the next bytes is address or data.
1556:.\Generated_Source\PSoC5/UART_OSDP.c ****     *
1557:.\Generated_Source\PSoC5/UART_OSDP.c ****     * Parameters:
1558:.\Generated_Source\PSoC5/UART_OSDP.c ****     *  addressMode: 
1559:.\Generated_Source\PSoC5/UART_OSDP.c ****     *       UART_OSDP_SET_SPACE - Configure the transmitter to send the next
1560:.\Generated_Source\PSoC5/UART_OSDP.c ****     *                                    byte as a data.
1561:.\Generated_Source\PSoC5/UART_OSDP.c ****     *       UART_OSDP_SET_MARK  - Configure the transmitter to send the next
1562:.\Generated_Source\PSoC5/UART_OSDP.c ****     *                                    byte as an address.
1563:.\Generated_Source\PSoC5/UART_OSDP.c ****     *
1564:.\Generated_Source\PSoC5/UART_OSDP.c ****     * Return:
1565:.\Generated_Source\PSoC5/UART_OSDP.c ****     *  None.
1566:.\Generated_Source\PSoC5/UART_OSDP.c ****     *
1567:.\Generated_Source\PSoC5/UART_OSDP.c ****     * Side Effects:
1568:.\Generated_Source\PSoC5/UART_OSDP.c ****     *  This function sets and clears UART_OSDP_CTRL_MARK bit in the Control
1569:.\Generated_Source\PSoC5/UART_OSDP.c ****     *  register.
1570:.\Generated_Source\PSoC5/UART_OSDP.c ****     *
1571:.\Generated_Source\PSoC5/UART_OSDP.c ****     *******************************************************************************/
1572:.\Generated_Source\PSoC5/UART_OSDP.c ****     void UART_OSDP_SetTxAddressMode(uint8 addressMode) 
1573:.\Generated_Source\PSoC5/UART_OSDP.c ****     {
 1219              		.loc 1 1573 0
 1220              		.cfi_startproc
 1221              		@ args = 0, pretend = 0, frame = 0
 1222              		@ frame_needed = 0, uses_anonymous_args = 0
 1223              		@ link register save eliminated.
 1224              	.LVL79:
 1225 0000 044B     		ldr	r3, .L152
 1226              	.LBB40:
 1227              	.LBB41:
 300:.\Generated_Source\PSoC5/UART_OSDP.c ****         return(UART_OSDP_CONTROL_REG);
 1228              		.loc 1 300 0
 1229 0002 1A78     		ldrb	r2, [r3]	@ zero_extendqisi2
 1230              	.LBE41:
 1231              	.LBE40:
1574:.\Generated_Source\PSoC5/UART_OSDP.c ****         /* Mark/Space sending enable */
1575:.\Generated_Source\PSoC5/UART_OSDP.c ****         if(addressMode != 0u)
 1232              		.loc 1 1575 0
 1233 0004 10B1     		cbz	r0, .L149
1576:.\Generated_Source\PSoC5/UART_OSDP.c ****         {
1577:.\Generated_Source\PSoC5/UART_OSDP.c ****         #if( UART_OSDP_CONTROL_REG_REMOVED == 0u )
1578:.\Generated_Source\PSoC5/UART_OSDP.c ****             UART_OSDP_WriteControlRegister(UART_OSDP_ReadControlRegister() |
 1234              		.loc 1 1578 0
 1235 0006 42F00402 		orr	r2, r2, #4
 1236              	.LVL80:
ARM GAS  C:\Users\Yiquing\AppData\Local\Temp\ccvaGiH9.s 			page 51


 1237 000a 01E0     		b	.L151
 1238              	.LVL81:
 1239              	.L149:
1579:.\Generated_Source\PSoC5/UART_OSDP.c ****                                                   UART_OSDP_CTRL_MARK);
1580:.\Generated_Source\PSoC5/UART_OSDP.c ****         #endif /* End UART_OSDP_CONTROL_REG_REMOVED == 0u */
1581:.\Generated_Source\PSoC5/UART_OSDP.c ****         }
1582:.\Generated_Source\PSoC5/UART_OSDP.c ****         else
1583:.\Generated_Source\PSoC5/UART_OSDP.c ****         {
1584:.\Generated_Source\PSoC5/UART_OSDP.c ****         #if( UART_OSDP_CONTROL_REG_REMOVED == 0u )
1585:.\Generated_Source\PSoC5/UART_OSDP.c ****             UART_OSDP_WriteControlRegister(UART_OSDP_ReadControlRegister() &
 1240              		.loc 1 1585 0
 1241 000c 02F0FB02 		and	r2, r2, #251
 1242              	.L151:
 1243              	.LVL82:
 1244              	.LBB42:
 1245              	.LBB43:
 327:.\Generated_Source\PSoC5/UART_OSDP.c ****        UART_OSDP_CONTROL_REG = control;
 1246              		.loc 1 327 0
 1247 0010 1A70     		strb	r2, [r3]
 1248 0012 7047     		bx	lr
 1249              	.L153:
 1250              		.align	2
 1251              	.L152:
 1252 0014 75650040 		.word	1073767797
 1253              	.LBE43:
 1254              	.LBE42:
 1255              		.cfi_endproc
 1256              	.LFE26:
 1257              		.size	UART_OSDP_SetTxAddressMode, .-UART_OSDP_SetTxAddressMode
 1258              		.section	.text.UART_OSDP_LoadRxConfig,"ax",%progbits
 1259              		.align	1
 1260              		.global	UART_OSDP_LoadRxConfig
 1261              		.thumb
 1262              		.thumb_func
 1263              		.type	UART_OSDP_LoadRxConfig, %function
 1264              	UART_OSDP_LoadRxConfig:
 1265              	.LFB27:
1586:.\Generated_Source\PSoC5/UART_OSDP.c ****                                                   (uint8) ~UART_OSDP_CTRL_MARK);
1587:.\Generated_Source\PSoC5/UART_OSDP.c ****         #endif /* End UART_OSDP_CONTROL_REG_REMOVED == 0u */
1588:.\Generated_Source\PSoC5/UART_OSDP.c ****         }
1589:.\Generated_Source\PSoC5/UART_OSDP.c ****     }
1590:.\Generated_Source\PSoC5/UART_OSDP.c **** 
1591:.\Generated_Source\PSoC5/UART_OSDP.c **** #endif  /* EndUART_OSDP_TX_ENABLED */
1592:.\Generated_Source\PSoC5/UART_OSDP.c **** 
1593:.\Generated_Source\PSoC5/UART_OSDP.c **** #if(UART_OSDP_HD_ENABLED)
1594:.\Generated_Source\PSoC5/UART_OSDP.c **** 
1595:.\Generated_Source\PSoC5/UART_OSDP.c **** 
1596:.\Generated_Source\PSoC5/UART_OSDP.c ****     /*******************************************************************************
1597:.\Generated_Source\PSoC5/UART_OSDP.c ****     * Function Name: UART_OSDP_LoadRxConfig
1598:.\Generated_Source\PSoC5/UART_OSDP.c ****     ********************************************************************************
1599:.\Generated_Source\PSoC5/UART_OSDP.c ****     *
1600:.\Generated_Source\PSoC5/UART_OSDP.c ****     * Summary:
1601:.\Generated_Source\PSoC5/UART_OSDP.c ****     *  Loads the receiver configuration in half duplex mode. After calling this
1602:.\Generated_Source\PSoC5/UART_OSDP.c ****     *  function, the UART is ready to receive data.
1603:.\Generated_Source\PSoC5/UART_OSDP.c ****     *
1604:.\Generated_Source\PSoC5/UART_OSDP.c ****     * Parameters:
1605:.\Generated_Source\PSoC5/UART_OSDP.c ****     *  None.
ARM GAS  C:\Users\Yiquing\AppData\Local\Temp\ccvaGiH9.s 			page 52


1606:.\Generated_Source\PSoC5/UART_OSDP.c ****     *
1607:.\Generated_Source\PSoC5/UART_OSDP.c ****     * Return:
1608:.\Generated_Source\PSoC5/UART_OSDP.c ****     *  None.
1609:.\Generated_Source\PSoC5/UART_OSDP.c ****     *
1610:.\Generated_Source\PSoC5/UART_OSDP.c ****     * Side Effects:
1611:.\Generated_Source\PSoC5/UART_OSDP.c ****     *  Valid only in half duplex mode. You must make sure that the previous
1612:.\Generated_Source\PSoC5/UART_OSDP.c ****     *  transaction is complete and it is safe to unload the transmitter
1613:.\Generated_Source\PSoC5/UART_OSDP.c ****     *  configuration.
1614:.\Generated_Source\PSoC5/UART_OSDP.c ****     *
1615:.\Generated_Source\PSoC5/UART_OSDP.c ****     *******************************************************************************/
1616:.\Generated_Source\PSoC5/UART_OSDP.c ****     void UART_OSDP_LoadRxConfig(void) 
1617:.\Generated_Source\PSoC5/UART_OSDP.c ****     {
 1266              		.loc 1 1617 0
 1267              		.cfi_startproc
 1268              		@ args = 0, pretend = 0, frame = 0
 1269              		@ frame_needed = 0, uses_anonymous_args = 0
 1270              		@ link register save eliminated.
 1271              	.LBB44:
 1272              	.LBB45:
 300:.\Generated_Source\PSoC5/UART_OSDP.c ****         return(UART_OSDP_CONTROL_REG);
 1273              		.loc 1 300 0
 1274 0000 064B     		ldr	r3, .L155
 1275 0002 1A78     		ldrb	r2, [r3]	@ zero_extendqisi2
 1276              	.LBE45:
 1277              	.LBE44:
 1278              	.LBB46:
 1279              	.LBB47:
 361:.\Generated_Source\PSoC5/UART_OSDP.c ****         UART_OSDP_RXSTATUS_MASK_REG  = intSrc;
 1280              		.loc 1 361 0
 1281 0004 F33B     		subs	r3, r3, #243
 1282              	.LBE47:
 1283              	.LBE46:
1618:.\Generated_Source\PSoC5/UART_OSDP.c ****         UART_OSDP_WriteControlRegister(UART_OSDP_ReadControlRegister() &
 1284              		.loc 1 1618 0
 1285 0006 02F0FE02 		and	r2, r2, #254
 1286              	.LVL83:
 1287              	.LBB49:
 1288              	.LBB50:
 327:.\Generated_Source\PSoC5/UART_OSDP.c ****        UART_OSDP_CONTROL_REG = control;
 1289              		.loc 1 327 0
 1290 000a 83F8F320 		strb	r2, [r3, #243]
 1291              	.LBE50:
 1292              	.LBE49:
1619:.\Generated_Source\PSoC5/UART_OSDP.c ****                                                 (uint8)~UART_OSDP_CTRL_HD_SEND);
1620:.\Generated_Source\PSoC5/UART_OSDP.c ****         UART_OSDP_RXBITCTR_PERIOD_REG = UART_OSDP_HD_RXBITCTR_INIT;
 1293              		.loc 1 1620 0
 1294 000e 7222     		movs	r2, #114
 1295              	.LVL84:
 1296 0010 83F80421 		strb	r2, [r3, #260]
 1297              	.LVL85:
 1298              	.LBB51:
 1299              	.LBB48:
 361:.\Generated_Source\PSoC5/UART_OSDP.c ****         UART_OSDP_RXSTATUS_MASK_REG  = intSrc;
 1300              		.loc 1 361 0
 1301 0014 2022     		movs	r2, #32
 1302 0016 1A70     		strb	r2, [r3]
 1303 0018 7047     		bx	lr
ARM GAS  C:\Users\Yiquing\AppData\Local\Temp\ccvaGiH9.s 			page 53


 1304              	.L156:
 1305 001a 00BF     		.align	2
 1306              	.L155:
 1307 001c 75650040 		.word	1073767797
 1308              	.LBE48:
 1309              	.LBE51:
 1310              		.cfi_endproc
 1311              	.LFE27:
 1312              		.size	UART_OSDP_LoadRxConfig, .-UART_OSDP_LoadRxConfig
 1313              		.section	.text.UART_OSDP_LoadTxConfig,"ax",%progbits
 1314              		.align	1
 1315              		.global	UART_OSDP_LoadTxConfig
 1316              		.thumb
 1317              		.thumb_func
 1318              		.type	UART_OSDP_LoadTxConfig, %function
 1319              	UART_OSDP_LoadTxConfig:
 1320              	.LFB28:
1621:.\Generated_Source\PSoC5/UART_OSDP.c **** 
1622:.\Generated_Source\PSoC5/UART_OSDP.c ****     #if (UART_OSDP_RX_INTERRUPT_ENABLED)
1623:.\Generated_Source\PSoC5/UART_OSDP.c ****         /* Enable RX interrupt after set RX configuration */
1624:.\Generated_Source\PSoC5/UART_OSDP.c ****         UART_OSDP_SetRxInterruptMode(UART_OSDP_INIT_RX_INTERRUPTS_MASK);
1625:.\Generated_Source\PSoC5/UART_OSDP.c ****     #endif /* (UART_OSDP_RX_INTERRUPT_ENABLED) */
1626:.\Generated_Source\PSoC5/UART_OSDP.c ****     }
1627:.\Generated_Source\PSoC5/UART_OSDP.c **** 
1628:.\Generated_Source\PSoC5/UART_OSDP.c **** 
1629:.\Generated_Source\PSoC5/UART_OSDP.c ****     /*******************************************************************************
1630:.\Generated_Source\PSoC5/UART_OSDP.c ****     * Function Name: UART_OSDP_LoadTxConfig
1631:.\Generated_Source\PSoC5/UART_OSDP.c ****     ********************************************************************************
1632:.\Generated_Source\PSoC5/UART_OSDP.c ****     *
1633:.\Generated_Source\PSoC5/UART_OSDP.c ****     * Summary:
1634:.\Generated_Source\PSoC5/UART_OSDP.c ****     *  Loads the transmitter configuration in half duplex mode. After calling this
1635:.\Generated_Source\PSoC5/UART_OSDP.c ****     *  function, the UART is ready to transmit data.
1636:.\Generated_Source\PSoC5/UART_OSDP.c ****     *
1637:.\Generated_Source\PSoC5/UART_OSDP.c ****     * Parameters:
1638:.\Generated_Source\PSoC5/UART_OSDP.c ****     *  None.
1639:.\Generated_Source\PSoC5/UART_OSDP.c ****     *
1640:.\Generated_Source\PSoC5/UART_OSDP.c ****     * Return:
1641:.\Generated_Source\PSoC5/UART_OSDP.c ****     *  None.
1642:.\Generated_Source\PSoC5/UART_OSDP.c ****     *
1643:.\Generated_Source\PSoC5/UART_OSDP.c ****     * Side Effects:
1644:.\Generated_Source\PSoC5/UART_OSDP.c ****     *  Valid only in half duplex mode. You must make sure that the previous
1645:.\Generated_Source\PSoC5/UART_OSDP.c ****     *  transaction is complete and it is safe to unload the receiver configuration.
1646:.\Generated_Source\PSoC5/UART_OSDP.c ****     *
1647:.\Generated_Source\PSoC5/UART_OSDP.c ****     *******************************************************************************/
1648:.\Generated_Source\PSoC5/UART_OSDP.c ****     void UART_OSDP_LoadTxConfig(void) 
1649:.\Generated_Source\PSoC5/UART_OSDP.c ****     {
 1321              		.loc 1 1649 0
 1322              		.cfi_startproc
 1323              		@ args = 0, pretend = 0, frame = 0
 1324              		@ frame_needed = 0, uses_anonymous_args = 0
 1325              		@ link register save eliminated.
 1326              	.LVL86:
 1327              	.LBB52:
 1328              	.LBB53:
 361:.\Generated_Source\PSoC5/UART_OSDP.c ****         UART_OSDP_RXSTATUS_MASK_REG  = intSrc;
 1329              		.loc 1 361 0
 1330 0000 064B     		ldr	r3, .L158
ARM GAS  C:\Users\Yiquing\AppData\Local\Temp\ccvaGiH9.s 			page 54


 1331 0002 0022     		movs	r2, #0
 1332 0004 1A70     		strb	r2, [r3]
 1333              	.LBE53:
 1334              	.LBE52:
 1335              	.LBB54:
 1336              	.LBB55:
 300:.\Generated_Source\PSoC5/UART_OSDP.c ****         return(UART_OSDP_CONTROL_REG);
 1337              		.loc 1 300 0
 1338 0006 93F8F320 		ldrb	r2, [r3, #243]	@ zero_extendqisi2
 1339              	.LBE55:
 1340              	.LBE54:
1650:.\Generated_Source\PSoC5/UART_OSDP.c ****     #if (UART_OSDP_RX_INTERRUPT_ENABLED)
1651:.\Generated_Source\PSoC5/UART_OSDP.c ****         /* Disable RX interrupts before set TX configuration */
1652:.\Generated_Source\PSoC5/UART_OSDP.c ****         UART_OSDP_SetRxInterruptMode(0u);
1653:.\Generated_Source\PSoC5/UART_OSDP.c ****     #endif /* (UART_OSDP_RX_INTERRUPT_ENABLED) */
1654:.\Generated_Source\PSoC5/UART_OSDP.c **** 
1655:.\Generated_Source\PSoC5/UART_OSDP.c ****         UART_OSDP_WriteControlRegister(UART_OSDP_ReadControlRegister() | UART_OSDP_CTRL_HD_SEND);
 1341              		.loc 1 1655 0
 1342 000a 42F00102 		orr	r2, r2, #1
 1343              	.LVL87:
 1344              	.LBB56:
 1345              	.LBB57:
 327:.\Generated_Source\PSoC5/UART_OSDP.c ****        UART_OSDP_CONTROL_REG = control;
 1346              		.loc 1 327 0
 1347 000e 83F8F320 		strb	r2, [r3, #243]
 1348              	.LBE57:
 1349              	.LBE56:
1656:.\Generated_Source\PSoC5/UART_OSDP.c ****         UART_OSDP_RXBITCTR_PERIOD_REG = UART_OSDP_HD_TXBITCTR_INIT;
 1350              		.loc 1 1656 0
 1351 0012 6F22     		movs	r2, #111
 1352              	.LVL88:
 1353 0014 83F80421 		strb	r2, [r3, #260]
 1354 0018 7047     		bx	lr
 1355              	.L159:
 1356 001a 00BF     		.align	2
 1357              	.L158:
 1358 001c 82640040 		.word	1073767554
 1359              		.cfi_endproc
 1360              	.LFE28:
 1361              		.size	UART_OSDP_LoadTxConfig, .-UART_OSDP_LoadTxConfig
 1362              		.global	UART_OSDP_rxBufferOverflow
 1363              		.global	UART_OSDP_rxBufferLoopDetect
 1364              		.global	UART_OSDP_rxBufferWrite
 1365              		.global	UART_OSDP_rxBufferRead
 1366              		.comm	UART_OSDP_rxBuffer,256,1
 1367              		.global	UART_OSDP_errorStatus
 1368              		.global	UART_OSDP_initVar
 1369              		.bss
 1370              		.align	1
 1371              		.set	.LANCHOR0,. + 0
 1372              		.type	UART_OSDP_errorStatus, %object
 1373              		.size	UART_OSDP_errorStatus, 1
 1374              	UART_OSDP_errorStatus:
 1375 0000 00       		.space	1
 1376              		.type	UART_OSDP_initVar, %object
 1377              		.size	UART_OSDP_initVar, 1
 1378              	UART_OSDP_initVar:
ARM GAS  C:\Users\Yiquing\AppData\Local\Temp\ccvaGiH9.s 			page 55


 1379 0001 00       		.space	1
 1380              		.type	UART_OSDP_rxBufferRead, %object
 1381              		.size	UART_OSDP_rxBufferRead, 2
 1382              	UART_OSDP_rxBufferRead:
 1383 0002 0000     		.space	2
 1384              		.type	UART_OSDP_rxBufferWrite, %object
 1385              		.size	UART_OSDP_rxBufferWrite, 2
 1386              	UART_OSDP_rxBufferWrite:
 1387 0004 0000     		.space	2
 1388              		.type	UART_OSDP_rxBufferLoopDetect, %object
 1389              		.size	UART_OSDP_rxBufferLoopDetect, 1
 1390              	UART_OSDP_rxBufferLoopDetect:
 1391 0006 00       		.space	1
 1392              		.type	UART_OSDP_rxBufferOverflow, %object
 1393              		.size	UART_OSDP_rxBufferOverflow, 1
 1394              	UART_OSDP_rxBufferOverflow:
 1395 0007 00       		.space	1
 1396              		.text
 1397              	.Letext0:
 1398              		.file 2 ".\\Generated_Source\\PSoC5\\cytypes.h"
 1399              		.file 3 ".\\Generated_Source\\PSoC5\\CyLib.h"
 1400              		.section	.debug_info,"",%progbits
 1401              	.Ldebug_info0:
 1402 0000 6A080000 		.4byte	0x86a
 1403 0004 0400     		.2byte	0x4
 1404 0006 00000000 		.4byte	.Ldebug_abbrev0
 1405 000a 04       		.byte	0x4
 1406 000b 01       		.uleb128 0x1
 1407 000c 0A040000 		.4byte	.LASF75
 1408 0010 01       		.byte	0x1
 1409 0011 FA020000 		.4byte	.LASF76
 1410 0015 07000000 		.4byte	.LASF77
 1411 0019 18000000 		.4byte	.Ldebug_ranges0+0x18
 1412 001d 00000000 		.4byte	0
 1413 0021 00000000 		.4byte	.Ldebug_line0
 1414 0025 02       		.uleb128 0x2
 1415 0026 01       		.byte	0x1
 1416 0027 06       		.byte	0x6
 1417 0028 03010000 		.4byte	.LASF0
 1418 002c 02       		.uleb128 0x2
 1419 002d 01       		.byte	0x1
 1420 002e 08       		.byte	0x8
 1421 002f 93030000 		.4byte	.LASF1
 1422 0033 02       		.uleb128 0x2
 1423 0034 02       		.byte	0x2
 1424 0035 05       		.byte	0x5
 1425 0036 A1030000 		.4byte	.LASF2
 1426 003a 02       		.uleb128 0x2
 1427 003b 02       		.byte	0x2
 1428 003c 07       		.byte	0x7
 1429 003d 6E020000 		.4byte	.LASF3
 1430 0041 02       		.uleb128 0x2
 1431 0042 04       		.byte	0x4
 1432 0043 05       		.byte	0x5
 1433 0044 71010000 		.4byte	.LASF4
 1434 0048 02       		.uleb128 0x2
 1435 0049 04       		.byte	0x4
ARM GAS  C:\Users\Yiquing\AppData\Local\Temp\ccvaGiH9.s 			page 56


 1436 004a 07       		.byte	0x7
 1437 004b 03020000 		.4byte	.LASF5
 1438 004f 02       		.uleb128 0x2
 1439 0050 08       		.byte	0x8
 1440 0051 05       		.byte	0x5
 1441 0052 F5000000 		.4byte	.LASF6
 1442 0056 02       		.uleb128 0x2
 1443 0057 08       		.byte	0x8
 1444 0058 07       		.byte	0x7
 1445 0059 B2000000 		.4byte	.LASF7
 1446 005d 03       		.uleb128 0x3
 1447 005e 04       		.byte	0x4
 1448 005f 05       		.byte	0x5
 1449 0060 696E7400 		.ascii	"int\000"
 1450 0064 02       		.uleb128 0x2
 1451 0065 04       		.byte	0x4
 1452 0066 07       		.byte	0x7
 1453 0067 C4010000 		.4byte	.LASF8
 1454 006b 04       		.uleb128 0x4
 1455 006c 7A010000 		.4byte	.LASF9
 1456 0070 02       		.byte	0x2
 1457 0071 A1       		.byte	0xa1
 1458 0072 2C000000 		.4byte	0x2c
 1459 0076 04       		.uleb128 0x4
 1460 0077 00000000 		.4byte	.LASF10
 1461 007b 02       		.byte	0x2
 1462 007c A2       		.byte	0xa2
 1463 007d 3A000000 		.4byte	0x3a
 1464 0081 04       		.uleb128 0x4
 1465 0082 93010000 		.4byte	.LASF11
 1466 0086 02       		.byte	0x2
 1467 0087 A3       		.byte	0xa3
 1468 0088 48000000 		.4byte	0x48
 1469 008c 02       		.uleb128 0x2
 1470 008d 04       		.byte	0x4
 1471 008e 04       		.byte	0x4
 1472 008f 75030000 		.4byte	.LASF12
 1473 0093 02       		.uleb128 0x2
 1474 0094 08       		.byte	0x8
 1475 0095 04       		.byte	0x4
 1476 0096 80010000 		.4byte	.LASF13
 1477 009a 04       		.uleb128 0x4
 1478 009b B7040000 		.4byte	.LASF14
 1479 009f 02       		.byte	0x2
 1480 00a0 B2       		.byte	0xb2
 1481 00a1 A5000000 		.4byte	0xa5
 1482 00a5 02       		.uleb128 0x2
 1483 00a6 01       		.byte	0x1
 1484 00a7 08       		.byte	0x8
 1485 00a8 A5040000 		.4byte	.LASF15
 1486 00ac 05       		.uleb128 0x5
 1487 00ad 8E030000 		.4byte	.LASF16
 1488 00b1 02       		.byte	0x2
 1489 00b2 4B01     		.2byte	0x14b
 1490 00b4 B8000000 		.4byte	0xb8
 1491 00b8 06       		.uleb128 0x6
 1492 00b9 6B000000 		.4byte	0x6b
ARM GAS  C:\Users\Yiquing\AppData\Local\Temp\ccvaGiH9.s 			page 57


 1493 00bd 06       		.uleb128 0x6
 1494 00be 76000000 		.4byte	0x76
 1495 00c2 05       		.uleb128 0x5
 1496 00c3 F4020000 		.4byte	.LASF17
 1497 00c7 02       		.byte	0x2
 1498 00c8 4D01     		.2byte	0x14d
 1499 00ca CE000000 		.4byte	0xce
 1500 00ce 06       		.uleb128 0x6
 1501 00cf 81000000 		.4byte	0x81
 1502 00d3 05       		.uleb128 0x5
 1503 00d4 AA040000 		.4byte	.LASF18
 1504 00d8 02       		.byte	0x2
 1505 00d9 5D01     		.2byte	0x15d
 1506 00db DF000000 		.4byte	0xdf
 1507 00df 07       		.uleb128 0x7
 1508 00e0 04       		.byte	0x4
 1509 00e1 E5000000 		.4byte	0xe5
 1510 00e5 08       		.uleb128 0x8
 1511 00e6 02       		.uleb128 0x2
 1512 00e7 04       		.byte	0x4
 1513 00e8 07       		.byte	0x7
 1514 00e9 1F030000 		.4byte	.LASF19
 1515 00ed 09       		.uleb128 0x9
 1516 00ee BF020000 		.4byte	.LASF73
 1517 00f2 01       		.byte	0x1
 1518 00f3 2701     		.2byte	0x127
 1519 00f5 6B000000 		.4byte	0x6b
 1520 00f9 01       		.byte	0x1
 1521 00fa 0A       		.uleb128 0xa
 1522 00fb 99020000 		.4byte	.LASF20
 1523 00ff 01       		.byte	0x1
 1524 0100 3F01     		.2byte	0x13f
 1525 0102 01       		.byte	0x1
 1526 0103 14010000 		.4byte	0x114
 1527 0107 0B       		.uleb128 0xb
 1528 0108 9A010000 		.4byte	.LASF22
 1529 010c 01       		.byte	0x1
 1530 010d 3F01     		.2byte	0x13f
 1531 010f 6B000000 		.4byte	0x6b
 1532 0113 00       		.byte	0
 1533 0114 0A       		.uleb128 0xa
 1534 0115 E3030000 		.4byte	.LASF21
 1535 0119 01       		.byte	0x1
 1536 011a 6701     		.2byte	0x167
 1537 011c 01       		.byte	0x1
 1538 011d 2E010000 		.4byte	0x12e
 1539 0121 0B       		.uleb128 0xb
 1540 0122 B8020000 		.4byte	.LASF23
 1541 0126 01       		.byte	0x1
 1542 0127 6701     		.2byte	0x167
 1543 0129 6B000000 		.4byte	0x6b
 1544 012d 00       		.byte	0
 1545 012e 0C       		.uleb128 0xc
 1546 012f D1010000 		.4byte	.LASF24
 1547 0133 01       		.byte	0x1
 1548 0134 6A       		.byte	0x6a
 1549 0135 00000000 		.4byte	.LFB1
ARM GAS  C:\Users\Yiquing\AppData\Local\Temp\ccvaGiH9.s 			page 58


 1550 0139 34000000 		.4byte	.LFE1-.LFB1
 1551 013d 01       		.uleb128 0x1
 1552 013e 9C       		.byte	0x9c
 1553 013f 6B010000 		.4byte	0x16b
 1554 0143 0D       		.uleb128 0xd
 1555 0144 0A000000 		.4byte	.LVL0
 1556 0148 25080000 		.4byte	0x825
 1557 014c 56010000 		.4byte	0x156
 1558 0150 0E       		.uleb128 0xe
 1559 0151 01       		.uleb128 0x1
 1560 0152 50       		.byte	0x50
 1561 0153 01       		.uleb128 0x1
 1562 0154 30       		.byte	0x30
 1563 0155 00       		.byte	0
 1564 0156 0F       		.uleb128 0xf
 1565 0157 12000000 		.4byte	.LVL1
 1566 015b 3F080000 		.4byte	0x83f
 1567 015f 0E       		.uleb128 0xe
 1568 0160 01       		.uleb128 0x1
 1569 0161 51       		.byte	0x51
 1570 0162 01       		.uleb128 0x1
 1571 0163 37       		.byte	0x37
 1572 0164 0E       		.uleb128 0xe
 1573 0165 01       		.uleb128 0x1
 1574 0166 50       		.byte	0x50
 1575 0167 01       		.uleb128 0x1
 1576 0168 30       		.byte	0x30
 1577 0169 00       		.byte	0
 1578 016a 00       		.byte	0
 1579 016b 0C       		.uleb128 0xc
 1580 016c E8050000 		.4byte	.LASF25
 1581 0170 01       		.byte	0x1
 1582 0171 B7       		.byte	0xb7
 1583 0172 00000000 		.4byte	.LFB2
 1584 0176 34000000 		.4byte	.LFE2-.LFB2
 1585 017a 01       		.uleb128 0x1
 1586 017b 9C       		.byte	0x9c
 1587 017c A2010000 		.4byte	0x1a2
 1588 0180 10       		.uleb128 0x10
 1589 0181 24050000 		.4byte	.LASF28
 1590 0185 01       		.byte	0x1
 1591 0186 B9       		.byte	0xb9
 1592 0187 6B000000 		.4byte	0x6b
 1593 018b 00000000 		.4byte	.LLST0
 1594 018f 11       		.uleb128 0x11
 1595 0190 06000000 		.4byte	.LVL2
 1596 0194 55080000 		.4byte	0x855
 1597 0198 12       		.uleb128 0x12
 1598 0199 2C000000 		.4byte	.LVL3
 1599 019d 60080000 		.4byte	0x860
 1600 01a1 00       		.byte	0
 1601 01a2 0C       		.uleb128 0xc
 1602 01a3 EA040000 		.4byte	.LASF26
 1603 01a7 01       		.byte	0x1
 1604 01a8 4C       		.byte	0x4c
 1605 01a9 00000000 		.4byte	.LFB0
 1606 01ad 1C000000 		.4byte	.LFE0-.LFB0
ARM GAS  C:\Users\Yiquing\AppData\Local\Temp\ccvaGiH9.s 			page 59


 1607 01b1 01       		.uleb128 0x1
 1608 01b2 9C       		.byte	0x9c
 1609 01b3 CA010000 		.4byte	0x1ca
 1610 01b7 11       		.uleb128 0x11
 1611 01b8 0C000000 		.4byte	.LVL4
 1612 01bc 2E010000 		.4byte	0x12e
 1613 01c0 12       		.uleb128 0x12
 1614 01c1 18000000 		.4byte	.LVL5
 1615 01c5 6B010000 		.4byte	0x16b
 1616 01c9 00       		.byte	0
 1617 01ca 0C       		.uleb128 0xc
 1618 01cb AA050000 		.4byte	.LASF27
 1619 01cf 01       		.byte	0x1
 1620 01d0 F0       		.byte	0xf0
 1621 01d1 00000000 		.4byte	.LFB3
 1622 01d5 34000000 		.4byte	.LFE3-.LFB3
 1623 01d9 01       		.uleb128 0x1
 1624 01da 9C       		.byte	0x9c
 1625 01db 01020000 		.4byte	0x201
 1626 01df 10       		.uleb128 0x10
 1627 01e0 24050000 		.4byte	.LASF28
 1628 01e4 01       		.byte	0x1
 1629 01e5 F2       		.byte	0xf2
 1630 01e6 6B000000 		.4byte	0x6b
 1631 01ea 13000000 		.4byte	.LLST1
 1632 01ee 11       		.uleb128 0x11
 1633 01ef 06000000 		.4byte	.LVL6
 1634 01f3 55080000 		.4byte	0x855
 1635 01f7 12       		.uleb128 0x12
 1636 01f8 2C000000 		.4byte	.LVL7
 1637 01fc 60080000 		.4byte	0x860
 1638 0200 00       		.byte	0
 1639 0201 13       		.uleb128 0x13
 1640 0202 ED000000 		.4byte	0xed
 1641 0206 00000000 		.4byte	.LFB4
 1642 020a 0C000000 		.4byte	.LFE4-.LFB4
 1643 020e 01       		.uleb128 0x1
 1644 020f 9C       		.byte	0x9c
 1645 0210 14       		.uleb128 0x14
 1646 0211 FA000000 		.4byte	0xfa
 1647 0215 00000000 		.4byte	.LFB5
 1648 0219 0C000000 		.4byte	.LFE5-.LFB5
 1649 021d 01       		.uleb128 0x1
 1650 021e 9C       		.byte	0x9c
 1651 021f 2B020000 		.4byte	0x22b
 1652 0223 15       		.uleb128 0x15
 1653 0224 07010000 		.4byte	0x107
 1654 0228 01       		.uleb128 0x1
 1655 0229 50       		.byte	0x50
 1656 022a 00       		.byte	0
 1657 022b 14       		.uleb128 0x14
 1658 022c 14010000 		.4byte	0x114
 1659 0230 00000000 		.4byte	.LFB6
 1660 0234 0C000000 		.4byte	.LFE6-.LFB6
 1661 0238 01       		.uleb128 0x1
 1662 0239 9C       		.byte	0x9c
 1663 023a 46020000 		.4byte	0x246
ARM GAS  C:\Users\Yiquing\AppData\Local\Temp\ccvaGiH9.s 			page 60


 1664 023e 15       		.uleb128 0x15
 1665 023f 21010000 		.4byte	0x121
 1666 0243 01       		.uleb128 0x1
 1667 0244 50       		.byte	0x50
 1668 0245 00       		.byte	0
 1669 0246 16       		.uleb128 0x16
 1670 0247 0F010000 		.4byte	.LASF32
 1671 024b 01       		.byte	0x1
 1672 024c 8801     		.2byte	0x188
 1673 024e 6B000000 		.4byte	0x6b
 1674 0252 00000000 		.4byte	.LFB7
 1675 0256 5C000000 		.4byte	.LFE7-.LFB7
 1676 025a 01       		.uleb128 0x1
 1677 025b 9C       		.byte	0x9c
 1678 025c 91020000 		.4byte	0x291
 1679 0260 17       		.uleb128 0x17
 1680 0261 86040000 		.4byte	.LASF29
 1681 0265 01       		.byte	0x1
 1682 0266 8A01     		.2byte	0x18a
 1683 0268 6B000000 		.4byte	0x6b
 1684 026c 26000000 		.4byte	.LLST2
 1685 0270 17       		.uleb128 0x17
 1686 0271 0C050000 		.4byte	.LASF30
 1687 0275 01       		.byte	0x1
 1688 0276 8E01     		.2byte	0x18e
 1689 0278 76000000 		.4byte	0x76
 1690 027c 44000000 		.4byte	.LLST3
 1691 0280 17       		.uleb128 0x17
 1692 0281 30030000 		.4byte	.LASF31
 1693 0285 01       		.byte	0x1
 1694 0286 8F01     		.2byte	0x18f
 1695 0288 76000000 		.4byte	0x76
 1696 028c 6F000000 		.4byte	.LLST4
 1697 0290 00       		.byte	0
 1698 0291 16       		.uleb128 0x16
 1699 0292 BD040000 		.4byte	.LASF33
 1700 0296 01       		.byte	0x1
 1701 0297 E501     		.2byte	0x1e5
 1702 0299 6B000000 		.4byte	0x6b
 1703 029d 00000000 		.4byte	.LFB8
 1704 02a1 20000000 		.4byte	.LFE8-.LFB8
 1705 02a5 01       		.uleb128 0x1
 1706 02a6 9C       		.byte	0x9c
 1707 02a7 BA020000 		.4byte	0x2ba
 1708 02ab 18       		.uleb128 0x18
 1709 02ac 4B050000 		.4byte	.LASF34
 1710 02b0 01       		.byte	0x1
 1711 02b1 E701     		.2byte	0x1e7
 1712 02b3 6B000000 		.4byte	0x6b
 1713 02b7 01       		.uleb128 0x1
 1714 02b8 50       		.byte	0x50
 1715 02b9 00       		.byte	0
 1716 02ba 16       		.uleb128 0x16
 1717 02bb B9050000 		.4byte	.LASF35
 1718 02bf 01       		.byte	0x1
 1719 02c0 1402     		.2byte	0x214
 1720 02c2 6B000000 		.4byte	0x6b
ARM GAS  C:\Users\Yiquing\AppData\Local\Temp\ccvaGiH9.s 			page 61


 1721 02c6 00000000 		.4byte	.LFB9
 1722 02ca 74000000 		.4byte	.LFE9-.LFB9
 1723 02ce 01       		.uleb128 0x1
 1724 02cf 9C       		.byte	0x9c
 1725 02d0 15030000 		.4byte	0x315
 1726 02d4 17       		.uleb128 0x17
 1727 02d5 86040000 		.4byte	.LASF29
 1728 02d9 01       		.byte	0x1
 1729 02da 1602     		.2byte	0x216
 1730 02dc 6B000000 		.4byte	0x6b
 1731 02e0 8D000000 		.4byte	.LLST5
 1732 02e4 17       		.uleb128 0x17
 1733 02e5 41030000 		.4byte	.LASF36
 1734 02e9 01       		.byte	0x1
 1735 02ea 1702     		.2byte	0x217
 1736 02ec 6B000000 		.4byte	0x6b
 1737 02f0 C3000000 		.4byte	.LLST6
 1738 02f4 17       		.uleb128 0x17
 1739 02f5 0C050000 		.4byte	.LASF30
 1740 02f9 01       		.byte	0x1
 1741 02fa 1A02     		.2byte	0x21a
 1742 02fc 76000000 		.4byte	0x76
 1743 0300 D6000000 		.4byte	.LLST7
 1744 0304 17       		.uleb128 0x17
 1745 0305 30030000 		.4byte	.LASF31
 1746 0309 01       		.byte	0x1
 1747 030a 1B02     		.2byte	0x21b
 1748 030c 76000000 		.4byte	0x76
 1749 0310 01010000 		.4byte	.LLST8
 1750 0314 00       		.byte	0
 1751 0315 16       		.uleb128 0x16
 1752 0316 69050000 		.4byte	.LASF37
 1753 031a 01       		.byte	0x1
 1754 031b 7A02     		.2byte	0x27a
 1755 031d 76000000 		.4byte	0x76
 1756 0321 00000000 		.4byte	.LFB10
 1757 0325 2C000000 		.4byte	.LFE10-.LFB10
 1758 0329 01       		.uleb128 0x1
 1759 032a 9C       		.byte	0x9c
 1760 032b 49030000 		.4byte	0x349
 1761 032f 17       		.uleb128 0x17
 1762 0330 E0010000 		.4byte	.LASF38
 1763 0334 01       		.byte	0x1
 1764 0335 7E02     		.2byte	0x27e
 1765 0337 76000000 		.4byte	0x76
 1766 033b 1F010000 		.4byte	.LLST9
 1767 033f 11       		.uleb128 0x11
 1768 0340 18000000 		.4byte	.LVL35
 1769 0344 46020000 		.4byte	0x246
 1770 0348 00       		.byte	0
 1771 0349 16       		.uleb128 0x16
 1772 034a 5B030000 		.4byte	.LASF39
 1773 034e 01       		.byte	0x1
 1774 034f AB02     		.2byte	0x2ab
 1775 0351 76000000 		.4byte	0x76
 1776 0355 00000000 		.4byte	.LFB11
 1777 0359 54000000 		.4byte	.LFE11-.LFB11
ARM GAS  C:\Users\Yiquing\AppData\Local\Temp\ccvaGiH9.s 			page 62


 1778 035d 01       		.uleb128 0x1
 1779 035e 9C       		.byte	0x9c
 1780 035f 72030000 		.4byte	0x372
 1781 0363 18       		.uleb128 0x18
 1782 0364 69020000 		.4byte	.LASF40
 1783 0368 01       		.byte	0x1
 1784 0369 AE02     		.2byte	0x2ae
 1785 036b 76000000 		.4byte	0x76
 1786 036f 01       		.uleb128 0x1
 1787 0370 50       		.byte	0x50
 1788 0371 00       		.byte	0
 1789 0372 19       		.uleb128 0x19
 1790 0373 93000000 		.4byte	.LASF41
 1791 0377 01       		.byte	0x1
 1792 0378 F502     		.2byte	0x2f5
 1793 037a 00000000 		.4byte	.LFB12
 1794 037e 44000000 		.4byte	.LFE12-.LFB12
 1795 0382 01       		.uleb128 0x1
 1796 0383 9C       		.byte	0x9c
 1797 0384 AB030000 		.4byte	0x3ab
 1798 0388 17       		.uleb128 0x17
 1799 0389 24050000 		.4byte	.LASF28
 1800 038d 01       		.byte	0x1
 1801 038e F702     		.2byte	0x2f7
 1802 0390 6B000000 		.4byte	0x6b
 1803 0394 32010000 		.4byte	.LLST10
 1804 0398 11       		.uleb128 0x11
 1805 0399 06000000 		.4byte	.LVL38
 1806 039d 55080000 		.4byte	0x855
 1807 03a1 11       		.uleb128 0x11
 1808 03a2 1C000000 		.4byte	.LVL39
 1809 03a6 60080000 		.4byte	0x860
 1810 03aa 00       		.byte	0
 1811 03ab 19       		.uleb128 0x19
 1812 03ac C8030000 		.4byte	.LASF42
 1813 03b0 01       		.byte	0x1
 1814 03b1 2D03     		.2byte	0x32d
 1815 03b3 00000000 		.4byte	.LFB13
 1816 03b7 02000000 		.4byte	.LFE13-.LFB13
 1817 03bb 01       		.uleb128 0x1
 1818 03bc 9C       		.byte	0x9c
 1819 03bd D0030000 		.4byte	0x3d0
 1820 03c1 1A       		.uleb128 0x1a
 1821 03c2 87010000 		.4byte	.LASF44
 1822 03c6 01       		.byte	0x1
 1823 03c7 2D03     		.2byte	0x32d
 1824 03c9 6B000000 		.4byte	0x6b
 1825 03cd 01       		.uleb128 0x1
 1826 03ce 50       		.byte	0x50
 1827 03cf 00       		.byte	0
 1828 03d0 19       		.uleb128 0x19
 1829 03d1 92050000 		.4byte	.LASF43
 1830 03d5 01       		.byte	0x1
 1831 03d6 5903     		.2byte	0x359
 1832 03d8 00000000 		.4byte	.LFB14
 1833 03dc 0C000000 		.4byte	.LFE14-.LFB14
 1834 03e0 01       		.uleb128 0x1
ARM GAS  C:\Users\Yiquing\AppData\Local\Temp\ccvaGiH9.s 			page 63


 1835 03e1 9C       		.byte	0x9c
 1836 03e2 F5030000 		.4byte	0x3f5
 1837 03e6 1A       		.uleb128 0x1a
 1838 03e7 28030000 		.4byte	.LASF45
 1839 03eb 01       		.byte	0x1
 1840 03ec 5903     		.2byte	0x359
 1841 03ee 6B000000 		.4byte	0x6b
 1842 03f2 01       		.uleb128 0x1
 1843 03f3 50       		.byte	0x50
 1844 03f4 00       		.byte	0
 1845 03f5 19       		.uleb128 0x19
 1846 03f6 DD000000 		.4byte	.LASF46
 1847 03fa 01       		.byte	0x1
 1848 03fb 6D03     		.2byte	0x36d
 1849 03fd 00000000 		.4byte	.LFB15
 1850 0401 0C000000 		.4byte	.LFE15-.LFB15
 1851 0405 01       		.uleb128 0x1
 1852 0406 9C       		.byte	0x9c
 1853 0407 1A040000 		.4byte	0x41a
 1854 040b 1A       		.uleb128 0x1a
 1855 040c 28030000 		.4byte	.LASF45
 1856 0410 01       		.byte	0x1
 1857 0411 6D03     		.2byte	0x36d
 1858 0413 6B000000 		.4byte	0x6b
 1859 0417 01       		.uleb128 0x1
 1860 0418 50       		.byte	0x50
 1861 0419 00       		.byte	0
 1862 041a 19       		.uleb128 0x19
 1863 041b AB030000 		.4byte	.LASF47
 1864 041f 01       		.byte	0x1
 1865 0420 8C03     		.2byte	0x38c
 1866 0422 00000000 		.4byte	.LFB16
 1867 0426 0C000000 		.4byte	.LFE16-.LFB16
 1868 042a 01       		.uleb128 0x1
 1869 042b 9C       		.byte	0x9c
 1870 042c 3F040000 		.4byte	0x43f
 1871 0430 1A       		.uleb128 0x1a
 1872 0431 B8020000 		.4byte	.LASF23
 1873 0435 01       		.byte	0x1
 1874 0436 8C03     		.2byte	0x38c
 1875 0438 6B000000 		.4byte	0x6b
 1876 043c 01       		.uleb128 0x1
 1877 043d 50       		.byte	0x50
 1878 043e 00       		.byte	0
 1879 043f 19       		.uleb128 0x19
 1880 0440 35050000 		.4byte	.LASF48
 1881 0444 01       		.byte	0x1
 1882 0445 AE03     		.2byte	0x3ae
 1883 0447 00000000 		.4byte	.LFB17
 1884 044b 14000000 		.4byte	.LFE17-.LFB17
 1885 044f 01       		.uleb128 0x1
 1886 0450 9C       		.byte	0x9c
 1887 0451 64040000 		.4byte	0x464
 1888 0455 1A       		.uleb128 0x1a
 1889 0456 88000000 		.4byte	.LASF49
 1890 045a 01       		.byte	0x1
 1891 045b AE03     		.2byte	0x3ae
ARM GAS  C:\Users\Yiquing\AppData\Local\Temp\ccvaGiH9.s 			page 64


 1892 045d 6B000000 		.4byte	0x6b
 1893 0461 01       		.uleb128 0x1
 1894 0462 50       		.byte	0x50
 1895 0463 00       		.byte	0
 1896 0464 1B       		.uleb128 0x1b
 1897 0465 7B050000 		.4byte	.LASF78
 1898 0469 01       		.byte	0x1
 1899 046a EB03     		.2byte	0x3eb
 1900 046c 6B000000 		.4byte	0x6b
 1901 0470 00000000 		.4byte	.LFB18
 1902 0474 0C000000 		.4byte	.LFE18-.LFB18
 1903 0478 01       		.uleb128 0x1
 1904 0479 9C       		.byte	0x9c
 1905 047a 19       		.uleb128 0x19
 1906 047b 15020000 		.4byte	.LASF50
 1907 047f 01       		.byte	0x1
 1908 0480 1104     		.2byte	0x411
 1909 0482 00000000 		.4byte	.LFB19
 1910 0486 18000000 		.4byte	.LFE19-.LFB19
 1911 048a 01       		.uleb128 0x1
 1912 048b 9C       		.byte	0x9c
 1913 048c 9F040000 		.4byte	0x49f
 1914 0490 1A       		.uleb128 0x1a
 1915 0491 88000000 		.4byte	.LASF49
 1916 0495 01       		.byte	0x1
 1917 0496 1104     		.2byte	0x411
 1918 0498 6B000000 		.4byte	0x6b
 1919 049c 01       		.uleb128 0x1
 1920 049d 50       		.byte	0x50
 1921 049e 00       		.byte	0
 1922 049f 19       		.uleb128 0x19
 1923 04a0 EF010000 		.4byte	.LASF51
 1924 04a4 01       		.byte	0x1
 1925 04a5 7904     		.2byte	0x479
 1926 04a7 00000000 		.4byte	.LFB20
 1927 04ab 20000000 		.4byte	.LFE20-.LFB20
 1928 04af 01       		.uleb128 0x1
 1929 04b0 9C       		.byte	0x9c
 1930 04b1 DF040000 		.4byte	0x4df
 1931 04b5 1C       		.uleb128 0x1c
 1932 04b6 AB000000 		.4byte	.LASF52
 1933 04ba 01       		.byte	0x1
 1934 04bb 7904     		.2byte	0x479
 1935 04bd DF040000 		.4byte	0x4df
 1936 04c1 45010000 		.4byte	.LLST11
 1937 04c5 17       		.uleb128 0x17
 1938 04c6 90020000 		.4byte	.LASF53
 1939 04ca 01       		.byte	0x1
 1940 04cb 7B04     		.2byte	0x47b
 1941 04cd 76000000 		.4byte	0x76
 1942 04d1 71010000 		.4byte	.LLST12
 1943 04d5 11       		.uleb128 0x11
 1944 04d6 18000000 		.4byte	.LVL49
 1945 04da 7A040000 		.4byte	0x47a
 1946 04de 00       		.byte	0
 1947 04df 07       		.uleb128 0x7
 1948 04e0 04       		.byte	0x4
ARM GAS  C:\Users\Yiquing\AppData\Local\Temp\ccvaGiH9.s 			page 65


 1949 04e1 E5040000 		.4byte	0x4e5
 1950 04e5 1D       		.uleb128 0x1d
 1951 04e6 9A000000 		.4byte	0x9a
 1952 04ea 19       		.uleb128 0x19
 1953 04eb 56020000 		.4byte	.LASF54
 1954 04ef 01       		.byte	0x1
 1955 04f0 A704     		.2byte	0x4a7
 1956 04f2 00000000 		.4byte	.LFB21
 1957 04f6 24000000 		.4byte	.LFE21-.LFB21
 1958 04fa 01       		.uleb128 0x1
 1959 04fb 9C       		.byte	0x9c
 1960 04fc 3A050000 		.4byte	0x53a
 1961 0500 1C       		.uleb128 0x1c
 1962 0501 AB000000 		.4byte	.LASF52
 1963 0505 01       		.byte	0x1
 1964 0506 A704     		.2byte	0x4a7
 1965 0508 3A050000 		.4byte	0x53a
 1966 050c A8010000 		.4byte	.LLST13
 1967 0510 1C       		.uleb128 0x1c
 1968 0511 00040000 		.4byte	.LASF55
 1969 0515 01       		.byte	0x1
 1970 0516 A704     		.2byte	0x4a7
 1971 0518 6B000000 		.4byte	0x6b
 1972 051c D4010000 		.4byte	.LLST14
 1973 0520 17       		.uleb128 0x17
 1974 0521 90020000 		.4byte	.LASF53
 1975 0525 01       		.byte	0x1
 1976 0526 AA04     		.2byte	0x4aa
 1977 0528 6B000000 		.4byte	0x6b
 1978 052c F5010000 		.4byte	.LLST15
 1979 0530 11       		.uleb128 0x11
 1980 0531 1A000000 		.4byte	.LVL54
 1981 0535 7A040000 		.4byte	0x47a
 1982 0539 00       		.byte	0
 1983 053a 07       		.uleb128 0x7
 1984 053b 04       		.byte	0x4
 1985 053c 40050000 		.4byte	0x540
 1986 0540 1D       		.uleb128 0x1d
 1987 0541 6B000000 		.4byte	0x6b
 1988 0545 19       		.uleb128 0x19
 1989 0546 FA040000 		.4byte	.LASF56
 1990 054a 01       		.byte	0x1
 1991 054b CE04     		.2byte	0x4ce
 1992 054d 00000000 		.4byte	.LFB22
 1993 0551 24000000 		.4byte	.LFE22-.LFB22
 1994 0555 01       		.uleb128 0x1
 1995 0556 9C       		.byte	0x9c
 1996 0557 97050000 		.4byte	0x597
 1997 055b 1C       		.uleb128 0x1c
 1998 055c 88000000 		.4byte	.LASF49
 1999 0560 01       		.byte	0x1
 2000 0561 CE04     		.2byte	0x4ce
 2001 0563 6B000000 		.4byte	0x6b
 2002 0567 2E020000 		.4byte	.LLST16
 2003 056b 11       		.uleb128 0x11
 2004 056c 0C000000 		.4byte	.LVL59
 2005 0570 7A040000 		.4byte	0x47a
ARM GAS  C:\Users\Yiquing\AppData\Local\Temp\ccvaGiH9.s 			page 66


 2006 0574 0D       		.uleb128 0xd
 2007 0575 12000000 		.4byte	.LVL60
 2008 0579 7A040000 		.4byte	0x47a
 2009 057d 87050000 		.4byte	0x587
 2010 0581 0E       		.uleb128 0xe
 2011 0582 01       		.uleb128 0x1
 2012 0583 50       		.byte	0x50
 2013 0584 01       		.uleb128 0x1
 2014 0585 3D       		.byte	0x3d
 2015 0586 00       		.byte	0
 2016 0587 1E       		.uleb128 0x1e
 2017 0588 1C000000 		.4byte	.LVL61
 2018 058c 7A040000 		.4byte	0x47a
 2019 0590 0E       		.uleb128 0xe
 2020 0591 01       		.uleb128 0x1
 2021 0592 50       		.byte	0x50
 2022 0593 01       		.uleb128 0x1
 2023 0594 3A       		.byte	0x3a
 2024 0595 00       		.byte	0
 2025 0596 00       		.byte	0
 2026 0597 16       		.uleb128 0x16
 2027 0598 AA010000 		.4byte	.LASF57
 2028 059c 01       		.byte	0x1
 2029 059d F904     		.2byte	0x4f9
 2030 059f 6B000000 		.4byte	0x6b
 2031 05a3 00000000 		.4byte	.LFB23
 2032 05a7 1C000000 		.4byte	.LFE23-.LFB23
 2033 05ab 01       		.uleb128 0x1
 2034 05ac 9C       		.byte	0x9c
 2035 05ad C2050000 		.4byte	0x5c2
 2036 05b1 17       		.uleb128 0x17
 2037 05b2 69020000 		.4byte	.LASF40
 2038 05b6 01       		.byte	0x1
 2039 05b7 FC04     		.2byte	0x4fc
 2040 05b9 6B000000 		.4byte	0x6b
 2041 05bd 5A020000 		.4byte	.LLST17
 2042 05c1 00       		.byte	0
 2043 05c2 19       		.uleb128 0x19
 2044 05c3 8D040000 		.4byte	.LASF58
 2045 05c7 01       		.byte	0x1
 2046 05c8 4A05     		.2byte	0x54a
 2047 05ca 00000000 		.4byte	.LFB24
 2048 05ce 24000000 		.4byte	.LFE24-.LFB24
 2049 05d2 01       		.uleb128 0x1
 2050 05d3 9C       		.byte	0x9c
 2051 05d4 FB050000 		.4byte	0x5fb
 2052 05d8 17       		.uleb128 0x17
 2053 05d9 24050000 		.4byte	.LASF28
 2054 05dd 01       		.byte	0x1
 2055 05de 4C05     		.2byte	0x54c
 2056 05e0 6B000000 		.4byte	0x6b
 2057 05e4 78020000 		.4byte	.LLST18
 2058 05e8 11       		.uleb128 0x11
 2059 05e9 06000000 		.4byte	.LVL65
 2060 05ed 55080000 		.4byte	0x855
 2061 05f1 12       		.uleb128 0x12
 2062 05f2 20000000 		.4byte	.LVL66
ARM GAS  C:\Users\Yiquing\AppData\Local\Temp\ccvaGiH9.s 			page 67


 2063 05f6 60080000 		.4byte	0x860
 2064 05fa 00       		.byte	0
 2065 05fb 19       		.uleb128 0x19
 2066 05fc C9000000 		.4byte	.LASF59
 2067 0600 01       		.byte	0x1
 2068 0601 A005     		.2byte	0x5a0
 2069 0603 00000000 		.4byte	.LFB25
 2070 0607 5C000000 		.4byte	.LFE25-.LFB25
 2071 060b 01       		.uleb128 0x1
 2072 060c 9C       		.byte	0x9c
 2073 060d 94060000 		.4byte	0x694
 2074 0611 1C       		.uleb128 0x1c
 2075 0612 A2010000 		.4byte	.LASF60
 2076 0616 01       		.byte	0x1
 2077 0617 A005     		.2byte	0x5a0
 2078 0619 6B000000 		.4byte	0x6b
 2079 061d 8B020000 		.4byte	.LLST19
 2080 0621 1F       		.uleb128 0x1f
 2081 0622 06000000 		.4byte	.LBB31
 2082 0626 56000000 		.4byte	.LBE31-.LBB31
 2083 062a 17       		.uleb128 0x17
 2084 062b 1C050000 		.4byte	.LASF61
 2085 062f 01       		.byte	0x1
 2086 0630 A805     		.2byte	0x5a8
 2087 0632 6B000000 		.4byte	0x6b
 2088 0636 D0020000 		.4byte	.LLST20
 2089 063a 20       		.uleb128 0x20
 2090 063b ED000000 		.4byte	0xed
 2091 063f 0C000000 		.4byte	.LBB32
 2092 0643 04000000 		.4byte	.LBE32-.LBB32
 2093 0647 01       		.byte	0x1
 2094 0648 B005     		.2byte	0x5b0
 2095 064a 21       		.uleb128 0x21
 2096 064b FA000000 		.4byte	0xfa
 2097 064f 14000000 		.4byte	.LBB34
 2098 0653 02000000 		.4byte	.LBE34-.LBB34
 2099 0657 01       		.byte	0x1
 2100 0658 B005     		.2byte	0x5b0
 2101 065a 68060000 		.4byte	0x668
 2102 065e 22       		.uleb128 0x22
 2103 065f 07010000 		.4byte	0x107
 2104 0663 EE020000 		.4byte	.LLST21
 2105 0667 00       		.byte	0
 2106 0668 20       		.uleb128 0x20
 2107 0669 ED000000 		.4byte	0xed
 2108 066d 3E000000 		.4byte	.LBB36
 2109 0671 04000000 		.4byte	.LBE36-.LBB36
 2110 0675 01       		.byte	0x1
 2111 0676 CA05     		.2byte	0x5ca
 2112 0678 23       		.uleb128 0x23
 2113 0679 FA000000 		.4byte	0xfa
 2114 067d 46000000 		.4byte	.LBB38
 2115 0681 04000000 		.4byte	.LBE38-.LBB38
 2116 0685 01       		.byte	0x1
 2117 0686 CA05     		.2byte	0x5ca
 2118 0688 22       		.uleb128 0x22
 2119 0689 07010000 		.4byte	0x107
ARM GAS  C:\Users\Yiquing\AppData\Local\Temp\ccvaGiH9.s 			page 68


 2120 068d 01030000 		.4byte	.LLST22
 2121 0691 00       		.byte	0
 2122 0692 00       		.byte	0
 2123 0693 00       		.byte	0
 2124 0694 19       		.uleb128 0x19
 2125 0695 56010000 		.4byte	.LASF62
 2126 0699 01       		.byte	0x1
 2127 069a 2406     		.2byte	0x624
 2128 069c 00000000 		.4byte	.LFB26
 2129 06a0 18000000 		.4byte	.LFE26-.LFB26
 2130 06a4 01       		.uleb128 0x1
 2131 06a5 9C       		.byte	0x9c
 2132 06a6 E1060000 		.4byte	0x6e1
 2133 06aa 1A       		.uleb128 0x1a
 2134 06ab 87010000 		.4byte	.LASF44
 2135 06af 01       		.byte	0x1
 2136 06b0 2406     		.2byte	0x624
 2137 06b2 6B000000 		.4byte	0x6b
 2138 06b6 01       		.uleb128 0x1
 2139 06b7 50       		.byte	0x50
 2140 06b8 20       		.uleb128 0x20
 2141 06b9 ED000000 		.4byte	0xed
 2142 06bd 02000000 		.4byte	.LBB40
 2143 06c1 02000000 		.4byte	.LBE40-.LBB40
 2144 06c5 01       		.byte	0x1
 2145 06c6 2A06     		.2byte	0x62a
 2146 06c8 23       		.uleb128 0x23
 2147 06c9 FA000000 		.4byte	0xfa
 2148 06cd 10000000 		.4byte	.LBB42
 2149 06d1 08000000 		.4byte	.LBE42-.LBB42
 2150 06d5 01       		.byte	0x1
 2151 06d6 3106     		.2byte	0x631
 2152 06d8 15       		.uleb128 0x15
 2153 06d9 07010000 		.4byte	0x107
 2154 06dd 01       		.uleb128 0x1
 2155 06de 52       		.byte	0x52
 2156 06df 00       		.byte	0
 2157 06e0 00       		.byte	0
 2158 06e1 19       		.uleb128 0x19
 2159 06e2 24010000 		.4byte	.LASF63
 2160 06e6 01       		.byte	0x1
 2161 06e7 5006     		.2byte	0x650
 2162 06e9 00000000 		.4byte	.LFB27
 2163 06ed 20000000 		.4byte	.LFE27-.LFB27
 2164 06f1 01       		.uleb128 0x1
 2165 06f2 9C       		.byte	0x9c
 2166 06f3 3D070000 		.4byte	0x73d
 2167 06f7 20       		.uleb128 0x20
 2168 06f8 ED000000 		.4byte	0xed
 2169 06fc 00000000 		.4byte	.LBB44
 2170 0700 04000000 		.4byte	.LBE44-.LBB44
 2171 0704 01       		.byte	0x1
 2172 0705 5206     		.2byte	0x652
 2173 0707 24       		.uleb128 0x24
 2174 0708 14010000 		.4byte	0x114
 2175 070c 04000000 		.4byte	.LBB46
 2176 0710 00000000 		.4byte	.Ldebug_ranges0+0
ARM GAS  C:\Users\Yiquing\AppData\Local\Temp\ccvaGiH9.s 			page 69


 2177 0714 01       		.byte	0x1
 2178 0715 5806     		.2byte	0x658
 2179 0717 22070000 		.4byte	0x722
 2180 071b 25       		.uleb128 0x25
 2181 071c 21010000 		.4byte	0x121
 2182 0720 20       		.byte	0x20
 2183 0721 00       		.byte	0
 2184 0722 23       		.uleb128 0x23
 2185 0723 FA000000 		.4byte	0xfa
 2186 0727 0A000000 		.4byte	.LBB49
 2187 072b 04000000 		.4byte	.LBE49-.LBB49
 2188 072f 01       		.byte	0x1
 2189 0730 5206     		.2byte	0x652
 2190 0732 22       		.uleb128 0x22
 2191 0733 07010000 		.4byte	0x107
 2192 0737 14030000 		.4byte	.LLST23
 2193 073b 00       		.byte	0
 2194 073c 00       		.byte	0
 2195 073d 19       		.uleb128 0x19
 2196 073e 52050000 		.4byte	.LASF64
 2197 0742 01       		.byte	0x1
 2198 0743 7006     		.2byte	0x670
 2199 0745 00000000 		.4byte	.LFB28
 2200 0749 20000000 		.4byte	.LFE28-.LFB28
 2201 074d 01       		.uleb128 0x1
 2202 074e 9C       		.byte	0x9c
 2203 074f 99070000 		.4byte	0x799
 2204 0753 21       		.uleb128 0x21
 2205 0754 14010000 		.4byte	0x114
 2206 0758 00000000 		.4byte	.LBB52
 2207 075c 06000000 		.4byte	.LBE52-.LBB52
 2208 0760 01       		.byte	0x1
 2209 0761 7406     		.2byte	0x674
 2210 0763 6E070000 		.4byte	0x76e
 2211 0767 25       		.uleb128 0x25
 2212 0768 21010000 		.4byte	0x121
 2213 076c 00       		.byte	0
 2214 076d 00       		.byte	0
 2215 076e 20       		.uleb128 0x20
 2216 076f ED000000 		.4byte	0xed
 2217 0773 06000000 		.4byte	.LBB54
 2218 0777 04000000 		.4byte	.LBE54-.LBB54
 2219 077b 01       		.byte	0x1
 2220 077c 7706     		.2byte	0x677
 2221 077e 23       		.uleb128 0x23
 2222 077f FA000000 		.4byte	0xfa
 2223 0783 0E000000 		.4byte	.LBB56
 2224 0787 04000000 		.4byte	.LBE56-.LBB56
 2225 078b 01       		.byte	0x1
 2226 078c 7706     		.2byte	0x677
 2227 078e 22       		.uleb128 0x22
 2228 078f 07010000 		.4byte	0x107
 2229 0793 27030000 		.4byte	.LLST24
 2230 0797 00       		.byte	0
 2231 0798 00       		.byte	0
 2232 0799 26       		.uleb128 0x26
 2233 079a 60000000 		.4byte	.LASF65
ARM GAS  C:\Users\Yiquing\AppData\Local\Temp\ccvaGiH9.s 			page 70


 2234 079e 01       		.byte	0x1
 2235 079f 1B       		.byte	0x1b
 2236 07a0 6B000000 		.4byte	0x6b
 2237 07a4 05       		.uleb128 0x5
 2238 07a5 03       		.byte	0x3
 2239 07a6 00000000 		.4byte	UART_OSDP_initVar
 2240 07aa 26       		.uleb128 0x26
 2241 07ab D4040000 		.4byte	.LASF66
 2242 07af 01       		.byte	0x1
 2243 07b0 24       		.byte	0x24
 2244 07b1 6B000000 		.4byte	0x6b
 2245 07b5 05       		.uleb128 0x5
 2246 07b6 03       		.byte	0x3
 2247 07b7 00000000 		.4byte	UART_OSDP_errorStatus
 2248 07bb 27       		.uleb128 0x27
 2249 07bc 6B000000 		.4byte	0x6b
 2250 07c0 CB070000 		.4byte	0x7cb
 2251 07c4 28       		.uleb128 0x28
 2252 07c5 E6000000 		.4byte	0xe6
 2253 07c9 FF       		.byte	0xff
 2254 07ca 00       		.byte	0
 2255 07cb 26       		.uleb128 0x26
 2256 07cc 7B030000 		.4byte	.LASF67
 2257 07d0 01       		.byte	0x1
 2258 07d1 25       		.byte	0x25
 2259 07d2 DC070000 		.4byte	0x7dc
 2260 07d6 05       		.uleb128 0x5
 2261 07d7 03       		.byte	0x3
 2262 07d8 00000000 		.4byte	UART_OSDP_rxBuffer
 2263 07dc 06       		.uleb128 0x6
 2264 07dd BB070000 		.4byte	0x7bb
 2265 07e1 26       		.uleb128 0x26
 2266 07e2 DD020000 		.4byte	.LASF68
 2267 07e6 01       		.byte	0x1
 2268 07e7 26       		.byte	0x26
 2269 07e8 BD000000 		.4byte	0xbd
 2270 07ec 05       		.uleb128 0x5
 2271 07ed 03       		.byte	0x3
 2272 07ee 00000000 		.4byte	UART_OSDP_rxBufferRead
 2273 07f2 26       		.uleb128 0x26
 2274 07f3 27020000 		.4byte	.LASF69
 2275 07f7 01       		.byte	0x1
 2276 07f8 27       		.byte	0x27
 2277 07f9 BD000000 		.4byte	0xbd
 2278 07fd 05       		.uleb128 0x5
 2279 07fe 03       		.byte	0x3
 2280 07ff 00000000 		.4byte	UART_OSDP_rxBufferWrite
 2281 0803 26       		.uleb128 0x26
 2282 0804 CB050000 		.4byte	.LASF70
 2283 0808 01       		.byte	0x1
 2284 0809 28       		.byte	0x28
 2285 080a B8000000 		.4byte	0xb8
 2286 080e 05       		.uleb128 0x5
 2287 080f 03       		.byte	0x3
 2288 0810 00000000 		.4byte	UART_OSDP_rxBufferLoopDetect
 2289 0814 26       		.uleb128 0x26
 2290 0815 3B010000 		.4byte	.LASF71
ARM GAS  C:\Users\Yiquing\AppData\Local\Temp\ccvaGiH9.s 			page 71


 2291 0819 01       		.byte	0x1
 2292 081a 29       		.byte	0x29
 2293 081b B8000000 		.4byte	0xb8
 2294 081f 05       		.uleb128 0x5
 2295 0820 03       		.byte	0x3
 2296 0821 00000000 		.4byte	UART_OSDP_rxBufferOverflow
 2297 0825 29       		.uleb128 0x29
 2298 0826 81020000 		.4byte	.LASF79
 2299 082a 03       		.byte	0x3
 2300 082b 89       		.byte	0x89
 2301 082c D3000000 		.4byte	0xd3
 2302 0830 3F080000 		.4byte	0x83f
 2303 0834 2A       		.uleb128 0x2a
 2304 0835 6B000000 		.4byte	0x6b
 2305 0839 2A       		.uleb128 0x2a
 2306 083a D3000000 		.4byte	0xd3
 2307 083e 00       		.byte	0
 2308 083f 2B       		.uleb128 0x2b
 2309 0840 4A030000 		.4byte	.LASF72
 2310 0844 03       		.byte	0x3
 2311 0845 8C       		.byte	0x8c
 2312 0846 55080000 		.4byte	0x855
 2313 084a 2A       		.uleb128 0x2a
 2314 084b 6B000000 		.4byte	0x6b
 2315 084f 2A       		.uleb128 0x2a
 2316 0850 6B000000 		.4byte	0x6b
 2317 0854 00       		.byte	0
 2318 0855 2C       		.uleb128 0x2c
 2319 0856 3F020000 		.4byte	.LASF74
 2320 085a 03       		.byte	0x3
 2321 085b 7E       		.byte	0x7e
 2322 085c 6B000000 		.4byte	0x6b
 2323 0860 2D       		.uleb128 0x2d
 2324 0861 72000000 		.4byte	.LASF80
 2325 0865 03       		.byte	0x3
 2326 0866 7F       		.byte	0x7f
 2327 0867 2A       		.uleb128 0x2a
 2328 0868 6B000000 		.4byte	0x6b
 2329 086c 00       		.byte	0
 2330 086d 00       		.byte	0
 2331              		.section	.debug_abbrev,"",%progbits
 2332              	.Ldebug_abbrev0:
 2333 0000 01       		.uleb128 0x1
 2334 0001 11       		.uleb128 0x11
 2335 0002 01       		.byte	0x1
 2336 0003 25       		.uleb128 0x25
 2337 0004 0E       		.uleb128 0xe
 2338 0005 13       		.uleb128 0x13
 2339 0006 0B       		.uleb128 0xb
 2340 0007 03       		.uleb128 0x3
 2341 0008 0E       		.uleb128 0xe
 2342 0009 1B       		.uleb128 0x1b
 2343 000a 0E       		.uleb128 0xe
 2344 000b 55       		.uleb128 0x55
 2345 000c 17       		.uleb128 0x17
 2346 000d 11       		.uleb128 0x11
 2347 000e 01       		.uleb128 0x1
ARM GAS  C:\Users\Yiquing\AppData\Local\Temp\ccvaGiH9.s 			page 72


 2348 000f 10       		.uleb128 0x10
 2349 0010 17       		.uleb128 0x17
 2350 0011 00       		.byte	0
 2351 0012 00       		.byte	0
 2352 0013 02       		.uleb128 0x2
 2353 0014 24       		.uleb128 0x24
 2354 0015 00       		.byte	0
 2355 0016 0B       		.uleb128 0xb
 2356 0017 0B       		.uleb128 0xb
 2357 0018 3E       		.uleb128 0x3e
 2358 0019 0B       		.uleb128 0xb
 2359 001a 03       		.uleb128 0x3
 2360 001b 0E       		.uleb128 0xe
 2361 001c 00       		.byte	0
 2362 001d 00       		.byte	0
 2363 001e 03       		.uleb128 0x3
 2364 001f 24       		.uleb128 0x24
 2365 0020 00       		.byte	0
 2366 0021 0B       		.uleb128 0xb
 2367 0022 0B       		.uleb128 0xb
 2368 0023 3E       		.uleb128 0x3e
 2369 0024 0B       		.uleb128 0xb
 2370 0025 03       		.uleb128 0x3
 2371 0026 08       		.uleb128 0x8
 2372 0027 00       		.byte	0
 2373 0028 00       		.byte	0
 2374 0029 04       		.uleb128 0x4
 2375 002a 16       		.uleb128 0x16
 2376 002b 00       		.byte	0
 2377 002c 03       		.uleb128 0x3
 2378 002d 0E       		.uleb128 0xe
 2379 002e 3A       		.uleb128 0x3a
 2380 002f 0B       		.uleb128 0xb
 2381 0030 3B       		.uleb128 0x3b
 2382 0031 0B       		.uleb128 0xb
 2383 0032 49       		.uleb128 0x49
 2384 0033 13       		.uleb128 0x13
 2385 0034 00       		.byte	0
 2386 0035 00       		.byte	0
 2387 0036 05       		.uleb128 0x5
 2388 0037 16       		.uleb128 0x16
 2389 0038 00       		.byte	0
 2390 0039 03       		.uleb128 0x3
 2391 003a 0E       		.uleb128 0xe
 2392 003b 3A       		.uleb128 0x3a
 2393 003c 0B       		.uleb128 0xb
 2394 003d 3B       		.uleb128 0x3b
 2395 003e 05       		.uleb128 0x5
 2396 003f 49       		.uleb128 0x49
 2397 0040 13       		.uleb128 0x13
 2398 0041 00       		.byte	0
 2399 0042 00       		.byte	0
 2400 0043 06       		.uleb128 0x6
 2401 0044 35       		.uleb128 0x35
 2402 0045 00       		.byte	0
 2403 0046 49       		.uleb128 0x49
 2404 0047 13       		.uleb128 0x13
ARM GAS  C:\Users\Yiquing\AppData\Local\Temp\ccvaGiH9.s 			page 73


 2405 0048 00       		.byte	0
 2406 0049 00       		.byte	0
 2407 004a 07       		.uleb128 0x7
 2408 004b 0F       		.uleb128 0xf
 2409 004c 00       		.byte	0
 2410 004d 0B       		.uleb128 0xb
 2411 004e 0B       		.uleb128 0xb
 2412 004f 49       		.uleb128 0x49
 2413 0050 13       		.uleb128 0x13
 2414 0051 00       		.byte	0
 2415 0052 00       		.byte	0
 2416 0053 08       		.uleb128 0x8
 2417 0054 15       		.uleb128 0x15
 2418 0055 00       		.byte	0
 2419 0056 27       		.uleb128 0x27
 2420 0057 19       		.uleb128 0x19
 2421 0058 00       		.byte	0
 2422 0059 00       		.byte	0
 2423 005a 09       		.uleb128 0x9
 2424 005b 2E       		.uleb128 0x2e
 2425 005c 00       		.byte	0
 2426 005d 3F       		.uleb128 0x3f
 2427 005e 19       		.uleb128 0x19
 2428 005f 03       		.uleb128 0x3
 2429 0060 0E       		.uleb128 0xe
 2430 0061 3A       		.uleb128 0x3a
 2431 0062 0B       		.uleb128 0xb
 2432 0063 3B       		.uleb128 0x3b
 2433 0064 05       		.uleb128 0x5
 2434 0065 27       		.uleb128 0x27
 2435 0066 19       		.uleb128 0x19
 2436 0067 49       		.uleb128 0x49
 2437 0068 13       		.uleb128 0x13
 2438 0069 20       		.uleb128 0x20
 2439 006a 0B       		.uleb128 0xb
 2440 006b 00       		.byte	0
 2441 006c 00       		.byte	0
 2442 006d 0A       		.uleb128 0xa
 2443 006e 2E       		.uleb128 0x2e
 2444 006f 01       		.byte	0x1
 2445 0070 3F       		.uleb128 0x3f
 2446 0071 19       		.uleb128 0x19
 2447 0072 03       		.uleb128 0x3
 2448 0073 0E       		.uleb128 0xe
 2449 0074 3A       		.uleb128 0x3a
 2450 0075 0B       		.uleb128 0xb
 2451 0076 3B       		.uleb128 0x3b
 2452 0077 05       		.uleb128 0x5
 2453 0078 27       		.uleb128 0x27
 2454 0079 19       		.uleb128 0x19
 2455 007a 20       		.uleb128 0x20
 2456 007b 0B       		.uleb128 0xb
 2457 007c 01       		.uleb128 0x1
 2458 007d 13       		.uleb128 0x13
 2459 007e 00       		.byte	0
 2460 007f 00       		.byte	0
 2461 0080 0B       		.uleb128 0xb
ARM GAS  C:\Users\Yiquing\AppData\Local\Temp\ccvaGiH9.s 			page 74


 2462 0081 05       		.uleb128 0x5
 2463 0082 00       		.byte	0
 2464 0083 03       		.uleb128 0x3
 2465 0084 0E       		.uleb128 0xe
 2466 0085 3A       		.uleb128 0x3a
 2467 0086 0B       		.uleb128 0xb
 2468 0087 3B       		.uleb128 0x3b
 2469 0088 05       		.uleb128 0x5
 2470 0089 49       		.uleb128 0x49
 2471 008a 13       		.uleb128 0x13
 2472 008b 00       		.byte	0
 2473 008c 00       		.byte	0
 2474 008d 0C       		.uleb128 0xc
 2475 008e 2E       		.uleb128 0x2e
 2476 008f 01       		.byte	0x1
 2477 0090 3F       		.uleb128 0x3f
 2478 0091 19       		.uleb128 0x19
 2479 0092 03       		.uleb128 0x3
 2480 0093 0E       		.uleb128 0xe
 2481 0094 3A       		.uleb128 0x3a
 2482 0095 0B       		.uleb128 0xb
 2483 0096 3B       		.uleb128 0x3b
 2484 0097 0B       		.uleb128 0xb
 2485 0098 27       		.uleb128 0x27
 2486 0099 19       		.uleb128 0x19
 2487 009a 11       		.uleb128 0x11
 2488 009b 01       		.uleb128 0x1
 2489 009c 12       		.uleb128 0x12
 2490 009d 06       		.uleb128 0x6
 2491 009e 40       		.uleb128 0x40
 2492 009f 18       		.uleb128 0x18
 2493 00a0 9742     		.uleb128 0x2117
 2494 00a2 19       		.uleb128 0x19
 2495 00a3 01       		.uleb128 0x1
 2496 00a4 13       		.uleb128 0x13
 2497 00a5 00       		.byte	0
 2498 00a6 00       		.byte	0
 2499 00a7 0D       		.uleb128 0xd
 2500 00a8 898201   		.uleb128 0x4109
 2501 00ab 01       		.byte	0x1
 2502 00ac 11       		.uleb128 0x11
 2503 00ad 01       		.uleb128 0x1
 2504 00ae 31       		.uleb128 0x31
 2505 00af 13       		.uleb128 0x13
 2506 00b0 01       		.uleb128 0x1
 2507 00b1 13       		.uleb128 0x13
 2508 00b2 00       		.byte	0
 2509 00b3 00       		.byte	0
 2510 00b4 0E       		.uleb128 0xe
 2511 00b5 8A8201   		.uleb128 0x410a
 2512 00b8 00       		.byte	0
 2513 00b9 02       		.uleb128 0x2
 2514 00ba 18       		.uleb128 0x18
 2515 00bb 9142     		.uleb128 0x2111
 2516 00bd 18       		.uleb128 0x18
 2517 00be 00       		.byte	0
 2518 00bf 00       		.byte	0
ARM GAS  C:\Users\Yiquing\AppData\Local\Temp\ccvaGiH9.s 			page 75


 2519 00c0 0F       		.uleb128 0xf
 2520 00c1 898201   		.uleb128 0x4109
 2521 00c4 01       		.byte	0x1
 2522 00c5 11       		.uleb128 0x11
 2523 00c6 01       		.uleb128 0x1
 2524 00c7 31       		.uleb128 0x31
 2525 00c8 13       		.uleb128 0x13
 2526 00c9 00       		.byte	0
 2527 00ca 00       		.byte	0
 2528 00cb 10       		.uleb128 0x10
 2529 00cc 34       		.uleb128 0x34
 2530 00cd 00       		.byte	0
 2531 00ce 03       		.uleb128 0x3
 2532 00cf 0E       		.uleb128 0xe
 2533 00d0 3A       		.uleb128 0x3a
 2534 00d1 0B       		.uleb128 0xb
 2535 00d2 3B       		.uleb128 0x3b
 2536 00d3 0B       		.uleb128 0xb
 2537 00d4 49       		.uleb128 0x49
 2538 00d5 13       		.uleb128 0x13
 2539 00d6 02       		.uleb128 0x2
 2540 00d7 17       		.uleb128 0x17
 2541 00d8 00       		.byte	0
 2542 00d9 00       		.byte	0
 2543 00da 11       		.uleb128 0x11
 2544 00db 898201   		.uleb128 0x4109
 2545 00de 00       		.byte	0
 2546 00df 11       		.uleb128 0x11
 2547 00e0 01       		.uleb128 0x1
 2548 00e1 31       		.uleb128 0x31
 2549 00e2 13       		.uleb128 0x13
 2550 00e3 00       		.byte	0
 2551 00e4 00       		.byte	0
 2552 00e5 12       		.uleb128 0x12
 2553 00e6 898201   		.uleb128 0x4109
 2554 00e9 00       		.byte	0
 2555 00ea 11       		.uleb128 0x11
 2556 00eb 01       		.uleb128 0x1
 2557 00ec 9542     		.uleb128 0x2115
 2558 00ee 19       		.uleb128 0x19
 2559 00ef 31       		.uleb128 0x31
 2560 00f0 13       		.uleb128 0x13
 2561 00f1 00       		.byte	0
 2562 00f2 00       		.byte	0
 2563 00f3 13       		.uleb128 0x13
 2564 00f4 2E       		.uleb128 0x2e
 2565 00f5 00       		.byte	0
 2566 00f6 31       		.uleb128 0x31
 2567 00f7 13       		.uleb128 0x13
 2568 00f8 11       		.uleb128 0x11
 2569 00f9 01       		.uleb128 0x1
 2570 00fa 12       		.uleb128 0x12
 2571 00fb 06       		.uleb128 0x6
 2572 00fc 40       		.uleb128 0x40
 2573 00fd 18       		.uleb128 0x18
 2574 00fe 9742     		.uleb128 0x2117
 2575 0100 19       		.uleb128 0x19
ARM GAS  C:\Users\Yiquing\AppData\Local\Temp\ccvaGiH9.s 			page 76


 2576 0101 00       		.byte	0
 2577 0102 00       		.byte	0
 2578 0103 14       		.uleb128 0x14
 2579 0104 2E       		.uleb128 0x2e
 2580 0105 01       		.byte	0x1
 2581 0106 31       		.uleb128 0x31
 2582 0107 13       		.uleb128 0x13
 2583 0108 11       		.uleb128 0x11
 2584 0109 01       		.uleb128 0x1
 2585 010a 12       		.uleb128 0x12
 2586 010b 06       		.uleb128 0x6
 2587 010c 40       		.uleb128 0x40
 2588 010d 18       		.uleb128 0x18
 2589 010e 9742     		.uleb128 0x2117
 2590 0110 19       		.uleb128 0x19
 2591 0111 01       		.uleb128 0x1
 2592 0112 13       		.uleb128 0x13
 2593 0113 00       		.byte	0
 2594 0114 00       		.byte	0
 2595 0115 15       		.uleb128 0x15
 2596 0116 05       		.uleb128 0x5
 2597 0117 00       		.byte	0
 2598 0118 31       		.uleb128 0x31
 2599 0119 13       		.uleb128 0x13
 2600 011a 02       		.uleb128 0x2
 2601 011b 18       		.uleb128 0x18
 2602 011c 00       		.byte	0
 2603 011d 00       		.byte	0
 2604 011e 16       		.uleb128 0x16
 2605 011f 2E       		.uleb128 0x2e
 2606 0120 01       		.byte	0x1
 2607 0121 3F       		.uleb128 0x3f
 2608 0122 19       		.uleb128 0x19
 2609 0123 03       		.uleb128 0x3
 2610 0124 0E       		.uleb128 0xe
 2611 0125 3A       		.uleb128 0x3a
 2612 0126 0B       		.uleb128 0xb
 2613 0127 3B       		.uleb128 0x3b
 2614 0128 05       		.uleb128 0x5
 2615 0129 27       		.uleb128 0x27
 2616 012a 19       		.uleb128 0x19
 2617 012b 49       		.uleb128 0x49
 2618 012c 13       		.uleb128 0x13
 2619 012d 11       		.uleb128 0x11
 2620 012e 01       		.uleb128 0x1
 2621 012f 12       		.uleb128 0x12
 2622 0130 06       		.uleb128 0x6
 2623 0131 40       		.uleb128 0x40
 2624 0132 18       		.uleb128 0x18
 2625 0133 9742     		.uleb128 0x2117
 2626 0135 19       		.uleb128 0x19
 2627 0136 01       		.uleb128 0x1
 2628 0137 13       		.uleb128 0x13
 2629 0138 00       		.byte	0
 2630 0139 00       		.byte	0
 2631 013a 17       		.uleb128 0x17
 2632 013b 34       		.uleb128 0x34
ARM GAS  C:\Users\Yiquing\AppData\Local\Temp\ccvaGiH9.s 			page 77


 2633 013c 00       		.byte	0
 2634 013d 03       		.uleb128 0x3
 2635 013e 0E       		.uleb128 0xe
 2636 013f 3A       		.uleb128 0x3a
 2637 0140 0B       		.uleb128 0xb
 2638 0141 3B       		.uleb128 0x3b
 2639 0142 05       		.uleb128 0x5
 2640 0143 49       		.uleb128 0x49
 2641 0144 13       		.uleb128 0x13
 2642 0145 02       		.uleb128 0x2
 2643 0146 17       		.uleb128 0x17
 2644 0147 00       		.byte	0
 2645 0148 00       		.byte	0
 2646 0149 18       		.uleb128 0x18
 2647 014a 34       		.uleb128 0x34
 2648 014b 00       		.byte	0
 2649 014c 03       		.uleb128 0x3
 2650 014d 0E       		.uleb128 0xe
 2651 014e 3A       		.uleb128 0x3a
 2652 014f 0B       		.uleb128 0xb
 2653 0150 3B       		.uleb128 0x3b
 2654 0151 05       		.uleb128 0x5
 2655 0152 49       		.uleb128 0x49
 2656 0153 13       		.uleb128 0x13
 2657 0154 02       		.uleb128 0x2
 2658 0155 18       		.uleb128 0x18
 2659 0156 00       		.byte	0
 2660 0157 00       		.byte	0
 2661 0158 19       		.uleb128 0x19
 2662 0159 2E       		.uleb128 0x2e
 2663 015a 01       		.byte	0x1
 2664 015b 3F       		.uleb128 0x3f
 2665 015c 19       		.uleb128 0x19
 2666 015d 03       		.uleb128 0x3
 2667 015e 0E       		.uleb128 0xe
 2668 015f 3A       		.uleb128 0x3a
 2669 0160 0B       		.uleb128 0xb
 2670 0161 3B       		.uleb128 0x3b
 2671 0162 05       		.uleb128 0x5
 2672 0163 27       		.uleb128 0x27
 2673 0164 19       		.uleb128 0x19
 2674 0165 11       		.uleb128 0x11
 2675 0166 01       		.uleb128 0x1
 2676 0167 12       		.uleb128 0x12
 2677 0168 06       		.uleb128 0x6
 2678 0169 40       		.uleb128 0x40
 2679 016a 18       		.uleb128 0x18
 2680 016b 9742     		.uleb128 0x2117
 2681 016d 19       		.uleb128 0x19
 2682 016e 01       		.uleb128 0x1
 2683 016f 13       		.uleb128 0x13
 2684 0170 00       		.byte	0
 2685 0171 00       		.byte	0
 2686 0172 1A       		.uleb128 0x1a
 2687 0173 05       		.uleb128 0x5
 2688 0174 00       		.byte	0
 2689 0175 03       		.uleb128 0x3
ARM GAS  C:\Users\Yiquing\AppData\Local\Temp\ccvaGiH9.s 			page 78


 2690 0176 0E       		.uleb128 0xe
 2691 0177 3A       		.uleb128 0x3a
 2692 0178 0B       		.uleb128 0xb
 2693 0179 3B       		.uleb128 0x3b
 2694 017a 05       		.uleb128 0x5
 2695 017b 49       		.uleb128 0x49
 2696 017c 13       		.uleb128 0x13
 2697 017d 02       		.uleb128 0x2
 2698 017e 18       		.uleb128 0x18
 2699 017f 00       		.byte	0
 2700 0180 00       		.byte	0
 2701 0181 1B       		.uleb128 0x1b
 2702 0182 2E       		.uleb128 0x2e
 2703 0183 00       		.byte	0
 2704 0184 3F       		.uleb128 0x3f
 2705 0185 19       		.uleb128 0x19
 2706 0186 03       		.uleb128 0x3
 2707 0187 0E       		.uleb128 0xe
 2708 0188 3A       		.uleb128 0x3a
 2709 0189 0B       		.uleb128 0xb
 2710 018a 3B       		.uleb128 0x3b
 2711 018b 05       		.uleb128 0x5
 2712 018c 27       		.uleb128 0x27
 2713 018d 19       		.uleb128 0x19
 2714 018e 49       		.uleb128 0x49
 2715 018f 13       		.uleb128 0x13
 2716 0190 11       		.uleb128 0x11
 2717 0191 01       		.uleb128 0x1
 2718 0192 12       		.uleb128 0x12
 2719 0193 06       		.uleb128 0x6
 2720 0194 40       		.uleb128 0x40
 2721 0195 18       		.uleb128 0x18
 2722 0196 9742     		.uleb128 0x2117
 2723 0198 19       		.uleb128 0x19
 2724 0199 00       		.byte	0
 2725 019a 00       		.byte	0
 2726 019b 1C       		.uleb128 0x1c
 2727 019c 05       		.uleb128 0x5
 2728 019d 00       		.byte	0
 2729 019e 03       		.uleb128 0x3
 2730 019f 0E       		.uleb128 0xe
 2731 01a0 3A       		.uleb128 0x3a
 2732 01a1 0B       		.uleb128 0xb
 2733 01a2 3B       		.uleb128 0x3b
 2734 01a3 05       		.uleb128 0x5
 2735 01a4 49       		.uleb128 0x49
 2736 01a5 13       		.uleb128 0x13
 2737 01a6 02       		.uleb128 0x2
 2738 01a7 17       		.uleb128 0x17
 2739 01a8 00       		.byte	0
 2740 01a9 00       		.byte	0
 2741 01aa 1D       		.uleb128 0x1d
 2742 01ab 26       		.uleb128 0x26
 2743 01ac 00       		.byte	0
 2744 01ad 49       		.uleb128 0x49
 2745 01ae 13       		.uleb128 0x13
 2746 01af 00       		.byte	0
ARM GAS  C:\Users\Yiquing\AppData\Local\Temp\ccvaGiH9.s 			page 79


 2747 01b0 00       		.byte	0
 2748 01b1 1E       		.uleb128 0x1e
 2749 01b2 898201   		.uleb128 0x4109
 2750 01b5 01       		.byte	0x1
 2751 01b6 11       		.uleb128 0x11
 2752 01b7 01       		.uleb128 0x1
 2753 01b8 9542     		.uleb128 0x2115
 2754 01ba 19       		.uleb128 0x19
 2755 01bb 31       		.uleb128 0x31
 2756 01bc 13       		.uleb128 0x13
 2757 01bd 00       		.byte	0
 2758 01be 00       		.byte	0
 2759 01bf 1F       		.uleb128 0x1f
 2760 01c0 0B       		.uleb128 0xb
 2761 01c1 01       		.byte	0x1
 2762 01c2 11       		.uleb128 0x11
 2763 01c3 01       		.uleb128 0x1
 2764 01c4 12       		.uleb128 0x12
 2765 01c5 06       		.uleb128 0x6
 2766 01c6 00       		.byte	0
 2767 01c7 00       		.byte	0
 2768 01c8 20       		.uleb128 0x20
 2769 01c9 1D       		.uleb128 0x1d
 2770 01ca 00       		.byte	0
 2771 01cb 31       		.uleb128 0x31
 2772 01cc 13       		.uleb128 0x13
 2773 01cd 11       		.uleb128 0x11
 2774 01ce 01       		.uleb128 0x1
 2775 01cf 12       		.uleb128 0x12
 2776 01d0 06       		.uleb128 0x6
 2777 01d1 58       		.uleb128 0x58
 2778 01d2 0B       		.uleb128 0xb
 2779 01d3 59       		.uleb128 0x59
 2780 01d4 05       		.uleb128 0x5
 2781 01d5 00       		.byte	0
 2782 01d6 00       		.byte	0
 2783 01d7 21       		.uleb128 0x21
 2784 01d8 1D       		.uleb128 0x1d
 2785 01d9 01       		.byte	0x1
 2786 01da 31       		.uleb128 0x31
 2787 01db 13       		.uleb128 0x13
 2788 01dc 11       		.uleb128 0x11
 2789 01dd 01       		.uleb128 0x1
 2790 01de 12       		.uleb128 0x12
 2791 01df 06       		.uleb128 0x6
 2792 01e0 58       		.uleb128 0x58
 2793 01e1 0B       		.uleb128 0xb
 2794 01e2 59       		.uleb128 0x59
 2795 01e3 05       		.uleb128 0x5
 2796 01e4 01       		.uleb128 0x1
 2797 01e5 13       		.uleb128 0x13
 2798 01e6 00       		.byte	0
 2799 01e7 00       		.byte	0
 2800 01e8 22       		.uleb128 0x22
 2801 01e9 05       		.uleb128 0x5
 2802 01ea 00       		.byte	0
 2803 01eb 31       		.uleb128 0x31
ARM GAS  C:\Users\Yiquing\AppData\Local\Temp\ccvaGiH9.s 			page 80


 2804 01ec 13       		.uleb128 0x13
 2805 01ed 02       		.uleb128 0x2
 2806 01ee 17       		.uleb128 0x17
 2807 01ef 00       		.byte	0
 2808 01f0 00       		.byte	0
 2809 01f1 23       		.uleb128 0x23
 2810 01f2 1D       		.uleb128 0x1d
 2811 01f3 01       		.byte	0x1
 2812 01f4 31       		.uleb128 0x31
 2813 01f5 13       		.uleb128 0x13
 2814 01f6 11       		.uleb128 0x11
 2815 01f7 01       		.uleb128 0x1
 2816 01f8 12       		.uleb128 0x12
 2817 01f9 06       		.uleb128 0x6
 2818 01fa 58       		.uleb128 0x58
 2819 01fb 0B       		.uleb128 0xb
 2820 01fc 59       		.uleb128 0x59
 2821 01fd 05       		.uleb128 0x5
 2822 01fe 00       		.byte	0
 2823 01ff 00       		.byte	0
 2824 0200 24       		.uleb128 0x24
 2825 0201 1D       		.uleb128 0x1d
 2826 0202 01       		.byte	0x1
 2827 0203 31       		.uleb128 0x31
 2828 0204 13       		.uleb128 0x13
 2829 0205 52       		.uleb128 0x52
 2830 0206 01       		.uleb128 0x1
 2831 0207 55       		.uleb128 0x55
 2832 0208 17       		.uleb128 0x17
 2833 0209 58       		.uleb128 0x58
 2834 020a 0B       		.uleb128 0xb
 2835 020b 59       		.uleb128 0x59
 2836 020c 05       		.uleb128 0x5
 2837 020d 01       		.uleb128 0x1
 2838 020e 13       		.uleb128 0x13
 2839 020f 00       		.byte	0
 2840 0210 00       		.byte	0
 2841 0211 25       		.uleb128 0x25
 2842 0212 05       		.uleb128 0x5
 2843 0213 00       		.byte	0
 2844 0214 31       		.uleb128 0x31
 2845 0215 13       		.uleb128 0x13
 2846 0216 1C       		.uleb128 0x1c
 2847 0217 0B       		.uleb128 0xb
 2848 0218 00       		.byte	0
 2849 0219 00       		.byte	0
 2850 021a 26       		.uleb128 0x26
 2851 021b 34       		.uleb128 0x34
 2852 021c 00       		.byte	0
 2853 021d 03       		.uleb128 0x3
 2854 021e 0E       		.uleb128 0xe
 2855 021f 3A       		.uleb128 0x3a
 2856 0220 0B       		.uleb128 0xb
 2857 0221 3B       		.uleb128 0x3b
 2858 0222 0B       		.uleb128 0xb
 2859 0223 49       		.uleb128 0x49
 2860 0224 13       		.uleb128 0x13
ARM GAS  C:\Users\Yiquing\AppData\Local\Temp\ccvaGiH9.s 			page 81


 2861 0225 3F       		.uleb128 0x3f
 2862 0226 19       		.uleb128 0x19
 2863 0227 02       		.uleb128 0x2
 2864 0228 18       		.uleb128 0x18
 2865 0229 00       		.byte	0
 2866 022a 00       		.byte	0
 2867 022b 27       		.uleb128 0x27
 2868 022c 01       		.uleb128 0x1
 2869 022d 01       		.byte	0x1
 2870 022e 49       		.uleb128 0x49
 2871 022f 13       		.uleb128 0x13
 2872 0230 01       		.uleb128 0x1
 2873 0231 13       		.uleb128 0x13
 2874 0232 00       		.byte	0
 2875 0233 00       		.byte	0
 2876 0234 28       		.uleb128 0x28
 2877 0235 21       		.uleb128 0x21
 2878 0236 00       		.byte	0
 2879 0237 49       		.uleb128 0x49
 2880 0238 13       		.uleb128 0x13
 2881 0239 2F       		.uleb128 0x2f
 2882 023a 0B       		.uleb128 0xb
 2883 023b 00       		.byte	0
 2884 023c 00       		.byte	0
 2885 023d 29       		.uleb128 0x29
 2886 023e 2E       		.uleb128 0x2e
 2887 023f 01       		.byte	0x1
 2888 0240 3F       		.uleb128 0x3f
 2889 0241 19       		.uleb128 0x19
 2890 0242 03       		.uleb128 0x3
 2891 0243 0E       		.uleb128 0xe
 2892 0244 3A       		.uleb128 0x3a
 2893 0245 0B       		.uleb128 0xb
 2894 0246 3B       		.uleb128 0x3b
 2895 0247 0B       		.uleb128 0xb
 2896 0248 27       		.uleb128 0x27
 2897 0249 19       		.uleb128 0x19
 2898 024a 49       		.uleb128 0x49
 2899 024b 13       		.uleb128 0x13
 2900 024c 3C       		.uleb128 0x3c
 2901 024d 19       		.uleb128 0x19
 2902 024e 01       		.uleb128 0x1
 2903 024f 13       		.uleb128 0x13
 2904 0250 00       		.byte	0
 2905 0251 00       		.byte	0
 2906 0252 2A       		.uleb128 0x2a
 2907 0253 05       		.uleb128 0x5
 2908 0254 00       		.byte	0
 2909 0255 49       		.uleb128 0x49
 2910 0256 13       		.uleb128 0x13
 2911 0257 00       		.byte	0
 2912 0258 00       		.byte	0
 2913 0259 2B       		.uleb128 0x2b
 2914 025a 2E       		.uleb128 0x2e
 2915 025b 01       		.byte	0x1
 2916 025c 3F       		.uleb128 0x3f
 2917 025d 19       		.uleb128 0x19
ARM GAS  C:\Users\Yiquing\AppData\Local\Temp\ccvaGiH9.s 			page 82


 2918 025e 03       		.uleb128 0x3
 2919 025f 0E       		.uleb128 0xe
 2920 0260 3A       		.uleb128 0x3a
 2921 0261 0B       		.uleb128 0xb
 2922 0262 3B       		.uleb128 0x3b
 2923 0263 0B       		.uleb128 0xb
 2924 0264 27       		.uleb128 0x27
 2925 0265 19       		.uleb128 0x19
 2926 0266 3C       		.uleb128 0x3c
 2927 0267 19       		.uleb128 0x19
 2928 0268 01       		.uleb128 0x1
 2929 0269 13       		.uleb128 0x13
 2930 026a 00       		.byte	0
 2931 026b 00       		.byte	0
 2932 026c 2C       		.uleb128 0x2c
 2933 026d 2E       		.uleb128 0x2e
 2934 026e 00       		.byte	0
 2935 026f 3F       		.uleb128 0x3f
 2936 0270 19       		.uleb128 0x19
 2937 0271 03       		.uleb128 0x3
 2938 0272 0E       		.uleb128 0xe
 2939 0273 3A       		.uleb128 0x3a
 2940 0274 0B       		.uleb128 0xb
 2941 0275 3B       		.uleb128 0x3b
 2942 0276 0B       		.uleb128 0xb
 2943 0277 27       		.uleb128 0x27
 2944 0278 19       		.uleb128 0x19
 2945 0279 49       		.uleb128 0x49
 2946 027a 13       		.uleb128 0x13
 2947 027b 3C       		.uleb128 0x3c
 2948 027c 19       		.uleb128 0x19
 2949 027d 00       		.byte	0
 2950 027e 00       		.byte	0
 2951 027f 2D       		.uleb128 0x2d
 2952 0280 2E       		.uleb128 0x2e
 2953 0281 01       		.byte	0x1
 2954 0282 3F       		.uleb128 0x3f
 2955 0283 19       		.uleb128 0x19
 2956 0284 03       		.uleb128 0x3
 2957 0285 0E       		.uleb128 0xe
 2958 0286 3A       		.uleb128 0x3a
 2959 0287 0B       		.uleb128 0xb
 2960 0288 3B       		.uleb128 0x3b
 2961 0289 0B       		.uleb128 0xb
 2962 028a 27       		.uleb128 0x27
 2963 028b 19       		.uleb128 0x19
 2964 028c 3C       		.uleb128 0x3c
 2965 028d 19       		.uleb128 0x19
 2966 028e 00       		.byte	0
 2967 028f 00       		.byte	0
 2968 0290 00       		.byte	0
 2969              		.section	.debug_loc,"",%progbits
 2970              	.Ldebug_loc0:
 2971              	.LLST0:
 2972 0000 06000000 		.4byte	.LVL2
 2973 0004 2B000000 		.4byte	.LVL3-1
 2974 0008 0100     		.2byte	0x1
ARM GAS  C:\Users\Yiquing\AppData\Local\Temp\ccvaGiH9.s 			page 83


 2975 000a 50       		.byte	0x50
 2976 000b 00000000 		.4byte	0
 2977 000f 00000000 		.4byte	0
 2978              	.LLST1:
 2979 0013 06000000 		.4byte	.LVL6
 2980 0017 2B000000 		.4byte	.LVL7-1
 2981 001b 0100     		.2byte	0x1
 2982 001d 50       		.byte	0x50
 2983 001e 00000000 		.4byte	0
 2984 0022 00000000 		.4byte	0
 2985              	.LLST2:
 2986 0026 2E000000 		.4byte	.LVL15
 2987 002a 38000000 		.4byte	.LVL16
 2988 002e 0100     		.2byte	0x1
 2989 0030 50       		.byte	0x50
 2990 0031 3E000000 		.4byte	.LVL18
 2991 0035 5C000000 		.4byte	.LFE7
 2992 0039 0100     		.2byte	0x1
 2993 003b 50       		.byte	0x50
 2994 003c 00000000 		.4byte	0
 2995 0040 00000000 		.4byte	0
 2996              	.LLST3:
 2997 0044 10000000 		.4byte	.LVL10
 2998 0048 1E000000 		.4byte	.LVL13
 2999 004c 0100     		.2byte	0x1
 3000 004e 53       		.byte	0x53
 3001 004f 1E000000 		.4byte	.LVL13
 3002 0053 20000000 		.4byte	.LVL14
 3003 0057 0300     		.2byte	0x3
 3004 0059 73       		.byte	0x73
 3005 005a 7F       		.sleb128 -1
 3006 005b 9F       		.byte	0x9f
 3007 005c 38000000 		.4byte	.LVL16
 3008 0060 3A000000 		.4byte	.LVL17
 3009 0064 0100     		.2byte	0x1
 3010 0066 53       		.byte	0x53
 3011 0067 00000000 		.4byte	0
 3012 006b 00000000 		.4byte	0
 3013              	.LLST4:
 3014 006f 12000000 		.4byte	.LVL11
 3015 0073 1A000000 		.4byte	.LVL12
 3016 0077 0100     		.2byte	0x1
 3017 0079 51       		.byte	0x51
 3018 007a 38000000 		.4byte	.LVL16
 3019 007e 3E000000 		.4byte	.LVL18
 3020 0082 0100     		.2byte	0x1
 3021 0084 51       		.byte	0x51
 3022 0085 00000000 		.4byte	0
 3023 0089 00000000 		.4byte	0
 3024              	.LLST5:
 3025 008d 00000000 		.4byte	.LVL22
 3026 0091 2E000000 		.4byte	.LVL28
 3027 0095 0200     		.2byte	0x2
 3028 0097 30       		.byte	0x30
 3029 0098 9F       		.byte	0x9f
 3030 0099 2E000000 		.4byte	.LVL28
 3031 009d 38000000 		.4byte	.LVL29
ARM GAS  C:\Users\Yiquing\AppData\Local\Temp\ccvaGiH9.s 			page 84


 3032 00a1 0100     		.2byte	0x1
 3033 00a3 50       		.byte	0x50
 3034 00a4 38000000 		.4byte	.LVL29
 3035 00a8 50000000 		.4byte	.LVL32
 3036 00ac 0200     		.2byte	0x2
 3037 00ae 30       		.byte	0x30
 3038 00af 9F       		.byte	0x9f
 3039 00b0 50000000 		.4byte	.LVL32
 3040 00b4 74000000 		.4byte	.LFE9
 3041 00b8 0100     		.2byte	0x1
 3042 00ba 50       		.byte	0x50
 3043 00bb 00000000 		.4byte	0
 3044 00bf 00000000 		.4byte	0
 3045              	.LLST6:
 3046 00c3 3E000000 		.4byte	.LVL31
 3047 00c7 54000000 		.4byte	.LVL33
 3048 00cb 0100     		.2byte	0x1
 3049 00cd 53       		.byte	0x53
 3050 00ce 00000000 		.4byte	0
 3051 00d2 00000000 		.4byte	0
 3052              	.LLST7:
 3053 00d6 10000000 		.4byte	.LVL23
 3054 00da 1E000000 		.4byte	.LVL26
 3055 00de 0100     		.2byte	0x1
 3056 00e0 53       		.byte	0x53
 3057 00e1 1E000000 		.4byte	.LVL26
 3058 00e5 20000000 		.4byte	.LVL27
 3059 00e9 0300     		.2byte	0x3
 3060 00eb 73       		.byte	0x73
 3061 00ec 7F       		.sleb128 -1
 3062 00ed 9F       		.byte	0x9f
 3063 00ee 38000000 		.4byte	.LVL29
 3064 00f2 3A000000 		.4byte	.LVL30
 3065 00f6 0100     		.2byte	0x1
 3066 00f8 53       		.byte	0x53
 3067 00f9 00000000 		.4byte	0
 3068 00fd 00000000 		.4byte	0
 3069              	.LLST8:
 3070 0101 12000000 		.4byte	.LVL24
 3071 0105 1A000000 		.4byte	.LVL25
 3072 0109 0100     		.2byte	0x1
 3073 010b 51       		.byte	0x51
 3074 010c 38000000 		.4byte	.LVL29
 3075 0110 54000000 		.4byte	.LVL33
 3076 0114 0100     		.2byte	0x1
 3077 0116 51       		.byte	0x51
 3078 0117 00000000 		.4byte	0
 3079 011b 00000000 		.4byte	0
 3080              	.LLST9:
 3081 011f 0E000000 		.4byte	.LVL34
 3082 0123 20000000 		.4byte	.LVL36
 3083 0127 0100     		.2byte	0x1
 3084 0129 54       		.byte	0x54
 3085 012a 00000000 		.4byte	0
 3086 012e 00000000 		.4byte	0
 3087              	.LLST10:
 3088 0132 06000000 		.4byte	.LVL38
ARM GAS  C:\Users\Yiquing\AppData\Local\Temp\ccvaGiH9.s 			page 85


 3089 0136 1B000000 		.4byte	.LVL39-1
 3090 013a 0100     		.2byte	0x1
 3091 013c 50       		.byte	0x50
 3092 013d 00000000 		.4byte	0
 3093 0141 00000000 		.4byte	0
 3094              	.LLST11:
 3095 0145 00000000 		.4byte	.LVL46
 3096 0149 0C000000 		.4byte	.LVL47
 3097 014d 0100     		.2byte	0x1
 3098 014f 50       		.byte	0x50
 3099 0150 0C000000 		.4byte	.LVL47
 3100 0154 1C000000 		.4byte	.LVL51
 3101 0158 0100     		.2byte	0x1
 3102 015a 55       		.byte	0x55
 3103 015b 1C000000 		.4byte	.LVL51
 3104 015f 20000000 		.4byte	.LFE20
 3105 0163 0400     		.2byte	0x4
 3106 0165 F3       		.byte	0xf3
 3107 0166 01       		.uleb128 0x1
 3108 0167 50       		.byte	0x50
 3109 0168 9F       		.byte	0x9f
 3110 0169 00000000 		.4byte	0
 3111 016d 00000000 		.4byte	0
 3112              	.LLST12:
 3113 0171 00000000 		.4byte	.LVL46
 3114 0175 0C000000 		.4byte	.LVL47
 3115 0179 0200     		.2byte	0x2
 3116 017b 30       		.byte	0x30
 3117 017c 9F       		.byte	0x9f
 3118 017d 0C000000 		.4byte	.LVL47
 3119 0181 12000000 		.4byte	.LVL48
 3120 0185 0100     		.2byte	0x1
 3121 0187 54       		.byte	0x54
 3122 0188 12000000 		.4byte	.LVL48
 3123 018c 18000000 		.4byte	.LVL49
 3124 0190 0300     		.2byte	0x3
 3125 0192 74       		.byte	0x74
 3126 0193 7F       		.sleb128 -1
 3127 0194 9F       		.byte	0x9f
 3128 0195 18000000 		.4byte	.LVL49
 3129 0199 1A000000 		.4byte	.LVL50
 3130 019d 0100     		.2byte	0x1
 3131 019f 54       		.byte	0x54
 3132 01a0 00000000 		.4byte	0
 3133 01a4 00000000 		.4byte	0
 3134              	.LLST13:
 3135 01a8 00000000 		.4byte	.LVL52
 3136 01ac 0E000000 		.4byte	.LVL53
 3137 01b0 0100     		.2byte	0x1
 3138 01b2 50       		.byte	0x50
 3139 01b3 0E000000 		.4byte	.LVL53
 3140 01b7 20000000 		.4byte	.LVL57
 3141 01bb 0100     		.2byte	0x1
 3142 01bd 55       		.byte	0x55
 3143 01be 20000000 		.4byte	.LVL57
 3144 01c2 24000000 		.4byte	.LFE21
 3145 01c6 0400     		.2byte	0x4
ARM GAS  C:\Users\Yiquing\AppData\Local\Temp\ccvaGiH9.s 			page 86


 3146 01c8 F3       		.byte	0xf3
 3147 01c9 01       		.uleb128 0x1
 3148 01ca 50       		.byte	0x50
 3149 01cb 9F       		.byte	0x9f
 3150 01cc 00000000 		.4byte	0
 3151 01d0 00000000 		.4byte	0
 3152              	.LLST14:
 3153 01d4 00000000 		.4byte	.LVL52
 3154 01d8 0E000000 		.4byte	.LVL53
 3155 01dc 0100     		.2byte	0x1
 3156 01de 51       		.byte	0x51
 3157 01df 0E000000 		.4byte	.LVL53
 3158 01e3 24000000 		.4byte	.LFE21
 3159 01e7 0400     		.2byte	0x4
 3160 01e9 F3       		.byte	0xf3
 3161 01ea 01       		.uleb128 0x1
 3162 01eb 51       		.byte	0x51
 3163 01ec 9F       		.byte	0x9f
 3164 01ed 00000000 		.4byte	0
 3165 01f1 00000000 		.4byte	0
 3166              	.LLST15:
 3167 01f5 00000000 		.4byte	.LVL52
 3168 01f9 0E000000 		.4byte	.LVL53
 3169 01fd 0200     		.2byte	0x2
 3170 01ff 30       		.byte	0x30
 3171 0200 9F       		.byte	0x9f
 3172 0201 0E000000 		.4byte	.LVL53
 3173 0205 1A000000 		.4byte	.LVL54
 3174 0209 0100     		.2byte	0x1
 3175 020b 54       		.byte	0x54
 3176 020c 1A000000 		.4byte	.LVL54
 3177 0210 1C000000 		.4byte	.LVL55
 3178 0214 0300     		.2byte	0x3
 3179 0216 74       		.byte	0x74
 3180 0217 01       		.sleb128 1
 3181 0218 9F       		.byte	0x9f
 3182 0219 1C000000 		.4byte	.LVL55
 3183 021d 1E000000 		.4byte	.LVL56
 3184 0221 0300     		.2byte	0x3
 3185 0223 74       		.byte	0x74
 3186 0224 00       		.sleb128 0
 3187 0225 9F       		.byte	0x9f
 3188 0226 00000000 		.4byte	0
 3189 022a 00000000 		.4byte	0
 3190              	.LLST16:
 3191 022e 00000000 		.4byte	.LVL58
 3192 0232 0B000000 		.4byte	.LVL59-1
 3193 0236 0100     		.2byte	0x1
 3194 0238 50       		.byte	0x50
 3195 0239 0B000000 		.4byte	.LVL59-1
 3196 023d 1C000000 		.4byte	.LVL61
 3197 0241 0400     		.2byte	0x4
 3198 0243 F3       		.byte	0xf3
 3199 0244 01       		.uleb128 0x1
 3200 0245 50       		.byte	0x50
 3201 0246 9F       		.byte	0x9f
 3202 0247 1C000000 		.4byte	.LVL61
ARM GAS  C:\Users\Yiquing\AppData\Local\Temp\ccvaGiH9.s 			page 87


 3203 024b 24000000 		.4byte	.LFE22
 3204 024f 0100     		.2byte	0x1
 3205 0251 50       		.byte	0x50
 3206 0252 00000000 		.4byte	0
 3207 0256 00000000 		.4byte	0
 3208              	.LLST17:
 3209 025a 06000000 		.4byte	.LVL62
 3210 025e 0E000000 		.4byte	.LVL63
 3211 0262 0100     		.2byte	0x1
 3212 0264 50       		.byte	0x50
 3213 0265 14000000 		.4byte	.LVL64
 3214 0269 1C000000 		.4byte	.LFE23
 3215 026d 0100     		.2byte	0x1
 3216 026f 50       		.byte	0x50
 3217 0270 00000000 		.4byte	0
 3218 0274 00000000 		.4byte	0
 3219              	.LLST18:
 3220 0278 06000000 		.4byte	.LVL65
 3221 027c 1F000000 		.4byte	.LVL66-1
 3222 0280 0100     		.2byte	0x1
 3223 0282 50       		.byte	0x50
 3224 0283 00000000 		.4byte	0
 3225 0287 00000000 		.4byte	0
 3226              	.LLST19:
 3227 028b 00000000 		.4byte	.LVL67
 3228 028f 2E000000 		.4byte	.LVL72
 3229 0293 0100     		.2byte	0x1
 3230 0295 50       		.byte	0x50
 3231 0296 2E000000 		.4byte	.LVL72
 3232 029a 34000000 		.4byte	.LVL73
 3233 029e 0400     		.2byte	0x4
 3234 02a0 F3       		.byte	0xf3
 3235 02a1 01       		.uleb128 0x1
 3236 02a2 50       		.byte	0x50
 3237 02a3 9F       		.byte	0x9f
 3238 02a4 34000000 		.4byte	.LVL73
 3239 02a8 3E000000 		.4byte	.LVL76
 3240 02ac 0100     		.2byte	0x1
 3241 02ae 50       		.byte	0x50
 3242 02af 3E000000 		.4byte	.LVL76
 3243 02b3 4A000000 		.4byte	.LVL78
 3244 02b7 0400     		.2byte	0x4
 3245 02b9 F3       		.byte	0xf3
 3246 02ba 01       		.uleb128 0x1
 3247 02bb 50       		.byte	0x50
 3248 02bc 9F       		.byte	0x9f
 3249 02bd 4A000000 		.4byte	.LVL78
 3250 02c1 5C000000 		.4byte	.LFE25
 3251 02c5 0100     		.2byte	0x1
 3252 02c7 50       		.byte	0x50
 3253 02c8 00000000 		.4byte	0
 3254 02cc 00000000 		.4byte	0
 3255              	.LLST20:
 3256 02d0 20000000 		.4byte	.LVL70
 3257 02d4 28000000 		.4byte	.LVL71
 3258 02d8 0100     		.2byte	0x1
 3259 02da 53       		.byte	0x53
ARM GAS  C:\Users\Yiquing\AppData\Local\Temp\ccvaGiH9.s 			page 88


 3260 02db 38000000 		.4byte	.LVL74
 3261 02df 3A000000 		.4byte	.LVL75
 3262 02e3 0100     		.2byte	0x1
 3263 02e5 53       		.byte	0x53
 3264 02e6 00000000 		.4byte	0
 3265 02ea 00000000 		.4byte	0
 3266              	.LLST21:
 3267 02ee 14000000 		.4byte	.LVL68
 3268 02f2 18000000 		.4byte	.LVL69
 3269 02f6 0100     		.2byte	0x1
 3270 02f8 52       		.byte	0x52
 3271 02f9 00000000 		.4byte	0
 3272 02fd 00000000 		.4byte	0
 3273              	.LLST22:
 3274 0301 46000000 		.4byte	.LVL77
 3275 0305 4A000000 		.4byte	.LVL78
 3276 0309 0100     		.2byte	0x1
 3277 030b 52       		.byte	0x52
 3278 030c 00000000 		.4byte	0
 3279 0310 00000000 		.4byte	0
 3280              	.LLST23:
 3281 0314 0A000000 		.4byte	.LVL83
 3282 0318 10000000 		.4byte	.LVL84
 3283 031c 0100     		.2byte	0x1
 3284 031e 52       		.byte	0x52
 3285 031f 00000000 		.4byte	0
 3286 0323 00000000 		.4byte	0
 3287              	.LLST24:
 3288 0327 0E000000 		.4byte	.LVL87
 3289 032b 14000000 		.4byte	.LVL88
 3290 032f 0100     		.2byte	0x1
 3291 0331 52       		.byte	0x52
 3292 0332 00000000 		.4byte	0
 3293 0336 00000000 		.4byte	0
 3294              		.section	.debug_aranges,"",%progbits
 3295 0000 FC000000 		.4byte	0xfc
 3296 0004 0200     		.2byte	0x2
 3297 0006 00000000 		.4byte	.Ldebug_info0
 3298 000a 04       		.byte	0x4
 3299 000b 00       		.byte	0
 3300 000c 0000     		.2byte	0
 3301 000e 0000     		.2byte	0
 3302 0010 00000000 		.4byte	.LFB1
 3303 0014 34000000 		.4byte	.LFE1-.LFB1
 3304 0018 00000000 		.4byte	.LFB2
 3305 001c 34000000 		.4byte	.LFE2-.LFB2
 3306 0020 00000000 		.4byte	.LFB0
 3307 0024 1C000000 		.4byte	.LFE0-.LFB0
 3308 0028 00000000 		.4byte	.LFB3
 3309 002c 34000000 		.4byte	.LFE3-.LFB3
 3310 0030 00000000 		.4byte	.LFB4
 3311 0034 0C000000 		.4byte	.LFE4-.LFB4
 3312 0038 00000000 		.4byte	.LFB5
 3313 003c 0C000000 		.4byte	.LFE5-.LFB5
 3314 0040 00000000 		.4byte	.LFB6
 3315 0044 0C000000 		.4byte	.LFE6-.LFB6
 3316 0048 00000000 		.4byte	.LFB7
ARM GAS  C:\Users\Yiquing\AppData\Local\Temp\ccvaGiH9.s 			page 89


 3317 004c 5C000000 		.4byte	.LFE7-.LFB7
 3318 0050 00000000 		.4byte	.LFB8
 3319 0054 20000000 		.4byte	.LFE8-.LFB8
 3320 0058 00000000 		.4byte	.LFB9
 3321 005c 74000000 		.4byte	.LFE9-.LFB9
 3322 0060 00000000 		.4byte	.LFB10
 3323 0064 2C000000 		.4byte	.LFE10-.LFB10
 3324 0068 00000000 		.4byte	.LFB11
 3325 006c 54000000 		.4byte	.LFE11-.LFB11
 3326 0070 00000000 		.4byte	.LFB12
 3327 0074 44000000 		.4byte	.LFE12-.LFB12
 3328 0078 00000000 		.4byte	.LFB13
 3329 007c 02000000 		.4byte	.LFE13-.LFB13
 3330 0080 00000000 		.4byte	.LFB14
 3331 0084 0C000000 		.4byte	.LFE14-.LFB14
 3332 0088 00000000 		.4byte	.LFB15
 3333 008c 0C000000 		.4byte	.LFE15-.LFB15
 3334 0090 00000000 		.4byte	.LFB16
 3335 0094 0C000000 		.4byte	.LFE16-.LFB16
 3336 0098 00000000 		.4byte	.LFB17
 3337 009c 14000000 		.4byte	.LFE17-.LFB17
 3338 00a0 00000000 		.4byte	.LFB18
 3339 00a4 0C000000 		.4byte	.LFE18-.LFB18
 3340 00a8 00000000 		.4byte	.LFB19
 3341 00ac 18000000 		.4byte	.LFE19-.LFB19
 3342 00b0 00000000 		.4byte	.LFB20
 3343 00b4 20000000 		.4byte	.LFE20-.LFB20
 3344 00b8 00000000 		.4byte	.LFB21
 3345 00bc 24000000 		.4byte	.LFE21-.LFB21
 3346 00c0 00000000 		.4byte	.LFB22
 3347 00c4 24000000 		.4byte	.LFE22-.LFB22
 3348 00c8 00000000 		.4byte	.LFB23
 3349 00cc 1C000000 		.4byte	.LFE23-.LFB23
 3350 00d0 00000000 		.4byte	.LFB24
 3351 00d4 24000000 		.4byte	.LFE24-.LFB24
 3352 00d8 00000000 		.4byte	.LFB25
 3353 00dc 5C000000 		.4byte	.LFE25-.LFB25
 3354 00e0 00000000 		.4byte	.LFB26
 3355 00e4 18000000 		.4byte	.LFE26-.LFB26
 3356 00e8 00000000 		.4byte	.LFB27
 3357 00ec 20000000 		.4byte	.LFE27-.LFB27
 3358 00f0 00000000 		.4byte	.LFB28
 3359 00f4 20000000 		.4byte	.LFE28-.LFB28
 3360 00f8 00000000 		.4byte	0
 3361 00fc 00000000 		.4byte	0
 3362              		.section	.debug_ranges,"",%progbits
 3363              	.Ldebug_ranges0:
 3364 0000 04000000 		.4byte	.LBB46
 3365 0004 06000000 		.4byte	.LBE46
 3366 0008 14000000 		.4byte	.LBB51
 3367 000c 20000000 		.4byte	.LBE51
 3368 0010 00000000 		.4byte	0
 3369 0014 00000000 		.4byte	0
 3370 0018 00000000 		.4byte	.LFB1
 3371 001c 34000000 		.4byte	.LFE1
 3372 0020 00000000 		.4byte	.LFB2
 3373 0024 34000000 		.4byte	.LFE2
ARM GAS  C:\Users\Yiquing\AppData\Local\Temp\ccvaGiH9.s 			page 90


 3374 0028 00000000 		.4byte	.LFB0
 3375 002c 1C000000 		.4byte	.LFE0
 3376 0030 00000000 		.4byte	.LFB3
 3377 0034 34000000 		.4byte	.LFE3
 3378 0038 00000000 		.4byte	.LFB4
 3379 003c 0C000000 		.4byte	.LFE4
 3380 0040 00000000 		.4byte	.LFB5
 3381 0044 0C000000 		.4byte	.LFE5
 3382 0048 00000000 		.4byte	.LFB6
 3383 004c 0C000000 		.4byte	.LFE6
 3384 0050 00000000 		.4byte	.LFB7
 3385 0054 5C000000 		.4byte	.LFE7
 3386 0058 00000000 		.4byte	.LFB8
 3387 005c 20000000 		.4byte	.LFE8
 3388 0060 00000000 		.4byte	.LFB9
 3389 0064 74000000 		.4byte	.LFE9
 3390 0068 00000000 		.4byte	.LFB10
 3391 006c 2C000000 		.4byte	.LFE10
 3392 0070 00000000 		.4byte	.LFB11
 3393 0074 54000000 		.4byte	.LFE11
 3394 0078 00000000 		.4byte	.LFB12
 3395 007c 44000000 		.4byte	.LFE12
 3396 0080 00000000 		.4byte	.LFB13
 3397 0084 02000000 		.4byte	.LFE13
 3398 0088 00000000 		.4byte	.LFB14
 3399 008c 0C000000 		.4byte	.LFE14
 3400 0090 00000000 		.4byte	.LFB15
 3401 0094 0C000000 		.4byte	.LFE15
 3402 0098 00000000 		.4byte	.LFB16
 3403 009c 0C000000 		.4byte	.LFE16
 3404 00a0 00000000 		.4byte	.LFB17
 3405 00a4 14000000 		.4byte	.LFE17
 3406 00a8 00000000 		.4byte	.LFB18
 3407 00ac 0C000000 		.4byte	.LFE18
 3408 00b0 00000000 		.4byte	.LFB19
 3409 00b4 18000000 		.4byte	.LFE19
 3410 00b8 00000000 		.4byte	.LFB20
 3411 00bc 20000000 		.4byte	.LFE20
 3412 00c0 00000000 		.4byte	.LFB21
 3413 00c4 24000000 		.4byte	.LFE21
 3414 00c8 00000000 		.4byte	.LFB22
 3415 00cc 24000000 		.4byte	.LFE22
 3416 00d0 00000000 		.4byte	.LFB23
 3417 00d4 1C000000 		.4byte	.LFE23
 3418 00d8 00000000 		.4byte	.LFB24
 3419 00dc 24000000 		.4byte	.LFE24
 3420 00e0 00000000 		.4byte	.LFB25
 3421 00e4 5C000000 		.4byte	.LFE25
 3422 00e8 00000000 		.4byte	.LFB26
 3423 00ec 18000000 		.4byte	.LFE26
 3424 00f0 00000000 		.4byte	.LFB27
 3425 00f4 20000000 		.4byte	.LFE27
 3426 00f8 00000000 		.4byte	.LFB28
 3427 00fc 20000000 		.4byte	.LFE28
 3428 0100 00000000 		.4byte	0
 3429 0104 00000000 		.4byte	0
 3430              		.section	.debug_line,"",%progbits
ARM GAS  C:\Users\Yiquing\AppData\Local\Temp\ccvaGiH9.s 			page 91


 3431              	.Ldebug_line0:
 3432 0000 7C030000 		.section	.debug_str,"MS",%progbits,1
 3432      02005300 
 3432      00000201 
 3432      FB0E0D00 
 3432      01010101 
 3433              	.LASF10:
 3434 0000 75696E74 		.ascii	"uint16\000"
 3434      313600
 3435              	.LASF77:
 3436 0007 433A5C55 		.ascii	"C:\\Users\\Yiquing\\Documents\\works\\NanoNXT\\osdp"
 3436      73657273 
 3436      5C596971 
 3436      75696E67 
 3436      5C446F63 
 3437 0034 20746573 		.ascii	" testing\\YQ\\nanoNxt_ICM3\\nanoNxt_ICM3.cydsn\000"
 3437      74696E67 
 3437      5C59515C 
 3437      6E616E6F 
 3437      4E78745F 
 3438              	.LASF65:
 3439 0060 55415254 		.ascii	"UART_OSDP_initVar\000"
 3439      5F4F5344 
 3439      505F696E 
 3439      69745661 
 3439      7200
 3440              	.LASF80:
 3441 0072 43794578 		.ascii	"CyExitCriticalSection\000"
 3441      69744372 
 3441      69746963 
 3441      616C5365 
 3441      6374696F 
 3442              	.LASF49:
 3443 0088 74784461 		.ascii	"txDataByte\000"
 3443      74614279 
 3443      746500
 3444              	.LASF41:
 3445 0093 55415254 		.ascii	"UART_OSDP_ClearRxBuffer\000"
 3445      5F4F5344 
 3445      505F436C 
 3445      65617252 
 3445      78427566 
 3446              	.LASF52:
 3447 00ab 73747269 		.ascii	"string\000"
 3447      6E6700
 3448              	.LASF7:
 3449 00b2 6C6F6E67 		.ascii	"long long unsigned int\000"
 3449      206C6F6E 
 3449      6720756E 
 3449      7369676E 
 3449      65642069 
 3450              	.LASF59:
 3451 00c9 55415254 		.ascii	"UART_OSDP_SendBreak\000"
 3451      5F4F5344 
 3451      505F5365 
 3451      6E644272 
 3451      65616B00 
ARM GAS  C:\Users\Yiquing\AppData\Local\Temp\ccvaGiH9.s 			page 92


 3452              	.LASF46:
 3453 00dd 55415254 		.ascii	"UART_OSDP_SetRxAddress2\000"
 3453      5F4F5344 
 3453      505F5365 
 3453      74527841 
 3453      64647265 
 3454              	.LASF6:
 3455 00f5 6C6F6E67 		.ascii	"long long int\000"
 3455      206C6F6E 
 3455      6720696E 
 3455      7400
 3456              	.LASF0:
 3457 0103 7369676E 		.ascii	"signed char\000"
 3457      65642063 
 3457      68617200 
 3458              	.LASF32:
 3459 010f 55415254 		.ascii	"UART_OSDP_ReadRxData\000"
 3459      5F4F5344 
 3459      505F5265 
 3459      61645278 
 3459      44617461 
 3460              	.LASF63:
 3461 0124 55415254 		.ascii	"UART_OSDP_LoadRxConfig\000"
 3461      5F4F5344 
 3461      505F4C6F 
 3461      61645278 
 3461      436F6E66 
 3462              	.LASF71:
 3463 013b 55415254 		.ascii	"UART_OSDP_rxBufferOverflow\000"
 3463      5F4F5344 
 3463      505F7278 
 3463      42756666 
 3463      65724F76 
 3464              	.LASF62:
 3465 0156 55415254 		.ascii	"UART_OSDP_SetTxAddressMode\000"
 3465      5F4F5344 
 3465      505F5365 
 3465      74547841 
 3465      64647265 
 3466              	.LASF4:
 3467 0171 6C6F6E67 		.ascii	"long int\000"
 3467      20696E74 
 3467      00
 3468              	.LASF9:
 3469 017a 75696E74 		.ascii	"uint8\000"
 3469      3800
 3470              	.LASF13:
 3471 0180 646F7562 		.ascii	"double\000"
 3471      6C6500
 3472              	.LASF44:
 3473 0187 61646472 		.ascii	"addressMode\000"
 3473      6573734D 
 3473      6F646500 
 3474              	.LASF11:
 3475 0193 75696E74 		.ascii	"uint32\000"
 3475      333200
 3476              	.LASF22:
ARM GAS  C:\Users\Yiquing\AppData\Local\Temp\ccvaGiH9.s 			page 93


 3477 019a 636F6E74 		.ascii	"control\000"
 3477      726F6C00 
 3478              	.LASF60:
 3479 01a2 7265744D 		.ascii	"retMode\000"
 3479      6F646500 
 3480              	.LASF57:
 3481 01aa 55415254 		.ascii	"UART_OSDP_GetTxBufferSize\000"
 3481      5F4F5344 
 3481      505F4765 
 3481      74547842 
 3481      75666665 
 3482              	.LASF8:
 3483 01c4 756E7369 		.ascii	"unsigned int\000"
 3483      676E6564 
 3483      20696E74 
 3483      00
 3484              	.LASF24:
 3485 01d1 55415254 		.ascii	"UART_OSDP_Init\000"
 3485      5F4F5344 
 3485      505F496E 
 3485      697400
 3486              	.LASF38:
 3487 01e0 6C6F6345 		.ascii	"locErrorStatus\000"
 3487      72726F72 
 3487      53746174 
 3487      757300
 3488              	.LASF51:
 3489 01ef 55415254 		.ascii	"UART_OSDP_PutString\000"
 3489      5F4F5344 
 3489      505F5075 
 3489      74537472 
 3489      696E6700 
 3490              	.LASF5:
 3491 0203 6C6F6E67 		.ascii	"long unsigned int\000"
 3491      20756E73 
 3491      69676E65 
 3491      6420696E 
 3491      7400
 3492              	.LASF50:
 3493 0215 55415254 		.ascii	"UART_OSDP_PutChar\000"
 3493      5F4F5344 
 3493      505F5075 
 3493      74436861 
 3493      7200
 3494              	.LASF69:
 3495 0227 55415254 		.ascii	"UART_OSDP_rxBufferWrite\000"
 3495      5F4F5344 
 3495      505F7278 
 3495      42756666 
 3495      65725772 
 3496              	.LASF74:
 3497 023f 4379456E 		.ascii	"CyEnterCriticalSection\000"
 3497      74657243 
 3497      72697469 
 3497      63616C53 
 3497      65637469 
 3498              	.LASF54:
ARM GAS  C:\Users\Yiquing\AppData\Local\Temp\ccvaGiH9.s 			page 94


 3499 0256 55415254 		.ascii	"UART_OSDP_PutArray\000"
 3499      5F4F5344 
 3499      505F5075 
 3499      74417272 
 3499      617900
 3500              	.LASF40:
 3501 0269 73697A65 		.ascii	"size\000"
 3501      00
 3502              	.LASF3:
 3503 026e 73686F72 		.ascii	"short unsigned int\000"
 3503      7420756E 
 3503      7369676E 
 3503      65642069 
 3503      6E7400
 3504              	.LASF79:
 3505 0281 4379496E 		.ascii	"CyIntSetVector\000"
 3505      74536574 
 3505      56656374 
 3505      6F7200
 3506              	.LASF53:
 3507 0290 62756649 		.ascii	"bufIndex\000"
 3507      6E646578 
 3507      00
 3508              	.LASF20:
 3509 0299 55415254 		.ascii	"UART_OSDP_WriteControlRegister\000"
 3509      5F4F5344 
 3509      505F5772 
 3509      69746543 
 3509      6F6E7472 
 3510              	.LASF23:
 3511 02b8 696E7453 		.ascii	"intSrc\000"
 3511      726300
 3512              	.LASF73:
 3513 02bf 55415254 		.ascii	"UART_OSDP_ReadControlRegister\000"
 3513      5F4F5344 
 3513      505F5265 
 3513      6164436F 
 3513      6E74726F 
 3514              	.LASF68:
 3515 02dd 55415254 		.ascii	"UART_OSDP_rxBufferRead\000"
 3515      5F4F5344 
 3515      505F7278 
 3515      42756666 
 3515      65725265 
 3516              	.LASF17:
 3517 02f4 72656733 		.ascii	"reg32\000"
 3517      3200
 3518              	.LASF76:
 3519 02fa 2E5C4765 		.ascii	".\\Generated_Source\\PSoC5\\UART_OSDP.c\000"
 3519      6E657261 
 3519      7465645F 
 3519      536F7572 
 3519      63655C50 
 3520              	.LASF19:
 3521 031f 73697A65 		.ascii	"sizetype\000"
 3521      74797065 
 3521      00
ARM GAS  C:\Users\Yiquing\AppData\Local\Temp\ccvaGiH9.s 			page 95


 3522              	.LASF45:
 3523 0328 61646472 		.ascii	"address\000"
 3523      65737300 
 3524              	.LASF31:
 3525 0330 6C6F6352 		.ascii	"locRxBufferWrite\000"
 3525      78427566 
 3525      66657257 
 3525      72697465 
 3525      00
 3526              	.LASF36:
 3527 0341 72785374 		.ascii	"rxStatus\000"
 3527      61747573 
 3527      00
 3528              	.LASF72:
 3529 034a 4379496E 		.ascii	"CyIntSetPriority\000"
 3529      74536574 
 3529      5072696F 
 3529      72697479 
 3529      00
 3530              	.LASF39:
 3531 035b 55415254 		.ascii	"UART_OSDP_GetRxBufferSize\000"
 3531      5F4F5344 
 3531      505F4765 
 3531      74527842 
 3531      75666665 
 3532              	.LASF12:
 3533 0375 666C6F61 		.ascii	"float\000"
 3533      7400
 3534              	.LASF67:
 3535 037b 55415254 		.ascii	"UART_OSDP_rxBuffer\000"
 3535      5F4F5344 
 3535      505F7278 
 3535      42756666 
 3535      657200
 3536              	.LASF16:
 3537 038e 72656738 		.ascii	"reg8\000"
 3537      00
 3538              	.LASF1:
 3539 0393 756E7369 		.ascii	"unsigned char\000"
 3539      676E6564 
 3539      20636861 
 3539      7200
 3540              	.LASF2:
 3541 03a1 73686F72 		.ascii	"short int\000"
 3541      7420696E 
 3541      7400
 3542              	.LASF47:
 3543 03ab 55415254 		.ascii	"UART_OSDP_SetTxInterruptMode\000"
 3543      5F4F5344 
 3543      505F5365 
 3543      74547849 
 3543      6E746572 
 3544              	.LASF42:
 3545 03c8 55415254 		.ascii	"UART_OSDP_SetRxAddressMode\000"
 3545      5F4F5344 
 3545      505F5365 
 3545      74527841 
ARM GAS  C:\Users\Yiquing\AppData\Local\Temp\ccvaGiH9.s 			page 96


 3545      64647265 
 3546              	.LASF21:
 3547 03e3 55415254 		.ascii	"UART_OSDP_SetRxInterruptMode\000"
 3547      5F4F5344 
 3547      505F5365 
 3547      74527849 
 3547      6E746572 
 3548              	.LASF55:
 3549 0400 62797465 		.ascii	"byteCount\000"
 3549      436F756E 
 3549      7400
 3550              	.LASF75:
 3551 040a 474E5520 		.ascii	"GNU C 4.8.4 20140526 (release) [ARM/embedded-4_8-br"
 3551      4320342E 
 3551      382E3420 
 3551      32303134 
 3551      30353236 
 3552 043d 616E6368 		.ascii	"anch revision 211358] -mcpu=cortex-m3 -mthumb -g -O"
 3552      20726576 
 3552      6973696F 
 3552      6E203231 
 3552      31333538 
 3553 0470 73202D66 		.ascii	"s -ffunction-sections\000"
 3553      66756E63 
 3553      74696F6E 
 3553      2D736563 
 3553      74696F6E 
 3554              	.LASF29:
 3555 0486 72784461 		.ascii	"rxData\000"
 3555      746100
 3556              	.LASF58:
 3557 048d 55415254 		.ascii	"UART_OSDP_ClearTxBuffer\000"
 3557      5F4F5344 
 3557      505F436C 
 3557      65617254 
 3557      78427566 
 3558              	.LASF15:
 3559 04a5 63686172 		.ascii	"char\000"
 3559      00
 3560              	.LASF18:
 3561 04aa 63796973 		.ascii	"cyisraddress\000"
 3561      72616464 
 3561      72657373 
 3561      00
 3562              	.LASF14:
 3563 04b7 63686172 		.ascii	"char8\000"
 3563      3800
 3564              	.LASF33:
 3565 04bd 55415254 		.ascii	"UART_OSDP_ReadRxStatus\000"
 3565      5F4F5344 
 3565      505F5265 
 3565      61645278 
 3565      53746174 
 3566              	.LASF66:
 3567 04d4 55415254 		.ascii	"UART_OSDP_errorStatus\000"
 3567      5F4F5344 
 3567      505F6572 
ARM GAS  C:\Users\Yiquing\AppData\Local\Temp\ccvaGiH9.s 			page 97


 3567      726F7253 
 3567      74617475 
 3568              	.LASF26:
 3569 04ea 55415254 		.ascii	"UART_OSDP_Start\000"
 3569      5F4F5344 
 3569      505F5374 
 3569      61727400 
 3570              	.LASF56:
 3571 04fa 55415254 		.ascii	"UART_OSDP_PutCRLF\000"
 3571      5F4F5344 
 3571      505F5075 
 3571      7443524C 
 3571      4600
 3572              	.LASF30:
 3573 050c 6C6F6352 		.ascii	"locRxBufferRead\000"
 3573      78427566 
 3573      66657252 
 3573      65616400 
 3574              	.LASF61:
 3575 051c 746D7053 		.ascii	"tmpStat\000"
 3575      74617400 
 3576              	.LASF28:
 3577 0524 656E6162 		.ascii	"enableInterrupts\000"
 3577      6C65496E 
 3577      74657272 
 3577      75707473 
 3577      00
 3578              	.LASF48:
 3579 0535 55415254 		.ascii	"UART_OSDP_WriteTxData\000"
 3579      5F4F5344 
 3579      505F5772 
 3579      69746554 
 3579      78446174 
 3580              	.LASF34:
 3581 054b 73746174 		.ascii	"status\000"
 3581      757300
 3582              	.LASF64:
 3583 0552 55415254 		.ascii	"UART_OSDP_LoadTxConfig\000"
 3583      5F4F5344 
 3583      505F4C6F 
 3583      61645478 
 3583      436F6E66 
 3584              	.LASF37:
 3585 0569 55415254 		.ascii	"UART_OSDP_GetByte\000"
 3585      5F4F5344 
 3585      505F4765 
 3585      74427974 
 3585      6500
 3586              	.LASF78:
 3587 057b 55415254 		.ascii	"UART_OSDP_ReadTxStatus\000"
 3587      5F4F5344 
 3587      505F5265 
 3587      61645478 
 3587      53746174 
 3588              	.LASF43:
 3589 0592 55415254 		.ascii	"UART_OSDP_SetRxAddress1\000"
 3589      5F4F5344 
ARM GAS  C:\Users\Yiquing\AppData\Local\Temp\ccvaGiH9.s 			page 98


 3589      505F5365 
 3589      74527841 
 3589      64647265 
 3590              	.LASF27:
 3591 05aa 55415254 		.ascii	"UART_OSDP_Stop\000"
 3591      5F4F5344 
 3591      505F5374 
 3591      6F7000
 3592              	.LASF35:
 3593 05b9 55415254 		.ascii	"UART_OSDP_GetChar\000"
 3593      5F4F5344 
 3593      505F4765 
 3593      74436861 
 3593      7200
 3594              	.LASF70:
 3595 05cb 55415254 		.ascii	"UART_OSDP_rxBufferLoopDetect\000"
 3595      5F4F5344 
 3595      505F7278 
 3595      42756666 
 3595      65724C6F 
 3596              	.LASF25:
 3597 05e8 55415254 		.ascii	"UART_OSDP_Enable\000"
 3597      5F4F5344 
 3597      505F456E 
 3597      61626C65 
 3597      00
 3598              		.ident	"GCC: (GNU Tools for ARM Embedded Processors) 4.8.4 20140526 (release) [ARM/embedded-4_8-br
