ARM GAS  C:\Users\Yiquing\AppData\Local\Temp\ccJgHlWx.s 			page 1


   1              		.syntax unified
   2              		.cpu cortex-m3
   3              		.fpu softvfp
   4              		.eabi_attribute 20, 1
   5              		.eabi_attribute 21, 1
   6              		.eabi_attribute 23, 3
   7              		.eabi_attribute 24, 1
   8              		.eabi_attribute 25, 1
   9              		.eabi_attribute 26, 1
  10              		.eabi_attribute 30, 4
  11              		.eabi_attribute 34, 1
  12              		.eabi_attribute 18, 4
  13              		.thumb
  14              		.file	"UART_READER.c"
  15              		.text
  16              	.Ltext0:
  17              		.cfi_sections	.debug_frame
  18              		.section	.text.UART_READER_Init,"ax",%progbits
  19              		.align	1
  20              		.global	UART_READER_Init
  21              		.thumb
  22              		.thumb_func
  23              		.type	UART_READER_Init, %function
  24              	UART_READER_Init:
  25              	.LFB1:
  26              		.file 1 ".\\Generated_Source\\PSoC5\\UART_READER.c"
   1:.\Generated_Source\PSoC5/UART_READER.c **** /*******************************************************************************
   2:.\Generated_Source\PSoC5/UART_READER.c **** * File Name: UART_READER.c
   3:.\Generated_Source\PSoC5/UART_READER.c **** * Version 2.50
   4:.\Generated_Source\PSoC5/UART_READER.c **** *
   5:.\Generated_Source\PSoC5/UART_READER.c **** * Description:
   6:.\Generated_Source\PSoC5/UART_READER.c **** *  This file provides all API functionality of the UART component
   7:.\Generated_Source\PSoC5/UART_READER.c **** *
   8:.\Generated_Source\PSoC5/UART_READER.c **** * Note:
   9:.\Generated_Source\PSoC5/UART_READER.c **** *
  10:.\Generated_Source\PSoC5/UART_READER.c **** ********************************************************************************
  11:.\Generated_Source\PSoC5/UART_READER.c **** * Copyright 2008-2015, Cypress Semiconductor Corporation.  All rights reserved.
  12:.\Generated_Source\PSoC5/UART_READER.c **** * You may use this file only in accordance with the license, terms, conditions,
  13:.\Generated_Source\PSoC5/UART_READER.c **** * disclaimers, and limitations in the end user license agreement accompanying
  14:.\Generated_Source\PSoC5/UART_READER.c **** * the software package with which this file was provided.
  15:.\Generated_Source\PSoC5/UART_READER.c **** *******************************************************************************/
  16:.\Generated_Source\PSoC5/UART_READER.c **** 
  17:.\Generated_Source\PSoC5/UART_READER.c **** #include "UART_READER.h"
  18:.\Generated_Source\PSoC5/UART_READER.c **** #if (UART_READER_INTERNAL_CLOCK_USED)
  19:.\Generated_Source\PSoC5/UART_READER.c ****     #include "UART_READER_IntClock.h"
  20:.\Generated_Source\PSoC5/UART_READER.c **** #endif /* End UART_READER_INTERNAL_CLOCK_USED */
  21:.\Generated_Source\PSoC5/UART_READER.c **** 
  22:.\Generated_Source\PSoC5/UART_READER.c **** 
  23:.\Generated_Source\PSoC5/UART_READER.c **** /***************************************
  24:.\Generated_Source\PSoC5/UART_READER.c **** * Global data allocation
  25:.\Generated_Source\PSoC5/UART_READER.c **** ***************************************/
  26:.\Generated_Source\PSoC5/UART_READER.c **** 
  27:.\Generated_Source\PSoC5/UART_READER.c **** uint8 UART_READER_initVar = 0u;
  28:.\Generated_Source\PSoC5/UART_READER.c **** 
  29:.\Generated_Source\PSoC5/UART_READER.c **** #if (UART_READER_TX_INTERRUPT_ENABLED && UART_READER_TX_ENABLED)
  30:.\Generated_Source\PSoC5/UART_READER.c ****     volatile uint8 UART_READER_txBuffer[UART_READER_TX_BUFFER_SIZE];
  31:.\Generated_Source\PSoC5/UART_READER.c ****     volatile uint8 UART_READER_txBufferRead = 0u;
ARM GAS  C:\Users\Yiquing\AppData\Local\Temp\ccJgHlWx.s 			page 2


  32:.\Generated_Source\PSoC5/UART_READER.c ****     uint8 UART_READER_txBufferWrite = 0u;
  33:.\Generated_Source\PSoC5/UART_READER.c **** #endif /* (UART_READER_TX_INTERRUPT_ENABLED && UART_READER_TX_ENABLED) */
  34:.\Generated_Source\PSoC5/UART_READER.c **** 
  35:.\Generated_Source\PSoC5/UART_READER.c **** #if (UART_READER_RX_INTERRUPT_ENABLED && (UART_READER_RX_ENABLED || UART_READER_HD_ENABLED))
  36:.\Generated_Source\PSoC5/UART_READER.c ****     uint8 UART_READER_errorStatus = 0u;
  37:.\Generated_Source\PSoC5/UART_READER.c ****     volatile uint8 UART_READER_rxBuffer[UART_READER_RX_BUFFER_SIZE];
  38:.\Generated_Source\PSoC5/UART_READER.c ****     volatile uint8 UART_READER_rxBufferRead  = 0u;
  39:.\Generated_Source\PSoC5/UART_READER.c ****     volatile uint8 UART_READER_rxBufferWrite = 0u;
  40:.\Generated_Source\PSoC5/UART_READER.c ****     volatile uint8 UART_READER_rxBufferLoopDetect = 0u;
  41:.\Generated_Source\PSoC5/UART_READER.c ****     volatile uint8 UART_READER_rxBufferOverflow   = 0u;
  42:.\Generated_Source\PSoC5/UART_READER.c ****     #if (UART_READER_RXHW_ADDRESS_ENABLED)
  43:.\Generated_Source\PSoC5/UART_READER.c ****         volatile uint8 UART_READER_rxAddressMode = UART_READER_RX_ADDRESS_MODE;
  44:.\Generated_Source\PSoC5/UART_READER.c ****         volatile uint8 UART_READER_rxAddressDetected = 0u;
  45:.\Generated_Source\PSoC5/UART_READER.c ****     #endif /* (UART_READER_RXHW_ADDRESS_ENABLED) */
  46:.\Generated_Source\PSoC5/UART_READER.c **** #endif /* (UART_READER_RX_INTERRUPT_ENABLED && (UART_READER_RX_ENABLED || UART_READER_HD_ENABLED)) 
  47:.\Generated_Source\PSoC5/UART_READER.c **** 
  48:.\Generated_Source\PSoC5/UART_READER.c **** 
  49:.\Generated_Source\PSoC5/UART_READER.c **** /*******************************************************************************
  50:.\Generated_Source\PSoC5/UART_READER.c **** * Function Name: UART_READER_Start
  51:.\Generated_Source\PSoC5/UART_READER.c **** ********************************************************************************
  52:.\Generated_Source\PSoC5/UART_READER.c **** *
  53:.\Generated_Source\PSoC5/UART_READER.c **** * Summary:
  54:.\Generated_Source\PSoC5/UART_READER.c **** *  This is the preferred method to begin component operation.
  55:.\Generated_Source\PSoC5/UART_READER.c **** *  UART_READER_Start() sets the initVar variable, calls the
  56:.\Generated_Source\PSoC5/UART_READER.c **** *  UART_READER_Init() function, and then calls the
  57:.\Generated_Source\PSoC5/UART_READER.c **** *  UART_READER_Enable() function.
  58:.\Generated_Source\PSoC5/UART_READER.c **** *
  59:.\Generated_Source\PSoC5/UART_READER.c **** * Parameters:
  60:.\Generated_Source\PSoC5/UART_READER.c **** *  None.
  61:.\Generated_Source\PSoC5/UART_READER.c **** *
  62:.\Generated_Source\PSoC5/UART_READER.c **** * Return:
  63:.\Generated_Source\PSoC5/UART_READER.c **** *  None.
  64:.\Generated_Source\PSoC5/UART_READER.c **** *
  65:.\Generated_Source\PSoC5/UART_READER.c **** * Global variables:
  66:.\Generated_Source\PSoC5/UART_READER.c **** *  The UART_READER_intiVar variable is used to indicate initial
  67:.\Generated_Source\PSoC5/UART_READER.c **** *  configuration of this component. The variable is initialized to zero (0u)
  68:.\Generated_Source\PSoC5/UART_READER.c **** *  and set to one (1u) the first time UART_READER_Start() is called. This
  69:.\Generated_Source\PSoC5/UART_READER.c **** *  allows for component initialization without re-initialization in all
  70:.\Generated_Source\PSoC5/UART_READER.c **** *  subsequent calls to the UART_READER_Start() routine.
  71:.\Generated_Source\PSoC5/UART_READER.c **** *
  72:.\Generated_Source\PSoC5/UART_READER.c **** * Reentrant:
  73:.\Generated_Source\PSoC5/UART_READER.c **** *  No.
  74:.\Generated_Source\PSoC5/UART_READER.c **** *
  75:.\Generated_Source\PSoC5/UART_READER.c **** *******************************************************************************/
  76:.\Generated_Source\PSoC5/UART_READER.c **** void UART_READER_Start(void) 
  77:.\Generated_Source\PSoC5/UART_READER.c **** {
  78:.\Generated_Source\PSoC5/UART_READER.c ****     /* If not initialized then initialize all required hardware and software */
  79:.\Generated_Source\PSoC5/UART_READER.c ****     if(UART_READER_initVar == 0u)
  80:.\Generated_Source\PSoC5/UART_READER.c ****     {
  81:.\Generated_Source\PSoC5/UART_READER.c ****         UART_READER_Init();
  82:.\Generated_Source\PSoC5/UART_READER.c ****         UART_READER_initVar = 1u;
  83:.\Generated_Source\PSoC5/UART_READER.c ****     }
  84:.\Generated_Source\PSoC5/UART_READER.c **** 
  85:.\Generated_Source\PSoC5/UART_READER.c ****     UART_READER_Enable();
  86:.\Generated_Source\PSoC5/UART_READER.c **** }
  87:.\Generated_Source\PSoC5/UART_READER.c **** 
  88:.\Generated_Source\PSoC5/UART_READER.c **** 
ARM GAS  C:\Users\Yiquing\AppData\Local\Temp\ccJgHlWx.s 			page 3


  89:.\Generated_Source\PSoC5/UART_READER.c **** /*******************************************************************************
  90:.\Generated_Source\PSoC5/UART_READER.c **** * Function Name: UART_READER_Init
  91:.\Generated_Source\PSoC5/UART_READER.c **** ********************************************************************************
  92:.\Generated_Source\PSoC5/UART_READER.c **** *
  93:.\Generated_Source\PSoC5/UART_READER.c **** * Summary:
  94:.\Generated_Source\PSoC5/UART_READER.c **** *  Initializes or restores the component according to the customizer Configure
  95:.\Generated_Source\PSoC5/UART_READER.c **** *  dialog settings. It is not necessary to call UART_READER_Init() because
  96:.\Generated_Source\PSoC5/UART_READER.c **** *  the UART_READER_Start() API calls this function and is the preferred
  97:.\Generated_Source\PSoC5/UART_READER.c **** *  method to begin component operation.
  98:.\Generated_Source\PSoC5/UART_READER.c **** *
  99:.\Generated_Source\PSoC5/UART_READER.c **** * Parameters:
 100:.\Generated_Source\PSoC5/UART_READER.c **** *  None.
 101:.\Generated_Source\PSoC5/UART_READER.c **** *
 102:.\Generated_Source\PSoC5/UART_READER.c **** * Return:
 103:.\Generated_Source\PSoC5/UART_READER.c **** *  None.
 104:.\Generated_Source\PSoC5/UART_READER.c **** *
 105:.\Generated_Source\PSoC5/UART_READER.c **** *******************************************************************************/
 106:.\Generated_Source\PSoC5/UART_READER.c **** void UART_READER_Init(void) 
 107:.\Generated_Source\PSoC5/UART_READER.c **** {
  27              		.loc 1 107 0
  28              		.cfi_startproc
  29              		@ args = 0, pretend = 0, frame = 0
  30              		@ frame_needed = 0, uses_anonymous_args = 0
  31 0000 08B5     		push	{r3, lr}
  32              		.cfi_def_cfa_offset 8
  33              		.cfi_offset 3, -8
  34              		.cfi_offset 14, -4
 108:.\Generated_Source\PSoC5/UART_READER.c ****     #if(UART_READER_RX_ENABLED || UART_READER_HD_ENABLED)
 109:.\Generated_Source\PSoC5/UART_READER.c **** 
 110:.\Generated_Source\PSoC5/UART_READER.c ****         #if (UART_READER_RX_INTERRUPT_ENABLED)
 111:.\Generated_Source\PSoC5/UART_READER.c ****             /* Set RX interrupt vector and priority */
 112:.\Generated_Source\PSoC5/UART_READER.c ****             (void) CyIntSetVector(UART_READER_RX_VECT_NUM, &UART_READER_RXISR);
  35              		.loc 1 112 0
  36 0002 0949     		ldr	r1, .L2
  37 0004 0220     		movs	r0, #2
  38 0006 FFF7FEFF 		bl	CyIntSetVector
  39              	.LVL0:
 113:.\Generated_Source\PSoC5/UART_READER.c ****             CyIntSetPriority(UART_READER_RX_VECT_NUM, UART_READER_RX_PRIOR_NUM);
  40              		.loc 1 113 0
  41 000a 0220     		movs	r0, #2
  42 000c 0721     		movs	r1, #7
  43 000e FFF7FEFF 		bl	CyIntSetPriority
  44              	.LVL1:
 114:.\Generated_Source\PSoC5/UART_READER.c ****             UART_READER_errorStatus = 0u;
  45              		.loc 1 114 0
  46 0012 064B     		ldr	r3, .L2+4
  47 0014 0022     		movs	r2, #0
  48 0016 1A70     		strb	r2, [r3]
 115:.\Generated_Source\PSoC5/UART_READER.c ****         #endif /* (UART_READER_RX_INTERRUPT_ENABLED) */
 116:.\Generated_Source\PSoC5/UART_READER.c **** 
 117:.\Generated_Source\PSoC5/UART_READER.c ****         #if (UART_READER_RXHW_ADDRESS_ENABLED)
 118:.\Generated_Source\PSoC5/UART_READER.c ****             UART_READER_SetRxAddressMode(UART_READER_RX_ADDRESS_MODE);
 119:.\Generated_Source\PSoC5/UART_READER.c ****             UART_READER_SetRxAddress1(UART_READER_RX_HW_ADDRESS1);
 120:.\Generated_Source\PSoC5/UART_READER.c ****             UART_READER_SetRxAddress2(UART_READER_RX_HW_ADDRESS2);
 121:.\Generated_Source\PSoC5/UART_READER.c ****         #endif /* End UART_READER_RXHW_ADDRESS_ENABLED */
 122:.\Generated_Source\PSoC5/UART_READER.c **** 
 123:.\Generated_Source\PSoC5/UART_READER.c ****         /* Init Count7 period */
ARM GAS  C:\Users\Yiquing\AppData\Local\Temp\ccJgHlWx.s 			page 4


 124:.\Generated_Source\PSoC5/UART_READER.c ****         UART_READER_RXBITCTR_PERIOD_REG = UART_READER_RXBITCTR_INIT;
  49              		.loc 1 124 0
  50 0018 054B     		ldr	r3, .L2+8
  51 001a 7222     		movs	r2, #114
  52 001c 1A70     		strb	r2, [r3]
 125:.\Generated_Source\PSoC5/UART_READER.c ****         /* Configure the Initial RX interrupt mask */
 126:.\Generated_Source\PSoC5/UART_READER.c ****         UART_READER_RXSTATUS_MASK_REG  = UART_READER_INIT_RX_INTERRUPTS_MASK;
  53              		.loc 1 126 0
  54 001e 2022     		movs	r2, #32
  55 0020 03F8FE2C 		strb	r2, [r3, #-254]
  56 0024 08BD     		pop	{r3, pc}
  57              	.L3:
  58 0026 00BF     		.align	2
  59              	.L2:
  60 0028 00000000 		.word	UART_READER_RXISR
  61 002c 00000000 		.word	.LANCHOR0
  62 0030 85650040 		.word	1073767813
  63              		.cfi_endproc
  64              	.LFE1:
  65              		.size	UART_READER_Init, .-UART_READER_Init
  66              		.section	.text.UART_READER_Enable,"ax",%progbits
  67              		.align	1
  68              		.global	UART_READER_Enable
  69              		.thumb
  70              		.thumb_func
  71              		.type	UART_READER_Enable, %function
  72              	UART_READER_Enable:
  73              	.LFB2:
 127:.\Generated_Source\PSoC5/UART_READER.c ****     #endif /* End UART_READER_RX_ENABLED || UART_READER_HD_ENABLED*/
 128:.\Generated_Source\PSoC5/UART_READER.c **** 
 129:.\Generated_Source\PSoC5/UART_READER.c ****     #if(UART_READER_TX_ENABLED)
 130:.\Generated_Source\PSoC5/UART_READER.c ****         #if (UART_READER_TX_INTERRUPT_ENABLED)
 131:.\Generated_Source\PSoC5/UART_READER.c ****             /* Set TX interrupt vector and priority */
 132:.\Generated_Source\PSoC5/UART_READER.c ****             (void) CyIntSetVector(UART_READER_TX_VECT_NUM, &UART_READER_TXISR);
 133:.\Generated_Source\PSoC5/UART_READER.c ****             CyIntSetPriority(UART_READER_TX_VECT_NUM, UART_READER_TX_PRIOR_NUM);
 134:.\Generated_Source\PSoC5/UART_READER.c ****         #endif /* (UART_READER_TX_INTERRUPT_ENABLED) */
 135:.\Generated_Source\PSoC5/UART_READER.c **** 
 136:.\Generated_Source\PSoC5/UART_READER.c ****         /* Write Counter Value for TX Bit Clk Generator*/
 137:.\Generated_Source\PSoC5/UART_READER.c ****         #if (UART_READER_TXCLKGEN_DP)
 138:.\Generated_Source\PSoC5/UART_READER.c ****             UART_READER_TXBITCLKGEN_CTR_REG = UART_READER_BIT_CENTER;
 139:.\Generated_Source\PSoC5/UART_READER.c ****             UART_READER_TXBITCLKTX_COMPLETE_REG = ((UART_READER_NUMBER_OF_DATA_BITS +
 140:.\Generated_Source\PSoC5/UART_READER.c ****                         UART_READER_NUMBER_OF_START_BIT) * UART_READER_OVER_SAMPLE_COUNT) - 1u;
 141:.\Generated_Source\PSoC5/UART_READER.c ****         #else
 142:.\Generated_Source\PSoC5/UART_READER.c ****             UART_READER_TXBITCTR_PERIOD_REG = ((UART_READER_NUMBER_OF_DATA_BITS +
 143:.\Generated_Source\PSoC5/UART_READER.c ****                         UART_READER_NUMBER_OF_START_BIT) * UART_READER_OVER_SAMPLE_8) - 1u;
 144:.\Generated_Source\PSoC5/UART_READER.c ****         #endif /* End UART_READER_TXCLKGEN_DP */
 145:.\Generated_Source\PSoC5/UART_READER.c **** 
 146:.\Generated_Source\PSoC5/UART_READER.c ****         /* Configure the Initial TX interrupt mask */
 147:.\Generated_Source\PSoC5/UART_READER.c ****         #if (UART_READER_TX_INTERRUPT_ENABLED)
 148:.\Generated_Source\PSoC5/UART_READER.c ****             UART_READER_TXSTATUS_MASK_REG = UART_READER_TX_STS_FIFO_EMPTY;
 149:.\Generated_Source\PSoC5/UART_READER.c ****         #else
 150:.\Generated_Source\PSoC5/UART_READER.c ****             UART_READER_TXSTATUS_MASK_REG = UART_READER_INIT_TX_INTERRUPTS_MASK;
 151:.\Generated_Source\PSoC5/UART_READER.c ****         #endif /*End UART_READER_TX_INTERRUPT_ENABLED*/
 152:.\Generated_Source\PSoC5/UART_READER.c **** 
 153:.\Generated_Source\PSoC5/UART_READER.c ****     #endif /* End UART_READER_TX_ENABLED */
 154:.\Generated_Source\PSoC5/UART_READER.c **** 
 155:.\Generated_Source\PSoC5/UART_READER.c ****     #if(UART_READER_PARITY_TYPE_SW)  /* Write Parity to Control Register */
ARM GAS  C:\Users\Yiquing\AppData\Local\Temp\ccJgHlWx.s 			page 5


 156:.\Generated_Source\PSoC5/UART_READER.c ****         UART_READER_WriteControlRegister( \
 157:.\Generated_Source\PSoC5/UART_READER.c ****             (UART_READER_ReadControlRegister() & (uint8)~UART_READER_CTRL_PARITY_TYPE_MASK) | \
 158:.\Generated_Source\PSoC5/UART_READER.c ****             (uint8)(UART_READER_PARITY_TYPE << UART_READER_CTRL_PARITY_TYPE0_SHIFT) );
 159:.\Generated_Source\PSoC5/UART_READER.c ****     #endif /* End UART_READER_PARITY_TYPE_SW */
 160:.\Generated_Source\PSoC5/UART_READER.c **** }
 161:.\Generated_Source\PSoC5/UART_READER.c **** 
 162:.\Generated_Source\PSoC5/UART_READER.c **** 
 163:.\Generated_Source\PSoC5/UART_READER.c **** /*******************************************************************************
 164:.\Generated_Source\PSoC5/UART_READER.c **** * Function Name: UART_READER_Enable
 165:.\Generated_Source\PSoC5/UART_READER.c **** ********************************************************************************
 166:.\Generated_Source\PSoC5/UART_READER.c **** *
 167:.\Generated_Source\PSoC5/UART_READER.c **** * Summary:
 168:.\Generated_Source\PSoC5/UART_READER.c **** *  Activates the hardware and begins component operation. It is not necessary
 169:.\Generated_Source\PSoC5/UART_READER.c **** *  to call UART_READER_Enable() because the UART_READER_Start() API
 170:.\Generated_Source\PSoC5/UART_READER.c **** *  calls this function, which is the preferred method to begin component
 171:.\Generated_Source\PSoC5/UART_READER.c **** *  operation.
 172:.\Generated_Source\PSoC5/UART_READER.c **** 
 173:.\Generated_Source\PSoC5/UART_READER.c **** * Parameters:
 174:.\Generated_Source\PSoC5/UART_READER.c **** *  None.
 175:.\Generated_Source\PSoC5/UART_READER.c **** *
 176:.\Generated_Source\PSoC5/UART_READER.c **** * Return:
 177:.\Generated_Source\PSoC5/UART_READER.c **** *  None.
 178:.\Generated_Source\PSoC5/UART_READER.c **** *
 179:.\Generated_Source\PSoC5/UART_READER.c **** * Global Variables:
 180:.\Generated_Source\PSoC5/UART_READER.c **** *  UART_READER_rxAddressDetected - set to initial state (0).
 181:.\Generated_Source\PSoC5/UART_READER.c **** *
 182:.\Generated_Source\PSoC5/UART_READER.c **** *******************************************************************************/
 183:.\Generated_Source\PSoC5/UART_READER.c **** void UART_READER_Enable(void) 
 184:.\Generated_Source\PSoC5/UART_READER.c **** {
  74              		.loc 1 184 0
  75              		.cfi_startproc
  76              		@ args = 0, pretend = 0, frame = 0
  77              		@ frame_needed = 0, uses_anonymous_args = 0
  78 0000 08B5     		push	{r3, lr}
  79              		.cfi_def_cfa_offset 8
  80              		.cfi_offset 3, -8
  81              		.cfi_offset 14, -4
 185:.\Generated_Source\PSoC5/UART_READER.c ****     uint8 enableInterrupts;
 186:.\Generated_Source\PSoC5/UART_READER.c ****     enableInterrupts = CyEnterCriticalSection();
  82              		.loc 1 186 0
  83 0002 FFF7FEFF 		bl	CyEnterCriticalSection
  84              	.LVL2:
 187:.\Generated_Source\PSoC5/UART_READER.c **** 
 188:.\Generated_Source\PSoC5/UART_READER.c ****     #if (UART_READER_RX_ENABLED || UART_READER_HD_ENABLED)
 189:.\Generated_Source\PSoC5/UART_READER.c ****         /* RX Counter (Count7) Enable */
 190:.\Generated_Source\PSoC5/UART_READER.c ****         UART_READER_RXBITCTR_CONTROL_REG |= UART_READER_CNTR_ENABLE;
  85              		.loc 1 190 0
  86 0006 094B     		ldr	r3, .L5
  87 0008 1A78     		ldrb	r2, [r3]	@ zero_extendqisi2
  88 000a 42F02002 		orr	r2, r2, #32
  89 000e 1A70     		strb	r2, [r3]
 191:.\Generated_Source\PSoC5/UART_READER.c **** 
 192:.\Generated_Source\PSoC5/UART_READER.c ****         /* Enable the RX Interrupt */
 193:.\Generated_Source\PSoC5/UART_READER.c ****         UART_READER_RXSTATUS_ACTL_REG  |= UART_READER_INT_ENABLE;
  90              		.loc 1 193 0
  91 0010 13F8FE2C 		ldrb	r2, [r3, #-254]	@ zero_extendqisi2
  92 0014 42F01002 		orr	r2, r2, #16
ARM GAS  C:\Users\Yiquing\AppData\Local\Temp\ccJgHlWx.s 			page 6


  93 0018 03F8FE2C 		strb	r2, [r3, #-254]
 194:.\Generated_Source\PSoC5/UART_READER.c **** 
 195:.\Generated_Source\PSoC5/UART_READER.c ****         #if (UART_READER_RX_INTERRUPT_ENABLED)
 196:.\Generated_Source\PSoC5/UART_READER.c ****             UART_READER_EnableRxInt();
  94              		.loc 1 196 0
  95 001c 044B     		ldr	r3, .L5+4
  96 001e 0422     		movs	r2, #4
  97 0020 1A60     		str	r2, [r3]
 197:.\Generated_Source\PSoC5/UART_READER.c **** 
 198:.\Generated_Source\PSoC5/UART_READER.c ****             #if (UART_READER_RXHW_ADDRESS_ENABLED)
 199:.\Generated_Source\PSoC5/UART_READER.c ****                 UART_READER_rxAddressDetected = 0u;
 200:.\Generated_Source\PSoC5/UART_READER.c ****             #endif /* (UART_READER_RXHW_ADDRESS_ENABLED) */
 201:.\Generated_Source\PSoC5/UART_READER.c ****         #endif /* (UART_READER_RX_INTERRUPT_ENABLED) */
 202:.\Generated_Source\PSoC5/UART_READER.c ****     #endif /* (UART_READER_RX_ENABLED || UART_READER_HD_ENABLED) */
 203:.\Generated_Source\PSoC5/UART_READER.c **** 
 204:.\Generated_Source\PSoC5/UART_READER.c ****     #if(UART_READER_TX_ENABLED)
 205:.\Generated_Source\PSoC5/UART_READER.c ****         /* TX Counter (DP/Count7) Enable */
 206:.\Generated_Source\PSoC5/UART_READER.c ****         #if(!UART_READER_TXCLKGEN_DP)
 207:.\Generated_Source\PSoC5/UART_READER.c ****             UART_READER_TXBITCTR_CONTROL_REG |= UART_READER_CNTR_ENABLE;
 208:.\Generated_Source\PSoC5/UART_READER.c ****         #endif /* End UART_READER_TXCLKGEN_DP */
 209:.\Generated_Source\PSoC5/UART_READER.c **** 
 210:.\Generated_Source\PSoC5/UART_READER.c ****         /* Enable the TX Interrupt */
 211:.\Generated_Source\PSoC5/UART_READER.c ****         UART_READER_TXSTATUS_ACTL_REG |= UART_READER_INT_ENABLE;
 212:.\Generated_Source\PSoC5/UART_READER.c ****         #if (UART_READER_TX_INTERRUPT_ENABLED)
 213:.\Generated_Source\PSoC5/UART_READER.c ****             UART_READER_ClearPendingTxInt(); /* Clear history of TX_NOT_EMPTY */
 214:.\Generated_Source\PSoC5/UART_READER.c ****             UART_READER_EnableTxInt();
 215:.\Generated_Source\PSoC5/UART_READER.c ****         #endif /* (UART_READER_TX_INTERRUPT_ENABLED) */
 216:.\Generated_Source\PSoC5/UART_READER.c ****      #endif /* (UART_READER_TX_INTERRUPT_ENABLED) */
 217:.\Generated_Source\PSoC5/UART_READER.c **** 
 218:.\Generated_Source\PSoC5/UART_READER.c ****     #if (UART_READER_INTERNAL_CLOCK_USED)
 219:.\Generated_Source\PSoC5/UART_READER.c ****         UART_READER_IntClock_Start();  /* Enable the clock */
 220:.\Generated_Source\PSoC5/UART_READER.c ****     #endif /* (UART_READER_INTERNAL_CLOCK_USED) */
 221:.\Generated_Source\PSoC5/UART_READER.c **** 
 222:.\Generated_Source\PSoC5/UART_READER.c ****     CyExitCriticalSection(enableInterrupts);
 223:.\Generated_Source\PSoC5/UART_READER.c **** }
  98              		.loc 1 223 0
  99 0022 BDE80840 		pop	{r3, lr}
 222:.\Generated_Source\PSoC5/UART_READER.c ****     CyExitCriticalSection(enableInterrupts);
 100              		.loc 1 222 0
 101 0026 FFF7FEBF 		b	CyExitCriticalSection
 102              	.LVL3:
 103              	.L6:
 104 002a 00BF     		.align	2
 105              	.L5:
 106 002c 95650040 		.word	1073767829
 107 0030 00E100E0 		.word	-536813312
 108              		.cfi_endproc
 109              	.LFE2:
 110              		.size	UART_READER_Enable, .-UART_READER_Enable
 111              		.section	.text.UART_READER_Start,"ax",%progbits
 112              		.align	1
 113              		.global	UART_READER_Start
 114              		.thumb
 115              		.thumb_func
 116              		.type	UART_READER_Start, %function
 117              	UART_READER_Start:
 118              	.LFB0:
ARM GAS  C:\Users\Yiquing\AppData\Local\Temp\ccJgHlWx.s 			page 7


  77:.\Generated_Source\PSoC5/UART_READER.c **** {
 119              		.loc 1 77 0
 120              		.cfi_startproc
 121              		@ args = 0, pretend = 0, frame = 0
 122              		@ frame_needed = 0, uses_anonymous_args = 0
 123 0000 10B5     		push	{r4, lr}
 124              		.cfi_def_cfa_offset 8
 125              		.cfi_offset 4, -8
 126              		.cfi_offset 14, -4
  79:.\Generated_Source\PSoC5/UART_READER.c ****     if(UART_READER_initVar == 0u)
 127              		.loc 1 79 0
 128 0002 054C     		ldr	r4, .L10
 129 0004 6378     		ldrb	r3, [r4, #1]	@ zero_extendqisi2
 130 0006 1BB9     		cbnz	r3, .L8
  81:.\Generated_Source\PSoC5/UART_READER.c ****         UART_READER_Init();
 131              		.loc 1 81 0
 132 0008 FFF7FEFF 		bl	UART_READER_Init
 133              	.LVL4:
  82:.\Generated_Source\PSoC5/UART_READER.c ****         UART_READER_initVar = 1u;
 134              		.loc 1 82 0
 135 000c 0123     		movs	r3, #1
 136 000e 6370     		strb	r3, [r4, #1]
 137              	.L8:
  86:.\Generated_Source\PSoC5/UART_READER.c **** }
 138              		.loc 1 86 0
 139 0010 BDE81040 		pop	{r4, lr}
  85:.\Generated_Source\PSoC5/UART_READER.c ****     UART_READER_Enable();
 140              		.loc 1 85 0
 141 0014 FFF7FEBF 		b	UART_READER_Enable
 142              	.LVL5:
 143              	.L11:
 144              		.align	2
 145              	.L10:
 146 0018 00000000 		.word	.LANCHOR0
 147              		.cfi_endproc
 148              	.LFE0:
 149              		.size	UART_READER_Start, .-UART_READER_Start
 150              		.section	.text.UART_READER_Stop,"ax",%progbits
 151              		.align	1
 152              		.global	UART_READER_Stop
 153              		.thumb
 154              		.thumb_func
 155              		.type	UART_READER_Stop, %function
 156              	UART_READER_Stop:
 157              	.LFB3:
 224:.\Generated_Source\PSoC5/UART_READER.c **** 
 225:.\Generated_Source\PSoC5/UART_READER.c **** 
 226:.\Generated_Source\PSoC5/UART_READER.c **** /*******************************************************************************
 227:.\Generated_Source\PSoC5/UART_READER.c **** * Function Name: UART_READER_Stop
 228:.\Generated_Source\PSoC5/UART_READER.c **** ********************************************************************************
 229:.\Generated_Source\PSoC5/UART_READER.c **** *
 230:.\Generated_Source\PSoC5/UART_READER.c **** * Summary:
 231:.\Generated_Source\PSoC5/UART_READER.c **** *  Disables the UART operation.
 232:.\Generated_Source\PSoC5/UART_READER.c **** *
 233:.\Generated_Source\PSoC5/UART_READER.c **** * Parameters:
 234:.\Generated_Source\PSoC5/UART_READER.c **** *  None.
 235:.\Generated_Source\PSoC5/UART_READER.c **** *
ARM GAS  C:\Users\Yiquing\AppData\Local\Temp\ccJgHlWx.s 			page 8


 236:.\Generated_Source\PSoC5/UART_READER.c **** * Return:
 237:.\Generated_Source\PSoC5/UART_READER.c **** *  None.
 238:.\Generated_Source\PSoC5/UART_READER.c **** *
 239:.\Generated_Source\PSoC5/UART_READER.c **** *******************************************************************************/
 240:.\Generated_Source\PSoC5/UART_READER.c **** void UART_READER_Stop(void) 
 241:.\Generated_Source\PSoC5/UART_READER.c **** {
 158              		.loc 1 241 0
 159              		.cfi_startproc
 160              		@ args = 0, pretend = 0, frame = 0
 161              		@ frame_needed = 0, uses_anonymous_args = 0
 162 0000 08B5     		push	{r3, lr}
 163              		.cfi_def_cfa_offset 8
 164              		.cfi_offset 3, -8
 165              		.cfi_offset 14, -4
 242:.\Generated_Source\PSoC5/UART_READER.c ****     uint8 enableInterrupts;
 243:.\Generated_Source\PSoC5/UART_READER.c ****     enableInterrupts = CyEnterCriticalSection();
 166              		.loc 1 243 0
 167 0002 FFF7FEFF 		bl	CyEnterCriticalSection
 168              	.LVL6:
 244:.\Generated_Source\PSoC5/UART_READER.c **** 
 245:.\Generated_Source\PSoC5/UART_READER.c ****     /* Write Bit Counter Disable */
 246:.\Generated_Source\PSoC5/UART_READER.c ****     #if (UART_READER_RX_ENABLED || UART_READER_HD_ENABLED)
 247:.\Generated_Source\PSoC5/UART_READER.c ****         UART_READER_RXBITCTR_CONTROL_REG &= (uint8) ~UART_READER_CNTR_ENABLE;
 169              		.loc 1 247 0
 170 0006 094B     		ldr	r3, .L13
 171 0008 1A78     		ldrb	r2, [r3]	@ zero_extendqisi2
 172 000a 02F0DF02 		and	r2, r2, #223
 173 000e 1A70     		strb	r2, [r3]
 248:.\Generated_Source\PSoC5/UART_READER.c ****     #endif /* (UART_READER_RX_ENABLED || UART_READER_HD_ENABLED) */
 249:.\Generated_Source\PSoC5/UART_READER.c **** 
 250:.\Generated_Source\PSoC5/UART_READER.c ****     #if (UART_READER_TX_ENABLED)
 251:.\Generated_Source\PSoC5/UART_READER.c ****         #if(!UART_READER_TXCLKGEN_DP)
 252:.\Generated_Source\PSoC5/UART_READER.c ****             UART_READER_TXBITCTR_CONTROL_REG &= (uint8) ~UART_READER_CNTR_ENABLE;
 253:.\Generated_Source\PSoC5/UART_READER.c ****         #endif /* (!UART_READER_TXCLKGEN_DP) */
 254:.\Generated_Source\PSoC5/UART_READER.c ****     #endif /* (UART_READER_TX_ENABLED) */
 255:.\Generated_Source\PSoC5/UART_READER.c **** 
 256:.\Generated_Source\PSoC5/UART_READER.c ****     #if (UART_READER_INTERNAL_CLOCK_USED)
 257:.\Generated_Source\PSoC5/UART_READER.c ****         UART_READER_IntClock_Stop();   /* Disable the clock */
 258:.\Generated_Source\PSoC5/UART_READER.c ****     #endif /* (UART_READER_INTERNAL_CLOCK_USED) */
 259:.\Generated_Source\PSoC5/UART_READER.c **** 
 260:.\Generated_Source\PSoC5/UART_READER.c ****     /* Disable internal interrupt component */
 261:.\Generated_Source\PSoC5/UART_READER.c ****     #if (UART_READER_RX_ENABLED || UART_READER_HD_ENABLED)
 262:.\Generated_Source\PSoC5/UART_READER.c ****         UART_READER_RXSTATUS_ACTL_REG  &= (uint8) ~UART_READER_INT_ENABLE;
 174              		.loc 1 262 0
 175 0010 13F8FE2C 		ldrb	r2, [r3, #-254]	@ zero_extendqisi2
 176 0014 02F0EF02 		and	r2, r2, #239
 177 0018 03F8FE2C 		strb	r2, [r3, #-254]
 263:.\Generated_Source\PSoC5/UART_READER.c **** 
 264:.\Generated_Source\PSoC5/UART_READER.c ****         #if (UART_READER_RX_INTERRUPT_ENABLED)
 265:.\Generated_Source\PSoC5/UART_READER.c ****             UART_READER_DisableRxInt();
 178              		.loc 1 265 0
 179 001c 044B     		ldr	r3, .L13+4
 180 001e 0422     		movs	r2, #4
 181 0020 1A60     		str	r2, [r3]
 266:.\Generated_Source\PSoC5/UART_READER.c ****         #endif /* (UART_READER_RX_INTERRUPT_ENABLED) */
 267:.\Generated_Source\PSoC5/UART_READER.c ****     #endif /* (UART_READER_RX_ENABLED || UART_READER_HD_ENABLED) */
 268:.\Generated_Source\PSoC5/UART_READER.c **** 
ARM GAS  C:\Users\Yiquing\AppData\Local\Temp\ccJgHlWx.s 			page 9


 269:.\Generated_Source\PSoC5/UART_READER.c ****     #if (UART_READER_TX_ENABLED)
 270:.\Generated_Source\PSoC5/UART_READER.c ****         UART_READER_TXSTATUS_ACTL_REG &= (uint8) ~UART_READER_INT_ENABLE;
 271:.\Generated_Source\PSoC5/UART_READER.c **** 
 272:.\Generated_Source\PSoC5/UART_READER.c ****         #if (UART_READER_TX_INTERRUPT_ENABLED)
 273:.\Generated_Source\PSoC5/UART_READER.c ****             UART_READER_DisableTxInt();
 274:.\Generated_Source\PSoC5/UART_READER.c ****         #endif /* (UART_READER_TX_INTERRUPT_ENABLED) */
 275:.\Generated_Source\PSoC5/UART_READER.c ****     #endif /* (UART_READER_TX_ENABLED) */
 276:.\Generated_Source\PSoC5/UART_READER.c **** 
 277:.\Generated_Source\PSoC5/UART_READER.c ****     CyExitCriticalSection(enableInterrupts);
 278:.\Generated_Source\PSoC5/UART_READER.c **** }
 182              		.loc 1 278 0
 183 0022 BDE80840 		pop	{r3, lr}
 277:.\Generated_Source\PSoC5/UART_READER.c ****     CyExitCriticalSection(enableInterrupts);
 184              		.loc 1 277 0
 185 0026 FFF7FEBF 		b	CyExitCriticalSection
 186              	.LVL7:
 187              	.L14:
 188 002a 00BF     		.align	2
 189              	.L13:
 190 002c 95650040 		.word	1073767829
 191 0030 80E100E0 		.word	-536813184
 192              		.cfi_endproc
 193              	.LFE3:
 194              		.size	UART_READER_Stop, .-UART_READER_Stop
 195              		.section	.text.UART_READER_ReadControlRegister,"ax",%progbits
 196              		.align	1
 197              		.global	UART_READER_ReadControlRegister
 198              		.thumb
 199              		.thumb_func
 200              		.type	UART_READER_ReadControlRegister, %function
 201              	UART_READER_ReadControlRegister:
 202              	.LFB4:
 279:.\Generated_Source\PSoC5/UART_READER.c **** 
 280:.\Generated_Source\PSoC5/UART_READER.c **** 
 281:.\Generated_Source\PSoC5/UART_READER.c **** /*******************************************************************************
 282:.\Generated_Source\PSoC5/UART_READER.c **** * Function Name: UART_READER_ReadControlRegister
 283:.\Generated_Source\PSoC5/UART_READER.c **** ********************************************************************************
 284:.\Generated_Source\PSoC5/UART_READER.c **** *
 285:.\Generated_Source\PSoC5/UART_READER.c **** * Summary:
 286:.\Generated_Source\PSoC5/UART_READER.c **** *  Returns the current value of the control register.
 287:.\Generated_Source\PSoC5/UART_READER.c **** *
 288:.\Generated_Source\PSoC5/UART_READER.c **** * Parameters:
 289:.\Generated_Source\PSoC5/UART_READER.c **** *  None.
 290:.\Generated_Source\PSoC5/UART_READER.c **** *
 291:.\Generated_Source\PSoC5/UART_READER.c **** * Return:
 292:.\Generated_Source\PSoC5/UART_READER.c **** *  Contents of the control register.
 293:.\Generated_Source\PSoC5/UART_READER.c **** *
 294:.\Generated_Source\PSoC5/UART_READER.c **** *******************************************************************************/
 295:.\Generated_Source\PSoC5/UART_READER.c **** uint8 UART_READER_ReadControlRegister(void) 
 296:.\Generated_Source\PSoC5/UART_READER.c **** {
 203              		.loc 1 296 0
 204              		.cfi_startproc
 205              		@ args = 0, pretend = 0, frame = 0
 206              		@ frame_needed = 0, uses_anonymous_args = 0
 207              		@ link register save eliminated.
 297:.\Generated_Source\PSoC5/UART_READER.c ****     #if (UART_READER_CONTROL_REG_REMOVED)
 298:.\Generated_Source\PSoC5/UART_READER.c ****         return(0u);
ARM GAS  C:\Users\Yiquing\AppData\Local\Temp\ccJgHlWx.s 			page 10


 299:.\Generated_Source\PSoC5/UART_READER.c ****     #else
 300:.\Generated_Source\PSoC5/UART_READER.c ****         return(UART_READER_CONTROL_REG);
 208              		.loc 1 300 0
 209 0000 014B     		ldr	r3, .L16
 210 0002 1878     		ldrb	r0, [r3]	@ zero_extendqisi2
 301:.\Generated_Source\PSoC5/UART_READER.c ****     #endif /* (UART_READER_CONTROL_REG_REMOVED) */
 302:.\Generated_Source\PSoC5/UART_READER.c **** }
 211              		.loc 1 302 0
 212 0004 7047     		bx	lr
 213              	.L17:
 214 0006 00BF     		.align	2
 215              	.L16:
 216 0008 78650040 		.word	1073767800
 217              		.cfi_endproc
 218              	.LFE4:
 219              		.size	UART_READER_ReadControlRegister, .-UART_READER_ReadControlRegister
 220              		.section	.text.UART_READER_WriteControlRegister,"ax",%progbits
 221              		.align	1
 222              		.global	UART_READER_WriteControlRegister
 223              		.thumb
 224              		.thumb_func
 225              		.type	UART_READER_WriteControlRegister, %function
 226              	UART_READER_WriteControlRegister:
 227              	.LFB5:
 303:.\Generated_Source\PSoC5/UART_READER.c **** 
 304:.\Generated_Source\PSoC5/UART_READER.c **** 
 305:.\Generated_Source\PSoC5/UART_READER.c **** /*******************************************************************************
 306:.\Generated_Source\PSoC5/UART_READER.c **** * Function Name: UART_READER_WriteControlRegister
 307:.\Generated_Source\PSoC5/UART_READER.c **** ********************************************************************************
 308:.\Generated_Source\PSoC5/UART_READER.c **** *
 309:.\Generated_Source\PSoC5/UART_READER.c **** * Summary:
 310:.\Generated_Source\PSoC5/UART_READER.c **** *  Writes an 8-bit value into the control register
 311:.\Generated_Source\PSoC5/UART_READER.c **** *
 312:.\Generated_Source\PSoC5/UART_READER.c **** * Parameters:
 313:.\Generated_Source\PSoC5/UART_READER.c **** *  control:  control register value
 314:.\Generated_Source\PSoC5/UART_READER.c **** *
 315:.\Generated_Source\PSoC5/UART_READER.c **** * Return:
 316:.\Generated_Source\PSoC5/UART_READER.c **** *  None.
 317:.\Generated_Source\PSoC5/UART_READER.c **** *
 318:.\Generated_Source\PSoC5/UART_READER.c **** *******************************************************************************/
 319:.\Generated_Source\PSoC5/UART_READER.c **** void  UART_READER_WriteControlRegister(uint8 control) 
 320:.\Generated_Source\PSoC5/UART_READER.c **** {
 228              		.loc 1 320 0
 229              		.cfi_startproc
 230              		@ args = 0, pretend = 0, frame = 0
 231              		@ frame_needed = 0, uses_anonymous_args = 0
 232              		@ link register save eliminated.
 233              	.LVL8:
 321:.\Generated_Source\PSoC5/UART_READER.c ****     #if (UART_READER_CONTROL_REG_REMOVED)
 322:.\Generated_Source\PSoC5/UART_READER.c ****         if(0u != control)
 323:.\Generated_Source\PSoC5/UART_READER.c ****         {
 324:.\Generated_Source\PSoC5/UART_READER.c ****             /* Suppress compiler warning */
 325:.\Generated_Source\PSoC5/UART_READER.c ****         }
 326:.\Generated_Source\PSoC5/UART_READER.c ****     #else
 327:.\Generated_Source\PSoC5/UART_READER.c ****        UART_READER_CONTROL_REG = control;
 234              		.loc 1 327 0
 235 0000 014B     		ldr	r3, .L19
ARM GAS  C:\Users\Yiquing\AppData\Local\Temp\ccJgHlWx.s 			page 11


 236 0002 1870     		strb	r0, [r3]
 237 0004 7047     		bx	lr
 238              	.L20:
 239 0006 00BF     		.align	2
 240              	.L19:
 241 0008 78650040 		.word	1073767800
 242              		.cfi_endproc
 243              	.LFE5:
 244              		.size	UART_READER_WriteControlRegister, .-UART_READER_WriteControlRegister
 245              		.section	.text.UART_READER_SetRxInterruptMode,"ax",%progbits
 246              		.align	1
 247              		.global	UART_READER_SetRxInterruptMode
 248              		.thumb
 249              		.thumb_func
 250              		.type	UART_READER_SetRxInterruptMode, %function
 251              	UART_READER_SetRxInterruptMode:
 252              	.LFB6:
 328:.\Generated_Source\PSoC5/UART_READER.c ****     #endif /* (UART_READER_CONTROL_REG_REMOVED) */
 329:.\Generated_Source\PSoC5/UART_READER.c **** }
 330:.\Generated_Source\PSoC5/UART_READER.c **** 
 331:.\Generated_Source\PSoC5/UART_READER.c **** 
 332:.\Generated_Source\PSoC5/UART_READER.c **** #if(UART_READER_RX_ENABLED || UART_READER_HD_ENABLED)
 333:.\Generated_Source\PSoC5/UART_READER.c ****     /*******************************************************************************
 334:.\Generated_Source\PSoC5/UART_READER.c ****     * Function Name: UART_READER_SetRxInterruptMode
 335:.\Generated_Source\PSoC5/UART_READER.c ****     ********************************************************************************
 336:.\Generated_Source\PSoC5/UART_READER.c ****     *
 337:.\Generated_Source\PSoC5/UART_READER.c ****     * Summary:
 338:.\Generated_Source\PSoC5/UART_READER.c ****     *  Configures the RX interrupt sources enabled.
 339:.\Generated_Source\PSoC5/UART_READER.c ****     *
 340:.\Generated_Source\PSoC5/UART_READER.c ****     * Parameters:
 341:.\Generated_Source\PSoC5/UART_READER.c ****     *  IntSrc:  Bit field containing the RX interrupts to enable. Based on the 
 342:.\Generated_Source\PSoC5/UART_READER.c ****     *  bit-field arrangement of the status register. This value must be a 
 343:.\Generated_Source\PSoC5/UART_READER.c ****     *  combination of status register bit-masks shown below:
 344:.\Generated_Source\PSoC5/UART_READER.c ****     *      UART_READER_RX_STS_FIFO_NOTEMPTY    Interrupt on byte received.
 345:.\Generated_Source\PSoC5/UART_READER.c ****     *      UART_READER_RX_STS_PAR_ERROR        Interrupt on parity error.
 346:.\Generated_Source\PSoC5/UART_READER.c ****     *      UART_READER_RX_STS_STOP_ERROR       Interrupt on stop error.
 347:.\Generated_Source\PSoC5/UART_READER.c ****     *      UART_READER_RX_STS_BREAK            Interrupt on break.
 348:.\Generated_Source\PSoC5/UART_READER.c ****     *      UART_READER_RX_STS_OVERRUN          Interrupt on overrun error.
 349:.\Generated_Source\PSoC5/UART_READER.c ****     *      UART_READER_RX_STS_ADDR_MATCH       Interrupt on address match.
 350:.\Generated_Source\PSoC5/UART_READER.c ****     *      UART_READER_RX_STS_MRKSPC           Interrupt on address detect.
 351:.\Generated_Source\PSoC5/UART_READER.c ****     *
 352:.\Generated_Source\PSoC5/UART_READER.c ****     * Return:
 353:.\Generated_Source\PSoC5/UART_READER.c ****     *  None.
 354:.\Generated_Source\PSoC5/UART_READER.c ****     *
 355:.\Generated_Source\PSoC5/UART_READER.c ****     * Theory:
 356:.\Generated_Source\PSoC5/UART_READER.c ****     *  Enables the output of specific status bits to the interrupt controller
 357:.\Generated_Source\PSoC5/UART_READER.c ****     *
 358:.\Generated_Source\PSoC5/UART_READER.c ****     *******************************************************************************/
 359:.\Generated_Source\PSoC5/UART_READER.c ****     void UART_READER_SetRxInterruptMode(uint8 intSrc) 
 360:.\Generated_Source\PSoC5/UART_READER.c ****     {
 253              		.loc 1 360 0
 254              		.cfi_startproc
 255              		@ args = 0, pretend = 0, frame = 0
 256              		@ frame_needed = 0, uses_anonymous_args = 0
 257              		@ link register save eliminated.
 258              	.LVL9:
 361:.\Generated_Source\PSoC5/UART_READER.c ****         UART_READER_RXSTATUS_MASK_REG  = intSrc;
ARM GAS  C:\Users\Yiquing\AppData\Local\Temp\ccJgHlWx.s 			page 12


 259              		.loc 1 361 0
 260 0000 014B     		ldr	r3, .L22
 261 0002 1870     		strb	r0, [r3]
 262 0004 7047     		bx	lr
 263              	.L23:
 264 0006 00BF     		.align	2
 265              	.L22:
 266 0008 87640040 		.word	1073767559
 267              		.cfi_endproc
 268              	.LFE6:
 269              		.size	UART_READER_SetRxInterruptMode, .-UART_READER_SetRxInterruptMode
 270              		.section	.text.UART_READER_ReadRxData,"ax",%progbits
 271              		.align	1
 272              		.global	UART_READER_ReadRxData
 273              		.thumb
 274              		.thumb_func
 275              		.type	UART_READER_ReadRxData, %function
 276              	UART_READER_ReadRxData:
 277              	.LFB7:
 362:.\Generated_Source\PSoC5/UART_READER.c ****     }
 363:.\Generated_Source\PSoC5/UART_READER.c **** 
 364:.\Generated_Source\PSoC5/UART_READER.c **** 
 365:.\Generated_Source\PSoC5/UART_READER.c ****     /*******************************************************************************
 366:.\Generated_Source\PSoC5/UART_READER.c ****     * Function Name: UART_READER_ReadRxData
 367:.\Generated_Source\PSoC5/UART_READER.c ****     ********************************************************************************
 368:.\Generated_Source\PSoC5/UART_READER.c ****     *
 369:.\Generated_Source\PSoC5/UART_READER.c ****     * Summary:
 370:.\Generated_Source\PSoC5/UART_READER.c ****     *  Returns the next byte of received data. This function returns data without
 371:.\Generated_Source\PSoC5/UART_READER.c ****     *  checking the status. You must check the status separately.
 372:.\Generated_Source\PSoC5/UART_READER.c ****     *
 373:.\Generated_Source\PSoC5/UART_READER.c ****     * Parameters:
 374:.\Generated_Source\PSoC5/UART_READER.c ****     *  None.
 375:.\Generated_Source\PSoC5/UART_READER.c ****     *
 376:.\Generated_Source\PSoC5/UART_READER.c ****     * Return:
 377:.\Generated_Source\PSoC5/UART_READER.c ****     *  Received data from RX register
 378:.\Generated_Source\PSoC5/UART_READER.c ****     *
 379:.\Generated_Source\PSoC5/UART_READER.c ****     * Global Variables:
 380:.\Generated_Source\PSoC5/UART_READER.c ****     *  UART_READER_rxBuffer - RAM buffer pointer for save received data.
 381:.\Generated_Source\PSoC5/UART_READER.c ****     *  UART_READER_rxBufferWrite - cyclic index for write to rxBuffer,
 382:.\Generated_Source\PSoC5/UART_READER.c ****     *     checked to identify new data.
 383:.\Generated_Source\PSoC5/UART_READER.c ****     *  UART_READER_rxBufferRead - cyclic index for read from rxBuffer,
 384:.\Generated_Source\PSoC5/UART_READER.c ****     *     incremented after each byte has been read from buffer.
 385:.\Generated_Source\PSoC5/UART_READER.c ****     *  UART_READER_rxBufferLoopDetect - cleared if loop condition was detected
 386:.\Generated_Source\PSoC5/UART_READER.c ****     *     in RX ISR.
 387:.\Generated_Source\PSoC5/UART_READER.c ****     *
 388:.\Generated_Source\PSoC5/UART_READER.c ****     * Reentrant:
 389:.\Generated_Source\PSoC5/UART_READER.c ****     *  No.
 390:.\Generated_Source\PSoC5/UART_READER.c ****     *
 391:.\Generated_Source\PSoC5/UART_READER.c ****     *******************************************************************************/
 392:.\Generated_Source\PSoC5/UART_READER.c ****     uint8 UART_READER_ReadRxData(void) 
 393:.\Generated_Source\PSoC5/UART_READER.c ****     {
 278              		.loc 1 393 0
 279              		.cfi_startproc
 280              		@ args = 0, pretend = 0, frame = 0
 281              		@ frame_needed = 0, uses_anonymous_args = 0
 282              		@ link register save eliminated.
 394:.\Generated_Source\PSoC5/UART_READER.c ****         uint8 rxData;
ARM GAS  C:\Users\Yiquing\AppData\Local\Temp\ccJgHlWx.s 			page 13


 395:.\Generated_Source\PSoC5/UART_READER.c **** 
 396:.\Generated_Source\PSoC5/UART_READER.c ****     #if (UART_READER_RX_INTERRUPT_ENABLED)
 397:.\Generated_Source\PSoC5/UART_READER.c **** 
 398:.\Generated_Source\PSoC5/UART_READER.c ****         uint8 locRxBufferRead;
 399:.\Generated_Source\PSoC5/UART_READER.c ****         uint8 locRxBufferWrite;
 400:.\Generated_Source\PSoC5/UART_READER.c **** 
 401:.\Generated_Source\PSoC5/UART_READER.c ****         /* Protect variables that could change on interrupt */
 402:.\Generated_Source\PSoC5/UART_READER.c ****         UART_READER_DisableRxInt();
 283              		.loc 1 402 0
 284 0000 114B     		ldr	r3, .L33
 285 0002 0422     		movs	r2, #4
 286 0004 1A60     		str	r2, [r3]
 403:.\Generated_Source\PSoC5/UART_READER.c **** 
 404:.\Generated_Source\PSoC5/UART_READER.c ****         locRxBufferRead  = UART_READER_rxBufferRead;
 287              		.loc 1 404 0
 288 0006 114A     		ldr	r2, .L33+4
 289 0008 9378     		ldrb	r3, [r2, #2]	@ zero_extendqisi2
 405:.\Generated_Source\PSoC5/UART_READER.c ****         locRxBufferWrite = UART_READER_rxBufferWrite;
 290              		.loc 1 405 0
 291 000a D178     		ldrb	r1, [r2, #3]	@ zero_extendqisi2
 406:.\Generated_Source\PSoC5/UART_READER.c **** 
 407:.\Generated_Source\PSoC5/UART_READER.c ****         if( (UART_READER_rxBufferLoopDetect != 0u) || (locRxBufferRead != locRxBufferWrite) )
 292              		.loc 1 407 0
 293 000c 1079     		ldrb	r0, [r2, #4]	@ zero_extendqisi2
 404:.\Generated_Source\PSoC5/UART_READER.c ****         locRxBufferRead  = UART_READER_rxBufferRead;
 294              		.loc 1 404 0
 295 000e DBB2     		uxtb	r3, r3
 296              	.LVL10:
 405:.\Generated_Source\PSoC5/UART_READER.c ****         locRxBufferWrite = UART_READER_rxBufferWrite;
 297              		.loc 1 405 0
 298 0010 C9B2     		uxtb	r1, r1
 299              	.LVL11:
 300              		.loc 1 407 0
 301 0012 08B9     		cbnz	r0, .L25
 302              		.loc 1 407 0 is_stmt 0 discriminator 1
 303 0014 8B42     		cmp	r3, r1
 304 0016 0FD0     		beq	.L26
 305              	.L25:
 408:.\Generated_Source\PSoC5/UART_READER.c ****         {
 409:.\Generated_Source\PSoC5/UART_READER.c ****             rxData = UART_READER_rxBuffer[locRxBufferRead];
 306              		.loc 1 409 0 is_stmt 1
 307 0018 0D49     		ldr	r1, .L33+8
 308              	.LVL12:
 309 001a C85C     		ldrb	r0, [r1, r3]	@ zero_extendqisi2
 410:.\Generated_Source\PSoC5/UART_READER.c ****             locRxBufferRead++;
 310              		.loc 1 410 0
 311 001c 0133     		adds	r3, r3, #1
 312              	.LVL13:
 313 001e DBB2     		uxtb	r3, r3
 314              	.LVL14:
 411:.\Generated_Source\PSoC5/UART_READER.c **** 
 412:.\Generated_Source\PSoC5/UART_READER.c ****             if(locRxBufferRead >= UART_READER_RX_BUFFER_SIZE)
 413:.\Generated_Source\PSoC5/UART_READER.c ****             {
 414:.\Generated_Source\PSoC5/UART_READER.c ****                 locRxBufferRead = 0u;
 315              		.loc 1 414 0
 316 0020 13F0800F 		tst	r3, #128
 317 0024 18BF     		it	ne
ARM GAS  C:\Users\Yiquing\AppData\Local\Temp\ccJgHlWx.s 			page 14


 318 0026 0023     		movne	r3, #0
 415:.\Generated_Source\PSoC5/UART_READER.c ****             }
 416:.\Generated_Source\PSoC5/UART_READER.c ****             /* Update the real pointer */
 417:.\Generated_Source\PSoC5/UART_READER.c ****             UART_READER_rxBufferRead = locRxBufferRead;
 319              		.loc 1 417 0
 320 0028 9370     		strb	r3, [r2, #2]
 418:.\Generated_Source\PSoC5/UART_READER.c **** 
 419:.\Generated_Source\PSoC5/UART_READER.c ****             if(UART_READER_rxBufferLoopDetect != 0u)
 321              		.loc 1 419 0
 322 002a 1379     		ldrb	r3, [r2, #4]	@ zero_extendqisi2
 409:.\Generated_Source\PSoC5/UART_READER.c ****             rxData = UART_READER_rxBuffer[locRxBufferRead];
 323              		.loc 1 409 0
 324 002c C0B2     		uxtb	r0, r0
 325              	.LVL15:
 326              		.loc 1 419 0
 327 002e 33B1     		cbz	r3, .L28
 420:.\Generated_Source\PSoC5/UART_READER.c ****             {
 421:.\Generated_Source\PSoC5/UART_READER.c ****                 UART_READER_rxBufferLoopDetect = 0u;
 328              		.loc 1 421 0
 329 0030 064B     		ldr	r3, .L33+4
 330 0032 0022     		movs	r2, #0
 331 0034 1A71     		strb	r2, [r3, #4]
 332 0036 02E0     		b	.L28
 333              	.LVL16:
 334              	.L26:
 422:.\Generated_Source\PSoC5/UART_READER.c ****                 #if ((UART_READER_RX_INTERRUPT_ENABLED) && (UART_READER_FLOW_CONTROL != 0u))
 423:.\Generated_Source\PSoC5/UART_READER.c ****                     /* When Hardware Flow Control selected - return RX mask */
 424:.\Generated_Source\PSoC5/UART_READER.c ****                     #if( UART_READER_HD_ENABLED )
 425:.\Generated_Source\PSoC5/UART_READER.c ****                         if((UART_READER_CONTROL_REG & UART_READER_CTRL_HD_SEND) == 0u)
 426:.\Generated_Source\PSoC5/UART_READER.c ****                         {   /* In Half duplex mode return RX mask only in RX
 427:.\Generated_Source\PSoC5/UART_READER.c ****                             *  configuration set, otherwise
 428:.\Generated_Source\PSoC5/UART_READER.c ****                             *  mask will be returned in LoadRxConfig() API.
 429:.\Generated_Source\PSoC5/UART_READER.c ****                             */
 430:.\Generated_Source\PSoC5/UART_READER.c ****                             UART_READER_RXSTATUS_MASK_REG  |= UART_READER_RX_STS_FIFO_NOTEMPTY;
 431:.\Generated_Source\PSoC5/UART_READER.c ****                         }
 432:.\Generated_Source\PSoC5/UART_READER.c ****                     #else
 433:.\Generated_Source\PSoC5/UART_READER.c ****                         UART_READER_RXSTATUS_MASK_REG  |= UART_READER_RX_STS_FIFO_NOTEMPTY;
 434:.\Generated_Source\PSoC5/UART_READER.c ****                     #endif /* end UART_READER_HD_ENABLED */
 435:.\Generated_Source\PSoC5/UART_READER.c ****                 #endif /* ((UART_READER_RX_INTERRUPT_ENABLED) && (UART_READER_FLOW_CONTROL != 0u)) 
 436:.\Generated_Source\PSoC5/UART_READER.c ****             }
 437:.\Generated_Source\PSoC5/UART_READER.c ****         }
 438:.\Generated_Source\PSoC5/UART_READER.c ****         else
 439:.\Generated_Source\PSoC5/UART_READER.c ****         {   /* Needs to check status for RX_STS_FIFO_NOTEMPTY bit */
 440:.\Generated_Source\PSoC5/UART_READER.c ****             rxData = UART_READER_RXDATA_REG;
 335              		.loc 1 440 0
 336 0038 064B     		ldr	r3, .L33+12
 337              	.LVL17:
 338 003a 1878     		ldrb	r0, [r3]	@ zero_extendqisi2
 339 003c C0B2     		uxtb	r0, r0
 340              	.LVL18:
 341              	.L28:
 441:.\Generated_Source\PSoC5/UART_READER.c ****         }
 442:.\Generated_Source\PSoC5/UART_READER.c **** 
 443:.\Generated_Source\PSoC5/UART_READER.c ****         UART_READER_EnableRxInt();
 342              		.loc 1 443 0
 343 003e 064B     		ldr	r3, .L33+16
 344 0040 0422     		movs	r2, #4
ARM GAS  C:\Users\Yiquing\AppData\Local\Temp\ccJgHlWx.s 			page 15


 345 0042 1A60     		str	r2, [r3]
 444:.\Generated_Source\PSoC5/UART_READER.c **** 
 445:.\Generated_Source\PSoC5/UART_READER.c ****     #else
 446:.\Generated_Source\PSoC5/UART_READER.c **** 
 447:.\Generated_Source\PSoC5/UART_READER.c ****         /* Needs to check status for RX_STS_FIFO_NOTEMPTY bit */
 448:.\Generated_Source\PSoC5/UART_READER.c ****         rxData = UART_READER_RXDATA_REG;
 449:.\Generated_Source\PSoC5/UART_READER.c **** 
 450:.\Generated_Source\PSoC5/UART_READER.c ****     #endif /* (UART_READER_RX_INTERRUPT_ENABLED) */
 451:.\Generated_Source\PSoC5/UART_READER.c **** 
 452:.\Generated_Source\PSoC5/UART_READER.c ****         return(rxData);
 453:.\Generated_Source\PSoC5/UART_READER.c ****     }
 346              		.loc 1 453 0
 347 0044 7047     		bx	lr
 348              	.L34:
 349 0046 00BF     		.align	2
 350              	.L33:
 351 0048 80E100E0 		.word	-536813184
 352 004c 00000000 		.word	.LANCHOR0
 353 0050 00000000 		.word	UART_READER_rxBuffer
 354 0054 47640040 		.word	1073767495
 355 0058 00E100E0 		.word	-536813312
 356              		.cfi_endproc
 357              	.LFE7:
 358              		.size	UART_READER_ReadRxData, .-UART_READER_ReadRxData
 359              		.section	.text.UART_READER_ReadRxStatus,"ax",%progbits
 360              		.align	1
 361              		.global	UART_READER_ReadRxStatus
 362              		.thumb
 363              		.thumb_func
 364              		.type	UART_READER_ReadRxStatus, %function
 365              	UART_READER_ReadRxStatus:
 366              	.LFB8:
 454:.\Generated_Source\PSoC5/UART_READER.c **** 
 455:.\Generated_Source\PSoC5/UART_READER.c **** 
 456:.\Generated_Source\PSoC5/UART_READER.c ****     /*******************************************************************************
 457:.\Generated_Source\PSoC5/UART_READER.c ****     * Function Name: UART_READER_ReadRxStatus
 458:.\Generated_Source\PSoC5/UART_READER.c ****     ********************************************************************************
 459:.\Generated_Source\PSoC5/UART_READER.c ****     *
 460:.\Generated_Source\PSoC5/UART_READER.c ****     * Summary:
 461:.\Generated_Source\PSoC5/UART_READER.c ****     *  Returns the current state of the receiver status register and the software
 462:.\Generated_Source\PSoC5/UART_READER.c ****     *  buffer overflow status.
 463:.\Generated_Source\PSoC5/UART_READER.c ****     *
 464:.\Generated_Source\PSoC5/UART_READER.c ****     * Parameters:
 465:.\Generated_Source\PSoC5/UART_READER.c ****     *  None.
 466:.\Generated_Source\PSoC5/UART_READER.c ****     *
 467:.\Generated_Source\PSoC5/UART_READER.c ****     * Return:
 468:.\Generated_Source\PSoC5/UART_READER.c ****     *  Current state of the status register.
 469:.\Generated_Source\PSoC5/UART_READER.c ****     *
 470:.\Generated_Source\PSoC5/UART_READER.c ****     * Side Effect:
 471:.\Generated_Source\PSoC5/UART_READER.c ****     *  All status register bits are clear-on-read except
 472:.\Generated_Source\PSoC5/UART_READER.c ****     *  UART_READER_RX_STS_FIFO_NOTEMPTY.
 473:.\Generated_Source\PSoC5/UART_READER.c ****     *  UART_READER_RX_STS_FIFO_NOTEMPTY clears immediately after RX data
 474:.\Generated_Source\PSoC5/UART_READER.c ****     *  register read.
 475:.\Generated_Source\PSoC5/UART_READER.c ****     *
 476:.\Generated_Source\PSoC5/UART_READER.c ****     * Global Variables:
 477:.\Generated_Source\PSoC5/UART_READER.c ****     *  UART_READER_rxBufferOverflow - used to indicate overload condition.
 478:.\Generated_Source\PSoC5/UART_READER.c ****     *   It set to one in RX interrupt when there isn't free space in
ARM GAS  C:\Users\Yiquing\AppData\Local\Temp\ccJgHlWx.s 			page 16


 479:.\Generated_Source\PSoC5/UART_READER.c ****     *   UART_READER_rxBufferRead to write new data. This condition returned
 480:.\Generated_Source\PSoC5/UART_READER.c ****     *   and cleared to zero by this API as an
 481:.\Generated_Source\PSoC5/UART_READER.c ****     *   UART_READER_RX_STS_SOFT_BUFF_OVER bit along with RX Status register
 482:.\Generated_Source\PSoC5/UART_READER.c ****     *   bits.
 483:.\Generated_Source\PSoC5/UART_READER.c ****     *
 484:.\Generated_Source\PSoC5/UART_READER.c ****     *******************************************************************************/
 485:.\Generated_Source\PSoC5/UART_READER.c ****     uint8 UART_READER_ReadRxStatus(void) 
 486:.\Generated_Source\PSoC5/UART_READER.c ****     {
 367              		.loc 1 486 0
 368              		.cfi_startproc
 369              		@ args = 0, pretend = 0, frame = 0
 370              		@ frame_needed = 0, uses_anonymous_args = 0
 371              		@ link register save eliminated.
 487:.\Generated_Source\PSoC5/UART_READER.c ****         uint8 status;
 488:.\Generated_Source\PSoC5/UART_READER.c **** 
 489:.\Generated_Source\PSoC5/UART_READER.c ****         status = UART_READER_RXSTATUS_REG & UART_READER_RX_HW_MASK;
 372              		.loc 1 489 0
 373 0000 054B     		ldr	r3, .L40
 374 0002 1878     		ldrb	r0, [r3]	@ zero_extendqisi2
 490:.\Generated_Source\PSoC5/UART_READER.c **** 
 491:.\Generated_Source\PSoC5/UART_READER.c ****     #if (UART_READER_RX_INTERRUPT_ENABLED)
 492:.\Generated_Source\PSoC5/UART_READER.c ****         if(UART_READER_rxBufferOverflow != 0u)
 375              		.loc 1 492 0
 376 0004 054B     		ldr	r3, .L40+4
 489:.\Generated_Source\PSoC5/UART_READER.c ****         status = UART_READER_RXSTATUS_REG & UART_READER_RX_HW_MASK;
 377              		.loc 1 489 0
 378 0006 00F07F00 		and	r0, r0, #127
 379              	.LVL19:
 380              		.loc 1 492 0
 381 000a 5A79     		ldrb	r2, [r3, #5]	@ zero_extendqisi2
 382 000c 1AB1     		cbz	r2, .L36
 493:.\Generated_Source\PSoC5/UART_READER.c ****         {
 494:.\Generated_Source\PSoC5/UART_READER.c ****             status |= UART_READER_RX_STS_SOFT_BUFF_OVER;
 495:.\Generated_Source\PSoC5/UART_READER.c ****             UART_READER_rxBufferOverflow = 0u;
 383              		.loc 1 495 0
 384 000e 0022     		movs	r2, #0
 494:.\Generated_Source\PSoC5/UART_READER.c ****             status |= UART_READER_RX_STS_SOFT_BUFF_OVER;
 385              		.loc 1 494 0
 386 0010 40F08000 		orr	r0, r0, #128
 387              	.LVL20:
 388              		.loc 1 495 0
 389 0014 5A71     		strb	r2, [r3, #5]
 390              	.LVL21:
 391              	.L36:
 496:.\Generated_Source\PSoC5/UART_READER.c ****         }
 497:.\Generated_Source\PSoC5/UART_READER.c ****     #endif /* (UART_READER_RX_INTERRUPT_ENABLED) */
 498:.\Generated_Source\PSoC5/UART_READER.c **** 
 499:.\Generated_Source\PSoC5/UART_READER.c ****         return(status);
 500:.\Generated_Source\PSoC5/UART_READER.c ****     }
 392              		.loc 1 500 0
 393 0016 7047     		bx	lr
 394              	.L41:
 395              		.align	2
 396              	.L40:
 397 0018 67640040 		.word	1073767527
 398 001c 00000000 		.word	.LANCHOR0
 399              		.cfi_endproc
ARM GAS  C:\Users\Yiquing\AppData\Local\Temp\ccJgHlWx.s 			page 17


 400              	.LFE8:
 401              		.size	UART_READER_ReadRxStatus, .-UART_READER_ReadRxStatus
 402              		.section	.text.UART_READER_GetChar,"ax",%progbits
 403              		.align	1
 404              		.global	UART_READER_GetChar
 405              		.thumb
 406              		.thumb_func
 407              		.type	UART_READER_GetChar, %function
 408              	UART_READER_GetChar:
 409              	.LFB9:
 501:.\Generated_Source\PSoC5/UART_READER.c **** 
 502:.\Generated_Source\PSoC5/UART_READER.c **** 
 503:.\Generated_Source\PSoC5/UART_READER.c ****     /*******************************************************************************
 504:.\Generated_Source\PSoC5/UART_READER.c ****     * Function Name: UART_READER_GetChar
 505:.\Generated_Source\PSoC5/UART_READER.c ****     ********************************************************************************
 506:.\Generated_Source\PSoC5/UART_READER.c ****     *
 507:.\Generated_Source\PSoC5/UART_READER.c ****     * Summary:
 508:.\Generated_Source\PSoC5/UART_READER.c ****     *  Returns the last received byte of data. UART_READER_GetChar() is
 509:.\Generated_Source\PSoC5/UART_READER.c ****     *  designed for ASCII characters and returns a uint8 where 1 to 255 are values
 510:.\Generated_Source\PSoC5/UART_READER.c ****     *  for valid characters and 0 indicates an error occurred or no data is present.
 511:.\Generated_Source\PSoC5/UART_READER.c ****     *
 512:.\Generated_Source\PSoC5/UART_READER.c ****     * Parameters:
 513:.\Generated_Source\PSoC5/UART_READER.c ****     *  None.
 514:.\Generated_Source\PSoC5/UART_READER.c ****     *
 515:.\Generated_Source\PSoC5/UART_READER.c ****     * Return:
 516:.\Generated_Source\PSoC5/UART_READER.c ****     *  Character read from UART RX buffer. ASCII characters from 1 to 255 are valid.
 517:.\Generated_Source\PSoC5/UART_READER.c ****     *  A returned zero signifies an error condition or no data available.
 518:.\Generated_Source\PSoC5/UART_READER.c ****     *
 519:.\Generated_Source\PSoC5/UART_READER.c ****     * Global Variables:
 520:.\Generated_Source\PSoC5/UART_READER.c ****     *  UART_READER_rxBuffer - RAM buffer pointer for save received data.
 521:.\Generated_Source\PSoC5/UART_READER.c ****     *  UART_READER_rxBufferWrite - cyclic index for write to rxBuffer,
 522:.\Generated_Source\PSoC5/UART_READER.c ****     *     checked to identify new data.
 523:.\Generated_Source\PSoC5/UART_READER.c ****     *  UART_READER_rxBufferRead - cyclic index for read from rxBuffer,
 524:.\Generated_Source\PSoC5/UART_READER.c ****     *     incremented after each byte has been read from buffer.
 525:.\Generated_Source\PSoC5/UART_READER.c ****     *  UART_READER_rxBufferLoopDetect - cleared if loop condition was detected
 526:.\Generated_Source\PSoC5/UART_READER.c ****     *     in RX ISR.
 527:.\Generated_Source\PSoC5/UART_READER.c ****     *
 528:.\Generated_Source\PSoC5/UART_READER.c ****     * Reentrant:
 529:.\Generated_Source\PSoC5/UART_READER.c ****     *  No.
 530:.\Generated_Source\PSoC5/UART_READER.c ****     *
 531:.\Generated_Source\PSoC5/UART_READER.c ****     *******************************************************************************/
 532:.\Generated_Source\PSoC5/UART_READER.c ****     uint8 UART_READER_GetChar(void) 
 533:.\Generated_Source\PSoC5/UART_READER.c ****     {
 410              		.loc 1 533 0
 411              		.cfi_startproc
 412              		@ args = 0, pretend = 0, frame = 0
 413              		@ frame_needed = 0, uses_anonymous_args = 0
 414              		@ link register save eliminated.
 415              	.LVL22:
 534:.\Generated_Source\PSoC5/UART_READER.c ****         uint8 rxData = 0u;
 535:.\Generated_Source\PSoC5/UART_READER.c ****         uint8 rxStatus;
 536:.\Generated_Source\PSoC5/UART_READER.c **** 
 537:.\Generated_Source\PSoC5/UART_READER.c ****     #if (UART_READER_RX_INTERRUPT_ENABLED)
 538:.\Generated_Source\PSoC5/UART_READER.c ****         uint8 locRxBufferRead;
 539:.\Generated_Source\PSoC5/UART_READER.c ****         uint8 locRxBufferWrite;
 540:.\Generated_Source\PSoC5/UART_READER.c **** 
 541:.\Generated_Source\PSoC5/UART_READER.c ****         /* Protect variables that could change on interrupt */
ARM GAS  C:\Users\Yiquing\AppData\Local\Temp\ccJgHlWx.s 			page 18


 542:.\Generated_Source\PSoC5/UART_READER.c ****         UART_READER_DisableRxInt();
 416              		.loc 1 542 0
 417 0000 164B     		ldr	r3, .L54
 418 0002 0422     		movs	r2, #4
 419 0004 1A60     		str	r2, [r3]
 543:.\Generated_Source\PSoC5/UART_READER.c **** 
 544:.\Generated_Source\PSoC5/UART_READER.c ****         locRxBufferRead  = UART_READER_rxBufferRead;
 420              		.loc 1 544 0
 421 0006 164A     		ldr	r2, .L54+4
 422 0008 9378     		ldrb	r3, [r2, #2]	@ zero_extendqisi2
 545:.\Generated_Source\PSoC5/UART_READER.c ****         locRxBufferWrite = UART_READER_rxBufferWrite;
 423              		.loc 1 545 0
 424 000a D178     		ldrb	r1, [r2, #3]	@ zero_extendqisi2
 546:.\Generated_Source\PSoC5/UART_READER.c **** 
 547:.\Generated_Source\PSoC5/UART_READER.c ****         if( (UART_READER_rxBufferLoopDetect != 0u) || (locRxBufferRead != locRxBufferWrite) )
 425              		.loc 1 547 0
 426 000c 1079     		ldrb	r0, [r2, #4]	@ zero_extendqisi2
 544:.\Generated_Source\PSoC5/UART_READER.c ****         locRxBufferRead  = UART_READER_rxBufferRead;
 427              		.loc 1 544 0
 428 000e DBB2     		uxtb	r3, r3
 429              	.LVL23:
 545:.\Generated_Source\PSoC5/UART_READER.c ****         locRxBufferWrite = UART_READER_rxBufferWrite;
 430              		.loc 1 545 0
 431 0010 C9B2     		uxtb	r1, r1
 432              	.LVL24:
 433              		.loc 1 547 0
 434 0012 08B9     		cbnz	r0, .L43
 435              		.loc 1 547 0 is_stmt 0 discriminator 1
 436 0014 8B42     		cmp	r3, r1
 437 0016 0FD0     		beq	.L44
 438              	.L43:
 548:.\Generated_Source\PSoC5/UART_READER.c ****         {
 549:.\Generated_Source\PSoC5/UART_READER.c ****             rxData = UART_READER_rxBuffer[locRxBufferRead];
 439              		.loc 1 549 0 is_stmt 1
 440 0018 1249     		ldr	r1, .L54+8
 441              	.LVL25:
 442 001a C85C     		ldrb	r0, [r1, r3]	@ zero_extendqisi2
 550:.\Generated_Source\PSoC5/UART_READER.c ****             locRxBufferRead++;
 443              		.loc 1 550 0
 444 001c 0133     		adds	r3, r3, #1
 445              	.LVL26:
 446 001e DBB2     		uxtb	r3, r3
 447              	.LVL27:
 551:.\Generated_Source\PSoC5/UART_READER.c ****             if(locRxBufferRead >= UART_READER_RX_BUFFER_SIZE)
 552:.\Generated_Source\PSoC5/UART_READER.c ****             {
 553:.\Generated_Source\PSoC5/UART_READER.c ****                 locRxBufferRead = 0u;
 448              		.loc 1 553 0
 449 0020 13F0800F 		tst	r3, #128
 450 0024 18BF     		it	ne
 451 0026 0023     		movne	r3, #0
 554:.\Generated_Source\PSoC5/UART_READER.c ****             }
 555:.\Generated_Source\PSoC5/UART_READER.c ****             /* Update the real pointer */
 556:.\Generated_Source\PSoC5/UART_READER.c ****             UART_READER_rxBufferRead = locRxBufferRead;
 452              		.loc 1 556 0
 453 0028 9370     		strb	r3, [r2, #2]
 557:.\Generated_Source\PSoC5/UART_READER.c **** 
 558:.\Generated_Source\PSoC5/UART_READER.c ****             if(UART_READER_rxBufferLoopDetect != 0u)
ARM GAS  C:\Users\Yiquing\AppData\Local\Temp\ccJgHlWx.s 			page 19


 454              		.loc 1 558 0
 455 002a 1379     		ldrb	r3, [r2, #4]	@ zero_extendqisi2
 549:.\Generated_Source\PSoC5/UART_READER.c ****             rxData = UART_READER_rxBuffer[locRxBufferRead];
 456              		.loc 1 549 0
 457 002c C0B2     		uxtb	r0, r0
 458              	.LVL28:
 459              		.loc 1 558 0
 460 002e 8BB1     		cbz	r3, .L46
 559:.\Generated_Source\PSoC5/UART_READER.c ****             {
 560:.\Generated_Source\PSoC5/UART_READER.c ****                 UART_READER_rxBufferLoopDetect = 0u;
 461              		.loc 1 560 0
 462 0030 0B4B     		ldr	r3, .L54+4
 463 0032 0022     		movs	r2, #0
 464 0034 1A71     		strb	r2, [r3, #4]
 465 0036 0DE0     		b	.L46
 466              	.LVL29:
 467              	.L44:
 561:.\Generated_Source\PSoC5/UART_READER.c ****                 #if( (UART_READER_RX_INTERRUPT_ENABLED) && (UART_READER_FLOW_CONTROL != 0u) )
 562:.\Generated_Source\PSoC5/UART_READER.c ****                     /* When Hardware Flow Control selected - return RX mask */
 563:.\Generated_Source\PSoC5/UART_READER.c ****                     #if( UART_READER_HD_ENABLED )
 564:.\Generated_Source\PSoC5/UART_READER.c ****                         if((UART_READER_CONTROL_REG & UART_READER_CTRL_HD_SEND) == 0u)
 565:.\Generated_Source\PSoC5/UART_READER.c ****                         {   /* In Half duplex mode return RX mask only if
 566:.\Generated_Source\PSoC5/UART_READER.c ****                             *  RX configuration set, otherwise
 567:.\Generated_Source\PSoC5/UART_READER.c ****                             *  mask will be returned in LoadRxConfig() API.
 568:.\Generated_Source\PSoC5/UART_READER.c ****                             */
 569:.\Generated_Source\PSoC5/UART_READER.c ****                             UART_READER_RXSTATUS_MASK_REG |= UART_READER_RX_STS_FIFO_NOTEMPTY;
 570:.\Generated_Source\PSoC5/UART_READER.c ****                         }
 571:.\Generated_Source\PSoC5/UART_READER.c ****                     #else
 572:.\Generated_Source\PSoC5/UART_READER.c ****                         UART_READER_RXSTATUS_MASK_REG |= UART_READER_RX_STS_FIFO_NOTEMPTY;
 573:.\Generated_Source\PSoC5/UART_READER.c ****                     #endif /* end UART_READER_HD_ENABLED */
 574:.\Generated_Source\PSoC5/UART_READER.c ****                 #endif /* UART_READER_RX_INTERRUPT_ENABLED and Hardware flow control*/
 575:.\Generated_Source\PSoC5/UART_READER.c ****             }
 576:.\Generated_Source\PSoC5/UART_READER.c **** 
 577:.\Generated_Source\PSoC5/UART_READER.c ****         }
 578:.\Generated_Source\PSoC5/UART_READER.c ****         else
 579:.\Generated_Source\PSoC5/UART_READER.c ****         {   rxStatus = UART_READER_RXSTATUS_REG;
 468              		.loc 1 579 0
 469 0038 0B4B     		ldr	r3, .L54+12
 470              	.LVL30:
 471 003a 1B78     		ldrb	r3, [r3]	@ zero_extendqisi2
 472 003c DBB2     		uxtb	r3, r3
 473              	.LVL31:
 580:.\Generated_Source\PSoC5/UART_READER.c ****             if((rxStatus & UART_READER_RX_STS_FIFO_NOTEMPTY) != 0u)
 474              		.loc 1 580 0
 475 003e 03F02002 		and	r2, r3, #32
 476 0042 02F0FF00 		and	r0, r2, #255
 477 0046 2AB1     		cbz	r2, .L46
 581:.\Generated_Source\PSoC5/UART_READER.c ****             {   /* Read received data from FIFO */
 582:.\Generated_Source\PSoC5/UART_READER.c ****                 rxData = UART_READER_RXDATA_REG;
 478              		.loc 1 582 0
 479 0048 084A     		ldr	r2, .L54+16
 583:.\Generated_Source\PSoC5/UART_READER.c ****                 /*Check status on error*/
 584:.\Generated_Source\PSoC5/UART_READER.c ****                 if((rxStatus & (UART_READER_RX_STS_BREAK | UART_READER_RX_STS_PAR_ERROR |
 585:.\Generated_Source\PSoC5/UART_READER.c ****                                 UART_READER_RX_STS_STOP_ERROR | UART_READER_RX_STS_OVERRUN)) != 0u)
 586:.\Generated_Source\PSoC5/UART_READER.c ****                 {
 587:.\Generated_Source\PSoC5/UART_READER.c ****                     rxData = 0u;
 480              		.loc 1 587 0
ARM GAS  C:\Users\Yiquing\AppData\Local\Temp\ccJgHlWx.s 			page 20


 481 004a 13F01E0F 		tst	r3, #30
 582:.\Generated_Source\PSoC5/UART_READER.c ****                 rxData = UART_READER_RXDATA_REG;
 482              		.loc 1 582 0
 483 004e 1078     		ldrb	r0, [r2]	@ zero_extendqisi2
 484              	.LVL32:
 485              		.loc 1 587 0
 486 0050 18BF     		it	ne
 487 0052 0020     		movne	r0, #0
 488              	.LVL33:
 489              	.L46:
 588:.\Generated_Source\PSoC5/UART_READER.c ****                 }
 589:.\Generated_Source\PSoC5/UART_READER.c ****             }
 590:.\Generated_Source\PSoC5/UART_READER.c ****         }
 591:.\Generated_Source\PSoC5/UART_READER.c **** 
 592:.\Generated_Source\PSoC5/UART_READER.c ****         UART_READER_EnableRxInt();
 490              		.loc 1 592 0
 491 0054 064B     		ldr	r3, .L54+20
 492 0056 0422     		movs	r2, #4
 493 0058 1A60     		str	r2, [r3]
 593:.\Generated_Source\PSoC5/UART_READER.c **** 
 594:.\Generated_Source\PSoC5/UART_READER.c ****     #else
 595:.\Generated_Source\PSoC5/UART_READER.c **** 
 596:.\Generated_Source\PSoC5/UART_READER.c ****         rxStatus =UART_READER_RXSTATUS_REG;
 597:.\Generated_Source\PSoC5/UART_READER.c ****         if((rxStatus & UART_READER_RX_STS_FIFO_NOTEMPTY) != 0u)
 598:.\Generated_Source\PSoC5/UART_READER.c ****         {
 599:.\Generated_Source\PSoC5/UART_READER.c ****             /* Read received data from FIFO */
 600:.\Generated_Source\PSoC5/UART_READER.c ****             rxData = UART_READER_RXDATA_REG;
 601:.\Generated_Source\PSoC5/UART_READER.c **** 
 602:.\Generated_Source\PSoC5/UART_READER.c ****             /*Check status on error*/
 603:.\Generated_Source\PSoC5/UART_READER.c ****             if((rxStatus & (UART_READER_RX_STS_BREAK | UART_READER_RX_STS_PAR_ERROR |
 604:.\Generated_Source\PSoC5/UART_READER.c ****                             UART_READER_RX_STS_STOP_ERROR | UART_READER_RX_STS_OVERRUN)) != 0u)
 605:.\Generated_Source\PSoC5/UART_READER.c ****             {
 606:.\Generated_Source\PSoC5/UART_READER.c ****                 rxData = 0u;
 607:.\Generated_Source\PSoC5/UART_READER.c ****             }
 608:.\Generated_Source\PSoC5/UART_READER.c ****         }
 609:.\Generated_Source\PSoC5/UART_READER.c ****     #endif /* (UART_READER_RX_INTERRUPT_ENABLED) */
 610:.\Generated_Source\PSoC5/UART_READER.c **** 
 611:.\Generated_Source\PSoC5/UART_READER.c ****         return(rxData);
 612:.\Generated_Source\PSoC5/UART_READER.c ****     }
 494              		.loc 1 612 0
 495 005a 7047     		bx	lr
 496              	.L55:
 497              		.align	2
 498              	.L54:
 499 005c 80E100E0 		.word	-536813184
 500 0060 00000000 		.word	.LANCHOR0
 501 0064 00000000 		.word	UART_READER_rxBuffer
 502 0068 67640040 		.word	1073767527
 503 006c 47640040 		.word	1073767495
 504 0070 00E100E0 		.word	-536813312
 505              		.cfi_endproc
 506              	.LFE9:
 507              		.size	UART_READER_GetChar, .-UART_READER_GetChar
 508              		.section	.text.UART_READER_GetByte,"ax",%progbits
 509              		.align	1
 510              		.global	UART_READER_GetByte
 511              		.thumb
ARM GAS  C:\Users\Yiquing\AppData\Local\Temp\ccJgHlWx.s 			page 21


 512              		.thumb_func
 513              		.type	UART_READER_GetByte, %function
 514              	UART_READER_GetByte:
 515              	.LFB10:
 613:.\Generated_Source\PSoC5/UART_READER.c **** 
 614:.\Generated_Source\PSoC5/UART_READER.c **** 
 615:.\Generated_Source\PSoC5/UART_READER.c ****     /*******************************************************************************
 616:.\Generated_Source\PSoC5/UART_READER.c ****     * Function Name: UART_READER_GetByte
 617:.\Generated_Source\PSoC5/UART_READER.c ****     ********************************************************************************
 618:.\Generated_Source\PSoC5/UART_READER.c ****     *
 619:.\Generated_Source\PSoC5/UART_READER.c ****     * Summary:
 620:.\Generated_Source\PSoC5/UART_READER.c ****     *  Reads UART RX buffer immediately, returns received character and error
 621:.\Generated_Source\PSoC5/UART_READER.c ****     *  condition.
 622:.\Generated_Source\PSoC5/UART_READER.c ****     *
 623:.\Generated_Source\PSoC5/UART_READER.c ****     * Parameters:
 624:.\Generated_Source\PSoC5/UART_READER.c ****     *  None.
 625:.\Generated_Source\PSoC5/UART_READER.c ****     *
 626:.\Generated_Source\PSoC5/UART_READER.c ****     * Return:
 627:.\Generated_Source\PSoC5/UART_READER.c ****     *  MSB contains status and LSB contains UART RX data. If the MSB is nonzero,
 628:.\Generated_Source\PSoC5/UART_READER.c ****     *  an error has occurred.
 629:.\Generated_Source\PSoC5/UART_READER.c ****     *
 630:.\Generated_Source\PSoC5/UART_READER.c ****     * Reentrant:
 631:.\Generated_Source\PSoC5/UART_READER.c ****     *  No.
 632:.\Generated_Source\PSoC5/UART_READER.c ****     *
 633:.\Generated_Source\PSoC5/UART_READER.c ****     *******************************************************************************/
 634:.\Generated_Source\PSoC5/UART_READER.c ****     uint16 UART_READER_GetByte(void) 
 635:.\Generated_Source\PSoC5/UART_READER.c ****     {
 516              		.loc 1 635 0
 517              		.cfi_startproc
 518              		@ args = 0, pretend = 0, frame = 0
 519              		@ frame_needed = 0, uses_anonymous_args = 0
 520 0000 10B5     		push	{r4, lr}
 521              		.cfi_def_cfa_offset 8
 522              		.cfi_offset 4, -8
 523              		.cfi_offset 14, -4
 636:.\Generated_Source\PSoC5/UART_READER.c ****         
 637:.\Generated_Source\PSoC5/UART_READER.c ****     #if (UART_READER_RX_INTERRUPT_ENABLED)
 638:.\Generated_Source\PSoC5/UART_READER.c ****         uint16 locErrorStatus;
 639:.\Generated_Source\PSoC5/UART_READER.c ****         /* Protect variables that could change on interrupt */
 640:.\Generated_Source\PSoC5/UART_READER.c ****         UART_READER_DisableRxInt();
 524              		.loc 1 640 0
 525 0002 074A     		ldr	r2, .L57
 526 0004 0423     		movs	r3, #4
 527 0006 1360     		str	r3, [r2]
 641:.\Generated_Source\PSoC5/UART_READER.c ****         locErrorStatus = (uint16)UART_READER_errorStatus;
 528              		.loc 1 641 0
 529 0008 064A     		ldr	r2, .L57+4
 642:.\Generated_Source\PSoC5/UART_READER.c ****         UART_READER_errorStatus = 0u;
 530              		.loc 1 642 0
 531 000a 0021     		movs	r1, #0
 641:.\Generated_Source\PSoC5/UART_READER.c ****         locErrorStatus = (uint16)UART_READER_errorStatus;
 532              		.loc 1 641 0
 533 000c 1478     		ldrb	r4, [r2]	@ zero_extendqisi2
 534              	.LVL34:
 535              		.loc 1 642 0
 536 000e 1170     		strb	r1, [r2]
 643:.\Generated_Source\PSoC5/UART_READER.c ****         UART_READER_EnableRxInt();
ARM GAS  C:\Users\Yiquing\AppData\Local\Temp\ccJgHlWx.s 			page 22


 537              		.loc 1 643 0
 538 0010 054A     		ldr	r2, .L57+8
 539 0012 1360     		str	r3, [r2]
 644:.\Generated_Source\PSoC5/UART_READER.c ****         return ( (uint16)(locErrorStatus << 8u) | UART_READER_ReadRxData() );
 540              		.loc 1 644 0
 541 0014 FFF7FEFF 		bl	UART_READER_ReadRxData
 542              	.LVL35:
 543 0018 40EA0420 		orr	r0, r0, r4, lsl #8
 645:.\Generated_Source\PSoC5/UART_READER.c ****     #else
 646:.\Generated_Source\PSoC5/UART_READER.c ****         return ( ((uint16)UART_READER_ReadRxStatus() << 8u) | UART_READER_ReadRxData() );
 647:.\Generated_Source\PSoC5/UART_READER.c ****     #endif /* UART_READER_RX_INTERRUPT_ENABLED */
 648:.\Generated_Source\PSoC5/UART_READER.c ****         
 649:.\Generated_Source\PSoC5/UART_READER.c ****     }
 544              		.loc 1 649 0
 545 001c 80B2     		uxth	r0, r0
 546 001e 10BD     		pop	{r4, pc}
 547              	.LVL36:
 548              	.L58:
 549              		.align	2
 550              	.L57:
 551 0020 80E100E0 		.word	-536813184
 552 0024 00000000 		.word	.LANCHOR0
 553 0028 00E100E0 		.word	-536813312
 554              		.cfi_endproc
 555              	.LFE10:
 556              		.size	UART_READER_GetByte, .-UART_READER_GetByte
 557              		.section	.text.UART_READER_GetRxBufferSize,"ax",%progbits
 558              		.align	1
 559              		.global	UART_READER_GetRxBufferSize
 560              		.thumb
 561              		.thumb_func
 562              		.type	UART_READER_GetRxBufferSize, %function
 563              	UART_READER_GetRxBufferSize:
 564              	.LFB11:
 650:.\Generated_Source\PSoC5/UART_READER.c **** 
 651:.\Generated_Source\PSoC5/UART_READER.c **** 
 652:.\Generated_Source\PSoC5/UART_READER.c ****     /*******************************************************************************
 653:.\Generated_Source\PSoC5/UART_READER.c ****     * Function Name: UART_READER_GetRxBufferSize
 654:.\Generated_Source\PSoC5/UART_READER.c ****     ********************************************************************************
 655:.\Generated_Source\PSoC5/UART_READER.c ****     *
 656:.\Generated_Source\PSoC5/UART_READER.c ****     * Summary:
 657:.\Generated_Source\PSoC5/UART_READER.c ****     *  Returns the number of received bytes available in the RX buffer.
 658:.\Generated_Source\PSoC5/UART_READER.c ****     *  * RX software buffer is disabled (RX Buffer Size parameter is equal to 4): 
 659:.\Generated_Source\PSoC5/UART_READER.c ****     *    returns 0 for empty RX FIFO or 1 for not empty RX FIFO.
 660:.\Generated_Source\PSoC5/UART_READER.c ****     *  * RX software buffer is enabled: returns the number of bytes available in 
 661:.\Generated_Source\PSoC5/UART_READER.c ****     *    the RX software buffer. Bytes available in the RX FIFO do not take to 
 662:.\Generated_Source\PSoC5/UART_READER.c ****     *    account.
 663:.\Generated_Source\PSoC5/UART_READER.c ****     *
 664:.\Generated_Source\PSoC5/UART_READER.c ****     * Parameters:
 665:.\Generated_Source\PSoC5/UART_READER.c ****     *  None.
 666:.\Generated_Source\PSoC5/UART_READER.c ****     *
 667:.\Generated_Source\PSoC5/UART_READER.c ****     * Return:
 668:.\Generated_Source\PSoC5/UART_READER.c ****     *  uint8: Number of bytes in the RX buffer. 
 669:.\Generated_Source\PSoC5/UART_READER.c ****     *    Return value type depends on RX Buffer Size parameter.
 670:.\Generated_Source\PSoC5/UART_READER.c ****     *
 671:.\Generated_Source\PSoC5/UART_READER.c ****     * Global Variables:
 672:.\Generated_Source\PSoC5/UART_READER.c ****     *  UART_READER_rxBufferWrite - used to calculate left bytes.
ARM GAS  C:\Users\Yiquing\AppData\Local\Temp\ccJgHlWx.s 			page 23


 673:.\Generated_Source\PSoC5/UART_READER.c ****     *  UART_READER_rxBufferRead - used to calculate left bytes.
 674:.\Generated_Source\PSoC5/UART_READER.c ****     *  UART_READER_rxBufferLoopDetect - checked to decide left bytes amount.
 675:.\Generated_Source\PSoC5/UART_READER.c ****     *
 676:.\Generated_Source\PSoC5/UART_READER.c ****     * Reentrant:
 677:.\Generated_Source\PSoC5/UART_READER.c ****     *  No.
 678:.\Generated_Source\PSoC5/UART_READER.c ****     *
 679:.\Generated_Source\PSoC5/UART_READER.c ****     * Theory:
 680:.\Generated_Source\PSoC5/UART_READER.c ****     *  Allows the user to find out how full the RX Buffer is.
 681:.\Generated_Source\PSoC5/UART_READER.c ****     *
 682:.\Generated_Source\PSoC5/UART_READER.c ****     *******************************************************************************/
 683:.\Generated_Source\PSoC5/UART_READER.c ****     uint8 UART_READER_GetRxBufferSize(void)
 684:.\Generated_Source\PSoC5/UART_READER.c ****                                                             
 685:.\Generated_Source\PSoC5/UART_READER.c ****     {
 565              		.loc 1 685 0
 566              		.cfi_startproc
 567              		@ args = 0, pretend = 0, frame = 0
 568              		@ frame_needed = 0, uses_anonymous_args = 0
 569              		@ link register save eliminated.
 686:.\Generated_Source\PSoC5/UART_READER.c ****         uint8 size;
 687:.\Generated_Source\PSoC5/UART_READER.c **** 
 688:.\Generated_Source\PSoC5/UART_READER.c ****     #if (UART_READER_RX_INTERRUPT_ENABLED)
 689:.\Generated_Source\PSoC5/UART_READER.c **** 
 690:.\Generated_Source\PSoC5/UART_READER.c ****         /* Protect variables that could change on interrupt */
 691:.\Generated_Source\PSoC5/UART_READER.c ****         UART_READER_DisableRxInt();
 570              		.loc 1 691 0
 571 0000 0D4B     		ldr	r3, .L65
 572 0002 0422     		movs	r2, #4
 573 0004 1A60     		str	r2, [r3]
 692:.\Generated_Source\PSoC5/UART_READER.c **** 
 693:.\Generated_Source\PSoC5/UART_READER.c ****         if(UART_READER_rxBufferRead == UART_READER_rxBufferWrite)
 574              		.loc 1 693 0
 575 0006 0D4B     		ldr	r3, .L65+4
 576 0008 9978     		ldrb	r1, [r3, #2]	@ zero_extendqisi2
 577 000a DA78     		ldrb	r2, [r3, #3]	@ zero_extendqisi2
 578 000c 9142     		cmp	r1, r2
 579 000e 05D1     		bne	.L60
 694:.\Generated_Source\PSoC5/UART_READER.c ****         {
 695:.\Generated_Source\PSoC5/UART_READER.c ****             if(UART_READER_rxBufferLoopDetect != 0u)
 580              		.loc 1 695 0
 581 0010 1B79     		ldrb	r3, [r3, #4]	@ zero_extendqisi2
 582 0012 002B     		cmp	r3, #0
 696:.\Generated_Source\PSoC5/UART_READER.c ****             {
 697:.\Generated_Source\PSoC5/UART_READER.c ****                 size = UART_READER_RX_BUFFER_SIZE;
 583              		.loc 1 697 0
 584 0014 0CBF     		ite	eq
 585 0016 0020     		moveq	r0, #0
 586 0018 8020     		movne	r0, #128
 587 001a 08E0     		b	.L61
 588              	.L60:
 698:.\Generated_Source\PSoC5/UART_READER.c ****             }
 699:.\Generated_Source\PSoC5/UART_READER.c ****             else
 700:.\Generated_Source\PSoC5/UART_READER.c ****             {
 701:.\Generated_Source\PSoC5/UART_READER.c ****                 size = 0u;
 702:.\Generated_Source\PSoC5/UART_READER.c ****             }
 703:.\Generated_Source\PSoC5/UART_READER.c ****         }
 704:.\Generated_Source\PSoC5/UART_READER.c ****         else if(UART_READER_rxBufferRead < UART_READER_rxBufferWrite)
 589              		.loc 1 704 0
ARM GAS  C:\Users\Yiquing\AppData\Local\Temp\ccJgHlWx.s 			page 24


 590 001c 9978     		ldrb	r1, [r3, #2]	@ zero_extendqisi2
 591 001e DA78     		ldrb	r2, [r3, #3]	@ zero_extendqisi2
 705:.\Generated_Source\PSoC5/UART_READER.c ****         {
 706:.\Generated_Source\PSoC5/UART_READER.c ****             size = (UART_READER_rxBufferWrite - UART_READER_rxBufferRead);
 592              		.loc 1 706 0
 593 0020 D878     		ldrb	r0, [r3, #3]	@ zero_extendqisi2
 704:.\Generated_Source\PSoC5/UART_READER.c ****         else if(UART_READER_rxBufferRead < UART_READER_rxBufferWrite)
 594              		.loc 1 704 0
 595 0022 9142     		cmp	r1, r2
 596              		.loc 1 706 0
 597 0024 9B78     		ldrb	r3, [r3, #2]	@ zero_extendqisi2
 707:.\Generated_Source\PSoC5/UART_READER.c ****         }
 708:.\Generated_Source\PSoC5/UART_READER.c ****         else
 709:.\Generated_Source\PSoC5/UART_READER.c ****         {
 710:.\Generated_Source\PSoC5/UART_READER.c ****             size = (UART_READER_RX_BUFFER_SIZE - UART_READER_rxBufferRead) + UART_READER_rxBufferWr
 598              		.loc 1 710 0
 599 0026 28BF     		it	cs
 600 0028 8038     		subcs	r0, r0, #128
 601 002a C01A     		subs	r0, r0, r3
 602 002c C0B2     		uxtb	r0, r0
 603              	.LVL37:
 604              	.L61:
 711:.\Generated_Source\PSoC5/UART_READER.c ****         }
 712:.\Generated_Source\PSoC5/UART_READER.c **** 
 713:.\Generated_Source\PSoC5/UART_READER.c ****         UART_READER_EnableRxInt();
 605              		.loc 1 713 0
 606 002e 044B     		ldr	r3, .L65+8
 607 0030 0422     		movs	r2, #4
 608 0032 1A60     		str	r2, [r3]
 714:.\Generated_Source\PSoC5/UART_READER.c **** 
 715:.\Generated_Source\PSoC5/UART_READER.c ****     #else
 716:.\Generated_Source\PSoC5/UART_READER.c **** 
 717:.\Generated_Source\PSoC5/UART_READER.c ****         /* We can only know if there is data in the fifo. */
 718:.\Generated_Source\PSoC5/UART_READER.c ****         size = ((UART_READER_RXSTATUS_REG & UART_READER_RX_STS_FIFO_NOTEMPTY) != 0u) ? 1u : 0u;
 719:.\Generated_Source\PSoC5/UART_READER.c **** 
 720:.\Generated_Source\PSoC5/UART_READER.c ****     #endif /* (UART_READER_RX_INTERRUPT_ENABLED) */
 721:.\Generated_Source\PSoC5/UART_READER.c **** 
 722:.\Generated_Source\PSoC5/UART_READER.c ****         return(size);
 723:.\Generated_Source\PSoC5/UART_READER.c ****     }
 609              		.loc 1 723 0
 610 0034 7047     		bx	lr
 611              	.L66:
 612 0036 00BF     		.align	2
 613              	.L65:
 614 0038 80E100E0 		.word	-536813184
 615 003c 00000000 		.word	.LANCHOR0
 616 0040 00E100E0 		.word	-536813312
 617              		.cfi_endproc
 618              	.LFE11:
 619              		.size	UART_READER_GetRxBufferSize, .-UART_READER_GetRxBufferSize
 620              		.section	.text.UART_READER_ClearRxBuffer,"ax",%progbits
 621              		.align	1
 622              		.global	UART_READER_ClearRxBuffer
 623              		.thumb
 624              		.thumb_func
 625              		.type	UART_READER_ClearRxBuffer, %function
 626              	UART_READER_ClearRxBuffer:
ARM GAS  C:\Users\Yiquing\AppData\Local\Temp\ccJgHlWx.s 			page 25


 627              	.LFB12:
 724:.\Generated_Source\PSoC5/UART_READER.c **** 
 725:.\Generated_Source\PSoC5/UART_READER.c **** 
 726:.\Generated_Source\PSoC5/UART_READER.c ****     /*******************************************************************************
 727:.\Generated_Source\PSoC5/UART_READER.c ****     * Function Name: UART_READER_ClearRxBuffer
 728:.\Generated_Source\PSoC5/UART_READER.c ****     ********************************************************************************
 729:.\Generated_Source\PSoC5/UART_READER.c ****     *
 730:.\Generated_Source\PSoC5/UART_READER.c ****     * Summary:
 731:.\Generated_Source\PSoC5/UART_READER.c ****     *  Clears the receiver memory buffer and hardware RX FIFO of all received data.
 732:.\Generated_Source\PSoC5/UART_READER.c ****     *
 733:.\Generated_Source\PSoC5/UART_READER.c ****     * Parameters:
 734:.\Generated_Source\PSoC5/UART_READER.c ****     *  None.
 735:.\Generated_Source\PSoC5/UART_READER.c ****     *
 736:.\Generated_Source\PSoC5/UART_READER.c ****     * Return:
 737:.\Generated_Source\PSoC5/UART_READER.c ****     *  None.
 738:.\Generated_Source\PSoC5/UART_READER.c ****     *
 739:.\Generated_Source\PSoC5/UART_READER.c ****     * Global Variables:
 740:.\Generated_Source\PSoC5/UART_READER.c ****     *  UART_READER_rxBufferWrite - cleared to zero.
 741:.\Generated_Source\PSoC5/UART_READER.c ****     *  UART_READER_rxBufferRead - cleared to zero.
 742:.\Generated_Source\PSoC5/UART_READER.c ****     *  UART_READER_rxBufferLoopDetect - cleared to zero.
 743:.\Generated_Source\PSoC5/UART_READER.c ****     *  UART_READER_rxBufferOverflow - cleared to zero.
 744:.\Generated_Source\PSoC5/UART_READER.c ****     *
 745:.\Generated_Source\PSoC5/UART_READER.c ****     * Reentrant:
 746:.\Generated_Source\PSoC5/UART_READER.c ****     *  No.
 747:.\Generated_Source\PSoC5/UART_READER.c ****     *
 748:.\Generated_Source\PSoC5/UART_READER.c ****     * Theory:
 749:.\Generated_Source\PSoC5/UART_READER.c ****     *  Setting the pointers to zero makes the system believe there is no data to
 750:.\Generated_Source\PSoC5/UART_READER.c ****     *  read and writing will resume at address 0 overwriting any data that may
 751:.\Generated_Source\PSoC5/UART_READER.c ****     *  have remained in the RAM.
 752:.\Generated_Source\PSoC5/UART_READER.c ****     *
 753:.\Generated_Source\PSoC5/UART_READER.c ****     * Side Effects:
 754:.\Generated_Source\PSoC5/UART_READER.c ****     *  Any received data not read from the RAM or FIFO buffer will be lost.
 755:.\Generated_Source\PSoC5/UART_READER.c ****     *
 756:.\Generated_Source\PSoC5/UART_READER.c ****     *******************************************************************************/
 757:.\Generated_Source\PSoC5/UART_READER.c ****     void UART_READER_ClearRxBuffer(void) 
 758:.\Generated_Source\PSoC5/UART_READER.c ****     {
 628              		.loc 1 758 0
 629              		.cfi_startproc
 630              		@ args = 0, pretend = 0, frame = 0
 631              		@ frame_needed = 0, uses_anonymous_args = 0
 632 0000 08B5     		push	{r3, lr}
 633              		.cfi_def_cfa_offset 8
 634              		.cfi_offset 3, -8
 635              		.cfi_offset 14, -4
 759:.\Generated_Source\PSoC5/UART_READER.c ****         uint8 enableInterrupts;
 760:.\Generated_Source\PSoC5/UART_READER.c **** 
 761:.\Generated_Source\PSoC5/UART_READER.c ****         /* Clear the HW FIFO */
 762:.\Generated_Source\PSoC5/UART_READER.c ****         enableInterrupts = CyEnterCriticalSection();
 636              		.loc 1 762 0
 637 0002 FFF7FEFF 		bl	CyEnterCriticalSection
 638              	.LVL38:
 763:.\Generated_Source\PSoC5/UART_READER.c ****         UART_READER_RXDATA_AUX_CTL_REG |= (uint8)  UART_READER_RX_FIFO_CLR;
 639              		.loc 1 763 0
 640 0006 0B4B     		ldr	r3, .L68
 641 0008 1A78     		ldrb	r2, [r3]	@ zero_extendqisi2
 642 000a 42F00102 		orr	r2, r2, #1
 643 000e 1A70     		strb	r2, [r3]
ARM GAS  C:\Users\Yiquing\AppData\Local\Temp\ccJgHlWx.s 			page 26


 764:.\Generated_Source\PSoC5/UART_READER.c ****         UART_READER_RXDATA_AUX_CTL_REG &= (uint8) ~UART_READER_RX_FIFO_CLR;
 644              		.loc 1 764 0
 645 0010 1A78     		ldrb	r2, [r3]	@ zero_extendqisi2
 646 0012 02F0FE02 		and	r2, r2, #254
 647 0016 1A70     		strb	r2, [r3]
 765:.\Generated_Source\PSoC5/UART_READER.c ****         CyExitCriticalSection(enableInterrupts);
 648              		.loc 1 765 0
 649 0018 FFF7FEFF 		bl	CyExitCriticalSection
 650              	.LVL39:
 766:.\Generated_Source\PSoC5/UART_READER.c **** 
 767:.\Generated_Source\PSoC5/UART_READER.c ****     #if (UART_READER_RX_INTERRUPT_ENABLED)
 768:.\Generated_Source\PSoC5/UART_READER.c **** 
 769:.\Generated_Source\PSoC5/UART_READER.c ****         /* Protect variables that could change on interrupt. */
 770:.\Generated_Source\PSoC5/UART_READER.c ****         UART_READER_DisableRxInt();
 651              		.loc 1 770 0
 652 001c 064B     		ldr	r3, .L68+4
 653 001e 0421     		movs	r1, #4
 654 0020 1960     		str	r1, [r3]
 771:.\Generated_Source\PSoC5/UART_READER.c **** 
 772:.\Generated_Source\PSoC5/UART_READER.c ****         UART_READER_rxBufferRead = 0u;
 655              		.loc 1 772 0
 656 0022 064B     		ldr	r3, .L68+8
 657 0024 0022     		movs	r2, #0
 658 0026 9A70     		strb	r2, [r3, #2]
 773:.\Generated_Source\PSoC5/UART_READER.c ****         UART_READER_rxBufferWrite = 0u;
 659              		.loc 1 773 0
 660 0028 DA70     		strb	r2, [r3, #3]
 774:.\Generated_Source\PSoC5/UART_READER.c ****         UART_READER_rxBufferLoopDetect = 0u;
 661              		.loc 1 774 0
 662 002a 1A71     		strb	r2, [r3, #4]
 775:.\Generated_Source\PSoC5/UART_READER.c ****         UART_READER_rxBufferOverflow = 0u;
 663              		.loc 1 775 0
 664 002c 5A71     		strb	r2, [r3, #5]
 776:.\Generated_Source\PSoC5/UART_READER.c **** 
 777:.\Generated_Source\PSoC5/UART_READER.c ****         UART_READER_EnableRxInt();
 665              		.loc 1 777 0
 666 002e 044B     		ldr	r3, .L68+12
 667 0030 1960     		str	r1, [r3]
 668 0032 08BD     		pop	{r3, pc}
 669              	.L69:
 670              		.align	2
 671              	.L68:
 672 0034 97640040 		.word	1073767575
 673 0038 80E100E0 		.word	-536813184
 674 003c 00000000 		.word	.LANCHOR0
 675 0040 00E100E0 		.word	-536813312
 676              		.cfi_endproc
 677              	.LFE12:
 678              		.size	UART_READER_ClearRxBuffer, .-UART_READER_ClearRxBuffer
 679              		.section	.text.UART_READER_SetRxAddressMode,"ax",%progbits
 680              		.align	1
 681              		.global	UART_READER_SetRxAddressMode
 682              		.thumb
 683              		.thumb_func
 684              		.type	UART_READER_SetRxAddressMode, %function
 685              	UART_READER_SetRxAddressMode:
 686              	.LFB13:
ARM GAS  C:\Users\Yiquing\AppData\Local\Temp\ccJgHlWx.s 			page 27


 778:.\Generated_Source\PSoC5/UART_READER.c **** 
 779:.\Generated_Source\PSoC5/UART_READER.c ****     #endif /* (UART_READER_RX_INTERRUPT_ENABLED) */
 780:.\Generated_Source\PSoC5/UART_READER.c **** 
 781:.\Generated_Source\PSoC5/UART_READER.c ****     }
 782:.\Generated_Source\PSoC5/UART_READER.c **** 
 783:.\Generated_Source\PSoC5/UART_READER.c **** 
 784:.\Generated_Source\PSoC5/UART_READER.c ****     /*******************************************************************************
 785:.\Generated_Source\PSoC5/UART_READER.c ****     * Function Name: UART_READER_SetRxAddressMode
 786:.\Generated_Source\PSoC5/UART_READER.c ****     ********************************************************************************
 787:.\Generated_Source\PSoC5/UART_READER.c ****     *
 788:.\Generated_Source\PSoC5/UART_READER.c ****     * Summary:
 789:.\Generated_Source\PSoC5/UART_READER.c ****     *  Sets the software controlled Addressing mode used by the RX portion of the
 790:.\Generated_Source\PSoC5/UART_READER.c ****     *  UART.
 791:.\Generated_Source\PSoC5/UART_READER.c ****     *
 792:.\Generated_Source\PSoC5/UART_READER.c ****     * Parameters:
 793:.\Generated_Source\PSoC5/UART_READER.c ****     *  addressMode: Enumerated value indicating the mode of RX addressing
 794:.\Generated_Source\PSoC5/UART_READER.c ****     *  UART_READER__B_UART__AM_SW_BYTE_BYTE -  Software Byte-by-Byte address
 795:.\Generated_Source\PSoC5/UART_READER.c ****     *                                               detection
 796:.\Generated_Source\PSoC5/UART_READER.c ****     *  UART_READER__B_UART__AM_SW_DETECT_TO_BUFFER - Software Detect to Buffer
 797:.\Generated_Source\PSoC5/UART_READER.c ****     *                                               address detection
 798:.\Generated_Source\PSoC5/UART_READER.c ****     *  UART_READER__B_UART__AM_HW_BYTE_BY_BYTE - Hardware Byte-by-Byte address
 799:.\Generated_Source\PSoC5/UART_READER.c ****     *                                               detection
 800:.\Generated_Source\PSoC5/UART_READER.c ****     *  UART_READER__B_UART__AM_HW_DETECT_TO_BUFFER - Hardware Detect to Buffer
 801:.\Generated_Source\PSoC5/UART_READER.c ****     *                                               address detection
 802:.\Generated_Source\PSoC5/UART_READER.c ****     *  UART_READER__B_UART__AM_NONE - No address detection
 803:.\Generated_Source\PSoC5/UART_READER.c ****     *
 804:.\Generated_Source\PSoC5/UART_READER.c ****     * Return:
 805:.\Generated_Source\PSoC5/UART_READER.c ****     *  None.
 806:.\Generated_Source\PSoC5/UART_READER.c ****     *
 807:.\Generated_Source\PSoC5/UART_READER.c ****     * Global Variables:
 808:.\Generated_Source\PSoC5/UART_READER.c ****     *  UART_READER_rxAddressMode - the parameter stored in this variable for
 809:.\Generated_Source\PSoC5/UART_READER.c ****     *   the farther usage in RX ISR.
 810:.\Generated_Source\PSoC5/UART_READER.c ****     *  UART_READER_rxAddressDetected - set to initial state (0).
 811:.\Generated_Source\PSoC5/UART_READER.c ****     *
 812:.\Generated_Source\PSoC5/UART_READER.c ****     *******************************************************************************/
 813:.\Generated_Source\PSoC5/UART_READER.c ****     void UART_READER_SetRxAddressMode(uint8 addressMode)
 814:.\Generated_Source\PSoC5/UART_READER.c ****                                                         
 815:.\Generated_Source\PSoC5/UART_READER.c ****     {
 687              		.loc 1 815 0
 688              		.cfi_startproc
 689              		@ args = 0, pretend = 0, frame = 0
 690              		@ frame_needed = 0, uses_anonymous_args = 0
 691              		@ link register save eliminated.
 692              	.LVL40:
 693 0000 7047     		bx	lr
 694              		.cfi_endproc
 695              	.LFE13:
 696              		.size	UART_READER_SetRxAddressMode, .-UART_READER_SetRxAddressMode
 697              		.section	.text.UART_READER_SetRxAddress1,"ax",%progbits
 698              		.align	1
 699              		.global	UART_READER_SetRxAddress1
 700              		.thumb
 701              		.thumb_func
 702              		.type	UART_READER_SetRxAddress1, %function
 703              	UART_READER_SetRxAddress1:
 704              	.LFB14:
 816:.\Generated_Source\PSoC5/UART_READER.c ****         #if(UART_READER_RXHW_ADDRESS_ENABLED)
ARM GAS  C:\Users\Yiquing\AppData\Local\Temp\ccJgHlWx.s 			page 28


 817:.\Generated_Source\PSoC5/UART_READER.c ****             #if(UART_READER_CONTROL_REG_REMOVED)
 818:.\Generated_Source\PSoC5/UART_READER.c ****                 if(0u != addressMode)
 819:.\Generated_Source\PSoC5/UART_READER.c ****                 {
 820:.\Generated_Source\PSoC5/UART_READER.c ****                     /* Suppress compiler warning */
 821:.\Generated_Source\PSoC5/UART_READER.c ****                 }
 822:.\Generated_Source\PSoC5/UART_READER.c ****             #else /* UART_READER_CONTROL_REG_REMOVED */
 823:.\Generated_Source\PSoC5/UART_READER.c ****                 uint8 tmpCtrl;
 824:.\Generated_Source\PSoC5/UART_READER.c ****                 tmpCtrl = UART_READER_CONTROL_REG & (uint8)~UART_READER_CTRL_RXADDR_MODE_MASK;
 825:.\Generated_Source\PSoC5/UART_READER.c ****                 tmpCtrl |= (uint8)(addressMode << UART_READER_CTRL_RXADDR_MODE0_SHIFT);
 826:.\Generated_Source\PSoC5/UART_READER.c ****                 UART_READER_CONTROL_REG = tmpCtrl;
 827:.\Generated_Source\PSoC5/UART_READER.c **** 
 828:.\Generated_Source\PSoC5/UART_READER.c ****                 #if(UART_READER_RX_INTERRUPT_ENABLED && \
 829:.\Generated_Source\PSoC5/UART_READER.c ****                    (UART_READER_RXBUFFERSIZE > UART_READER_FIFO_LENGTH) )
 830:.\Generated_Source\PSoC5/UART_READER.c ****                     UART_READER_rxAddressMode = addressMode;
 831:.\Generated_Source\PSoC5/UART_READER.c ****                     UART_READER_rxAddressDetected = 0u;
 832:.\Generated_Source\PSoC5/UART_READER.c ****                 #endif /* End UART_READER_RXBUFFERSIZE > UART_READER_FIFO_LENGTH*/
 833:.\Generated_Source\PSoC5/UART_READER.c ****             #endif /* End UART_READER_CONTROL_REG_REMOVED */
 834:.\Generated_Source\PSoC5/UART_READER.c ****         #else /* UART_READER_RXHW_ADDRESS_ENABLED */
 835:.\Generated_Source\PSoC5/UART_READER.c ****             if(0u != addressMode)
 836:.\Generated_Source\PSoC5/UART_READER.c ****             {
 837:.\Generated_Source\PSoC5/UART_READER.c ****                 /* Suppress compiler warning */
 838:.\Generated_Source\PSoC5/UART_READER.c ****             }
 839:.\Generated_Source\PSoC5/UART_READER.c ****         #endif /* End UART_READER_RXHW_ADDRESS_ENABLED */
 840:.\Generated_Source\PSoC5/UART_READER.c ****     }
 841:.\Generated_Source\PSoC5/UART_READER.c **** 
 842:.\Generated_Source\PSoC5/UART_READER.c **** 
 843:.\Generated_Source\PSoC5/UART_READER.c ****     /*******************************************************************************
 844:.\Generated_Source\PSoC5/UART_READER.c ****     * Function Name: UART_READER_SetRxAddress1
 845:.\Generated_Source\PSoC5/UART_READER.c ****     ********************************************************************************
 846:.\Generated_Source\PSoC5/UART_READER.c ****     *
 847:.\Generated_Source\PSoC5/UART_READER.c ****     * Summary:
 848:.\Generated_Source\PSoC5/UART_READER.c ****     *  Sets the first of two hardware-detectable receiver addresses.
 849:.\Generated_Source\PSoC5/UART_READER.c ****     *
 850:.\Generated_Source\PSoC5/UART_READER.c ****     * Parameters:
 851:.\Generated_Source\PSoC5/UART_READER.c ****     *  address: Address #1 for hardware address detection.
 852:.\Generated_Source\PSoC5/UART_READER.c ****     *
 853:.\Generated_Source\PSoC5/UART_READER.c ****     * Return:
 854:.\Generated_Source\PSoC5/UART_READER.c ****     *  None.
 855:.\Generated_Source\PSoC5/UART_READER.c ****     *
 856:.\Generated_Source\PSoC5/UART_READER.c ****     *******************************************************************************/
 857:.\Generated_Source\PSoC5/UART_READER.c ****     void UART_READER_SetRxAddress1(uint8 address) 
 858:.\Generated_Source\PSoC5/UART_READER.c ****     {
 705              		.loc 1 858 0
 706              		.cfi_startproc
 707              		@ args = 0, pretend = 0, frame = 0
 708              		@ frame_needed = 0, uses_anonymous_args = 0
 709              		@ link register save eliminated.
 710              	.LVL41:
 859:.\Generated_Source\PSoC5/UART_READER.c ****         UART_READER_RXADDRESS1_REG = address;
 711              		.loc 1 859 0
 712 0000 014B     		ldr	r3, .L72
 713 0002 1870     		strb	r0, [r3]
 714 0004 7047     		bx	lr
 715              	.L73:
 716 0006 00BF     		.align	2
 717              	.L72:
 718 0008 27640040 		.word	1073767463
ARM GAS  C:\Users\Yiquing\AppData\Local\Temp\ccJgHlWx.s 			page 29


 719              		.cfi_endproc
 720              	.LFE14:
 721              		.size	UART_READER_SetRxAddress1, .-UART_READER_SetRxAddress1
 722              		.section	.text.UART_READER_SetRxAddress2,"ax",%progbits
 723              		.align	1
 724              		.global	UART_READER_SetRxAddress2
 725              		.thumb
 726              		.thumb_func
 727              		.type	UART_READER_SetRxAddress2, %function
 728              	UART_READER_SetRxAddress2:
 729              	.LFB15:
 860:.\Generated_Source\PSoC5/UART_READER.c ****     }
 861:.\Generated_Source\PSoC5/UART_READER.c **** 
 862:.\Generated_Source\PSoC5/UART_READER.c **** 
 863:.\Generated_Source\PSoC5/UART_READER.c ****     /*******************************************************************************
 864:.\Generated_Source\PSoC5/UART_READER.c ****     * Function Name: UART_READER_SetRxAddress2
 865:.\Generated_Source\PSoC5/UART_READER.c ****     ********************************************************************************
 866:.\Generated_Source\PSoC5/UART_READER.c ****     *
 867:.\Generated_Source\PSoC5/UART_READER.c ****     * Summary:
 868:.\Generated_Source\PSoC5/UART_READER.c ****     *  Sets the second of two hardware-detectable receiver addresses.
 869:.\Generated_Source\PSoC5/UART_READER.c ****     *
 870:.\Generated_Source\PSoC5/UART_READER.c ****     * Parameters:
 871:.\Generated_Source\PSoC5/UART_READER.c ****     *  address: Address #2 for hardware address detection.
 872:.\Generated_Source\PSoC5/UART_READER.c ****     *
 873:.\Generated_Source\PSoC5/UART_READER.c ****     * Return:
 874:.\Generated_Source\PSoC5/UART_READER.c ****     *  None.
 875:.\Generated_Source\PSoC5/UART_READER.c ****     *
 876:.\Generated_Source\PSoC5/UART_READER.c ****     *******************************************************************************/
 877:.\Generated_Source\PSoC5/UART_READER.c ****     void UART_READER_SetRxAddress2(uint8 address) 
 878:.\Generated_Source\PSoC5/UART_READER.c ****     {
 730              		.loc 1 878 0
 731              		.cfi_startproc
 732              		@ args = 0, pretend = 0, frame = 0
 733              		@ frame_needed = 0, uses_anonymous_args = 0
 734              		@ link register save eliminated.
 735              	.LVL42:
 879:.\Generated_Source\PSoC5/UART_READER.c ****         UART_READER_RXADDRESS2_REG = address;
 736              		.loc 1 879 0
 737 0000 014B     		ldr	r3, .L75
 738 0002 1870     		strb	r0, [r3]
 739 0004 7047     		bx	lr
 740              	.L76:
 741 0006 00BF     		.align	2
 742              	.L75:
 743 0008 37640040 		.word	1073767479
 744              		.cfi_endproc
 745              	.LFE15:
 746              		.size	UART_READER_SetRxAddress2, .-UART_READER_SetRxAddress2
 747              		.section	.text.UART_READER_SetTxInterruptMode,"ax",%progbits
 748              		.align	1
 749              		.global	UART_READER_SetTxInterruptMode
 750              		.thumb
 751              		.thumb_func
 752              		.type	UART_READER_SetTxInterruptMode, %function
 753              	UART_READER_SetTxInterruptMode:
 754              	.LFB16:
 880:.\Generated_Source\PSoC5/UART_READER.c ****     }
ARM GAS  C:\Users\Yiquing\AppData\Local\Temp\ccJgHlWx.s 			page 30


 881:.\Generated_Source\PSoC5/UART_READER.c **** 
 882:.\Generated_Source\PSoC5/UART_READER.c **** #endif  /* UART_READER_RX_ENABLED || UART_READER_HD_ENABLED*/
 883:.\Generated_Source\PSoC5/UART_READER.c **** 
 884:.\Generated_Source\PSoC5/UART_READER.c **** 
 885:.\Generated_Source\PSoC5/UART_READER.c **** #if( (UART_READER_TX_ENABLED) || (UART_READER_HD_ENABLED) )
 886:.\Generated_Source\PSoC5/UART_READER.c ****     /*******************************************************************************
 887:.\Generated_Source\PSoC5/UART_READER.c ****     * Function Name: UART_READER_SetTxInterruptMode
 888:.\Generated_Source\PSoC5/UART_READER.c ****     ********************************************************************************
 889:.\Generated_Source\PSoC5/UART_READER.c ****     *
 890:.\Generated_Source\PSoC5/UART_READER.c ****     * Summary:
 891:.\Generated_Source\PSoC5/UART_READER.c ****     *  Configures the TX interrupt sources to be enabled, but does not enable the
 892:.\Generated_Source\PSoC5/UART_READER.c ****     *  interrupt.
 893:.\Generated_Source\PSoC5/UART_READER.c ****     *
 894:.\Generated_Source\PSoC5/UART_READER.c ****     * Parameters:
 895:.\Generated_Source\PSoC5/UART_READER.c ****     *  intSrc: Bit field containing the TX interrupt sources to enable
 896:.\Generated_Source\PSoC5/UART_READER.c ****     *   UART_READER_TX_STS_COMPLETE        Interrupt on TX byte complete
 897:.\Generated_Source\PSoC5/UART_READER.c ****     *   UART_READER_TX_STS_FIFO_EMPTY      Interrupt when TX FIFO is empty
 898:.\Generated_Source\PSoC5/UART_READER.c ****     *   UART_READER_TX_STS_FIFO_FULL       Interrupt when TX FIFO is full
 899:.\Generated_Source\PSoC5/UART_READER.c ****     *   UART_READER_TX_STS_FIFO_NOT_FULL   Interrupt when TX FIFO is not full
 900:.\Generated_Source\PSoC5/UART_READER.c ****     *
 901:.\Generated_Source\PSoC5/UART_READER.c ****     * Return:
 902:.\Generated_Source\PSoC5/UART_READER.c ****     *  None.
 903:.\Generated_Source\PSoC5/UART_READER.c ****     *
 904:.\Generated_Source\PSoC5/UART_READER.c ****     * Theory:
 905:.\Generated_Source\PSoC5/UART_READER.c ****     *  Enables the output of specific status bits to the interrupt controller
 906:.\Generated_Source\PSoC5/UART_READER.c ****     *
 907:.\Generated_Source\PSoC5/UART_READER.c ****     *******************************************************************************/
 908:.\Generated_Source\PSoC5/UART_READER.c ****     void UART_READER_SetTxInterruptMode(uint8 intSrc) 
 909:.\Generated_Source\PSoC5/UART_READER.c ****     {
 755              		.loc 1 909 0
 756              		.cfi_startproc
 757              		@ args = 0, pretend = 0, frame = 0
 758              		@ frame_needed = 0, uses_anonymous_args = 0
 759              		@ link register save eliminated.
 760              	.LVL43:
 910:.\Generated_Source\PSoC5/UART_READER.c ****         UART_READER_TXSTATUS_MASK_REG = intSrc;
 761              		.loc 1 910 0
 762 0000 014B     		ldr	r3, .L78
 763 0002 1870     		strb	r0, [r3]
 764 0004 7047     		bx	lr
 765              	.L79:
 766 0006 00BF     		.align	2
 767              	.L78:
 768 0008 87640040 		.word	1073767559
 769              		.cfi_endproc
 770              	.LFE16:
 771              		.size	UART_READER_SetTxInterruptMode, .-UART_READER_SetTxInterruptMode
 772              		.section	.text.UART_READER_WriteTxData,"ax",%progbits
 773              		.align	1
 774              		.global	UART_READER_WriteTxData
 775              		.thumb
 776              		.thumb_func
 777              		.type	UART_READER_WriteTxData, %function
 778              	UART_READER_WriteTxData:
 779              	.LFB17:
 911:.\Generated_Source\PSoC5/UART_READER.c ****     }
 912:.\Generated_Source\PSoC5/UART_READER.c **** 
ARM GAS  C:\Users\Yiquing\AppData\Local\Temp\ccJgHlWx.s 			page 31


 913:.\Generated_Source\PSoC5/UART_READER.c **** 
 914:.\Generated_Source\PSoC5/UART_READER.c ****     /*******************************************************************************
 915:.\Generated_Source\PSoC5/UART_READER.c ****     * Function Name: UART_READER_WriteTxData
 916:.\Generated_Source\PSoC5/UART_READER.c ****     ********************************************************************************
 917:.\Generated_Source\PSoC5/UART_READER.c ****     *
 918:.\Generated_Source\PSoC5/UART_READER.c ****     * Summary:
 919:.\Generated_Source\PSoC5/UART_READER.c ****     *  Places a byte of data into the transmit buffer to be sent when the bus is
 920:.\Generated_Source\PSoC5/UART_READER.c ****     *  available without checking the TX status register. You must check status
 921:.\Generated_Source\PSoC5/UART_READER.c ****     *  separately.
 922:.\Generated_Source\PSoC5/UART_READER.c ****     *
 923:.\Generated_Source\PSoC5/UART_READER.c ****     * Parameters:
 924:.\Generated_Source\PSoC5/UART_READER.c ****     *  txDataByte: data byte
 925:.\Generated_Source\PSoC5/UART_READER.c ****     *
 926:.\Generated_Source\PSoC5/UART_READER.c ****     * Return:
 927:.\Generated_Source\PSoC5/UART_READER.c ****     * None.
 928:.\Generated_Source\PSoC5/UART_READER.c ****     *
 929:.\Generated_Source\PSoC5/UART_READER.c ****     * Global Variables:
 930:.\Generated_Source\PSoC5/UART_READER.c ****     *  UART_READER_txBuffer - RAM buffer pointer for save data for transmission
 931:.\Generated_Source\PSoC5/UART_READER.c ****     *  UART_READER_txBufferWrite - cyclic index for write to txBuffer,
 932:.\Generated_Source\PSoC5/UART_READER.c ****     *    incremented after each byte saved to buffer.
 933:.\Generated_Source\PSoC5/UART_READER.c ****     *  UART_READER_txBufferRead - cyclic index for read from txBuffer,
 934:.\Generated_Source\PSoC5/UART_READER.c ****     *    checked to identify the condition to write to FIFO directly or to TX buffer
 935:.\Generated_Source\PSoC5/UART_READER.c ****     *  UART_READER_initVar - checked to identify that the component has been
 936:.\Generated_Source\PSoC5/UART_READER.c ****     *    initialized.
 937:.\Generated_Source\PSoC5/UART_READER.c ****     *
 938:.\Generated_Source\PSoC5/UART_READER.c ****     * Reentrant:
 939:.\Generated_Source\PSoC5/UART_READER.c ****     *  No.
 940:.\Generated_Source\PSoC5/UART_READER.c ****     *
 941:.\Generated_Source\PSoC5/UART_READER.c ****     *******************************************************************************/
 942:.\Generated_Source\PSoC5/UART_READER.c ****     void UART_READER_WriteTxData(uint8 txDataByte) 
 943:.\Generated_Source\PSoC5/UART_READER.c ****     {
 780              		.loc 1 943 0
 781              		.cfi_startproc
 782              		@ args = 0, pretend = 0, frame = 0
 783              		@ frame_needed = 0, uses_anonymous_args = 0
 784              		@ link register save eliminated.
 785              	.LVL44:
 944:.\Generated_Source\PSoC5/UART_READER.c ****         /* If not Initialized then skip this function*/
 945:.\Generated_Source\PSoC5/UART_READER.c ****         if(UART_READER_initVar != 0u)
 786              		.loc 1 945 0
 787 0000 024B     		ldr	r3, .L85
 788 0002 5B78     		ldrb	r3, [r3, #1]	@ zero_extendqisi2
 789 0004 0BB1     		cbz	r3, .L80
 946:.\Generated_Source\PSoC5/UART_READER.c ****         {
 947:.\Generated_Source\PSoC5/UART_READER.c ****         #if (UART_READER_TX_INTERRUPT_ENABLED)
 948:.\Generated_Source\PSoC5/UART_READER.c **** 
 949:.\Generated_Source\PSoC5/UART_READER.c ****             /* Protect variables that could change on interrupt. */
 950:.\Generated_Source\PSoC5/UART_READER.c ****             UART_READER_DisableTxInt();
 951:.\Generated_Source\PSoC5/UART_READER.c **** 
 952:.\Generated_Source\PSoC5/UART_READER.c ****             if( (UART_READER_txBufferRead == UART_READER_txBufferWrite) &&
 953:.\Generated_Source\PSoC5/UART_READER.c ****                 ((UART_READER_TXSTATUS_REG & UART_READER_TX_STS_FIFO_FULL) == 0u) )
 954:.\Generated_Source\PSoC5/UART_READER.c ****             {
 955:.\Generated_Source\PSoC5/UART_READER.c ****                 /* Add directly to the FIFO. */
 956:.\Generated_Source\PSoC5/UART_READER.c ****                 UART_READER_TXDATA_REG = txDataByte;
 957:.\Generated_Source\PSoC5/UART_READER.c ****             }
 958:.\Generated_Source\PSoC5/UART_READER.c ****             else
 959:.\Generated_Source\PSoC5/UART_READER.c ****             {
ARM GAS  C:\Users\Yiquing\AppData\Local\Temp\ccJgHlWx.s 			page 32


 960:.\Generated_Source\PSoC5/UART_READER.c ****                 if(UART_READER_txBufferWrite >= UART_READER_TX_BUFFER_SIZE)
 961:.\Generated_Source\PSoC5/UART_READER.c ****                 {
 962:.\Generated_Source\PSoC5/UART_READER.c ****                     UART_READER_txBufferWrite = 0u;
 963:.\Generated_Source\PSoC5/UART_READER.c ****                 }
 964:.\Generated_Source\PSoC5/UART_READER.c **** 
 965:.\Generated_Source\PSoC5/UART_READER.c ****                 UART_READER_txBuffer[UART_READER_txBufferWrite] = txDataByte;
 966:.\Generated_Source\PSoC5/UART_READER.c **** 
 967:.\Generated_Source\PSoC5/UART_READER.c ****                 /* Add to the software buffer. */
 968:.\Generated_Source\PSoC5/UART_READER.c ****                 UART_READER_txBufferWrite++;
 969:.\Generated_Source\PSoC5/UART_READER.c ****             }
 970:.\Generated_Source\PSoC5/UART_READER.c **** 
 971:.\Generated_Source\PSoC5/UART_READER.c ****             UART_READER_EnableTxInt();
 972:.\Generated_Source\PSoC5/UART_READER.c **** 
 973:.\Generated_Source\PSoC5/UART_READER.c ****         #else
 974:.\Generated_Source\PSoC5/UART_READER.c **** 
 975:.\Generated_Source\PSoC5/UART_READER.c ****             /* Add directly to the FIFO. */
 976:.\Generated_Source\PSoC5/UART_READER.c ****             UART_READER_TXDATA_REG = txDataByte;
 790              		.loc 1 976 0
 791 0006 024B     		ldr	r3, .L85+4
 792 0008 1870     		strb	r0, [r3]
 793              	.L80:
 794 000a 7047     		bx	lr
 795              	.L86:
 796              		.align	2
 797              	.L85:
 798 000c 00000000 		.word	.LANCHOR0
 799 0010 57640040 		.word	1073767511
 800              		.cfi_endproc
 801              	.LFE17:
 802              		.size	UART_READER_WriteTxData, .-UART_READER_WriteTxData
 803              		.section	.text.UART_READER_ReadTxStatus,"ax",%progbits
 804              		.align	1
 805              		.global	UART_READER_ReadTxStatus
 806              		.thumb
 807              		.thumb_func
 808              		.type	UART_READER_ReadTxStatus, %function
 809              	UART_READER_ReadTxStatus:
 810              	.LFB18:
 977:.\Generated_Source\PSoC5/UART_READER.c **** 
 978:.\Generated_Source\PSoC5/UART_READER.c ****         #endif /*(UART_READER_TX_INTERRUPT_ENABLED) */
 979:.\Generated_Source\PSoC5/UART_READER.c ****         }
 980:.\Generated_Source\PSoC5/UART_READER.c ****     }
 981:.\Generated_Source\PSoC5/UART_READER.c **** 
 982:.\Generated_Source\PSoC5/UART_READER.c **** 
 983:.\Generated_Source\PSoC5/UART_READER.c ****     /*******************************************************************************
 984:.\Generated_Source\PSoC5/UART_READER.c ****     * Function Name: UART_READER_ReadTxStatus
 985:.\Generated_Source\PSoC5/UART_READER.c ****     ********************************************************************************
 986:.\Generated_Source\PSoC5/UART_READER.c ****     *
 987:.\Generated_Source\PSoC5/UART_READER.c ****     * Summary:
 988:.\Generated_Source\PSoC5/UART_READER.c ****     *  Reads the status register for the TX portion of the UART.
 989:.\Generated_Source\PSoC5/UART_READER.c ****     *
 990:.\Generated_Source\PSoC5/UART_READER.c ****     * Parameters:
 991:.\Generated_Source\PSoC5/UART_READER.c ****     *  None.
 992:.\Generated_Source\PSoC5/UART_READER.c ****     *
 993:.\Generated_Source\PSoC5/UART_READER.c ****     * Return:
 994:.\Generated_Source\PSoC5/UART_READER.c ****     *  Contents of the status register
 995:.\Generated_Source\PSoC5/UART_READER.c ****     *
ARM GAS  C:\Users\Yiquing\AppData\Local\Temp\ccJgHlWx.s 			page 33


 996:.\Generated_Source\PSoC5/UART_READER.c ****     * Theory:
 997:.\Generated_Source\PSoC5/UART_READER.c ****     *  This function reads the TX status register, which is cleared on read.
 998:.\Generated_Source\PSoC5/UART_READER.c ****     *  It is up to the user to handle all bits in this return value accordingly,
 999:.\Generated_Source\PSoC5/UART_READER.c ****     *  even if the bit was not enabled as an interrupt source the event happened
1000:.\Generated_Source\PSoC5/UART_READER.c ****     *  and must be handled accordingly.
1001:.\Generated_Source\PSoC5/UART_READER.c ****     *
1002:.\Generated_Source\PSoC5/UART_READER.c ****     *******************************************************************************/
1003:.\Generated_Source\PSoC5/UART_READER.c ****     uint8 UART_READER_ReadTxStatus(void) 
1004:.\Generated_Source\PSoC5/UART_READER.c ****     {
 811              		.loc 1 1004 0
 812              		.cfi_startproc
 813              		@ args = 0, pretend = 0, frame = 0
 814              		@ frame_needed = 0, uses_anonymous_args = 0
 815              		@ link register save eliminated.
1005:.\Generated_Source\PSoC5/UART_READER.c ****         return(UART_READER_TXSTATUS_REG);
 816              		.loc 1 1005 0
 817 0000 014B     		ldr	r3, .L88
 818 0002 1878     		ldrb	r0, [r3]	@ zero_extendqisi2
1006:.\Generated_Source\PSoC5/UART_READER.c ****     }
 819              		.loc 1 1006 0
 820 0004 7047     		bx	lr
 821              	.L89:
 822 0006 00BF     		.align	2
 823              	.L88:
 824 0008 67640040 		.word	1073767527
 825              		.cfi_endproc
 826              	.LFE18:
 827              		.size	UART_READER_ReadTxStatus, .-UART_READER_ReadTxStatus
 828              		.section	.text.UART_READER_PutChar,"ax",%progbits
 829              		.align	1
 830              		.global	UART_READER_PutChar
 831              		.thumb
 832              		.thumb_func
 833              		.type	UART_READER_PutChar, %function
 834              	UART_READER_PutChar:
 835              	.LFB19:
1007:.\Generated_Source\PSoC5/UART_READER.c **** 
1008:.\Generated_Source\PSoC5/UART_READER.c **** 
1009:.\Generated_Source\PSoC5/UART_READER.c ****     /*******************************************************************************
1010:.\Generated_Source\PSoC5/UART_READER.c ****     * Function Name: UART_READER_PutChar
1011:.\Generated_Source\PSoC5/UART_READER.c ****     ********************************************************************************
1012:.\Generated_Source\PSoC5/UART_READER.c ****     *
1013:.\Generated_Source\PSoC5/UART_READER.c ****     * Summary:
1014:.\Generated_Source\PSoC5/UART_READER.c ****     *  Puts a byte of data into the transmit buffer to be sent when the bus is
1015:.\Generated_Source\PSoC5/UART_READER.c ****     *  available. This is a blocking API that waits until the TX buffer has room to
1016:.\Generated_Source\PSoC5/UART_READER.c ****     *  hold the data.
1017:.\Generated_Source\PSoC5/UART_READER.c ****     *
1018:.\Generated_Source\PSoC5/UART_READER.c ****     * Parameters:
1019:.\Generated_Source\PSoC5/UART_READER.c ****     *  txDataByte: Byte containing the data to transmit
1020:.\Generated_Source\PSoC5/UART_READER.c ****     *
1021:.\Generated_Source\PSoC5/UART_READER.c ****     * Return:
1022:.\Generated_Source\PSoC5/UART_READER.c ****     *  None.
1023:.\Generated_Source\PSoC5/UART_READER.c ****     *
1024:.\Generated_Source\PSoC5/UART_READER.c ****     * Global Variables:
1025:.\Generated_Source\PSoC5/UART_READER.c ****     *  UART_READER_txBuffer - RAM buffer pointer for save data for transmission
1026:.\Generated_Source\PSoC5/UART_READER.c ****     *  UART_READER_txBufferWrite - cyclic index for write to txBuffer,
1027:.\Generated_Source\PSoC5/UART_READER.c ****     *     checked to identify free space in txBuffer and incremented after each byte
ARM GAS  C:\Users\Yiquing\AppData\Local\Temp\ccJgHlWx.s 			page 34


1028:.\Generated_Source\PSoC5/UART_READER.c ****     *     saved to buffer.
1029:.\Generated_Source\PSoC5/UART_READER.c ****     *  UART_READER_txBufferRead - cyclic index for read from txBuffer,
1030:.\Generated_Source\PSoC5/UART_READER.c ****     *     checked to identify free space in txBuffer.
1031:.\Generated_Source\PSoC5/UART_READER.c ****     *  UART_READER_initVar - checked to identify that the component has been
1032:.\Generated_Source\PSoC5/UART_READER.c ****     *     initialized.
1033:.\Generated_Source\PSoC5/UART_READER.c ****     *
1034:.\Generated_Source\PSoC5/UART_READER.c ****     * Reentrant:
1035:.\Generated_Source\PSoC5/UART_READER.c ****     *  No.
1036:.\Generated_Source\PSoC5/UART_READER.c ****     *
1037:.\Generated_Source\PSoC5/UART_READER.c ****     * Theory:
1038:.\Generated_Source\PSoC5/UART_READER.c ****     *  Allows the user to transmit any byte of data in a single transfer
1039:.\Generated_Source\PSoC5/UART_READER.c ****     *
1040:.\Generated_Source\PSoC5/UART_READER.c ****     *******************************************************************************/
1041:.\Generated_Source\PSoC5/UART_READER.c ****     void UART_READER_PutChar(uint8 txDataByte) 
1042:.\Generated_Source\PSoC5/UART_READER.c ****     {
 836              		.loc 1 1042 0
 837              		.cfi_startproc
 838              		@ args = 0, pretend = 0, frame = 0
 839              		@ frame_needed = 0, uses_anonymous_args = 0
 840              		@ link register save eliminated.
 841              	.LVL45:
 842              	.L92:
1043:.\Generated_Source\PSoC5/UART_READER.c ****     #if (UART_READER_TX_INTERRUPT_ENABLED)
1044:.\Generated_Source\PSoC5/UART_READER.c ****         /* The temporary output pointer is used since it takes two instructions
1045:.\Generated_Source\PSoC5/UART_READER.c ****         *  to increment with a wrap, and we can't risk doing that with the real
1046:.\Generated_Source\PSoC5/UART_READER.c ****         *  pointer and getting an interrupt in between instructions.
1047:.\Generated_Source\PSoC5/UART_READER.c ****         */
1048:.\Generated_Source\PSoC5/UART_READER.c ****         uint8 locTxBufferWrite;
1049:.\Generated_Source\PSoC5/UART_READER.c ****         uint8 locTxBufferRead;
1050:.\Generated_Source\PSoC5/UART_READER.c **** 
1051:.\Generated_Source\PSoC5/UART_READER.c ****         do
1052:.\Generated_Source\PSoC5/UART_READER.c ****         { /* Block if software buffer is full, so we don't overwrite. */
1053:.\Generated_Source\PSoC5/UART_READER.c **** 
1054:.\Generated_Source\PSoC5/UART_READER.c ****         #if ((UART_READER_TX_BUFFER_SIZE > UART_READER_MAX_BYTE_VALUE) && (CY_PSOC3))
1055:.\Generated_Source\PSoC5/UART_READER.c ****             /* Disable TX interrupt to protect variables from modification */
1056:.\Generated_Source\PSoC5/UART_READER.c ****             UART_READER_DisableTxInt();
1057:.\Generated_Source\PSoC5/UART_READER.c ****         #endif /* (UART_READER_TX_BUFFER_SIZE > UART_READER_MAX_BYTE_VALUE) && (CY_PSOC3) */
1058:.\Generated_Source\PSoC5/UART_READER.c **** 
1059:.\Generated_Source\PSoC5/UART_READER.c ****             locTxBufferWrite = UART_READER_txBufferWrite;
1060:.\Generated_Source\PSoC5/UART_READER.c ****             locTxBufferRead  = UART_READER_txBufferRead;
1061:.\Generated_Source\PSoC5/UART_READER.c **** 
1062:.\Generated_Source\PSoC5/UART_READER.c ****         #if ((UART_READER_TX_BUFFER_SIZE > UART_READER_MAX_BYTE_VALUE) && (CY_PSOC3))
1063:.\Generated_Source\PSoC5/UART_READER.c ****             /* Enable interrupt to continue transmission */
1064:.\Generated_Source\PSoC5/UART_READER.c ****             UART_READER_EnableTxInt();
1065:.\Generated_Source\PSoC5/UART_READER.c ****         #endif /* (UART_READER_TX_BUFFER_SIZE > UART_READER_MAX_BYTE_VALUE) && (CY_PSOC3) */
1066:.\Generated_Source\PSoC5/UART_READER.c ****         }
1067:.\Generated_Source\PSoC5/UART_READER.c ****         while( (locTxBufferWrite < locTxBufferRead) ? (locTxBufferWrite == (locTxBufferRead - 1u)) 
1068:.\Generated_Source\PSoC5/UART_READER.c ****                                 ((locTxBufferWrite - locTxBufferRead) ==
1069:.\Generated_Source\PSoC5/UART_READER.c ****                                 (uint8)(UART_READER_TX_BUFFER_SIZE - 1u)) );
1070:.\Generated_Source\PSoC5/UART_READER.c **** 
1071:.\Generated_Source\PSoC5/UART_READER.c ****         if( (locTxBufferRead == locTxBufferWrite) &&
1072:.\Generated_Source\PSoC5/UART_READER.c ****             ((UART_READER_TXSTATUS_REG & UART_READER_TX_STS_FIFO_FULL) == 0u) )
1073:.\Generated_Source\PSoC5/UART_READER.c ****         {
1074:.\Generated_Source\PSoC5/UART_READER.c ****             /* Add directly to the FIFO */
1075:.\Generated_Source\PSoC5/UART_READER.c ****             UART_READER_TXDATA_REG = txDataByte;
1076:.\Generated_Source\PSoC5/UART_READER.c ****         }
1077:.\Generated_Source\PSoC5/UART_READER.c ****         else
ARM GAS  C:\Users\Yiquing\AppData\Local\Temp\ccJgHlWx.s 			page 35


1078:.\Generated_Source\PSoC5/UART_READER.c ****         {
1079:.\Generated_Source\PSoC5/UART_READER.c ****             if(locTxBufferWrite >= UART_READER_TX_BUFFER_SIZE)
1080:.\Generated_Source\PSoC5/UART_READER.c ****             {
1081:.\Generated_Source\PSoC5/UART_READER.c ****                 locTxBufferWrite = 0u;
1082:.\Generated_Source\PSoC5/UART_READER.c ****             }
1083:.\Generated_Source\PSoC5/UART_READER.c ****             /* Add to the software buffer. */
1084:.\Generated_Source\PSoC5/UART_READER.c ****             UART_READER_txBuffer[locTxBufferWrite] = txDataByte;
1085:.\Generated_Source\PSoC5/UART_READER.c ****             locTxBufferWrite++;
1086:.\Generated_Source\PSoC5/UART_READER.c **** 
1087:.\Generated_Source\PSoC5/UART_READER.c ****             /* Finally, update the real output pointer */
1088:.\Generated_Source\PSoC5/UART_READER.c ****         #if ((UART_READER_TX_BUFFER_SIZE > UART_READER_MAX_BYTE_VALUE) && (CY_PSOC3))
1089:.\Generated_Source\PSoC5/UART_READER.c ****             UART_READER_DisableTxInt();
1090:.\Generated_Source\PSoC5/UART_READER.c ****         #endif /* (UART_READER_TX_BUFFER_SIZE > UART_READER_MAX_BYTE_VALUE) && (CY_PSOC3) */
1091:.\Generated_Source\PSoC5/UART_READER.c **** 
1092:.\Generated_Source\PSoC5/UART_READER.c ****             UART_READER_txBufferWrite = locTxBufferWrite;
1093:.\Generated_Source\PSoC5/UART_READER.c **** 
1094:.\Generated_Source\PSoC5/UART_READER.c ****         #if ((UART_READER_TX_BUFFER_SIZE > UART_READER_MAX_BYTE_VALUE) && (CY_PSOC3))
1095:.\Generated_Source\PSoC5/UART_READER.c ****             UART_READER_EnableTxInt();
1096:.\Generated_Source\PSoC5/UART_READER.c ****         #endif /* (UART_READER_TX_BUFFER_SIZE > UART_READER_MAX_BYTE_VALUE) && (CY_PSOC3) */
1097:.\Generated_Source\PSoC5/UART_READER.c **** 
1098:.\Generated_Source\PSoC5/UART_READER.c ****             if(0u != (UART_READER_TXSTATUS_REG & UART_READER_TX_STS_FIFO_EMPTY))
1099:.\Generated_Source\PSoC5/UART_READER.c ****             {
1100:.\Generated_Source\PSoC5/UART_READER.c ****                 /* Trigger TX interrupt to send software buffer */
1101:.\Generated_Source\PSoC5/UART_READER.c ****                 UART_READER_SetPendingTxInt();
1102:.\Generated_Source\PSoC5/UART_READER.c ****             }
1103:.\Generated_Source\PSoC5/UART_READER.c ****         }
1104:.\Generated_Source\PSoC5/UART_READER.c **** 
1105:.\Generated_Source\PSoC5/UART_READER.c ****     #else
1106:.\Generated_Source\PSoC5/UART_READER.c **** 
1107:.\Generated_Source\PSoC5/UART_READER.c ****         while((UART_READER_TXSTATUS_REG & UART_READER_TX_STS_FIFO_FULL) != 0u)
 843              		.loc 1 1107 0 discriminator 1
 844 0000 034B     		ldr	r3, .L93
 845 0002 1B78     		ldrb	r3, [r3]	@ zero_extendqisi2
 846 0004 9B06     		lsls	r3, r3, #26
 847 0006 FBD4     		bmi	.L92
1108:.\Generated_Source\PSoC5/UART_READER.c ****         {
1109:.\Generated_Source\PSoC5/UART_READER.c ****             /* Wait for room in the FIFO */
1110:.\Generated_Source\PSoC5/UART_READER.c ****         }
1111:.\Generated_Source\PSoC5/UART_READER.c **** 
1112:.\Generated_Source\PSoC5/UART_READER.c ****         /* Add directly to the FIFO */
1113:.\Generated_Source\PSoC5/UART_READER.c ****         UART_READER_TXDATA_REG = txDataByte;
 848              		.loc 1 1113 0
 849 0008 024B     		ldr	r3, .L93+4
 850 000a 1870     		strb	r0, [r3]
 851 000c 7047     		bx	lr
 852              	.L94:
 853 000e 00BF     		.align	2
 854              	.L93:
 855 0010 67640040 		.word	1073767527
 856 0014 57640040 		.word	1073767511
 857              		.cfi_endproc
 858              	.LFE19:
 859              		.size	UART_READER_PutChar, .-UART_READER_PutChar
 860              		.section	.text.UART_READER_PutString,"ax",%progbits
 861              		.align	1
 862              		.global	UART_READER_PutString
 863              		.thumb
ARM GAS  C:\Users\Yiquing\AppData\Local\Temp\ccJgHlWx.s 			page 36


 864              		.thumb_func
 865              		.type	UART_READER_PutString, %function
 866              	UART_READER_PutString:
 867              	.LFB20:
1114:.\Generated_Source\PSoC5/UART_READER.c **** 
1115:.\Generated_Source\PSoC5/UART_READER.c ****     #endif /* UART_READER_TX_INTERRUPT_ENABLED */
1116:.\Generated_Source\PSoC5/UART_READER.c ****     }
1117:.\Generated_Source\PSoC5/UART_READER.c **** 
1118:.\Generated_Source\PSoC5/UART_READER.c **** 
1119:.\Generated_Source\PSoC5/UART_READER.c ****     /*******************************************************************************
1120:.\Generated_Source\PSoC5/UART_READER.c ****     * Function Name: UART_READER_PutString
1121:.\Generated_Source\PSoC5/UART_READER.c ****     ********************************************************************************
1122:.\Generated_Source\PSoC5/UART_READER.c ****     *
1123:.\Generated_Source\PSoC5/UART_READER.c ****     * Summary:
1124:.\Generated_Source\PSoC5/UART_READER.c ****     *  Sends a NULL terminated string to the TX buffer for transmission.
1125:.\Generated_Source\PSoC5/UART_READER.c ****     *
1126:.\Generated_Source\PSoC5/UART_READER.c ****     * Parameters:
1127:.\Generated_Source\PSoC5/UART_READER.c ****     *  string[]: Pointer to the null terminated string array residing in RAM or ROM
1128:.\Generated_Source\PSoC5/UART_READER.c ****     *
1129:.\Generated_Source\PSoC5/UART_READER.c ****     * Return:
1130:.\Generated_Source\PSoC5/UART_READER.c ****     *  None.
1131:.\Generated_Source\PSoC5/UART_READER.c ****     *
1132:.\Generated_Source\PSoC5/UART_READER.c ****     * Global Variables:
1133:.\Generated_Source\PSoC5/UART_READER.c ****     *  UART_READER_initVar - checked to identify that the component has been
1134:.\Generated_Source\PSoC5/UART_READER.c ****     *     initialized.
1135:.\Generated_Source\PSoC5/UART_READER.c ****     *
1136:.\Generated_Source\PSoC5/UART_READER.c ****     * Reentrant:
1137:.\Generated_Source\PSoC5/UART_READER.c ****     *  No.
1138:.\Generated_Source\PSoC5/UART_READER.c ****     *
1139:.\Generated_Source\PSoC5/UART_READER.c ****     * Theory:
1140:.\Generated_Source\PSoC5/UART_READER.c ****     *  If there is not enough memory in the TX buffer for the entire string, this
1141:.\Generated_Source\PSoC5/UART_READER.c ****     *  function blocks until the last character of the string is loaded into the
1142:.\Generated_Source\PSoC5/UART_READER.c ****     *  TX buffer.
1143:.\Generated_Source\PSoC5/UART_READER.c ****     *
1144:.\Generated_Source\PSoC5/UART_READER.c ****     *******************************************************************************/
1145:.\Generated_Source\PSoC5/UART_READER.c ****     void UART_READER_PutString(const char8 string[]) 
1146:.\Generated_Source\PSoC5/UART_READER.c ****     {
 868              		.loc 1 1146 0
 869              		.cfi_startproc
 870              		@ args = 0, pretend = 0, frame = 0
 871              		@ frame_needed = 0, uses_anonymous_args = 0
 872              	.LVL46:
 873 0000 38B5     		push	{r3, r4, r5, lr}
 874              		.cfi_def_cfa_offset 16
 875              		.cfi_offset 3, -16
 876              		.cfi_offset 4, -12
 877              		.cfi_offset 5, -8
 878              		.cfi_offset 14, -4
1147:.\Generated_Source\PSoC5/UART_READER.c ****         uint16 bufIndex = 0u;
1148:.\Generated_Source\PSoC5/UART_READER.c **** 
1149:.\Generated_Source\PSoC5/UART_READER.c ****         /* If not Initialized then skip this function */
1150:.\Generated_Source\PSoC5/UART_READER.c ****         if(UART_READER_initVar != 0u)
 879              		.loc 1 1150 0
 880 0002 064B     		ldr	r3, .L100
1146:.\Generated_Source\PSoC5/UART_READER.c ****     {
 881              		.loc 1 1146 0
 882 0004 0546     		mov	r5, r0
ARM GAS  C:\Users\Yiquing\AppData\Local\Temp\ccJgHlWx.s 			page 37


 883              		.loc 1 1150 0
 884 0006 5B78     		ldrb	r3, [r3, #1]	@ zero_extendqisi2
 885 0008 3BB1     		cbz	r3, .L95
 886 000a 0024     		movs	r4, #0
 887              	.LVL47:
 888              	.L97:
1151:.\Generated_Source\PSoC5/UART_READER.c ****         {
1152:.\Generated_Source\PSoC5/UART_READER.c ****             /* This is a blocking function, it will not exit until all data is sent */
1153:.\Generated_Source\PSoC5/UART_READER.c ****             while(string[bufIndex] != (char8) 0)
 889              		.loc 1 1153 0 discriminator 1
 890 000c A3B2     		uxth	r3, r4
 891 000e E85C     		ldrb	r0, [r5, r3]	@ zero_extendqisi2
 892 0010 0134     		adds	r4, r4, #1
 893              	.LVL48:
 894 0012 10B1     		cbz	r0, .L95
1154:.\Generated_Source\PSoC5/UART_READER.c ****             {
1155:.\Generated_Source\PSoC5/UART_READER.c ****                 UART_READER_PutChar((uint8)string[bufIndex]);
 895              		.loc 1 1155 0
 896 0014 FFF7FEFF 		bl	UART_READER_PutChar
 897              	.LVL49:
 898 0018 F8E7     		b	.L97
 899              	.LVL50:
 900              	.L95:
 901 001a 38BD     		pop	{r3, r4, r5, pc}
 902              	.LVL51:
 903              	.L101:
 904              		.align	2
 905              	.L100:
 906 001c 00000000 		.word	.LANCHOR0
 907              		.cfi_endproc
 908              	.LFE20:
 909              		.size	UART_READER_PutString, .-UART_READER_PutString
 910              		.section	.text.UART_READER_PutArray,"ax",%progbits
 911              		.align	1
 912              		.global	UART_READER_PutArray
 913              		.thumb
 914              		.thumb_func
 915              		.type	UART_READER_PutArray, %function
 916              	UART_READER_PutArray:
 917              	.LFB21:
1156:.\Generated_Source\PSoC5/UART_READER.c ****                 bufIndex++;
1157:.\Generated_Source\PSoC5/UART_READER.c ****             }
1158:.\Generated_Source\PSoC5/UART_READER.c ****         }
1159:.\Generated_Source\PSoC5/UART_READER.c ****     }
1160:.\Generated_Source\PSoC5/UART_READER.c **** 
1161:.\Generated_Source\PSoC5/UART_READER.c **** 
1162:.\Generated_Source\PSoC5/UART_READER.c ****     /*******************************************************************************
1163:.\Generated_Source\PSoC5/UART_READER.c ****     * Function Name: UART_READER_PutArray
1164:.\Generated_Source\PSoC5/UART_READER.c ****     ********************************************************************************
1165:.\Generated_Source\PSoC5/UART_READER.c ****     *
1166:.\Generated_Source\PSoC5/UART_READER.c ****     * Summary:
1167:.\Generated_Source\PSoC5/UART_READER.c ****     *  Places N bytes of data from a memory array into the TX buffer for
1168:.\Generated_Source\PSoC5/UART_READER.c ****     *  transmission.
1169:.\Generated_Source\PSoC5/UART_READER.c ****     *
1170:.\Generated_Source\PSoC5/UART_READER.c ****     * Parameters:
1171:.\Generated_Source\PSoC5/UART_READER.c ****     *  string[]: Address of the memory array residing in RAM or ROM.
1172:.\Generated_Source\PSoC5/UART_READER.c ****     *  byteCount: Number of bytes to be transmitted. The type depends on TX Buffer
ARM GAS  C:\Users\Yiquing\AppData\Local\Temp\ccJgHlWx.s 			page 38


1173:.\Generated_Source\PSoC5/UART_READER.c ****     *             Size parameter.
1174:.\Generated_Source\PSoC5/UART_READER.c ****     *
1175:.\Generated_Source\PSoC5/UART_READER.c ****     * Return:
1176:.\Generated_Source\PSoC5/UART_READER.c ****     *  None.
1177:.\Generated_Source\PSoC5/UART_READER.c ****     *
1178:.\Generated_Source\PSoC5/UART_READER.c ****     * Global Variables:
1179:.\Generated_Source\PSoC5/UART_READER.c ****     *  UART_READER_initVar - checked to identify that the component has been
1180:.\Generated_Source\PSoC5/UART_READER.c ****     *     initialized.
1181:.\Generated_Source\PSoC5/UART_READER.c ****     *
1182:.\Generated_Source\PSoC5/UART_READER.c ****     * Reentrant:
1183:.\Generated_Source\PSoC5/UART_READER.c ****     *  No.
1184:.\Generated_Source\PSoC5/UART_READER.c ****     *
1185:.\Generated_Source\PSoC5/UART_READER.c ****     * Theory:
1186:.\Generated_Source\PSoC5/UART_READER.c ****     *  If there is not enough memory in the TX buffer for the entire string, this
1187:.\Generated_Source\PSoC5/UART_READER.c ****     *  function blocks until the last character of the string is loaded into the
1188:.\Generated_Source\PSoC5/UART_READER.c ****     *  TX buffer.
1189:.\Generated_Source\PSoC5/UART_READER.c ****     *
1190:.\Generated_Source\PSoC5/UART_READER.c ****     *******************************************************************************/
1191:.\Generated_Source\PSoC5/UART_READER.c ****     void UART_READER_PutArray(const uint8 string[], uint8 byteCount)
1192:.\Generated_Source\PSoC5/UART_READER.c ****                                                                     
1193:.\Generated_Source\PSoC5/UART_READER.c ****     {
 918              		.loc 1 1193 0
 919              		.cfi_startproc
 920              		@ args = 0, pretend = 0, frame = 0
 921              		@ frame_needed = 0, uses_anonymous_args = 0
 922              	.LVL52:
 923 0000 70B5     		push	{r4, r5, r6, lr}
 924              		.cfi_def_cfa_offset 16
 925              		.cfi_offset 4, -16
 926              		.cfi_offset 5, -12
 927              		.cfi_offset 6, -8
 928              		.cfi_offset 14, -4
1194:.\Generated_Source\PSoC5/UART_READER.c ****         uint8 bufIndex = 0u;
1195:.\Generated_Source\PSoC5/UART_READER.c **** 
1196:.\Generated_Source\PSoC5/UART_READER.c ****         /* If not Initialized then skip this function */
1197:.\Generated_Source\PSoC5/UART_READER.c ****         if(UART_READER_initVar != 0u)
 929              		.loc 1 1197 0
 930 0002 074B     		ldr	r3, .L107
1193:.\Generated_Source\PSoC5/UART_READER.c ****     {
 931              		.loc 1 1193 0
 932 0004 0546     		mov	r5, r0
 933              		.loc 1 1197 0
 934 0006 5B78     		ldrb	r3, [r3, #1]	@ zero_extendqisi2
1193:.\Generated_Source\PSoC5/UART_READER.c ****     {
 935              		.loc 1 1193 0
 936 0008 0E46     		mov	r6, r1
 937              		.loc 1 1197 0
 938 000a 43B1     		cbz	r3, .L102
 939 000c 0024     		movs	r4, #0
 940              	.LVL53:
 941              	.L104:
1198:.\Generated_Source\PSoC5/UART_READER.c ****         {
1199:.\Generated_Source\PSoC5/UART_READER.c ****             while(bufIndex < byteCount)
 942              		.loc 1 1199 0 discriminator 1
 943 000e E3B2     		uxtb	r3, r4
 944 0010 B342     		cmp	r3, r6
 945 0012 04D2     		bcs	.L102
ARM GAS  C:\Users\Yiquing\AppData\Local\Temp\ccJgHlWx.s 			page 39


1200:.\Generated_Source\PSoC5/UART_READER.c ****             {
1201:.\Generated_Source\PSoC5/UART_READER.c ****                 UART_READER_PutChar(string[bufIndex]);
 946              		.loc 1 1201 0
 947 0014 285D     		ldrb	r0, [r5, r4]	@ zero_extendqisi2
 948 0016 FFF7FEFF 		bl	UART_READER_PutChar
 949              	.LVL54:
 950 001a 0134     		adds	r4, r4, #1
 951              	.LVL55:
 952 001c F7E7     		b	.L104
 953              	.LVL56:
 954              	.L102:
 955 001e 70BD     		pop	{r4, r5, r6, pc}
 956              	.LVL57:
 957              	.L108:
 958              		.align	2
 959              	.L107:
 960 0020 00000000 		.word	.LANCHOR0
 961              		.cfi_endproc
 962              	.LFE21:
 963              		.size	UART_READER_PutArray, .-UART_READER_PutArray
 964              		.section	.text.UART_READER_PutCRLF,"ax",%progbits
 965              		.align	1
 966              		.global	UART_READER_PutCRLF
 967              		.thumb
 968              		.thumb_func
 969              		.type	UART_READER_PutCRLF, %function
 970              	UART_READER_PutCRLF:
 971              	.LFB22:
1202:.\Generated_Source\PSoC5/UART_READER.c ****                 bufIndex++;
1203:.\Generated_Source\PSoC5/UART_READER.c ****             }
1204:.\Generated_Source\PSoC5/UART_READER.c ****         }
1205:.\Generated_Source\PSoC5/UART_READER.c ****     }
1206:.\Generated_Source\PSoC5/UART_READER.c **** 
1207:.\Generated_Source\PSoC5/UART_READER.c **** 
1208:.\Generated_Source\PSoC5/UART_READER.c ****     /*******************************************************************************
1209:.\Generated_Source\PSoC5/UART_READER.c ****     * Function Name: UART_READER_PutCRLF
1210:.\Generated_Source\PSoC5/UART_READER.c ****     ********************************************************************************
1211:.\Generated_Source\PSoC5/UART_READER.c ****     *
1212:.\Generated_Source\PSoC5/UART_READER.c ****     * Summary:
1213:.\Generated_Source\PSoC5/UART_READER.c ****     *  Writes a byte of data followed by a carriage return (0x0D) and line feed
1214:.\Generated_Source\PSoC5/UART_READER.c ****     *  (0x0A) to the transmit buffer.
1215:.\Generated_Source\PSoC5/UART_READER.c ****     *
1216:.\Generated_Source\PSoC5/UART_READER.c ****     * Parameters:
1217:.\Generated_Source\PSoC5/UART_READER.c ****     *  txDataByte: Data byte to transmit before the carriage return and line feed.
1218:.\Generated_Source\PSoC5/UART_READER.c ****     *
1219:.\Generated_Source\PSoC5/UART_READER.c ****     * Return:
1220:.\Generated_Source\PSoC5/UART_READER.c ****     *  None.
1221:.\Generated_Source\PSoC5/UART_READER.c ****     *
1222:.\Generated_Source\PSoC5/UART_READER.c ****     * Global Variables:
1223:.\Generated_Source\PSoC5/UART_READER.c ****     *  UART_READER_initVar - checked to identify that the component has been
1224:.\Generated_Source\PSoC5/UART_READER.c ****     *     initialized.
1225:.\Generated_Source\PSoC5/UART_READER.c ****     *
1226:.\Generated_Source\PSoC5/UART_READER.c ****     * Reentrant:
1227:.\Generated_Source\PSoC5/UART_READER.c ****     *  No.
1228:.\Generated_Source\PSoC5/UART_READER.c ****     *
1229:.\Generated_Source\PSoC5/UART_READER.c ****     *******************************************************************************/
1230:.\Generated_Source\PSoC5/UART_READER.c ****     void UART_READER_PutCRLF(uint8 txDataByte) 
ARM GAS  C:\Users\Yiquing\AppData\Local\Temp\ccJgHlWx.s 			page 40


1231:.\Generated_Source\PSoC5/UART_READER.c ****     {
 972              		.loc 1 1231 0
 973              		.cfi_startproc
 974              		@ args = 0, pretend = 0, frame = 0
 975              		@ frame_needed = 0, uses_anonymous_args = 0
 976              	.LVL58:
 977 0000 08B5     		push	{r3, lr}
 978              		.cfi_def_cfa_offset 8
 979              		.cfi_offset 3, -8
 980              		.cfi_offset 14, -4
1232:.\Generated_Source\PSoC5/UART_READER.c ****         /* If not Initialized then skip this function */
1233:.\Generated_Source\PSoC5/UART_READER.c ****         if(UART_READER_initVar != 0u)
 981              		.loc 1 1233 0
 982 0002 074B     		ldr	r3, .L111
 983 0004 5B78     		ldrb	r3, [r3, #1]	@ zero_extendqisi2
 984 0006 4BB1     		cbz	r3, .L109
1234:.\Generated_Source\PSoC5/UART_READER.c ****         {
1235:.\Generated_Source\PSoC5/UART_READER.c ****             UART_READER_PutChar(txDataByte);
 985              		.loc 1 1235 0
 986 0008 FFF7FEFF 		bl	UART_READER_PutChar
 987              	.LVL59:
1236:.\Generated_Source\PSoC5/UART_READER.c ****             UART_READER_PutChar(0x0Du);
 988              		.loc 1 1236 0
 989 000c 0D20     		movs	r0, #13
 990 000e FFF7FEFF 		bl	UART_READER_PutChar
 991              	.LVL60:
1237:.\Generated_Source\PSoC5/UART_READER.c ****             UART_READER_PutChar(0x0Au);
1238:.\Generated_Source\PSoC5/UART_READER.c ****         }
1239:.\Generated_Source\PSoC5/UART_READER.c ****     }
 992              		.loc 1 1239 0
 993 0012 BDE80840 		pop	{r3, lr}
1237:.\Generated_Source\PSoC5/UART_READER.c ****             UART_READER_PutChar(0x0Au);
 994              		.loc 1 1237 0
 995 0016 0A20     		movs	r0, #10
 996 0018 FFF7FEBF 		b	UART_READER_PutChar
 997              	.LVL61:
 998              	.L109:
 999 001c 08BD     		pop	{r3, pc}
 1000              	.L112:
 1001 001e 00BF     		.align	2
 1002              	.L111:
 1003 0020 00000000 		.word	.LANCHOR0
 1004              		.cfi_endproc
 1005              	.LFE22:
 1006              		.size	UART_READER_PutCRLF, .-UART_READER_PutCRLF
 1007              		.section	.text.UART_READER_GetTxBufferSize,"ax",%progbits
 1008              		.align	1
 1009              		.global	UART_READER_GetTxBufferSize
 1010              		.thumb
 1011              		.thumb_func
 1012              		.type	UART_READER_GetTxBufferSize, %function
 1013              	UART_READER_GetTxBufferSize:
 1014              	.LFB23:
1240:.\Generated_Source\PSoC5/UART_READER.c **** 
1241:.\Generated_Source\PSoC5/UART_READER.c **** 
1242:.\Generated_Source\PSoC5/UART_READER.c ****     /*******************************************************************************
1243:.\Generated_Source\PSoC5/UART_READER.c ****     * Function Name: UART_READER_GetTxBufferSize
ARM GAS  C:\Users\Yiquing\AppData\Local\Temp\ccJgHlWx.s 			page 41


1244:.\Generated_Source\PSoC5/UART_READER.c ****     ********************************************************************************
1245:.\Generated_Source\PSoC5/UART_READER.c ****     *
1246:.\Generated_Source\PSoC5/UART_READER.c ****     * Summary:
1247:.\Generated_Source\PSoC5/UART_READER.c ****     *  Returns the number of bytes in the TX buffer which are waiting to be 
1248:.\Generated_Source\PSoC5/UART_READER.c ****     *  transmitted.
1249:.\Generated_Source\PSoC5/UART_READER.c ****     *  * TX software buffer is disabled (TX Buffer Size parameter is equal to 4): 
1250:.\Generated_Source\PSoC5/UART_READER.c ****     *    returns 0 for empty TX FIFO, 1 for not full TX FIFO or 4 for full TX FIFO.
1251:.\Generated_Source\PSoC5/UART_READER.c ****     *  * TX software buffer is enabled: returns the number of bytes in the TX 
1252:.\Generated_Source\PSoC5/UART_READER.c ****     *    software buffer which are waiting to be transmitted. Bytes available in the
1253:.\Generated_Source\PSoC5/UART_READER.c ****     *    TX FIFO do not count.
1254:.\Generated_Source\PSoC5/UART_READER.c ****     *
1255:.\Generated_Source\PSoC5/UART_READER.c ****     * Parameters:
1256:.\Generated_Source\PSoC5/UART_READER.c ****     *  None.
1257:.\Generated_Source\PSoC5/UART_READER.c ****     *
1258:.\Generated_Source\PSoC5/UART_READER.c ****     * Return:
1259:.\Generated_Source\PSoC5/UART_READER.c ****     *  Number of bytes used in the TX buffer. Return value type depends on the TX 
1260:.\Generated_Source\PSoC5/UART_READER.c ****     *  Buffer Size parameter.
1261:.\Generated_Source\PSoC5/UART_READER.c ****     *
1262:.\Generated_Source\PSoC5/UART_READER.c ****     * Global Variables:
1263:.\Generated_Source\PSoC5/UART_READER.c ****     *  UART_READER_txBufferWrite - used to calculate left space.
1264:.\Generated_Source\PSoC5/UART_READER.c ****     *  UART_READER_txBufferRead - used to calculate left space.
1265:.\Generated_Source\PSoC5/UART_READER.c ****     *
1266:.\Generated_Source\PSoC5/UART_READER.c ****     * Reentrant:
1267:.\Generated_Source\PSoC5/UART_READER.c ****     *  No.
1268:.\Generated_Source\PSoC5/UART_READER.c ****     *
1269:.\Generated_Source\PSoC5/UART_READER.c ****     * Theory:
1270:.\Generated_Source\PSoC5/UART_READER.c ****     *  Allows the user to find out how full the TX Buffer is.
1271:.\Generated_Source\PSoC5/UART_READER.c ****     *
1272:.\Generated_Source\PSoC5/UART_READER.c ****     *******************************************************************************/
1273:.\Generated_Source\PSoC5/UART_READER.c ****     uint8 UART_READER_GetTxBufferSize(void)
1274:.\Generated_Source\PSoC5/UART_READER.c ****                                                             
1275:.\Generated_Source\PSoC5/UART_READER.c ****     {
 1015              		.loc 1 1275 0
 1016              		.cfi_startproc
 1017              		@ args = 0, pretend = 0, frame = 0
 1018              		@ frame_needed = 0, uses_anonymous_args = 0
 1019              		@ link register save eliminated.
1276:.\Generated_Source\PSoC5/UART_READER.c ****         uint8 size;
1277:.\Generated_Source\PSoC5/UART_READER.c **** 
1278:.\Generated_Source\PSoC5/UART_READER.c ****     #if (UART_READER_TX_INTERRUPT_ENABLED)
1279:.\Generated_Source\PSoC5/UART_READER.c **** 
1280:.\Generated_Source\PSoC5/UART_READER.c ****         /* Protect variables that could change on interrupt. */
1281:.\Generated_Source\PSoC5/UART_READER.c ****         UART_READER_DisableTxInt();
1282:.\Generated_Source\PSoC5/UART_READER.c **** 
1283:.\Generated_Source\PSoC5/UART_READER.c ****         if(UART_READER_txBufferRead == UART_READER_txBufferWrite)
1284:.\Generated_Source\PSoC5/UART_READER.c ****         {
1285:.\Generated_Source\PSoC5/UART_READER.c ****             size = 0u;
1286:.\Generated_Source\PSoC5/UART_READER.c ****         }
1287:.\Generated_Source\PSoC5/UART_READER.c ****         else if(UART_READER_txBufferRead < UART_READER_txBufferWrite)
1288:.\Generated_Source\PSoC5/UART_READER.c ****         {
1289:.\Generated_Source\PSoC5/UART_READER.c ****             size = (UART_READER_txBufferWrite - UART_READER_txBufferRead);
1290:.\Generated_Source\PSoC5/UART_READER.c ****         }
1291:.\Generated_Source\PSoC5/UART_READER.c ****         else
1292:.\Generated_Source\PSoC5/UART_READER.c ****         {
1293:.\Generated_Source\PSoC5/UART_READER.c ****             size = (UART_READER_TX_BUFFER_SIZE - UART_READER_txBufferRead) +
1294:.\Generated_Source\PSoC5/UART_READER.c ****                     UART_READER_txBufferWrite;
1295:.\Generated_Source\PSoC5/UART_READER.c ****         }
ARM GAS  C:\Users\Yiquing\AppData\Local\Temp\ccJgHlWx.s 			page 42


1296:.\Generated_Source\PSoC5/UART_READER.c **** 
1297:.\Generated_Source\PSoC5/UART_READER.c ****         UART_READER_EnableTxInt();
1298:.\Generated_Source\PSoC5/UART_READER.c **** 
1299:.\Generated_Source\PSoC5/UART_READER.c ****     #else
1300:.\Generated_Source\PSoC5/UART_READER.c **** 
1301:.\Generated_Source\PSoC5/UART_READER.c ****         size = UART_READER_TXSTATUS_REG;
 1020              		.loc 1 1301 0
 1021 0000 054B     		ldr	r3, .L116
 1022 0002 1878     		ldrb	r0, [r3]	@ zero_extendqisi2
 1023 0004 C0B2     		uxtb	r0, r0
 1024              	.LVL62:
1302:.\Generated_Source\PSoC5/UART_READER.c **** 
1303:.\Generated_Source\PSoC5/UART_READER.c ****         /* Is the fifo is full. */
1304:.\Generated_Source\PSoC5/UART_READER.c ****         if((size & UART_READER_TX_STS_FIFO_FULL) != 0u)
 1025              		.loc 1 1304 0
 1026 0006 8306     		lsls	r3, r0, #26
1305:.\Generated_Source\PSoC5/UART_READER.c ****         {
1306:.\Generated_Source\PSoC5/UART_READER.c ****             size = UART_READER_FIFO_LENGTH;
1307:.\Generated_Source\PSoC5/UART_READER.c ****         }
1308:.\Generated_Source\PSoC5/UART_READER.c ****         else if((size & UART_READER_TX_STS_FIFO_EMPTY) != 0u)
 1027              		.loc 1 1308 0
 1028 0008 5ABF     		itte	pl
 1029 000a 80F00200 		eorpl	r0, r0, #2
 1030              	.LVL63:
 1031 000e C0F34000 		ubfxpl	r0, r0, #1, #1
1306:.\Generated_Source\PSoC5/UART_READER.c ****             size = UART_READER_FIFO_LENGTH;
 1032              		.loc 1 1306 0
 1033 0012 0420     		movmi	r0, #4
 1034              	.LVL64:
1309:.\Generated_Source\PSoC5/UART_READER.c ****         {
1310:.\Generated_Source\PSoC5/UART_READER.c ****             size = 0u;
1311:.\Generated_Source\PSoC5/UART_READER.c ****         }
1312:.\Generated_Source\PSoC5/UART_READER.c ****         else
1313:.\Generated_Source\PSoC5/UART_READER.c ****         {
1314:.\Generated_Source\PSoC5/UART_READER.c ****             /* We only know there is data in the fifo. */
1315:.\Generated_Source\PSoC5/UART_READER.c ****             size = 1u;
1316:.\Generated_Source\PSoC5/UART_READER.c ****         }
1317:.\Generated_Source\PSoC5/UART_READER.c **** 
1318:.\Generated_Source\PSoC5/UART_READER.c ****     #endif /* (UART_READER_TX_INTERRUPT_ENABLED) */
1319:.\Generated_Source\PSoC5/UART_READER.c **** 
1320:.\Generated_Source\PSoC5/UART_READER.c ****     return(size);
1321:.\Generated_Source\PSoC5/UART_READER.c ****     }
 1035              		.loc 1 1321 0
 1036 0014 7047     		bx	lr
 1037              	.L117:
 1038 0016 00BF     		.align	2
 1039              	.L116:
 1040 0018 67640040 		.word	1073767527
 1041              		.cfi_endproc
 1042              	.LFE23:
 1043              		.size	UART_READER_GetTxBufferSize, .-UART_READER_GetTxBufferSize
 1044              		.section	.text.UART_READER_ClearTxBuffer,"ax",%progbits
 1045              		.align	1
 1046              		.global	UART_READER_ClearTxBuffer
 1047              		.thumb
 1048              		.thumb_func
 1049              		.type	UART_READER_ClearTxBuffer, %function
ARM GAS  C:\Users\Yiquing\AppData\Local\Temp\ccJgHlWx.s 			page 43


 1050              	UART_READER_ClearTxBuffer:
 1051              	.LFB24:
1322:.\Generated_Source\PSoC5/UART_READER.c **** 
1323:.\Generated_Source\PSoC5/UART_READER.c **** 
1324:.\Generated_Source\PSoC5/UART_READER.c ****     /*******************************************************************************
1325:.\Generated_Source\PSoC5/UART_READER.c ****     * Function Name: UART_READER_ClearTxBuffer
1326:.\Generated_Source\PSoC5/UART_READER.c ****     ********************************************************************************
1327:.\Generated_Source\PSoC5/UART_READER.c ****     *
1328:.\Generated_Source\PSoC5/UART_READER.c ****     * Summary:
1329:.\Generated_Source\PSoC5/UART_READER.c ****     *  Clears all data from the TX buffer and hardware TX FIFO.
1330:.\Generated_Source\PSoC5/UART_READER.c ****     *
1331:.\Generated_Source\PSoC5/UART_READER.c ****     * Parameters:
1332:.\Generated_Source\PSoC5/UART_READER.c ****     *  None.
1333:.\Generated_Source\PSoC5/UART_READER.c ****     *
1334:.\Generated_Source\PSoC5/UART_READER.c ****     * Return:
1335:.\Generated_Source\PSoC5/UART_READER.c ****     *  None.
1336:.\Generated_Source\PSoC5/UART_READER.c ****     *
1337:.\Generated_Source\PSoC5/UART_READER.c ****     * Global Variables:
1338:.\Generated_Source\PSoC5/UART_READER.c ****     *  UART_READER_txBufferWrite - cleared to zero.
1339:.\Generated_Source\PSoC5/UART_READER.c ****     *  UART_READER_txBufferRead - cleared to zero.
1340:.\Generated_Source\PSoC5/UART_READER.c ****     *
1341:.\Generated_Source\PSoC5/UART_READER.c ****     * Reentrant:
1342:.\Generated_Source\PSoC5/UART_READER.c ****     *  No.
1343:.\Generated_Source\PSoC5/UART_READER.c ****     *
1344:.\Generated_Source\PSoC5/UART_READER.c ****     * Theory:
1345:.\Generated_Source\PSoC5/UART_READER.c ****     *  Setting the pointers to zero makes the system believe there is no data to
1346:.\Generated_Source\PSoC5/UART_READER.c ****     *  read and writing will resume at address 0 overwriting any data that may have
1347:.\Generated_Source\PSoC5/UART_READER.c ****     *  remained in the RAM.
1348:.\Generated_Source\PSoC5/UART_READER.c ****     *
1349:.\Generated_Source\PSoC5/UART_READER.c ****     * Side Effects:
1350:.\Generated_Source\PSoC5/UART_READER.c ****     *  Data waiting in the transmit buffer is not sent; a byte that is currently
1351:.\Generated_Source\PSoC5/UART_READER.c ****     *  transmitting finishes transmitting.
1352:.\Generated_Source\PSoC5/UART_READER.c ****     *
1353:.\Generated_Source\PSoC5/UART_READER.c ****     *******************************************************************************/
1354:.\Generated_Source\PSoC5/UART_READER.c ****     void UART_READER_ClearTxBuffer(void) 
1355:.\Generated_Source\PSoC5/UART_READER.c ****     {
 1052              		.loc 1 1355 0
 1053              		.cfi_startproc
 1054              		@ args = 0, pretend = 0, frame = 0
 1055              		@ frame_needed = 0, uses_anonymous_args = 0
 1056 0000 08B5     		push	{r3, lr}
 1057              		.cfi_def_cfa_offset 8
 1058              		.cfi_offset 3, -8
 1059              		.cfi_offset 14, -4
1356:.\Generated_Source\PSoC5/UART_READER.c ****         uint8 enableInterrupts;
1357:.\Generated_Source\PSoC5/UART_READER.c **** 
1358:.\Generated_Source\PSoC5/UART_READER.c ****         enableInterrupts = CyEnterCriticalSection();
 1060              		.loc 1 1358 0
 1061 0002 FFF7FEFF 		bl	CyEnterCriticalSection
 1062              	.LVL65:
1359:.\Generated_Source\PSoC5/UART_READER.c ****         /* Clear the HW FIFO */
1360:.\Generated_Source\PSoC5/UART_READER.c ****         UART_READER_TXDATA_AUX_CTL_REG |= (uint8)  UART_READER_TX_FIFO_CLR;
 1063              		.loc 1 1360 0
 1064 0006 064B     		ldr	r3, .L119
 1065 0008 1A78     		ldrb	r2, [r3]	@ zero_extendqisi2
 1066 000a 42F00202 		orr	r2, r2, #2
 1067 000e 1A70     		strb	r2, [r3]
ARM GAS  C:\Users\Yiquing\AppData\Local\Temp\ccJgHlWx.s 			page 44


1361:.\Generated_Source\PSoC5/UART_READER.c ****         UART_READER_TXDATA_AUX_CTL_REG &= (uint8) ~UART_READER_TX_FIFO_CLR;
 1068              		.loc 1 1361 0
 1069 0010 1A78     		ldrb	r2, [r3]	@ zero_extendqisi2
 1070 0012 02F0FD02 		and	r2, r2, #253
 1071 0016 1A70     		strb	r2, [r3]
1362:.\Generated_Source\PSoC5/UART_READER.c ****         CyExitCriticalSection(enableInterrupts);
1363:.\Generated_Source\PSoC5/UART_READER.c **** 
1364:.\Generated_Source\PSoC5/UART_READER.c ****     #if (UART_READER_TX_INTERRUPT_ENABLED)
1365:.\Generated_Source\PSoC5/UART_READER.c **** 
1366:.\Generated_Source\PSoC5/UART_READER.c ****         /* Protect variables that could change on interrupt. */
1367:.\Generated_Source\PSoC5/UART_READER.c ****         UART_READER_DisableTxInt();
1368:.\Generated_Source\PSoC5/UART_READER.c **** 
1369:.\Generated_Source\PSoC5/UART_READER.c ****         UART_READER_txBufferRead = 0u;
1370:.\Generated_Source\PSoC5/UART_READER.c ****         UART_READER_txBufferWrite = 0u;
1371:.\Generated_Source\PSoC5/UART_READER.c **** 
1372:.\Generated_Source\PSoC5/UART_READER.c ****         /* Enable Tx interrupt. */
1373:.\Generated_Source\PSoC5/UART_READER.c ****         UART_READER_EnableTxInt();
1374:.\Generated_Source\PSoC5/UART_READER.c **** 
1375:.\Generated_Source\PSoC5/UART_READER.c ****     #endif /* (UART_READER_TX_INTERRUPT_ENABLED) */
1376:.\Generated_Source\PSoC5/UART_READER.c ****     }
 1072              		.loc 1 1376 0
 1073 0018 BDE80840 		pop	{r3, lr}
1362:.\Generated_Source\PSoC5/UART_READER.c ****         CyExitCriticalSection(enableInterrupts);
 1074              		.loc 1 1362 0
 1075 001c FFF7FEBF 		b	CyExitCriticalSection
 1076              	.LVL66:
 1077              	.L120:
 1078              		.align	2
 1079              	.L119:
 1080 0020 97640040 		.word	1073767575
 1081              		.cfi_endproc
 1082              	.LFE24:
 1083              		.size	UART_READER_ClearTxBuffer, .-UART_READER_ClearTxBuffer
 1084              		.section	.text.UART_READER_SendBreak,"ax",%progbits
 1085              		.align	1
 1086              		.global	UART_READER_SendBreak
 1087              		.thumb
 1088              		.thumb_func
 1089              		.type	UART_READER_SendBreak, %function
 1090              	UART_READER_SendBreak:
 1091              	.LFB25:
1377:.\Generated_Source\PSoC5/UART_READER.c **** 
1378:.\Generated_Source\PSoC5/UART_READER.c **** 
1379:.\Generated_Source\PSoC5/UART_READER.c ****     /*******************************************************************************
1380:.\Generated_Source\PSoC5/UART_READER.c ****     * Function Name: UART_READER_SendBreak
1381:.\Generated_Source\PSoC5/UART_READER.c ****     ********************************************************************************
1382:.\Generated_Source\PSoC5/UART_READER.c ****     *
1383:.\Generated_Source\PSoC5/UART_READER.c ****     * Summary:
1384:.\Generated_Source\PSoC5/UART_READER.c ****     *  Transmits a break signal on the bus.
1385:.\Generated_Source\PSoC5/UART_READER.c ****     *
1386:.\Generated_Source\PSoC5/UART_READER.c ****     * Parameters:
1387:.\Generated_Source\PSoC5/UART_READER.c ****     *  uint8 retMode:  Send Break return mode. See the following table for options.
1388:.\Generated_Source\PSoC5/UART_READER.c ****     *   UART_READER_SEND_BREAK - Initialize registers for break, send the Break
1389:.\Generated_Source\PSoC5/UART_READER.c ****     *       signal and return immediately.
1390:.\Generated_Source\PSoC5/UART_READER.c ****     *   UART_READER_WAIT_FOR_COMPLETE_REINIT - Wait until break transmission is
1391:.\Generated_Source\PSoC5/UART_READER.c ****     *       complete, reinitialize registers to normal transmission mode then return
1392:.\Generated_Source\PSoC5/UART_READER.c ****     *   UART_READER_REINIT - Reinitialize registers to normal transmission mode
ARM GAS  C:\Users\Yiquing\AppData\Local\Temp\ccJgHlWx.s 			page 45


1393:.\Generated_Source\PSoC5/UART_READER.c ****     *       then return.
1394:.\Generated_Source\PSoC5/UART_READER.c ****     *   UART_READER_SEND_WAIT_REINIT - Performs both options: 
1395:.\Generated_Source\PSoC5/UART_READER.c ****     *      UART_READER_SEND_BREAK and UART_READER_WAIT_FOR_COMPLETE_REINIT.
1396:.\Generated_Source\PSoC5/UART_READER.c ****     *      This option is recommended for most cases.
1397:.\Generated_Source\PSoC5/UART_READER.c ****     *
1398:.\Generated_Source\PSoC5/UART_READER.c ****     * Return:
1399:.\Generated_Source\PSoC5/UART_READER.c ****     *  None.
1400:.\Generated_Source\PSoC5/UART_READER.c ****     *
1401:.\Generated_Source\PSoC5/UART_READER.c ****     * Global Variables:
1402:.\Generated_Source\PSoC5/UART_READER.c ****     *  UART_READER_initVar - checked to identify that the component has been
1403:.\Generated_Source\PSoC5/UART_READER.c ****     *     initialized.
1404:.\Generated_Source\PSoC5/UART_READER.c ****     *  txPeriod - static variable, used for keeping TX period configuration.
1405:.\Generated_Source\PSoC5/UART_READER.c ****     *
1406:.\Generated_Source\PSoC5/UART_READER.c ****     * Reentrant:
1407:.\Generated_Source\PSoC5/UART_READER.c ****     *  No.
1408:.\Generated_Source\PSoC5/UART_READER.c ****     *
1409:.\Generated_Source\PSoC5/UART_READER.c ****     * Theory:
1410:.\Generated_Source\PSoC5/UART_READER.c ****     *  SendBreak function initializes registers to send 13-bit break signal. It is
1411:.\Generated_Source\PSoC5/UART_READER.c ****     *  important to return the registers configuration to normal for continue 8-bit
1412:.\Generated_Source\PSoC5/UART_READER.c ****     *  operation.
1413:.\Generated_Source\PSoC5/UART_READER.c ****     *  There are 3 variants for this API usage:
1414:.\Generated_Source\PSoC5/UART_READER.c ****     *  1) SendBreak(3) - function will send the Break signal and take care on the
1415:.\Generated_Source\PSoC5/UART_READER.c ****     *     configuration returning. Function will block CPU until transmission
1416:.\Generated_Source\PSoC5/UART_READER.c ****     *     complete.
1417:.\Generated_Source\PSoC5/UART_READER.c ****     *  2) User may want to use blocking time if UART configured to the low speed
1418:.\Generated_Source\PSoC5/UART_READER.c ****     *     operation
1419:.\Generated_Source\PSoC5/UART_READER.c ****     *     Example for this case:
1420:.\Generated_Source\PSoC5/UART_READER.c ****     *     SendBreak(0);     - initialize Break signal transmission
1421:.\Generated_Source\PSoC5/UART_READER.c ****     *         Add your code here to use CPU time
1422:.\Generated_Source\PSoC5/UART_READER.c ****     *     SendBreak(1);     - complete Break operation
1423:.\Generated_Source\PSoC5/UART_READER.c ****     *  3) Same to 2) but user may want to initialize and use the interrupt to
1424:.\Generated_Source\PSoC5/UART_READER.c ****     *     complete break operation.
1425:.\Generated_Source\PSoC5/UART_READER.c ****     *     Example for this case:
1426:.\Generated_Source\PSoC5/UART_READER.c ****     *     Initialize TX interrupt with "TX - On TX Complete" parameter
1427:.\Generated_Source\PSoC5/UART_READER.c ****     *     SendBreak(0);     - initialize Break signal transmission
1428:.\Generated_Source\PSoC5/UART_READER.c ****     *         Add your code here to use CPU time
1429:.\Generated_Source\PSoC5/UART_READER.c ****     *     When interrupt appear with UART_READER_TX_STS_COMPLETE status:
1430:.\Generated_Source\PSoC5/UART_READER.c ****     *     SendBreak(2);     - complete Break operation
1431:.\Generated_Source\PSoC5/UART_READER.c ****     *
1432:.\Generated_Source\PSoC5/UART_READER.c ****     * Side Effects:
1433:.\Generated_Source\PSoC5/UART_READER.c ****     *  The UART_READER_SendBreak() function initializes registers to send a
1434:.\Generated_Source\PSoC5/UART_READER.c ****     *  break signal.
1435:.\Generated_Source\PSoC5/UART_READER.c ****     *  Break signal length depends on the break signal bits configuration.
1436:.\Generated_Source\PSoC5/UART_READER.c ****     *  The register configuration should be reinitialized before normal 8-bit
1437:.\Generated_Source\PSoC5/UART_READER.c ****     *  communication can continue.
1438:.\Generated_Source\PSoC5/UART_READER.c ****     *
1439:.\Generated_Source\PSoC5/UART_READER.c ****     *******************************************************************************/
1440:.\Generated_Source\PSoC5/UART_READER.c ****     void UART_READER_SendBreak(uint8 retMode) 
1441:.\Generated_Source\PSoC5/UART_READER.c ****     {
 1092              		.loc 1 1441 0
 1093              		.cfi_startproc
 1094              		@ args = 0, pretend = 0, frame = 0
 1095              		@ frame_needed = 0, uses_anonymous_args = 0
 1096              		@ link register save eliminated.
 1097              	.LVL67:
1442:.\Generated_Source\PSoC5/UART_READER.c **** 
1443:.\Generated_Source\PSoC5/UART_READER.c ****         /* If not Initialized then skip this function*/
ARM GAS  C:\Users\Yiquing\AppData\Local\Temp\ccJgHlWx.s 			page 46


1444:.\Generated_Source\PSoC5/UART_READER.c ****         if(UART_READER_initVar != 0u)
 1098              		.loc 1 1444 0
 1099 0000 144B     		ldr	r3, .L146
 1100 0002 5B78     		ldrb	r3, [r3, #1]	@ zero_extendqisi2
 1101 0004 2BB3     		cbz	r3, .L121
 1102              	.LBB31:
1445:.\Generated_Source\PSoC5/UART_READER.c ****         {
1446:.\Generated_Source\PSoC5/UART_READER.c ****             /* Set the Counter to 13-bits and transmit a 00 byte */
1447:.\Generated_Source\PSoC5/UART_READER.c ****             /* When that is done then reset the counter value back */
1448:.\Generated_Source\PSoC5/UART_READER.c ****             uint8 tmpStat;
1449:.\Generated_Source\PSoC5/UART_READER.c **** 
1450:.\Generated_Source\PSoC5/UART_READER.c ****         #if(UART_READER_HD_ENABLED) /* Half Duplex mode*/
1451:.\Generated_Source\PSoC5/UART_READER.c **** 
1452:.\Generated_Source\PSoC5/UART_READER.c ****             if( (retMode == UART_READER_SEND_BREAK) ||
 1103              		.loc 1 1452 0
 1104 0006 08B1     		cbz	r0, .L124
 1105              		.loc 1 1452 0 is_stmt 0 discriminator 1
 1106 0008 0328     		cmp	r0, #3
 1107 000a 20D1     		bne	.L125
 1108              	.L124:
 1109              	.LBB32:
 1110              	.LBB33:
 300:.\Generated_Source\PSoC5/UART_READER.c ****         return(UART_READER_CONTROL_REG);
 1111              		.loc 1 300 0 is_stmt 1
 1112 000c 124B     		ldr	r3, .L146+4
 1113              	.LBE33:
 1114              	.LBE32:
1453:.\Generated_Source\PSoC5/UART_READER.c ****                 (retMode == UART_READER_SEND_WAIT_REINIT ) )
1454:.\Generated_Source\PSoC5/UART_READER.c ****             {
1455:.\Generated_Source\PSoC5/UART_READER.c ****                 /* CTRL_HD_SEND_BREAK - sends break bits in HD mode */
1456:.\Generated_Source\PSoC5/UART_READER.c ****                 UART_READER_WriteControlRegister(UART_READER_ReadControlRegister() |
1457:.\Generated_Source\PSoC5/UART_READER.c ****                                                       UART_READER_CTRL_HD_SEND_BREAK);
1458:.\Generated_Source\PSoC5/UART_READER.c ****                 /* Send zeros */
1459:.\Generated_Source\PSoC5/UART_READER.c ****                 UART_READER_TXDATA_REG = 0u;
 1115              		.loc 1 1459 0
 1116 000e 6FF49071 		mvn	r1, #288
 1117              	.LBB35:
 1118              	.LBB34:
 300:.\Generated_Source\PSoC5/UART_READER.c ****         return(UART_READER_CONTROL_REG);
 1119              		.loc 1 300 0
 1120 0012 1A78     		ldrb	r2, [r3]	@ zero_extendqisi2
 1121              	.LBE34:
 1122              	.LBE35:
1456:.\Generated_Source\PSoC5/UART_READER.c ****                 UART_READER_WriteControlRegister(UART_READER_ReadControlRegister() |
 1123              		.loc 1 1456 0
 1124 0014 42F00202 		orr	r2, r2, #2
 1125              	.LVL68:
 1126              	.LBB36:
 1127              	.LBB37:
 327:.\Generated_Source\PSoC5/UART_READER.c ****        UART_READER_CONTROL_REG = control;
 1128              		.loc 1 327 0
 1129 0018 1A70     		strb	r2, [r3]
 1130              	.LBE37:
 1131              	.LBE36:
 1132              		.loc 1 1459 0
 1133 001a 0022     		movs	r2, #0
 1134              	.LVL69:
ARM GAS  C:\Users\Yiquing\AppData\Local\Temp\ccJgHlWx.s 			page 47


 1135 001c 0B44     		add	r3, r3, r1
 1136 001e 1A70     		strb	r2, [r3]
 1137              	.L127:
1460:.\Generated_Source\PSoC5/UART_READER.c **** 
1461:.\Generated_Source\PSoC5/UART_READER.c ****                 do /* Wait until transmit starts */
1462:.\Generated_Source\PSoC5/UART_READER.c ****                 {
1463:.\Generated_Source\PSoC5/UART_READER.c ****                     tmpStat = UART_READER_TXSTATUS_REG;
 1138              		.loc 1 1463 0 discriminator 1
 1139 0020 0E4B     		ldr	r3, .L146+8
 1140 0022 1B78     		ldrb	r3, [r3]	@ zero_extendqisi2
 1141              	.LVL70:
1464:.\Generated_Source\PSoC5/UART_READER.c ****                 }
1465:.\Generated_Source\PSoC5/UART_READER.c ****                 while((tmpStat & UART_READER_TX_STS_FIFO_EMPTY) != 0u);
 1142              		.loc 1 1465 0 discriminator 1
 1143 0024 9A07     		lsls	r2, r3, #30
 1144 0026 FBD4     		bmi	.L127
1466:.\Generated_Source\PSoC5/UART_READER.c ****             }
1467:.\Generated_Source\PSoC5/UART_READER.c **** 
1468:.\Generated_Source\PSoC5/UART_READER.c ****             if( (retMode == UART_READER_WAIT_FOR_COMPLETE_REINIT) ||
 1145              		.loc 1 1468 0
 1146 0028 00F0FD03 		and	r3, r0, #253
 1147              	.LVL71:
 1148 002c 012B     		cmp	r3, #1
 1149              	.L145:
 1150 002e 03D0     		beq	.L132
 1151              	.L131:
1469:.\Generated_Source\PSoC5/UART_READER.c ****                 (retMode == UART_READER_SEND_WAIT_REINIT) )
1470:.\Generated_Source\PSoC5/UART_READER.c ****             {
1471:.\Generated_Source\PSoC5/UART_READER.c ****                 do /* Wait until transmit complete */
1472:.\Generated_Source\PSoC5/UART_READER.c ****                 {
1473:.\Generated_Source\PSoC5/UART_READER.c ****                     tmpStat = UART_READER_TXSTATUS_REG;
1474:.\Generated_Source\PSoC5/UART_READER.c ****                 }
1475:.\Generated_Source\PSoC5/UART_READER.c ****                 while(((uint8)~tmpStat & UART_READER_TX_STS_COMPLETE) != 0u);
1476:.\Generated_Source\PSoC5/UART_READER.c ****             }
1477:.\Generated_Source\PSoC5/UART_READER.c **** 
1478:.\Generated_Source\PSoC5/UART_READER.c ****             if( (retMode == UART_READER_WAIT_FOR_COMPLETE_REINIT) ||
 1152              		.loc 1 1478 0
 1153 0030 0138     		subs	r0, r0, #1
 1154              	.LVL72:
 1155 0032 0228     		cmp	r0, #2
 1156 0034 05D9     		bls	.L129
 1157 0036 7047     		bx	lr
 1158              	.LVL73:
 1159              	.L132:
1473:.\Generated_Source\PSoC5/UART_READER.c ****                     tmpStat = UART_READER_TXSTATUS_REG;
 1160              		.loc 1 1473 0 discriminator 1
 1161 0038 084B     		ldr	r3, .L146+8
 1162 003a 1B78     		ldrb	r3, [r3]	@ zero_extendqisi2
 1163              	.LVL74:
1475:.\Generated_Source\PSoC5/UART_READER.c ****                 while(((uint8)~tmpStat & UART_READER_TX_STS_COMPLETE) != 0u);
 1164              		.loc 1 1475 0 discriminator 1
 1165 003c DB07     		lsls	r3, r3, #31
 1166              	.LVL75:
 1167 003e FBD5     		bpl	.L132
 1168 0040 F6E7     		b	.L131
 1169              	.LVL76:
 1170              	.L129:
ARM GAS  C:\Users\Yiquing\AppData\Local\Temp\ccJgHlWx.s 			page 48


 1171              	.LBB38:
 1172              	.LBB39:
 300:.\Generated_Source\PSoC5/UART_READER.c ****         return(UART_READER_CONTROL_REG);
 1173              		.loc 1 300 0
 1174 0042 054B     		ldr	r3, .L146+4
 1175 0044 1A78     		ldrb	r2, [r3]	@ zero_extendqisi2
 1176              	.LBE39:
 1177              	.LBE38:
1479:.\Generated_Source\PSoC5/UART_READER.c ****                 (retMode == UART_READER_REINIT) ||
1480:.\Generated_Source\PSoC5/UART_READER.c ****                 (retMode == UART_READER_SEND_WAIT_REINIT) )
1481:.\Generated_Source\PSoC5/UART_READER.c ****             {
1482:.\Generated_Source\PSoC5/UART_READER.c ****                 UART_READER_WriteControlRegister(UART_READER_ReadControlRegister() &
 1178              		.loc 1 1482 0
 1179 0046 02F0FD02 		and	r2, r2, #253
 1180              	.LVL77:
 1181              	.LBB40:
 1182              	.LBB41:
 327:.\Generated_Source\PSoC5/UART_READER.c ****        UART_READER_CONTROL_REG = control;
 1183              		.loc 1 327 0
 1184 004a 1A70     		strb	r2, [r3]
 1185 004c 7047     		bx	lr
 1186              	.LVL78:
 1187              	.L125:
 1188              	.LBE41:
 1189              	.LBE40:
1468:.\Generated_Source\PSoC5/UART_READER.c ****             if( (retMode == UART_READER_WAIT_FOR_COMPLETE_REINIT) ||
 1190              		.loc 1 1468 0
 1191 004e 0128     		cmp	r0, #1
 1192 0050 EDE7     		b	.L145
 1193              	.L121:
 1194 0052 7047     		bx	lr
 1195              	.L147:
 1196              		.align	2
 1197              	.L146:
 1198 0054 00000000 		.word	.LANCHOR0
 1199 0058 78650040 		.word	1073767800
 1200 005c 67640040 		.word	1073767527
 1201              	.LBE31:
 1202              		.cfi_endproc
 1203              	.LFE25:
 1204              		.size	UART_READER_SendBreak, .-UART_READER_SendBreak
 1205              		.section	.text.UART_READER_SetTxAddressMode,"ax",%progbits
 1206              		.align	1
 1207              		.global	UART_READER_SetTxAddressMode
 1208              		.thumb
 1209              		.thumb_func
 1210              		.type	UART_READER_SetTxAddressMode, %function
 1211              	UART_READER_SetTxAddressMode:
 1212              	.LFB26:
1483:.\Generated_Source\PSoC5/UART_READER.c ****                                               (uint8)~UART_READER_CTRL_HD_SEND_BREAK);
1484:.\Generated_Source\PSoC5/UART_READER.c ****             }
1485:.\Generated_Source\PSoC5/UART_READER.c **** 
1486:.\Generated_Source\PSoC5/UART_READER.c ****         #else /* UART_READER_HD_ENABLED Full Duplex mode */
1487:.\Generated_Source\PSoC5/UART_READER.c **** 
1488:.\Generated_Source\PSoC5/UART_READER.c ****             static uint8 txPeriod;
1489:.\Generated_Source\PSoC5/UART_READER.c **** 
1490:.\Generated_Source\PSoC5/UART_READER.c ****             if( (retMode == UART_READER_SEND_BREAK) ||
ARM GAS  C:\Users\Yiquing\AppData\Local\Temp\ccJgHlWx.s 			page 49


1491:.\Generated_Source\PSoC5/UART_READER.c ****                 (retMode == UART_READER_SEND_WAIT_REINIT) )
1492:.\Generated_Source\PSoC5/UART_READER.c ****             {
1493:.\Generated_Source\PSoC5/UART_READER.c ****                 /* CTRL_HD_SEND_BREAK - skip to send parity bit at Break signal in Full Duplex mode
1494:.\Generated_Source\PSoC5/UART_READER.c ****                 #if( (UART_READER_PARITY_TYPE != UART_READER__B_UART__NONE_REVB) || \
1495:.\Generated_Source\PSoC5/UART_READER.c ****                                     (UART_READER_PARITY_TYPE_SW != 0u) )
1496:.\Generated_Source\PSoC5/UART_READER.c ****                     UART_READER_WriteControlRegister(UART_READER_ReadControlRegister() |
1497:.\Generated_Source\PSoC5/UART_READER.c ****                                                           UART_READER_CTRL_HD_SEND_BREAK);
1498:.\Generated_Source\PSoC5/UART_READER.c ****                 #endif /* End UART_READER_PARITY_TYPE != UART_READER__B_UART__NONE_REVB  */
1499:.\Generated_Source\PSoC5/UART_READER.c **** 
1500:.\Generated_Source\PSoC5/UART_READER.c ****                 #if(UART_READER_TXCLKGEN_DP)
1501:.\Generated_Source\PSoC5/UART_READER.c ****                     txPeriod = UART_READER_TXBITCLKTX_COMPLETE_REG;
1502:.\Generated_Source\PSoC5/UART_READER.c ****                     UART_READER_TXBITCLKTX_COMPLETE_REG = UART_READER_TXBITCTR_BREAKBITS;
1503:.\Generated_Source\PSoC5/UART_READER.c ****                 #else
1504:.\Generated_Source\PSoC5/UART_READER.c ****                     txPeriod = UART_READER_TXBITCTR_PERIOD_REG;
1505:.\Generated_Source\PSoC5/UART_READER.c ****                     UART_READER_TXBITCTR_PERIOD_REG = UART_READER_TXBITCTR_BREAKBITS8X;
1506:.\Generated_Source\PSoC5/UART_READER.c ****                 #endif /* End UART_READER_TXCLKGEN_DP */
1507:.\Generated_Source\PSoC5/UART_READER.c **** 
1508:.\Generated_Source\PSoC5/UART_READER.c ****                 /* Send zeros */
1509:.\Generated_Source\PSoC5/UART_READER.c ****                 UART_READER_TXDATA_REG = 0u;
1510:.\Generated_Source\PSoC5/UART_READER.c **** 
1511:.\Generated_Source\PSoC5/UART_READER.c ****                 do /* Wait until transmit starts */
1512:.\Generated_Source\PSoC5/UART_READER.c ****                 {
1513:.\Generated_Source\PSoC5/UART_READER.c ****                     tmpStat = UART_READER_TXSTATUS_REG;
1514:.\Generated_Source\PSoC5/UART_READER.c ****                 }
1515:.\Generated_Source\PSoC5/UART_READER.c ****                 while((tmpStat & UART_READER_TX_STS_FIFO_EMPTY) != 0u);
1516:.\Generated_Source\PSoC5/UART_READER.c ****             }
1517:.\Generated_Source\PSoC5/UART_READER.c **** 
1518:.\Generated_Source\PSoC5/UART_READER.c ****             if( (retMode == UART_READER_WAIT_FOR_COMPLETE_REINIT) ||
1519:.\Generated_Source\PSoC5/UART_READER.c ****                 (retMode == UART_READER_SEND_WAIT_REINIT) )
1520:.\Generated_Source\PSoC5/UART_READER.c ****             {
1521:.\Generated_Source\PSoC5/UART_READER.c ****                 do /* Wait until transmit complete */
1522:.\Generated_Source\PSoC5/UART_READER.c ****                 {
1523:.\Generated_Source\PSoC5/UART_READER.c ****                     tmpStat = UART_READER_TXSTATUS_REG;
1524:.\Generated_Source\PSoC5/UART_READER.c ****                 }
1525:.\Generated_Source\PSoC5/UART_READER.c ****                 while(((uint8)~tmpStat & UART_READER_TX_STS_COMPLETE) != 0u);
1526:.\Generated_Source\PSoC5/UART_READER.c ****             }
1527:.\Generated_Source\PSoC5/UART_READER.c **** 
1528:.\Generated_Source\PSoC5/UART_READER.c ****             if( (retMode == UART_READER_WAIT_FOR_COMPLETE_REINIT) ||
1529:.\Generated_Source\PSoC5/UART_READER.c ****                 (retMode == UART_READER_REINIT) ||
1530:.\Generated_Source\PSoC5/UART_READER.c ****                 (retMode == UART_READER_SEND_WAIT_REINIT) )
1531:.\Generated_Source\PSoC5/UART_READER.c ****             {
1532:.\Generated_Source\PSoC5/UART_READER.c **** 
1533:.\Generated_Source\PSoC5/UART_READER.c ****             #if(UART_READER_TXCLKGEN_DP)
1534:.\Generated_Source\PSoC5/UART_READER.c ****                 UART_READER_TXBITCLKTX_COMPLETE_REG = txPeriod;
1535:.\Generated_Source\PSoC5/UART_READER.c ****             #else
1536:.\Generated_Source\PSoC5/UART_READER.c ****                 UART_READER_TXBITCTR_PERIOD_REG = txPeriod;
1537:.\Generated_Source\PSoC5/UART_READER.c ****             #endif /* End UART_READER_TXCLKGEN_DP */
1538:.\Generated_Source\PSoC5/UART_READER.c **** 
1539:.\Generated_Source\PSoC5/UART_READER.c ****             #if( (UART_READER_PARITY_TYPE != UART_READER__B_UART__NONE_REVB) || \
1540:.\Generated_Source\PSoC5/UART_READER.c ****                  (UART_READER_PARITY_TYPE_SW != 0u) )
1541:.\Generated_Source\PSoC5/UART_READER.c ****                 UART_READER_WriteControlRegister(UART_READER_ReadControlRegister() &
1542:.\Generated_Source\PSoC5/UART_READER.c ****                                                       (uint8) ~UART_READER_CTRL_HD_SEND_BREAK);
1543:.\Generated_Source\PSoC5/UART_READER.c ****             #endif /* End UART_READER_PARITY_TYPE != NONE */
1544:.\Generated_Source\PSoC5/UART_READER.c ****             }
1545:.\Generated_Source\PSoC5/UART_READER.c ****         #endif    /* End UART_READER_HD_ENABLED */
1546:.\Generated_Source\PSoC5/UART_READER.c ****         }
1547:.\Generated_Source\PSoC5/UART_READER.c ****     }
ARM GAS  C:\Users\Yiquing\AppData\Local\Temp\ccJgHlWx.s 			page 50


1548:.\Generated_Source\PSoC5/UART_READER.c **** 
1549:.\Generated_Source\PSoC5/UART_READER.c **** 
1550:.\Generated_Source\PSoC5/UART_READER.c ****     /*******************************************************************************
1551:.\Generated_Source\PSoC5/UART_READER.c ****     * Function Name: UART_READER_SetTxAddressMode
1552:.\Generated_Source\PSoC5/UART_READER.c ****     ********************************************************************************
1553:.\Generated_Source\PSoC5/UART_READER.c ****     *
1554:.\Generated_Source\PSoC5/UART_READER.c ****     * Summary:
1555:.\Generated_Source\PSoC5/UART_READER.c ****     *  Configures the transmitter to signal the next bytes is address or data.
1556:.\Generated_Source\PSoC5/UART_READER.c ****     *
1557:.\Generated_Source\PSoC5/UART_READER.c ****     * Parameters:
1558:.\Generated_Source\PSoC5/UART_READER.c ****     *  addressMode: 
1559:.\Generated_Source\PSoC5/UART_READER.c ****     *       UART_READER_SET_SPACE - Configure the transmitter to send the next
1560:.\Generated_Source\PSoC5/UART_READER.c ****     *                                    byte as a data.
1561:.\Generated_Source\PSoC5/UART_READER.c ****     *       UART_READER_SET_MARK  - Configure the transmitter to send the next
1562:.\Generated_Source\PSoC5/UART_READER.c ****     *                                    byte as an address.
1563:.\Generated_Source\PSoC5/UART_READER.c ****     *
1564:.\Generated_Source\PSoC5/UART_READER.c ****     * Return:
1565:.\Generated_Source\PSoC5/UART_READER.c ****     *  None.
1566:.\Generated_Source\PSoC5/UART_READER.c ****     *
1567:.\Generated_Source\PSoC5/UART_READER.c ****     * Side Effects:
1568:.\Generated_Source\PSoC5/UART_READER.c ****     *  This function sets and clears UART_READER_CTRL_MARK bit in the Control
1569:.\Generated_Source\PSoC5/UART_READER.c ****     *  register.
1570:.\Generated_Source\PSoC5/UART_READER.c ****     *
1571:.\Generated_Source\PSoC5/UART_READER.c ****     *******************************************************************************/
1572:.\Generated_Source\PSoC5/UART_READER.c ****     void UART_READER_SetTxAddressMode(uint8 addressMode) 
1573:.\Generated_Source\PSoC5/UART_READER.c ****     {
 1213              		.loc 1 1573 0
 1214              		.cfi_startproc
 1215              		@ args = 0, pretend = 0, frame = 0
 1216              		@ frame_needed = 0, uses_anonymous_args = 0
 1217              		@ link register save eliminated.
 1218              	.LVL79:
 1219 0000 044B     		ldr	r3, .L152
 1220              	.LBB42:
 1221              	.LBB43:
 300:.\Generated_Source\PSoC5/UART_READER.c ****         return(UART_READER_CONTROL_REG);
 1222              		.loc 1 300 0
 1223 0002 1A78     		ldrb	r2, [r3]	@ zero_extendqisi2
 1224              	.LBE43:
 1225              	.LBE42:
1574:.\Generated_Source\PSoC5/UART_READER.c ****         /* Mark/Space sending enable */
1575:.\Generated_Source\PSoC5/UART_READER.c ****         if(addressMode != 0u)
 1226              		.loc 1 1575 0
 1227 0004 10B1     		cbz	r0, .L149
1576:.\Generated_Source\PSoC5/UART_READER.c ****         {
1577:.\Generated_Source\PSoC5/UART_READER.c ****         #if( UART_READER_CONTROL_REG_REMOVED == 0u )
1578:.\Generated_Source\PSoC5/UART_READER.c ****             UART_READER_WriteControlRegister(UART_READER_ReadControlRegister() |
 1228              		.loc 1 1578 0
 1229 0006 42F00402 		orr	r2, r2, #4
 1230              	.LVL80:
 1231 000a 01E0     		b	.L151
 1232              	.LVL81:
 1233              	.L149:
1579:.\Generated_Source\PSoC5/UART_READER.c ****                                                   UART_READER_CTRL_MARK);
1580:.\Generated_Source\PSoC5/UART_READER.c ****         #endif /* End UART_READER_CONTROL_REG_REMOVED == 0u */
1581:.\Generated_Source\PSoC5/UART_READER.c ****         }
1582:.\Generated_Source\PSoC5/UART_READER.c ****         else
ARM GAS  C:\Users\Yiquing\AppData\Local\Temp\ccJgHlWx.s 			page 51


1583:.\Generated_Source\PSoC5/UART_READER.c ****         {
1584:.\Generated_Source\PSoC5/UART_READER.c ****         #if( UART_READER_CONTROL_REG_REMOVED == 0u )
1585:.\Generated_Source\PSoC5/UART_READER.c ****             UART_READER_WriteControlRegister(UART_READER_ReadControlRegister() &
 1234              		.loc 1 1585 0
 1235 000c 02F0FB02 		and	r2, r2, #251
 1236              	.L151:
 1237              	.LVL82:
 1238              	.LBB44:
 1239              	.LBB45:
 327:.\Generated_Source\PSoC5/UART_READER.c ****        UART_READER_CONTROL_REG = control;
 1240              		.loc 1 327 0
 1241 0010 1A70     		strb	r2, [r3]
 1242 0012 7047     		bx	lr
 1243              	.L153:
 1244              		.align	2
 1245              	.L152:
 1246 0014 78650040 		.word	1073767800
 1247              	.LBE45:
 1248              	.LBE44:
 1249              		.cfi_endproc
 1250              	.LFE26:
 1251              		.size	UART_READER_SetTxAddressMode, .-UART_READER_SetTxAddressMode
 1252              		.section	.text.UART_READER_LoadRxConfig,"ax",%progbits
 1253              		.align	1
 1254              		.global	UART_READER_LoadRxConfig
 1255              		.thumb
 1256              		.thumb_func
 1257              		.type	UART_READER_LoadRxConfig, %function
 1258              	UART_READER_LoadRxConfig:
 1259              	.LFB27:
1586:.\Generated_Source\PSoC5/UART_READER.c ****                                                   (uint8) ~UART_READER_CTRL_MARK);
1587:.\Generated_Source\PSoC5/UART_READER.c ****         #endif /* End UART_READER_CONTROL_REG_REMOVED == 0u */
1588:.\Generated_Source\PSoC5/UART_READER.c ****         }
1589:.\Generated_Source\PSoC5/UART_READER.c ****     }
1590:.\Generated_Source\PSoC5/UART_READER.c **** 
1591:.\Generated_Source\PSoC5/UART_READER.c **** #endif  /* EndUART_READER_TX_ENABLED */
1592:.\Generated_Source\PSoC5/UART_READER.c **** 
1593:.\Generated_Source\PSoC5/UART_READER.c **** #if(UART_READER_HD_ENABLED)
1594:.\Generated_Source\PSoC5/UART_READER.c **** 
1595:.\Generated_Source\PSoC5/UART_READER.c **** 
1596:.\Generated_Source\PSoC5/UART_READER.c ****     /*******************************************************************************
1597:.\Generated_Source\PSoC5/UART_READER.c ****     * Function Name: UART_READER_LoadRxConfig
1598:.\Generated_Source\PSoC5/UART_READER.c ****     ********************************************************************************
1599:.\Generated_Source\PSoC5/UART_READER.c ****     *
1600:.\Generated_Source\PSoC5/UART_READER.c ****     * Summary:
1601:.\Generated_Source\PSoC5/UART_READER.c ****     *  Loads the receiver configuration in half duplex mode. After calling this
1602:.\Generated_Source\PSoC5/UART_READER.c ****     *  function, the UART is ready to receive data.
1603:.\Generated_Source\PSoC5/UART_READER.c ****     *
1604:.\Generated_Source\PSoC5/UART_READER.c ****     * Parameters:
1605:.\Generated_Source\PSoC5/UART_READER.c ****     *  None.
1606:.\Generated_Source\PSoC5/UART_READER.c ****     *
1607:.\Generated_Source\PSoC5/UART_READER.c ****     * Return:
1608:.\Generated_Source\PSoC5/UART_READER.c ****     *  None.
1609:.\Generated_Source\PSoC5/UART_READER.c ****     *
1610:.\Generated_Source\PSoC5/UART_READER.c ****     * Side Effects:
1611:.\Generated_Source\PSoC5/UART_READER.c ****     *  Valid only in half duplex mode. You must make sure that the previous
1612:.\Generated_Source\PSoC5/UART_READER.c ****     *  transaction is complete and it is safe to unload the transmitter
ARM GAS  C:\Users\Yiquing\AppData\Local\Temp\ccJgHlWx.s 			page 52


1613:.\Generated_Source\PSoC5/UART_READER.c ****     *  configuration.
1614:.\Generated_Source\PSoC5/UART_READER.c ****     *
1615:.\Generated_Source\PSoC5/UART_READER.c ****     *******************************************************************************/
1616:.\Generated_Source\PSoC5/UART_READER.c ****     void UART_READER_LoadRxConfig(void) 
1617:.\Generated_Source\PSoC5/UART_READER.c ****     {
 1260              		.loc 1 1617 0
 1261              		.cfi_startproc
 1262              		@ args = 0, pretend = 0, frame = 0
 1263              		@ frame_needed = 0, uses_anonymous_args = 0
 1264              		@ link register save eliminated.
 1265              	.LBB46:
 1266              	.LBB47:
 300:.\Generated_Source\PSoC5/UART_READER.c ****         return(UART_READER_CONTROL_REG);
 1267              		.loc 1 300 0
 1268 0000 054B     		ldr	r3, .L155
 1269 0002 1A78     		ldrb	r2, [r3]	@ zero_extendqisi2
 1270              	.LBE47:
 1271              	.LBE46:
1618:.\Generated_Source\PSoC5/UART_READER.c ****         UART_READER_WriteControlRegister(UART_READER_ReadControlRegister() &
 1272              		.loc 1 1618 0
 1273 0004 02F0FE02 		and	r2, r2, #254
 1274              	.LVL83:
 1275              	.LBB48:
 1276              	.LBB49:
 327:.\Generated_Source\PSoC5/UART_READER.c ****        UART_READER_CONTROL_REG = control;
 1277              		.loc 1 327 0
 1278 0008 1A70     		strb	r2, [r3]
 1279              	.LBE49:
 1280              	.LBE48:
1619:.\Generated_Source\PSoC5/UART_READER.c ****                                                 (uint8)~UART_READER_CTRL_HD_SEND);
1620:.\Generated_Source\PSoC5/UART_READER.c ****         UART_READER_RXBITCTR_PERIOD_REG = UART_READER_HD_RXBITCTR_INIT;
 1281              		.loc 1 1620 0
 1282 000a 7222     		movs	r2, #114
 1283              	.LVL84:
 1284 000c 5A73     		strb	r2, [r3, #13]
 1285              	.LVL85:
 1286              	.LBB50:
 1287              	.LBB51:
 361:.\Generated_Source\PSoC5/UART_READER.c ****         UART_READER_RXSTATUS_MASK_REG  = intSrc;
 1288              		.loc 1 361 0
 1289 000e 2022     		movs	r2, #32
 1290 0010 03F8F12C 		strb	r2, [r3, #-241]
 1291 0014 7047     		bx	lr
 1292              	.L156:
 1293 0016 00BF     		.align	2
 1294              	.L155:
 1295 0018 78650040 		.word	1073767800
 1296              	.LBE51:
 1297              	.LBE50:
 1298              		.cfi_endproc
 1299              	.LFE27:
 1300              		.size	UART_READER_LoadRxConfig, .-UART_READER_LoadRxConfig
 1301              		.section	.text.UART_READER_LoadTxConfig,"ax",%progbits
 1302              		.align	1
 1303              		.global	UART_READER_LoadTxConfig
 1304              		.thumb
 1305              		.thumb_func
ARM GAS  C:\Users\Yiquing\AppData\Local\Temp\ccJgHlWx.s 			page 53


 1306              		.type	UART_READER_LoadTxConfig, %function
 1307              	UART_READER_LoadTxConfig:
 1308              	.LFB28:
1621:.\Generated_Source\PSoC5/UART_READER.c **** 
1622:.\Generated_Source\PSoC5/UART_READER.c ****     #if (UART_READER_RX_INTERRUPT_ENABLED)
1623:.\Generated_Source\PSoC5/UART_READER.c ****         /* Enable RX interrupt after set RX configuration */
1624:.\Generated_Source\PSoC5/UART_READER.c ****         UART_READER_SetRxInterruptMode(UART_READER_INIT_RX_INTERRUPTS_MASK);
1625:.\Generated_Source\PSoC5/UART_READER.c ****     #endif /* (UART_READER_RX_INTERRUPT_ENABLED) */
1626:.\Generated_Source\PSoC5/UART_READER.c ****     }
1627:.\Generated_Source\PSoC5/UART_READER.c **** 
1628:.\Generated_Source\PSoC5/UART_READER.c **** 
1629:.\Generated_Source\PSoC5/UART_READER.c ****     /*******************************************************************************
1630:.\Generated_Source\PSoC5/UART_READER.c ****     * Function Name: UART_READER_LoadTxConfig
1631:.\Generated_Source\PSoC5/UART_READER.c ****     ********************************************************************************
1632:.\Generated_Source\PSoC5/UART_READER.c ****     *
1633:.\Generated_Source\PSoC5/UART_READER.c ****     * Summary:
1634:.\Generated_Source\PSoC5/UART_READER.c ****     *  Loads the transmitter configuration in half duplex mode. After calling this
1635:.\Generated_Source\PSoC5/UART_READER.c ****     *  function, the UART is ready to transmit data.
1636:.\Generated_Source\PSoC5/UART_READER.c ****     *
1637:.\Generated_Source\PSoC5/UART_READER.c ****     * Parameters:
1638:.\Generated_Source\PSoC5/UART_READER.c ****     *  None.
1639:.\Generated_Source\PSoC5/UART_READER.c ****     *
1640:.\Generated_Source\PSoC5/UART_READER.c ****     * Return:
1641:.\Generated_Source\PSoC5/UART_READER.c ****     *  None.
1642:.\Generated_Source\PSoC5/UART_READER.c ****     *
1643:.\Generated_Source\PSoC5/UART_READER.c ****     * Side Effects:
1644:.\Generated_Source\PSoC5/UART_READER.c ****     *  Valid only in half duplex mode. You must make sure that the previous
1645:.\Generated_Source\PSoC5/UART_READER.c ****     *  transaction is complete and it is safe to unload the receiver configuration.
1646:.\Generated_Source\PSoC5/UART_READER.c ****     *
1647:.\Generated_Source\PSoC5/UART_READER.c ****     *******************************************************************************/
1648:.\Generated_Source\PSoC5/UART_READER.c ****     void UART_READER_LoadTxConfig(void) 
1649:.\Generated_Source\PSoC5/UART_READER.c ****     {
 1309              		.loc 1 1649 0
 1310              		.cfi_startproc
 1311              		@ args = 0, pretend = 0, frame = 0
 1312              		@ frame_needed = 0, uses_anonymous_args = 0
 1313              		@ link register save eliminated.
 1314              	.LVL86:
 1315              	.LBB52:
 1316              	.LBB53:
 361:.\Generated_Source\PSoC5/UART_READER.c ****         UART_READER_RXSTATUS_MASK_REG  = intSrc;
 1317              		.loc 1 361 0
 1318 0000 064B     		ldr	r3, .L158
 1319 0002 0022     		movs	r2, #0
 1320 0004 1A70     		strb	r2, [r3]
 1321              	.LBE53:
 1322              	.LBE52:
 1323              	.LBB54:
 1324              	.LBB55:
 300:.\Generated_Source\PSoC5/UART_READER.c ****         return(UART_READER_CONTROL_REG);
 1325              		.loc 1 300 0
 1326 0006 93F8F120 		ldrb	r2, [r3, #241]	@ zero_extendqisi2
 1327              	.LBE55:
 1328              	.LBE54:
1650:.\Generated_Source\PSoC5/UART_READER.c ****     #if (UART_READER_RX_INTERRUPT_ENABLED)
1651:.\Generated_Source\PSoC5/UART_READER.c ****         /* Disable RX interrupts before set TX configuration */
1652:.\Generated_Source\PSoC5/UART_READER.c ****         UART_READER_SetRxInterruptMode(0u);
ARM GAS  C:\Users\Yiquing\AppData\Local\Temp\ccJgHlWx.s 			page 54


1653:.\Generated_Source\PSoC5/UART_READER.c ****     #endif /* (UART_READER_RX_INTERRUPT_ENABLED) */
1654:.\Generated_Source\PSoC5/UART_READER.c **** 
1655:.\Generated_Source\PSoC5/UART_READER.c ****         UART_READER_WriteControlRegister(UART_READER_ReadControlRegister() | UART_READER_CTRL_HD_SE
 1329              		.loc 1 1655 0
 1330 000a 42F00102 		orr	r2, r2, #1
 1331              	.LVL87:
 1332              	.LBB56:
 1333              	.LBB57:
 327:.\Generated_Source\PSoC5/UART_READER.c ****        UART_READER_CONTROL_REG = control;
 1334              		.loc 1 327 0
 1335 000e 83F8F120 		strb	r2, [r3, #241]
 1336              	.LBE57:
 1337              	.LBE56:
1656:.\Generated_Source\PSoC5/UART_READER.c ****         UART_READER_RXBITCTR_PERIOD_REG = UART_READER_HD_TXBITCTR_INIT;
 1338              		.loc 1 1656 0
 1339 0012 6F22     		movs	r2, #111
 1340              	.LVL88:
 1341 0014 83F8FE20 		strb	r2, [r3, #254]
 1342 0018 7047     		bx	lr
 1343              	.L159:
 1344 001a 00BF     		.align	2
 1345              	.L158:
 1346 001c 87640040 		.word	1073767559
 1347              		.cfi_endproc
 1348              	.LFE28:
 1349              		.size	UART_READER_LoadTxConfig, .-UART_READER_LoadTxConfig
 1350              		.global	UART_READER_rxBufferOverflow
 1351              		.global	UART_READER_rxBufferLoopDetect
 1352              		.global	UART_READER_rxBufferWrite
 1353              		.global	UART_READER_rxBufferRead
 1354              		.comm	UART_READER_rxBuffer,128,1
 1355              		.global	UART_READER_errorStatus
 1356              		.global	UART_READER_initVar
 1357              		.bss
 1358              		.set	.LANCHOR0,. + 0
 1359              		.type	UART_READER_errorStatus, %object
 1360              		.size	UART_READER_errorStatus, 1
 1361              	UART_READER_errorStatus:
 1362 0000 00       		.space	1
 1363              		.type	UART_READER_initVar, %object
 1364              		.size	UART_READER_initVar, 1
 1365              	UART_READER_initVar:
 1366 0001 00       		.space	1
 1367              		.type	UART_READER_rxBufferRead, %object
 1368              		.size	UART_READER_rxBufferRead, 1
 1369              	UART_READER_rxBufferRead:
 1370 0002 00       		.space	1
 1371              		.type	UART_READER_rxBufferWrite, %object
 1372              		.size	UART_READER_rxBufferWrite, 1
 1373              	UART_READER_rxBufferWrite:
 1374 0003 00       		.space	1
 1375              		.type	UART_READER_rxBufferLoopDetect, %object
 1376              		.size	UART_READER_rxBufferLoopDetect, 1
 1377              	UART_READER_rxBufferLoopDetect:
 1378 0004 00       		.space	1
 1379              		.type	UART_READER_rxBufferOverflow, %object
 1380              		.size	UART_READER_rxBufferOverflow, 1
ARM GAS  C:\Users\Yiquing\AppData\Local\Temp\ccJgHlWx.s 			page 55


 1381              	UART_READER_rxBufferOverflow:
 1382 0005 00       		.space	1
 1383              		.text
 1384              	.Letext0:
 1385              		.file 2 ".\\Generated_Source\\PSoC5\\cytypes.h"
 1386              		.file 3 ".\\Generated_Source\\PSoC5\\CyLib.h"
 1387              		.section	.debug_info,"",%progbits
 1388              	.Ldebug_info0:
 1389 0000 65080000 		.4byte	0x865
 1390 0004 0400     		.2byte	0x4
 1391 0006 00000000 		.4byte	.Ldebug_abbrev0
 1392 000a 04       		.byte	0x4
 1393 000b 01       		.uleb128 0x1
 1394 000c 01040000 		.4byte	.LASF75
 1395 0010 01       		.byte	0x1
 1396 0011 93010000 		.4byte	.LASF76
 1397 0015 B1040000 		.4byte	.LASF77
 1398 0019 18000000 		.4byte	.Ldebug_ranges0+0x18
 1399 001d 00000000 		.4byte	0
 1400 0021 00000000 		.4byte	.Ldebug_line0
 1401 0025 02       		.uleb128 0x2
 1402 0026 01       		.byte	0x1
 1403 0027 06       		.byte	0x6
 1404 0028 B5000000 		.4byte	.LASF0
 1405 002c 02       		.uleb128 0x2
 1406 002d 01       		.byte	0x1
 1407 002e 08       		.byte	0x8
 1408 002f 74030000 		.4byte	.LASF1
 1409 0033 02       		.uleb128 0x2
 1410 0034 02       		.byte	0x2
 1411 0035 05       		.byte	0x5
 1412 0036 BB030000 		.4byte	.LASF2
 1413 003a 02       		.uleb128 0x2
 1414 003b 02       		.byte	0x2
 1415 003c 07       		.byte	0x7
 1416 003d 18020000 		.4byte	.LASF3
 1417 0041 02       		.uleb128 0x2
 1418 0042 04       		.byte	0x4
 1419 0043 05       		.byte	0x5
 1420 0044 DE000000 		.4byte	.LASF4
 1421 0048 02       		.uleb128 0x2
 1422 0049 04       		.byte	0x4
 1423 004a 07       		.byte	0x7
 1424 004b D6010000 		.4byte	.LASF5
 1425 004f 02       		.uleb128 0x2
 1426 0050 08       		.byte	0x8
 1427 0051 05       		.byte	0x5
 1428 0052 A7000000 		.4byte	.LASF6
 1429 0056 02       		.uleb128 0x2
 1430 0057 08       		.byte	0x8
 1431 0058 07       		.byte	0x7
 1432 0059 7B000000 		.4byte	.LASF7
 1433 005d 03       		.uleb128 0x3
 1434 005e 04       		.byte	0x4
 1435 005f 05       		.byte	0x5
 1436 0060 696E7400 		.ascii	"int\000"
 1437 0064 02       		.uleb128 0x2
ARM GAS  C:\Users\Yiquing\AppData\Local\Temp\ccJgHlWx.s 			page 56


 1438 0065 04       		.byte	0x4
 1439 0066 07       		.byte	0x7
 1440 0067 BA010000 		.4byte	.LASF8
 1441 006b 04       		.uleb128 0x4
 1442 006c 19010000 		.4byte	.LASF9
 1443 0070 02       		.byte	0x2
 1444 0071 B3       		.byte	0xb3
 1445 0072 2C000000 		.4byte	0x2c
 1446 0076 04       		.uleb128 0x4
 1447 0077 00000000 		.4byte	.LASF10
 1448 007b 02       		.byte	0x2
 1449 007c B4       		.byte	0xb4
 1450 007d 3A000000 		.4byte	0x3a
 1451 0081 04       		.uleb128 0x4
 1452 0082 7C010000 		.4byte	.LASF11
 1453 0086 02       		.byte	0x2
 1454 0087 B5       		.byte	0xb5
 1455 0088 48000000 		.4byte	0x48
 1456 008c 02       		.uleb128 0x2
 1457 008d 04       		.byte	0x4
 1458 008e 04       		.byte	0x4
 1459 008f F0020000 		.4byte	.LASF12
 1460 0093 02       		.uleb128 0x2
 1461 0094 08       		.byte	0x8
 1462 0095 04       		.byte	0x4
 1463 0096 4F010000 		.4byte	.LASF13
 1464 009a 04       		.uleb128 0x4
 1465 009b FF040000 		.4byte	.LASF14
 1466 009f 02       		.byte	0x2
 1467 00a0 C4       		.byte	0xc4
 1468 00a1 A5000000 		.4byte	0xa5
 1469 00a5 02       		.uleb128 0x2
 1470 00a6 01       		.byte	0x1
 1471 00a7 08       		.byte	0x8
 1472 00a8 8B040000 		.4byte	.LASF15
 1473 00ac 05       		.uleb128 0x5
 1474 00ad 5A030000 		.4byte	.LASF16
 1475 00b1 02       		.byte	0x2
 1476 00b2 5D01     		.2byte	0x15d
 1477 00b4 B8000000 		.4byte	0xb8
 1478 00b8 06       		.uleb128 0x6
 1479 00b9 6B000000 		.4byte	0x6b
 1480 00bd 05       		.uleb128 0x5
 1481 00be 70020000 		.4byte	.LASF17
 1482 00c2 02       		.byte	0x2
 1483 00c3 5F01     		.2byte	0x15f
 1484 00c5 C9000000 		.4byte	0xc9
 1485 00c9 06       		.uleb128 0x6
 1486 00ca 81000000 		.4byte	0x81
 1487 00ce 05       		.uleb128 0x5
 1488 00cf 90040000 		.4byte	.LASF18
 1489 00d3 02       		.byte	0x2
 1490 00d4 6F01     		.2byte	0x16f
 1491 00d6 DA000000 		.4byte	0xda
 1492 00da 07       		.uleb128 0x7
 1493 00db 04       		.byte	0x4
 1494 00dc E0000000 		.4byte	0xe0
ARM GAS  C:\Users\Yiquing\AppData\Local\Temp\ccJgHlWx.s 			page 57


 1495 00e0 08       		.uleb128 0x8
 1496 00e1 02       		.uleb128 0x2
 1497 00e2 04       		.byte	0x4
 1498 00e3 07       		.byte	0x7
 1499 00e4 97020000 		.4byte	.LASF19
 1500 00e8 09       		.uleb128 0x9
 1501 00e9 B6050000 		.4byte	.LASF73
 1502 00ed 01       		.byte	0x1
 1503 00ee 2701     		.2byte	0x127
 1504 00f0 6B000000 		.4byte	0x6b
 1505 00f4 01       		.byte	0x1
 1506 00f5 0A       		.uleb128 0xa
 1507 00f6 50050000 		.4byte	.LASF20
 1508 00fa 01       		.byte	0x1
 1509 00fb 3F01     		.2byte	0x13f
 1510 00fd 01       		.byte	0x1
 1511 00fe 0F010000 		.4byte	0x10f
 1512 0102 0B       		.uleb128 0xb
 1513 0103 83010000 		.4byte	.LASF22
 1514 0107 01       		.byte	0x1
 1515 0108 3F01     		.2byte	0x13f
 1516 010a 6B000000 		.4byte	0x6b
 1517 010e 00       		.byte	0
 1518 010f 0A       		.uleb128 0xa
 1519 0110 9C030000 		.4byte	.LASF21
 1520 0114 01       		.byte	0x1
 1521 0115 6701     		.2byte	0x167
 1522 0117 01       		.byte	0x1
 1523 0118 29010000 		.4byte	0x129
 1524 011c 0B       		.uleb128 0xb
 1525 011d 55020000 		.4byte	.LASF23
 1526 0121 01       		.byte	0x1
 1527 0122 6701     		.2byte	0x167
 1528 0124 6B000000 		.4byte	0x6b
 1529 0128 00       		.byte	0
 1530 0129 0C       		.uleb128 0xc
 1531 012a 3E010000 		.4byte	.LASF24
 1532 012e 01       		.byte	0x1
 1533 012f 6A       		.byte	0x6a
 1534 0130 00000000 		.4byte	.LFB1
 1535 0134 34000000 		.4byte	.LFE1-.LFB1
 1536 0138 01       		.uleb128 0x1
 1537 0139 9C       		.byte	0x9c
 1538 013a 66010000 		.4byte	0x166
 1539 013e 0D       		.uleb128 0xd
 1540 013f 0A000000 		.4byte	.LVL0
 1541 0143 20080000 		.4byte	0x820
 1542 0147 51010000 		.4byte	0x151
 1543 014b 0E       		.uleb128 0xe
 1544 014c 01       		.uleb128 0x1
 1545 014d 50       		.byte	0x50
 1546 014e 01       		.uleb128 0x1
 1547 014f 32       		.byte	0x32
 1548 0150 00       		.byte	0
 1549 0151 0F       		.uleb128 0xf
 1550 0152 12000000 		.4byte	.LVL1
 1551 0156 3A080000 		.4byte	0x83a
ARM GAS  C:\Users\Yiquing\AppData\Local\Temp\ccJgHlWx.s 			page 58


 1552 015a 0E       		.uleb128 0xe
 1553 015b 01       		.uleb128 0x1
 1554 015c 51       		.byte	0x51
 1555 015d 01       		.uleb128 0x1
 1556 015e 37       		.byte	0x37
 1557 015f 0E       		.uleb128 0xe
 1558 0160 01       		.uleb128 0x1
 1559 0161 50       		.byte	0x50
 1560 0162 01       		.uleb128 0x1
 1561 0163 32       		.byte	0x32
 1562 0164 00       		.byte	0
 1563 0165 00       		.byte	0
 1564 0166 0C       		.uleb128 0xc
 1565 0167 D6050000 		.4byte	.LASF25
 1566 016b 01       		.byte	0x1
 1567 016c B7       		.byte	0xb7
 1568 016d 00000000 		.4byte	.LFB2
 1569 0171 34000000 		.4byte	.LFE2-.LFB2
 1570 0175 01       		.uleb128 0x1
 1571 0176 9C       		.byte	0x9c
 1572 0177 9D010000 		.4byte	0x19d
 1573 017b 10       		.uleb128 0x10
 1574 017c 3F050000 		.4byte	.LASF28
 1575 0180 01       		.byte	0x1
 1576 0181 B9       		.byte	0xb9
 1577 0182 6B000000 		.4byte	0x6b
 1578 0186 00000000 		.4byte	.LLST0
 1579 018a 11       		.uleb128 0x11
 1580 018b 06000000 		.4byte	.LVL2
 1581 018f 50080000 		.4byte	0x850
 1582 0193 12       		.uleb128 0x12
 1583 0194 2A000000 		.4byte	.LVL3
 1584 0198 5B080000 		.4byte	0x85b
 1585 019c 00       		.byte	0
 1586 019d 0C       		.uleb128 0xc
 1587 019e 43020000 		.4byte	.LASF26
 1588 01a2 01       		.byte	0x1
 1589 01a3 4C       		.byte	0x4c
 1590 01a4 00000000 		.4byte	.LFB0
 1591 01a8 1C000000 		.4byte	.LFE0-.LFB0
 1592 01ac 01       		.uleb128 0x1
 1593 01ad 9C       		.byte	0x9c
 1594 01ae C5010000 		.4byte	0x1c5
 1595 01b2 11       		.uleb128 0x11
 1596 01b3 0C000000 		.4byte	.LVL4
 1597 01b7 29010000 		.4byte	0x129
 1598 01bb 12       		.uleb128 0x12
 1599 01bc 18000000 		.4byte	.LVL5
 1600 01c0 66010000 		.4byte	0x166
 1601 01c4 00       		.byte	0
 1602 01c5 0C       		.uleb128 0xc
 1603 01c6 1E050000 		.4byte	.LASF27
 1604 01ca 01       		.byte	0x1
 1605 01cb F0       		.byte	0xf0
 1606 01cc 00000000 		.4byte	.LFB3
 1607 01d0 34000000 		.4byte	.LFE3-.LFB3
 1608 01d4 01       		.uleb128 0x1
ARM GAS  C:\Users\Yiquing\AppData\Local\Temp\ccJgHlWx.s 			page 59


 1609 01d5 9C       		.byte	0x9c
 1610 01d6 FC010000 		.4byte	0x1fc
 1611 01da 10       		.uleb128 0x10
 1612 01db 3F050000 		.4byte	.LASF28
 1613 01df 01       		.byte	0x1
 1614 01e0 F2       		.byte	0xf2
 1615 01e1 6B000000 		.4byte	0x6b
 1616 01e5 13000000 		.4byte	.LLST1
 1617 01e9 11       		.uleb128 0x11
 1618 01ea 06000000 		.4byte	.LVL6
 1619 01ee 50080000 		.4byte	0x850
 1620 01f2 12       		.uleb128 0x12
 1621 01f3 2A000000 		.4byte	.LVL7
 1622 01f7 5B080000 		.4byte	0x85b
 1623 01fb 00       		.byte	0
 1624 01fc 13       		.uleb128 0x13
 1625 01fd E8000000 		.4byte	0xe8
 1626 0201 00000000 		.4byte	.LFB4
 1627 0205 0C000000 		.4byte	.LFE4-.LFB4
 1628 0209 01       		.uleb128 0x1
 1629 020a 9C       		.byte	0x9c
 1630 020b 14       		.uleb128 0x14
 1631 020c F5000000 		.4byte	0xf5
 1632 0210 00000000 		.4byte	.LFB5
 1633 0214 0C000000 		.4byte	.LFE5-.LFB5
 1634 0218 01       		.uleb128 0x1
 1635 0219 9C       		.byte	0x9c
 1636 021a 26020000 		.4byte	0x226
 1637 021e 15       		.uleb128 0x15
 1638 021f 02010000 		.4byte	0x102
 1639 0223 01       		.uleb128 0x1
 1640 0224 50       		.byte	0x50
 1641 0225 00       		.byte	0
 1642 0226 14       		.uleb128 0x14
 1643 0227 0F010000 		.4byte	0x10f
 1644 022b 00000000 		.4byte	.LFB6
 1645 022f 0C000000 		.4byte	.LFE6-.LFB6
 1646 0233 01       		.uleb128 0x1
 1647 0234 9C       		.byte	0x9c
 1648 0235 41020000 		.4byte	0x241
 1649 0239 15       		.uleb128 0x15
 1650 023a 1C010000 		.4byte	0x11c
 1651 023e 01       		.uleb128 0x1
 1652 023f 50       		.byte	0x50
 1653 0240 00       		.byte	0
 1654 0241 16       		.uleb128 0x16
 1655 0242 12030000 		.4byte	.LASF32
 1656 0246 01       		.byte	0x1
 1657 0247 8801     		.2byte	0x188
 1658 0249 6B000000 		.4byte	0x6b
 1659 024d 00000000 		.4byte	.LFB7
 1660 0251 5C000000 		.4byte	.LFE7-.LFB7
 1661 0255 01       		.uleb128 0x1
 1662 0256 9C       		.byte	0x9c
 1663 0257 8C020000 		.4byte	0x28c
 1664 025b 17       		.uleb128 0x17
 1665 025c 7D040000 		.4byte	.LASF29
ARM GAS  C:\Users\Yiquing\AppData\Local\Temp\ccJgHlWx.s 			page 60


 1666 0260 01       		.byte	0x1
 1667 0261 8A01     		.2byte	0x18a
 1668 0263 6B000000 		.4byte	0x6b
 1669 0267 26000000 		.4byte	.LLST2
 1670 026b 17       		.uleb128 0x17
 1671 026c 2F050000 		.4byte	.LASF30
 1672 0270 01       		.byte	0x1
 1673 0271 8E01     		.2byte	0x18e
 1674 0273 6B000000 		.4byte	0x6b
 1675 0277 44000000 		.4byte	.LLST3
 1676 027b 17       		.uleb128 0x17
 1677 027c A8020000 		.4byte	.LASF31
 1678 0280 01       		.byte	0x1
 1679 0281 8F01     		.2byte	0x18f
 1680 0283 6B000000 		.4byte	0x6b
 1681 0287 6F000000 		.4byte	.LLST4
 1682 028b 00       		.byte	0
 1683 028c 16       		.uleb128 0x16
 1684 028d 05050000 		.4byte	.LASF33
 1685 0291 01       		.byte	0x1
 1686 0292 E501     		.2byte	0x1e5
 1687 0294 6B000000 		.4byte	0x6b
 1688 0298 00000000 		.4byte	.LFB8
 1689 029c 20000000 		.4byte	.LFE8-.LFB8
 1690 02a0 01       		.uleb128 0x1
 1691 02a1 9C       		.byte	0x9c
 1692 02a2 B5020000 		.4byte	0x2b5
 1693 02a6 18       		.uleb128 0x18
 1694 02a7 C1000000 		.4byte	.LASF34
 1695 02ab 01       		.byte	0x1
 1696 02ac E701     		.2byte	0x1e7
 1697 02ae 6B000000 		.4byte	0x6b
 1698 02b2 01       		.uleb128 0x1
 1699 02b3 50       		.byte	0x50
 1700 02b4 00       		.byte	0
 1701 02b5 16       		.uleb128 0x16
 1702 02b6 FF010000 		.4byte	.LASF35
 1703 02ba 01       		.byte	0x1
 1704 02bb 1402     		.2byte	0x214
 1705 02bd 6B000000 		.4byte	0x6b
 1706 02c1 00000000 		.4byte	.LFB9
 1707 02c5 74000000 		.4byte	.LFE9-.LFB9
 1708 02c9 01       		.uleb128 0x1
 1709 02ca 9C       		.byte	0x9c
 1710 02cb 10030000 		.4byte	0x310
 1711 02cf 17       		.uleb128 0x17
 1712 02d0 7D040000 		.4byte	.LASF29
 1713 02d4 01       		.byte	0x1
 1714 02d5 1602     		.2byte	0x216
 1715 02d7 6B000000 		.4byte	0x6b
 1716 02db 8D000000 		.4byte	.LLST5
 1717 02df 17       		.uleb128 0x17
 1718 02e0 B9020000 		.4byte	.LASF36
 1719 02e4 01       		.byte	0x1
 1720 02e5 1702     		.2byte	0x217
 1721 02e7 6B000000 		.4byte	0x6b
 1722 02eb C3000000 		.4byte	.LLST6
ARM GAS  C:\Users\Yiquing\AppData\Local\Temp\ccJgHlWx.s 			page 61


 1723 02ef 17       		.uleb128 0x17
 1724 02f0 2F050000 		.4byte	.LASF30
 1725 02f4 01       		.byte	0x1
 1726 02f5 1A02     		.2byte	0x21a
 1727 02f7 6B000000 		.4byte	0x6b
 1728 02fb D6000000 		.4byte	.LLST7
 1729 02ff 17       		.uleb128 0x17
 1730 0300 A8020000 		.4byte	.LASF31
 1731 0304 01       		.byte	0x1
 1732 0305 1B02     		.2byte	0x21b
 1733 0307 6B000000 		.4byte	0x6b
 1734 030b 01010000 		.4byte	.LLST8
 1735 030f 00       		.byte	0
 1736 0310 16       		.uleb128 0x16
 1737 0311 8E050000 		.4byte	.LASF37
 1738 0315 01       		.byte	0x1
 1739 0316 7A02     		.2byte	0x27a
 1740 0318 76000000 		.4byte	0x76
 1741 031c 00000000 		.4byte	.LFB10
 1742 0320 2C000000 		.4byte	.LFE10-.LFB10
 1743 0324 01       		.uleb128 0x1
 1744 0325 9C       		.byte	0x9c
 1745 0326 44030000 		.4byte	0x344
 1746 032a 17       		.uleb128 0x17
 1747 032b C7010000 		.4byte	.LASF38
 1748 032f 01       		.byte	0x1
 1749 0330 7E02     		.2byte	0x27e
 1750 0332 76000000 		.4byte	0x76
 1751 0336 1F010000 		.4byte	.LLST9
 1752 033a 11       		.uleb128 0x11
 1753 033b 18000000 		.4byte	.LVL35
 1754 033f 41020000 		.4byte	0x241
 1755 0343 00       		.byte	0
 1756 0344 16       		.uleb128 0x16
 1757 0345 42000000 		.4byte	.LASF39
 1758 0349 01       		.byte	0x1
 1759 034a AB02     		.2byte	0x2ab
 1760 034c 6B000000 		.4byte	0x6b
 1761 0350 00000000 		.4byte	.LFB11
 1762 0354 44000000 		.4byte	.LFE11-.LFB11
 1763 0358 01       		.uleb128 0x1
 1764 0359 9C       		.byte	0x9c
 1765 035a 6D030000 		.4byte	0x36d
 1766 035e 18       		.uleb128 0x18
 1767 035f 13020000 		.4byte	.LASF40
 1768 0363 01       		.byte	0x1
 1769 0364 AE02     		.2byte	0x2ae
 1770 0366 6B000000 		.4byte	0x6b
 1771 036a 01       		.uleb128 0x1
 1772 036b 50       		.byte	0x50
 1773 036c 00       		.byte	0
 1774 036d 19       		.uleb128 0x19
 1775 036e 82030000 		.4byte	.LASF41
 1776 0372 01       		.byte	0x1
 1777 0373 F502     		.2byte	0x2f5
 1778 0375 00000000 		.4byte	.LFB12
 1779 0379 44000000 		.4byte	.LFE12-.LFB12
ARM GAS  C:\Users\Yiquing\AppData\Local\Temp\ccJgHlWx.s 			page 62


 1780 037d 01       		.uleb128 0x1
 1781 037e 9C       		.byte	0x9c
 1782 037f A6030000 		.4byte	0x3a6
 1783 0383 17       		.uleb128 0x17
 1784 0384 3F050000 		.4byte	.LASF28
 1785 0388 01       		.byte	0x1
 1786 0389 F702     		.2byte	0x2f7
 1787 038b 6B000000 		.4byte	0x6b
 1788 038f 32010000 		.4byte	.LLST10
 1789 0393 11       		.uleb128 0x11
 1790 0394 06000000 		.4byte	.LVL38
 1791 0398 50080000 		.4byte	0x850
 1792 039c 11       		.uleb128 0x11
 1793 039d 1C000000 		.4byte	.LVL39
 1794 03a1 5B080000 		.4byte	0x85b
 1795 03a5 00       		.byte	0
 1796 03a6 19       		.uleb128 0x19
 1797 03a7 5E000000 		.4byte	.LASF42
 1798 03ab 01       		.byte	0x1
 1799 03ac 2D03     		.2byte	0x32d
 1800 03ae 00000000 		.4byte	.LFB13
 1801 03b2 02000000 		.4byte	.LFE13-.LFB13
 1802 03b6 01       		.uleb128 0x1
 1803 03b7 9C       		.byte	0x9c
 1804 03b8 CB030000 		.4byte	0x3cb
 1805 03bc 1A       		.uleb128 0x1a
 1806 03bd 56010000 		.4byte	.LASF44
 1807 03c1 01       		.byte	0x1
 1808 03c2 2D03     		.2byte	0x32d
 1809 03c4 6B000000 		.4byte	0x6b
 1810 03c8 01       		.uleb128 0x1
 1811 03c9 50       		.byte	0x50
 1812 03ca 00       		.byte	0
 1813 03cb 19       		.uleb128 0x19
 1814 03cc C5030000 		.4byte	.LASF43
 1815 03d0 01       		.byte	0x1
 1816 03d1 5903     		.2byte	0x359
 1817 03d3 00000000 		.4byte	.LFB14
 1818 03d7 0C000000 		.4byte	.LFE14-.LFB14
 1819 03db 01       		.uleb128 0x1
 1820 03dc 9C       		.byte	0x9c
 1821 03dd F0030000 		.4byte	0x3f0
 1822 03e1 1A       		.uleb128 0x1a
 1823 03e2 A0020000 		.4byte	.LASF45
 1824 03e6 01       		.byte	0x1
 1825 03e7 5903     		.2byte	0x359
 1826 03e9 6B000000 		.4byte	0x6b
 1827 03ed 01       		.uleb128 0x1
 1828 03ee 50       		.byte	0x50
 1829 03ef 00       		.byte	0
 1830 03f0 19       		.uleb128 0x19
 1831 03f1 62010000 		.4byte	.LASF46
 1832 03f5 01       		.byte	0x1
 1833 03f6 6D03     		.2byte	0x36d
 1834 03f8 00000000 		.4byte	.LFB15
 1835 03fc 0C000000 		.4byte	.LFE15-.LFB15
 1836 0400 01       		.uleb128 0x1
ARM GAS  C:\Users\Yiquing\AppData\Local\Temp\ccJgHlWx.s 			page 63


 1837 0401 9C       		.byte	0x9c
 1838 0402 15040000 		.4byte	0x415
 1839 0406 1A       		.uleb128 0x1a
 1840 0407 A0020000 		.4byte	.LASF45
 1841 040b 01       		.byte	0x1
 1842 040c 6D03     		.2byte	0x36d
 1843 040e 6B000000 		.4byte	0x6b
 1844 0412 01       		.uleb128 0x1
 1845 0413 50       		.byte	0x50
 1846 0414 00       		.byte	0
 1847 0415 19       		.uleb128 0x19
 1848 0416 FF050000 		.4byte	.LASF47
 1849 041a 01       		.byte	0x1
 1850 041b 8C03     		.2byte	0x38c
 1851 041d 00000000 		.4byte	.LFB16
 1852 0421 0C000000 		.4byte	.LFE16-.LFB16
 1853 0425 01       		.uleb128 0x1
 1854 0426 9C       		.byte	0x9c
 1855 0427 3A040000 		.4byte	0x43a
 1856 042b 1A       		.uleb128 0x1a
 1857 042c 55020000 		.4byte	.LASF23
 1858 0430 01       		.byte	0x1
 1859 0431 8C03     		.2byte	0x38c
 1860 0433 6B000000 		.4byte	0x6b
 1861 0437 01       		.uleb128 0x1
 1862 0438 50       		.byte	0x50
 1863 0439 00       		.byte	0
 1864 043a 19       		.uleb128 0x19
 1865 043b DF030000 		.4byte	.LASF48
 1866 043f 01       		.byte	0x1
 1867 0440 AE03     		.2byte	0x3ae
 1868 0442 00000000 		.4byte	.LFB17
 1869 0446 14000000 		.4byte	.LFE17-.LFB17
 1870 044a 01       		.uleb128 0x1
 1871 044b 9C       		.byte	0x9c
 1872 044c 5F040000 		.4byte	0x45f
 1873 0450 1A       		.uleb128 0x1a
 1874 0451 1D000000 		.4byte	.LASF49
 1875 0455 01       		.byte	0x1
 1876 0456 AE03     		.2byte	0x3ae
 1877 0458 6B000000 		.4byte	0x6b
 1878 045c 01       		.uleb128 0x1
 1879 045d 50       		.byte	0x50
 1880 045e 00       		.byte	0
 1881 045f 1B       		.uleb128 0x1b
 1882 0460 00010000 		.4byte	.LASF78
 1883 0464 01       		.byte	0x1
 1884 0465 EB03     		.2byte	0x3eb
 1885 0467 6B000000 		.4byte	0x6b
 1886 046b 00000000 		.4byte	.LFB18
 1887 046f 0C000000 		.4byte	.LFE18-.LFB18
 1888 0473 01       		.uleb128 0x1
 1889 0474 9C       		.byte	0x9c
 1890 0475 19       		.uleb128 0x19
 1891 0476 9D040000 		.4byte	.LASF50
 1892 047a 01       		.byte	0x1
 1893 047b 1104     		.2byte	0x411
ARM GAS  C:\Users\Yiquing\AppData\Local\Temp\ccJgHlWx.s 			page 64


 1894 047d 00000000 		.4byte	.LFB19
 1895 0481 18000000 		.4byte	.LFE19-.LFB19
 1896 0485 01       		.uleb128 0x1
 1897 0486 9C       		.byte	0x9c
 1898 0487 9A040000 		.4byte	0x49a
 1899 048b 1A       		.uleb128 0x1a
 1900 048c 1D000000 		.4byte	.LASF49
 1901 0490 01       		.byte	0x1
 1902 0491 1104     		.2byte	0x411
 1903 0493 6B000000 		.4byte	0x6b
 1904 0497 01       		.uleb128 0x1
 1905 0498 50       		.byte	0x50
 1906 0499 00       		.byte	0
 1907 049a 19       		.uleb128 0x19
 1908 049b C8000000 		.4byte	.LASF51
 1909 049f 01       		.byte	0x1
 1910 04a0 7904     		.2byte	0x479
 1911 04a2 00000000 		.4byte	.LFB20
 1912 04a6 20000000 		.4byte	.LFE20-.LFB20
 1913 04aa 01       		.uleb128 0x1
 1914 04ab 9C       		.byte	0x9c
 1915 04ac DA040000 		.4byte	0x4da
 1916 04b0 1C       		.uleb128 0x1c
 1917 04b1 84040000 		.4byte	.LASF52
 1918 04b5 01       		.byte	0x1
 1919 04b6 7904     		.2byte	0x479
 1920 04b8 DA040000 		.4byte	0x4da
 1921 04bc 45010000 		.4byte	.LLST11
 1922 04c0 17       		.uleb128 0x17
 1923 04c1 3A020000 		.4byte	.LASF53
 1924 04c5 01       		.byte	0x1
 1925 04c6 7B04     		.2byte	0x47b
 1926 04c8 76000000 		.4byte	0x76
 1927 04cc 71010000 		.4byte	.LLST12
 1928 04d0 11       		.uleb128 0x11
 1929 04d1 18000000 		.4byte	.LVL49
 1930 04d5 75040000 		.4byte	0x475
 1931 04d9 00       		.byte	0
 1932 04da 07       		.uleb128 0x7
 1933 04db 04       		.byte	0x4
 1934 04dc E0040000 		.4byte	0x4e0
 1935 04e0 1D       		.uleb128 0x1d
 1936 04e1 9A000000 		.4byte	0x9a
 1937 04e5 19       		.uleb128 0x19
 1938 04e6 92000000 		.4byte	.LASF54
 1939 04ea 01       		.byte	0x1
 1940 04eb A704     		.2byte	0x4a7
 1941 04ed 00000000 		.4byte	.LFB21
 1942 04f1 24000000 		.4byte	.LFE21-.LFB21
 1943 04f5 01       		.uleb128 0x1
 1944 04f6 9C       		.byte	0x9c
 1945 04f7 35050000 		.4byte	0x535
 1946 04fb 1C       		.uleb128 0x1c
 1947 04fc 84040000 		.4byte	.LASF52
 1948 0500 01       		.byte	0x1
 1949 0501 A704     		.2byte	0x4a7
 1950 0503 35050000 		.4byte	0x535
ARM GAS  C:\Users\Yiquing\AppData\Local\Temp\ccJgHlWx.s 			page 65


 1951 0507 A8010000 		.4byte	.LLST13
 1952 050b 1C       		.uleb128 0x1c
 1953 050c F7030000 		.4byte	.LASF55
 1954 0510 01       		.byte	0x1
 1955 0511 A704     		.2byte	0x4a7
 1956 0513 6B000000 		.4byte	0x6b
 1957 0517 D4010000 		.4byte	.LLST14
 1958 051b 17       		.uleb128 0x17
 1959 051c 3A020000 		.4byte	.LASF53
 1960 0520 01       		.byte	0x1
 1961 0521 AA04     		.2byte	0x4aa
 1962 0523 6B000000 		.4byte	0x6b
 1963 0527 F5010000 		.4byte	.LLST15
 1964 052b 11       		.uleb128 0x11
 1965 052c 1A000000 		.4byte	.LVL54
 1966 0530 75040000 		.4byte	0x475
 1967 0534 00       		.byte	0
 1968 0535 07       		.uleb128 0x7
 1969 0536 04       		.byte	0x4
 1970 0537 3B050000 		.4byte	0x53b
 1971 053b 1D       		.uleb128 0x1d
 1972 053c 6B000000 		.4byte	0x6b
 1973 0540 19       		.uleb128 0x19
 1974 0541 A2050000 		.4byte	.LASF56
 1975 0545 01       		.byte	0x1
 1976 0546 CE04     		.2byte	0x4ce
 1977 0548 00000000 		.4byte	.LFB22
 1978 054c 24000000 		.4byte	.LFE22-.LFB22
 1979 0550 01       		.uleb128 0x1
 1980 0551 9C       		.byte	0x9c
 1981 0552 92050000 		.4byte	0x592
 1982 0556 1C       		.uleb128 0x1c
 1983 0557 1D000000 		.4byte	.LASF49
 1984 055b 01       		.byte	0x1
 1985 055c CE04     		.2byte	0x4ce
 1986 055e 6B000000 		.4byte	0x6b
 1987 0562 2E020000 		.4byte	.LLST16
 1988 0566 11       		.uleb128 0x11
 1989 0567 0C000000 		.4byte	.LVL59
 1990 056b 75040000 		.4byte	0x475
 1991 056f 0D       		.uleb128 0xd
 1992 0570 12000000 		.4byte	.LVL60
 1993 0574 75040000 		.4byte	0x475
 1994 0578 82050000 		.4byte	0x582
 1995 057c 0E       		.uleb128 0xe
 1996 057d 01       		.uleb128 0x1
 1997 057e 50       		.byte	0x50
 1998 057f 01       		.uleb128 0x1
 1999 0580 3D       		.byte	0x3d
 2000 0581 00       		.byte	0
 2001 0582 1E       		.uleb128 0x1e
 2002 0583 1C000000 		.4byte	.LVL61
 2003 0587 75040000 		.4byte	0x475
 2004 058b 0E       		.uleb128 0xe
 2005 058c 01       		.uleb128 0x1
 2006 058d 50       		.byte	0x50
 2007 058e 01       		.uleb128 0x1
ARM GAS  C:\Users\Yiquing\AppData\Local\Temp\ccJgHlWx.s 			page 66


 2008 058f 3A       		.byte	0x3a
 2009 0590 00       		.byte	0
 2010 0591 00       		.byte	0
 2011 0592 16       		.uleb128 0x16
 2012 0593 F6020000 		.4byte	.LASF57
 2013 0597 01       		.byte	0x1
 2014 0598 F904     		.2byte	0x4f9
 2015 059a 6B000000 		.4byte	0x6b
 2016 059e 00000000 		.4byte	.LFB23
 2017 05a2 1C000000 		.4byte	.LFE23-.LFB23
 2018 05a6 01       		.uleb128 0x1
 2019 05a7 9C       		.byte	0x9c
 2020 05a8 BD050000 		.4byte	0x5bd
 2021 05ac 17       		.uleb128 0x17
 2022 05ad 13020000 		.4byte	.LASF40
 2023 05b1 01       		.byte	0x1
 2024 05b2 FC04     		.2byte	0x4fc
 2025 05b4 6B000000 		.4byte	0x6b
 2026 05b8 5A020000 		.4byte	.LLST17
 2027 05bc 00       		.byte	0
 2028 05bd 19       		.uleb128 0x19
 2029 05be 28000000 		.4byte	.LASF58
 2030 05c2 01       		.byte	0x1
 2031 05c3 4A05     		.2byte	0x54a
 2032 05c5 00000000 		.4byte	.LFB24
 2033 05c9 24000000 		.4byte	.LFE24-.LFB24
 2034 05cd 01       		.uleb128 0x1
 2035 05ce 9C       		.byte	0x9c
 2036 05cf F6050000 		.4byte	0x5f6
 2037 05d3 17       		.uleb128 0x17
 2038 05d4 3F050000 		.4byte	.LASF28
 2039 05d8 01       		.byte	0x1
 2040 05d9 4C05     		.2byte	0x54c
 2041 05db 6B000000 		.4byte	0x6b
 2042 05df 78020000 		.4byte	.LLST18
 2043 05e3 11       		.uleb128 0x11
 2044 05e4 06000000 		.4byte	.LVL65
 2045 05e8 50080000 		.4byte	0x850
 2046 05ec 12       		.uleb128 0x12
 2047 05ed 20000000 		.4byte	.LVL66
 2048 05f1 5B080000 		.4byte	0x85b
 2049 05f5 00       		.byte	0
 2050 05f6 19       		.uleb128 0x19
 2051 05f7 E9050000 		.4byte	.LASF59
 2052 05fb 01       		.byte	0x1
 2053 05fc A005     		.2byte	0x5a0
 2054 05fe 00000000 		.4byte	.LFB25
 2055 0602 60000000 		.4byte	.LFE25-.LFB25
 2056 0606 01       		.uleb128 0x1
 2057 0607 9C       		.byte	0x9c
 2058 0608 8F060000 		.4byte	0x68f
 2059 060c 1C       		.uleb128 0x1c
 2060 060d 8B010000 		.4byte	.LASF60
 2061 0611 01       		.byte	0x1
 2062 0612 A005     		.2byte	0x5a0
 2063 0614 6B000000 		.4byte	0x6b
 2064 0618 8B020000 		.4byte	.LLST19
ARM GAS  C:\Users\Yiquing\AppData\Local\Temp\ccJgHlWx.s 			page 67


 2065 061c 1F       		.uleb128 0x1f
 2066 061d 06000000 		.4byte	.LBB31
 2067 0621 5A000000 		.4byte	.LBE31-.LBB31
 2068 0625 17       		.uleb128 0x17
 2069 0626 76020000 		.4byte	.LASF61
 2070 062a 01       		.byte	0x1
 2071 062b A805     		.2byte	0x5a8
 2072 062d 6B000000 		.4byte	0x6b
 2073 0631 D0020000 		.4byte	.LLST20
 2074 0635 20       		.uleb128 0x20
 2075 0636 E8000000 		.4byte	0xe8
 2076 063a 0C000000 		.4byte	.LBB32
 2077 063e 00000000 		.4byte	.Ldebug_ranges0+0
 2078 0642 01       		.byte	0x1
 2079 0643 B005     		.2byte	0x5b0
 2080 0645 21       		.uleb128 0x21
 2081 0646 F5000000 		.4byte	0xf5
 2082 064a 18000000 		.4byte	.LBB36
 2083 064e 02000000 		.4byte	.LBE36-.LBB36
 2084 0652 01       		.byte	0x1
 2085 0653 B005     		.2byte	0x5b0
 2086 0655 63060000 		.4byte	0x663
 2087 0659 22       		.uleb128 0x22
 2088 065a 02010000 		.4byte	0x102
 2089 065e EE020000 		.4byte	.LLST21
 2090 0662 00       		.byte	0
 2091 0663 23       		.uleb128 0x23
 2092 0664 E8000000 		.4byte	0xe8
 2093 0668 42000000 		.4byte	.LBB38
 2094 066c 04000000 		.4byte	.LBE38-.LBB38
 2095 0670 01       		.byte	0x1
 2096 0671 CA05     		.2byte	0x5ca
 2097 0673 24       		.uleb128 0x24
 2098 0674 F5000000 		.4byte	0xf5
 2099 0678 4A000000 		.4byte	.LBB40
 2100 067c 04000000 		.4byte	.LBE40-.LBB40
 2101 0680 01       		.byte	0x1
 2102 0681 CA05     		.2byte	0x5ca
 2103 0683 22       		.uleb128 0x22
 2104 0684 02010000 		.4byte	0x102
 2105 0688 01030000 		.4byte	.LLST22
 2106 068c 00       		.byte	0
 2107 068d 00       		.byte	0
 2108 068e 00       		.byte	0
 2109 068f 19       		.uleb128 0x19
 2110 0690 71050000 		.4byte	.LASF62
 2111 0694 01       		.byte	0x1
 2112 0695 2406     		.2byte	0x624
 2113 0697 00000000 		.4byte	.LFB26
 2114 069b 18000000 		.4byte	.LFE26-.LFB26
 2115 069f 01       		.uleb128 0x1
 2116 06a0 9C       		.byte	0x9c
 2117 06a1 DC060000 		.4byte	0x6dc
 2118 06a5 1A       		.uleb128 0x1a
 2119 06a6 56010000 		.4byte	.LASF44
 2120 06aa 01       		.byte	0x1
 2121 06ab 2406     		.2byte	0x624
ARM GAS  C:\Users\Yiquing\AppData\Local\Temp\ccJgHlWx.s 			page 68


 2122 06ad 6B000000 		.4byte	0x6b
 2123 06b1 01       		.uleb128 0x1
 2124 06b2 50       		.byte	0x50
 2125 06b3 23       		.uleb128 0x23
 2126 06b4 E8000000 		.4byte	0xe8
 2127 06b8 02000000 		.4byte	.LBB42
 2128 06bc 02000000 		.4byte	.LBE42-.LBB42
 2129 06c0 01       		.byte	0x1
 2130 06c1 2A06     		.2byte	0x62a
 2131 06c3 24       		.uleb128 0x24
 2132 06c4 F5000000 		.4byte	0xf5
 2133 06c8 10000000 		.4byte	.LBB44
 2134 06cc 08000000 		.4byte	.LBE44-.LBB44
 2135 06d0 01       		.byte	0x1
 2136 06d1 3106     		.2byte	0x631
 2137 06d3 15       		.uleb128 0x15
 2138 06d4 02010000 		.4byte	0x102
 2139 06d8 01       		.uleb128 0x1
 2140 06d9 52       		.byte	0x52
 2141 06da 00       		.byte	0
 2142 06db 00       		.byte	0
 2143 06dc 19       		.uleb128 0x19
 2144 06dd E7000000 		.4byte	.LASF63
 2145 06e1 01       		.byte	0x1
 2146 06e2 5006     		.2byte	0x650
 2147 06e4 00000000 		.4byte	.LFB27
 2148 06e8 1C000000 		.4byte	.LFE27-.LFB27
 2149 06ec 01       		.uleb128 0x1
 2150 06ed 9C       		.byte	0x9c
 2151 06ee 38070000 		.4byte	0x738
 2152 06f2 23       		.uleb128 0x23
 2153 06f3 E8000000 		.4byte	0xe8
 2154 06f7 00000000 		.4byte	.LBB46
 2155 06fb 04000000 		.4byte	.LBE46-.LBB46
 2156 06ff 01       		.byte	0x1
 2157 0700 5206     		.2byte	0x652
 2158 0702 21       		.uleb128 0x21
 2159 0703 F5000000 		.4byte	0xf5
 2160 0707 08000000 		.4byte	.LBB48
 2161 070b 02000000 		.4byte	.LBE48-.LBB48
 2162 070f 01       		.byte	0x1
 2163 0710 5206     		.2byte	0x652
 2164 0712 20070000 		.4byte	0x720
 2165 0716 22       		.uleb128 0x22
 2166 0717 02010000 		.4byte	0x102
 2167 071b 14030000 		.4byte	.LLST23
 2168 071f 00       		.byte	0
 2169 0720 24       		.uleb128 0x24
 2170 0721 0F010000 		.4byte	0x10f
 2171 0725 0E000000 		.4byte	.LBB50
 2172 0729 0E000000 		.4byte	.LBE50-.LBB50
 2173 072d 01       		.byte	0x1
 2174 072e 5806     		.2byte	0x658
 2175 0730 25       		.uleb128 0x25
 2176 0731 1C010000 		.4byte	0x11c
 2177 0735 20       		.byte	0x20
 2178 0736 00       		.byte	0
ARM GAS  C:\Users\Yiquing\AppData\Local\Temp\ccJgHlWx.s 			page 69


 2179 0737 00       		.byte	0
 2180 0738 19       		.uleb128 0x19
 2181 0739 29030000 		.4byte	.LASF64
 2182 073d 01       		.byte	0x1
 2183 073e 7006     		.2byte	0x670
 2184 0740 00000000 		.4byte	.LFB28
 2185 0744 20000000 		.4byte	.LFE28-.LFB28
 2186 0748 01       		.uleb128 0x1
 2187 0749 9C       		.byte	0x9c
 2188 074a 94070000 		.4byte	0x794
 2189 074e 21       		.uleb128 0x21
 2190 074f 0F010000 		.4byte	0x10f
 2191 0753 00000000 		.4byte	.LBB52
 2192 0757 06000000 		.4byte	.LBE52-.LBB52
 2193 075b 01       		.byte	0x1
 2194 075c 7406     		.2byte	0x674
 2195 075e 69070000 		.4byte	0x769
 2196 0762 25       		.uleb128 0x25
 2197 0763 1C010000 		.4byte	0x11c
 2198 0767 00       		.byte	0
 2199 0768 00       		.byte	0
 2200 0769 23       		.uleb128 0x23
 2201 076a E8000000 		.4byte	0xe8
 2202 076e 06000000 		.4byte	.LBB54
 2203 0772 04000000 		.4byte	.LBE54-.LBB54
 2204 0776 01       		.byte	0x1
 2205 0777 7706     		.2byte	0x677
 2206 0779 24       		.uleb128 0x24
 2207 077a F5000000 		.4byte	0xf5
 2208 077e 0E000000 		.4byte	.LBB56
 2209 0782 04000000 		.4byte	.LBE56-.LBB56
 2210 0786 01       		.byte	0x1
 2211 0787 7706     		.2byte	0x677
 2212 0789 22       		.uleb128 0x22
 2213 078a 02010000 		.4byte	0x102
 2214 078e 27030000 		.4byte	.LLST24
 2215 0792 00       		.byte	0
 2216 0793 00       		.byte	0
 2217 0794 26       		.uleb128 0x26
 2218 0795 5C020000 		.4byte	.LASF65
 2219 0799 01       		.byte	0x1
 2220 079a 1B       		.byte	0x1b
 2221 079b 6B000000 		.4byte	0x6b
 2222 079f 05       		.uleb128 0x5
 2223 07a0 03       		.byte	0x3
 2224 07a1 00000000 		.4byte	UART_READER_initVar
 2225 07a5 26       		.uleb128 0x26
 2226 07a6 42030000 		.4byte	.LASF66
 2227 07aa 01       		.byte	0x1
 2228 07ab 24       		.byte	0x24
 2229 07ac 6B000000 		.4byte	0x6b
 2230 07b0 05       		.uleb128 0x5
 2231 07b1 03       		.byte	0x3
 2232 07b2 00000000 		.4byte	UART_READER_errorStatus
 2233 07b6 27       		.uleb128 0x27
 2234 07b7 6B000000 		.4byte	0x6b
 2235 07bb C6070000 		.4byte	0x7c6
ARM GAS  C:\Users\Yiquing\AppData\Local\Temp\ccJgHlWx.s 			page 70


 2236 07bf 28       		.uleb128 0x28
 2237 07c0 E1000000 		.4byte	0xe1
 2238 07c4 7F       		.byte	0x7f
 2239 07c5 00       		.byte	0
 2240 07c6 26       		.uleb128 0x26
 2241 07c7 5F030000 		.4byte	.LASF67
 2242 07cb 01       		.byte	0x1
 2243 07cc 25       		.byte	0x25
 2244 07cd D7070000 		.4byte	0x7d7
 2245 07d1 05       		.uleb128 0x5
 2246 07d2 03       		.byte	0x3
 2247 07d3 00000000 		.4byte	UART_READER_rxBuffer
 2248 07d7 06       		.uleb128 0x6
 2249 07d8 B6070000 		.4byte	0x7b6
 2250 07dc 26       		.uleb128 0x26
 2251 07dd 7E020000 		.4byte	.LASF68
 2252 07e1 01       		.byte	0x1
 2253 07e2 26       		.byte	0x26
 2254 07e3 B8000000 		.4byte	0xb8
 2255 07e7 05       		.uleb128 0x5
 2256 07e8 03       		.byte	0x3
 2257 07e9 00000000 		.4byte	UART_READER_rxBufferRead
 2258 07ed 26       		.uleb128 0x26
 2259 07ee 1E060000 		.4byte	.LASF69
 2260 07f2 01       		.byte	0x1
 2261 07f3 27       		.byte	0x27
 2262 07f4 B8000000 		.4byte	0xb8
 2263 07f8 05       		.uleb128 0x5
 2264 07f9 03       		.byte	0x3
 2265 07fa 00000000 		.4byte	UART_READER_rxBufferWrite
 2266 07fe 26       		.uleb128 0x26
 2267 07ff 1F010000 		.4byte	.LASF70
 2268 0803 01       		.byte	0x1
 2269 0804 28       		.byte	0x28
 2270 0805 B8000000 		.4byte	0xb8
 2271 0809 05       		.uleb128 0x5
 2272 080a 03       		.byte	0x3
 2273 080b 00000000 		.4byte	UART_READER_rxBufferLoopDetect
 2274 080f 26       		.uleb128 0x26
 2275 0810 C2020000 		.4byte	.LASF71
 2276 0814 01       		.byte	0x1
 2277 0815 29       		.byte	0x29
 2278 0816 B8000000 		.4byte	0xb8
 2279 081a 05       		.uleb128 0x5
 2280 081b 03       		.byte	0x3
 2281 081c 00000000 		.4byte	UART_READER_rxBufferOverflow
 2282 0820 29       		.uleb128 0x29
 2283 0821 2B020000 		.4byte	.LASF79
 2284 0825 03       		.byte	0x3
 2285 0826 89       		.byte	0x89
 2286 0827 CE000000 		.4byte	0xce
 2287 082b 3A080000 		.4byte	0x83a
 2288 082f 2A       		.uleb128 0x2a
 2289 0830 6B000000 		.4byte	0x6b
 2290 0834 2A       		.uleb128 0x2a
 2291 0835 CE000000 		.4byte	0xce
 2292 0839 00       		.byte	0
ARM GAS  C:\Users\Yiquing\AppData\Local\Temp\ccJgHlWx.s 			page 71


 2293 083a 2B       		.uleb128 0x2b
 2294 083b DF020000 		.4byte	.LASF72
 2295 083f 03       		.byte	0x3
 2296 0840 8C       		.byte	0x8c
 2297 0841 50080000 		.4byte	0x850
 2298 0845 2A       		.uleb128 0x2a
 2299 0846 6B000000 		.4byte	0x6b
 2300 084a 2A       		.uleb128 0x2a
 2301 084b 6B000000 		.4byte	0x6b
 2302 084f 00       		.byte	0
 2303 0850 2C       		.uleb128 0x2c
 2304 0851 E8010000 		.4byte	.LASF74
 2305 0855 03       		.byte	0x3
 2306 0856 7E       		.byte	0x7e
 2307 0857 6B000000 		.4byte	0x6b
 2308 085b 2D       		.uleb128 0x2d
 2309 085c 07000000 		.4byte	.LASF80
 2310 0860 03       		.byte	0x3
 2311 0861 7F       		.byte	0x7f
 2312 0862 2A       		.uleb128 0x2a
 2313 0863 6B000000 		.4byte	0x6b
 2314 0867 00       		.byte	0
 2315 0868 00       		.byte	0
 2316              		.section	.debug_abbrev,"",%progbits
 2317              	.Ldebug_abbrev0:
 2318 0000 01       		.uleb128 0x1
 2319 0001 11       		.uleb128 0x11
 2320 0002 01       		.byte	0x1
 2321 0003 25       		.uleb128 0x25
 2322 0004 0E       		.uleb128 0xe
 2323 0005 13       		.uleb128 0x13
 2324 0006 0B       		.uleb128 0xb
 2325 0007 03       		.uleb128 0x3
 2326 0008 0E       		.uleb128 0xe
 2327 0009 1B       		.uleb128 0x1b
 2328 000a 0E       		.uleb128 0xe
 2329 000b 55       		.uleb128 0x55
 2330 000c 17       		.uleb128 0x17
 2331 000d 11       		.uleb128 0x11
 2332 000e 01       		.uleb128 0x1
 2333 000f 10       		.uleb128 0x10
 2334 0010 17       		.uleb128 0x17
 2335 0011 00       		.byte	0
 2336 0012 00       		.byte	0
 2337 0013 02       		.uleb128 0x2
 2338 0014 24       		.uleb128 0x24
 2339 0015 00       		.byte	0
 2340 0016 0B       		.uleb128 0xb
 2341 0017 0B       		.uleb128 0xb
 2342 0018 3E       		.uleb128 0x3e
 2343 0019 0B       		.uleb128 0xb
 2344 001a 03       		.uleb128 0x3
 2345 001b 0E       		.uleb128 0xe
 2346 001c 00       		.byte	0
 2347 001d 00       		.byte	0
 2348 001e 03       		.uleb128 0x3
 2349 001f 24       		.uleb128 0x24
ARM GAS  C:\Users\Yiquing\AppData\Local\Temp\ccJgHlWx.s 			page 72


 2350 0020 00       		.byte	0
 2351 0021 0B       		.uleb128 0xb
 2352 0022 0B       		.uleb128 0xb
 2353 0023 3E       		.uleb128 0x3e
 2354 0024 0B       		.uleb128 0xb
 2355 0025 03       		.uleb128 0x3
 2356 0026 08       		.uleb128 0x8
 2357 0027 00       		.byte	0
 2358 0028 00       		.byte	0
 2359 0029 04       		.uleb128 0x4
 2360 002a 16       		.uleb128 0x16
 2361 002b 00       		.byte	0
 2362 002c 03       		.uleb128 0x3
 2363 002d 0E       		.uleb128 0xe
 2364 002e 3A       		.uleb128 0x3a
 2365 002f 0B       		.uleb128 0xb
 2366 0030 3B       		.uleb128 0x3b
 2367 0031 0B       		.uleb128 0xb
 2368 0032 49       		.uleb128 0x49
 2369 0033 13       		.uleb128 0x13
 2370 0034 00       		.byte	0
 2371 0035 00       		.byte	0
 2372 0036 05       		.uleb128 0x5
 2373 0037 16       		.uleb128 0x16
 2374 0038 00       		.byte	0
 2375 0039 03       		.uleb128 0x3
 2376 003a 0E       		.uleb128 0xe
 2377 003b 3A       		.uleb128 0x3a
 2378 003c 0B       		.uleb128 0xb
 2379 003d 3B       		.uleb128 0x3b
 2380 003e 05       		.uleb128 0x5
 2381 003f 49       		.uleb128 0x49
 2382 0040 13       		.uleb128 0x13
 2383 0041 00       		.byte	0
 2384 0042 00       		.byte	0
 2385 0043 06       		.uleb128 0x6
 2386 0044 35       		.uleb128 0x35
 2387 0045 00       		.byte	0
 2388 0046 49       		.uleb128 0x49
 2389 0047 13       		.uleb128 0x13
 2390 0048 00       		.byte	0
 2391 0049 00       		.byte	0
 2392 004a 07       		.uleb128 0x7
 2393 004b 0F       		.uleb128 0xf
 2394 004c 00       		.byte	0
 2395 004d 0B       		.uleb128 0xb
 2396 004e 0B       		.uleb128 0xb
 2397 004f 49       		.uleb128 0x49
 2398 0050 13       		.uleb128 0x13
 2399 0051 00       		.byte	0
 2400 0052 00       		.byte	0
 2401 0053 08       		.uleb128 0x8
 2402 0054 15       		.uleb128 0x15
 2403 0055 00       		.byte	0
 2404 0056 27       		.uleb128 0x27
 2405 0057 19       		.uleb128 0x19
 2406 0058 00       		.byte	0
ARM GAS  C:\Users\Yiquing\AppData\Local\Temp\ccJgHlWx.s 			page 73


 2407 0059 00       		.byte	0
 2408 005a 09       		.uleb128 0x9
 2409 005b 2E       		.uleb128 0x2e
 2410 005c 00       		.byte	0
 2411 005d 3F       		.uleb128 0x3f
 2412 005e 19       		.uleb128 0x19
 2413 005f 03       		.uleb128 0x3
 2414 0060 0E       		.uleb128 0xe
 2415 0061 3A       		.uleb128 0x3a
 2416 0062 0B       		.uleb128 0xb
 2417 0063 3B       		.uleb128 0x3b
 2418 0064 05       		.uleb128 0x5
 2419 0065 27       		.uleb128 0x27
 2420 0066 19       		.uleb128 0x19
 2421 0067 49       		.uleb128 0x49
 2422 0068 13       		.uleb128 0x13
 2423 0069 20       		.uleb128 0x20
 2424 006a 0B       		.uleb128 0xb
 2425 006b 00       		.byte	0
 2426 006c 00       		.byte	0
 2427 006d 0A       		.uleb128 0xa
 2428 006e 2E       		.uleb128 0x2e
 2429 006f 01       		.byte	0x1
 2430 0070 3F       		.uleb128 0x3f
 2431 0071 19       		.uleb128 0x19
 2432 0072 03       		.uleb128 0x3
 2433 0073 0E       		.uleb128 0xe
 2434 0074 3A       		.uleb128 0x3a
 2435 0075 0B       		.uleb128 0xb
 2436 0076 3B       		.uleb128 0x3b
 2437 0077 05       		.uleb128 0x5
 2438 0078 27       		.uleb128 0x27
 2439 0079 19       		.uleb128 0x19
 2440 007a 20       		.uleb128 0x20
 2441 007b 0B       		.uleb128 0xb
 2442 007c 01       		.uleb128 0x1
 2443 007d 13       		.uleb128 0x13
 2444 007e 00       		.byte	0
 2445 007f 00       		.byte	0
 2446 0080 0B       		.uleb128 0xb
 2447 0081 05       		.uleb128 0x5
 2448 0082 00       		.byte	0
 2449 0083 03       		.uleb128 0x3
 2450 0084 0E       		.uleb128 0xe
 2451 0085 3A       		.uleb128 0x3a
 2452 0086 0B       		.uleb128 0xb
 2453 0087 3B       		.uleb128 0x3b
 2454 0088 05       		.uleb128 0x5
 2455 0089 49       		.uleb128 0x49
 2456 008a 13       		.uleb128 0x13
 2457 008b 00       		.byte	0
 2458 008c 00       		.byte	0
 2459 008d 0C       		.uleb128 0xc
 2460 008e 2E       		.uleb128 0x2e
 2461 008f 01       		.byte	0x1
 2462 0090 3F       		.uleb128 0x3f
 2463 0091 19       		.uleb128 0x19
ARM GAS  C:\Users\Yiquing\AppData\Local\Temp\ccJgHlWx.s 			page 74


 2464 0092 03       		.uleb128 0x3
 2465 0093 0E       		.uleb128 0xe
 2466 0094 3A       		.uleb128 0x3a
 2467 0095 0B       		.uleb128 0xb
 2468 0096 3B       		.uleb128 0x3b
 2469 0097 0B       		.uleb128 0xb
 2470 0098 27       		.uleb128 0x27
 2471 0099 19       		.uleb128 0x19
 2472 009a 11       		.uleb128 0x11
 2473 009b 01       		.uleb128 0x1
 2474 009c 12       		.uleb128 0x12
 2475 009d 06       		.uleb128 0x6
 2476 009e 40       		.uleb128 0x40
 2477 009f 18       		.uleb128 0x18
 2478 00a0 9742     		.uleb128 0x2117
 2479 00a2 19       		.uleb128 0x19
 2480 00a3 01       		.uleb128 0x1
 2481 00a4 13       		.uleb128 0x13
 2482 00a5 00       		.byte	0
 2483 00a6 00       		.byte	0
 2484 00a7 0D       		.uleb128 0xd
 2485 00a8 898201   		.uleb128 0x4109
 2486 00ab 01       		.byte	0x1
 2487 00ac 11       		.uleb128 0x11
 2488 00ad 01       		.uleb128 0x1
 2489 00ae 31       		.uleb128 0x31
 2490 00af 13       		.uleb128 0x13
 2491 00b0 01       		.uleb128 0x1
 2492 00b1 13       		.uleb128 0x13
 2493 00b2 00       		.byte	0
 2494 00b3 00       		.byte	0
 2495 00b4 0E       		.uleb128 0xe
 2496 00b5 8A8201   		.uleb128 0x410a
 2497 00b8 00       		.byte	0
 2498 00b9 02       		.uleb128 0x2
 2499 00ba 18       		.uleb128 0x18
 2500 00bb 9142     		.uleb128 0x2111
 2501 00bd 18       		.uleb128 0x18
 2502 00be 00       		.byte	0
 2503 00bf 00       		.byte	0
 2504 00c0 0F       		.uleb128 0xf
 2505 00c1 898201   		.uleb128 0x4109
 2506 00c4 01       		.byte	0x1
 2507 00c5 11       		.uleb128 0x11
 2508 00c6 01       		.uleb128 0x1
 2509 00c7 31       		.uleb128 0x31
 2510 00c8 13       		.uleb128 0x13
 2511 00c9 00       		.byte	0
 2512 00ca 00       		.byte	0
 2513 00cb 10       		.uleb128 0x10
 2514 00cc 34       		.uleb128 0x34
 2515 00cd 00       		.byte	0
 2516 00ce 03       		.uleb128 0x3
 2517 00cf 0E       		.uleb128 0xe
 2518 00d0 3A       		.uleb128 0x3a
 2519 00d1 0B       		.uleb128 0xb
 2520 00d2 3B       		.uleb128 0x3b
ARM GAS  C:\Users\Yiquing\AppData\Local\Temp\ccJgHlWx.s 			page 75


 2521 00d3 0B       		.uleb128 0xb
 2522 00d4 49       		.uleb128 0x49
 2523 00d5 13       		.uleb128 0x13
 2524 00d6 02       		.uleb128 0x2
 2525 00d7 17       		.uleb128 0x17
 2526 00d8 00       		.byte	0
 2527 00d9 00       		.byte	0
 2528 00da 11       		.uleb128 0x11
 2529 00db 898201   		.uleb128 0x4109
 2530 00de 00       		.byte	0
 2531 00df 11       		.uleb128 0x11
 2532 00e0 01       		.uleb128 0x1
 2533 00e1 31       		.uleb128 0x31
 2534 00e2 13       		.uleb128 0x13
 2535 00e3 00       		.byte	0
 2536 00e4 00       		.byte	0
 2537 00e5 12       		.uleb128 0x12
 2538 00e6 898201   		.uleb128 0x4109
 2539 00e9 00       		.byte	0
 2540 00ea 11       		.uleb128 0x11
 2541 00eb 01       		.uleb128 0x1
 2542 00ec 9542     		.uleb128 0x2115
 2543 00ee 19       		.uleb128 0x19
 2544 00ef 31       		.uleb128 0x31
 2545 00f0 13       		.uleb128 0x13
 2546 00f1 00       		.byte	0
 2547 00f2 00       		.byte	0
 2548 00f3 13       		.uleb128 0x13
 2549 00f4 2E       		.uleb128 0x2e
 2550 00f5 00       		.byte	0
 2551 00f6 31       		.uleb128 0x31
 2552 00f7 13       		.uleb128 0x13
 2553 00f8 11       		.uleb128 0x11
 2554 00f9 01       		.uleb128 0x1
 2555 00fa 12       		.uleb128 0x12
 2556 00fb 06       		.uleb128 0x6
 2557 00fc 40       		.uleb128 0x40
 2558 00fd 18       		.uleb128 0x18
 2559 00fe 9742     		.uleb128 0x2117
 2560 0100 19       		.uleb128 0x19
 2561 0101 00       		.byte	0
 2562 0102 00       		.byte	0
 2563 0103 14       		.uleb128 0x14
 2564 0104 2E       		.uleb128 0x2e
 2565 0105 01       		.byte	0x1
 2566 0106 31       		.uleb128 0x31
 2567 0107 13       		.uleb128 0x13
 2568 0108 11       		.uleb128 0x11
 2569 0109 01       		.uleb128 0x1
 2570 010a 12       		.uleb128 0x12
 2571 010b 06       		.uleb128 0x6
 2572 010c 40       		.uleb128 0x40
 2573 010d 18       		.uleb128 0x18
 2574 010e 9742     		.uleb128 0x2117
 2575 0110 19       		.uleb128 0x19
 2576 0111 01       		.uleb128 0x1
 2577 0112 13       		.uleb128 0x13
ARM GAS  C:\Users\Yiquing\AppData\Local\Temp\ccJgHlWx.s 			page 76


 2578 0113 00       		.byte	0
 2579 0114 00       		.byte	0
 2580 0115 15       		.uleb128 0x15
 2581 0116 05       		.uleb128 0x5
 2582 0117 00       		.byte	0
 2583 0118 31       		.uleb128 0x31
 2584 0119 13       		.uleb128 0x13
 2585 011a 02       		.uleb128 0x2
 2586 011b 18       		.uleb128 0x18
 2587 011c 00       		.byte	0
 2588 011d 00       		.byte	0
 2589 011e 16       		.uleb128 0x16
 2590 011f 2E       		.uleb128 0x2e
 2591 0120 01       		.byte	0x1
 2592 0121 3F       		.uleb128 0x3f
 2593 0122 19       		.uleb128 0x19
 2594 0123 03       		.uleb128 0x3
 2595 0124 0E       		.uleb128 0xe
 2596 0125 3A       		.uleb128 0x3a
 2597 0126 0B       		.uleb128 0xb
 2598 0127 3B       		.uleb128 0x3b
 2599 0128 05       		.uleb128 0x5
 2600 0129 27       		.uleb128 0x27
 2601 012a 19       		.uleb128 0x19
 2602 012b 49       		.uleb128 0x49
 2603 012c 13       		.uleb128 0x13
 2604 012d 11       		.uleb128 0x11
 2605 012e 01       		.uleb128 0x1
 2606 012f 12       		.uleb128 0x12
 2607 0130 06       		.uleb128 0x6
 2608 0131 40       		.uleb128 0x40
 2609 0132 18       		.uleb128 0x18
 2610 0133 9742     		.uleb128 0x2117
 2611 0135 19       		.uleb128 0x19
 2612 0136 01       		.uleb128 0x1
 2613 0137 13       		.uleb128 0x13
 2614 0138 00       		.byte	0
 2615 0139 00       		.byte	0
 2616 013a 17       		.uleb128 0x17
 2617 013b 34       		.uleb128 0x34
 2618 013c 00       		.byte	0
 2619 013d 03       		.uleb128 0x3
 2620 013e 0E       		.uleb128 0xe
 2621 013f 3A       		.uleb128 0x3a
 2622 0140 0B       		.uleb128 0xb
 2623 0141 3B       		.uleb128 0x3b
 2624 0142 05       		.uleb128 0x5
 2625 0143 49       		.uleb128 0x49
 2626 0144 13       		.uleb128 0x13
 2627 0145 02       		.uleb128 0x2
 2628 0146 17       		.uleb128 0x17
 2629 0147 00       		.byte	0
 2630 0148 00       		.byte	0
 2631 0149 18       		.uleb128 0x18
 2632 014a 34       		.uleb128 0x34
 2633 014b 00       		.byte	0
 2634 014c 03       		.uleb128 0x3
ARM GAS  C:\Users\Yiquing\AppData\Local\Temp\ccJgHlWx.s 			page 77


 2635 014d 0E       		.uleb128 0xe
 2636 014e 3A       		.uleb128 0x3a
 2637 014f 0B       		.uleb128 0xb
 2638 0150 3B       		.uleb128 0x3b
 2639 0151 05       		.uleb128 0x5
 2640 0152 49       		.uleb128 0x49
 2641 0153 13       		.uleb128 0x13
 2642 0154 02       		.uleb128 0x2
 2643 0155 18       		.uleb128 0x18
 2644 0156 00       		.byte	0
 2645 0157 00       		.byte	0
 2646 0158 19       		.uleb128 0x19
 2647 0159 2E       		.uleb128 0x2e
 2648 015a 01       		.byte	0x1
 2649 015b 3F       		.uleb128 0x3f
 2650 015c 19       		.uleb128 0x19
 2651 015d 03       		.uleb128 0x3
 2652 015e 0E       		.uleb128 0xe
 2653 015f 3A       		.uleb128 0x3a
 2654 0160 0B       		.uleb128 0xb
 2655 0161 3B       		.uleb128 0x3b
 2656 0162 05       		.uleb128 0x5
 2657 0163 27       		.uleb128 0x27
 2658 0164 19       		.uleb128 0x19
 2659 0165 11       		.uleb128 0x11
 2660 0166 01       		.uleb128 0x1
 2661 0167 12       		.uleb128 0x12
 2662 0168 06       		.uleb128 0x6
 2663 0169 40       		.uleb128 0x40
 2664 016a 18       		.uleb128 0x18
 2665 016b 9742     		.uleb128 0x2117
 2666 016d 19       		.uleb128 0x19
 2667 016e 01       		.uleb128 0x1
 2668 016f 13       		.uleb128 0x13
 2669 0170 00       		.byte	0
 2670 0171 00       		.byte	0
 2671 0172 1A       		.uleb128 0x1a
 2672 0173 05       		.uleb128 0x5
 2673 0174 00       		.byte	0
 2674 0175 03       		.uleb128 0x3
 2675 0176 0E       		.uleb128 0xe
 2676 0177 3A       		.uleb128 0x3a
 2677 0178 0B       		.uleb128 0xb
 2678 0179 3B       		.uleb128 0x3b
 2679 017a 05       		.uleb128 0x5
 2680 017b 49       		.uleb128 0x49
 2681 017c 13       		.uleb128 0x13
 2682 017d 02       		.uleb128 0x2
 2683 017e 18       		.uleb128 0x18
 2684 017f 00       		.byte	0
 2685 0180 00       		.byte	0
 2686 0181 1B       		.uleb128 0x1b
 2687 0182 2E       		.uleb128 0x2e
 2688 0183 00       		.byte	0
 2689 0184 3F       		.uleb128 0x3f
 2690 0185 19       		.uleb128 0x19
 2691 0186 03       		.uleb128 0x3
ARM GAS  C:\Users\Yiquing\AppData\Local\Temp\ccJgHlWx.s 			page 78


 2692 0187 0E       		.uleb128 0xe
 2693 0188 3A       		.uleb128 0x3a
 2694 0189 0B       		.uleb128 0xb
 2695 018a 3B       		.uleb128 0x3b
 2696 018b 05       		.uleb128 0x5
 2697 018c 27       		.uleb128 0x27
 2698 018d 19       		.uleb128 0x19
 2699 018e 49       		.uleb128 0x49
 2700 018f 13       		.uleb128 0x13
 2701 0190 11       		.uleb128 0x11
 2702 0191 01       		.uleb128 0x1
 2703 0192 12       		.uleb128 0x12
 2704 0193 06       		.uleb128 0x6
 2705 0194 40       		.uleb128 0x40
 2706 0195 18       		.uleb128 0x18
 2707 0196 9742     		.uleb128 0x2117
 2708 0198 19       		.uleb128 0x19
 2709 0199 00       		.byte	0
 2710 019a 00       		.byte	0
 2711 019b 1C       		.uleb128 0x1c
 2712 019c 05       		.uleb128 0x5
 2713 019d 00       		.byte	0
 2714 019e 03       		.uleb128 0x3
 2715 019f 0E       		.uleb128 0xe
 2716 01a0 3A       		.uleb128 0x3a
 2717 01a1 0B       		.uleb128 0xb
 2718 01a2 3B       		.uleb128 0x3b
 2719 01a3 05       		.uleb128 0x5
 2720 01a4 49       		.uleb128 0x49
 2721 01a5 13       		.uleb128 0x13
 2722 01a6 02       		.uleb128 0x2
 2723 01a7 17       		.uleb128 0x17
 2724 01a8 00       		.byte	0
 2725 01a9 00       		.byte	0
 2726 01aa 1D       		.uleb128 0x1d
 2727 01ab 26       		.uleb128 0x26
 2728 01ac 00       		.byte	0
 2729 01ad 49       		.uleb128 0x49
 2730 01ae 13       		.uleb128 0x13
 2731 01af 00       		.byte	0
 2732 01b0 00       		.byte	0
 2733 01b1 1E       		.uleb128 0x1e
 2734 01b2 898201   		.uleb128 0x4109
 2735 01b5 01       		.byte	0x1
 2736 01b6 11       		.uleb128 0x11
 2737 01b7 01       		.uleb128 0x1
 2738 01b8 9542     		.uleb128 0x2115
 2739 01ba 19       		.uleb128 0x19
 2740 01bb 31       		.uleb128 0x31
 2741 01bc 13       		.uleb128 0x13
 2742 01bd 00       		.byte	0
 2743 01be 00       		.byte	0
 2744 01bf 1F       		.uleb128 0x1f
 2745 01c0 0B       		.uleb128 0xb
 2746 01c1 01       		.byte	0x1
 2747 01c2 11       		.uleb128 0x11
 2748 01c3 01       		.uleb128 0x1
ARM GAS  C:\Users\Yiquing\AppData\Local\Temp\ccJgHlWx.s 			page 79


 2749 01c4 12       		.uleb128 0x12
 2750 01c5 06       		.uleb128 0x6
 2751 01c6 00       		.byte	0
 2752 01c7 00       		.byte	0
 2753 01c8 20       		.uleb128 0x20
 2754 01c9 1D       		.uleb128 0x1d
 2755 01ca 00       		.byte	0
 2756 01cb 31       		.uleb128 0x31
 2757 01cc 13       		.uleb128 0x13
 2758 01cd 52       		.uleb128 0x52
 2759 01ce 01       		.uleb128 0x1
 2760 01cf 55       		.uleb128 0x55
 2761 01d0 17       		.uleb128 0x17
 2762 01d1 58       		.uleb128 0x58
 2763 01d2 0B       		.uleb128 0xb
 2764 01d3 59       		.uleb128 0x59
 2765 01d4 05       		.uleb128 0x5
 2766 01d5 00       		.byte	0
 2767 01d6 00       		.byte	0
 2768 01d7 21       		.uleb128 0x21
 2769 01d8 1D       		.uleb128 0x1d
 2770 01d9 01       		.byte	0x1
 2771 01da 31       		.uleb128 0x31
 2772 01db 13       		.uleb128 0x13
 2773 01dc 11       		.uleb128 0x11
 2774 01dd 01       		.uleb128 0x1
 2775 01de 12       		.uleb128 0x12
 2776 01df 06       		.uleb128 0x6
 2777 01e0 58       		.uleb128 0x58
 2778 01e1 0B       		.uleb128 0xb
 2779 01e2 59       		.uleb128 0x59
 2780 01e3 05       		.uleb128 0x5
 2781 01e4 01       		.uleb128 0x1
 2782 01e5 13       		.uleb128 0x13
 2783 01e6 00       		.byte	0
 2784 01e7 00       		.byte	0
 2785 01e8 22       		.uleb128 0x22
 2786 01e9 05       		.uleb128 0x5
 2787 01ea 00       		.byte	0
 2788 01eb 31       		.uleb128 0x31
 2789 01ec 13       		.uleb128 0x13
 2790 01ed 02       		.uleb128 0x2
 2791 01ee 17       		.uleb128 0x17
 2792 01ef 00       		.byte	0
 2793 01f0 00       		.byte	0
 2794 01f1 23       		.uleb128 0x23
 2795 01f2 1D       		.uleb128 0x1d
 2796 01f3 00       		.byte	0
 2797 01f4 31       		.uleb128 0x31
 2798 01f5 13       		.uleb128 0x13
 2799 01f6 11       		.uleb128 0x11
 2800 01f7 01       		.uleb128 0x1
 2801 01f8 12       		.uleb128 0x12
 2802 01f9 06       		.uleb128 0x6
 2803 01fa 58       		.uleb128 0x58
 2804 01fb 0B       		.uleb128 0xb
 2805 01fc 59       		.uleb128 0x59
ARM GAS  C:\Users\Yiquing\AppData\Local\Temp\ccJgHlWx.s 			page 80


 2806 01fd 05       		.uleb128 0x5
 2807 01fe 00       		.byte	0
 2808 01ff 00       		.byte	0
 2809 0200 24       		.uleb128 0x24
 2810 0201 1D       		.uleb128 0x1d
 2811 0202 01       		.byte	0x1
 2812 0203 31       		.uleb128 0x31
 2813 0204 13       		.uleb128 0x13
 2814 0205 11       		.uleb128 0x11
 2815 0206 01       		.uleb128 0x1
 2816 0207 12       		.uleb128 0x12
 2817 0208 06       		.uleb128 0x6
 2818 0209 58       		.uleb128 0x58
 2819 020a 0B       		.uleb128 0xb
 2820 020b 59       		.uleb128 0x59
 2821 020c 05       		.uleb128 0x5
 2822 020d 00       		.byte	0
 2823 020e 00       		.byte	0
 2824 020f 25       		.uleb128 0x25
 2825 0210 05       		.uleb128 0x5
 2826 0211 00       		.byte	0
 2827 0212 31       		.uleb128 0x31
 2828 0213 13       		.uleb128 0x13
 2829 0214 1C       		.uleb128 0x1c
 2830 0215 0B       		.uleb128 0xb
 2831 0216 00       		.byte	0
 2832 0217 00       		.byte	0
 2833 0218 26       		.uleb128 0x26
 2834 0219 34       		.uleb128 0x34
 2835 021a 00       		.byte	0
 2836 021b 03       		.uleb128 0x3
 2837 021c 0E       		.uleb128 0xe
 2838 021d 3A       		.uleb128 0x3a
 2839 021e 0B       		.uleb128 0xb
 2840 021f 3B       		.uleb128 0x3b
 2841 0220 0B       		.uleb128 0xb
 2842 0221 49       		.uleb128 0x49
 2843 0222 13       		.uleb128 0x13
 2844 0223 3F       		.uleb128 0x3f
 2845 0224 19       		.uleb128 0x19
 2846 0225 02       		.uleb128 0x2
 2847 0226 18       		.uleb128 0x18
 2848 0227 00       		.byte	0
 2849 0228 00       		.byte	0
 2850 0229 27       		.uleb128 0x27
 2851 022a 01       		.uleb128 0x1
 2852 022b 01       		.byte	0x1
 2853 022c 49       		.uleb128 0x49
 2854 022d 13       		.uleb128 0x13
 2855 022e 01       		.uleb128 0x1
 2856 022f 13       		.uleb128 0x13
 2857 0230 00       		.byte	0
 2858 0231 00       		.byte	0
 2859 0232 28       		.uleb128 0x28
 2860 0233 21       		.uleb128 0x21
 2861 0234 00       		.byte	0
 2862 0235 49       		.uleb128 0x49
ARM GAS  C:\Users\Yiquing\AppData\Local\Temp\ccJgHlWx.s 			page 81


 2863 0236 13       		.uleb128 0x13
 2864 0237 2F       		.uleb128 0x2f
 2865 0238 0B       		.uleb128 0xb
 2866 0239 00       		.byte	0
 2867 023a 00       		.byte	0
 2868 023b 29       		.uleb128 0x29
 2869 023c 2E       		.uleb128 0x2e
 2870 023d 01       		.byte	0x1
 2871 023e 3F       		.uleb128 0x3f
 2872 023f 19       		.uleb128 0x19
 2873 0240 03       		.uleb128 0x3
 2874 0241 0E       		.uleb128 0xe
 2875 0242 3A       		.uleb128 0x3a
 2876 0243 0B       		.uleb128 0xb
 2877 0244 3B       		.uleb128 0x3b
 2878 0245 0B       		.uleb128 0xb
 2879 0246 27       		.uleb128 0x27
 2880 0247 19       		.uleb128 0x19
 2881 0248 49       		.uleb128 0x49
 2882 0249 13       		.uleb128 0x13
 2883 024a 3C       		.uleb128 0x3c
 2884 024b 19       		.uleb128 0x19
 2885 024c 01       		.uleb128 0x1
 2886 024d 13       		.uleb128 0x13
 2887 024e 00       		.byte	0
 2888 024f 00       		.byte	0
 2889 0250 2A       		.uleb128 0x2a
 2890 0251 05       		.uleb128 0x5
 2891 0252 00       		.byte	0
 2892 0253 49       		.uleb128 0x49
 2893 0254 13       		.uleb128 0x13
 2894 0255 00       		.byte	0
 2895 0256 00       		.byte	0
 2896 0257 2B       		.uleb128 0x2b
 2897 0258 2E       		.uleb128 0x2e
 2898 0259 01       		.byte	0x1
 2899 025a 3F       		.uleb128 0x3f
 2900 025b 19       		.uleb128 0x19
 2901 025c 03       		.uleb128 0x3
 2902 025d 0E       		.uleb128 0xe
 2903 025e 3A       		.uleb128 0x3a
 2904 025f 0B       		.uleb128 0xb
 2905 0260 3B       		.uleb128 0x3b
 2906 0261 0B       		.uleb128 0xb
 2907 0262 27       		.uleb128 0x27
 2908 0263 19       		.uleb128 0x19
 2909 0264 3C       		.uleb128 0x3c
 2910 0265 19       		.uleb128 0x19
 2911 0266 01       		.uleb128 0x1
 2912 0267 13       		.uleb128 0x13
 2913 0268 00       		.byte	0
 2914 0269 00       		.byte	0
 2915 026a 2C       		.uleb128 0x2c
 2916 026b 2E       		.uleb128 0x2e
 2917 026c 00       		.byte	0
 2918 026d 3F       		.uleb128 0x3f
 2919 026e 19       		.uleb128 0x19
ARM GAS  C:\Users\Yiquing\AppData\Local\Temp\ccJgHlWx.s 			page 82


 2920 026f 03       		.uleb128 0x3
 2921 0270 0E       		.uleb128 0xe
 2922 0271 3A       		.uleb128 0x3a
 2923 0272 0B       		.uleb128 0xb
 2924 0273 3B       		.uleb128 0x3b
 2925 0274 0B       		.uleb128 0xb
 2926 0275 27       		.uleb128 0x27
 2927 0276 19       		.uleb128 0x19
 2928 0277 49       		.uleb128 0x49
 2929 0278 13       		.uleb128 0x13
 2930 0279 3C       		.uleb128 0x3c
 2931 027a 19       		.uleb128 0x19
 2932 027b 00       		.byte	0
 2933 027c 00       		.byte	0
 2934 027d 2D       		.uleb128 0x2d
 2935 027e 2E       		.uleb128 0x2e
 2936 027f 01       		.byte	0x1
 2937 0280 3F       		.uleb128 0x3f
 2938 0281 19       		.uleb128 0x19
 2939 0282 03       		.uleb128 0x3
 2940 0283 0E       		.uleb128 0xe
 2941 0284 3A       		.uleb128 0x3a
 2942 0285 0B       		.uleb128 0xb
 2943 0286 3B       		.uleb128 0x3b
 2944 0287 0B       		.uleb128 0xb
 2945 0288 27       		.uleb128 0x27
 2946 0289 19       		.uleb128 0x19
 2947 028a 3C       		.uleb128 0x3c
 2948 028b 19       		.uleb128 0x19
 2949 028c 00       		.byte	0
 2950 028d 00       		.byte	0
 2951 028e 00       		.byte	0
 2952              		.section	.debug_loc,"",%progbits
 2953              	.Ldebug_loc0:
 2954              	.LLST0:
 2955 0000 06000000 		.4byte	.LVL2
 2956 0004 29000000 		.4byte	.LVL3-1
 2957 0008 0100     		.2byte	0x1
 2958 000a 50       		.byte	0x50
 2959 000b 00000000 		.4byte	0
 2960 000f 00000000 		.4byte	0
 2961              	.LLST1:
 2962 0013 06000000 		.4byte	.LVL6
 2963 0017 29000000 		.4byte	.LVL7-1
 2964 001b 0100     		.2byte	0x1
 2965 001d 50       		.byte	0x50
 2966 001e 00000000 		.4byte	0
 2967 0022 00000000 		.4byte	0
 2968              	.LLST2:
 2969 0026 2E000000 		.4byte	.LVL15
 2970 002a 38000000 		.4byte	.LVL16
 2971 002e 0100     		.2byte	0x1
 2972 0030 50       		.byte	0x50
 2973 0031 3E000000 		.4byte	.LVL18
 2974 0035 5C000000 		.4byte	.LFE7
 2975 0039 0100     		.2byte	0x1
 2976 003b 50       		.byte	0x50
ARM GAS  C:\Users\Yiquing\AppData\Local\Temp\ccJgHlWx.s 			page 83


 2977 003c 00000000 		.4byte	0
 2978 0040 00000000 		.4byte	0
 2979              	.LLST3:
 2980 0044 10000000 		.4byte	.LVL10
 2981 0048 1E000000 		.4byte	.LVL13
 2982 004c 0100     		.2byte	0x1
 2983 004e 53       		.byte	0x53
 2984 004f 1E000000 		.4byte	.LVL13
 2985 0053 20000000 		.4byte	.LVL14
 2986 0057 0300     		.2byte	0x3
 2987 0059 73       		.byte	0x73
 2988 005a 7F       		.sleb128 -1
 2989 005b 9F       		.byte	0x9f
 2990 005c 38000000 		.4byte	.LVL16
 2991 0060 3A000000 		.4byte	.LVL17
 2992 0064 0100     		.2byte	0x1
 2993 0066 53       		.byte	0x53
 2994 0067 00000000 		.4byte	0
 2995 006b 00000000 		.4byte	0
 2996              	.LLST4:
 2997 006f 12000000 		.4byte	.LVL11
 2998 0073 1A000000 		.4byte	.LVL12
 2999 0077 0100     		.2byte	0x1
 3000 0079 51       		.byte	0x51
 3001 007a 38000000 		.4byte	.LVL16
 3002 007e 3E000000 		.4byte	.LVL18
 3003 0082 0100     		.2byte	0x1
 3004 0084 51       		.byte	0x51
 3005 0085 00000000 		.4byte	0
 3006 0089 00000000 		.4byte	0
 3007              	.LLST5:
 3008 008d 00000000 		.4byte	.LVL22
 3009 0091 2E000000 		.4byte	.LVL28
 3010 0095 0200     		.2byte	0x2
 3011 0097 30       		.byte	0x30
 3012 0098 9F       		.byte	0x9f
 3013 0099 2E000000 		.4byte	.LVL28
 3014 009d 38000000 		.4byte	.LVL29
 3015 00a1 0100     		.2byte	0x1
 3016 00a3 50       		.byte	0x50
 3017 00a4 38000000 		.4byte	.LVL29
 3018 00a8 50000000 		.4byte	.LVL32
 3019 00ac 0200     		.2byte	0x2
 3020 00ae 30       		.byte	0x30
 3021 00af 9F       		.byte	0x9f
 3022 00b0 50000000 		.4byte	.LVL32
 3023 00b4 74000000 		.4byte	.LFE9
 3024 00b8 0100     		.2byte	0x1
 3025 00ba 50       		.byte	0x50
 3026 00bb 00000000 		.4byte	0
 3027 00bf 00000000 		.4byte	0
 3028              	.LLST6:
 3029 00c3 3E000000 		.4byte	.LVL31
 3030 00c7 54000000 		.4byte	.LVL33
 3031 00cb 0100     		.2byte	0x1
 3032 00cd 53       		.byte	0x53
 3033 00ce 00000000 		.4byte	0
ARM GAS  C:\Users\Yiquing\AppData\Local\Temp\ccJgHlWx.s 			page 84


 3034 00d2 00000000 		.4byte	0
 3035              	.LLST7:
 3036 00d6 10000000 		.4byte	.LVL23
 3037 00da 1E000000 		.4byte	.LVL26
 3038 00de 0100     		.2byte	0x1
 3039 00e0 53       		.byte	0x53
 3040 00e1 1E000000 		.4byte	.LVL26
 3041 00e5 20000000 		.4byte	.LVL27
 3042 00e9 0300     		.2byte	0x3
 3043 00eb 73       		.byte	0x73
 3044 00ec 7F       		.sleb128 -1
 3045 00ed 9F       		.byte	0x9f
 3046 00ee 38000000 		.4byte	.LVL29
 3047 00f2 3A000000 		.4byte	.LVL30
 3048 00f6 0100     		.2byte	0x1
 3049 00f8 53       		.byte	0x53
 3050 00f9 00000000 		.4byte	0
 3051 00fd 00000000 		.4byte	0
 3052              	.LLST8:
 3053 0101 12000000 		.4byte	.LVL24
 3054 0105 1A000000 		.4byte	.LVL25
 3055 0109 0100     		.2byte	0x1
 3056 010b 51       		.byte	0x51
 3057 010c 38000000 		.4byte	.LVL29
 3058 0110 54000000 		.4byte	.LVL33
 3059 0114 0100     		.2byte	0x1
 3060 0116 51       		.byte	0x51
 3061 0117 00000000 		.4byte	0
 3062 011b 00000000 		.4byte	0
 3063              	.LLST9:
 3064 011f 0E000000 		.4byte	.LVL34
 3065 0123 20000000 		.4byte	.LVL36
 3066 0127 0100     		.2byte	0x1
 3067 0129 54       		.byte	0x54
 3068 012a 00000000 		.4byte	0
 3069 012e 00000000 		.4byte	0
 3070              	.LLST10:
 3071 0132 06000000 		.4byte	.LVL38
 3072 0136 1B000000 		.4byte	.LVL39-1
 3073 013a 0100     		.2byte	0x1
 3074 013c 50       		.byte	0x50
 3075 013d 00000000 		.4byte	0
 3076 0141 00000000 		.4byte	0
 3077              	.LLST11:
 3078 0145 00000000 		.4byte	.LVL46
 3079 0149 0C000000 		.4byte	.LVL47
 3080 014d 0100     		.2byte	0x1
 3081 014f 50       		.byte	0x50
 3082 0150 0C000000 		.4byte	.LVL47
 3083 0154 1C000000 		.4byte	.LVL51
 3084 0158 0100     		.2byte	0x1
 3085 015a 55       		.byte	0x55
 3086 015b 1C000000 		.4byte	.LVL51
 3087 015f 20000000 		.4byte	.LFE20
 3088 0163 0400     		.2byte	0x4
 3089 0165 F3       		.byte	0xf3
 3090 0166 01       		.uleb128 0x1
ARM GAS  C:\Users\Yiquing\AppData\Local\Temp\ccJgHlWx.s 			page 85


 3091 0167 50       		.byte	0x50
 3092 0168 9F       		.byte	0x9f
 3093 0169 00000000 		.4byte	0
 3094 016d 00000000 		.4byte	0
 3095              	.LLST12:
 3096 0171 00000000 		.4byte	.LVL46
 3097 0175 0C000000 		.4byte	.LVL47
 3098 0179 0200     		.2byte	0x2
 3099 017b 30       		.byte	0x30
 3100 017c 9F       		.byte	0x9f
 3101 017d 0C000000 		.4byte	.LVL47
 3102 0181 12000000 		.4byte	.LVL48
 3103 0185 0100     		.2byte	0x1
 3104 0187 54       		.byte	0x54
 3105 0188 12000000 		.4byte	.LVL48
 3106 018c 18000000 		.4byte	.LVL49
 3107 0190 0300     		.2byte	0x3
 3108 0192 74       		.byte	0x74
 3109 0193 7F       		.sleb128 -1
 3110 0194 9F       		.byte	0x9f
 3111 0195 18000000 		.4byte	.LVL49
 3112 0199 1A000000 		.4byte	.LVL50
 3113 019d 0100     		.2byte	0x1
 3114 019f 54       		.byte	0x54
 3115 01a0 00000000 		.4byte	0
 3116 01a4 00000000 		.4byte	0
 3117              	.LLST13:
 3118 01a8 00000000 		.4byte	.LVL52
 3119 01ac 0E000000 		.4byte	.LVL53
 3120 01b0 0100     		.2byte	0x1
 3121 01b2 50       		.byte	0x50
 3122 01b3 0E000000 		.4byte	.LVL53
 3123 01b7 20000000 		.4byte	.LVL57
 3124 01bb 0100     		.2byte	0x1
 3125 01bd 55       		.byte	0x55
 3126 01be 20000000 		.4byte	.LVL57
 3127 01c2 24000000 		.4byte	.LFE21
 3128 01c6 0400     		.2byte	0x4
 3129 01c8 F3       		.byte	0xf3
 3130 01c9 01       		.uleb128 0x1
 3131 01ca 50       		.byte	0x50
 3132 01cb 9F       		.byte	0x9f
 3133 01cc 00000000 		.4byte	0
 3134 01d0 00000000 		.4byte	0
 3135              	.LLST14:
 3136 01d4 00000000 		.4byte	.LVL52
 3137 01d8 0E000000 		.4byte	.LVL53
 3138 01dc 0100     		.2byte	0x1
 3139 01de 51       		.byte	0x51
 3140 01df 0E000000 		.4byte	.LVL53
 3141 01e3 24000000 		.4byte	.LFE21
 3142 01e7 0400     		.2byte	0x4
 3143 01e9 F3       		.byte	0xf3
 3144 01ea 01       		.uleb128 0x1
 3145 01eb 51       		.byte	0x51
 3146 01ec 9F       		.byte	0x9f
 3147 01ed 00000000 		.4byte	0
ARM GAS  C:\Users\Yiquing\AppData\Local\Temp\ccJgHlWx.s 			page 86


 3148 01f1 00000000 		.4byte	0
 3149              	.LLST15:
 3150 01f5 00000000 		.4byte	.LVL52
 3151 01f9 0E000000 		.4byte	.LVL53
 3152 01fd 0200     		.2byte	0x2
 3153 01ff 30       		.byte	0x30
 3154 0200 9F       		.byte	0x9f
 3155 0201 0E000000 		.4byte	.LVL53
 3156 0205 1A000000 		.4byte	.LVL54
 3157 0209 0100     		.2byte	0x1
 3158 020b 54       		.byte	0x54
 3159 020c 1A000000 		.4byte	.LVL54
 3160 0210 1C000000 		.4byte	.LVL55
 3161 0214 0300     		.2byte	0x3
 3162 0216 74       		.byte	0x74
 3163 0217 01       		.sleb128 1
 3164 0218 9F       		.byte	0x9f
 3165 0219 1C000000 		.4byte	.LVL55
 3166 021d 1E000000 		.4byte	.LVL56
 3167 0221 0300     		.2byte	0x3
 3168 0223 74       		.byte	0x74
 3169 0224 00       		.sleb128 0
 3170 0225 9F       		.byte	0x9f
 3171 0226 00000000 		.4byte	0
 3172 022a 00000000 		.4byte	0
 3173              	.LLST16:
 3174 022e 00000000 		.4byte	.LVL58
 3175 0232 0B000000 		.4byte	.LVL59-1
 3176 0236 0100     		.2byte	0x1
 3177 0238 50       		.byte	0x50
 3178 0239 0B000000 		.4byte	.LVL59-1
 3179 023d 1C000000 		.4byte	.LVL61
 3180 0241 0400     		.2byte	0x4
 3181 0243 F3       		.byte	0xf3
 3182 0244 01       		.uleb128 0x1
 3183 0245 50       		.byte	0x50
 3184 0246 9F       		.byte	0x9f
 3185 0247 1C000000 		.4byte	.LVL61
 3186 024b 24000000 		.4byte	.LFE22
 3187 024f 0100     		.2byte	0x1
 3188 0251 50       		.byte	0x50
 3189 0252 00000000 		.4byte	0
 3190 0256 00000000 		.4byte	0
 3191              	.LLST17:
 3192 025a 06000000 		.4byte	.LVL62
 3193 025e 0E000000 		.4byte	.LVL63
 3194 0262 0100     		.2byte	0x1
 3195 0264 50       		.byte	0x50
 3196 0265 14000000 		.4byte	.LVL64
 3197 0269 1C000000 		.4byte	.LFE23
 3198 026d 0100     		.2byte	0x1
 3199 026f 50       		.byte	0x50
 3200 0270 00000000 		.4byte	0
 3201 0274 00000000 		.4byte	0
 3202              	.LLST18:
 3203 0278 06000000 		.4byte	.LVL65
 3204 027c 1F000000 		.4byte	.LVL66-1
ARM GAS  C:\Users\Yiquing\AppData\Local\Temp\ccJgHlWx.s 			page 87


 3205 0280 0100     		.2byte	0x1
 3206 0282 50       		.byte	0x50
 3207 0283 00000000 		.4byte	0
 3208 0287 00000000 		.4byte	0
 3209              	.LLST19:
 3210 028b 00000000 		.4byte	.LVL67
 3211 028f 32000000 		.4byte	.LVL72
 3212 0293 0100     		.2byte	0x1
 3213 0295 50       		.byte	0x50
 3214 0296 32000000 		.4byte	.LVL72
 3215 029a 38000000 		.4byte	.LVL73
 3216 029e 0400     		.2byte	0x4
 3217 02a0 F3       		.byte	0xf3
 3218 02a1 01       		.uleb128 0x1
 3219 02a2 50       		.byte	0x50
 3220 02a3 9F       		.byte	0x9f
 3221 02a4 38000000 		.4byte	.LVL73
 3222 02a8 42000000 		.4byte	.LVL76
 3223 02ac 0100     		.2byte	0x1
 3224 02ae 50       		.byte	0x50
 3225 02af 42000000 		.4byte	.LVL76
 3226 02b3 4E000000 		.4byte	.LVL78
 3227 02b7 0400     		.2byte	0x4
 3228 02b9 F3       		.byte	0xf3
 3229 02ba 01       		.uleb128 0x1
 3230 02bb 50       		.byte	0x50
 3231 02bc 9F       		.byte	0x9f
 3232 02bd 4E000000 		.4byte	.LVL78
 3233 02c1 60000000 		.4byte	.LFE25
 3234 02c5 0100     		.2byte	0x1
 3235 02c7 50       		.byte	0x50
 3236 02c8 00000000 		.4byte	0
 3237 02cc 00000000 		.4byte	0
 3238              	.LLST20:
 3239 02d0 24000000 		.4byte	.LVL70
 3240 02d4 2C000000 		.4byte	.LVL71
 3241 02d8 0100     		.2byte	0x1
 3242 02da 53       		.byte	0x53
 3243 02db 3C000000 		.4byte	.LVL74
 3244 02df 3E000000 		.4byte	.LVL75
 3245 02e3 0100     		.2byte	0x1
 3246 02e5 53       		.byte	0x53
 3247 02e6 00000000 		.4byte	0
 3248 02ea 00000000 		.4byte	0
 3249              	.LLST21:
 3250 02ee 18000000 		.4byte	.LVL68
 3251 02f2 1C000000 		.4byte	.LVL69
 3252 02f6 0100     		.2byte	0x1
 3253 02f8 52       		.byte	0x52
 3254 02f9 00000000 		.4byte	0
 3255 02fd 00000000 		.4byte	0
 3256              	.LLST22:
 3257 0301 4A000000 		.4byte	.LVL77
 3258 0305 4E000000 		.4byte	.LVL78
 3259 0309 0100     		.2byte	0x1
 3260 030b 52       		.byte	0x52
 3261 030c 00000000 		.4byte	0
ARM GAS  C:\Users\Yiquing\AppData\Local\Temp\ccJgHlWx.s 			page 88


 3262 0310 00000000 		.4byte	0
 3263              	.LLST23:
 3264 0314 08000000 		.4byte	.LVL83
 3265 0318 0C000000 		.4byte	.LVL84
 3266 031c 0100     		.2byte	0x1
 3267 031e 52       		.byte	0x52
 3268 031f 00000000 		.4byte	0
 3269 0323 00000000 		.4byte	0
 3270              	.LLST24:
 3271 0327 0E000000 		.4byte	.LVL87
 3272 032b 14000000 		.4byte	.LVL88
 3273 032f 0100     		.2byte	0x1
 3274 0331 52       		.byte	0x52
 3275 0332 00000000 		.4byte	0
 3276 0336 00000000 		.4byte	0
 3277              		.section	.debug_aranges,"",%progbits
 3278 0000 FC000000 		.4byte	0xfc
 3279 0004 0200     		.2byte	0x2
 3280 0006 00000000 		.4byte	.Ldebug_info0
 3281 000a 04       		.byte	0x4
 3282 000b 00       		.byte	0
 3283 000c 0000     		.2byte	0
 3284 000e 0000     		.2byte	0
 3285 0010 00000000 		.4byte	.LFB1
 3286 0014 34000000 		.4byte	.LFE1-.LFB1
 3287 0018 00000000 		.4byte	.LFB2
 3288 001c 34000000 		.4byte	.LFE2-.LFB2
 3289 0020 00000000 		.4byte	.LFB0
 3290 0024 1C000000 		.4byte	.LFE0-.LFB0
 3291 0028 00000000 		.4byte	.LFB3
 3292 002c 34000000 		.4byte	.LFE3-.LFB3
 3293 0030 00000000 		.4byte	.LFB4
 3294 0034 0C000000 		.4byte	.LFE4-.LFB4
 3295 0038 00000000 		.4byte	.LFB5
 3296 003c 0C000000 		.4byte	.LFE5-.LFB5
 3297 0040 00000000 		.4byte	.LFB6
 3298 0044 0C000000 		.4byte	.LFE6-.LFB6
 3299 0048 00000000 		.4byte	.LFB7
 3300 004c 5C000000 		.4byte	.LFE7-.LFB7
 3301 0050 00000000 		.4byte	.LFB8
 3302 0054 20000000 		.4byte	.LFE8-.LFB8
 3303 0058 00000000 		.4byte	.LFB9
 3304 005c 74000000 		.4byte	.LFE9-.LFB9
 3305 0060 00000000 		.4byte	.LFB10
 3306 0064 2C000000 		.4byte	.LFE10-.LFB10
 3307 0068 00000000 		.4byte	.LFB11
 3308 006c 44000000 		.4byte	.LFE11-.LFB11
 3309 0070 00000000 		.4byte	.LFB12
 3310 0074 44000000 		.4byte	.LFE12-.LFB12
 3311 0078 00000000 		.4byte	.LFB13
 3312 007c 02000000 		.4byte	.LFE13-.LFB13
 3313 0080 00000000 		.4byte	.LFB14
 3314 0084 0C000000 		.4byte	.LFE14-.LFB14
 3315 0088 00000000 		.4byte	.LFB15
 3316 008c 0C000000 		.4byte	.LFE15-.LFB15
 3317 0090 00000000 		.4byte	.LFB16
 3318 0094 0C000000 		.4byte	.LFE16-.LFB16
ARM GAS  C:\Users\Yiquing\AppData\Local\Temp\ccJgHlWx.s 			page 89


 3319 0098 00000000 		.4byte	.LFB17
 3320 009c 14000000 		.4byte	.LFE17-.LFB17
 3321 00a0 00000000 		.4byte	.LFB18
 3322 00a4 0C000000 		.4byte	.LFE18-.LFB18
 3323 00a8 00000000 		.4byte	.LFB19
 3324 00ac 18000000 		.4byte	.LFE19-.LFB19
 3325 00b0 00000000 		.4byte	.LFB20
 3326 00b4 20000000 		.4byte	.LFE20-.LFB20
 3327 00b8 00000000 		.4byte	.LFB21
 3328 00bc 24000000 		.4byte	.LFE21-.LFB21
 3329 00c0 00000000 		.4byte	.LFB22
 3330 00c4 24000000 		.4byte	.LFE22-.LFB22
 3331 00c8 00000000 		.4byte	.LFB23
 3332 00cc 1C000000 		.4byte	.LFE23-.LFB23
 3333 00d0 00000000 		.4byte	.LFB24
 3334 00d4 24000000 		.4byte	.LFE24-.LFB24
 3335 00d8 00000000 		.4byte	.LFB25
 3336 00dc 60000000 		.4byte	.LFE25-.LFB25
 3337 00e0 00000000 		.4byte	.LFB26
 3338 00e4 18000000 		.4byte	.LFE26-.LFB26
 3339 00e8 00000000 		.4byte	.LFB27
 3340 00ec 1C000000 		.4byte	.LFE27-.LFB27
 3341 00f0 00000000 		.4byte	.LFB28
 3342 00f4 20000000 		.4byte	.LFE28-.LFB28
 3343 00f8 00000000 		.4byte	0
 3344 00fc 00000000 		.4byte	0
 3345              		.section	.debug_ranges,"",%progbits
 3346              	.Ldebug_ranges0:
 3347 0000 0C000000 		.4byte	.LBB32
 3348 0004 0E000000 		.4byte	.LBE32
 3349 0008 12000000 		.4byte	.LBB35
 3350 000c 14000000 		.4byte	.LBE35
 3351 0010 00000000 		.4byte	0
 3352 0014 00000000 		.4byte	0
 3353 0018 00000000 		.4byte	.LFB1
 3354 001c 34000000 		.4byte	.LFE1
 3355 0020 00000000 		.4byte	.LFB2
 3356 0024 34000000 		.4byte	.LFE2
 3357 0028 00000000 		.4byte	.LFB0
 3358 002c 1C000000 		.4byte	.LFE0
 3359 0030 00000000 		.4byte	.LFB3
 3360 0034 34000000 		.4byte	.LFE3
 3361 0038 00000000 		.4byte	.LFB4
 3362 003c 0C000000 		.4byte	.LFE4
 3363 0040 00000000 		.4byte	.LFB5
 3364 0044 0C000000 		.4byte	.LFE5
 3365 0048 00000000 		.4byte	.LFB6
 3366 004c 0C000000 		.4byte	.LFE6
 3367 0050 00000000 		.4byte	.LFB7
 3368 0054 5C000000 		.4byte	.LFE7
 3369 0058 00000000 		.4byte	.LFB8
 3370 005c 20000000 		.4byte	.LFE8
 3371 0060 00000000 		.4byte	.LFB9
 3372 0064 74000000 		.4byte	.LFE9
 3373 0068 00000000 		.4byte	.LFB10
 3374 006c 2C000000 		.4byte	.LFE10
 3375 0070 00000000 		.4byte	.LFB11
ARM GAS  C:\Users\Yiquing\AppData\Local\Temp\ccJgHlWx.s 			page 90


 3376 0074 44000000 		.4byte	.LFE11
 3377 0078 00000000 		.4byte	.LFB12
 3378 007c 44000000 		.4byte	.LFE12
 3379 0080 00000000 		.4byte	.LFB13
 3380 0084 02000000 		.4byte	.LFE13
 3381 0088 00000000 		.4byte	.LFB14
 3382 008c 0C000000 		.4byte	.LFE14
 3383 0090 00000000 		.4byte	.LFB15
 3384 0094 0C000000 		.4byte	.LFE15
 3385 0098 00000000 		.4byte	.LFB16
 3386 009c 0C000000 		.4byte	.LFE16
 3387 00a0 00000000 		.4byte	.LFB17
 3388 00a4 14000000 		.4byte	.LFE17
 3389 00a8 00000000 		.4byte	.LFB18
 3390 00ac 0C000000 		.4byte	.LFE18
 3391 00b0 00000000 		.4byte	.LFB19
 3392 00b4 18000000 		.4byte	.LFE19
 3393 00b8 00000000 		.4byte	.LFB20
 3394 00bc 20000000 		.4byte	.LFE20
 3395 00c0 00000000 		.4byte	.LFB21
 3396 00c4 24000000 		.4byte	.LFE21
 3397 00c8 00000000 		.4byte	.LFB22
 3398 00cc 24000000 		.4byte	.LFE22
 3399 00d0 00000000 		.4byte	.LFB23
 3400 00d4 1C000000 		.4byte	.LFE23
 3401 00d8 00000000 		.4byte	.LFB24
 3402 00dc 24000000 		.4byte	.LFE24
 3403 00e0 00000000 		.4byte	.LFB25
 3404 00e4 60000000 		.4byte	.LFE25
 3405 00e8 00000000 		.4byte	.LFB26
 3406 00ec 18000000 		.4byte	.LFE26
 3407 00f0 00000000 		.4byte	.LFB27
 3408 00f4 1C000000 		.4byte	.LFE27
 3409 00f8 00000000 		.4byte	.LFB28
 3410 00fc 20000000 		.4byte	.LFE28
 3411 0100 00000000 		.4byte	0
 3412 0104 00000000 		.4byte	0
 3413              		.section	.debug_line,"",%progbits
 3414              	.Ldebug_line0:
 3415 0000 7A030000 		.section	.debug_str,"MS",%progbits,1
 3415      02005500 
 3415      00000201 
 3415      FB0E0D00 
 3415      01010101 
 3416              	.LASF10:
 3417 0000 75696E74 		.ascii	"uint16\000"
 3417      313600
 3418              	.LASF80:
 3419 0007 43794578 		.ascii	"CyExitCriticalSection\000"
 3419      69744372 
 3419      69746963 
 3419      616C5365 
 3419      6374696F 
 3420              	.LASF49:
 3421 001d 74784461 		.ascii	"txDataByte\000"
 3421      74614279 
 3421      746500
ARM GAS  C:\Users\Yiquing\AppData\Local\Temp\ccJgHlWx.s 			page 91


 3422              	.LASF58:
 3423 0028 55415254 		.ascii	"UART_READER_ClearTxBuffer\000"
 3423      5F524541 
 3423      4445525F 
 3423      436C6561 
 3423      72547842 
 3424              	.LASF39:
 3425 0042 55415254 		.ascii	"UART_READER_GetRxBufferSize\000"
 3425      5F524541 
 3425      4445525F 
 3425      47657452 
 3425      78427566 
 3426              	.LASF42:
 3427 005e 55415254 		.ascii	"UART_READER_SetRxAddressMode\000"
 3427      5F524541 
 3427      4445525F 
 3427      53657452 
 3427      78416464 
 3428              	.LASF7:
 3429 007b 6C6F6E67 		.ascii	"long long unsigned int\000"
 3429      206C6F6E 
 3429      6720756E 
 3429      7369676E 
 3429      65642069 
 3430              	.LASF54:
 3431 0092 55415254 		.ascii	"UART_READER_PutArray\000"
 3431      5F524541 
 3431      4445525F 
 3431      50757441 
 3431      72726179 
 3432              	.LASF6:
 3433 00a7 6C6F6E67 		.ascii	"long long int\000"
 3433      206C6F6E 
 3433      6720696E 
 3433      7400
 3434              	.LASF0:
 3435 00b5 7369676E 		.ascii	"signed char\000"
 3435      65642063 
 3435      68617200 
 3436              	.LASF34:
 3437 00c1 73746174 		.ascii	"status\000"
 3437      757300
 3438              	.LASF51:
 3439 00c8 55415254 		.ascii	"UART_READER_PutString\000"
 3439      5F524541 
 3439      4445525F 
 3439      50757453 
 3439      7472696E 
 3440              	.LASF4:
 3441 00de 6C6F6E67 		.ascii	"long int\000"
 3441      20696E74 
 3441      00
 3442              	.LASF63:
 3443 00e7 55415254 		.ascii	"UART_READER_LoadRxConfig\000"
 3443      5F524541 
 3443      4445525F 
 3443      4C6F6164 
ARM GAS  C:\Users\Yiquing\AppData\Local\Temp\ccJgHlWx.s 			page 92


 3443      5278436F 
 3444              	.LASF78:
 3445 0100 55415254 		.ascii	"UART_READER_ReadTxStatus\000"
 3445      5F524541 
 3445      4445525F 
 3445      52656164 
 3445      54785374 
 3446              	.LASF9:
 3447 0119 75696E74 		.ascii	"uint8\000"
 3447      3800
 3448              	.LASF70:
 3449 011f 55415254 		.ascii	"UART_READER_rxBufferLoopDetect\000"
 3449      5F524541 
 3449      4445525F 
 3449      72784275 
 3449      66666572 
 3450              	.LASF24:
 3451 013e 55415254 		.ascii	"UART_READER_Init\000"
 3451      5F524541 
 3451      4445525F 
 3451      496E6974 
 3451      00
 3452              	.LASF13:
 3453 014f 646F7562 		.ascii	"double\000"
 3453      6C6500
 3454              	.LASF44:
 3455 0156 61646472 		.ascii	"addressMode\000"
 3455      6573734D 
 3455      6F646500 
 3456              	.LASF46:
 3457 0162 55415254 		.ascii	"UART_READER_SetRxAddress2\000"
 3457      5F524541 
 3457      4445525F 
 3457      53657452 
 3457      78416464 
 3458              	.LASF11:
 3459 017c 75696E74 		.ascii	"uint32\000"
 3459      333200
 3460              	.LASF22:
 3461 0183 636F6E74 		.ascii	"control\000"
 3461      726F6C00 
 3462              	.LASF60:
 3463 018b 7265744D 		.ascii	"retMode\000"
 3463      6F646500 
 3464              	.LASF76:
 3465 0193 2E5C4765 		.ascii	".\\Generated_Source\\PSoC5\\UART_READER.c\000"
 3465      6E657261 
 3465      7465645F 
 3465      536F7572 
 3465      63655C50 
 3466              	.LASF8:
 3467 01ba 756E7369 		.ascii	"unsigned int\000"
 3467      676E6564 
 3467      20696E74 
 3467      00
 3468              	.LASF38:
 3469 01c7 6C6F6345 		.ascii	"locErrorStatus\000"
ARM GAS  C:\Users\Yiquing\AppData\Local\Temp\ccJgHlWx.s 			page 93


 3469      72726F72 
 3469      53746174 
 3469      757300
 3470              	.LASF5:
 3471 01d6 6C6F6E67 		.ascii	"long unsigned int\000"
 3471      20756E73 
 3471      69676E65 
 3471      6420696E 
 3471      7400
 3472              	.LASF74:
 3473 01e8 4379456E 		.ascii	"CyEnterCriticalSection\000"
 3473      74657243 
 3473      72697469 
 3473      63616C53 
 3473      65637469 
 3474              	.LASF35:
 3475 01ff 55415254 		.ascii	"UART_READER_GetChar\000"
 3475      5F524541 
 3475      4445525F 
 3475      47657443 
 3475      68617200 
 3476              	.LASF40:
 3477 0213 73697A65 		.ascii	"size\000"
 3477      00
 3478              	.LASF3:
 3479 0218 73686F72 		.ascii	"short unsigned int\000"
 3479      7420756E 
 3479      7369676E 
 3479      65642069 
 3479      6E7400
 3480              	.LASF79:
 3481 022b 4379496E 		.ascii	"CyIntSetVector\000"
 3481      74536574 
 3481      56656374 
 3481      6F7200
 3482              	.LASF53:
 3483 023a 62756649 		.ascii	"bufIndex\000"
 3483      6E646578 
 3483      00
 3484              	.LASF26:
 3485 0243 55415254 		.ascii	"UART_READER_Start\000"
 3485      5F524541 
 3485      4445525F 
 3485      53746172 
 3485      7400
 3486              	.LASF23:
 3487 0255 696E7453 		.ascii	"intSrc\000"
 3487      726300
 3488              	.LASF65:
 3489 025c 55415254 		.ascii	"UART_READER_initVar\000"
 3489      5F524541 
 3489      4445525F 
 3489      696E6974 
 3489      56617200 
 3490              	.LASF17:
 3491 0270 72656733 		.ascii	"reg32\000"
 3491      3200
ARM GAS  C:\Users\Yiquing\AppData\Local\Temp\ccJgHlWx.s 			page 94


 3492              	.LASF61:
 3493 0276 746D7053 		.ascii	"tmpStat\000"
 3493      74617400 
 3494              	.LASF68:
 3495 027e 55415254 		.ascii	"UART_READER_rxBufferRead\000"
 3495      5F524541 
 3495      4445525F 
 3495      72784275 
 3495      66666572 
 3496              	.LASF19:
 3497 0297 73697A65 		.ascii	"sizetype\000"
 3497      74797065 
 3497      00
 3498              	.LASF45:
 3499 02a0 61646472 		.ascii	"address\000"
 3499      65737300 
 3500              	.LASF31:
 3501 02a8 6C6F6352 		.ascii	"locRxBufferWrite\000"
 3501      78427566 
 3501      66657257 
 3501      72697465 
 3501      00
 3502              	.LASF36:
 3503 02b9 72785374 		.ascii	"rxStatus\000"
 3503      61747573 
 3503      00
 3504              	.LASF71:
 3505 02c2 55415254 		.ascii	"UART_READER_rxBufferOverflow\000"
 3505      5F524541 
 3505      4445525F 
 3505      72784275 
 3505      66666572 
 3506              	.LASF72:
 3507 02df 4379496E 		.ascii	"CyIntSetPriority\000"
 3507      74536574 
 3507      5072696F 
 3507      72697479 
 3507      00
 3508              	.LASF12:
 3509 02f0 666C6F61 		.ascii	"float\000"
 3509      7400
 3510              	.LASF57:
 3511 02f6 55415254 		.ascii	"UART_READER_GetTxBufferSize\000"
 3511      5F524541 
 3511      4445525F 
 3511      47657454 
 3511      78427566 
 3512              	.LASF32:
 3513 0312 55415254 		.ascii	"UART_READER_ReadRxData\000"
 3513      5F524541 
 3513      4445525F 
 3513      52656164 
 3513      52784461 
 3514              	.LASF64:
 3515 0329 55415254 		.ascii	"UART_READER_LoadTxConfig\000"
 3515      5F524541 
 3515      4445525F 
ARM GAS  C:\Users\Yiquing\AppData\Local\Temp\ccJgHlWx.s 			page 95


 3515      4C6F6164 
 3515      5478436F 
 3516              	.LASF66:
 3517 0342 55415254 		.ascii	"UART_READER_errorStatus\000"
 3517      5F524541 
 3517      4445525F 
 3517      6572726F 
 3517      72537461 
 3518              	.LASF16:
 3519 035a 72656738 		.ascii	"reg8\000"
 3519      00
 3520              	.LASF67:
 3521 035f 55415254 		.ascii	"UART_READER_rxBuffer\000"
 3521      5F524541 
 3521      4445525F 
 3521      72784275 
 3521      66666572 
 3522              	.LASF1:
 3523 0374 756E7369 		.ascii	"unsigned char\000"
 3523      676E6564 
 3523      20636861 
 3523      7200
 3524              	.LASF41:
 3525 0382 55415254 		.ascii	"UART_READER_ClearRxBuffer\000"
 3525      5F524541 
 3525      4445525F 
 3525      436C6561 
 3525      72527842 
 3526              	.LASF21:
 3527 039c 55415254 		.ascii	"UART_READER_SetRxInterruptMode\000"
 3527      5F524541 
 3527      4445525F 
 3527      53657452 
 3527      78496E74 
 3528              	.LASF2:
 3529 03bb 73686F72 		.ascii	"short int\000"
 3529      7420696E 
 3529      7400
 3530              	.LASF43:
 3531 03c5 55415254 		.ascii	"UART_READER_SetRxAddress1\000"
 3531      5F524541 
 3531      4445525F 
 3531      53657452 
 3531      78416464 
 3532              	.LASF48:
 3533 03df 55415254 		.ascii	"UART_READER_WriteTxData\000"
 3533      5F524541 
 3533      4445525F 
 3533      57726974 
 3533      65547844 
 3534              	.LASF55:
 3535 03f7 62797465 		.ascii	"byteCount\000"
 3535      436F756E 
 3535      7400
 3536              	.LASF75:
 3537 0401 474E5520 		.ascii	"GNU C 4.8.4 20140526 (release) [ARM/embedded-4_8-br"
 3537      4320342E 
ARM GAS  C:\Users\Yiquing\AppData\Local\Temp\ccJgHlWx.s 			page 96


 3537      382E3420 
 3537      32303134 
 3537      30353236 
 3538 0434 616E6368 		.ascii	"anch revision 211358] -mcpu=cortex-m3 -mthumb -g -O"
 3538      20726576 
 3538      6973696F 
 3538      6E203231 
 3538      31333538 
 3539 0467 73202D66 		.ascii	"s -ffunction-sections\000"
 3539      66756E63 
 3539      74696F6E 
 3539      2D736563 
 3539      74696F6E 
 3540              	.LASF29:
 3541 047d 72784461 		.ascii	"rxData\000"
 3541      746100
 3542              	.LASF52:
 3543 0484 73747269 		.ascii	"string\000"
 3543      6E6700
 3544              	.LASF15:
 3545 048b 63686172 		.ascii	"char\000"
 3545      00
 3546              	.LASF18:
 3547 0490 63796973 		.ascii	"cyisraddress\000"
 3547      72616464 
 3547      72657373 
 3547      00
 3548              	.LASF50:
 3549 049d 55415254 		.ascii	"UART_READER_PutChar\000"
 3549      5F524541 
 3549      4445525F 
 3549      50757443 
 3549      68617200 
 3550              	.LASF77:
 3551 04b1 433A5C55 		.ascii	"C:\\Users\\Yiquing\\Documents\\works\\NanoNXT\\f2f "
 3551      73657273 
 3551      5C596971 
 3551      75696E67 
 3551      5C446F63 
 3552 04de 74657374 		.ascii	"testing\\3.2.0\\nanoNxt_ICM3.cydsn\000"
 3552      696E675C 
 3552      332E322E 
 3552      305C6E61 
 3552      6E6F4E78 
 3553              	.LASF14:
 3554 04ff 63686172 		.ascii	"char8\000"
 3554      3800
 3555              	.LASF33:
 3556 0505 55415254 		.ascii	"UART_READER_ReadRxStatus\000"
 3556      5F524541 
 3556      4445525F 
 3556      52656164 
 3556      52785374 
 3557              	.LASF27:
 3558 051e 55415254 		.ascii	"UART_READER_Stop\000"
 3558      5F524541 
 3558      4445525F 
ARM GAS  C:\Users\Yiquing\AppData\Local\Temp\ccJgHlWx.s 			page 97


 3558      53746F70 
 3558      00
 3559              	.LASF30:
 3560 052f 6C6F6352 		.ascii	"locRxBufferRead\000"
 3560      78427566 
 3560      66657252 
 3560      65616400 
 3561              	.LASF28:
 3562 053f 656E6162 		.ascii	"enableInterrupts\000"
 3562      6C65496E 
 3562      74657272 
 3562      75707473 
 3562      00
 3563              	.LASF20:
 3564 0550 55415254 		.ascii	"UART_READER_WriteControlRegister\000"
 3564      5F524541 
 3564      4445525F 
 3564      57726974 
 3564      65436F6E 
 3565              	.LASF62:
 3566 0571 55415254 		.ascii	"UART_READER_SetTxAddressMode\000"
 3566      5F524541 
 3566      4445525F 
 3566      53657454 
 3566      78416464 
 3567              	.LASF37:
 3568 058e 55415254 		.ascii	"UART_READER_GetByte\000"
 3568      5F524541 
 3568      4445525F 
 3568      47657442 
 3568      79746500 
 3569              	.LASF56:
 3570 05a2 55415254 		.ascii	"UART_READER_PutCRLF\000"
 3570      5F524541 
 3570      4445525F 
 3570      50757443 
 3570      524C4600 
 3571              	.LASF73:
 3572 05b6 55415254 		.ascii	"UART_READER_ReadControlRegister\000"
 3572      5F524541 
 3572      4445525F 
 3572      52656164 
 3572      436F6E74 
 3573              	.LASF25:
 3574 05d6 55415254 		.ascii	"UART_READER_Enable\000"
 3574      5F524541 
 3574      4445525F 
 3574      456E6162 
 3574      6C6500
 3575              	.LASF59:
 3576 05e9 55415254 		.ascii	"UART_READER_SendBreak\000"
 3576      5F524541 
 3576      4445525F 
 3576      53656E64 
 3576      42726561 
 3577              	.LASF47:
 3578 05ff 55415254 		.ascii	"UART_READER_SetTxInterruptMode\000"
ARM GAS  C:\Users\Yiquing\AppData\Local\Temp\ccJgHlWx.s 			page 98


 3578      5F524541 
 3578      4445525F 
 3578      53657454 
 3578      78496E74 
 3579              	.LASF69:
 3580 061e 55415254 		.ascii	"UART_READER_rxBufferWrite\000"
 3580      5F524541 
 3580      4445525F 
 3580      72784275 
 3580      66666572 
 3581              		.ident	"GCC: (GNU Tools for ARM Embedded Processors) 4.8.4 20140526 (release) [ARM/embedded-4_8-br
