ARM GAS  C:\Users\Yiquing\AppData\Local\Temp\ccJgHlWx.s 			page 1


   1              		.syntax unified
   2              		.cpu cortex-m3
   3              		.fpu softvfp
   4              		.eabi_attribute 20, 1
   5              		.eabi_attribute 21, 1
   6              		.eabi_attribute 23, 3
   7              		.eabi_attribute 24, 1
   8              		.eabi_attribute 25, 1
   9              		.eabi_attribute 26, 1
  10              		.eabi_attribute 30, 4
  11              		.eabi_attribute 34, 1
  12              		.eabi_attribute 18, 4
  13              		.thumb
  14              		.file	"UART_READER.c"
  15              		.text
  16              	.Ltext0:
  17              		.cfi_sections	.debug_frame
  18              		.section	.text.UART_READER_Init,"ax",%progbits
  19              		.align	1
  20              		.global	UART_READER_Init
  21              		.thumb
  22              		.thumb_func
  23              		.type	UART_READER_Init, %function
  24              	UART_READER_Init:
  25              	.LFB1:
  26              		.file 1 ".\\Generated_Source\\PSoC5\\UART_READER.c"
   1:.\Generated_Source\PSoC5/UART_READER.c **** /*******************************************************************************
   2:.\Generated_Source\PSoC5/UART_READER.c **** * File Name: UART_READER.c
   3:.\Generated_Source\PSoC5/UART_READER.c **** * Version 2.50
   4:.\Generated_Source\PSoC5/UART_READER.c **** *
   5:.\Generated_Source\PSoC5/UART_READER.c **** * Description:
   6:.\Generated_Source\PSoC5/UART_READER.c **** *  This file provides all API functionality of the UART component
   7:.\Generated_Source\PSoC5/UART_READER.c **** *
   8:.\Generated_Source\PSoC5/UART_READER.c **** * Note:
   9:.\Generated_Source\PSoC5/UART_READER.c **** *
  10:.\Generated_Source\PSoC5/UART_READER.c **** ********************************************************************************
  11:.\Generated_Source\PSoC5/UART_READER.c **** * Copyright 2008-2015, Cypress Semiconductor Corporation.  All rights reserved.
  12:.\Generated_Source\PSoC5/UART_READER.c **** * You may use this file only in accordance with the license, terms, conditions,
  13:.\Generated_Source\PSoC5/UART_READER.c **** * disclaimers, and limitations in the end user license agreement accompanying
  14:.\Generated_Source\PSoC5/UART_READER.c **** * the software package with which this file was provided.
  15:.\Generated_Source\PSoC5/UART_READER.c **** *******************************************************************************/
  16:.\Generated_Source\PSoC5/UART_READER.c **** 
  17:.\Generated_Source\PSoC5/UART_READER.c **** #include "UART_READER.h"
  18:.\Generated_Source\PSoC5/UART_READER.c **** #if (UART_READER_INTERNAL_CLOCK_USED)
  19:.\Generated_Source\PSoC5/UART_READER.c ****     #include "UART_READER_IntClock.h"
  20:.\Generated_Source\PSoC5/UART_READER.c **** #endif /* End UART_READER_INTERNAL_CLOCK_USED */
  21:.\Generated_Source\PSoC5/UART_READER.c **** 
  22:.\Generated_Source\PSoC5/UART_READER.c **** 
  23:.\Generated_Source\PSoC5/UART_READER.c **** /***************************************
  24:.\Generated_Source\PSoC5/UART_READER.c **** * Global data allocation
  25:.\Generated_Source\PSoC5/UART_READER.c **** ***************************************/
  26:.\Generated_Source\PSoC5/UART_READER.c **** 
  27:.\Generated_Source\PSoC5/UART_READER.c **** uint8 UART_READER_initVar = 0u;
  28:.\Generated_Source\PSoC5/UART_READER.c **** 
  29:.\Generated_Source\PSoC5/UART_READER.c **** #if (UART_READER_TX_INTERRUPT_ENABLED && UART_READER_TX_ENABLED)
  30:.\Generated_Source\PSoC5/UART_READER.c ****     volatile uint8 UART_READER_txBuffer[UART_READER_TX_BUFFER_SIZE];
  31:.\Generated_Source\PSoC5/UART_READER.c ****     volatile uint8 UART_READER_txBufferRead = 0u;
ARM GAS  C:\Users\Yiquing\AppData\Local\Temp\ccJgHlWx.s 			page 2


  32:.\Generated_Source\PSoC5/UART_READER.c ****     uint8 UART_READER_txBufferWrite = 0u;
  33:.\Generated_Source\PSoC5/UART_READER.c **** #endif /* (UART_READER_TX_INTERRUPT_ENABLED && UART_READER_TX_ENABLED) */
  34:.\Generated_Source\PSoC5/UART_READER.c **** 
  35:.\Generated_Source\PSoC5/UART_READER.c **** #if (UART_READER_RX_INTERRUPT_ENABLED && (UART_READER_RX_ENABLED || UART_READER_HD_ENABLED))
  36:.\Generated_Source\PSoC5/UART_READER.c ****     uint8 UART_READER_errorStatus = 0u;
  37:.\Generated_Source\PSoC5/UART_READER.c ****     volatile uint8 UART_READER_rxBuffer[UART_READER_RX_BUFFER_SIZE];
  38:.\Generated_Source\PSoC5/UART_READER.c ****     volatile uint8 UART_READER_rxBufferRead  = 0u;
  39:.\Generated_Source\PSoC5/UART_READER.c ****     volatile uint8 UART_READER_rxBufferWrite = 0u;
  40:.\Generated_Source\PSoC5/UART_READER.c ****     volatile uint8 UART_READER_rxBufferLoopDetect = 0u;
  41:.\Generated_Source\PSoC5/UART_READER.c ****     volatile uint8 UART_READER_rxBufferOverflow   = 0u;
  42:.\Generated_Source\PSoC5/UART_READER.c ****     #if (UART_READER_RXHW_ADDRESS_ENABLED)
  43:.\Generated_Source\PSoC5/UART_READER.c ****         volatile uint8 UART_READER_rxAddressMode = UART_READER_RX_ADDRESS_MODE;
  44:.\Generated_Source\PSoC5/UART_READER.c ****         volatile uint8 UART_READER_rxAddressDetected = 0u;
  45:.\Generated_Source\PSoC5/UART_READER.c ****     #endif /* (UART_READER_RXHW_ADDRESS_ENABLED) */
  46:.\Generated_Source\PSoC5/UART_READER.c **** #endif /* (UART_READER_RX_INTERRUPT_ENABLED && (UART_READER_RX_ENABLED || UART_READER_HD_ENABLED)) 
  47:.\Generated_Source\PSoC5/UART_READER.c **** 
  48:.\Generated_Source\PSoC5/UART_READER.c **** 
  49:.\Generated_Source\PSoC5/UART_READER.c **** /*******************************************************************************
  50:.\Generated_Source\PSoC5/UART_READER.c **** * Function Name: UART_READER_Start
  51:.\Generated_Source\PSoC5/UART_READER.c **** ********************************************************************************
  52:.\Generated_Source\PSoC5/UART_READER.c **** *
  53:.\Generated_Source\PSoC5/UART_READER.c **** * Summary:
  54:.\Generated_Source\PSoC5/UART_READER.c **** *  This is the preferred method to begin component operation.
  55:.\Generated_Source\PSoC5/UART_READER.c **** *  UART_READER_Start() sets the initVar variable, calls the
  56:.\Generated_Source\PSoC5/UART_READER.c **** *  UART_READER_Init() function, and then calls the
  57:.\Generated_Source\PSoC5/UART_READER.c **** *  UART_READER_Enable() function.
  58:.\Generated_Source\PSoC5/UART_READER.c **** *
  59:.\Generated_Source\PSoC5/UART_READER.c **** * Parameters:
  60:.\Generated_Source\PSoC5/UART_READER.c **** *  None.
  61:.\Generated_Source\PSoC5/UART_READER.c **** *
  62:.\Generated_Source\PSoC5/UART_READER.c **** * Return:
  63:.\Generated_Source\PSoC5/UART_READER.c **** *  None.
  64:.\Generated_Source\PSoC5/UART_READER.c **** *
  65:.\Generated_Source\PSoC5/UART_READER.c **** * Global variables:
  66:.\Generated_Source\PSoC5/UART_READER.c **** *  The UART_READER_intiVar variable is used to indicate initial
  67:.\Generated_Source\PSoC5/UART_READER.c **** *  configuration of this component. The variable is initialized to zero (0u)
  68:.\Generated_Source\PSoC5/UART_READER.c **** *  and set to one (1u) the first time UART_READER_Start() is called. This
  69:.\Generated_Source\PSoC5/UART_READER.c **** *  allows for component initialization without re-initialization in all
  70:.\Generated_Source\PSoC5/UART_READER.c **** *  subsequent calls to the UART_READER_Start() routine.
  71:.\Generated_Source\PSoC5/UART_READER.c **** *
  72:.\Generated_Source\PSoC5/UART_READER.c **** * Reentrant:
  73:.\Generated_Source\PSoC5/UART_READER.c **** *  No.
  74:.\Generated_Source\PSoC5/UART_READER.c **** *
  75:.\Generated_Source\PSoC5/UART_READER.c **** *******************************************************************************/
  76:.\Generated_Source\PSoC5/UART_READER.c **** void UART_READER_Start(void) 
  77:.\Generated_Source\PSoC5/UART_READER.c **** {
  78:.\Generated_Source\PSoC5/UART_READER.c ****     /* If not initialized then initialize all required hardware and software */
  79:.\Generated_Source\PSoC5/UART_READER.c ****     if(UART_READER_initVar == 0u)
  80:.\Generated_Source\PSoC5/UART_READER.c ****     {
  81:.\Generated_Source\PSoC5/UART_READER.c ****         UART_READER_Init();
  82:.\Generated_Source\PSoC5/UART_READER.c ****         UART_READER_initVar = 1u;
  83:.\Generated_Source\PSoC5/UART_READER.c ****     }
  84:.\Generated_Source\PSoC5/UART_READER.c **** 
  85:.\Generated_Source\PSoC5/UART_READER.c ****     UART_READER_Enable();
  86:.\Generated_Source\PSoC5/UART_READER.c **** }
  87:.\Generated_Source\PSoC5/UART_READER.c **** 
  88:.\Generated_Source\PSoC5/UART_READER.c **** 
ARM GAS  C:\Users\Yiquing\AppData\Local\Temp\ccJgHlWx.s 			page 3


  89:.\Generated_Source\PSoC5/UART_READER.c **** /*******************************************************************************
  90:.\Generated_Source\PSoC5/UART_READER.c **** * Function Name: UART_READER_Init
  91:.\Generated_Source\PSoC5/UART_READER.c **** ********************************************************************************
  92:.\Generated_Source\PSoC5/UART_READER.c **** *
  93:.\Generated_Source\PSoC5/UART_READER.c **** * Summary:
  94:.\Generated_Source\PSoC5/UART_READER.c **** *  Initializes or restores the component according to the customizer Configure
  95:.\Generated_Source\PSoC5/UART_READER.c **** *  dialog settings. It is not necessary to call UART_READER_Init() because
  96:.\Generated_Source\PSoC5/UART_READER.c **** *  the UART_READER_Start() API calls this function and is the preferred
  97:.\Generated_Source\PSoC5/UART_READER.c **** *  method to begin component operation.
  98:.\Generated_Source\PSoC5/UART_READER.c **** *
  99:.\Generated_Source\PSoC5/UART_READER.c **** * Parameters:
 100:.\Generated_Source\PSoC5/UART_READER.c **** *  None.
 101:.\Generated_Source\PSoC5/UART_READER.c **** *
 102:.\Generated_Source\PSoC5/UART_READER.c **** * Return:
 103:.\Generated_Source\PSoC5/UART_READER.c **** *  None.
 104:.\Generated_Source\PSoC5/UART_READER.c **** *
 105:.\Generated_Source\PSoC5/UART_READER.c **** *******************************************************************************/
 106:.\Generated_Source\PSoC5/UART_READER.c **** void UART_READER_Init(void) 
 107:.\Generated_Source\PSoC5/UART_READER.c **** {
  27              		.loc 1 107 0
  28              		.cfi_startproc
  29              		@ args = 0, pretend = 0, frame = 0
  30              		@ frame_needed = 0, uses_anonymous_args = 0
  31 0000 08B5     		push	{r3, lr}
  32              		.cfi_def_cfa_offset 8
  33              		.cfi_offset 3, -8
  34              		.cfi_offset 14, -4
 108:.\Generated_Source\PSoC5/UART_READER.c ****     #if(UART_READER_RX_ENABLED || UART_READER_HD_ENABLED)
 109:.\Generated_Source\PSoC5/UART_READER.c **** 
 110:.\Generated_Source\PSoC5/UART_READER.c ****         #if (UART_READER_RX_INTERRUPT_ENABLED)
 111:.\Generated_Source\PSoC5/UART_READER.c ****             /* Set RX interrupt vector and priority */
 112:.\Generated_Source\PSoC5/UART_READER.c ****             (void) CyIntSetVector(UART_READER_RX_VECT_NUM, &UART_READER_RXISR);
  35              		.loc 1 112 0
  36 0002 0949     		ldr	r1, .L2
  37 0004 0220     		movs	r0, #2
  38 0006 FFF7FEFF 		bl	CyIntSetVector
  39              	.LVL0:
 113:.\Generated_Source\PSoC5/UART_READER.c ****             CyIntSetPriority(UART_READER_RX_VECT_NUM, UART_READER_RX_PRIOR_NUM);
  40              		.loc 1 113 0
  41 000a 0220     		movs	r0, #2
  42 000c 0721     		movs	r1, #7
  43 000e FFF7FEFF 		bl	CyIntSetPriority
  44              	.LVL1:
 114:.\Generated_Source\PSoC5/UART_READER.c ****             UART_READER_errorStatus = 0u;
  45              		.loc 1 114 0
  46 0012 064B     		ldr	r3, .L2+4
  47 0014 0022     		movs	r2, #0
  48 0016 1A70     		strb	r2, [r3]
 115:.\Generated_Source\PSoC5/UART_READER.c ****         #endif /* (UART_READER_RX_INTERRUPT_ENABLED) */
 116:.\Generated_Source\PSoC5/UART_READER.c **** 
 117:.\Generated_Source\PSoC5/UART_READER.c ****         #if (UART_READER_RXHW_ADDRESS_ENABLED)
 118:.\Generated_Source\PSoC5/UART_READER.c ****             UART_READER_SetRxAddressMode(UART_READER_RX_ADDRESS_MODE);
 119:.\Generated_Source\PSoC5/UART_READER.c ****             UART_READER_SetRxAddress1(UART_READER_RX_HW_ADDRESS1);
 120:.\Generated_Source\PSoC5/UART_READER.c ****             UART_READER_SetRxAddress2(UART_READER_RX_HW_ADDRESS2);
 121:.\Generated_Source\PSoC5/UART_READER.c ****         #endif /* End UART_READER_RXHW_ADDRESS_ENABLED */
 122:.\Generated_Source\PSoC5/UART_READER.c **** 
 123:.\Generated_Source\PSoC5/UART_READER.c ****         /* Init Count7 period */
ARM GAS  C:\Users\Yiquing\AppData\Local\Temp\ccJgHlWx.s 			page 4


 124:.\Generated_Source\PSoC5/UART_READER.c ****         UART_READER_RXBITCTR_PERIOD_REG = UART_READER_RXBITCTR_INIT;
  49              		.loc 1 124 0
  50 0018 054B     		ldr	r3, .L2+8
  51 001a 7222     		movs	r2, #114
  52 001c 1A70     		strb	r2, [r3]
 125:.\Generated_Source\PSoC5/UART_READER.c ****         /* Configure the Initial RX interrupt mask */
 126:.\Generated_Source\PSoC5/UART_READER.c ****         UART_READER_RXSTATUS_MASK_REG  = UART_READER_INIT_RX_INTERRUPTS_MASK;
  53              		.loc 1 126 0
  54 001e 2022     		movs	r2, #32
  55 0020 03F8FE2C 		strb	r2, [r3, #-254]
  56 0024 08BD     		pop	{r3, pc}
  57              	.L3:
  58 0026 00BF     		.align	2
  59              	.L2:
  60 0028 00000000 		.word	UART_READER_RXISR
  61 002c 00000000 		.word	.LANCHOR0
  62 0030 85650040 		.word	1073767813
  63              		.cfi_endproc
  64              	.LFE1:
  65              		.size	UART_READER_Init, .-UART_READER_Init
  66              		.section	.text.UART_READER_Enable,"ax",%progbits
  67              		.align	1
  68              		.global	UART_READER_Enable
  69              		.thumb
  70              		.thumb_func
  71              		.type	UART_READER_Enable, %function
  72              	UART_READER_Enable:
  73              	.LFB2:
 127:.\Generated_Source\PSoC5/UART_READER.c ****     #endif /* End UART_READER_RX_ENABLED || UART_READER_HD_ENABLED*/
 128:.\Generated_Source\PSoC5/UART_READER.c **** 
 129:.\Generated_Source\PSoC5/UART_READER.c ****     #if(UART_READER_TX_ENABLED)
 130:.\Generated_Source\PSoC5/UART_READER.c ****         #if (UART_READER_TX_INTERRUPT_ENABLED)
 131:.\Generated_Source\PSoC5/UART_READER.c ****             /* Set TX interrupt vector and priority */
 132:.\Generated_Source\PSoC5/UART_READER.c ****             (void) CyIntSetVector(UART_READER_TX_VECT_NUM, &UART_READER_TXISR);
 133:.\Generated_Source\PSoC5/UART_READER.c ****             CyIntSetPriority(UART_READER_TX_VECT_NUM, UART_READER_TX_PRIOR_NUM);
 134:.\Generated_Source\PSoC5/UART_READER.c ****         #endif /* (UART_READER_TX_INTERRUPT_ENABLED) */
 135:.\Generated_Source\PSoC5/UART_READER.c **** 
 136:.\Generated_Source\PSoC5/UART_READER.c ****         /* Write Counter Value for TX Bit Clk Generator*/
 137:.\Generated_Source\PSoC5/UART_READER.c ****         #if (UART_READER_TXCLKGEN_DP)
 138:.\Generated_Source\PSoC5/UART_READER.c ****             UART_READER_TXBITCLKGEN_CTR_REG = UART_READER_BIT_CENTER;
 139:.\Generated_Source\PSoC5/UART_READER.c ****             UART_READER_TXBITCLKTX_COMPLETE_REG = ((UART_READER_NUMBER_OF_DATA_BITS +
 140:.\Generated_Source\PSoC5/UART_READER.c ****                         UART_READER_NUMBER_OF_START_BIT) * UART_READER_OVER_SAMPLE_COUNT) - 1u;
 141:.\Generated_Source\PSoC5/UART_READER.c ****         #else
 142:.\Generated_Source\PSoC5/UART_READER.c ****             UART_READER_TXBITCTR_PERIOD_REG = ((UART_READER_NUMBER_OF_DATA_BITS +
 143:.\Generated_Source\PSoC5/UART_READER.c ****                         UART_READER_NUMBER_OF_START_BIT) * UART_READER_OVER_SAMPLE_8) - 1u;
 144:.\Generated_Source\PSoC5/UART_READER.c ****         #endif /* End UART_READER_TXCLKGEN_DP */
 145:.\Generated_Source\PSoC5/UART_READER.c **** 
 146:.\Generated_Source\PSoC5/UART_READER.c ****         /* Configure the Initial TX interrupt mask */
 147:.\Generated_Source\PSoC5/UART_READER.c ****         #if (UART_READER_TX_INTERRUPT_ENABLED)
 148:.\Generated_Source\PSoC5/UART_READER.c ****             UART_READER_TXSTATUS_MASK_REG = UART_READER_TX_STS_FIFO_EMPTY;
 149:.\Generated_Source\PSoC5/UART_READER.c ****         #else
 150:.\Generated_Source\PSoC5/UART_READER.c ****             UART_READER_TXSTATUS_MASK_REG = UART_READER_INIT_TX_INTERRUPTS_MASK;
 151:.\Generated_Source\PSoC5/UART_READER.c ****         #endif /*End UART_READER_TX_INTERRUPT_ENABLED*/
 152:.\Generated_Source\PSoC5/UART_READER.c **** 
 153:.\Generated_Source\PSoC5/UART_READER.c ****     #endif /* End UART_READER_TX_ENABLED */
 154:.\Generated_Source\PSoC5/UART_READER.c **** 
 155:.\Generated_Source\PSoC5/UART_READER.c ****     #if(UART_READER_PARITY_TYPE_SW)  /* Write Parity to Control Register */
ARM GAS  C:\Users\Yiquing\AppData\Local\Temp\ccJgHlWx.s 			page 5


 156:.\Generated_Source\PSoC5/UART_READER.c ****         UART_READER_WriteControlRegister( \
 157:.\Generated_Source\PSoC5/UART_READER.c ****             (UART_READER_ReadControlRegister() & (uint8)~UART_READER_CTRL_PARITY_TYPE_MASK) | \
 158:.\Generated_Source\PSoC5/UART_READER.c ****             (uint8)(UART_READER_PARITY_TYPE << UART_READER_CTRL_PARITY_TYPE0_SHIFT) );
 159:.\Generated_Source\PSoC5/UART_READER.c ****     #endif /* End UART_READER_PARITY_TYPE_SW */
 160:.\Generated_Source\PSoC5/UART_READER.c **** }
 161:.\Generated_Source\PSoC5/UART_READER.c **** 
 162:.\Generated_Source\PSoC5/UART_READER.c **** 
 163:.\Generated_Source\PSoC5/UART_READER.c **** /*******************************************************************************
 164:.\Generated_Source\PSoC5/UART_READER.c **** * Function Name: UART_READER_Enable
 165:.\Generated_Source\PSoC5/UART_READER.c **** ********************************************************************************
 166:.\Generated_Source\PSoC5/UART_READER.c **** *
 167:.\Generated_Source\PSoC5/UART_READER.c **** * Summary:
 168:.\Generated_Source\PSoC5/UART_READER.c **** *  Activates the hardware and begins component operation. It is not necessary
 169:.\Generated_Source\PSoC5/UART_READER.c **** *  to call UART_READER_Enable() because the UART_READER_Start() API
 170:.\Generated_Source\PSoC5/UART_READER.c **** *  calls this function, which is the preferred method to begin component
 171:.\Generated_Source\PSoC5/UART_READER.c **** *  operation.
 172:.\Generated_Source\PSoC5/UART_READER.c **** 
 173:.\Generated_Source\PSoC5/UART_READER.c **** * Parameters:
 174:.\Generated_Source\PSoC5/UART_READER.c **** *  None.
 175:.\Generated_Source\PSoC5/UART_READER.c **** *
 176:.\Generated_Source\PSoC5/UART_READER.c **** * Return:
 177:.\Generated_Source\PSoC5/UART_READER.c **** *  None.
 178:.\Generated_Source\PSoC5/UART_READER.c **** *
 179:.\Generated_Source\PSoC5/UART_READER.c **** * Global Variables:
 180:.\Generated_Source\PSoC5/UART_READER.c **** *  UART_READER_rxAddressDetected - set to initial state (0).
 181:.\Generated_Source\PSoC5/UART_READER.c **** *
 182:.\Generated_Source\PSoC5/UART_READER.c **** *******************************************************************************/
 183:.\Generated_Source\PSoC5/UART_READER.c **** void UART_READER_Enable(void) 
 184:.\Generated_Source\PSoC5/UART_READER.c **** {
  74              		.loc 1 184 0
  75              		.cfi_startproc
  76              		@ args = 0, pretend = 0, frame = 0
  77              		@ frame_needed = 0, uses_anonymous_args = 0
  78 0000 08B5     		push	{r3, lr}
  79              		.cfi_def_cfa_offset 8
  80              		.cfi_offset 3, -8
  81              		.cfi_offset 14, -4
 185:.\Generated_Source\PSoC5/UART_READER.c ****     uint8 enableInterrupts;
 186:.\Generated_Source\PSoC5/UART_READER.c ****     enableInterrupts = CyEnterCriticalSection();
  82              		.loc 1 186 0
  83 0002 FFF7FEFF 		bl	CyEnterCriticalSection
  84              	.LVL2:
 187:.\Generated_Source\PSoC5/UART_READER.c **** 
 188:.\Generated_Source\PSoC5/UART_READER.c ****     #if (UART_READER_RX_ENABLED || UART_READER_HD_ENABLED)
 189:.\Generated_Source\PSoC5/UART_READER.c ****         /* RX Counter (Count7) Enable */
 190:.\Generated_Source\PSoC5/UART_READER.c ****         UART_READER_RXBITCTR_CONTROL_REG |= UART_READER_CNTR_ENABLE;
  85              		.loc 1 190 0
  86 0006 094B     		ldr	r3, .L5
  87 0008 1A78     		ldrb	r2, [r3]	@ zero_extendqisi2
  88 000a 42F02002 		orr	r2, r2, #32
  89 000e 1A70     		strb	r2, [r3]
 191:.\Generated_Source\PSoC5/UART_READER.c **** 
 192:.\Generated_Source\PSoC5/UART_READER.c ****         /* Enable the RX Interrupt */
 193:.\Generated_Source\PSoC5/UART_READER.c ****         UART_READER_RXSTATUS_ACTL_REG  |= UART_READER_INT_ENABLE;
  90              		.loc 1 193 0
  91 0010 13F8FE2C 		ldrb	r2, [r3, #-254]	@ zero_extendqisi2
  92 0014 42F01002 		orr	r2, r2, #16
ARM GAS  C:\Users\Yiquing\AppData\Local\Temp\ccJgHlWx.s 			page 6


  93 0018 03F8FE2C 		strb	r2, [r3, #-254]
 194:.\Generated_Source\PSoC5/UART_READER.c **** 
 195:.\Generated_Source\PSoC5/UART_READER.c ****         #if (UART_READER_RX_INTERRUPT_ENABLED)
 196:.\Generated_Source\PSoC5/UART_READER.c ****             UART_READER_EnableRxInt();
  94              		.loc 1 196 0
  95 001c 044B     		ldr	r3, .L5+4
  96 001e 0422     		movs	r2, #4
  97 0020 1A60     		str	r2, [r3]
 197:.\Generated_Source\PSoC5/UART_READER.c **** 
 198:.\Generated_Source\PSoC5/UART_READER.c ****             #if (UART_READER_RXHW_ADDRESS_ENABLED)
 199:.\Generated_Source\PSoC5/UART_READER.c ****                 UART_READER_rxAddressDetected = 0u;
 200:.\Generated_Source\PSoC5/UART_READER.c ****             #endif /* (UART_READER_RXHW_ADDRESS_ENABLED) */
 201:.\Generated_Source\PSoC5/UART_READER.c ****         #endif /* (UART_READER_RX_INTERRUPT_ENABLED) */
 202:.\Generated_Source\PSoC5/UART_READER.c ****     #endif /* (UART_READER_RX_ENABLED || UART_READER_HD_ENABLED) */
 203:.\Generated_Source\PSoC5/UART_READER.c **** 
 204:.\Generated_Source\PSoC5/UART_READER.c ****     #if(UART_READER_TX_ENABLED)
 205:.\Generated_Source\PSoC5/UART_READER.c ****         /* TX Counter (DP/Count7) Enable */
 206:.\Generated_Source\PSoC5/UART_READER.c ****         #if(!UART_READER_TXCLKGEN_DP)
 207:.\Generated_Source\PSoC5/UART_READER.c ****             UART_READER_TXBITCTR_CONTROL_REG |= UART_READER_CNTR_ENABLE;
 208:.\Generated_Source\PSoC5/UART_READER.c ****         #endif /* End UART_READER_TXCLKGEN_DP */
 209:.\Generated_Source\PSoC5/UART_READER.c **** 
 210:.\Generated_Source\PSoC5/UART_READER.c ****         /* Enable the TX Interrupt */
 211:.\Generated_Source\PSoC5/UART_READER.c ****         UART_READER_TXSTATUS_ACTL_REG |= UART_READER_INT_ENABLE;
 212:.\Generated_Source\PSoC5/UART_READER.c ****         #if (UART_READER_TX_INTERRUPT_ENABLED)
 213:.\Generated_Source\PSoC5/UART_READER.c ****             UART_READER_ClearPendingTxInt(); /* Clear history of TX_NOT_EMPTY */
 214:.\Generated_Source\PSoC5/UART_READER.c ****             UART_READER_EnableTxInt();
 215:.\Generated_Source\PSoC5/UART_READER.c ****         #endif /* (UART_READER_TX_INTERRUPT_ENABLED) */
 216:.\Generated_Source\PSoC5/UART_READER.c ****      #endif /* (UART_READER_TX_INTERRUPT_ENABLED) */
 217:.\Generated_Source\PSoC5/UART_READER.c **** 
 218:.\Generated_Source\PSoC5/UART_READER.c ****     #if (UART_READER_INTERNAL_CLOCK_USED)
 219:.\Generated_Source\PSoC5/UART_READER.c ****         UART_READER_IntClock_Start();  /* Enable the clock */
 220:.\Generated_Source\PSoC5/UART_READER.c ****     #endif /* (UART_READER_INTERNAL_CLOCK_USED) */
 221:.\Generated_Source\PSoC5/UART_READER.c **** 
 222:.\Generated_Source\PSoC5/UART_READER.c ****     CyExitCriticalSection(enableInterrupts);
 223:.\Generated_Source\PSoC5/UART_READER.c **** }
  98              		.loc 1 223 0
  99 0022 BDE80840 		pop	{r3, lr}
 222:.\Generated_Source\PSoC5/UART_READER.c ****     CyExitCriticalSection(enableInterrupts);
 100              		.loc 1 222 0
 101 0026 FFF7FEBF 		b	CyExitCriticalSection
 102              	.LVL3:
 103              	.L6:
 104 002a 00BF     		.align	2
 105              	.L5:
 106 002c 95650040 		.word	1073767829
 107 0030 00E100E0 		.word	-536813312
 108              		.cfi_endproc
 109              	.LFE2:
 110              		.size	UART_READER_Enable, .-UART_READER_Enable
 111              		.section	.text.UART_READER_Start,"ax",%progbits
 112              		.align	1
 113              		.global	UART_READER_Start
 114              		.thumb
 115              		.thumb_func
 116              		.type	UART_READER_Start, %function
 117              	UART_READER_Start:
 118              	.LFB0:
ARM GAS  C:\Users\Yiquing\AppData\Local\Temp\ccJgHlWx.s 			page 7


  77:.\Generated_Source\PSoC5/UART_READER.c **** {
 119              		.loc 1 77 0
 120              		.cfi_startproc
 121              		@ args = 0, pretend = 0, frame = 0
 122              		@ frame_needed = 0, uses_anonymous_args = 0
 123 0000 10B5     		push	{r4, lr}
 124              		.cfi_def_cfa_offset 8
 125              		.cfi_offset 4, -8
 126              		.cfi_offset 14, -4
  79:.\Generated_Source\PSoC5/UART_READER.c ****     if(UART_READER_initVar == 0u)
 127              		.loc 1 79 0
 128 0002 054C     		ldr	r4, .L10
 129 0004 6378     		ldrb	r3, [r4, #1]	@ zero_extendqisi2
 130 0006 1BB9     		cbnz	r3, .L8
  81:.\Generated_Source\PSoC5/UART_READER.c ****         UART_READER_Init();
 131              		.loc 1 81 0
 132 0008 FFF7FEFF 		bl	UART_READER_Init
 133              	.LVL4:
  82:.\Generated_Source\PSoC5/UART_READER.c ****         UART_READER_initVar = 1u;
 134              		.loc 1 82 0
 135 000c 0123     		movs	r3, #1
 136 000e 6370     		strb	r3, [r4, #1]
 137              	.L8:
  86:.\Generated_Source\PSoC5/UART_READER.c **** }
 138              		.loc 1 86 0
 139 0010 BDE81040 		pop	{r4, lr}
  85:.\Generated_Source\PSoC5/UART_READER.c ****     UART_READER_Enable();
 140              		.loc 1 85 0
 141 0014 FFF7FEBF 		b	UART_READER_Enable
 142              	.LVL5:
 143              	.L11:
 144              		.align	2
 145              	.L10:
 146 0018 00000000 		.word	.LANCHOR0
 147              		.cfi_endproc
 148              	.LFE0:
 149              		.size	UART_READER_Start, .-UART_READER_Start
 150              		.section	.text.UART_READER_Stop,"ax",%progbits
 151              		.align	1
 152              		.global	UART_READER_Stop
 153              		.thumb
 154              		.thumb_func
 155              		.type	UART_READER_Stop, %function
 156              	UART_READER_Stop:
 157              	.LFB3:
 224:.\Generated_Source\PSoC5/UART_READER.c **** 
 225:.\Generated_Source\PSoC5/UART_READER.c **** 
 226:.\Generated_Source\PSoC5/UART_READER.c **** /*******************************************************************************
 227:.\Generated_Source\PSoC5/UART_READER.c **** * Function Name: UART_READER_Stop
 228:.\Generated_Source\PSoC5/UART_READER.c **** ********************************************************************************
 229:.\Generated_Source\PSoC5/UART_READER.c **** *
 230:.\Generated_Source\PSoC5/UART_READER.c **** * Summary:
 231:.\Generated_Source\PSoC5/UART_READER.c **** *  Disables the UART operation.
 232:.\Generated_Source\PSoC5/UART_READER.c **** *
 233:.\Generated_Source\PSoC5/UART_READER.c **** * Parameters:
 234:.\Generated_Source\PSoC5/UART_READER.c **** *  None.
 235:.\Generated_Source\PSoC5/UART_READER.c **** *
ARM GAS  C:\Users\Yiquing\AppData\Local\Temp\ccJgHlWx.s 			page 8


 236:.\Generated_Source\PSoC5/UART_READER.c **** * Return:
 237:.\Generated_Source\PSoC5/UART_READER.c **** *  None.
 238:.\Generated_Source\PSoC5/UART_READER.c **** *
 239:.\Generated_Source\PSoC5/UART_READER.c **** *******************************************************************************/
 240:.\Generated_Source\PSoC5/UART_READER.c **** void UART_READER_Stop(void) 
 241:.\Generated_Source\PSoC5/UART_READER.c **** {
 158              		.loc 1 241 0
 159              		.cfi_startproc
 160              		@ args = 0, pretend = 0, frame = 0
 161              		@ frame_needed = 0, uses_anonymous_args = 0
 162 0000 08B5     		push	{r3, lr}
 163              		.cfi_def_cfa_offset 8
 164              		.cfi_offset 3, -8
 165              		.cfi_offset 14, -4
 242:.\Generated_Source\PSoC5/UART_READER.c ****     uint8 enableInterrupts;
 243:.\Generated_Source\PSoC5/UART_READER.c ****     enableInterrupts = CyEnterCriticalSection();
 166              		.loc 1 243 0
 167 0002 FFF7FEFF 		bl	CyEnterCriticalSection
 168              	.LVL6:
 244:.\Generated_Source\PSoC5/UART_READER.c **** 
 245:.\Generated_Source\PSoC5/UART_READER.c ****     /* Write Bit Counter Disable */
 246:.\Generated_Source\PSoC5/UART_READER.c ****     #if (UART_READER_RX_ENABLED || UART_READER_HD_ENABLED)
 247:.\Generated_Source\PSoC5/UART_READER.c ****         UART_READER_RXBITCTR_CONTROL_REG &= (uint8) ~UART_READER_CNTR_ENABLE;
 169              		.loc 1 247 0
 170 0006 094B     		ldr	r3, .L13
 171 0008 1A78     		ldrb	r2, [r3]	@ zero_extendqisi2
 172 000a 02F0DF02 		and	r2, r2, #223
 173 000e 1A70     		strb	r2, [r3]
 248:.\Generated_Source\PSoC5/UART_READER.c ****     #endif /* (UART_READER_RX_ENABLED || UART_READER_HD_ENABLED) */
 249:.\Generated_Source\PSoC5/UART_READER.c **** 
 250:.\Generated_Source\PSoC5/UART_READER.c ****     #if (UART_READER_TX_ENABLED)
 251:.\Generated_Source\PSoC5/UART_READER.c ****         #if(!UART_READER_TXCLKGEN_DP)
 252:.\Generated_Source\PSoC5/UART_READER.c ****             UART_READER_TXBITCTR_CONTROL_REG &= (uint8) ~UART_READER_CNTR_ENABLE;
 253:.\Generated_Source\PSoC5/UART_READER.c ****         #endif /* (!UART_READER_TXCLKGEN_DP) */
 254:.\Generated_Source\PSoC5/UART_READER.c ****     #endif /* (UART_READER_TX_ENABLED) */
 255:.\Generated_Source\PSoC5/UART_READER.c **** 
 256:.\Generated_Source\PSoC5/UART_READER.c ****     #if (UART_READER_INTERNAL_CLOCK_USED)
 257:.\Generated_Source\PSoC5/UART_READER.c ****         UART_READER_IntClock_Stop();   /* Disable the clock */
 258:.\Generated_Source\PSoC5/UART_READER.c ****     #endif /* (UART_READER_INTERNAL_CLOCK_USED) */
 259:.\Generated_Source\PSoC5/UART_READER.c **** 
 260:.\Generated_Source\PSoC5/UART_READER.c ****     /* Disable internal interrupt component */
 261:.\Generated_Source\PSoC5/UART_READER.c ****     #if (UART_READER_RX_ENABLED || UART_READER_HD_ENABLED)
 262:.\Generated_Source\PSoC5/UART_READER.c ****         UART_READER_RXSTATUS_ACTL_REG  &= (uint8) ~UART_READER_INT_ENABLE;
 174              		.loc 1 262 0
 175 0010 13F8FE2C 		ldrb	r2, [r3, #-254]	@ zero_extendqisi2
 176 0014 02F0EF02 		and	r2, r2, #239
 177 0018 03F8FE2C 		strb	r2, [r3, #-254]
 263:.\Generated_Source\PSoC5/UART_READER.c **** 
 264:.\Generated_Source\PSoC5/UART_READER.c ****         #if (UART_READER_RX_INTERRUPT_ENABLED)
 265:.\Generated_Source\PSoC5/UART_READER.c ****             UART_READER_DisableRxInt();
 178              		.loc 1 265 0
 179 001c 044B     		ldr	r3, .L13+4
 180 001e 0422     		movs	r2, #4
 181 0020 1A60     		str	r2, [r3]
 266:.\Generated_Source\PSoC5/UART_READER.c ****         #endif /* (UART_READER_RX_INTERRUPT_ENABLED) */
 267:.\Generated_Source\PSoC5/UART_READER.c ****     #endif /* (UART_READER_RX_ENABLED || UART_READER_HD_ENABLED) */
 268:.\Generated_Source\PSoC5/UART_READER.c **** 
ARM GAS  C:\Users\Yiquing\AppData\Local\Temp\ccJgHlWx.s 			page 9


 269:.\Generated_Source\PSoC5/UART_READER.c ****     #if (UART_READER_TX_ENABLED)
 270:.\Generated_Source\PSoC5/UART_READER.c ****         UART_READER_TXSTATUS_ACTL_REG &= (uint8) ~UART_READER_INT_ENABLE;
 271:.\Generated_Source\PSoC5/UART_READER.c **** 
 272:.\Generated_Source\PSoC5/UART_READER.c ****         #if (UART_READER_TX_INTERRUPT_ENABLED)
 273:.\Generated_Source\PSoC5/UART_READER.c ****             UART_READER_DisableTxInt();
 274:.\Generated_Source\PSoC5/UART_READER.c ****         #endif /* (UART_READER_TX_INTERRUPT_ENABLED) */
 275:.\Generated_Source\PSoC5/UART_READER.c ****     #endif /* (UART_READER_TX_ENABLED) */
 276:.\Generated_Source\PSoC5/UART_READER.c **** 
 277:.\Generated_Source\PSoC5/UART_READER.c ****     CyExitCriticalSection(enableInterrupts);
 278:.\Generated_Source\PSoC5/UART_READER.c **** }
 182              		.loc 1 278 0
 183 0022 BDE80840 		pop	{r3, lr}
 277:.\Generated_Source\PSoC5/UART_READER.c ****     CyExitCriticalSection(enableInterrupts);
 184              		.loc 1 277 0
 185 0026 FFF7FEBF 		b	CyExitCriticalSection
 186              	.LVL7:
 187              	.L14:
 188 002a 00BF     		.align	2
 189              	.L13:
 190 002c 95650040 		.word	1073767829
 191 0030 80E100E0 		.word	-536813184
 192              		.cfi_endproc
 193              	.LFE3:
 194              		.size	UART_READER_Stop, .-UART_READER_Stop
 195              		.section	.text.UART_READER_ReadControlRegister,"ax",%progbits
 196              		.align	1
 197              		.global	UART_READER_ReadControlRegister
 198              		.thumb
 199              		.thumb_func
 200              		.type	UART_READER_ReadControlRegister, %function
 201              	UART_READER_ReadControlRegister:
 202              	.LFB4:
 279:.\Generated_Source\PSoC5/UART_READER.c **** 
 280:.\Generated_Source\PSoC5/UART_READER.c **** 
 281:.\Generated_Source\PSoC5/UART_READER.c **** /*******************************************************************************
 282:.\Generated_Source\PSoC5/UART_READER.c **** * Function Name: UART_READER_ReadControlRegister
 283:.\Generated_Source\PSoC5/UART_READER.c **** ********************************************************************************
 284:.\Generated_Source\PSoC5/UART_READER.c **** *
 285:.\Generated_Source\PSoC5/UART_READER.c **** * Summary:
 286:.\Generated_Source\PSoC5/UART_READER.c **** *  Returns the current value of the control register.
 287:.\Generated_Source\PSoC5/UART_READER.c **** *
 288:.\Generated_Source\PSoC5/UART_READER.c **** * Parameters:
 289:.\Generated_Source\PSoC5/UART_READER.c **** *  None.
 290:.\Generated_Source\PSoC5/UART_READER.c **** *
 291:.\Generated_Source\PSoC5/UART_READER.c **** * Return:
 292:.\Generated_Source\PSoC5/UART_READER.c **** *  Contents of the control register.
 293:.\Generated_Source\PSoC5/UART_READER.c **** *
 294:.\Generated_Source\PSoC5/UART_READER.c **** *******************************************************************************/
 295:.\Generated_Source\PSoC5/UART_READER.c **** uint8 UART_READER_ReadControlRegister(void) 
 296:.\Generated_Source\PSoC5/UART_READER.c **** {
 203              		.loc 1 296 0
 204              		.cfi_startproc
 205              		@ args = 0, pretend = 0, frame = 0
 206              		@ frame_needed = 0, uses_anonymous_args = 0
 207              		@ link register save eliminated.
 297:.\Generated_Source\PSoC5/UART_READER.c ****     #if (UART_READER_CONTROL_REG_REMOVED)
 298:.\Generated_Source\PSoC5/UART_READER.c ****         return(0u);
ARM GAS  C:\Users\Yiquing\AppData\Local\Temp\ccJgHlWx.s 			page 10


 299:.\Generated_Source\PSoC5/UART_READER.c ****     #else
 300:.\Generated_Source\PSoC5/UART_READER.c ****         return(UART_READER_CONTROL_REG);
 208              		.loc 1 300 0
 209 0000 014B     		ldr	r3, .L16
 210 0002 1878     		ldrb	r0, [r3]	@ zero_extendqisi2
 301:.\Generated_Source\PSoC5/UART_READER.c ****     #endif /* (UART_READER_CONTROL_REG_REMOVED) */
 302:.\Generated_Source\PSoC5/UART_READER.c **** }
 211              		.loc 1 302 0
 212 0004 7047     		bx	lr
 213              	.L17:
 214 0006 00BF     		.align	2
 215              	.L16:
 216 0008 78650040 		.word	1073767800
 217              		.cfi_endproc
 218              	.LFE4:
 219              		.size	UART_READER_ReadControlRegister, .-UART_READER_ReadControlRegister
 220              		.section	.text.UART_READER_WriteControlRegister,"ax",%progbits
 221              		.align	1
 222              		.global	UART_READER_WriteControlRegister
 223              		.thumb
 224              		.thumb_func
 225              		.type	UART_READER_WriteControlRegister, %function
 226              	UART_READER_WriteControlRegister:
 227              	.LFB5:
 303:.\Generated_Source\PSoC5/UART_READER.c **** 
 304:.\Generated_Source\PSoC5/UART_READER.c **** 
 305:.\Generated_Source\PSoC5/UART_READER.c **** /*******************************************************************************
 306:.\Generated_Source\PSoC5/UART_READER.c **** * Function Name: UART_READER_WriteControlRegister
 307:.\Generated_Source\PSoC5/UART_READER.c **** ********************************************************************************
 308:.\Generated_Source\PSoC5/UART_READER.c **** *
 309:.\Generated_Source\PSoC5/UART_READER.c **** * Summary:
 310:.\Generated_Source\PSoC5/UART_READER.c **** *  Writes an 8-bit value into the control register
 311:.\Generated_Source\PSoC5/UART_READER.c **** *
 312:.\Generated_Source\PSoC5/UART_READER.c **** * Parameters:
 313:.\Generated_Source\PSoC5/UART_READER.c **** *  control:  control register value
 314:.\Generated_Source\PSoC5/UART_READER.c **** *
 315:.\Generated_Source\PSoC5/UART_READER.c **** * Return:
 316:.\Generated_Source\PSoC5/UART_READER.c **** *  None.
 317:.\Generated_Source\PSoC5/UART_READER.c **** *
 318:.\Generated_Source\PSoC5/UART_READER.c **** *******************************************************************************/
 319:.\Generated_Source\PSoC5/UART_READER.c **** void  UART_READER_WriteControlRegister(uint8 control) 
 320:.\Generated_Source\PSoC5/UART_READER.c **** {
 228              		.loc 1 320 0
 229              		.cfi_startproc
 230              		@ args = 0, pretend = 0, frame = 0
 231              		@ frame_needed = 0, uses_anonymous_args = 0
 232              		@ link register save eliminated.
 233              	.LVL8:
 321:.\Generated_Source\PSoC5/UART_READER.c ****     #if (UART_READER_CONTROL_REG_REMOVED)
 322:.\Generated_Source\PSoC5/UART_READER.c ****         if(0u != control)
 323:.\Generated_Source\PSoC5/UART_READER.c ****         {
 324:.\Generated_Source\PSoC5/UART_READER.c ****             /* Suppress compiler warning */
 325:.\Generated_Source\PSoC5/UART_READER.c ****         }
 326:.\Generated_Source\PSoC5/UART_READER.c ****     #else
 327:.\Generated_Source\PSoC5/UART_READER.c ****        UART_READER_CONTROL_REG = control;
 234              		.loc 1 327 0
 235 0000 014B     		ldr	r3, .L19
ARM GAS  C:\Users\Yiquing\AppData\Local\Temp\ccJgHlWx.s 			page 11


 236 0002 1870     		strb	r0, [r3]
 237 0004 7047     		bx	lr
 238              	.L20:
 239 0006 00BF     		.align	2
 240              	.L19:
 241 0008 78650040 		.word	1073767800
 242              		.cfi_endproc
 243              	.LFE5:
 244              		.size	UART_READER_WriteControlRegister, .-UART_READER_WriteControlRegister
 245              		.section	.text.UART_READER_SetRxInterruptMode,"ax",%progbits
 246              		.align	1
 247              		.global	UART_READER_SetRxInterruptMode
 248              		.thumb
 249              		.thumb_func
 250              		.type	UART_READER_SetRxInterruptMode, %function
 251              	UART_READER_SetRxInterruptMode:
 252              	.LFB6:
 328:.\Generated_Source\PSoC5/UART_READER.c ****     #endif /* (UART_READER_CONTROL_REG_REMOVED) */
 329:.\Generated_Source\PSoC5/UART_READER.c **** }
 330:.\Generated_Source\PSoC5/UART_READER.c **** 
 331:.\Generated_Source\PSoC5/UART_READER.c **** 
 332:.\Generated_Source\PSoC5/UART_READER.c **** #if(UART_READER_RX_ENABLED || UART_READER_HD_ENABLED)
 333:.\Generated_Source\PSoC5/UART_READER.c ****     /*******************************************************************************
 334:.\Generated_Source\PSoC5/UART_READER.c ****     * Function Name: UART_READER_SetRxInterruptMode
 335:.\Generated_Source\PSoC5/UART_READER.c ****     ********************************************************************************
 336:.\Generated_Source\PSoC5/UART_READER.c ****     *
 337:.\Generated_Source\PSoC5/UART_READER.c ****     * Summary:
 338:.\Generated_Source\PSoC5/UART_READER.c ****     *  Configures the RX interrupt sources enabled.
 339:.\Generated_Source\PSoC5/UART_READER.c ****     *
 340:.\Generated_Source\PSoC5/UART_READER.c ****     * Parameters:
 341:.\Generated_Source\PSoC5/UART_READER.c ****     *  IntSrc:  Bit field containing the RX interrupts to enable. Based on the 
 342:.\Generated_Source\PSoC5/UART_READER.c ****     *  bit-field arrangement of the status register. This value must be a 
 343:.\Generated_Source\PSoC5/UART_READER.c ****     *  combination of status register bit-masks shown below:
 344:.\Generated_Source\PSoC5/UART_READER.c ****     *      UART_READER_RX_STS_FIFO_NOTEMPTY    Interrupt on byte received.
 345:.\Generated_Source\PSoC5/UART_READER.c ****     *      UART_READER_RX_STS_PAR_ERROR        Interrupt on parity error.
 346:.\Generated_Source\PSoC5/UART_READER.c ****     *      UART_READER_RX_STS_STOP_ERROR       Interrupt on stop error.
 347:.\Generated_Source\PSoC5/UART_READER.c ****     *      UART_READER_RX_STS_BREAK            Interrupt on break.
 348:.\Generated_Source\PSoC5/UART_READER.c ****     *      UART_READER_RX_STS_OVERRUN          Interrupt on overrun error.
 349:.\Generated_Source\PSoC5/UART_READER.c ****     *      UART_READER_RX_STS_ADDR_MATCH       Interrupt on address match.
 350:.\Generated_Source\PSoC5/UART_READER.c ****     *      UART_READER_RX_STS_MRKSPC           Interrupt on address detect.
 351:.\Generated_Source\PSoC5/UART_READER.c ****     *
 352:.\Generated_Source\PSoC5/UART_READER.c ****     * Return:
 353:.\Generated_Source\PSoC5/UART_READER.c ****     *  None.
 354:.\Generated_Source\PSoC5/UART_READER.c ****     *
 355:.\Generated_Source\PSoC5/UART_READER.c ****     * Theory:
 356:.\Generated_Source\PSoC5/UART_READER.c ****     *  Enables the output of specific status bits to the interrupt controller
 357:.\Generated_Source\PSoC5/UART_READER.c ****     *
 358:.\Generated_Source\PSoC5/UART_READER.c ****     *******************************************************************************/
 359:.\Generated_Source\PSoC5/UART_READER.c ****     void UART_READER_SetRxInterruptMode(uint8 intSrc) 
 360:.\Generated_Source\PSoC5/UART_READER.c ****     {
 253              		.loc 1 360 0
 254              		.cfi_startproc
 255              		@ args = 0, pretend = 0, frame = 0
 256              		@ frame_needed = 0, uses_anonymous_args = 0
 257              		@ link register save eliminated.
 258              	.LVL9:
 361:.\Generated_Source\PSoC5/UART_READER.c ****         UART_READER_RXSTATUS_MASK_REG  = intSrc;
ARM GAS  C:\Users\Yiquing\AppData\Local\Temp\ccJgHlWx.s 			page 12


 259              		.loc 1 361 0
 260 0000 014B     		ldr	r3, .L22
 261 0002 1870     		strb	r0, [r3]
 262 0004 7047     		bx	lr
 263              	.L23:
 264 0006 00BF     		.align	2
 265              	.L22:
 266 0008 87640040 		.word	1073767559
 267              		.cfi_endproc
 268              	.LFE6:
 269              		.size	UART_READER_SetRxInterruptMode, .-UART_READER_SetRxInterruptMode
 270              		.section	.text.UART_READER_ReadRxData,"ax",%progbits
 271              		.align	1
 272              		.global	UART_READER_ReadRxData
 273              		.thumb
 274              		.thumb_func
 275              		.type	UART_READER_ReadRxData, %function
 276              	UART_READER_ReadRxData:
 277              	.LFB7:
 362:.\Generated_Source\PSoC5/UART_READER.c ****     }
 363:.\Generated_Source\PSoC5/UART_READER.c **** 
 364:.\Generated_Source\PSoC5/UART_READER.c **** 
 365:.\Generated_Source\PSoC5/UART_READER.c ****     /*******************************************************************************
 366:.\Generated_Source\PSoC5/UART_READER.c ****     * Function Name: UART_READER_ReadRxData
 367:.\Generated_Source\PSoC5/UART_READER.c ****     ********************************************************************************
 368:.\Generated_Source\PSoC5/UART_READER.c ****     *
 369:.\Generated_Source\PSoC5/UART_READER.c ****     * Summary:
 370:.\Generated_Source\PSoC5/UART_READER.c ****     *  Returns the next byte of received data. This function returns data without
 371:.\Generated_Source\PSoC5/UART_READER.c ****     *  checking the status. You must check the status separately.
 372:.\Generated_Source\PSoC5/UART_READER.c ****     *
 373:.\Generated_Source\PSoC5/UART_READER.c ****     * Parameters:
 374:.\Generated_Source\PSoC5/UART_READER.c ****     *  None.
 375:.\Generated_Source\PSoC5/UART_READER.c ****     *
 376:.\Generated_Source\PSoC5/UART_READER.c ****     * Return:
 377:.\Generated_Source\PSoC5/UART_READER.c ****     *  Received data from RX register
 378:.\Generated_Source\PSoC5/UART_READER.c ****     *
 379:.\Generated_Source\PSoC5/UART_READER.c ****     * Global Variables:
 380:.\Generated_Source\PSoC5/UART_READER.c ****     *  UART_READER_rxBuffer - RAM buffer pointer for save received data.
 381:.\Generated_Source\PSoC5/UART_READER.c ****     *  UART_READER_rxBufferWrite - cyclic index for write to rxBuffer,
 382:.\Generated_Source\PSoC5/UART_READER.c ****     *     checked to identify new data.
 383:.\Generated_Source\PSoC5/UART_READER.c ****     *  UART_READER_rxBufferRead - cyclic index for read from rxBuffer,
 384:.\Generated_Source\PSoC5/UART_READER.c ****     *     incremented after each byte has been read from buffer.
 385:.\Generated_Source\PSoC5/UART_READER.c ****     *  UART_READER_rxBufferLoopDetect - cleared if loop condition was detected
 386:.\Generated_Source\PSoC5/UART_READER.c ****     *     in RX ISR.
 387:.\Generated_Source\PSoC5/UART_READER.c ****     *
 388:.\Generated_Source\PSoC5/UART_READER.c ****     * Reentrant:
 389:.\Generated_Source\PSoC5/UART_READER.c ****     *  No.
 390:.\Generated_Source\PSoC5/UART_READER.c ****     *
 391:.\Generated_Source\PSoC5/UART_READER.c ****     *******************************************************************************/
 392:.\Generated_Source\PSoC5/UART_READER.c ****     uint8 UART_READER_ReadRxData(void) 
 393:.\Generated_Source\PSoC5/UART_READER.c ****     {
 278              		.loc 1 393 0
 279              		.cfi_startproc
 280              		@ args = 0, pretend = 0, frame = 0
 281              		@ frame_needed = 0, uses_anonymous_args = 0
 282              		@ link register save eliminated.
 394:.\Generated_Source\PSoC5/UART_READER.c ****         uint8 rxData;
ARM GAS  C:\Users\Yiquing\AppData\Local\Temp\ccJgHlWx.s 			page 13


 395:.\Generated_Source\PSoC5/UART_READER.c **** 
 396:.\Generated_Source\PSoC5/UART_READER.c ****     #if (UART_READER_RX_INTERRUPT_ENABLED)
 397:.\Generated_Source\PSoC5/UART_READER.c **** 
 398:.\Generated_Source\PSoC5/UART_READER.c ****         uint8 locRxBufferRead;
 399:.\Generated_Source\PSoC5/UART_READER.c ****         uint8 locRxBufferWrite;
 400:.\Generated_Source\PSoC5/UART_READER.c **** 
 401:.\Generated_Source\PSoC5/UART_READER.c ****         /* Protect variables that could change on interrupt */
 402:.\Generated_Source\PSoC5/UART_READER.c ****         UART_READER_DisableRxInt();
 283              		.loc 1 402 0
 284 0000 114B     		ldr	r3, .L33
 285 0002 0422     		movs	r2, #4
 286 0004 1A60     		str	r2, [r3]
 403:.\Generated_Source\PSoC5/UART_READER.c **** 
 404:.\Generated_Source\PSoC5/UART_READER.c ****         locRxBufferRead  = UART_READER_rxBufferRead;
 287              		.loc 1 404 0
 288 0006 114A     		ldr	r2, .L33+4
 289 0008 9378     		ldrb	r3, [r2, #2]	@ zero_extendqisi2
 405:.\Generated_Source\PSoC5/UART_READER.c ****         locRxBufferWrite = UART_READER_rxBufferWrite;
 290              		.loc 1 405 0
 291 000a D178     		ldrb	r1, [r2, #3]	@ zero_extendqisi2
 406:.\Generated_Source\PSoC5/UART_READER.c **** 
 407:.\Generated_Source\PSoC5/UART_READER.c ****         if( (UART_READER_rxBufferLoopDetect != 0u) || (locRxBufferRead != locRxBufferWrite) )
 292              		.loc 1 407 0
 293 000c 1079     		ldrb	r0, [r2, #4]	@ zero_extendqisi2
 404:.\Generated_Source\PSoC5/UART_READER.c ****         locRxBufferRead  = UART_READER_rxBufferRead;
 294              		.loc 1 404 0
 295 000e DBB2     		uxtb	r3, r3
 296              	.LVL10:
 405:.\Generated_Source\PSoC5/UART_READER.c ****         locRxBufferWrite = UART_READER_rxBufferWrite;
 297              		.loc 1 405 0
 298 0010 C9B2     		uxtb	r1, r1
 299              	.LVL11:
 300              		.loc 1 407 0
 301 0012 08B9     		cbnz	r0, .L25
 302              		.loc 1 407 0 is_stmt 0 discriminator 1
 303 0014 8B42     		cmp	r3, r1
 304 0016 0FD0     		beq	.L26
 305              	.L25:
 408:.\Generated_Source\PSoC5/UART_READER.c ****         {
 409:.\Generated_Source\PSoC5/UART_READER.c ****             rxData = UART_READER_rxBuffer[locRxBufferRead];
 306              		.loc 1 409 0 is_stmt 1
 307 0018 0D49     		ldr	r1, .L33+8
 308              	.LVL12:
 309 001a C85C     		ldrb	r0, [r1, r3]	@ zero_extendqisi2
 410:.\Generated_Source\PSoC5/UART_READER.c ****             locRxBufferRead++;
 310              		.loc 1 410 0
 311 001c 0133     		adds	r3, r3, #1
 312              	.LVL13:
 313 001e DBB2     		uxtb	r3, r3
 314              	.LVL14:
 411:.\Generated_Source\PSoC5/UART_READER.c **** 
 412:.\Generated_Source\PSoC5/UART_READER.c ****             if(locRxBufferRead >= UART_READER_RX_BUFFER_SIZE)
 413:.\Generated_Source\PSoC5/UART_READER.c ****             {
 414:.\Generated_Source\PSoC5/UART_READER.c ****                 locRxBufferRead = 0u;
 315              		.loc 1 414 0
 316 0020 13F0800F 		tst	r3, #128
 317 0024 18BF     		it	ne
ARM GAS  C:\Users\Yiquing\AppData\Local\Temp\ccJgHlWx.s 			page 14


 318 0026 0023     		movne	r3, #0
 415:.\Generated_Source\PSoC5/UART_READER.c ****             }
 416:.\Generated_Source\PSoC5/UART_READER.c ****             /* Update the real pointer */
 417:.\Generated_Source\PSoC5/UART_READER.c ****             UART_READER_rxBufferRead = locRxBufferRead;
 319              		.loc 1 417 0
 320 0028 9370     		strb	r3, [r2, #2]
 418:.\Generated_Source\PSoC5/UART_READER.c **** 
 419:.\Generated_Source\PSoC5/UART_READER.c ****             if(UART_READER_rxBufferLoopDetect != 0u)
 321              		.loc 1 419 0
 322 002a 1379     		ldrb	r3, [r2, #4]	@ zero_extendqisi2
 409:.\Generated_Source\PSoC5/UART_READER.c ****             rxData = UART_READER_rxBuffer[locRxBufferRead];
 323              		.loc 1 409 0
 324 002c C0B2     		uxtb	r0, r0
 325              	.LVL15:
 326              		.loc 1 419 0
 327 002e 33B1     		cbz	r3, .L28
 420:.\Generated_Source\PSoC5/UART_READER.c ****             {
 421:.\Generated_Source\PSoC5/UART_READER.c ****                 UART_READER_rxBufferLoopDetect = 0u;
 328              		.loc 1 421 0
 329 0030 064B     		ldr	r3, .L33+4
 330 0032 0022     		movs	r2, #0
 331 0034 1A71     		strb	r2, [r3, #4]
 332 0036 02E0     		b	.L28
 333              	.LVL16:
 334              	.L26:
 422:.\Generated_Source\PSoC5/UART_READER.c ****                 #if ((UART_READER_RX_INTERRUPT_ENABLED) && (UART_READER_FLOW_CONTROL != 0u))
 423:.\Generated_Source\PSoC5/UART_READER.c ****                     /* When Hardware Flow Control selected - return RX mask */
 424:.\Generated_Source\PSoC5/UART_READER.c ****                     #if( UART_READER_HD_ENABLED )
 425:.\Generated_Source\PSoC5/UART_READER.c ****                         if((UART_READER_CONTROL_REG & UART_READER_CTRL_HD_SEND) == 0u)
 426:.\Generated_Source\PSoC5/UART_READER.c ****                         {   /* In Half duplex mode return RX mask only in RX
 427:.\Generated_Source\PSoC5/UART_READER.c ****                             *  configuration set, otherwise
 428:.\Generated_Source\PSoC5/UART_READER.c ****                             *  mask will be returned in LoadRxConfig() API.
 429:.\Generated_Source\PSoC5/UART_READER.c ****                             */
 430:.\Generated_Source\PSoC5/UART_READER.c ****                             UART_READER_RXSTATUS_MASK_REG  |= UART_READER_RX_STS_FIFO_NOTEMPTY;
 431:.\Generated_Source\PSoC5/UART_READER.c ****                         }
 432:.\Generated_Source\PSoC5/UART_READER.c ****                     #else
 433:.\Generated_Source\PSoC5/UART_READER.c ****                         UART_READER_RXSTATUS_MASK_REG  |= UART_READER_RX_STS_FIFO_NOTEMPTY;
 434:.\Generated_Source\PSoC5/UART_READER.c ****                     #endif /* end UART_READER_HD_ENABLED */
 435:.\Generated_Source\PSoC5/UART_READER.c ****                 #endif /* ((UART_READER_RX_INTERRUPT_ENABLED) && (UART_READER_FLOW_CONTROL != 0u)) 
 436:.\Generated_Source\PSoC5/UART_READER.c ****             }
 437:.\Generated_Source\PSoC5/UART_READER.c ****         }
 438:.\Generated_Source\PSoC5/UART_READER.c ****         else
 439:.\Generated_Source\PSoC5/UART_READER.c ****         {   /* Needs to check status for RX_STS_FIFO_NOTEMPTY bit */
 440:.\Generated_Source\PSoC5/UART_READER.c ****             rxData = UART_READER_RXDATA_REG;
 335              		.loc 1 440 0
 336 0038 064B     		ldr	r3, .L33+12
 337              	.LVL17:
 338 003a 1878     		ldrb	r0, [r3]	@ zero_extendqisi2
 339 003c C0B2     		uxtb	r0, r0
 340              	.LVL18:
 341              	.L28:
 441:.\Generated_Source\PSoC5/UART_READER.c ****         }
 442:.\Generated_Source\PSoC5/UART_READER.c **** 
 443:.\Generated_Source\PSoC5/UART_READER.c ****         UART_READER_EnableRxInt();
 342              		.loc 1 443 0
 343 003e 064B     		ldr	r3, .L33+16
 344 0040 0422     		movs	r2, #4
ARM GAS  C:\Users\Yiquing\AppData\Local\Temp\ccJgHlWx.s 			page 15


 345 0042 1A60     		str	r2, [r3]
 444:.\Generated_Source\PSoC5/UART_READER.c **** 
 445:.\Generated_Source\PSoC5/UART_READER.c ****     #else
 446:.\Generated_Source\PSoC5/UART_READER.c **** 
 447:.\Generated_Source\PSoC5/UART_READER.c ****         /* Needs to check status for RX_STS_FIFO_NOTEMPTY bit */
 448:.\Generated_Source\PSoC5/UART_READER.c ****         rxData = UART_READER_RXDATA_REG;
 449:.\Generated_Source\PSoC5/UART_READER.c **** 
 450:.\Generated_Source\PSoC5/UART_READER.c ****     #endif /* (UART_READER_RX_INTERRUPT_ENABLED) */
 451:.\Generated_Source\PSoC5/UART_READER.c **** 
 452:.\Generated_Source\PSoC5/UART_READER.c ****         return(rxData);
 453:.\Generated_Source\PSoC5/UART_READER.c ****     }
 346              		.loc 1 453 0
 347 0044 7047     		bx	lr
 348              	.L34:
 349 0046 00BF     		.align	2
 350              	.L33:
 351 0048 80E100E0 		.word	-536813184
 352 004c 00000000 		.word	.LANCHOR0
 353 0050 00000000 		.word	UART_READER_rxBuffer
 354 0054 47640040 		.word	1073767495
 355 0058 00E100E0 		.word	-536813312
 356              		.cfi_endproc
 357              	.LFE7:
 358              		.size	UART_READER_ReadRxData, .-UART_READER_ReadRxData
 359              		.section	.text.UART_READER_ReadRxStatus,"ax",%progbits
 360              		.align	1
 361              		.global	UART_READER_ReadRxStatus
 362              		.thumb
 363              		.thumb_func
 364              		.type	UART_READER_ReadRxStatus, %function
 365              	UART_READER_ReadRxStatus:
 366              	.LFB8:
 454:.\Generated_Source\PSoC5/UART_READER.c **** 
 455:.\Generated_Source\PSoC5/UART_READER.c **** 
 456:.\Generated_Source\PSoC5/UART_READER.c ****     /*******************************************************************************
 457:.\Generated_Source\PSoC5/UART_READER.c ****     * Function Name: UART_READER_ReadRxStatus
 458:.\Generated_Source\PSoC5/UART_READER.c ****     ********************************************************************************
 459:.\Generated_Source\PSoC5/UART_READER.c ****     *
 460:.\Generated_Source\PSoC5/UART_READER.c ****     * Summary:
 461:.\Generated_Source\PSoC5/UART_READER.c ****     *  Returns the current state of the receiver status register and the software
 462:.\Generated_Source\PSoC5/UART_READER.c ****     *  buffer overflow status.
 463:.\Generated_Source\PSoC5/UART_READER.c ****     *
 464:.\Generated_Source\PSoC5/UART_READER.c ****     * Parameters:
 465:.\Generated_Source\PSoC5/UART_READER.c ****     *  None.
 466:.\Generated_Source\PSoC5/UART_READER.c ****     *
 467:.\Generated_Source\PSoC5/UART_READER.c ****     * Return:
 468:.\Generated_Source\PSoC5/UART_READER.c ****     *  Current state of the status register.
 469:.\Generated_Source\PSoC5/UART_READER.c ****     *
 470:.\Generated_Source\PSoC5/UART_READER.c ****     * Side Effect:
 471:.\Generated_Source\PSoC5/UART_READER.c ****     *  All status register bits are clear-on-read except
 472:.\Generated_Source\PSoC5/UART_READER.c ****     *  UART_READER_RX_STS_FIFO_NOTEMPTY.
 473:.\Generated_Source\PSoC5/UART_READER.c ****     *  UART_READER_RX_STS_FIFO_NOTEMPTY clears immediately after RX data
 474:.\Generated_Source\PSoC5/UART_READER.c ****     *  register read.
 475:.\Generated_Source\PSoC5/UART_READER.c ****     *
 476:.\Generated_Source\PSoC5/UART_READER.c ****     * Global Variables:
 477:.\Generated_Source\PSoC5/UART_READER.c ****     *  UART_READER_rxBufferOverflow - used to indicate overload condition.
 478:.\Generated_Source\PSoC5/UART_READER.c ****     *   It set to one in RX interrupt when there isn't free space in
ARM GAS  C:\Users\Yiquing\AppData\Local\Temp\ccJgHlWx.s 			page 16


 479:.\Generated_Source\PSoC5/UART_READER.c ****     *   UART_READER_rxBufferRead to write new data. This condition returned
 480:.\Generated_Source\PSoC5/UART_READER.c ****     *   and cleared to zero by this API as an
 481:.\Generated_Source\PSoC5/UART_READER.c ****     *   UART_READER_RX_STS_SOFT_BUFF_OVER bit along with RX Status register
 482:.\Generated_Source\PSoC5/UART_READER.c ****     *   bits.
 483:.\Generated_Source\PSoC5/UART_READER.c ****     *
 484:.\Generated_Source\PSoC5/UART_READER.c ****     *******************************************************************************/
 485:.\Generated_Source\PSoC5/UART_READER.c ****     uint8 UART_READER_ReadRxStatus(void) 
 486:.\Generated_Source\PSoC5/UART_READER.c ****     {
 367              		.loc 1 486 0
 368              		.cfi_startproc
 369              		@ args = 0, pretend = 0, frame = 0
 370              		@ frame_needed = 0, uses_anonymous_args = 0
 371              		@ link register save eliminated.
 487:.\Generated_Source\PSoC5/UART_READER.c ****         uint8 status;
 488:.\Generated_Source\PSoC5/UART_READER.c **** 
 489:.\Generated_Source\PSoC5/UART_READER.c ****         status = UART_READER_RXSTATUS_REG & UART_READER_RX_HW_MASK;
 372              		.loc 1 489 0
 373 0000 054B     		ldr	r3, .L40
 374 0002 1878     		ldrb	r0, [r3]	@ zero_extendqisi2
 490:.\Generated_Source\PSoC5/UART_READER.c **** 
 491:.\Generated_Source\PSoC5/UART_READER.c ****     #if (UART_READER_RX_INTERRUPT_ENABLED)
 492:.\Generated_Source\PSoC5/UART_READER.c ****         if(UART_READER_rxBufferOverflow != 0u)
 375              		.loc 1 492 0
 376 0004 054B     		ldr	r3, .L40+4
 489:.\Generated_Source\PSoC5/UART_READER.c ****         status = UART_READER_RXSTATUS_REG & UART_READER_RX_HW_MASK;
 377              		.loc 1 489 0
 378 0006 00F07F00 		and	r0, r0, #127
 379              	.LVL19:
 380              		.loc 1 492 0
 381 000a 5A79     		ldrb	r2, [r3, #5]	@ zero_extendqisi2
 382 000c 1AB1     		cbz	r2, .L36
 493:.\Generated_Source\PSoC5/UART_READER.c ****         {
 494:.\Generated_Source\PSoC5/UART_READER.c ****             status |= UART_READER_RX_STS_SOFT_BUFF_OVER;
 495:.\Generated_Source\PSoC5/UART_READER.c ****             UART_READER_rxBufferOverflow = 0u;
 383              		.loc 1 495 0
 384 000e 0022     		movs	r2, #0
 494:.\Generated_Source\PSoC5/UART_READER.c ****             status |= UART_READER_RX_STS_SOFT_BUFF_OVER;
 385              		.loc 1 494 0
 386 0010 40F08000 		orr	r0, r0, #128
 387              	.LVL20:
 388              		.loc 1 495 0
 389 0014 5A71     		strb	r2, [r3, #5]
 390              	.LVL21:
 391              	.L36:
 496:.\Generated_Source\PSoC5/UART_READER.c ****         }
 497:.\Generated_Source\PSoC5/UART_READER.c ****     #endif /* (UART_READER_RX_INTERRUPT_ENABLED) */
 498:.\Generated_Source\PSoC5/UART_READER.c **** 
 499:.\Generated_Source\PSoC5/UART_READER.c ****         return(status);
 500:.\Generated_Source\PSoC5/UART_READER.c ****     }
 392              		.loc 1 500 0
 393 0016 7047     		bx	lr
 394              	.L41:
 395              		.align	2
 396              	.L40:
 397 0018 67640040 		.word	1073767527
 398 001c 00000000 		.word	.LANCHOR0
 399              		.cfi_endproc
ARM GAS  C:\Users\Yiquing\AppData\Local\Temp\ccJgHlWx.s 			page 17


 400              	.LFE8:
 401              		.size	UART_READER_ReadRxStatus, .-UART_READER_ReadRxStatus
 402              		.section	.text.UART_READER_GetChar,"ax",%progbits
 403              		.align	1
 404              		.global	UART_READER_GetChar
 405              		.thumb
 406              		.thumb_func
 407              		.type	UART_READER_GetChar, %function
 408              	UART_READER_GetChar:
 409              	.LFB9:
 501:.\Generated_Source\PSoC5/UART_READER.c **** 
 502:.\Generated_Source\PSoC5/UART_READER.c **** 
 503:.\Generated_Source\PSoC5/UART_READER.c ****     /*******************************************************************************
 504:.\Generated_Source\PSoC5/UART_READER.c ****     * Function Name: UART_READER_GetChar
 505:.\Generated_Source\PSoC5/UART_READER.c ****     ********************************************************************************
 506:.\Generated_Source\PSoC5/UART_READER.c ****     *
 507:.\Generated_Source\PSoC5/UART_READER.c ****     * Summary:
 508:.\Generated_Source\PSoC5/UART_READER.c ****     *  Returns the last received byte of data. UART_READER_GetChar() is
 509:.\Generated_Source\PSoC5/UART_READER.c ****     *  designed for ASCII characters and returns a uint8 where 1 to 255 are values
 510:.\Generated_Source\PSoC5/UART_READER.c ****     *  for valid characters and 0 indicates an error occurred or no data is present.
 511:.\Generated_Source\PSoC5/UART_READER.c ****     *
 512:.\Generated_Source\PSoC5/UART_READER.c ****     * Parameters:
 513:.\Generated_Source\PSoC5/UART_READER.c ****     *  None.
 514:.\Generated_Source\PSoC5/UART_READER.c ****     *
 515:.\Generated_Source\PSoC5/UART_READER.c ****     * Return:
 516:.\Generated_Source\PSoC5/UART_READER.c ****     *  Character read from UART RX buffer. ASCII characters from 1 to 255 are valid.
 517:.\Generated_Source\PSoC5/UART_READER.c ****     *  A returned zero signifies an error condition or no data available.
 518:.\Generated_Source\PSoC5/UART_READER.c ****     *
 519:.\Generated_Source\PSoC5/UART_READER.c ****     * Global Variables:
 520:.\Generated_Source\PSoC5/UART_READER.c ****     *  UART_READER_rxBuffer - RAM buffer pointer for save received data.
 521:.\Generated_Source\PSoC5/UART_READER.c ****     *  UART_READER_rxBufferWrite - cyclic index for write to rxBuffer,
 522:.\Generated_Source\PSoC5/UART_READER.c ****     *     checked to identify new data.
 523:.\Generated_Source\PSoC5/UART_READER.c ****     *  UART_READER_rxBufferRead - cyclic index for read from rxBuffer,
 524:.\Generated_Source\PSoC5/UART_READER.c ****     *     incremented after each byte has been read from buffer.
 525:.\Generated_Source\PSoC5/UART_READER.c ****     *  UART_READER_rxBufferLoopDetect - cleared if loop condition was detected
 526:.\Generated_Source\PSoC5/UART_READER.c ****     *     in RX ISR.
 527:.\Generated_Source\PSoC5/UART_READER.c ****     *
 528:.\Generated_Source\PSoC5/UART_READER.c ****     * Reentrant:
 529:.\Generated_Source\PSoC5/UART_READER.c ****     *  No.
 530:.\Generated_Source\PSoC5/UART_READER.c ****     *
 531:.\Generated_Source\PSoC5/UART_READER.c ****     *******************************************************************************/
 532:.\Generated_Source\PSoC5/UART_READER.c ****     uint8 UART_READER_GetChar(void) 
 533:.\Generated_Source\PSoC5/UART_READER.c ****     {
 410              		.loc 1 533 0
 411              		.cfi_startproc
 412              		@ args = 0, pretend = 0, frame = 0
 413              		@ frame_needed = 0, uses_anonymous_args = 0
 414              		@ link register save eliminated.
 415              	.LVL22:
 534:.\Generated_Source\PSoC5/UART_READER.c ****         uint8 rxData = 0u;
 535:.\Generated_Source\PSoC5/UART_READER.c ****         uint8 rxStatus;
 536:.\Generated_Source\PSoC5/UART_READER.c **** 
 537:.\Generated_Source\PSoC5/UART_READER.c ****     #if (UART_READER_RX_INTERRUPT_ENABLED)
 538:.\Generated_Source\PSoC5/UART_READER.c ****         uint8 locRxBufferRead;
 539:.\Generated_Source\PSoC5/UART_READER.c ****         uint8 locRxBufferWrite;
 540:.\Generated_Source\PSoC5/UART_READER.c **** 
 541:.\Generated_Source\PSoC5/UART_READER.c ****         /* Protect variables that could change on interrupt */
ARM GAS  C:\Users\Yiquing\AppData\Local\Temp\ccJgHlWx.s 			page 18


 542:.\Generated_Source\PSoC5/UART_READER.c ****         UART_READER_DisableRxInt();
 416              		.loc 1 542 0
 417 0000 164B     		ldr	r3, .L54
 418 0002 0422     		movs	r2, #4
 419 0004 1A60     		str	r2, [r3]
 543:.\Generated_Source\PSoC5/UART_READER.c **** 
 544:.\Generated_Source\PSoC5/UART_READER.c ****         locRxBufferRead  = UART_READER_rxBufferRead;
 420              		.loc 1 544 0
 421 0006 164A     		ldr	r2, .L54+4
 422 0008 9378     		ldrb	r3, [r2, #2]	@ zero_extendqisi2
 545:.\Generated_Source\PSoC5/UART_READER.c ****         locRxBufferWrite = UART_READER_rxBufferWrite;
 423              		.loc 1 545 0
 424 000a D178     		ldrb	r1, [r2, #3]	@ zero_extendqisi2
 546:.\Generated_Source\PSoC5/UART_READER.c **** 
 547:.\Generated_Source\PSoC5/UART_READER.c ****         if( (UART_READER_rxBufferLoopDetect != 0u) || (locRxBufferRead != locRxBufferWrite) )
 425              		.loc 1 547 0
 426 000c 1079     		ldrb	r0, [r2, #4]	@ zero_extendqisi2
 544:.\Generated_Source\PSoC5/UART_READER.c ****         locRxBufferRead  = UART_READER_rxBufferRead;
 427              		.loc 1 544 0
 428 000e DBB2     		uxtb	r3, r3
 429              	.LVL23:
 545:.\Generated_Source\PSoC5/UART_READER.c ****         locRxBufferWrite = UART_READER_rxBufferWrite;
 430              		.loc 1 545 0
 431 0010 C9B2     		uxtb	r1, r1
 432              	.LVL24:
 433              		.loc 1 547 0
 434 0012 08B9     		cbnz	r0, .L43
 435              		.loc 1 547 0 is_stmt 0 discriminator 1
 436 0014 8B42     		cmp	r3, r1
 437 0016 0FD0     		beq	.L44
 438              	.L43:
 548:.\Generated_Source\PSoC5/UART_READER.c ****         {
 549:.\Generated_Source\PSoC5/UART_READER.c ****             rxData = UART_READER_rxBuffer[locRxBufferRead];
 439              		.loc 1 549 0 is_stmt 1
 440 0018 1249     		ldr	r1, .L54+8
 441              	.LVL25:
 442 001a C85C     		ldrb	r0, [r1, r3]	@ zero_extendqisi2
 550:.\Generated_Source\PSoC5/UART_READER.c ****             locRxBufferRead++;
 443              		.loc 1 550 0
 444 001c 0133     		adds	r3, r3, #1
 445              	.LVL26:
 446 001e DBB2     		uxtb	r3, r3
 447              	.LVL27:
 551:.\Generated_Source\PSoC5/UART_READER.c ****             if(locRxBufferRead >= UART_READER_RX_BUFFER_SIZE)
 552:.\Generated_Source\PSoC5/UART_READER.c ****             {
 553:.\Generated_Source\PSoC5/UART_READER.c ****                 locRxBufferRead = 0u;
 448              		.loc 1 553 0
 449 0020 13F0800F 		tst	r3, #128
 450 0024 18BF     		it	ne
 451 0026 0023     		movne	r3, #0
 554:.\Generated_Source\PSoC5/UART_READER.c ****             }
 555:.\Generated_Source\PSoC5/UART_READER.c ****             /* Update the real pointer */
 556:.\Generated_Source\PSoC5/UART_READER.c ****             UART_READER_rxBufferRead = locRxBufferRead;
 452              		.loc 1 556 0
 453 0028 9370     		strb	r3, [r2, #2]
 557:.\Generated_Source\PSoC5/UART_READER.c **** 
 558:.\Generated_Source\PSoC5/UART_READER.c ****             if(UART_READER_rxBufferLoopDetect != 0u)
ARM GAS  C:\Users\Yiquing\AppData\Local\Temp\ccJgHlWx.s 			page 19


 454              		.loc 1 558 0
 455 002a 1379     		ldrb	r3, [r2, #4]	@ zero_extendqisi2
 549:.\Generated_Source\PSoC5/UART_READER.c ****             rxData = UART_READER_rxBuffer[locRxBufferRead];
 456              		.loc 1 549 0
 457 002c C0B2     		uxtb	r0, r0
 458              	.LVL28:
 459              		.loc 1 558 0
 460 002e 8BB1     		cbz	r3, .L46
 559:.\Generated_Source\PSoC5/UART_READER.c ****             {
 560:.\Generated_Source\PSoC5/UART_READER.c ****                 UART_READER_rxBufferLoopDetect = 0u;
 461              		.loc 1 560 0
 462 0030 0B4B     		ldr	r3, .L54+4
 463 0032 0022     		movs	r2, #0
 464 0034 1A71     		strb	r2, [r3, #4]
 465 0036 0DE0     		b	.L46
 466              	.LVL29:
 467              	.L44:
 561:.\Generated_Source\PSoC5/UART_READER.c ****                 #if( (UART_READER_RX_INTERRUPT_ENABLED) && (UART_READER_FLOW_CONTROL != 0u) )
 562:.\Generated_Source\PSoC5/UART_READER.c ****                     /* When Hardware Flow Control selected - return RX mask */
 563:.\Generated_Source\PSoC5/UART_READER.c ****                     #if( UART_READER_HD_ENABLED )
 564:.\Generated_Source\PSoC5/UART_READER.c ****                         if((UART_READER_CONTROL_REG & UART_READER_CTRL_HD_SEND) == 0u)
 565:.\Generated_Source\PSoC5/UART_READER.c ****                         {   /* In Half duplex mode return RX mask only if
 566:.\Generated_Source\PSoC5/UART_READER.c ****                             *  RX configuration set, otherwise
 567:.\Generated_Source\PSoC5/UART_READER.c ****                             *  mask will be returned in LoadRxConfig() API.
 568:.\Generated_Source\PSoC5/UART_READER.c ****                             */
 569:.\Generated_Source\PSoC5/UART_READER.c ****                             UART_READER_RXSTATUS_MASK_REG |= UART_READER_RX_STS_FIFO_NOTEMPTY;
 570:.\Generated_Source\PSoC5/UART_READER.c ****                         }
 571:.\Generated_Source\PSoC5/UART_READER.c ****                     #else
 572:.\Generated_Source\PSoC5/UART_READER.c ****                         UART_READER_RXSTATUS_MASK_REG |= UART_READER_RX_STS_FIFO_NOTEMPTY;
 573:.\Generated_Source\PSoC5/UART_READER.c ****                     #endif /* end UART_READER_HD_ENABLED */
 574:.\Generated_Source\PSoC5/UART_READER.c ****                 #endif /* UART_READER_RX_INTERRUPT_ENABLED and Hardware flow control*/
 575:.\Generated_Source\PSoC5/UART_READER.c ****             }
 576:.\Generated_Source\PSoC5/UART_READER.c **** 
 577:.\Generated_Source\PSoC5/UART_READER.c ****         }
 578:.\Generated_Source\PSoC5/UART_READER.c ****         else
 579:.\Generated_Source\PSoC5/UART_READER.c ****         {   rxStatus = UART_READER_RXSTATUS_REG;
 468              		.loc 1 579 0
 469 0038 0B4B     		ldr	r3, .L54+12
 470              	.LVL30:
 471 003a 1B78     		ldrb	r3, [r3]	@ zero_extendqisi2
 472 003c DBB2     		uxtb	r3, r3
 473              	.LVL31:
 580:.\Generated_Source\PSoC5/UART_READER.c ****             if((rxStatus & UART_READER_RX_STS_FIFO_NOTEMPTY) != 0u)
 474              		.loc 1 580 0
 475 003e 03F02002 		and	r2, r3, #32
 476 0042 02F0FF00 		and	r0, r2, #255
 477 0046 2AB1     		cbz	r2, .L46
 581:.\Generated_Source\PSoC5/UART_READER.c ****             {   /* Read received data from FIFO */
 582:.\Generated_Source\PSoC5/UART_READER.c ****                 rxData = UART_READER_RXDATA_REG;
 478              		.loc 1 582 0
 479 0048 084A     		ldr	r2, .L54+16
 583:.\Generated_Source\PSoC5/UART_READER.c ****                 /*Check status on error*/
 584:.\Generated_Source\PSoC5/UART_READER.c ****                 if((rxStatus & (UART_READER_RX_STS_BREAK | UART_READER_RX_STS_PAR_ERROR |
 585:.\Generated_Source\PSoC5/UART_READER.c ****                                 UART_READER_RX_STS_STOP_ERROR | UART_READER_RX_STS_OVERRUN)) != 0u)
 586:.\Generated_Source\PSoC5/UART_READER.c ****                 {
 587:.\Generated_Source\PSoC5/UART_READER.c ****                     rxData = 0u;
 480              		.loc 1 587 0
ARM GAS  C:\Users\Yiquing\AppData\Local\Temp\ccJgHlWx.s 			page 20


 481 004a 13F01E0F 		tst	r3, #30
 582:.\Generated_Source\PSoC5/UART_READER.c ****                 rxData = UART_READER_RXDATA_REG;
 482              		.loc 1 582 0
 483 004e 1078     		ldrb	r0, [r2]	@ zero_extendqisi2
 484              	.LVL32:
 485              		.loc 1 587 0
 486 0050 18BF     		it	ne
 487 0052 0020     		movne	r0, #0
 488              	.LVL33:
 489              	.L46:
 588:.\Generated_Source\PSoC5/UART_READER.c ****                 }
 589:.\Generated_Source\PSoC5/UART_READER.c ****             }
 590:.\Generated_Source\PSoC5/UART_READER.c ****         }
 591:.\Generated_Source\PSoC5/UART_READER.c **** 
 592:.\Generated_Source\PSoC5/UART_READER.c ****         UART_READER_EnableRxInt();
 490              		.loc 1 592 0
 491 0054 064B     		ldr	r3, .L54+20
 492 0056 0422     		movs	r2, #4
 493 0058 1A60     		str	r2, [r3]
 593:.\Generated_Source\PSoC5/UART_READER.c **** 
 594:.\Generated_Source\PSoC5/UART_READER.c ****     #else
 595:.\Generated_Source\PSoC5/UART_READER.c **** 
 596:.\Generated_Source\PSoC5/UART_READER.c ****         rxStatus =UART_READER_RXSTATUS_REG;
 597:.\Generated_Source\PSoC5/UART_READER.c ****         if((rxStatus & UART_READER_RX_STS_FIFO_NOTEMPTY) != 0u)
 598:.\Generated_Source\PSoC5/UART_READER.c ****         {
 599:.\Generated_Source\PSoC5/UART_READER.c ****             /* Read received data from FIFO */
 600:.\Generated_Source\PSoC5/UART_READER.c ****             rxData = UART_READER_RXDATA_REG;
 601:.\Generated_Source\PSoC5/UART_READER.c **** 
 602:.\Generated_Source\PSoC5/UART_READER.c ****             /*Check status on error*/
 603:.\Generated_Source\PSoC5/UART_READER.c ****             if((rxStatus & (UART_READER_RX_STS_BREAK | UART_READER_RX_STS_PAR_ERROR |
 604:.\Generated_Source\PSoC5/UART_READER.c ****                             UART_READER_RX_STS_STOP_ERROR | UART_READER_RX_STS_OVERRUN)) != 0u)
 605:.\Generated_Source\PSoC5/UART_READER.c ****             {
 606:.\Generated_Source\PSoC5/UART_READER.c ****                 rxData = 0u;
 607:.\Generated_Source\PSoC5/UART_READER.c ****             }
 608:.\Generated_Source\PSoC5/UART_READER.c ****         }
 609:.\Generated_Source\PSoC5/UART_READER.c ****     #endif /* (UART_READER_RX_INTERRUPT_ENABLED) */
 610:.\Generated_Source\PSoC5/UART_READER.c **** 
 611:.\Generated_Source\PSoC5/UART_READER.c ****         return(rxData);
 612:.\Generated_Source\PSoC5/UART_READER.c ****     }
 494              		.loc 1 612 0
 495 005a 7047     		bx	lr
 496              	.L55:
 497              		.align	2
 498              	.L54:
 499 005c 80E100E0 		.word	-536813184
 500 0060 00000000 		.word	.LANCHOR0
 501 0064 00000000 		.word	UART_READER_rxBuffer
 502 0068 67640040 		.word	1073767527
 503 006c 47640040 		.word	1073767495
 504 0070 00E100E0 		.word	-536813312
 505              		.cfi_endproc
 506              	.LFE9:
 507              		.size	UART_READER_GetChar, .-UART_READER_GetChar
 508              		.section	.text.UART_READER_GetByte,"ax",%progbits
 509              		.align	1
 510              		.global	UART_READER_GetByte
 511              		.thumb
ARM GAS  C:\Users\Yiquing\AppData\Local\Temp\ccJgHlWx.s 			page 21


 512              		.thumb_func
 513              		.type	UART_READER_GetByte, %function
 514              	UART_READER_GetByte:
 515              	.LFB10:
 613:.\Generated_Source\PSoC5/UART_READER.c **** 
 614:.\Generated_Source\PSoC5/UART_READER.c **** 
 615:.\Generated_Source\PSoC5/UART_READER.c ****     /*******************************************************************************
 616:.\Generated_Source\PSoC5/UART_READER.c ****     * Function Name: UART_READER_GetByte
 617:.\Generated_Source\PSoC5/UART_READER.c ****     ********************************************************************************
 618:.\Generated_Source\PSoC5/UART_READER.c ****     *
 619:.\Generated_Source\PSoC5/UART_READER.c ****     * Summary:
 620:.\Generated_Source\PSoC5/UART_READER.c ****     *  Reads UART RX buffer immediately, returns received character and error
 621:.\Generated_Source\PSoC5/UART_READER.c ****     *  condition.
 622:.\Generated_Source\PSoC5/UART_READER.c ****     *
 623:.\Generated_Source\PSoC5/UART_READER.c ****     * Parameters:
 624:.\Generated_Source\PSoC5/UART_READER.c ****     *  None.
 625:.\Generated_Source\PSoC5/UART_READER.c ****     *
 626:.\Generated_Source\PSoC5/UART_READER.c ****     * Return:
 627:.\Generated_Source\PSoC5/UART_READER.c ****     *  MSB contains status and LSB contains UART RX data. If the MSB is nonzero,
 628:.\Generated_Source\PSoC5/UART_READER.c ****     *  an error has occurred.
 629:.\Generated_Source\PSoC5/UART_READER.c ****     *
 630:.\Generated_Source\PSoC5/UART_READER.c ****     * Reentrant:
 631:.\Generated_Source\PSoC5/UART_READER.c ****     *  No.
 632:.\Generated_Source\PSoC5/UART_READER.c ****     *
 633:.\Generated_Source\PSoC5/UART_READER.c ****     *******************************************************************************/
 634:.\Generated_Source\PSoC5/UART_READER.c ****     uint16 UART_READER_GetByte(void) 
 635:.\Generated_Source\PSoC5/UART_READER.c ****     {
 516              		.loc 1 635 0
 517              		.cfi_startproc
 518              		@ args = 0, pretend = 0, frame = 0
 519              		@ frame_needed = 0, uses_anonymous_args = 0
 520 0000 10B5     		push	{r4, lr}
 521              		.cfi_def_cfa_offset 8
 522              		.cfi_offset 4, -8
 523              		.cfi_offset 14, -4
 636:.\Generated_Source\PSoC5/UART_READER.c ****         
 637:.\Generated_Source\PSoC5/UART_READER.c ****     #if (UART_READER_RX_INTERRUPT_ENABLED)
 638:.\Generated_Source\PSoC5/UART_READER.c ****         uint16 locErrorStatus;
 639:.\Generated_Source\PSoC5/UART_READER.c ****         /* Protect variables that could change on interrupt */
 640:.\Generated_Source\PSoC5/UART_READER.c ****         UART_READER_DisableRxInt();
 524              		.loc 1 640 0
 525 0002 074A     		ldr	r2, .L57
 526 0004 0423     		movs	r3, #4
 527 0006 1360     		str	r3, [r2]
 641:.\Generated_Source\PSoC5/UART_READER.c ****         locErrorStatus = (uint16)UART_READER_errorStatus;
 528              		.loc 1 641 0
 529 0008 064A     		ldr	r2, .L57+4
 642:.\Generated_Source\PSoC5/UART_READER.c ****         UART_READER_errorStatus = 0u;
 530              		.loc 1 642 0
 531 000a 0021     		movs	r1, #0
 641:.\Generated_Source\PSoC5/UART_READER.c ****         locErrorStatus = (uint16)UART_READER_errorStatus;
 532              		.loc 1 641 0
 533 000c 1478     		ldrb	r4, [r2]	@ zero_extendqisi2
 534              	.LVL34:
 535              		.loc 1 642 0
 536 000e 1170     		strb	r1, [r2]
 643:.\Generated_Source\PSoC5/UART_READER.c ****         UART_READER_EnableRxInt();
ARM GAS  C:\Users\Yiquing\AppData\Local\Temp\ccJgHlWx.s 			page 22


 537              		.loc 1 643 0
 538 0010 054A     		ldr	r2, .L57+8
 539 0012 1360     		str	r3, [r2]
 644:.\Generated_Source\PSoC5/UART_READER.c ****         return ( (uint16)(locErrorStatus << 8u) | UART_READER_ReadRxData() );
 540              		.loc 1 644 0
 541 0014 FFF7FEFF 		bl	UART_READER_ReadRxData
 542              	.LVL35:
 543 0018 40EA0420 		orr	r0, r0, r4, lsl #8
 645:.\Generated_Source\PSoC5/UART_READER.c ****     #else
 646:.\Generated_Source\PSoC5/UART_READER.c ****         return ( ((uint16)UART_READER_ReadRxStatus() << 8u) | UART_READER_ReadRxData() );
 647:.\Generated_Source\PSoC5/UART_READER.c ****     #endif /* UART_READER_RX_INTERRUPT_ENABLED */
 648:.\Generated_Source\PSoC5/UART_READER.c ****         
 649:.\Generated_Source\PSoC5/UART_READER.c ****     }
 544              		.loc 1 649 0
 545 001c 80B2     		uxth	r0, r0
 546 001e 10BD     		pop	{r4, pc}
 547              	.LVL36:
 548              	.L58:
 549              		.align	2
 550              	.L57:
 551 0020 80E100E0 		.word	-536813184
 552 0024 00000000 		.word	.LANCHOR0
 553 0028 00E100E0 		.word	-536813312
 554              		.cfi_endproc
 555              	.LFE10:
 556              		.size	UART_READER_GetByte, .-UART_READER_GetByte
 557              		.section	.text.UART_READER_GetRxBufferSize,"ax",%progbits
 558              		.align	1
 559              		.global	UART_READER_GetRxBufferSize
 560              		.thumb
 561              		.thumb_func
 562              		.type	UART_READER_GetRxBufferSize, %function
 563              	UART_READER_GetRxBufferSize:
 564              	.LFB11:
 650:.\Generated_Source\PSoC5/UART_READER.c **** 
 651:.\Generated_Source\PSoC5/UART_READER.c **** 
 652:.\Generated_Source\PSoC5/UART_READER.c ****     /*******************************************************************************
 653:.\Generated_Source\PSoC5/UART_READER.c ****     * Function Name: UART_READER_GetRxBufferSize
 654:.\Generated_Source\PSoC5/UART_READER.c ****     ********************************************************************************
 655:.\Generated_Source\PSoC5/UART_READER.c ****     *
 656:.\Generated_Source\PSoC5/UART_READER.c ****     * Summary:
 657:.\Generated_Source\PSoC5/UART_READER.c ****     *  Returns the number of received bytes available in the RX buffer.
 658:.\Generated_Source\PSoC5/UART_READER.c ****     *  * RX software buffer is disabled (RX Buffer Size parameter is equal to 4): 
 659:.\Generated_Source\PSoC5/UART_READER.c ****     *    returns 0 for empty RX FIFO or 1 for not empty RX FIFO.
 660:.\Generated_Source\PSoC5/UART_READER.c ****     *  * RX software buffer is enabled: returns the number of bytes available in 
 661:.\Generated_Source\PSoC5/UART_READER.c ****     *    the RX software buffer. Bytes available in the RX FIFO do not take to 
 662:.\Generated_Source\PSoC5/UART_READER.c ****     *    account.
 663:.\Generated_Source\PSoC5/UART_READER.c ****     *
 664:.\Generated_Source\PSoC5/UART_READER.c ****     * Parameters:
 665:.\Generated_Source\PSoC5/UART_READER.c ****     *  None.
 666:.\Generated_Source\PSoC5/UART_READER.c ****     *
 667:.\Generated_Source\PSoC5/UART_READER.c ****     * Return:
 668:.\Generated_Source\PSoC5/UART_READER.c ****     *  uint8: Number of bytes in the RX buffer. 
 669:.\Generated_Source\PSoC5/UART_READER.c ****     *    Return value type depends on RX Buffer Size parameter.
 670:.\Generated_Source\PSoC5/UART_READER.c ****     *
 671:.\Generated_Source\PSoC5/UART_READER.c ****     * Global Variables:
 672:.\Generated_Source\PSoC5/UART_READER.c ****     *  UART_READER_rxBufferWrite - used to calculate left bytes.
ARM GAS  C:\Users\Yiquing\AppData\Local\Temp\ccJgHlWx.s 			page 23


 673:.\Generated_Source\PSoC5/UART_READER.c ****     *  UART_READER_rxBufferRead - used to calculate left bytes.
 674:.\Generated_Source\PSoC5/UART_READER.c ****     *  UART_READER_rxBufferLoopDetect - checked to decide left bytes amount.
 675:.\Generated_Source\PSoC5/UART_READER.c ****     *
 676:.\Generated_Source\PSoC5/UART_READER.c ****     * Reentrant:
 677:.\Generated_Source\PSoC5/UART_READER.c ****     *  No.
 678:.\Generated_Source\PSoC5/UART_READER.c ****     *
 679:.\Generated_Source\PSoC5/UART_READER.c ****     * Theory:
 680:.\Generated_Source\PSoC5/UART_READER.c ****     *  Allows the user to find out how full the RX Buffer is.
 681:.\Generated_Source\PSoC5/UART_READER.c ****     *
 682:.\Generated_Source\PSoC5/UART_READER.c ****     *******************************************************************************/
 683:.\Generated_Source\PSoC5/UART_READER.c ****     uint8 UART_READER_GetRxBufferSize(void)
 684:.\Generated_Source\PSoC5/UART_READER.c ****                                                             
 685:.\Generated_Source\PSoC5/UART_READER.c ****     {
 565              		.loc 1 685 0
 566              		.cfi_startproc
 567              		@ args = 0, pretend = 0, frame = 0
 568              		@ frame_needed = 0, uses_anonymous_args = 0
 569              		@ link register save eliminated.
 686:.\Generated_Source\PSoC5/UART_READER.c ****         uint8 size;
 687:.\Generated_Source\PSoC5/UART_READER.c **** 
 688:.\Generated_Source\PSoC5/UART_READER.c ****     #if (UART_READER_RX_INTERRUPT_ENABLED)
 689:.\Generated_Source\PSoC5/UART_READER.c **** 
 690:.\Generated_Source\PSoC5/UART_READER.c ****         /* Protect variables that could change on interrupt */
 691:.\Generated_Source\PSoC5/UART_READER.c ****         UART_READER_DisableRxInt();
 570              		.loc 1 691 0
 571 0000 0D4B     		ldr	r3, .L65
 572 0002 0422     		movs	r2, #4
 573 0004 1A60     		str	r2, [r3]
 692:.\Generated_Source\PSoC5/UART_READER.c **** 
 693:.\Generated_Source\PSoC5/UART_READER.c ****         if(UART_READER_rxBufferRead == UART_READER_rxBufferWrite)
 574              		.loc 1 693 0
 575 0006 0D4B     		ldr	r3, .L65+4
 576 0008 9978     		ldrb	r1, [r3, #2]	@ zero_extendqisi2
 577 000a DA78     		ldrb	r2, [r3, #3]	@ zero_extendqisi2
 578 000c 9142     		cmp	r1, r2
 579 000e 05D1     		bne	.L60
 694:.\Generated_Source\PSoC5/UART_READER.c ****         {
 695:.\Generated_Source\PSoC5/UART_READER.c ****             if(UART_READER_rxBufferLoopDetect != 0u)
 580              		.loc 1 695 0
 581 0010 1B79     		ldrb	r3, [r3, #4]	@ zero_extendqisi2
 582 0012 002B     		cmp	r3, #0
 696:.\Generated_Source\PSoC5/UART_READER.c ****             {
 697:.\Generated_Source\PSoC5/UART_READER.c ****                 size = UART_READER_RX_BUFFER_SIZE;
 583              		.loc 1 697 0
 584 0014 0CBF     		ite	eq
 585 0016 0020     		moveq	r0, #0
 586 0018 8020     		movne	r0, #128
 587 001a 08E0     		b	.L61
 588              	.L60:
 698:.\Generated_Source\PSoC5/UART_READER.c ****             }
 699:.\Generated_Source\PSoC5/UART_READER.c ****             else
 700:.\Generated_Source\PSoC5/UART_READER.c ****             {
 701:.\Generated_Source\PSoC5/UART_READER.c ****                 size = 0u;
 702:.\Generated_Source\PSoC5/UART_READER.c ****             }
 703:.\Generated_Source\PSoC5/UART_READER.c ****         }
 704:.\Generated_Source\PSoC5/UART_READER.c ****         else if(UART_READER_rxBufferRead < UART_READER_rxBufferWrite)
 589              		.loc 1 704 0
ARM GAS  C:\Users\Yiquing\AppData\Local\Temp\ccJgHlWx.s 			page 24


 590 001c 9978     		ldrb	r1, [r3, #2]	@ zero_extendqisi2
 591 001e DA78     		ldrb	r2, [r3, #3]	@ zero_extendqisi2
 705:.\Generated_Source\PSoC5/UART_READER.c ****         {
 706:.\Generated_Source\PSoC5/UART_READER.c ****             size = (UART_READER_rxBufferWrite - UART_READER_rxBufferRead);
 592              		.loc 1 706 0
 593 0020 D878     		ldrb	r0, [r3, #3]	@ zero_extendqisi2
 704:.\Generated_Source\PSoC5/UART_READER.c ****         else if(UART_READER_rxBufferRead < UART_READER_rxBufferWrite)
 594              		.loc 1 704 0
 595 0022 9142     		cmp	r1, r2
 596              		.loc 1 706 0
 597 0024 9B78     		ldrb	r3, [r3, #2]	@ zero_extendqisi2
 707:.\Generated_Source\PSoC5/UART_READER.c ****         }
 708:.\Generated_Source\PSoC5/UART_READER.c ****         else
 709:.\Generated_Source\PSoC5/UART_READER.c ****         {
 710:.\Generated_Source\PSoC5/UART_READER.c ****             size = (UART_READER_RX_BUFFER_SIZE - UART_READER_rxBufferRead) + UART_READER_rxBufferWr
 598              		.loc 1 710 0
 599 0026 28BF     		it	cs
 600 0028 8038     		subcs	r0, r0, #128
 601 002a C01A     		subs	r0, r0, r3
 602 002c C0B2     		uxtb	r0, r0
 603              	.LVL37:
 604              	.L61:
 711:.\Generated_Source\PSoC5/UART_READER.c ****         }
 712:.\Generated_Source\PSoC5/UART_READER.c **** 
 713:.\Generated_Source\PSoC5/UART_READER.c ****         UART_READER_EnableRxInt();
 605              		.loc 1 713 0
 606 002e 044B     		ldr	r3, .L65+8
 607 0030 0422     		movs	r2, #4
 608 0032 1A60     		str	r2, [r3]
 714:.\Generated_Source\PSoC5/UART_READER.c **** 
 715:.\Generated_Source\PSoC5/UART_READER.c ****     #else
 716:.\Generated_Source\PSoC5/UART_READER.c **** 
 717:.\Generated_Source\PSoC5/UART_READER.c ****         /* We can only know if there is data in the fifo. */
 718:.\Generated_Source\PSoC5/UART_READER.c ****         size = ((UART_READER_RXSTATUS_REG & UART_READER_RX_STS_FIFO_NOTEMPTY) != 0u) ? 1u : 0u;
 719:.\Generated_Source\PSoC5/UART_READER.c **** 
 720:.\Generated_Source\PSoC5/UART_READER.c ****     #endif /* (UART_READER_RX_INTERRUPT_ENABLED) */
 721:.\Generated_Source\PSoC5/UART_READER.c **** 
 722:.\Generated_Source\PSoC5/UART_READER.c ****         return(size);
 723:.\Generated_Source\PSoC5/UART_READER.c ****     }
 609              		.loc 1 723 0
 610 0034 7047     		bx	lr
 611              	.L66:
 612 0036 00BF     		.align	2
 613              	.L65:
 614 0038 80E100E0 		.word	-536813184
 615 003c 00000000 		.word	.LANCHOR0
 616 0040 00E100E0 		.word	-536813312
 617              		.cfi_endproc
 618              	.LFE11:
 619              		.size	UART_READER_GetRxBufferSize, .-UART_READER_GetRxBufferSize
 620              		.section	.text.UART_READER_ClearRxBuffer,"ax",%progbits
 621              		.align	1
 622              		.global	UART_READER_ClearRxBuffer
 623              		.thumb
 624              		.thumb_func
 625              		.type	UART_READER_ClearRxBuffer, %function
 626              	UART_READER_ClearRxBuffer:
ARM GAS  C:\Users\Yiquing\AppData\Local\Temp\ccJgHlWx.s 			page 25


 627              	.LFB12:
 724:.\Generated_Source\PSoC5/UART_READER.c **** 
 725:.\Generated_Source\PSoC5/UART_READER.c **** 
 726:.\Generated_Source\PSoC5/UART_READER.c ****     /*******************************************************************************
 727:.\Generated_Source\PSoC5/UART_READER.c ****     * Function Name: UART_READER_ClearRxBuffer
 728:.\Generated_Source\PSoC5/UART_READER.c ****     ********************************************************************************
 729:.\Generated_Source\PSoC5/UART_READER.c ****     *
 730:.\Generated_Source\PSoC5/UART_READER.c ****     * Summary:
 731:.\Generated_Source\PSoC5/UART_READER.c ****     *  Clears the receiver memory buffer and hardware RX FIFO of all received data.
 732:.\Generated_Source\PSoC5/UART_READER.c ****     *
 733:.\Generated_Source\PSoC5/UART_READER.c ****     * Parameters:
 734:.\Generated_Source\PSoC5/UART_READER.c ****     *  None.
 735:.\Generated_Source\PSoC5/UART_READER.c ****     *
 736:.\Generated_Source\PSoC5/UART_READER.c ****     * Return:
 737:.\Generated_Source\PSoC5/UART_READER.c ****     *  None.
 738:.\Generated_Source\PSoC5/UART_READER.c ****     *
 739:.\Generated_Source\PSoC5/UART_READER.c ****     * Global Variables:
 740:.\Generated_Source\PSoC5/UART_READER.c ****     *  UART_READER_rxBufferWrite - cleared to zero.
 741:.\Generated_Source\PSoC5/UART_READER.c ****     *  UART_READER_rxBufferRead - cleared to zero.
 742:.\Generated_Source\PSoC5/UART_READER.c ****     *  UART_READER_rxBufferLoopDetect - cleared to zero.
 743:.\Generated_Source\PSoC5/UART_READER.c ****     *  UART_READER_rxBufferOverflow - cleared to zero.
 744:.\Generated_Source\PSoC5/UART_READER.c ****     *
 745:.\Generated_Source\PSoC5/UART_READER.c ****     * Reentrant:
 746:.\Generated_Source\PSoC5/UART_READER.c ****     *  No.
 747:.\Generated_Source\PSoC5/UART_READER.c ****     *
 748:.\Generated_Source\PSoC5/UART_READER.c ****     * Theory:
 749:.\Generated_Source\PSoC5/UART_READER.c ****     *  Setting the pointers to zero makes the system believe there is no data to
 750:.\Generated_Source\PSoC5/UART_READER.c ****     *  read and writing will resume at address 0 overwriting any data that may
 751:.\Generated_Source\PSoC5/UART_READER.c ****     *  have remained in the RAM.
 752:.\Generated_Source\PSoC5/UART_READER.c ****     *
 753:.\Generated_Source\PSoC5/UART_READER.c ****     * Side Effects:
 754:.\Generated_Source\PSoC5/UART_READER.c ****     *  Any received data not read from the RAM or FIFO buffer will be lost.
 755:.\Generated_Source\PSoC5/UART_READER.c ****     *
 756:.\Generated_Source\PSoC5/UART_READER.c ****     *******************************************************************************/
 757:.\Generated_Source\PSoC5/UART_READER.c ****     void UART_READER_ClearRxBuffer(void) 
 758:.\Generated_Source\PSoC5/UART_READER.c ****     {
 628              		.loc 1 758 0
 629              		.cfi_startproc
 630              		@ args = 0, pretend = 0, frame = 0
 631              		@ frame_needed = 0, uses_anonymous_args = 0
 632 0000 08B5     		push	{r3, lr}
 633              		.cfi_def_cfa_offset 8
 634              		.cfi_offset 3, -8
 635              		.cfi_offset 14, -4
 759:.\Generated_Source\PSoC5/UART_READER.c ****         uint8 enableInterrupts;
 760:.\Generated_Source\PSoC5/UART_READER.c **** 
 761:.\Generated_Source\PSoC5/UART_READER.c ****         /* Clear the HW FIFO */
 762:.\Generated_Source\PSoC5/UART_READER.c ****         enableInterrupts = CyEnterCriticalSection();
 636              		.loc 1 762 0
 637 0002 FFF7FEFF 		bl	CyEnterCriticalSection
 638              	.LVL38:
 763:.\Generated_Source\PSoC5/UART_READER.c ****         UART_READER_RXDATA_AUX_CTL_REG |= (uint8)  UART_READER_RX_FIFO_CLR;
 639              		.loc 1 763 0
 640 0006 0B4B     		ldr	r3, .L68
 641 0008 1A78     		ldrb	r2, [r3]	@ zero_extendqisi2
 642 000a 42F00102 		orr	r2, r2, #1
 643 000e 1A70     		strb	r2, [r3]
ARM GAS  C:\Users\Yiquing\AppData\Local\Temp\ccJgHlWx.s 			page 26


 764:.\Generated_Source\PSoC5/UART_READER.c ****         UART_READER_RXDATA_AUX_CTL_REG &= (uint8) ~UART_READER_RX_FIFO_CLR;
 644              		.loc 1 764 0
 645 0010 1A78     		ldrb	r2, [r3]	@ zero_extendqisi2
 646 0012 02F0FE02 		and	r2, r2, #254
 647 0016 1A70     		strb	r2, [r3]
 765:.\Generated_Source\PSoC5/UART_READER.c ****         CyExitCriticalSection(enableInterrupts);
 648              		.loc 1 765 0
 649 0018 FFF7FEFF 		bl	CyExitCriticalSection
 650              	.LVL39:
 766:.\Generated_Source\PSoC5/UART_READER.c **** 
 767:.\Generated_Source\PSoC5/UART_READER.c ****     #if (UART_READER_RX_INTERRUPT_ENABLED)
 768:.\Generated_Source\PSoC5/UART_READER.c **** 
 769:.\Generated_Source\PSoC5/UART_READER.c ****         /* Protect variables that could change on interrupt. */
 770:.\Generated_Source\PSoC5/UART_READER.c ****         UART_READER_DisableRxInt();
 651              		.loc 1 770 0
 652 001c 064B     		ldr	r3, .L68+4
 653 001e 0421     		movs	r1, #4
 654 0020 1960     		str	r1, [r3]
 771:.\Generated_Source\PSoC5/UART_READER.c **** 
 772:.\Generated_Source\PSoC5/UART_READER.c ****         UART_READER_rxBufferRead = 0u;
 655              		.loc 1 772 0
 656 0022 064B     		ldr	r3, .L68+8
 657 0024 0022     		movs	r2, #0
 658 0026 9A70     		strb	r2, [r3, #2]
 773:.\Generated_Source\PSoC5/UART_READER.c ****         UART_READER_rxBufferWrite = 0u;
 659              		.loc 1 773 0
 660 0028 DA70     		strb	r2, [r3, #3]
 774:.\Generated_Source\PSoC5/UART_READER.c ****         UART_READER_rxBufferLoopDetect = 0u;
 661              		.loc 1 774 0
 662 002a 1A71     		strb	r2, [r3, #4]
 775:.\Generated_Source\PSoC5/UART_READER.c ****         UART_READER_rxBufferOverflow = 0u;
 663              		.loc 1 775 0
 664 002c 5A71     		strb	r2, [r3, #5]
 776:.\Generated_Source\PSoC5/UART_READER.c **** 
 777:.\Generated_Source\PSoC5/UART_READER.c ****         UART_READER_EnableRxInt();
 665              		.loc 1 777 0
 666 002e 044B     		ldr	r3, .L68+12
 667 0030 1960     		str	r1, [r3]
 668 0032 08BD     		pop	{r3, pc}
 669              	.L69:
 670              		.align	2
 671              	.L68:
 672 0034 97640040 		.word	1073767575
 673 0038 80E100E0 		.word	-536813184
 674 003c 00000000 		.word	.LANCHOR0
 675 0040 00E100E0 		.word	-536813312
 676              		.cfi_endproc
 677              	.LFE12:
 678              		.size	UART_READER_ClearRxBuffer, .-UART_READER_ClearRxBuffer
 679              		.section	.text.UART_READER_SetRxAddressMode,"ax",%progbits
 680              		.align	1
 681              		.global	UART_READER_SetRxAddressMode
 682              		.thumb
 683              		.thumb_func
 684              		.type	UART_READER_SetRxAddressMode, %function
 685              	UART_READER_SetRxAddressMode:
 686              	.LFB13:
ARM GAS  C:\Users\Yiquing\AppData\Local\Temp\ccJgHlWx.s 			page 27


 778:.\Generated_Source\PSoC5/UART_READER.c **** 
 779:.\Generated_Source\PSoC5/UART_READER.c ****     #endif /* (UART_READER_RX_INTERRUPT_ENABLED) */
 780:.\Generated_Source\PSoC5/UART_READER.c **** 
 781:.\Generated_Source\PSoC5/UART_READER.c ****     }
 782:.\Generated_Source\PSoC5/UART_READER.c **** 
 783:.\Generated_Source\PSoC5/UART_READER.c **** 
 784:.\Generated_Source\PSoC5/UART_READER.c ****     /*******************************************************************************
 785:.\Generated_Source\PSoC5/UART_READER.c ****     * Function Name: UART_READER_SetRxAddressMode
 786:.\Generated_Source\PSoC5/UART_READER.c ****     ********************************************************************************
 787:.\Generated_Source\PSoC5/UART_READER.c ****     *
 788:.\Generated_Source\PSoC5/UART_READER.c ****     * Summary:
 789:.\Generated_Source\PSoC5/UART_READER.c ****     *  Sets the software controlled Addressing mode used by the RX portion of the
 790:.\Generated_Source\PSoC5/UART_READER.c ****     *  UART.
 791:.\Generated_Source\PSoC5/UART_READER.c ****     *
 792:.\Generated_Source\PSoC5/UART_READER.c ****     * Parameters:
 793:.\Generated_Source\PSoC5/UART_READER.c ****     *  addressMode: Enumerated value indicating the mode of RX addressing
 794:.\Generated_Source\PSoC5/UART_READER.c ****     *  UART_READER__B_UART__AM_SW_BYTE_BYTE -  Software Byte-by-Byte address
 795:.\Generated_Source\PSoC5/UART_READER.c ****     *                                               detection
 796:.\Generated_Source\PSoC5/UART_READER.c ****     *  UART_READER__B_UART__AM_SW_DETECT_TO_BUFFER - Software Detect to Buffer
 797:.\Generated_Source\PSoC5/UART_READER.c ****     *                                               address detection
 798:.\Generated_Source\PSoC5/UART_READER.c ****     *  UART_READER__B_UART__AM_HW_BYTE_BY_BYTE - Hardware Byte-by-Byte address
 799:.\Generated_Source\PSoC5/UART_READER.c ****     *                                               detection
 800:.\Generated_Source\PSoC5/UART_READER.c ****     *  UART_READER__B_UART__AM_HW_DETECT_TO_BUFFER - Hardware Detect to Buffer
 801:.\Generated_Source\PSoC5/UART_READER.c ****     *                                               address detection
 802:.\Generated_Source\PSoC5/UART_READER.c ****     *  UART_READER__B_UART__AM_NONE - No address detection
 803:.\Generated_Source\PSoC5/UART_READER.c ****     *
 804:.\Generated_Source\PSoC5/UART_READER.c ****     * Return:
 805:.\Generated_Source\PSoC5/UART_READER.c ****     *  None.
 806:.\Generated_Source\PSoC5/UART_READER.c ****     *
 807:.\Generated_Source\PSoC5/UART_READER.c ****     * Global Variables:
 808:.\Generated_Source\PSoC5/UART_READER.c ****     *  UART_READER_rxAddressMode - the parameter stored in this variable for
 809:.\Generated_Source\PSoC5/UART_READER.c ****     *   the farther usage in RX ISR.
 810:.\Generated_Source\PSoC5/UART_READER.c ****     *  UART_READER_rxAddressDetected - set to initial state (0).
 811:.\Generated_Source\PSoC5/UART_READER.c ****     *
 812:.\Generated_Source\PSoC5/UART_READER.c ****     *******************************************************************************/
 813:.\Generated_Source\PSoC5/UART_READER.c ****     void UART_READER_SetRxAddressMode(uint8 addressMode)
 814:.\Generated_Source\PSoC5/UART_READER.c ****                                                         
 815:.\Generated_Source\PSoC5/UART_READER.c ****     {
 687              		.loc 1 815 0
 688              		.cfi_startproc
 689              		@ args = 0, pretend = 0, frame = 0
 690              		@ frame_needed = 0, uses_anonymous_args = 0
 691              		@ link register save eliminated.
 692              	.LVL40:
 693 0000 7047     		bx	lr
 694              		.cfi_endproc
 695              	.LFE13:
 696              		.size	UART_READER_SetRxAddressMode, .-UART_READER_SetRxAddressMode
 697              		.section	.text.UART_READER_SetRxAddress1,"ax",%progbits
 698              		.align	1
 699              		.global	UART_READER_SetRxAddress1
 700              		.thumb
 701              		.thumb_func
 702              		.type	UART_READER_SetRxAddress1, %function
 703              	UART_READER_SetRxAddress1:
 704              	.LFB14:
 816:.\Generated_Source\PSoC5/UART_READER.c ****         #if(UART_READER_RXHW_ADDRESS_ENABLED)
ARM GAS  C:\Users\Yiquing\AppData\Local\Temp\ccJgHlWx.s 			page 28


 817:.\Generated_Source\PSoC5/UART_READER.c ****             #if(UART_READER_CONTROL_REG_REMOVED)
 818:.\Generated_Source\PSoC5/UART_READER.c ****                 if(0u != addressMode)
 819:.\Generated_Source\PSoC5/UART_READER.c ****                 {
 820:.\Generated_Source\PSoC5/UART_READER.c ****                     /* Suppress compiler warning */
 821:.\Generated_Source\PSoC5/UART_READER.c ****                 }
 822:.\Generated_Source\PSoC5/UART_READER.c ****             #else /* UART_READER_CONTROL_REG_REMOVED */
 823:.\Generated_Source\PSoC5/UART_READER.c ****                 uint8 tmpCtrl;
 824:.\Generated_Source\PSoC5/UART_READER.c ****                 tmpCtrl = UART_READER_CONTROL_REG & (uint8)~UART_READER_CTRL_RXADDR_MODE_MASK;
 825:.\Generated_Source\PSoC5/UART_READER.c ****                 tmpCtrl |= (uint8)(addressMode << UART_READER_CTRL_RXADDR_MODE0_SHIFT);
 826:.\Generated_Source\PSoC5/UART_READER.c ****                 UART_READER_CONTROL_REG = tmpCtrl;
 827:.\Generated_Source\PSoC5/UART_READER.c **** 
 828:.\Generated_Source\PSoC5/UART_READER.c ****                 #if(UART_READER_RX_INTERRUPT_ENABLED && \
 829:.\Generated_Source\PSoC5/UART_READER.c ****                    (UART_READER_RXBUFFERSIZE > UART_READER_FIFO_LENGTH) )
 830:.\Generated_Source\PSoC5/UART_READER.c ****                     UART_READER_rxAddressMode = addressMode;
 831:.\Generated_Source\PSoC5/UART_READER.c ****                     UART_READER_rxAddressDetected = 0u;
 832:.\Generated_Source\PSoC5/UART_READER.c ****                 #endif /* End UART_READER_RXBUFFERSIZE > UART_READER_FIFO_LENGTH*/
 833:.\Generated_Source\PSoC5/UART_READER.c ****             #endif /* End UART_READER_CONTROL_REG_REMOVED */
 834:.\Generated_Source\PSoC5/UART_READER.c ****         #else /* UART_READER_RXHW_ADDRESS_ENABLED */
 835:.\Generated_Source\PSoC5/UART_READER.c ****             if(0u != addressMode)
 836:.\Generated_Source\PSoC5/UART_READER.c ****             {
 837:.\Generated_Source\PSoC5/UART_READER.c ****                 /* Suppress compiler warning */
 838:.\Generated_Source\PSoC5/UART_READER.c ****             }
 839:.\Generated_Source\PSoC5/UART_READER.c ****         #endif /* End UART_READER_RXHW_ADDRESS_ENABLED */
 840:.\Generated_Source\PSoC5/UART_READER.c ****     }
 841:.\Generated_Source\PSoC5/UART_READER.c **** 
 842:.\Generated_Source\PSoC5/UART_READER.c **** 
 843:.\Generated_Source\PSoC5/UART_READER.c ****     /*******************************************************************************
 844:.\Generated_Source\PSoC5/UART_READER.c ****     * Function Name: UART_READER_SetRxAddress1
 845:.\Generated_Source\PSoC5/UART_READER.c ****     ********************************************************************************
 846:.\Generated_Source\PSoC5/UART_READER.c ****     *
 847:.\Generated_Source\PSoC5/UART_READER.c ****     * Summary:
 848:.\Generated_Source\PSoC5/UART_READER.c ****     *  Sets the first of two hardware-detectable receiver addresses.
 849:.\Generated_Source\PSoC5/UART_READER.c ****     *
 850:.\Generated_Source\PSoC5/UART_READER.c ****     * Parameters:
 851:.\Generated_Source\PSoC5/UART_READER.c ****     *  address: Address #1 for hardware address detection.
 852:.\Generated_Source\PSoC5/UART_READER.c ****     *
 853:.\Generated_Source\PSoC5/UART_READER.c ****     * Return:
 854:.\Generated_Source\PSoC5/UART_READER.c ****     *  None.
 855:.\Generated_Source\PSoC5/UART_READER.c ****     *
 856:.\Generated_Source\PSoC5/UART_READER.c ****     *******************************************************************************/
 857:.\Generated_Source\PSoC5/UART_READER.c ****     void UART_READER_SetRxAddress1(uint8 address) 
 858:.\Generated_Source\PSoC5/UART_READER.c ****     {
 705              		.loc 1 858 0
 706              		.cfi_startproc
 707              		@ args = 0, pretend = 0, frame = 0
 708              		@ frame_needed = 0, uses_anonymous_args = 0
 709              		@ link register save eliminated.
 710              	.LVL41:
 859:.\Generated_Source\PSoC5/UART_READER.c ****         UART_READER_RXADDRESS1_REG = address;
 711              		.loc 1 859 0
 712 0000 014B     		ldr	r3, .L72
 713 0002 1870     		strb	r0, [r3]
 714 0004 7047     		bx	lr
 715              	.L73:
 716 0006 00BF     		.align	2
 717              	.L72:
 718 0008 27640040 		.word	1073767463
ARM GAS  C:\Users\Yiquing\AppData\Local\Temp\ccJgHlWx.s 			page 29


 719              		.cfi_endproc
 720              	.LFE14:
 721              		.size	UART_READER_SetRxAddress1, .-UART_READER_SetRxAddress1
 722              		.section	.text.UART_READER_SetRxAddress2,"ax",%progbits
 723              		.align	1
 724              		.global	UART_READER_SetRxAddress2
 725              		.thumb
 726              		.thumb_func
 727              		.type	UART_READER_SetRxAddress2, %function
 728              	UART_READER_SetRxAddress2:
 729              	.LFB15:
 860:.\Generated_Source\PSoC5/UART_READER.c ****     }
 861:.\Generated_Source\PSoC5/UART_READER.c **** 
 862:.\Generated_Source\PSoC5/UART_READER.c **** 
 863:.\Generated_Source\PSoC5/UART_READER.c ****     /*******************************************************************************
 864:.\Generated_Source\PSoC5/UART_READER.c ****     * Function Name: UART_READER_SetRxAddress2
 865:.\Generated_Source\PSoC5/UART_READER.c ****     ********************************************************************************
 866:.\Generated_Source\PSoC5/UART_READER.c ****     *
 867:.\Generated_Source\PSoC5/UART_READER.c ****     * Summary:
 868:.\Generated_Source\PSoC5/UART_READER.c ****     *  Sets the second of two hardware-detectable receiver addresses.
 869:.\Generated_Source\PSoC5/UART_READER.c ****     *
 870:.\Generated_Source\PSoC5/UART_READER.c ****     * Parameters:
 871:.\Generated_Source\PSoC5/UART_READER.c ****     *  address: Address #2 for hardware address detection.
 872:.\Generated_Source\PSoC5/UART_READER.c ****     *
 873:.\Generated_Source\PSoC5/UART_READER.c ****     * Return:
 874:.\Generated_Source\PSoC5/UART_READER.c ****     *  None.
 875:.\Generated_Source\PSoC5/UART_READER.c ****     *
 876:.\Generated_Source\PSoC5/UART_READER.c ****     *******************************************************************************/
 877:.\Generated_Source\PSoC5/UART_READER.c ****     void UART_READER_SetRxAddress2(uint8 address) 
 878:.\Generated_Source\PSoC5/UART_READER.c ****     {
 730              		.loc 1 878 0
 731              		.cfi_startproc
 732              		@ args = 0, pretend = 0, frame = 0
 733              		@ frame_needed = 0, uses_anonymous_args = 0
 734              		@ link register save eliminated.
 735              	.LVL42:
 879:.\Generated_Source\PSoC5/UART_READER.c ****         UART_READER_RXADDRESS2_REG = address;
 736              		.loc 1 879 0
 737 0000 014B     		ldr	r3, .L75
 738 0002 1870     		strb	r0, [r3]
 739 0004 7047     		bx	lr
 740              	.L76:
 741 0006 00BF     		.align	2
 742              	.L75:
 743 0008 37640040 		.word	1073767479
 744              		.cfi_endproc
 745              	.LFE15:
 746              		.size	UART_READER_SetRxAddress2, .-UART_READER_SetRxAddress2
 747              		.section	.text.UART_READER_SetTxInterruptMode,"ax",%progbits
 748              		.align	1
 749              		.global	UART_READER_SetTxInterruptMode
 750              		.thumb
 751              		.thumb_func
 752              		.type	UART_READER_SetTxInterruptMode, %function
 753              	UART_READER_SetTxInterruptMode:
 754              	.LFB16:
 880:.\Generated_Source\PSoC5/UART_READER.c ****     }
ARM GAS  C:\Users\Yiquing\AppData\Local\Temp\ccJgHlWx.s 			page 30


 881:.\Generated_Source\PSoC5/UART_READER.c **** 
 882:.\Generated_Source\PSoC5/UART_READER.c **** #endif  /* UART_READER_RX_ENABLED || UART_READER_HD_ENABLED*/
 883:.\Generated_Source\PSoC5/UART_READER.c **** 
 884:.\Generated_Source\PSoC5/UART_READER.c **** 
 885:.\Generated_Source\PSoC5/UART_READER.c **** #if( (UART_READER_TX_ENABLED) || (UART_READER_HD_ENABLED) )
 886:.\Generated_Source\PSoC5/UART_READER.c ****     /*******************************************************************************
 887:.\Generated_Source\PSoC5/UART_READER.c ****     * Function Name: UART_READER_SetTxInterruptMode
 888:.\Generated_Source\PSoC5/UART_READER.c ****     ********************************************************************************
 889:.\Generated_Source\PSoC5/UART_READER.c ****     *
 890:.\Generated_Source\PSoC5/UART_READER.c ****     * Summary:
 891:.\Generated_Source\PSoC5/UART_READER.c ****     *  Configures the TX interrupt sources to be enabled, but does not enable the
 892:.\Generated_Source\PSoC5/UART_READER.c ****     *  interrupt.
 893:.\Generated_Source\PSoC5/UART_READER.c ****     *
 894:.\Generated_Source\PSoC5/UART_READER.c ****     * Parameters:
 895:.\Generated_Source\PSoC5/UART_READER.c ****     *  intSrc: Bit field containing the TX interrupt sources to enable
 896:.\Generated_Source\PSoC5/UART_READER.c ****     *   UART_READER_TX_STS_COMPLETE        Interrupt on TX byte complete
 897:.\Generated_Source\PSoC5/UART_READER.c ****     *   UART_READER_TX_STS_FIFO_EMPTY      Interrupt when TX FIFO is empty
 898:.\Generated_Source\PSoC5/UART_READER.c ****     *   UART_READER_TX_STS_FIFO_FULL       Interrupt when TX FIFO is full
 899:.\Generated_Source\PSoC5/UART_READER.c ****     *   UART_READER_TX_STS_FIFO_NOT_FULL   Interrupt when TX FIFO is not full
 900:.\Generated_Source\PSoC5/UART_READER.c ****     *
 901:.\Generated_Source\PSoC5/UART_READER.c ****     * Return:
 902:.\Generated_Source\PSoC5/UART_READER.c ****     *  None.
 903:.\Generated_Source\PSoC5/UART_READER.c ****     *
 904:.\Generated_Source\PSoC5/UART_READER.c ****     * Theory:
 905:.\Generated_Source\PSoC5/UART_READER.c ****     *  Enables the output of specific status bits to the interrupt controller
 906:.\Generated_Source\PSoC5/UART_READER.c ****     *
 907:.\Generated_Source\PSoC5/UART_READER.c ****     *******************************************************************************/
 908:.\Generated_Source\PSoC5/UART_READER.c ****     void UART_READER_SetTxInterruptMode(uint8 intSrc) 
 909:.\Generated_Source\PSoC5/UART_READER.c ****     {
 755              		.loc 1 909 0
 756              		.cfi_startproc
 757              		@ args = 0, pretend = 0, frame = 0
 758              		@ frame_needed = 0, uses_anonymous_args = 0
 759              		@ link register save eliminated.
 760              	.LVL43:
 910:.\Generated_Source\PSoC5/UART_READER.c ****         UART_READER_TXSTATUS_MASK_REG = intSrc;
 761              		.loc 1 910 0
 762 0000 014B     		ldr	r3, .L78
 763 0002 1870     		strb	r0, [r3]
 764 0004 7047     		bx	lr
 765              	.L79:
 766 0006 00BF     		.align	2
 767              	.L78:
 768 0008 87640040 		.word	1073767559
 769              		.cfi_endproc
 770              	.LFE16:
 771              		.size	UART_READER_SetTxInterruptMode, .-UART_READER_SetTxInterruptMode
 772              		.section	.text.UART_READER_WriteTxData,"ax",%progbits
 773              		.align	1
 774              		.global	UART_READER_WriteTxData
 775              		.thumb
 776              		.thumb_func
 777              		.type	UART_READER_WriteTxData, %function
 778              	UART_READER_WriteTxData:
 779              	.LFB17:
 911:.\Generated_Source\PSoC5/UART_READER.c ****     }
 912:.\Generated_Source\PSoC5/UART_READER.c **** 
ARM GAS  C:\Users\Yiquing\AppData\Local\Temp\ccJgHlWx.s 			page 31


 913:.\Generated_Source\PSoC5/UART_READER.c **** 
 914:.\Generated_Source\PSoC5/UART_READER.c ****     /*******************************************************************************
 915:.\Generated_Source\PSoC5/UART_READER.c ****     * Function Name: UART_READER_WriteTxData
 916:.\Generated_Source\PSoC5/UART_READER.c ****     ********************************************************************************
 917:.\Generated_Source\PSoC5/UART_READER.c ****     *
 918:.\Generated_Source\PSoC5/UART_READER.c ****     * Summary:
 919:.\Generated_Source\PSoC5/UART_READER.c ****     *  Places a byte of data into the transmit buffer to be sent when the bus is
 920:.\Generated_Source\PSoC5/UART_READER.c ****     *  available without checking the TX status register. You must check status
 921:.\Generated_Source\PSoC5/UART_READER.c ****     *  separately.
 922:.\Generated_Source\PSoC5/UART_READER.c ****     *
 923:.\Generated_Source\PSoC5/UART_READER.c ****     * Parameters:
 924:.\Generated_Source\PSoC5/UART_READER.c ****     *  txDataByte: data byte
 925:.\Generated_Source\PSoC5/UART_READER.c ****     *
 926:.\Generated_Source\PSoC5/UART_READER.c ****     * Return:
 927:.\Generated_Source\PSoC5/UART_READER.c ****     * None.
 928:.\Generated_Source\PSoC5/UART_READER.c ****     *
 929:.\Generated_Source\PSoC5/UART_READER.c ****     * Global Variables:
 930:.\Generated_Source\PSoC5/UART_READER.c ****     *  UART_READER_txBuffer - RAM buffer pointer for save data for transmission
 931:.\Generated_Source\PSoC5/UART_READER.c ****     *  UART_READER_txBufferWrite - cyclic index for write to txBuffer,
 932:.\Generated_Source\PSoC5/UART_READER.c ****     *    incremented after each byte saved to buffer.
 933:.\Generated_Source\PSoC5/UART_READER.c ****     *  UART_READER_txBufferRead - cyclic index for read from txBuffer,
 934:.\Generated_Source\PSoC5/UART_READER.c ****     *    checked to identify the condition to write to FIFO directly or to TX buffer
 935:.\Generated_Source\PSoC5/UART_READER.c ****     *  UART_READER_initVar - checked to identify that the component has been
 936:.\Generated_Source\PSoC5/UART_READER.c ****     *    initialized.
 937:.\Generated_Source\PSoC5/UART_READER.c ****     *
 938:.\Generated_Source\PSoC5/UART_READER.c ****     * Reentrant:
 939:.\Generated_Source\PSoC5/UART_READER.c ****     *  No.
 940:.\Generated_Source\PSoC5/UART_READER.c ****     *
 941:.\Generated_Source\PSoC5/UART_READER.c ****     *******************************************************************************/
 942:.\Generated_Source\PSoC5/UART_READER.c ****     void UART_READER_WriteTxData(uint8 txDataByte) 
 943:.\Generated_Source\PSoC5/UART_READER.c ****     {
 780              		.loc 1 943 0
 781              		.cfi_startproc
 782              		@ args = 0, pretend = 0, frame = 0
 783              		@ frame_needed = 0, uses_anonymous_args = 0
 784              		@ link register save eliminated.
 785              	.LVL44:
 944:.\Generated_Source\PSoC5/UART_READER.c ****         /* If not Initialized then skip this function*/
 945:.\Generated_Source\PSoC5/UART_READER.c ****         if(UART_READER_initVar != 0u)
 786              		.loc 1 945 0
 787 0000 024B     		ldr	r3, .L85
 788 0002 5B78     		ldrb	r3, [r3, #1]	@ zero_extendqisi2
 789 0004 0BB1     		cbz	r3, .L80
 946:.\Generated_Source\PSoC5/UART_READER.c ****         {
 947:.\Generated_Source\PSoC5/UART_READER.c ****         #if (UART_READER_TX_INTERRUPT_ENABLED)
 948:.\Generated_Source\PSoC5/UART_READER.c **** 
 949:.\Generated_Source\PSoC5/UART_READER.c ****             /* Protect variables that could change on interrupt. */
 950:.\Generated_Source\PSoC5/UART_READER.c ****             UART_READER_DisableTxInt();
 951:.\Generated_Source\PSoC5/UART_READER.c **** 
 952:.\Generated_Source\PSoC5/UART_READER.c ****             if( (UART_READER_txBufferRead == UART_READER_txBufferWrite) &&
 953:.\Generated_Source\PSoC5/UART_READER.c ****                 ((UART_READER_TXSTATUS_REG & UART_READER_TX_STS_FIFO_FULL) == 0u) )
 954:.\Generated_Source\PSoC5/UART_READER.c ****             {
 955:.\Generated_Source\PSoC5/UART_READER.c ****                 /* Add directly to the FIFO. */
 956:.\Generated_Source\PSoC5/UART_READER.c ****                 UART_READER_TXDATA_REG = txDataByte;
 957:.\Generated_Source\PSoC5/UART_READER.c ****             }
 958:.\Generated_Source\PSoC5/UART_READER.c ****             else
 959:.\Generated_Source\PSoC5/UART_READER.c ****             {
ARM GAS  C:\Users\Yiquing\AppData\Local\Temp\ccJgHlWx.s 			page 32


 960:.\Generated_Source\PSoC5/UART_READER.c ****                 if(UART_READER_txBufferWrite >= UART_READER_TX_BUFFER_SIZE)
 961:.\Generated_Source\PSoC5/UART_READER.c ****                 {
 962:.\Generated_Source\PSoC5/UART_READER.c ****                     UART_READER_txBufferWrite = 0u;
 963:.\Generated_Source\PSoC5/UART_READER.c ****                 }
 964:.\Generated_Source\PSoC5/UART_READER.c **** 
 965:.\Generated_Source\PSoC5/UART_READER.c ****                 UART_READER_txBuffer[UART_READER_txBufferWrite] = txDataByte;
 966:.\Generated_Source\PSoC5/UART_READER.c **** 
 967:.\Generated_Source\PSoC5/UART_READER.c ****                 /* Add to the software buffer. */
 968:.\Generated_Source\PSoC5/UART_READER.c ****                 UART_READER_txBufferWrite++;
 969:.\Generated_Source\PSoC5/UART_READER.c ****             }
 970:.\Generated_Source\PSoC5/UART_READER.c **** 
 971:.\Generated_Source\PSoC5/UART_READER.c ****             UART_READER_EnableTxInt();
 972:.\Generated_Source\PSoC5/UART_READER.c **** 
 973:.\Generated_Source\PSoC5/UART_READER.c ****         #else
 974:.\Generated_Source\PSoC5/UART_READER.c **** 
 975:.\Generated_Source\PSoC5/UART_READER.c ****             /* Add directly to the FIFO. */
 976:.\Generated_Source\PSoC5/UART_READER.c ****             UART_READER_TXDATA_REG = txDataByte;
 790              		.loc 1 976 0
 791 0006 024B     		ldr	r3, .L85+4
 792 0008 1870     		strb	r0, [r3]
 793              	.L80:
 794 000a 7047     		bx	lr
 795              	.L86:
 796              		.align	2
 797              	.L85:
 798 000c 00000000 		.word	.LANCHOR0
 799 0010 57640040 		.word	1073767511
 800              		.cfi_endproc
 801              	.LFE17:
 802              		.size	UART_READER_WriteTxData, .-UART_READER_WriteTxData
 803              		.section	.text.UART_READER_ReadTxStatus,"ax",%progbits
 804              		.align	1
 805              		.global	UART_READER_ReadTxStatus
 806              		.thumb
 807              		.thumb_func
 808              		.type	UART_READER_ReadTxStatus, %function
 809              	UART_READER_ReadTxStatus:
 810              	.LFB18:
 977:.\Generated_Source\PSoC5/UART_READER.c **** 
 978:.\Generated_Source\PSoC5/UART_READER.c ****         #endif /*(UART_READER_TX_INTERRUPT_ENABLED) */
 979:.\Generated_Source\PSoC5/UART_READER.c ****         }
 980:.\Generated_Source\PSoC5/UART_READER.c ****     }
 981:.\Generated_Source\PSoC5/UART_READER.c **** 
 982:.\Generated_Source\PSoC5/UART_READER.c **** 
 983:.\Generated_Source\PSoC5/UART_READER.c ****     /*******************************************************************************
 984:.\Generated_Source\PSoC5/UART_READER.c ****     * Function Name: UART_READER_ReadTxStatus
 985:.\Generated_Source\PSoC5/UART_READER.c ****     ********************************************************************************
 986:.\Generated_Source\PSoC5/UART_READER.c ****     *
 987:.\Generated_Source\PSoC5/UART_READER.c ****     * Summary:
 988:.\Generated_Source\PSoC5/UART_READER.c ****     *  Reads the status register for the TX portion of the UART.
 989:.\Generated_Source\PSoC5/UART_READER.c ****     *
 990:.\Generated_Source\PSoC5/UART_READER.c ****     * Parameters:
 991:.\Generated_Source\PSoC5/UART_READER.c ****     *  None.
 992:.\Generated_Source\PSoC5/UART_READER.c ****     *
 993:.\Generated_Source\PSoC5/UART_READER.c ****     * Return:
 994:.\Generated_Source\PSoC5/UART_READER.c ****     *  Contents of the status register
 995:.\Generated_Source\PSoC5/UART_READER.c ****     *
ARM GAS  C:\Users\Yiquing\AppData\Local\Temp\ccJgHlWx.s 			page 33


 996:.\Generated_Source\PSoC5/UART_READER.c ****     * Theory:
 997:.\Generated_Source\PSoC5/UART_READER.c ****     *  This function reads the TX status register, which is cleared on read.
 998:.\Generated_Source\PSoC5/UART_READER.c ****     *  It is up to the user to handle all bits in this return value accordingly,
 999:.\Generated_Source\PSoC5/UART_READER.c ****     *  even if the bit was not enabled as an interrupt source the event happened
1000:.\Generated_Source\PSoC5/UART_READER.c ****     *  and must be handled accordingly.
1001:.\Generated_Source\PSoC5/UART_READER.c ****     *
1002:.\Generated_Source\PSoC5/UART_READER.c ****     *******************************************************************************/
1003:.\Generated_Source\PSoC5/UART_READER.c ****     uint8 UART_READER_ReadTxStatus(void) 
1004:.\Generated_Source\PSoC5/UART_READER.c ****     {
 811              		.loc 1 1004 0
 812              		.cfi_startproc
 813              		@ args = 0, pretend = 0, frame = 0
 814              		@ frame_needed = 0, uses_anonymous_args = 0
 815              		@ link register save eliminated.
1005:.\Generated_Source\PSoC5/UART_READER.c ****         return(UART_READER_TXSTATUS_REG);
 816              		.loc 1 1005 0
 817 0000 014B     		ldr	r3, .L88
 818 0002 1878     		ldrb	r0, [r3]	@ zero_extendqisi2
1006:.\Generated_Source\PSoC5/UART_READER.c ****     }
 819              		.loc 1 1006 0
 820 0004 7047     		bx	lr
 821              	.L89:
 822 0006 00BF     		.align	2
 823              	.L88:
 824 0008 67640040 		.word	1073767527
 825              		.cfi_endproc
 826              	.LFE18:
 827              		.size	UART_READER_ReadTxStatus, .-UART_READER_ReadTxStatus
 828              		.section	.text.UART_READER_PutChar,"ax",%progbits
 829              		.align	1
 830              		.global	UART_READER_PutChar
 831              		.thumb
 832              		.thumb_func
 833              		.type	UART_READER_PutChar, %function
 834              	UART_READER_PutChar:
 835              	.LFB19:
1007:.\Generated_Source\PSoC5/UART_READER.c **** 
1008:.\Generated_Source\PSoC5/UART_READER.c **** 
1009:.\Generated_Source\PSoC5/UART_READER.c ****     /*******************************************************************************
1010:.\Generated_Source\PSoC5/UART_READER.c ****     * Function Name: UART_READER_PutChar
1011:.\Generated_Source\PSoC5/UART_READER.c ****     ********************************************************************************
1012:.\Generated_Source\PSoC5/UART_READER.c ****     *
1013:.\Generated_Source\PSoC5/UART_READER.c ****     * Summary:
1014:.\Generated_Source\PSoC5/UART_READER.c ****     *  Puts a byte of data into the transmit buffer to be sent when the bus is
1015:.\Generated_Source\PSoC5/UART_READER.c ****     *  available. This is a blocking API that waits until the TX buffer has room to
1016:.\Generated_Source\PSoC5/UART_READER.c ****     *  hold the data.
1017:.\Generated_Source\PSoC5/UART_READER.c ****     *
1018:.\Generated_Source\PSoC5/UART_READER.c ****     * Parameters:
1019:.\Generated_Source\PSoC5/UART_READER.c ****     *  txDataByte: Byte containing the data to transmit
1020:.\Generated_Source\PSoC5/UART_READER.c ****     *
1021:.\Generated_Source\PSoC5/UART_READER.c ****     * Return:
1022:.\Generated_Source\PSoC5/UART_READER.c ****     *  None.
1023:.\Generated_Source\PSoC5/UART_READER.c ****     *
1024:.\Generated_Source\PSoC5/UART_READER.c ****     * Global Variables:
1025:.\Generated_Source\PSoC5/UART_READER.c ****     *  UART_READER_txBuffer - RAM buffer pointer for save data for transmission
1026:.\Generated_Source\PSoC5/UART_READER.c ****     *  UART_READER_txBufferWrite - cyclic index for write to txBuffer,
1027:.\Generated_Source\PSoC5/UART_READER.c ****     *     checked to identify free space in txBuffer and incremented after each byte
ARM GAS  C:\Users\Yiquing\AppData\Local\Temp\ccJgHlWx.s 			page 34


1028:.\Generated_Source\PSoC5/UART_READER.c ****     *     saved to buffer.
1029:.\Generated_Source\PSoC5/UART_READER.c ****     *  UART_READER_txBufferRead - cyclic index for read from txBuffer,
1030:.\Generated_Source\PSoC5/UART_READER.c ****     *     checked to identify free space in txBuffer.
1031:.\Generated_Source\PSoC5/UART_READER.c ****     *  UART_READER_initVar - checked to identify that the component has been
1032:.\Generated_Source\PSoC5/UART_READER.c ****     *     initialized.
1033:.\Generated_Source\PSoC5/UART_READER.c ****     *
1034:.\Generated_Source\PSoC5/UART_READER.c ****     * Reentrant:
1035:.\Generated_Source\PSoC5/UART_READER.c ****     *  No.
1036:.\Generated_Source\PSoC5/UART_READER.c ****     *
1037:.\Generated_Source\PSoC5/UART_READER.c ****     * Theory:
1038:.\Generated_Source\PSoC5/UART_READER.c ****     *  Allows the user to transmit any byte of data in a single transfer
1039:.\Generated_Source\PSoC5/UART_READER.c ****     *
1040:.\Generated_Source\PSoC5/UART_READER.c ****     *******************************************************************************/
1041:.\Generated_Source\PSoC5/UART_READER.c ****     void UART_READER_PutChar(uint8 txDataByte) 
1042:.\Generated_Source\PSoC5/UART_READER.c ****     {
 836              		.loc 1 1042 0
 837              		.cfi_startproc
 838              		@ args = 0, pretend = 0, frame = 0
 839              		@ frame_needed = 0, uses_anonymous_args = 0
 840              		@ link register save eliminated.
 841              	.LVL45:
 842              	.L92:
1043:.\Generated_Source\PSoC5/UART_READER.c ****     #if (UART_READER_TX_INTERRUPT_ENABLED)
1044:.\Generated_Source\PSoC5/UART_READER.c ****         /* The temporary output pointer is used since it takes two instructions
1045:.\Generated_Source\PSoC5/UART_READER.c ****         *  to increment with a wrap, and we can't risk doing that with the real
1046:.\Generated_Source\PSoC5/UART_READER.c ****         *  pointer and getting an interrupt in between instructions.
1047:.\Generated_Source\PSoC5/UART_READER.c ****         */
1048:.\Generated_Source\PSoC5/UART_READER.c ****         uint8 locTxBufferWrite;
1049:.\Generated_Source\PSoC5/UART_READER.c ****         uint8 locTxBufferRead;
1050:.\Generated_Source\PSoC5/UART_READER.c **** 
1051:.\Generated_Source\PSoC5/UART_READER.c ****         do
1052:.\Generated_Source\PSoC5/UART_READER.c ****         { /* Block if software buffer is full, so we don't overwrite. */
1053:.\Generated_Source\PSoC5/UART_READER.c **** 
1054:.\Generated_Source\PSoC5/UART_READER.c ****         #if ((UART_READER_TX_BUFFER_SIZE > UART_READER_MAX_BYTE_VALUE) && (CY_PSOC3))
1055:.\Generated_Source\PSoC5/UART_READER.c ****             /* Disable TX interrupt to protect variables from modification */
1056:.\Generated_Source\PSoC5/UART_READER.c ****             UART_READER_DisableTxInt();
1057:.\Generated_Source\PSoC5/UART_READER.c ****         #endif /* (UART_READER_TX_BUFFER_SIZE > UART_READER_MAX_BYTE_VALUE) && (CY_PSOC3) */
1058:.\Generated_Source\PSoC5/UART_READER.c **** 
1059:.\Generated_Source\PSoC5/UART_READER.c ****             locTxBufferWrite = UART_READER_txBufferWrite;
1060:.\Generated_Source\PSoC5/UART_READER.c ****             locTxBufferRead  = UART_READER_txBufferRead;
1061:.\Generated_Source\PSoC5/UART_READER.c **** 
1062:.\Generated_Source\PSoC5/UART_READER.c ****         #if ((UART_READER_TX_BUFFER_SIZE > UART_READER_MAX_BYTE_VALUE) && (CY_PSOC3))
1063:.\Generated_Source\PSoC5/UART_READER.c ****             /* Enable interrupt to continue transmission */
1064:.\Generated_Source\PSoC5/UART_READER.c ****             UART_READER_EnableTxInt();
1065:.\Generated_Source\PSoC5/UART_READER.c ****         #endif /* (UART_READER_TX_BUFFER_SIZE > UART_READER_MAX_BYTE_VALUE) && (CY_PSOC3) */
1066:.\Generated_Source\PSoC5/UART_READER.c ****         }
1067:.\Generated_Source\PSoC5/UART_READER.c ****         while( (locTxBufferWrite < locTxBufferRead) ? (locTxBufferWrite == (locTxBufferRead - 1u)) 
1068:.\Generated_Source\PSoC5/UART_READER.c ****                                 ((locTxBufferWrite - locTxBufferRead) ==
1069:.\Generated_Source\PSoC5/UART_READER.c ****                                 (uint8)(UART_READER_TX_BUFFER_SIZE - 1u)) );
1070:.\Generated_Source\PSoC5/UART_READER.c **** 
1071:.\Generated_Source\PSoC5/UART_READER.c ****         if( (locTxBufferRead == locTxBufferWrite) &&
1072:.\Generated_Source\PSoC5/UART_READER.c ****             ((UART_READER_TXSTATUS_REG & UART_READER_TX_STS_FIFO_FULL) == 0u) )
1073:.\Generated_Source\PSoC5/UART_READER.c ****         {
1074:.\Generated_Source\PSoC5/UART_READER.c ****             /* Add directly to the FIFO */
1075:.\Generated_Source\PSoC5/UART_READER.c ****             UART_READER_TXDATA_REG = txDataByte;
1076:.\Generated_Source\PSoC5/UART_READER.c ****         }
1077:.\Generated_Source\PSoC5/UART_READER.c ****         else
ARM GAS  C:\Users\Yiquing\AppData\Local\Temp\ccJgHlWx.s 			page 35


1078:.\Generated_Source\PSoC5/UART_READER.c ****         {
1079:.\Generated_Source\PSoC5/UART_READER.c ****             if(locTxBufferWrite >= UART_READER_TX_BUFFER_SIZE)
1080:.\Generated_Source\PSoC5/UART_READER.c ****             {
1081:.\Generated_Source\PSoC5/UART_READER.c ****                 locTxBufferWrite = 0u;
1082:.\Generated_Source\PSoC5/UART_READER.c ****             }
1083:.\Generated_Source\PSoC5/UART_READER.c ****             /* Add to the software buffer. */
1084:.\Generated_Source\PSoC5/UART_READER.c ****             UART_READER_txBuffer[locTxBufferWrite] = txDataByte;
1085:.\Generated_Source\PSoC5/UART_READER.c ****             locTxBufferWrite++;
1086:.\Generated_Source\PSoC5/UART_READER.c **** 
1087:.\Generated_Source\PSoC5/UART_READER.c ****             /* Finally, update the real output pointer */
1088:.\Generated_Source\PSoC5/UART_READER.c ****         #if ((UART_READER_TX_BUFFER_SIZE > UART_READER_MAX_BYTE_VALUE) && (CY_PSOC3))
1089:.\Generated_Source\PSoC5/UART_READER.c ****             UART_READER_DisableTxInt();
1090:.\Generated_Source\PSoC5/UART_READER.c ****         #endif /* (UART_READER_TX_BUFFER_SIZE > UART_READER_MAX_BYTE_VALUE) && (CY_PSOC3) */
1091:.\Generated_Source\PSoC5/UART_READER.c **** 
1092:.\Generated_Source\PSoC5/UART_READER.c ****             UART_READER_txBufferWrite = locTxBufferWrite;
1093:.\Generated_Source\PSoC5/UART_READER.c **** 
1094:.\Generated_Source\PSoC5/UART_READER.c ****         #if ((UART_READER_TX_BUFFER_SIZE > UART_READER_MAX_BYTE_VALUE) && (CY_PSOC3))
1095:.\Generated_Source\PSoC5/UART_READER.c ****             UART_READER_EnableTxInt();
1096:.\Generated_Source\PSoC5/UART_READER.c ****         #endif /* (UART_READER_TX_BUFFER_SIZE > UART_READER_MAX_BYTE_VALUE) && (CY_PSOC3) */
1097:.\Generated_Source\PSoC5/UART_READER.c **** 
1098:.\Generated_Source\PSoC5/UART_READER.c ****             if(0u != (UART_READER_TXSTATUS_REG & UART_READER_TX_STS_FIFO_EMPTY))
1099:.\Generated_Source\PSoC5/UART_READER.c ****             {
1100:.\Generated_Source\PSoC5/UART_READER.c ****                 /* Trigger TX interrupt to send software buffer */
1101:.\Generated_Source\PSoC5/UART_READER.c ****                 UART_READER_SetPendingTxInt();
1102:.\Generated_Source\PSoC5/UART_READER.c ****             }
1103:.\Generated_Source\PSoC5/UART_READER.c ****         }
1104:.\Generated_Source\PSoC5/UART_READER.c **** 
1105:.\Generated_Source\PSoC5/UART_READER.c ****     #else
1106:.\Generated_Source\PSoC5/UART_READER.c **** 
1107:.\Generated_Source\PSoC5/UART_READER.c ****         while((UART_READER_TXSTATUS_REG & UART_READER_TX_STS_FIFO_FULL) != 0u)
 843              		.loc 1 1107 0 discriminator 1
 844 0000 034B     		ldr	r3, .L93
 845 0002 1B78     		ldrb	r3, [r3]	@ zero_extendqisi2
 846 0004 9B06     		lsls	r3, r3, #26
 847 0006 FBD4     		bmi	.L92
1108:.\Generated_Source\PSoC5/UART_READER.c ****         {
1109:.\Generated_Source\PSoC5/UART_READER.c ****             /* Wait for room in the FIFO */
1110:.\Generated_Source\PSoC5/UART_READER.c ****         }
1111:.\Generated_Source\PSoC5/UART_READER.c **** 
1112:.\Generated_Source\PSoC5/UART_READER.c ****         /* Add directly to the FIFO */
1113:.\Generated_Source\PSoC5/UART_READER.c ****         UART_READER_TXDATA_REG = txDataByte;
 848              		.loc 1 1113 0
 849 0008 024B     		ldr	r3, .L93+4
 850 000a 1870     		strb	r0, [r3]
 851 000c 7047     		bx	lr
 852              	.L94:
 853 000e 00BF     		.align	2
 854              	.L93:
 855 0010 67640040 		.word	1073767527
 856 0014 57640040 		.word	1073767511
 857              		.cfi_endproc
 858              	.LFE19:
 859              		.size	UART_READER_PutChar, .-UART_READER_PutChar
 860              		.section	.text.UART_READER_PutString,"ax",%progbits
 861              		.align	1
 862              		.global	UART_READER_PutString
 863              		.thumb
ARM GAS  C:\Users\Yiquing\AppData\Local\Temp\ccJgHlWx.s 			page 36


 864              		.thumb_func
 865              		.type	UART_READER_PutString, %function
 866              	UART_READER_PutString:
 867              	.LFB20:
1114:.\Generated_Source\PSoC5/UART_READER.c **** 
1115:.\Generated_Source\PSoC5/UART_READER.c ****     #endif /* UART_READER_TX_INTERRUPT_ENABLED */
1116:.\Generated_Source\PSoC5/UART_READER.c ****     }
1117:.\Generated_Source\PSoC5/UART_READER.c **** 
1118:.\Generated_Source\PSoC5/UART_READER.c **** 
1119:.\Generated_Source\PSoC5/UART_READER.c ****     /*******************************************************************************
1120:.\Generated_Source\PSoC5/UART_READER.c ****     * Function Name: UART_READER_PutString
1121:.\Generated_Source\PSoC5/UART_READER.c ****     ********************************************************************************
1122:.\Generated_Source\PSoC5/UART_READER.c ****     *
1123:.\Generated_Source\PSoC5/UART_READER.c ****     * Summary:
1124:.\Generated_Source\PSoC5/UART_READER.c ****     *  Sends a NULL terminated string to the TX buffer for transmission.
1125:.\Generated_Source\PSoC5/UART_READER.c ****     *
1126:.\Generated_Source\PSoC5/UART_READER.c ****     * Parameters:
1127:.\Generated_Source\PSoC5/UART_READER.c ****     *  string[]: Pointer to the null terminated string array residing in RAM or ROM
1128:.\Generated_Source\PSoC5/UART_READER.c ****     *
1129:.\Generated_Source\PSoC5/UART_READER.c ****     * Return:
1130:.\Generated_Source\PSoC5/UART_READER.c ****     *  None.
1131:.\Generated_Source\PSoC5/UART_READER.c ****     *
1132:.\Generated_Source\PSoC5/UART_READER.c ****     * Global Variables:
1133:.\Generated_Source\PSoC5/UART_READER.c ****     *  UART_READER_initVar - checked to identify that the component has been
1134:.\Generated_Source\PSoC5/UART_READER.c ****     *     initialized.
1135:.\Generated_Source\PSoC5/UART_READER.c ****     *
1136:.\Generated_Source\PSoC5/UART_READER.c ****     * Reentrant:
1137:.\Generated_Source\PSoC5/UART_READER.c ****     *  No.
1138:.\Generated_Source\PSoC5/UART_READER.c ****     *
1139:.\Generated_Source\PSoC5/UART_READER.c ****     * Theory:
1140:.\Generated_Source\PSoC5/UART_READER.c ****     *  If there is not enough memory in the TX buffer for the entire string, this
1141:.\Generated_Source\PSoC5/UART_READER.c ****     *  function blocks until the last character of the string is loaded into the
1142:.\Generated_Source\PSoC5/UART_READER.c ****     *  TX buffer.
1143:.\Generated_Source\PSoC5/UART_READER.c ****     *
1144:.\Generated_Source\PSoC5/UART_READER.c ****     *******************************************************************************/
1145:.\Generated_Source\PSoC5/UART_READER.c ****     void UART_READER_PutString(const char8 string[]) 
1146:.\Generated_Source\PSoC5/UART_READER.c ****     {
 868              		.loc 1 1146 0
 869              		.cfi_startproc
 870              		@ args = 0, pretend = 0, frame = 0
 871              		@ frame_needed = 0, uses_anonymous_args = 0
 872              	.LVL46:
 873 0000 38B5     		push	{r3, r4, r5, lr}
 874              		.cfi_def_cfa_offset 16
 875              		.cfi_offset 3, -16
 876              		.cfi_offset 4, -12
 877              		.cfi_offset 5, -8
 878              		.cfi_offset 14, -4
1147:.\Generated_Source\PSoC5/UART_READER.c ****         uint16 bufIndex = 0u;
1148:.\Generated_Source\PSoC5/UART_READER.c **** 
1149:.\Generated_Source\PSoC5/UART_READER.c ****         /* If not Initialized then skip this function */
1150:.\Generated_Source\PSoC5/UART_READER.c ****         if(UART_READER_initVar != 0u)
 879              		.loc 1 1150 0
 880 0002 064B     		ldr	r3, .L100
1146:.\Generated_Source\PSoC5/UART_READER.c ****     {
 881              		.loc 1 1146 0
 882 0004 0546     		mov	r5, r0
ARM GAS  C:\Users\Yiquing\AppData\Local\Temp\ccJgHlWx.s 			page 37


 883              		.loc 1 1150 0
 884 0006 5B78     		ldrb	r3, [r3, #1]	@ zero_extendqisi2
 885 0008 3BB1     		cbz	r3, .L95
 886 000a 0024     		movs	r4, #0
 887              	.LVL47:
 888              	.L97:
1151:.\Generated_Source\PSoC5/UART_READER.c ****         {
1152:.\Generated_Source\PSoC5/UART_READER.c ****             /* This is a blocking function, it will not exit until all data is sent */
1153:.\Generated_Source\PSoC5/UART_READER.c ****             while(string[bufIndex] != (char8) 0)
 889              		.loc 1 1153 0 discriminator 1
 890 000c A3B2     		uxth	r3, r4
 891 000e E85C     		ldrb	r0, [r5, r3]	@ zero_extendqisi2
 892 0010 0134     		adds	r4, r4, #1
 893              	.LVL48:
 894 0012 10B1     		cbz	r0, .L95
1154:.\Generated_Source\PSoC5/UART_READER.c ****             {
1155:.\Generated_Source\PSoC5/UART_READER.c ****                 UART_READER_PutChar((uint8)string[bufIndex]);
 895              		.loc 1 1155 0
 896 0014 FFF7FEFF 		bl	UART_READER_PutChar
 897              	.LVL49:
 898 0018 F8E7     		b	.L97
 899              	.LVL50:
 900              	.L95:
 901 001a 38BD     		pop	{r3, r4, r5, pc}
 902              	.LVL51:
 903              	.L101:
 904              		.align	2
 905              	.L100:
 906 001c 00000000 		.word	.LANCHOR0
 907              		.cfi_endproc
 908              	.LFE20:
 909              		.size	UART_READER_PutString, .-UART_READER_PutString
 910              		.section	.text.UART_READER_PutArray,"ax",%progbits
 911              		.align	1
 912              		.global	UART_READER_PutArray
 913              		.thumb
 914              		.thumb_func
 915              		.type	UART_READER_PutArray, %function
 916              	UART_READER_PutArray:
 917              	.LFB21:
1156:.\Generated_Source\PSoC5/UART_READER.c ****                 bufIndex++;
1157:.\Generated_Source\PSoC5/UART_READER.c ****             }
1158:.\Generated_Source\PSoC5/UART_READER.c ****         }
1159:.\Generated_Source\PSoC5/UART_READER.c ****     }
1160:.\Generated_Source\PSoC5/UART_READER.c **** 
1161:.\Generated_Source\PSoC5/UART_READER.c **** 
1162:.\Generated_Source\PSoC5/UART_READER.c ****     /*******************************************************************************
1163:.\Generated_Source\PSoC5/UART_READER.c ****     * Function Name: UART_READER_PutArray
1164:.\Generated_Source\PSoC5/UART_READER.c ****     ********************************************************************************
1165:.\Generated_Source\PSoC5/UART_READER.c ****     *
1166:.\Generated_Source\PSoC5/UART_READER.c ****     * Summary:
1167:.\Generated_Source\PSoC5/UART_READER.c ****     *  Places N bytes of data from a memory array into the TX buffer for
1168:.\Generated_Source\PSoC5/UART_READER.c ****     *  transmission.
1169:.\Generated_Source\PSoC5/UART_READER.c ****     *
1170:.\Generated_Source\PSoC5/UART_READER.c ****     * Parameters:
1171:.\Generated_Source\PSoC5/UART_READER.c ****     *  string[]: Address of the memory array residing in RAM or ROM.
1172:.\Generated_Source\PSoC5/UART_READER.c ****     *  byteCount: Number of bytes to be transmitted. The type depends on TX Buffer
ARM GAS  C:\Users\Yiquing\AppData\Local\Temp\ccJgHlWx.s 			page 38


1173:.\Generated_Source\PSoC5/UART_READER.c ****     *             Size parameter.
1174:.\Generated_Source\PSoC5/UART_READER.c ****     *
1175:.\Generated_Source\PSoC5/UART_READER.c ****     * Return:
1176:.\Generated_Source\PSoC5/UART_READER.c ****     *  None.
1177:.\Generated_Source\PSoC5/UART_READER.c ****     *
1178:.\Generated_Source\PSoC5/UART_READER.c ****     * Global Variables:
1179:.\Generated_Source\PSoC5/UART_READER.c ****     *  UART_READER_initVar - checked to identify that the component has been
1180:.\Generated_Source\PSoC5/UART_READER.c ****     *     initialized.
1181:.\Generated_Source\PSoC5/UART_READER.c ****     *
1182:.\Generated_Source\PSoC5/UART_READER.c ****     * Reentrant:
1183:.\Generated_Source\PSoC5/UART_READER.c ****     *  No.
1184:.\Generated_Source\PSoC5/UART_READER.c ****     *
1185:.\Generated_Source\PSoC5/UART_READER.c ****     * Theory:
1186:.\Generated_Source\PSoC5/UART_READER.c ****     *  If there is not enough memory in the TX buffer for the entire string, this
1187:.\Generated_Source\PSoC5/UART_READER.c ****     *  function blocks until the last character of the string is loaded into the
1188:.\Generated_Source\PSoC5/UART_READER.c ****     *  TX buffer.
1189:.\Generated_Source\PSoC5/UART_READER.c ****     *
1190:.\Generated_Source\PSoC5/UART_READER.c ****     *******************************************************************************/
1191:.\Generated_Source\PSoC5/UART_READER.c ****     void UART_READER_PutArray(const uint8 string[], uint8 byteCount)
1192:.\Generated_Source\PSoC5/UART_READER.c ****                                                                     
1193:.\Generated_Source\PSoC5/UART_READER.c ****     {
 918              		.loc 1 1193 0
 919              		.cfi_startproc
 920              		@ args = 0, pretend = 0, frame = 0
 921              		@ frame_needed = 0, uses_anonymous_args = 0
 922              	.LVL52:
 923 0000 70B5     		push	{r4, r5, r6, lr}
 924              		.cfi_def_cfa_offset 16
 925              		.cfi_offset 4, -16
 926              		.cfi_offset 5, -12
 927              		.cfi_offset 6, -8
 928              		.cfi_offset 14, -4
1194:.\Generated_Source\PSoC5/UART_READER.c ****         uint8 bufIndex = 0u;
1195:.\Generated_Source\PSoC5/UART_READER.c **** 
1196:.\Generated_Source\PSoC5/UART_READER.c ****         /* If not Initialized then skip this function */
1197:.\Generated_Source\PSoC5/UART_READER.c ****         if(UART_READER_initVar != 0u)
 929              		.loc 1 1197 0
 930 0002 074B     		ldr	r3, .L107
1193:.\Generated_Source\PSoC5/UART_READER.c ****     {
 931              		.loc 1 1193 0
 932 0004 0546     		mov	r5, r0
 933              		.loc 1 1197 0
 934 0006 5B78     		ldrb	r3, [r3, #1]	@ zero_extendqisi2
1193:.\Generated_Source\PSoC5/UART_READER.c ****     {
 935              		.loc 1 1193 0
 936 0008 0E46     		mov	r6, r1
 937              		.loc 1 1197 0
 938 000a 43B1     		cbz	r3, .L102
 939 000c 0024     		movs	r4, #0
 940              	.LVL53:
 941              	.L104:
1198:.\Generated_Source\PSoC5/UART_READER.c ****         {
1199:.\Generated_Source\PSoC5/UART_READER.c ****             while(bufIndex < byteCount)
 942              		.loc 1 1199 0 discriminator 1
 943 000e E3B2     		uxtb	r3, r4
 944 0010 B342     		cmp	r3, r6
 945 0012 04D2     		bcs	.L102
ARM GAS  C:\Users\Yiquing\AppData\Local\Temp\ccJgHlWx.s 			page 39


1200:.\Generated_Source\PSoC5/UART_READER.c ****             {
1201:.\Generated_Source\PSoC5/UART_READER.c ****                 UART_READER_PutChar(string[bufIndex]);
 946              		.loc 1 1201 0
 947 0014 285D     		ldrb	r0, [r5, r4]	@ zero_extendqisi2
 948 0016 FFF7FEFF 		bl	UART_READER_PutChar
 949              	.LVL54:
 950 001a 0134     		adds	r4, r4, #1
 951              	.LVL55:
 952 001c F7E7     		b	.L104
 953              	.LVL56:
 954              	.L102:
 955 001e 70BD     		pop	{r4, r5, r6, pc}
 956              	.LVL57:
 957              	.L108:
 958              		.align	2
 959              	.L107:
 960 0020 00000000 		.word	.LANCHOR0
 961              		.cfi_endproc
 962              	.LFE21:
 963              		.size	UART_READER_PutArray, .-UART_READER_PutArray
 964              		.section	.text.UART_READER_PutCRLF,"ax",%progbits
 965              		.align	1
 966              		.global	UART_READER_PutCRLF
 967              		.thumb
 968              		.thumb_func
 969              		.type	UART_READER_PutCRLF, %function
 970              	UART_READER_PutCRLF:
 971              	.LFB22:
1202:.\Generated_Source\PSoC5/UART_READER.c ****                 bufIndex++;
1203:.\Generated_Source\PSoC5/UART_READER.c ****             }
1204:.\Generated_Source\PSoC5/UART_READER.c ****         }
1205:.\Generated_Source\PSoC5/UART_READER.c ****     }
1206:.\Generated_Source\PSoC5/UART_READER.c **** 
1207:.\Generated_Source\PSoC5/UART_READER.c **** 
1208:.\Generated_Source\PSoC5/UART_READER.c ****     /*******************************************************************************
1209:.\Generated_Source\PSoC5/UART_READER.c ****     * Function Name: UART_READER_PutCRLF
1210:.\Generated_Source\PSoC5/UART_READER.c ****     ********************************************************************************
1211:.\Generated_Source\PSoC5/UART_READER.c ****     *
1212:.\Generated_Source\PSoC5/UART_READER.c ****     * Summary:
1213:.\Generated_Source\PSoC5/UART_READER.c ****     *  Writes a byte of data followed by a carriage return (0x0D) and line feed
1214:.\Generated_Source\PSoC5/UART_READER.c ****     *  (0x0A) to the transmit buffer.
1215:.\Generated_Source\PSoC5/UART_READER.c ****     *
1216:.\Generated_Source\PSoC5/UART_READER.c ****     * Parameters:
1217:.\Generated_Source\PSoC5/UART_READER.c ****     *  txDataByte: Data byte to transmit before the carriage return and line feed.
1218:.\Generated_Source\PSoC5/UART_READER.c ****     *
1219:.\Generated_Source\PSoC5/UART_READER.c ****     * Return:
1220:.\Generated_Source\PSoC5/UART_READER.c ****     *  None.
1221:.\Generated_Source\PSoC5/UART_READER.c ****     *
1222:.\Generated_Source\PSoC5/UART_READER.c ****     * Global Variables:
1223:.\Generated_Source\PSoC5/UART_READER.c ****     *  UART_READER_initVar - checked to identify that the component has been
1224:.\Generated_Source\PSoC5/UART_READER.c ****     *     initialized.
1225:.\Generated_Source\PSoC5/UART_READER.c ****     *
1226:.\Generated_Source\PSoC5/UART_READER.c ****     * Reentrant:
1227:.\Generated_Source\PSoC5/UART_READER.c ****     *  No.
1228:.\Generated_Source\PSoC5/UART_READER.c ****     *
1229:.\Generated_Source\PSoC5/UART_READER.c ****     *******************************************************************************/
1230:.\Generated_Source\PSoC5/UART_READER.c ****     void UART_READER_PutCRLF(uint8 txDataByte) 
ARM GAS  C:\Users\Yiquing\AppData\Local\Temp\ccJgHlWx.s 			page 40


1231:.\Generated_Source\PSoC5/UART_READER.c ****     {
 972              		.loc 1 1231 0
 973              		.cfi_startproc
 974              		@ args = 0, pretend = 0, frame = 0
 975              		@ frame_needed = 0, uses_anonymous_args = 0
 976              	.LVL58:
 977 0000 08B5     		push	{r3, lr}
 978              		.cfi_def_cfa_offset 8
 979              		.cfi_offset 3, -8
 980              		.cfi_offset 14, -4
1232:.\Generated_Source\PSoC5/UART_READER.c ****         /* If not Initialized then skip this function */
1233:.\Generated_Source\PSoC5/UART_READER.c ****         if(UART_READER_initVar != 0u)
 981              		.loc 1 1233 0
 982 0002 074B     		ldr	r3, .L111
 983 0004 5B78     		ldrb	r3, [r3, #1]	@ zero_extendqisi2
 984 0006 4BB1     		cbz	r3, .L109
1234:.\Generated_Source\PSoC5/UART_READER.c ****         {
1235:.\Generated_Source\PSoC5/UART_READER.c ****             UART_READER_PutChar(txDataByte);
 985              		.loc 1 1235 0
 986 0008 FFF7FEFF 		bl	UART_READER_PutChar
 987              	.LVL59:
1236:.\Generated_Source\PSoC5/UART_READER.c ****             UART_READER_PutChar(0x0Du);
 988              		.loc 1 1236 0
 989 000c 0D20     		movs	r0, #13
 990 000e FFF7FEFF 		bl	UART_READER_PutChar
 991              	.LVL60:
1237:.\Generated_Source\PSoC5/UART_READER.c ****             UART_READER_PutChar(0x0Au);
1238:.\Generated_Source\PSoC5/UART_READER.c ****         }
1239:.\Generated_Source\PSoC5/UART_READER.c ****     }
 992              		.loc 1 1239 0
 993 0012 BDE80840 		pop	{r3, lr}
1237:.\Generated_Source\PSoC5/UART_READER.c ****             UART_READER_PutChar(0x0Au);
 994              		.loc 1 1237 0
 995 0016 0A20     		movs	r0, #10
 996 0018 FFF7FEBF 		b	UART_READER_PutChar
 997              	.LVL61:
 998              	.L109:
 999 001c 08BD     		pop	{r3, pc}
 1000              	.L112:
 1001 001e 00BF     		.align	2
 1002              	.L111:
 1003 0020 00000000 		.word	.LANCHOR0
 1004              		.cfi_endproc
 1005              	.LFE22:
 1006              		.size	UART_READER_PutCRLF, .-UART_READER_PutCRLF
 1007              		.section	.text.UART_READER_GetTxBufferSize,"ax",%progbits
 1008              		.align	1
 1009              		.global	UART_READER_GetTxBufferSize
 1010              		.thumb
 1011              		.thumb_func
 1012              		.type	UART_READER_GetTxBufferSize, %function
 1013              	UART_READER_GetTxBufferSize:
 1014              	.LFB23:
1240:.\Generated_Source\PSoC5/UART_READER.c **** 
1241:.\Generated_Source\PSoC5/UART_READER.c **** 
1242:.\Generated_Source\PSoC5/UART_READER.c ****     /*******************************************************************************
1243:.\Generated_Source\PSoC5/UART_READER.c ****     * Function Name: UART_READER_GetTxBufferSize
ARM GAS  C:\Users\Yiquing\AppData\Local\Temp\ccJgHlWx.s 			page 41


1244:.\Generated_Source\PSoC5/UART_READER.c ****     ********************************************************************************
1245:.\Generated_Source\PSoC5/UART_READER.c ****     *
1246:.\Generated_Source\PSoC5/UART_READER.c ****     * Summary:
1247:.\Generated_Source\PSoC5/UART_READER.c ****     *  Returns the number of bytes in the TX buffer which are waiting to be 
1248:.\Generated_Source\PSoC5/UART_READER.c ****     *  transmitted.
1249:.\Generated_Source\PSoC5/UART_READER.c ****     *  * TX software buffer is disabled (TX Buffer Size parameter is equal to 4): 
1250:.\Generated_Source\PSoC5/UART_READER.c ****     *    returns 0 for empty TX FIFO, 1 for not full TX FIFO or 4 for full TX FIFO.
1251:.\Generated_Source\PSoC5/UART_READER.c ****     *  * TX software buffer is enabled: returns the number of bytes in the TX 
1252:.\Generated_Source\PSoC5/UART_READER.c ****     *    software buffer which are waiting to be transmitted. Bytes available in the
1253:.\Generated_Source\PSoC5/UART_READER.c ****     *    TX FIFO do not count.
1254:.\Generated_Source\PSoC5/UART_READER.c ****     *
1255:.\Generated_Source\PSoC5/UART_READER.c ****     * Parameters:
1256:.\Generated_Source\PSoC5/UART_READER.c ****     *  None.
1257:.\Generated_Source\PSoC5/UART_READER.c ****     *
1258:.\Generated_Source\PSoC5/UART_READER.c ****     * Return:
1259:.\Generated_Source\PSoC5/UART_READER.c ****     *  Number of bytes used in the TX buffer. Return value type depends on the TX 
1260:.\Generated_Source\PSoC5/UART_READER.c ****     *  Buffer Size parameter.
1261:.\Generated_Source\PSoC5/UART_READER.c ****     *
1262:.\Generated_Source\PSoC5/UART_READER.c ****     * Global Variables:
1263:.\Generated_Source\PSoC5/UART_READER.c ****     *  UART_READER_txBufferWrite - used to calculate left space.
1264:.\Generated_Source\PSoC5/UART_READER.c ****     *  UART_READER_txBufferRead - used to calculate left space.
1265:.\Generated_Source\PSoC5/UART_READER.c ****     *
1266:.\Generated_Source\PSoC5/UART_READER.c ****     * Reentrant:
1267:.\Generated_Source\PSoC5/UART_READER.c ****     *  No.
1268:.\Generated_Source\PSoC5/UART_READER.c ****     *
1269:.\Generated_Source\PSoC5/UART_READER.c ****     * Theory:
1270:.\Generated_Source\PSoC5/UART_READER.c ****     *  Allows the user to find out how full the TX Buffer is.
1271:.\Generated_Source\PSoC5/UART_READER.c ****     *
1272:.\Generated_Source\PSoC5/UART_READER.c ****     *******************************************************************************/
1273:.\Generated_Source\PSoC5/UART_READER.c ****     uint8 UART_READER_GetTxBufferSize(void)
1274:.\Generated_Source\PSoC5/UART_READER.c ****                                                             
1275:.\Generated_Source\PSoC5/UART_READER.c ****     {
 1015              		.loc 1 1275 0
 1016              		.cfi_startproc
 1017              		@ args = 0, pretend = 0, frame = 0
 1018              		@ frame_needed = 0, uses_anonymous_args = 0
 1019              		@ link register save eliminated.
1276:.\Generated_Source\PSoC5/UART_READER.c ****         uint8 size;
1277:.\Generated_Source\PSoC5/UART_READER.c **** 
1278:.\Generated_Source\PSoC5/UART_READER.c ****     #if (UART_READER_TX_INTERRUPT_ENABLED)
1279:.\Generated_Source\PSoC5/UART_READER.c **** 
1280:.\Generated_Source\PSoC5/UART_READER.c ****         /* Protect variables that could change on interrupt. */
1281:.\Generated_Source\PSoC5/UART_READER.c ****         UART_READER_DisableTxInt();
1282:.\Generated_Source\PSoC5/UART_READER.c **** 
1283:.\Generated_Source\PSoC5/UART_READER.c ****         if(UART_READER_txBufferRead == UART_READER_txBufferWrite)
1284:.\Generated_Source\PSoC5/UART_READER.c ****         {
1285:.\Generated_Source\PSoC5/UART_READER.c ****             size = 0u;
1286:.\Generated_Source\PSoC5/UART_READER.c ****         }
1287:.\Generated_Source\PSoC5/UART_READER.c ****         else if(UART_READER_txBufferRead < UART_READER_txBufferWrite)
1288:.\Generated_Source\PSoC5/UART_READER.c ****         {
1289:.\Generated_Source\PSoC5/UART_READER.c ****             size = (UART_READER_txBufferWrite - UART_READER_txBufferRead);
1290:.\Generated_Source\PSoC5/UART_READER.c ****         }
1291:.\Generated_Source\PSoC5/UART_READER.c ****         else
1292:.\Generated_Source\PSoC5/UART_READER.c ****         {
1293:.\Generated_Source\PSoC5/UART_READER.c ****             size = (UART_READER_TX_BUFFER_SIZE - UART_READER_txBufferRead) +
1294:.\Generated_Source\PSoC5/UART_READER.c ****                     UART_READER_txBufferWrite;
1295:.\Generated_Source\PSoC5/UART_READER.c ****         }
ARM GAS  C:\Users\Yiquing\AppData\Local\Temp\ccJgHlWx.s 			page 42


1296:.\Generated_Source\PSoC5/UART_READER.c **** 
1297:.\Generated_Source\PSoC5/UART_READER.c ****         UART_READER_EnableTxInt();
1298:.\Generated_Source\PSoC5/UART_READER.c **** 
1299:.\Generated_Source\PSoC5/UART_READER.c ****     #else
1300:.\Generated_Source\PSoC5/UART_READER.c **** 
1301:.\Generated_Source\PSoC5/UART_READER.c ****         size = UART_READER_TXSTATUS_REG;
 1020              		.loc 1 1301 0
 1021 0000 054B     		ldr	r3, .L116
 1022 0002 1878     		ldrb	r0, [r3]	@ zero_extendqisi2
 1023 0004 C0B2     		uxtb	r0, r0
 1024              	.LVL62:
1302:.\Generated_Source\PSoC5/UART_READER.c **** 
1303:.\Generated_Source\PSoC5/UART_READER.c ****         /* Is the fifo is full. */
1304:.\Generated_Source\PSoC5/UART_READER.c ****         if((size & UART_READER_TX_STS_FIFO_FULL) != 0u)
 1025              		.loc 1 1304 0
 1026 0006 8306     		lsls	r3, r0, #26
1305:.\Generated_Source\PSoC5/UART_READER.c ****         {
1306:.\Generated_Source\PSoC5/UART_READER.c ****             size = UART_READER_FIFO_LENGTH;
1307:.\Generated_Source\PSoC5/UART_READER.c ****         }
1308:.\Generated_Source\PSoC5/UART_READER.c ****         else if((size & UART_READER_TX_STS_FIFO_EMPTY) != 0u)
 1027              		.loc 1 1308 0
 1028 0008 5ABF     		itte	pl
 1029 000a 80F00200 		eorpl	r0, r0, #2
 1030              	.LVL63:
 1031 000e C0F34000 		ubfxpl	r0, r0, #1, #1
1306:.\Generated_Source\PSoC5/UART_READER.c ****             size = UART_READER_FIFO_LENGTH;
 1032              		.loc 1 1306 0
 1033 0012 0420     		movmi	r0, #4
 1034              	.LVL64:
1309:.\Generated_Source\PSoC5/UART_READER.c ****         {
1310:.\Generated_Source\PSoC5/UART_READER.c ****             size = 0u;
1311:.\Generated_Source\PSoC5/UART_READER.c ****         }
1312:.\Generated_Source\PSoC5/UART_READER.c ****         else
1313:.\Generated_Source\PSoC5/UART_READER.c ****         {
1314:.\Generated_Source\PSoC5/UART_READER.c ****             /* We only know there is data in the fifo. */
1315:.\Generated_Source\PSoC5/UART_READER.c ****             size = 1u;
1316:.\Generated_Source\PSoC5/UART_READER.c ****         }
1317:.\Generated_Source\PSoC5/UART_READER.c **** 
1318:.\Generated_Source\PSoC5/UART_READER.c ****     #endif /* (UART_READER_TX_INTERRUPT_ENABLED) */
1319:.\Generated_Source\PSoC5/UART_READER.c **** 
1320:.\Generated_Source\PSoC5/UART_READER.c ****     return(size);
1321:.\Generated_Source\PSoC5/UART_READER.c ****     }
 1035              		.loc 1 1321 0
 1036 0014 7047     		bx	lr
 1037              	.L117:
 1038 0016 00BF     		.align	2
 1039              	.L116:
 1040 0018 67640040 		.word	1073767527
 1041              		.cfi_endproc
 1042              	.LFE23:
 1043              		.size	UART_READER_GetTxBufferSize, .-UART_READER_GetTxBufferSize
 1044              		.section	.text.UART_READER_ClearTxBuffer,"ax",%progbits
 1045              		.align	1
 1046              		.global	UART_READER_ClearTxBuffer
 1047              		.thumb
 1048              		.thumb_func
 1049              		.type	UART_READER_ClearTxBuffer, %function
ARM GAS  C:\Users\Yiquing\AppData\Local\Temp\ccJgHlWx.s 			page 43


 1050              	UART_READER_ClearTxBuffer:
 1051              	.LFB24:
1322:.\Generated_Source\PSoC5/UART_READER.c **** 
1323:.\Generated_Source\PSoC5/UART_READER.c **** 
1324:.\Generated_Source\PSoC5/UART_READER.c ****     /*******************************************************************************
1325:.\Generated_Source\PSoC5/UART_READER.c ****     * Function Name: UART_READER_ClearTxBuffer
1326:.\Generated_Source\PSoC5/UART_READER.c ****     ********************************************************************************
1327:.\Generated_Source\PSoC5/UART_READER.c ****     *
1328:.\Generated_Source\PSoC5/UART_READER.c ****     * Summary:
1329:.\Generated_Source\PSoC5/UART_READER.c ****     *  Clears all data from the TX buffer and hardware TX FIFO.
1330:.\Generated_Source\PSoC5/UART_READER.c ****     *
1331:.\Generated_Source\PSoC5/UART_READER.c ****     * Parameters:
1332:.\Generated_Source\PSoC5/UART_READER.c ****     *  None.
1333:.\Generated_Source\PSoC5/UART_READER.c ****     *
1334:.\Generated_Source\PSoC5/UART_READER.c ****     * Return:
1335:.\Generated_Source\PSoC5/UART_READER.c ****     *  None.
1336:.\Generated_Source\PSoC5/UART_READER.c ****     *
1337:.\Generated_Source\PSoC5/UART_READER.c ****     * Global Variables:
1338:.\Generated_Source\PSoC5/UART_READER.c ****     *  UART_READER_txBufferWrite - cleared to zero.
1339:.\Generated_Source\PSoC5/UART_READER.c ****     *  UART_READER_txBufferRead - cleared to zero.
1340:.\Generated_Source\PSoC5/UART_READER.c ****     *
1341:.\Generated_Source\PSoC5/UART_READER.c ****     * Reentrant:
1342:.\Generated_Source\PSoC5/UART_READER.c ****     *  No.
1343:.\Generated_Source\PSoC5/UART_READER.c ****     *
1344:.\Generated_Source\PSoC5/UART_READER.c ****     * Theory:
1345:.\Generated_Source\PSoC5/UART_READER.c ****     *  Setting the pointers to zero makes the system believe there is no data to
1346:.\Generated_Source\PSoC5/UART_READER.c ****     *  read and writing will resume at address 0 overwriting any data that may have
1347:.\Generated_Source\PSoC5/UART_READER.c ****     *  remained in the RAM.
1348:.\Generated_Source\PSoC5/UART_READER.c ****     *
1349:.\Generated_Source\PSoC5/UART_READER.c ****     * Side Effects:
1350:.\Generated_Source\PSoC5/UART_READER.c ****     *  Data waiting in the transmit buffer is not sent; a byte that is currently
1351:.\Generated_Source\PSoC5/UART_READER.c ****     *  transmitting finishes transmitting.
1352:.\Generated_Source\PSoC5/UART_READER.c ****     *
1353:.\Generated_Source\PSoC5/UART_READER.c ****     *******************************************************************************/
1354:.\Generated_Source\PSoC5/UART_READER.c ****     void UART_READER_ClearTxBuffer(void) 
1355:.\Generated_Source\PSoC5/UART_READER.c ****     {
 1052              		.loc 1 1355 0
 1053              		.cfi_startproc
 1054              		@ args = 0, pretend = 0, frame = 0
 1055              		@ frame_needed = 0, uses_anonymous_args = 0
 1056 0000 08B5     		push	{r3, lr}
 1057              		.cfi_def_cfa_offset 8
 1058              		.cfi_offset 3, -8
 1059              		.cfi_offset 14, -4
1356:.\Generated_Source\PSoC5/UART_READER.c ****         uint8 enableInterrupts;
1357:.\Generated_Source\PSoC5/UART_READER.c **** 
1358:.\Generated_Source\PSoC5/UART_READER.c ****         enableInterrupts = CyEnterCriticalSection();
 1060              		.loc 1 1358 0
 1061 0002 FFF7FEFF 		bl	CyEnterCriticalSection
 1062              	.LVL65:
1359:.\Generated_Source\PSoC5/UART_READER.c ****         /* Clear the HW FIFO */
1360:.\Generated_Source\PSoC5/UART_READER.c ****         UART_READER_TXDATA_AUX_CTL_REG |= (uint8)  UART_READER_TX_FIFO_CLR;
 1063              		.loc 1 1360 0
 1064 0006 064B     		ldr	r3, .L119
 1065 0008 1A78     		ldrb	r2, [r3]	@ zero_extendqisi2
 1066 000a 42F00202 		orr	r2, r2, #2
 1067 000e 1A70     		strb	r2, [r3]
ARM GAS  C:\Users\Yiquing\AppData\Local\Temp\ccJgHlWx.s 			page 44


1361:.\Generated_Source\PSoC5/UART_READER.c ****         UART_READER_TXDATA_AUX_CTL_REG &= (uint8) ~UART_READER_TX_FIFO_CLR;
 1068              		.loc 1 1361 0
 1069 0010 1A78     		ldrb	r2, [r3]	@ zero_extendqisi2
 1070 0012 02F0FD02 		and	r2, r2, #253
 1071 0016 1A70     		strb	r2, [r3]
1362:.\Generated_Source\PSoC5/UART_READER.c ****         CyExitCriticalSection(enableInterrupts);
1363:.\Generated_Source\PSoC5/UART_READER.c **** 
1364:.\Generated_Source\PSoC5/UART_READER.c ****     #if (UART_READER_TX_INTERRUPT_ENABLED)
1365:.\Generated_Source\PSoC5/UART_READER.c **** 
1366:.\Generated_Source\PSoC5/UART_READER.c ****         /* Protect variables that could change on interrupt. */
1367:.\Generated_Source\PSoC5/UART_READER.c ****         UART_READER_DisableTxInt();
1368:.\Generated_Source\PSoC5/UART_READER.c **** 
1369:.\Generated_Source\PSoC5/UART_READER.c ****         UART_READER_txBufferRead = 0u;
1370:.\Generated_Source\PSoC5/UART_READER.c ****         UART_READER_txBufferWrite = 0u;
1371:.\Generated_Source\PSoC5/UART_READER.c **** 
1372:.\Generated_Source\PSoC5/UART_READER.c ****         /* Enable Tx interrupt. */
1373:.\Generated_Source\PSoC5/UART_READER.c ****         UART_READER_EnableTxInt();
1374:.\Generated_Source\PSoC5/UART_READER.c **** 
1375:.\Generated_Source\PSoC5/UART_READER.c ****     #endif /* (UART_READER_TX_INTERRUPT_ENABLED) */
1376:.\Generated_Source\PSoC5/UART_READER.c ****     }
 1072              		.loc 1 1376 0
 1073 0018 BDE80840 		pop	{r3, lr}
1362:.\Generated_Source\PSoC5/UART_READER.c ****         CyExitCriticalSection(enableInterrupts);
 1074              		.loc 1 1362 0
 1075 001c FFF7FEBF 		b	CyExitCriticalSection
 1076              	.LVL66:
 1077              	.L120:
 1078              		.align	2
 1079              	.L119:
 1080 0020 97640040 		.word	1073767575
 1081              		.cfi_endproc
 1082              	.LFE24:
 1083              		.size	UART_READER_ClearTxBuffer, .-UART_READER_ClearTxBuffer
 1084              		.section	.text.UART_READER_SendBreak,"ax",%progbits
 1085              		.align	1
 1086              		.global	UART_READER_SendBreak
 1087              		.thumb
 1088              		.thumb_func
 1089              		.type	UART_READER_SendBreak, %function
 1090              	UART_READER_SendBreak:
 1091              	.LFB25:
1377:.\Generated_Source\PSoC5/UART_READER.c **** 
1378:.\Generated_Source\PSoC5/UART_READER.c **** 
1379:.\Generated_Source\PSoC5/UART_READER.c ****     /*******************************************************************************
1380:.\Generated_Source\PSoC5/UART_READER.c ****     * Function Name: UART_READER_SendBreak
1381:.\Generated_Source\PSoC5/UART_READER.c ****     ********************************************************************************
1382:.\Generated_Source\PSoC5/UART_READER.c ****     *
1383:.\Generated_Source\PSoC5/UART_READER.c ****     * Summary:
1384:.\Generated_Source\PSoC5/UART_READER.c ****     *  Transmits a break signal on the bus.
1385:.\Generated_Source\PSoC5/UART_READER.c ****     *
1386:.\Generated_Source\PSoC5/UART_READER.c ****     * Parameters:
1387:.\Generated_Source\PSoC5/UART_READER.c ****     *  uint8 retMode:  Send Break return mode. See the following table for options.
1388:.\Generated_Source\PSoC5/UART_READER.c ****     *   UART_READER_SEND_BREAK - Initialize registers for break, send the Break
1389:.\Generated_Source\PSoC5/UART_READER.c ****     *       signal and return immediately.
1390:.\Generated_Source\PSoC5/UART_READER.c ****     *   UART_READER_WAIT_FOR_COMPLETE_REINIT - Wait until break transmission is
1391:.\Generated_Source\PSoC5/UART_READER.c ****     *       complete, reinitialize registers to normal transmission mode then return
1392:.\Generated_Source\PSoC5/UART_READER.c ****     *   UART_READER_REINIT - Reinitialize registers to normal transmission mode
ARM GAS  C:\Users\Yiquing\AppData\Local\Temp\ccJgHlWx.s 			page 45


1393:.\Generated_Source\PSoC5/UART_READER.c ****     *       then return.
1394:.\Generated_Source\PSoC5/UART_READER.c ****     *   UART_READER_SEND_WAIT_REINIT - Performs both options: 
1395:.\Generated_Source\PSoC5/UART_READER.c ****     *      UART_READER_SEND_BREAK and UART_READER_WAIT_FOR_COMPLETE_REINIT.
1396:.\Generated_Source\PSoC5/UART_READER.c ****     *      This option is recommended for most cases.
1397:.\Generated_Source\PSoC5/UART_READER.c ****     *
1398:.\Generated_Source\PSoC5/UART_READER.c ****     * Return:
1399:.\Generated_Source\PSoC5/UART_READER.c ****     *  None.
1400:.\Generated_Source\PSoC5/UART_READER.c ****     *
1401:.\Generated_Source\PSoC5/UART_READER.c ****     * Global Variables:
1402:.\Generated_Source\PSoC5/UART_READER.c ****     *  UART_READER_initVar - checked to identify that the component has been
1403:.\Generated_Source\PSoC5/UART_READER.c ****     *     initialized.
1404:.\Generated_Source\PSoC5/UART_READER.c ****     *  txPeriod - static variable, used for keeping TX period configuration.
1405:.\Generated_Source\PSoC5/UART_READER.c ****     *
1406:.\Generated_Source\PSoC5/UART_READER.c ****     * Reentrant:
1407:.\Generated_Source\PSoC5/UART_READER.c ****     *  No.
1408:.\Generated_Source\PSoC5/UART_READER.c ****     *
1409:.\Generated_Source\PSoC5/UART_READER.c ****     * Theory:
1410:.\Generated_Source\PSoC5/UART_READER.c ****     *  SendBreak function initializes registers to send 13-bit break signal. It is
1411:.\Generated_Source\PSoC5/UART_READER.c ****     *  important to return the registers configuration to normal for continue 8-bit
1412:.\Generated_Source\PSoC5/UART_READER.c ****     *  operation.
1413:.\Generated_Source\PSoC5/UART_READER.c ****     *  There are 3 variants for this API usage:
1414:.\Generated_Source\PSoC5/UART_READER.c ****     *  1) SendBreak(3) - function will send the Break signal and take care on the
1415:.\Generated_Source\PSoC5/UART_READER.c ****     *     configuration returning. Function will block CPU until transmission
1416:.\Generated_Source\PSoC5/UART_READER.c ****     *     complete.
1417:.\Generated_Source\PSoC5/UART_READER.c ****     *  2) User may want to use blocking time if UART configured to the low speed
1418:.\Generated_Source\PSoC5/UART_READER.c ****     *     operation
1419:.\Generated_Source\PSoC5/UART_READER.c ****     *     Example for this case:
1420:.\Generated_Source\PSoC5/UART_READER.c ****     *     SendBreak(0);     - initialize Break signal transmission
1421:.\Generated_Source\PSoC5/UART_READER.c ****     *         Add your code here to use CPU time
1422:.\Generated_Source\PSoC5/UART_READER.c ****     *     SendBreak(1);     - complete Break operation
1423:.\Generated_Source\PSoC5/UART_READER.c ****     *  3) Same to 2) but user may want to initialize and use the interrupt to
1424:.\Generated_Source\PSoC5/UART_READER.c ****     *     complete break operation.
1425:.\Generated_Source\PSoC5/UART_READER.c ****     *     Example for this case:
1426:.\Generated_Source\PSoC5/UART_READER.c ****     *     Initialize TX interrupt with "TX - On TX Complete" parameter
1427:.\Generated_Source\PSoC5/UART_READER.c ****     *     SendBreak(0);     - initialize Break signal transmission
1428:.\Generated_Source\PSoC5/UART_READER.c ****     *         Add your code here to use CPU time
1429:.\Generated_Source\PSoC5/UART_READER.c ****     *     When interrupt appear with UART_READER_TX_STS_COMPLETE status:
1430:.\Generated_Source\PSoC5/UART_READER.c ****     *     SendBreak(2);     - complete Break operation
1431:.\Generated_Source\PSoC5/UART_READER.c ****     *
1432:.\Generated_Source\PSoC5/UART_READER.c ****     * Side Effects:
1433:.\Generated_Source\PSoC5/UART_READER.c ****     *  The UART_READER_SendBreak() function initializes registers to send a
1434:.\Generated_Source\PSoC5/UART_READER.c ****     *  break signal.
1435:.\Generated_Source\PSoC5/UART_READER.c ****     *  Break signal length depends on the break signal bits configuration.
1436:.\Generated_Source\PSoC5/UART_READER.c ****     *  The register configuration should be reinitialized before normal 8-bit
1437:.\Generated_Source\PSoC5/UART_READER.c ****     *  communication can continue.
1438:.\Generated_Source\PSoC5/UART_READER.c ****     *
1439:.\Generated_Source\PSoC5/UART_READER.c ****     *******************************************************************************/
1440:.\Generated_Source\PSoC5/UART_READER.c ****     void UART_READER_SendBreak(uint8 retMode) 
1441:.\Generated_Source\PSoC5/UART_READER.c ****     {
 1092              		.loc 1 1441 0
 1093              		.cfi_startproc
 1094              		@ args = 0, pretend = 0, frame = 0
 1095              		@ frame_needed = 0, uses_anonymous_args = 0
 1096              		@ link register save eliminated.
 1097              	.LVL67:
1442:.\Generated_Source\PSoC5/UART_READER.c **** 
1443:.\Generated_Source\PSoC5/UART_READER.c ****         /* If not Initialized then skip this function*/
ARM GAS  C:\Users\Yiquing\AppData\Local\Temp\ccJgHlWx.s 			page 46


1444:.\Generated_Source\PSoC5/UART_READER.c ****         if(UART_READER_initVar != 0u)
 1098              		.loc 1 1444 0
 1099 0000 144B     		ldr	r3, .L146
 1100 0002 5B78     		ldrb	r3, [r3, #1]	@ zero_extendqisi2
 1101 0004 2BB3     		cbz	r3, .L121
 1102              	.LBB31:
1445:.\Generated_Source\PSoC5/UART_READER.c ****         {
1446:.\Generated_Source\PSoC5/UART_READER.c ****             /* Set the Counter to 13-bits and transmit a 00 byte */
1447:.\Generated_Source\PSoC5/UART_READER.c ****             /* When that is done then reset the counter value back */
1448:.\Generated_Source\PSoC5/UART_READER.c ****             uint8 tmpStat;
1449:.\Generated_Source\PSoC5/UART_READER.c **** 
1450:.\Generated_Source\PSoC5/UART_READER.c ****         #if(UART_READER_HD_ENABLED) /* Half Duplex mode*/
1451:.\Generated_Source\PSoC5/UART_READER.c **** 
1452:.\Generated_Source\PSoC5/UART_READER.c ****             if( (retMode == UART_READER_SEND_BREAK) ||
 1103              		.loc 1 1452 0
 1104 0006 08B1     		cbz	r0, .L124
 1105              		.loc 1 1452 0 is_stmt 0 discriminator 1
 1106 0008 0328     		cmp	r0, #3
 1107 000a 20D1     		bne	.L125
 1108              	.L124:
 1109              	.LBB32:
 1110              	.LBB33:
 300:.\Generated_Source\PSoC5/UART_READER.c ****         return(UART_READER_CONTROL_REG);
 1111              		.loc 1 300 0 is_stmt 1
 1112 000c 124B     		ldr	r3, .L146+4
 1113              	.LBE33:
 1114              	.LBE32:
1453:.\Generated_Source\PSoC5/UART_READER.c ****                 (retMode == UART_READER_SEND_WAIT_REINIT ) )
1454:.\Generated_Source\PSoC5/UART_READER.c ****             {
1455:.\Generated_Source\PSoC5/UART_READER.c ****                 /* CTRL_HD_SEND_BREAK - sends break bits in HD mode */
1456:.\Generated_Source\PSoC5/UART_READER.c ****                 UART_READER_WriteControlRegister(UART_READER_ReadControlRegister() |
1457:.\Generated_Source\PSoC5/UART_READER.c ****                                                       UART_READER_CTRL_HD_SEND_BREAK);
1458:.\Generated_Source\PSoC5/UART_READER.c ****                 /* Send zeros */
1459:.\Generated_Source\PSoC5/UART_READER.c ****                 UART_READER_TXDATA_REG = 0u;
 1115              		.loc 1 1459 0
 1116 000e 6FF49071 		mvn	r1, #288
 1117              	.LBB35:
 1118              	.LBB34:
 300:.\Generated_Source\PSoC5/UART_READER.c ****         return(UART_READER_CONTROL_REG);
 1119              		.loc 1 300 0
 1120 0012 1A78     		ldrb	r2, [r3]	@ zero_extendqisi2
 1121              	.LBE34:
 1122              	.LBE35:
1456:.\Generated_Source\PSoC5/UART_READER.c ****                 UART_READER_WriteControlRegister(UART_READER_ReadControlRegister() |
 1123              		.loc 1 1456 0
 1124 0014 42F00202 		orr	r2, r2, #2
 1125              	.LVL68:
 1126              	.LBB36:
 1127              	.LBB37:
 327:.\Generated_Source\PSoC5/UART_READER.c ****        UART_READER_CONTROL_REG = control;
 1128              		.loc 1 327 0
 1129 0018 1A70     		strb	r2, [r3]
 1130              	.LBE37:
 1131              	.LBE36:
 1132              		.loc 1 1459 0
 1133 001a 0022     		movs	r2, #0
 1134              	.LVL69:
ARM GAS  C:\Users\Yiquing\AppData\Local\Temp\ccJgHlWx.s 			page 47


 1135 001c 0B44     		add	r3, r3, r1
 1136 001e 1A70     		strb	r2, [r3]
 1137              	.L127:
1460:.\Generated_Source\PSoC5/UART_READER.c **** 
1461:.\Generated_Source\PSoC5/UART_READER.c ****                 do /* Wait until transmit starts */
1462:.\Generated_Source\PSoC5/UART_READER.c ****                 {
1463:.\Generated_Source\PSoC5/UART_READER.c ****                     tmpStat = UART_READER_TXSTATUS_REG;
 1138              		.loc 1 1463 0 discriminator 1
 1139 0020 0E4B     		ldr	r3, .L146+8
 1140 0022 1B78     		ldrb	r3, [r3]	@ zero_extendqisi2
 1141              	.LVL70:
1464:.\Generated_Source\PSoC5/UART_READER.c ****                 }
1465:.\Generated_Source\PSoC5/UART_READER.c ****                 while((tmpStat & UART_READER_TX_STS_FIFO_EMPTY) != 0u);
 1142              		.loc 1 1465 0 discriminator 1
 1143 0024 9A07     		lsls	r2, r3, #30
 1144 0026 FBD4     		bmi	.L127
1466:.\Generated_Source\PSoC5/UART_READER.c ****             }
1467:.\Generated_Source\PSoC5/UART_READER.c **** 
1468:.\Generated_Source\PSoC5/UART_READER.c ****             if( (retMode == UART_READER_WAIT_FOR_COMPLETE_REINIT) ||
 1145              		.loc 1 1468 0
 1146 0028 00F0FD03 		and	r3, r0, #253
 1147              	.LVL71:
 1148 002c 012B     		cmp	r3, #1
 1149              	.L145:
 1150 002e 03D0     		beq	.L132
 1151              	.L131:
1469:.\Generated_Source\PSoC5/UART_READER.c ****                 (retMode == UART_READER_SEND_WAIT_REINIT) )
1470:.\Generated_Source\PSoC5/UART_READER.c ****             {
1471:.\Generated_Source\PSoC5/UART_READER.c ****                 do /* Wait until transmit complete */
1472:.\Generated_Source\PSoC5/UART_READER.c ****                 {
1473:.\Generated_Source\PSoC5/UART_READER.c ****                     tmpStat = UART_READER_TXSTATUS_REG;
1474:.\Generated_Source\PSoC5/UART_READER.c ****                 }
1475:.\Generated_Source\PSoC5/UART_READER.c ****                 while(((uint8)~tmpStat & UART_READER_TX_STS_COMPLETE) != 0u);
1476:.\Generated_Source\PSoC5/UART_READER.c ****             }
1477:.\Generated_Source\PSoC5/UART_READER.c **** 
1478:.\Generated_Source\PSoC5/UART_READER.c ****             if( (retMode == UART_READER_WAIT_FOR_COMPLETE_REINIT) ||
 1152              		.loc 1 1478 0
 1153 0030 0138     		subs	r0, r0, #1
 1154              	.LVL72:
 1155 0032 0228     		cmp	r0, #2
 1156 0034 05D9     		bls	.L129
 1157 0036 7047     		bx	lr
 1158              	.LVL73:
 1159              	.L132:
1473:.\Generated_Source\PSoC5/UART_READER.c ****                     tmpStat = UART_READER_TXSTATUS_REG;
 1160              		.loc 1 1473 0 discriminator 1
 1161 0038 084B     		ldr	r3, .L146+8
 1162 003a 1B78     		ldrb	r3, [r3]	@ zero_extendqisi2
 1163              	.LVL74:
1475:.\Generated_Source\PSoC5/UART_READER.c ****                 while(((uint8)~tmpStat & UART_READER_TX_STS_COMPLETE) != 0u);
 1164              		.loc 1 1475 0 discriminator 1
 1165 003c DB07     		lsls	r3, r3, #31
 1166              	.LVL75:
 1167 003e FBD5     		bpl	.L132
 1168 0040 F6E7     		b	.L131
 1169              	.LVL76:
 1170              	.L129:
ARM GAS  C:\Users\Yiquing\AppData\Local\Temp\ccJgHlWx.s 			page 48


 1171              	.LBB38:
 1172              	.LBB39:
 300:.\Generated_Source\PSoC5/UART_READER.c ****         return(UART_READER_CONTROL_REG);
 1173              		.loc 1 300 0
 1174 0042 054B     		ldr	r3, .L146+4
 1175 0044 1A78     		ldrb	r2, [r3]	@ zero_extendqisi2
 1176              	.LBE39:
 1177              	.LBE38:
1479:.\Generated_Source\PSoC5/UART_READER.c ****                 (retMode == UART_READER_REINIT) ||
1480:.\Generated_Source\PSoC5/UART_READER.c ****                 (retMode == UART_READER_SEND_WAIT_REINIT) )
1481:.\Generated_Source\PSoC5/UART_READER.c ****             {
1482:.\Generated_Source\PSoC5/UART_READER.c ****                 UART_READER_WriteControlRegister(UART_READER_ReadControlRegister() &
 1178              		.loc 1 1482 0
 1179 0046 02F0FD02 		and	r2, r2, #253
 1180              	.LVL77:
 1181              	.LBB40:
 1182              	.LBB41:
 327:.\Generated_Source\PSoC5/UART_READER.c ****        UART_READER_CONTROL_REG = control;
 1183              		.loc 1 327 0
 1184 004a 1A70     		strb	r2, [r3]
 1185 004c 7047     		bx	lr
 1186              	.LVL78:
 1187              	.L125:
 1188              	.LBE41:
 1189              	.LBE40:
1468:.\Generated_Source\PSoC5/UART_READER.c ****             if( (retMode == UART_READER_WAIT_FOR_COMPLETE_REINIT) ||
 1190              		.loc 1 1468 0
 1191 004e 0128     		cmp	r0, #1
 1192 0050 EDE7     		b	.L145
 1193              	.L121:
 1194 0052 7047     		bx	lr
 1195              	.L147:
 1196              		.align	2
 1197              	.L146:
 1198 0054 00000000 		.word	.LANCHOR0
 1199 0058 78650040 		.word	1073767800
 1200 005c 67640040 		.word	1073767527
 1201              	.LBE31:
 1202              		.cfi_endproc
 1203              	.LFE25:
 1204              		.size	UART_READER_SendBreak, .-UART_READER_SendBreak
 1205              		.section	.text.UART_READER_SetTxAddressMode,"ax",%progbits
 1206              		.align	1
 1207              		.global	UART_READER_SetTxAddressMode
 1208              		.thumb
 1209              		.thumb_func
 1210              		.type	UART_READER_SetTxAddressMode, %function
 1211              	UART_READER_SetTxAddressMode:
 1212              	.LFB26:
1483:.\Generated_Source\PSoC5/UART_READER.c ****                                               (uint8)~UART_READER_CTRL_HD_SEND_BREAK);
1484:.\Generated_Source\PSoC5/UART_READER.c ****             }
1485:.\Generated_Source\PSoC5/UART_READER.c **** 
1486:.\Generated_Source\PSoC5/UART_READER.c ****         #else /* UART_READER_HD_ENABLED Full Duplex mode */
1487:.\Generated_Source\PSoC5/UART_READER.c **** 
1488:.\Generated_Source\PSoC5/UART_READER.c ****             static uint8 txPeriod;
1489:.\Generated_Source\PSoC5/UART_READER.c **** 
1490:.\Generated_Source\PSoC5/UART_READER.c ****             if( (retMode == UART_READER_SEND_BREAK) ||
ARM GAS  C:\Users\Yiquing\AppData\Local\Temp\ccJgHlWx.s 			page 49


1491:.\Generated_Source\PSoC5/UART_READER.c ****                 (retMode == UART_READER_SEND_WAIT_REINIT) )
1492:.\Generated_Source\PSoC5/UART_READER.c ****             {
1493:.\Generated_Source\PSoC5/UART_READER.c ****                 /* CTRL_HD_SEND_BREAK - skip to send parity bit at Break signal in Full Duplex mode
1494:.\Generated_Source\PSoC5/UART_READER.c ****                 #if( (UART_READER_PARITY_TYPE != UART_READER__B_UART__NONE_REVB) || \
1495:.\Generated_Source\PSoC5/UART_READER.c ****                                     (UART_READER_PARITY_TYPE_SW != 0u) )
1496:.\Generated_Source\PSoC5/UART_READER.c ****                     UART_READER_WriteControlRegister(UART_READER_ReadControlRegister() |
1497:.\Generated_Source\PSoC5/UART_READER.c ****                                                           UART_READER_CTRL_HD_SEND_BREAK);
1498:.\Generated_Source\PSoC5/UART_READER.c ****                 #endif /* End UART_READER_PARITY_TYPE != UART_READER__B_UART__NONE_REVB  */
1499:.\Generated_Source\PSoC5/UART_READER.c **** 
1500:.\Generated_Source\PSoC5/UART_READER.c ****                 #if(UART_READER_TXCLKGEN_DP)
1501:.\Generated_Source\PSoC5/UART_READER.c ****                     txPeriod = UART_READER_TXBITCLKTX_COMPLETE_REG;
1502:.\Generated_Source\PSoC5/UART_READER.c ****                     UART_READER_TXBITCLKTX_COMPLETE_REG = UART_READER_TXBITCTR_BREAKBITS;
1503:.\Generated_Source\PSoC5/UART_READER.c ****                 #else
1504:.\Generated_Source\PSoC5/UART_READER.c ****                     txPeriod = UART_READER_TXBITCTR_PERIOD_REG;
1505:.\Generated_Source\PSoC5/UART_READER.c ****                     UART_READER_TXBITCTR_PERIOD_REG = UART_READER_TXBITCTR_BREAKBITS8X;
1506:.\Generated_Source\PSoC5/UART_READER.c ****                 #endif /* End UART_READER_TXCLKGEN_DP */
1507:.\Generated_Source\PSoC5/UART_READER.c **** 
1508:.\Generated_Source\PSoC5/UART_READER.c ****                 /* Send zeros */
1509:.\Generated_Source\PSoC5/UART_READER.c ****                 UART_READER_TXDATA_REG = 0u;
1510:.\Generated_Source\PSoC5/UART_READER.c **** 
1511:.\Generated_Source\PSoC5/UART_READER.c ****                 do /* Wait until transmit starts */
1512:.\Generated_Source\PSoC5/UART_READER.c ****                 {
1513:.\Generated_Source\PSoC5/UART_READER.c ****                     tmpStat = UART_READER_TXSTATUS_REG;
1514:.\Generated_Source\PSoC5/UART_READER.c ****                 }
1515:.\Generated_Source\PSoC5/UART_READER.c ****                 while((tmpStat & UART_READER_TX_STS_FIFO_EMPTY) != 0u);
1516:.\Generated_Source\PSoC5/UART_READER.c ****             }
1517:.\Generated_Source\PSoC5/UART_READER.c **** 
1518:.\Generated_Source\PSoC5/UART_READER.c ****             if( (retMode == UART_READER_WAIT_FOR_COMPLETE_REINIT) ||
1519:.\Generated_Source\PSoC5/UART_READER.c ****                 (retMode == UART_READER_SEND_WAIT_REINIT) )
1520:.\Generated_Source\PSoC5/UART_READER.c ****             {
1521:.\Generated_Source\PSoC5/UART_READER.c ****                 do /* Wait until transmit complete */
1522:.\Generated_Source\PSoC5/UART_READER.c ****                 {
1523:.\Generated_Source\PSoC5/UART_READER.c ****                     tmpStat = UART_READER_TXSTATUS_REG;
1524:.\Generated_Source\PSoC5/UART_READER.c ****                 }
1525:.\Generated_Source\PSoC5/UART_READER.c ****                 while(((uint8)~tmpStat & UART_READER_TX_STS_COMPLETE) != 0u);
1526:.\Generated_Source\PSoC5/UART_READER.c ****             }
1527:.\Generated_Source\PSoC5/UART_READER.c **** 
1528:.\Generated_Source\PSoC5/UART_READER.c ****             if( (retMode == UART_READER_WAIT_FOR_COMPLETE_REINIT) ||
1529:.\Generated_Source\PSoC5/UART_READER.c ****                 (retMode == UART_READER_REINIT) ||
1530:.\Generated_Source\PSoC5/UART_READER.c ****                 (retMode == UART_READER_SEND_WAIT_REINIT) )
1531:.\Generated_Source\PSoC5/UART_READER.c ****             {
1532:.\Generated_Source\PSoC5/UART_READER.c **** 
1533:.\Generated_Source\PSoC5/UART_READER.c ****             #if(UART_READER_TXCLKGEN_DP)
1534:.\Generated_Source\PSoC5/UART_READER.c ****                 UART_READER_TXBITCLKTX_COMPLETE_REG = txPeriod;
1535:.\Generated_Source\PSoC5/UART_READER.c ****             #else
1536:.\Generated_Source\PSoC5/UART_READER.c ****                 UART_READER_TXBITCTR_PERIOD_REG = txPeriod;
1537:.\Generated_Source\PSoC5/UART_READER.c ****             #endif /* End UART_READER_TXCLKGEN_DP */
1538:.\Generated_Source\PSoC5/UART_READER.c **** 
1539:.\Generated_Source\PSoC5/UART_READER.c ****             #if( (UART_READER_PARITY_TYPE != UART_READER__B_UART__NONE_REVB) || \
1540:.\Generated_Source\PSoC5/UART_READER.c ****                  (UART_READER_PARITY_TYPE_SW != 0u) )
1541:.\Generated_Source\PSoC5/UART_READER.c ****                 UART_READER_WriteControlRegister(UART_READER_ReadControlRegister() &
1542:.\Generated_Source\PSoC5/UART_READER.c ****                                                       (uint8) ~UART_READER_CTRL_HD_SEND_BREAK);
1543:.\Generated_Source\PSoC5/UART_READER.c ****             #endif /* End UART_READER_PARITY_TYPE != NONE */
1544:.\Generated_Source\PSoC5/UART_READER.c ****             }
1545:.\Generated_Source\PSoC5/UART_READER.c ****         #endif    /* End UART_READER_HD_ENABLED */
1546:.\Generated_Source\PSoC5/UART_READER.c ****         }
1547:.\Generated_Source\PSoC5/UART_READER.c ****     }
ARM GAS  C:\Users\Yiquing\AppData\Local\Temp\ccJgHlWx.s 			page 50


1548:.\Generated_Source\PSoC5/UART_READER.c **** 
1549:.\Generated_Source\PSoC5/UART_READER.c **** 
1550:.\Generated_Source\PSoC5/UART_READER.c ****     /*******************************************************************************
1551:.\Generated_Source\PSoC5/UART_READER.c ****     * Function Name: UART_READER_SetTxAddressMode
1552:.\Generated_Source\PSoC5/UART_READER.c ****     ********************************************************************************
1553:.\Generated_Source\PSoC5/UART_READER.c ****     *
1554:.\Generated_Source\PSoC5/UART_READER.c ****     * Summary:
1555:.\Generated_Source\PSoC5/UART_READER.c ****     *  Configures the transmitter to signal the next bytes is address or data.
1556:.\Generated_Source\PSoC5/UART_READER.c ****     *
1557:.\Generated_Source\PSoC5/UART_READER.c ****     * Parameters:
1558:.\Generated_Source\PSoC5/UART_READER.c ****     *  addressMode: 
1559:.\Generated_Source\PSoC5/UART_READER.c ****     *       UART_READER_SET_SPACE - Configure the transmitter to send the next
1560:.\Generated_Source\PSoC5/UART_READER.c ****     *                                    byte as a data.
1561:.\Generated_Source\PSoC5/UART_READER.c ****     *       UART_READER_SET_MARK  - Configure the transmitter to send the next
1562:.\Generated_Source\PSoC5/UART_READER.c ****     *                                    byte as an address.
1563:.\Generated_Source\PSoC5/UART_READER.c ****     *
1564:.\Generated_Source\PSoC5/UART_READER.c ****     * Return:
1565:.\Generated_Source\PSoC5/UART_READER.c ****     *  None.
1566:.\Generated_Source\PSoC5/UART_READER.c ****     *
1567:.\Generated_Source\PSoC5/UART_READER.c ****     * Side Effects:
1568:.\Generated_Source\PSoC5/UART_READER.c ****     *  This function sets and clears UART_READER_CTRL_MARK bit in the Control
1569:.\Generated_Source\PSoC5/UART_READER.c ****     *  register.
1570:.\Generated_Source\PSoC5/UART_READER.c ****     *
1571:.\Generated_Source\PSoC5/UART_READER.c ****     *******************************************************************************/
1572:.\Generated_Source\PSoC5/UART_READER.c ****     void UART_READER_SetTxAddressMode(uint8 addressMode) 
1573:.\Generated_Source\PSoC5/UART_READER.c ****     {
 1213              		.loc 1 1573 0
 1214              		.cfi_startproc
 1215              		@ args = 0, pretend = 0, frame = 0
 1216              		@ frame_needed = 0, uses_anonymous_args = 0
 1217              		@ link register save eliminated.
 1218              	.LVL79:
 1219 0000 044B     		ldr	r3, .L152
 1220              	.LBB42:
 1221              	.LBB43:
 300:.\Generated_Source\PSoC5/UART_READER.c ****         return(UART_READER_CONTROL_REG);
 1222              		.loc 1 300 0
 1223 0002 1A78     		ldrb	r2, [r3]	@ zero_extendqisi2
 1224              	.LBE43:
 1225              	.LBE42:
1574:.\Generated_Source\PSoC5/UART_READER.c ****         /* Mark/Space sending enable */
1575:.\Generated_Source\PSoC5/UART_READER.c ****         if(addressMode != 0u)
 1226              		.loc 1 1575 0
 1227 0004 10B1     		cbz	r0, .L149
1576:.\Generated_Source\PSoC5/UART_READER.c ****         {
1577:.\Generated_Source\PSoC5/UART_READER.c ****         #if( UART_READER_CONTROL_REG_REMOVED == 0u )
1578:.\Generated_Source\PSoC5/UART_READER.c ****             UART_READER_WriteControlRegister(UART_READER_ReadControlRegister() |
 1228              		.loc 1 1578 0
 1229 0006 42F00402 		orr	r2, r2, #4
 1230              	.LVL80:
 1231 000a 01E0     		b	.L151
 1232              	.LVL81:
 1233              	.L149:
1579:.\Generated_Source\PSoC5/UART_READER.c ****                                                   UART_READER_CTRL_MARK);
1580:.\Generated_Source\PSoC5/UART_READER.c ****         #endif /* End UART_READER_CONTROL_REG_REMOVED == 0u */
1581:.\Generated_Source\PSoC5/UART_READER.c ****         }
1582:.\Generated_Source\PSoC5/UART_READER.c ****         else
ARM GAS  C:\Users\Yiquing\AppData\Local\Temp\ccJgHlWx.s 			page 51


1583:.\Generated_Source\PSoC5/UART_READER.c ****         {
1584:.\Generated_Source\PSoC5/UART_READER.c ****         #if( UART_READER_CONTROL_REG_REMOVED == 0u )
1585:.\Generated_Source\PSoC5/UART_READER.c ****             UART_READER_WriteControlRegister(UART_READER_ReadControlRegister() &
 1234              		.loc 1 1585 0
 1235 000c 02F0FB02 		and	r2, r2, #251
 1236              	.L151:
 1237              	.LVL82:
 1238              	.LBB44:
 1239              	.LBB45:
 327:.\Generated_Source\PSoC5/UART_READER.c ****        UART_READER_CONTROL_REG = control;
 1240              		.loc 1 327 0
 1241 0010 1A70     		strb	r2, [r3]
 1242 0012 7047     		bx	lr
 1243              	.L153:
 1244              		.align	2
 1245              	.L152:
 1246 0014 78650040 		.word	1073767800
 1247              	.LBE45:
 1248              	.LBE44:
 1249              		.cfi_endproc
 1250              	.LFE26:
 1251              		.size	UART_READER_SetTxAddressMode, .-UART_READER_SetTxAddressMode
 1252              		.section	.text.UART_READER_LoadRxConfig,"ax",%progbits
 1253              		.align	1
 1254              		.global	UART_READER_LoadRxConfig
 1255              		.thumb
 1256              		.thumb_func
 1257              		.type	UART_READER_LoadRxConfig, %function
 1258              	UART_READER_LoadRxConfig:
 1259              	.LFB27:
1586:.\Generated_Source\PSoC5/UART_READER.c ****                                                   (uint8) ~UART_READER_CTRL_MARK);
1587:.\Generated_Source\PSoC5/UART_READER.c ****         #endif /* End UART_READER_CONTROL_REG_REMOVED == 0u */
1588:.\Generated_Source\PSoC5/UART_READER.c ****         }
1589:.\Generated_Source\PSoC5/UART_READER.c ****     }
1590:.\Generated_Source\PSoC5/UART_READER.c **** 
1591:.\Generated_Source\PSoC5/UART_READER.c **** #endif  /* EndUART_READER_TX_ENABLED */
1592:.\Generated_Source\PSoC5/UART_READER.c **** 
1593:.\Generated_Source\PSoC5/UART_READER.c **** #if(UART_READER_HD_ENABLED)
1594:.\Generated_Source\PSoC5/UART_READER.c **** 
1595:.\Generated_Source\PSoC5/UART_READER.c **** 
1596:.\Generated_Source\PSoC5/UART_READER.c ****     /*******************************************************************************
1597:.\Generated_Source\PSoC5/UART_READER.c ****     * Function Name: UART_READER_LoadRxConfig
1598:.\Generated_Source\PSoC5/UART_READER.c ****     ********************************************************************************
1599:.\Generated_Source\PSoC5/UART_READER.c ****     *
1600:.\Generated_Source\PSoC5/UART_READER.c ****     * Summary:
1601:.\Generated_Source\PSoC5/UART_READER.c ****     *  Loads the receiver configuration in half duplex mode. After calling this
1602:.\Generated_Source\PSoC5/UART_READER.c ****     *  function, the UART is ready to receive data.
1603:.\Generated_Source\PSoC5/UART_READER.c ****     *
1604:.\Generated_Source\PSoC5/UART_READER.c ****     * Parameters:
1605:.\Generated_Source\PSoC5/UART_READER.c ****     *  None.
1606:.\Generated_Source\PSoC5/UART_READER.c ****     *
1607:.\Generated_Source\PSoC5/UART_READER.c ****     * Return:
1608:.\Generated_Source\PSoC5/UART_READER.c ****     *  None.
1609:.\Generated_Source\PSoC5/UART_READER.c ****     *
1610:.\Generated_Source\PSoC5/UART_READER.c ****     * Side Effects:
1611:.\Generated_Source\PSoC5/UART_READER.c ****     *  Valid only in half duplex mode. You must make sure that the previous
1612:.\Generated_Source\PSoC5/UART_READER.c ****     *  transaction is complete and it is safe to unload the transmitter
ARM GAS  C:\Users\Yiquing\AppData\Local\Temp\ccJgHlWx.s 			page 52


1613:.\Generated_Source\PSoC5/UART_READER.c ****     *  configuration.
1614:.\Generated_Source\PSoC5/UART_READER.c ****     *
1615:.\Generated_Source\PSoC5/UART_READER.c ****     *******************************************************************************/
1616:.\Generated_Source\PSoC5/UART_READER.c ****     void UART_READER_LoadRxConfig(void) 
1617:.\Generated_Source\PSoC5/UART_READER.c ****     {
 1260              		.loc 1 1617 0
 1261              		.cfi_startproc
 1262              		@ args = 0, pretend = 0, frame = 0
 1263              		@ frame_needed = 0, uses_anonymous_args = 0
 1264              		@ link register save eliminated.
 1265              	.LBB46:
 1266              	.LBB47:
 300:.\Generated_Source\PSoC5/UART_READER.c ****         return(UART_READER_CONTROL_REG);
 1267              		.loc 1 300 0
 1268 0000 054B     		ldr	r3, .L155
 1269 0002 1A78     		ldrb	r2, [r3]	@ zero_extendqisi2
 1270              	.LBE47:
 1271              	.LBE46:
1618:.\Generated_Source\PSoC5/UART_READER.c ****         UART_READER_WriteControlRegister(UART_READER_ReadControlRegister() &
 1272              		.loc 1 1618 0
 1273 0004 02F0FE02 		and	r2, r2, #254
 1274              	.LVL83:
 1275              	.LBB48:
 1276              	.LBB49:
 327:.\Generated_Source\PSoC5/UART_READER.c ****        UART_READER_CONTROL_REG = control;
 1277              		.loc 1 327 0
 1278 0008 1A70     		strb	r2, [r3]
 1279              	.LBE49:
 1280              	.LBE48:
1619:.\Generated_Source\PSoC5/UART_READER.c ****                                                 (uint8)~UART_READER_CTRL_HD_SEND);
1620:.\Generated_Source\PSoC5/UART_READER.c ****         UART_READER_RXBITCTR_PERIOD_REG = UART_READER_HD_RXBITCTR_INIT;
 1281              		.loc 1 1620 0
 1282 000a 7222     		movs	r2, #114
 1283              	.LVL84:
 1284 000c 5A73     		strb	r2, [r3, #13]
 1285              	.LVL85:
 1286              	.LBB50:
 1287              	.LBB51:
 361:.\Generated_Source\PSoC5/UART_READER.c ****         UART_READER_RXSTATUS_MASK_REG  = intSrc;
 1288              		.loc 1 361 0
 1289 000e 2022     		movs	r2, #32
 1290 0010 03F8F12C 		strb	r2, [r3, #-241]
 1291 0014 7047     		bx	lr
 1292              	.L156:
 1293 0016 00BF     		.align	2
 1294              	.L155:
 1295 0018 78650040 		.word	1073767800
 1296              	.LBE51:
 1297              	.LBE50:
 1298              		.cfi_endproc
 1299              	.LFE27:
 1300              		.size	UART_READER_LoadRxConfig, .-UART_READER_LoadRxConfig
 1301              		.section	.text.UART_READER_LoadTxConfig,"ax",%progbits
 1302              		.align	1
 1303              		.global	UART_READER_LoadTxConfig
 1304              		.thumb
 1305              		.thumb_func
ARM GAS  C:\Users\Yiquing\AppData\Local\Temp\ccJgHlWx.s 			page 53


 1306              		.type	UART_READER_LoadTxConfig, %function
 1307              	UART_READER_LoadTxConfig:
 1308              	.LFB28:
1621:.\Generated_Source\PSoC5/UART_READER.c **** 
1622:.\Generated_Source\PSoC5/UART_READER.c ****     #if (UART_READER_RX_INTERRUPT_ENABLED)
1623:.\Generated_Source\PSoC5/UART_READER.c ****         /* Enable RX interrupt after set RX configuration */
1624:.\Generated_Source\PSoC5/UART_READER.c ****         UART_READER_SetRxInterruptMode(UART_READER_INIT_RX_INTERRUPTS_MASK);
1625:.\Generated_Source\PSoC5/UART_READER.c ****     #endif /* (UART_READER_RX_INTERRUPT_ENABLED) */
1626:.\Generated_Source\PSoC5/UART_READER.c ****     }
1627:.\Generated_Source\PSoC5/UART_READER.c **** 
1628:.\Generated_Source\PSoC5/UART_READER.c **** 
1629:.\Generated_Source\PSoC5/UART_READER.c ****     /*******************************************************************************
1630:.\Generated_Source\PSoC5/UART_READER.c ****     * Function Name: UART_READER_LoadTxConfig
1631:.\Generated_Source\PSoC5/UART_READER.c ****     ********************************************************************************
1632:.\Generated_Source\PSoC5/UART_READER.c ****     *
1633:.\Generated_Source\PSoC5/UART_READER.c ****     * Summary:
1634:.\Generated_Source\PSoC5/UART_READER.c ****     *  Loads the transmitter configuration in half duplex mode. After calling this
1635:.\Generated_Source\PSoC5/UART_READER.c ****     *  function, the UART is ready to transmit data.
1636:.\Generated_Source\PSoC5/UART_READER.c ****     *
1637:.\Generated_Source\PSoC5/UART_READER.c ****     * Parameters:
1638:.\Generated_Source\PSoC5/UART_READER.c ****     *  None.
1639:.\Generated_Source\PSoC5/UART_READER.c ****     *
1640:.\Generated_Source\PSoC5/UART_READER.c ****     * Return:
1641:.\Generated_Source\PSoC5/UART_READER.c ****     *  None.
1642:.\Generated_Source\PSoC5/UART_READER.c ****     *
1643:.\Generated_Source\PSoC5/UART_READER.c ****     * Side Effects:
1644:.\Generated_Source\PSoC5/UART_READER.c ****     *  Valid only in half duplex mode. You must make sure that the previous
1645:.\Generated_Source\PSoC5/UART_READER.c ****     *  transaction is complete and it is safe to unload the receiver configuration.
1646:.\Generated_Source\PSoC5/UART_READER.c ****     *
1647:.\Generated_Source\PSoC5/UART_READER.c ****     *******************************************************************************/
1648:.\Generated_Source\PSoC5/UART_READER.c ****     void UART_READER_LoadTxConfig(void) 
1649:.\Generated_Source\PSoC5/UART_READER.c ****     {
 1309              		.loc 1 1649 0
 1310              		.cfi_startproc
 1311              		@ args = 0, pretend = 0, frame = 0
 1312              		@ frame_needed = 0, uses_anonymous_args = 0
 1313              		@ link register save eliminated.
 1314              	.LVL86:
 1315              	.LBB52:
 1316              	.LBB53:
 361:.\Generated_Source\PSoC5/UART_READER.c ****         UART_READER_RXSTATUS_MASK_REG  = intSrc;
 1317              		.loc 1 361 0
 1318 0000 064B     		ldr	r3, .L158
 1319 0002 0022     		movs	r2, #0
 1320 0004 1A70     		strb	r2, [r3]
 1321              	.LBE53:
 1322              	.LBE52:
 1323              	.LBB54:
 1324              	.LBB55:
 300:.\Generated_Source\PSoC5/UART_READER.c ****         return(UART_READER_CONTROL_REG);
 1325              		.loc 1 300 0
 1326 0006 93F8F120 		ldrb	r2, [r3, #241]	@ zero_extendqisi2
 1327              	.LBE55:
 1328              	.LBE54:
1650:.\Generated_Source\PSoC5/UART_READER.c ****     #if (UART_READER_RX_INTERRUPT_ENABLED)
1651:.\Generated_Source\PSoC5/UART_READER.c ****         /* Disable RX interrupts before set TX configuration */
1652:.\Generated_Source\PSoC5/UART_READER.c ****         UART_READER_SetRxInterruptMode(0u);
ARM GAS  C:\Users\Yiquing\AppData\Local\Temp\ccJgHlWx.s 			page 54


1653:.\Generated_Source\PSoC5/UART_READER.c ****     #endif /* (UART_READER_RX_INTERRUPT_ENABLED) */
1654:.\Generated_Source\PSoC5/UART_READER.c **** 
1655:.\Generated_Source\PSoC5/UART_READER.c ****         UART_READER_WriteControlRegister(UART_READER_ReadControlRegister() | UART_READER_CTRL_HD_SE
 1329              		.loc 1 1655 0
 1330 000a 42F00102 		orr	r2, r2, #1
 1331              	.LVL87:
 1332              	.LBB56:
 1333              	.LBB57:
 327:.\Generated_Source\PSoC5/UART_READER.c ****        UART_READER_CONTROL_REG = control;
 1334              		.loc 1 327 0
 1335 000e 83F8F120 		strb	r2, [r3, #241]
 1336              	.LBE57:
 1337              	.LBE56:
1656:.\Generated_Source\PSoC5/UART_READER.c ****         UART_READER_RXBITCTR_PERIOD_REG = UART_READER_HD_TXBITCTR_INIT;
 1338              		.loc 1 1656 0
 1339 0012 6F22     		movs	r2, #111
 1340              	.LVL88:
 1341 0014 83F8FE20 		strb	r2, [r3, #254]
 1342 0018 7047     		bx	lr
 1343              	.L159:
 1344 001a 00BF     		.align	2
 1345              	.L158:
 1346 001c 87640040 		.word	1073767559
 1347              		.cfi_endproc
 1348              	.LFE28:
 1349              		.size	UART_READER_LoadTxConfig, .-UART_READER_LoadTxConfig
 1350              		.global	UART_READER_rxBufferOverflow
 1351              		.global	UART_READER_rxBufferLoopDetect
 1352              		.global	UART_READER_rxBufferWrite
 1353              		.global	UART_READER_rxBufferRead
 1354              		.comm	UART_READER_rxBuffer,128,1
 1355              		.global	UART_READER_errorStatus
 1356              		.global	UART_READER_initVar
 1357              		.bss
 1358              		.set	.LANCHOR0,. + 0
 1359              		.type	UART_READER_errorStatus, %object
 1360              		.size	UART_READER_errorStatus, 1
 1361              	UART_READER_errorStatus:
 1362 0000 00       		.space	1
 1363              		.type	UART_READER_initVar, %object
 1364              		.size	UART_READER_initVar, 1
 1365              	UART_READER_initVar:
 1366 0001 00       		.space	1
 1367              		.type	UART_READER_rxBufferRead, %object
 1368              		.size	UART_READER_rxBufferRead, 1
 1369              	UART_READER_rxBufferRead:
 1370 0002 00       		.space	1
 1371              		.type	UART_READER_rxBufferWrite, %object
 1372              		.size	UART_READER_rxBufferWrite, 1
 1373              	UART_READER_rxBufferWrite:
 1374 0003 00       		.space	1
 1375              		.type	UART_READER_rxBufferLoopDetect, %object
 1376              		.size	UART_READER_rxBufferLoopDetect, 1
 1377              	UART_READER_rxBufferLoopDetect:
 1378 0004 00       		.space	1
 1379              		.type	UART_READER_rxBufferOverflow, %object
 1380              		.size	UART_READER_rxBufferOverflow, 1
ARM GAS  C:\Users\Yiquing\AppData\Local\Temp\ccJgHlWx.s 			page 55


 1381              	UART_READER_rxBufferOverflow:
 1382 0005 00       		.space	1
 1383              		.text
 1384              	.Letext0:
 1385              		.file 2 ".\\Generated_Source\\PSoC5\\cytypes.h"
 1386              		.file 3 ".\\Generated_Source\\PSoC5\\CyLib.h"