ARM GAS  C:\Users\Yiquing\AppData\Local\Temp\ccENgnC0.s 			page 1


   1              		.syntax unified
   2              		.cpu cortex-m3
   3              		.fpu softvfp
   4              		.eabi_attribute 20, 1
   5              		.eabi_attribute 21, 1
   6              		.eabi_attribute 23, 3
   7              		.eabi_attribute 24, 1
   8              		.eabi_attribute 25, 1
   9              		.eabi_attribute 26, 1
  10              		.eabi_attribute 30, 4
  11              		.eabi_attribute 34, 1
  12              		.eabi_attribute 18, 4
  13              		.thumb
  14              		.file	"wiegand.c"
  15              		.text
  16              	.Ltext0:
  17              		.cfi_sections	.debug_frame
  18              		.section	.text.SendWeigand,"ax",%progbits
  19              		.align	1
  20              		.global	SendWeigand
  21              		.thumb
  22              		.thumb_func
  23              		.type	SendWeigand, %function
  24              	SendWeigand:
  25              	.LFB63:
  26              		.file 1 ".\\wiegand.c"
   1:.\wiegand.c   **** /* ========================================
   2:.\wiegand.c   ****  *
   3:.\wiegand.c   ****  * Copyright YOUR COMPANY, THE YEAR
   4:.\wiegand.c   ****  * All Rights Reserved
   5:.\wiegand.c   ****  * UNPUBLISHED, LICENSED SOFTWARE.
   6:.\wiegand.c   ****  *
   7:.\wiegand.c   ****  * CONFIDENTIAL AND PROPRIETARY INFORMATION
   8:.\wiegand.c   ****  * WHICH IS THE PROPERTY OF your company.
   9:.\wiegand.c   ****  *
  10:.\wiegand.c   ****  * ========================================
  11:.\wiegand.c   **** */
  12:.\wiegand.c   **** 
  13:.\wiegand.c   **** // GRI 2-2-15: Modified ReadWiegand.
  14:.\wiegand.c   **** 
  15:.\wiegand.c   **** #include <project.h>
  16:.\wiegand.c   **** #include "system.h"
  17:.\wiegand.c   **** 
  18:.\wiegand.c   **** 
  19:.\wiegand.c   **** 
  20:.\wiegand.c   **** void SendWeigand(int nBits)  //Function to send Wiegand Data
  21:.\wiegand.c   **** {
  27              		.loc 1 21 0
  28              		.cfi_startproc
  29              		@ args = 0, pretend = 0, frame = 0
  30              		@ frame_needed = 0, uses_anonymous_args = 0
  31              	.LVL0:
  32 0000 2DE9F843 		push	{r3, r4, r5, r6, r7, r8, r9, lr}
  33              		.cfi_def_cfa_offset 32
  34              		.cfi_offset 3, -32
  35              		.cfi_offset 4, -28
  36              		.cfi_offset 5, -24
ARM GAS  C:\Users\Yiquing\AppData\Local\Temp\ccENgnC0.s 			page 2


  37              		.cfi_offset 6, -20
  38              		.cfi_offset 7, -16
  39              		.cfi_offset 8, -12
  40              		.cfi_offset 9, -8
  41              		.cfi_offset 14, -4
  22:.\wiegand.c   **** 	int x,y;
  23:.\wiegand.c   **** 	char  d1;
  24:.\wiegand.c   ****     char count = 0;
  42              		.loc 1 24 0
  43 0004 0026     		movs	r6, #0
  21:.\wiegand.c   **** {
  44              		.loc 1 21 0
  45 0006 8146     		mov	r9, r0
  25:.\wiegand.c   **** 
  26:.\wiegand.c   ****     
  27:.\wiegand.c   **** 	/*                        Wiegand protocol
  28:.\wiegand.c   **** 	    A pulse width of 50us to define data
  29:.\wiegand.c   **** 	    A wait period of 2ms after transmitting the above defined pulse
  30:.\wiegand.c   ****     */
  31:.\wiegand.c   **** 	
  32:.\wiegand.c   **** 
  33:.\wiegand.c   **** 	for (x=0; x< 20; x++) // Loop over data written from the OMAP
  46              		.loc 1 33 0
  47 0008 3446     		mov	r4, r6
  48              	.LVL1:
  49              	.L8:
  50 000a 1B4B     		ldr	r3, .L11
  34:.\wiegand.c   **** 	{
  35:.\wiegand.c   ****         d1 = MyI2C_Regs.buffer[x];
  51              		.loc 1 35 0
  52 000c 0125     		movs	r5, #1
  53 000e 2344     		add	r3, r3, r4
  54 0010 9F79     		ldrb	r7, [r3, #6]	@ zero_extendqisi2
  55              	.LVL2:
  56              	.L6:
  57 0012 06EB0508 		add	r8, r6, r5
  58 0016 5FFA88F8 		uxtb	r8, r8
  59              	.LVL3:
  36:.\wiegand.c   **** 		for (y=0; y <8; y++)  //Transmit each bit at a time
  37:.\wiegand.c   **** 		{	
  38:.\wiegand.c   **** 			count = count + 1;
  39:.\wiegand.c   ****             if (count > nBits) //26 bit Wiegand; so terminate at 26 bits
  60              		.loc 1 39 0
  61 001a C845     		cmp	r8, r9
  62 001c 07DD     		ble	.L2
  40:.\wiegand.c   **** 			{
  41:.\wiegand.c   ****                 OptSelect_Write(2);
  63              		.loc 1 41 0
  64 001e 0220     		movs	r0, #2
  65 0020 FFF7FEFF 		bl	OptSelect_Write
  66              	.LVL4:
  42:.\wiegand.c   **** 			    PS_D1_Write(0);
  43:.\wiegand.c   **** 				return;
  44:.\wiegand.c   **** 			}
  45:.\wiegand.c   **** 
  46:.\wiegand.c   **** 		    if ((d1&0x80)) // Check if it a 1 or a 0
  47:.\wiegand.c   **** 			{
ARM GAS  C:\Users\Yiquing\AppData\Local\Temp\ccENgnC0.s 			page 3


  48:.\wiegand.c   ****                 OptSelect_Write(2); //10 for select & D0
  49:.\wiegand.c   **** 				PS_D1_Write(1);
  50:.\wiegand.c   **** 			}
  51:.\wiegand.c   **** 			else
  52:.\wiegand.c   **** 			{
  53:.\wiegand.c   ****                 OptSelect_Write(3); //10 for select & D0
  54:.\wiegand.c   **** 				PS_D1_Write(0);
  55:.\wiegand.c   **** 			}			    
  56:.\wiegand.c   **** 
  57:.\wiegand.c   ****             
  58:.\wiegand.c   ****             CyDelayUs(50);
  59:.\wiegand.c   ****             
  60:.\wiegand.c   ****             OptSelect_Write(2);
  61:.\wiegand.c   **** 			PS_D1_Write(0);
  62:.\wiegand.c   **** 			d1=d1<<1;
  63:.\wiegand.c   ****             
  64:.\wiegand.c   ****            
  65:.\wiegand.c   ****              CyDelay(2);
  66:.\wiegand.c   **** 
  67:.\wiegand.c   **** 		}
  68:.\wiegand.c   ****         
  69:.\wiegand.c   **** 	}
  70:.\wiegand.c   ****   
  71:.\wiegand.c   **** }
  67              		.loc 1 71 0
  68 0024 BDE8F843 		pop	{r3, r4, r5, r6, r7, r8, r9, lr}
  69              	.LVL5:
  42:.\wiegand.c   **** 			    PS_D1_Write(0);
  70              		.loc 1 42 0
  71 0028 0020     		movs	r0, #0
  72 002a FFF7FEBF 		b	PS_D1_Write
  73              	.LVL6:
  74              	.L2:
  46:.\wiegand.c   **** 		    if ((d1&0x80)) // Check if it a 1 or a 0
  75              		.loc 1 46 0
  76 002e 3B06     		lsls	r3, r7, #24
  77 0030 04D5     		bpl	.L3
  48:.\wiegand.c   ****                 OptSelect_Write(2); //10 for select & D0
  78              		.loc 1 48 0
  79 0032 0220     		movs	r0, #2
  80 0034 FFF7FEFF 		bl	OptSelect_Write
  81              	.LVL7:
  49:.\wiegand.c   **** 				PS_D1_Write(1);
  82              		.loc 1 49 0
  83 0038 0120     		movs	r0, #1
  84 003a 03E0     		b	.L9
  85              	.L3:
  53:.\wiegand.c   ****                 OptSelect_Write(3); //10 for select & D0
  86              		.loc 1 53 0
  87 003c 0320     		movs	r0, #3
  88 003e FFF7FEFF 		bl	OptSelect_Write
  89              	.LVL8:
  54:.\wiegand.c   **** 				PS_D1_Write(0);
  90              		.loc 1 54 0
  91 0042 0020     		movs	r0, #0
  92              	.L9:
  93 0044 FFF7FEFF 		bl	PS_D1_Write
ARM GAS  C:\Users\Yiquing\AppData\Local\Temp\ccENgnC0.s 			page 4


  94              	.LVL9:
  58:.\wiegand.c   ****             CyDelayUs(50);
  95              		.loc 1 58 0
  96 0048 3220     		movs	r0, #50
  97 004a FFF7FEFF 		bl	CyDelayUs
  98              	.LVL10:
  60:.\wiegand.c   ****             OptSelect_Write(2);
  99              		.loc 1 60 0
 100 004e 0220     		movs	r0, #2
 101 0050 FFF7FEFF 		bl	OptSelect_Write
 102              	.LVL11:
  61:.\wiegand.c   **** 			PS_D1_Write(0);
 103              		.loc 1 61 0
 104 0054 0020     		movs	r0, #0
 105 0056 FFF7FEFF 		bl	PS_D1_Write
 106              	.LVL12:
 107 005a 0135     		adds	r5, r5, #1
 108              	.LVL13:
  65:.\wiegand.c   ****              CyDelay(2);
 109              		.loc 1 65 0
 110 005c 0220     		movs	r0, #2
  62:.\wiegand.c   **** 			d1=d1<<1;
 111              		.loc 1 62 0
 112 005e 7F00     		lsls	r7, r7, #1
 113              	.LVL14:
  65:.\wiegand.c   ****              CyDelay(2);
 114              		.loc 1 65 0
 115 0060 FFF7FEFF 		bl	CyDelay
 116              	.LVL15:
  36:.\wiegand.c   **** 		for (y=0; y <8; y++)  //Transmit each bit at a time
 117              		.loc 1 36 0
 118 0064 092D     		cmp	r5, #9
  62:.\wiegand.c   **** 			d1=d1<<1;
 119              		.loc 1 62 0
 120 0066 FFB2     		uxtb	r7, r7
 121              	.LVL16:
  36:.\wiegand.c   **** 		for (y=0; y <8; y++)  //Transmit each bit at a time
 122              		.loc 1 36 0
 123 0068 D3D1     		bne	.L6
  33:.\wiegand.c   **** 	for (x=0; x< 20; x++) // Loop over data written from the OMAP
 124              		.loc 1 33 0
 125 006a 0134     		adds	r4, r4, #1
 126              	.LVL17:
 127 006c 142C     		cmp	r4, #20
 128 006e 01D0     		beq	.L1
  38:.\wiegand.c   **** 			count = count + 1;
 129              		.loc 1 38 0
 130 0070 4646     		mov	r6, r8
 131 0072 CAE7     		b	.L8
 132              	.L1:
 133 0074 BDE8F883 		pop	{r3, r4, r5, r6, r7, r8, r9, pc}
 134              	.LVL18:
 135              	.L12:
 136              		.align	2
 137              	.L11:
 138 0078 00000000 		.word	MyI2C_Regs
 139              		.cfi_endproc
ARM GAS  C:\Users\Yiquing\AppData\Local\Temp\ccENgnC0.s 			page 5


 140              	.LFE63:
 141              		.size	SendWeigand, .-SendWeigand
 142              		.section	.text.ReadWeigand,"ax",%progbits
 143              		.align	1
 144              		.global	ReadWeigand
 145              		.thumb
 146              		.thumb_func
 147              		.type	ReadWeigand, %function
 148              	ReadWeigand:
 149              	.LFB64:
  72:.\wiegand.c   **** 
  73:.\wiegand.c   **** 
  74:.\wiegand.c   **** int ReadWeigand(int nBits)
  75:.\wiegand.c   **** {
 150              		.loc 1 75 0
 151              		.cfi_startproc
 152              		@ args = 0, pretend = 0, frame = 0
 153              		@ frame_needed = 0, uses_anonymous_args = 0
 154              	.LVL19:
 155 0000 2DE9F041 		push	{r4, r5, r6, r7, r8, lr}
 156              		.cfi_def_cfa_offset 24
 157              		.cfi_offset 4, -24
 158              		.cfi_offset 5, -20
 159              		.cfi_offset 6, -16
 160              		.cfi_offset 7, -12
 161              		.cfi_offset 8, -8
 162              		.cfi_offset 14, -4
 163              		.loc 1 75 0
 164 0004 0746     		mov	r7, r0
  76:.\wiegand.c   ****     int bitCount=0;
  77:.\wiegand.c   ****     int byteCount=0;
  78:.\wiegand.c   ****    
  79:.\wiegand.c   ****     char WD0 = Pin_WD0_Read() ;
 165              		.loc 1 79 0
 166 0006 FFF7FEFF 		bl	Pin_WD0_Read
 167              	.LVL20:
 168 000a 0446     		mov	r4, r0
 169              	.LVL21:
  80:.\wiegand.c   ****     char WD1 = Pin_WD1_Read();
 170              		.loc 1 80 0
 171 000c FFF7FEFF 		bl	Pin_WD1_Read
 172              	.LVL22:
  81:.\wiegand.c   ****     card_in_buf = 0;
 173              		.loc 1 81 0
 174 0010 1D4A     		ldr	r2, .L31
 175 0012 0023     		movs	r3, #0
 176 0014 1360     		str	r3, [r2]
 177 0016 1646     		mov	r6, r2
  82:.\wiegand.c   ****     
  83:.\wiegand.c   ****     if( WD0 == 0 || WD1 == 0)
 178              		.loc 1 83 0
 179 0018 04B1     		cbz	r4, .L14
 180              		.loc 1 83 0 is_stmt 0 discriminator 1
 181 001a 88BB     		cbnz	r0, .L25
 182              	.L14:
  84:.\wiegand.c   ****     {
  85:.\wiegand.c   ****         while(byteCount*8+bitCount < nBits)
ARM GAS  C:\Users\Yiquing\AppData\Local\Temp\ccENgnC0.s 			page 6


  86:.\wiegand.c   ****         {
  87:.\wiegand.c   ****            //Read D0 line for input, if yes wait for 50 usec for data to end
  88:.\wiegand.c   ****            WD0 = Pin_WD0_Read();
  89:.\wiegand.c   ****            WD1 = Pin_WD1_Read();
  90:.\wiegand.c   ****            if(WD0 == 0)
  91:.\wiegand.c   ****            {
  92:.\wiegand.c   ****              while(WD0 != 1){WD0 = Pin_WD0_Read();}
  93:.\wiegand.c   ****              
  94:.\wiegand.c   ****              bitCount++;
  95:.\wiegand.c   **** 
  96:.\wiegand.c   ****            }
  97:.\wiegand.c   ****         
  98:.\wiegand.c   ****             //Read D1 line for input, if yes wait for 50 usec for data to end
  99:.\wiegand.c   ****             //and write 1 to the bit in the buffer at the right position.            
 100:.\wiegand.c   ****            else if(WD1 == 0)
 101:.\wiegand.c   ****            {
 102:.\wiegand.c   ****              while(WD1 != 1){WD1 = Pin_WD1_Read();}
 103:.\wiegand.c   ****              MyI2C_Regs.buffer[byteCount] |= (0x01 << (7-bitCount));  //write a 1 to current buffer
 104:.\wiegand.c   ****              bitCount++;
 105:.\wiegand.c   **** 
 106:.\wiegand.c   ****            }
 107:.\wiegand.c   ****         
 108:.\wiegand.c   ****             //Reset bitCount
 109:.\wiegand.c   ****             if (bitCount > 7)
 110:.\wiegand.c   **** 			{
 111:.\wiegand.c   **** 				bitCount = 0;
 183              		.loc 1 111 0 is_stmt 1 discriminator 1
 184 001c 0025     		movs	r5, #0
 185 001e 2C46     		mov	r4, r5
 186              	.LVL23:
 187              	.L16:
  85:.\wiegand.c   ****         while(byteCount*8+bitCount < nBits)
 188              		.loc 1 85 0 discriminator 1
 189 0020 04EBC503 		add	r3, r4, r5, lsl #3
 190 0024 BB42     		cmp	r3, r7
 191 0026 20DA     		bge	.L30
  88:.\wiegand.c   ****            WD0 = Pin_WD0_Read();
 192              		.loc 1 88 0
 193 0028 FFF7FEFF 		bl	Pin_WD0_Read
 194              	.LVL24:
 195 002c 8046     		mov	r8, r0
 196              	.LVL25:
  89:.\wiegand.c   ****            WD1 = Pin_WD1_Read();
 197              		.loc 1 89 0
 198 002e FFF7FEFF 		bl	Pin_WD1_Read
 199              	.LVL26:
  90:.\wiegand.c   ****            if(WD0 == 0)
 200              		.loc 1 90 0
 201 0032 B8F1000F 		cmp	r8, #0
 202 0036 04D1     		bne	.L17
 203              	.LVL27:
 204              	.L19:
  92:.\wiegand.c   ****              while(WD0 != 1){WD0 = Pin_WD0_Read();}
 205              		.loc 1 92 0
 206 0038 FFF7FEFF 		bl	Pin_WD0_Read
 207              	.LVL28:
 208 003c 0128     		cmp	r0, #1
ARM GAS  C:\Users\Yiquing\AppData\Local\Temp\ccENgnC0.s 			page 7


 209 003e FBD1     		bne	.L19
 210 0040 0DE0     		b	.L29
 211              	.LVL29:
 212              	.L17:
 100:.\wiegand.c   ****            else if(WD1 == 0)
 213              		.loc 1 100 0
 214 0042 68B9     		cbnz	r0, .L20
 215              	.LVL30:
 216              	.L22:
 102:.\wiegand.c   ****              while(WD1 != 1){WD1 = Pin_WD1_Read();}
 217              		.loc 1 102 0
 218 0044 FFF7FEFF 		bl	Pin_WD1_Read
 219              	.LVL31:
 220 0048 0128     		cmp	r0, #1
 221 004a FBD1     		bne	.L22
 103:.\wiegand.c   ****              MyI2C_Regs.buffer[byteCount] |= (0x01 << (7-bitCount));  //write a 1 to current buffer
 222              		.loc 1 103 0
 223 004c C4F10701 		rsb	r1, r4, #7
 224 0050 00FA01F2 		lsl	r2, r0, r1
 225 0054 0D4B     		ldr	r3, .L31+4
 226 0056 2B44     		add	r3, r3, r5
 227 0058 9979     		ldrb	r1, [r3, #6]	@ zero_extendqisi2
 228 005a 0A43     		orrs	r2, r2, r1
 229 005c 9A71     		strb	r2, [r3, #6]
 230              	.LVL32:
 231              	.L29:
 104:.\wiegand.c   ****              bitCount++;
 232              		.loc 1 104 0
 233 005e 0134     		adds	r4, r4, #1
 234              	.LVL33:
 235              	.L20:
 109:.\wiegand.c   ****             if (bitCount > 7)
 236              		.loc 1 109 0
 237 0060 072C     		cmp	r4, #7
 238              	.LVL34:
 112:.\wiegand.c   **** 				byteCount++;
 239              		.loc 1 112 0
 240 0062 C4BF     		itt	gt
 241 0064 0135     		addgt	r5, r5, #1
 242              	.LVL35:
 111:.\wiegand.c   **** 				bitCount = 0;
 243              		.loc 1 111 0
 244 0066 0024     		movgt	r4, #0
 245 0068 DAE7     		b	.L16
 246              	.LVL36:
 247              	.L30:
 113:.\wiegand.c   **** 			}
 114:.\wiegand.c   ****             
 115:.\wiegand.c   ****         }
 116:.\wiegand.c   ****         MyI2C_Regs.cmd = 0;
 248              		.loc 1 116 0
 249 006a 084B     		ldr	r3, .L31+4
 250 006c 0022     		movs	r2, #0
 251 006e 9A70     		strb	r2, [r3, #2]
 117:.\wiegand.c   ****         card_in_buf = 1;
 118:.\wiegand.c   ****         MyI2C_Regs.status |= STAT_CHANGE | STAT_CARD_IN ;
 252              		.loc 1 118 0
ARM GAS  C:\Users\Yiquing\AppData\Local\Temp\ccENgnC0.s 			page 8


 253 0070 1A78     		ldrb	r2, [r3]	@ zero_extendqisi2
 117:.\wiegand.c   ****         card_in_buf = 1;
 254              		.loc 1 117 0
 255 0072 0120     		movs	r0, #1
 256              		.loc 1 118 0
 257 0074 42F00302 		orr	r2, r2, #3
 258 0078 1A70     		strb	r2, [r3]
 117:.\wiegand.c   ****         card_in_buf = 1;
 259              		.loc 1 117 0
 260 007a 3060     		str	r0, [r6]
 119:.\wiegand.c   ****         
 120:.\wiegand.c   ****         return 1;
 261              		.loc 1 120 0
 262 007c BDE8F081 		pop	{r4, r5, r6, r7, r8, pc}
 263              	.LVL37:
 264              	.L25:
 121:.\wiegand.c   ****     }
 122:.\wiegand.c   ****     card_in_buf = 0;
 123:.\wiegand.c   ****     return 0;
 265              		.loc 1 123 0
 266 0080 1846     		mov	r0, r3
 267              	.LVL38:
 124:.\wiegand.c   **** }
 268              		.loc 1 124 0
 269 0082 BDE8F081 		pop	{r4, r5, r6, r7, r8, pc}
 270              	.LVL39:
 271              	.L32:
 272 0086 00BF     		.align	2
 273              	.L31:
 274 0088 00000000 		.word	card_in_buf
 275 008c 00000000 		.word	MyI2C_Regs
 276              		.cfi_endproc
 277              	.LFE64:
 278              		.size	ReadWeigand, .-ReadWeigand
 279              		.section	.text.SendF2F,"ax",%progbits
 280              		.align	1
 281              		.global	SendF2F
 282              		.thumb
 283              		.thumb_func
 284              		.type	SendF2F, %function
 285              	SendF2F:
 286              	.LFB65:
 125:.\wiegand.c   **** 
 126:.\wiegand.c   **** void SendF2F()
 127:.\wiegand.c   **** {
 287              		.loc 1 127 0
 288              		.cfi_startproc
 289              		@ args = 0, pretend = 0, frame = 32
 290              		@ frame_needed = 0, uses_anonymous_args = 0
 291              	.LVL40:
 292 0000 2DE9F041 		push	{r4, r5, r6, r7, r8, lr}
 293              		.cfi_def_cfa_offset 24
 294              		.cfi_offset 4, -24
 295              		.cfi_offset 5, -20
 296              		.cfi_offset 6, -16
 297              		.cfi_offset 7, -12
 298              		.cfi_offset 8, -8
ARM GAS  C:\Users\Yiquing\AppData\Local\Temp\ccENgnC0.s 			page 9


 299              		.cfi_offset 14, -4
 128:.\wiegand.c   **** 	int x,b,z,len;
 129:.\wiegand.c   **** 	char  d0;
 130:.\wiegand.c   **** 	char aPRT0DRa;
 131:.\wiegand.c   **** 	unsigned char f2f[28];
 132:.\wiegand.c   ****     char flag=0;
 133:.\wiegand.c   **** /*	//debug code	
 134:.\wiegand.c   ****     MyI2C_Regs.buffer[0] = 0;
 135:.\wiegand.c   ****     MyI2C_Regs.buffer[1] = 0xD1;
 136:.\wiegand.c   ****     MyI2C_Regs.buffer[2] = 0xE1;
 137:.\wiegand.c   ****     MyI2C_Regs.buffer[3] = 0xF9;
 138:.\wiegand.c   ****     MyI2C_Regs.buffer[4] = 0x80;
 139:.\wiegand.c   ****     MyI2C_Regs.data_length = 5;
 140:.\wiegand.c   **** */    
 141:.\wiegand.c   ****     
 142:.\wiegand.c   ****     len = MyI2C_Regs.data_length + 3;
 300              		.loc 1 142 0
 301 0004 3E4B     		ldr	r3, .L66
 302 0006 0021     		movs	r1, #0
 303 0008 DF78     		ldrb	r7, [r3, #3]	@ zero_extendqisi2
 127:.\wiegand.c   **** {
 304              		.loc 1 127 0
 305 000a 88B0     		sub	sp, sp, #32
 306              		.cfi_def_cfa_offset 56
 307              		.loc 1 142 0
 308 000c 0337     		adds	r7, r7, #3
 309              	.LVL41:
 132:.\wiegand.c   ****     char flag=0;
 310              		.loc 1 132 0
 311 000e 0A46     		mov	r2, r1
 143:.\wiegand.c   **** 	//Loop over data written by OMAP, 40 bit no facility card
 144:.\wiegand.c   **** 	//Zeros are transmitted as two transitions, with a pulse width of 1.1 ms
 145:.\wiegand.c   **** 	//Ones are transmitted as four transitions, with a pulse width of 0.55 ms
 146:.\wiegand.c   **** 	for (x=0; x< len; x++)
 312              		.loc 1 146 0
 313 0010 0C46     		mov	r4, r1
 314 0012 9C46     		mov	ip, r3
 315              	.LVL42:
 316              	.L48:
 317 0014 0CEB0403 		add	r3, ip, r4
 147:.\wiegand.c   **** 	{   	
 148:.\wiegand.c   **** 		d0 = MyI2C_Regs.buffer[x];	
 149:.\wiegand.c   ****         aPRT0DRa = 0;
 150:.\wiegand.c   **** 		f2f[2*x] = 0;
 318              		.loc 1 150 0
 319 0018 01AD     		add	r5, sp, #4
 148:.\wiegand.c   **** 		d0 = MyI2C_Regs.buffer[x];	
 320              		.loc 1 148 0
 321 001a 9879     		ldrb	r0, [r3, #6]	@ zero_extendqisi2
 322              	.LVL43:
 323 001c 05EB010E 		add	lr, r5, r1
 324              		.loc 1 150 0
 325 0020 0023     		movs	r3, #0
 326 0022 4B55     		strb	r3, [r1, r5]
 151:.\wiegand.c   **** 		f2f[2*x + 1] = 0;		 
 152:.\wiegand.c   **** 		for (b=0; b <4; b++)    //higher 4 bits
 327              		.loc 1 152 0
ARM GAS  C:\Users\Yiquing\AppData\Local\Temp\ccENgnC0.s 			page 10


 328 0024 1E46     		mov	r6, r3
 151:.\wiegand.c   **** 		f2f[2*x + 1] = 0;		 
 329              		.loc 1 151 0
 330 0026 8EF80130 		strb	r3, [lr, #1]
 331              	.LVL44:
 332              	.L39:
 153:.\wiegand.c   **** 		{	   	  
 154:.\wiegand.c   **** 			if (d0&0x80)    //it is a 1
 333              		.loc 1 154 0
 334 002a 10F0800F 		tst	r0, #128
 335 002e 06D0     		beq	.L34
 155:.\wiegand.c   **** 			{      
 156:.\wiegand.c   **** 				if (flag == 0)  //previous level is 0
 336              		.loc 1 156 0
 337 0030 12B9     		cbnz	r2, .L35
 338              	.LVL45:
 157:.\wiegand.c   **** 				{	   	
 158:.\wiegand.c   **** 					flag = 0;
 159:.\wiegand.c   **** 					aPRT0DRa |= 0x02;	   	   		   
 339              		.loc 1 159 0
 340 0032 43F00203 		orr	r3, r3, #2
 341              	.LVL46:
 342 0036 08E0     		b	.L36
 343              	.LVL47:
 344              	.L35:
 160:.\wiegand.c   **** 				}
 161:.\wiegand.c   **** 				else            //previous level is 1
 162:.\wiegand.c   **** 				{
 163:.\wiegand.c   **** 					aPRT0DRa |= 0x01;
 345              		.loc 1 163 0
 346 0038 43F00103 		orr	r3, r3, #1
 347              	.LVL48:
 348 003c 02E0     		b	.L64
 349              	.LVL49:
 350              	.L34:
 164:.\wiegand.c   **** 					flag = 1;
 165:.\wiegand.c   **** 				}
 166:.\wiegand.c   **** 			}
 167:.\wiegand.c   **** 			else    //it is a 0
 168:.\wiegand.c   **** 			{
 169:.\wiegand.c   **** 				if (flag == 0)  //previous level is 0
 351              		.loc 1 169 0
 352 003e 1AB9     		cbnz	r2, .L54
 170:.\wiegand.c   **** 				{
 171:.\wiegand.c   **** 					aPRT0DRa |= 0x03;
 353              		.loc 1 171 0
 354 0040 43F00303 		orr	r3, r3, #3
 355              	.LVL50:
 356              	.L64:
 172:.\wiegand.c   **** 					flag = 1;
 357              		.loc 1 172 0
 358 0044 0122     		movs	r2, #1
 359 0046 00E0     		b	.L36
 360              	.LVL51:
 361              	.L54:
 173:.\wiegand.c   **** 				}
 174:.\wiegand.c   **** 				else    //previous level is 1
ARM GAS  C:\Users\Yiquing\AppData\Local\Temp\ccENgnC0.s 			page 11


 175:.\wiegand.c   **** 				{
 176:.\wiegand.c   **** 					flag = 0;
 362              		.loc 1 176 0
 363 0048 0022     		movs	r2, #0
 364              	.LVL52:
 365              	.L36:
 177:.\wiegand.c   **** 				}		   
 178:.\wiegand.c   **** 			}
 179:.\wiegand.c   **** 
 180:.\wiegand.c   **** 			if (b < 3)
 366              		.loc 1 180 0
 367 004a 032E     		cmp	r6, #3
 181:.\wiegand.c   **** 				aPRT0DRa <<= 2; //go next bit
 368              		.loc 1 181 0
 369 004c 18BF     		it	ne
 370 004e 9B00     		lslne	r3, r3, #2
 371              	.LVL53:
 152:.\wiegand.c   **** 		for (b=0; b <4; b++)    //higher 4 bits
 372              		.loc 1 152 0
 373 0050 06F10106 		add	r6, r6, #1
 374              	.LVL54:
 375              		.loc 1 181 0
 376 0054 18BF     		it	ne
 377 0056 DBB2     		uxtbne	r3, r3
 378              	.LVL55:
 182:.\wiegand.c   **** 
 183:.\wiegand.c   **** 			d0 <<= 1;   //go next bit
 379              		.loc 1 183 0
 380 0058 4000     		lsls	r0, r0, #1
 381              	.LVL56:
 152:.\wiegand.c   **** 		for (b=0; b <4; b++)    //higher 4 bits
 382              		.loc 1 152 0
 383 005a 042E     		cmp	r6, #4
 384              		.loc 1 183 0
 385 005c C0B2     		uxtb	r0, r0
 386              	.LVL57:
 152:.\wiegand.c   **** 		for (b=0; b <4; b++)    //higher 4 bits
 387              		.loc 1 152 0
 388 005e E4D1     		bne	.L39
 389              	.LVL58:
 184:.\wiegand.c   **** 		}
 185:.\wiegand.c   **** 		f2f[2*x] = aPRT0DRa;
 390              		.loc 1 185 0
 391 0060 6B54     		strb	r3, [r5, r1]
 392              	.LVL59:
 186:.\wiegand.c   **** 
 187:.\wiegand.c   **** 		aPRT0DRa = 0;	
 393              		.loc 1 187 0
 394 0062 0023     		movs	r3, #0
 188:.\wiegand.c   **** 		for (b=0; b <4; b++)    //lower 4 bits
 395              		.loc 1 188 0
 396 0064 1E46     		mov	r6, r3
 397              	.LVL60:
 398              	.L45:
 189:.\wiegand.c   **** 		{	   	  
 190:.\wiegand.c   **** 			if (d0&0x80)
 399              		.loc 1 190 0
ARM GAS  C:\Users\Yiquing\AppData\Local\Temp\ccENgnC0.s 			page 12


 400 0066 10F0800F 		tst	r0, #128
 401 006a 06D0     		beq	.L40
 191:.\wiegand.c   **** 			{      
 192:.\wiegand.c   **** 				if (flag == 0)
 402              		.loc 1 192 0
 403 006c 12B9     		cbnz	r2, .L41
 404              	.LVL61:
 193:.\wiegand.c   **** 				{	   	
 194:.\wiegand.c   **** 					flag = 0;
 195:.\wiegand.c   **** 					aPRT0DRa |= 0x02;	   	   		   
 405              		.loc 1 195 0
 406 006e 43F00203 		orr	r3, r3, #2
 407              	.LVL62:
 408 0072 08E0     		b	.L42
 409              	.LVL63:
 410              	.L41:
 196:.\wiegand.c   **** 				}
 197:.\wiegand.c   **** 				else
 198:.\wiegand.c   **** 				{
 199:.\wiegand.c   **** 					aPRT0DRa |= 0x01;
 411              		.loc 1 199 0
 412 0074 43F00103 		orr	r3, r3, #1
 413              	.LVL64:
 414 0078 02E0     		b	.L65
 415              	.LVL65:
 416              	.L40:
 200:.\wiegand.c   **** 					flag = 1;
 201:.\wiegand.c   **** 				}
 202:.\wiegand.c   **** 			}
 203:.\wiegand.c   **** 			else
 204:.\wiegand.c   **** 			{
 205:.\wiegand.c   **** 				if (flag == 0)
 417              		.loc 1 205 0
 418 007a 1AB9     		cbnz	r2, .L55
 206:.\wiegand.c   **** 				{
 207:.\wiegand.c   **** 					aPRT0DRa |=0x03;
 419              		.loc 1 207 0
 420 007c 43F00303 		orr	r3, r3, #3
 421              	.LVL66:
 422              	.L65:
 208:.\wiegand.c   **** 					flag = 1;
 423              		.loc 1 208 0
 424 0080 0122     		movs	r2, #1
 425 0082 00E0     		b	.L42
 426              	.LVL67:
 427              	.L55:
 209:.\wiegand.c   **** 				}
 210:.\wiegand.c   **** 				else
 211:.\wiegand.c   **** 				{
 212:.\wiegand.c   **** 					flag = 0;
 428              		.loc 1 212 0
 429 0084 0022     		movs	r2, #0
 430              	.LVL68:
 431              	.L42:
 213:.\wiegand.c   **** 				}		   
 214:.\wiegand.c   **** 			}
 215:.\wiegand.c   **** 
ARM GAS  C:\Users\Yiquing\AppData\Local\Temp\ccENgnC0.s 			page 13


 216:.\wiegand.c   **** 			if (b < 3)
 432              		.loc 1 216 0
 433 0086 032E     		cmp	r6, #3
 217:.\wiegand.c   **** 				aPRT0DRa<<=2;
 434              		.loc 1 217 0
 435 0088 18BF     		it	ne
 436 008a 9B00     		lslne	r3, r3, #2
 437              	.LVL69:
 188:.\wiegand.c   **** 		for (b=0; b <4; b++)    //lower 4 bits
 438              		.loc 1 188 0
 439 008c 06F10106 		add	r6, r6, #1
 440              	.LVL70:
 441              		.loc 1 217 0
 442 0090 18BF     		it	ne
 443 0092 DBB2     		uxtbne	r3, r3
 444              	.LVL71:
 218:.\wiegand.c   **** 
 219:.\wiegand.c   **** 			d0<<=1;
 445              		.loc 1 219 0
 446 0094 4000     		lsls	r0, r0, #1
 447              	.LVL72:
 188:.\wiegand.c   **** 		for (b=0; b <4; b++)    //lower 4 bits
 448              		.loc 1 188 0
 449 0096 042E     		cmp	r6, #4
 450              		.loc 1 219 0
 451 0098 C0B2     		uxtb	r0, r0
 452              	.LVL73:
 188:.\wiegand.c   **** 		for (b=0; b <4; b++)    //lower 4 bits
 453              		.loc 1 188 0
 454 009a E4D1     		bne	.L45
 455              	.LVL74:
 146:.\wiegand.c   **** 	for (x=0; x< len; x++)
 456              		.loc 1 146 0
 457 009c 0134     		adds	r4, r4, #1
 458              	.LVL75:
 459 009e BC42     		cmp	r4, r7
 220:.\wiegand.c   **** 		}
 221:.\wiegand.c   **** 		f2f[2*x + 1] = aPRT0DRa;
 460              		.loc 1 221 0
 461 00a0 8EF80130 		strb	r3, [lr, #1]
 462 00a4 01F10201 		add	r1, r1, #2
 146:.\wiegand.c   **** 	for (x=0; x< len; x++)
 463              		.loc 1 146 0
 464 00a8 B4DB     		blt	.L48
 222:.\wiegand.c   **** 	}
 223:.\wiegand.c   **** 
 224:.\wiegand.c   **** 	//Use 8-bit timer to set up the pulse widths
 225:.\wiegand.c   **** 	//Use the buffered data from above where we already set up the data specific pulses and send them 
 226:.\wiegand.c   **** 	aPRT0DRa = 0;
 227:.\wiegand.c   **** 	for (z=0;z<2*len;z++)      //24
 465              		.loc 1 227 0
 466 00aa 4FEA4708 		lsl	r8, r7, #1
 467              	.LVL76:
 468 00ae 0024     		movs	r4, #0
 469              	.LVL77:
 470              	.L47:
 228:.\wiegand.c   **** 	{
ARM GAS  C:\Users\Yiquing\AppData\Local\Temp\ccENgnC0.s 			page 14


 229:.\wiegand.c   **** 		d0 = f2f[z];
 230:.\wiegand.c   **** 		f2f[z]=0;
 471              		.loc 1 230 0
 472 00b0 0023     		movs	r3, #0
 229:.\wiegand.c   **** 		d0 = f2f[z];
 473              		.loc 1 229 0
 474 00b2 2F5D     		ldrb	r7, [r5, r4]	@ zero_extendqisi2
 475              	.LVL78:
 476              		.loc 1 230 0
 477 00b4 0826     		movs	r6, #8
 478 00b6 2B55     		strb	r3, [r5, r4]
 479              	.LVL79:
 480              	.L52:
 231:.\wiegand.c   **** 		for (b=0; b <8; b++)
 232:.\wiegand.c   **** 		{
 233:.\wiegand.c   **** 			if (d0&0x80)
 481              		.loc 1 233 0
 482 00b8 3B06     		lsls	r3, r7, #24
 483 00ba 06D5     		bpl	.L49
 234:.\wiegand.c   ****             {
 235:.\wiegand.c   ****                 PS_D0_Write(1);
 484              		.loc 1 235 0
 485 00bc 0120     		movs	r0, #1
 486 00be FFF7FEFF 		bl	PS_D0_Write
 487              	.LVL80:
 236:.\wiegand.c   ****                 OptSelect_Write(2); 
 488              		.loc 1 236 0
 489 00c2 0220     		movs	r0, #2
 490 00c4 FFF7FEFF 		bl	OptSelect_Write
 491              	.LVL81:
 492 00c8 05E0     		b	.L50
 493              	.L49:
 237:.\wiegand.c   **** 			}
 238:.\wiegand.c   ****             else
 239:.\wiegand.c   ****             {
 240:.\wiegand.c   ****                 OptSelect_Write(3);
 494              		.loc 1 240 0
 495 00ca 0320     		movs	r0, #3
 496 00cc FFF7FEFF 		bl	OptSelect_Write
 497              	.LVL82:
 241:.\wiegand.c   ****                 PS_D0_Write(0);
 498              		.loc 1 241 0
 499 00d0 0020     		movs	r0, #0
 500 00d2 FFF7FEFF 		bl	PS_D0_Write
 501              	.LVL83:
 502              	.L50:
 242:.\wiegand.c   ****              }   
 243:.\wiegand.c   **** //            CyDelayUs(1000);
 244:.\wiegand.c   ****             CyDelayUs(400);
 503              		.loc 1 244 0
 504 00d6 4FF4C870 		mov	r0, #400
 505 00da FFF7FEFF 		bl	CyDelayUs
 506              	.LVL84:
 245:.\wiegand.c   **** 			d0<<=1;
 507              		.loc 1 245 0
 508 00de 7F00     		lsls	r7, r7, #1
 509              	.LVL85:
ARM GAS  C:\Users\Yiquing\AppData\Local\Temp\ccENgnC0.s 			page 15


 231:.\wiegand.c   **** 		for (b=0; b <8; b++)
 510              		.loc 1 231 0
 511 00e0 013E     		subs	r6, r6, #1
 512              	.LVL86:
 513              		.loc 1 245 0
 514 00e2 FFB2     		uxtb	r7, r7
 515              	.LVL87:
 231:.\wiegand.c   **** 		for (b=0; b <8; b++)
 516              		.loc 1 231 0
 517 00e4 E8D1     		bne	.L52
 227:.\wiegand.c   **** 	for (z=0;z<2*len;z++)      //24
 518              		.loc 1 227 0
 519 00e6 0134     		adds	r4, r4, #1
 520              	.LVL88:
 521 00e8 4445     		cmp	r4, r8
 522 00ea E1DB     		blt	.L47
 246:.\wiegand.c   **** 		}
 247:.\wiegand.c   **** 	}
 248:.\wiegand.c   ****     OptSelect_Write(2);
 523              		.loc 1 248 0
 524 00ec 0220     		movs	r0, #2
 525 00ee FFF7FEFF 		bl	OptSelect_Write
 526              	.LVL89:
 249:.\wiegand.c   ****     PS_D0_Write(0);    //set output to high after done
 527              		.loc 1 249 0
 528 00f2 3046     		mov	r0, r6
 250:.\wiegand.c   **** }
 529              		.loc 1 250 0
 530 00f4 08B0     		add	sp, sp, #32
 531              		@ sp needed
 532 00f6 BDE8F041 		pop	{r4, r5, r6, r7, r8, lr}
 533              	.LVL90:
 249:.\wiegand.c   ****     PS_D0_Write(0);    //set output to high after done
 534              		.loc 1 249 0
 535 00fa FFF7FEBF 		b	PS_D0_Write
 536              	.LVL91:
 537              	.L67:
 538 00fe 00BF     		.align	2
 539              	.L66:
 540 0100 00000000 		.word	MyI2C_Regs
 541              		.cfi_endproc
 542              	.LFE65:
 543              		.size	SendF2F, .-SendF2F
 544              		.global	__aeabi_i2d
 545              		.global	__aeabi_dmul
 546              		.global	__aeabi_d2iz
 547              		.section	.text.ReadF2F,"ax",%progbits
 548              		.align	1
 549              		.global	ReadF2F
 550              		.thumb
 551              		.thumb_func
 552              		.type	ReadF2F, %function
 553              	ReadF2F:
 554              	.LFB66:
 251:.\wiegand.c   **** 
 252:.\wiegand.c   **** 
 253:.\wiegand.c   **** /* F2F card read variables */
ARM GAS  C:\Users\Yiquing\AppData\Local\Temp\ccENgnC0.s 			page 16


 254:.\wiegand.c   **** uint8 f2fdebugled=1;
 255:.\wiegand.c   **** 
 256:.\wiegand.c   **** /* F2F reader acknowledgement */
 257:.\wiegand.c   **** char f2f_acknowledge_active;
 258:.\wiegand.c   **** char f2f_ack_delay_cnt;
 259:.\wiegand.c   **** 
 260:.\wiegand.c   **** int ReadF2F()
 261:.\wiegand.c   **** {
 555              		.loc 1 261 0
 556              		.cfi_startproc
 557              		@ args = 0, pretend = 0, frame = 8
 558              		@ frame_needed = 0, uses_anonymous_args = 0
 559 0000 2DE9F74F 		push	{r0, r1, r2, r4, r5, r6, r7, r8, r9, r10, fp, lr}
 560              		.cfi_def_cfa_offset 48
 561              		.cfi_offset 0, -48
 562              		.cfi_offset 1, -44
 563              		.cfi_offset 2, -40
 564              		.cfi_offset 4, -36
 565              		.cfi_offset 5, -32
 566              		.cfi_offset 6, -28
 567              		.cfi_offset 7, -24
 568              		.cfi_offset 8, -20
 569              		.cfi_offset 9, -16
 570              		.cfi_offset 10, -12
 571              		.cfi_offset 11, -8
 572              		.cfi_offset 14, -4
 262:.\wiegand.c   ****     int bitCount;
 263:.\wiegand.c   ****     int byteCount;
 264:.\wiegand.c   ****     int hp;
 265:.\wiegand.c   ****     char nbit;
 266:.\wiegand.c   ****     int i;
 267:.\wiegand.c   ****     unsigned char started;
 268:.\wiegand.c   ****     int width;
 269:.\wiegand.c   ****     
 270:.\wiegand.c   ****     // enable ack line
 271:.\wiegand.c   ****     PS_D1_Write(0);
 573              		.loc 1 271 0
 574 0004 0020     		movs	r0, #0
 575 0006 FFF7FEFF 		bl	PS_D1_Write
 576              	.LVL92:
 272:.\wiegand.c   **** 
 273:.\wiegand.c   ****     for(i =0; i < 20; i++)
 577              		.loc 1 273 0
 578 000a 0020     		movs	r0, #0
 579              	.LVL93:
 580              	.L70:
 581 000c 3B4E     		ldr	r6, .L86
 274:.\wiegand.c   ****             MyI2C_Regs.buffer[i] = 0;
 582              		.loc 1 274 0 discriminator 2
 583 000e 0024     		movs	r4, #0
 584 0010 8319     		adds	r3, r0, r6
 273:.\wiegand.c   ****     for(i =0; i < 20; i++)
 585              		.loc 1 273 0 discriminator 2
 586 0012 0130     		adds	r0, r0, #1
 587              	.LVL94:
 588 0014 1428     		cmp	r0, #20
 589              		.loc 1 274 0 discriminator 2
ARM GAS  C:\Users\Yiquing\AppData\Local\Temp\ccENgnC0.s 			page 17


 590 0016 9C71     		strb	r4, [r3, #6]
 273:.\wiegand.c   ****     for(i =0; i < 20; i++)
 591              		.loc 1 273 0 discriminator 2
 592 0018 F8D1     		bne	.L70
 593              	.LVL95:
 275:.\wiegand.c   ****             
 276:.\wiegand.c   ****     hp = 20;
 277:.\wiegand.c   ****     byteCount = 0;  
 278:.\wiegand.c   ****     nbit = 0;
 279:.\wiegand.c   ****     bitCount = 1;
 280:.\wiegand.c   ****     started = 0;
 281:.\wiegand.c   ****     card_in_buf = 0;
 594              		.loc 1 281 0
 595 001a 394B     		ldr	r3, .L86+4
 282:.\wiegand.c   ****            
 283:.\wiegand.c   ****     timeout_cnt = 0;
 596              		.loc 1 283 0
 597 001c 394A     		ldr	r2, .L86+8
 281:.\wiegand.c   ****     card_in_buf = 0;
 598              		.loc 1 281 0
 599 001e 1C60     		str	r4, [r3]
 600              		.loc 1 283 0
 601 0020 1460     		str	r4, [r2]
 280:.\wiegand.c   ****     started = 0;
 602              		.loc 1 280 0
 603 0022 A146     		mov	r9, r4
 276:.\wiegand.c   ****     hp = 20;
 604              		.loc 1 276 0
 605 0024 8246     		mov	r10, r0
 277:.\wiegand.c   ****     byteCount = 0;  
 606              		.loc 1 277 0
 607 0026 2746     		mov	r7, r4
 279:.\wiegand.c   ****     bitCount = 1;
 608              		.loc 1 279 0
 609 0028 0125     		movs	r5, #1
 610              	.LVL96:
 611              	.L71:
 284:.\wiegand.c   ****     while( byteCount <  11)
 285:.\wiegand.c   ****     {
 286:.\wiegand.c   ****         width = f2f_pulsewidth;             
 612              		.loc 1 286 0
 613 002a 374B     		ldr	r3, .L86+12
 614 002c D3F80080 		ldr	r8, [r3]
 615              	.LVL97:
 616 0030 9B46     		mov	fp, r3
 287:.\wiegand.c   ****         if(width != 0)
 617              		.loc 1 287 0
 618 0032 B8F1000F 		cmp	r8, #0
 619 0036 00D1     		bne	.L72
 620              	.LVL98:
 621              	.L81:
 622 0038 FEE7     		b	.L81
 623              	.LVL99:
 624              	.L72:
 288:.\wiegand.c   ****         {
 289:.\wiegand.c   ****             LED_GRN_Write(1);
 625              		.loc 1 289 0
ARM GAS  C:\Users\Yiquing\AppData\Local\Temp\ccENgnC0.s 			page 18


 626 003a 0120     		movs	r0, #1
 627 003c 0193     		str	r3, [sp, #4]
 628 003e FFF7FEFF 		bl	LED_GRN_Write
 629              	.LVL100:
 290:.\wiegand.c   ****             isr_F2F_edge_Disable();
 630              		.loc 1 290 0
 631 0042 FFF7FEFF 		bl	isr_F2F_edge_Disable
 632              	.LVL101:
 291:.\wiegand.c   ****             f2f_pulsewidth = 0;
 633              		.loc 1 291 0
 634 0046 019B     		ldr	r3, [sp, #4]
 635 0048 0022     		movs	r2, #0
 636 004a 1A60     		str	r2, [r3]
 292:.\wiegand.c   ****             isr_F2F_edge_Enable();
 637              		.loc 1 292 0
 638 004c 0192     		str	r2, [sp, #4]
 639 004e FFF7FEFF 		bl	isr_F2F_edge_Enable
 640              	.LVL102:
 293:.\wiegand.c   ****             if (bitCount > 7)
 641              		.loc 1 293 0
 642 0052 019A     		ldr	r2, [sp, #4]
 643              	.LVL103:
 644 0054 072D     		cmp	r5, #7
 294:.\wiegand.c   ****             {
 295:.\wiegand.c   ****                 bitCount = 0;
 296:.\wiegand.c   ****                 byteCount++;
 645              		.loc 1 296 0
 646 0056 C4BF     		itt	gt
 647 0058 0137     		addgt	r7, r7, #1
 648              	.LVL104:
 295:.\wiegand.c   ****                 bitCount = 0;
 649              		.loc 1 295 0
 650 005a 1546     		movgt	r5, r2
 297:.\wiegand.c   ****             }
 298:.\wiegand.c   ****             if(started == 0 && width > 7 && width < 0x40)
 651              		.loc 1 298 0
 652 005c B9F1000F 		cmp	r9, #0
 653 0060 07D1     		bne	.L75
 654              		.loc 1 298 0 is_stmt 0 discriminator 1
 655 0062 A8F10803 		sub	r3, r8, #8
 656 0066 372B     		cmp	r3, #55
 299:.\wiegand.c   ****             {
 300:.\wiegand.c   ****                 hp = (width + hp)>>1;  //average out
 657              		.loc 1 300 0 is_stmt 1 discriminator 1
 658 0068 9CBF     		itt	ls
 659 006a 08EB0A0C 		addls	ip, r8, r10
 660              	.LVL105:
 661 006e 4FEA6C0A 		asrls	r10, ip, #1
 662              	.LVL106:
 663              	.L75:
 301:.\wiegand.c   ****             }
 302:.\wiegand.c   ****             /* A pulse width of 1msec is considered a 0 && two pulse widths of 0.5 msec is consdier
 303:.\wiegand.c   ****                Timeout timer is configured to update timeoutcnt every 50 usecs      */
 304:.\wiegand.c   ****             if( width < ((int)(0.75*hp)))
 664              		.loc 1 304 0
 665 0072 5046     		mov	r0, r10
 666 0074 FFF7FEFF 		bl	__aeabi_i2d
ARM GAS  C:\Users\Yiquing\AppData\Local\Temp\ccENgnC0.s 			page 19


 667              	.LVL107:
 668 0078 0022     		movs	r2, #0
 669 007a 244B     		ldr	r3, .L86+16
 670 007c FFF7FEFF 		bl	__aeabi_dmul
 671              	.LVL108:
 672 0080 FFF7FEFF 		bl	__aeabi_d2iz
 673              	.LVL109:
 674 0084 8045     		cmp	r8, r0
 675 0086 0BDA     		bge	.L76
 305:.\wiegand.c   ****             {
 306:.\wiegand.c   ****                 nbit++;
 307:.\wiegand.c   ****                 if(nbit > 1)
 676              		.loc 1 307 0
 677 0088 9CB1     		cbz	r4, .L82
 308:.\wiegand.c   ****                 {
 309:.\wiegand.c   ****                   MyI2C_Regs.buffer[byteCount] |= (0x01 << (7-bitCount));   
 678              		.loc 1 309 0
 679 008a C5F10702 		rsb	r2, r5, #7
 680 008e 04FA02F2 		lsl	r2, r4, r2
 681 0092 F319     		adds	r3, r6, r7
 682 0094 9979     		ldrb	r1, [r3, #6]	@ zero_extendqisi2
 310:.\wiegand.c   ****                   bitCount++;
 683              		.loc 1 310 0
 684 0096 0135     		adds	r5, r5, #1
 309:.\wiegand.c   ****                   MyI2C_Regs.buffer[byteCount] |= (0x01 << (7-bitCount));   
 685              		.loc 1 309 0
 686 0098 0A43     		orrs	r2, r2, r1
 687 009a 9A71     		strb	r2, [r3, #6]
 688              	.LVL110:
 311:.\wiegand.c   ****                   nbit = 0; 
 312:.\wiegand.c   ****                   started = 1;
 689              		.loc 1 312 0
 690 009c A146     		mov	r9, r4
 691 009e 06E0     		b	.L85
 692              	.LVL111:
 693              	.L76:
 313:.\wiegand.c   ****                 }
 314:.\wiegand.c   ****             } 
 315:.\wiegand.c   ****             else if(started == 1 && width >= ((int)(0.75*hp)) && width < 0x40 ) {
 694              		.loc 1 315 0
 695 00a0 B9F1010F 		cmp	r9, #1
 696 00a4 06D1     		bne	.L77
 697              		.loc 1 315 0 is_stmt 0 discriminator 1
 698 00a6 B8F13F0F 		cmp	r8, #63
 699 00aa 03DC     		bgt	.L77
 700              	.LVL112:
 316:.\wiegand.c   ****                 nbit = 0;
 317:.\wiegand.c   ****                 bitCount++;
 701              		.loc 1 317 0 is_stmt 1
 702 00ac 0135     		adds	r5, r5, #1
 703              	.LVL113:
 704              	.L85:
 316:.\wiegand.c   ****                 nbit = 0;
 705              		.loc 1 316 0
 706 00ae 0024     		movs	r4, #0
 707 00b0 00E0     		b	.L77
 708              	.LVL114:
ARM GAS  C:\Users\Yiquing\AppData\Local\Temp\ccENgnC0.s 			page 20


 709              	.L82:
 710 00b2 0124     		movs	r4, #1
 711              	.LVL115:
 712              	.L77:
 284:.\wiegand.c   ****     while( byteCount <  11)
 713              		.loc 1 284 0 discriminator 1
 714 00b4 0A2F     		cmp	r7, #10
 715 00b6 B8DD     		ble	.L71
 318:.\wiegand.c   ****             }
 319:.\wiegand.c   ****         } //got pulse
 320:.\wiegand.c   ****     }  //while
 321:.\wiegand.c   ****                      LED_GRN_Write(1);
 716              		.loc 1 321 0
 717 00b8 0120     		movs	r0, #1
 718 00ba FFF7FEFF 		bl	LED_GRN_Write
 719              	.LVL116:
 322:.\wiegand.c   ****     
 323:.\wiegand.c   ****     MyI2C_Regs.osdp_reader_data_length = byteCount;  //debug
 720              		.loc 1 323 0
 721 00be 86F8CE70 		strb	r7, [r6, #206]
 324:.\wiegand.c   ****     
 325:.\wiegand.c   ****     Timeout_Timer_Stop();
 722              		.loc 1 325 0
 723 00c2 FFF7FEFF 		bl	Timeout_Timer_Stop
 724              	.LVL117:
 326:.\wiegand.c   ****     f2f_pulsewidth = 0;
 725              		.loc 1 326 0
 726 00c6 0023     		movs	r3, #0
 727 00c8 CBF80030 		str	r3, [fp]
 728              	.LVL118:
 729 00cc 104B     		ldr	r3, .L86+20
 730 00ce 03F11402 		add	r2, r3, #20
 731              	.LVL119:
 732              	.L80:
 733 00d2 0133     		adds	r3, r3, #1
 734              	.LVL120:
 327:.\wiegand.c   ****     
 328:.\wiegand.c   ****     for(i =0; i < 20; i++)  //debugging, yqh remove later
 329:.\wiegand.c   ****             MyI2C_Regs.osdp_reader_buffer[i] = MyI2C_Regs.buffer[i];
 735              		.loc 1 329 0 discriminator 2
 736 00d4 9979     		ldrb	r1, [r3, #6]	@ zero_extendqisi2
 328:.\wiegand.c   ****     for(i =0; i < 20; i++)  //debugging, yqh remove later
 737              		.loc 1 328 0 discriminator 2
 738 00d6 9342     		cmp	r3, r2
 739              		.loc 1 329 0 discriminator 2
 740 00d8 83F8D010 		strb	r1, [r3, #208]
 741              	.LVL121:
 328:.\wiegand.c   ****     for(i =0; i < 20; i++)  //debugging, yqh remove later
 742              		.loc 1 328 0 discriminator 2
 743 00dc F9D1     		bne	.L80
 330:.\wiegand.c   **** 
 331:.\wiegand.c   ****     if(byteCount < 9)
 332:.\wiegand.c   ****     {
 333:.\wiegand.c   ****         MyI2C_Regs.data_length = 0;  //stay at the f2f mode
 334:.\wiegand.c   ****         return 0;
 335:.\wiegand.c   ****     }
 336:.\wiegand.c   ****     else
ARM GAS  C:\Users\Yiquing\AppData\Local\Temp\ccENgnC0.s 			page 21


 337:.\wiegand.c   ****     {
 338:.\wiegand.c   ****         MyI2C_Regs.data_length = 10;
 744              		.loc 1 338 0
 745 00de 0A23     		movs	r3, #10
 746              	.LVL122:
 747 00e0 F370     		strb	r3, [r6, #3]
 339:.\wiegand.c   ****         MyI2C_Regs.cmd = 0;  //to prevent send again
 748              		.loc 1 339 0
 749 00e2 0023     		movs	r3, #0
 750 00e4 B370     		strb	r3, [r6, #2]
 340:.\wiegand.c   ****         MyI2C_Regs.status |= STAT_CHANGE | STAT_CARD_IN ;
 751              		.loc 1 340 0
 752 00e6 3378     		ldrb	r3, [r6]	@ zero_extendqisi2
 341:.\wiegand.c   ****         card_in_buf = 1;
 753              		.loc 1 341 0
 754 00e8 0120     		movs	r0, #1
 340:.\wiegand.c   ****         MyI2C_Regs.status |= STAT_CHANGE | STAT_CARD_IN ;
 755              		.loc 1 340 0
 756 00ea 43F00303 		orr	r3, r3, #3
 757 00ee 3370     		strb	r3, [r6]
 758              		.loc 1 341 0
 759 00f0 034B     		ldr	r3, .L86+4
 760 00f2 1860     		str	r0, [r3]
 342:.\wiegand.c   ****         return 1;
 343:.\wiegand.c   ****     }
 344:.\wiegand.c   **** }
 761              		.loc 1 344 0
 762 00f4 03B0     		add	sp, sp, #12
 763              		@ sp needed
 764 00f6 BDE8F08F 		pop	{r4, r5, r6, r7, r8, r9, r10, fp, pc}
 765              	.LVL123:
 766              	.L87:
 767 00fa 00BF     		.align	2
 768              	.L86:
 769 00fc 00000000 		.word	MyI2C_Regs
 770 0100 00000000 		.word	card_in_buf
 771 0104 00000000 		.word	timeout_cnt
 772 0108 00000000 		.word	f2f_pulsewidth
 773 010c 0000E83F 		.word	1072168960
 774 0110 FFFFFFFF 		.word	MyI2C_Regs-1
 775              		.cfi_endproc
 776              	.LFE66:
 777              		.size	ReadF2F, .-ReadF2F
 778              		.comm	f2f_ack_delay_cnt,1,1
 779              		.comm	f2f_acknowledge_active,1,1
 780              		.global	f2fdebugled
 781              		.comm	card_in_buf,4,4
 782              		.comm	card_ack,4,4
 783              		.comm	TAMPERCR_POLARITY,4,4
 784              		.comm	old,1,1
 785              		.comm	currentAccessType,1,1
 786              		.comm	s,40,4
 787              		.data
 788              		.type	f2fdebugled, %object
 789              		.size	f2fdebugled, 1
 790              	f2fdebugled:
 791 0000 01       		.byte	1
ARM GAS  C:\Users\Yiquing\AppData\Local\Temp\ccENgnC0.s 			page 22


 792              		.text
 793              	.Letext0:
 794              		.file 2 "c:\\program files (x86)\\cypress\\psoc creator\\3.2\\psoc creator\\import\\gnu\\arm\\4.8.
 795              		.file 3 "c:\\program files (x86)\\cypress\\psoc creator\\3.2\\psoc creator\\import\\gnu\\arm\\4.8.
 796              		.file 4 "Generated_Source\\PSoC5/cytypes.h"
 797              		.file 5 ".\\softuart.h"
 798              		.file 6 ".\\system.h"
 799              		.file 7 "Generated_Source\\PSoC5/core_cm3.h"
 800              		.file 8 "Generated_Source\\PSoC5/OptSelect.h"
 801              		.file 9 "Generated_Source\\PSoC5/PS_D1.h"
 802              		.file 10 "Generated_Source\\PSoC5/CyLib.h"
 803              		.file 11 "Generated_Source\\PSoC5/Pin_WD0.h"
 804              		.file 12 "Generated_Source\\PSoC5/Pin_WD1.h"
 805              		.file 13 "Generated_Source\\PSoC5/PS_D0.h"
 806              		.file 14 "Generated_Source\\PSoC5/LED_GRN.h"
 807              		.file 15 "Generated_Source\\PSoC5/isr_F2F_edge.h"
 808              		.file 16 "Generated_Source\\PSoC5/Timeout_Timer.h"