ARM GAS  C:\Users\ilya\AppData\Local\Temp\ccXJghua.s 			page 1


   1              		.syntax unified
   2              		.cpu cortex-m0
   3              		.fpu softvfp
   4              		.eabi_attribute 20, 1
   5              		.eabi_attribute 21, 1
   6              		.eabi_attribute 23, 3
   7              		.eabi_attribute 24, 1
   8              		.eabi_attribute 25, 1
   9              		.eabi_attribute 26, 1
  10              		.eabi_attribute 30, 1
  11              		.eabi_attribute 34, 0
  12              		.eabi_attribute 18, 4
  13              		.thumb
  14              		.syntax unified
  15              		.file	"EZI2C_CAM_I2C_BOOT.c"
  16              		.text
  17              	.Ltext0:
  18              		.cfi_sections	.debug_frame
  19              		.section	.text.EZI2C_CAM_I2CResposeInsert,"ax",%progbits
  20              		.align	2
  21              		.code	16
  22              		.thumb_func
  23              		.type	EZI2C_CAM_I2CResposeInsert, %function
  24              	EZI2C_CAM_I2CResposeInsert:
  25              	.LFB5:
  26              		.file 1 "Generated_Source\\PSoC4\\EZI2C_CAM_I2C_BOOT.c"
   1:Generated_Source\PSoC4/EZI2C_CAM_I2C_BOOT.c **** /***************************************************************************//**
   2:Generated_Source\PSoC4/EZI2C_CAM_I2C_BOOT.c **** * \file EZI2C_CAM_I2C_BOOT.c
   3:Generated_Source\PSoC4/EZI2C_CAM_I2C_BOOT.c **** * \version 3.20
   4:Generated_Source\PSoC4/EZI2C_CAM_I2C_BOOT.c **** *
   5:Generated_Source\PSoC4/EZI2C_CAM_I2C_BOOT.c **** * \brief
   6:Generated_Source\PSoC4/EZI2C_CAM_I2C_BOOT.c **** *  This file provides the source code of the bootloader communication APIs
   7:Generated_Source\PSoC4/EZI2C_CAM_I2C_BOOT.c **** *  for the SCB Component I2C mode.
   8:Generated_Source\PSoC4/EZI2C_CAM_I2C_BOOT.c **** *
   9:Generated_Source\PSoC4/EZI2C_CAM_I2C_BOOT.c **** * Note:
  10:Generated_Source\PSoC4/EZI2C_CAM_I2C_BOOT.c **** *
  11:Generated_Source\PSoC4/EZI2C_CAM_I2C_BOOT.c **** ********************************************************************************
  12:Generated_Source\PSoC4/EZI2C_CAM_I2C_BOOT.c **** * \copyright
  13:Generated_Source\PSoC4/EZI2C_CAM_I2C_BOOT.c **** * Copyright 2013-2016, Cypress Semiconductor Corporation.  All rights reserved.
  14:Generated_Source\PSoC4/EZI2C_CAM_I2C_BOOT.c **** * You may use this file only in accordance with the license, terms, conditions,
  15:Generated_Source\PSoC4/EZI2C_CAM_I2C_BOOT.c **** * disclaimers, and limitations in the end user license agreement accompanying
  16:Generated_Source\PSoC4/EZI2C_CAM_I2C_BOOT.c **** * the software package with which this file was provided.
  17:Generated_Source\PSoC4/EZI2C_CAM_I2C_BOOT.c **** *******************************************************************************/
  18:Generated_Source\PSoC4/EZI2C_CAM_I2C_BOOT.c **** 
  19:Generated_Source\PSoC4/EZI2C_CAM_I2C_BOOT.c **** #include "EZI2C_CAM_BOOT.h"
  20:Generated_Source\PSoC4/EZI2C_CAM_I2C_BOOT.c **** #include "EZI2C_CAM_I2C_PVT.h"
  21:Generated_Source\PSoC4/EZI2C_CAM_I2C_BOOT.c **** 
  22:Generated_Source\PSoC4/EZI2C_CAM_I2C_BOOT.c **** #if defined(CYDEV_BOOTLOADER_IO_COMP) && (EZI2C_CAM_I2C_BTLDR_COMM_ENABLED)
  23:Generated_Source\PSoC4/EZI2C_CAM_I2C_BOOT.c **** 
  24:Generated_Source\PSoC4/EZI2C_CAM_I2C_BOOT.c **** /***************************************
  25:Generated_Source\PSoC4/EZI2C_CAM_I2C_BOOT.c **** *    Private I/O Component Vars
  26:Generated_Source\PSoC4/EZI2C_CAM_I2C_BOOT.c **** ***************************************/
  27:Generated_Source\PSoC4/EZI2C_CAM_I2C_BOOT.c **** 
  28:Generated_Source\PSoC4/EZI2C_CAM_I2C_BOOT.c **** /* Writes to this buffer */
  29:Generated_Source\PSoC4/EZI2C_CAM_I2C_BOOT.c **** static uint8 EZI2C_CAM_slReadBuf[EZI2C_CAM_I2C_BTLDR_SIZEOF_READ_BUFFER];
  30:Generated_Source\PSoC4/EZI2C_CAM_I2C_BOOT.c **** 
  31:Generated_Source\PSoC4/EZI2C_CAM_I2C_BOOT.c **** /* Reads from this buffer */
ARM GAS  C:\Users\ilya\AppData\Local\Temp\ccXJghua.s 			page 2


  32:Generated_Source\PSoC4/EZI2C_CAM_I2C_BOOT.c **** static uint8 EZI2C_CAM_slWriteBuf[EZI2C_CAM_I2C_BTLDR_SIZEOF_WRITE_BUFFER];
  33:Generated_Source\PSoC4/EZI2C_CAM_I2C_BOOT.c **** 
  34:Generated_Source\PSoC4/EZI2C_CAM_I2C_BOOT.c **** /* Flag to release buffer to be read */
  35:Generated_Source\PSoC4/EZI2C_CAM_I2C_BOOT.c **** static uint32 EZI2C_CAM_applyBuffer;
  36:Generated_Source\PSoC4/EZI2C_CAM_I2C_BOOT.c **** 
  37:Generated_Source\PSoC4/EZI2C_CAM_I2C_BOOT.c **** 
  38:Generated_Source\PSoC4/EZI2C_CAM_I2C_BOOT.c **** /***************************************
  39:Generated_Source\PSoC4/EZI2C_CAM_I2C_BOOT.c **** *    Private Function Prototypes
  40:Generated_Source\PSoC4/EZI2C_CAM_I2C_BOOT.c **** ***************************************/
  41:Generated_Source\PSoC4/EZI2C_CAM_I2C_BOOT.c **** 
  42:Generated_Source\PSoC4/EZI2C_CAM_I2C_BOOT.c **** static void EZI2C_CAM_I2CResposeInsert(void);
  43:Generated_Source\PSoC4/EZI2C_CAM_I2C_BOOT.c **** 
  44:Generated_Source\PSoC4/EZI2C_CAM_I2C_BOOT.c **** 
  45:Generated_Source\PSoC4/EZI2C_CAM_I2C_BOOT.c **** /*******************************************************************************
  46:Generated_Source\PSoC4/EZI2C_CAM_I2C_BOOT.c **** * Function Name: EZI2C_CAM_I2CCyBtldrCommStart
  47:Generated_Source\PSoC4/EZI2C_CAM_I2C_BOOT.c **** ****************************************************************************//**
  48:Generated_Source\PSoC4/EZI2C_CAM_I2C_BOOT.c **** *
  49:Generated_Source\PSoC4/EZI2C_CAM_I2C_BOOT.c **** *  Starts the I2C component and enables its interrupt.
  50:Generated_Source\PSoC4/EZI2C_CAM_I2C_BOOT.c **** *  Every incoming I2C write transaction is treated as a command for the
  51:Generated_Source\PSoC4/EZI2C_CAM_I2C_BOOT.c **** *  bootloader.
  52:Generated_Source\PSoC4/EZI2C_CAM_I2C_BOOT.c **** *  Every incoming I2C read transaction returns 0xFF until the bootloader
  53:Generated_Source\PSoC4/EZI2C_CAM_I2C_BOOT.c **** *  provides a response to the executed command.
  54:Generated_Source\PSoC4/EZI2C_CAM_I2C_BOOT.c **** *
  55:Generated_Source\PSoC4/EZI2C_CAM_I2C_BOOT.c **** * \globalvars
  56:Generated_Source\PSoC4/EZI2C_CAM_I2C_BOOT.c **** *  EZI2C_CAM_applyBuffer - the flag to release the buffer with a response
  57:Generated_Source\PSoC4/EZI2C_CAM_I2C_BOOT.c **** *  to be read by the host.
  58:Generated_Source\PSoC4/EZI2C_CAM_I2C_BOOT.c **** *
  59:Generated_Source\PSoC4/EZI2C_CAM_I2C_BOOT.c **** *******************************************************************************/
  60:Generated_Source\PSoC4/EZI2C_CAM_I2C_BOOT.c **** void EZI2C_CAM_I2CCyBtldrCommStart(void)
  61:Generated_Source\PSoC4/EZI2C_CAM_I2C_BOOT.c **** {
  62:Generated_Source\PSoC4/EZI2C_CAM_I2C_BOOT.c ****     EZI2C_CAM_I2CSlaveInitWriteBuf(EZI2C_CAM_slWriteBuf, EZI2C_CAM_I2C_BTLDR_SIZEOF_WRITE_BUFFER);
  63:Generated_Source\PSoC4/EZI2C_CAM_I2C_BOOT.c ****     EZI2C_CAM_I2CSlaveInitReadBuf (EZI2C_CAM_slReadBuf, 0u);
  64:Generated_Source\PSoC4/EZI2C_CAM_I2C_BOOT.c **** 
  65:Generated_Source\PSoC4/EZI2C_CAM_I2C_BOOT.c ****     EZI2C_CAM_SetCustomInterruptHandler(&EZI2C_CAM_I2CResposeInsert);
  66:Generated_Source\PSoC4/EZI2C_CAM_I2C_BOOT.c ****     EZI2C_CAM_applyBuffer = 0u;
  67:Generated_Source\PSoC4/EZI2C_CAM_I2C_BOOT.c **** 
  68:Generated_Source\PSoC4/EZI2C_CAM_I2C_BOOT.c ****     EZI2C_CAM_Start();
  69:Generated_Source\PSoC4/EZI2C_CAM_I2C_BOOT.c **** }
  70:Generated_Source\PSoC4/EZI2C_CAM_I2C_BOOT.c **** 
  71:Generated_Source\PSoC4/EZI2C_CAM_I2C_BOOT.c **** 
  72:Generated_Source\PSoC4/EZI2C_CAM_I2C_BOOT.c **** /*******************************************************************************
  73:Generated_Source\PSoC4/EZI2C_CAM_I2C_BOOT.c **** * Function Name: EZI2C_CAM_I2CCyBtldrCommStop
  74:Generated_Source\PSoC4/EZI2C_CAM_I2C_BOOT.c **** ****************************************************************************//**
  75:Generated_Source\PSoC4/EZI2C_CAM_I2C_BOOT.c **** *
  76:Generated_Source\PSoC4/EZI2C_CAM_I2C_BOOT.c **** *  Disables the I2C component.
  77:Generated_Source\PSoC4/EZI2C_CAM_I2C_BOOT.c **** *
  78:Generated_Source\PSoC4/EZI2C_CAM_I2C_BOOT.c **** *******************************************************************************/
  79:Generated_Source\PSoC4/EZI2C_CAM_I2C_BOOT.c **** void EZI2C_CAM_I2CCyBtldrCommStop(void)
  80:Generated_Source\PSoC4/EZI2C_CAM_I2C_BOOT.c **** {
  81:Generated_Source\PSoC4/EZI2C_CAM_I2C_BOOT.c ****     EZI2C_CAM_Stop();
  82:Generated_Source\PSoC4/EZI2C_CAM_I2C_BOOT.c **** }
  83:Generated_Source\PSoC4/EZI2C_CAM_I2C_BOOT.c **** 
  84:Generated_Source\PSoC4/EZI2C_CAM_I2C_BOOT.c **** 
  85:Generated_Source\PSoC4/EZI2C_CAM_I2C_BOOT.c **** /*******************************************************************************
  86:Generated_Source\PSoC4/EZI2C_CAM_I2C_BOOT.c **** * Function Name: EZI2C_CAM_I2CCyBtldrCommReset
  87:Generated_Source\PSoC4/EZI2C_CAM_I2C_BOOT.c **** ****************************************************************************//**
  88:Generated_Source\PSoC4/EZI2C_CAM_I2C_BOOT.c **** *
ARM GAS  C:\Users\ilya\AppData\Local\Temp\ccXJghua.s 			page 3


  89:Generated_Source\PSoC4/EZI2C_CAM_I2C_BOOT.c **** *  Resets read and write I2C buffers to the initial state and resets the slave
  90:Generated_Source\PSoC4/EZI2C_CAM_I2C_BOOT.c **** *  status.
  91:Generated_Source\PSoC4/EZI2C_CAM_I2C_BOOT.c **** *
  92:Generated_Source\PSoC4/EZI2C_CAM_I2C_BOOT.c **** * \globalvars
  93:Generated_Source\PSoC4/EZI2C_CAM_I2C_BOOT.c **** *  EZI2C_CAM_slRdBufSize - used to store slave read buffer size.
  94:Generated_Source\PSoC4/EZI2C_CAM_I2C_BOOT.c **** *  EZI2C_CAM_slRdBufIndex - used to store the current index within the
  95:Generated_Source\PSoC4/EZI2C_CAM_I2C_BOOT.c **** *  slave read buffer.
  96:Generated_Source\PSoC4/EZI2C_CAM_I2C_BOOT.c **** *  EZI2C_CAM_slWrBufIndex - used to store current index within slave
  97:Generated_Source\PSoC4/EZI2C_CAM_I2C_BOOT.c **** *  write buffer.
  98:Generated_Source\PSoC4/EZI2C_CAM_I2C_BOOT.c **** *  EZI2C_CAM_slStatus  - used to store current status of I2C slave.
  99:Generated_Source\PSoC4/EZI2C_CAM_I2C_BOOT.c **** *
 100:Generated_Source\PSoC4/EZI2C_CAM_I2C_BOOT.c **** *******************************************************************************/
 101:Generated_Source\PSoC4/EZI2C_CAM_I2C_BOOT.c **** void EZI2C_CAM_I2CCyBtldrCommReset(void)
 102:Generated_Source\PSoC4/EZI2C_CAM_I2C_BOOT.c **** {
 103:Generated_Source\PSoC4/EZI2C_CAM_I2C_BOOT.c ****     /* Make read buffer full */
 104:Generated_Source\PSoC4/EZI2C_CAM_I2C_BOOT.c ****     EZI2C_CAM_slRdBufSize = 0u;
 105:Generated_Source\PSoC4/EZI2C_CAM_I2C_BOOT.c **** 
 106:Generated_Source\PSoC4/EZI2C_CAM_I2C_BOOT.c ****     /* Reset write buffer and Read buffer */
 107:Generated_Source\PSoC4/EZI2C_CAM_I2C_BOOT.c ****     EZI2C_CAM_slRdBufIndex = 0u;
 108:Generated_Source\PSoC4/EZI2C_CAM_I2C_BOOT.c ****     EZI2C_CAM_slWrBufIndex = 0u;
 109:Generated_Source\PSoC4/EZI2C_CAM_I2C_BOOT.c **** 
 110:Generated_Source\PSoC4/EZI2C_CAM_I2C_BOOT.c ****     /* Clear read and write status */
 111:Generated_Source\PSoC4/EZI2C_CAM_I2C_BOOT.c ****     EZI2C_CAM_slStatus = 0u;
 112:Generated_Source\PSoC4/EZI2C_CAM_I2C_BOOT.c **** }
 113:Generated_Source\PSoC4/EZI2C_CAM_I2C_BOOT.c **** 
 114:Generated_Source\PSoC4/EZI2C_CAM_I2C_BOOT.c **** 
 115:Generated_Source\PSoC4/EZI2C_CAM_I2C_BOOT.c **** /*******************************************************************************
 116:Generated_Source\PSoC4/EZI2C_CAM_I2C_BOOT.c **** * Function Name: EZI2C_CAM_I2CCyBtldrCommRead
 117:Generated_Source\PSoC4/EZI2C_CAM_I2C_BOOT.c **** ****************************************************************************//**
 118:Generated_Source\PSoC4/EZI2C_CAM_I2C_BOOT.c **** *
 119:Generated_Source\PSoC4/EZI2C_CAM_I2C_BOOT.c **** *  Allows the caller to read data from the bootloader host (the host writes the
 120:Generated_Source\PSoC4/EZI2C_CAM_I2C_BOOT.c **** *  data). The function handles polling to allow a block of data to be completely
 121:Generated_Source\PSoC4/EZI2C_CAM_I2C_BOOT.c **** *  received from the host device.
 122:Generated_Source\PSoC4/EZI2C_CAM_I2C_BOOT.c **** *
 123:Generated_Source\PSoC4/EZI2C_CAM_I2C_BOOT.c **** *  \param pData: Pointer to storage for the block of data to be read from the
 124:Generated_Source\PSoC4/EZI2C_CAM_I2C_BOOT.c **** *   bootloader host
 125:Generated_Source\PSoC4/EZI2C_CAM_I2C_BOOT.c **** *  \param size: Number of bytes to be read.
 126:Generated_Source\PSoC4/EZI2C_CAM_I2C_BOOT.c **** *  \param count: Pointer to the variable to write the number of bytes actually
 127:Generated_Source\PSoC4/EZI2C_CAM_I2C_BOOT.c **** *   read.
 128:Generated_Source\PSoC4/EZI2C_CAM_I2C_BOOT.c **** *  \param timeOut: Number of units in 10 ms to wait before returning
 129:Generated_Source\PSoC4/EZI2C_CAM_I2C_BOOT.c **** *   because of a timeout.
 130:Generated_Source\PSoC4/EZI2C_CAM_I2C_BOOT.c **** *
 131:Generated_Source\PSoC4/EZI2C_CAM_I2C_BOOT.c **** *  \return
 132:Generated_Source\PSoC4/EZI2C_CAM_I2C_BOOT.c **** *   Returns CYRET_SUCCESS if no problem was encountered or returns the value
 133:Generated_Source\PSoC4/EZI2C_CAM_I2C_BOOT.c **** *   that best describes the problem. For more information refer to the
 134:Generated_Source\PSoC4/EZI2C_CAM_I2C_BOOT.c **** *   "Return Codes" section of the System Reference Guide.
 135:Generated_Source\PSoC4/EZI2C_CAM_I2C_BOOT.c **** *
 136:Generated_Source\PSoC4/EZI2C_CAM_I2C_BOOT.c **** * \globalvars
 137:Generated_Source\PSoC4/EZI2C_CAM_I2C_BOOT.c **** *  EZI2C_CAM_slStatus  - used to store current status of I2C slave.
 138:Generated_Source\PSoC4/EZI2C_CAM_I2C_BOOT.c **** *  EZI2C_CAM_slWriteBuf - used to store received command.
 139:Generated_Source\PSoC4/EZI2C_CAM_I2C_BOOT.c **** *  EZI2C_CAM_slWrBufIndex - used to store current index within slave
 140:Generated_Source\PSoC4/EZI2C_CAM_I2C_BOOT.c **** *  write buffer.
 141:Generated_Source\PSoC4/EZI2C_CAM_I2C_BOOT.c **** *
 142:Generated_Source\PSoC4/EZI2C_CAM_I2C_BOOT.c **** *******************************************************************************/
 143:Generated_Source\PSoC4/EZI2C_CAM_I2C_BOOT.c **** cystatus EZI2C_CAM_I2CCyBtldrCommRead(uint8 pData[], uint16 size, uint16 * count, uint8 timeOut)
 144:Generated_Source\PSoC4/EZI2C_CAM_I2C_BOOT.c **** {
 145:Generated_Source\PSoC4/EZI2C_CAM_I2C_BOOT.c ****     cystatus status;
ARM GAS  C:\Users\ilya\AppData\Local\Temp\ccXJghua.s 			page 4


 146:Generated_Source\PSoC4/EZI2C_CAM_I2C_BOOT.c ****     uint32 timeoutMs;
 147:Generated_Source\PSoC4/EZI2C_CAM_I2C_BOOT.c **** 
 148:Generated_Source\PSoC4/EZI2C_CAM_I2C_BOOT.c ****     status = CYRET_BAD_PARAM;
 149:Generated_Source\PSoC4/EZI2C_CAM_I2C_BOOT.c **** 
 150:Generated_Source\PSoC4/EZI2C_CAM_I2C_BOOT.c ****     if ((NULL != pData) && (size > 0u))
 151:Generated_Source\PSoC4/EZI2C_CAM_I2C_BOOT.c ****     {
 152:Generated_Source\PSoC4/EZI2C_CAM_I2C_BOOT.c ****         status = CYRET_TIMEOUT;
 153:Generated_Source\PSoC4/EZI2C_CAM_I2C_BOOT.c ****         timeoutMs = ((uint32) 10u * timeOut); /* Convert from 10mS check to 1mS checks */
 154:Generated_Source\PSoC4/EZI2C_CAM_I2C_BOOT.c **** 
 155:Generated_Source\PSoC4/EZI2C_CAM_I2C_BOOT.c ****         while (0u != timeoutMs)
 156:Generated_Source\PSoC4/EZI2C_CAM_I2C_BOOT.c ****         {
 157:Generated_Source\PSoC4/EZI2C_CAM_I2C_BOOT.c ****             /* Check if host complete write */
 158:Generated_Source\PSoC4/EZI2C_CAM_I2C_BOOT.c ****             if (0u != (EZI2C_CAM_I2C_SSTAT_WR_CMPLT & EZI2C_CAM_slStatus))
 159:Generated_Source\PSoC4/EZI2C_CAM_I2C_BOOT.c ****             {
 160:Generated_Source\PSoC4/EZI2C_CAM_I2C_BOOT.c ****                 /* Copy number of written bytes */
 161:Generated_Source\PSoC4/EZI2C_CAM_I2C_BOOT.c ****                 *count = (uint16) EZI2C_CAM_slWrBufIndex;
 162:Generated_Source\PSoC4/EZI2C_CAM_I2C_BOOT.c **** 
 163:Generated_Source\PSoC4/EZI2C_CAM_I2C_BOOT.c ****                 /* Clear slave status and write index */
 164:Generated_Source\PSoC4/EZI2C_CAM_I2C_BOOT.c ****                 EZI2C_CAM_slStatus = 0u;
 165:Generated_Source\PSoC4/EZI2C_CAM_I2C_BOOT.c ****                 EZI2C_CAM_slWrBufIndex = 0u;
 166:Generated_Source\PSoC4/EZI2C_CAM_I2C_BOOT.c **** 
 167:Generated_Source\PSoC4/EZI2C_CAM_I2C_BOOT.c ****                 /* Copy command into bootloader buffer */
 168:Generated_Source\PSoC4/EZI2C_CAM_I2C_BOOT.c ****                 (void) memcpy((void *) pData, (const void *) EZI2C_CAM_slWriteBuf,
 169:Generated_Source\PSoC4/EZI2C_CAM_I2C_BOOT.c ****                                               EZI2C_CAM_BYTES_TO_COPY(*count, size));
 170:Generated_Source\PSoC4/EZI2C_CAM_I2C_BOOT.c **** 
 171:Generated_Source\PSoC4/EZI2C_CAM_I2C_BOOT.c ****                 status = CYRET_SUCCESS;
 172:Generated_Source\PSoC4/EZI2C_CAM_I2C_BOOT.c ****                 break;
 173:Generated_Source\PSoC4/EZI2C_CAM_I2C_BOOT.c ****             }
 174:Generated_Source\PSoC4/EZI2C_CAM_I2C_BOOT.c **** 
 175:Generated_Source\PSoC4/EZI2C_CAM_I2C_BOOT.c ****             CyDelay(EZI2C_CAM_WAIT_1_MS);
 176:Generated_Source\PSoC4/EZI2C_CAM_I2C_BOOT.c ****             --timeoutMs;
 177:Generated_Source\PSoC4/EZI2C_CAM_I2C_BOOT.c ****         }
 178:Generated_Source\PSoC4/EZI2C_CAM_I2C_BOOT.c ****     }
 179:Generated_Source\PSoC4/EZI2C_CAM_I2C_BOOT.c **** 
 180:Generated_Source\PSoC4/EZI2C_CAM_I2C_BOOT.c ****     return(status);
 181:Generated_Source\PSoC4/EZI2C_CAM_I2C_BOOT.c **** }
 182:Generated_Source\PSoC4/EZI2C_CAM_I2C_BOOT.c **** 
 183:Generated_Source\PSoC4/EZI2C_CAM_I2C_BOOT.c **** 
 184:Generated_Source\PSoC4/EZI2C_CAM_I2C_BOOT.c **** /*******************************************************************************
 185:Generated_Source\PSoC4/EZI2C_CAM_I2C_BOOT.c **** * Function Name: EZI2C_CAM_I2CCyBtldrCommWrite
 186:Generated_Source\PSoC4/EZI2C_CAM_I2C_BOOT.c **** ****************************************************************************//**
 187:Generated_Source\PSoC4/EZI2C_CAM_I2C_BOOT.c **** *
 188:Generated_Source\PSoC4/EZI2C_CAM_I2C_BOOT.c **** *  Allows the caller to write data to the bootloader host (the host reads the
 189:Generated_Source\PSoC4/EZI2C_CAM_I2C_BOOT.c **** *  data). The function does not use timeout and returns after data has been
 190:Generated_Source\PSoC4/EZI2C_CAM_I2C_BOOT.c **** *  copied into the slave read buffer. This data is available to be read by the
 191:Generated_Source\PSoC4/EZI2C_CAM_I2C_BOOT.c **** *  bootloader host until following host data write.
 192:Generated_Source\PSoC4/EZI2C_CAM_I2C_BOOT.c **** *
 193:Generated_Source\PSoC4/EZI2C_CAM_I2C_BOOT.c **** *  \param pData: Pointer to the block of data to be written to the bootloader
 194:Generated_Source\PSoC4/EZI2C_CAM_I2C_BOOT.c **** *   host.
 195:Generated_Source\PSoC4/EZI2C_CAM_I2C_BOOT.c **** *  \param size: Number of bytes to be written.
 196:Generated_Source\PSoC4/EZI2C_CAM_I2C_BOOT.c **** *  \param count: Pointer to the variable to write the number of bytes actually
 197:Generated_Source\PSoC4/EZI2C_CAM_I2C_BOOT.c **** *   written.
 198:Generated_Source\PSoC4/EZI2C_CAM_I2C_BOOT.c **** *  \param timeOut: Number of units in 10 ms to wait before returning
 199:Generated_Source\PSoC4/EZI2C_CAM_I2C_BOOT.c **** *   because of a timeout.
 200:Generated_Source\PSoC4/EZI2C_CAM_I2C_BOOT.c **** *
 201:Generated_Source\PSoC4/EZI2C_CAM_I2C_BOOT.c **** *  \return
 202:Generated_Source\PSoC4/EZI2C_CAM_I2C_BOOT.c **** *   Returns CYRET_SUCCESS if no problem was encountered or returns the value
ARM GAS  C:\Users\ilya\AppData\Local\Temp\ccXJghua.s 			page 5


 203:Generated_Source\PSoC4/EZI2C_CAM_I2C_BOOT.c **** *   that best describes the problem. For more information refer to the
 204:Generated_Source\PSoC4/EZI2C_CAM_I2C_BOOT.c **** *   "Return Codes" section of the System Reference Guide.
 205:Generated_Source\PSoC4/EZI2C_CAM_I2C_BOOT.c **** *
 206:Generated_Source\PSoC4/EZI2C_CAM_I2C_BOOT.c **** * \globalvars
 207:Generated_Source\PSoC4/EZI2C_CAM_I2C_BOOT.c **** *  EZI2C_CAM_applyBuffer - the flag to release the buffer with
 208:Generated_Source\PSoC4/EZI2C_CAM_I2C_BOOT.c **** *  to be read by the host.
 209:Generated_Source\PSoC4/EZI2C_CAM_I2C_BOOT.c **** *
 210:Generated_Source\PSoC4/EZI2C_CAM_I2C_BOOT.c **** *******************************************************************************/
 211:Generated_Source\PSoC4/EZI2C_CAM_I2C_BOOT.c **** cystatus EZI2C_CAM_I2CCyBtldrCommWrite(const uint8 pData[], uint16 size, uint16 * count, uint8 time
 212:Generated_Source\PSoC4/EZI2C_CAM_I2C_BOOT.c **** {
 213:Generated_Source\PSoC4/EZI2C_CAM_I2C_BOOT.c ****     cystatus status;
 214:Generated_Source\PSoC4/EZI2C_CAM_I2C_BOOT.c **** 
 215:Generated_Source\PSoC4/EZI2C_CAM_I2C_BOOT.c ****     status = CYRET_BAD_PARAM;
 216:Generated_Source\PSoC4/EZI2C_CAM_I2C_BOOT.c **** 
 217:Generated_Source\PSoC4/EZI2C_CAM_I2C_BOOT.c ****     if ((NULL != pData) && (size > 0u))
 218:Generated_Source\PSoC4/EZI2C_CAM_I2C_BOOT.c ****     {
 219:Generated_Source\PSoC4/EZI2C_CAM_I2C_BOOT.c ****         /* Copy response into read buffer */
 220:Generated_Source\PSoC4/EZI2C_CAM_I2C_BOOT.c ****         *count = size;
 221:Generated_Source\PSoC4/EZI2C_CAM_I2C_BOOT.c ****         (void) memcpy((void *) EZI2C_CAM_slReadBuf, (const void *) pData, (uint32) size);
 222:Generated_Source\PSoC4/EZI2C_CAM_I2C_BOOT.c **** 
 223:Generated_Source\PSoC4/EZI2C_CAM_I2C_BOOT.c ****         /* Read buffer is ready to be released to host */
 224:Generated_Source\PSoC4/EZI2C_CAM_I2C_BOOT.c ****         EZI2C_CAM_applyBuffer = (uint32) size;
 225:Generated_Source\PSoC4/EZI2C_CAM_I2C_BOOT.c **** 
 226:Generated_Source\PSoC4/EZI2C_CAM_I2C_BOOT.c ****         if (0u != timeOut)
 227:Generated_Source\PSoC4/EZI2C_CAM_I2C_BOOT.c ****         {
 228:Generated_Source\PSoC4/EZI2C_CAM_I2C_BOOT.c ****             /* Suppress compiler warning */
 229:Generated_Source\PSoC4/EZI2C_CAM_I2C_BOOT.c ****         }
 230:Generated_Source\PSoC4/EZI2C_CAM_I2C_BOOT.c **** 
 231:Generated_Source\PSoC4/EZI2C_CAM_I2C_BOOT.c ****         status = CYRET_SUCCESS;
 232:Generated_Source\PSoC4/EZI2C_CAM_I2C_BOOT.c ****     }
 233:Generated_Source\PSoC4/EZI2C_CAM_I2C_BOOT.c **** 
 234:Generated_Source\PSoC4/EZI2C_CAM_I2C_BOOT.c ****     return(status);
 235:Generated_Source\PSoC4/EZI2C_CAM_I2C_BOOT.c **** }
 236:Generated_Source\PSoC4/EZI2C_CAM_I2C_BOOT.c **** 
 237:Generated_Source\PSoC4/EZI2C_CAM_I2C_BOOT.c **** 
 238:Generated_Source\PSoC4/EZI2C_CAM_I2C_BOOT.c **** /*******************************************************************************
 239:Generated_Source\PSoC4/EZI2C_CAM_I2C_BOOT.c **** * Function Name: EZI2C_CAM_I2CResposeInsert
 240:Generated_Source\PSoC4/EZI2C_CAM_I2C_BOOT.c **** ****************************************************************************//**
 241:Generated_Source\PSoC4/EZI2C_CAM_I2C_BOOT.c **** *
 242:Generated_Source\PSoC4/EZI2C_CAM_I2C_BOOT.c **** *  Releases the read buffer to be read when a response is copied to the buffer
 243:Generated_Source\PSoC4/EZI2C_CAM_I2C_BOOT.c **** *  and a new read transaction starts.
 244:Generated_Source\PSoC4/EZI2C_CAM_I2C_BOOT.c **** *  Closes the read buffer when write transaction is started.
 245:Generated_Source\PSoC4/EZI2C_CAM_I2C_BOOT.c **** *
 246:Generated_Source\PSoC4/EZI2C_CAM_I2C_BOOT.c **** * \globalvars
 247:Generated_Source\PSoC4/EZI2C_CAM_I2C_BOOT.c **** *  EZI2C_CAM_applyBuffer - the flag to release the buffer with a response
 248:Generated_Source\PSoC4/EZI2C_CAM_I2C_BOOT.c **** *  to be read by the host.
 249:Generated_Source\PSoC4/EZI2C_CAM_I2C_BOOT.c **** *
 250:Generated_Source\PSoC4/EZI2C_CAM_I2C_BOOT.c **** *******************************************************************************/
 251:Generated_Source\PSoC4/EZI2C_CAM_I2C_BOOT.c **** static void EZI2C_CAM_I2CResposeInsert(void)
 252:Generated_Source\PSoC4/EZI2C_CAM_I2C_BOOT.c **** {
  27              		.loc 1 252 0
  28              		.cfi_startproc
  29              		@ args = 0, pretend = 0, frame = 0
  30              		@ frame_needed = 0, uses_anonymous_args = 0
  31              		@ link register save eliminated.
 253:Generated_Source\PSoC4/EZI2C_CAM_I2C_BOOT.c ****     if (EZI2C_CAM_CHECK_INTR_SLAVE_MASKED(EZI2C_CAM_INTR_SLAVE_I2C_ADDR_MATCH))
  32              		.loc 1 253 0
ARM GAS  C:\Users\ilya\AppData\Local\Temp\ccXJghua.s 			page 6


  33 0000 0F4B     		ldr	r3, .L4
  34 0002 1B68     		ldr	r3, [r3]
  35 0004 5B06     		lsls	r3, r3, #25
  36 0006 19D5     		bpl	.L1
 254:Generated_Source\PSoC4/EZI2C_CAM_I2C_BOOT.c ****     {
 255:Generated_Source\PSoC4/EZI2C_CAM_I2C_BOOT.c ****         if (EZI2C_CAM_CHECK_I2C_STATUS(EZI2C_CAM_I2C_STATUS_S_READ))
  37              		.loc 1 255 0
  38 0008 0E4B     		ldr	r3, .L4+4
  39 000a 1B68     		ldr	r3, [r3]
  40 000c DB06     		lsls	r3, r3, #27
  41 000e 0BD5     		bpl	.L3
 256:Generated_Source\PSoC4/EZI2C_CAM_I2C_BOOT.c ****         {
 257:Generated_Source\PSoC4/EZI2C_CAM_I2C_BOOT.c ****             /* Address phase, host reads: release read buffer */
 258:Generated_Source\PSoC4/EZI2C_CAM_I2C_BOOT.c ****             if (0u != EZI2C_CAM_applyBuffer)
  42              		.loc 1 258 0
  43 0010 0D4B     		ldr	r3, .L4+8
  44 0012 1B68     		ldr	r3, [r3]
  45 0014 002B     		cmp	r3, #0
  46 0016 11D0     		beq	.L1
 259:Generated_Source\PSoC4/EZI2C_CAM_I2C_BOOT.c ****             {
 260:Generated_Source\PSoC4/EZI2C_CAM_I2C_BOOT.c ****                 EZI2C_CAM_slRdBufSize  = EZI2C_CAM_applyBuffer;
  47              		.loc 1 260 0
  48 0018 0C4A     		ldr	r2, .L4+12
  49 001a 1360     		str	r3, [r2]
 261:Generated_Source\PSoC4/EZI2C_CAM_I2C_BOOT.c ****                 EZI2C_CAM_slRdBufIndex = 0u;
  50              		.loc 1 261 0
  51 001c 0023     		movs	r3, #0
  52 001e 0C4A     		ldr	r2, .L4+16
  53 0020 1360     		str	r3, [r2]
 262:Generated_Source\PSoC4/EZI2C_CAM_I2C_BOOT.c ****                 EZI2C_CAM_applyBuffer  = 0u;
  54              		.loc 1 262 0
  55 0022 094A     		ldr	r2, .L4+8
  56 0024 1360     		str	r3, [r2]
  57 0026 09E0     		b	.L1
  58              	.L3:
 263:Generated_Source\PSoC4/EZI2C_CAM_I2C_BOOT.c ****             }
 264:Generated_Source\PSoC4/EZI2C_CAM_I2C_BOOT.c ****         }
 265:Generated_Source\PSoC4/EZI2C_CAM_I2C_BOOT.c ****         else
 266:Generated_Source\PSoC4/EZI2C_CAM_I2C_BOOT.c ****         {
 267:Generated_Source\PSoC4/EZI2C_CAM_I2C_BOOT.c ****             /* Address phase, host writes: close read buffer */
 268:Generated_Source\PSoC4/EZI2C_CAM_I2C_BOOT.c ****             if (EZI2C_CAM_slRdBufIndex != EZI2C_CAM_slRdBufSize)
  59              		.loc 1 268 0
  60 0028 094B     		ldr	r3, .L4+16
  61 002a 1A68     		ldr	r2, [r3]
  62 002c 074B     		ldr	r3, .L4+12
  63 002e 1B68     		ldr	r3, [r3]
  64 0030 9A42     		cmp	r2, r3
  65 0032 03D0     		beq	.L1
 269:Generated_Source\PSoC4/EZI2C_CAM_I2C_BOOT.c ****             {
 270:Generated_Source\PSoC4/EZI2C_CAM_I2C_BOOT.c ****                 EZI2C_CAM_slRdBufIndex = EZI2C_CAM_slRdBufSize;
  66              		.loc 1 270 0
  67 0034 054B     		ldr	r3, .L4+12
  68 0036 1A68     		ldr	r2, [r3]
  69 0038 054B     		ldr	r3, .L4+16
  70 003a 1A60     		str	r2, [r3]
  71              	.L1:
 271:Generated_Source\PSoC4/EZI2C_CAM_I2C_BOOT.c ****             }
ARM GAS  C:\Users\ilya\AppData\Local\Temp\ccXJghua.s 			page 7


 272:Generated_Source\PSoC4/EZI2C_CAM_I2C_BOOT.c ****         }
 273:Generated_Source\PSoC4/EZI2C_CAM_I2C_BOOT.c ****     }
 274:Generated_Source\PSoC4/EZI2C_CAM_I2C_BOOT.c **** }
  72              		.loc 1 274 0
  73              		@ sp needed
  74 003c 7047     		bx	lr
  75              	.L5:
  76 003e C046     		.align	2
  77              	.L4:
  78 0040 4C0F0740 		.word	1074204492
  79 0044 64000740 		.word	1074200676
  80 0048 00000000 		.word	.LANCHOR0
  81 004c 00000000 		.word	EZI2C_CAM_slRdBufSize
  82 0050 00000000 		.word	EZI2C_CAM_slRdBufIndex
  83              		.cfi_endproc
  84              	.LFE5:
  85              		.size	EZI2C_CAM_I2CResposeInsert, .-EZI2C_CAM_I2CResposeInsert
  86              		.section	.text.EZI2C_CAM_I2CCyBtldrCommStart,"ax",%progbits
  87              		.align	2
  88              		.global	EZI2C_CAM_I2CCyBtldrCommStart
  89              		.code	16
  90              		.thumb_func
  91              		.type	EZI2C_CAM_I2CCyBtldrCommStart, %function
  92              	EZI2C_CAM_I2CCyBtldrCommStart:
  93              	.LFB0:
  61:Generated_Source\PSoC4/EZI2C_CAM_I2C_BOOT.c ****     EZI2C_CAM_I2CSlaveInitWriteBuf(EZI2C_CAM_slWriteBuf, EZI2C_CAM_I2C_BTLDR_SIZEOF_WRITE_BUFFER);
  94              		.loc 1 61 0
  95              		.cfi_startproc
  96              		@ args = 0, pretend = 0, frame = 0
  97              		@ frame_needed = 0, uses_anonymous_args = 0
  98 0000 10B5     		push	{r4, lr}
  99              		.cfi_def_cfa_offset 8
 100              		.cfi_offset 4, -8
 101              		.cfi_offset 14, -4
  62:Generated_Source\PSoC4/EZI2C_CAM_I2C_BOOT.c ****     EZI2C_CAM_I2CSlaveInitReadBuf (EZI2C_CAM_slReadBuf, 0u);
 102              		.loc 1 62 0
 103 0002 094C     		ldr	r4, .L7
 104 0004 201D     		adds	r0, r4, #4
 105 0006 4021     		movs	r1, #64
 106 0008 FFF7FEFF 		bl	EZI2C_CAM_I2CSlaveInitWriteBuf
 107              	.LVL0:
  63:Generated_Source\PSoC4/EZI2C_CAM_I2C_BOOT.c **** 
 108              		.loc 1 63 0
 109 000c 2000     		movs	r0, r4
 110 000e 4430     		adds	r0, r0, #68
 111 0010 0021     		movs	r1, #0
 112 0012 FFF7FEFF 		bl	EZI2C_CAM_I2CSlaveInitReadBuf
 113              	.LVL1:
  65:Generated_Source\PSoC4/EZI2C_CAM_I2C_BOOT.c ****     EZI2C_CAM_applyBuffer = 0u;
 114              		.loc 1 65 0
 115 0016 0548     		ldr	r0, .L7+4
 116 0018 FFF7FEFF 		bl	EZI2C_CAM_SetCustomInterruptHandler
 117              	.LVL2:
  66:Generated_Source\PSoC4/EZI2C_CAM_I2C_BOOT.c **** 
 118              		.loc 1 66 0
 119 001c 0023     		movs	r3, #0
 120 001e 2360     		str	r3, [r4]
ARM GAS  C:\Users\ilya\AppData\Local\Temp\ccXJghua.s 			page 8


  68:Generated_Source\PSoC4/EZI2C_CAM_I2C_BOOT.c **** }
 121              		.loc 1 68 0
 122 0020 FFF7FEFF 		bl	EZI2C_CAM_Start
 123              	.LVL3:
  69:Generated_Source\PSoC4/EZI2C_CAM_I2C_BOOT.c **** 
 124              		.loc 1 69 0
 125              		@ sp needed
 126 0024 10BD     		pop	{r4, pc}
 127              	.L8:
 128 0026 C046     		.align	2
 129              	.L7:
 130 0028 00000000 		.word	.LANCHOR0
 131 002c 00000000 		.word	EZI2C_CAM_I2CResposeInsert
 132              		.cfi_endproc
 133              	.LFE0:
 134              		.size	EZI2C_CAM_I2CCyBtldrCommStart, .-EZI2C_CAM_I2CCyBtldrCommStart
 135              		.section	.text.EZI2C_CAM_I2CCyBtldrCommStop,"ax",%progbits
 136              		.align	2
 137              		.global	EZI2C_CAM_I2CCyBtldrCommStop
 138              		.code	16
 139              		.thumb_func
 140              		.type	EZI2C_CAM_I2CCyBtldrCommStop, %function
 141              	EZI2C_CAM_I2CCyBtldrCommStop:
 142              	.LFB1:
  80:Generated_Source\PSoC4/EZI2C_CAM_I2C_BOOT.c ****     EZI2C_CAM_Stop();
 143              		.loc 1 80 0
 144              		.cfi_startproc
 145              		@ args = 0, pretend = 0, frame = 0
 146              		@ frame_needed = 0, uses_anonymous_args = 0
 147 0000 10B5     		push	{r4, lr}
 148              		.cfi_def_cfa_offset 8
 149              		.cfi_offset 4, -8
 150              		.cfi_offset 14, -4
  81:Generated_Source\PSoC4/EZI2C_CAM_I2C_BOOT.c **** }
 151              		.loc 1 81 0
 152 0002 FFF7FEFF 		bl	EZI2C_CAM_Stop
 153              	.LVL4:
  82:Generated_Source\PSoC4/EZI2C_CAM_I2C_BOOT.c **** 
 154              		.loc 1 82 0
 155              		@ sp needed
 156 0006 10BD     		pop	{r4, pc}
 157              		.cfi_endproc
 158              	.LFE1:
 159              		.size	EZI2C_CAM_I2CCyBtldrCommStop, .-EZI2C_CAM_I2CCyBtldrCommStop
 160              		.section	.text.EZI2C_CAM_I2CCyBtldrCommReset,"ax",%progbits
 161              		.align	2
 162              		.global	EZI2C_CAM_I2CCyBtldrCommReset
 163              		.code	16
 164              		.thumb_func
 165              		.type	EZI2C_CAM_I2CCyBtldrCommReset, %function
 166              	EZI2C_CAM_I2CCyBtldrCommReset:
 167              	.LFB2:
 102:Generated_Source\PSoC4/EZI2C_CAM_I2C_BOOT.c ****     /* Make read buffer full */
 168              		.loc 1 102 0
 169              		.cfi_startproc
 170              		@ args = 0, pretend = 0, frame = 0
 171              		@ frame_needed = 0, uses_anonymous_args = 0
ARM GAS  C:\Users\ilya\AppData\Local\Temp\ccXJghua.s 			page 9


 172              		@ link register save eliminated.
 104:Generated_Source\PSoC4/EZI2C_CAM_I2C_BOOT.c **** 
 173              		.loc 1 104 0
 174 0000 0023     		movs	r3, #0
 175 0002 044A     		ldr	r2, .L11
 176 0004 1360     		str	r3, [r2]
 107:Generated_Source\PSoC4/EZI2C_CAM_I2C_BOOT.c ****     EZI2C_CAM_slWrBufIndex = 0u;
 177              		.loc 1 107 0
 178 0006 044A     		ldr	r2, .L11+4
 179 0008 1360     		str	r3, [r2]
 108:Generated_Source\PSoC4/EZI2C_CAM_I2C_BOOT.c **** 
 180              		.loc 1 108 0
 181 000a 044A     		ldr	r2, .L11+8
 182 000c 1360     		str	r3, [r2]
 111:Generated_Source\PSoC4/EZI2C_CAM_I2C_BOOT.c **** }
 183              		.loc 1 111 0
 184 000e 044A     		ldr	r2, .L11+12
 185 0010 1370     		strb	r3, [r2]
 112:Generated_Source\PSoC4/EZI2C_CAM_I2C_BOOT.c **** 
 186              		.loc 1 112 0
 187              		@ sp needed
 188 0012 7047     		bx	lr
 189              	.L12:
 190              		.align	2
 191              	.L11:
 192 0014 00000000 		.word	EZI2C_CAM_slRdBufSize
 193 0018 00000000 		.word	EZI2C_CAM_slRdBufIndex
 194 001c 00000000 		.word	EZI2C_CAM_slWrBufIndex
 195 0020 00000000 		.word	EZI2C_CAM_slStatus
 196              		.cfi_endproc
 197              	.LFE2:
 198              		.size	EZI2C_CAM_I2CCyBtldrCommReset, .-EZI2C_CAM_I2CCyBtldrCommReset
 199              		.section	.text.EZI2C_CAM_I2CCyBtldrCommRead,"ax",%progbits
 200              		.align	2
 201              		.global	EZI2C_CAM_I2CCyBtldrCommRead
 202              		.code	16
 203              		.thumb_func
 204              		.type	EZI2C_CAM_I2CCyBtldrCommRead, %function
 205              	EZI2C_CAM_I2CCyBtldrCommRead:
 206              	.LFB3:
 144:Generated_Source\PSoC4/EZI2C_CAM_I2C_BOOT.c ****     cystatus status;
 207              		.loc 1 144 0
 208              		.cfi_startproc
 209              		@ args = 0, pretend = 0, frame = 0
 210              		@ frame_needed = 0, uses_anonymous_args = 0
 211              	.LVL5:
 212 0000 F8B5     		push	{r3, r4, r5, r6, r7, lr}
 213              		.cfi_def_cfa_offset 24
 214              		.cfi_offset 3, -24
 215              		.cfi_offset 4, -20
 216              		.cfi_offset 5, -16
 217              		.cfi_offset 6, -12
 218              		.cfi_offset 7, -8
 219              		.cfi_offset 14, -4
 220 0002 0700     		movs	r7, r0
 221 0004 0E00     		movs	r6, r1
 222 0006 1500     		movs	r5, r2
ARM GAS  C:\Users\ilya\AppData\Local\Temp\ccXJghua.s 			page 10


 223              	.LVL6:
 150:Generated_Source\PSoC4/EZI2C_CAM_I2C_BOOT.c ****     {
 224              		.loc 1 150 0
 225 0008 0028     		cmp	r0, #0
 226 000a 25D0     		beq	.L19
 150:Generated_Source\PSoC4/EZI2C_CAM_I2C_BOOT.c ****     {
 227              		.loc 1 150 0 is_stmt 0 discriminator 1
 228 000c 0029     		cmp	r1, #0
 229 000e 25D0     		beq	.L20
 230              	.LVL7:
 153:Generated_Source\PSoC4/EZI2C_CAM_I2C_BOOT.c **** 
 231              		.loc 1 153 0 is_stmt 1
 232 0010 9A00     		lsls	r2, r3, #2
 233              	.LVL8:
 234 0012 D318     		adds	r3, r2, r3
 235              	.LVL9:
 236 0014 5C00     		lsls	r4, r3, #1
 237              	.LVL10:
 155:Generated_Source\PSoC4/EZI2C_CAM_I2C_BOOT.c ****         {
 238              		.loc 1 155 0
 239 0016 1BE0     		b	.L15
 240              	.LVL11:
 241              	.L18:
 158:Generated_Source\PSoC4/EZI2C_CAM_I2C_BOOT.c ****             {
 242              		.loc 1 158 0
 243 0018 114B     		ldr	r3, .L21
 244 001a 1B78     		ldrb	r3, [r3]
 245 001c DB06     		lsls	r3, r3, #27
 246 001e 13D5     		bpl	.L16
 161:Generated_Source\PSoC4/EZI2C_CAM_I2C_BOOT.c **** 
 247              		.loc 1 161 0
 248 0020 104B     		ldr	r3, .L21+4
 249 0022 1A68     		ldr	r2, [r3]
 250 0024 2A80     		strh	r2, [r5]
 164:Generated_Source\PSoC4/EZI2C_CAM_I2C_BOOT.c ****                 EZI2C_CAM_slWrBufIndex = 0u;
 251              		.loc 1 164 0
 252 0026 0022     		movs	r2, #0
 253 0028 0D49     		ldr	r1, .L21
 254 002a 0A70     		strb	r2, [r1]
 165:Generated_Source\PSoC4/EZI2C_CAM_I2C_BOOT.c **** 
 255              		.loc 1 165 0
 256 002c 1A60     		str	r2, [r3]
 169:Generated_Source\PSoC4/EZI2C_CAM_I2C_BOOT.c **** 
 257              		.loc 1 169 0
 258 002e 2B88     		ldrh	r3, [r5]
 259 0030 321C     		adds	r2, r6, #0
 260 0032 9E42     		cmp	r6, r3
 261 0034 00D9     		bls	.L17
 262 0036 1A1C     		adds	r2, r3, #0
 263              	.L17:
 264 0038 92B2     		uxth	r2, r2
 168:Generated_Source\PSoC4/EZI2C_CAM_I2C_BOOT.c ****                                               EZI2C_CAM_BYTES_TO_COPY(*count, size));
 265              		.loc 1 168 0
 266 003a 0B49     		ldr	r1, .L21+8
 267 003c 0431     		adds	r1, r1, #4
 268 003e 3800     		movs	r0, r7
 269 0040 FFF7FEFF 		bl	memcpy
ARM GAS  C:\Users\ilya\AppData\Local\Temp\ccXJghua.s 			page 11


 270              	.LVL12:
 171:Generated_Source\PSoC4/EZI2C_CAM_I2C_BOOT.c ****                 break;
 271              		.loc 1 171 0
 272 0044 0020     		movs	r0, #0
 172:Generated_Source\PSoC4/EZI2C_CAM_I2C_BOOT.c ****             }
 273              		.loc 1 172 0
 274 0046 0AE0     		b	.L14
 275              	.LVL13:
 276              	.L16:
 175:Generated_Source\PSoC4/EZI2C_CAM_I2C_BOOT.c ****             --timeoutMs;
 277              		.loc 1 175 0
 278 0048 0120     		movs	r0, #1
 279 004a FFF7FEFF 		bl	CyDelay
 280              	.LVL14:
 176:Generated_Source\PSoC4/EZI2C_CAM_I2C_BOOT.c ****         }
 281              		.loc 1 176 0
 282 004e 013C     		subs	r4, r4, #1
 283              	.LVL15:
 284              	.L15:
 155:Generated_Source\PSoC4/EZI2C_CAM_I2C_BOOT.c ****         {
 285              		.loc 1 155 0
 286 0050 002C     		cmp	r4, #0
 287 0052 E1D1     		bne	.L18
 152:Generated_Source\PSoC4/EZI2C_CAM_I2C_BOOT.c ****         timeoutMs = ((uint32) 10u * timeOut); /* Convert from 10mS check to 1mS checks */
 288              		.loc 1 152 0
 289 0054 1020     		movs	r0, #16
 290 0056 02E0     		b	.L14
 291              	.LVL16:
 292              	.L19:
 148:Generated_Source\PSoC4/EZI2C_CAM_I2C_BOOT.c **** 
 293              		.loc 1 148 0
 294 0058 0120     		movs	r0, #1
 295              	.LVL17:
 296 005a 00E0     		b	.L14
 297              	.LVL18:
 298              	.L20:
 299 005c 0120     		movs	r0, #1
 300              	.LVL19:
 301              	.L14:
 181:Generated_Source\PSoC4/EZI2C_CAM_I2C_BOOT.c **** 
 302              		.loc 1 181 0
 303              		@ sp needed
 304              	.LVL20:
 305              	.LVL21:
 306 005e F8BD     		pop	{r3, r4, r5, r6, r7, pc}
 307              	.L22:
 308              		.align	2
 309              	.L21:
 310 0060 00000000 		.word	EZI2C_CAM_slStatus
 311 0064 00000000 		.word	EZI2C_CAM_slWrBufIndex
 312 0068 00000000 		.word	.LANCHOR0
 313              		.cfi_endproc
 314              	.LFE3:
 315              		.size	EZI2C_CAM_I2CCyBtldrCommRead, .-EZI2C_CAM_I2CCyBtldrCommRead
 316              		.section	.text.EZI2C_CAM_I2CCyBtldrCommWrite,"ax",%progbits
 317              		.align	2
 318              		.global	EZI2C_CAM_I2CCyBtldrCommWrite
ARM GAS  C:\Users\ilya\AppData\Local\Temp\ccXJghua.s 			page 12


 319              		.code	16
 320              		.thumb_func
 321              		.type	EZI2C_CAM_I2CCyBtldrCommWrite, %function
 322              	EZI2C_CAM_I2CCyBtldrCommWrite:
 323              	.LFB4:
 212:Generated_Source\PSoC4/EZI2C_CAM_I2C_BOOT.c ****     cystatus status;
 324              		.loc 1 212 0
 325              		.cfi_startproc
 326              		@ args = 0, pretend = 0, frame = 0
 327              		@ frame_needed = 0, uses_anonymous_args = 0
 328              	.LVL22:
 329 0000 70B5     		push	{r4, r5, r6, lr}
 330              		.cfi_def_cfa_offset 16
 331              		.cfi_offset 4, -16
 332              		.cfi_offset 5, -12
 333              		.cfi_offset 6, -8
 334              		.cfi_offset 14, -4
 335 0002 0C00     		movs	r4, r1
 336              	.LVL23:
 217:Generated_Source\PSoC4/EZI2C_CAM_I2C_BOOT.c ****     {
 337              		.loc 1 217 0
 338 0004 0028     		cmp	r0, #0
 339 0006 0DD0     		beq	.L25
 217:Generated_Source\PSoC4/EZI2C_CAM_I2C_BOOT.c ****     {
 340              		.loc 1 217 0 is_stmt 0 discriminator 1
 341 0008 0029     		cmp	r1, #0
 342 000a 0DD0     		beq	.L26
 220:Generated_Source\PSoC4/EZI2C_CAM_I2C_BOOT.c ****         (void) memcpy((void *) EZI2C_CAM_slReadBuf, (const void *) pData, (uint32) size);
 343              		.loc 1 220 0 is_stmt 1
 344 000c 1180     		strh	r1, [r2]
 221:Generated_Source\PSoC4/EZI2C_CAM_I2C_BOOT.c **** 
 345              		.loc 1 221 0
 346 000e 074D     		ldr	r5, .L27
 347 0010 2B00     		movs	r3, r5
 348              	.LVL24:
 349 0012 4433     		adds	r3, r3, #68
 350 0014 0A00     		movs	r2, r1
 351              	.LVL25:
 352 0016 0100     		movs	r1, r0
 353              	.LVL26:
 354 0018 1800     		movs	r0, r3
 355              	.LVL27:
 356 001a FFF7FEFF 		bl	memcpy
 357              	.LVL28:
 224:Generated_Source\PSoC4/EZI2C_CAM_I2C_BOOT.c **** 
 358              		.loc 1 224 0
 359 001e 2C60     		str	r4, [r5]
 360              	.LVL29:
 231:Generated_Source\PSoC4/EZI2C_CAM_I2C_BOOT.c ****     }
 361              		.loc 1 231 0
 362 0020 0020     		movs	r0, #0
 363 0022 02E0     		b	.L24
 364              	.LVL30:
 365              	.L25:
 215:Generated_Source\PSoC4/EZI2C_CAM_I2C_BOOT.c **** 
 366              		.loc 1 215 0
 367 0024 0120     		movs	r0, #1
ARM GAS  C:\Users\ilya\AppData\Local\Temp\ccXJghua.s 			page 13


 368              	.LVL31:
 369 0026 00E0     		b	.L24
 370              	.LVL32:
 371              	.L26:
 372 0028 0120     		movs	r0, #1
 373              	.LVL33:
 374              	.L24:
 235:Generated_Source\PSoC4/EZI2C_CAM_I2C_BOOT.c **** 
 375              		.loc 1 235 0
 376              		@ sp needed
 377 002a 70BD     		pop	{r4, r5, r6, pc}
 378              	.L28:
 379              		.align	2
 380              	.L27:
 381 002c 00000000 		.word	.LANCHOR0
 382              		.cfi_endproc
 383              	.LFE4:
 384              		.size	EZI2C_CAM_I2CCyBtldrCommWrite, .-EZI2C_CAM_I2CCyBtldrCommWrite
 385              		.bss
 386              		.align	2
 387              		.set	.LANCHOR0,. + 0
 388              		.type	EZI2C_CAM_applyBuffer, %object
 389              		.size	EZI2C_CAM_applyBuffer, 4
 390              	EZI2C_CAM_applyBuffer:
 391 0000 00000000 		.space	4
 392              		.type	EZI2C_CAM_slWriteBuf, %object
 393              		.size	EZI2C_CAM_slWriteBuf, 64
 394              	EZI2C_CAM_slWriteBuf:
 395 0004 00000000 		.space	64
 395      00000000 
 395      00000000 
 395      00000000 
 395      00000000 
 396              		.type	EZI2C_CAM_slReadBuf, %object
 397              		.size	EZI2C_CAM_slReadBuf, 64
 398              	EZI2C_CAM_slReadBuf:
 399 0044 00000000 		.space	64
 399      00000000 
 399      00000000 
 399      00000000 
 399      00000000 
 400              		.text
 401              	.Letext0:
 402              		.file 2 "Generated_Source\\PSoC4/cytypes.h"
 403              		.file 3 "Generated_Source\\PSoC4\\EZI2C_CAM_I2C_PVT.h"
 404              		.file 4 "Generated_Source\\PSoC4\\EZI2C_CAM_I2C.h"
 405              		.file 5 "Generated_Source\\PSoC4\\EZI2C_CAM.h"
 406              		.file 6 "Generated_Source\\PSoC4/CyLib.h"