ARM GAS  C:\Users\ilya\AppData\Local\Temp\ccceawPz.s 			page 1


   1              		.cpu cortex-m0
   2              		.fpu softvfp
   3              		.eabi_attribute 20, 1
   4              		.eabi_attribute 21, 1
   5              		.eabi_attribute 23, 3
   6              		.eabi_attribute 24, 1
   7              		.eabi_attribute 25, 1
   8              		.eabi_attribute 26, 1
   9              		.eabi_attribute 30, 1
  10              		.eabi_attribute 34, 0
  11              		.eabi_attribute 18, 4
  12              		.code	16
  13              		.file	"motor.c"
  14              		.text
  15              	.Ltext0:
  16              		.cfi_sections	.debug_frame
  17              		.section	.text.MotGetPos,"ax",%progbits
  18              		.align	2
  19              		.global	MotGetPos
  20              		.code	16
  21              		.thumb_func
  22              		.type	MotGetPos, %function
  23              	MotGetPos:
  24              	.LFB34:
  25              		.file 1 "motor.c"
   1:motor.c       **** /* ========================================
   2:motor.c       ****  *
   3:motor.c       ****  * Copyright YOUR COMPANY, THE YEAR
   4:motor.c       ****  * All Rights Reserved
   5:motor.c       ****  * UNPUBLISHED, LICENSED SOFTWARE.
   6:motor.c       ****  *
   7:motor.c       ****  * CONFIDENTIAL AND PROPRIETARY INFORMATION
   8:motor.c       ****  * WHICH IS THE PROPERTY OF your company.
   9:motor.c       ****  *
  10:motor.c       ****  * ========================================
  11:motor.c       **** */
  12:motor.c       **** 
  13:motor.c       **** #include "project.h"
  14:motor.c       **** 
  15:motor.c       **** int mot_start;
  16:motor.c       **** int mot_decel_start;
  17:motor.c       **** int mot_target,half_dist;
  18:motor.c       **** uint8 mot_active =0;
  19:motor.c       **** uint8 mot_homed=0;
  20:motor.c       **** int mot_pos;
  21:motor.c       **** 
  22:motor.c       **** #define ACCEL 40
  23:motor.c       **** #define MAX_V 230
  24:motor.c       **** #define MIN_SPEED_ACCEL 55
  25:motor.c       **** #define MIN_SPEED_DECEL 55
  26:motor.c       **** #define HOME_SPEED 50
  27:motor.c       **** #define HOME_I 120
  28:motor.c       **** #define RUN_I 220
  29:motor.c       **** #define RUN_I_COUNTER_SPRING 250
  30:motor.c       **** #include "math.h"
  31:motor.c       **** #include "motor.h"
  32:motor.c       **** 
ARM GAS  C:\Users\ilya\AppData\Local\Temp\ccceawPz.s 			page 2


  33:motor.c       **** int MotGetPos(void)
  34:motor.c       **** {
  26              		.loc 1 34 0
  27              		.cfi_startproc
  35:motor.c       ****     return mot_pos;
  28              		.loc 1 35 0
  29 0000 014B     		ldr	r3, .L2
  30 0002 1868     		ldr	r0, [r3]
  36:motor.c       **** }
  31              		.loc 1 36 0
  32              		@ sp needed
  33 0004 7047     		bx	lr
  34              	.L3:
  35 0006 C046     		.align	2
  36              	.L2:
  37 0008 00000000 		.word	mot_pos
  38              		.cfi_endproc
  39              	.LFE34:
  40              		.size	MotGetPos, .-MotGetPos
  41              		.section	.text.MotHome,"ax",%progbits
  42              		.align	2
  43              		.global	MotHome
  44              		.code	16
  45              		.thumb_func
  46              		.type	MotHome, %function
  47              	MotHome:
  48              	.LFB35:
  37:motor.c       **** 
  38:motor.c       **** #define TO_HOME_STEP 1000
  39:motor.c       **** void MotHome()
  40:motor.c       **** {
  49              		.loc 1 40 0
  50              		.cfi_startproc
  51 0000 38B5     		push	{r3, r4, r5, lr}
  52              		.cfi_def_cfa_offset 16
  53              		.cfi_offset 3, -16
  54              		.cfi_offset 4, -12
  55              		.cfi_offset 5, -8
  56              		.cfi_offset 14, -4
  57              	.LVL0:
  41:motor.c       ****     int x,lp=0;
  42:motor.c       ****     int to=TO_HOME_STEP;
  43:motor.c       ****     IDAC_1_SetValue(HOME_I);
  58              		.loc 1 43 0
  59 0002 7820     		mov	r0, #120
  60 0004 FFF7FEFF 		bl	IDAC_1_SetValue
  61              	.LVL1:
  44:motor.c       ****    
  45:motor.c       ****     PWM_M_WriteCompare1(HOME_SPEED);
  62              		.loc 1 45 0
  63 0008 3220     		mov	r0, #50
  64 000a FFF7FEFF 		bl	PWM_M_WriteCompare1
  65              	.LVL2:
  46:motor.c       ****     CW_Write(1);
  66              		.loc 1 46 0
  67 000e 0120     		mov	r0, #1
  68 0010 FFF7FEFF 		bl	CW_Write
ARM GAS  C:\Users\ilya\AppData\Local\Temp\ccceawPz.s 			page 3


  69              	.LVL3:
  47:motor.c       ****     STEP_COUNT_WriteCounter(10000);
  70              		.loc 1 47 0
  71 0014 1348     		ldr	r0, .L10
  72 0016 FFF7FEFF 		bl	STEP_COUNT_WriteCounter
  73              	.LVL4:
  42:motor.c       ****     IDAC_1_SetValue(HOME_I);
  74              		.loc 1 42 0
  75 001a FA24     		mov	r4, #250
  76 001c A400     		lsl	r4, r4, #2
  48:motor.c       ****     while(((x=STEP_COUNT_ReadCounter())<10008) && (to--))
  77              		.loc 1 48 0
  78 001e 03E0     		b	.L5
  79              	.LVL5:
  80              	.L7:
  49:motor.c       ****         CyDelayUs(100);
  81              		.loc 1 49 0
  82 0020 6420     		mov	r0, #100
  83              	.LVL6:
  84 0022 FFF7FEFF 		bl	CyDelayUs
  85              	.LVL7:
  48:motor.c       ****     while(((x=STEP_COUNT_ReadCounter())<10008) && (to--))
  86              		.loc 1 48 0
  87 0026 2C1C     		mov	r4, r5
  88              	.LVL8:
  89              	.L5:
  90 0028 FFF7FEFF 		bl	STEP_COUNT_ReadCounter
  91              	.LVL9:
  92 002c 0E4B     		ldr	r3, .L10+4
  93 002e 9842     		cmp	r0, r3
  94 0030 03DC     		bgt	.L9
  48:motor.c       ****     while(((x=STEP_COUNT_ReadCounter())<10008) && (to--))
  95              		.loc 1 48 0 is_stmt 0 discriminator 1
  96 0032 651E     		sub	r5, r4, #1
  97              	.LVL10:
  98 0034 002C     		cmp	r4, #0
  99 0036 F3D1     		bne	.L7
 100 0038 00E0     		b	.L6
 101              	.LVL11:
 102              	.L9:
 103 003a 0024     		mov	r4, #0
 104              	.LVL12:
 105              	.L6:
  50:motor.c       ****     
  51:motor.c       ****     
  52:motor.c       ****     //add timeout for homing
  53:motor.c       ****     while (1)
  54:motor.c       ****         {
  55:motor.c       ****             lp=lp+1;
 106              		.loc 1 55 0 is_stmt 1
 107 003c 0134     		add	r4, r4, #1
 108              	.LVL13:
  56:motor.c       ****             if (lp>3000)
 109              		.loc 1 56 0
 110 003e 0B4B     		ldr	r3, .L10+8
 111 0040 9C42     		cmp	r4, r3
 112 0042 FBDD     		ble	.L6
ARM GAS  C:\Users\ilya\AppData\Local\Temp\ccceawPz.s 			page 4


  57:motor.c       ****         if (Comp_ISENSE_GetCompare()==1)
 113              		.loc 1 57 0
 114 0044 FFF7FEFF 		bl	Comp_ISENSE_GetCompare
 115              	.LVL14:
 116 0048 0128     		cmp	r0, #1
 117 004a F7D1     		bne	.L6
  58:motor.c       ****            {
  59:motor.c       ****             mot_active=0;
 118              		.loc 1 59 0
 119 004c 084C     		ldr	r4, .L10+12
 120              	.LVL15:
 121 004e 0025     		mov	r5, #0
 122 0050 2570     		strb	r5, [r4]
  60:motor.c       ****             PWM_M_WriteCompare1(0);
 123              		.loc 1 60 0
 124 0052 0020     		mov	r0, #0
 125 0054 FFF7FEFF 		bl	PWM_M_WriteCompare1
 126              	.LVL16:
  61:motor.c       ****             mot_pos=0;
 127              		.loc 1 61 0
 128 0058 064B     		ldr	r3, .L10+16
 129 005a 1D60     		str	r5, [r3]
  62:motor.c       ****             mot_homed=1;
 130              		.loc 1 62 0
 131 005c 0123     		mov	r3, #1
 132 005e 6370     		strb	r3, [r4, #1]
  63:motor.c       ****             break;
  64:motor.c       ****            }
  65:motor.c       ****         }
  66:motor.c       **** }
 133              		.loc 1 66 0
 134              		@ sp needed
 135 0060 38BD     		pop	{r3, r4, r5, pc}
 136              	.L11:
 137 0062 C046     		.align	2
 138              	.L10:
 139 0064 10270000 		.word	10000
 140 0068 17270000 		.word	10007
 141 006c B80B0000 		.word	3000
 142 0070 00000000 		.word	.LANCHOR0
 143 0074 00000000 		.word	mot_pos
 144              		.cfi_endproc
 145              	.LFE35:
 146              		.size	MotHome, .-MotHome
 147              		.section	.text.isqrt,"ax",%progbits
 148              		.align	2
 149              		.global	isqrt
 150              		.code	16
 151              		.thumb_func
 152              		.type	isqrt, %function
 153              	isqrt:
 154              	.LFB36:
  67:motor.c       **** unsigned short isqrt(unsigned long a) {
 155              		.loc 1 67 0
 156              		.cfi_startproc
 157              	.LVL17:
 158 0000 10B5     		push	{r4, lr}
ARM GAS  C:\Users\ilya\AppData\Local\Temp\ccceawPz.s 			page 5


 159              		.cfi_def_cfa_offset 8
 160              		.cfi_offset 4, -8
 161              		.cfi_offset 14, -4
 162              	.LVL18:
  68:motor.c       ****     unsigned long rem = 0;
  69:motor.c       ****     int root = 0;
  70:motor.c       ****     int i;
  71:motor.c       **** 
  72:motor.c       ****     for (i = 0; i < 16; i++) {
 163              		.loc 1 72 0
 164 0002 0021     		mov	r1, #0
  69:motor.c       ****     int i;
 165              		.loc 1 69 0
 166 0004 0022     		mov	r2, #0
  68:motor.c       ****     unsigned long rem = 0;
 167              		.loc 1 68 0
 168 0006 0023     		mov	r3, #0
 169              		.loc 1 72 0
 170 0008 0AE0     		b	.L13
 171              	.LVL19:
 172              	.L15:
  73:motor.c       ****         root <<= 1;
 173              		.loc 1 73 0
 174 000a 5200     		lsl	r2, r2, #1
 175              	.LVL20:
  74:motor.c       ****         rem <<= 2;
 176              		.loc 1 74 0
 177 000c 9B00     		lsl	r3, r3, #2
 178              	.LVL21:
  75:motor.c       ****         rem += a >> 30;
 179              		.loc 1 75 0
 180 000e 840F     		lsr	r4, r0, #30
 181 0010 E318     		add	r3, r4, r3
 182              	.LVL22:
  76:motor.c       ****         a <<= 2;
 183              		.loc 1 76 0
 184 0012 8000     		lsl	r0, r0, #2
 185              	.LVL23:
  77:motor.c       **** 
  78:motor.c       ****         if (root < rem) {
 186              		.loc 1 78 0
 187 0014 9A42     		cmp	r2, r3
 188 0016 02D2     		bcs	.L14
  79:motor.c       ****             root++;
 189              		.loc 1 79 0
 190 0018 541C     		add	r4, r2, #1
 191              	.LVL24:
  80:motor.c       ****             rem -= root;
 192              		.loc 1 80 0
 193 001a 1B1B     		sub	r3, r3, r4
 194              	.LVL25:
  81:motor.c       ****             root++;
 195              		.loc 1 81 0
 196 001c 0232     		add	r2, r2, #2
 197              	.LVL26:
 198              	.L14:
  72:motor.c       ****         root <<= 1;
ARM GAS  C:\Users\ilya\AppData\Local\Temp\ccceawPz.s 			page 6


 199              		.loc 1 72 0 discriminator 2
 200 001e 0131     		add	r1, r1, #1
 201              	.LVL27:
 202              	.L13:
  72:motor.c       ****         root <<= 1;
 203              		.loc 1 72 0 is_stmt 0 discriminator 1
 204 0020 0F29     		cmp	r1, #15
 205 0022 F2DD     		ble	.L15
  82:motor.c       ****         }
  83:motor.c       ****     }
  84:motor.c       **** 
  85:motor.c       ****     return (unsigned short) (root >> 1);
 206              		.loc 1 85 0 is_stmt 1
 207 0024 5210     		asr	r2, r2, #1
 208              	.LVL28:
 209 0026 90B2     		uxth	r0, r2
 210              	.LVL29:
  86:motor.c       **** }
 211              		.loc 1 86 0
 212              		@ sp needed
 213 0028 10BD     		pop	{r4, pc}
 214              		.cfi_endproc
 215              	.LFE36:
 216              		.size	isqrt, .-isqrt
 217              		.section	.text.MotMoveRel,"ax",%progbits
 218              		.align	2
 219              		.global	MotMoveRel
 220              		.code	16
 221              		.thumb_func
 222              		.type	MotMoveRel, %function
 223              	MotMoveRel:
 224              	.LFB37:
  87:motor.c       **** uint8 MotMoveRel(int steps)
  88:motor.c       **** {
 225              		.loc 1 88 0
 226              		.cfi_startproc
 227              	.LVL30:
 228 0000 10B5     		push	{r4, lr}
 229              		.cfi_def_cfa_offset 8
 230              		.cfi_offset 4, -8
 231              		.cfi_offset 14, -4
 232 0002 041C     		mov	r4, r0
  89:motor.c       ****     if ( mot_active)
 233              		.loc 1 89 0
 234 0004 1A4B     		ldr	r3, .L22
 235 0006 1B78     		ldrb	r3, [r3]
 236 0008 002B     		cmp	r3, #0
 237 000a 2DD1     		bne	.L20
  90:motor.c       ****       return 0;
  91:motor.c       ****     if (steps==0)
 238              		.loc 1 91 0
 239 000c 0028     		cmp	r0, #0
 240 000e 2DD0     		beq	.L21
  92:motor.c       ****       return 1;
  93:motor.c       ****      IDAC_1_SetValue(RUN_I);
 241              		.loc 1 93 0
 242 0010 DC20     		mov	r0, #220
ARM GAS  C:\Users\ilya\AppData\Local\Temp\ccceawPz.s 			page 7


 243              	.LVL31:
 244 0012 FFF7FEFF 		bl	IDAC_1_SetValue
 245              	.LVL32:
  94:motor.c       ****     mot_pos+=steps;
 246              		.loc 1 94 0
 247 0016 174A     		ldr	r2, .L22+4
 248 0018 1368     		ldr	r3, [r2]
 249 001a 1B19     		add	r3, r3, r4
 250 001c 1360     		str	r3, [r2]
  95:motor.c       ****     if (steps>0)
 251              		.loc 1 95 0
 252 001e 002C     		cmp	r4, #0
 253 0020 06DD     		ble	.L18
  96:motor.c       ****     {
  97:motor.c       ****        CW_Write(0);
 254              		.loc 1 97 0
 255 0022 0020     		mov	r0, #0
 256 0024 FFF7FEFF 		bl	CW_Write
 257              	.LVL33:
  98:motor.c       ****     IDAC_1_SetValue(RUN_I_COUNTER_SPRING);
 258              		.loc 1 98 0
 259 0028 FA20     		mov	r0, #250
 260 002a FFF7FEFF 		bl	IDAC_1_SetValue
 261              	.LVL34:
 262 002e 06E0     		b	.L19
 263              	.L18:
  99:motor.c       ****     }
 100:motor.c       ****     else
 101:motor.c       ****        {
 102:motor.c       ****         CW_Write(1);
 264              		.loc 1 102 0
 265 0030 0120     		mov	r0, #1
 266 0032 FFF7FEFF 		bl	CW_Write
 267              	.LVL35:
 103:motor.c       ****         steps=-steps;
 268              		.loc 1 103 0
 269 0036 6442     		neg	r4, r4
 270              	.LVL36:
 104:motor.c       ****         IDAC_1_SetValue(RUN_I);
 271              		.loc 1 104 0
 272 0038 DC20     		mov	r0, #220
 273 003a FFF7FEFF 		bl	IDAC_1_SetValue
 274              	.LVL37:
 275              	.L19:
 105:motor.c       ****        }
 106:motor.c       ****     
 107:motor.c       ****     STEP_COUNT_WriteCounter(10000);
 276              		.loc 1 107 0
 277 003e 0E48     		ldr	r0, .L22+8
 278 0040 FFF7FEFF 		bl	STEP_COUNT_WriteCounter
 279              	.LVL38:
 108:motor.c       ****     mot_start=STEP_COUNT_ReadCounter();
 280              		.loc 1 108 0
 281 0044 FFF7FEFF 		bl	STEP_COUNT_ReadCounter
 282              	.LVL39:
 283 0048 0C4B     		ldr	r3, .L22+12
 284 004a 1860     		str	r0, [r3]
ARM GAS  C:\Users\ilya\AppData\Local\Temp\ccceawPz.s 			page 8


 109:motor.c       ****     mot_target = mot_start +steps;
 285              		.loc 1 109 0
 286 004c 2218     		add	r2, r4, r0
 287 004e 0C4B     		ldr	r3, .L22+16
 288 0050 1A60     		str	r2, [r3]
 110:motor.c       ****     half_dist = mot_start +steps/2;
 289              		.loc 1 110 0
 290 0052 E30F     		lsr	r3, r4, #31
 291 0054 1C19     		add	r4, r3, r4
 292              	.LVL40:
 293 0056 6410     		asr	r4, r4, #1
 294 0058 0019     		add	r0, r0, r4
 295 005a 0A4B     		ldr	r3, .L22+20
 296 005c 1860     		str	r0, [r3]
 111:motor.c       ****     mot_active=1;
 297              		.loc 1 111 0
 298 005e 0122     		mov	r2, #1
 299 0060 034B     		ldr	r3, .L22
 300 0062 1A70     		strb	r2, [r3]
 112:motor.c       ****     return 1;
 301              		.loc 1 112 0
 302 0064 0120     		mov	r0, #1
 303 0066 02E0     		b	.L17
 304              	.LVL41:
 305              	.L20:
  90:motor.c       ****     if (steps==0)
 306              		.loc 1 90 0
 307 0068 0020     		mov	r0, #0
 308              	.LVL42:
 309 006a 00E0     		b	.L17
 310              	.LVL43:
 311              	.L21:
  92:motor.c       ****      IDAC_1_SetValue(RUN_I);
 312              		.loc 1 92 0
 313 006c 0120     		mov	r0, #1
 314              	.LVL44:
 315              	.L17:
 113:motor.c       **** }
 316              		.loc 1 113 0
 317              		@ sp needed
 318 006e 10BD     		pop	{r4, pc}
 319              	.L23:
 320              		.align	2
 321              	.L22:
 322 0070 00000000 		.word	.LANCHOR0
 323 0074 00000000 		.word	mot_pos
 324 0078 10270000 		.word	10000
 325 007c 00000000 		.word	mot_start
 326 0080 00000000 		.word	mot_target
 327 0084 00000000 		.word	half_dist
 328              		.cfi_endproc
 329              	.LFE37:
 330              		.size	MotMoveRel, .-MotMoveRel
 331              		.section	.text.MotTask,"ax",%progbits
 332              		.align	2
 333              		.global	MotTask
 334              		.code	16
ARM GAS  C:\Users\ilya\AppData\Local\Temp\ccceawPz.s 			page 9


 335              		.thumb_func
 336              		.type	MotTask, %function
 337              	MotTask:
 338              	.LFB38:
 114:motor.c       **** int last_p, last_x;
 115:motor.c       **** int MotTask()
 116:motor.c       **** {
 339              		.loc 1 116 0
 340              		.cfi_startproc
 341 0000 38B5     		push	{r3, r4, r5, lr}
 342              		.cfi_def_cfa_offset 16
 343              		.cfi_offset 3, -16
 344              		.cfi_offset 4, -12
 345              		.cfi_offset 5, -8
 346              		.cfi_offset 14, -4
 117:motor.c       ****    int x,p;
 118:motor.c       ****     
 119:motor.c       ****    if (mot_active)
 347              		.loc 1 119 0
 348 0002 244B     		ldr	r3, .L34
 349 0004 1B78     		ldrb	r3, [r3]
 350 0006 002B     		cmp	r3, #0
 351 0008 41D0     		beq	.L31
 120:motor.c       ****        {
 121:motor.c       ****         x=STEP_COUNT_ReadCounter();
 352              		.loc 1 121 0
 353 000a FFF7FEFF 		bl	STEP_COUNT_ReadCounter
 354              	.LVL45:
 355 000e 051C     		mov	r5, r0
 356              	.LVL46:
 122:motor.c       ****         if (Comp_ISENSE_GetCompare()==1)
 357              		.loc 1 122 0
 358 0010 FFF7FEFF 		bl	Comp_ISENSE_GetCompare
 359              	.LVL47:
 360 0014 0128     		cmp	r0, #1
 361 0016 07D1     		bne	.L26
 123:motor.c       ****            {
 124:motor.c       ****             mot_active=0;
 362              		.loc 1 124 0
 363 0018 0022     		mov	r2, #0
 364 001a 1E4B     		ldr	r3, .L34
 365 001c 1A70     		strb	r2, [r3]
 125:motor.c       ****             PWM_M_WriteCompare1(0);
 366              		.loc 1 125 0
 367 001e 0020     		mov	r0, #0
 368 0020 FFF7FEFF 		bl	PWM_M_WriteCompare1
 369              	.LVL48:
 126:motor.c       ****             return 0;
 370              		.loc 1 126 0
 371 0024 0020     		mov	r0, #0
 372 0026 33E0     		b	.L25
 373              	.L26:
 127:motor.c       ****            }
 128:motor.c       ****        
 129:motor.c       ****        if (x<half_dist)
 374              		.loc 1 129 0
 375 0028 1B4B     		ldr	r3, .L34+4
ARM GAS  C:\Users\ilya\AppData\Local\Temp\ccceawPz.s 			page 10


 376 002a 1B68     		ldr	r3, [r3]
 377 002c 9D42     		cmp	r5, r3
 378 002e 0ADA     		bge	.L27
 130:motor.c       ****             p = isqrt((x-mot_start)*ACCEL*2)+MIN_SPEED_ACCEL;
 379              		.loc 1 130 0
 380 0030 1A4B     		ldr	r3, .L34+8
 381 0032 1868     		ldr	r0, [r3]
 382 0034 2B1A     		sub	r3, r5, r0
 383 0036 9800     		lsl	r0, r3, #2
 384 0038 C018     		add	r0, r0, r3
 385 003a 0001     		lsl	r0, r0, #4
 386 003c FFF7FEFF 		bl	isqrt
 387              	.LVL49:
 388 0040 3730     		add	r0, r0, #55
 389 0042 041C     		mov	r4, r0
 390              	.LVL50:
 391 0044 0DE0     		b	.L28
 392              	.LVL51:
 393              	.L27:
 131:motor.c       ****        else
 132:motor.c       ****                if (mot_target-x>0)
 394              		.loc 1 132 0
 395 0046 164B     		ldr	r3, .L34+12
 396 0048 1B68     		ldr	r3, [r3]
 397 004a 5B1B     		sub	r3, r3, r5
 398 004c 002B     		cmp	r3, #0
 399 004e 07DD     		ble	.L32
 133:motor.c       ****                     p = isqrt((mot_target-x)*ACCEL*2)+MIN_SPEED_DECEL;
 400              		.loc 1 133 0
 401 0050 9800     		lsl	r0, r3, #2
 402 0052 C018     		add	r0, r0, r3
 403 0054 0001     		lsl	r0, r0, #4
 404 0056 FFF7FEFF 		bl	isqrt
 405              	.LVL52:
 406 005a 3730     		add	r0, r0, #55
 407 005c 041C     		mov	r4, r0
 408              	.LVL53:
 409 005e 00E0     		b	.L28
 410              	.LVL54:
 411              	.L32:
 134:motor.c       ****                else
 135:motor.c       ****                     p=0;
 412              		.loc 1 135 0
 413 0060 0024     		mov	r4, #0
 414              	.L28:
 415              	.LVL55:
 136:motor.c       ****        if (p>MAX_V)
 416              		.loc 1 136 0
 417 0062 E62C     		cmp	r4, #230
 418 0064 00DD     		ble	.L29
 137:motor.c       ****           p=MAX_V;
 419              		.loc 1 137 0
 420 0066 E624     		mov	r4, #230
 421              	.LVL56:
 422              	.L29:
 138:motor.c       ****        PWM_M_WriteCompare1(p);
 423              		.loc 1 138 0
ARM GAS  C:\Users\ilya\AppData\Local\Temp\ccceawPz.s 			page 11


 424 0068 E0B2     		uxtb	r0, r4
 425 006a FFF7FEFF 		bl	PWM_M_WriteCompare1
 426              	.LVL57:
 139:motor.c       ****        if (x>=mot_target)
 427              		.loc 1 139 0
 428 006e 0C4B     		ldr	r3, .L34+12
 429 0070 1B68     		ldr	r3, [r3]
 430 0072 9D42     		cmp	r5, r3
 431 0074 05DB     		blt	.L30
 140:motor.c       ****           {
 141:motor.c       ****           mot_active=0;
 432              		.loc 1 141 0
 433 0076 0022     		mov	r2, #0
 434 0078 064B     		ldr	r3, .L34
 435 007a 1A70     		strb	r2, [r3]
 142:motor.c       ****           PWM_M_WriteCompare1(0);
 436              		.loc 1 142 0
 437 007c 0020     		mov	r0, #0
 438 007e FFF7FEFF 		bl	PWM_M_WriteCompare1
 439              	.LVL58:
 440              	.L30:
 143:motor.c       ****           }
 144:motor.c       ****          last_p=p;
 441              		.loc 1 144 0
 442 0082 084B     		ldr	r3, .L34+16
 443 0084 1C60     		str	r4, [r3]
 145:motor.c       ****          last_x=x;
 444              		.loc 1 145 0
 445 0086 084B     		ldr	r3, .L34+20
 446 0088 1D60     		str	r5, [r3]
 146:motor.c       ****         return 1;
 447              		.loc 1 146 0
 448 008a 0120     		mov	r0, #1
 449 008c 00E0     		b	.L25
 450              	.LVL59:
 451              	.L31:
 147:motor.c       ****      }
 148:motor.c       **** 
 149:motor.c       ****     return 0;
 452              		.loc 1 149 0
 453 008e 0020     		mov	r0, #0
 454              	.L25:
 150:motor.c       **** }
 455              		.loc 1 150 0
 456              		@ sp needed
 457 0090 38BD     		pop	{r3, r4, r5, pc}
 458              	.L35:
 459 0092 C046     		.align	2
 460              	.L34:
 461 0094 00000000 		.word	.LANCHOR0
 462 0098 00000000 		.word	half_dist
 463 009c 00000000 		.word	mot_start
 464 00a0 00000000 		.word	mot_target
 465 00a4 00000000 		.word	last_p
 466 00a8 00000000 		.word	last_x
 467              		.cfi_endproc
 468              	.LFE38:
ARM GAS  C:\Users\ilya\AppData\Local\Temp\ccceawPz.s 			page 12


 469              		.size	MotTask, .-MotTask
 470              		.comm	last_x,4,4
 471              		.comm	last_p,4,4
 472              		.comm	mot_pos,4,4
 473              		.global	mot_homed
 474              		.global	mot_active
 475              		.comm	half_dist,4,4
 476              		.comm	mot_target,4,4
 477              		.comm	mot_decel_start,4,4
 478              		.comm	mot_start,4,4
 479              		.bss
 480              		.set	.LANCHOR0,. + 0
 481              		.type	mot_active, %object
 482              		.size	mot_active, 1
 483              	mot_active:
 484 0000 00       		.space	1
 485              		.type	mot_homed, %object
 486              		.size	mot_homed, 1
 487              	mot_homed:
 488 0001 00       		.space	1
 489              		.text
 490              	.Letext0:
 491              		.file 2 "Generated_Source\\PSoC4/cytypes.h"
 492              		.file 3 "Generated_Source\\PSoC4/IDAC_1.h"
 493              		.file 4 "Generated_Source\\PSoC4/PWM_M.h"
 494              		.file 5 "Generated_Source\\PSoC4/CW.h"
 495              		.file 6 "Generated_Source\\PSoC4/STEP_COUNT.h"
 496              		.file 7 "Generated_Source\\PSoC4/CyLib.h"
 497              		.file 8 "Generated_Source\\PSoC4/Comp_ISENSE.h"