ARM GAS  C:\Users\Yiquing\AppData\Local\Temp\cciOLkYi.s 			page 1


   1              		.syntax unified
   2              		.cpu cortex-m3
   3              		.fpu softvfp
   4              		.eabi_attribute 20, 1
   5              		.eabi_attribute 21, 1
   6              		.eabi_attribute 23, 3
   7              		.eabi_attribute 24, 1
   8              		.eabi_attribute 25, 1
   9              		.eabi_attribute 26, 1
  10              		.eabi_attribute 30, 6
  11              		.eabi_attribute 34, 1
  12              		.eabi_attribute 18, 4
  13              		.thumb
  14              		.file	"EZI2CPin.c"
  15              		.text
  16              	.Ltext0:
  17              		.cfi_sections	.debug_frame
  18              		.section	.text.EZI2CPin_Write,"ax",%progbits
  19              		.align	2
  20              		.global	EZI2CPin_Write
  21              		.thumb
  22              		.thumb_func
  23              		.type	EZI2CPin_Write, %function
  24              	EZI2CPin_Write:
  25              	.LFB0:
  26              		.file 1 ".\\Generated_Source\\PSoC5\\EZI2CPin.c"
   1:.\Generated_Source\PSoC5/EZI2CPin.c **** /*******************************************************************************
   2:.\Generated_Source\PSoC5/EZI2CPin.c **** * File Name: EZI2CPin.c  
   3:.\Generated_Source\PSoC5/EZI2CPin.c **** * Version 2.10
   4:.\Generated_Source\PSoC5/EZI2CPin.c **** *
   5:.\Generated_Source\PSoC5/EZI2CPin.c **** * Description:
   6:.\Generated_Source\PSoC5/EZI2CPin.c **** *  This file contains API to enable firmware control of a Pins component.
   7:.\Generated_Source\PSoC5/EZI2CPin.c **** *
   8:.\Generated_Source\PSoC5/EZI2CPin.c **** * Note:
   9:.\Generated_Source\PSoC5/EZI2CPin.c **** *
  10:.\Generated_Source\PSoC5/EZI2CPin.c **** ********************************************************************************
  11:.\Generated_Source\PSoC5/EZI2CPin.c **** * Copyright 2008-2014, Cypress Semiconductor Corporation.  All rights reserved.
  12:.\Generated_Source\PSoC5/EZI2CPin.c **** * You may use this file only in accordance with the license, terms, conditions, 
  13:.\Generated_Source\PSoC5/EZI2CPin.c **** * disclaimers, and limitations in the end user license agreement accompanying 
  14:.\Generated_Source\PSoC5/EZI2CPin.c **** * the software package with which this file was provided.
  15:.\Generated_Source\PSoC5/EZI2CPin.c **** *******************************************************************************/
  16:.\Generated_Source\PSoC5/EZI2CPin.c **** 
  17:.\Generated_Source\PSoC5/EZI2CPin.c **** #include "cytypes.h"
  18:.\Generated_Source\PSoC5/EZI2CPin.c **** #include "EZI2CPin.h"
  19:.\Generated_Source\PSoC5/EZI2CPin.c **** 
  20:.\Generated_Source\PSoC5/EZI2CPin.c **** /* APIs are not generated for P15[7:6] on PSoC 5 */
  21:.\Generated_Source\PSoC5/EZI2CPin.c **** #if !(CY_PSOC5A &&\
  22:.\Generated_Source\PSoC5/EZI2CPin.c **** 	 EZI2CPin__PORT == 15 && ((EZI2CPin__MASK & 0xC0) != 0))
  23:.\Generated_Source\PSoC5/EZI2CPin.c **** 
  24:.\Generated_Source\PSoC5/EZI2CPin.c **** 
  25:.\Generated_Source\PSoC5/EZI2CPin.c **** /*******************************************************************************
  26:.\Generated_Source\PSoC5/EZI2CPin.c **** * Function Name: EZI2CPin_Write
  27:.\Generated_Source\PSoC5/EZI2CPin.c **** ********************************************************************************
  28:.\Generated_Source\PSoC5/EZI2CPin.c **** *
  29:.\Generated_Source\PSoC5/EZI2CPin.c **** * Summary:
  30:.\Generated_Source\PSoC5/EZI2CPin.c **** *  Assign a new value to the digital port's data output register.  
  31:.\Generated_Source\PSoC5/EZI2CPin.c **** *
ARM GAS  C:\Users\Yiquing\AppData\Local\Temp\cciOLkYi.s 			page 2


  32:.\Generated_Source\PSoC5/EZI2CPin.c **** * Parameters:  
  33:.\Generated_Source\PSoC5/EZI2CPin.c **** *  prtValue:  The value to be assigned to the Digital Port. 
  34:.\Generated_Source\PSoC5/EZI2CPin.c **** *
  35:.\Generated_Source\PSoC5/EZI2CPin.c **** * Return: 
  36:.\Generated_Source\PSoC5/EZI2CPin.c **** *  None
  37:.\Generated_Source\PSoC5/EZI2CPin.c **** *  
  38:.\Generated_Source\PSoC5/EZI2CPin.c **** *******************************************************************************/
  39:.\Generated_Source\PSoC5/EZI2CPin.c **** void EZI2CPin_Write(uint8 value) 
  40:.\Generated_Source\PSoC5/EZI2CPin.c **** {
  27              		.loc 1 40 0
  28              		.cfi_startproc
  29              		@ args = 0, pretend = 0, frame = 16
  30              		@ frame_needed = 1, uses_anonymous_args = 0
  31              		@ link register save eliminated.
  32 0000 80B4     		push	{r7}
  33              		.cfi_def_cfa_offset 4
  34              		.cfi_offset 7, -4
  35 0002 85B0     		sub	sp, sp, #20
  36              		.cfi_def_cfa_offset 24
  37 0004 00AF     		add	r7, sp, #0
  38              		.cfi_def_cfa_register 7
  39 0006 0346     		mov	r3, r0
  40 0008 FB71     		strb	r3, [r7, #7]
  41:.\Generated_Source\PSoC5/EZI2CPin.c ****     uint8 staticBits = (EZI2CPin_DR & (uint8)(~EZI2CPin_MASK));
  41              		.loc 1 41 0
  42 000a 0B4B     		ldr	r3, .L2
  43 000c 1B78     		ldrb	r3, [r3]
  44 000e DBB2     		uxtb	r3, r3
  45 0010 23F03003 		bic	r3, r3, #48
  46 0014 FB73     		strb	r3, [r7, #15]
  42:.\Generated_Source\PSoC5/EZI2CPin.c ****     EZI2CPin_DR = staticBits | ((uint8)(value << EZI2CPin_SHIFT) & EZI2CPin_MASK);
  47              		.loc 1 42 0
  48 0016 084B     		ldr	r3, .L2
  49 0018 FA79     		ldrb	r2, [r7, #7]
  50 001a 1201     		lsls	r2, r2, #4
  51 001c D2B2     		uxtb	r2, r2
  52 001e 02F03002 		and	r2, r2, #48
  53 0022 D1B2     		uxtb	r1, r2
  54 0024 FA7B     		ldrb	r2, [r7, #15]
  55 0026 0A43     		orrs	r2, r2, r1
  56 0028 D2B2     		uxtb	r2, r2
  57 002a 1A70     		strb	r2, [r3]
  43:.\Generated_Source\PSoC5/EZI2CPin.c **** }
  58              		.loc 1 43 0
  59 002c 1437     		adds	r7, r7, #20
  60 002e BD46     		mov	sp, r7
  61              		@ sp needed
  62 0030 5DF8047B 		ldr	r7, [sp], #4
  63 0034 7047     		bx	lr
  64              	.L3:
  65 0036 00BF     		.align	2
  66              	.L2:
  67 0038 C0510040 		.word	1073762752
  68              		.cfi_endproc
  69              	.LFE0:
  70              		.size	EZI2CPin_Write, .-EZI2CPin_Write
  71              		.section	.text.EZI2CPin_SetDriveMode,"ax",%progbits
ARM GAS  C:\Users\Yiquing\AppData\Local\Temp\cciOLkYi.s 			page 3


  72              		.align	2
  73              		.global	EZI2CPin_SetDriveMode
  74              		.thumb
  75              		.thumb_func
  76              		.type	EZI2CPin_SetDriveMode, %function
  77              	EZI2CPin_SetDriveMode:
  78              	.LFB1:
  44:.\Generated_Source\PSoC5/EZI2CPin.c **** 
  45:.\Generated_Source\PSoC5/EZI2CPin.c **** 
  46:.\Generated_Source\PSoC5/EZI2CPin.c **** /*******************************************************************************
  47:.\Generated_Source\PSoC5/EZI2CPin.c **** * Function Name: EZI2CPin_SetDriveMode
  48:.\Generated_Source\PSoC5/EZI2CPin.c **** ********************************************************************************
  49:.\Generated_Source\PSoC5/EZI2CPin.c **** *
  50:.\Generated_Source\PSoC5/EZI2CPin.c **** * Summary:
  51:.\Generated_Source\PSoC5/EZI2CPin.c **** *  Change the drive mode on the pins of the port.
  52:.\Generated_Source\PSoC5/EZI2CPin.c **** * 
  53:.\Generated_Source\PSoC5/EZI2CPin.c **** * Parameters:  
  54:.\Generated_Source\PSoC5/EZI2CPin.c **** *  mode:  Change the pins to one of the following drive modes.
  55:.\Generated_Source\PSoC5/EZI2CPin.c **** *
  56:.\Generated_Source\PSoC5/EZI2CPin.c **** *  EZI2CPin_DM_STRONG     Strong Drive 
  57:.\Generated_Source\PSoC5/EZI2CPin.c **** *  EZI2CPin_DM_OD_HI      Open Drain, Drives High 
  58:.\Generated_Source\PSoC5/EZI2CPin.c **** *  EZI2CPin_DM_OD_LO      Open Drain, Drives Low 
  59:.\Generated_Source\PSoC5/EZI2CPin.c **** *  EZI2CPin_DM_RES_UP     Resistive Pull Up 
  60:.\Generated_Source\PSoC5/EZI2CPin.c **** *  EZI2CPin_DM_RES_DWN    Resistive Pull Down 
  61:.\Generated_Source\PSoC5/EZI2CPin.c **** *  EZI2CPin_DM_RES_UPDWN  Resistive Pull Up/Down 
  62:.\Generated_Source\PSoC5/EZI2CPin.c **** *  EZI2CPin_DM_DIG_HIZ    High Impedance Digital 
  63:.\Generated_Source\PSoC5/EZI2CPin.c **** *  EZI2CPin_DM_ALG_HIZ    High Impedance Analog 
  64:.\Generated_Source\PSoC5/EZI2CPin.c **** *
  65:.\Generated_Source\PSoC5/EZI2CPin.c **** * Return: 
  66:.\Generated_Source\PSoC5/EZI2CPin.c **** *  None
  67:.\Generated_Source\PSoC5/EZI2CPin.c **** *
  68:.\Generated_Source\PSoC5/EZI2CPin.c **** *******************************************************************************/
  69:.\Generated_Source\PSoC5/EZI2CPin.c **** void EZI2CPin_SetDriveMode(uint8 mode) 
  70:.\Generated_Source\PSoC5/EZI2CPin.c **** {
  79              		.loc 1 70 0
  80              		.cfi_startproc
  81              		@ args = 0, pretend = 0, frame = 8
  82              		@ frame_needed = 1, uses_anonymous_args = 0
  83              		@ link register save eliminated.
  84 0000 80B4     		push	{r7}
  85              		.cfi_def_cfa_offset 4
  86              		.cfi_offset 7, -4
  87 0002 83B0     		sub	sp, sp, #12
  88              		.cfi_def_cfa_offset 16
  89 0004 00AF     		add	r7, sp, #0
  90              		.cfi_def_cfa_register 7
  91 0006 0346     		mov	r3, r0
  92 0008 FB71     		strb	r3, [r7, #7]
  71:.\Generated_Source\PSoC5/EZI2CPin.c **** 	CyPins_SetPinDriveMode(EZI2CPin_0, mode);
  93              		.loc 1 71 0
  94 000a 124B     		ldr	r3, .L5
  95 000c 114A     		ldr	r2, .L5
  96 000e 1278     		ldrb	r2, [r2]
  97 0010 D2B2     		uxtb	r2, r2
  98 0012 D2B2     		uxtb	r2, r2
  99 0014 22F00E02 		bic	r2, r2, #14
 100 0018 D1B2     		uxtb	r1, r2
ARM GAS  C:\Users\Yiquing\AppData\Local\Temp\cciOLkYi.s 			page 4


 101 001a FA79     		ldrb	r2, [r7, #7]	@ zero_extendqisi2
 102 001c 02F00E02 		and	r2, r2, #14
 103 0020 D2B2     		uxtb	r2, r2
 104 0022 0A43     		orrs	r2, r2, r1
 105 0024 D2B2     		uxtb	r2, r2
 106 0026 D2B2     		uxtb	r2, r2
 107 0028 1A70     		strb	r2, [r3]
  72:.\Generated_Source\PSoC5/EZI2CPin.c **** 	CyPins_SetPinDriveMode(EZI2CPin_1, mode);
 108              		.loc 1 72 0
 109 002a 0B4B     		ldr	r3, .L5+4
 110 002c 0A4A     		ldr	r2, .L5+4
 111 002e 1278     		ldrb	r2, [r2]
 112 0030 D2B2     		uxtb	r2, r2
 113 0032 D2B2     		uxtb	r2, r2
 114 0034 22F00E02 		bic	r2, r2, #14
 115 0038 D1B2     		uxtb	r1, r2
 116 003a FA79     		ldrb	r2, [r7, #7]	@ zero_extendqisi2
 117 003c 02F00E02 		and	r2, r2, #14
 118 0040 D2B2     		uxtb	r2, r2
 119 0042 0A43     		orrs	r2, r2, r1
 120 0044 D2B2     		uxtb	r2, r2
 121 0046 D2B2     		uxtb	r2, r2
 122 0048 1A70     		strb	r2, [r3]
  73:.\Generated_Source\PSoC5/EZI2CPin.c **** }
 123              		.loc 1 73 0
 124 004a 0C37     		adds	r7, r7, #12
 125 004c BD46     		mov	sp, r7
 126              		@ sp needed
 127 004e 5DF8047B 		ldr	r7, [sp], #4
 128 0052 7047     		bx	lr
 129              	.L6:
 130              		.align	2
 131              	.L5:
 132 0054 64500040 		.word	1073762404
 133 0058 65500040 		.word	1073762405
 134              		.cfi_endproc
 135              	.LFE1:
 136              		.size	EZI2CPin_SetDriveMode, .-EZI2CPin_SetDriveMode
 137              		.section	.text.EZI2CPin_Read,"ax",%progbits
 138              		.align	2
 139              		.global	EZI2CPin_Read
 140              		.thumb
 141              		.thumb_func
 142              		.type	EZI2CPin_Read, %function
 143              	EZI2CPin_Read:
 144              	.LFB2:
  74:.\Generated_Source\PSoC5/EZI2CPin.c **** 
  75:.\Generated_Source\PSoC5/EZI2CPin.c **** 
  76:.\Generated_Source\PSoC5/EZI2CPin.c **** /*******************************************************************************
  77:.\Generated_Source\PSoC5/EZI2CPin.c **** * Function Name: EZI2CPin_Read
  78:.\Generated_Source\PSoC5/EZI2CPin.c **** ********************************************************************************
  79:.\Generated_Source\PSoC5/EZI2CPin.c **** *
  80:.\Generated_Source\PSoC5/EZI2CPin.c **** * Summary:
  81:.\Generated_Source\PSoC5/EZI2CPin.c **** *  Read the current value on the pins of the Digital Port in right justified 
  82:.\Generated_Source\PSoC5/EZI2CPin.c **** *  form.
  83:.\Generated_Source\PSoC5/EZI2CPin.c **** *
  84:.\Generated_Source\PSoC5/EZI2CPin.c **** * Parameters:  
ARM GAS  C:\Users\Yiquing\AppData\Local\Temp\cciOLkYi.s 			page 5


  85:.\Generated_Source\PSoC5/EZI2CPin.c **** *  None
  86:.\Generated_Source\PSoC5/EZI2CPin.c **** *
  87:.\Generated_Source\PSoC5/EZI2CPin.c **** * Return: 
  88:.\Generated_Source\PSoC5/EZI2CPin.c **** *  Returns the current value of the Digital Port as a right justified number
  89:.\Generated_Source\PSoC5/EZI2CPin.c **** *  
  90:.\Generated_Source\PSoC5/EZI2CPin.c **** * Note:
  91:.\Generated_Source\PSoC5/EZI2CPin.c **** *  Macro EZI2CPin_ReadPS calls this function. 
  92:.\Generated_Source\PSoC5/EZI2CPin.c **** *  
  93:.\Generated_Source\PSoC5/EZI2CPin.c **** *******************************************************************************/
  94:.\Generated_Source\PSoC5/EZI2CPin.c **** uint8 EZI2CPin_Read(void) 
  95:.\Generated_Source\PSoC5/EZI2CPin.c **** {
 145              		.loc 1 95 0
 146              		.cfi_startproc
 147              		@ args = 0, pretend = 0, frame = 0
 148              		@ frame_needed = 1, uses_anonymous_args = 0
 149              		@ link register save eliminated.
 150 0000 80B4     		push	{r7}
 151              		.cfi_def_cfa_offset 4
 152              		.cfi_offset 7, -4
 153 0002 00AF     		add	r7, sp, #0
 154              		.cfi_def_cfa_register 7
  96:.\Generated_Source\PSoC5/EZI2CPin.c ****     return (EZI2CPin_PS & EZI2CPin_MASK) >> EZI2CPin_SHIFT;
 155              		.loc 1 96 0
 156 0004 054B     		ldr	r3, .L9
 157 0006 1B78     		ldrb	r3, [r3]
 158 0008 DBB2     		uxtb	r3, r3
 159 000a 03F03003 		and	r3, r3, #48
 160 000e 1B09     		lsrs	r3, r3, #4
 161 0010 DBB2     		uxtb	r3, r3
  97:.\Generated_Source\PSoC5/EZI2CPin.c **** }
 162              		.loc 1 97 0
 163 0012 1846     		mov	r0, r3
 164 0014 BD46     		mov	sp, r7
 165              		@ sp needed
 166 0016 5DF8047B 		ldr	r7, [sp], #4
 167 001a 7047     		bx	lr
 168              	.L10:
 169              		.align	2
 170              	.L9:
 171 001c C1510040 		.word	1073762753
 172              		.cfi_endproc
 173              	.LFE2:
 174              		.size	EZI2CPin_Read, .-EZI2CPin_Read
 175              		.section	.text.EZI2CPin_ReadDataReg,"ax",%progbits
 176              		.align	2
 177              		.global	EZI2CPin_ReadDataReg
 178              		.thumb
 179              		.thumb_func
 180              		.type	EZI2CPin_ReadDataReg, %function
 181              	EZI2CPin_ReadDataReg:
 182              	.LFB3:
  98:.\Generated_Source\PSoC5/EZI2CPin.c **** 
  99:.\Generated_Source\PSoC5/EZI2CPin.c **** 
 100:.\Generated_Source\PSoC5/EZI2CPin.c **** /*******************************************************************************
 101:.\Generated_Source\PSoC5/EZI2CPin.c **** * Function Name: EZI2CPin_ReadDataReg
 102:.\Generated_Source\PSoC5/EZI2CPin.c **** ********************************************************************************
 103:.\Generated_Source\PSoC5/EZI2CPin.c **** *
ARM GAS  C:\Users\Yiquing\AppData\Local\Temp\cciOLkYi.s 			page 6


 104:.\Generated_Source\PSoC5/EZI2CPin.c **** * Summary:
 105:.\Generated_Source\PSoC5/EZI2CPin.c **** *  Read the current value assigned to a Digital Port's data output register
 106:.\Generated_Source\PSoC5/EZI2CPin.c **** *
 107:.\Generated_Source\PSoC5/EZI2CPin.c **** * Parameters:  
 108:.\Generated_Source\PSoC5/EZI2CPin.c **** *  None 
 109:.\Generated_Source\PSoC5/EZI2CPin.c **** *
 110:.\Generated_Source\PSoC5/EZI2CPin.c **** * Return: 
 111:.\Generated_Source\PSoC5/EZI2CPin.c **** *  Returns the current value assigned to the Digital Port's data output register
 112:.\Generated_Source\PSoC5/EZI2CPin.c **** *  
 113:.\Generated_Source\PSoC5/EZI2CPin.c **** *******************************************************************************/
 114:.\Generated_Source\PSoC5/EZI2CPin.c **** uint8 EZI2CPin_ReadDataReg(void) 
 115:.\Generated_Source\PSoC5/EZI2CPin.c **** {
 183              		.loc 1 115 0
 184              		.cfi_startproc
 185              		@ args = 0, pretend = 0, frame = 0
 186              		@ frame_needed = 1, uses_anonymous_args = 0
 187              		@ link register save eliminated.
 188 0000 80B4     		push	{r7}
 189              		.cfi_def_cfa_offset 4
 190              		.cfi_offset 7, -4
 191 0002 00AF     		add	r7, sp, #0
 192              		.cfi_def_cfa_register 7
 116:.\Generated_Source\PSoC5/EZI2CPin.c ****     return (EZI2CPin_DR & EZI2CPin_MASK) >> EZI2CPin_SHIFT;
 193              		.loc 1 116 0
 194 0004 054B     		ldr	r3, .L13
 195 0006 1B78     		ldrb	r3, [r3]
 196 0008 DBB2     		uxtb	r3, r3
 197 000a 03F03003 		and	r3, r3, #48
 198 000e 1B09     		lsrs	r3, r3, #4
 199 0010 DBB2     		uxtb	r3, r3
 117:.\Generated_Source\PSoC5/EZI2CPin.c **** }
 200              		.loc 1 117 0
 201 0012 1846     		mov	r0, r3
 202 0014 BD46     		mov	sp, r7
 203              		@ sp needed
 204 0016 5DF8047B 		ldr	r7, [sp], #4
 205 001a 7047     		bx	lr
 206              	.L14:
 207              		.align	2
 208              	.L13:
 209 001c C0510040 		.word	1073762752
 210              		.cfi_endproc
 211              	.LFE3:
 212              		.size	EZI2CPin_ReadDataReg, .-EZI2CPin_ReadDataReg
 213              		.text
 214              	.Letext0:
 215              		.file 2 ".\\Generated_Source\\PSoC5\\cytypes.h"