ARM GAS  C:\Users\Yiquing\AppData\Local\Temp\ccuSelAP.s 			page 1


   1              		.syntax unified
   2              		.cpu cortex-m3
   3              		.fpu softvfp
   4              		.eabi_attribute 20, 1
   5              		.eabi_attribute 21, 1
   6              		.eabi_attribute 23, 3
   7              		.eabi_attribute 24, 1
   8              		.eabi_attribute 25, 1
   9              		.eabi_attribute 26, 1
  10              		.eabi_attribute 30, 6
  11              		.eabi_attribute 34, 1
  12              		.eabi_attribute 18, 4
  13              		.thumb
  14              		.file	"i2cuart.c"
  15              		.text
  16              	.Ltext0:
  17              		.cfi_sections	.debug_frame
  18              		.comm	s,40,4
  19              		.comm	currentAccessType,1,1
  20              		.comm	old,1,1
  21              		.comm	TAMPERCR_POLARITY,4,4
  22              		.comm	card_ack,4,4
  23              		.comm	card_in_buf,4,4
  24              		.comm	got_pulse,1,1
  25              		.comm	f2f_pulsewidth,4,4
  26              		.comm	timeout_cnt,4,4
  27              		.comm	activate_f2ftimer,1,1
  28              		.section	.text.SendPAC,"ax",%progbits
  29              		.align	2
  30              		.global	SendPAC
  31              		.thumb
  32              		.thumb_func
  33              		.type	SendPAC, %function
  34              	SendPAC:
  35              	.LFB63:
  36              		.file 1 ".\\i2cuart.c"
   1:.\i2cuart.c   **** /* =======================================
   2:.\i2cuart.c   ****  *
   3:.\i2cuart.c   ****  * Copyright YOUR COMPANY, THE YEAR
   4:.\i2cuart.c   ****  * All Rights Reserved
   5:.\i2cuart.c   ****  * UNPUBLISHED, LICENSED SOFTWARE.
   6:.\i2cuart.c   ****  *
   7:.\i2cuart.c   ****  * CONFIDENTIAL AND PROPRIETARY INFORMATION
   8:.\i2cuart.c   ****  * WHICH IS THE PROPERTY OF your company.
   9:.\i2cuart.c   ****  *
  10:.\i2cuart.c   ****  * ========================================
  11:.\i2cuart.c   **** */
  12:.\i2cuart.c   **** 
  13:.\i2cuart.c   **** /* [] END OF FILE */
  14:.\i2cuart.c   **** 
  15:.\i2cuart.c   **** #include <project.h>
  16:.\i2cuart.c   **** #include "system.h"
  17:.\i2cuart.c   **** #include "LED_0.h"
  18:.\i2cuart.c   **** #include "LED_1.h"
  19:.\i2cuart.c   **** #include "LED_2.h"
  20:.\i2cuart.c   **** #include "i2cuart.h"
  21:.\i2cuart.c   **** 
ARM GAS  C:\Users\Yiquing\AppData\Local\Temp\ccuSelAP.s 			page 2


  22:.\i2cuart.c   **** 
  23:.\i2cuart.c   **** 
  24:.\i2cuart.c   **** void SendPAC()
  25:.\i2cuart.c   **** {
  37              		.loc 1 25 0
  38              		.cfi_startproc
  39              		@ args = 0, pretend = 0, frame = 8
  40              		@ frame_needed = 1, uses_anonymous_args = 0
  41 0000 80B5     		push	{r7, lr}
  42              		.cfi_def_cfa_offset 8
  43              		.cfi_offset 7, -8
  44              		.cfi_offset 14, -4
  45 0002 82B0     		sub	sp, sp, #8
  46              		.cfi_def_cfa_offset 16
  47 0004 00AF     		add	r7, sp, #0
  48              		.cfi_def_cfa_register 7
  26:.\i2cuart.c   ****     int i,j;
  27:.\i2cuart.c   ****     LED_GRN_Write(0);
  49              		.loc 1 27 0
  50 0006 0020     		movs	r0, #0
  51 0008 FFF7FEFF 		bl	LED_GRN_Write
  28:.\i2cuart.c   ****     LED_YEL_Write(0);
  52              		.loc 1 28 0
  53 000c 0020     		movs	r0, #0
  54 000e FFF7FEFF 		bl	LED_YEL_Write
  29:.\i2cuart.c   ****   
  30:.\i2cuart.c   ****     for( i = 0; i < 20; i++)
  55              		.loc 1 30 0
  56 0012 0023     		movs	r3, #0
  57 0014 7B60     		str	r3, [r7, #4]
  58 0016 12E0     		b	.L2
  59              	.L5:
  31:.\i2cuart.c   ****     {
  32:.\i2cuart.c   ****         for( j= 0; j < 12 ; j++)
  60              		.loc 1 32 0
  61 0018 0023     		movs	r3, #0
  62 001a 3B60     		str	r3, [r7]
  63 001c 09E0     		b	.L3
  64              	.L4:
  33:.\i2cuart.c   ****          UART_1_PutChar(MyI2C_Regs.buffer[j]);
  65              		.loc 1 33 0 discriminator 2
  66 001e 0E4A     		ldr	r2, .L6
  67 0020 3B68     		ldr	r3, [r7]
  68 0022 1344     		add	r3, r3, r2
  69 0024 9B79     		ldrb	r3, [r3, #6]	@ zero_extendqisi2
  70 0026 1846     		mov	r0, r3
  71 0028 FFF7FEFF 		bl	UART_1_PutChar
  32:.\i2cuart.c   ****         for( j= 0; j < 12 ; j++)
  72              		.loc 1 32 0 discriminator 2
  73 002c 3B68     		ldr	r3, [r7]
  74 002e 0133     		adds	r3, r3, #1
  75 0030 3B60     		str	r3, [r7]
  76              	.L3:
  32:.\i2cuart.c   ****         for( j= 0; j < 12 ; j++)
  77              		.loc 1 32 0 is_stmt 0 discriminator 1
  78 0032 3B68     		ldr	r3, [r7]
  79 0034 0B2B     		cmp	r3, #11
ARM GAS  C:\Users\Yiquing\AppData\Local\Temp\ccuSelAP.s 			page 3


  80 0036 F2DD     		ble	.L4
  30:.\i2cuart.c   ****     for( i = 0; i < 20; i++)
  81              		.loc 1 30 0 is_stmt 1
  82 0038 7B68     		ldr	r3, [r7, #4]
  83 003a 0133     		adds	r3, r3, #1
  84 003c 7B60     		str	r3, [r7, #4]
  85              	.L2:
  30:.\i2cuart.c   ****     for( i = 0; i < 20; i++)
  86              		.loc 1 30 0 is_stmt 0 discriminator 1
  87 003e 7B68     		ldr	r3, [r7, #4]
  88 0040 132B     		cmp	r3, #19
  89 0042 E9DD     		ble	.L5
  34:.\i2cuart.c   ****     }
  35:.\i2cuart.c   **** 
  36:.\i2cuart.c   ****     LED_GRN_Write(1);
  90              		.loc 1 36 0 is_stmt 1
  91 0044 0120     		movs	r0, #1
  92 0046 FFF7FEFF 		bl	LED_GRN_Write
  37:.\i2cuart.c   ****     LED_YEL_Write(1);
  93              		.loc 1 37 0
  94 004a 0120     		movs	r0, #1
  95 004c FFF7FEFF 		bl	LED_YEL_Write
  38:.\i2cuart.c   **** }
  96              		.loc 1 38 0
  97 0050 0837     		adds	r7, r7, #8
  98 0052 BD46     		mov	sp, r7
  99              		@ sp needed
 100 0054 80BD     		pop	{r7, pc}
 101              	.L7:
 102 0056 00BF     		.align	2
 103              	.L6:
 104 0058 00000000 		.word	MyI2C_Regs
 105              		.cfi_endproc
 106              	.LFE63:
 107              		.size	SendPAC, .-SendPAC
 108              		.section	.text.ReadPAC,"ax",%progbits
 109              		.align	2
 110              		.global	ReadPAC
 111              		.thumb
 112              		.thumb_func
 113              		.type	ReadPAC, %function
 114              	ReadPAC:
 115              	.LFB64:
  39:.\i2cuart.c   **** 
  40:.\i2cuart.c   **** int ReadPAC()
  41:.\i2cuart.c   **** {
 116              		.loc 1 41 0
 117              		.cfi_startproc
 118              		@ args = 0, pretend = 0, frame = 8
 119              		@ frame_needed = 1, uses_anonymous_args = 0
 120 0000 80B5     		push	{r7, lr}
 121              		.cfi_def_cfa_offset 8
 122              		.cfi_offset 7, -8
 123              		.cfi_offset 14, -4
 124 0002 82B0     		sub	sp, sp, #8
 125              		.cfi_def_cfa_offset 16
 126 0004 00AF     		add	r7, sp, #0
ARM GAS  C:\Users\Yiquing\AppData\Local\Temp\ccuSelAP.s 			page 4


 127              		.cfi_def_cfa_register 7
  42:.\i2cuart.c   ****     int byteCount =0;
 128              		.loc 1 42 0
 129 0006 0023     		movs	r3, #0
 130 0008 7B60     		str	r3, [r7, #4]
  43:.\i2cuart.c   ****     char tmp;
  44:.\i2cuart.c   ****     char ret = 0;
 131              		.loc 1 44 0
 132 000a 0023     		movs	r3, #0
 133 000c FB70     		strb	r3, [r7, #3]
  45:.\i2cuart.c   ****    
  46:.\i2cuart.c   **** 
  47:.\i2cuart.c   ****     if(UART_1_ReadRxStatus() ==   UART_1_RX_STS_FIFO_NOTEMPTY)
 134              		.loc 1 47 0
 135 000e FFF7FEFF 		bl	UART_1_ReadRxStatus
 136 0012 0346     		mov	r3, r0
 137 0014 202B     		cmp	r3, #32
 138 0016 34D1     		bne	.L9
  48:.\i2cuart.c   ****     {
  49:.\i2cuart.c   ****         while(byteCount < 12)
 139              		.loc 1 49 0
 140 0018 1FE0     		b	.L10
 141              	.L12:
  50:.\i2cuart.c   ****         {
  51:.\i2cuart.c   ****             
  52:.\i2cuart.c   ****             if(UART_1_ReadRxStatus() ==   UART_1_RX_STS_FIFO_NOTEMPTY)
 142              		.loc 1 52 0
 143 001a FFF7FEFF 		bl	UART_1_ReadRxStatus
 144 001e 0346     		mov	r3, r0
 145 0020 202B     		cmp	r3, #32
 146 0022 1AD1     		bne	.L10
  53:.\i2cuart.c   ****             {
  54:.\i2cuart.c   ****                 tmp = UART_1_GetChar();
 147              		.loc 1 54 0
 148 0024 FFF7FEFF 		bl	UART_1_GetChar
 149 0028 0346     		mov	r3, r0
 150 002a BB70     		strb	r3, [r7, #2]
  55:.\i2cuart.c   ****                 if(tmp == 0x02)
 151              		.loc 1 55 0
 152 002c BB78     		ldrb	r3, [r7, #2]	@ zero_extendqisi2
 153 002e 022B     		cmp	r3, #2
 154 0030 08D1     		bne	.L11
  56:.\i2cuart.c   ****                 {
  57:.\i2cuart.c   ****                     MyI2C_Regs.buffer[byteCount] = tmp;
 155              		.loc 1 57 0
 156 0032 164A     		ldr	r2, .L14
 157 0034 7B68     		ldr	r3, [r7, #4]
 158 0036 1344     		add	r3, r3, r2
 159 0038 BA78     		ldrb	r2, [r7, #2]
 160 003a 9A71     		strb	r2, [r3, #6]
  58:.\i2cuart.c   ****                     byteCount++;
 161              		.loc 1 58 0
 162 003c 7B68     		ldr	r3, [r7, #4]
 163 003e 0133     		adds	r3, r3, #1
 164 0040 7B60     		str	r3, [r7, #4]
 165 0042 0AE0     		b	.L10
 166              	.L11:
ARM GAS  C:\Users\Yiquing\AppData\Local\Temp\ccuSelAP.s 			page 5


  59:.\i2cuart.c   ****                 }
  60:.\i2cuart.c   ****                 else if(byteCount > 0)
 167              		.loc 1 60 0
 168 0044 7B68     		ldr	r3, [r7, #4]
 169 0046 002B     		cmp	r3, #0
 170 0048 07DD     		ble	.L10
  61:.\i2cuart.c   ****                 {
  62:.\i2cuart.c   ****                   MyI2C_Regs.buffer[byteCount] = tmp;
 171              		.loc 1 62 0
 172 004a 104A     		ldr	r2, .L14
 173 004c 7B68     		ldr	r3, [r7, #4]
 174 004e 1344     		add	r3, r3, r2
 175 0050 BA78     		ldrb	r2, [r7, #2]
 176 0052 9A71     		strb	r2, [r3, #6]
  63:.\i2cuart.c   ****                   byteCount++;
 177              		.loc 1 63 0
 178 0054 7B68     		ldr	r3, [r7, #4]
 179 0056 0133     		adds	r3, r3, #1
 180 0058 7B60     		str	r3, [r7, #4]
 181              	.L10:
  49:.\i2cuart.c   ****         while(byteCount < 12)
 182              		.loc 1 49 0 discriminator 1
 183 005a 7B68     		ldr	r3, [r7, #4]
 184 005c 0B2B     		cmp	r3, #11
 185 005e DCDD     		ble	.L12
  64:.\i2cuart.c   ****                 }
  65:.\i2cuart.c   ****             }
  66:.\i2cuart.c   ****             
  67:.\i2cuart.c   ****         }
  68:.\i2cuart.c   ****         UART_1_ClearRxBuffer();
 186              		.loc 1 68 0
 187 0060 FFF7FEFF 		bl	UART_1_ClearRxBuffer
  69:.\i2cuart.c   ****         MyI2C_Regs.cmd = 0;
 188              		.loc 1 69 0
 189 0064 094B     		ldr	r3, .L14
 190 0066 0022     		movs	r2, #0
 191 0068 9A70     		strb	r2, [r3, #2]
  70:.\i2cuart.c   ****         card_in_buf = 1;
 192              		.loc 1 70 0
 193 006a 094B     		ldr	r3, .L14+4
 194 006c 0122     		movs	r2, #1
 195 006e 1A60     		str	r2, [r3]
  71:.\i2cuart.c   ****         MyI2C_Regs.status |= STAT_CHANGE | STAT_CARD_IN;
 196              		.loc 1 71 0
 197 0070 064B     		ldr	r3, .L14
 198 0072 1B78     		ldrb	r3, [r3]	@ zero_extendqisi2
 199 0074 43F00303 		orr	r3, r3, #3
 200 0078 DAB2     		uxtb	r2, r3
 201 007a 044B     		ldr	r3, .L14
 202 007c 1A70     		strb	r2, [r3]
  72:.\i2cuart.c   ****         ret = 1;
 203              		.loc 1 72 0
 204 007e 0123     		movs	r3, #1
 205 0080 FB70     		strb	r3, [r7, #3]
 206              	.L9:
  73:.\i2cuart.c   ****    
  74:.\i2cuart.c   ****     }
ARM GAS  C:\Users\Yiquing\AppData\Local\Temp\ccuSelAP.s 			page 6


  75:.\i2cuart.c   ****     
  76:.\i2cuart.c   ****     return ret;
 207              		.loc 1 76 0
 208 0082 FB78     		ldrb	r3, [r7, #3]	@ zero_extendqisi2
  77:.\i2cuart.c   **** }
 209              		.loc 1 77 0
 210 0084 1846     		mov	r0, r3
 211 0086 0837     		adds	r7, r7, #8
 212 0088 BD46     		mov	sp, r7
 213              		@ sp needed
 214 008a 80BD     		pop	{r7, pc}
 215              	.L15:
 216              		.align	2
 217              	.L14:
 218 008c 00000000 		.word	MyI2C_Regs
 219 0090 00000000 		.word	card_in_buf
 220              		.cfi_endproc
 221              	.LFE64:
 222              		.size	ReadPAC, .-ReadPAC
 223              		.section	.text.SetupUART,"ax",%progbits
 224              		.align	2
 225              		.global	SetupUART
 226              		.thumb
 227              		.thumb_func
 228              		.type	SetupUART, %function
 229              	SetupUART:
 230              	.LFB65:
  78:.\i2cuart.c   **** 
  79:.\i2cuart.c   **** void SetupUART(char accessType)
  80:.\i2cuart.c   **** {
 231              		.loc 1 80 0
 232              		.cfi_startproc
 233              		@ args = 0, pretend = 0, frame = 8
 234              		@ frame_needed = 1, uses_anonymous_args = 0
 235 0000 80B5     		push	{r7, lr}
 236              		.cfi_def_cfa_offset 8
 237              		.cfi_offset 7, -8
 238              		.cfi_offset 14, -4
 239 0002 82B0     		sub	sp, sp, #8
 240              		.cfi_def_cfa_offset 16
 241 0004 00AF     		add	r7, sp, #0
 242              		.cfi_def_cfa_register 7
 243 0006 0346     		mov	r3, r0
 244 0008 FB71     		strb	r3, [r7, #7]
  81:.\i2cuart.c   **** 
  82:.\i2cuart.c   ****     
  83:.\i2cuart.c   ****     if(currentAccessType != accessType)
 245              		.loc 1 83 0
 246 000a 0C4B     		ldr	r3, .L21
 247 000c 1B78     		ldrb	r3, [r3]	@ zero_extendqisi2
 248 000e FA79     		ldrb	r2, [r7, #7]	@ zero_extendqisi2
 249 0010 9A42     		cmp	r2, r3
 250 0012 10D0     		beq	.L16
  84:.\i2cuart.c   ****     {
  85:.\i2cuart.c   ****         switch(accessType)
 251              		.loc 1 85 0
 252 0014 FB79     		ldrb	r3, [r7, #7]	@ zero_extendqisi2
ARM GAS  C:\Users\Yiquing\AppData\Local\Temp\ccuSelAP.s 			page 7


 253 0016 0C2B     		cmp	r3, #12
 254 0018 02D0     		beq	.L19
 255 001a 1A2B     		cmp	r3, #26
 256 001c 04D0     		beq	.L20
 257 001e 07E0     		b	.L18
 258              	.L19:
  86:.\i2cuart.c   ****         {
  87:.\i2cuart.c   ****             case PAC:
  88:.\i2cuart.c   ****                OptSelect_Write(0);
 259              		.loc 1 88 0
 260 0020 0020     		movs	r0, #0
 261 0022 FFF7FEFF 		bl	OptSelect_Write
  89:.\i2cuart.c   ****                 break;
 262              		.loc 1 89 0
 263 0026 03E0     		b	.L18
 264              	.L20:
  90:.\i2cuart.c   ****             case HID:
  91:.\i2cuart.c   ****                OptSelect_Write(1);
 265              		.loc 1 91 0
 266 0028 0120     		movs	r0, #1
 267 002a FFF7FEFF 		bl	OptSelect_Write
  92:.\i2cuart.c   ****                 break;
 268              		.loc 1 92 0
 269 002e 00BF     		nop
 270              	.L18:
  93:.\i2cuart.c   ****                 
  94:.\i2cuart.c   ****         }
  95:.\i2cuart.c   ****         currentAccessType = accessType;
 271              		.loc 1 95 0
 272 0030 024B     		ldr	r3, .L21
 273 0032 FA79     		ldrb	r2, [r7, #7]
 274 0034 1A70     		strb	r2, [r3]
 275              	.L16:
  96:.\i2cuart.c   ****     }
  97:.\i2cuart.c   ****     
  98:.\i2cuart.c   **** }
 276              		.loc 1 98 0
 277 0036 0837     		adds	r7, r7, #8
 278 0038 BD46     		mov	sp, r7
 279              		@ sp needed
 280 003a 80BD     		pop	{r7, pc}
 281              	.L22:
 282              		.align	2
 283              	.L21:
 284 003c 00000000 		.word	currentAccessType
 285              		.cfi_endproc
 286              	.LFE65:
 287              		.size	SetupUART, .-SetupUART
 288              		.section	.text.ClearOsdpBuffer,"ax",%progbits
 289              		.align	2
 290              		.global	ClearOsdpBuffer
 291              		.thumb
 292              		.thumb_func
 293              		.type	ClearOsdpBuffer, %function
 294              	ClearOsdpBuffer:
 295              	.LFB66:
  99:.\i2cuart.c   **** 
ARM GAS  C:\Users\Yiquing\AppData\Local\Temp\ccuSelAP.s 			page 8


 100:.\i2cuart.c   **** void ClearOsdpBuffer()
 101:.\i2cuart.c   **** {
 296              		.loc 1 101 0
 297              		.cfi_startproc
 298              		@ args = 0, pretend = 0, frame = 8
 299              		@ frame_needed = 1, uses_anonymous_args = 0
 300 0000 80B5     		push	{r7, lr}
 301              		.cfi_def_cfa_offset 8
 302              		.cfi_offset 7, -8
 303              		.cfi_offset 14, -4
 304 0002 82B0     		sub	sp, sp, #8
 305              		.cfi_def_cfa_offset 16
 306 0004 00AF     		add	r7, sp, #0
 307              		.cfi_def_cfa_register 7
 102:.\i2cuart.c   ****     int i;
 103:.\i2cuart.c   ****         UART_ACS_ClearRxBuffer();
 308              		.loc 1 103 0
 309 0006 FFF7FEFF 		bl	UART_ACS_ClearRxBuffer
 104:.\i2cuart.c   ****         for ( i=0; i<OSDP_BUFFER_LENGTH; i++){
 310              		.loc 1 104 0
 311 000a 0023     		movs	r3, #0
 312 000c 7B60     		str	r3, [r7, #4]
 313 000e 08E0     		b	.L24
 314              	.L25:
 105:.\i2cuart.c   ****             MyI2C_Regs.osdp_buffer[i]=0;
 315              		.loc 1 105 0 discriminator 2
 316 0010 094A     		ldr	r2, .L26
 317 0012 7B68     		ldr	r3, [r7, #4]
 318 0014 1344     		add	r3, r3, r2
 319 0016 4833     		adds	r3, r3, #72
 320 0018 0022     		movs	r2, #0
 321 001a 5A71     		strb	r2, [r3, #5]
 104:.\i2cuart.c   ****         for ( i=0; i<OSDP_BUFFER_LENGTH; i++){
 322              		.loc 1 104 0 discriminator 2
 323 001c 7B68     		ldr	r3, [r7, #4]
 324 001e 0133     		adds	r3, r3, #1
 325 0020 7B60     		str	r3, [r7, #4]
 326              	.L24:
 104:.\i2cuart.c   ****         for ( i=0; i<OSDP_BUFFER_LENGTH; i++){
 327              		.loc 1 104 0 is_stmt 0 discriminator 1
 328 0022 7B68     		ldr	r3, [r7, #4]
 329 0024 7F2B     		cmp	r3, #127
 330 0026 F3DD     		ble	.L25
 106:.\i2cuart.c   ****         }
 107:.\i2cuart.c   ****         MyI2C_Regs.osdp_data_length = 0;
 331              		.loc 1 107 0 is_stmt 1
 332 0028 034B     		ldr	r3, .L26
 333 002a 0022     		movs	r2, #0
 334 002c 83F84B20 		strb	r2, [r3, #75]
 108:.\i2cuart.c   **** }
 335              		.loc 1 108 0
 336 0030 0837     		adds	r7, r7, #8
 337 0032 BD46     		mov	sp, r7
 338              		@ sp needed
 339 0034 80BD     		pop	{r7, pc}
 340              	.L27:
 341 0036 00BF     		.align	2
ARM GAS  C:\Users\Yiquing\AppData\Local\Temp\ccuSelAP.s 			page 9


 342              	.L26:
 343 0038 00000000 		.word	MyI2C_Regs
 344              		.cfi_endproc
 345              	.LFE66:
 346              		.size	ClearOsdpBuffer, .-ClearOsdpBuffer
 347              		.section	.text.SendOSDP,"ax",%progbits
 348              		.align	2
 349              		.global	SendOSDP
 350              		.thumb
 351              		.thumb_func
 352              		.type	SendOSDP, %function
 353              	SendOSDP:
 354              	.LFB67:
 109:.\i2cuart.c   **** 
 110:.\i2cuart.c   **** void SendOSDP()
 111:.\i2cuart.c   **** {
 355              		.loc 1 111 0
 356              		.cfi_startproc
 357              		@ args = 0, pretend = 0, frame = 0
 358              		@ frame_needed = 1, uses_anonymous_args = 0
 359 0000 80B5     		push	{r7, lr}
 360              		.cfi_def_cfa_offset 8
 361              		.cfi_offset 7, -8
 362              		.cfi_offset 14, -4
 363 0002 00AF     		add	r7, sp, #0
 364              		.cfi_def_cfa_register 7
 112:.\i2cuart.c   ****     
 113:.\i2cuart.c   ****     Mode_Sel_ACS_Write(1); //set io chip to 485
 365              		.loc 1 113 0
 366 0004 0120     		movs	r0, #1
 367 0006 FFF7FEFF 		bl	Mode_Sel_ACS_Write
 114:.\i2cuart.c   ****     TX_EN_Write(1);
 368              		.loc 1 114 0
 369 000a 0120     		movs	r0, #1
 370 000c FFF7FEFF 		bl	TX_EN_Write
 115:.\i2cuart.c   ****     UART_ACS_LoadTxConfig();
 371              		.loc 1 115 0
 372 0010 FFF7FEFF 		bl	UART_ACS_LoadTxConfig
 116:.\i2cuart.c   ****     CyDelay(1); //Driver Output Enable Time, do not reduce. 
 373              		.loc 1 116 0
 374 0014 0120     		movs	r0, #1
 375 0016 FFF7FEFF 		bl	CyDelay
 117:.\i2cuart.c   ****     if(MyI2C_Regs.osdp_reader_buffer[0] == 0x53){
 376              		.loc 1 117 0
 377 001a 114B     		ldr	r3, .L30
 378 001c 93F8D030 		ldrb	r3, [r3, #208]	@ zero_extendqisi2
 379 0020 532B     		cmp	r3, #83
 380 0022 09D1     		bne	.L29
 118:.\i2cuart.c   ****         UART_ACS_PutArray(MyI2C_Regs.osdp_buffer,MyI2C_Regs.osdp_data_length); 
 381              		.loc 1 118 0
 382 0024 0E4B     		ldr	r3, .L30
 383 0026 93F84B30 		ldrb	r3, [r3, #75]	@ zero_extendqisi2
 384 002a 0E48     		ldr	r0, .L30+4
 385 002c 1946     		mov	r1, r3
 386 002e FFF7FEFF 		bl	UART_ACS_PutArray
 119:.\i2cuart.c   ****         CyDelay(5); //minmum 4m
 387              		.loc 1 119 0
ARM GAS  C:\Users\Yiquing\AppData\Local\Temp\ccuSelAP.s 			page 10


 388 0032 0520     		movs	r0, #5
 389 0034 FFF7FEFF 		bl	CyDelay
 390              	.L29:
 120:.\i2cuart.c   ****     }
 121:.\i2cuart.c   **** 
 122:.\i2cuart.c   ****     MyI2C_Regs.osdp_status |= OSDP_DATA_SENT;
 391              		.loc 1 122 0
 392 0038 094B     		ldr	r3, .L30
 393 003a 93F84A30 		ldrb	r3, [r3, #74]	@ zero_extendqisi2
 394 003e 43F00103 		orr	r3, r3, #1
 395 0042 DAB2     		uxtb	r2, r3
 396 0044 064B     		ldr	r3, .L30
 397 0046 83F84A20 		strb	r2, [r3, #74]
 123:.\i2cuart.c   ****     UART_ACS_LoadRxConfig();
 398              		.loc 1 123 0
 399 004a FFF7FEFF 		bl	UART_ACS_LoadRxConfig
 124:.\i2cuart.c   ****     ClearOsdpBuffer();
 400              		.loc 1 124 0
 401 004e FFF7FEFF 		bl	ClearOsdpBuffer
 125:.\i2cuart.c   ****     TX_EN_Write(0);
 402              		.loc 1 125 0
 403 0052 0020     		movs	r0, #0
 404 0054 FFF7FEFF 		bl	TX_EN_Write
 126:.\i2cuart.c   ****     CyDelay(5); // 5ms
 405              		.loc 1 126 0
 406 0058 0520     		movs	r0, #5
 407 005a FFF7FEFF 		bl	CyDelay
 127:.\i2cuart.c   **** 
 128:.\i2cuart.c   **** }
 408              		.loc 1 128 0
 409 005e 80BD     		pop	{r7, pc}
 410              	.L31:
 411              		.align	2
 412              	.L30:
 413 0060 00000000 		.word	MyI2C_Regs
 414 0064 4D000000 		.word	MyI2C_Regs+77
 415              		.cfi_endproc
 416              	.LFE67:
 417              		.size	SendOSDP, .-SendOSDP
 418              		.comm	osdp_msg_header,4,4
 419              		.comm	osdp_reader_msg_header,4,4
 420              		.section	.text.ReadOSDP,"ax",%progbits
 421              		.align	2
 422              		.global	ReadOSDP
 423              		.thumb
 424              		.thumb_func
 425              		.type	ReadOSDP, %function
 426              	ReadOSDP:
 427              	.LFB68:
 129:.\i2cuart.c   **** 
 130:.\i2cuart.c   **** struct OSDP_MSG_HEADER {
 131:.\i2cuart.c   ****     unsigned char addr;
 132:.\i2cuart.c   ****     union{
 133:.\i2cuart.c   ****         short len;
 134:.\i2cuart.c   ****         unsigned char length[2];
 135:.\i2cuart.c   ****     }u;
 136:.\i2cuart.c   **** } osdp_msg_header,osdp_reader_msg_header;
ARM GAS  C:\Users\Yiquing\AppData\Local\Temp\ccuSelAP.s 			page 11


 137:.\i2cuart.c   **** 
 138:.\i2cuart.c   **** void ReadOSDP()
 139:.\i2cuart.c   **** {
 428              		.loc 1 139 0
 429              		.cfi_startproc
 430              		@ args = 0, pretend = 0, frame = 16
 431              		@ frame_needed = 1, uses_anonymous_args = 0
 432 0000 80B5     		push	{r7, lr}
 433              		.cfi_def_cfa_offset 8
 434              		.cfi_offset 7, -8
 435              		.cfi_offset 14, -4
 436 0002 84B0     		sub	sp, sp, #16
 437              		.cfi_def_cfa_offset 24
 438 0004 00AF     		add	r7, sp, #0
 439              		.cfi_def_cfa_register 7
 140:.\i2cuart.c   ****     int byteCount =0;
 440              		.loc 1 140 0
 441 0006 0023     		movs	r3, #0
 442 0008 FB60     		str	r3, [r7, #12]
 141:.\i2cuart.c   ****     unsigned char tmp = 0;
 443              		.loc 1 141 0
 444 000a 0023     		movs	r3, #0
 445 000c FB70     		strb	r3, [r7, #3]
 142:.\i2cuart.c   ****     char msg_started = 0;
 446              		.loc 1 142 0
 447 000e 0023     		movs	r3, #0
 448 0010 FB72     		strb	r3, [r7, #11]
 143:.\i2cuart.c   ****     int i;
 144:.\i2cuart.c   ****     
 145:.\i2cuart.c   ****     Mode_Sel_ACS_Write(1); //set the chip to RS485 mode
 449              		.loc 1 145 0
 450 0012 0120     		movs	r0, #1
 451 0014 FFF7FEFF 		bl	Mode_Sel_ACS_Write
 146:.\i2cuart.c   ****     if (UART_ACS_GetRxBufferSize()>= 7)
 452              		.loc 1 146 0
 453 0018 FFF7FEFF 		bl	UART_ACS_GetRxBufferSize
 454 001c 0346     		mov	r3, r0
 455 001e 062B     		cmp	r3, #6
 456 0020 40F28A80 		bls	.L32
 147:.\i2cuart.c   ****     {
 148:.\i2cuart.c   ****         for(i=0;i<7;i++) {
 457              		.loc 1 148 0
 458 0024 0023     		movs	r3, #0
 459 0026 7B60     		str	r3, [r7, #4]
 460 0028 0CE0     		b	.L34
 461              	.L37:
 149:.\i2cuart.c   ****             tmp = UART_ACS_GetChar();
 462              		.loc 1 149 0
 463 002a FFF7FEFF 		bl	UART_ACS_GetChar
 464 002e 0346     		mov	r3, r0
 465 0030 FB70     		strb	r3, [r7, #3]
 150:.\i2cuart.c   ****             if (tmp == 0x53) {
 466              		.loc 1 150 0
 467 0032 FB78     		ldrb	r3, [r7, #3]	@ zero_extendqisi2
 468 0034 532B     		cmp	r3, #83
 469 0036 02D1     		bne	.L35
 151:.\i2cuart.c   ****                 msg_started = 1;
ARM GAS  C:\Users\Yiquing\AppData\Local\Temp\ccuSelAP.s 			page 12


 470              		.loc 1 151 0
 471 0038 0123     		movs	r3, #1
 472 003a FB72     		strb	r3, [r7, #11]
 152:.\i2cuart.c   ****                 break;
 473              		.loc 1 152 0
 474 003c 05E0     		b	.L36
 475              	.L35:
 148:.\i2cuart.c   ****         for(i=0;i<7;i++) {
 476              		.loc 1 148 0
 477 003e 7B68     		ldr	r3, [r7, #4]
 478 0040 0133     		adds	r3, r3, #1
 479 0042 7B60     		str	r3, [r7, #4]
 480              	.L34:
 148:.\i2cuart.c   ****         for(i=0;i<7;i++) {
 481              		.loc 1 148 0 is_stmt 0 discriminator 1
 482 0044 7B68     		ldr	r3, [r7, #4]
 483 0046 062B     		cmp	r3, #6
 484 0048 EFDD     		ble	.L37
 485              	.L36:
 153:.\i2cuart.c   ****             }
 154:.\i2cuart.c   ****         } 
 155:.\i2cuart.c   ****         
 156:.\i2cuart.c   ****         if (msg_started){
 486              		.loc 1 156 0 is_stmt 1
 487 004a FB7A     		ldrb	r3, [r7, #11]	@ zero_extendqisi2
 488 004c 002B     		cmp	r3, #0
 489 004e 1AD0     		beq	.L38
 157:.\i2cuart.c   ****             tmp = UART_ACS_GetChar();
 490              		.loc 1 157 0
 491 0050 FFF7FEFF 		bl	UART_ACS_GetChar
 492 0054 0346     		mov	r3, r0
 493 0056 FB70     		strb	r3, [r7, #3]
 158:.\i2cuart.c   ****             osdp_msg_header.addr = tmp;
 494              		.loc 1 158 0
 495 0058 394B     		ldr	r3, .L45
 496 005a FA78     		ldrb	r2, [r7, #3]
 497 005c 1A70     		strb	r2, [r3]
 159:.\i2cuart.c   ****             
 160:.\i2cuart.c   ****             tmp = UART_ACS_GetChar();
 498              		.loc 1 160 0
 499 005e FFF7FEFF 		bl	UART_ACS_GetChar
 500 0062 0346     		mov	r3, r0
 501 0064 FB70     		strb	r3, [r7, #3]
 161:.\i2cuart.c   ****             osdp_msg_header.u.length[0] = tmp;
 502              		.loc 1 161 0
 503 0066 364B     		ldr	r3, .L45
 504 0068 FA78     		ldrb	r2, [r7, #3]
 505 006a 9A70     		strb	r2, [r3, #2]
 162:.\i2cuart.c   ****             
 163:.\i2cuart.c   ****             tmp = UART_ACS_GetChar();
 506              		.loc 1 163 0
 507 006c FFF7FEFF 		bl	UART_ACS_GetChar
 508 0070 0346     		mov	r3, r0
 509 0072 FB70     		strb	r3, [r7, #3]
 164:.\i2cuart.c   ****             osdp_msg_header.u.length[1] = tmp;
 510              		.loc 1 164 0
 511 0074 324B     		ldr	r3, .L45
ARM GAS  C:\Users\Yiquing\AppData\Local\Temp\ccuSelAP.s 			page 13


 512 0076 FA78     		ldrb	r2, [r7, #3]
 513 0078 DA70     		strb	r2, [r3, #3]
 165:.\i2cuart.c   ****         } 
 166:.\i2cuart.c   ****         else
 167:.\i2cuart.c   ****         {
 168:.\i2cuart.c   ****             //the message is not started yet
 169:.\i2cuart.c   ****             return;
 170:.\i2cuart.c   ****         }
 171:.\i2cuart.c   ****         
 172:.\i2cuart.c   ****         if (osdp_msg_header.u.len <7) return; //discard bad message, too short.
 514              		.loc 1 172 0
 515 007a 314B     		ldr	r3, .L45
 516 007c 5B88     		ldrh	r3, [r3, #2]
 517 007e 1BB2     		sxth	r3, r3
 518 0080 062B     		cmp	r3, #6
 519 0082 02DC     		bgt	.L40
 520 0084 00E0     		b	.L44
 521              	.L38:
 169:.\i2cuart.c   ****             return;
 522              		.loc 1 169 0
 523 0086 57E0     		b	.L32
 524              	.L44:
 525              		.loc 1 172 0 discriminator 1
 526 0088 56E0     		b	.L32
 527              	.L40:
 173:.\i2cuart.c   ****         
 174:.\i2cuart.c   ****         
 175:.\i2cuart.c   ****         byteCount = 0;
 528              		.loc 1 175 0
 529 008a 0023     		movs	r3, #0
 530 008c FB60     		str	r3, [r7, #12]
 176:.\i2cuart.c   ****         MyI2C_Regs.osdp_buffer[byteCount] = 0x53;
 531              		.loc 1 176 0
 532 008e 2D4A     		ldr	r2, .L45+4
 533 0090 FB68     		ldr	r3, [r7, #12]
 534 0092 1344     		add	r3, r3, r2
 535 0094 4833     		adds	r3, r3, #72
 536 0096 5322     		movs	r2, #83
 537 0098 5A71     		strb	r2, [r3, #5]
 177:.\i2cuart.c   ****         byteCount++;
 538              		.loc 1 177 0
 539 009a FB68     		ldr	r3, [r7, #12]
 540 009c 0133     		adds	r3, r3, #1
 541 009e FB60     		str	r3, [r7, #12]
 178:.\i2cuart.c   ****         MyI2C_Regs.osdp_buffer[byteCount] = osdp_msg_header.addr;
 542              		.loc 1 178 0
 543 00a0 274B     		ldr	r3, .L45
 544 00a2 1A78     		ldrb	r2, [r3]	@ zero_extendqisi2
 545 00a4 2749     		ldr	r1, .L45+4
 546 00a6 FB68     		ldr	r3, [r7, #12]
 547 00a8 0B44     		add	r3, r3, r1
 548 00aa 4833     		adds	r3, r3, #72
 549 00ac 5A71     		strb	r2, [r3, #5]
 179:.\i2cuart.c   ****         byteCount++;
 550              		.loc 1 179 0
 551 00ae FB68     		ldr	r3, [r7, #12]
 552 00b0 0133     		adds	r3, r3, #1
ARM GAS  C:\Users\Yiquing\AppData\Local\Temp\ccuSelAP.s 			page 14


 553 00b2 FB60     		str	r3, [r7, #12]
 180:.\i2cuart.c   ****         MyI2C_Regs.osdp_buffer[byteCount] = osdp_msg_header.u.length[0];
 554              		.loc 1 180 0
 555 00b4 224B     		ldr	r3, .L45
 556 00b6 9A78     		ldrb	r2, [r3, #2]	@ zero_extendqisi2
 557 00b8 2249     		ldr	r1, .L45+4
 558 00ba FB68     		ldr	r3, [r7, #12]
 559 00bc 0B44     		add	r3, r3, r1
 560 00be 4833     		adds	r3, r3, #72
 561 00c0 5A71     		strb	r2, [r3, #5]
 181:.\i2cuart.c   ****         byteCount++;
 562              		.loc 1 181 0
 563 00c2 FB68     		ldr	r3, [r7, #12]
 564 00c4 0133     		adds	r3, r3, #1
 565 00c6 FB60     		str	r3, [r7, #12]
 182:.\i2cuart.c   ****         MyI2C_Regs.osdp_buffer[byteCount] = osdp_msg_header.u.length[1];
 566              		.loc 1 182 0
 567 00c8 1D4B     		ldr	r3, .L45
 568 00ca DA78     		ldrb	r2, [r3, #3]	@ zero_extendqisi2
 569 00cc 1D49     		ldr	r1, .L45+4
 570 00ce FB68     		ldr	r3, [r7, #12]
 571 00d0 0B44     		add	r3, r3, r1
 572 00d2 4833     		adds	r3, r3, #72
 573 00d4 5A71     		strb	r2, [r3, #5]
 183:.\i2cuart.c   ****         byteCount++;
 574              		.loc 1 183 0
 575 00d6 FB68     		ldr	r3, [r7, #12]
 576 00d8 0133     		adds	r3, r3, #1
 577 00da FB60     		str	r3, [r7, #12]
 184:.\i2cuart.c   ****         
 185:.\i2cuart.c   ****         if(osdp_msg_header.u.len > OSDP_BUFFER_LENGTH){
 578              		.loc 1 185 0
 579 00dc 184B     		ldr	r3, .L45
 580 00de 5B88     		ldrh	r3, [r3, #2]
 581 00e0 1BB2     		sxth	r3, r3
 582 00e2 802B     		cmp	r3, #128
 583 00e4 05DD     		ble	.L41
 186:.\i2cuart.c   ****             //error, the message is too long
 187:.\i2cuart.c   ****             ClearOsdpBuffer();
 584              		.loc 1 187 0
 585 00e6 FFF7FEFF 		bl	ClearOsdpBuffer
 188:.\i2cuart.c   ****             osdp_msg_header.u.len = 0;
 586              		.loc 1 188 0
 587 00ea 154B     		ldr	r3, .L45
 588 00ec 0022     		movs	r2, #0
 589 00ee 5A80     		strh	r2, [r3, #2]	@ movhi
 189:.\i2cuart.c   ****             return;
 590              		.loc 1 189 0
 591 00f0 22E0     		b	.L32
 592              	.L41:
 190:.\i2cuart.c   ****         }
 191:.\i2cuart.c   ****         
 192:.\i2cuart.c   ****         for (; byteCount<osdp_msg_header.u.len;){  //may need timeout here
 593              		.loc 1 192 0
 594 00f2 11E0     		b	.L42
 595              	.L43:
 193:.\i2cuart.c   ****             if (UART_ACS_GetRxBufferSize()>0){
ARM GAS  C:\Users\Yiquing\AppData\Local\Temp\ccuSelAP.s 			page 15


 596              		.loc 1 193 0
 597 00f4 FFF7FEFF 		bl	UART_ACS_GetRxBufferSize
 598 00f8 0346     		mov	r3, r0
 599 00fa 002B     		cmp	r3, #0
 600 00fc 0CD0     		beq	.L42
 194:.\i2cuart.c   ****                 tmp = UART_ACS_GetChar();
 601              		.loc 1 194 0
 602 00fe FFF7FEFF 		bl	UART_ACS_GetChar
 603 0102 0346     		mov	r3, r0
 604 0104 FB70     		strb	r3, [r7, #3]
 195:.\i2cuart.c   ****                 MyI2C_Regs.osdp_buffer[byteCount] = tmp;
 605              		.loc 1 195 0
 606 0106 0F4A     		ldr	r2, .L45+4
 607 0108 FB68     		ldr	r3, [r7, #12]
 608 010a 1344     		add	r3, r3, r2
 609 010c 4833     		adds	r3, r3, #72
 610 010e FA78     		ldrb	r2, [r7, #3]
 611 0110 5A71     		strb	r2, [r3, #5]
 196:.\i2cuart.c   ****                 byteCount++;
 612              		.loc 1 196 0
 613 0112 FB68     		ldr	r3, [r7, #12]
 614 0114 0133     		adds	r3, r3, #1
 615 0116 FB60     		str	r3, [r7, #12]
 616              	.L42:
 192:.\i2cuart.c   ****         for (; byteCount<osdp_msg_header.u.len;){  //may need timeout here
 617              		.loc 1 192 0 discriminator 1
 618 0118 094B     		ldr	r3, .L45
 619 011a 5B88     		ldrh	r3, [r3, #2]
 620 011c 1AB2     		sxth	r2, r3
 621 011e FB68     		ldr	r3, [r7, #12]
 622 0120 9A42     		cmp	r2, r3
 623 0122 E7DC     		bgt	.L43
 197:.\i2cuart.c   ****             }
 198:.\i2cuart.c   ****         }
 199:.\i2cuart.c   **** 
 200:.\i2cuart.c   ****         MyI2C_Regs.osdp_data_length = osdp_msg_header.u.len;
 624              		.loc 1 200 0
 625 0124 064B     		ldr	r3, .L45
 626 0126 5B88     		ldrh	r3, [r3, #2]
 627 0128 DAB2     		uxtb	r2, r3
 628 012a 064B     		ldr	r3, .L45+4
 629 012c 83F84B20 		strb	r2, [r3, #75]
 201:.\i2cuart.c   ****         MyI2C_Regs.osdp_status = OSDP_DATA_IN_READY;
 630              		.loc 1 201 0
 631 0130 044B     		ldr	r3, .L45+4
 632 0132 0222     		movs	r2, #2
 633 0134 83F84A20 		strb	r2, [r3, #74]
 634              	.L32:
 202:.\i2cuart.c   ****     }
 203:.\i2cuart.c   **** }
 635              		.loc 1 203 0
 636 0138 1037     		adds	r7, r7, #16
 637 013a BD46     		mov	sp, r7
 638              		@ sp needed
 639 013c 80BD     		pop	{r7, pc}
 640              	.L46:
 641 013e 00BF     		.align	2
ARM GAS  C:\Users\Yiquing\AppData\Local\Temp\ccuSelAP.s 			page 16


 642              	.L45:
 643 0140 00000000 		.word	osdp_msg_header
 644 0144 00000000 		.word	MyI2C_Regs
 645              		.cfi_endproc
 646              	.LFE68:
 647              		.size	ReadOSDP, .-ReadOSDP
 648              		.section	.text.SetOSDPRate,"ax",%progbits
 649              		.align	2
 650              		.global	SetOSDPRate
 651              		.thumb
 652              		.thumb_func
 653              		.type	SetOSDPRate, %function
 654              	SetOSDPRate:
 655              	.LFB69:
 204:.\i2cuart.c   **** 
 205:.\i2cuart.c   **** void SetOSDPRate(){
 656              		.loc 1 205 0
 657              		.cfi_startproc
 658              		@ args = 0, pretend = 0, frame = 8
 659              		@ frame_needed = 1, uses_anonymous_args = 0
 660 0000 80B5     		push	{r7, lr}
 661              		.cfi_def_cfa_offset 8
 662              		.cfi_offset 7, -8
 663              		.cfi_offset 14, -4
 664 0002 82B0     		sub	sp, sp, #8
 665              		.cfi_def_cfa_offset 16
 666 0004 00AF     		add	r7, sp, #0
 667              		.cfi_def_cfa_register 7
 206:.\i2cuart.c   ****     char rate;
 207:.\i2cuart.c   ****     
 208:.\i2cuart.c   ****     UART_ACS_Start();
 668              		.loc 1 208 0
 669 0006 FFF7FEFF 		bl	UART_ACS_Start
 209:.\i2cuart.c   **** 
 210:.\i2cuart.c   ****     rate = MyI2C_Regs.osdp_rate;
 670              		.loc 1 210 0
 671 000a 164B     		ldr	r3, .L54
 672 000c 93F84C30 		ldrb	r3, [r3, #76]
 673 0010 FB71     		strb	r3, [r7, #7]
 211:.\i2cuart.c   ****     switch(rate){
 674              		.loc 1 211 0
 675 0012 FB79     		ldrb	r3, [r7, #7]	@ zero_extendqisi2
 676 0014 013B     		subs	r3, r3, #1
 677 0016 032B     		cmp	r3, #3
 678 0018 20D8     		bhi	.L47
 679 001a 01A2     		adr	r2, .L50
 680 001c 52F823F0 		ldr	pc, [r2, r3, lsl #2]
 681              		.p2align 2
 682              	.L50:
 683 0020 31000000 		.word	.L49+1
 684 0024 3D000000 		.word	.L51+1
 685 0028 49000000 		.word	.L52+1
 686 002c 53000000 		.word	.L53+1
 687              		.p2align 1
 688              	.L49:
 212:.\i2cuart.c   ****         case OSDP_9600:
 213:.\i2cuart.c   ****             Clock_5_SetDividerValue(625); //  48000000/625=9600
ARM GAS  C:\Users\Yiquing\AppData\Local\Temp\ccuSelAP.s 			page 17


 689              		.loc 1 213 0
 690 0030 4FF41C70 		mov	r0, #624
 691 0034 0121     		movs	r1, #1
 692 0036 FFF7FEFF 		bl	Clock_5_SetDividerRegister
 214:.\i2cuart.c   ****             break;
 693              		.loc 1 214 0
 694 003a 0FE0     		b	.L47
 695              	.L51:
 215:.\i2cuart.c   ****         case OSDP_19200:
 216:.\i2cuart.c   ****             Clock_5_SetDividerValue(312);
 696              		.loc 1 216 0
 697 003c 40F23710 		movw	r0, #311
 698 0040 0121     		movs	r1, #1
 699 0042 FFF7FEFF 		bl	Clock_5_SetDividerRegister
 217:.\i2cuart.c   ****             break;
 700              		.loc 1 217 0
 701 0046 09E0     		b	.L47
 702              	.L52:
 218:.\i2cuart.c   ****         case OSDP_38400:
 219:.\i2cuart.c   ****             Clock_5_SetDividerValue(156);
 703              		.loc 1 219 0
 704 0048 9B20     		movs	r0, #155
 705 004a 0121     		movs	r1, #1
 706 004c FFF7FEFF 		bl	Clock_5_SetDividerRegister
 220:.\i2cuart.c   ****             break;
 707              		.loc 1 220 0
 708 0050 04E0     		b	.L47
 709              	.L53:
 221:.\i2cuart.c   ****         case OSDP_115200:
 222:.\i2cuart.c   ****             Clock_5_SetDividerValue(52);
 710              		.loc 1 222 0
 711 0052 3320     		movs	r0, #51
 712 0054 0121     		movs	r1, #1
 713 0056 FFF7FEFF 		bl	Clock_5_SetDividerRegister
 223:.\i2cuart.c   ****             break;
 714              		.loc 1 223 0
 715 005a 00BF     		nop
 716              	.L47:
 224:.\i2cuart.c   ****         default:;    
 225:.\i2cuart.c   ****     }
 226:.\i2cuart.c   ****     
 227:.\i2cuart.c   **** }
 717              		.loc 1 227 0
 718 005c 0837     		adds	r7, r7, #8
 719 005e BD46     		mov	sp, r7
 720              		@ sp needed
 721 0060 80BD     		pop	{r7, pc}
 722              	.L55:
 723 0062 00BF     		.align	2
 724              	.L54:
 725 0064 00000000 		.word	MyI2C_Regs
 726              		.cfi_endproc
 727              	.LFE69:
 728              		.size	SetOSDPRate, .-SetOSDPRate
 729              		.comm	keepALive,48,4
 730              		.comm	keepALiveLength,1,1
 731              		.comm	OSDPReaderTask,1,1
ARM GAS  C:\Users\Yiquing\AppData\Local\Temp\ccuSelAP.s 			page 18


 732              		.comm	InterruptCnt,1,1
 733              		.section	.text.KeepAliveInterruptHandler,"ax",%progbits
 734              		.align	2
 735              		.global	KeepAliveInterruptHandler
 736              		.thumb
 737              		.thumb_func
 738              		.type	KeepAliveInterruptHandler, %function
 739              	KeepAliveInterruptHandler:
 740              	.LFB70:
 228:.\i2cuart.c   **** 
 229:.\i2cuart.c   **** ////////////////OSDP READER//////////////////
 230:.\i2cuart.c   **** 
 231:.\i2cuart.c   **** unsigned char keepALive[OSDP_READER_BUFFER_LENGTH];
 232:.\i2cuart.c   **** unsigned char keepALiveLength;
 233:.\i2cuart.c   **** unsigned char OSDPReaderTask;
 234:.\i2cuart.c   **** 
 235:.\i2cuart.c   **** uint8 InterruptCnt;
 236:.\i2cuart.c   **** 
 237:.\i2cuart.c   **** //keep alive timer interrupt for OSDP reader dual authentication
 238:.\i2cuart.c   **** CY_ISR(KeepAliveInterruptHandler)
 239:.\i2cuart.c   **** {
 741              		.loc 1 239 0
 742              		.cfi_startproc
 743              		@ args = 0, pretend = 0, frame = 0
 744              		@ frame_needed = 1, uses_anonymous_args = 0
 745              		@ link register save eliminated.
 746 0000 80B4     		push	{r7}
 747              		.cfi_def_cfa_offset 4
 748              		.cfi_offset 7, -4
 749 0002 00AF     		add	r7, sp, #0
 750              		.cfi_def_cfa_register 7
 240:.\i2cuart.c   **** 	/* Read Status register in order to clear the sticky Terminal Count (TC) bit 
 241:.\i2cuart.c   **** 	 * in the status register.
 242:.\i2cuart.c   **** 	 */
 243:.\i2cuart.c   ****    	OSDPReaderTimer_STATUS;
 751              		.loc 1 243 0
 752 0004 064B     		ldr	r3, .L57
 753 0006 1B78     		ldrb	r3, [r3]
 244:.\i2cuart.c   ****     OSDPReaderTask |= (0x1 << OSDP_SEND_READER);  //send the command to the card reader
 754              		.loc 1 244 0
 755 0008 064B     		ldr	r3, .L57+4
 756 000a 1B78     		ldrb	r3, [r3]	@ zero_extendqisi2
 757 000c 43F00403 		orr	r3, r3, #4
 758 0010 DAB2     		uxtb	r2, r3
 759 0012 044B     		ldr	r3, .L57+4
 760 0014 1A70     		strb	r2, [r3]
 245:.\i2cuart.c   **** }
 761              		.loc 1 245 0
 762 0016 BD46     		mov	sp, r7
 763              		@ sp needed
 764 0018 5DF8047B 		ldr	r7, [sp], #4
 765 001c 7047     		bx	lr
 766              	.L58:
 767 001e 00BF     		.align	2
 768              	.L57:
 769 0020 64650040 		.word	1073767780
 770 0024 00000000 		.word	OSDPReaderTask
ARM GAS  C:\Users\Yiquing\AppData\Local\Temp\ccuSelAP.s 			page 19


 771              		.cfi_endproc
 772              	.LFE70:
 773              		.size	KeepAliveInterruptHandler, .-KeepAliveInterruptHandler
 774              		.section	.text.ClearOsdpReaderBuffer,"ax",%progbits
 775              		.align	2
 776              		.global	ClearOsdpReaderBuffer
 777              		.thumb
 778              		.thumb_func
 779              		.type	ClearOsdpReaderBuffer, %function
 780              	ClearOsdpReaderBuffer:
 781              	.LFB71:
 246:.\i2cuart.c   **** 
 247:.\i2cuart.c   **** void ClearOsdpReaderBuffer()
 248:.\i2cuart.c   **** {
 782              		.loc 1 248 0
 783              		.cfi_startproc
 784              		@ args = 0, pretend = 0, frame = 8
 785              		@ frame_needed = 1, uses_anonymous_args = 0
 786 0000 80B5     		push	{r7, lr}
 787              		.cfi_def_cfa_offset 8
 788              		.cfi_offset 7, -8
 789              		.cfi_offset 14, -4
 790 0002 82B0     		sub	sp, sp, #8
 791              		.cfi_def_cfa_offset 16
 792 0004 00AF     		add	r7, sp, #0
 793              		.cfi_def_cfa_register 7
 249:.\i2cuart.c   ****     int i;
 250:.\i2cuart.c   ****         UART_READER_ClearRxBuffer();
 794              		.loc 1 250 0
 795 0006 FFF7FEFF 		bl	UART_READER_ClearRxBuffer
 251:.\i2cuart.c   ****         for ( i=0; i<OSDP_READER_BUFFER_LENGTH; i++){
 796              		.loc 1 251 0
 797 000a 0023     		movs	r3, #0
 798 000c 7B60     		str	r3, [r7, #4]
 799 000e 08E0     		b	.L60
 800              	.L61:
 252:.\i2cuart.c   ****             MyI2C_Regs.osdp_reader_buffer[i]=0;
 801              		.loc 1 252 0 discriminator 2
 802 0010 094A     		ldr	r2, .L62
 803 0012 7B68     		ldr	r3, [r7, #4]
 804 0014 1344     		add	r3, r3, r2
 805 0016 D033     		adds	r3, r3, #208
 806 0018 0022     		movs	r2, #0
 807 001a 1A70     		strb	r2, [r3]
 251:.\i2cuart.c   ****         for ( i=0; i<OSDP_READER_BUFFER_LENGTH; i++){
 808              		.loc 1 251 0 discriminator 2
 809 001c 7B68     		ldr	r3, [r7, #4]
 810 001e 0133     		adds	r3, r3, #1
 811 0020 7B60     		str	r3, [r7, #4]
 812              	.L60:
 251:.\i2cuart.c   ****         for ( i=0; i<OSDP_READER_BUFFER_LENGTH; i++){
 813              		.loc 1 251 0 is_stmt 0 discriminator 1
 814 0022 7B68     		ldr	r3, [r7, #4]
 815 0024 2F2B     		cmp	r3, #47
 816 0026 F3DD     		ble	.L61
 253:.\i2cuart.c   ****         }
 254:.\i2cuart.c   ****         MyI2C_Regs.osdp_reader_data_length = 0;
ARM GAS  C:\Users\Yiquing\AppData\Local\Temp\ccuSelAP.s 			page 20


 817              		.loc 1 254 0 is_stmt 1
 818 0028 034B     		ldr	r3, .L62
 819 002a 0022     		movs	r2, #0
 820 002c 83F8CE20 		strb	r2, [r3, #206]
 255:.\i2cuart.c   **** }
 821              		.loc 1 255 0
 822 0030 0837     		adds	r7, r7, #8
 823 0032 BD46     		mov	sp, r7
 824              		@ sp needed
 825 0034 80BD     		pop	{r7, pc}
 826              	.L63:
 827 0036 00BF     		.align	2
 828              	.L62:
 829 0038 00000000 		.word	MyI2C_Regs
 830              		.cfi_endproc
 831              	.LFE71:
 832              		.size	ClearOsdpReaderBuffer, .-ClearOsdpReaderBuffer
 833              		.section	.text.SendOSDPReader,"ax",%progbits
 834              		.align	2
 835              		.global	SendOSDPReader
 836              		.thumb
 837              		.thumb_func
 838              		.type	SendOSDPReader, %function
 839              	SendOSDPReader:
 840              	.LFB72:
 256:.\i2cuart.c   **** 
 257:.\i2cuart.c   **** void SendOSDPReader()
 258:.\i2cuart.c   **** {
 841              		.loc 1 258 0
 842              		.cfi_startproc
 843              		@ args = 0, pretend = 0, frame = 0
 844              		@ frame_needed = 1, uses_anonymous_args = 0
 845 0000 80B5     		push	{r7, lr}
 846              		.cfi_def_cfa_offset 8
 847              		.cfi_offset 7, -8
 848              		.cfi_offset 14, -4
 849 0002 00AF     		add	r7, sp, #0
 850              		.cfi_def_cfa_register 7
 259:.\i2cuart.c   ****     
 260:.\i2cuart.c   ****     Mode_Sel_CR_Write(1); //set the SP335e chip to RS485
 851              		.loc 1 260 0
 852 0004 0120     		movs	r0, #1
 853 0006 FFF7FEFF 		bl	Mode_Sel_CR_Write
 261:.\i2cuart.c   ****     CR_DE_Write(1);
 854              		.loc 1 261 0
 855 000a 0120     		movs	r0, #1
 856 000c FFF7FEFF 		bl	CR_DE_Write
 262:.\i2cuart.c   ****     UART_READER_LoadTxConfig();
 857              		.loc 1 262 0
 858 0010 FFF7FEFF 		bl	UART_READER_LoadTxConfig
 263:.\i2cuart.c   ****     CyDelay(1); //Driver Output Enable Time, do not reduce. 
 859              		.loc 1 263 0
 860 0014 0120     		movs	r0, #1
 861 0016 FFF7FEFF 		bl	CyDelay
 264:.\i2cuart.c   ****     if(keepALive[0] == 0x53){
 862              		.loc 1 264 0
 863 001a 094B     		ldr	r3, .L66
ARM GAS  C:\Users\Yiquing\AppData\Local\Temp\ccuSelAP.s 			page 21


 864 001c 1B78     		ldrb	r3, [r3]	@ zero_extendqisi2
 865 001e 532B     		cmp	r3, #83
 866 0020 08D1     		bne	.L65
 265:.\i2cuart.c   ****         UART_READER_PutArray(keepALive,keepALiveLength); 
 867              		.loc 1 265 0
 868 0022 084B     		ldr	r3, .L66+4
 869 0024 1B78     		ldrb	r3, [r3]	@ zero_extendqisi2
 870 0026 0648     		ldr	r0, .L66
 871 0028 1946     		mov	r1, r3
 872 002a FFF7FEFF 		bl	UART_READER_PutArray
 266:.\i2cuart.c   ****         CyDelay(5); //minmum 4ms
 873              		.loc 1 266 0
 874 002e 0520     		movs	r0, #5
 875 0030 FFF7FEFF 		bl	CyDelay
 876              	.L65:
 267:.\i2cuart.c   ****     }
 268:.\i2cuart.c   **** 
 269:.\i2cuart.c   **** //    MyI2C_Regs.osdp_status |= OSDP_READER_DATA_SENT;
 270:.\i2cuart.c   ****     UART_READER_LoadRxConfig();  //set to receiving mode
 877              		.loc 1 270 0
 878 0034 FFF7FEFF 		bl	UART_READER_LoadRxConfig
 271:.\i2cuart.c   ****     CR_DE_Write(0);
 879              		.loc 1 271 0
 880 0038 0020     		movs	r0, #0
 881 003a FFF7FEFF 		bl	CR_DE_Write
 272:.\i2cuart.c   **** 
 273:.\i2cuart.c   **** }
 882              		.loc 1 273 0
 883 003e 80BD     		pop	{r7, pc}
 884              	.L67:
 885              		.align	2
 886              	.L66:
 887 0040 00000000 		.word	keepALive
 888 0044 00000000 		.word	keepALiveLength
 889              		.cfi_endproc
 890              	.LFE72:
 891              		.size	SendOSDPReader, .-SendOSDPReader
 892              		.section	.text.ReadOSDPReader,"ax",%progbits
 893              		.align	2
 894              		.global	ReadOSDPReader
 895              		.thumb
 896              		.thumb_func
 897              		.type	ReadOSDPReader, %function
 898              	ReadOSDPReader:
 899              	.LFB73:
 274:.\i2cuart.c   **** 
 275:.\i2cuart.c   **** void ReadOSDPReader()
 276:.\i2cuart.c   **** {
 900              		.loc 1 276 0
 901              		.cfi_startproc
 902              		@ args = 0, pretend = 0, frame = 16
 903              		@ frame_needed = 1, uses_anonymous_args = 0
 904 0000 80B5     		push	{r7, lr}
 905              		.cfi_def_cfa_offset 8
 906              		.cfi_offset 7, -8
 907              		.cfi_offset 14, -4
 908 0002 84B0     		sub	sp, sp, #16
ARM GAS  C:\Users\Yiquing\AppData\Local\Temp\ccuSelAP.s 			page 22


 909              		.cfi_def_cfa_offset 24
 910 0004 00AF     		add	r7, sp, #0
 911              		.cfi_def_cfa_register 7
 277:.\i2cuart.c   ****     int byteCount =0;
 912              		.loc 1 277 0
 913 0006 0023     		movs	r3, #0
 914 0008 FB60     		str	r3, [r7, #12]
 278:.\i2cuart.c   ****     unsigned char tmp = 0;
 915              		.loc 1 278 0
 916 000a 0023     		movs	r3, #0
 917 000c FB70     		strb	r3, [r7, #3]
 279:.\i2cuart.c   ****     char msg_started = 0;
 918              		.loc 1 279 0
 919 000e 0023     		movs	r3, #0
 920 0010 FB72     		strb	r3, [r7, #11]
 280:.\i2cuart.c   ****     int i;
 281:.\i2cuart.c   ****     
 282:.\i2cuart.c   ****     Mode_Sel_CR_Write(1); //set the chip to RS485 mode
 921              		.loc 1 282 0
 922 0012 0120     		movs	r0, #1
 923 0014 FFF7FEFF 		bl	Mode_Sel_CR_Write
 283:.\i2cuart.c   **** 
 284:.\i2cuart.c   ****     if (UART_READER_GetRxBufferSize()>= 5)
 924              		.loc 1 284 0
 925 0018 FFF7FEFF 		bl	UART_READER_GetRxBufferSize
 926 001c 0346     		mov	r3, r0
 927 001e 042B     		cmp	r3, #4
 928 0020 40F29380 		bls	.L68
 285:.\i2cuart.c   ****     {
 286:.\i2cuart.c   ****         for(i=0;i<5;i++) {
 929              		.loc 1 286 0
 930 0024 0023     		movs	r3, #0
 931 0026 7B60     		str	r3, [r7, #4]
 932 0028 0CE0     		b	.L70
 933              	.L73:
 287:.\i2cuart.c   ****             tmp = UART_READER_GetChar();
 934              		.loc 1 287 0
 935 002a FFF7FEFF 		bl	UART_READER_GetChar
 936 002e 0346     		mov	r3, r0
 937 0030 FB70     		strb	r3, [r7, #3]
 288:.\i2cuart.c   ****             if (tmp == 0x53) {
 938              		.loc 1 288 0
 939 0032 FB78     		ldrb	r3, [r7, #3]	@ zero_extendqisi2
 940 0034 532B     		cmp	r3, #83
 941 0036 02D1     		bne	.L71
 289:.\i2cuart.c   ****                 msg_started = 1;
 942              		.loc 1 289 0
 943 0038 0123     		movs	r3, #1
 944 003a FB72     		strb	r3, [r7, #11]
 290:.\i2cuart.c   ****                 break;
 945              		.loc 1 290 0
 946 003c 05E0     		b	.L72
 947              	.L71:
 286:.\i2cuart.c   ****         for(i=0;i<5;i++) {
 948              		.loc 1 286 0
 949 003e 7B68     		ldr	r3, [r7, #4]
 950 0040 0133     		adds	r3, r3, #1
ARM GAS  C:\Users\Yiquing\AppData\Local\Temp\ccuSelAP.s 			page 23


 951 0042 7B60     		str	r3, [r7, #4]
 952              	.L70:
 286:.\i2cuart.c   ****         for(i=0;i<5;i++) {
 953              		.loc 1 286 0 is_stmt 0 discriminator 1
 954 0044 7B68     		ldr	r3, [r7, #4]
 955 0046 042B     		cmp	r3, #4
 956 0048 EFDD     		ble	.L73
 957              	.L72:
 291:.\i2cuart.c   ****             }
 292:.\i2cuart.c   ****         } 
 293:.\i2cuart.c   ****         
 294:.\i2cuart.c   ****         if (msg_started){
 958              		.loc 1 294 0 is_stmt 1
 959 004a FB7A     		ldrb	r3, [r7, #11]	@ zero_extendqisi2
 960 004c 002B     		cmp	r3, #0
 961 004e 1AD0     		beq	.L74
 295:.\i2cuart.c   ****             tmp = UART_READER_GetChar();
 962              		.loc 1 295 0
 963 0050 FFF7FEFF 		bl	UART_READER_GetChar
 964 0054 0346     		mov	r3, r0
 965 0056 FB70     		strb	r3, [r7, #3]
 296:.\i2cuart.c   ****             osdp_reader_msg_header.addr = tmp;
 966              		.loc 1 296 0
 967 0058 3D4B     		ldr	r3, .L81
 968 005a FA78     		ldrb	r2, [r7, #3]
 969 005c 1A70     		strb	r2, [r3]
 297:.\i2cuart.c   ****             
 298:.\i2cuart.c   ****             tmp = UART_READER_GetChar();
 970              		.loc 1 298 0
 971 005e FFF7FEFF 		bl	UART_READER_GetChar
 972 0062 0346     		mov	r3, r0
 973 0064 FB70     		strb	r3, [r7, #3]
 299:.\i2cuart.c   ****             osdp_reader_msg_header.u.length[0] = tmp;
 974              		.loc 1 299 0
 975 0066 3A4B     		ldr	r3, .L81
 976 0068 FA78     		ldrb	r2, [r7, #3]
 977 006a 9A70     		strb	r2, [r3, #2]
 300:.\i2cuart.c   ****             
 301:.\i2cuart.c   ****             tmp = UART_READER_GetChar();
 978              		.loc 1 301 0
 979 006c FFF7FEFF 		bl	UART_READER_GetChar
 980 0070 0346     		mov	r3, r0
 981 0072 FB70     		strb	r3, [r7, #3]
 302:.\i2cuart.c   ****             osdp_reader_msg_header.u.length[1] = tmp;
 982              		.loc 1 302 0
 983 0074 364B     		ldr	r3, .L81
 984 0076 FA78     		ldrb	r2, [r7, #3]
 985 0078 DA70     		strb	r2, [r3, #3]
 303:.\i2cuart.c   ****         } 
 304:.\i2cuart.c   ****         else
 305:.\i2cuart.c   ****         {
 306:.\i2cuart.c   ****             //the message is not started yet
 307:.\i2cuart.c   ****             return;
 308:.\i2cuart.c   ****         }
 309:.\i2cuart.c   ****         
 310:.\i2cuart.c   ****         if (osdp_reader_msg_header.u.len <5) return; //discard bad message, too short.
 986              		.loc 1 310 0
ARM GAS  C:\Users\Yiquing\AppData\Local\Temp\ccuSelAP.s 			page 24


 987 007a 354B     		ldr	r3, .L81
 988 007c 5B88     		ldrh	r3, [r3, #2]
 989 007e 1BB2     		sxth	r3, r3
 990 0080 042B     		cmp	r3, #4
 991 0082 02DC     		bgt	.L76
 992 0084 00E0     		b	.L80
 993              	.L74:
 307:.\i2cuart.c   ****             return;
 994              		.loc 1 307 0
 995 0086 60E0     		b	.L68
 996              	.L80:
 997              		.loc 1 310 0 discriminator 1
 998 0088 5FE0     		b	.L68
 999              	.L76:
 311:.\i2cuart.c   ****         
 312:.\i2cuart.c   ****         byteCount = 0;
 1000              		.loc 1 312 0
 1001 008a 0023     		movs	r3, #0
 1002 008c FB60     		str	r3, [r7, #12]
 313:.\i2cuart.c   ****         MyI2C_Regs.osdp_reader_buffer[byteCount] = 0x53;
 1003              		.loc 1 313 0
 1004 008e 314A     		ldr	r2, .L81+4
 1005 0090 FB68     		ldr	r3, [r7, #12]
 1006 0092 1344     		add	r3, r3, r2
 1007 0094 D033     		adds	r3, r3, #208
 1008 0096 5322     		movs	r2, #83
 1009 0098 1A70     		strb	r2, [r3]
 314:.\i2cuart.c   ****         byteCount++;
 1010              		.loc 1 314 0
 1011 009a FB68     		ldr	r3, [r7, #12]
 1012 009c 0133     		adds	r3, r3, #1
 1013 009e FB60     		str	r3, [r7, #12]
 315:.\i2cuart.c   ****         MyI2C_Regs.osdp_reader_buffer[byteCount] = osdp_reader_msg_header.addr;
 1014              		.loc 1 315 0
 1015 00a0 2B4B     		ldr	r3, .L81
 1016 00a2 1A78     		ldrb	r2, [r3]	@ zero_extendqisi2
 1017 00a4 2B49     		ldr	r1, .L81+4
 1018 00a6 FB68     		ldr	r3, [r7, #12]
 1019 00a8 0B44     		add	r3, r3, r1
 1020 00aa D033     		adds	r3, r3, #208
 1021 00ac 1A70     		strb	r2, [r3]
 316:.\i2cuart.c   ****         byteCount++;
 1022              		.loc 1 316 0
 1023 00ae FB68     		ldr	r3, [r7, #12]
 1024 00b0 0133     		adds	r3, r3, #1
 1025 00b2 FB60     		str	r3, [r7, #12]
 317:.\i2cuart.c   ****         MyI2C_Regs.osdp_reader_buffer[byteCount] = osdp_reader_msg_header.u.length[0];
 1026              		.loc 1 317 0
 1027 00b4 264B     		ldr	r3, .L81
 1028 00b6 9A78     		ldrb	r2, [r3, #2]	@ zero_extendqisi2
 1029 00b8 2649     		ldr	r1, .L81+4
 1030 00ba FB68     		ldr	r3, [r7, #12]
 1031 00bc 0B44     		add	r3, r3, r1
 1032 00be D033     		adds	r3, r3, #208
 1033 00c0 1A70     		strb	r2, [r3]
 318:.\i2cuart.c   ****         byteCount++;
 1034              		.loc 1 318 0
ARM GAS  C:\Users\Yiquing\AppData\Local\Temp\ccuSelAP.s 			page 25


 1035 00c2 FB68     		ldr	r3, [r7, #12]
 1036 00c4 0133     		adds	r3, r3, #1
 1037 00c6 FB60     		str	r3, [r7, #12]
 319:.\i2cuart.c   ****         MyI2C_Regs.osdp_reader_buffer[byteCount] = osdp_reader_msg_header.u.length[1];
 1038              		.loc 1 319 0
 1039 00c8 214B     		ldr	r3, .L81
 1040 00ca DA78     		ldrb	r2, [r3, #3]	@ zero_extendqisi2
 1041 00cc 2149     		ldr	r1, .L81+4
 1042 00ce FB68     		ldr	r3, [r7, #12]
 1043 00d0 0B44     		add	r3, r3, r1
 1044 00d2 D033     		adds	r3, r3, #208
 1045 00d4 1A70     		strb	r2, [r3]
 320:.\i2cuart.c   ****         byteCount++;
 1046              		.loc 1 320 0
 1047 00d6 FB68     		ldr	r3, [r7, #12]
 1048 00d8 0133     		adds	r3, r3, #1
 1049 00da FB60     		str	r3, [r7, #12]
 321:.\i2cuart.c   ****         
 322:.\i2cuart.c   ****         if(osdp_reader_msg_header.u.len > OSDP_READER_BUFFER_LENGTH){
 1050              		.loc 1 322 0
 1051 00dc 1C4B     		ldr	r3, .L81
 1052 00de 5B88     		ldrh	r3, [r3, #2]
 1053 00e0 1BB2     		sxth	r3, r3
 1054 00e2 302B     		cmp	r3, #48
 1055 00e4 03DD     		ble	.L77
 323:.\i2cuart.c   ****             //error, the message is too long
 324:.\i2cuart.c   ****             osdp_reader_msg_header.u.len = OSDP_READER_BUFFER_LENGTH;
 1056              		.loc 1 324 0
 1057 00e6 1A4B     		ldr	r3, .L81
 1058 00e8 3022     		movs	r2, #48
 1059 00ea 5A80     		strh	r2, [r3, #2]	@ movhi
 325:.\i2cuart.c   ****             return;
 1060              		.loc 1 325 0
 1061 00ec 2DE0     		b	.L68
 1062              	.L77:
 326:.\i2cuart.c   ****         }
 327:.\i2cuart.c   ****         
 328:.\i2cuart.c   ****         for (; byteCount<osdp_reader_msg_header.u.len;){  //may need timeout here
 1063              		.loc 1 328 0
 1064 00ee 11E0     		b	.L78
 1065              	.L79:
 329:.\i2cuart.c   ****             if (UART_READER_GetRxBufferSize()>0){
 1066              		.loc 1 329 0
 1067 00f0 FFF7FEFF 		bl	UART_READER_GetRxBufferSize
 1068 00f4 0346     		mov	r3, r0
 1069 00f6 002B     		cmp	r3, #0
 1070 00f8 0CD0     		beq	.L78
 330:.\i2cuart.c   ****                 tmp = UART_READER_GetChar();
 1071              		.loc 1 330 0
 1072 00fa FFF7FEFF 		bl	UART_READER_GetChar
 1073 00fe 0346     		mov	r3, r0
 1074 0100 FB70     		strb	r3, [r7, #3]
 331:.\i2cuart.c   ****                 MyI2C_Regs.osdp_reader_buffer[byteCount] = tmp;
 1075              		.loc 1 331 0
 1076 0102 144A     		ldr	r2, .L81+4
 1077 0104 FB68     		ldr	r3, [r7, #12]
 1078 0106 1344     		add	r3, r3, r2
ARM GAS  C:\Users\Yiquing\AppData\Local\Temp\ccuSelAP.s 			page 26


 1079 0108 D033     		adds	r3, r3, #208
 1080 010a FA78     		ldrb	r2, [r7, #3]
 1081 010c 1A70     		strb	r2, [r3]
 332:.\i2cuart.c   ****                 byteCount++;
 1082              		.loc 1 332 0
 1083 010e FB68     		ldr	r3, [r7, #12]
 1084 0110 0133     		adds	r3, r3, #1
 1085 0112 FB60     		str	r3, [r7, #12]
 1086              	.L78:
 328:.\i2cuart.c   ****         for (; byteCount<osdp_reader_msg_header.u.len;){  //may need timeout here
 1087              		.loc 1 328 0 discriminator 1
 1088 0114 0E4B     		ldr	r3, .L81
 1089 0116 5B88     		ldrh	r3, [r3, #2]
 1090 0118 1AB2     		sxth	r2, r3
 1091 011a FB68     		ldr	r3, [r7, #12]
 1092 011c 9A42     		cmp	r2, r3
 1093 011e E7DC     		bgt	.L79
 333:.\i2cuart.c   ****             }
 334:.\i2cuart.c   ****         }
 335:.\i2cuart.c   **** 
 336:.\i2cuart.c   ****         MyI2C_Regs.osdp_reader_data_length = osdp_reader_msg_header.u.len;
 1094              		.loc 1 336 0
 1095 0120 0B4B     		ldr	r3, .L81
 1096 0122 5B88     		ldrh	r3, [r3, #2]
 1097 0124 DAB2     		uxtb	r2, r3
 1098 0126 0B4B     		ldr	r3, .L81+4
 1099 0128 83F8CE20 		strb	r2, [r3, #206]
 337:.\i2cuart.c   ****         MyI2C_Regs.osdp_status |= OSDP_READER_DATA_IN_READY;
 1100              		.loc 1 337 0
 1101 012c 094B     		ldr	r3, .L81+4
 1102 012e 93F84A30 		ldrb	r3, [r3, #74]	@ zero_extendqisi2
 1103 0132 43F02003 		orr	r3, r3, #32
 1104 0136 DAB2     		uxtb	r2, r3
 1105 0138 064B     		ldr	r3, .L81+4
 1106 013a 83F84A20 		strb	r2, [r3, #74]
 338:.\i2cuart.c   ****         MyI2C_Regs.osdp_reader_cmd = OSDP_READ;  //clear completed command
 1107              		.loc 1 338 0
 1108 013e 054B     		ldr	r3, .L81+4
 1109 0140 0222     		movs	r2, #2
 1110 0142 83F8CD20 		strb	r2, [r3, #205]
 339:.\i2cuart.c   ****         OSDPReaderTimer_Start();
 1111              		.loc 1 339 0
 1112 0146 FFF7FEFF 		bl	OSDPReaderTimer_Start
 1113              	.L68:
 340:.\i2cuart.c   ****     }
 341:.\i2cuart.c   **** }
 1114              		.loc 1 341 0
 1115 014a 1037     		adds	r7, r7, #16
 1116 014c BD46     		mov	sp, r7
 1117              		@ sp needed
 1118 014e 80BD     		pop	{r7, pc}
 1119              	.L82:
 1120              		.align	2
 1121              	.L81:
 1122 0150 00000000 		.word	osdp_reader_msg_header
 1123 0154 00000000 		.word	MyI2C_Regs
 1124              		.cfi_endproc
ARM GAS  C:\Users\Yiquing\AppData\Local\Temp\ccuSelAP.s 			page 27


 1125              	.LFE73:
 1126              		.size	ReadOSDPReader, .-ReadOSDPReader
 1127              		.section	.text.SetOSDPReaderSpeed,"ax",%progbits
 1128              		.align	2
 1129              		.global	SetOSDPReaderSpeed
 1130              		.thumb
 1131              		.thumb_func
 1132              		.type	SetOSDPReaderSpeed, %function
 1133              	SetOSDPReaderSpeed:
 1134              	.LFB74:
 342:.\i2cuart.c   **** 
 343:.\i2cuart.c   **** void SetOSDPReaderSpeed(){
 1135              		.loc 1 343 0
 1136              		.cfi_startproc
 1137              		@ args = 0, pretend = 0, frame = 8
 1138              		@ frame_needed = 1, uses_anonymous_args = 0
 1139 0000 80B5     		push	{r7, lr}
 1140              		.cfi_def_cfa_offset 8
 1141              		.cfi_offset 7, -8
 1142              		.cfi_offset 14, -4
 1143 0002 82B0     		sub	sp, sp, #8
 1144              		.cfi_def_cfa_offset 16
 1145 0004 00AF     		add	r7, sp, #0
 1146              		.cfi_def_cfa_register 7
 344:.\i2cuart.c   ****     char rate;
 345:.\i2cuart.c   **** 
 346:.\i2cuart.c   ****     rate = MyI2C_Regs.osdp_reader_rate;
 1147              		.loc 1 346 0
 1148 0006 164B     		ldr	r3, .L90
 1149 0008 93F8CF30 		ldrb	r3, [r3, #207]
 1150 000c FB71     		strb	r3, [r7, #7]
 347:.\i2cuart.c   ****     switch(rate){
 1151              		.loc 1 347 0
 1152 000e FB79     		ldrb	r3, [r7, #7]	@ zero_extendqisi2
 1153 0010 013B     		subs	r3, r3, #1
 1154 0012 032B     		cmp	r3, #3
 1155 0014 20D8     		bhi	.L83
 1156 0016 01A2     		adr	r2, .L86
 1157 0018 52F823F0 		ldr	pc, [r2, r3, lsl #2]
 1158              		.p2align 2
 1159              	.L86:
 1160 001c 2D000000 		.word	.L85+1
 1161 0020 39000000 		.word	.L87+1
 1162 0024 45000000 		.word	.L88+1
 1163 0028 4F000000 		.word	.L89+1
 1164              		.p2align 1
 1165              	.L85:
 348:.\i2cuart.c   ****         case OSDP_9600:
 349:.\i2cuart.c   ****             Clock_6_SetDividerValue(625); //  48000000/625=9600
 1166              		.loc 1 349 0
 1167 002c 4FF41C70 		mov	r0, #624
 1168 0030 0121     		movs	r1, #1
 1169 0032 FFF7FEFF 		bl	Clock_6_SetDividerRegister
 350:.\i2cuart.c   ****             break;
 1170              		.loc 1 350 0
 1171 0036 0FE0     		b	.L83
 1172              	.L87:
ARM GAS  C:\Users\Yiquing\AppData\Local\Temp\ccuSelAP.s 			page 28


 351:.\i2cuart.c   ****         case OSDP_19200:
 352:.\i2cuart.c   ****             Clock_6_SetDividerValue(312);
 1173              		.loc 1 352 0
 1174 0038 40F23710 		movw	r0, #311
 1175 003c 0121     		movs	r1, #1
 1176 003e FFF7FEFF 		bl	Clock_6_SetDividerRegister
 353:.\i2cuart.c   ****             break;
 1177              		.loc 1 353 0
 1178 0042 09E0     		b	.L83
 1179              	.L88:
 354:.\i2cuart.c   ****         case OSDP_38400:
 355:.\i2cuart.c   ****             Clock_6_SetDividerValue(156);
 1180              		.loc 1 355 0
 1181 0044 9B20     		movs	r0, #155
 1182 0046 0121     		movs	r1, #1
 1183 0048 FFF7FEFF 		bl	Clock_6_SetDividerRegister
 356:.\i2cuart.c   ****             break;
 1184              		.loc 1 356 0
 1185 004c 04E0     		b	.L83
 1186              	.L89:
 357:.\i2cuart.c   ****         case OSDP_115200:
 358:.\i2cuart.c   ****             Clock_6_SetDividerValue(52);
 1187              		.loc 1 358 0
 1188 004e 3320     		movs	r0, #51
 1189 0050 0121     		movs	r1, #1
 1190 0052 FFF7FEFF 		bl	Clock_6_SetDividerRegister
 359:.\i2cuart.c   ****             break;
 1191              		.loc 1 359 0
 1192 0056 00BF     		nop
 1193              	.L83:
 360:.\i2cuart.c   ****         default:;    
 361:.\i2cuart.c   ****     }
 362:.\i2cuart.c   **** }
 1194              		.loc 1 362 0
 1195 0058 0837     		adds	r7, r7, #8
 1196 005a BD46     		mov	sp, r7
 1197              		@ sp needed
 1198 005c 80BD     		pop	{r7, pc}
 1199              	.L91:
 1200 005e 00BF     		.align	2
 1201              	.L90:
 1202 0060 00000000 		.word	MyI2C_Regs
 1203              		.cfi_endproc
 1204              	.LFE74:
 1205              		.size	SetOSDPReaderSpeed, .-SetOSDPReaderSpeed
 1206              		.section	.text.SetOSDPKeepALive,"ax",%progbits
 1207              		.align	2
 1208              		.global	SetOSDPKeepALive
 1209              		.thumb
 1210              		.thumb_func
 1211              		.type	SetOSDPKeepALive, %function
 1212              	SetOSDPKeepALive:
 1213              	.LFB75:
 363:.\i2cuart.c   **** 
 364:.\i2cuart.c   **** 
 365:.\i2cuart.c   **** void SetOSDPKeepALive(){
 1214              		.loc 1 365 0
ARM GAS  C:\Users\Yiquing\AppData\Local\Temp\ccuSelAP.s 			page 29


 1215              		.cfi_startproc
 1216              		@ args = 0, pretend = 0, frame = 8
 1217              		@ frame_needed = 1, uses_anonymous_args = 0
 1218              		@ link register save eliminated.
 1219 0000 80B4     		push	{r7}
 1220              		.cfi_def_cfa_offset 4
 1221              		.cfi_offset 7, -4
 1222 0002 83B0     		sub	sp, sp, #12
 1223              		.cfi_def_cfa_offset 16
 1224 0004 00AF     		add	r7, sp, #0
 1225              		.cfi_def_cfa_register 7
 366:.\i2cuart.c   ****     int i;
 367:.\i2cuart.c   ****     unsigned char msg_size;
 368:.\i2cuart.c   ****     
 369:.\i2cuart.c   ****     msg_size=  MyI2C_Regs.osdp_reader_data_length;
 1226              		.loc 1 369 0
 1227 0006 184B     		ldr	r3, .L98
 1228 0008 93F8CE30 		ldrb	r3, [r3, #206]
 1229 000c FB70     		strb	r3, [r7, #3]
 370:.\i2cuart.c   ****     
 371:.\i2cuart.c   ****     if (msg_size <= OSDP_READER_BUFFER_LENGTH){
 1230              		.loc 1 371 0
 1231 000e FB78     		ldrb	r3, [r7, #3]	@ zero_extendqisi2
 1232 0010 302B     		cmp	r3, #48
 1233 0012 20D8     		bhi	.L93
 372:.\i2cuart.c   ****         for ( i=0; i<msg_size; i++){
 1234              		.loc 1 372 0
 1235 0014 0023     		movs	r3, #0
 1236 0016 7B60     		str	r3, [r7, #4]
 1237 0018 0BE0     		b	.L94
 1238              	.L95:
 373:.\i2cuart.c   ****             keepALive[i]=MyI2C_Regs.osdp_reader_buffer[i];
 1239              		.loc 1 373 0 discriminator 2
 1240 001a 134A     		ldr	r2, .L98
 1241 001c 7B68     		ldr	r3, [r7, #4]
 1242 001e 1344     		add	r3, r3, r2
 1243 0020 D033     		adds	r3, r3, #208
 1244 0022 1A78     		ldrb	r2, [r3]	@ zero_extendqisi2
 1245 0024 1149     		ldr	r1, .L98+4
 1246 0026 7B68     		ldr	r3, [r7, #4]
 1247 0028 0B44     		add	r3, r3, r1
 1248 002a 1A70     		strb	r2, [r3]
 372:.\i2cuart.c   ****         for ( i=0; i<msg_size; i++){
 1249              		.loc 1 372 0 discriminator 2
 1250 002c 7B68     		ldr	r3, [r7, #4]
 1251 002e 0133     		adds	r3, r3, #1
 1252 0030 7B60     		str	r3, [r7, #4]
 1253              	.L94:
 372:.\i2cuart.c   ****         for ( i=0; i<msg_size; i++){
 1254              		.loc 1 372 0 is_stmt 0 discriminator 1
 1255 0032 FA78     		ldrb	r2, [r7, #3]	@ zero_extendqisi2
 1256 0034 7B68     		ldr	r3, [r7, #4]
 1257 0036 9A42     		cmp	r2, r3
 1258 0038 EFDC     		bgt	.L95
 374:.\i2cuart.c   ****         }
 375:.\i2cuart.c   ****         for ( i=msg_size; i< OSDP_READER_BUFFER_LENGTH; i++){
 1259              		.loc 1 375 0 is_stmt 1
ARM GAS  C:\Users\Yiquing\AppData\Local\Temp\ccuSelAP.s 			page 30


 1260 003a FB78     		ldrb	r3, [r7, #3]	@ zero_extendqisi2
 1261 003c 7B60     		str	r3, [r7, #4]
 1262 003e 07E0     		b	.L96
 1263              	.L97:
 376:.\i2cuart.c   ****             keepALive[i] = 0;
 1264              		.loc 1 376 0 discriminator 2
 1265 0040 0A4A     		ldr	r2, .L98+4
 1266 0042 7B68     		ldr	r3, [r7, #4]
 1267 0044 1344     		add	r3, r3, r2
 1268 0046 0022     		movs	r2, #0
 1269 0048 1A70     		strb	r2, [r3]
 375:.\i2cuart.c   ****         for ( i=msg_size; i< OSDP_READER_BUFFER_LENGTH; i++){
 1270              		.loc 1 375 0 discriminator 2
 1271 004a 7B68     		ldr	r3, [r7, #4]
 1272 004c 0133     		adds	r3, r3, #1
 1273 004e 7B60     		str	r3, [r7, #4]
 1274              	.L96:
 375:.\i2cuart.c   ****         for ( i=msg_size; i< OSDP_READER_BUFFER_LENGTH; i++){
 1275              		.loc 1 375 0 is_stmt 0 discriminator 1
 1276 0050 7B68     		ldr	r3, [r7, #4]
 1277 0052 2F2B     		cmp	r3, #47
 1278 0054 F4DD     		ble	.L97
 1279              	.L93:
 377:.\i2cuart.c   ****         }
 378:.\i2cuart.c   ****     }
 379:.\i2cuart.c   ****     keepALiveLength = msg_size;
 1280              		.loc 1 379 0 is_stmt 1
 1281 0056 064B     		ldr	r3, .L98+8
 1282 0058 FA78     		ldrb	r2, [r7, #3]
 1283 005a 1A70     		strb	r2, [r3]
 380:.\i2cuart.c   **** }
 1284              		.loc 1 380 0
 1285 005c 0C37     		adds	r7, r7, #12
 1286 005e BD46     		mov	sp, r7
 1287              		@ sp needed
 1288 0060 5DF8047B 		ldr	r7, [sp], #4
 1289 0064 7047     		bx	lr
 1290              	.L99:
 1291 0066 00BF     		.align	2
 1292              	.L98:
 1293 0068 00000000 		.word	MyI2C_Regs
 1294 006c 00000000 		.word	keepALive
 1295 0070 00000000 		.word	keepALiveLength
 1296              		.cfi_endproc
 1297              	.LFE75:
 1298              		.size	SetOSDPKeepALive, .-SetOSDPKeepALive
 1299              		.text
 1300              	.Letext0:
 1301              		.file 2 "c:\\program files (x86)\\cypress\\psoc creator\\3.2\\psoc creator\\import\\gnu\\arm\\4.8.
 1302              		.file 3 "c:\\program files (x86)\\cypress\\psoc creator\\3.2\\psoc creator\\import\\gnu\\arm\\4.8.
 1303              		.file 4 "Generated_Source\\PSoC5/cytypes.h"
 1304              		.file 5 ".\\softuart.h"
 1305              		.file 6 ".\\system.h"
 1306              		.file 7 "Generated_Source\\PSoC5/core_cm3.h"