ARM GAS  C:\Users\Yiquing\AppData\Local\Temp\ccWEoD7F.s 			page 1


   1              		.syntax unified
   2              		.cpu cortex-m3
   3              		.fpu softvfp
   4              		.eabi_attribute 20, 1
   5              		.eabi_attribute 21, 1
   6              		.eabi_attribute 23, 3
   7              		.eabi_attribute 24, 1
   8              		.eabi_attribute 25, 1
   9              		.eabi_attribute 26, 1
  10              		.eabi_attribute 30, 6
  11              		.eabi_attribute 34, 1
  12              		.eabi_attribute 18, 4
  13              		.thumb
  14              		.file	"OSDP_Reader_Counter.c"
  15              		.text
  16              	.Ltext0:
  17              		.cfi_sections	.debug_frame
  18              		.global	OSDP_Reader_Counter_initVar
  19              		.bss
  20              		.type	OSDP_Reader_Counter_initVar, %object
  21              		.size	OSDP_Reader_Counter_initVar, 1
  22              	OSDP_Reader_Counter_initVar:
  23 0000 00       		.space	1
  24              		.section	.text.OSDP_Reader_Counter_Init,"ax",%progbits
  25              		.align	2
  26              		.global	OSDP_Reader_Counter_Init
  27              		.thumb
  28              		.thumb_func
  29              		.type	OSDP_Reader_Counter_Init, %function
  30              	OSDP_Reader_Counter_Init:
  31              	.LFB0:
  32              		.file 1 ".\\Generated_Source\\PSoC5\\OSDP_Reader_Counter.c"
   1:.\Generated_Source\PSoC5/OSDP_Reader_Counter.c **** /*******************************************************************************
   2:.\Generated_Source\PSoC5/OSDP_Reader_Counter.c **** * File Name: OSDP_Reader_Counter.c  
   3:.\Generated_Source\PSoC5/OSDP_Reader_Counter.c **** * Version 3.0
   4:.\Generated_Source\PSoC5/OSDP_Reader_Counter.c **** *
   5:.\Generated_Source\PSoC5/OSDP_Reader_Counter.c **** *  Description:
   6:.\Generated_Source\PSoC5/OSDP_Reader_Counter.c **** *     The Counter component consists of a 8, 16, 24 or 32-bit counter with
   7:.\Generated_Source\PSoC5/OSDP_Reader_Counter.c **** *     a selectable period between 2 and 2^Width - 1.  
   8:.\Generated_Source\PSoC5/OSDP_Reader_Counter.c **** *
   9:.\Generated_Source\PSoC5/OSDP_Reader_Counter.c **** *   Note:
  10:.\Generated_Source\PSoC5/OSDP_Reader_Counter.c **** *     None
  11:.\Generated_Source\PSoC5/OSDP_Reader_Counter.c **** *
  12:.\Generated_Source\PSoC5/OSDP_Reader_Counter.c **** ********************************************************************************
  13:.\Generated_Source\PSoC5/OSDP_Reader_Counter.c **** * Copyright 2008-2012, Cypress Semiconductor Corporation.  All rights reserved.
  14:.\Generated_Source\PSoC5/OSDP_Reader_Counter.c **** * You may use this file only in accordance with the license, terms, conditions, 
  15:.\Generated_Source\PSoC5/OSDP_Reader_Counter.c **** * disclaimers, and limitations in the end user license agreement accompanying 
  16:.\Generated_Source\PSoC5/OSDP_Reader_Counter.c **** * the software package with which this file was provided.
  17:.\Generated_Source\PSoC5/OSDP_Reader_Counter.c **** *******************************************************************************/
  18:.\Generated_Source\PSoC5/OSDP_Reader_Counter.c **** 
  19:.\Generated_Source\PSoC5/OSDP_Reader_Counter.c **** #include "OSDP_Reader_Counter.h"
  20:.\Generated_Source\PSoC5/OSDP_Reader_Counter.c **** 
  21:.\Generated_Source\PSoC5/OSDP_Reader_Counter.c **** uint8 OSDP_Reader_Counter_initVar = 0u;
  22:.\Generated_Source\PSoC5/OSDP_Reader_Counter.c **** 
  23:.\Generated_Source\PSoC5/OSDP_Reader_Counter.c **** 
  24:.\Generated_Source\PSoC5/OSDP_Reader_Counter.c **** /*******************************************************************************
  25:.\Generated_Source\PSoC5/OSDP_Reader_Counter.c **** * Function Name: OSDP_Reader_Counter_Init
ARM GAS  C:\Users\Yiquing\AppData\Local\Temp\ccWEoD7F.s 			page 2


  26:.\Generated_Source\PSoC5/OSDP_Reader_Counter.c **** ********************************************************************************
  27:.\Generated_Source\PSoC5/OSDP_Reader_Counter.c **** * Summary:
  28:.\Generated_Source\PSoC5/OSDP_Reader_Counter.c **** *     Initialize to the schematic state
  29:.\Generated_Source\PSoC5/OSDP_Reader_Counter.c **** * 
  30:.\Generated_Source\PSoC5/OSDP_Reader_Counter.c **** * Parameters:  
  31:.\Generated_Source\PSoC5/OSDP_Reader_Counter.c **** *  void  
  32:.\Generated_Source\PSoC5/OSDP_Reader_Counter.c **** *
  33:.\Generated_Source\PSoC5/OSDP_Reader_Counter.c **** * Return: 
  34:.\Generated_Source\PSoC5/OSDP_Reader_Counter.c **** *  void
  35:.\Generated_Source\PSoC5/OSDP_Reader_Counter.c **** *
  36:.\Generated_Source\PSoC5/OSDP_Reader_Counter.c **** *******************************************************************************/
  37:.\Generated_Source\PSoC5/OSDP_Reader_Counter.c **** void OSDP_Reader_Counter_Init(void) 
  38:.\Generated_Source\PSoC5/OSDP_Reader_Counter.c **** {
  33              		.loc 1 38 0
  34              		.cfi_startproc
  35              		@ args = 0, pretend = 0, frame = 0
  36              		@ frame_needed = 1, uses_anonymous_args = 0
  37 0000 80B5     		push	{r7, lr}
  38              		.cfi_def_cfa_offset 8
  39              		.cfi_offset 7, -8
  40              		.cfi_offset 14, -4
  41 0002 00AF     		add	r7, sp, #0
  42              		.cfi_def_cfa_register 7
  39:.\Generated_Source\PSoC5/OSDP_Reader_Counter.c ****         #if (!OSDP_Reader_Counter_UsingFixedFunction && !OSDP_Reader_Counter_ControlRegRemoved)
  40:.\Generated_Source\PSoC5/OSDP_Reader_Counter.c ****             uint8 ctrl;
  41:.\Generated_Source\PSoC5/OSDP_Reader_Counter.c ****         #endif /* (!OSDP_Reader_Counter_UsingFixedFunction && !OSDP_Reader_Counter_ControlRegRemove
  42:.\Generated_Source\PSoC5/OSDP_Reader_Counter.c ****         
  43:.\Generated_Source\PSoC5/OSDP_Reader_Counter.c ****         #if(!OSDP_Reader_Counter_UsingFixedFunction) 
  44:.\Generated_Source\PSoC5/OSDP_Reader_Counter.c ****             /* Interrupt State Backup for Critical Region*/
  45:.\Generated_Source\PSoC5/OSDP_Reader_Counter.c ****             uint8 OSDP_Reader_Counter_interruptState;
  46:.\Generated_Source\PSoC5/OSDP_Reader_Counter.c ****         #endif /* (!OSDP_Reader_Counter_UsingFixedFunction) */
  47:.\Generated_Source\PSoC5/OSDP_Reader_Counter.c ****         
  48:.\Generated_Source\PSoC5/OSDP_Reader_Counter.c ****         #if (OSDP_Reader_Counter_UsingFixedFunction)
  49:.\Generated_Source\PSoC5/OSDP_Reader_Counter.c ****             /* Clear all bits but the enable bit (if it's already set for Timer operation */
  50:.\Generated_Source\PSoC5/OSDP_Reader_Counter.c ****             OSDP_Reader_Counter_CONTROL &= OSDP_Reader_Counter_CTRL_ENABLE;
  43              		.loc 1 50 0
  44 0004 204B     		ldr	r3, .L2
  45 0006 204A     		ldr	r2, .L2
  46 0008 1278     		ldrb	r2, [r2]
  47 000a D2B2     		uxtb	r2, r2
  48 000c 02F00102 		and	r2, r2, #1
  49 0010 D2B2     		uxtb	r2, r2
  50 0012 1A70     		strb	r2, [r3]
  51:.\Generated_Source\PSoC5/OSDP_Reader_Counter.c ****             
  52:.\Generated_Source\PSoC5/OSDP_Reader_Counter.c ****             /* Clear the mode bits for continuous run mode */
  53:.\Generated_Source\PSoC5/OSDP_Reader_Counter.c ****             #if (CY_PSOC5A)
  54:.\Generated_Source\PSoC5/OSDP_Reader_Counter.c ****                 OSDP_Reader_Counter_CONTROL2 &= ((uint8)(~OSDP_Reader_Counter_CTRL_MODE_MASK));
  55:.\Generated_Source\PSoC5/OSDP_Reader_Counter.c ****             #endif /* (CY_PSOC5A) */
  56:.\Generated_Source\PSoC5/OSDP_Reader_Counter.c ****             #if (CY_PSOC3 || CY_PSOC5LP)
  57:.\Generated_Source\PSoC5/OSDP_Reader_Counter.c ****                 OSDP_Reader_Counter_CONTROL3 &= ((uint8)(~OSDP_Reader_Counter_CTRL_MODE_MASK));    
  51              		.loc 1 57 0
  52 0014 1D4B     		ldr	r3, .L2+4
  53 0016 1D4A     		ldr	r2, .L2+4
  54 0018 1278     		ldrb	r2, [r2]
  55 001a D2B2     		uxtb	r2, r2
  56 001c 22F00302 		bic	r2, r2, #3
  57 0020 D2B2     		uxtb	r2, r2
ARM GAS  C:\Users\Yiquing\AppData\Local\Temp\ccWEoD7F.s 			page 3


  58 0022 1A70     		strb	r2, [r3]
  58:.\Generated_Source\PSoC5/OSDP_Reader_Counter.c ****             #endif /* (CY_PSOC3 || CY_PSOC5LP) */
  59:.\Generated_Source\PSoC5/OSDP_Reader_Counter.c ****             /* Check if One Shot mode is enabled i.e. RunMode !=0*/
  60:.\Generated_Source\PSoC5/OSDP_Reader_Counter.c ****             #if (OSDP_Reader_Counter_RunModeUsed != 0x0u)
  61:.\Generated_Source\PSoC5/OSDP_Reader_Counter.c ****                 /* Set 3rd bit of Control register to enable one shot mode */
  62:.\Generated_Source\PSoC5/OSDP_Reader_Counter.c ****                 OSDP_Reader_Counter_CONTROL |= OSDP_Reader_Counter_ONESHOT;
  63:.\Generated_Source\PSoC5/OSDP_Reader_Counter.c ****             #endif /* (OSDP_Reader_Counter_RunModeUsed != 0x0u) */
  64:.\Generated_Source\PSoC5/OSDP_Reader_Counter.c ****             
  65:.\Generated_Source\PSoC5/OSDP_Reader_Counter.c ****             /* Set the IRQ to use the status register interrupts */
  66:.\Generated_Source\PSoC5/OSDP_Reader_Counter.c ****             OSDP_Reader_Counter_CONTROL2 |= OSDP_Reader_Counter_CTRL2_IRQ_SEL;
  59              		.loc 1 66 0
  60 0024 1A4B     		ldr	r3, .L2+8
  61 0026 1A4A     		ldr	r2, .L2+8
  62 0028 1278     		ldrb	r2, [r2]
  63 002a D2B2     		uxtb	r2, r2
  64 002c 42F00102 		orr	r2, r2, #1
  65 0030 D2B2     		uxtb	r2, r2
  66 0032 1A70     		strb	r2, [r3]
  67:.\Generated_Source\PSoC5/OSDP_Reader_Counter.c ****             
  68:.\Generated_Source\PSoC5/OSDP_Reader_Counter.c ****             /* Clear and Set SYNCTC and SYNCCMP bits of RT1 register */
  69:.\Generated_Source\PSoC5/OSDP_Reader_Counter.c ****             OSDP_Reader_Counter_RT1 &= ((uint8)(~OSDP_Reader_Counter_RT1_MASK));
  67              		.loc 1 69 0
  68 0034 174B     		ldr	r3, .L2+12
  69 0036 174A     		ldr	r2, .L2+12
  70 0038 1278     		ldrb	r2, [r2]
  71 003a D2B2     		uxtb	r2, r2
  72 003c 22F03002 		bic	r2, r2, #48
  73 0040 D2B2     		uxtb	r2, r2
  74 0042 1A70     		strb	r2, [r3]
  70:.\Generated_Source\PSoC5/OSDP_Reader_Counter.c ****             OSDP_Reader_Counter_RT1 |= OSDP_Reader_Counter_SYNC;     
  75              		.loc 1 70 0
  76 0044 134B     		ldr	r3, .L2+12
  77 0046 134A     		ldr	r2, .L2+12
  78 0048 1278     		ldrb	r2, [r2]
  79 004a D2B2     		uxtb	r2, r2
  80 004c 42F03002 		orr	r2, r2, #48
  81 0050 D2B2     		uxtb	r2, r2
  82 0052 1A70     		strb	r2, [r3]
  71:.\Generated_Source\PSoC5/OSDP_Reader_Counter.c ****                     
  72:.\Generated_Source\PSoC5/OSDP_Reader_Counter.c ****             /*Enable DSI Sync all all inputs of the Timer*/
  73:.\Generated_Source\PSoC5/OSDP_Reader_Counter.c ****             OSDP_Reader_Counter_RT1 &= ((uint8)(~OSDP_Reader_Counter_SYNCDSI_MASK));
  83              		.loc 1 73 0
  84 0054 0F4B     		ldr	r3, .L2+12
  85 0056 0F4A     		ldr	r2, .L2+12
  86 0058 1278     		ldrb	r2, [r2]
  87 005a D2B2     		uxtb	r2, r2
  88 005c 22F00F02 		bic	r2, r2, #15
  89 0060 D2B2     		uxtb	r2, r2
  90 0062 1A70     		strb	r2, [r3]
  74:.\Generated_Source\PSoC5/OSDP_Reader_Counter.c ****             OSDP_Reader_Counter_RT1 |= OSDP_Reader_Counter_SYNCDSI_EN;
  91              		.loc 1 74 0
  92 0064 0B4B     		ldr	r3, .L2+12
  93 0066 0B4A     		ldr	r2, .L2+12
  94 0068 1278     		ldrb	r2, [r2]
  95 006a D2B2     		uxtb	r2, r2
  96 006c 42F00F02 		orr	r2, r2, #15
  97 0070 D2B2     		uxtb	r2, r2
ARM GAS  C:\Users\Yiquing\AppData\Local\Temp\ccWEoD7F.s 			page 4


  98 0072 1A70     		strb	r2, [r3]
  75:.\Generated_Source\PSoC5/OSDP_Reader_Counter.c **** 
  76:.\Generated_Source\PSoC5/OSDP_Reader_Counter.c ****         #else
  77:.\Generated_Source\PSoC5/OSDP_Reader_Counter.c ****             #if(!OSDP_Reader_Counter_ControlRegRemoved)
  78:.\Generated_Source\PSoC5/OSDP_Reader_Counter.c ****             /* Set the default compare mode defined in the parameter */
  79:.\Generated_Source\PSoC5/OSDP_Reader_Counter.c ****             ctrl = OSDP_Reader_Counter_CONTROL & ((uint8)(~OSDP_Reader_Counter_CTRL_CMPMODE_MASK));
  80:.\Generated_Source\PSoC5/OSDP_Reader_Counter.c ****             OSDP_Reader_Counter_CONTROL = ctrl | OSDP_Reader_Counter_DEFAULT_COMPARE_MODE;
  81:.\Generated_Source\PSoC5/OSDP_Reader_Counter.c ****             
  82:.\Generated_Source\PSoC5/OSDP_Reader_Counter.c ****             /* Set the default capture mode defined in the parameter */
  83:.\Generated_Source\PSoC5/OSDP_Reader_Counter.c ****             ctrl = OSDP_Reader_Counter_CONTROL & ((uint8)(~OSDP_Reader_Counter_CTRL_CAPMODE_MASK));
  84:.\Generated_Source\PSoC5/OSDP_Reader_Counter.c ****             
  85:.\Generated_Source\PSoC5/OSDP_Reader_Counter.c ****             #if( 0 != OSDP_Reader_Counter_CAPTURE_MODE_CONF)
  86:.\Generated_Source\PSoC5/OSDP_Reader_Counter.c ****                 OSDP_Reader_Counter_CONTROL = ctrl | OSDP_Reader_Counter_DEFAULT_CAPTURE_MODE;
  87:.\Generated_Source\PSoC5/OSDP_Reader_Counter.c ****             #else
  88:.\Generated_Source\PSoC5/OSDP_Reader_Counter.c ****                 OSDP_Reader_Counter_CONTROL = ctrl;
  89:.\Generated_Source\PSoC5/OSDP_Reader_Counter.c ****             #endif /* 0 != OSDP_Reader_Counter_CAPTURE_MODE */ 
  90:.\Generated_Source\PSoC5/OSDP_Reader_Counter.c ****             
  91:.\Generated_Source\PSoC5/OSDP_Reader_Counter.c ****             #endif /* (!OSDP_Reader_Counter_ControlRegRemoved) */
  92:.\Generated_Source\PSoC5/OSDP_Reader_Counter.c ****         #endif /* (OSDP_Reader_Counter_UsingFixedFunction) */
  93:.\Generated_Source\PSoC5/OSDP_Reader_Counter.c ****         
  94:.\Generated_Source\PSoC5/OSDP_Reader_Counter.c ****         /* Clear all data in the FIFO's */
  95:.\Generated_Source\PSoC5/OSDP_Reader_Counter.c ****         #if (!OSDP_Reader_Counter_UsingFixedFunction)
  96:.\Generated_Source\PSoC5/OSDP_Reader_Counter.c ****             OSDP_Reader_Counter_ClearFIFO();
  97:.\Generated_Source\PSoC5/OSDP_Reader_Counter.c ****         #endif /* (!OSDP_Reader_Counter_UsingFixedFunction) */
  98:.\Generated_Source\PSoC5/OSDP_Reader_Counter.c ****         
  99:.\Generated_Source\PSoC5/OSDP_Reader_Counter.c ****         /* Set Initial values from Configuration */
 100:.\Generated_Source\PSoC5/OSDP_Reader_Counter.c ****         OSDP_Reader_Counter_WritePeriod(OSDP_Reader_Counter_INIT_PERIOD_VALUE);
  99              		.loc 1 100 0
 100 0074 6420     		movs	r0, #100
 101 0076 FFF7FEFF 		bl	OSDP_Reader_Counter_WritePeriod
 101:.\Generated_Source\PSoC5/OSDP_Reader_Counter.c ****         #if (!(OSDP_Reader_Counter_UsingFixedFunction && (CY_PSOC5A)))
 102:.\Generated_Source\PSoC5/OSDP_Reader_Counter.c ****             OSDP_Reader_Counter_WriteCounter(OSDP_Reader_Counter_INIT_COUNTER_VALUE);
 102              		.loc 1 102 0
 103 007a 0020     		movs	r0, #0
 104 007c FFF7FEFF 		bl	OSDP_Reader_Counter_WriteCounter
 103:.\Generated_Source\PSoC5/OSDP_Reader_Counter.c ****         #endif /* (!(OSDP_Reader_Counter_UsingFixedFunction && (CY_PSOC5A))) */
 104:.\Generated_Source\PSoC5/OSDP_Reader_Counter.c ****         OSDP_Reader_Counter_SetInterruptMode(OSDP_Reader_Counter_INIT_INTERRUPTS_MASK);
 105              		.loc 1 104 0
 106 0080 0820     		movs	r0, #8
 107 0082 FFF7FEFF 		bl	OSDP_Reader_Counter_SetInterruptMode
 105:.\Generated_Source\PSoC5/OSDP_Reader_Counter.c ****         
 106:.\Generated_Source\PSoC5/OSDP_Reader_Counter.c ****         #if (!OSDP_Reader_Counter_UsingFixedFunction)
 107:.\Generated_Source\PSoC5/OSDP_Reader_Counter.c ****             /* Read the status register to clear the unwanted interrupts */
 108:.\Generated_Source\PSoC5/OSDP_Reader_Counter.c ****             (void)OSDP_Reader_Counter_ReadStatusRegister();
 109:.\Generated_Source\PSoC5/OSDP_Reader_Counter.c ****             /* Set the compare value (only available to non-fixed function implementation */
 110:.\Generated_Source\PSoC5/OSDP_Reader_Counter.c ****             OSDP_Reader_Counter_WriteCompare(OSDP_Reader_Counter_INIT_COMPARE_VALUE);
 111:.\Generated_Source\PSoC5/OSDP_Reader_Counter.c ****             /* Use the interrupt output of the status register for IRQ output */
 112:.\Generated_Source\PSoC5/OSDP_Reader_Counter.c ****             
 113:.\Generated_Source\PSoC5/OSDP_Reader_Counter.c ****             /* CyEnterCriticalRegion and CyExitCriticalRegion are used to mark following region cri
 114:.\Generated_Source\PSoC5/OSDP_Reader_Counter.c ****             /* Enter Critical Region*/
 115:.\Generated_Source\PSoC5/OSDP_Reader_Counter.c ****             OSDP_Reader_Counter_interruptState = CyEnterCriticalSection();
 116:.\Generated_Source\PSoC5/OSDP_Reader_Counter.c ****             
 117:.\Generated_Source\PSoC5/OSDP_Reader_Counter.c ****             OSDP_Reader_Counter_STATUS_AUX_CTRL |= OSDP_Reader_Counter_STATUS_ACTL_INT_EN_MASK;
 118:.\Generated_Source\PSoC5/OSDP_Reader_Counter.c ****             
 119:.\Generated_Source\PSoC5/OSDP_Reader_Counter.c ****             /* Exit Critical Region*/
 120:.\Generated_Source\PSoC5/OSDP_Reader_Counter.c ****             CyExitCriticalSection(OSDP_Reader_Counter_interruptState);
 121:.\Generated_Source\PSoC5/OSDP_Reader_Counter.c ****             
ARM GAS  C:\Users\Yiquing\AppData\Local\Temp\ccWEoD7F.s 			page 5


 122:.\Generated_Source\PSoC5/OSDP_Reader_Counter.c ****         #endif /* (!OSDP_Reader_Counter_UsingFixedFunction) */
 123:.\Generated_Source\PSoC5/OSDP_Reader_Counter.c **** }
 108              		.loc 1 123 0
 109 0086 80BD     		pop	{r7, pc}
 110              	.L3:
 111              		.align	2
 112              	.L2:
 113 0088 004F0040 		.word	1073762048
 114 008c 024F0040 		.word	1073762050
 115 0090 014F0040 		.word	1073762049
 116 0094 0B4F0040 		.word	1073762059
 117              		.cfi_endproc
 118              	.LFE0:
 119              		.size	OSDP_Reader_Counter_Init, .-OSDP_Reader_Counter_Init
 120              		.section	.text.OSDP_Reader_Counter_Enable,"ax",%progbits
 121              		.align	2
 122              		.global	OSDP_Reader_Counter_Enable
 123              		.thumb
 124              		.thumb_func
 125              		.type	OSDP_Reader_Counter_Enable, %function
 126              	OSDP_Reader_Counter_Enable:
 127              	.LFB1:
 124:.\Generated_Source\PSoC5/OSDP_Reader_Counter.c **** 
 125:.\Generated_Source\PSoC5/OSDP_Reader_Counter.c **** 
 126:.\Generated_Source\PSoC5/OSDP_Reader_Counter.c **** /*******************************************************************************
 127:.\Generated_Source\PSoC5/OSDP_Reader_Counter.c **** * Function Name: OSDP_Reader_Counter_Enable
 128:.\Generated_Source\PSoC5/OSDP_Reader_Counter.c **** ********************************************************************************
 129:.\Generated_Source\PSoC5/OSDP_Reader_Counter.c **** * Summary:
 130:.\Generated_Source\PSoC5/OSDP_Reader_Counter.c **** *     Enable the Counter
 131:.\Generated_Source\PSoC5/OSDP_Reader_Counter.c **** * 
 132:.\Generated_Source\PSoC5/OSDP_Reader_Counter.c **** * Parameters:  
 133:.\Generated_Source\PSoC5/OSDP_Reader_Counter.c **** *  void  
 134:.\Generated_Source\PSoC5/OSDP_Reader_Counter.c **** *
 135:.\Generated_Source\PSoC5/OSDP_Reader_Counter.c **** * Return: 
 136:.\Generated_Source\PSoC5/OSDP_Reader_Counter.c **** *  void
 137:.\Generated_Source\PSoC5/OSDP_Reader_Counter.c **** *
 138:.\Generated_Source\PSoC5/OSDP_Reader_Counter.c **** * Side Effects: 
 139:.\Generated_Source\PSoC5/OSDP_Reader_Counter.c **** *   If the Enable mode is set to Hardware only then this function has no effect 
 140:.\Generated_Source\PSoC5/OSDP_Reader_Counter.c **** *   on the operation of the counter.
 141:.\Generated_Source\PSoC5/OSDP_Reader_Counter.c **** *
 142:.\Generated_Source\PSoC5/OSDP_Reader_Counter.c **** *******************************************************************************/
 143:.\Generated_Source\PSoC5/OSDP_Reader_Counter.c **** void OSDP_Reader_Counter_Enable(void) 
 144:.\Generated_Source\PSoC5/OSDP_Reader_Counter.c **** {
 128              		.loc 1 144 0
 129              		.cfi_startproc
 130              		@ args = 0, pretend = 0, frame = 0
 131              		@ frame_needed = 1, uses_anonymous_args = 0
 132              		@ link register save eliminated.
 133 0000 80B4     		push	{r7}
 134              		.cfi_def_cfa_offset 4
 135              		.cfi_offset 7, -4
 136 0002 00AF     		add	r7, sp, #0
 137              		.cfi_def_cfa_register 7
 145:.\Generated_Source\PSoC5/OSDP_Reader_Counter.c ****     /* Globally Enable the Fixed Function Block chosen */
 146:.\Generated_Source\PSoC5/OSDP_Reader_Counter.c ****     #if (OSDP_Reader_Counter_UsingFixedFunction)
 147:.\Generated_Source\PSoC5/OSDP_Reader_Counter.c ****         OSDP_Reader_Counter_GLOBAL_ENABLE |= OSDP_Reader_Counter_BLOCK_EN_MASK;
 138              		.loc 1 147 0
ARM GAS  C:\Users\Yiquing\AppData\Local\Temp\ccWEoD7F.s 			page 6


 139 0004 0D4B     		ldr	r3, .L5
 140 0006 0D4A     		ldr	r2, .L5
 141 0008 1278     		ldrb	r2, [r2]
 142 000a D2B2     		uxtb	r2, r2
 143 000c 42F00102 		orr	r2, r2, #1
 144 0010 D2B2     		uxtb	r2, r2
 145 0012 1A70     		strb	r2, [r3]
 148:.\Generated_Source\PSoC5/OSDP_Reader_Counter.c ****         OSDP_Reader_Counter_GLOBAL_STBY_ENABLE |= OSDP_Reader_Counter_BLOCK_STBY_EN_MASK;
 146              		.loc 1 148 0
 147 0014 0A4B     		ldr	r3, .L5+4
 148 0016 0A4A     		ldr	r2, .L5+4
 149 0018 1278     		ldrb	r2, [r2]
 150 001a D2B2     		uxtb	r2, r2
 151 001c 42F00102 		orr	r2, r2, #1
 152 0020 D2B2     		uxtb	r2, r2
 153 0022 1A70     		strb	r2, [r3]
 149:.\Generated_Source\PSoC5/OSDP_Reader_Counter.c ****     #endif /* (OSDP_Reader_Counter_UsingFixedFunction) */  
 150:.\Generated_Source\PSoC5/OSDP_Reader_Counter.c ****         
 151:.\Generated_Source\PSoC5/OSDP_Reader_Counter.c ****     /* Enable the counter from the control register  */
 152:.\Generated_Source\PSoC5/OSDP_Reader_Counter.c ****     /* If Fixed Function then make sure Mode is set correctly */
 153:.\Generated_Source\PSoC5/OSDP_Reader_Counter.c ****     /* else make sure reset is clear */
 154:.\Generated_Source\PSoC5/OSDP_Reader_Counter.c ****     #if(!OSDP_Reader_Counter_ControlRegRemoved || OSDP_Reader_Counter_UsingFixedFunction)
 155:.\Generated_Source\PSoC5/OSDP_Reader_Counter.c ****         OSDP_Reader_Counter_CONTROL |= OSDP_Reader_Counter_CTRL_ENABLE;                
 154              		.loc 1 155 0
 155 0024 074B     		ldr	r3, .L5+8
 156 0026 074A     		ldr	r2, .L5+8
 157 0028 1278     		ldrb	r2, [r2]
 158 002a D2B2     		uxtb	r2, r2
 159 002c 42F00102 		orr	r2, r2, #1
 160 0030 D2B2     		uxtb	r2, r2
 161 0032 1A70     		strb	r2, [r3]
 156:.\Generated_Source\PSoC5/OSDP_Reader_Counter.c ****     #endif /* (!OSDP_Reader_Counter_ControlRegRemoved || OSDP_Reader_Counter_UsingFixedFunction) */
 157:.\Generated_Source\PSoC5/OSDP_Reader_Counter.c ****     
 158:.\Generated_Source\PSoC5/OSDP_Reader_Counter.c **** }
 162              		.loc 1 158 0
 163 0034 BD46     		mov	sp, r7
 164              		@ sp needed
 165 0036 5DF8047B 		ldr	r7, [sp], #4
 166 003a 7047     		bx	lr
 167              	.L6:
 168              		.align	2
 169              	.L5:
 170 003c A3430040 		.word	1073759139
 171 0040 B3430040 		.word	1073759155
 172 0044 004F0040 		.word	1073762048
 173              		.cfi_endproc
 174              	.LFE1:
 175              		.size	OSDP_Reader_Counter_Enable, .-OSDP_Reader_Counter_Enable
 176              		.section	.text.OSDP_Reader_Counter_Start,"ax",%progbits
 177              		.align	2
 178              		.global	OSDP_Reader_Counter_Start
 179              		.thumb
 180              		.thumb_func
 181              		.type	OSDP_Reader_Counter_Start, %function
 182              	OSDP_Reader_Counter_Start:
 183              	.LFB2:
 159:.\Generated_Source\PSoC5/OSDP_Reader_Counter.c **** 
ARM GAS  C:\Users\Yiquing\AppData\Local\Temp\ccWEoD7F.s 			page 7


 160:.\Generated_Source\PSoC5/OSDP_Reader_Counter.c **** 
 161:.\Generated_Source\PSoC5/OSDP_Reader_Counter.c **** /*******************************************************************************
 162:.\Generated_Source\PSoC5/OSDP_Reader_Counter.c **** * Function Name: OSDP_Reader_Counter_Start
 163:.\Generated_Source\PSoC5/OSDP_Reader_Counter.c **** ********************************************************************************
 164:.\Generated_Source\PSoC5/OSDP_Reader_Counter.c **** * Summary:
 165:.\Generated_Source\PSoC5/OSDP_Reader_Counter.c **** *  Enables the counter for operation 
 166:.\Generated_Source\PSoC5/OSDP_Reader_Counter.c **** *
 167:.\Generated_Source\PSoC5/OSDP_Reader_Counter.c **** * Parameters:  
 168:.\Generated_Source\PSoC5/OSDP_Reader_Counter.c **** *  void  
 169:.\Generated_Source\PSoC5/OSDP_Reader_Counter.c **** *
 170:.\Generated_Source\PSoC5/OSDP_Reader_Counter.c **** * Return: 
 171:.\Generated_Source\PSoC5/OSDP_Reader_Counter.c **** *  void
 172:.\Generated_Source\PSoC5/OSDP_Reader_Counter.c **** *
 173:.\Generated_Source\PSoC5/OSDP_Reader_Counter.c **** * Global variables:
 174:.\Generated_Source\PSoC5/OSDP_Reader_Counter.c **** *  OSDP_Reader_Counter_initVar: Is modified when this function is called for the  
 175:.\Generated_Source\PSoC5/OSDP_Reader_Counter.c **** *   first time. Is used to ensure that initialization happens only once.
 176:.\Generated_Source\PSoC5/OSDP_Reader_Counter.c **** *
 177:.\Generated_Source\PSoC5/OSDP_Reader_Counter.c **** *******************************************************************************/
 178:.\Generated_Source\PSoC5/OSDP_Reader_Counter.c **** void OSDP_Reader_Counter_Start(void) 
 179:.\Generated_Source\PSoC5/OSDP_Reader_Counter.c **** {
 184              		.loc 1 179 0
 185              		.cfi_startproc
 186              		@ args = 0, pretend = 0, frame = 0
 187              		@ frame_needed = 1, uses_anonymous_args = 0
 188 0000 80B5     		push	{r7, lr}
 189              		.cfi_def_cfa_offset 8
 190              		.cfi_offset 7, -8
 191              		.cfi_offset 14, -4
 192 0002 00AF     		add	r7, sp, #0
 193              		.cfi_def_cfa_register 7
 180:.\Generated_Source\PSoC5/OSDP_Reader_Counter.c ****     if(OSDP_Reader_Counter_initVar == 0u)
 194              		.loc 1 180 0
 195 0004 054B     		ldr	r3, .L9
 196 0006 1B78     		ldrb	r3, [r3]	@ zero_extendqisi2
 197 0008 002B     		cmp	r3, #0
 198 000a 04D1     		bne	.L8
 181:.\Generated_Source\PSoC5/OSDP_Reader_Counter.c ****     {
 182:.\Generated_Source\PSoC5/OSDP_Reader_Counter.c ****         OSDP_Reader_Counter_Init();
 199              		.loc 1 182 0
 200 000c FFF7FEFF 		bl	OSDP_Reader_Counter_Init
 183:.\Generated_Source\PSoC5/OSDP_Reader_Counter.c ****         
 184:.\Generated_Source\PSoC5/OSDP_Reader_Counter.c ****         OSDP_Reader_Counter_initVar = 1u; /* Clear this bit for Initialization */        
 201              		.loc 1 184 0
 202 0010 024B     		ldr	r3, .L9
 203 0012 0122     		movs	r2, #1
 204 0014 1A70     		strb	r2, [r3]
 205              	.L8:
 185:.\Generated_Source\PSoC5/OSDP_Reader_Counter.c ****     }
 186:.\Generated_Source\PSoC5/OSDP_Reader_Counter.c ****     
 187:.\Generated_Source\PSoC5/OSDP_Reader_Counter.c ****     /* Enable the Counter */
 188:.\Generated_Source\PSoC5/OSDP_Reader_Counter.c ****     OSDP_Reader_Counter_Enable();        
 206              		.loc 1 188 0
 207 0016 FFF7FEFF 		bl	OSDP_Reader_Counter_Enable
 189:.\Generated_Source\PSoC5/OSDP_Reader_Counter.c **** }
 208              		.loc 1 189 0
 209 001a 80BD     		pop	{r7, pc}
 210              	.L10:
ARM GAS  C:\Users\Yiquing\AppData\Local\Temp\ccWEoD7F.s 			page 8


 211              		.align	2
 212              	.L9:
 213 001c 00000000 		.word	OSDP_Reader_Counter_initVar
 214              		.cfi_endproc
 215              	.LFE2:
 216              		.size	OSDP_Reader_Counter_Start, .-OSDP_Reader_Counter_Start
 217              		.section	.text.OSDP_Reader_Counter_Stop,"ax",%progbits
 218              		.align	2
 219              		.global	OSDP_Reader_Counter_Stop
 220              		.thumb
 221              		.thumb_func
 222              		.type	OSDP_Reader_Counter_Stop, %function
 223              	OSDP_Reader_Counter_Stop:
 224              	.LFB3:
 190:.\Generated_Source\PSoC5/OSDP_Reader_Counter.c **** 
 191:.\Generated_Source\PSoC5/OSDP_Reader_Counter.c **** 
 192:.\Generated_Source\PSoC5/OSDP_Reader_Counter.c **** /*******************************************************************************
 193:.\Generated_Source\PSoC5/OSDP_Reader_Counter.c **** * Function Name: OSDP_Reader_Counter_Stop
 194:.\Generated_Source\PSoC5/OSDP_Reader_Counter.c **** ********************************************************************************
 195:.\Generated_Source\PSoC5/OSDP_Reader_Counter.c **** * Summary:
 196:.\Generated_Source\PSoC5/OSDP_Reader_Counter.c **** * Halts the counter, but does not change any modes or disable interrupts.
 197:.\Generated_Source\PSoC5/OSDP_Reader_Counter.c **** *
 198:.\Generated_Source\PSoC5/OSDP_Reader_Counter.c **** * Parameters:  
 199:.\Generated_Source\PSoC5/OSDP_Reader_Counter.c **** *  void  
 200:.\Generated_Source\PSoC5/OSDP_Reader_Counter.c **** *
 201:.\Generated_Source\PSoC5/OSDP_Reader_Counter.c **** * Return: 
 202:.\Generated_Source\PSoC5/OSDP_Reader_Counter.c **** *  void
 203:.\Generated_Source\PSoC5/OSDP_Reader_Counter.c **** *
 204:.\Generated_Source\PSoC5/OSDP_Reader_Counter.c **** * Side Effects: If the Enable mode is set to Hardware only then this function
 205:.\Generated_Source\PSoC5/OSDP_Reader_Counter.c **** *               has no effect on the operation of the counter.
 206:.\Generated_Source\PSoC5/OSDP_Reader_Counter.c **** *
 207:.\Generated_Source\PSoC5/OSDP_Reader_Counter.c **** *******************************************************************************/
 208:.\Generated_Source\PSoC5/OSDP_Reader_Counter.c **** void OSDP_Reader_Counter_Stop(void) 
 209:.\Generated_Source\PSoC5/OSDP_Reader_Counter.c **** {
 225              		.loc 1 209 0
 226              		.cfi_startproc
 227              		@ args = 0, pretend = 0, frame = 0
 228              		@ frame_needed = 1, uses_anonymous_args = 0
 229              		@ link register save eliminated.
 230 0000 80B4     		push	{r7}
 231              		.cfi_def_cfa_offset 4
 232              		.cfi_offset 7, -4
 233 0002 00AF     		add	r7, sp, #0
 234              		.cfi_def_cfa_register 7
 210:.\Generated_Source\PSoC5/OSDP_Reader_Counter.c ****     /* Disable Counter */
 211:.\Generated_Source\PSoC5/OSDP_Reader_Counter.c ****     #if(!OSDP_Reader_Counter_ControlRegRemoved || OSDP_Reader_Counter_UsingFixedFunction)
 212:.\Generated_Source\PSoC5/OSDP_Reader_Counter.c ****         OSDP_Reader_Counter_CONTROL &= ((uint8)(~OSDP_Reader_Counter_CTRL_ENABLE));        
 235              		.loc 1 212 0
 236 0004 0D4B     		ldr	r3, .L12
 237 0006 0D4A     		ldr	r2, .L12
 238 0008 1278     		ldrb	r2, [r2]
 239 000a D2B2     		uxtb	r2, r2
 240 000c 22F00102 		bic	r2, r2, #1
 241 0010 D2B2     		uxtb	r2, r2
 242 0012 1A70     		strb	r2, [r3]
 213:.\Generated_Source\PSoC5/OSDP_Reader_Counter.c ****     #endif /* (!OSDP_Reader_Counter_ControlRegRemoved || OSDP_Reader_Counter_UsingFixedFunction) */
 214:.\Generated_Source\PSoC5/OSDP_Reader_Counter.c ****     
ARM GAS  C:\Users\Yiquing\AppData\Local\Temp\ccWEoD7F.s 			page 9


 215:.\Generated_Source\PSoC5/OSDP_Reader_Counter.c ****     /* Globally disable the Fixed Function Block chosen */
 216:.\Generated_Source\PSoC5/OSDP_Reader_Counter.c ****     #if (OSDP_Reader_Counter_UsingFixedFunction)
 217:.\Generated_Source\PSoC5/OSDP_Reader_Counter.c ****         OSDP_Reader_Counter_GLOBAL_ENABLE &= ((uint8)(~OSDP_Reader_Counter_BLOCK_EN_MASK));
 243              		.loc 1 217 0
 244 0014 0A4B     		ldr	r3, .L12+4
 245 0016 0A4A     		ldr	r2, .L12+4
 246 0018 1278     		ldrb	r2, [r2]
 247 001a D2B2     		uxtb	r2, r2
 248 001c 22F00102 		bic	r2, r2, #1
 249 0020 D2B2     		uxtb	r2, r2
 250 0022 1A70     		strb	r2, [r3]
 218:.\Generated_Source\PSoC5/OSDP_Reader_Counter.c ****         OSDP_Reader_Counter_GLOBAL_STBY_ENABLE &= ((uint8)(~OSDP_Reader_Counter_BLOCK_STBY_EN_MASK)
 251              		.loc 1 218 0
 252 0024 074B     		ldr	r3, .L12+8
 253 0026 074A     		ldr	r2, .L12+8
 254 0028 1278     		ldrb	r2, [r2]
 255 002a D2B2     		uxtb	r2, r2
 256 002c 22F00102 		bic	r2, r2, #1
 257 0030 D2B2     		uxtb	r2, r2
 258 0032 1A70     		strb	r2, [r3]
 219:.\Generated_Source\PSoC5/OSDP_Reader_Counter.c ****     #endif /* (OSDP_Reader_Counter_UsingFixedFunction) */
 220:.\Generated_Source\PSoC5/OSDP_Reader_Counter.c **** }
 259              		.loc 1 220 0
 260 0034 BD46     		mov	sp, r7
 261              		@ sp needed
 262 0036 5DF8047B 		ldr	r7, [sp], #4
 263 003a 7047     		bx	lr
 264              	.L13:
 265              		.align	2
 266              	.L12:
 267 003c 004F0040 		.word	1073762048
 268 0040 A3430040 		.word	1073759139
 269 0044 B3430040 		.word	1073759155
 270              		.cfi_endproc
 271              	.LFE3:
 272              		.size	OSDP_Reader_Counter_Stop, .-OSDP_Reader_Counter_Stop
 273              		.section	.text.OSDP_Reader_Counter_SetInterruptMode,"ax",%progbits
 274              		.align	2
 275              		.global	OSDP_Reader_Counter_SetInterruptMode
 276              		.thumb
 277              		.thumb_func
 278              		.type	OSDP_Reader_Counter_SetInterruptMode, %function
 279              	OSDP_Reader_Counter_SetInterruptMode:
 280              	.LFB4:
 221:.\Generated_Source\PSoC5/OSDP_Reader_Counter.c **** 
 222:.\Generated_Source\PSoC5/OSDP_Reader_Counter.c **** 
 223:.\Generated_Source\PSoC5/OSDP_Reader_Counter.c **** /*******************************************************************************
 224:.\Generated_Source\PSoC5/OSDP_Reader_Counter.c **** * Function Name: OSDP_Reader_Counter_SetInterruptMode
 225:.\Generated_Source\PSoC5/OSDP_Reader_Counter.c **** ********************************************************************************
 226:.\Generated_Source\PSoC5/OSDP_Reader_Counter.c **** * Summary:
 227:.\Generated_Source\PSoC5/OSDP_Reader_Counter.c **** * Configures which interrupt sources are enabled to generate the final interrupt
 228:.\Generated_Source\PSoC5/OSDP_Reader_Counter.c **** *
 229:.\Generated_Source\PSoC5/OSDP_Reader_Counter.c **** * Parameters:  
 230:.\Generated_Source\PSoC5/OSDP_Reader_Counter.c **** *  InterruptsMask: This parameter is an or'd collection of the status bits
 231:.\Generated_Source\PSoC5/OSDP_Reader_Counter.c **** *                   which will be allowed to generate the counters interrupt.   
 232:.\Generated_Source\PSoC5/OSDP_Reader_Counter.c **** *
 233:.\Generated_Source\PSoC5/OSDP_Reader_Counter.c **** * Return: 
ARM GAS  C:\Users\Yiquing\AppData\Local\Temp\ccWEoD7F.s 			page 10


 234:.\Generated_Source\PSoC5/OSDP_Reader_Counter.c **** *  void
 235:.\Generated_Source\PSoC5/OSDP_Reader_Counter.c **** *
 236:.\Generated_Source\PSoC5/OSDP_Reader_Counter.c **** *******************************************************************************/
 237:.\Generated_Source\PSoC5/OSDP_Reader_Counter.c **** void OSDP_Reader_Counter_SetInterruptMode(uint8 interruptsMask) 
 238:.\Generated_Source\PSoC5/OSDP_Reader_Counter.c **** {
 281              		.loc 1 238 0
 282              		.cfi_startproc
 283              		@ args = 0, pretend = 0, frame = 8
 284              		@ frame_needed = 1, uses_anonymous_args = 0
 285              		@ link register save eliminated.
 286 0000 80B4     		push	{r7}
 287              		.cfi_def_cfa_offset 4
 288              		.cfi_offset 7, -4
 289 0002 83B0     		sub	sp, sp, #12
 290              		.cfi_def_cfa_offset 16
 291 0004 00AF     		add	r7, sp, #0
 292              		.cfi_def_cfa_register 7
 293 0006 0346     		mov	r3, r0
 294 0008 FB71     		strb	r3, [r7, #7]
 239:.\Generated_Source\PSoC5/OSDP_Reader_Counter.c ****     OSDP_Reader_Counter_STATUS_MASK = interruptsMask;
 295              		.loc 1 239 0
 296 000a 044B     		ldr	r3, .L15
 297 000c FA79     		ldrb	r2, [r7, #7]
 298 000e 1A70     		strb	r2, [r3]
 240:.\Generated_Source\PSoC5/OSDP_Reader_Counter.c **** }
 299              		.loc 1 240 0
 300 0010 0C37     		adds	r7, r7, #12
 301 0012 BD46     		mov	sp, r7
 302              		@ sp needed
 303 0014 5DF8047B 		ldr	r7, [sp], #4
 304 0018 7047     		bx	lr
 305              	.L16:
 306 001a 00BF     		.align	2
 307              	.L15:
 308 001c 034F0040 		.word	1073762051
 309              		.cfi_endproc
 310              	.LFE4:
 311              		.size	OSDP_Reader_Counter_SetInterruptMode, .-OSDP_Reader_Counter_SetInterruptMode
 312              		.section	.text.OSDP_Reader_Counter_ReadStatusRegister,"ax",%progbits
 313              		.align	2
 314              		.global	OSDP_Reader_Counter_ReadStatusRegister
 315              		.thumb
 316              		.thumb_func
 317              		.type	OSDP_Reader_Counter_ReadStatusRegister, %function
 318              	OSDP_Reader_Counter_ReadStatusRegister:
 319              	.LFB5:
 241:.\Generated_Source\PSoC5/OSDP_Reader_Counter.c **** 
 242:.\Generated_Source\PSoC5/OSDP_Reader_Counter.c **** 
 243:.\Generated_Source\PSoC5/OSDP_Reader_Counter.c **** /*******************************************************************************
 244:.\Generated_Source\PSoC5/OSDP_Reader_Counter.c **** * Function Name: OSDP_Reader_Counter_ReadStatusRegister
 245:.\Generated_Source\PSoC5/OSDP_Reader_Counter.c **** ********************************************************************************
 246:.\Generated_Source\PSoC5/OSDP_Reader_Counter.c **** * Summary:
 247:.\Generated_Source\PSoC5/OSDP_Reader_Counter.c **** *   Reads the status register and returns it's state. This function should use
 248:.\Generated_Source\PSoC5/OSDP_Reader_Counter.c **** *       defined types for the bit-field information as the bits in this
 249:.\Generated_Source\PSoC5/OSDP_Reader_Counter.c **** *       register may be permuteable.
 250:.\Generated_Source\PSoC5/OSDP_Reader_Counter.c **** *
 251:.\Generated_Source\PSoC5/OSDP_Reader_Counter.c **** * Parameters:  
ARM GAS  C:\Users\Yiquing\AppData\Local\Temp\ccWEoD7F.s 			page 11


 252:.\Generated_Source\PSoC5/OSDP_Reader_Counter.c **** *  void
 253:.\Generated_Source\PSoC5/OSDP_Reader_Counter.c **** *
 254:.\Generated_Source\PSoC5/OSDP_Reader_Counter.c **** * Return: 
 255:.\Generated_Source\PSoC5/OSDP_Reader_Counter.c **** *  (uint8) The contents of the status register
 256:.\Generated_Source\PSoC5/OSDP_Reader_Counter.c **** *
 257:.\Generated_Source\PSoC5/OSDP_Reader_Counter.c **** * Side Effects:
 258:.\Generated_Source\PSoC5/OSDP_Reader_Counter.c **** *   Status register bits may be clear on read. 
 259:.\Generated_Source\PSoC5/OSDP_Reader_Counter.c **** *
 260:.\Generated_Source\PSoC5/OSDP_Reader_Counter.c **** *******************************************************************************/
 261:.\Generated_Source\PSoC5/OSDP_Reader_Counter.c **** uint8   OSDP_Reader_Counter_ReadStatusRegister(void) 
 262:.\Generated_Source\PSoC5/OSDP_Reader_Counter.c **** {
 320              		.loc 1 262 0
 321              		.cfi_startproc
 322              		@ args = 0, pretend = 0, frame = 0
 323              		@ frame_needed = 1, uses_anonymous_args = 0
 324              		@ link register save eliminated.
 325 0000 80B4     		push	{r7}
 326              		.cfi_def_cfa_offset 4
 327              		.cfi_offset 7, -4
 328 0002 00AF     		add	r7, sp, #0
 329              		.cfi_def_cfa_register 7
 263:.\Generated_Source\PSoC5/OSDP_Reader_Counter.c ****     return OSDP_Reader_Counter_STATUS;
 330              		.loc 1 263 0
 331 0004 034B     		ldr	r3, .L19
 332 0006 1B78     		ldrb	r3, [r3]
 333 0008 DBB2     		uxtb	r3, r3
 264:.\Generated_Source\PSoC5/OSDP_Reader_Counter.c **** }
 334              		.loc 1 264 0
 335 000a 1846     		mov	r0, r3
 336 000c BD46     		mov	sp, r7
 337              		@ sp needed
 338 000e 5DF8047B 		ldr	r7, [sp], #4
 339 0012 7047     		bx	lr
 340              	.L20:
 341              		.align	2
 342              	.L19:
 343 0014 034F0040 		.word	1073762051
 344              		.cfi_endproc
 345              	.LFE5:
 346              		.size	OSDP_Reader_Counter_ReadStatusRegister, .-OSDP_Reader_Counter_ReadStatusRegister
 347              		.section	.text.OSDP_Reader_Counter_ReadControlRegister,"ax",%progbits
 348              		.align	2
 349              		.global	OSDP_Reader_Counter_ReadControlRegister
 350              		.thumb
 351              		.thumb_func
 352              		.type	OSDP_Reader_Counter_ReadControlRegister, %function
 353              	OSDP_Reader_Counter_ReadControlRegister:
 354              	.LFB6:
 265:.\Generated_Source\PSoC5/OSDP_Reader_Counter.c **** 
 266:.\Generated_Source\PSoC5/OSDP_Reader_Counter.c **** 
 267:.\Generated_Source\PSoC5/OSDP_Reader_Counter.c **** #if(!OSDP_Reader_Counter_ControlRegRemoved)
 268:.\Generated_Source\PSoC5/OSDP_Reader_Counter.c **** /*******************************************************************************
 269:.\Generated_Source\PSoC5/OSDP_Reader_Counter.c **** * Function Name: OSDP_Reader_Counter_ReadControlRegister
 270:.\Generated_Source\PSoC5/OSDP_Reader_Counter.c **** ********************************************************************************
 271:.\Generated_Source\PSoC5/OSDP_Reader_Counter.c **** * Summary:
 272:.\Generated_Source\PSoC5/OSDP_Reader_Counter.c **** *   Reads the control register and returns it's state. This function should use
 273:.\Generated_Source\PSoC5/OSDP_Reader_Counter.c **** *       defined types for the bit-field information as the bits in this
ARM GAS  C:\Users\Yiquing\AppData\Local\Temp\ccWEoD7F.s 			page 12


 274:.\Generated_Source\PSoC5/OSDP_Reader_Counter.c **** *       register may be permuteable.
 275:.\Generated_Source\PSoC5/OSDP_Reader_Counter.c **** *
 276:.\Generated_Source\PSoC5/OSDP_Reader_Counter.c **** * Parameters:  
 277:.\Generated_Source\PSoC5/OSDP_Reader_Counter.c **** *  void
 278:.\Generated_Source\PSoC5/OSDP_Reader_Counter.c **** *
 279:.\Generated_Source\PSoC5/OSDP_Reader_Counter.c **** * Return: 
 280:.\Generated_Source\PSoC5/OSDP_Reader_Counter.c **** *  (uint8) The contents of the control register
 281:.\Generated_Source\PSoC5/OSDP_Reader_Counter.c **** *
 282:.\Generated_Source\PSoC5/OSDP_Reader_Counter.c **** *******************************************************************************/
 283:.\Generated_Source\PSoC5/OSDP_Reader_Counter.c **** uint8   OSDP_Reader_Counter_ReadControlRegister(void) 
 284:.\Generated_Source\PSoC5/OSDP_Reader_Counter.c **** {
 355              		.loc 1 284 0
 356              		.cfi_startproc
 357              		@ args = 0, pretend = 0, frame = 0
 358              		@ frame_needed = 1, uses_anonymous_args = 0
 359              		@ link register save eliminated.
 360 0000 80B4     		push	{r7}
 361              		.cfi_def_cfa_offset 4
 362              		.cfi_offset 7, -4
 363 0002 00AF     		add	r7, sp, #0
 364              		.cfi_def_cfa_register 7
 285:.\Generated_Source\PSoC5/OSDP_Reader_Counter.c ****     return OSDP_Reader_Counter_CONTROL;
 365              		.loc 1 285 0
 366 0004 034B     		ldr	r3, .L23
 367 0006 1B78     		ldrb	r3, [r3]
 368 0008 DBB2     		uxtb	r3, r3
 286:.\Generated_Source\PSoC5/OSDP_Reader_Counter.c **** }
 369              		.loc 1 286 0
 370 000a 1846     		mov	r0, r3
 371 000c BD46     		mov	sp, r7
 372              		@ sp needed
 373 000e 5DF8047B 		ldr	r7, [sp], #4
 374 0012 7047     		bx	lr
 375              	.L24:
 376              		.align	2
 377              	.L23:
 378 0014 004F0040 		.word	1073762048
 379              		.cfi_endproc
 380              	.LFE6:
 381              		.size	OSDP_Reader_Counter_ReadControlRegister, .-OSDP_Reader_Counter_ReadControlRegister
 382              		.section	.text.OSDP_Reader_Counter_WriteControlRegister,"ax",%progbits
 383              		.align	2
 384              		.global	OSDP_Reader_Counter_WriteControlRegister
 385              		.thumb
 386              		.thumb_func
 387              		.type	OSDP_Reader_Counter_WriteControlRegister, %function
 388              	OSDP_Reader_Counter_WriteControlRegister:
 389              	.LFB7:
 287:.\Generated_Source\PSoC5/OSDP_Reader_Counter.c **** 
 288:.\Generated_Source\PSoC5/OSDP_Reader_Counter.c **** 
 289:.\Generated_Source\PSoC5/OSDP_Reader_Counter.c **** /*******************************************************************************
 290:.\Generated_Source\PSoC5/OSDP_Reader_Counter.c **** * Function Name: OSDP_Reader_Counter_WriteControlRegister
 291:.\Generated_Source\PSoC5/OSDP_Reader_Counter.c **** ********************************************************************************
 292:.\Generated_Source\PSoC5/OSDP_Reader_Counter.c **** * Summary:
 293:.\Generated_Source\PSoC5/OSDP_Reader_Counter.c **** *   Sets the bit-field of the control register.  This function should use
 294:.\Generated_Source\PSoC5/OSDP_Reader_Counter.c **** *       defined types for the bit-field information as the bits in this
 295:.\Generated_Source\PSoC5/OSDP_Reader_Counter.c **** *       register may be permuteable.
ARM GAS  C:\Users\Yiquing\AppData\Local\Temp\ccWEoD7F.s 			page 13


 296:.\Generated_Source\PSoC5/OSDP_Reader_Counter.c **** *
 297:.\Generated_Source\PSoC5/OSDP_Reader_Counter.c **** * Parameters:  
 298:.\Generated_Source\PSoC5/OSDP_Reader_Counter.c **** *  void
 299:.\Generated_Source\PSoC5/OSDP_Reader_Counter.c **** *
 300:.\Generated_Source\PSoC5/OSDP_Reader_Counter.c **** * Return: 
 301:.\Generated_Source\PSoC5/OSDP_Reader_Counter.c **** *  (uint8) The contents of the control register
 302:.\Generated_Source\PSoC5/OSDP_Reader_Counter.c **** *
 303:.\Generated_Source\PSoC5/OSDP_Reader_Counter.c **** *******************************************************************************/
 304:.\Generated_Source\PSoC5/OSDP_Reader_Counter.c **** void    OSDP_Reader_Counter_WriteControlRegister(uint8 control) 
 305:.\Generated_Source\PSoC5/OSDP_Reader_Counter.c **** {
 390              		.loc 1 305 0
 391              		.cfi_startproc
 392              		@ args = 0, pretend = 0, frame = 8
 393              		@ frame_needed = 1, uses_anonymous_args = 0
 394              		@ link register save eliminated.
 395 0000 80B4     		push	{r7}
 396              		.cfi_def_cfa_offset 4
 397              		.cfi_offset 7, -4
 398 0002 83B0     		sub	sp, sp, #12
 399              		.cfi_def_cfa_offset 16
 400 0004 00AF     		add	r7, sp, #0
 401              		.cfi_def_cfa_register 7
 402 0006 0346     		mov	r3, r0
 403 0008 FB71     		strb	r3, [r7, #7]
 306:.\Generated_Source\PSoC5/OSDP_Reader_Counter.c ****     OSDP_Reader_Counter_CONTROL = control;
 404              		.loc 1 306 0
 405 000a 044B     		ldr	r3, .L26
 406 000c FA79     		ldrb	r2, [r7, #7]
 407 000e 1A70     		strb	r2, [r3]
 307:.\Generated_Source\PSoC5/OSDP_Reader_Counter.c **** }
 408              		.loc 1 307 0
 409 0010 0C37     		adds	r7, r7, #12
 410 0012 BD46     		mov	sp, r7
 411              		@ sp needed
 412 0014 5DF8047B 		ldr	r7, [sp], #4
 413 0018 7047     		bx	lr
 414              	.L27:
 415 001a 00BF     		.align	2
 416              	.L26:
 417 001c 004F0040 		.word	1073762048
 418              		.cfi_endproc
 419              	.LFE7:
 420              		.size	OSDP_Reader_Counter_WriteControlRegister, .-OSDP_Reader_Counter_WriteControlRegister
 421              		.section	.text.OSDP_Reader_Counter_WriteCounter,"ax",%progbits
 422              		.align	2
 423              		.global	OSDP_Reader_Counter_WriteCounter
 424              		.thumb
 425              		.thumb_func
 426              		.type	OSDP_Reader_Counter_WriteCounter, %function
 427              	OSDP_Reader_Counter_WriteCounter:
 428              	.LFB8:
 308:.\Generated_Source\PSoC5/OSDP_Reader_Counter.c **** 
 309:.\Generated_Source\PSoC5/OSDP_Reader_Counter.c **** #endif  /* (!OSDP_Reader_Counter_ControlRegRemoved) */
 310:.\Generated_Source\PSoC5/OSDP_Reader_Counter.c **** 
 311:.\Generated_Source\PSoC5/OSDP_Reader_Counter.c **** 
 312:.\Generated_Source\PSoC5/OSDP_Reader_Counter.c **** #if (!(OSDP_Reader_Counter_UsingFixedFunction && (CY_PSOC5A)))
 313:.\Generated_Source\PSoC5/OSDP_Reader_Counter.c **** /*******************************************************************************
ARM GAS  C:\Users\Yiquing\AppData\Local\Temp\ccWEoD7F.s 			page 14


 314:.\Generated_Source\PSoC5/OSDP_Reader_Counter.c **** * Function Name: OSDP_Reader_Counter_WriteCounter
 315:.\Generated_Source\PSoC5/OSDP_Reader_Counter.c **** ********************************************************************************
 316:.\Generated_Source\PSoC5/OSDP_Reader_Counter.c **** * Summary:
 317:.\Generated_Source\PSoC5/OSDP_Reader_Counter.c **** *   This funtion is used to set the counter to a specific value
 318:.\Generated_Source\PSoC5/OSDP_Reader_Counter.c **** *
 319:.\Generated_Source\PSoC5/OSDP_Reader_Counter.c **** * Parameters:  
 320:.\Generated_Source\PSoC5/OSDP_Reader_Counter.c **** *  counter:  New counter value. 
 321:.\Generated_Source\PSoC5/OSDP_Reader_Counter.c **** *
 322:.\Generated_Source\PSoC5/OSDP_Reader_Counter.c **** * Return: 
 323:.\Generated_Source\PSoC5/OSDP_Reader_Counter.c **** *  void 
 324:.\Generated_Source\PSoC5/OSDP_Reader_Counter.c **** *
 325:.\Generated_Source\PSoC5/OSDP_Reader_Counter.c **** *******************************************************************************/
 326:.\Generated_Source\PSoC5/OSDP_Reader_Counter.c **** void OSDP_Reader_Counter_WriteCounter(uint8 counter) \
 327:.\Generated_Source\PSoC5/OSDP_Reader_Counter.c ****                                    
 328:.\Generated_Source\PSoC5/OSDP_Reader_Counter.c **** {
 429              		.loc 1 328 0
 430              		.cfi_startproc
 431              		@ args = 0, pretend = 0, frame = 8
 432              		@ frame_needed = 1, uses_anonymous_args = 0
 433 0000 80B5     		push	{r7, lr}
 434              		.cfi_def_cfa_offset 8
 435              		.cfi_offset 7, -8
 436              		.cfi_offset 14, -4
 437 0002 82B0     		sub	sp, sp, #8
 438              		.cfi_def_cfa_offset 16
 439 0004 00AF     		add	r7, sp, #0
 440              		.cfi_def_cfa_register 7
 441 0006 0346     		mov	r3, r0
 442 0008 FB71     		strb	r3, [r7, #7]
 329:.\Generated_Source\PSoC5/OSDP_Reader_Counter.c ****     #if(OSDP_Reader_Counter_UsingFixedFunction)
 330:.\Generated_Source\PSoC5/OSDP_Reader_Counter.c ****         /* assert if block is already enabled */
 331:.\Generated_Source\PSoC5/OSDP_Reader_Counter.c ****         CYASSERT (0u == (OSDP_Reader_Counter_GLOBAL_ENABLE & OSDP_Reader_Counter_BLOCK_EN_MASK));
 443              		.loc 1 331 0
 444 000a 104B     		ldr	r3, .L30
 445 000c 1B78     		ldrb	r3, [r3]
 446 000e DBB2     		uxtb	r3, r3
 447 0010 03F00103 		and	r3, r3, #1
 448 0014 002B     		cmp	r3, #0
 449 0016 02D0     		beq	.L29
 450              		.loc 1 331 0 is_stmt 0 discriminator 1
 451 0018 0020     		movs	r0, #0
 452 001a FFF7FEFF 		bl	CyHalt
 453              	.L29:
 332:.\Generated_Source\PSoC5/OSDP_Reader_Counter.c ****         /* If block is disabled, enable it and then write the counter */
 333:.\Generated_Source\PSoC5/OSDP_Reader_Counter.c ****         OSDP_Reader_Counter_GLOBAL_ENABLE |= OSDP_Reader_Counter_BLOCK_EN_MASK;
 454              		.loc 1 333 0 is_stmt 1
 455 001e 0B4B     		ldr	r3, .L30
 456 0020 0A4A     		ldr	r2, .L30
 457 0022 1278     		ldrb	r2, [r2]
 458 0024 D2B2     		uxtb	r2, r2
 459 0026 42F00102 		orr	r2, r2, #1
 460 002a D2B2     		uxtb	r2, r2
 461 002c 1A70     		strb	r2, [r3]
 334:.\Generated_Source\PSoC5/OSDP_Reader_Counter.c ****         CY_SET_REG16(OSDP_Reader_Counter_COUNTER_LSB_PTR, (uint16)counter);
 462              		.loc 1 334 0
 463 002e 084B     		ldr	r3, .L30+4
 464 0030 FA79     		ldrb	r2, [r7, #7]	@ zero_extendqisi2
ARM GAS  C:\Users\Yiquing\AppData\Local\Temp\ccWEoD7F.s 			page 15


 465 0032 92B2     		uxth	r2, r2
 466 0034 1A80     		strh	r2, [r3]	@ movhi
 335:.\Generated_Source\PSoC5/OSDP_Reader_Counter.c ****         OSDP_Reader_Counter_GLOBAL_ENABLE &= ((uint8)(~OSDP_Reader_Counter_BLOCK_EN_MASK));
 467              		.loc 1 335 0
 468 0036 054B     		ldr	r3, .L30
 469 0038 044A     		ldr	r2, .L30
 470 003a 1278     		ldrb	r2, [r2]
 471 003c D2B2     		uxtb	r2, r2
 472 003e 22F00102 		bic	r2, r2, #1
 473 0042 D2B2     		uxtb	r2, r2
 474 0044 1A70     		strb	r2, [r3]
 336:.\Generated_Source\PSoC5/OSDP_Reader_Counter.c ****     #else
 337:.\Generated_Source\PSoC5/OSDP_Reader_Counter.c ****         CY_SET_REG8(OSDP_Reader_Counter_COUNTER_LSB_PTR, counter);
 338:.\Generated_Source\PSoC5/OSDP_Reader_Counter.c ****     #endif /* (OSDP_Reader_Counter_UsingFixedFunction) */
 339:.\Generated_Source\PSoC5/OSDP_Reader_Counter.c **** }
 475              		.loc 1 339 0
 476 0046 0837     		adds	r7, r7, #8
 477 0048 BD46     		mov	sp, r7
 478              		@ sp needed
 479 004a 80BD     		pop	{r7, pc}
 480              	.L31:
 481              		.align	2
 482              	.L30:
 483 004c A3430040 		.word	1073759139
 484 0050 064F0040 		.word	1073762054
 485              		.cfi_endproc
 486              	.LFE8:
 487              		.size	OSDP_Reader_Counter_WriteCounter, .-OSDP_Reader_Counter_WriteCounter
 488              		.section	.text.OSDP_Reader_Counter_ReadCounter,"ax",%progbits
 489              		.align	2
 490              		.global	OSDP_Reader_Counter_ReadCounter
 491              		.thumb
 492              		.thumb_func
 493              		.type	OSDP_Reader_Counter_ReadCounter, %function
 494              	OSDP_Reader_Counter_ReadCounter:
 495              	.LFB9:
 340:.\Generated_Source\PSoC5/OSDP_Reader_Counter.c **** #endif /* (!(OSDP_Reader_Counter_UsingFixedFunction && (CY_PSOC5A))) */
 341:.\Generated_Source\PSoC5/OSDP_Reader_Counter.c **** 
 342:.\Generated_Source\PSoC5/OSDP_Reader_Counter.c **** 
 343:.\Generated_Source\PSoC5/OSDP_Reader_Counter.c **** /*******************************************************************************
 344:.\Generated_Source\PSoC5/OSDP_Reader_Counter.c **** * Function Name: OSDP_Reader_Counter_ReadCounter
 345:.\Generated_Source\PSoC5/OSDP_Reader_Counter.c **** ********************************************************************************
 346:.\Generated_Source\PSoC5/OSDP_Reader_Counter.c **** * Summary:
 347:.\Generated_Source\PSoC5/OSDP_Reader_Counter.c **** * Returns the current value of the counter.  It doesn't matter
 348:.\Generated_Source\PSoC5/OSDP_Reader_Counter.c **** * if the counter is enabled or running.
 349:.\Generated_Source\PSoC5/OSDP_Reader_Counter.c **** *
 350:.\Generated_Source\PSoC5/OSDP_Reader_Counter.c **** * Parameters:  
 351:.\Generated_Source\PSoC5/OSDP_Reader_Counter.c **** *  void:  
 352:.\Generated_Source\PSoC5/OSDP_Reader_Counter.c **** *
 353:.\Generated_Source\PSoC5/OSDP_Reader_Counter.c **** * Return: 
 354:.\Generated_Source\PSoC5/OSDP_Reader_Counter.c **** *  (uint8) The present value of the counter.
 355:.\Generated_Source\PSoC5/OSDP_Reader_Counter.c **** *
 356:.\Generated_Source\PSoC5/OSDP_Reader_Counter.c **** *******************************************************************************/
 357:.\Generated_Source\PSoC5/OSDP_Reader_Counter.c **** uint8 OSDP_Reader_Counter_ReadCounter(void) 
 358:.\Generated_Source\PSoC5/OSDP_Reader_Counter.c **** {
 496              		.loc 1 358 0
 497              		.cfi_startproc
ARM GAS  C:\Users\Yiquing\AppData\Local\Temp\ccWEoD7F.s 			page 16


 498              		@ args = 0, pretend = 0, frame = 0
 499              		@ frame_needed = 1, uses_anonymous_args = 0
 500              		@ link register save eliminated.
 501 0000 80B4     		push	{r7}
 502              		.cfi_def_cfa_offset 4
 503              		.cfi_offset 7, -4
 504 0002 00AF     		add	r7, sp, #0
 505              		.cfi_def_cfa_register 7
 359:.\Generated_Source\PSoC5/OSDP_Reader_Counter.c ****     /* Force capture by reading Accumulator */
 360:.\Generated_Source\PSoC5/OSDP_Reader_Counter.c ****     /* Must first do a software capture to be able to read the counter */
 361:.\Generated_Source\PSoC5/OSDP_Reader_Counter.c ****     /* It is up to the user code to make sure there isn't already captured data in the FIFO */
 362:.\Generated_Source\PSoC5/OSDP_Reader_Counter.c ****     #if(OSDP_Reader_Counter_UsingFixedFunction)
 363:.\Generated_Source\PSoC5/OSDP_Reader_Counter.c **** 		(void)CY_GET_REG16(OSDP_Reader_Counter_COUNTER_LSB_PTR);
 506              		.loc 1 363 0
 507 0004 054B     		ldr	r3, .L34
 508 0006 1B88     		ldrh	r3, [r3]	@ movhi
 364:.\Generated_Source\PSoC5/OSDP_Reader_Counter.c **** 	#else
 365:.\Generated_Source\PSoC5/OSDP_Reader_Counter.c **** 		(void)CY_GET_REG8(OSDP_Reader_Counter_COUNTER_LSB_PTR_8BIT);
 366:.\Generated_Source\PSoC5/OSDP_Reader_Counter.c **** 	#endif/* (OSDP_Reader_Counter_UsingFixedFunction) */
 367:.\Generated_Source\PSoC5/OSDP_Reader_Counter.c ****     
 368:.\Generated_Source\PSoC5/OSDP_Reader_Counter.c ****     /* Read the data from the FIFO (or capture register for Fixed Function)*/
 369:.\Generated_Source\PSoC5/OSDP_Reader_Counter.c ****     #if(OSDP_Reader_Counter_UsingFixedFunction)
 370:.\Generated_Source\PSoC5/OSDP_Reader_Counter.c ****         return ((uint8)CY_GET_REG16(OSDP_Reader_Counter_STATICCOUNT_LSB_PTR));
 509              		.loc 1 370 0
 510 0008 054B     		ldr	r3, .L34+4
 511 000a 1B88     		ldrh	r3, [r3]	@ movhi
 512 000c 9BB2     		uxth	r3, r3
 513 000e DBB2     		uxtb	r3, r3
 371:.\Generated_Source\PSoC5/OSDP_Reader_Counter.c ****     #else
 372:.\Generated_Source\PSoC5/OSDP_Reader_Counter.c ****         return (CY_GET_REG8(OSDP_Reader_Counter_STATICCOUNT_LSB_PTR));
 373:.\Generated_Source\PSoC5/OSDP_Reader_Counter.c ****     #endif /* (OSDP_Reader_Counter_UsingFixedFunction) */
 374:.\Generated_Source\PSoC5/OSDP_Reader_Counter.c **** }
 514              		.loc 1 374 0
 515 0010 1846     		mov	r0, r3
 516 0012 BD46     		mov	sp, r7
 517              		@ sp needed
 518 0014 5DF8047B 		ldr	r7, [sp], #4
 519 0018 7047     		bx	lr
 520              	.L35:
 521 001a 00BF     		.align	2
 522              	.L34:
 523 001c 064F0040 		.word	1073762054
 524 0020 084F0040 		.word	1073762056
 525              		.cfi_endproc
 526              	.LFE9:
 527              		.size	OSDP_Reader_Counter_ReadCounter, .-OSDP_Reader_Counter_ReadCounter
 528              		.section	.text.OSDP_Reader_Counter_ReadCapture,"ax",%progbits
 529              		.align	2
 530              		.global	OSDP_Reader_Counter_ReadCapture
 531              		.thumb
 532              		.thumb_func
 533              		.type	OSDP_Reader_Counter_ReadCapture, %function
 534              	OSDP_Reader_Counter_ReadCapture:
 535              	.LFB10:
 375:.\Generated_Source\PSoC5/OSDP_Reader_Counter.c **** 
 376:.\Generated_Source\PSoC5/OSDP_Reader_Counter.c **** 
 377:.\Generated_Source\PSoC5/OSDP_Reader_Counter.c **** /*******************************************************************************
ARM GAS  C:\Users\Yiquing\AppData\Local\Temp\ccWEoD7F.s 			page 17


 378:.\Generated_Source\PSoC5/OSDP_Reader_Counter.c **** * Function Name: OSDP_Reader_Counter_ReadCapture
 379:.\Generated_Source\PSoC5/OSDP_Reader_Counter.c **** ********************************************************************************
 380:.\Generated_Source\PSoC5/OSDP_Reader_Counter.c **** * Summary:
 381:.\Generated_Source\PSoC5/OSDP_Reader_Counter.c **** *   This function returns the last value captured.
 382:.\Generated_Source\PSoC5/OSDP_Reader_Counter.c **** *
 383:.\Generated_Source\PSoC5/OSDP_Reader_Counter.c **** * Parameters:  
 384:.\Generated_Source\PSoC5/OSDP_Reader_Counter.c **** *  void
 385:.\Generated_Source\PSoC5/OSDP_Reader_Counter.c **** *
 386:.\Generated_Source\PSoC5/OSDP_Reader_Counter.c **** * Return: 
 387:.\Generated_Source\PSoC5/OSDP_Reader_Counter.c **** *  (uint8) Present Capture value.
 388:.\Generated_Source\PSoC5/OSDP_Reader_Counter.c **** *
 389:.\Generated_Source\PSoC5/OSDP_Reader_Counter.c **** *******************************************************************************/
 390:.\Generated_Source\PSoC5/OSDP_Reader_Counter.c **** uint8 OSDP_Reader_Counter_ReadCapture(void) 
 391:.\Generated_Source\PSoC5/OSDP_Reader_Counter.c **** {
 536              		.loc 1 391 0
 537              		.cfi_startproc
 538              		@ args = 0, pretend = 0, frame = 0
 539              		@ frame_needed = 1, uses_anonymous_args = 0
 540              		@ link register save eliminated.
 541 0000 80B4     		push	{r7}
 542              		.cfi_def_cfa_offset 4
 543              		.cfi_offset 7, -4
 544 0002 00AF     		add	r7, sp, #0
 545              		.cfi_def_cfa_register 7
 392:.\Generated_Source\PSoC5/OSDP_Reader_Counter.c ****     #if(OSDP_Reader_Counter_UsingFixedFunction)
 393:.\Generated_Source\PSoC5/OSDP_Reader_Counter.c ****         return ((uint8)CY_GET_REG16(OSDP_Reader_Counter_STATICCOUNT_LSB_PTR));
 546              		.loc 1 393 0
 547 0004 044B     		ldr	r3, .L38
 548 0006 1B88     		ldrh	r3, [r3]	@ movhi
 549 0008 9BB2     		uxth	r3, r3
 550 000a DBB2     		uxtb	r3, r3
 394:.\Generated_Source\PSoC5/OSDP_Reader_Counter.c ****     #else
 395:.\Generated_Source\PSoC5/OSDP_Reader_Counter.c ****         return (CY_GET_REG8(OSDP_Reader_Counter_STATICCOUNT_LSB_PTR));
 396:.\Generated_Source\PSoC5/OSDP_Reader_Counter.c ****     #endif /* (OSDP_Reader_Counter_UsingFixedFunction) */
 397:.\Generated_Source\PSoC5/OSDP_Reader_Counter.c **** }
 551              		.loc 1 397 0
 552 000c 1846     		mov	r0, r3
 553 000e BD46     		mov	sp, r7
 554              		@ sp needed
 555 0010 5DF8047B 		ldr	r7, [sp], #4
 556 0014 7047     		bx	lr
 557              	.L39:
 558 0016 00BF     		.align	2
 559              	.L38:
 560 0018 084F0040 		.word	1073762056
 561              		.cfi_endproc
 562              	.LFE10:
 563              		.size	OSDP_Reader_Counter_ReadCapture, .-OSDP_Reader_Counter_ReadCapture
 564              		.section	.text.OSDP_Reader_Counter_WritePeriod,"ax",%progbits
 565              		.align	2
 566              		.global	OSDP_Reader_Counter_WritePeriod
 567              		.thumb
 568              		.thumb_func
 569              		.type	OSDP_Reader_Counter_WritePeriod, %function
 570              	OSDP_Reader_Counter_WritePeriod:
 571              	.LFB11:
 398:.\Generated_Source\PSoC5/OSDP_Reader_Counter.c **** 
ARM GAS  C:\Users\Yiquing\AppData\Local\Temp\ccWEoD7F.s 			page 18


 399:.\Generated_Source\PSoC5/OSDP_Reader_Counter.c **** 
 400:.\Generated_Source\PSoC5/OSDP_Reader_Counter.c **** /*******************************************************************************
 401:.\Generated_Source\PSoC5/OSDP_Reader_Counter.c **** * Function Name: OSDP_Reader_Counter_WritePeriod
 402:.\Generated_Source\PSoC5/OSDP_Reader_Counter.c **** ********************************************************************************
 403:.\Generated_Source\PSoC5/OSDP_Reader_Counter.c **** * Summary:
 404:.\Generated_Source\PSoC5/OSDP_Reader_Counter.c **** * Changes the period of the counter.  The new period 
 405:.\Generated_Source\PSoC5/OSDP_Reader_Counter.c **** * will be loaded the next time terminal count is detected.
 406:.\Generated_Source\PSoC5/OSDP_Reader_Counter.c **** *
 407:.\Generated_Source\PSoC5/OSDP_Reader_Counter.c **** * Parameters:  
 408:.\Generated_Source\PSoC5/OSDP_Reader_Counter.c **** *  period: (uint8) A value of 0 will result in
 409:.\Generated_Source\PSoC5/OSDP_Reader_Counter.c **** *         the counter remaining at zero.  
 410:.\Generated_Source\PSoC5/OSDP_Reader_Counter.c **** *
 411:.\Generated_Source\PSoC5/OSDP_Reader_Counter.c **** * Return: 
 412:.\Generated_Source\PSoC5/OSDP_Reader_Counter.c **** *  void
 413:.\Generated_Source\PSoC5/OSDP_Reader_Counter.c **** *
 414:.\Generated_Source\PSoC5/OSDP_Reader_Counter.c **** *******************************************************************************/
 415:.\Generated_Source\PSoC5/OSDP_Reader_Counter.c **** void OSDP_Reader_Counter_WritePeriod(uint8 period) 
 416:.\Generated_Source\PSoC5/OSDP_Reader_Counter.c **** {
 572              		.loc 1 416 0
 573              		.cfi_startproc
 574              		@ args = 0, pretend = 0, frame = 8
 575              		@ frame_needed = 1, uses_anonymous_args = 0
 576              		@ link register save eliminated.
 577 0000 80B4     		push	{r7}
 578              		.cfi_def_cfa_offset 4
 579              		.cfi_offset 7, -4
 580 0002 83B0     		sub	sp, sp, #12
 581              		.cfi_def_cfa_offset 16
 582 0004 00AF     		add	r7, sp, #0
 583              		.cfi_def_cfa_register 7
 584 0006 0346     		mov	r3, r0
 585 0008 FB71     		strb	r3, [r7, #7]
 417:.\Generated_Source\PSoC5/OSDP_Reader_Counter.c ****     #if(OSDP_Reader_Counter_UsingFixedFunction)
 418:.\Generated_Source\PSoC5/OSDP_Reader_Counter.c ****         CY_SET_REG16(OSDP_Reader_Counter_PERIOD_LSB_PTR,(uint16)period);
 586              		.loc 1 418 0
 587 000a 044B     		ldr	r3, .L41
 588 000c FA79     		ldrb	r2, [r7, #7]	@ zero_extendqisi2
 589 000e 92B2     		uxth	r2, r2
 590 0010 1A80     		strh	r2, [r3]	@ movhi
 419:.\Generated_Source\PSoC5/OSDP_Reader_Counter.c ****     #else
 420:.\Generated_Source\PSoC5/OSDP_Reader_Counter.c ****         CY_SET_REG8(OSDP_Reader_Counter_PERIOD_LSB_PTR, period);
 421:.\Generated_Source\PSoC5/OSDP_Reader_Counter.c ****     #endif /* (OSDP_Reader_Counter_UsingFixedFunction) */
 422:.\Generated_Source\PSoC5/OSDP_Reader_Counter.c **** }
 591              		.loc 1 422 0
 592 0012 0C37     		adds	r7, r7, #12
 593 0014 BD46     		mov	sp, r7
 594              		@ sp needed
 595 0016 5DF8047B 		ldr	r7, [sp], #4
 596 001a 7047     		bx	lr
 597              	.L42:
 598              		.align	2
 599              	.L41:
 600 001c 044F0040 		.word	1073762052
 601              		.cfi_endproc
 602              	.LFE11:
 603              		.size	OSDP_Reader_Counter_WritePeriod, .-OSDP_Reader_Counter_WritePeriod
 604              		.section	.text.OSDP_Reader_Counter_ReadPeriod,"ax",%progbits
ARM GAS  C:\Users\Yiquing\AppData\Local\Temp\ccWEoD7F.s 			page 19


 605              		.align	2
 606              		.global	OSDP_Reader_Counter_ReadPeriod
 607              		.thumb
 608              		.thumb_func
 609              		.type	OSDP_Reader_Counter_ReadPeriod, %function
 610              	OSDP_Reader_Counter_ReadPeriod:
 611              	.LFB12:
 423:.\Generated_Source\PSoC5/OSDP_Reader_Counter.c **** 
 424:.\Generated_Source\PSoC5/OSDP_Reader_Counter.c **** 
 425:.\Generated_Source\PSoC5/OSDP_Reader_Counter.c **** /*******************************************************************************
 426:.\Generated_Source\PSoC5/OSDP_Reader_Counter.c **** * Function Name: OSDP_Reader_Counter_ReadPeriod
 427:.\Generated_Source\PSoC5/OSDP_Reader_Counter.c **** ********************************************************************************
 428:.\Generated_Source\PSoC5/OSDP_Reader_Counter.c **** * Summary:
 429:.\Generated_Source\PSoC5/OSDP_Reader_Counter.c **** * Reads the current period value without affecting counter operation.
 430:.\Generated_Source\PSoC5/OSDP_Reader_Counter.c **** *
 431:.\Generated_Source\PSoC5/OSDP_Reader_Counter.c **** * Parameters:  
 432:.\Generated_Source\PSoC5/OSDP_Reader_Counter.c **** *  void:  
 433:.\Generated_Source\PSoC5/OSDP_Reader_Counter.c **** *
 434:.\Generated_Source\PSoC5/OSDP_Reader_Counter.c **** * Return: 
 435:.\Generated_Source\PSoC5/OSDP_Reader_Counter.c **** *  (uint8) Present period value.
 436:.\Generated_Source\PSoC5/OSDP_Reader_Counter.c **** *
 437:.\Generated_Source\PSoC5/OSDP_Reader_Counter.c **** *******************************************************************************/
 438:.\Generated_Source\PSoC5/OSDP_Reader_Counter.c **** uint8 OSDP_Reader_Counter_ReadPeriod(void) 
 439:.\Generated_Source\PSoC5/OSDP_Reader_Counter.c **** {
 612              		.loc 1 439 0
 613              		.cfi_startproc
 614              		@ args = 0, pretend = 0, frame = 0
 615              		@ frame_needed = 1, uses_anonymous_args = 0
 616              		@ link register save eliminated.
 617 0000 80B4     		push	{r7}
 618              		.cfi_def_cfa_offset 4
 619              		.cfi_offset 7, -4
 620 0002 00AF     		add	r7, sp, #0
 621              		.cfi_def_cfa_register 7
 440:.\Generated_Source\PSoC5/OSDP_Reader_Counter.c ****     #if(OSDP_Reader_Counter_UsingFixedFunction)
 441:.\Generated_Source\PSoC5/OSDP_Reader_Counter.c ****         return ((uint8)CY_GET_REG16(OSDP_Reader_Counter_PERIOD_LSB_PTR));
 622              		.loc 1 441 0
 623 0004 044B     		ldr	r3, .L45
 624 0006 1B88     		ldrh	r3, [r3]	@ movhi
 625 0008 9BB2     		uxth	r3, r3
 626 000a DBB2     		uxtb	r3, r3
 442:.\Generated_Source\PSoC5/OSDP_Reader_Counter.c ****     #else
 443:.\Generated_Source\PSoC5/OSDP_Reader_Counter.c ****         return (CY_GET_REG8(OSDP_Reader_Counter_PERIOD_LSB_PTR));
 444:.\Generated_Source\PSoC5/OSDP_Reader_Counter.c ****     #endif /* (OSDP_Reader_Counter_UsingFixedFunction) */
 445:.\Generated_Source\PSoC5/OSDP_Reader_Counter.c **** }
 627              		.loc 1 445 0
 628 000c 1846     		mov	r0, r3
 629 000e BD46     		mov	sp, r7
 630              		@ sp needed
 631 0010 5DF8047B 		ldr	r7, [sp], #4
 632 0014 7047     		bx	lr
 633              	.L46:
 634 0016 00BF     		.align	2
 635              	.L45:
 636 0018 044F0040 		.word	1073762052
 637              		.cfi_endproc
 638              	.LFE12:
ARM GAS  C:\Users\Yiquing\AppData\Local\Temp\ccWEoD7F.s 			page 20


 639              		.size	OSDP_Reader_Counter_ReadPeriod, .-OSDP_Reader_Counter_ReadPeriod
 640              		.text
 641              	.Letext0:
 642              		.file 2 ".\\Generated_Source\\PSoC5\\cytypes.h"