ARM GAS  C:\Users\Yiquing\AppData\Local\Temp\cc6uNvhJ.s 			page 1


   1              		.syntax unified
   2              		.cpu cortex-m3
   3              		.fpu softvfp
   4              		.eabi_attribute 20, 1
   5              		.eabi_attribute 21, 1
   6              		.eabi_attribute 23, 3
   7              		.eabi_attribute 24, 1
   8              		.eabi_attribute 25, 1
   9              		.eabi_attribute 26, 1
  10              		.eabi_attribute 30, 6
  11              		.eabi_attribute 34, 1
  12              		.eabi_attribute 18, 4
  13              		.thumb
  14              		.file	"wiegand.c"
  15              		.text
  16              	.Ltext0:
  17              		.cfi_sections	.debug_frame
  18              		.comm	s,40,4
  19              		.comm	currentAccessType,1,1
  20              		.comm	old,1,1
  21              		.comm	TAMPERCR_POLARITY,4,4
  22              		.comm	card_ack,4,4
  23              		.comm	card_in_buf,4,4
  24              		.comm	got_pulse,1,1
  25              		.comm	f2f_pulsewidth,4,4
  26              		.comm	timeout_cnt,4,4
  27              		.comm	activate_f2ftimer,1,1
  28              		.section	.text.SendWeigand,"ax",%progbits
  29              		.align	2
  30              		.global	SendWeigand
  31              		.thumb
  32              		.thumb_func
  33              		.type	SendWeigand, %function
  34              	SendWeigand:
  35              	.LFB63:
  36              		.file 1 ".\\wiegand.c"
   1:.\wiegand.c   **** /* ========================================
   2:.\wiegand.c   ****  *
   3:.\wiegand.c   ****  * Copyright YOUR COMPANY, THE YEAR
   4:.\wiegand.c   ****  * All Rights Reserved
   5:.\wiegand.c   ****  * UNPUBLISHED, LICENSED SOFTWARE.
   6:.\wiegand.c   ****  *
   7:.\wiegand.c   ****  * CONFIDENTIAL AND PROPRIETARY INFORMATION
   8:.\wiegand.c   ****  * WHICH IS THE PROPERTY OF your company.
   9:.\wiegand.c   ****  *
  10:.\wiegand.c   ****  * ========================================
  11:.\wiegand.c   **** */
  12:.\wiegand.c   **** 
  13:.\wiegand.c   **** // GRI 2-2-15: Modified ReadWiegand.
  14:.\wiegand.c   **** 
  15:.\wiegand.c   **** #include <project.h>
  16:.\wiegand.c   **** #include "system.h"
  17:.\wiegand.c   **** 
  18:.\wiegand.c   **** 
  19:.\wiegand.c   **** 
  20:.\wiegand.c   **** void SendWeigand(int nBits)  //Function to send Wiegand Data
  21:.\wiegand.c   **** {
ARM GAS  C:\Users\Yiquing\AppData\Local\Temp\cc6uNvhJ.s 			page 2


  37              		.loc 1 21 0
  38              		.cfi_startproc
  39              		@ args = 0, pretend = 0, frame = 24
  40              		@ frame_needed = 1, uses_anonymous_args = 0
  41 0000 80B5     		push	{r7, lr}
  42              		.cfi_def_cfa_offset 8
  43              		.cfi_offset 7, -8
  44              		.cfi_offset 14, -4
  45 0002 86B0     		sub	sp, sp, #24
  46              		.cfi_def_cfa_offset 32
  47 0004 00AF     		add	r7, sp, #0
  48              		.cfi_def_cfa_register 7
  49 0006 7860     		str	r0, [r7, #4]
  22:.\wiegand.c   **** 	int x,y;
  23:.\wiegand.c   **** 	char  d1;
  24:.\wiegand.c   ****     char count = 0;
  50              		.loc 1 24 0
  51 0008 0023     		movs	r3, #0
  52 000a BB73     		strb	r3, [r7, #14]
  25:.\wiegand.c   **** 
  26:.\wiegand.c   ****     
  27:.\wiegand.c   **** 	/*                        Wiegand protocol
  28:.\wiegand.c   **** 	    A pulse width of 50us to define data
  29:.\wiegand.c   **** 	    A wait period of 2ms after transmitting the above defined pulse
  30:.\wiegand.c   ****     */
  31:.\wiegand.c   **** 	
  32:.\wiegand.c   **** 
  33:.\wiegand.c   **** 	for (x=0; x< 20; x++) // Loop over data written from the OMAP
  53              		.loc 1 33 0
  54 000c 0023     		movs	r3, #0
  55 000e 7B61     		str	r3, [r7, #20]
  56 0010 3EE0     		b	.L2
  57              	.L9:
  34:.\wiegand.c   **** 	{
  35:.\wiegand.c   ****         d1 = MyI2C_Regs.buffer[x];
  58              		.loc 1 35 0
  59 0012 224A     		ldr	r2, .L10
  60 0014 7B69     		ldr	r3, [r7, #20]
  61 0016 1344     		add	r3, r3, r2
  62 0018 9B79     		ldrb	r3, [r3, #6]
  63 001a FB73     		strb	r3, [r7, #15]
  36:.\wiegand.c   **** 		for (y=0; y <8; y++)  //Transmit each bit at a time
  64              		.loc 1 36 0
  65 001c 0023     		movs	r3, #0
  66 001e 3B61     		str	r3, [r7, #16]
  67 0020 30E0     		b	.L3
  68              	.L8:
  37:.\wiegand.c   **** 		{	
  38:.\wiegand.c   **** 			count = count + 1;
  69              		.loc 1 38 0
  70 0022 BB7B     		ldrb	r3, [r7, #14]
  71 0024 0133     		adds	r3, r3, #1
  72 0026 BB73     		strb	r3, [r7, #14]
  39:.\wiegand.c   ****             if (count > nBits) //26 bit Wiegand; so terminate at 26 bits
  73              		.loc 1 39 0
  74 0028 BA7B     		ldrb	r2, [r7, #14]	@ zero_extendqisi2
  75 002a 7B68     		ldr	r3, [r7, #4]
ARM GAS  C:\Users\Yiquing\AppData\Local\Temp\cc6uNvhJ.s 			page 3


  76 002c 9A42     		cmp	r2, r3
  77 002e 06DD     		ble	.L4
  40:.\wiegand.c   **** 			{
  41:.\wiegand.c   ****                 OptSelect_Write(2);
  78              		.loc 1 41 0
  79 0030 0220     		movs	r0, #2
  80 0032 FFF7FEFF 		bl	OptSelect_Write
  42:.\wiegand.c   **** 			    PS_D1_Write(0);
  81              		.loc 1 42 0
  82 0036 0020     		movs	r0, #0
  83 0038 FFF7FEFF 		bl	PS_D1_Write
  43:.\wiegand.c   **** 				return;
  84              		.loc 1 43 0
  85 003c 2BE0     		b	.L1
  86              	.L4:
  44:.\wiegand.c   **** 			}
  45:.\wiegand.c   **** 
  46:.\wiegand.c   **** 		    if ((d1&0x80)) // Check if it a 1 or a 0
  87              		.loc 1 46 0
  88 003e FB7B     		ldrb	r3, [r7, #15]	@ zero_extendqisi2
  89 0040 5BB2     		sxtb	r3, r3
  90 0042 002B     		cmp	r3, #0
  91 0044 06DA     		bge	.L6
  47:.\wiegand.c   **** 			{
  48:.\wiegand.c   ****                 OptSelect_Write(2); //10 for select & D0
  92              		.loc 1 48 0
  93 0046 0220     		movs	r0, #2
  94 0048 FFF7FEFF 		bl	OptSelect_Write
  49:.\wiegand.c   **** 				PS_D1_Write(1);
  95              		.loc 1 49 0
  96 004c 0120     		movs	r0, #1
  97 004e FFF7FEFF 		bl	PS_D1_Write
  98 0052 05E0     		b	.L7
  99              	.L6:
  50:.\wiegand.c   **** 			}
  51:.\wiegand.c   **** 			else
  52:.\wiegand.c   **** 			{
  53:.\wiegand.c   ****                 OptSelect_Write(3); //10 for select & D0
 100              		.loc 1 53 0
 101 0054 0320     		movs	r0, #3
 102 0056 FFF7FEFF 		bl	OptSelect_Write
  54:.\wiegand.c   **** 				PS_D1_Write(0);
 103              		.loc 1 54 0
 104 005a 0020     		movs	r0, #0
 105 005c FFF7FEFF 		bl	PS_D1_Write
 106              	.L7:
  55:.\wiegand.c   **** 			}			    
  56:.\wiegand.c   **** 
  57:.\wiegand.c   ****             
  58:.\wiegand.c   ****             CyDelayUs(50);
 107              		.loc 1 58 0
 108 0060 3220     		movs	r0, #50
 109 0062 FFF7FEFF 		bl	CyDelayUs
  59:.\wiegand.c   ****             
  60:.\wiegand.c   ****             OptSelect_Write(2);
 110              		.loc 1 60 0
 111 0066 0220     		movs	r0, #2
ARM GAS  C:\Users\Yiquing\AppData\Local\Temp\cc6uNvhJ.s 			page 4


 112 0068 FFF7FEFF 		bl	OptSelect_Write
  61:.\wiegand.c   **** 			PS_D1_Write(0);
 113              		.loc 1 61 0
 114 006c 0020     		movs	r0, #0
 115 006e FFF7FEFF 		bl	PS_D1_Write
  62:.\wiegand.c   **** 			d1=d1<<1;
 116              		.loc 1 62 0
 117 0072 FB7B     		ldrb	r3, [r7, #15]
 118 0074 5B00     		lsls	r3, r3, #1
 119 0076 FB73     		strb	r3, [r7, #15]
  63:.\wiegand.c   ****             
  64:.\wiegand.c   ****            
  65:.\wiegand.c   ****              CyDelay(2);
 120              		.loc 1 65 0
 121 0078 0220     		movs	r0, #2
 122 007a FFF7FEFF 		bl	CyDelay
  36:.\wiegand.c   **** 		for (y=0; y <8; y++)  //Transmit each bit at a time
 123              		.loc 1 36 0
 124 007e 3B69     		ldr	r3, [r7, #16]
 125 0080 0133     		adds	r3, r3, #1
 126 0082 3B61     		str	r3, [r7, #16]
 127              	.L3:
  36:.\wiegand.c   **** 		for (y=0; y <8; y++)  //Transmit each bit at a time
 128              		.loc 1 36 0 is_stmt 0 discriminator 1
 129 0084 3B69     		ldr	r3, [r7, #16]
 130 0086 072B     		cmp	r3, #7
 131 0088 CBDD     		ble	.L8
  33:.\wiegand.c   **** 	for (x=0; x< 20; x++) // Loop over data written from the OMAP
 132              		.loc 1 33 0 is_stmt 1
 133 008a 7B69     		ldr	r3, [r7, #20]
 134 008c 0133     		adds	r3, r3, #1
 135 008e 7B61     		str	r3, [r7, #20]
 136              	.L2:
  33:.\wiegand.c   **** 	for (x=0; x< 20; x++) // Loop over data written from the OMAP
 137              		.loc 1 33 0 is_stmt 0 discriminator 1
 138 0090 7B69     		ldr	r3, [r7, #20]
 139 0092 132B     		cmp	r3, #19
 140 0094 BDDD     		ble	.L9
 141              	.L1:
  66:.\wiegand.c   **** 
  67:.\wiegand.c   **** 		}
  68:.\wiegand.c   ****         
  69:.\wiegand.c   **** 	}
  70:.\wiegand.c   ****   
  71:.\wiegand.c   **** }
 142              		.loc 1 71 0 is_stmt 1
 143 0096 1837     		adds	r7, r7, #24
 144 0098 BD46     		mov	sp, r7
 145              		@ sp needed
 146 009a 80BD     		pop	{r7, pc}
 147              	.L11:
 148              		.align	2
 149              	.L10:
 150 009c 00000000 		.word	MyI2C_Regs
 151              		.cfi_endproc
 152              	.LFE63:
 153              		.size	SendWeigand, .-SendWeigand
ARM GAS  C:\Users\Yiquing\AppData\Local\Temp\cc6uNvhJ.s 			page 5


 154              		.section	.text.ReadWeigand,"ax",%progbits
 155              		.align	2
 156              		.global	ReadWeigand
 157              		.thumb
 158              		.thumb_func
 159              		.type	ReadWeigand, %function
 160              	ReadWeigand:
 161              	.LFB64:
  72:.\wiegand.c   **** 
  73:.\wiegand.c   **** 
  74:.\wiegand.c   **** int ReadWeigand(int nBits)
  75:.\wiegand.c   **** {
 162              		.loc 1 75 0
 163              		.cfi_startproc
 164              		@ args = 0, pretend = 0, frame = 24
 165              		@ frame_needed = 1, uses_anonymous_args = 0
 166 0000 80B5     		push	{r7, lr}
 167              		.cfi_def_cfa_offset 8
 168              		.cfi_offset 7, -8
 169              		.cfi_offset 14, -4
 170 0002 86B0     		sub	sp, sp, #24
 171              		.cfi_def_cfa_offset 32
 172 0004 00AF     		add	r7, sp, #0
 173              		.cfi_def_cfa_register 7
 174 0006 7860     		str	r0, [r7, #4]
  76:.\wiegand.c   ****     int bitCount=0;
 175              		.loc 1 76 0
 176 0008 0023     		movs	r3, #0
 177 000a 7B61     		str	r3, [r7, #20]
  77:.\wiegand.c   ****     int byteCount=0;
 178              		.loc 1 77 0
 179 000c 0023     		movs	r3, #0
 180 000e 3B61     		str	r3, [r7, #16]
  78:.\wiegand.c   ****    
  79:.\wiegand.c   ****     char WD0 = Pin_WD0_Read() ;
 181              		.loc 1 79 0
 182 0010 FFF7FEFF 		bl	Pin_WD0_Read
 183 0014 0346     		mov	r3, r0
 184 0016 FB73     		strb	r3, [r7, #15]
  80:.\wiegand.c   ****     char WD1 = Pin_WD1_Read();
 185              		.loc 1 80 0
 186 0018 FFF7FEFF 		bl	Pin_WD1_Read
 187 001c 0346     		mov	r3, r0
 188 001e BB73     		strb	r3, [r7, #14]
  81:.\wiegand.c   ****     card_in_buf = 0;
 189              		.loc 1 81 0
 190 0020 334B     		ldr	r3, .L24
 191 0022 0022     		movs	r2, #0
 192 0024 1A60     		str	r2, [r3]
  82:.\wiegand.c   ****     
  83:.\wiegand.c   ****     if( WD0 == 0 || WD1 == 0)
 193              		.loc 1 83 0
 194 0026 FB7B     		ldrb	r3, [r7, #15]	@ zero_extendqisi2
 195 0028 002B     		cmp	r3, #0
 196 002a 02D0     		beq	.L13
 197              		.loc 1 83 0 is_stmt 0 discriminator 1
 198 002c BB7B     		ldrb	r3, [r7, #14]	@ zero_extendqisi2
ARM GAS  C:\Users\Yiquing\AppData\Local\Temp\cc6uNvhJ.s 			page 6


 199 002e 002B     		cmp	r3, #0
 200 0030 56D1     		bne	.L14
 201              	.L13:
  84:.\wiegand.c   ****     {
  85:.\wiegand.c   ****         while(byteCount*8+bitCount < nBits)
 202              		.loc 1 85 0 is_stmt 1
 203 0032 3FE0     		b	.L15
 204              	.L22:
  86:.\wiegand.c   ****         {
  87:.\wiegand.c   ****            //Read D0 line for input, if yes wait for 50 usec for data to end
  88:.\wiegand.c   ****            WD0 = Pin_WD0_Read();
 205              		.loc 1 88 0
 206 0034 FFF7FEFF 		bl	Pin_WD0_Read
 207 0038 0346     		mov	r3, r0
 208 003a FB73     		strb	r3, [r7, #15]
  89:.\wiegand.c   ****            WD1 = Pin_WD1_Read();
 209              		.loc 1 89 0
 210 003c FFF7FEFF 		bl	Pin_WD1_Read
 211 0040 0346     		mov	r3, r0
 212 0042 BB73     		strb	r3, [r7, #14]
  90:.\wiegand.c   ****            if(WD0 == 0)
 213              		.loc 1 90 0
 214 0044 FB7B     		ldrb	r3, [r7, #15]	@ zero_extendqisi2
 215 0046 002B     		cmp	r3, #0
 216 0048 0BD1     		bne	.L16
  91:.\wiegand.c   ****            {
  92:.\wiegand.c   ****              while(WD0 != 1){WD0 = Pin_WD0_Read();}
 217              		.loc 1 92 0
 218 004a 03E0     		b	.L17
 219              	.L18:
 220              		.loc 1 92 0 is_stmt 0 discriminator 2
 221 004c FFF7FEFF 		bl	Pin_WD0_Read
 222 0050 0346     		mov	r3, r0
 223 0052 FB73     		strb	r3, [r7, #15]
 224              	.L17:
 225              		.loc 1 92 0 discriminator 1
 226 0054 FB7B     		ldrb	r3, [r7, #15]	@ zero_extendqisi2
 227 0056 012B     		cmp	r3, #1
 228 0058 F8D1     		bne	.L18
  93:.\wiegand.c   ****              
  94:.\wiegand.c   ****              bitCount++;
 229              		.loc 1 94 0 is_stmt 1
 230 005a 7B69     		ldr	r3, [r7, #20]
 231 005c 0133     		adds	r3, r3, #1
 232 005e 7B61     		str	r3, [r7, #20]
 233 0060 20E0     		b	.L19
 234              	.L16:
  95:.\wiegand.c   **** 
  96:.\wiegand.c   ****            }
  97:.\wiegand.c   ****         
  98:.\wiegand.c   ****             //Read D1 line for input, if yes wait for 50 usec for data to end
  99:.\wiegand.c   ****             //and write 1 to the bit in the buffer at the right position.            
 100:.\wiegand.c   ****            else if(WD1 == 0)
 235              		.loc 1 100 0
 236 0062 BB7B     		ldrb	r3, [r7, #14]	@ zero_extendqisi2
 237 0064 002B     		cmp	r3, #0
 238 0066 1DD1     		bne	.L19
ARM GAS  C:\Users\Yiquing\AppData\Local\Temp\cc6uNvhJ.s 			page 7


 101:.\wiegand.c   ****            {
 102:.\wiegand.c   ****              while(WD1 != 1){WD1 = Pin_WD1_Read();}
 239              		.loc 1 102 0
 240 0068 03E0     		b	.L20
 241              	.L21:
 242              		.loc 1 102 0 is_stmt 0 discriminator 2
 243 006a FFF7FEFF 		bl	Pin_WD1_Read
 244 006e 0346     		mov	r3, r0
 245 0070 BB73     		strb	r3, [r7, #14]
 246              	.L20:
 247              		.loc 1 102 0 discriminator 1
 248 0072 BB7B     		ldrb	r3, [r7, #14]	@ zero_extendqisi2
 249 0074 012B     		cmp	r3, #1
 250 0076 F8D1     		bne	.L21
 103:.\wiegand.c   ****              MyI2C_Regs.buffer[byteCount] |= (0x01 << (7-bitCount));  //write a 1 to current buffer
 251              		.loc 1 103 0 is_stmt 1
 252 0078 1E4A     		ldr	r2, .L24+4
 253 007a 3B69     		ldr	r3, [r7, #16]
 254 007c 1344     		add	r3, r3, r2
 255 007e 9B79     		ldrb	r3, [r3, #6]	@ zero_extendqisi2
 256 0080 DAB2     		uxtb	r2, r3
 257 0082 7B69     		ldr	r3, [r7, #20]
 258 0084 C3F10703 		rsb	r3, r3, #7
 259 0088 0121     		movs	r1, #1
 260 008a 01FA03F3 		lsl	r3, r1, r3
 261 008e DBB2     		uxtb	r3, r3
 262 0090 1343     		orrs	r3, r3, r2
 263 0092 DBB2     		uxtb	r3, r3
 264 0094 DAB2     		uxtb	r2, r3
 265 0096 1749     		ldr	r1, .L24+4
 266 0098 3B69     		ldr	r3, [r7, #16]
 267 009a 0B44     		add	r3, r3, r1
 268 009c 9A71     		strb	r2, [r3, #6]
 104:.\wiegand.c   ****              bitCount++;
 269              		.loc 1 104 0
 270 009e 7B69     		ldr	r3, [r7, #20]
 271 00a0 0133     		adds	r3, r3, #1
 272 00a2 7B61     		str	r3, [r7, #20]
 273              	.L19:
 105:.\wiegand.c   **** 
 106:.\wiegand.c   ****            }
 107:.\wiegand.c   ****         
 108:.\wiegand.c   ****             //Reset bitCount
 109:.\wiegand.c   ****             if (bitCount > 7)
 274              		.loc 1 109 0
 275 00a4 7B69     		ldr	r3, [r7, #20]
 276 00a6 072B     		cmp	r3, #7
 277 00a8 04DD     		ble	.L15
 110:.\wiegand.c   **** 			{
 111:.\wiegand.c   **** 				bitCount = 0;
 278              		.loc 1 111 0
 279 00aa 0023     		movs	r3, #0
 280 00ac 7B61     		str	r3, [r7, #20]
 112:.\wiegand.c   **** 				byteCount++;
 281              		.loc 1 112 0
 282 00ae 3B69     		ldr	r3, [r7, #16]
 283 00b0 0133     		adds	r3, r3, #1
ARM GAS  C:\Users\Yiquing\AppData\Local\Temp\cc6uNvhJ.s 			page 8


 284 00b2 3B61     		str	r3, [r7, #16]
 285              	.L15:
  85:.\wiegand.c   ****         while(byteCount*8+bitCount < nBits)
 286              		.loc 1 85 0 discriminator 1
 287 00b4 3B69     		ldr	r3, [r7, #16]
 288 00b6 DA00     		lsls	r2, r3, #3
 289 00b8 7B69     		ldr	r3, [r7, #20]
 290 00ba 1A44     		add	r2, r2, r3
 291 00bc 7B68     		ldr	r3, [r7, #4]
 292 00be 9A42     		cmp	r2, r3
 293 00c0 B8DB     		blt	.L22
 113:.\wiegand.c   **** 			}
 114:.\wiegand.c   ****             
 115:.\wiegand.c   ****         }
 116:.\wiegand.c   ****         MyI2C_Regs.cmd = 0;
 294              		.loc 1 116 0
 295 00c2 0C4B     		ldr	r3, .L24+4
 296 00c4 0022     		movs	r2, #0
 297 00c6 9A70     		strb	r2, [r3, #2]
 117:.\wiegand.c   ****         card_in_buf = 1;
 298              		.loc 1 117 0
 299 00c8 094B     		ldr	r3, .L24
 300 00ca 0122     		movs	r2, #1
 301 00cc 1A60     		str	r2, [r3]
 118:.\wiegand.c   ****         MyI2C_Regs.status |= STAT_CHANGE | STAT_CARD_IN ;
 302              		.loc 1 118 0
 303 00ce 094B     		ldr	r3, .L24+4
 304 00d0 1B78     		ldrb	r3, [r3]	@ zero_extendqisi2
 305 00d2 43F00303 		orr	r3, r3, #3
 306 00d6 DAB2     		uxtb	r2, r3
 307 00d8 064B     		ldr	r3, .L24+4
 308 00da 1A70     		strb	r2, [r3]
 119:.\wiegand.c   ****         
 120:.\wiegand.c   ****         return 1;
 309              		.loc 1 120 0
 310 00dc 0123     		movs	r3, #1
 311 00de 03E0     		b	.L23
 312              	.L14:
 121:.\wiegand.c   ****     }
 122:.\wiegand.c   ****     card_in_buf = 0;
 313              		.loc 1 122 0
 314 00e0 034B     		ldr	r3, .L24
 315 00e2 0022     		movs	r2, #0
 316 00e4 1A60     		str	r2, [r3]
 123:.\wiegand.c   ****     return 0;
 317              		.loc 1 123 0
 318 00e6 0023     		movs	r3, #0
 319              	.L23:
 124:.\wiegand.c   **** }
 320              		.loc 1 124 0
 321 00e8 1846     		mov	r0, r3
 322 00ea 1837     		adds	r7, r7, #24
 323 00ec BD46     		mov	sp, r7
 324              		@ sp needed
 325 00ee 80BD     		pop	{r7, pc}
 326              	.L25:
 327              		.align	2
ARM GAS  C:\Users\Yiquing\AppData\Local\Temp\cc6uNvhJ.s 			page 9


 328              	.L24:
 329 00f0 00000000 		.word	card_in_buf
 330 00f4 00000000 		.word	MyI2C_Regs
 331              		.cfi_endproc
 332              	.LFE64:
 333              		.size	ReadWeigand, .-ReadWeigand
 334              		.section	.text.SendF2F,"ax",%progbits
 335              		.align	2
 336              		.global	SendF2F
 337              		.thumb
 338              		.thumb_func
 339              		.type	SendF2F, %function
 340              	SendF2F:
 341              	.LFB65:
 125:.\wiegand.c   **** 
 126:.\wiegand.c   **** 
 127:.\wiegand.c   **** void SendF2F()
 128:.\wiegand.c   **** {
 342              		.loc 1 128 0
 343              		.cfi_startproc
 344              		@ args = 0, pretend = 0, frame = 48
 345              		@ frame_needed = 1, uses_anonymous_args = 0
 346 0000 80B5     		push	{r7, lr}
 347              		.cfi_def_cfa_offset 8
 348              		.cfi_offset 7, -8
 349              		.cfi_offset 14, -4
 350 0002 8CB0     		sub	sp, sp, #48
 351              		.cfi_def_cfa_offset 56
 352 0004 00AF     		add	r7, sp, #0
 353              		.cfi_def_cfa_register 7
 129:.\wiegand.c   **** 	int x,b,z;
 130:.\wiegand.c   **** 	char  d0;
 131:.\wiegand.c   **** 	char aPRT0DRa;
 132:.\wiegand.c   **** 	unsigned char f2f[28];
 133:.\wiegand.c   ****     char flag=0;
 354              		.loc 1 133 0
 355 0006 0023     		movs	r3, #0
 356 0008 87F82130 		strb	r3, [r7, #33]
 134:.\wiegand.c   **** 		
 135:.\wiegand.c   **** 
 136:.\wiegand.c   **** 	//Loop over data written by OMAP
 137:.\wiegand.c   **** 	//Zeros are transmitted as two transitions, with a pulse width of 2 ms
 138:.\wiegand.c   **** 	//Ones are transmitted as four transitions, with a pulse width of 1 ms
 139:.\wiegand.c   ****   
 140:.\wiegand.c   **** 	for (x=0; x< 14; x++)
 357              		.loc 1 140 0
 358 000c 0023     		movs	r3, #0
 359 000e FB62     		str	r3, [r7, #44]
 360 0010 BAE0     		b	.L27
 361              	.L44:
 141:.\wiegand.c   **** 	{   	
 142:.\wiegand.c   **** 		d0 = MyI2C_Regs.buffer[x];	
 362              		.loc 1 142 0
 363 0012 7E4A     		ldr	r2, .L51
 364 0014 FB6A     		ldr	r3, [r7, #44]
 365 0016 1344     		add	r3, r3, r2
 366 0018 9B79     		ldrb	r3, [r3, #6]
ARM GAS  C:\Users\Yiquing\AppData\Local\Temp\cc6uNvhJ.s 			page 10


 367 001a 87F82330 		strb	r3, [r7, #35]
 143:.\wiegand.c   ****         aPRT0DRa = 0;
 368              		.loc 1 143 0
 369 001e 0023     		movs	r3, #0
 370 0020 87F82230 		strb	r3, [r7, #34]
 144:.\wiegand.c   **** 		f2f[2*x] = 0;
 371              		.loc 1 144 0
 372 0024 FB6A     		ldr	r3, [r7, #44]
 373 0026 5B00     		lsls	r3, r3, #1
 374 0028 07F13002 		add	r2, r7, #48
 375 002c 1344     		add	r3, r3, r2
 376 002e 0022     		movs	r2, #0
 377 0030 03F82C2C 		strb	r2, [r3, #-44]
 145:.\wiegand.c   **** 		f2f[2*x + 1] = 0;		 
 378              		.loc 1 145 0
 379 0034 FB6A     		ldr	r3, [r7, #44]
 380 0036 5B00     		lsls	r3, r3, #1
 381 0038 0133     		adds	r3, r3, #1
 382 003a 07F13002 		add	r2, r7, #48
 383 003e 1344     		add	r3, r3, r2
 384 0040 0022     		movs	r2, #0
 385 0042 03F82C2C 		strb	r2, [r3, #-44]
 146:.\wiegand.c   **** 		for (b=0; b <4; b++)    //higher 4 bits
 386              		.loc 1 146 0
 387 0046 0023     		movs	r3, #0
 388 0048 BB62     		str	r3, [r7, #40]
 389 004a 3DE0     		b	.L28
 390              	.L35:
 147:.\wiegand.c   **** 		{	   	  
 148:.\wiegand.c   **** 			if (d0&0x80)    //it is a 1
 391              		.loc 1 148 0
 392 004c 97F82330 		ldrb	r3, [r7, #35]	@ zero_extendqisi2
 393 0050 5BB2     		sxtb	r3, r3
 394 0052 002B     		cmp	r3, #0
 395 0054 17DA     		bge	.L29
 149:.\wiegand.c   **** 			{      
 150:.\wiegand.c   **** 				if (flag == 0)  //previous level is 0
 396              		.loc 1 150 0
 397 0056 97F82130 		ldrb	r3, [r7, #33]	@ zero_extendqisi2
 398 005a 002B     		cmp	r3, #0
 399 005c 09D1     		bne	.L30
 151:.\wiegand.c   **** 				{	   	
 152:.\wiegand.c   **** 					flag = 0;
 400              		.loc 1 152 0
 401 005e 0023     		movs	r3, #0
 402 0060 87F82130 		strb	r3, [r7, #33]
 153:.\wiegand.c   **** 					aPRT0DRa |= 0x02;	   	   		   
 403              		.loc 1 153 0
 404 0064 97F82230 		ldrb	r3, [r7, #34]
 405 0068 43F00203 		orr	r3, r3, #2
 406 006c 87F82230 		strb	r3, [r7, #34]
 407 0070 1AE0     		b	.L32
 408              	.L30:
 154:.\wiegand.c   **** 				}
 155:.\wiegand.c   **** 				else            //previous level is 1
 156:.\wiegand.c   **** 				{
 157:.\wiegand.c   **** 					aPRT0DRa |= 0x01;
ARM GAS  C:\Users\Yiquing\AppData\Local\Temp\cc6uNvhJ.s 			page 11


 409              		.loc 1 157 0
 410 0072 97F82230 		ldrb	r3, [r7, #34]
 411 0076 43F00103 		orr	r3, r3, #1
 412 007a 87F82230 		strb	r3, [r7, #34]
 158:.\wiegand.c   **** 					flag = 1;
 413              		.loc 1 158 0
 414 007e 0123     		movs	r3, #1
 415 0080 87F82130 		strb	r3, [r7, #33]
 416 0084 10E0     		b	.L32
 417              	.L29:
 159:.\wiegand.c   **** 				}
 160:.\wiegand.c   **** 			}
 161:.\wiegand.c   **** 			else    //it is a 0
 162:.\wiegand.c   **** 			{
 163:.\wiegand.c   **** 				if (flag == 0)  //previous level is 0
 418              		.loc 1 163 0
 419 0086 97F82130 		ldrb	r3, [r7, #33]	@ zero_extendqisi2
 420 008a 002B     		cmp	r3, #0
 421 008c 09D1     		bne	.L33
 164:.\wiegand.c   **** 				{
 165:.\wiegand.c   **** 					aPRT0DRa |= 0x03;
 422              		.loc 1 165 0
 423 008e 97F82230 		ldrb	r3, [r7, #34]
 424 0092 43F00303 		orr	r3, r3, #3
 425 0096 87F82230 		strb	r3, [r7, #34]
 166:.\wiegand.c   **** 					flag = 1;
 426              		.loc 1 166 0
 427 009a 0123     		movs	r3, #1
 428 009c 87F82130 		strb	r3, [r7, #33]
 429 00a0 02E0     		b	.L32
 430              	.L33:
 167:.\wiegand.c   **** 				}
 168:.\wiegand.c   **** 				else    //previous level is 1
 169:.\wiegand.c   **** 				{
 170:.\wiegand.c   **** 					flag = 0;
 431              		.loc 1 170 0
 432 00a2 0023     		movs	r3, #0
 433 00a4 87F82130 		strb	r3, [r7, #33]
 434              	.L32:
 171:.\wiegand.c   **** 				}		   
 172:.\wiegand.c   **** 			}
 173:.\wiegand.c   **** 
 174:.\wiegand.c   **** 			if (b < 3)
 435              		.loc 1 174 0
 436 00a8 BB6A     		ldr	r3, [r7, #40]
 437 00aa 022B     		cmp	r3, #2
 438 00ac 04DC     		bgt	.L34
 175:.\wiegand.c   **** 				aPRT0DRa <<= 2; //go next bit
 439              		.loc 1 175 0
 440 00ae 97F82230 		ldrb	r3, [r7, #34]
 441 00b2 9B00     		lsls	r3, r3, #2
 442 00b4 87F82230 		strb	r3, [r7, #34]
 443              	.L34:
 176:.\wiegand.c   **** 
 177:.\wiegand.c   **** 			d0 <<= 1;   //go next bit
 444              		.loc 1 177 0
 445 00b8 97F82330 		ldrb	r3, [r7, #35]
ARM GAS  C:\Users\Yiquing\AppData\Local\Temp\cc6uNvhJ.s 			page 12


 446 00bc 5B00     		lsls	r3, r3, #1
 447 00be 87F82330 		strb	r3, [r7, #35]
 146:.\wiegand.c   **** 		for (b=0; b <4; b++)    //higher 4 bits
 448              		.loc 1 146 0
 449 00c2 BB6A     		ldr	r3, [r7, #40]
 450 00c4 0133     		adds	r3, r3, #1
 451 00c6 BB62     		str	r3, [r7, #40]
 452              	.L28:
 146:.\wiegand.c   **** 		for (b=0; b <4; b++)    //higher 4 bits
 453              		.loc 1 146 0 is_stmt 0 discriminator 1
 454 00c8 BB6A     		ldr	r3, [r7, #40]
 455 00ca 032B     		cmp	r3, #3
 456 00cc BEDD     		ble	.L35
 178:.\wiegand.c   **** 		}
 179:.\wiegand.c   **** 		f2f[2*x] = aPRT0DRa;
 457              		.loc 1 179 0 is_stmt 1
 458 00ce FB6A     		ldr	r3, [r7, #44]
 459 00d0 5B00     		lsls	r3, r3, #1
 460 00d2 07F13002 		add	r2, r7, #48
 461 00d6 1344     		add	r3, r3, r2
 462 00d8 97F82220 		ldrb	r2, [r7, #34]
 463 00dc 03F82C2C 		strb	r2, [r3, #-44]
 180:.\wiegand.c   **** 
 181:.\wiegand.c   **** 		aPRT0DRa = 0;	
 464              		.loc 1 181 0
 465 00e0 0023     		movs	r3, #0
 466 00e2 87F82230 		strb	r3, [r7, #34]
 182:.\wiegand.c   **** 		for (b=0; b <4; b++)    //lower 4 bits
 467              		.loc 1 182 0
 468 00e6 0023     		movs	r3, #0
 469 00e8 BB62     		str	r3, [r7, #40]
 470 00ea 3DE0     		b	.L36
 471              	.L43:
 183:.\wiegand.c   **** 		{	   	  
 184:.\wiegand.c   **** 			if (d0&0x80)
 472              		.loc 1 184 0
 473 00ec 97F82330 		ldrb	r3, [r7, #35]	@ zero_extendqisi2
 474 00f0 5BB2     		sxtb	r3, r3
 475 00f2 002B     		cmp	r3, #0
 476 00f4 17DA     		bge	.L37
 185:.\wiegand.c   **** 			{      
 186:.\wiegand.c   **** 				if (flag == 0)
 477              		.loc 1 186 0
 478 00f6 97F82130 		ldrb	r3, [r7, #33]	@ zero_extendqisi2
 479 00fa 002B     		cmp	r3, #0
 480 00fc 09D1     		bne	.L38
 187:.\wiegand.c   **** 				{	   	
 188:.\wiegand.c   **** 					flag = 0;
 481              		.loc 1 188 0
 482 00fe 0023     		movs	r3, #0
 483 0100 87F82130 		strb	r3, [r7, #33]
 189:.\wiegand.c   **** 					aPRT0DRa |= 0x02;	   	   		   
 484              		.loc 1 189 0
 485 0104 97F82230 		ldrb	r3, [r7, #34]
 486 0108 43F00203 		orr	r3, r3, #2
 487 010c 87F82230 		strb	r3, [r7, #34]
 488 0110 1AE0     		b	.L40
ARM GAS  C:\Users\Yiquing\AppData\Local\Temp\cc6uNvhJ.s 			page 13


 489              	.L38:
 190:.\wiegand.c   **** 				}
 191:.\wiegand.c   **** 				else
 192:.\wiegand.c   **** 				{
 193:.\wiegand.c   **** 					aPRT0DRa |= 0x01;
 490              		.loc 1 193 0
 491 0112 97F82230 		ldrb	r3, [r7, #34]
 492 0116 43F00103 		orr	r3, r3, #1
 493 011a 87F82230 		strb	r3, [r7, #34]
 194:.\wiegand.c   **** 					flag = 1;
 494              		.loc 1 194 0
 495 011e 0123     		movs	r3, #1
 496 0120 87F82130 		strb	r3, [r7, #33]
 497 0124 10E0     		b	.L40
 498              	.L37:
 195:.\wiegand.c   **** 				}
 196:.\wiegand.c   **** 			}
 197:.\wiegand.c   **** 			else
 198:.\wiegand.c   **** 			{
 199:.\wiegand.c   **** 				if (flag == 0)
 499              		.loc 1 199 0
 500 0126 97F82130 		ldrb	r3, [r7, #33]	@ zero_extendqisi2
 501 012a 002B     		cmp	r3, #0
 502 012c 09D1     		bne	.L41
 200:.\wiegand.c   **** 				{
 201:.\wiegand.c   **** 					aPRT0DRa |=0x03;
 503              		.loc 1 201 0
 504 012e 97F82230 		ldrb	r3, [r7, #34]
 505 0132 43F00303 		orr	r3, r3, #3
 506 0136 87F82230 		strb	r3, [r7, #34]
 202:.\wiegand.c   **** 					flag = 1;
 507              		.loc 1 202 0
 508 013a 0123     		movs	r3, #1
 509 013c 87F82130 		strb	r3, [r7, #33]
 510 0140 02E0     		b	.L40
 511              	.L41:
 203:.\wiegand.c   **** 				}
 204:.\wiegand.c   **** 				else
 205:.\wiegand.c   **** 				{
 206:.\wiegand.c   **** 					flag = 0;
 512              		.loc 1 206 0
 513 0142 0023     		movs	r3, #0
 514 0144 87F82130 		strb	r3, [r7, #33]
 515              	.L40:
 207:.\wiegand.c   **** 				}		   
 208:.\wiegand.c   **** 			}
 209:.\wiegand.c   **** 
 210:.\wiegand.c   **** 			if (b < 3)
 516              		.loc 1 210 0
 517 0148 BB6A     		ldr	r3, [r7, #40]
 518 014a 022B     		cmp	r3, #2
 519 014c 04DC     		bgt	.L42
 211:.\wiegand.c   **** 				aPRT0DRa<<=2;
 520              		.loc 1 211 0
 521 014e 97F82230 		ldrb	r3, [r7, #34]
 522 0152 9B00     		lsls	r3, r3, #2
 523 0154 87F82230 		strb	r3, [r7, #34]
ARM GAS  C:\Users\Yiquing\AppData\Local\Temp\cc6uNvhJ.s 			page 14


 524              	.L42:
 212:.\wiegand.c   **** 
 213:.\wiegand.c   **** 			d0<<=1;
 525              		.loc 1 213 0
 526 0158 97F82330 		ldrb	r3, [r7, #35]
 527 015c 5B00     		lsls	r3, r3, #1
 528 015e 87F82330 		strb	r3, [r7, #35]
 182:.\wiegand.c   **** 		for (b=0; b <4; b++)    //lower 4 bits
 529              		.loc 1 182 0
 530 0162 BB6A     		ldr	r3, [r7, #40]
 531 0164 0133     		adds	r3, r3, #1
 532 0166 BB62     		str	r3, [r7, #40]
 533              	.L36:
 182:.\wiegand.c   **** 		for (b=0; b <4; b++)    //lower 4 bits
 534              		.loc 1 182 0 is_stmt 0 discriminator 1
 535 0168 BB6A     		ldr	r3, [r7, #40]
 536 016a 032B     		cmp	r3, #3
 537 016c BEDD     		ble	.L43
 214:.\wiegand.c   **** 		}
 215:.\wiegand.c   **** 		f2f[2*x + 1] = aPRT0DRa;
 538              		.loc 1 215 0 is_stmt 1
 539 016e FB6A     		ldr	r3, [r7, #44]
 540 0170 5B00     		lsls	r3, r3, #1
 541 0172 0133     		adds	r3, r3, #1
 542 0174 07F13002 		add	r2, r7, #48
 543 0178 1344     		add	r3, r3, r2
 544 017a 97F82220 		ldrb	r2, [r7, #34]
 545 017e 03F82C2C 		strb	r2, [r3, #-44]
 140:.\wiegand.c   **** 	for (x=0; x< 14; x++)
 546              		.loc 1 140 0
 547 0182 FB6A     		ldr	r3, [r7, #44]
 548 0184 0133     		adds	r3, r3, #1
 549 0186 FB62     		str	r3, [r7, #44]
 550              	.L27:
 140:.\wiegand.c   **** 	for (x=0; x< 14; x++)
 551              		.loc 1 140 0 is_stmt 0 discriminator 1
 552 0188 FB6A     		ldr	r3, [r7, #44]
 553 018a 0D2B     		cmp	r3, #13
 554 018c 7FF741AF 		ble	.L44
 216:.\wiegand.c   **** 	}
 217:.\wiegand.c   **** 
 218:.\wiegand.c   **** 	//Use 8-bit timer to set up the pulse widths
 219:.\wiegand.c   **** 	//Use the buffered data from above where we already set up the data specific pulses and send them 
 220:.\wiegand.c   **** 
 221:.\wiegand.c   **** 	aPRT0DRa = 0;
 555              		.loc 1 221 0 is_stmt 1
 556 0190 0023     		movs	r3, #0
 557 0192 87F82230 		strb	r3, [r7, #34]
 222:.\wiegand.c   **** 	for (z=0;z<28;z++)
 558              		.loc 1 222 0
 559 0196 0023     		movs	r3, #0
 560 0198 7B62     		str	r3, [r7, #36]
 561 019a 31E0     		b	.L45
 562              	.L50:
 223:.\wiegand.c   **** 	{
 224:.\wiegand.c   **** 		d0 = f2f[z];
 563              		.loc 1 224 0
ARM GAS  C:\Users\Yiquing\AppData\Local\Temp\cc6uNvhJ.s 			page 15


 564 019c 3A1D     		adds	r2, r7, #4
 565 019e 7B6A     		ldr	r3, [r7, #36]
 566 01a0 1344     		add	r3, r3, r2
 567 01a2 1B78     		ldrb	r3, [r3]
 568 01a4 87F82330 		strb	r3, [r7, #35]
 225:.\wiegand.c   **** 		f2f[z]=0;
 569              		.loc 1 225 0
 570 01a8 3A1D     		adds	r2, r7, #4
 571 01aa 7B6A     		ldr	r3, [r7, #36]
 572 01ac 1344     		add	r3, r3, r2
 573 01ae 0022     		movs	r2, #0
 574 01b0 1A70     		strb	r2, [r3]
 226:.\wiegand.c   **** 		for (b=0; b <8; b++)
 575              		.loc 1 226 0
 576 01b2 0023     		movs	r3, #0
 577 01b4 BB62     		str	r3, [r7, #40]
 578 01b6 1DE0     		b	.L46
 579              	.L49:
 227:.\wiegand.c   **** 		{
 228:.\wiegand.c   **** 			if (d0&0x80)
 580              		.loc 1 228 0
 581 01b8 97F82330 		ldrb	r3, [r7, #35]	@ zero_extendqisi2
 582 01bc 5BB2     		sxtb	r3, r3
 583 01be 002B     		cmp	r3, #0
 584 01c0 06DA     		bge	.L47
 229:.\wiegand.c   ****             {
 230:.\wiegand.c   ****                 PS_D0_Write(1);
 585              		.loc 1 230 0
 586 01c2 0120     		movs	r0, #1
 587 01c4 FFF7FEFF 		bl	PS_D0_Write
 231:.\wiegand.c   ****                 OptSelect_Write(2); 
 588              		.loc 1 231 0
 589 01c8 0220     		movs	r0, #2
 590 01ca FFF7FEFF 		bl	OptSelect_Write
 591 01ce 05E0     		b	.L48
 592              	.L47:
 232:.\wiegand.c   **** 			}
 233:.\wiegand.c   ****             else
 234:.\wiegand.c   ****             {
 235:.\wiegand.c   ****                 OptSelect_Write(3);
 593              		.loc 1 235 0
 594 01d0 0320     		movs	r0, #3
 595 01d2 FFF7FEFF 		bl	OptSelect_Write
 236:.\wiegand.c   ****                 PS_D0_Write(0);
 596              		.loc 1 236 0
 597 01d6 0020     		movs	r0, #0
 598 01d8 FFF7FEFF 		bl	PS_D0_Write
 599              	.L48:
 237:.\wiegand.c   ****              }   
 238:.\wiegand.c   ****             CyDelayUs(1000);
 600              		.loc 1 238 0
 601 01dc 4FF47A70 		mov	r0, #1000
 602 01e0 FFF7FEFF 		bl	CyDelayUs
 239:.\wiegand.c   **** 			d0<<=1;
 603              		.loc 1 239 0
 604 01e4 97F82330 		ldrb	r3, [r7, #35]
 605 01e8 5B00     		lsls	r3, r3, #1
ARM GAS  C:\Users\Yiquing\AppData\Local\Temp\cc6uNvhJ.s 			page 16


 606 01ea 87F82330 		strb	r3, [r7, #35]
 226:.\wiegand.c   **** 		for (b=0; b <8; b++)
 607              		.loc 1 226 0
 608 01ee BB6A     		ldr	r3, [r7, #40]
 609 01f0 0133     		adds	r3, r3, #1
 610 01f2 BB62     		str	r3, [r7, #40]
 611              	.L46:
 226:.\wiegand.c   **** 		for (b=0; b <8; b++)
 612              		.loc 1 226 0 is_stmt 0 discriminator 1
 613 01f4 BB6A     		ldr	r3, [r7, #40]
 614 01f6 072B     		cmp	r3, #7
 615 01f8 DEDD     		ble	.L49
 222:.\wiegand.c   **** 	for (z=0;z<28;z++)
 616              		.loc 1 222 0 is_stmt 1
 617 01fa 7B6A     		ldr	r3, [r7, #36]
 618 01fc 0133     		adds	r3, r3, #1
 619 01fe 7B62     		str	r3, [r7, #36]
 620              	.L45:
 222:.\wiegand.c   **** 	for (z=0;z<28;z++)
 621              		.loc 1 222 0 is_stmt 0 discriminator 1
 622 0200 7B6A     		ldr	r3, [r7, #36]
 623 0202 1B2B     		cmp	r3, #27
 624 0204 CADD     		ble	.L50
 240:.\wiegand.c   **** 		}
 241:.\wiegand.c   **** 	}
 242:.\wiegand.c   **** }
 625              		.loc 1 242 0 is_stmt 1
 626 0206 3037     		adds	r7, r7, #48
 627 0208 BD46     		mov	sp, r7
 628              		@ sp needed
 629 020a 80BD     		pop	{r7, pc}
 630              	.L52:
 631              		.align	2
 632              	.L51:
 633 020c 00000000 		.word	MyI2C_Regs
 634              		.cfi_endproc
 635              	.LFE65:
 636              		.size	SendF2F, .-SendF2F
 637              		.comm	f2f_acknowledge_active,1,1
 638              		.comm	f2f_ack_delay_cnt,1,1
 639              		.global	__aeabi_i2d
 640              		.global	__aeabi_dmul
 641              		.global	__aeabi_dcmpge
 642              		.global	__aeabi_dcmplt
 643              		.section	.text.ReadF2F,"ax",%progbits
 644              		.align	2
 645              		.global	ReadF2F
 646              		.thumb
 647              		.thumb_func
 648              		.type	ReadF2F, %function
 649              	ReadF2F:
 650              	.LFB66:
 243:.\wiegand.c   **** 
 244:.\wiegand.c   **** 
 245:.\wiegand.c   **** /* F2F reader acknowledgement */
 246:.\wiegand.c   **** char f2f_acknowledge_active;
 247:.\wiegand.c   **** char f2f_ack_delay_cnt;
ARM GAS  C:\Users\Yiquing\AppData\Local\Temp\cc6uNvhJ.s 			page 17


 248:.\wiegand.c   **** 
 249:.\wiegand.c   **** int ReadF2F()
 250:.\wiegand.c   **** {
 651              		.loc 1 250 0
 652              		.cfi_startproc
 653              		@ args = 0, pretend = 0, frame = 24
 654              		@ frame_needed = 1, uses_anonymous_args = 0
 655 0000 B0B5     		push	{r4, r5, r7, lr}
 656              		.cfi_def_cfa_offset 16
 657              		.cfi_offset 4, -16
 658              		.cfi_offset 5, -12
 659              		.cfi_offset 7, -8
 660              		.cfi_offset 14, -4
 661 0002 86B0     		sub	sp, sp, #24
 662              		.cfi_def_cfa_offset 40
 663 0004 00AF     		add	r7, sp, #0
 664              		.cfi_def_cfa_register 7
 251:.\wiegand.c   ****     int bitCount = 1;
 665              		.loc 1 251 0
 666 0006 0123     		movs	r3, #1
 667 0008 7B61     		str	r3, [r7, #20]
 252:.\wiegand.c   ****     int byteCount=0;
 668              		.loc 1 252 0
 669 000a 0023     		movs	r3, #0
 670 000c 3B61     		str	r3, [r7, #16]
 253:.\wiegand.c   ****     int hp = 0;
 671              		.loc 1 253 0
 672 000e 0023     		movs	r3, #0
 673 0010 3B60     		str	r3, [r7]
 254:.\wiegand.c   **** //    int lp = 0;
 255:.\wiegand.c   ****     char nbit =0;
 674              		.loc 1 255 0
 675 0012 0023     		movs	r3, #0
 676 0014 FB73     		strb	r3, [r7, #15]
 256:.\wiegand.c   ****     got_pulse =0;
 677              		.loc 1 256 0
 678 0016 664B     		ldr	r3, .L69+8
 679 0018 0022     		movs	r2, #0
 680 001a 1A70     		strb	r2, [r3]
 257:.\wiegand.c   ****     timeout_cnt =0;
 681              		.loc 1 257 0
 682 001c 654B     		ldr	r3, .L69+12
 683 001e 0022     		movs	r2, #0
 684 0020 1A60     		str	r2, [r3]
 258:.\wiegand.c   ****     int i =0;
 685              		.loc 1 258 0
 686 0022 0023     		movs	r3, #0
 687 0024 BB60     		str	r3, [r7, #8]
 259:.\wiegand.c   ****     unsigned char started = 0;
 688              		.loc 1 259 0
 689 0026 0023     		movs	r3, #0
 690 0028 FB71     		strb	r3, [r7, #7]
 260:.\wiegand.c   ****     
 261:.\wiegand.c   ****     // enable ack line
 262:.\wiegand.c   ****     PS_D1_Write(0);
 691              		.loc 1 262 0
 692 002a 0020     		movs	r0, #0
ARM GAS  C:\Users\Yiquing\AppData\Local\Temp\cc6uNvhJ.s 			page 18


 693 002c FFF7FEFF 		bl	PS_D1_Write
 263:.\wiegand.c   **** 
 264:.\wiegand.c   ****     for(i =0; i < 20; i++)
 694              		.loc 1 264 0
 695 0030 0023     		movs	r3, #0
 696 0032 BB60     		str	r3, [r7, #8]
 697 0034 07E0     		b	.L54
 698              	.L55:
 265:.\wiegand.c   ****             MyI2C_Regs.buffer[i] = 0;
 699              		.loc 1 265 0 discriminator 2
 700 0036 604A     		ldr	r2, .L69+16
 701 0038 BB68     		ldr	r3, [r7, #8]
 702 003a 1344     		add	r3, r3, r2
 703 003c 0022     		movs	r2, #0
 704 003e 9A71     		strb	r2, [r3, #6]
 264:.\wiegand.c   ****     for(i =0; i < 20; i++)
 705              		.loc 1 264 0 discriminator 2
 706 0040 BB68     		ldr	r3, [r7, #8]
 707 0042 0133     		adds	r3, r3, #1
 708 0044 BB60     		str	r3, [r7, #8]
 709              	.L54:
 264:.\wiegand.c   ****     for(i =0; i < 20; i++)
 710              		.loc 1 264 0 is_stmt 0 discriminator 1
 711 0046 BB68     		ldr	r3, [r7, #8]
 712 0048 132B     		cmp	r3, #19
 713 004a F4DD     		ble	.L55
 266:.\wiegand.c   ****             
 267:.\wiegand.c   ****     hp = 0x11;
 714              		.loc 1 267 0 is_stmt 1
 715 004c 1123     		movs	r3, #17
 716 004e 3B60     		str	r3, [r7]
 268:.\wiegand.c   ****     
 269:.\wiegand.c   ****     while(byteCount <=  10 )
 717              		.loc 1 269 0
 718 0050 76E0     		b	.L56
 719              	.L64:
 270:.\wiegand.c   ****     {
 271:.\wiegand.c   ****         if(got_pulse)
 720              		.loc 1 271 0
 721 0052 574B     		ldr	r3, .L69+8
 722 0054 1B78     		ldrb	r3, [r3]	@ zero_extendqisi2
 723 0056 002B     		cmp	r3, #0
 724 0058 6DD0     		beq	.L57
 272:.\wiegand.c   ****         {
 273:.\wiegand.c   ****             got_pulse=0;
 725              		.loc 1 273 0
 726 005a 554B     		ldr	r3, .L69+8
 727 005c 0022     		movs	r2, #0
 728 005e 1A70     		strb	r2, [r3]
 274:.\wiegand.c   ****             
 275:.\wiegand.c   ****             if (bitCount > 7)
 729              		.loc 1 275 0
 730 0060 7B69     		ldr	r3, [r7, #20]
 731 0062 072B     		cmp	r3, #7
 732 0064 04DD     		ble	.L58
 276:.\wiegand.c   ****             {
 277:.\wiegand.c   ****                 bitCount = 0;
ARM GAS  C:\Users\Yiquing\AppData\Local\Temp\cc6uNvhJ.s 			page 19


 733              		.loc 1 277 0
 734 0066 0023     		movs	r3, #0
 735 0068 7B61     		str	r3, [r7, #20]
 278:.\wiegand.c   ****                 byteCount++;
 736              		.loc 1 278 0
 737 006a 3B69     		ldr	r3, [r7, #16]
 738 006c 0133     		adds	r3, r3, #1
 739 006e 3B61     		str	r3, [r7, #16]
 740              	.L58:
 279:.\wiegand.c   ****             }
 280:.\wiegand.c   ****             
 281:.\wiegand.c   ****             /* A pulse width of 1msec is considered a 0 && two pulse widths of 0.5 msec is consdier
 282:.\wiegand.c   ****                Timeout timer is configured to update timeoutcnt every 50 usecs      */
 283:.\wiegand.c   ****             if(f2f_pulsewidth >= (0.8*hp) && started == 1) {
 741              		.loc 1 283 0
 742 0070 524B     		ldr	r3, .L69+20
 743 0072 1B68     		ldr	r3, [r3]
 744 0074 1846     		mov	r0, r3
 745 0076 FFF7FEFF 		bl	__aeabi_i2d
 746 007a 0446     		mov	r4, r0
 747 007c 0D46     		mov	r5, r1
 748 007e 3868     		ldr	r0, [r7]
 749 0080 FFF7FEFF 		bl	__aeabi_i2d
 750 0084 0246     		mov	r2, r0
 751 0086 0B46     		mov	r3, r1
 752 0088 1046     		mov	r0, r2
 753 008a 1946     		mov	r1, r3
 754 008c 46A3     		adr	r3, .L69
 755 008e D3E90023 		ldrd	r2, [r3]
 756 0092 FFF7FEFF 		bl	__aeabi_dmul
 757 0096 0246     		mov	r2, r0
 758 0098 0B46     		mov	r3, r1
 759 009a 2046     		mov	r0, r4
 760 009c 2946     		mov	r1, r5
 761 009e FFF7FEFF 		bl	__aeabi_dcmpge
 762 00a2 0346     		mov	r3, r0
 763 00a4 002B     		cmp	r3, #0
 764 00a6 08D0     		beq	.L59
 765              		.loc 1 283 0 is_stmt 0 discriminator 1
 766 00a8 FB79     		ldrb	r3, [r7, #7]	@ zero_extendqisi2
 767 00aa 012B     		cmp	r3, #1
 768 00ac 05D1     		bne	.L59
 284:.\wiegand.c   ****                 nbit = 0;
 769              		.loc 1 284 0 is_stmt 1
 770 00ae 0023     		movs	r3, #0
 771 00b0 FB73     		strb	r3, [r7, #15]
 285:.\wiegand.c   ****                 bitCount++;
 772              		.loc 1 285 0
 773 00b2 7B69     		ldr	r3, [r7, #20]
 774 00b4 0133     		adds	r3, r3, #1
 775 00b6 7B61     		str	r3, [r7, #20]
 776 00b8 42E0     		b	.L56
 777              	.L59:
 286:.\wiegand.c   ****             }
 287:.\wiegand.c   ****             else  if( f2f_pulsewidth < (0.8*hp))
 778              		.loc 1 287 0
 779 00ba 404B     		ldr	r3, .L69+20
ARM GAS  C:\Users\Yiquing\AppData\Local\Temp\cc6uNvhJ.s 			page 20


 780 00bc 1B68     		ldr	r3, [r3]
 781 00be 1846     		mov	r0, r3
 782 00c0 FFF7FEFF 		bl	__aeabi_i2d
 783 00c4 0446     		mov	r4, r0
 784 00c6 0D46     		mov	r5, r1
 785 00c8 3868     		ldr	r0, [r7]
 786 00ca FFF7FEFF 		bl	__aeabi_i2d
 787 00ce 0246     		mov	r2, r0
 788 00d0 0B46     		mov	r3, r1
 789 00d2 1046     		mov	r0, r2
 790 00d4 1946     		mov	r1, r3
 791 00d6 34A3     		adr	r3, .L69
 792 00d8 D3E90023 		ldrd	r2, [r3]
 793 00dc FFF7FEFF 		bl	__aeabi_dmul
 794 00e0 0246     		mov	r2, r0
 795 00e2 0B46     		mov	r3, r1
 796 00e4 2046     		mov	r0, r4
 797 00e6 2946     		mov	r1, r5
 798 00e8 FFF7FEFF 		bl	__aeabi_dcmplt
 799 00ec 0346     		mov	r3, r0
 800 00ee 002B     		cmp	r3, #0
 801 00f0 00D1     		bne	.L68
 802 00f2 25E0     		b	.L56
 803              	.L68:
 288:.\wiegand.c   ****             {
 289:.\wiegand.c   ****                 nbit++;
 804              		.loc 1 289 0
 805 00f4 FB7B     		ldrb	r3, [r7, #15]	@ zero_extendqisi2
 806 00f6 0133     		adds	r3, r3, #1
 807 00f8 FB73     		strb	r3, [r7, #15]
 290:.\wiegand.c   ****                 if(nbit > 1)
 808              		.loc 1 290 0
 809 00fa FB7B     		ldrb	r3, [r7, #15]	@ zero_extendqisi2
 810 00fc 012B     		cmp	r3, #1
 811 00fe 1FD9     		bls	.L56
 291:.\wiegand.c   ****                 {
 292:.\wiegand.c   ****                   MyI2C_Regs.buffer[byteCount] |= (0x01 << (7-bitCount));   
 812              		.loc 1 292 0
 813 0100 2D4A     		ldr	r2, .L69+16
 814 0102 3B69     		ldr	r3, [r7, #16]
 815 0104 1344     		add	r3, r3, r2
 816 0106 9B79     		ldrb	r3, [r3, #6]	@ zero_extendqisi2
 817 0108 DAB2     		uxtb	r2, r3
 818 010a 7B69     		ldr	r3, [r7, #20]
 819 010c C3F10703 		rsb	r3, r3, #7
 820 0110 0121     		movs	r1, #1
 821 0112 01FA03F3 		lsl	r3, r1, r3
 822 0116 DBB2     		uxtb	r3, r3
 823 0118 1343     		orrs	r3, r3, r2
 824 011a DBB2     		uxtb	r3, r3
 825 011c DAB2     		uxtb	r2, r3
 826 011e 2649     		ldr	r1, .L69+16
 827 0120 3B69     		ldr	r3, [r7, #16]
 828 0122 0B44     		add	r3, r3, r1
 829 0124 9A71     		strb	r2, [r3, #6]
 293:.\wiegand.c   ****                   bitCount++;
 830              		.loc 1 293 0
ARM GAS  C:\Users\Yiquing\AppData\Local\Temp\cc6uNvhJ.s 			page 21


 831 0126 7B69     		ldr	r3, [r7, #20]
 832 0128 0133     		adds	r3, r3, #1
 833 012a 7B61     		str	r3, [r7, #20]
 294:.\wiegand.c   ****                   nbit = 0; 
 834              		.loc 1 294 0
 835 012c 0023     		movs	r3, #0
 836 012e FB73     		strb	r3, [r7, #15]
 295:.\wiegand.c   ****                   started = 1;
 837              		.loc 1 295 0
 838 0130 0123     		movs	r3, #1
 839 0132 FB71     		strb	r3, [r7, #7]
 840 0134 04E0     		b	.L56
 841              	.L57:
 296:.\wiegand.c   ****                 }
 297:.\wiegand.c   ****             } 
 298:.\wiegand.c   ****             
 299:.\wiegand.c   ****         }
 300:.\wiegand.c   ****         else 
 301:.\wiegand.c   **** //            if(byteCount > 0 && timeout_cnt > 0x40  )
 302:.\wiegand.c   ****             if(timeout_cnt > 0x40)
 842              		.loc 1 302 0
 843 0136 1F4B     		ldr	r3, .L69+12
 844 0138 1B68     		ldr	r3, [r3]
 845 013a 402B     		cmp	r3, #64
 846 013c 00DD     		ble	.L56
 303:.\wiegand.c   ****                 break;  //idle
 847              		.loc 1 303 0
 848 013e 02E0     		b	.L63
 849              	.L56:
 269:.\wiegand.c   ****     while(byteCount <=  10 )
 850              		.loc 1 269 0 discriminator 1
 851 0140 3B69     		ldr	r3, [r7, #16]
 852 0142 0A2B     		cmp	r3, #10
 853 0144 85DD     		ble	.L64
 854              	.L63:
 304:.\wiegand.c   ****             
 305:.\wiegand.c   ****     }
 306:.\wiegand.c   ****     
 307:.\wiegand.c   ****     Timeout_Timer_Stop();
 855              		.loc 1 307 0
 856 0146 FFF7FEFF 		bl	Timeout_Timer_Stop
 308:.\wiegand.c   ****     timeout_cnt =0;
 857              		.loc 1 308 0
 858 014a 1A4B     		ldr	r3, .L69+12
 859 014c 0022     		movs	r2, #0
 860 014e 1A60     		str	r2, [r3]
 309:.\wiegand.c   ****     f2f_pulsewidth = 0;
 861              		.loc 1 309 0
 862 0150 1A4B     		ldr	r3, .L69+20
 863 0152 0022     		movs	r2, #0
 864 0154 1A60     		str	r2, [r3]
 310:.\wiegand.c   ****     
 311:.\wiegand.c   **** //    for(i =0; i < 20; i++)  //debugging, yqh remove later
 312:.\wiegand.c   **** //            MyI2C_Regs.osdp_reader_buffer[i] = MyI2C_Regs.buffer[i];
 313:.\wiegand.c   **** 
 314:.\wiegand.c   ****     //start an acknowledgement to the F2F reader for the Supervision mode
 315:.\wiegand.c   ****     f2f_ack_delay_cnt = 0;
ARM GAS  C:\Users\Yiquing\AppData\Local\Temp\cc6uNvhJ.s 			page 22


 865              		.loc 1 315 0
 866 0156 1A4B     		ldr	r3, .L69+24
 867 0158 0022     		movs	r2, #0
 868 015a 1A70     		strb	r2, [r3]
 316:.\wiegand.c   ****     f2f_acknowledge_active = 1;
 869              		.loc 1 316 0
 870 015c 194B     		ldr	r3, .L69+28
 871 015e 0122     		movs	r2, #1
 872 0160 1A70     		strb	r2, [r3]
 317:.\wiegand.c   ****             
 318:.\wiegand.c   ****     if(byteCount < 9)
 873              		.loc 1 318 0
 874 0162 3B69     		ldr	r3, [r7, #16]
 875 0164 082B     		cmp	r3, #8
 876 0166 07DC     		bgt	.L65
 319:.\wiegand.c   ****     {
 320:.\wiegand.c   ****         MyI2C_Regs.data_length = 0;
 877              		.loc 1 320 0
 878 0168 134B     		ldr	r3, .L69+16
 879 016a 0022     		movs	r2, #0
 880 016c DA70     		strb	r2, [r3, #3]
 321:.\wiegand.c   ****         card_in_buf = 0;
 881              		.loc 1 321 0
 882 016e 164B     		ldr	r3, .L69+32
 883 0170 0022     		movs	r2, #0
 884 0172 1A60     		str	r2, [r3]
 322:.\wiegand.c   ****         return 0;
 885              		.loc 1 322 0
 886 0174 0023     		movs	r3, #0
 887 0176 10E0     		b	.L66
 888              	.L65:
 323:.\wiegand.c   ****     }
 324:.\wiegand.c   ****     else
 325:.\wiegand.c   ****     {
 326:.\wiegand.c   ****         MyI2C_Regs.data_length = 10;
 889              		.loc 1 326 0
 890 0178 0F4B     		ldr	r3, .L69+16
 891 017a 0A22     		movs	r2, #10
 892 017c DA70     		strb	r2, [r3, #3]
 327:.\wiegand.c   ****         MyI2C_Regs.cmd = 0;  
 893              		.loc 1 327 0
 894 017e 0E4B     		ldr	r3, .L69+16
 895 0180 0022     		movs	r2, #0
 896 0182 9A70     		strb	r2, [r3, #2]
 328:.\wiegand.c   ****         MyI2C_Regs.status |= STAT_CHANGE | STAT_CARD_IN ;
 897              		.loc 1 328 0
 898 0184 0C4B     		ldr	r3, .L69+16
 899 0186 1B78     		ldrb	r3, [r3]	@ zero_extendqisi2
 900 0188 43F00303 		orr	r3, r3, #3
 901 018c DAB2     		uxtb	r2, r3
 902 018e 0A4B     		ldr	r3, .L69+16
 903 0190 1A70     		strb	r2, [r3]
 329:.\wiegand.c   ****         card_in_buf = 1;
 904              		.loc 1 329 0
 905 0192 0D4B     		ldr	r3, .L69+32
 906 0194 0122     		movs	r2, #1
 907 0196 1A60     		str	r2, [r3]
ARM GAS  C:\Users\Yiquing\AppData\Local\Temp\cc6uNvhJ.s 			page 23


 330:.\wiegand.c   ****         return 1;
 908              		.loc 1 330 0
 909 0198 0123     		movs	r3, #1
 910              	.L66:
 331:.\wiegand.c   ****     }
 332:.\wiegand.c   ****    
 333:.\wiegand.c   **** }
 911              		.loc 1 333 0
 912 019a 1846     		mov	r0, r3
 913 019c 1837     		adds	r7, r7, #24
 914 019e BD46     		mov	sp, r7
 915              		@ sp needed
 916 01a0 B0BD     		pop	{r4, r5, r7, pc}
 917              	.L70:
 918 01a2 00BFAFF3 		.align	3
 918      0080
 919              	.L69:
 920 01a8 9A999999 		.word	-1717986918
 921 01ac 9999E93F 		.word	1072273817
 922 01b0 00000000 		.word	got_pulse
 923 01b4 00000000 		.word	timeout_cnt
 924 01b8 00000000 		.word	MyI2C_Regs
 925 01bc 00000000 		.word	f2f_pulsewidth
 926 01c0 00000000 		.word	f2f_ack_delay_cnt
 927 01c4 00000000 		.word	f2f_acknowledge_active
 928 01c8 00000000 		.word	card_in_buf
 929              		.cfi_endproc
 930              	.LFE66:
 931              		.size	ReadF2F, .-ReadF2F
 932 01cc AFF30080 		.text
 933              	.Letext0:
 934              		.file 2 "c:\\program files (x86)\\cypress\\psoc creator\\3.2\\psoc creator\\import\\gnu\\arm\\4.8.
 935              		.file 3 "c:\\program files (x86)\\cypress\\psoc creator\\3.2\\psoc creator\\import\\gnu\\arm\\4.8.
 936              		.file 4 "Generated_Source\\PSoC5/cytypes.h"
 937              		.file 5 ".\\softuart.h"
 938              		.file 6 ".\\system.h"
 939              		.file 7 "Generated_Source\\PSoC5/core_cm3.h"