ARM GAS  C:\Users\ilya\AppData\Local\Temp\cc0LO5vV.s 			page 1


   1              		.cpu cortex-m0
   2              		.fpu softvfp
   3              		.eabi_attribute 20, 1
   4              		.eabi_attribute 21, 1
   5              		.eabi_attribute 23, 3
   6              		.eabi_attribute 24, 1
   7              		.eabi_attribute 25, 1
   8              		.eabi_attribute 26, 1
   9              		.eabi_attribute 30, 6
  10              		.eabi_attribute 34, 0
  11              		.eabi_attribute 18, 4
  12              		.code	16
  13              		.file	"main.c"
  14              		.text
  15              	.Ltext0:
  16              		.cfi_sections	.debug_frame
  17              		.comm	set,27,4
  18              		.global	__aeabi_idiv
  19              		.section	.text.DoVLoop,"ax",%progbits
  20              		.align	2
  21              		.global	DoVLoop
  22              		.code	16
  23              		.thumb_func
  24              		.type	DoVLoop, %function
  25              	DoVLoop:
  26              	.LFB36:
  27              		.file 1 "main.c"
   1:main.c        **** /* ========================================
   2:main.c        ****  *
   3:main.c        ****  * Copyright YOUR COMPANY, THE YEAR
   4:main.c        ****  * All Rights Reserved
   5:main.c        ****  * UNPUBLISHED, LICENSED SOFTWARE.
   6:main.c        ****  *
   7:main.c        ****  * CONFIDENTIAL AND PROPRIETARY INFORMATION
   8:main.c        ****  * WHICH IS THE PROPERTY OF your company.
   9:main.c        ****  *
  10:main.c        ****  * ========================================
  11:main.c        **** */
  12:main.c        **** #include <project.h>
  13:main.c        **** 
  14:main.c        **** #define SET_V 40000
  15:main.c        **** #define MAX_DUTY 60
  16:main.c        **** //95
  17:main.c        **** 
  18:main.c        **** 
  19:main.c        **** #define I_TERM_DIV 2000 
  20:main.c        **** #define P_TERM_DIV 1000
  21:main.c        **** #define MAX_I_TERM ((MAX_DUTY-5)*I_TERM_DIV)
  22:main.c        **** 
  23:main.c        **** typedef struct
  24:main.c        **** {
  25:main.c        ****     unsigned char action;
  26:main.c        ****     unsigned char hv_enable;
  27:main.c        ****     unsigned char hv_volt;
  28:main.c        ****     unsigned char led_enable;
  29:main.c        ****     unsigned char trig_source;
  30:main.c        ****     unsigned char i_set;
ARM GAS  C:\Users\ilya\AppData\Local\Temp\cc0LO5vV.s 			page 2


  31:main.c        ****     unsigned char max_time;
  32:main.c        ****     unsigned char fill[20];
  33:main.c        ****     
  34:main.c        **** }SETTINGS;
  35:main.c        **** 
  36:main.c        **** 
  37:main.c        **** #define LED_LEFT 1
  38:main.c        **** #define LED_RIGHT 2
  39:main.c        **** #define LED_FACE  4
  40:main.c        **** 
  41:main.c        **** volatile SETTINGS set;
  42:main.c        **** void DoVLoop(int v_set)
  43:main.c        **** {
  28              		.loc 1 43 0
  29              		.cfi_startproc
  30 0000 90B5     		push	{r4, r7, lr}
  31              		.cfi_def_cfa_offset 12
  32              		.cfi_offset 4, -12
  33              		.cfi_offset 7, -8
  34              		.cfi_offset 14, -4
  35 0002 87B0     		sub	sp, sp, #28
  36              		.cfi_def_cfa_offset 40
  37 0004 00AF     		add	r7, sp, #0
  38              		.cfi_def_cfa_register 7
  39 0006 7860     		str	r0, [r7, #4]
  44:main.c        ****     int v;
  45:main.c        ****     int err;
  46:main.c        ****     static int i_term=0;
  47:main.c        ****     int set_val;
  48:main.c        ****     int val;
  49:main.c        **** 
  50:main.c        ****     // ADC_IsEndConversion(ADC_WAIT_FOR_RESULT);
  51:main.c        ****     val = ADC_GetResult16(0) ;
  40              		.loc 1 51 0
  41 0008 0020     		mov	r0, #0
  42 000a FFF7FEFF 		bl	ADC_GetResult16
  43 000e 031C     		mov	r3, r0
  44 0010 3B61     		str	r3, [r7, #16]
  52:main.c        ****     v = ADC_CountsTo_mVolts(0,val)*30;
  45              		.loc 1 52 0
  46 0012 3B69     		ldr	r3, [r7, #16]
  47 0014 9BB2     		uxth	r3, r3
  48 0016 1BB2     		sxth	r3, r3
  49 0018 0020     		mov	r0, #0
  50 001a 191C     		mov	r1, r3
  51 001c FFF7FEFF 		bl	ADC_CountsTo_mVolts
  52 0020 031C     		mov	r3, r0
  53 0022 1A1C     		mov	r2, r3
  54 0024 131C     		mov	r3, r2
  55 0026 1B01     		lsl	r3, r3, #4
  56 0028 9B1A     		sub	r3, r3, r2
  57 002a 5B00     		lsl	r3, r3, #1
  58 002c FB60     		str	r3, [r7, #12]
  53:main.c        ****     
  54:main.c        ****     // calculate the error in voltage
  55:main.c        ****     err = v_set - v;
  59              		.loc 1 55 0
ARM GAS  C:\Users\ilya\AppData\Local\Temp\cc0LO5vV.s 			page 3


  60 002e 7A68     		ldr	r2, [r7, #4]
  61 0030 FB68     		ldr	r3, [r7, #12]
  62 0032 D31A     		sub	r3, r2, r3
  63 0034 BB60     		str	r3, [r7, #8]
  56:main.c        ****     
  57:main.c        ****     // calculate the integral term
  58:main.c        ****     i_term = i_term+err;
  64              		.loc 1 58 0
  65 0036 1C4B     		ldr	r3, .L6
  66 0038 1A68     		ldr	r2, [r3]
  67 003a BB68     		ldr	r3, [r7, #8]
  68 003c D218     		add	r2, r2, r3
  69 003e 1A4B     		ldr	r3, .L6
  70 0040 1A60     		str	r2, [r3]
  59:main.c        ****     if (i_term>MAX_I_TERM)
  71              		.loc 1 59 0
  72 0042 194B     		ldr	r3, .L6
  73 0044 1B68     		ldr	r3, [r3]
  74 0046 194A     		ldr	r2, .L6+4
  75 0048 9342     		cmp	r3, r2
  76 004a 02DD     		ble	.L2
  60:main.c        ****        i_term = MAX_I_TERM;
  77              		.loc 1 60 0
  78 004c 164B     		ldr	r3, .L6
  79 004e 174A     		ldr	r2, .L6+4
  80 0050 1A60     		str	r2, [r3]
  81              	.L2:
  61:main.c        ****     if (i_term<0)
  82              		.loc 1 61 0
  83 0052 154B     		ldr	r3, .L6
  84 0054 1B68     		ldr	r3, [r3]
  85 0056 002B     		cmp	r3, #0
  86 0058 02DA     		bge	.L3
  62:main.c        ****       i_term=0;
  87              		.loc 1 62 0
  88 005a 134B     		ldr	r3, .L6
  89 005c 0022     		mov	r2, #0
  90 005e 1A60     		str	r2, [r3]
  91              	.L3:
  63:main.c        ****     
  64:main.c        ****     // calculate the value
  65:main.c        ****     set_val = i_term/I_TERM_DIV + err/P_TERM_DIV;
  92              		.loc 1 65 0
  93 0060 114B     		ldr	r3, .L6
  94 0062 1B68     		ldr	r3, [r3]
  95 0064 181C     		mov	r0, r3
  96 0066 FA23     		mov	r3, #250
  97 0068 D900     		lsl	r1, r3, #3
  98 006a FFF7FEFF 		bl	__aeabi_idiv
  99 006e 031C     		mov	r3, r0
 100 0070 1C1C     		mov	r4, r3
 101 0072 BB68     		ldr	r3, [r7, #8]
 102 0074 181C     		mov	r0, r3
 103 0076 FA23     		mov	r3, #250
 104 0078 9900     		lsl	r1, r3, #2
 105 007a FFF7FEFF 		bl	__aeabi_idiv
 106 007e 031C     		mov	r3, r0
ARM GAS  C:\Users\ilya\AppData\Local\Temp\cc0LO5vV.s 			page 4


 107 0080 E318     		add	r3, r4, r3
 108 0082 7B61     		str	r3, [r7, #20]
  66:main.c        ****     
  67:main.c        ****     if (set_val>MAX_DUTY)
 109              		.loc 1 67 0
 110 0084 7B69     		ldr	r3, [r7, #20]
 111 0086 3C2B     		cmp	r3, #60
 112 0088 01DD     		ble	.L4
  68:main.c        ****        set_val = MAX_DUTY;
 113              		.loc 1 68 0
 114 008a 3C23     		mov	r3, #60
 115 008c 7B61     		str	r3, [r7, #20]
 116              	.L4:
  69:main.c        ****     if (set_val<1)
 117              		.loc 1 69 0
 118 008e 7B69     		ldr	r3, [r7, #20]
 119 0090 002B     		cmp	r3, #0
 120 0092 01DC     		bgt	.L5
  70:main.c        ****         set_val=1;
 121              		.loc 1 70 0
 122 0094 0123     		mov	r3, #1
 123 0096 7B61     		str	r3, [r7, #20]
 124              	.L5:
  71:main.c        **** 
  72:main.c        ****     PWM_CHARGE_WriteCompare(set_val);
 125              		.loc 1 72 0
 126 0098 7B69     		ldr	r3, [r7, #20]
 127 009a 181C     		mov	r0, r3
 128 009c FFF7FEFF 		bl	PWM_CHARGE_WriteCompare
  73:main.c        **** }
 129              		.loc 1 73 0
 130 00a0 BD46     		mov	sp, r7
 131 00a2 07B0     		add	sp, sp, #28
 132              		@ sp needed
 133 00a4 90BD     		pop	{r4, r7, pc}
 134              	.L7:
 135 00a6 C046     		.align	2
 136              	.L6:
 137 00a8 08000000 		.word	i_term.5819
 138 00ac B0AD0100 		.word	110000
 139              		.cfi_endproc
 140              	.LFE36:
 141              		.size	DoVLoop, .-DoVLoop
 142              		.comm	comBuff,32,4
 143              		.global	t_count
 144              		.bss
 145              		.align	2
 146              		.type	t_count, %object
 147              		.size	t_count, 4
 148              	t_count:
 149 0000 00000000 		.space	4
 150              		.global	tick
 151              		.type	tick, %object
 152              		.size	tick, 1
 153              	tick:
 154 0004 00       		.space	1
 155              		.section	.text.isr_MYTIMER_Interrupt,"ax",%progbits
ARM GAS  C:\Users\ilya\AppData\Local\Temp\cc0LO5vV.s 			page 5


 156              		.align	2
 157              		.global	isr_MYTIMER_Interrupt
 158              		.code	16
 159              		.thumb_func
 160              		.type	isr_MYTIMER_Interrupt, %function
 161              	isr_MYTIMER_Interrupt:
 162              	.LFB37:
  74:main.c        **** 
  75:main.c        **** 
  76:main.c        **** #define UA_PER_BIT 2.4
  77:main.c        **** #define VI_RESISTOR 1000.0
  78:main.c        **** #define CS_RESISTOR 0.2
  79:main.c        **** 
  80:main.c        **** #define V_PER_BIT UA_PER_BIT*VI_RESISTOR/1000000.0
  81:main.c        **** #define DAC_I(i) ((float)i*CS_RESISTOR)/(V_PER_BIT)/10
  82:main.c        **** 
  83:main.c        **** 
  84:main.c        **** volatile uint8 comBuff[32];
  85:main.c        **** 
  86:main.c        **** int t_count=0;
  87:main.c        **** volatile uint8_t tick =0;
  88:main.c        **** CY_ISR(isr_MYTIMER_Interrupt)
  89:main.c        **** {
 163              		.loc 1 89 0
 164              		.cfi_startproc
 165 0000 80B5     		push	{r7, lr}
 166              		.cfi_def_cfa_offset 8
 167              		.cfi_offset 7, -8
 168              		.cfi_offset 14, -4
 169 0002 00AF     		add	r7, sp, #0
 170              		.cfi_def_cfa_register 7
  90:main.c        ****     TIMER_ClearInterrupt(TIMER_INTR_MASK_TC);
 171              		.loc 1 90 0
 172 0004 0120     		mov	r0, #1
 173 0006 FFF7FEFF 		bl	TIMER_ClearInterrupt
  91:main.c        ****     tick=1;
 174              		.loc 1 91 0
 175 000a 0E4B     		ldr	r3, .L11
 176 000c 0122     		mov	r2, #1
 177 000e 1A70     		strb	r2, [r3]
  92:main.c        ****     t_count++;
 178              		.loc 1 92 0
 179 0010 0D4B     		ldr	r3, .L11+4
 180 0012 1B68     		ldr	r3, [r3]
 181 0014 5A1C     		add	r2, r3, #1
 182 0016 0C4B     		ldr	r3, .L11+4
 183 0018 1A60     		str	r2, [r3]
  93:main.c        ****               if (set.hv_enable)
 184              		.loc 1 93 0
 185 001a 0C4B     		ldr	r3, .L11+8
 186 001c 5B78     		ldrb	r3, [r3, #1]
 187 001e DBB2     		uxtb	r3, r3
 188 0020 002B     		cmp	r3, #0
 189 0022 0AD0     		beq	.L9
  94:main.c        ****            DoVLoop(set.hv_volt*1000);
 190              		.loc 1 94 0
 191 0024 094B     		ldr	r3, .L11+8
ARM GAS  C:\Users\ilya\AppData\Local\Temp\cc0LO5vV.s 			page 6


 192 0026 9B78     		ldrb	r3, [r3, #2]
 193 0028 DBB2     		uxtb	r3, r3
 194 002a 1A1C     		mov	r2, r3
 195 002c FA23     		mov	r3, #250
 196 002e 9B00     		lsl	r3, r3, #2
 197 0030 5343     		mul	r3, r2
 198 0032 181C     		mov	r0, r3
 199 0034 FFF7FEFF 		bl	DoVLoop
 200 0038 02E0     		b	.L8
 201              	.L9:
  95:main.c        ****          else
  96:main.c        ****            PWM_CHARGE_WriteCompare(0);
 202              		.loc 1 96 0
 203 003a 0020     		mov	r0, #0
 204 003c FFF7FEFF 		bl	PWM_CHARGE_WriteCompare
 205              	.L8:
  97:main.c        **** }
 206              		.loc 1 97 0
 207 0040 BD46     		mov	sp, r7
 208              		@ sp needed
 209 0042 80BD     		pop	{r7, pc}
 210              	.L12:
 211              		.align	2
 212              	.L11:
 213 0044 00000000 		.word	tick
 214 0048 00000000 		.word	t_count
 215 004c 00000000 		.word	set
 216              		.cfi_endproc
 217              	.LFE37:
 218              		.size	isr_MYTIMER_Interrupt, .-isr_MYTIMER_Interrupt
 219              		.section	.text.GetTrig,"ax",%progbits
 220              		.align	2
 221              		.global	GetTrig
 222              		.code	16
 223              		.thumb_func
 224              		.type	GetTrig, %function
 225              	GetTrig:
 226              	.LFB38:
  98:main.c        **** 
  99:main.c        **** 
 100:main.c        **** 
 101:main.c        **** // opamp 2 is the right one
 102:main.c        **** 
 103:main.c        **** 
 104:main.c        **** uint8 GetTrig(void)
 105:main.c        **** {
 227              		.loc 1 105 0
 228              		.cfi_startproc
 229 0000 80B5     		push	{r7, lr}
 230              		.cfi_def_cfa_offset 8
 231              		.cfi_offset 7, -8
 232              		.cfi_offset 14, -4
 233 0002 00AF     		add	r7, sp, #0
 234              		.cfi_def_cfa_register 7
 106:main.c        ****        if (
 107:main.c        ****             (set.trig_source&LED_FACE && TRIG_FACE_Read()) ||
 235              		.loc 1 107 0
ARM GAS  C:\Users\ilya\AppData\Local\Temp\cc0LO5vV.s 			page 7


 236 0004 134B     		ldr	r3, .L19
 237 0006 1B79     		ldrb	r3, [r3, #4]
 238 0008 DBB2     		uxtb	r3, r3
 239 000a 1A1C     		mov	r2, r3
 240 000c 0423     		mov	r3, #4
 241 000e 1340     		and	r3, r2
 106:main.c        ****        if (
 242              		.loc 1 106 0
 243 0010 03D0     		beq	.L14
 244              		.loc 1 107 0
 245 0012 FFF7FEFF 		bl	TRIG_FACE_Read
 246 0016 031E     		sub	r3, r0, #0
 247 0018 15D1     		bne	.L15
 248              	.L14:
 108:main.c        ****             (set.trig_source&LED_RIGHT && TRIG_RIGHT_Read()) ||
 249              		.loc 1 108 0 discriminator 1
 250 001a 0E4B     		ldr	r3, .L19
 251 001c 1B79     		ldrb	r3, [r3, #4]
 252 001e DBB2     		uxtb	r3, r3
 253 0020 1A1C     		mov	r2, r3
 254 0022 0223     		mov	r3, #2
 255 0024 1340     		and	r3, r2
 107:main.c        ****             (set.trig_source&LED_RIGHT && TRIG_RIGHT_Read()) ||
 256              		.loc 1 107 0 discriminator 1
 257 0026 03D0     		beq	.L16
 258              		.loc 1 108 0
 259 0028 FFF7FEFF 		bl	TRIG_RIGHT_Read
 260 002c 031E     		sub	r3, r0, #0
 261 002e 0AD1     		bne	.L15
 262              	.L16:
 109:main.c        ****             (set.trig_source&LED_LEFT && TRIG_LEFT_Read())  
 263              		.loc 1 109 0 discriminator 1
 264 0030 084B     		ldr	r3, .L19
 265 0032 1B79     		ldrb	r3, [r3, #4]
 266 0034 DBB2     		uxtb	r3, r3
 267 0036 1A1C     		mov	r2, r3
 268 0038 0123     		mov	r3, #1
 269 003a 1340     		and	r3, r2
 108:main.c        ****             (set.trig_source&LED_RIGHT && TRIG_RIGHT_Read()) ||
 270              		.loc 1 108 0 discriminator 1
 271 003c 05D0     		beq	.L17
 272              		.loc 1 109 0
 273 003e FFF7FEFF 		bl	TRIG_LEFT_Read
 274 0042 031E     		sub	r3, r0, #0
 275 0044 01D0     		beq	.L17
 276              	.L15:
 110:main.c        ****           )
 111:main.c        ****         return 1;
 277              		.loc 1 111 0
 278 0046 0123     		mov	r3, #1
 279 0048 00E0     		b	.L18
 280              	.L17:
 112:main.c        ****     else
 113:main.c        ****        return 0;
 281              		.loc 1 113 0
 282 004a 0023     		mov	r3, #0
 283              	.L18:
ARM GAS  C:\Users\ilya\AppData\Local\Temp\cc0LO5vV.s 			page 8


 114:main.c        ****  }
 284              		.loc 1 114 0
 285 004c 181C     		mov	r0, r3
 286 004e BD46     		mov	sp, r7
 287              		@ sp needed
 288 0050 80BD     		pop	{r7, pc}
 289              	.L20:
 290 0052 C046     		.align	2
 291              	.L19:
 292 0054 00000000 		.word	set
 293              		.cfi_endproc
 294              	.LFE38:
 295              		.size	GetTrig, .-GetTrig
 296              		.section	.text.DriveLeft,"ax",%progbits
 297              		.align	2
 298              		.global	DriveLeft
 299              		.code	16
 300              		.thumb_func
 301              		.type	DriveLeft, %function
 302              	DriveLeft:
 303              	.LFB39:
 115:main.c        **** 
 116:main.c        **** void Init_bb_i2c(uint8 *space);
 117:main.c        **** void DriveLeft(uint8 on)
 118:main.c        **** {
 304              		.loc 1 118 0
 305              		.cfi_startproc
 306 0000 80B5     		push	{r7, lr}
 307              		.cfi_def_cfa_offset 8
 308              		.cfi_offset 7, -8
 309              		.cfi_offset 14, -4
 310 0002 82B0     		sub	sp, sp, #8
 311              		.cfi_def_cfa_offset 16
 312 0004 00AF     		add	r7, sp, #0
 313              		.cfi_def_cfa_register 7
 314 0006 021C     		mov	r2, r0
 315 0008 FB1D     		add	r3, r7, #7
 316 000a 1A70     		strb	r2, [r3]
 119:main.c        ****     if (on)
 317              		.loc 1 119 0
 318 000c FB1D     		add	r3, r7, #7
 319 000e 1B78     		ldrb	r3, [r3]
 320 0010 002B     		cmp	r3, #0
 321 0012 05D0     		beq	.L22
 120:main.c        ****       {
 121:main.c        ****       VREF_A_SetDriveMode(VREF_A_DM_ALG_HIZ);
 322              		.loc 1 121 0
 323 0014 0020     		mov	r0, #0
 324 0016 FFF7FEFF 		bl	VREF_A_SetDriveMode
 122:main.c        ****       Opamp_1_Start();
 325              		.loc 1 122 0
 326 001a FFF7FEFF 		bl	Opamp_1_Start
 327 001e 04E0     		b	.L21
 328              	.L22:
 123:main.c        ****      }
 124:main.c        ****     else
 125:main.c        ****     {
ARM GAS  C:\Users\ilya\AppData\Local\Temp\cc0LO5vV.s 			page 9


 126:main.c        ****       VREF_A_SetDriveMode(VREF_A_DM_STRONG);
 329              		.loc 1 126 0
 330 0020 0620     		mov	r0, #6
 331 0022 FFF7FEFF 		bl	VREF_A_SetDriveMode
 127:main.c        ****       Opamp_1_Stop();
 332              		.loc 1 127 0
 333 0026 FFF7FEFF 		bl	Opamp_1_Stop
 334              	.L21:
 128:main.c        ****     }
 129:main.c        **** }
 335              		.loc 1 129 0
 336 002a BD46     		mov	sp, r7
 337 002c 02B0     		add	sp, sp, #8
 338              		@ sp needed
 339 002e 80BD     		pop	{r7, pc}
 340              		.cfi_endproc
 341              	.LFE39:
 342              		.size	DriveLeft, .-DriveLeft
 343              		.section	.text.DriveRight,"ax",%progbits
 344              		.align	2
 345              		.global	DriveRight
 346              		.code	16
 347              		.thumb_func
 348              		.type	DriveRight, %function
 349              	DriveRight:
 350              	.LFB40:
 130:main.c        **** void DriveRight(uint8 on)
 131:main.c        **** {
 351              		.loc 1 131 0
 352              		.cfi_startproc
 353 0000 80B5     		push	{r7, lr}
 354              		.cfi_def_cfa_offset 8
 355              		.cfi_offset 7, -8
 356              		.cfi_offset 14, -4
 357 0002 82B0     		sub	sp, sp, #8
 358              		.cfi_def_cfa_offset 16
 359 0004 00AF     		add	r7, sp, #0
 360              		.cfi_def_cfa_register 7
 361 0006 021C     		mov	r2, r0
 362 0008 FB1D     		add	r3, r7, #7
 363 000a 1A70     		strb	r2, [r3]
 132:main.c        ****     if (on)
 364              		.loc 1 132 0
 365 000c FB1D     		add	r3, r7, #7
 366 000e 1B78     		ldrb	r3, [r3]
 367 0010 002B     		cmp	r3, #0
 368 0012 05D0     		beq	.L25
 133:main.c        ****       {
 134:main.c        ****       VREF_B_SetDriveMode(VREF_B_DM_ALG_HIZ);
 369              		.loc 1 134 0
 370 0014 0020     		mov	r0, #0
 371 0016 FFF7FEFF 		bl	VREF_B_SetDriveMode
 135:main.c        ****       Opamp_2_Start();
 372              		.loc 1 135 0
 373 001a FFF7FEFF 		bl	Opamp_2_Start
 374 001e 04E0     		b	.L24
 375              	.L25:
ARM GAS  C:\Users\ilya\AppData\Local\Temp\cc0LO5vV.s 			page 10


 136:main.c        ****      }
 137:main.c        ****     else
 138:main.c        ****     {
 139:main.c        ****       VREF_B_SetDriveMode(VREF_B_DM_STRONG);
 376              		.loc 1 139 0
 377 0020 0620     		mov	r0, #6
 378 0022 FFF7FEFF 		bl	VREF_B_SetDriveMode
 140:main.c        ****       Opamp_2_Stop();
 379              		.loc 1 140 0
 380 0026 FFF7FEFF 		bl	Opamp_2_Stop
 381              	.L24:
 141:main.c        ****     }
 142:main.c        **** }
 382              		.loc 1 142 0
 383 002a BD46     		mov	sp, r7
 384 002c 02B0     		add	sp, sp, #8
 385              		@ sp needed
 386 002e 80BD     		pop	{r7, pc}
 387              		.cfi_endproc
 388              	.LFE40:
 389              		.size	DriveRight, .-DriveRight
 390              		.global	__aeabi_ui2f
 391              		.global	__aeabi_f2d
 392              		.global	__aeabi_dmul
 393              		.global	__aeabi_ddiv
 394              		.global	__aeabi_d2uiz
 395              		.section	.text.main,"ax",%progbits
 396              		.align	2
 397              		.global	main
 398              		.code	16
 399              		.thumb_func
 400              		.type	main, %function
 401              	main:
 402              	.LFB41:
 143:main.c        **** int main()
 144:main.c        **** {
 403              		.loc 1 144 0
 404              		.cfi_startproc
 405 0000 90B5     		push	{r4, r7, lr}
 406              		.cfi_def_cfa_offset 12
 407              		.cfi_offset 4, -12
 408              		.cfi_offset 7, -8
 409              		.cfi_offset 14, -4
 410 0002 85B0     		sub	sp, sp, #20
 411              		.cfi_def_cfa_offset 32
 412 0004 00AF     		add	r7, sp, #0
 413              		.cfi_def_cfa_register 7
 145:main.c        ****     CyGlobalIntEnable; /* Enable global interrupts. */
 414              		.loc 1 145 0
 415              	@ 145 "main.c" 1
 416 0006 62B6     		CPSIE   i
 417              	@ 0 "" 2
 146:main.c        ****     int x;
 147:main.c        ****     int16 val;
 148:main.c        ****     int v;
 149:main.c        ****     int err;
 150:main.c        ****     int i_term=0;
ARM GAS  C:\Users\ilya\AppData\Local\Temp\cc0LO5vV.s 			page 11


 418              		.loc 1 150 0
 419              		.code	16
 420 0008 0023     		mov	r3, #0
 421 000a 7B60     		str	r3, [r7, #4]
 151:main.c        ****     int set_val;
 152:main.c        ****     int z;
 153:main.c        ****     
 154:main.c        ****     
 155:main.c        ****     PWM_CHARGE_Start();
 422              		.loc 1 155 0
 423 000c FFF7FEFF 		bl	PWM_CHARGE_Start
 156:main.c        ****     IDAC_1_Start();
 424              		.loc 1 156 0
 425 0010 FFF7FEFF 		bl	IDAC_1_Start
 157:main.c        **** 
 158:main.c        ****     ADC_Start();
 426              		.loc 1 158 0
 427 0014 FFF7FEFF 		bl	ADC_Start
 159:main.c        ****     ADC_StartConvert();
 428              		.loc 1 159 0
 429 0018 FFF7FEFF 		bl	ADC_StartConvert
 160:main.c        ****     z = DAC_I(4.0);
 430              		.loc 1 160 0
 431 001c 2123     		mov	r3, #33
 432 001e BB60     		str	r3, [r7, #8]
 161:main.c        ****     
 162:main.c        ****     
 163:main.c        ****     // initial settings
 164:main.c        ****     
 165:main.c        ****     set.hv_enable=0;
 433              		.loc 1 165 0
 434 0020 744B     		ldr	r3, .L41
 435 0022 0022     		mov	r2, #0
 436 0024 5A70     		strb	r2, [r3, #1]
 166:main.c        ****     set.hv_volt=16;
 437              		.loc 1 166 0
 438 0026 734B     		ldr	r3, .L41
 439 0028 1022     		mov	r2, #16
 440 002a 9A70     		strb	r2, [r3, #2]
 167:main.c        ****     set.max_time=5;
 441              		.loc 1 167 0
 442 002c 714B     		ldr	r3, .L41
 443 002e 0522     		mov	r2, #5
 444 0030 9A71     		strb	r2, [r3, #6]
 168:main.c        ****     set.led_enable=LED_LEFT;
 445              		.loc 1 168 0
 446 0032 704B     		ldr	r3, .L41
 447 0034 0122     		mov	r2, #1
 448 0036 DA70     		strb	r2, [r3, #3]
 169:main.c        ****     set.trig_source=LED_LEFT;
 449              		.loc 1 169 0
 450 0038 6E4B     		ldr	r3, .L41
 451 003a 0122     		mov	r2, #1
 452 003c 1A71     		strb	r2, [r3, #4]
 170:main.c        ****     set.i_set=4;
 453              		.loc 1 170 0
 454 003e 6D4B     		ldr	r3, .L41
ARM GAS  C:\Users\ilya\AppData\Local\Temp\cc0LO5vV.s 			page 12


 455 0040 0422     		mov	r2, #4
 456 0042 5A71     		strb	r2, [r3, #5]
 171:main.c        ****     z=10;
 457              		.loc 1 171 0
 458 0044 0A23     		mov	r3, #10
 459 0046 BB60     		str	r3, [r7, #8]
 172:main.c        ****     Opamp_1_Start();
 460              		.loc 1 172 0
 461 0048 FFF7FEFF 		bl	Opamp_1_Start
 173:main.c        ****     IDAC_1_SetValue(200);
 462              		.loc 1 173 0
 463 004c C820     		mov	r0, #200
 464 004e FFF7FEFF 		bl	IDAC_1_SetValue
 174:main.c        ****     
 175:main.c        ****     VREF_A_SetDriveMode(VREF_A_DM_STRONG);
 465              		.loc 1 175 0
 466 0052 0620     		mov	r0, #6
 467 0054 FFF7FEFF 		bl	VREF_A_SetDriveMode
 176:main.c        ****     VREF_B_SetDriveMode(VREF_B_DM_STRONG);
 468              		.loc 1 176 0
 469 0058 0620     		mov	r0, #6
 470 005a FFF7FEFF 		bl	VREF_B_SetDriveMode
 177:main.c        ****     z=DAC_I(4);
 471              		.loc 1 177 0
 472 005e 2123     		mov	r3, #33
 473 0060 BB60     		str	r3, [r7, #8]
 178:main.c        ****     IDAC_1_SetValue(z);
 474              		.loc 1 178 0
 475 0062 BB68     		ldr	r3, [r7, #8]
 476 0064 181C     		mov	r0, r3
 477 0066 FFF7FEFF 		bl	IDAC_1_SetValue
 179:main.c        **** 
 180:main.c        ****   
 181:main.c        **** 
 182:main.c        ****     
 183:main.c        ****     /* Place your initialization/startup code here (e.g. MyInst_Start()) */
 184:main.c        ****     DriveLeft(0);
 478              		.loc 1 184 0
 479 006a 0020     		mov	r0, #0
 480 006c FFF7FEFF 		bl	DriveLeft
 185:main.c        ****     DriveRight(0);
 481              		.loc 1 185 0
 482 0070 0020     		mov	r0, #0
 483 0072 FFF7FEFF 		bl	DriveRight
 186:main.c        ****    
 187:main.c        ****     ADC_Start();
 484              		.loc 1 187 0
 485 0076 FFF7FEFF 		bl	ADC_Start
 188:main.c        ****     TIMER_Start();
 486              		.loc 1 188 0
 487 007a FFF7FEFF 		bl	TIMER_Start
 189:main.c        ****     isr_TIMER_Start();
 488              		.loc 1 189 0
 489 007e FFF7FEFF 		bl	isr_TIMER_Start
 190:main.c        ****     isr_TIMER_SetVector(isr_MYTIMER_Interrupt);
 490              		.loc 1 190 0
 491 0082 5D4B     		ldr	r3, .L41+4
ARM GAS  C:\Users\ilya\AppData\Local\Temp\cc0LO5vV.s 			page 13


 492 0084 181C     		mov	r0, r3
 493 0086 FFF7FEFF 		bl	isr_TIMER_SetVector
 191:main.c        ****     
 192:main.c        ****     for (z=0;z< 32;z++)
 494              		.loc 1 192 0
 495 008a 0023     		mov	r3, #0
 496 008c BB60     		str	r3, [r7, #8]
 497 008e 0CE0     		b	.L28
 498              	.L29:
 193:main.c        ****      comBuff[z]=z*2+10;
 499              		.loc 1 193 0 discriminator 3
 500 0090 BB68     		ldr	r3, [r7, #8]
 501 0092 0533     		add	r3, r3, #5
 502 0094 DBB2     		uxtb	r3, r3
 503 0096 DB18     		add	r3, r3, r3
 504 0098 D9B2     		uxtb	r1, r3
 505 009a 584A     		ldr	r2, .L41+8
 506 009c BB68     		ldr	r3, [r7, #8]
 507 009e D318     		add	r3, r2, r3
 508 00a0 0A1C     		add	r2, r1, #0
 509 00a2 1A70     		strb	r2, [r3]
 192:main.c        ****      comBuff[z]=z*2+10;
 510              		.loc 1 192 0 discriminator 3
 511 00a4 BB68     		ldr	r3, [r7, #8]
 512 00a6 0133     		add	r3, r3, #1
 513 00a8 BB60     		str	r3, [r7, #8]
 514              	.L28:
 192:main.c        ****      comBuff[z]=z*2+10;
 515              		.loc 1 192 0 is_stmt 0 discriminator 1
 516 00aa BB68     		ldr	r3, [r7, #8]
 517 00ac 1F2B     		cmp	r3, #31
 518 00ae EFDD     		ble	.L29
 194:main.c        ****     
 195:main.c        ****     //EZI2C_EzI2CSetBuffer1(32, 16, &set.action);
 196:main.c        ****     //EZI2C_Start();
 197:main.c        ****     //EZI2C_EzI2CSetBuffer1(32, 16, &set.action);
 198:main.c        ****      isr_bbi2c_Start();
 519              		.loc 1 198 0 is_stmt 1
 520 00b0 FFF7FEFF 		bl	isr_bbi2c_Start
 199:main.c        ****     isr_bbi2c_Enable();
 521              		.loc 1 199 0
 522 00b4 FFF7FEFF 		bl	isr_bbi2c_Enable
 200:main.c        **** //    IDAC8_1_Start();
 201:main.c        ****  
 202:main.c        ****     OLD_SDA_Write(1);
 523              		.loc 1 202 0
 524 00b8 0120     		mov	r0, #1
 525 00ba FFF7FEFF 		bl	OLD_SDA_Write
 203:main.c        ****     Init_bb_i2c((uint8 *)&set.action);
 526              		.loc 1 203 0
 527 00be 4D4B     		ldr	r3, .L41
 528 00c0 181C     		mov	r0, r3
 529 00c2 FFF7FEFF 		bl	Init_bb_i2c
 204:main.c        ****     while(0)
 530              		.loc 1 204 0
 531 00c6 C046     		mov	r8, r8
 532              	.L40:
ARM GAS  C:\Users\ilya\AppData\Local\Temp\cc0LO5vV.s 			page 14


 205:main.c        ****     {
 206:main.c        ****     CyDelayUs(60000);   
 207:main.c        ****     CyDelayUs(60000);
 208:main.c        ****     DriveLeft(1);
 209:main.c        ****     CyDelayUs(4000);  
 210:main.c        ****     DriveLeft(0);
 211:main.c        ****     CyDelayUs(60000);   
 212:main.c        ****     CyDelayUs(60000);
 213:main.c        ****     DriveRight(1);
 214:main.c        ****     CyDelayUs(4000);  
 215:main.c        ****     DriveRight(0);
 216:main.c        ****     }
 217:main.c        ****     for(;;)
 218:main.c        ****     {
 219:main.c        ****         /* Place your application code here. */
 220:main.c        ****         if (tick)
 533              		.loc 1 220 0
 534 00c8 4D4B     		ldr	r3, .L41+12
 535 00ca 1B78     		ldrb	r3, [r3]
 536 00cc DBB2     		uxtb	r3, r3
 537 00ce 002B     		cmp	r3, #0
 538 00d0 02D0     		beq	.L30
 221:main.c        ****          {
 222:main.c        ****           tick=0;
 539              		.loc 1 222 0
 540 00d2 4B4B     		ldr	r3, .L41+12
 541 00d4 0022     		mov	r2, #0
 542 00d6 1A70     		strb	r2, [r3]
 543              	.L30:
 223:main.c        ****         }
 224:main.c        ****         if (GetTrig())
 544              		.loc 1 224 0
 545 00d8 FFF7FEFF 		bl	GetTrig
 546 00dc 031E     		sub	r3, r0, #0
 547 00de 00D1     		bne	.LCB430
 548 00e0 87E0     		b	.L31	@long jump
 549              	.LCB430:
 225:main.c        ****             {           
 226:main.c        ****             IDAC_1_SetValue(DAC_I((float)set.i_set));
 550              		.loc 1 226 0
 551 00e2 444B     		ldr	r3, .L41
 552 00e4 5B79     		ldrb	r3, [r3, #5]
 553 00e6 DBB2     		uxtb	r3, r3
 554 00e8 181C     		mov	r0, r3
 555 00ea FFF7FEFF 		bl	__aeabi_ui2f
 556 00ee 031C     		add	r3, r0, #0
 557 00f0 181C     		add	r0, r3, #0
 558 00f2 FFF7FEFF 		bl	__aeabi_f2d
 559 00f6 031C     		mov	r3, r0
 560 00f8 0C1C     		mov	r4, r1
 561 00fa 181C     		mov	r0, r3
 562 00fc 211C     		mov	r1, r4
 563 00fe 414A     		ldr	r2, .L41+16
 564 0100 414B     		ldr	r3, .L41+20
 565 0102 FFF7FEFF 		bl	__aeabi_dmul
 566 0106 031C     		mov	r3, r0
 567 0108 0C1C     		mov	r4, r1
ARM GAS  C:\Users\ilya\AppData\Local\Temp\cc0LO5vV.s 			page 15


 568 010a 181C     		mov	r0, r3
 569 010c 211C     		mov	r1, r4
 570 010e 3F4A     		ldr	r2, .L41+24
 571 0110 3F4B     		ldr	r3, .L41+28
 572 0112 FFF7FEFF 		bl	__aeabi_ddiv
 573 0116 031C     		mov	r3, r0
 574 0118 0C1C     		mov	r4, r1
 575 011a 181C     		mov	r0, r3
 576 011c 211C     		mov	r1, r4
 577 011e 0022     		mov	r2, #0
 578 0120 3C4B     		ldr	r3, .L41+32
 579 0122 FFF7FEFF 		bl	__aeabi_ddiv
 580 0126 031C     		mov	r3, r0
 581 0128 0C1C     		mov	r4, r1
 582 012a 181C     		mov	r0, r3
 583 012c 211C     		mov	r1, r4
 584 012e FFF7FEFF 		bl	__aeabi_d2uiz
 585 0132 031C     		mov	r3, r0
 586 0134 181C     		mov	r0, r3
 587 0136 FFF7FEFF 		bl	IDAC_1_SetValue
 227:main.c        ****  
 228:main.c        ****             if (set.led_enable&LED_LEFT)
 588              		.loc 1 228 0
 589 013a 2E4B     		ldr	r3, .L41
 590 013c DB78     		ldrb	r3, [r3, #3]
 591 013e DBB2     		uxtb	r3, r3
 592 0140 1A1C     		mov	r2, r3
 593 0142 0123     		mov	r3, #1
 594 0144 1340     		and	r3, r2
 595 0146 02D0     		beq	.L32
 229:main.c        ****                 DriveLeft(1);
 596              		.loc 1 229 0
 597 0148 0120     		mov	r0, #1
 598 014a FFF7FEFF 		bl	DriveLeft
 599              	.L32:
 230:main.c        ****             if (set.led_enable&LED_RIGHT)
 600              		.loc 1 230 0
 601 014e 294B     		ldr	r3, .L41
 602 0150 DB78     		ldrb	r3, [r3, #3]
 603 0152 DBB2     		uxtb	r3, r3
 604 0154 1A1C     		mov	r2, r3
 605 0156 0223     		mov	r3, #2
 606 0158 1340     		and	r3, r2
 607 015a 02D0     		beq	.L33
 231:main.c        ****                 DriveRight(1);
 608              		.loc 1 231 0
 609 015c 0120     		mov	r0, #1
 610 015e FFF7FEFF 		bl	DriveRight
 611              	.L33:
 232:main.c        ****             
 233:main.c        ****             if (set.led_enable&LED_FACE)
 612              		.loc 1 233 0
 613 0162 244B     		ldr	r3, .L41
 614 0164 DB78     		ldrb	r3, [r3, #3]
 615 0166 DBB2     		uxtb	r3, r3
 616 0168 1A1C     		mov	r2, r3
 617 016a 0423     		mov	r3, #4
ARM GAS  C:\Users\ilya\AppData\Local\Temp\cc0LO5vV.s 			page 16


 618 016c 1340     		and	r3, r2
 619 016e 01D0     		beq	.L34
 234:main.c        ****                 Opamp_FACE_Start();
 620              		.loc 1 234 0
 621 0170 FFF7FEFF 		bl	Opamp_FACE_Start
 622              	.L34:
 235:main.c        ****             for (x=0;x<set.max_time*100;x++)
 623              		.loc 1 235 0
 624 0174 0023     		mov	r3, #0
 625 0176 FB60     		str	r3, [r7, #12]
 626 0178 07E0     		b	.L35
 627              	.L38:
 236:main.c        ****                 if (GetTrig()==0)
 628              		.loc 1 236 0
 629 017a FFF7FEFF 		bl	GetTrig
 630 017e 031E     		sub	r3, r0, #0
 631 0180 00D1     		bne	.L36
 237:main.c        ****                    break;
 632              		.loc 1 237 0
 633 0182 0BE0     		b	.L37
 634              	.L36:
 235:main.c        ****             for (x=0;x<set.max_time*100;x++)
 635              		.loc 1 235 0 discriminator 2
 636 0184 FB68     		ldr	r3, [r7, #12]
 637 0186 0133     		add	r3, r3, #1
 638 0188 FB60     		str	r3, [r7, #12]
 639              	.L35:
 235:main.c        ****             for (x=0;x<set.max_time*100;x++)
 640              		.loc 1 235 0 is_stmt 0 discriminator 1
 641 018a 1A4B     		ldr	r3, .L41
 642 018c 9B79     		ldrb	r3, [r3, #6]
 643 018e DBB2     		uxtb	r3, r3
 644 0190 1A1C     		mov	r2, r3
 645 0192 6423     		mov	r3, #100
 646 0194 5A43     		mul	r2, r3
 647 0196 FB68     		ldr	r3, [r7, #12]
 648 0198 9A42     		cmp	r2, r3
 649 019a EEDC     		bgt	.L38
 650              	.L37:
 238:main.c        ****             Opamp_FACE_Stop();
 651              		.loc 1 238 0 is_stmt 1
 652 019c FFF7FEFF 		bl	Opamp_FACE_Stop
 239:main.c        ****             DriveLeft(0);
 653              		.loc 1 239 0
 654 01a0 0020     		mov	r0, #0
 655 01a2 FFF7FEFF 		bl	DriveLeft
 240:main.c        ****             DriveRight(0);
 656              		.loc 1 240 0
 657 01a6 0020     		mov	r0, #0
 658 01a8 FFF7FEFF 		bl	DriveRight
 241:main.c        ****              while(GetTrig());
 659              		.loc 1 241 0
 660 01ac C046     		mov	r8, r8
 661              	.L39:
 662              		.loc 1 241 0 is_stmt 0 discriminator 1
 663 01ae FFF7FEFF 		bl	GetTrig
 664 01b2 031E     		sub	r3, r0, #0
ARM GAS  C:\Users\ilya\AppData\Local\Temp\cc0LO5vV.s 			page 17


 665 01b4 FBD1     		bne	.L39
 242:main.c        ****             // use the upper 4 bits to enable the toggle mode
 243:main.c        ****             set.led_enable=(set.led_enable&0xf0) | ( (set.led_enable^(set.led_enable>>4))&0xf);
 666              		.loc 1 243 0 is_stmt 1
 667 01b6 0F4B     		ldr	r3, .L41
 668 01b8 DB78     		ldrb	r3, [r3, #3]
 669 01ba DBB2     		uxtb	r3, r3
 670 01bc DBB2     		uxtb	r3, r3
 671 01be 1A1C     		add	r2, r3, #0
 672 01c0 0F23     		mov	r3, #15
 673 01c2 9A43     		bic	r2, r3
 674 01c4 131C     		mov	r3, r2
 675 01c6 D9B2     		uxtb	r1, r3
 676 01c8 0A4B     		ldr	r3, .L41
 677 01ca DB78     		ldrb	r3, [r3, #3]
 678 01cc DAB2     		uxtb	r2, r3
 679 01ce 094B     		ldr	r3, .L41
 680 01d0 DB78     		ldrb	r3, [r3, #3]
 681 01d2 DBB2     		uxtb	r3, r3
 682 01d4 1B09     		lsr	r3, r3, #4
 683 01d6 DBB2     		uxtb	r3, r3
 684 01d8 5340     		eor	r3, r2
 685 01da DBB2     		uxtb	r3, r3
 686 01dc DBB2     		uxtb	r3, r3
 687 01de 1A1C     		add	r2, r3, #0
 688 01e0 0F23     		mov	r3, #15
 689 01e2 1340     		and	r3, r2
 690 01e4 DBB2     		uxtb	r3, r3
 691 01e6 0A1C     		add	r2, r1, #0
 692 01e8 1343     		orr	r3, r2
 693 01ea DBB2     		uxtb	r3, r3
 694 01ec DAB2     		uxtb	r2, r3
 695 01ee 014B     		ldr	r3, .L41
 696 01f0 DA70     		strb	r2, [r3, #3]
 697              	.L31:
 244:main.c        ****             }
 245:main.c        ****     }
 698              		.loc 1 245 0
 699 01f2 69E7     		b	.L40
 700              	.L42:
 701              		.align	2
 702              	.L41:
 703 01f4 00000000 		.word	set
 704 01f8 00000000 		.word	isr_MYTIMER_Interrupt
 705 01fc 00000000 		.word	comBuff
 706 0200 00000000 		.word	tick
 707 0204 9A999999 		.word	-1717986918
 708 0208 9999C93F 		.word	1070176665
 709 020c 61325530 		.word	810889825
 710 0210 2AA9633F 		.word	1063495978
 711 0214 00002440 		.word	1076101120
 712              		.cfi_endproc
 713              	.LFE41:
 714              		.size	main, .-main
 715              		.bss
 716 0005 000000   		.align	2
 717              	i_term.5819:
ARM GAS  C:\Users\ilya\AppData\Local\Temp\cc0LO5vV.s 			page 18


 718 0008 00000000 		.space	4
 719              		.text
 720              	.Letext0:
 721              		.file 2 "c:\\program files (x86)\\cypress\\psoc creator\\4.0\\psoc creator\\import\\gnu\\arm\\4.9.
 722              		.file 3 "c:\\program files (x86)\\cypress\\psoc creator\\4.0\\psoc creator\\import\\gnu\\arm\\4.9.
 723              		.file 4 "Generated_Source\\PSoC4/cytypes.h"