ARM GAS  C:\Users\Rajesh\AppData\Local\Temp\ccYCE7ps.s 			page 1


   1              		.syntax unified
   2              		.cpu cortex-m0
   3              		.fpu softvfp
   4              		.eabi_attribute 20, 1
   5              		.eabi_attribute 21, 1
   6              		.eabi_attribute 23, 3
   7              		.eabi_attribute 24, 1
   8              		.eabi_attribute 25, 1
   9              		.eabi_attribute 26, 1
  10              		.eabi_attribute 30, 2
  11              		.eabi_attribute 34, 0
  12              		.eabi_attribute 18, 4
  13              		.thumb
  14              		.syntax unified
  15              		.file	"PWM.c"
  16              		.text
  17              	.Ltext0:
  18              		.cfi_sections	.debug_frame
  19              		.section	.text.PWM_SetDriveMode,"ax",%progbits
  20              		.align	2
  21              		.global	PWM_SetDriveMode
  22              		.code	16
  23              		.thumb_func
  24              		.type	PWM_SetDriveMode, %function
  25              	PWM_SetDriveMode:
  26              	.LFB0:
  27              		.file 1 "Generated_Source\\PSoC4\\PWM.c"
   1:Generated_Source\PSoC4/PWM.c **** /*******************************************************************************
   2:Generated_Source\PSoC4/PWM.c **** * File Name: PWM.c  
   3:Generated_Source\PSoC4/PWM.c **** * Version 2.20
   4:Generated_Source\PSoC4/PWM.c **** *
   5:Generated_Source\PSoC4/PWM.c **** * Description:
   6:Generated_Source\PSoC4/PWM.c **** *  This file contains API to enable firmware control of a Pins component.
   7:Generated_Source\PSoC4/PWM.c **** *
   8:Generated_Source\PSoC4/PWM.c **** ********************************************************************************
   9:Generated_Source\PSoC4/PWM.c **** * Copyright 2008-2015, Cypress Semiconductor Corporation.  All rights reserved.
  10:Generated_Source\PSoC4/PWM.c **** * You may use this file only in accordance with the license, terms, conditions, 
  11:Generated_Source\PSoC4/PWM.c **** * disclaimers, and limitations in the end user license agreement accompanying 
  12:Generated_Source\PSoC4/PWM.c **** * the software package with which this file was provided.
  13:Generated_Source\PSoC4/PWM.c **** *******************************************************************************/
  14:Generated_Source\PSoC4/PWM.c **** 
  15:Generated_Source\PSoC4/PWM.c **** #include "cytypes.h"
  16:Generated_Source\PSoC4/PWM.c **** #include "PWM.h"
  17:Generated_Source\PSoC4/PWM.c **** 
  18:Generated_Source\PSoC4/PWM.c **** 
  19:Generated_Source\PSoC4/PWM.c **** #if defined(PWM__PC)
  20:Generated_Source\PSoC4/PWM.c ****     #define PWM_SetP4PinDriveMode(shift, mode)  \
  21:Generated_Source\PSoC4/PWM.c ****     do { \
  22:Generated_Source\PSoC4/PWM.c ****         PWM_PC =   (PWM_PC & \
  23:Generated_Source\PSoC4/PWM.c ****                                 (uint32)(~(uint32)(PWM_DRIVE_MODE_IND_MASK << \
  24:Generated_Source\PSoC4/PWM.c ****                                 (PWM_DRIVE_MODE_BITS * (shift))))) | \
  25:Generated_Source\PSoC4/PWM.c ****                                 (uint32)((uint32)(mode) << \
  26:Generated_Source\PSoC4/PWM.c ****                                 (PWM_DRIVE_MODE_BITS * (shift))); \
  27:Generated_Source\PSoC4/PWM.c ****     } while (0)
  28:Generated_Source\PSoC4/PWM.c **** #else
  29:Generated_Source\PSoC4/PWM.c ****     #if (CY_PSOC4_4200L)
  30:Generated_Source\PSoC4/PWM.c ****         #define PWM_SetP4PinDriveMode(shift, mode)  \
ARM GAS  C:\Users\Rajesh\AppData\Local\Temp\ccYCE7ps.s 			page 2


  31:Generated_Source\PSoC4/PWM.c ****         do { \
  32:Generated_Source\PSoC4/PWM.c ****             PWM_USBIO_CTRL_REG = (PWM_USBIO_CTRL_REG & \
  33:Generated_Source\PSoC4/PWM.c ****                                     (uint32)(~(uint32)(PWM_DRIVE_MODE_IND_MASK << \
  34:Generated_Source\PSoC4/PWM.c ****                                     (PWM_DRIVE_MODE_BITS * (shift))))) | \
  35:Generated_Source\PSoC4/PWM.c ****                                     (uint32)((uint32)(mode) << \
  36:Generated_Source\PSoC4/PWM.c ****                                     (PWM_DRIVE_MODE_BITS * (shift))); \
  37:Generated_Source\PSoC4/PWM.c ****         } while (0)
  38:Generated_Source\PSoC4/PWM.c ****     #endif
  39:Generated_Source\PSoC4/PWM.c **** #endif
  40:Generated_Source\PSoC4/PWM.c ****   
  41:Generated_Source\PSoC4/PWM.c **** 
  42:Generated_Source\PSoC4/PWM.c **** #if defined(PWM__PC) || (CY_PSOC4_4200L) 
  43:Generated_Source\PSoC4/PWM.c ****     /*******************************************************************************
  44:Generated_Source\PSoC4/PWM.c ****     * Function Name: PWM_SetDriveMode
  45:Generated_Source\PSoC4/PWM.c ****     ****************************************************************************//**
  46:Generated_Source\PSoC4/PWM.c ****     *
  47:Generated_Source\PSoC4/PWM.c ****     * \brief Sets the drive mode for each of the Pins component's pins.
  48:Generated_Source\PSoC4/PWM.c ****     * 
  49:Generated_Source\PSoC4/PWM.c ****     * <b>Note</b> This affects all pins in the Pins component instance. Use the
  50:Generated_Source\PSoC4/PWM.c ****     * Per-Pin APIs if you wish to control individual pin's drive modes.
  51:Generated_Source\PSoC4/PWM.c ****     *
  52:Generated_Source\PSoC4/PWM.c ****     * <b>Note</b> USBIOs have limited drive functionality. Refer to the Drive Mode
  53:Generated_Source\PSoC4/PWM.c ****     * parameter for more information.
  54:Generated_Source\PSoC4/PWM.c ****     *
  55:Generated_Source\PSoC4/PWM.c ****     * \param mode
  56:Generated_Source\PSoC4/PWM.c ****     *  Mode for the selected signals. Valid options are documented in 
  57:Generated_Source\PSoC4/PWM.c ****     *  \ref driveMode.
  58:Generated_Source\PSoC4/PWM.c ****     *
  59:Generated_Source\PSoC4/PWM.c ****     * \return
  60:Generated_Source\PSoC4/PWM.c ****     *  None
  61:Generated_Source\PSoC4/PWM.c ****     *
  62:Generated_Source\PSoC4/PWM.c ****     * \sideeffect
  63:Generated_Source\PSoC4/PWM.c ****     *  If you use read-modify-write operations that are not atomic, the ISR can
  64:Generated_Source\PSoC4/PWM.c ****     *  cause corruption of this function. An ISR that interrupts this function 
  65:Generated_Source\PSoC4/PWM.c ****     *  and performs writes to the Pins component Drive Mode registers can cause 
  66:Generated_Source\PSoC4/PWM.c ****     *  corrupted port data. To avoid this issue, you should either use the Per-Pin
  67:Generated_Source\PSoC4/PWM.c ****     *  APIs (primary method) or disable interrupts around this function.
  68:Generated_Source\PSoC4/PWM.c ****     *
  69:Generated_Source\PSoC4/PWM.c ****     * \funcusage
  70:Generated_Source\PSoC4/PWM.c ****     *  \snippet PWM_SUT.c usage_PWM_SetDriveMode
  71:Generated_Source\PSoC4/PWM.c ****     *******************************************************************************/
  72:Generated_Source\PSoC4/PWM.c ****     void PWM_SetDriveMode(uint8 mode)
  73:Generated_Source\PSoC4/PWM.c ****     {
  28              		.loc 1 73 0
  29              		.cfi_startproc
  30              		@ args = 0, pretend = 0, frame = 0
  31              		@ frame_needed = 0, uses_anonymous_args = 0
  32              		@ link register save eliminated.
  33              	.LVL0:
  74:Generated_Source\PSoC4/PWM.c **** 		PWM_SetP4PinDriveMode(PWM__0__SHIFT, mode);
  34              		.loc 1 74 0
  35 0000 0721     		movs	r1, #7
  36 0002 184B     		ldr	r3, .L2
  75:Generated_Source\PSoC4/PWM.c **** 		PWM_SetP4PinDriveMode(PWM__1__SHIFT, mode);
  76:Generated_Source\PSoC4/PWM.c **** 		PWM_SetP4PinDriveMode(PWM__2__SHIFT, mode);
  77:Generated_Source\PSoC4/PWM.c **** 		PWM_SetP4PinDriveMode(PWM__3__SHIFT, mode);
  78:Generated_Source\PSoC4/PWM.c **** 		PWM_SetP4PinDriveMode(PWM__4__SHIFT, mode);
ARM GAS  C:\Users\Rajesh\AppData\Local\Temp\ccYCE7ps.s 			page 3


  79:Generated_Source\PSoC4/PWM.c **** 		PWM_SetP4PinDriveMode(PWM__5__SHIFT, mode);
  80:Generated_Source\PSoC4/PWM.c **** 		PWM_SetP4PinDriveMode(PWM__6__SHIFT, mode);
  81:Generated_Source\PSoC4/PWM.c **** 		PWM_SetP4PinDriveMode(PWM__7__SHIFT, mode);
  82:Generated_Source\PSoC4/PWM.c ****     }
  37              		.loc 1 82 0
  38              		@ sp needed
  74:Generated_Source\PSoC4/PWM.c **** 		PWM_SetP4PinDriveMode(PWM__0__SHIFT, mode);
  39              		.loc 1 74 0
  40 0004 1A68     		ldr	r2, [r3]
  41 0006 8A43     		bics	r2, r1
  42 0008 0243     		orrs	r2, r0
  43 000a 1A60     		str	r2, [r3]
  75:Generated_Source\PSoC4/PWM.c **** 		PWM_SetP4PinDriveMode(PWM__1__SHIFT, mode);
  44              		.loc 1 75 0
  45 000c 1A68     		ldr	r2, [r3]
  46 000e 3131     		adds	r1, r1, #49
  47 0010 8A43     		bics	r2, r1
  48 0012 C100     		lsls	r1, r0, #3
  49 0014 0A43     		orrs	r2, r1
  50 0016 1A60     		str	r2, [r3]
  76:Generated_Source\PSoC4/PWM.c **** 		PWM_SetP4PinDriveMode(PWM__3__SHIFT, mode);
  51              		.loc 1 76 0
  52 0018 1968     		ldr	r1, [r3]
  53 001a 134A     		ldr	r2, .L2+4
  54 001c 0A40     		ands	r2, r1
  55 001e 8101     		lsls	r1, r0, #6
  56 0020 0A43     		orrs	r2, r1
  57 0022 1A60     		str	r2, [r3]
  77:Generated_Source\PSoC4/PWM.c **** 		PWM_SetP4PinDriveMode(PWM__4__SHIFT, mode);
  58              		.loc 1 77 0
  59 0024 1968     		ldr	r1, [r3]
  60 0026 114A     		ldr	r2, .L2+8
  61 0028 0A40     		ands	r2, r1
  62 002a 4102     		lsls	r1, r0, #9
  63 002c 0A43     		orrs	r2, r1
  64 002e 1A60     		str	r2, [r3]
  78:Generated_Source\PSoC4/PWM.c **** 		PWM_SetP4PinDriveMode(PWM__5__SHIFT, mode);
  65              		.loc 1 78 0
  66 0030 1968     		ldr	r1, [r3]
  67 0032 0F4A     		ldr	r2, .L2+12
  68 0034 0A40     		ands	r2, r1
  69 0036 0103     		lsls	r1, r0, #12
  70 0038 0A43     		orrs	r2, r1
  71 003a 1A60     		str	r2, [r3]
  79:Generated_Source\PSoC4/PWM.c **** 		PWM_SetP4PinDriveMode(PWM__6__SHIFT, mode);
  72              		.loc 1 79 0
  73 003c 1968     		ldr	r1, [r3]
  74 003e 0D4A     		ldr	r2, .L2+16
  75 0040 0A40     		ands	r2, r1
  76 0042 C103     		lsls	r1, r0, #15
  77 0044 0A43     		orrs	r2, r1
  78 0046 1A60     		str	r2, [r3]
  80:Generated_Source\PSoC4/PWM.c **** 		PWM_SetP4PinDriveMode(PWM__7__SHIFT, mode);
  79              		.loc 1 80 0
  80 0048 1968     		ldr	r1, [r3]
  81 004a 0B4A     		ldr	r2, .L2+20
  82 004c 0A40     		ands	r2, r1
ARM GAS  C:\Users\Rajesh\AppData\Local\Temp\ccYCE7ps.s 			page 4


  83 004e 8104     		lsls	r1, r0, #18
  84 0050 0A43     		orrs	r2, r1
  85 0052 1A60     		str	r2, [r3]
  81:Generated_Source\PSoC4/PWM.c ****     }
  86              		.loc 1 81 0
  87 0054 1968     		ldr	r1, [r3]
  88 0056 094A     		ldr	r2, .L2+24
  89 0058 4005     		lsls	r0, r0, #21
  90              	.LVL1:
  91 005a 0A40     		ands	r2, r1
  92 005c 1043     		orrs	r0, r2
  93 005e 1860     		str	r0, [r3]
  94              		.loc 1 82 0
  95 0060 7047     		bx	lr
  96              	.L3:
  97 0062 C046     		.align	2
  98              	.L2:
  99 0064 08000440 		.word	1074003976
 100 0068 3FFEFFFF 		.word	-449
 101 006c FFF1FFFF 		.word	-3585
 102 0070 FF8FFFFF 		.word	-28673
 103 0074 FF7FFCFF 		.word	-229377
 104 0078 FFFFE3FF 		.word	-1835009
 105 007c FFFF1FFF 		.word	-14680065
 106              		.cfi_endproc
 107              	.LFE0:
 108              		.size	PWM_SetDriveMode, .-PWM_SetDriveMode
 109              		.section	.text.PWM_Write,"ax",%progbits
 110              		.align	2
 111              		.global	PWM_Write
 112              		.code	16
 113              		.thumb_func
 114              		.type	PWM_Write, %function
 115              	PWM_Write:
 116              	.LFB1:
  83:Generated_Source\PSoC4/PWM.c **** #endif
  84:Generated_Source\PSoC4/PWM.c **** 
  85:Generated_Source\PSoC4/PWM.c **** 
  86:Generated_Source\PSoC4/PWM.c **** /*******************************************************************************
  87:Generated_Source\PSoC4/PWM.c **** * Function Name: PWM_Write
  88:Generated_Source\PSoC4/PWM.c **** ****************************************************************************//**
  89:Generated_Source\PSoC4/PWM.c **** *
  90:Generated_Source\PSoC4/PWM.c **** * \brief Writes the value to the physical port (data output register), masking
  91:Generated_Source\PSoC4/PWM.c **** *  and shifting the bits appropriately. 
  92:Generated_Source\PSoC4/PWM.c **** *
  93:Generated_Source\PSoC4/PWM.c **** * The data output register controls the signal applied to the physical pin in 
  94:Generated_Source\PSoC4/PWM.c **** * conjunction with the drive mode parameter. This function avoids changing 
  95:Generated_Source\PSoC4/PWM.c **** * other bits in the port by using the appropriate method (read-modify-write or
  96:Generated_Source\PSoC4/PWM.c **** * bit banding).
  97:Generated_Source\PSoC4/PWM.c **** *
  98:Generated_Source\PSoC4/PWM.c **** * <b>Note</b> This function should not be used on a hardware digital output pin 
  99:Generated_Source\PSoC4/PWM.c **** * as it is driven by the hardware signal attached to it.
 100:Generated_Source\PSoC4/PWM.c **** *
 101:Generated_Source\PSoC4/PWM.c **** * \param value
 102:Generated_Source\PSoC4/PWM.c **** *  Value to write to the component instance.
 103:Generated_Source\PSoC4/PWM.c **** *
 104:Generated_Source\PSoC4/PWM.c **** * \return 
ARM GAS  C:\Users\Rajesh\AppData\Local\Temp\ccYCE7ps.s 			page 5


 105:Generated_Source\PSoC4/PWM.c **** *  None 
 106:Generated_Source\PSoC4/PWM.c **** *
 107:Generated_Source\PSoC4/PWM.c **** * \sideeffect
 108:Generated_Source\PSoC4/PWM.c **** *  If you use read-modify-write operations that are not atomic; the Interrupt 
 109:Generated_Source\PSoC4/PWM.c **** *  Service Routines (ISR) can cause corruption of this function. An ISR that 
 110:Generated_Source\PSoC4/PWM.c **** *  interrupts this function and performs writes to the Pins component data 
 111:Generated_Source\PSoC4/PWM.c **** *  register can cause corrupted port data. To avoid this issue, you should 
 112:Generated_Source\PSoC4/PWM.c **** *  either use the Per-Pin APIs (primary method) or disable interrupts around 
 113:Generated_Source\PSoC4/PWM.c **** *  this function.
 114:Generated_Source\PSoC4/PWM.c **** *
 115:Generated_Source\PSoC4/PWM.c **** * \funcusage
 116:Generated_Source\PSoC4/PWM.c **** *  \snippet PWM_SUT.c usage_PWM_Write
 117:Generated_Source\PSoC4/PWM.c **** *******************************************************************************/
 118:Generated_Source\PSoC4/PWM.c **** void PWM_Write(uint8 value)
 119:Generated_Source\PSoC4/PWM.c **** {
 117              		.loc 1 119 0
 118              		.cfi_startproc
 119              		@ args = 0, pretend = 0, frame = 0
 120              		@ frame_needed = 0, uses_anonymous_args = 0
 121              		@ link register save eliminated.
 122              	.LVL2:
 120:Generated_Source\PSoC4/PWM.c ****     uint8 drVal = (uint8)(PWM_DR & (uint8)(~PWM_MASK));
 123              		.loc 1 120 0
 124 0000 014B     		ldr	r3, .L5
 121:Generated_Source\PSoC4/PWM.c ****     drVal = (drVal | ((uint8)(value << PWM_SHIFT) & PWM_MASK));
 122:Generated_Source\PSoC4/PWM.c ****     PWM_DR = (uint32)drVal;
 123:Generated_Source\PSoC4/PWM.c **** }
 125              		.loc 1 123 0
 126              		@ sp needed
 120:Generated_Source\PSoC4/PWM.c ****     uint8 drVal = (uint8)(PWM_DR & (uint8)(~PWM_MASK));
 127              		.loc 1 120 0
 128 0002 1A68     		ldr	r2, [r3]
 129              	.LVL3:
 122:Generated_Source\PSoC4/PWM.c **** }
 130              		.loc 1 122 0
 131 0004 1860     		str	r0, [r3]
 132              		.loc 1 123 0
 133 0006 7047     		bx	lr
 134              	.L6:
 135              		.align	2
 136              	.L5:
 137 0008 00000440 		.word	1074003968
 138              		.cfi_endproc
 139              	.LFE1:
 140              		.size	PWM_Write, .-PWM_Write
 141              		.section	.text.PWM_Read,"ax",%progbits
 142              		.align	2
 143              		.global	PWM_Read
 144              		.code	16
 145              		.thumb_func
 146              		.type	PWM_Read, %function
 147              	PWM_Read:
 148              	.LFB2:
 124:Generated_Source\PSoC4/PWM.c **** 
 125:Generated_Source\PSoC4/PWM.c **** 
 126:Generated_Source\PSoC4/PWM.c **** /*******************************************************************************
 127:Generated_Source\PSoC4/PWM.c **** * Function Name: PWM_Read
ARM GAS  C:\Users\Rajesh\AppData\Local\Temp\ccYCE7ps.s 			page 6


 128:Generated_Source\PSoC4/PWM.c **** ****************************************************************************//**
 129:Generated_Source\PSoC4/PWM.c **** *
 130:Generated_Source\PSoC4/PWM.c **** * \brief Reads the associated physical port (pin status register) and masks 
 131:Generated_Source\PSoC4/PWM.c **** *  the required bits according to the width and bit position of the component
 132:Generated_Source\PSoC4/PWM.c **** *  instance. 
 133:Generated_Source\PSoC4/PWM.c **** *
 134:Generated_Source\PSoC4/PWM.c **** * The pin's status register returns the current logic level present on the 
 135:Generated_Source\PSoC4/PWM.c **** * physical pin.
 136:Generated_Source\PSoC4/PWM.c **** *
 137:Generated_Source\PSoC4/PWM.c **** * \return 
 138:Generated_Source\PSoC4/PWM.c **** *  The current value for the pins in the component as a right justified number.
 139:Generated_Source\PSoC4/PWM.c **** *
 140:Generated_Source\PSoC4/PWM.c **** * \funcusage
 141:Generated_Source\PSoC4/PWM.c **** *  \snippet PWM_SUT.c usage_PWM_Read  
 142:Generated_Source\PSoC4/PWM.c **** *******************************************************************************/
 143:Generated_Source\PSoC4/PWM.c **** uint8 PWM_Read(void)
 144:Generated_Source\PSoC4/PWM.c **** {
 149              		.loc 1 144 0
 150              		.cfi_startproc
 151              		@ args = 0, pretend = 0, frame = 0
 152              		@ frame_needed = 0, uses_anonymous_args = 0
 153              		@ link register save eliminated.
 145:Generated_Source\PSoC4/PWM.c ****     return (uint8)((PWM_PS & PWM_MASK) >> PWM_SHIFT);
 154              		.loc 1 145 0
 155 0000 014B     		ldr	r3, .L8
 146:Generated_Source\PSoC4/PWM.c **** }
 156              		.loc 1 146 0
 157              		@ sp needed
 145:Generated_Source\PSoC4/PWM.c ****     return (uint8)((PWM_PS & PWM_MASK) >> PWM_SHIFT);
 158              		.loc 1 145 0
 159 0002 1868     		ldr	r0, [r3]
 160 0004 C0B2     		uxtb	r0, r0
 161              		.loc 1 146 0
 162 0006 7047     		bx	lr
 163              	.L9:
 164              		.align	2
 165              	.L8:
 166 0008 04000440 		.word	1074003972
 167              		.cfi_endproc
 168              	.LFE2:
 169              		.size	PWM_Read, .-PWM_Read
 170              		.section	.text.PWM_ReadDataReg,"ax",%progbits
 171              		.align	2
 172              		.global	PWM_ReadDataReg
 173              		.code	16
 174              		.thumb_func
 175              		.type	PWM_ReadDataReg, %function
 176              	PWM_ReadDataReg:
 177              	.LFB3:
 147:Generated_Source\PSoC4/PWM.c **** 
 148:Generated_Source\PSoC4/PWM.c **** 
 149:Generated_Source\PSoC4/PWM.c **** /*******************************************************************************
 150:Generated_Source\PSoC4/PWM.c **** * Function Name: PWM_ReadDataReg
 151:Generated_Source\PSoC4/PWM.c **** ****************************************************************************//**
 152:Generated_Source\PSoC4/PWM.c **** *
 153:Generated_Source\PSoC4/PWM.c **** * \brief Reads the associated physical port's data output register and masks 
 154:Generated_Source\PSoC4/PWM.c **** *  the correct bits according to the width and bit position of the component 
ARM GAS  C:\Users\Rajesh\AppData\Local\Temp\ccYCE7ps.s 			page 7


 155:Generated_Source\PSoC4/PWM.c **** *  instance. 
 156:Generated_Source\PSoC4/PWM.c **** *
 157:Generated_Source\PSoC4/PWM.c **** * The data output register controls the signal applied to the physical pin in 
 158:Generated_Source\PSoC4/PWM.c **** * conjunction with the drive mode parameter. This is not the same as the 
 159:Generated_Source\PSoC4/PWM.c **** * preferred PWM_Read() API because the 
 160:Generated_Source\PSoC4/PWM.c **** * PWM_ReadDataReg() reads the data register instead of the status 
 161:Generated_Source\PSoC4/PWM.c **** * register. For output pins this is a useful function to determine the value 
 162:Generated_Source\PSoC4/PWM.c **** * just written to the pin.
 163:Generated_Source\PSoC4/PWM.c **** *
 164:Generated_Source\PSoC4/PWM.c **** * \return 
 165:Generated_Source\PSoC4/PWM.c **** *  The current value of the data register masked and shifted into a right 
 166:Generated_Source\PSoC4/PWM.c **** *  justified number for the component instance.
 167:Generated_Source\PSoC4/PWM.c **** *
 168:Generated_Source\PSoC4/PWM.c **** * \funcusage
 169:Generated_Source\PSoC4/PWM.c **** *  \snippet PWM_SUT.c usage_PWM_ReadDataReg 
 170:Generated_Source\PSoC4/PWM.c **** *******************************************************************************/
 171:Generated_Source\PSoC4/PWM.c **** uint8 PWM_ReadDataReg(void)
 172:Generated_Source\PSoC4/PWM.c **** {
 178              		.loc 1 172 0
 179              		.cfi_startproc
 180              		@ args = 0, pretend = 0, frame = 0
 181              		@ frame_needed = 0, uses_anonymous_args = 0
 182              		@ link register save eliminated.
 173:Generated_Source\PSoC4/PWM.c ****     return (uint8)((PWM_DR & PWM_MASK) >> PWM_SHIFT);
 183              		.loc 1 173 0
 184 0000 014B     		ldr	r3, .L11
 174:Generated_Source\PSoC4/PWM.c **** }
 185              		.loc 1 174 0
 186              		@ sp needed
 173:Generated_Source\PSoC4/PWM.c ****     return (uint8)((PWM_DR & PWM_MASK) >> PWM_SHIFT);
 187              		.loc 1 173 0
 188 0002 1868     		ldr	r0, [r3]
 189 0004 C0B2     		uxtb	r0, r0
 190              		.loc 1 174 0
 191 0006 7047     		bx	lr
 192              	.L12:
 193              		.align	2
 194              	.L11:
 195 0008 00000440 		.word	1074003968
 196              		.cfi_endproc
 197              	.LFE3:
 198              		.size	PWM_ReadDataReg, .-PWM_ReadDataReg
 199              		.section	.text.PWM_SetInterruptMode,"ax",%progbits
 200              		.align	2
 201              		.global	PWM_SetInterruptMode
 202              		.code	16
 203              		.thumb_func
 204              		.type	PWM_SetInterruptMode, %function
 205              	PWM_SetInterruptMode:
 206              	.LFB4:
 175:Generated_Source\PSoC4/PWM.c **** 
 176:Generated_Source\PSoC4/PWM.c **** 
 177:Generated_Source\PSoC4/PWM.c **** /*******************************************************************************
 178:Generated_Source\PSoC4/PWM.c **** * Function Name: PWM_SetInterruptMode
 179:Generated_Source\PSoC4/PWM.c **** ****************************************************************************//**
 180:Generated_Source\PSoC4/PWM.c **** *
 181:Generated_Source\PSoC4/PWM.c **** * \brief Configures the interrupt mode for each of the Pins component's
ARM GAS  C:\Users\Rajesh\AppData\Local\Temp\ccYCE7ps.s 			page 8


 182:Generated_Source\PSoC4/PWM.c **** *  pins. Alternatively you may set the interrupt mode for all the pins
 183:Generated_Source\PSoC4/PWM.c **** *  specified in the Pins component.
 184:Generated_Source\PSoC4/PWM.c **** *
 185:Generated_Source\PSoC4/PWM.c **** *  <b>Note</b> The interrupt is port-wide and therefore any enabled pin
 186:Generated_Source\PSoC4/PWM.c **** *  interrupt may trigger it.
 187:Generated_Source\PSoC4/PWM.c **** *
 188:Generated_Source\PSoC4/PWM.c **** * \param position
 189:Generated_Source\PSoC4/PWM.c **** *  The pin position as listed in the Pins component. You may OR these to be 
 190:Generated_Source\PSoC4/PWM.c **** *  able to configure the interrupt mode of multiple pins within a Pins 
 191:Generated_Source\PSoC4/PWM.c **** *  component. Or you may use PWM_INTR_ALL to configure the
 192:Generated_Source\PSoC4/PWM.c **** *  interrupt mode of all the pins in the Pins component.       
 193:Generated_Source\PSoC4/PWM.c **** *  - PWM_0_INTR       (First pin in the list)
 194:Generated_Source\PSoC4/PWM.c **** *  - PWM_1_INTR       (Second pin in the list)
 195:Generated_Source\PSoC4/PWM.c **** *  - ...
 196:Generated_Source\PSoC4/PWM.c **** *  - PWM_INTR_ALL     (All pins in Pins component)
 197:Generated_Source\PSoC4/PWM.c **** *
 198:Generated_Source\PSoC4/PWM.c **** * \param mode
 199:Generated_Source\PSoC4/PWM.c **** *  Interrupt mode for the selected pins. Valid options are documented in
 200:Generated_Source\PSoC4/PWM.c **** *  \ref intrMode.
 201:Generated_Source\PSoC4/PWM.c **** *
 202:Generated_Source\PSoC4/PWM.c **** * \return 
 203:Generated_Source\PSoC4/PWM.c **** *  None
 204:Generated_Source\PSoC4/PWM.c **** *  
 205:Generated_Source\PSoC4/PWM.c **** * \sideeffect
 206:Generated_Source\PSoC4/PWM.c **** *  It is recommended that the interrupt be disabled before calling this 
 207:Generated_Source\PSoC4/PWM.c **** *  function to avoid unintended interrupt requests. Note that the interrupt
 208:Generated_Source\PSoC4/PWM.c **** *  type is port wide, and therefore will trigger for any enabled pin on the 
 209:Generated_Source\PSoC4/PWM.c **** *  port.
 210:Generated_Source\PSoC4/PWM.c **** *
 211:Generated_Source\PSoC4/PWM.c **** * \funcusage
 212:Generated_Source\PSoC4/PWM.c **** *  \snippet PWM_SUT.c usage_PWM_SetInterruptMode
 213:Generated_Source\PSoC4/PWM.c **** *******************************************************************************/
 214:Generated_Source\PSoC4/PWM.c **** void PWM_SetInterruptMode(uint16 position, uint16 mode)
 215:Generated_Source\PSoC4/PWM.c **** {
 207              		.loc 1 215 0
 208              		.cfi_startproc
 209              		@ args = 0, pretend = 0, frame = 0
 210              		@ frame_needed = 0, uses_anonymous_args = 0
 211              		@ link register save eliminated.
 212              	.LVL4:
 216:Generated_Source\PSoC4/PWM.c ****     uint32 intrCfg;
 217:Generated_Source\PSoC4/PWM.c ****     
 218:Generated_Source\PSoC4/PWM.c ****     intrCfg =  PWM_INTCFG & (uint32)(~(uint32)position);
 213              		.loc 1 218 0
 214 0000 034A     		ldr	r2, .L14
 219:Generated_Source\PSoC4/PWM.c ****     PWM_INTCFG = intrCfg | ((uint32)position & (uint32)mode);
 220:Generated_Source\PSoC4/PWM.c **** }
 215              		.loc 1 220 0
 216              		@ sp needed
 218:Generated_Source\PSoC4/PWM.c ****     PWM_INTCFG = intrCfg | ((uint32)position & (uint32)mode);
 217              		.loc 1 218 0
 218 0002 1368     		ldr	r3, [r2]
 219              	.LVL5:
 219:Generated_Source\PSoC4/PWM.c ****     PWM_INTCFG = intrCfg | ((uint32)position & (uint32)mode);
 220              		.loc 1 219 0
 221 0004 8343     		bics	r3, r0
 222              	.LVL6:
ARM GAS  C:\Users\Rajesh\AppData\Local\Temp\ccYCE7ps.s 			page 9


 223 0006 0840     		ands	r0, r1
 224              	.LVL7:
 225 0008 1843     		orrs	r0, r3
 226 000a 1060     		str	r0, [r2]
 227              		.loc 1 220 0
 228 000c 7047     		bx	lr
 229              	.L15:
 230 000e C046     		.align	2
 231              	.L14:
 232 0010 0C000440 		.word	1074003980
 233              		.cfi_endproc
 234              	.LFE4:
 235              		.size	PWM_SetInterruptMode, .-PWM_SetInterruptMode
 236              		.section	.text.PWM_ClearInterrupt,"ax",%progbits
 237              		.align	2
 238              		.global	PWM_ClearInterrupt
 239              		.code	16
 240              		.thumb_func
 241              		.type	PWM_ClearInterrupt, %function
 242              	PWM_ClearInterrupt:
 243              	.LFB5:
 221:Generated_Source\PSoC4/PWM.c **** 
 222:Generated_Source\PSoC4/PWM.c **** 
 223:Generated_Source\PSoC4/PWM.c **** /*******************************************************************************
 224:Generated_Source\PSoC4/PWM.c **** * Function Name: PWM_ClearInterrupt
 225:Generated_Source\PSoC4/PWM.c **** ****************************************************************************//**
 226:Generated_Source\PSoC4/PWM.c **** *
 227:Generated_Source\PSoC4/PWM.c **** * \brief Clears any active interrupts attached with the component and returns 
 228:Generated_Source\PSoC4/PWM.c **** *  the value of the interrupt status register allowing determination of which
 229:Generated_Source\PSoC4/PWM.c **** *  pins generated an interrupt event.
 230:Generated_Source\PSoC4/PWM.c **** *
 231:Generated_Source\PSoC4/PWM.c **** * \return 
 232:Generated_Source\PSoC4/PWM.c **** *  The right-shifted current value of the interrupt status register. Each pin 
 233:Generated_Source\PSoC4/PWM.c **** *  has one bit set if it generated an interrupt event. For example, bit 0 is 
 234:Generated_Source\PSoC4/PWM.c **** *  for pin 0 and bit 1 is for pin 1 of the Pins component.
 235:Generated_Source\PSoC4/PWM.c **** *  
 236:Generated_Source\PSoC4/PWM.c **** * \sideeffect
 237:Generated_Source\PSoC4/PWM.c **** *  Clears all bits of the physical port's interrupt status register, not just
 238:Generated_Source\PSoC4/PWM.c **** *  those associated with the Pins component.
 239:Generated_Source\PSoC4/PWM.c **** *
 240:Generated_Source\PSoC4/PWM.c **** * \funcusage
 241:Generated_Source\PSoC4/PWM.c **** *  \snippet PWM_SUT.c usage_PWM_ClearInterrupt
 242:Generated_Source\PSoC4/PWM.c **** *******************************************************************************/
 243:Generated_Source\PSoC4/PWM.c **** uint8 PWM_ClearInterrupt(void)
 244:Generated_Source\PSoC4/PWM.c **** {
 244              		.loc 1 244 0
 245              		.cfi_startproc
 246              		@ args = 0, pretend = 0, frame = 0
 247              		@ frame_needed = 0, uses_anonymous_args = 0
 248              		@ link register save eliminated.
 249 0000 FF23     		movs	r3, #255
 245:Generated_Source\PSoC4/PWM.c **** 	uint8 maskedStatus = (uint8)(PWM_INTSTAT & PWM_MASK);
 250              		.loc 1 245 0
 251 0002 034A     		ldr	r2, .L17
 246:Generated_Source\PSoC4/PWM.c **** 	PWM_INTSTAT = maskedStatus;
 247:Generated_Source\PSoC4/PWM.c ****     return maskedStatus >> PWM_SHIFT;
 248:Generated_Source\PSoC4/PWM.c **** }
ARM GAS  C:\Users\Rajesh\AppData\Local\Temp\ccYCE7ps.s 			page 10


 252              		.loc 1 248 0
 253              		@ sp needed
 245:Generated_Source\PSoC4/PWM.c **** 	uint8 maskedStatus = (uint8)(PWM_INTSTAT & PWM_MASK);
 254              		.loc 1 245 0
 255 0004 1068     		ldr	r0, [r2]
 256              	.LVL8:
 257 0006 0340     		ands	r3, r0
 246:Generated_Source\PSoC4/PWM.c **** 	PWM_INTSTAT = maskedStatus;
 258              		.loc 1 246 0
 259 0008 1360     		str	r3, [r2]
 247:Generated_Source\PSoC4/PWM.c **** }
 260              		.loc 1 247 0
 261 000a C0B2     		uxtb	r0, r0
 262              		.loc 1 248 0
 263 000c 7047     		bx	lr
 264              	.L18:
 265 000e C046     		.align	2
 266              	.L17:
 267 0010 10000440 		.word	1074003984
 268              		.cfi_endproc
 269              	.LFE5:
 270              		.size	PWM_ClearInterrupt, .-PWM_ClearInterrupt
 271              		.text
 272              	.Letext0:
 273              		.file 2 "Generated_Source\\PSoC4\\cytypes.h"