ARM GAS  C:\Users\Rajesh\AppData\Local\Temp\cchFolwL.s 			page 1


   1              		.syntax unified
   2              		.cpu cortex-m3
   3              		.fpu softvfp
   4              		.eabi_attribute 20, 1
   5              		.eabi_attribute 21, 1
   6              		.eabi_attribute 23, 3
   7              		.eabi_attribute 24, 1
   8              		.eabi_attribute 25, 1
   9              		.eabi_attribute 26, 1
  10              		.eabi_attribute 30, 6
  11              		.eabi_attribute 34, 1
  12              		.eabi_attribute 18, 4
  13              		.thumb
  14              		.syntax unified
  15              		.file	"Timeout_Timer_Isr.c"
  16              		.text
  17              	.Ltext0:
  18              		.cfi_sections	.debug_frame
  19              		.comm	s,40,4
  20              		.comm	currentAccessType,1,1
  21              		.comm	hw_old,1,1
  22              		.comm	tp_old,1,1
  23              		.comm	tamperCR_polarity,4,4
  24              		.comm	tamper_out_polarity,4,4
  25              		.comm	card_ack,4,4
  26              		.comm	card_in_buf,4,4
  27              		.comm	ledr_on,1,1
  28              		.section	.text.Timeout_Timer_Isr_Start,"ax",%progbits
  29              		.align	2
  30              		.global	Timeout_Timer_Isr_Start
  31              		.thumb
  32              		.thumb_func
  33              		.type	Timeout_Timer_Isr_Start, %function
  34              	Timeout_Timer_Isr_Start:
  35              	.LFB63:
  36              		.file 1 "Generated_Source\\PSoC5\\Timeout_Timer_Isr.c"
   1:Generated_Source\PSoC5/Timeout_Timer_Isr.c **** /*******************************************************************************
   2:Generated_Source\PSoC5/Timeout_Timer_Isr.c **** * File Name: Timeout_Timer_Isr.c  
   3:Generated_Source\PSoC5/Timeout_Timer_Isr.c **** * Version 1.70
   4:Generated_Source\PSoC5/Timeout_Timer_Isr.c **** *
   5:Generated_Source\PSoC5/Timeout_Timer_Isr.c **** *  Description:
   6:Generated_Source\PSoC5/Timeout_Timer_Isr.c **** *   API for controlling the state of an interrupt.
   7:Generated_Source\PSoC5/Timeout_Timer_Isr.c **** *
   8:Generated_Source\PSoC5/Timeout_Timer_Isr.c **** *
   9:Generated_Source\PSoC5/Timeout_Timer_Isr.c **** *  Note:
  10:Generated_Source\PSoC5/Timeout_Timer_Isr.c **** *
  11:Generated_Source\PSoC5/Timeout_Timer_Isr.c **** ********************************************************************************
  12:Generated_Source\PSoC5/Timeout_Timer_Isr.c **** * Copyright 2008-2015, Cypress Semiconductor Corporation.  All rights reserved.
  13:Generated_Source\PSoC5/Timeout_Timer_Isr.c **** * You may use this file only in accordance with the license, terms, conditions, 
  14:Generated_Source\PSoC5/Timeout_Timer_Isr.c **** * disclaimers, and limitations in the end user license agreement accompanying 
  15:Generated_Source\PSoC5/Timeout_Timer_Isr.c **** * the software package with which this file was provided.
  16:Generated_Source\PSoC5/Timeout_Timer_Isr.c **** *******************************************************************************/
  17:Generated_Source\PSoC5/Timeout_Timer_Isr.c **** 
  18:Generated_Source\PSoC5/Timeout_Timer_Isr.c **** 
  19:Generated_Source\PSoC5/Timeout_Timer_Isr.c **** #include <cydevice_trm.h>
  20:Generated_Source\PSoC5/Timeout_Timer_Isr.c **** #include <CyLib.h>
  21:Generated_Source\PSoC5/Timeout_Timer_Isr.c **** #include <Timeout_Timer_Isr.h>
ARM GAS  C:\Users\Rajesh\AppData\Local\Temp\cchFolwL.s 			page 2


  22:Generated_Source\PSoC5/Timeout_Timer_Isr.c **** 
  23:Generated_Source\PSoC5/Timeout_Timer_Isr.c **** 
  24:Generated_Source\PSoC5/Timeout_Timer_Isr.c **** #if !defined(Timeout_Timer_Isr__REMOVED) /* Check for removal by optimization */
  25:Generated_Source\PSoC5/Timeout_Timer_Isr.c **** 
  26:Generated_Source\PSoC5/Timeout_Timer_Isr.c **** /*******************************************************************************
  27:Generated_Source\PSoC5/Timeout_Timer_Isr.c **** *  Place your includes, defines and code here 
  28:Generated_Source\PSoC5/Timeout_Timer_Isr.c **** ********************************************************************************/
  29:Generated_Source\PSoC5/Timeout_Timer_Isr.c **** /* `#START Timeout_Timer_Isr_intc` */
  30:Generated_Source\PSoC5/Timeout_Timer_Isr.c **** 
  31:Generated_Source\PSoC5/Timeout_Timer_Isr.c **** #include "Timeout_Timer.h"
  32:Generated_Source\PSoC5/Timeout_Timer_Isr.c **** #include "system.h"      
  33:Generated_Source\PSoC5/Timeout_Timer_Isr.c **** //#include "LED_GRN.h"
  34:Generated_Source\PSoC5/Timeout_Timer_Isr.c **** //#include "LEDR_OUT.h" //debug
  35:Generated_Source\PSoC5/Timeout_Timer_Isr.c **** uint8 ledr_on;    
  36:Generated_Source\PSoC5/Timeout_Timer_Isr.c **** /* `#END` */
  37:Generated_Source\PSoC5/Timeout_Timer_Isr.c **** 
  38:Generated_Source\PSoC5/Timeout_Timer_Isr.c **** #ifndef CYINT_IRQ_BASE
  39:Generated_Source\PSoC5/Timeout_Timer_Isr.c **** #define CYINT_IRQ_BASE      16
  40:Generated_Source\PSoC5/Timeout_Timer_Isr.c **** #endif /* CYINT_IRQ_BASE */
  41:Generated_Source\PSoC5/Timeout_Timer_Isr.c **** #ifndef CYINT_VECT_TABLE
  42:Generated_Source\PSoC5/Timeout_Timer_Isr.c **** #define CYINT_VECT_TABLE    ((cyisraddress **) CYREG_NVIC_VECT_OFFSET)
  43:Generated_Source\PSoC5/Timeout_Timer_Isr.c **** #endif /* CYINT_VECT_TABLE */
  44:Generated_Source\PSoC5/Timeout_Timer_Isr.c **** 
  45:Generated_Source\PSoC5/Timeout_Timer_Isr.c **** /* Declared in startup, used to set unused interrupts to. */
  46:Generated_Source\PSoC5/Timeout_Timer_Isr.c **** CY_ISR_PROTO(IntDefaultHandler);
  47:Generated_Source\PSoC5/Timeout_Timer_Isr.c **** 
  48:Generated_Source\PSoC5/Timeout_Timer_Isr.c **** 
  49:Generated_Source\PSoC5/Timeout_Timer_Isr.c **** /*******************************************************************************
  50:Generated_Source\PSoC5/Timeout_Timer_Isr.c **** * Function Name: Timeout_Timer_Isr_Start
  51:Generated_Source\PSoC5/Timeout_Timer_Isr.c **** ********************************************************************************
  52:Generated_Source\PSoC5/Timeout_Timer_Isr.c **** *
  53:Generated_Source\PSoC5/Timeout_Timer_Isr.c **** * Summary:
  54:Generated_Source\PSoC5/Timeout_Timer_Isr.c **** *  Set up the interrupt and enable it. This function disables the interrupt, 
  55:Generated_Source\PSoC5/Timeout_Timer_Isr.c **** *  sets the default interrupt vector, sets the priority from the value in the
  56:Generated_Source\PSoC5/Timeout_Timer_Isr.c **** *  Design Wide Resources Interrupt Editor, then enables the interrupt to the 
  57:Generated_Source\PSoC5/Timeout_Timer_Isr.c **** *  interrupt controller.
  58:Generated_Source\PSoC5/Timeout_Timer_Isr.c **** *
  59:Generated_Source\PSoC5/Timeout_Timer_Isr.c **** * Parameters:  
  60:Generated_Source\PSoC5/Timeout_Timer_Isr.c **** *   None
  61:Generated_Source\PSoC5/Timeout_Timer_Isr.c **** *
  62:Generated_Source\PSoC5/Timeout_Timer_Isr.c **** * Return:
  63:Generated_Source\PSoC5/Timeout_Timer_Isr.c **** *   None
  64:Generated_Source\PSoC5/Timeout_Timer_Isr.c **** *
  65:Generated_Source\PSoC5/Timeout_Timer_Isr.c **** *******************************************************************************/
  66:Generated_Source\PSoC5/Timeout_Timer_Isr.c **** void Timeout_Timer_Isr_Start(void)
  67:Generated_Source\PSoC5/Timeout_Timer_Isr.c **** {
  37              		.loc 1 67 0
  38              		.cfi_startproc
  39              		@ args = 0, pretend = 0, frame = 0
  40              		@ frame_needed = 1, uses_anonymous_args = 0
  41 0000 80B5     		push	{r7, lr}
  42              		.cfi_def_cfa_offset 8
  43              		.cfi_offset 7, -8
  44              		.cfi_offset 14, -4
  45 0002 00AF     		add	r7, sp, #0
  46              		.cfi_def_cfa_register 7
  68:Generated_Source\PSoC5/Timeout_Timer_Isr.c ****     /* For all we know the interrupt is active. */
ARM GAS  C:\Users\Rajesh\AppData\Local\Temp\cchFolwL.s 			page 3


  69:Generated_Source\PSoC5/Timeout_Timer_Isr.c ****     Timeout_Timer_Isr_Disable();
  47              		.loc 1 69 0
  48 0004 FFF7FEFF 		bl	Timeout_Timer_Isr_Disable
  70:Generated_Source\PSoC5/Timeout_Timer_Isr.c **** 
  71:Generated_Source\PSoC5/Timeout_Timer_Isr.c ****     /* Set the ISR to point to the Timeout_Timer_Isr Interrupt. */
  72:Generated_Source\PSoC5/Timeout_Timer_Isr.c ****     Timeout_Timer_Isr_SetVector(&Timeout_Timer_Isr_Interrupt);
  49              		.loc 1 72 0
  50 0008 0448     		ldr	r0, .L2
  51 000a FFF7FEFF 		bl	Timeout_Timer_Isr_SetVector
  73:Generated_Source\PSoC5/Timeout_Timer_Isr.c **** 
  74:Generated_Source\PSoC5/Timeout_Timer_Isr.c ****     /* Set the priority. */
  75:Generated_Source\PSoC5/Timeout_Timer_Isr.c ****     Timeout_Timer_Isr_SetPriority((uint8)Timeout_Timer_Isr_INTC_PRIOR_NUMBER);
  52              		.loc 1 75 0
  53 000e 0720     		movs	r0, #7
  54 0010 FFF7FEFF 		bl	Timeout_Timer_Isr_SetPriority
  76:Generated_Source\PSoC5/Timeout_Timer_Isr.c **** 
  77:Generated_Source\PSoC5/Timeout_Timer_Isr.c ****     /* Enable it. */
  78:Generated_Source\PSoC5/Timeout_Timer_Isr.c ****     Timeout_Timer_Isr_Enable();
  55              		.loc 1 78 0
  56 0014 FFF7FEFF 		bl	Timeout_Timer_Isr_Enable
  79:Generated_Source\PSoC5/Timeout_Timer_Isr.c **** }
  57              		.loc 1 79 0
  58 0018 00BF     		nop
  59 001a 80BD     		pop	{r7, pc}
  60              	.L3:
  61              		.align	2
  62              	.L2:
  63 001c 00000000 		.word	Timeout_Timer_Isr_Interrupt
  64              		.cfi_endproc
  65              	.LFE63:
  66              		.size	Timeout_Timer_Isr_Start, .-Timeout_Timer_Isr_Start
  67              		.section	.text.Timeout_Timer_Isr_StartEx,"ax",%progbits
  68              		.align	2
  69              		.global	Timeout_Timer_Isr_StartEx
  70              		.thumb
  71              		.thumb_func
  72              		.type	Timeout_Timer_Isr_StartEx, %function
  73              	Timeout_Timer_Isr_StartEx:
  74              	.LFB64:
  80:Generated_Source\PSoC5/Timeout_Timer_Isr.c **** 
  81:Generated_Source\PSoC5/Timeout_Timer_Isr.c **** 
  82:Generated_Source\PSoC5/Timeout_Timer_Isr.c **** /*******************************************************************************
  83:Generated_Source\PSoC5/Timeout_Timer_Isr.c **** * Function Name: Timeout_Timer_Isr_StartEx
  84:Generated_Source\PSoC5/Timeout_Timer_Isr.c **** ********************************************************************************
  85:Generated_Source\PSoC5/Timeout_Timer_Isr.c **** *
  86:Generated_Source\PSoC5/Timeout_Timer_Isr.c **** * Summary:
  87:Generated_Source\PSoC5/Timeout_Timer_Isr.c **** *  Sets up the interrupt and enables it. This function disables the interrupt,
  88:Generated_Source\PSoC5/Timeout_Timer_Isr.c **** *  sets the interrupt vector based on the address passed in, sets the priority 
  89:Generated_Source\PSoC5/Timeout_Timer_Isr.c **** *  from the value in the Design Wide Resources Interrupt Editor, then enables 
  90:Generated_Source\PSoC5/Timeout_Timer_Isr.c **** *  the interrupt to the interrupt controller.
  91:Generated_Source\PSoC5/Timeout_Timer_Isr.c **** *  
  92:Generated_Source\PSoC5/Timeout_Timer_Isr.c **** *  When defining ISR functions, the CY_ISR and CY_ISR_PROTO macros should be 
  93:Generated_Source\PSoC5/Timeout_Timer_Isr.c **** *  used to provide consistent definition across compilers:
  94:Generated_Source\PSoC5/Timeout_Timer_Isr.c **** *  
  95:Generated_Source\PSoC5/Timeout_Timer_Isr.c **** *  Function definition example:
  96:Generated_Source\PSoC5/Timeout_Timer_Isr.c **** *   CY_ISR(MyISR)
  97:Generated_Source\PSoC5/Timeout_Timer_Isr.c **** *   {
ARM GAS  C:\Users\Rajesh\AppData\Local\Temp\cchFolwL.s 			page 4


  98:Generated_Source\PSoC5/Timeout_Timer_Isr.c **** *   }
  99:Generated_Source\PSoC5/Timeout_Timer_Isr.c **** *   Function prototype example:
 100:Generated_Source\PSoC5/Timeout_Timer_Isr.c **** *   CY_ISR_PROTO(MyISR);
 101:Generated_Source\PSoC5/Timeout_Timer_Isr.c **** *
 102:Generated_Source\PSoC5/Timeout_Timer_Isr.c **** * Parameters:  
 103:Generated_Source\PSoC5/Timeout_Timer_Isr.c **** *   address: Address of the ISR to set in the interrupt vector table.
 104:Generated_Source\PSoC5/Timeout_Timer_Isr.c **** *
 105:Generated_Source\PSoC5/Timeout_Timer_Isr.c **** * Return:
 106:Generated_Source\PSoC5/Timeout_Timer_Isr.c **** *   None
 107:Generated_Source\PSoC5/Timeout_Timer_Isr.c **** *
 108:Generated_Source\PSoC5/Timeout_Timer_Isr.c **** *******************************************************************************/
 109:Generated_Source\PSoC5/Timeout_Timer_Isr.c **** void Timeout_Timer_Isr_StartEx(cyisraddress address)
 110:Generated_Source\PSoC5/Timeout_Timer_Isr.c **** {
  75              		.loc 1 110 0
  76              		.cfi_startproc
  77              		@ args = 0, pretend = 0, frame = 8
  78              		@ frame_needed = 1, uses_anonymous_args = 0
  79 0000 80B5     		push	{r7, lr}
  80              		.cfi_def_cfa_offset 8
  81              		.cfi_offset 7, -8
  82              		.cfi_offset 14, -4
  83 0002 82B0     		sub	sp, sp, #8
  84              		.cfi_def_cfa_offset 16
  85 0004 00AF     		add	r7, sp, #0
  86              		.cfi_def_cfa_register 7
  87 0006 7860     		str	r0, [r7, #4]
 111:Generated_Source\PSoC5/Timeout_Timer_Isr.c ****     /* For all we know the interrupt is active. */
 112:Generated_Source\PSoC5/Timeout_Timer_Isr.c ****     Timeout_Timer_Isr_Disable();
  88              		.loc 1 112 0
  89 0008 FFF7FEFF 		bl	Timeout_Timer_Isr_Disable
 113:Generated_Source\PSoC5/Timeout_Timer_Isr.c **** 
 114:Generated_Source\PSoC5/Timeout_Timer_Isr.c ****     /* Set the ISR to point to the Timeout_Timer_Isr Interrupt. */
 115:Generated_Source\PSoC5/Timeout_Timer_Isr.c ****     Timeout_Timer_Isr_SetVector(address);
  90              		.loc 1 115 0
  91 000c 7868     		ldr	r0, [r7, #4]
  92 000e FFF7FEFF 		bl	Timeout_Timer_Isr_SetVector
 116:Generated_Source\PSoC5/Timeout_Timer_Isr.c **** 
 117:Generated_Source\PSoC5/Timeout_Timer_Isr.c ****     /* Set the priority. */
 118:Generated_Source\PSoC5/Timeout_Timer_Isr.c ****     Timeout_Timer_Isr_SetPriority((uint8)Timeout_Timer_Isr_INTC_PRIOR_NUMBER);
  93              		.loc 1 118 0
  94 0012 0720     		movs	r0, #7
  95 0014 FFF7FEFF 		bl	Timeout_Timer_Isr_SetPriority
 119:Generated_Source\PSoC5/Timeout_Timer_Isr.c **** 
 120:Generated_Source\PSoC5/Timeout_Timer_Isr.c ****     /* Enable it. */
 121:Generated_Source\PSoC5/Timeout_Timer_Isr.c ****     Timeout_Timer_Isr_Enable();
  96              		.loc 1 121 0
  97 0018 FFF7FEFF 		bl	Timeout_Timer_Isr_Enable
 122:Generated_Source\PSoC5/Timeout_Timer_Isr.c **** }
  98              		.loc 1 122 0
  99 001c 00BF     		nop
 100 001e 0837     		adds	r7, r7, #8
 101              		.cfi_def_cfa_offset 8
 102 0020 BD46     		mov	sp, r7
 103              		.cfi_def_cfa_register 13
 104              		@ sp needed
 105 0022 80BD     		pop	{r7, pc}
 106              		.cfi_endproc
ARM GAS  C:\Users\Rajesh\AppData\Local\Temp\cchFolwL.s 			page 5


 107              	.LFE64:
 108              		.size	Timeout_Timer_Isr_StartEx, .-Timeout_Timer_Isr_StartEx
 109              		.section	.text.Timeout_Timer_Isr_Stop,"ax",%progbits
 110              		.align	2
 111              		.global	Timeout_Timer_Isr_Stop
 112              		.thumb
 113              		.thumb_func
 114              		.type	Timeout_Timer_Isr_Stop, %function
 115              	Timeout_Timer_Isr_Stop:
 116              	.LFB65:
 123:Generated_Source\PSoC5/Timeout_Timer_Isr.c **** 
 124:Generated_Source\PSoC5/Timeout_Timer_Isr.c **** 
 125:Generated_Source\PSoC5/Timeout_Timer_Isr.c **** /*******************************************************************************
 126:Generated_Source\PSoC5/Timeout_Timer_Isr.c **** * Function Name: Timeout_Timer_Isr_Stop
 127:Generated_Source\PSoC5/Timeout_Timer_Isr.c **** ********************************************************************************
 128:Generated_Source\PSoC5/Timeout_Timer_Isr.c **** *
 129:Generated_Source\PSoC5/Timeout_Timer_Isr.c **** * Summary:
 130:Generated_Source\PSoC5/Timeout_Timer_Isr.c **** *   Disables and removes the interrupt.
 131:Generated_Source\PSoC5/Timeout_Timer_Isr.c **** *
 132:Generated_Source\PSoC5/Timeout_Timer_Isr.c **** * Parameters:  
 133:Generated_Source\PSoC5/Timeout_Timer_Isr.c **** *   None
 134:Generated_Source\PSoC5/Timeout_Timer_Isr.c **** *
 135:Generated_Source\PSoC5/Timeout_Timer_Isr.c **** * Return:
 136:Generated_Source\PSoC5/Timeout_Timer_Isr.c **** *   None
 137:Generated_Source\PSoC5/Timeout_Timer_Isr.c **** *
 138:Generated_Source\PSoC5/Timeout_Timer_Isr.c **** *******************************************************************************/
 139:Generated_Source\PSoC5/Timeout_Timer_Isr.c **** void Timeout_Timer_Isr_Stop(void)
 140:Generated_Source\PSoC5/Timeout_Timer_Isr.c **** {
 117              		.loc 1 140 0
 118              		.cfi_startproc
 119              		@ args = 0, pretend = 0, frame = 0
 120              		@ frame_needed = 1, uses_anonymous_args = 0
 121 0000 80B5     		push	{r7, lr}
 122              		.cfi_def_cfa_offset 8
 123              		.cfi_offset 7, -8
 124              		.cfi_offset 14, -4
 125 0002 00AF     		add	r7, sp, #0
 126              		.cfi_def_cfa_register 7
 141:Generated_Source\PSoC5/Timeout_Timer_Isr.c ****     /* Disable this interrupt. */
 142:Generated_Source\PSoC5/Timeout_Timer_Isr.c ****     Timeout_Timer_Isr_Disable();
 127              		.loc 1 142 0
 128 0004 FFF7FEFF 		bl	Timeout_Timer_Isr_Disable
 143:Generated_Source\PSoC5/Timeout_Timer_Isr.c **** 
 144:Generated_Source\PSoC5/Timeout_Timer_Isr.c ****     /* Set the ISR to point to the passive one. */
 145:Generated_Source\PSoC5/Timeout_Timer_Isr.c ****     Timeout_Timer_Isr_SetVector(&IntDefaultHandler);
 129              		.loc 1 145 0
 130 0008 0248     		ldr	r0, .L6
 131 000a FFF7FEFF 		bl	Timeout_Timer_Isr_SetVector
 146:Generated_Source\PSoC5/Timeout_Timer_Isr.c **** }
 132              		.loc 1 146 0
 133 000e 00BF     		nop
 134 0010 80BD     		pop	{r7, pc}
 135              	.L7:
 136 0012 00BF     		.align	2
 137              	.L6:
 138 0014 00000000 		.word	IntDefaultHandler
 139              		.cfi_endproc
ARM GAS  C:\Users\Rajesh\AppData\Local\Temp\cchFolwL.s 			page 6


 140              	.LFE65:
 141              		.size	Timeout_Timer_Isr_Stop, .-Timeout_Timer_Isr_Stop
 142              		.section	.text.Timeout_Timer_Isr_Interrupt,"ax",%progbits
 143              		.align	2
 144              		.global	Timeout_Timer_Isr_Interrupt
 145              		.thumb
 146              		.thumb_func
 147              		.type	Timeout_Timer_Isr_Interrupt, %function
 148              	Timeout_Timer_Isr_Interrupt:
 149              	.LFB66:
 147:Generated_Source\PSoC5/Timeout_Timer_Isr.c **** 
 148:Generated_Source\PSoC5/Timeout_Timer_Isr.c **** 
 149:Generated_Source\PSoC5/Timeout_Timer_Isr.c **** /*******************************************************************************
 150:Generated_Source\PSoC5/Timeout_Timer_Isr.c **** * Function Name: Timeout_Timer_Isr_Interrupt
 151:Generated_Source\PSoC5/Timeout_Timer_Isr.c **** ********************************************************************************
 152:Generated_Source\PSoC5/Timeout_Timer_Isr.c **** *
 153:Generated_Source\PSoC5/Timeout_Timer_Isr.c **** * Summary:
 154:Generated_Source\PSoC5/Timeout_Timer_Isr.c **** *   The default Interrupt Service Routine for Timeout_Timer_Isr.
 155:Generated_Source\PSoC5/Timeout_Timer_Isr.c **** *
 156:Generated_Source\PSoC5/Timeout_Timer_Isr.c **** *   Add custom code between the coments to keep the next version of this file
 157:Generated_Source\PSoC5/Timeout_Timer_Isr.c **** *   from over writting your code.
 158:Generated_Source\PSoC5/Timeout_Timer_Isr.c **** *
 159:Generated_Source\PSoC5/Timeout_Timer_Isr.c **** * Parameters:  
 160:Generated_Source\PSoC5/Timeout_Timer_Isr.c **** *
 161:Generated_Source\PSoC5/Timeout_Timer_Isr.c **** * Return:
 162:Generated_Source\PSoC5/Timeout_Timer_Isr.c **** *   None
 163:Generated_Source\PSoC5/Timeout_Timer_Isr.c **** *
 164:Generated_Source\PSoC5/Timeout_Timer_Isr.c **** *******************************************************************************/
 165:Generated_Source\PSoC5/Timeout_Timer_Isr.c **** CY_ISR(Timeout_Timer_Isr_Interrupt)
 166:Generated_Source\PSoC5/Timeout_Timer_Isr.c **** {
 150              		.loc 1 166 0
 151              		.cfi_startproc
 152              		@ args = 0, pretend = 0, frame = 0
 153              		@ frame_needed = 1, uses_anonymous_args = 0
 154 0000 80B5     		push	{r7, lr}
 155              		.cfi_def_cfa_offset 8
 156              		.cfi_offset 7, -8
 157              		.cfi_offset 14, -4
 158 0002 00AF     		add	r7, sp, #0
 159              		.cfi_def_cfa_register 7
 167:Generated_Source\PSoC5/Timeout_Timer_Isr.c ****     #ifdef Timeout_Timer_Isr_INTERRUPT_INTERRUPT_CALLBACK
 168:Generated_Source\PSoC5/Timeout_Timer_Isr.c ****         Timeout_Timer_Isr_Interrupt_InterruptCallback();
 169:Generated_Source\PSoC5/Timeout_Timer_Isr.c ****     #endif /* Timeout_Timer_Isr_INTERRUPT_INTERRUPT_CALLBACK */ 
 170:Generated_Source\PSoC5/Timeout_Timer_Isr.c **** 
 171:Generated_Source\PSoC5/Timeout_Timer_Isr.c ****     /*  Place your Interrupt code here. */
 172:Generated_Source\PSoC5/Timeout_Timer_Isr.c ****     /* `#START Timeout_Timer_Isr_Interrupt` */
 173:Generated_Source\PSoC5/Timeout_Timer_Isr.c ****     //50us interrupt
 174:Generated_Source\PSoC5/Timeout_Timer_Isr.c ****     Timeout_Timer_ReadStatusRegister(); 
 160              		.loc 1 174 0
 161 0004 FFF7FEFF 		bl	Timeout_Timer_ReadStatusRegister
 175:Generated_Source\PSoC5/Timeout_Timer_Isr.c ****     osdp_timeout++;
 162              		.loc 1 175 0
 163 0008 134B     		ldr	r3, .L11
 164 000a 1B68     		ldr	r3, [r3]
 165 000c 0133     		adds	r3, r3, #1
 166 000e 124A     		ldr	r2, .L11
 167 0010 1360     		str	r3, [r2]
ARM GAS  C:\Users\Rajesh\AppData\Local\Temp\cchFolwL.s 			page 7


 176:Generated_Source\PSoC5/Timeout_Timer_Isr.c ****     f2f_timeout++;
 168              		.loc 1 176 0
 169 0012 124B     		ldr	r3, .L11+4
 170 0014 1B68     		ldr	r3, [r3]
 171 0016 0133     		adds	r3, r3, #1
 172 0018 104A     		ldr	r2, .L11+4
 173 001a 1360     		str	r3, [r2]
 177:Generated_Source\PSoC5/Timeout_Timer_Isr.c ****     passmode_timeout++;
 174              		.loc 1 177 0
 175 001c 104B     		ldr	r3, .L11+8
 176 001e 1B68     		ldr	r3, [r3]
 177 0020 0133     		adds	r3, r3, #1
 178 0022 0F4A     		ldr	r2, .L11+8
 179 0024 1360     		str	r3, [r2]
 178:Generated_Source\PSoC5/Timeout_Timer_Isr.c ****     if (isr_WD_SYNC_GetState() && isWiegandDataStart){
 180              		.loc 1 178 0
 181 0026 FFF7FEFF 		bl	isr_WD_SYNC_GetState
 182 002a 0346     		mov	r3, r0
 183 002c 002B     		cmp	r3, #0
 184 002e 11D0     		beq	.L10
 185              		.loc 1 178 0 is_stmt 0 discriminator 1
 186 0030 0C4B     		ldr	r3, .L11+12
 187 0032 1B78     		ldrb	r3, [r3]	@ zero_extendqisi2
 188 0034 002B     		cmp	r3, #0
 189 0036 0DD0     		beq	.L10
 179:Generated_Source\PSoC5/Timeout_Timer_Isr.c ****         if(passmode_timeout > 80){
 190              		.loc 1 179 0 is_stmt 1
 191 0038 094B     		ldr	r3, .L11+8
 192 003a 1B68     		ldr	r3, [r3]
 193 003c 502B     		cmp	r3, #80
 194 003e 09DD     		ble	.L10
 180:Generated_Source\PSoC5/Timeout_Timer_Isr.c ****             isr_WD_SYNC_Disable();
 195              		.loc 1 180 0
 196 0040 FFF7FEFF 		bl	isr_WD_SYNC_Disable
 181:Generated_Source\PSoC5/Timeout_Timer_Isr.c ****             isWiegandDataStart = 0;
 197              		.loc 1 181 0
 198 0044 074B     		ldr	r3, .L11+12
 199 0046 0022     		movs	r2, #0
 200 0048 1A70     		strb	r2, [r3]
 182:Generated_Source\PSoC5/Timeout_Timer_Isr.c ****             isWiegandDataReady = 1;
 201              		.loc 1 182 0
 202 004a 074B     		ldr	r3, .L11+16
 203 004c 0122     		movs	r2, #1
 204 004e 1A70     		strb	r2, [r3]
 183:Generated_Source\PSoC5/Timeout_Timer_Isr.c ****             isr_WD_SYNC_Enable();
 205              		.loc 1 183 0
 206 0050 FFF7FEFF 		bl	isr_WD_SYNC_Enable
 207              	.L10:
 184:Generated_Source\PSoC5/Timeout_Timer_Isr.c ****         }
 185:Generated_Source\PSoC5/Timeout_Timer_Isr.c ****     }
 186:Generated_Source\PSoC5/Timeout_Timer_Isr.c ****    // if(passmode_timeout > 80)
 187:Generated_Source\PSoC5/Timeout_Timer_Isr.c ****     /* `#END` */
 188:Generated_Source\PSoC5/Timeout_Timer_Isr.c **** }
 208              		.loc 1 188 0
 209 0054 00BF     		nop
 210 0056 80BD     		pop	{r7, pc}
 211              	.L12:
ARM GAS  C:\Users\Rajesh\AppData\Local\Temp\cchFolwL.s 			page 8


 212              		.align	2
 213              	.L11:
 214 0058 00000000 		.word	osdp_timeout
 215 005c 00000000 		.word	f2f_timeout
 216 0060 00000000 		.word	passmode_timeout
 217 0064 00000000 		.word	isWiegandDataStart
 218 0068 00000000 		.word	isWiegandDataReady
 219              		.cfi_endproc
 220              	.LFE66:
 221              		.size	Timeout_Timer_Isr_Interrupt, .-Timeout_Timer_Isr_Interrupt
 222              		.section	.text.Timeout_Timer_Isr_SetVector,"ax",%progbits
 223              		.align	2
 224              		.global	Timeout_Timer_Isr_SetVector
 225              		.thumb
 226              		.thumb_func
 227              		.type	Timeout_Timer_Isr_SetVector, %function
 228              	Timeout_Timer_Isr_SetVector:
 229              	.LFB67:
 189:Generated_Source\PSoC5/Timeout_Timer_Isr.c **** 
 190:Generated_Source\PSoC5/Timeout_Timer_Isr.c **** 
 191:Generated_Source\PSoC5/Timeout_Timer_Isr.c **** /*******************************************************************************
 192:Generated_Source\PSoC5/Timeout_Timer_Isr.c **** * Function Name: Timeout_Timer_Isr_SetVector
 193:Generated_Source\PSoC5/Timeout_Timer_Isr.c **** ********************************************************************************
 194:Generated_Source\PSoC5/Timeout_Timer_Isr.c **** *
 195:Generated_Source\PSoC5/Timeout_Timer_Isr.c **** * Summary:
 196:Generated_Source\PSoC5/Timeout_Timer_Isr.c **** *   Change the ISR vector for the Interrupt. Note calling Timeout_Timer_Isr_Start
 197:Generated_Source\PSoC5/Timeout_Timer_Isr.c **** *   will override any effect this method would have had. To set the vector 
 198:Generated_Source\PSoC5/Timeout_Timer_Isr.c **** *   before the component has been started use Timeout_Timer_Isr_StartEx instead.
 199:Generated_Source\PSoC5/Timeout_Timer_Isr.c **** * 
 200:Generated_Source\PSoC5/Timeout_Timer_Isr.c **** *   When defining ISR functions, the CY_ISR and CY_ISR_PROTO macros should be 
 201:Generated_Source\PSoC5/Timeout_Timer_Isr.c **** *   used to provide consistent definition across compilers:
 202:Generated_Source\PSoC5/Timeout_Timer_Isr.c **** *
 203:Generated_Source\PSoC5/Timeout_Timer_Isr.c **** *   Function definition example:
 204:Generated_Source\PSoC5/Timeout_Timer_Isr.c **** *   CY_ISR(MyISR)
 205:Generated_Source\PSoC5/Timeout_Timer_Isr.c **** *   {
 206:Generated_Source\PSoC5/Timeout_Timer_Isr.c **** *   }
 207:Generated_Source\PSoC5/Timeout_Timer_Isr.c **** *
 208:Generated_Source\PSoC5/Timeout_Timer_Isr.c **** *   Function prototype example:
 209:Generated_Source\PSoC5/Timeout_Timer_Isr.c **** *     CY_ISR_PROTO(MyISR);
 210:Generated_Source\PSoC5/Timeout_Timer_Isr.c **** *
 211:Generated_Source\PSoC5/Timeout_Timer_Isr.c **** * Parameters:
 212:Generated_Source\PSoC5/Timeout_Timer_Isr.c **** *   address: Address of the ISR to set in the interrupt vector table.
 213:Generated_Source\PSoC5/Timeout_Timer_Isr.c **** *
 214:Generated_Source\PSoC5/Timeout_Timer_Isr.c **** * Return:
 215:Generated_Source\PSoC5/Timeout_Timer_Isr.c **** *   None
 216:Generated_Source\PSoC5/Timeout_Timer_Isr.c **** *
 217:Generated_Source\PSoC5/Timeout_Timer_Isr.c **** *******************************************************************************/
 218:Generated_Source\PSoC5/Timeout_Timer_Isr.c **** void Timeout_Timer_Isr_SetVector(cyisraddress address)
 219:Generated_Source\PSoC5/Timeout_Timer_Isr.c **** {
 230              		.loc 1 219 0
 231              		.cfi_startproc
 232              		@ args = 0, pretend = 0, frame = 16
 233              		@ frame_needed = 1, uses_anonymous_args = 0
 234              		@ link register save eliminated.
 235 0000 80B4     		push	{r7}
 236              		.cfi_def_cfa_offset 4
 237              		.cfi_offset 7, -4
ARM GAS  C:\Users\Rajesh\AppData\Local\Temp\cchFolwL.s 			page 9


 238 0002 85B0     		sub	sp, sp, #20
 239              		.cfi_def_cfa_offset 24
 240 0004 00AF     		add	r7, sp, #0
 241              		.cfi_def_cfa_register 7
 242 0006 7860     		str	r0, [r7, #4]
 220:Generated_Source\PSoC5/Timeout_Timer_Isr.c ****     cyisraddress * ramVectorTable;
 221:Generated_Source\PSoC5/Timeout_Timer_Isr.c **** 
 222:Generated_Source\PSoC5/Timeout_Timer_Isr.c ****     ramVectorTable = (cyisraddress *) *CYINT_VECT_TABLE;
 243              		.loc 1 222 0
 244 0008 054B     		ldr	r3, .L14
 245 000a 1B68     		ldr	r3, [r3]
 246 000c FB60     		str	r3, [r7, #12]
 223:Generated_Source\PSoC5/Timeout_Timer_Isr.c **** 
 224:Generated_Source\PSoC5/Timeout_Timer_Isr.c ****     ramVectorTable[CYINT_IRQ_BASE + (uint32)Timeout_Timer_Isr__INTC_NUMBER] = address;
 247              		.loc 1 224 0
 248 000e FB68     		ldr	r3, [r7, #12]
 249 0010 8833     		adds	r3, r3, #136
 250 0012 7A68     		ldr	r2, [r7, #4]
 251 0014 1A60     		str	r2, [r3]
 225:Generated_Source\PSoC5/Timeout_Timer_Isr.c **** }
 252              		.loc 1 225 0
 253 0016 00BF     		nop
 254 0018 1437     		adds	r7, r7, #20
 255              		.cfi_def_cfa_offset 4
 256 001a BD46     		mov	sp, r7
 257              		.cfi_def_cfa_register 13
 258              		@ sp needed
 259 001c 80BC     		pop	{r7}
 260              		.cfi_restore 7
 261              		.cfi_def_cfa_offset 0
 262 001e 7047     		bx	lr
 263              	.L15:
 264              		.align	2
 265              	.L14:
 266 0020 08ED00E0 		.word	-536810232
 267              		.cfi_endproc
 268              	.LFE67:
 269              		.size	Timeout_Timer_Isr_SetVector, .-Timeout_Timer_Isr_SetVector
 270              		.section	.text.Timeout_Timer_Isr_GetVector,"ax",%progbits
 271              		.align	2
 272              		.global	Timeout_Timer_Isr_GetVector
 273              		.thumb
 274              		.thumb_func
 275              		.type	Timeout_Timer_Isr_GetVector, %function
 276              	Timeout_Timer_Isr_GetVector:
 277              	.LFB68:
 226:Generated_Source\PSoC5/Timeout_Timer_Isr.c **** 
 227:Generated_Source\PSoC5/Timeout_Timer_Isr.c **** 
 228:Generated_Source\PSoC5/Timeout_Timer_Isr.c **** /*******************************************************************************
 229:Generated_Source\PSoC5/Timeout_Timer_Isr.c **** * Function Name: Timeout_Timer_Isr_GetVector
 230:Generated_Source\PSoC5/Timeout_Timer_Isr.c **** ********************************************************************************
 231:Generated_Source\PSoC5/Timeout_Timer_Isr.c **** *
 232:Generated_Source\PSoC5/Timeout_Timer_Isr.c **** * Summary:
 233:Generated_Source\PSoC5/Timeout_Timer_Isr.c **** *   Gets the "address" of the current ISR vector for the Interrupt.
 234:Generated_Source\PSoC5/Timeout_Timer_Isr.c **** *
 235:Generated_Source\PSoC5/Timeout_Timer_Isr.c **** * Parameters:
 236:Generated_Source\PSoC5/Timeout_Timer_Isr.c **** *   None
ARM GAS  C:\Users\Rajesh\AppData\Local\Temp\cchFolwL.s 			page 10


 237:Generated_Source\PSoC5/Timeout_Timer_Isr.c **** *
 238:Generated_Source\PSoC5/Timeout_Timer_Isr.c **** * Return:
 239:Generated_Source\PSoC5/Timeout_Timer_Isr.c **** *   Address of the ISR in the interrupt vector table.
 240:Generated_Source\PSoC5/Timeout_Timer_Isr.c **** *
 241:Generated_Source\PSoC5/Timeout_Timer_Isr.c **** *******************************************************************************/
 242:Generated_Source\PSoC5/Timeout_Timer_Isr.c **** cyisraddress Timeout_Timer_Isr_GetVector(void)
 243:Generated_Source\PSoC5/Timeout_Timer_Isr.c **** {
 278              		.loc 1 243 0
 279              		.cfi_startproc
 280              		@ args = 0, pretend = 0, frame = 8
 281              		@ frame_needed = 1, uses_anonymous_args = 0
 282              		@ link register save eliminated.
 283 0000 80B4     		push	{r7}
 284              		.cfi_def_cfa_offset 4
 285              		.cfi_offset 7, -4
 286 0002 83B0     		sub	sp, sp, #12
 287              		.cfi_def_cfa_offset 16
 288 0004 00AF     		add	r7, sp, #0
 289              		.cfi_def_cfa_register 7
 244:Generated_Source\PSoC5/Timeout_Timer_Isr.c ****     cyisraddress * ramVectorTable;
 245:Generated_Source\PSoC5/Timeout_Timer_Isr.c **** 
 246:Generated_Source\PSoC5/Timeout_Timer_Isr.c ****     ramVectorTable = (cyisraddress *) *CYINT_VECT_TABLE;
 290              		.loc 1 246 0
 291 0006 054B     		ldr	r3, .L18
 292 0008 1B68     		ldr	r3, [r3]
 293 000a 7B60     		str	r3, [r7, #4]
 247:Generated_Source\PSoC5/Timeout_Timer_Isr.c **** 
 248:Generated_Source\PSoC5/Timeout_Timer_Isr.c ****     return ramVectorTable[CYINT_IRQ_BASE + (uint32)Timeout_Timer_Isr__INTC_NUMBER];
 294              		.loc 1 248 0
 295 000c 7B68     		ldr	r3, [r7, #4]
 296 000e D3F88830 		ldr	r3, [r3, #136]
 249:Generated_Source\PSoC5/Timeout_Timer_Isr.c **** }
 297              		.loc 1 249 0
 298 0012 1846     		mov	r0, r3
 299 0014 0C37     		adds	r7, r7, #12
 300              		.cfi_def_cfa_offset 4
 301 0016 BD46     		mov	sp, r7
 302              		.cfi_def_cfa_register 13
 303              		@ sp needed
 304 0018 80BC     		pop	{r7}
 305              		.cfi_restore 7
 306              		.cfi_def_cfa_offset 0
 307 001a 7047     		bx	lr
 308              	.L19:
 309              		.align	2
 310              	.L18:
 311 001c 08ED00E0 		.word	-536810232
 312              		.cfi_endproc
 313              	.LFE68:
 314              		.size	Timeout_Timer_Isr_GetVector, .-Timeout_Timer_Isr_GetVector
 315              		.section	.text.Timeout_Timer_Isr_SetPriority,"ax",%progbits
 316              		.align	2
 317              		.global	Timeout_Timer_Isr_SetPriority
 318              		.thumb
 319              		.thumb_func
 320              		.type	Timeout_Timer_Isr_SetPriority, %function
 321              	Timeout_Timer_Isr_SetPriority:
ARM GAS  C:\Users\Rajesh\AppData\Local\Temp\cchFolwL.s 			page 11


 322              	.LFB69:
 250:Generated_Source\PSoC5/Timeout_Timer_Isr.c **** 
 251:Generated_Source\PSoC5/Timeout_Timer_Isr.c **** 
 252:Generated_Source\PSoC5/Timeout_Timer_Isr.c **** /*******************************************************************************
 253:Generated_Source\PSoC5/Timeout_Timer_Isr.c **** * Function Name: Timeout_Timer_Isr_SetPriority
 254:Generated_Source\PSoC5/Timeout_Timer_Isr.c **** ********************************************************************************
 255:Generated_Source\PSoC5/Timeout_Timer_Isr.c **** *
 256:Generated_Source\PSoC5/Timeout_Timer_Isr.c **** * Summary:
 257:Generated_Source\PSoC5/Timeout_Timer_Isr.c **** *   Sets the Priority of the Interrupt. 
 258:Generated_Source\PSoC5/Timeout_Timer_Isr.c **** *
 259:Generated_Source\PSoC5/Timeout_Timer_Isr.c **** *   Note calling Timeout_Timer_Isr_Start or Timeout_Timer_Isr_StartEx will 
 260:Generated_Source\PSoC5/Timeout_Timer_Isr.c **** *   override any effect this API would have had. This API should only be called
 261:Generated_Source\PSoC5/Timeout_Timer_Isr.c **** *   after Timeout_Timer_Isr_Start or Timeout_Timer_Isr_StartEx has been called. 
 262:Generated_Source\PSoC5/Timeout_Timer_Isr.c **** *   To set the initial priority for the component, use the Design-Wide Resources
 263:Generated_Source\PSoC5/Timeout_Timer_Isr.c **** *   Interrupt Editor.
 264:Generated_Source\PSoC5/Timeout_Timer_Isr.c **** *
 265:Generated_Source\PSoC5/Timeout_Timer_Isr.c **** *   Note This API has no effect on Non-maskable interrupt NMI).
 266:Generated_Source\PSoC5/Timeout_Timer_Isr.c **** *
 267:Generated_Source\PSoC5/Timeout_Timer_Isr.c **** * Parameters:
 268:Generated_Source\PSoC5/Timeout_Timer_Isr.c **** *   priority: Priority of the interrupt, 0 being the highest priority
 269:Generated_Source\PSoC5/Timeout_Timer_Isr.c **** *             PSoC 3 and PSoC 5LP: Priority is from 0 to 7.
 270:Generated_Source\PSoC5/Timeout_Timer_Isr.c **** *             PSoC 4: Priority is from 0 to 3.
 271:Generated_Source\PSoC5/Timeout_Timer_Isr.c **** *
 272:Generated_Source\PSoC5/Timeout_Timer_Isr.c **** * Return:
 273:Generated_Source\PSoC5/Timeout_Timer_Isr.c **** *   None
 274:Generated_Source\PSoC5/Timeout_Timer_Isr.c **** *
 275:Generated_Source\PSoC5/Timeout_Timer_Isr.c **** *******************************************************************************/
 276:Generated_Source\PSoC5/Timeout_Timer_Isr.c **** void Timeout_Timer_Isr_SetPriority(uint8 priority)
 277:Generated_Source\PSoC5/Timeout_Timer_Isr.c **** {
 323              		.loc 1 277 0
 324              		.cfi_startproc
 325              		@ args = 0, pretend = 0, frame = 8
 326              		@ frame_needed = 1, uses_anonymous_args = 0
 327              		@ link register save eliminated.
 328 0000 80B4     		push	{r7}
 329              		.cfi_def_cfa_offset 4
 330              		.cfi_offset 7, -4
 331 0002 83B0     		sub	sp, sp, #12
 332              		.cfi_def_cfa_offset 16
 333 0004 00AF     		add	r7, sp, #0
 334              		.cfi_def_cfa_register 7
 335 0006 0346     		mov	r3, r0
 336 0008 FB71     		strb	r3, [r7, #7]
 278:Generated_Source\PSoC5/Timeout_Timer_Isr.c ****     *Timeout_Timer_Isr_INTC_PRIOR = priority << 5;
 337              		.loc 1 278 0
 338 000a 054A     		ldr	r2, .L21
 339 000c FB79     		ldrb	r3, [r7, #7]
 340 000e 5B01     		lsls	r3, r3, #5
 341 0010 DBB2     		uxtb	r3, r3
 342 0012 1370     		strb	r3, [r2]
 279:Generated_Source\PSoC5/Timeout_Timer_Isr.c **** }
 343              		.loc 1 279 0
 344 0014 00BF     		nop
 345 0016 0C37     		adds	r7, r7, #12
 346              		.cfi_def_cfa_offset 4
 347 0018 BD46     		mov	sp, r7
 348              		.cfi_def_cfa_register 13
ARM GAS  C:\Users\Rajesh\AppData\Local\Temp\cchFolwL.s 			page 12


 349              		@ sp needed
 350 001a 80BC     		pop	{r7}
 351              		.cfi_restore 7
 352              		.cfi_def_cfa_offset 0
 353 001c 7047     		bx	lr
 354              	.L22:
 355 001e 00BF     		.align	2
 356              	.L21:
 357 0020 12E400E0 		.word	-536812526
 358              		.cfi_endproc
 359              	.LFE69:
 360              		.size	Timeout_Timer_Isr_SetPriority, .-Timeout_Timer_Isr_SetPriority
 361              		.section	.text.Timeout_Timer_Isr_GetPriority,"ax",%progbits
 362              		.align	2
 363              		.global	Timeout_Timer_Isr_GetPriority
 364              		.thumb
 365              		.thumb_func
 366              		.type	Timeout_Timer_Isr_GetPriority, %function
 367              	Timeout_Timer_Isr_GetPriority:
 368              	.LFB70:
 280:Generated_Source\PSoC5/Timeout_Timer_Isr.c **** 
 281:Generated_Source\PSoC5/Timeout_Timer_Isr.c **** 
 282:Generated_Source\PSoC5/Timeout_Timer_Isr.c **** /*******************************************************************************
 283:Generated_Source\PSoC5/Timeout_Timer_Isr.c **** * Function Name: Timeout_Timer_Isr_GetPriority
 284:Generated_Source\PSoC5/Timeout_Timer_Isr.c **** ********************************************************************************
 285:Generated_Source\PSoC5/Timeout_Timer_Isr.c **** *
 286:Generated_Source\PSoC5/Timeout_Timer_Isr.c **** * Summary:
 287:Generated_Source\PSoC5/Timeout_Timer_Isr.c **** *   Gets the Priority of the Interrupt.
 288:Generated_Source\PSoC5/Timeout_Timer_Isr.c **** *
 289:Generated_Source\PSoC5/Timeout_Timer_Isr.c **** * Parameters:
 290:Generated_Source\PSoC5/Timeout_Timer_Isr.c **** *   None
 291:Generated_Source\PSoC5/Timeout_Timer_Isr.c **** *
 292:Generated_Source\PSoC5/Timeout_Timer_Isr.c **** * Return:
 293:Generated_Source\PSoC5/Timeout_Timer_Isr.c **** *   Priority of the interrupt, 0 being the highest priority
 294:Generated_Source\PSoC5/Timeout_Timer_Isr.c **** *    PSoC 3 and PSoC 5LP: Priority is from 0 to 7.
 295:Generated_Source\PSoC5/Timeout_Timer_Isr.c **** *    PSoC 4: Priority is from 0 to 3.
 296:Generated_Source\PSoC5/Timeout_Timer_Isr.c **** *
 297:Generated_Source\PSoC5/Timeout_Timer_Isr.c **** *******************************************************************************/
 298:Generated_Source\PSoC5/Timeout_Timer_Isr.c **** uint8 Timeout_Timer_Isr_GetPriority(void)
 299:Generated_Source\PSoC5/Timeout_Timer_Isr.c **** {
 369              		.loc 1 299 0
 370              		.cfi_startproc
 371              		@ args = 0, pretend = 0, frame = 8
 372              		@ frame_needed = 1, uses_anonymous_args = 0
 373              		@ link register save eliminated.
 374 0000 80B4     		push	{r7}
 375              		.cfi_def_cfa_offset 4
 376              		.cfi_offset 7, -4
 377 0002 83B0     		sub	sp, sp, #12
 378              		.cfi_def_cfa_offset 16
 379 0004 00AF     		add	r7, sp, #0
 380              		.cfi_def_cfa_register 7
 300:Generated_Source\PSoC5/Timeout_Timer_Isr.c ****     uint8 priority;
 301:Generated_Source\PSoC5/Timeout_Timer_Isr.c **** 
 302:Generated_Source\PSoC5/Timeout_Timer_Isr.c **** 
 303:Generated_Source\PSoC5/Timeout_Timer_Isr.c ****     priority = *Timeout_Timer_Isr_INTC_PRIOR >> 5;
 381              		.loc 1 303 0
ARM GAS  C:\Users\Rajesh\AppData\Local\Temp\cchFolwL.s 			page 13


 382 0006 054B     		ldr	r3, .L25
 383 0008 1B78     		ldrb	r3, [r3]
 384 000a DBB2     		uxtb	r3, r3
 385 000c 5B09     		lsrs	r3, r3, #5
 386 000e FB71     		strb	r3, [r7, #7]
 304:Generated_Source\PSoC5/Timeout_Timer_Isr.c **** 
 305:Generated_Source\PSoC5/Timeout_Timer_Isr.c ****     return priority;
 387              		.loc 1 305 0
 388 0010 FB79     		ldrb	r3, [r7, #7]	@ zero_extendqisi2
 306:Generated_Source\PSoC5/Timeout_Timer_Isr.c **** }
 389              		.loc 1 306 0
 390 0012 1846     		mov	r0, r3
 391 0014 0C37     		adds	r7, r7, #12
 392              		.cfi_def_cfa_offset 4
 393 0016 BD46     		mov	sp, r7
 394              		.cfi_def_cfa_register 13
 395              		@ sp needed
 396 0018 80BC     		pop	{r7}
 397              		.cfi_restore 7
 398              		.cfi_def_cfa_offset 0
 399 001a 7047     		bx	lr
 400              	.L26:
 401              		.align	2
 402              	.L25:
 403 001c 12E400E0 		.word	-536812526
 404              		.cfi_endproc
 405              	.LFE70:
 406              		.size	Timeout_Timer_Isr_GetPriority, .-Timeout_Timer_Isr_GetPriority
 407              		.section	.text.Timeout_Timer_Isr_Enable,"ax",%progbits
 408              		.align	2
 409              		.global	Timeout_Timer_Isr_Enable
 410              		.thumb
 411              		.thumb_func
 412              		.type	Timeout_Timer_Isr_Enable, %function
 413              	Timeout_Timer_Isr_Enable:
 414              	.LFB71:
 307:Generated_Source\PSoC5/Timeout_Timer_Isr.c **** 
 308:Generated_Source\PSoC5/Timeout_Timer_Isr.c **** 
 309:Generated_Source\PSoC5/Timeout_Timer_Isr.c **** /*******************************************************************************
 310:Generated_Source\PSoC5/Timeout_Timer_Isr.c **** * Function Name: Timeout_Timer_Isr_Enable
 311:Generated_Source\PSoC5/Timeout_Timer_Isr.c **** ********************************************************************************
 312:Generated_Source\PSoC5/Timeout_Timer_Isr.c **** *
 313:Generated_Source\PSoC5/Timeout_Timer_Isr.c **** * Summary:
 314:Generated_Source\PSoC5/Timeout_Timer_Isr.c **** *   Enables the interrupt to the interrupt controller. Do not call this function
 315:Generated_Source\PSoC5/Timeout_Timer_Isr.c **** *   unless ISR_Start() has been called or the functionality of the ISR_Start() 
 316:Generated_Source\PSoC5/Timeout_Timer_Isr.c **** *   function, which sets the vector and the priority, has been called.
 317:Generated_Source\PSoC5/Timeout_Timer_Isr.c **** *
 318:Generated_Source\PSoC5/Timeout_Timer_Isr.c **** * Parameters:
 319:Generated_Source\PSoC5/Timeout_Timer_Isr.c **** *   None
 320:Generated_Source\PSoC5/Timeout_Timer_Isr.c **** *
 321:Generated_Source\PSoC5/Timeout_Timer_Isr.c **** * Return:
 322:Generated_Source\PSoC5/Timeout_Timer_Isr.c **** *   None
 323:Generated_Source\PSoC5/Timeout_Timer_Isr.c **** *
 324:Generated_Source\PSoC5/Timeout_Timer_Isr.c **** *******************************************************************************/
 325:Generated_Source\PSoC5/Timeout_Timer_Isr.c **** void Timeout_Timer_Isr_Enable(void)
 326:Generated_Source\PSoC5/Timeout_Timer_Isr.c **** {
 415              		.loc 1 326 0
ARM GAS  C:\Users\Rajesh\AppData\Local\Temp\cchFolwL.s 			page 14


 416              		.cfi_startproc
 417              		@ args = 0, pretend = 0, frame = 0
 418              		@ frame_needed = 1, uses_anonymous_args = 0
 419              		@ link register save eliminated.
 420 0000 80B4     		push	{r7}
 421              		.cfi_def_cfa_offset 4
 422              		.cfi_offset 7, -4
 423 0002 00AF     		add	r7, sp, #0
 424              		.cfi_def_cfa_register 7
 327:Generated_Source\PSoC5/Timeout_Timer_Isr.c ****     /* Enable the general interrupt. */
 328:Generated_Source\PSoC5/Timeout_Timer_Isr.c ****     *Timeout_Timer_Isr_INTC_SET_EN = Timeout_Timer_Isr__INTC_MASK;
 425              		.loc 1 328 0
 426 0004 034B     		ldr	r3, .L28
 427 0006 4FF48022 		mov	r2, #262144
 428 000a 1A60     		str	r2, [r3]
 329:Generated_Source\PSoC5/Timeout_Timer_Isr.c **** }
 429              		.loc 1 329 0
 430 000c 00BF     		nop
 431 000e BD46     		mov	sp, r7
 432              		.cfi_def_cfa_register 13
 433              		@ sp needed
 434 0010 80BC     		pop	{r7}
 435              		.cfi_restore 7
 436              		.cfi_def_cfa_offset 0
 437 0012 7047     		bx	lr
 438              	.L29:
 439              		.align	2
 440              	.L28:
 441 0014 00E100E0 		.word	-536813312
 442              		.cfi_endproc
 443              	.LFE71:
 444              		.size	Timeout_Timer_Isr_Enable, .-Timeout_Timer_Isr_Enable
 445              		.section	.text.Timeout_Timer_Isr_GetState,"ax",%progbits
 446              		.align	2
 447              		.global	Timeout_Timer_Isr_GetState
 448              		.thumb
 449              		.thumb_func
 450              		.type	Timeout_Timer_Isr_GetState, %function
 451              	Timeout_Timer_Isr_GetState:
 452              	.LFB72:
 330:Generated_Source\PSoC5/Timeout_Timer_Isr.c **** 
 331:Generated_Source\PSoC5/Timeout_Timer_Isr.c **** 
 332:Generated_Source\PSoC5/Timeout_Timer_Isr.c **** /*******************************************************************************
 333:Generated_Source\PSoC5/Timeout_Timer_Isr.c **** * Function Name: Timeout_Timer_Isr_GetState
 334:Generated_Source\PSoC5/Timeout_Timer_Isr.c **** ********************************************************************************
 335:Generated_Source\PSoC5/Timeout_Timer_Isr.c **** *
 336:Generated_Source\PSoC5/Timeout_Timer_Isr.c **** * Summary:
 337:Generated_Source\PSoC5/Timeout_Timer_Isr.c **** *   Gets the state (enabled, disabled) of the Interrupt.
 338:Generated_Source\PSoC5/Timeout_Timer_Isr.c **** *
 339:Generated_Source\PSoC5/Timeout_Timer_Isr.c **** * Parameters:
 340:Generated_Source\PSoC5/Timeout_Timer_Isr.c **** *   None
 341:Generated_Source\PSoC5/Timeout_Timer_Isr.c **** *
 342:Generated_Source\PSoC5/Timeout_Timer_Isr.c **** * Return:
 343:Generated_Source\PSoC5/Timeout_Timer_Isr.c **** *   1 if enabled, 0 if disabled.
 344:Generated_Source\PSoC5/Timeout_Timer_Isr.c **** *
 345:Generated_Source\PSoC5/Timeout_Timer_Isr.c **** *******************************************************************************/
 346:Generated_Source\PSoC5/Timeout_Timer_Isr.c **** uint8 Timeout_Timer_Isr_GetState(void)
ARM GAS  C:\Users\Rajesh\AppData\Local\Temp\cchFolwL.s 			page 15


 347:Generated_Source\PSoC5/Timeout_Timer_Isr.c **** {
 453              		.loc 1 347 0
 454              		.cfi_startproc
 455              		@ args = 0, pretend = 0, frame = 0
 456              		@ frame_needed = 1, uses_anonymous_args = 0
 457              		@ link register save eliminated.
 458 0000 80B4     		push	{r7}
 459              		.cfi_def_cfa_offset 4
 460              		.cfi_offset 7, -4
 461 0002 00AF     		add	r7, sp, #0
 462              		.cfi_def_cfa_register 7
 348:Generated_Source\PSoC5/Timeout_Timer_Isr.c ****     /* Get the state of the general interrupt. */
 349:Generated_Source\PSoC5/Timeout_Timer_Isr.c ****     return ((*Timeout_Timer_Isr_INTC_SET_EN & (uint32)Timeout_Timer_Isr__INTC_MASK) != 0u) ? 1u:0u;
 463              		.loc 1 349 0
 464 0004 064B     		ldr	r3, .L34
 465 0006 1B68     		ldr	r3, [r3]
 466 0008 03F48023 		and	r3, r3, #262144
 467 000c 002B     		cmp	r3, #0
 468 000e 01D0     		beq	.L31
 469              		.loc 1 349 0 is_stmt 0 discriminator 1
 470 0010 0123     		movs	r3, #1
 471 0012 00E0     		b	.L32
 472              	.L31:
 473              		.loc 1 349 0 discriminator 2
 474 0014 0023     		movs	r3, #0
 475              	.L32:
 350:Generated_Source\PSoC5/Timeout_Timer_Isr.c **** }
 476              		.loc 1 350 0 is_stmt 1 discriminator 4
 477 0016 1846     		mov	r0, r3
 478 0018 BD46     		mov	sp, r7
 479              		.cfi_def_cfa_register 13
 480              		@ sp needed
 481 001a 80BC     		pop	{r7}
 482              		.cfi_restore 7
 483              		.cfi_def_cfa_offset 0
 484 001c 7047     		bx	lr
 485              	.L35:
 486 001e 00BF     		.align	2
 487              	.L34:
 488 0020 00E100E0 		.word	-536813312
 489              		.cfi_endproc
 490              	.LFE72:
 491              		.size	Timeout_Timer_Isr_GetState, .-Timeout_Timer_Isr_GetState
 492              		.section	.text.Timeout_Timer_Isr_Disable,"ax",%progbits
 493              		.align	2
 494              		.global	Timeout_Timer_Isr_Disable
 495              		.thumb
 496              		.thumb_func
 497              		.type	Timeout_Timer_Isr_Disable, %function
 498              	Timeout_Timer_Isr_Disable:
 499              	.LFB73:
 351:Generated_Source\PSoC5/Timeout_Timer_Isr.c **** 
 352:Generated_Source\PSoC5/Timeout_Timer_Isr.c **** 
 353:Generated_Source\PSoC5/Timeout_Timer_Isr.c **** /*******************************************************************************
 354:Generated_Source\PSoC5/Timeout_Timer_Isr.c **** * Function Name: Timeout_Timer_Isr_Disable
 355:Generated_Source\PSoC5/Timeout_Timer_Isr.c **** ********************************************************************************
 356:Generated_Source\PSoC5/Timeout_Timer_Isr.c **** *
ARM GAS  C:\Users\Rajesh\AppData\Local\Temp\cchFolwL.s 			page 16


 357:Generated_Source\PSoC5/Timeout_Timer_Isr.c **** * Summary:
 358:Generated_Source\PSoC5/Timeout_Timer_Isr.c **** *   Disables the Interrupt in the interrupt controller.
 359:Generated_Source\PSoC5/Timeout_Timer_Isr.c **** *
 360:Generated_Source\PSoC5/Timeout_Timer_Isr.c **** * Parameters:
 361:Generated_Source\PSoC5/Timeout_Timer_Isr.c **** *   None
 362:Generated_Source\PSoC5/Timeout_Timer_Isr.c **** *
 363:Generated_Source\PSoC5/Timeout_Timer_Isr.c **** * Return:
 364:Generated_Source\PSoC5/Timeout_Timer_Isr.c **** *   None
 365:Generated_Source\PSoC5/Timeout_Timer_Isr.c **** *
 366:Generated_Source\PSoC5/Timeout_Timer_Isr.c **** *******************************************************************************/
 367:Generated_Source\PSoC5/Timeout_Timer_Isr.c **** void Timeout_Timer_Isr_Disable(void)
 368:Generated_Source\PSoC5/Timeout_Timer_Isr.c **** {
 500              		.loc 1 368 0
 501              		.cfi_startproc
 502              		@ args = 0, pretend = 0, frame = 0
 503              		@ frame_needed = 1, uses_anonymous_args = 0
 504              		@ link register save eliminated.
 505 0000 80B4     		push	{r7}
 506              		.cfi_def_cfa_offset 4
 507              		.cfi_offset 7, -4
 508 0002 00AF     		add	r7, sp, #0
 509              		.cfi_def_cfa_register 7
 369:Generated_Source\PSoC5/Timeout_Timer_Isr.c ****     /* Disable the general interrupt. */
 370:Generated_Source\PSoC5/Timeout_Timer_Isr.c ****     *Timeout_Timer_Isr_INTC_CLR_EN = Timeout_Timer_Isr__INTC_MASK;
 510              		.loc 1 370 0
 511 0004 034B     		ldr	r3, .L37
 512 0006 4FF48022 		mov	r2, #262144
 513 000a 1A60     		str	r2, [r3]
 371:Generated_Source\PSoC5/Timeout_Timer_Isr.c **** }
 514              		.loc 1 371 0
 515 000c 00BF     		nop
 516 000e BD46     		mov	sp, r7
 517              		.cfi_def_cfa_register 13
 518              		@ sp needed
 519 0010 80BC     		pop	{r7}
 520              		.cfi_restore 7
 521              		.cfi_def_cfa_offset 0
 522 0012 7047     		bx	lr
 523              	.L38:
 524              		.align	2
 525              	.L37:
 526 0014 80E100E0 		.word	-536813184
 527              		.cfi_endproc
 528              	.LFE73:
 529              		.size	Timeout_Timer_Isr_Disable, .-Timeout_Timer_Isr_Disable
 530              		.section	.text.Timeout_Timer_Isr_SetPending,"ax",%progbits
 531              		.align	2
 532              		.global	Timeout_Timer_Isr_SetPending
 533              		.thumb
 534              		.thumb_func
 535              		.type	Timeout_Timer_Isr_SetPending, %function
 536              	Timeout_Timer_Isr_SetPending:
 537              	.LFB74:
 372:Generated_Source\PSoC5/Timeout_Timer_Isr.c **** 
 373:Generated_Source\PSoC5/Timeout_Timer_Isr.c **** 
 374:Generated_Source\PSoC5/Timeout_Timer_Isr.c **** /*******************************************************************************
 375:Generated_Source\PSoC5/Timeout_Timer_Isr.c **** * Function Name: Timeout_Timer_Isr_SetPending
ARM GAS  C:\Users\Rajesh\AppData\Local\Temp\cchFolwL.s 			page 17


 376:Generated_Source\PSoC5/Timeout_Timer_Isr.c **** ********************************************************************************
 377:Generated_Source\PSoC5/Timeout_Timer_Isr.c **** *
 378:Generated_Source\PSoC5/Timeout_Timer_Isr.c **** * Summary:
 379:Generated_Source\PSoC5/Timeout_Timer_Isr.c **** *   Causes the Interrupt to enter the pending state, a software method of
 380:Generated_Source\PSoC5/Timeout_Timer_Isr.c **** *   generating the interrupt.
 381:Generated_Source\PSoC5/Timeout_Timer_Isr.c **** *
 382:Generated_Source\PSoC5/Timeout_Timer_Isr.c **** * Parameters:
 383:Generated_Source\PSoC5/Timeout_Timer_Isr.c **** *   None
 384:Generated_Source\PSoC5/Timeout_Timer_Isr.c **** *
 385:Generated_Source\PSoC5/Timeout_Timer_Isr.c **** * Return:
 386:Generated_Source\PSoC5/Timeout_Timer_Isr.c **** *   None
 387:Generated_Source\PSoC5/Timeout_Timer_Isr.c **** *
 388:Generated_Source\PSoC5/Timeout_Timer_Isr.c **** * Side Effects:
 389:Generated_Source\PSoC5/Timeout_Timer_Isr.c **** *   If interrupts are enabled and the interrupt is set up properly, the ISR is
 390:Generated_Source\PSoC5/Timeout_Timer_Isr.c **** *   entered (depending on the priority of this interrupt and other pending 
 391:Generated_Source\PSoC5/Timeout_Timer_Isr.c **** *   interrupts).
 392:Generated_Source\PSoC5/Timeout_Timer_Isr.c **** *
 393:Generated_Source\PSoC5/Timeout_Timer_Isr.c **** *******************************************************************************/
 394:Generated_Source\PSoC5/Timeout_Timer_Isr.c **** void Timeout_Timer_Isr_SetPending(void)
 395:Generated_Source\PSoC5/Timeout_Timer_Isr.c **** {
 538              		.loc 1 395 0
 539              		.cfi_startproc
 540              		@ args = 0, pretend = 0, frame = 0
 541              		@ frame_needed = 1, uses_anonymous_args = 0
 542              		@ link register save eliminated.
 543 0000 80B4     		push	{r7}
 544              		.cfi_def_cfa_offset 4
 545              		.cfi_offset 7, -4
 546 0002 00AF     		add	r7, sp, #0
 547              		.cfi_def_cfa_register 7
 396:Generated_Source\PSoC5/Timeout_Timer_Isr.c ****     *Timeout_Timer_Isr_INTC_SET_PD = Timeout_Timer_Isr__INTC_MASK;
 548              		.loc 1 396 0
 549 0004 034B     		ldr	r3, .L40
 550 0006 4FF48022 		mov	r2, #262144
 551 000a 1A60     		str	r2, [r3]
 397:Generated_Source\PSoC5/Timeout_Timer_Isr.c **** }
 552              		.loc 1 397 0
 553 000c 00BF     		nop
 554 000e BD46     		mov	sp, r7
 555              		.cfi_def_cfa_register 13
 556              		@ sp needed
 557 0010 80BC     		pop	{r7}
 558              		.cfi_restore 7
 559              		.cfi_def_cfa_offset 0
 560 0012 7047     		bx	lr
 561              	.L41:
 562              		.align	2
 563              	.L40:
 564 0014 00E200E0 		.word	-536813056
 565              		.cfi_endproc
 566              	.LFE74:
 567              		.size	Timeout_Timer_Isr_SetPending, .-Timeout_Timer_Isr_SetPending
 568              		.section	.text.Timeout_Timer_Isr_ClearPending,"ax",%progbits
 569              		.align	2
 570              		.global	Timeout_Timer_Isr_ClearPending
 571              		.thumb
 572              		.thumb_func
ARM GAS  C:\Users\Rajesh\AppData\Local\Temp\cchFolwL.s 			page 18


 573              		.type	Timeout_Timer_Isr_ClearPending, %function
 574              	Timeout_Timer_Isr_ClearPending:
 575              	.LFB75:
 398:Generated_Source\PSoC5/Timeout_Timer_Isr.c **** 
 399:Generated_Source\PSoC5/Timeout_Timer_Isr.c **** 
 400:Generated_Source\PSoC5/Timeout_Timer_Isr.c **** /*******************************************************************************
 401:Generated_Source\PSoC5/Timeout_Timer_Isr.c **** * Function Name: Timeout_Timer_Isr_ClearPending
 402:Generated_Source\PSoC5/Timeout_Timer_Isr.c **** ********************************************************************************
 403:Generated_Source\PSoC5/Timeout_Timer_Isr.c **** *
 404:Generated_Source\PSoC5/Timeout_Timer_Isr.c **** * Summary:
 405:Generated_Source\PSoC5/Timeout_Timer_Isr.c **** *   Clears a pending interrupt in the interrupt controller.
 406:Generated_Source\PSoC5/Timeout_Timer_Isr.c **** *
 407:Generated_Source\PSoC5/Timeout_Timer_Isr.c **** *   Note Some interrupt sources are clear-on-read and require the block 
 408:Generated_Source\PSoC5/Timeout_Timer_Isr.c **** *   interrupt/status register to be read/cleared with the appropriate block API 
 409:Generated_Source\PSoC5/Timeout_Timer_Isr.c **** *   (GPIO, UART, and so on). Otherwise the ISR will continue to remain in 
 410:Generated_Source\PSoC5/Timeout_Timer_Isr.c **** *   pending state even though the interrupt itself is cleared using this API.
 411:Generated_Source\PSoC5/Timeout_Timer_Isr.c **** *
 412:Generated_Source\PSoC5/Timeout_Timer_Isr.c **** * Parameters:
 413:Generated_Source\PSoC5/Timeout_Timer_Isr.c **** *   None
 414:Generated_Source\PSoC5/Timeout_Timer_Isr.c **** *
 415:Generated_Source\PSoC5/Timeout_Timer_Isr.c **** * Return:
 416:Generated_Source\PSoC5/Timeout_Timer_Isr.c **** *   None
 417:Generated_Source\PSoC5/Timeout_Timer_Isr.c **** *
 418:Generated_Source\PSoC5/Timeout_Timer_Isr.c **** *******************************************************************************/
 419:Generated_Source\PSoC5/Timeout_Timer_Isr.c **** void Timeout_Timer_Isr_ClearPending(void)
 420:Generated_Source\PSoC5/Timeout_Timer_Isr.c **** {
 576              		.loc 1 420 0
 577              		.cfi_startproc
 578              		@ args = 0, pretend = 0, frame = 0
 579              		@ frame_needed = 1, uses_anonymous_args = 0
 580              		@ link register save eliminated.
 581 0000 80B4     		push	{r7}
 582              		.cfi_def_cfa_offset 4
 583              		.cfi_offset 7, -4
 584 0002 00AF     		add	r7, sp, #0
 585              		.cfi_def_cfa_register 7
 421:Generated_Source\PSoC5/Timeout_Timer_Isr.c ****     *Timeout_Timer_Isr_INTC_CLR_PD = Timeout_Timer_Isr__INTC_MASK;
 586              		.loc 1 421 0
 587 0004 034B     		ldr	r3, .L43
 588 0006 4FF48022 		mov	r2, #262144
 589 000a 1A60     		str	r2, [r3]
 422:Generated_Source\PSoC5/Timeout_Timer_Isr.c **** }
 590              		.loc 1 422 0
 591 000c 00BF     		nop
 592 000e BD46     		mov	sp, r7
 593              		.cfi_def_cfa_register 13
 594              		@ sp needed
 595 0010 80BC     		pop	{r7}
 596              		.cfi_restore 7
 597              		.cfi_def_cfa_offset 0
 598 0012 7047     		bx	lr
 599              	.L44:
 600              		.align	2
 601              	.L43:
 602 0014 80E200E0 		.word	-536812928
 603              		.cfi_endproc
 604              	.LFE75:
ARM GAS  C:\Users\Rajesh\AppData\Local\Temp\cchFolwL.s 			page 19


 605              		.size	Timeout_Timer_Isr_ClearPending, .-Timeout_Timer_Isr_ClearPending
 606              		.text
 607              	.Letext0:
 608              		.file 2 "c:\\program files (x86)\\cypress\\psoc creator\\4.2\\psoc creator\\import\\gnu\\arm\\5.4.
 609              		.file 3 "c:\\program files (x86)\\cypress\\psoc creator\\4.2\\psoc creator\\import\\gnu\\arm\\5.4.
 610              		.file 4 "Generated_Source\\PSoC5/cytypes.h"
 611              		.file 5 "./softuart.h"
 612              		.file 6 "Generated_Source\\PSoC5/core_cm3.h"
 613              		.file 7 "./system.h"