ARM GAS  C:\Users\Rajesh\AppData\Local\Temp\ccg8XDJd.s 			page 1


   1              		.syntax unified
   2              		.cpu cortex-m3
   3              		.fpu softvfp
   4              		.eabi_attribute 20, 1
   5              		.eabi_attribute 21, 1
   6              		.eabi_attribute 23, 3
   7              		.eabi_attribute 24, 1
   8              		.eabi_attribute 25, 1
   9              		.eabi_attribute 26, 1
  10              		.eabi_attribute 30, 6
  11              		.eabi_attribute 34, 1
  12              		.eabi_attribute 18, 4
  13              		.thumb
  14              		.syntax unified
  15              		.file	"UART_TIMER_ISR.c"
  16              		.text
  17              	.Ltext0:
  18              		.cfi_sections	.debug_frame
  19              		.comm	s,40,4
  20              		.comm	currentAccessType,1,1
  21              		.comm	hw_old,1,1
  22              		.comm	tp_old,1,1
  23              		.comm	tamperCR_polarity,4,4
  24              		.comm	tamper_out_polarity,4,4
  25              		.comm	card_ack,4,4
  26              		.comm	card_in_buf,4,4
  27              		.section	.text.UART_TIMER_ISR_Start,"ax",%progbits
  28              		.align	2
  29              		.global	UART_TIMER_ISR_Start
  30              		.thumb
  31              		.thumb_func
  32              		.type	UART_TIMER_ISR_Start, %function
  33              	UART_TIMER_ISR_Start:
  34              	.LFB63:
  35              		.file 1 "Generated_Source\\PSoC5\\UART_TIMER_ISR.c"
   1:Generated_Source\PSoC5/UART_TIMER_ISR.c **** /*******************************************************************************
   2:Generated_Source\PSoC5/UART_TIMER_ISR.c **** * File Name: UART_TIMER_ISR.c  
   3:Generated_Source\PSoC5/UART_TIMER_ISR.c **** * Version 1.70
   4:Generated_Source\PSoC5/UART_TIMER_ISR.c **** *
   5:Generated_Source\PSoC5/UART_TIMER_ISR.c **** *  Description:
   6:Generated_Source\PSoC5/UART_TIMER_ISR.c **** *   API for controlling the state of an interrupt.
   7:Generated_Source\PSoC5/UART_TIMER_ISR.c **** *
   8:Generated_Source\PSoC5/UART_TIMER_ISR.c **** *
   9:Generated_Source\PSoC5/UART_TIMER_ISR.c **** *  Note:
  10:Generated_Source\PSoC5/UART_TIMER_ISR.c **** *
  11:Generated_Source\PSoC5/UART_TIMER_ISR.c **** ********************************************************************************
  12:Generated_Source\PSoC5/UART_TIMER_ISR.c **** * Copyright 2008-2015, Cypress Semiconductor Corporation.  All rights reserved.
  13:Generated_Source\PSoC5/UART_TIMER_ISR.c **** * You may use this file only in accordance with the license, terms, conditions, 
  14:Generated_Source\PSoC5/UART_TIMER_ISR.c **** * disclaimers, and limitations in the end user license agreement accompanying 
  15:Generated_Source\PSoC5/UART_TIMER_ISR.c **** * the software package with which this file was provided.
  16:Generated_Source\PSoC5/UART_TIMER_ISR.c **** *******************************************************************************/
  17:Generated_Source\PSoC5/UART_TIMER_ISR.c **** 
  18:Generated_Source\PSoC5/UART_TIMER_ISR.c **** 
  19:Generated_Source\PSoC5/UART_TIMER_ISR.c **** #include <cydevice_trm.h>
  20:Generated_Source\PSoC5/UART_TIMER_ISR.c **** #include <CyLib.h>
  21:Generated_Source\PSoC5/UART_TIMER_ISR.c **** #include <UART_TIMER_ISR.h>
  22:Generated_Source\PSoC5/UART_TIMER_ISR.c **** 
ARM GAS  C:\Users\Rajesh\AppData\Local\Temp\ccg8XDJd.s 			page 2


  23:Generated_Source\PSoC5/UART_TIMER_ISR.c **** 
  24:Generated_Source\PSoC5/UART_TIMER_ISR.c **** #if !defined(UART_TIMER_ISR__REMOVED) /* Check for removal by optimization */
  25:Generated_Source\PSoC5/UART_TIMER_ISR.c **** 
  26:Generated_Source\PSoC5/UART_TIMER_ISR.c **** /*******************************************************************************
  27:Generated_Source\PSoC5/UART_TIMER_ISR.c **** *  Place your includes, defines and code here 
  28:Generated_Source\PSoC5/UART_TIMER_ISR.c **** ********************************************************************************/
  29:Generated_Source\PSoC5/UART_TIMER_ISR.c **** /* `#START UART_TIMER_ISR_intc` */
  30:Generated_Source\PSoC5/UART_TIMER_ISR.c **** #include "UART_TIMER.h"
  31:Generated_Source\PSoC5/UART_TIMER_ISR.c **** #include "system.h"   
  32:Generated_Source\PSoC5/UART_TIMER_ISR.c **** /* `#END` */
  33:Generated_Source\PSoC5/UART_TIMER_ISR.c **** 
  34:Generated_Source\PSoC5/UART_TIMER_ISR.c **** #ifndef CYINT_IRQ_BASE
  35:Generated_Source\PSoC5/UART_TIMER_ISR.c **** #define CYINT_IRQ_BASE      16
  36:Generated_Source\PSoC5/UART_TIMER_ISR.c **** #endif /* CYINT_IRQ_BASE */
  37:Generated_Source\PSoC5/UART_TIMER_ISR.c **** #ifndef CYINT_VECT_TABLE
  38:Generated_Source\PSoC5/UART_TIMER_ISR.c **** #define CYINT_VECT_TABLE    ((cyisraddress **) CYREG_NVIC_VECT_OFFSET)
  39:Generated_Source\PSoC5/UART_TIMER_ISR.c **** #endif /* CYINT_VECT_TABLE */
  40:Generated_Source\PSoC5/UART_TIMER_ISR.c **** 
  41:Generated_Source\PSoC5/UART_TIMER_ISR.c **** /* Declared in startup, used to set unused interrupts to. */
  42:Generated_Source\PSoC5/UART_TIMER_ISR.c **** CY_ISR_PROTO(IntDefaultHandler);
  43:Generated_Source\PSoC5/UART_TIMER_ISR.c **** 
  44:Generated_Source\PSoC5/UART_TIMER_ISR.c **** 
  45:Generated_Source\PSoC5/UART_TIMER_ISR.c **** /*******************************************************************************
  46:Generated_Source\PSoC5/UART_TIMER_ISR.c **** * Function Name: UART_TIMER_ISR_Start
  47:Generated_Source\PSoC5/UART_TIMER_ISR.c **** ********************************************************************************
  48:Generated_Source\PSoC5/UART_TIMER_ISR.c **** *
  49:Generated_Source\PSoC5/UART_TIMER_ISR.c **** * Summary:
  50:Generated_Source\PSoC5/UART_TIMER_ISR.c **** *  Set up the interrupt and enable it. This function disables the interrupt, 
  51:Generated_Source\PSoC5/UART_TIMER_ISR.c **** *  sets the default interrupt vector, sets the priority from the value in the
  52:Generated_Source\PSoC5/UART_TIMER_ISR.c **** *  Design Wide Resources Interrupt Editor, then enables the interrupt to the 
  53:Generated_Source\PSoC5/UART_TIMER_ISR.c **** *  interrupt controller.
  54:Generated_Source\PSoC5/UART_TIMER_ISR.c **** *
  55:Generated_Source\PSoC5/UART_TIMER_ISR.c **** * Parameters:  
  56:Generated_Source\PSoC5/UART_TIMER_ISR.c **** *   None
  57:Generated_Source\PSoC5/UART_TIMER_ISR.c **** *
  58:Generated_Source\PSoC5/UART_TIMER_ISR.c **** * Return:
  59:Generated_Source\PSoC5/UART_TIMER_ISR.c **** *   None
  60:Generated_Source\PSoC5/UART_TIMER_ISR.c **** *
  61:Generated_Source\PSoC5/UART_TIMER_ISR.c **** *******************************************************************************/
  62:Generated_Source\PSoC5/UART_TIMER_ISR.c **** void UART_TIMER_ISR_Start(void)
  63:Generated_Source\PSoC5/UART_TIMER_ISR.c **** {
  36              		.loc 1 63 0
  37              		.cfi_startproc
  38              		@ args = 0, pretend = 0, frame = 0
  39              		@ frame_needed = 1, uses_anonymous_args = 0
  40 0000 80B5     		push	{r7, lr}
  41              		.cfi_def_cfa_offset 8
  42              		.cfi_offset 7, -8
  43              		.cfi_offset 14, -4
  44 0002 00AF     		add	r7, sp, #0
  45              		.cfi_def_cfa_register 7
  64:Generated_Source\PSoC5/UART_TIMER_ISR.c ****     /* For all we know the interrupt is active. */
  65:Generated_Source\PSoC5/UART_TIMER_ISR.c ****     UART_TIMER_ISR_Disable();
  46              		.loc 1 65 0
  47 0004 FFF7FEFF 		bl	UART_TIMER_ISR_Disable
  66:Generated_Source\PSoC5/UART_TIMER_ISR.c **** 
  67:Generated_Source\PSoC5/UART_TIMER_ISR.c ****     /* Set the ISR to point to the UART_TIMER_ISR Interrupt. */
ARM GAS  C:\Users\Rajesh\AppData\Local\Temp\ccg8XDJd.s 			page 3


  68:Generated_Source\PSoC5/UART_TIMER_ISR.c ****     UART_TIMER_ISR_SetVector(&UART_TIMER_ISR_Interrupt);
  48              		.loc 1 68 0
  49 0008 0448     		ldr	r0, .L2
  50 000a FFF7FEFF 		bl	UART_TIMER_ISR_SetVector
  69:Generated_Source\PSoC5/UART_TIMER_ISR.c **** 
  70:Generated_Source\PSoC5/UART_TIMER_ISR.c ****     /* Set the priority. */
  71:Generated_Source\PSoC5/UART_TIMER_ISR.c ****     UART_TIMER_ISR_SetPriority((uint8)UART_TIMER_ISR_INTC_PRIOR_NUMBER);
  51              		.loc 1 71 0
  52 000e 0720     		movs	r0, #7
  53 0010 FFF7FEFF 		bl	UART_TIMER_ISR_SetPriority
  72:Generated_Source\PSoC5/UART_TIMER_ISR.c **** 
  73:Generated_Source\PSoC5/UART_TIMER_ISR.c ****     /* Enable it. */
  74:Generated_Source\PSoC5/UART_TIMER_ISR.c ****     UART_TIMER_ISR_Enable();
  54              		.loc 1 74 0
  55 0014 FFF7FEFF 		bl	UART_TIMER_ISR_Enable
  75:Generated_Source\PSoC5/UART_TIMER_ISR.c **** }
  56              		.loc 1 75 0
  57 0018 00BF     		nop
  58 001a 80BD     		pop	{r7, pc}
  59              	.L3:
  60              		.align	2
  61              	.L2:
  62 001c 00000000 		.word	UART_TIMER_ISR_Interrupt
  63              		.cfi_endproc
  64              	.LFE63:
  65              		.size	UART_TIMER_ISR_Start, .-UART_TIMER_ISR_Start
  66              		.section	.text.UART_TIMER_ISR_StartEx,"ax",%progbits
  67              		.align	2
  68              		.global	UART_TIMER_ISR_StartEx
  69              		.thumb
  70              		.thumb_func
  71              		.type	UART_TIMER_ISR_StartEx, %function
  72              	UART_TIMER_ISR_StartEx:
  73              	.LFB64:
  76:Generated_Source\PSoC5/UART_TIMER_ISR.c **** 
  77:Generated_Source\PSoC5/UART_TIMER_ISR.c **** 
  78:Generated_Source\PSoC5/UART_TIMER_ISR.c **** /*******************************************************************************
  79:Generated_Source\PSoC5/UART_TIMER_ISR.c **** * Function Name: UART_TIMER_ISR_StartEx
  80:Generated_Source\PSoC5/UART_TIMER_ISR.c **** ********************************************************************************
  81:Generated_Source\PSoC5/UART_TIMER_ISR.c **** *
  82:Generated_Source\PSoC5/UART_TIMER_ISR.c **** * Summary:
  83:Generated_Source\PSoC5/UART_TIMER_ISR.c **** *  Sets up the interrupt and enables it. This function disables the interrupt,
  84:Generated_Source\PSoC5/UART_TIMER_ISR.c **** *  sets the interrupt vector based on the address passed in, sets the priority 
  85:Generated_Source\PSoC5/UART_TIMER_ISR.c **** *  from the value in the Design Wide Resources Interrupt Editor, then enables 
  86:Generated_Source\PSoC5/UART_TIMER_ISR.c **** *  the interrupt to the interrupt controller.
  87:Generated_Source\PSoC5/UART_TIMER_ISR.c **** *  
  88:Generated_Source\PSoC5/UART_TIMER_ISR.c **** *  When defining ISR functions, the CY_ISR and CY_ISR_PROTO macros should be 
  89:Generated_Source\PSoC5/UART_TIMER_ISR.c **** *  used to provide consistent definition across compilers:
  90:Generated_Source\PSoC5/UART_TIMER_ISR.c **** *  
  91:Generated_Source\PSoC5/UART_TIMER_ISR.c **** *  Function definition example:
  92:Generated_Source\PSoC5/UART_TIMER_ISR.c **** *   CY_ISR(MyISR)
  93:Generated_Source\PSoC5/UART_TIMER_ISR.c **** *   {
  94:Generated_Source\PSoC5/UART_TIMER_ISR.c **** *   }
  95:Generated_Source\PSoC5/UART_TIMER_ISR.c **** *   Function prototype example:
  96:Generated_Source\PSoC5/UART_TIMER_ISR.c **** *   CY_ISR_PROTO(MyISR);
  97:Generated_Source\PSoC5/UART_TIMER_ISR.c **** *
  98:Generated_Source\PSoC5/UART_TIMER_ISR.c **** * Parameters:  
ARM GAS  C:\Users\Rajesh\AppData\Local\Temp\ccg8XDJd.s 			page 4


  99:Generated_Source\PSoC5/UART_TIMER_ISR.c **** *   address: Address of the ISR to set in the interrupt vector table.
 100:Generated_Source\PSoC5/UART_TIMER_ISR.c **** *
 101:Generated_Source\PSoC5/UART_TIMER_ISR.c **** * Return:
 102:Generated_Source\PSoC5/UART_TIMER_ISR.c **** *   None
 103:Generated_Source\PSoC5/UART_TIMER_ISR.c **** *
 104:Generated_Source\PSoC5/UART_TIMER_ISR.c **** *******************************************************************************/
 105:Generated_Source\PSoC5/UART_TIMER_ISR.c **** void UART_TIMER_ISR_StartEx(cyisraddress address)
 106:Generated_Source\PSoC5/UART_TIMER_ISR.c **** {
  74              		.loc 1 106 0
  75              		.cfi_startproc
  76              		@ args = 0, pretend = 0, frame = 8
  77              		@ frame_needed = 1, uses_anonymous_args = 0
  78 0000 80B5     		push	{r7, lr}
  79              		.cfi_def_cfa_offset 8
  80              		.cfi_offset 7, -8
  81              		.cfi_offset 14, -4
  82 0002 82B0     		sub	sp, sp, #8
  83              		.cfi_def_cfa_offset 16
  84 0004 00AF     		add	r7, sp, #0
  85              		.cfi_def_cfa_register 7
  86 0006 7860     		str	r0, [r7, #4]
 107:Generated_Source\PSoC5/UART_TIMER_ISR.c ****     /* For all we know the interrupt is active. */
 108:Generated_Source\PSoC5/UART_TIMER_ISR.c ****     UART_TIMER_ISR_Disable();
  87              		.loc 1 108 0
  88 0008 FFF7FEFF 		bl	UART_TIMER_ISR_Disable
 109:Generated_Source\PSoC5/UART_TIMER_ISR.c **** 
 110:Generated_Source\PSoC5/UART_TIMER_ISR.c ****     /* Set the ISR to point to the UART_TIMER_ISR Interrupt. */
 111:Generated_Source\PSoC5/UART_TIMER_ISR.c ****     UART_TIMER_ISR_SetVector(address);
  89              		.loc 1 111 0
  90 000c 7868     		ldr	r0, [r7, #4]
  91 000e FFF7FEFF 		bl	UART_TIMER_ISR_SetVector
 112:Generated_Source\PSoC5/UART_TIMER_ISR.c **** 
 113:Generated_Source\PSoC5/UART_TIMER_ISR.c ****     /* Set the priority. */
 114:Generated_Source\PSoC5/UART_TIMER_ISR.c ****     UART_TIMER_ISR_SetPriority((uint8)UART_TIMER_ISR_INTC_PRIOR_NUMBER);
  92              		.loc 1 114 0
  93 0012 0720     		movs	r0, #7
  94 0014 FFF7FEFF 		bl	UART_TIMER_ISR_SetPriority
 115:Generated_Source\PSoC5/UART_TIMER_ISR.c **** 
 116:Generated_Source\PSoC5/UART_TIMER_ISR.c ****     /* Enable it. */
 117:Generated_Source\PSoC5/UART_TIMER_ISR.c ****     UART_TIMER_ISR_Enable();
  95              		.loc 1 117 0
  96 0018 FFF7FEFF 		bl	UART_TIMER_ISR_Enable
 118:Generated_Source\PSoC5/UART_TIMER_ISR.c **** }
  97              		.loc 1 118 0
  98 001c 00BF     		nop
  99 001e 0837     		adds	r7, r7, #8
 100              		.cfi_def_cfa_offset 8
 101 0020 BD46     		mov	sp, r7
 102              		.cfi_def_cfa_register 13
 103              		@ sp needed
 104 0022 80BD     		pop	{r7, pc}
 105              		.cfi_endproc
 106              	.LFE64:
 107              		.size	UART_TIMER_ISR_StartEx, .-UART_TIMER_ISR_StartEx
 108              		.section	.text.UART_TIMER_ISR_Stop,"ax",%progbits
 109              		.align	2
 110              		.global	UART_TIMER_ISR_Stop
ARM GAS  C:\Users\Rajesh\AppData\Local\Temp\ccg8XDJd.s 			page 5


 111              		.thumb
 112              		.thumb_func
 113              		.type	UART_TIMER_ISR_Stop, %function
 114              	UART_TIMER_ISR_Stop:
 115              	.LFB65:
 119:Generated_Source\PSoC5/UART_TIMER_ISR.c **** 
 120:Generated_Source\PSoC5/UART_TIMER_ISR.c **** 
 121:Generated_Source\PSoC5/UART_TIMER_ISR.c **** /*******************************************************************************
 122:Generated_Source\PSoC5/UART_TIMER_ISR.c **** * Function Name: UART_TIMER_ISR_Stop
 123:Generated_Source\PSoC5/UART_TIMER_ISR.c **** ********************************************************************************
 124:Generated_Source\PSoC5/UART_TIMER_ISR.c **** *
 125:Generated_Source\PSoC5/UART_TIMER_ISR.c **** * Summary:
 126:Generated_Source\PSoC5/UART_TIMER_ISR.c **** *   Disables and removes the interrupt.
 127:Generated_Source\PSoC5/UART_TIMER_ISR.c **** *
 128:Generated_Source\PSoC5/UART_TIMER_ISR.c **** * Parameters:  
 129:Generated_Source\PSoC5/UART_TIMER_ISR.c **** *   None
 130:Generated_Source\PSoC5/UART_TIMER_ISR.c **** *
 131:Generated_Source\PSoC5/UART_TIMER_ISR.c **** * Return:
 132:Generated_Source\PSoC5/UART_TIMER_ISR.c **** *   None
 133:Generated_Source\PSoC5/UART_TIMER_ISR.c **** *
 134:Generated_Source\PSoC5/UART_TIMER_ISR.c **** *******************************************************************************/
 135:Generated_Source\PSoC5/UART_TIMER_ISR.c **** void UART_TIMER_ISR_Stop(void)
 136:Generated_Source\PSoC5/UART_TIMER_ISR.c **** {
 116              		.loc 1 136 0
 117              		.cfi_startproc
 118              		@ args = 0, pretend = 0, frame = 0
 119              		@ frame_needed = 1, uses_anonymous_args = 0
 120 0000 80B5     		push	{r7, lr}
 121              		.cfi_def_cfa_offset 8
 122              		.cfi_offset 7, -8
 123              		.cfi_offset 14, -4
 124 0002 00AF     		add	r7, sp, #0
 125              		.cfi_def_cfa_register 7
 137:Generated_Source\PSoC5/UART_TIMER_ISR.c ****     /* Disable this interrupt. */
 138:Generated_Source\PSoC5/UART_TIMER_ISR.c ****     UART_TIMER_ISR_Disable();
 126              		.loc 1 138 0
 127 0004 FFF7FEFF 		bl	UART_TIMER_ISR_Disable
 139:Generated_Source\PSoC5/UART_TIMER_ISR.c **** 
 140:Generated_Source\PSoC5/UART_TIMER_ISR.c ****     /* Set the ISR to point to the passive one. */
 141:Generated_Source\PSoC5/UART_TIMER_ISR.c ****     UART_TIMER_ISR_SetVector(&IntDefaultHandler);
 128              		.loc 1 141 0
 129 0008 0248     		ldr	r0, .L6
 130 000a FFF7FEFF 		bl	UART_TIMER_ISR_SetVector
 142:Generated_Source\PSoC5/UART_TIMER_ISR.c **** }
 131              		.loc 1 142 0
 132 000e 00BF     		nop
 133 0010 80BD     		pop	{r7, pc}
 134              	.L7:
 135 0012 00BF     		.align	2
 136              	.L6:
 137 0014 00000000 		.word	IntDefaultHandler
 138              		.cfi_endproc
 139              	.LFE65:
 140              		.size	UART_TIMER_ISR_Stop, .-UART_TIMER_ISR_Stop
 141              		.section	.text.UART_TIMER_ISR_Interrupt,"ax",%progbits
 142              		.align	2
 143              		.global	UART_TIMER_ISR_Interrupt
ARM GAS  C:\Users\Rajesh\AppData\Local\Temp\ccg8XDJd.s 			page 6


 144              		.thumb
 145              		.thumb_func
 146              		.type	UART_TIMER_ISR_Interrupt, %function
 147              	UART_TIMER_ISR_Interrupt:
 148              	.LFB66:
 143:Generated_Source\PSoC5/UART_TIMER_ISR.c **** 
 144:Generated_Source\PSoC5/UART_TIMER_ISR.c **** 
 145:Generated_Source\PSoC5/UART_TIMER_ISR.c **** /*******************************************************************************
 146:Generated_Source\PSoC5/UART_TIMER_ISR.c **** * Function Name: UART_TIMER_ISR_Interrupt
 147:Generated_Source\PSoC5/UART_TIMER_ISR.c **** ********************************************************************************
 148:Generated_Source\PSoC5/UART_TIMER_ISR.c **** *
 149:Generated_Source\PSoC5/UART_TIMER_ISR.c **** * Summary:
 150:Generated_Source\PSoC5/UART_TIMER_ISR.c **** *   The default Interrupt Service Routine for UART_TIMER_ISR.
 151:Generated_Source\PSoC5/UART_TIMER_ISR.c **** *
 152:Generated_Source\PSoC5/UART_TIMER_ISR.c **** *   Add custom code between the coments to keep the next version of this file
 153:Generated_Source\PSoC5/UART_TIMER_ISR.c **** *   from over writting your code.
 154:Generated_Source\PSoC5/UART_TIMER_ISR.c **** *
 155:Generated_Source\PSoC5/UART_TIMER_ISR.c **** * Parameters:  
 156:Generated_Source\PSoC5/UART_TIMER_ISR.c **** *
 157:Generated_Source\PSoC5/UART_TIMER_ISR.c **** * Return:
 158:Generated_Source\PSoC5/UART_TIMER_ISR.c **** *   None
 159:Generated_Source\PSoC5/UART_TIMER_ISR.c **** *
 160:Generated_Source\PSoC5/UART_TIMER_ISR.c **** *******************************************************************************/
 161:Generated_Source\PSoC5/UART_TIMER_ISR.c **** CY_ISR(UART_TIMER_ISR_Interrupt)
 162:Generated_Source\PSoC5/UART_TIMER_ISR.c **** {
 149              		.loc 1 162 0
 150              		.cfi_startproc
 151              		@ args = 0, pretend = 0, frame = 0
 152              		@ frame_needed = 1, uses_anonymous_args = 0
 153 0000 80B5     		push	{r7, lr}
 154              		.cfi_def_cfa_offset 8
 155              		.cfi_offset 7, -8
 156              		.cfi_offset 14, -4
 157 0002 00AF     		add	r7, sp, #0
 158              		.cfi_def_cfa_register 7
 163:Generated_Source\PSoC5/UART_TIMER_ISR.c ****     #ifdef UART_TIMER_ISR_INTERRUPT_INTERRUPT_CALLBACK
 164:Generated_Source\PSoC5/UART_TIMER_ISR.c ****         UART_TIMER_ISR_Interrupt_InterruptCallback();
 165:Generated_Source\PSoC5/UART_TIMER_ISR.c ****     #endif /* UART_TIMER_ISR_INTERRUPT_INTERRUPT_CALLBACK */ 
 166:Generated_Source\PSoC5/UART_TIMER_ISR.c **** 
 167:Generated_Source\PSoC5/UART_TIMER_ISR.c ****     /*  Place your Interrupt code here. */
 168:Generated_Source\PSoC5/UART_TIMER_ISR.c ****     /* `#START UART_TIMER_ISR_Interrupt` */
 169:Generated_Source\PSoC5/UART_TIMER_ISR.c ****     SU_Isr(&s);
 159              		.loc 1 169 0
 160 0004 0348     		ldr	r0, .L9
 161 0006 FFF7FEFF 		bl	SU_Isr
 170:Generated_Source\PSoC5/UART_TIMER_ISR.c ****     UART_TIMER_ReadStatusRegister();
 162              		.loc 1 170 0
 163 000a FFF7FEFF 		bl	UART_TIMER_ReadStatusRegister
 171:Generated_Source\PSoC5/UART_TIMER_ISR.c ****     /* `#END` */
 172:Generated_Source\PSoC5/UART_TIMER_ISR.c **** }
 164              		.loc 1 172 0
 165 000e 00BF     		nop
 166 0010 80BD     		pop	{r7, pc}
 167              	.L10:
 168 0012 00BF     		.align	2
 169              	.L9:
 170 0014 00000000 		.word	s
ARM GAS  C:\Users\Rajesh\AppData\Local\Temp\ccg8XDJd.s 			page 7


 171              		.cfi_endproc
 172              	.LFE66:
 173              		.size	UART_TIMER_ISR_Interrupt, .-UART_TIMER_ISR_Interrupt
 174              		.section	.text.UART_TIMER_ISR_SetVector,"ax",%progbits
 175              		.align	2
 176              		.global	UART_TIMER_ISR_SetVector
 177              		.thumb
 178              		.thumb_func
 179              		.type	UART_TIMER_ISR_SetVector, %function
 180              	UART_TIMER_ISR_SetVector:
 181              	.LFB67:
 173:Generated_Source\PSoC5/UART_TIMER_ISR.c **** 
 174:Generated_Source\PSoC5/UART_TIMER_ISR.c **** 
 175:Generated_Source\PSoC5/UART_TIMER_ISR.c **** /*******************************************************************************
 176:Generated_Source\PSoC5/UART_TIMER_ISR.c **** * Function Name: UART_TIMER_ISR_SetVector
 177:Generated_Source\PSoC5/UART_TIMER_ISR.c **** ********************************************************************************
 178:Generated_Source\PSoC5/UART_TIMER_ISR.c **** *
 179:Generated_Source\PSoC5/UART_TIMER_ISR.c **** * Summary:
 180:Generated_Source\PSoC5/UART_TIMER_ISR.c **** *   Change the ISR vector for the Interrupt. Note calling UART_TIMER_ISR_Start
 181:Generated_Source\PSoC5/UART_TIMER_ISR.c **** *   will override any effect this method would have had. To set the vector 
 182:Generated_Source\PSoC5/UART_TIMER_ISR.c **** *   before the component has been started use UART_TIMER_ISR_StartEx instead.
 183:Generated_Source\PSoC5/UART_TIMER_ISR.c **** * 
 184:Generated_Source\PSoC5/UART_TIMER_ISR.c **** *   When defining ISR functions, the CY_ISR and CY_ISR_PROTO macros should be 
 185:Generated_Source\PSoC5/UART_TIMER_ISR.c **** *   used to provide consistent definition across compilers:
 186:Generated_Source\PSoC5/UART_TIMER_ISR.c **** *
 187:Generated_Source\PSoC5/UART_TIMER_ISR.c **** *   Function definition example:
 188:Generated_Source\PSoC5/UART_TIMER_ISR.c **** *   CY_ISR(MyISR)
 189:Generated_Source\PSoC5/UART_TIMER_ISR.c **** *   {
 190:Generated_Source\PSoC5/UART_TIMER_ISR.c **** *   }
 191:Generated_Source\PSoC5/UART_TIMER_ISR.c **** *
 192:Generated_Source\PSoC5/UART_TIMER_ISR.c **** *   Function prototype example:
 193:Generated_Source\PSoC5/UART_TIMER_ISR.c **** *     CY_ISR_PROTO(MyISR);
 194:Generated_Source\PSoC5/UART_TIMER_ISR.c **** *
 195:Generated_Source\PSoC5/UART_TIMER_ISR.c **** * Parameters:
 196:Generated_Source\PSoC5/UART_TIMER_ISR.c **** *   address: Address of the ISR to set in the interrupt vector table.
 197:Generated_Source\PSoC5/UART_TIMER_ISR.c **** *
 198:Generated_Source\PSoC5/UART_TIMER_ISR.c **** * Return:
 199:Generated_Source\PSoC5/UART_TIMER_ISR.c **** *   None
 200:Generated_Source\PSoC5/UART_TIMER_ISR.c **** *
 201:Generated_Source\PSoC5/UART_TIMER_ISR.c **** *******************************************************************************/
 202:Generated_Source\PSoC5/UART_TIMER_ISR.c **** void UART_TIMER_ISR_SetVector(cyisraddress address)
 203:Generated_Source\PSoC5/UART_TIMER_ISR.c **** {
 182              		.loc 1 203 0
 183              		.cfi_startproc
 184              		@ args = 0, pretend = 0, frame = 16
 185              		@ frame_needed = 1, uses_anonymous_args = 0
 186              		@ link register save eliminated.
 187 0000 80B4     		push	{r7}
 188              		.cfi_def_cfa_offset 4
 189              		.cfi_offset 7, -4
 190 0002 85B0     		sub	sp, sp, #20
 191              		.cfi_def_cfa_offset 24
 192 0004 00AF     		add	r7, sp, #0
 193              		.cfi_def_cfa_register 7
 194 0006 7860     		str	r0, [r7, #4]
 204:Generated_Source\PSoC5/UART_TIMER_ISR.c ****     cyisraddress * ramVectorTable;
 205:Generated_Source\PSoC5/UART_TIMER_ISR.c **** 
ARM GAS  C:\Users\Rajesh\AppData\Local\Temp\ccg8XDJd.s 			page 8


 206:Generated_Source\PSoC5/UART_TIMER_ISR.c ****     ramVectorTable = (cyisraddress *) *CYINT_VECT_TABLE;
 195              		.loc 1 206 0
 196 0008 054B     		ldr	r3, .L12
 197 000a 1B68     		ldr	r3, [r3]
 198 000c FB60     		str	r3, [r7, #12]
 207:Generated_Source\PSoC5/UART_TIMER_ISR.c **** 
 208:Generated_Source\PSoC5/UART_TIMER_ISR.c ****     ramVectorTable[CYINT_IRQ_BASE + (uint32)UART_TIMER_ISR__INTC_NUMBER] = address;
 199              		.loc 1 208 0
 200 000e FB68     		ldr	r3, [r7, #12]
 201 0010 4033     		adds	r3, r3, #64
 202 0012 7A68     		ldr	r2, [r7, #4]
 203 0014 1A60     		str	r2, [r3]
 209:Generated_Source\PSoC5/UART_TIMER_ISR.c **** }
 204              		.loc 1 209 0
 205 0016 00BF     		nop
 206 0018 1437     		adds	r7, r7, #20
 207              		.cfi_def_cfa_offset 4
 208 001a BD46     		mov	sp, r7
 209              		.cfi_def_cfa_register 13
 210              		@ sp needed
 211 001c 80BC     		pop	{r7}
 212              		.cfi_restore 7
 213              		.cfi_def_cfa_offset 0
 214 001e 7047     		bx	lr
 215              	.L13:
 216              		.align	2
 217              	.L12:
 218 0020 08ED00E0 		.word	-536810232
 219              		.cfi_endproc
 220              	.LFE67:
 221              		.size	UART_TIMER_ISR_SetVector, .-UART_TIMER_ISR_SetVector
 222              		.section	.text.UART_TIMER_ISR_GetVector,"ax",%progbits
 223              		.align	2
 224              		.global	UART_TIMER_ISR_GetVector
 225              		.thumb
 226              		.thumb_func
 227              		.type	UART_TIMER_ISR_GetVector, %function
 228              	UART_TIMER_ISR_GetVector:
 229              	.LFB68:
 210:Generated_Source\PSoC5/UART_TIMER_ISR.c **** 
 211:Generated_Source\PSoC5/UART_TIMER_ISR.c **** 
 212:Generated_Source\PSoC5/UART_TIMER_ISR.c **** /*******************************************************************************
 213:Generated_Source\PSoC5/UART_TIMER_ISR.c **** * Function Name: UART_TIMER_ISR_GetVector
 214:Generated_Source\PSoC5/UART_TIMER_ISR.c **** ********************************************************************************
 215:Generated_Source\PSoC5/UART_TIMER_ISR.c **** *
 216:Generated_Source\PSoC5/UART_TIMER_ISR.c **** * Summary:
 217:Generated_Source\PSoC5/UART_TIMER_ISR.c **** *   Gets the "address" of the current ISR vector for the Interrupt.
 218:Generated_Source\PSoC5/UART_TIMER_ISR.c **** *
 219:Generated_Source\PSoC5/UART_TIMER_ISR.c **** * Parameters:
 220:Generated_Source\PSoC5/UART_TIMER_ISR.c **** *   None
 221:Generated_Source\PSoC5/UART_TIMER_ISR.c **** *
 222:Generated_Source\PSoC5/UART_TIMER_ISR.c **** * Return:
 223:Generated_Source\PSoC5/UART_TIMER_ISR.c **** *   Address of the ISR in the interrupt vector table.
 224:Generated_Source\PSoC5/UART_TIMER_ISR.c **** *
 225:Generated_Source\PSoC5/UART_TIMER_ISR.c **** *******************************************************************************/
 226:Generated_Source\PSoC5/UART_TIMER_ISR.c **** cyisraddress UART_TIMER_ISR_GetVector(void)
 227:Generated_Source\PSoC5/UART_TIMER_ISR.c **** {
ARM GAS  C:\Users\Rajesh\AppData\Local\Temp\ccg8XDJd.s 			page 9


 230              		.loc 1 227 0
 231              		.cfi_startproc
 232              		@ args = 0, pretend = 0, frame = 8
 233              		@ frame_needed = 1, uses_anonymous_args = 0
 234              		@ link register save eliminated.
 235 0000 80B4     		push	{r7}
 236              		.cfi_def_cfa_offset 4
 237              		.cfi_offset 7, -4
 238 0002 83B0     		sub	sp, sp, #12
 239              		.cfi_def_cfa_offset 16
 240 0004 00AF     		add	r7, sp, #0
 241              		.cfi_def_cfa_register 7
 228:Generated_Source\PSoC5/UART_TIMER_ISR.c ****     cyisraddress * ramVectorTable;
 229:Generated_Source\PSoC5/UART_TIMER_ISR.c **** 
 230:Generated_Source\PSoC5/UART_TIMER_ISR.c ****     ramVectorTable = (cyisraddress *) *CYINT_VECT_TABLE;
 242              		.loc 1 230 0
 243 0006 054B     		ldr	r3, .L16
 244 0008 1B68     		ldr	r3, [r3]
 245 000a 7B60     		str	r3, [r7, #4]
 231:Generated_Source\PSoC5/UART_TIMER_ISR.c **** 
 232:Generated_Source\PSoC5/UART_TIMER_ISR.c ****     return ramVectorTable[CYINT_IRQ_BASE + (uint32)UART_TIMER_ISR__INTC_NUMBER];
 246              		.loc 1 232 0
 247 000c 7B68     		ldr	r3, [r7, #4]
 248 000e 1B6C     		ldr	r3, [r3, #64]
 233:Generated_Source\PSoC5/UART_TIMER_ISR.c **** }
 249              		.loc 1 233 0
 250 0010 1846     		mov	r0, r3
 251 0012 0C37     		adds	r7, r7, #12
 252              		.cfi_def_cfa_offset 4
 253 0014 BD46     		mov	sp, r7
 254              		.cfi_def_cfa_register 13
 255              		@ sp needed
 256 0016 80BC     		pop	{r7}
 257              		.cfi_restore 7
 258              		.cfi_def_cfa_offset 0
 259 0018 7047     		bx	lr
 260              	.L17:
 261 001a 00BF     		.align	2
 262              	.L16:
 263 001c 08ED00E0 		.word	-536810232
 264              		.cfi_endproc
 265              	.LFE68:
 266              		.size	UART_TIMER_ISR_GetVector, .-UART_TIMER_ISR_GetVector
 267              		.section	.text.UART_TIMER_ISR_SetPriority,"ax",%progbits
 268              		.align	2
 269              		.global	UART_TIMER_ISR_SetPriority
 270              		.thumb
 271              		.thumb_func
 272              		.type	UART_TIMER_ISR_SetPriority, %function
 273              	UART_TIMER_ISR_SetPriority:
 274              	.LFB69:
 234:Generated_Source\PSoC5/UART_TIMER_ISR.c **** 
 235:Generated_Source\PSoC5/UART_TIMER_ISR.c **** 
 236:Generated_Source\PSoC5/UART_TIMER_ISR.c **** /*******************************************************************************
 237:Generated_Source\PSoC5/UART_TIMER_ISR.c **** * Function Name: UART_TIMER_ISR_SetPriority
 238:Generated_Source\PSoC5/UART_TIMER_ISR.c **** ********************************************************************************
 239:Generated_Source\PSoC5/UART_TIMER_ISR.c **** *
ARM GAS  C:\Users\Rajesh\AppData\Local\Temp\ccg8XDJd.s 			page 10


 240:Generated_Source\PSoC5/UART_TIMER_ISR.c **** * Summary:
 241:Generated_Source\PSoC5/UART_TIMER_ISR.c **** *   Sets the Priority of the Interrupt. 
 242:Generated_Source\PSoC5/UART_TIMER_ISR.c **** *
 243:Generated_Source\PSoC5/UART_TIMER_ISR.c **** *   Note calling UART_TIMER_ISR_Start or UART_TIMER_ISR_StartEx will 
 244:Generated_Source\PSoC5/UART_TIMER_ISR.c **** *   override any effect this API would have had. This API should only be called
 245:Generated_Source\PSoC5/UART_TIMER_ISR.c **** *   after UART_TIMER_ISR_Start or UART_TIMER_ISR_StartEx has been called. 
 246:Generated_Source\PSoC5/UART_TIMER_ISR.c **** *   To set the initial priority for the component, use the Design-Wide Resources
 247:Generated_Source\PSoC5/UART_TIMER_ISR.c **** *   Interrupt Editor.
 248:Generated_Source\PSoC5/UART_TIMER_ISR.c **** *
 249:Generated_Source\PSoC5/UART_TIMER_ISR.c **** *   Note This API has no effect on Non-maskable interrupt NMI).
 250:Generated_Source\PSoC5/UART_TIMER_ISR.c **** *
 251:Generated_Source\PSoC5/UART_TIMER_ISR.c **** * Parameters:
 252:Generated_Source\PSoC5/UART_TIMER_ISR.c **** *   priority: Priority of the interrupt, 0 being the highest priority
 253:Generated_Source\PSoC5/UART_TIMER_ISR.c **** *             PSoC 3 and PSoC 5LP: Priority is from 0 to 7.
 254:Generated_Source\PSoC5/UART_TIMER_ISR.c **** *             PSoC 4: Priority is from 0 to 3.
 255:Generated_Source\PSoC5/UART_TIMER_ISR.c **** *
 256:Generated_Source\PSoC5/UART_TIMER_ISR.c **** * Return:
 257:Generated_Source\PSoC5/UART_TIMER_ISR.c **** *   None
 258:Generated_Source\PSoC5/UART_TIMER_ISR.c **** *
 259:Generated_Source\PSoC5/UART_TIMER_ISR.c **** *******************************************************************************/
 260:Generated_Source\PSoC5/UART_TIMER_ISR.c **** void UART_TIMER_ISR_SetPriority(uint8 priority)
 261:Generated_Source\PSoC5/UART_TIMER_ISR.c **** {
 275              		.loc 1 261 0
 276              		.cfi_startproc
 277              		@ args = 0, pretend = 0, frame = 8
 278              		@ frame_needed = 1, uses_anonymous_args = 0
 279              		@ link register save eliminated.
 280 0000 80B4     		push	{r7}
 281              		.cfi_def_cfa_offset 4
 282              		.cfi_offset 7, -4
 283 0002 83B0     		sub	sp, sp, #12
 284              		.cfi_def_cfa_offset 16
 285 0004 00AF     		add	r7, sp, #0
 286              		.cfi_def_cfa_register 7
 287 0006 0346     		mov	r3, r0
 288 0008 FB71     		strb	r3, [r7, #7]
 262:Generated_Source\PSoC5/UART_TIMER_ISR.c ****     *UART_TIMER_ISR_INTC_PRIOR = priority << 5;
 289              		.loc 1 262 0
 290 000a 054A     		ldr	r2, .L19
 291 000c FB79     		ldrb	r3, [r7, #7]
 292 000e 5B01     		lsls	r3, r3, #5
 293 0010 DBB2     		uxtb	r3, r3
 294 0012 1370     		strb	r3, [r2]
 263:Generated_Source\PSoC5/UART_TIMER_ISR.c **** }
 295              		.loc 1 263 0
 296 0014 00BF     		nop
 297 0016 0C37     		adds	r7, r7, #12
 298              		.cfi_def_cfa_offset 4
 299 0018 BD46     		mov	sp, r7
 300              		.cfi_def_cfa_register 13
 301              		@ sp needed
 302 001a 80BC     		pop	{r7}
 303              		.cfi_restore 7
 304              		.cfi_def_cfa_offset 0
 305 001c 7047     		bx	lr
 306              	.L20:
 307 001e 00BF     		.align	2
ARM GAS  C:\Users\Rajesh\AppData\Local\Temp\ccg8XDJd.s 			page 11


 308              	.L19:
 309 0020 00E400E0 		.word	-536812544
 310              		.cfi_endproc
 311              	.LFE69:
 312              		.size	UART_TIMER_ISR_SetPriority, .-UART_TIMER_ISR_SetPriority
 313              		.section	.text.UART_TIMER_ISR_GetPriority,"ax",%progbits
 314              		.align	2
 315              		.global	UART_TIMER_ISR_GetPriority
 316              		.thumb
 317              		.thumb_func
 318              		.type	UART_TIMER_ISR_GetPriority, %function
 319              	UART_TIMER_ISR_GetPriority:
 320              	.LFB70:
 264:Generated_Source\PSoC5/UART_TIMER_ISR.c **** 
 265:Generated_Source\PSoC5/UART_TIMER_ISR.c **** 
 266:Generated_Source\PSoC5/UART_TIMER_ISR.c **** /*******************************************************************************
 267:Generated_Source\PSoC5/UART_TIMER_ISR.c **** * Function Name: UART_TIMER_ISR_GetPriority
 268:Generated_Source\PSoC5/UART_TIMER_ISR.c **** ********************************************************************************
 269:Generated_Source\PSoC5/UART_TIMER_ISR.c **** *
 270:Generated_Source\PSoC5/UART_TIMER_ISR.c **** * Summary:
 271:Generated_Source\PSoC5/UART_TIMER_ISR.c **** *   Gets the Priority of the Interrupt.
 272:Generated_Source\PSoC5/UART_TIMER_ISR.c **** *
 273:Generated_Source\PSoC5/UART_TIMER_ISR.c **** * Parameters:
 274:Generated_Source\PSoC5/UART_TIMER_ISR.c **** *   None
 275:Generated_Source\PSoC5/UART_TIMER_ISR.c **** *
 276:Generated_Source\PSoC5/UART_TIMER_ISR.c **** * Return:
 277:Generated_Source\PSoC5/UART_TIMER_ISR.c **** *   Priority of the interrupt, 0 being the highest priority
 278:Generated_Source\PSoC5/UART_TIMER_ISR.c **** *    PSoC 3 and PSoC 5LP: Priority is from 0 to 7.
 279:Generated_Source\PSoC5/UART_TIMER_ISR.c **** *    PSoC 4: Priority is from 0 to 3.
 280:Generated_Source\PSoC5/UART_TIMER_ISR.c **** *
 281:Generated_Source\PSoC5/UART_TIMER_ISR.c **** *******************************************************************************/
 282:Generated_Source\PSoC5/UART_TIMER_ISR.c **** uint8 UART_TIMER_ISR_GetPriority(void)
 283:Generated_Source\PSoC5/UART_TIMER_ISR.c **** {
 321              		.loc 1 283 0
 322              		.cfi_startproc
 323              		@ args = 0, pretend = 0, frame = 8
 324              		@ frame_needed = 1, uses_anonymous_args = 0
 325              		@ link register save eliminated.
 326 0000 80B4     		push	{r7}
 327              		.cfi_def_cfa_offset 4
 328              		.cfi_offset 7, -4
 329 0002 83B0     		sub	sp, sp, #12
 330              		.cfi_def_cfa_offset 16
 331 0004 00AF     		add	r7, sp, #0
 332              		.cfi_def_cfa_register 7
 284:Generated_Source\PSoC5/UART_TIMER_ISR.c ****     uint8 priority;
 285:Generated_Source\PSoC5/UART_TIMER_ISR.c **** 
 286:Generated_Source\PSoC5/UART_TIMER_ISR.c **** 
 287:Generated_Source\PSoC5/UART_TIMER_ISR.c ****     priority = *UART_TIMER_ISR_INTC_PRIOR >> 5;
 333              		.loc 1 287 0
 334 0006 054B     		ldr	r3, .L23
 335 0008 1B78     		ldrb	r3, [r3]
 336 000a DBB2     		uxtb	r3, r3
 337 000c 5B09     		lsrs	r3, r3, #5
 338 000e FB71     		strb	r3, [r7, #7]
 288:Generated_Source\PSoC5/UART_TIMER_ISR.c **** 
 289:Generated_Source\PSoC5/UART_TIMER_ISR.c ****     return priority;
ARM GAS  C:\Users\Rajesh\AppData\Local\Temp\ccg8XDJd.s 			page 12


 339              		.loc 1 289 0
 340 0010 FB79     		ldrb	r3, [r7, #7]	@ zero_extendqisi2
 290:Generated_Source\PSoC5/UART_TIMER_ISR.c **** }
 341              		.loc 1 290 0
 342 0012 1846     		mov	r0, r3
 343 0014 0C37     		adds	r7, r7, #12
 344              		.cfi_def_cfa_offset 4
 345 0016 BD46     		mov	sp, r7
 346              		.cfi_def_cfa_register 13
 347              		@ sp needed
 348 0018 80BC     		pop	{r7}
 349              		.cfi_restore 7
 350              		.cfi_def_cfa_offset 0
 351 001a 7047     		bx	lr
 352              	.L24:
 353              		.align	2
 354              	.L23:
 355 001c 00E400E0 		.word	-536812544
 356              		.cfi_endproc
 357              	.LFE70:
 358              		.size	UART_TIMER_ISR_GetPriority, .-UART_TIMER_ISR_GetPriority
 359              		.section	.text.UART_TIMER_ISR_Enable,"ax",%progbits
 360              		.align	2
 361              		.global	UART_TIMER_ISR_Enable
 362              		.thumb
 363              		.thumb_func
 364              		.type	UART_TIMER_ISR_Enable, %function
 365              	UART_TIMER_ISR_Enable:
 366              	.LFB71:
 291:Generated_Source\PSoC5/UART_TIMER_ISR.c **** 
 292:Generated_Source\PSoC5/UART_TIMER_ISR.c **** 
 293:Generated_Source\PSoC5/UART_TIMER_ISR.c **** /*******************************************************************************
 294:Generated_Source\PSoC5/UART_TIMER_ISR.c **** * Function Name: UART_TIMER_ISR_Enable
 295:Generated_Source\PSoC5/UART_TIMER_ISR.c **** ********************************************************************************
 296:Generated_Source\PSoC5/UART_TIMER_ISR.c **** *
 297:Generated_Source\PSoC5/UART_TIMER_ISR.c **** * Summary:
 298:Generated_Source\PSoC5/UART_TIMER_ISR.c **** *   Enables the interrupt to the interrupt controller. Do not call this function
 299:Generated_Source\PSoC5/UART_TIMER_ISR.c **** *   unless ISR_Start() has been called or the functionality of the ISR_Start() 
 300:Generated_Source\PSoC5/UART_TIMER_ISR.c **** *   function, which sets the vector and the priority, has been called.
 301:Generated_Source\PSoC5/UART_TIMER_ISR.c **** *
 302:Generated_Source\PSoC5/UART_TIMER_ISR.c **** * Parameters:
 303:Generated_Source\PSoC5/UART_TIMER_ISR.c **** *   None
 304:Generated_Source\PSoC5/UART_TIMER_ISR.c **** *
 305:Generated_Source\PSoC5/UART_TIMER_ISR.c **** * Return:
 306:Generated_Source\PSoC5/UART_TIMER_ISR.c **** *   None
 307:Generated_Source\PSoC5/UART_TIMER_ISR.c **** *
 308:Generated_Source\PSoC5/UART_TIMER_ISR.c **** *******************************************************************************/
 309:Generated_Source\PSoC5/UART_TIMER_ISR.c **** void UART_TIMER_ISR_Enable(void)
 310:Generated_Source\PSoC5/UART_TIMER_ISR.c **** {
 367              		.loc 1 310 0
 368              		.cfi_startproc
 369              		@ args = 0, pretend = 0, frame = 0
 370              		@ frame_needed = 1, uses_anonymous_args = 0
 371              		@ link register save eliminated.
 372 0000 80B4     		push	{r7}
 373              		.cfi_def_cfa_offset 4
 374              		.cfi_offset 7, -4
ARM GAS  C:\Users\Rajesh\AppData\Local\Temp\ccg8XDJd.s 			page 13


 375 0002 00AF     		add	r7, sp, #0
 376              		.cfi_def_cfa_register 7
 311:Generated_Source\PSoC5/UART_TIMER_ISR.c ****     /* Enable the general interrupt. */
 312:Generated_Source\PSoC5/UART_TIMER_ISR.c ****     *UART_TIMER_ISR_INTC_SET_EN = UART_TIMER_ISR__INTC_MASK;
 377              		.loc 1 312 0
 378 0004 034B     		ldr	r3, .L26
 379 0006 0122     		movs	r2, #1
 380 0008 1A60     		str	r2, [r3]
 313:Generated_Source\PSoC5/UART_TIMER_ISR.c **** }
 381              		.loc 1 313 0
 382 000a 00BF     		nop
 383 000c BD46     		mov	sp, r7
 384              		.cfi_def_cfa_register 13
 385              		@ sp needed
 386 000e 80BC     		pop	{r7}
 387              		.cfi_restore 7
 388              		.cfi_def_cfa_offset 0
 389 0010 7047     		bx	lr
 390              	.L27:
 391 0012 00BF     		.align	2
 392              	.L26:
 393 0014 00E100E0 		.word	-536813312
 394              		.cfi_endproc
 395              	.LFE71:
 396              		.size	UART_TIMER_ISR_Enable, .-UART_TIMER_ISR_Enable
 397              		.section	.text.UART_TIMER_ISR_GetState,"ax",%progbits
 398              		.align	2
 399              		.global	UART_TIMER_ISR_GetState
 400              		.thumb
 401              		.thumb_func
 402              		.type	UART_TIMER_ISR_GetState, %function
 403              	UART_TIMER_ISR_GetState:
 404              	.LFB72:
 314:Generated_Source\PSoC5/UART_TIMER_ISR.c **** 
 315:Generated_Source\PSoC5/UART_TIMER_ISR.c **** 
 316:Generated_Source\PSoC5/UART_TIMER_ISR.c **** /*******************************************************************************
 317:Generated_Source\PSoC5/UART_TIMER_ISR.c **** * Function Name: UART_TIMER_ISR_GetState
 318:Generated_Source\PSoC5/UART_TIMER_ISR.c **** ********************************************************************************
 319:Generated_Source\PSoC5/UART_TIMER_ISR.c **** *
 320:Generated_Source\PSoC5/UART_TIMER_ISR.c **** * Summary:
 321:Generated_Source\PSoC5/UART_TIMER_ISR.c **** *   Gets the state (enabled, disabled) of the Interrupt.
 322:Generated_Source\PSoC5/UART_TIMER_ISR.c **** *
 323:Generated_Source\PSoC5/UART_TIMER_ISR.c **** * Parameters:
 324:Generated_Source\PSoC5/UART_TIMER_ISR.c **** *   None
 325:Generated_Source\PSoC5/UART_TIMER_ISR.c **** *
 326:Generated_Source\PSoC5/UART_TIMER_ISR.c **** * Return:
 327:Generated_Source\PSoC5/UART_TIMER_ISR.c **** *   1 if enabled, 0 if disabled.
 328:Generated_Source\PSoC5/UART_TIMER_ISR.c **** *
 329:Generated_Source\PSoC5/UART_TIMER_ISR.c **** *******************************************************************************/
 330:Generated_Source\PSoC5/UART_TIMER_ISR.c **** uint8 UART_TIMER_ISR_GetState(void)
 331:Generated_Source\PSoC5/UART_TIMER_ISR.c **** {
 405              		.loc 1 331 0
 406              		.cfi_startproc
 407              		@ args = 0, pretend = 0, frame = 0
 408              		@ frame_needed = 1, uses_anonymous_args = 0
 409              		@ link register save eliminated.
 410 0000 80B4     		push	{r7}
ARM GAS  C:\Users\Rajesh\AppData\Local\Temp\ccg8XDJd.s 			page 14


 411              		.cfi_def_cfa_offset 4
 412              		.cfi_offset 7, -4
 413 0002 00AF     		add	r7, sp, #0
 414              		.cfi_def_cfa_register 7
 332:Generated_Source\PSoC5/UART_TIMER_ISR.c ****     /* Get the state of the general interrupt. */
 333:Generated_Source\PSoC5/UART_TIMER_ISR.c ****     return ((*UART_TIMER_ISR_INTC_SET_EN & (uint32)UART_TIMER_ISR__INTC_MASK) != 0u) ? 1u:0u;
 415              		.loc 1 333 0
 416 0004 044B     		ldr	r3, .L30
 417 0006 1B68     		ldr	r3, [r3]
 418 0008 DBB2     		uxtb	r3, r3
 419 000a 03F00103 		and	r3, r3, #1
 420 000e DBB2     		uxtb	r3, r3
 334:Generated_Source\PSoC5/UART_TIMER_ISR.c **** }
 421              		.loc 1 334 0
 422 0010 1846     		mov	r0, r3
 423 0012 BD46     		mov	sp, r7
 424              		.cfi_def_cfa_register 13
 425              		@ sp needed
 426 0014 80BC     		pop	{r7}
 427              		.cfi_restore 7
 428              		.cfi_def_cfa_offset 0
 429 0016 7047     		bx	lr
 430              	.L31:
 431              		.align	2
 432              	.L30:
 433 0018 00E100E0 		.word	-536813312
 434              		.cfi_endproc
 435              	.LFE72:
 436              		.size	UART_TIMER_ISR_GetState, .-UART_TIMER_ISR_GetState
 437              		.section	.text.UART_TIMER_ISR_Disable,"ax",%progbits
 438              		.align	2
 439              		.global	UART_TIMER_ISR_Disable
 440              		.thumb
 441              		.thumb_func
 442              		.type	UART_TIMER_ISR_Disable, %function
 443              	UART_TIMER_ISR_Disable:
 444              	.LFB73:
 335:Generated_Source\PSoC5/UART_TIMER_ISR.c **** 
 336:Generated_Source\PSoC5/UART_TIMER_ISR.c **** 
 337:Generated_Source\PSoC5/UART_TIMER_ISR.c **** /*******************************************************************************
 338:Generated_Source\PSoC5/UART_TIMER_ISR.c **** * Function Name: UART_TIMER_ISR_Disable
 339:Generated_Source\PSoC5/UART_TIMER_ISR.c **** ********************************************************************************
 340:Generated_Source\PSoC5/UART_TIMER_ISR.c **** *
 341:Generated_Source\PSoC5/UART_TIMER_ISR.c **** * Summary:
 342:Generated_Source\PSoC5/UART_TIMER_ISR.c **** *   Disables the Interrupt in the interrupt controller.
 343:Generated_Source\PSoC5/UART_TIMER_ISR.c **** *
 344:Generated_Source\PSoC5/UART_TIMER_ISR.c **** * Parameters:
 345:Generated_Source\PSoC5/UART_TIMER_ISR.c **** *   None
 346:Generated_Source\PSoC5/UART_TIMER_ISR.c **** *
 347:Generated_Source\PSoC5/UART_TIMER_ISR.c **** * Return:
 348:Generated_Source\PSoC5/UART_TIMER_ISR.c **** *   None
 349:Generated_Source\PSoC5/UART_TIMER_ISR.c **** *
 350:Generated_Source\PSoC5/UART_TIMER_ISR.c **** *******************************************************************************/
 351:Generated_Source\PSoC5/UART_TIMER_ISR.c **** void UART_TIMER_ISR_Disable(void)
 352:Generated_Source\PSoC5/UART_TIMER_ISR.c **** {
 445              		.loc 1 352 0
 446              		.cfi_startproc
ARM GAS  C:\Users\Rajesh\AppData\Local\Temp\ccg8XDJd.s 			page 15


 447              		@ args = 0, pretend = 0, frame = 0
 448              		@ frame_needed = 1, uses_anonymous_args = 0
 449              		@ link register save eliminated.
 450 0000 80B4     		push	{r7}
 451              		.cfi_def_cfa_offset 4
 452              		.cfi_offset 7, -4
 453 0002 00AF     		add	r7, sp, #0
 454              		.cfi_def_cfa_register 7
 353:Generated_Source\PSoC5/UART_TIMER_ISR.c ****     /* Disable the general interrupt. */
 354:Generated_Source\PSoC5/UART_TIMER_ISR.c ****     *UART_TIMER_ISR_INTC_CLR_EN = UART_TIMER_ISR__INTC_MASK;
 455              		.loc 1 354 0
 456 0004 034B     		ldr	r3, .L33
 457 0006 0122     		movs	r2, #1
 458 0008 1A60     		str	r2, [r3]
 355:Generated_Source\PSoC5/UART_TIMER_ISR.c **** }
 459              		.loc 1 355 0
 460 000a 00BF     		nop
 461 000c BD46     		mov	sp, r7
 462              		.cfi_def_cfa_register 13
 463              		@ sp needed
 464 000e 80BC     		pop	{r7}
 465              		.cfi_restore 7
 466              		.cfi_def_cfa_offset 0
 467 0010 7047     		bx	lr
 468              	.L34:
 469 0012 00BF     		.align	2
 470              	.L33:
 471 0014 80E100E0 		.word	-536813184
 472              		.cfi_endproc
 473              	.LFE73:
 474              		.size	UART_TIMER_ISR_Disable, .-UART_TIMER_ISR_Disable
 475              		.section	.text.UART_TIMER_ISR_SetPending,"ax",%progbits
 476              		.align	2
 477              		.global	UART_TIMER_ISR_SetPending
 478              		.thumb
 479              		.thumb_func
 480              		.type	UART_TIMER_ISR_SetPending, %function
 481              	UART_TIMER_ISR_SetPending:
 482              	.LFB74:
 356:Generated_Source\PSoC5/UART_TIMER_ISR.c **** 
 357:Generated_Source\PSoC5/UART_TIMER_ISR.c **** 
 358:Generated_Source\PSoC5/UART_TIMER_ISR.c **** /*******************************************************************************
 359:Generated_Source\PSoC5/UART_TIMER_ISR.c **** * Function Name: UART_TIMER_ISR_SetPending
 360:Generated_Source\PSoC5/UART_TIMER_ISR.c **** ********************************************************************************
 361:Generated_Source\PSoC5/UART_TIMER_ISR.c **** *
 362:Generated_Source\PSoC5/UART_TIMER_ISR.c **** * Summary:
 363:Generated_Source\PSoC5/UART_TIMER_ISR.c **** *   Causes the Interrupt to enter the pending state, a software method of
 364:Generated_Source\PSoC5/UART_TIMER_ISR.c **** *   generating the interrupt.
 365:Generated_Source\PSoC5/UART_TIMER_ISR.c **** *
 366:Generated_Source\PSoC5/UART_TIMER_ISR.c **** * Parameters:
 367:Generated_Source\PSoC5/UART_TIMER_ISR.c **** *   None
 368:Generated_Source\PSoC5/UART_TIMER_ISR.c **** *
 369:Generated_Source\PSoC5/UART_TIMER_ISR.c **** * Return:
 370:Generated_Source\PSoC5/UART_TIMER_ISR.c **** *   None
 371:Generated_Source\PSoC5/UART_TIMER_ISR.c **** *
 372:Generated_Source\PSoC5/UART_TIMER_ISR.c **** * Side Effects:
 373:Generated_Source\PSoC5/UART_TIMER_ISR.c **** *   If interrupts are enabled and the interrupt is set up properly, the ISR is
ARM GAS  C:\Users\Rajesh\AppData\Local\Temp\ccg8XDJd.s 			page 16


 374:Generated_Source\PSoC5/UART_TIMER_ISR.c **** *   entered (depending on the priority of this interrupt and other pending 
 375:Generated_Source\PSoC5/UART_TIMER_ISR.c **** *   interrupts).
 376:Generated_Source\PSoC5/UART_TIMER_ISR.c **** *
 377:Generated_Source\PSoC5/UART_TIMER_ISR.c **** *******************************************************************************/
 378:Generated_Source\PSoC5/UART_TIMER_ISR.c **** void UART_TIMER_ISR_SetPending(void)
 379:Generated_Source\PSoC5/UART_TIMER_ISR.c **** {
 483              		.loc 1 379 0
 484              		.cfi_startproc
 485              		@ args = 0, pretend = 0, frame = 0
 486              		@ frame_needed = 1, uses_anonymous_args = 0
 487              		@ link register save eliminated.
 488 0000 80B4     		push	{r7}
 489              		.cfi_def_cfa_offset 4
 490              		.cfi_offset 7, -4
 491 0002 00AF     		add	r7, sp, #0
 492              		.cfi_def_cfa_register 7
 380:Generated_Source\PSoC5/UART_TIMER_ISR.c ****     *UART_TIMER_ISR_INTC_SET_PD = UART_TIMER_ISR__INTC_MASK;
 493              		.loc 1 380 0
 494 0004 034B     		ldr	r3, .L36
 495 0006 0122     		movs	r2, #1
 496 0008 1A60     		str	r2, [r3]
 381:Generated_Source\PSoC5/UART_TIMER_ISR.c **** }
 497              		.loc 1 381 0
 498 000a 00BF     		nop
 499 000c BD46     		mov	sp, r7
 500              		.cfi_def_cfa_register 13
 501              		@ sp needed
 502 000e 80BC     		pop	{r7}
 503              		.cfi_restore 7
 504              		.cfi_def_cfa_offset 0
 505 0010 7047     		bx	lr
 506              	.L37:
 507 0012 00BF     		.align	2
 508              	.L36:
 509 0014 00E200E0 		.word	-536813056
 510              		.cfi_endproc
 511              	.LFE74:
 512              		.size	UART_TIMER_ISR_SetPending, .-UART_TIMER_ISR_SetPending
 513              		.section	.text.UART_TIMER_ISR_ClearPending,"ax",%progbits
 514              		.align	2
 515              		.global	UART_TIMER_ISR_ClearPending
 516              		.thumb
 517              		.thumb_func
 518              		.type	UART_TIMER_ISR_ClearPending, %function
 519              	UART_TIMER_ISR_ClearPending:
 520              	.LFB75:
 382:Generated_Source\PSoC5/UART_TIMER_ISR.c **** 
 383:Generated_Source\PSoC5/UART_TIMER_ISR.c **** 
 384:Generated_Source\PSoC5/UART_TIMER_ISR.c **** /*******************************************************************************
 385:Generated_Source\PSoC5/UART_TIMER_ISR.c **** * Function Name: UART_TIMER_ISR_ClearPending
 386:Generated_Source\PSoC5/UART_TIMER_ISR.c **** ********************************************************************************
 387:Generated_Source\PSoC5/UART_TIMER_ISR.c **** *
 388:Generated_Source\PSoC5/UART_TIMER_ISR.c **** * Summary:
 389:Generated_Source\PSoC5/UART_TIMER_ISR.c **** *   Clears a pending interrupt in the interrupt controller.
 390:Generated_Source\PSoC5/UART_TIMER_ISR.c **** *
 391:Generated_Source\PSoC5/UART_TIMER_ISR.c **** *   Note Some interrupt sources are clear-on-read and require the block 
 392:Generated_Source\PSoC5/UART_TIMER_ISR.c **** *   interrupt/status register to be read/cleared with the appropriate block API 
ARM GAS  C:\Users\Rajesh\AppData\Local\Temp\ccg8XDJd.s 			page 17


 393:Generated_Source\PSoC5/UART_TIMER_ISR.c **** *   (GPIO, UART, and so on). Otherwise the ISR will continue to remain in 
 394:Generated_Source\PSoC5/UART_TIMER_ISR.c **** *   pending state even though the interrupt itself is cleared using this API.
 395:Generated_Source\PSoC5/UART_TIMER_ISR.c **** *
 396:Generated_Source\PSoC5/UART_TIMER_ISR.c **** * Parameters:
 397:Generated_Source\PSoC5/UART_TIMER_ISR.c **** *   None
 398:Generated_Source\PSoC5/UART_TIMER_ISR.c **** *
 399:Generated_Source\PSoC5/UART_TIMER_ISR.c **** * Return:
 400:Generated_Source\PSoC5/UART_TIMER_ISR.c **** *   None
 401:Generated_Source\PSoC5/UART_TIMER_ISR.c **** *
 402:Generated_Source\PSoC5/UART_TIMER_ISR.c **** *******************************************************************************/
 403:Generated_Source\PSoC5/UART_TIMER_ISR.c **** void UART_TIMER_ISR_ClearPending(void)
 404:Generated_Source\PSoC5/UART_TIMER_ISR.c **** {
 521              		.loc 1 404 0
 522              		.cfi_startproc
 523              		@ args = 0, pretend = 0, frame = 0
 524              		@ frame_needed = 1, uses_anonymous_args = 0
 525              		@ link register save eliminated.
 526 0000 80B4     		push	{r7}
 527              		.cfi_def_cfa_offset 4
 528              		.cfi_offset 7, -4
 529 0002 00AF     		add	r7, sp, #0
 530              		.cfi_def_cfa_register 7
 405:Generated_Source\PSoC5/UART_TIMER_ISR.c ****     *UART_TIMER_ISR_INTC_CLR_PD = UART_TIMER_ISR__INTC_MASK;
 531              		.loc 1 405 0
 532 0004 034B     		ldr	r3, .L39
 533 0006 0122     		movs	r2, #1
 534 0008 1A60     		str	r2, [r3]
 406:Generated_Source\PSoC5/UART_TIMER_ISR.c **** }
 535              		.loc 1 406 0
 536 000a 00BF     		nop
 537 000c BD46     		mov	sp, r7
 538              		.cfi_def_cfa_register 13
 539              		@ sp needed
 540 000e 80BC     		pop	{r7}
 541              		.cfi_restore 7
 542              		.cfi_def_cfa_offset 0
 543 0010 7047     		bx	lr
 544              	.L40:
 545 0012 00BF     		.align	2
 546              	.L39:
 547 0014 80E200E0 		.word	-536812928
 548              		.cfi_endproc
 549              	.LFE75:
 550              		.size	UART_TIMER_ISR_ClearPending, .-UART_TIMER_ISR_ClearPending
 551              		.text
 552              	.Letext0:
 553              		.file 2 "c:\\program files (x86)\\cypress\\psoc creator\\4.2\\psoc creator\\import\\gnu\\arm\\5.4.
 554              		.file 3 "c:\\program files (x86)\\cypress\\psoc creator\\4.2\\psoc creator\\import\\gnu\\arm\\5.4.
 555              		.file 4 "Generated_Source\\PSoC5/cytypes.h"
 556              		.file 5 "./softuart.h"
 557              		.file 6 "Generated_Source\\PSoC5/core_cm3.h"
 558              		.file 7 "./system.h"