ARM GAS  C:\Users\Rajesh\AppData\Local\Temp\ccHrml9R.s 			page 1


   1              		.syntax unified
   2              		.cpu cortex-m0
   3              		.fpu softvfp
   4              		.eabi_attribute 20, 1
   5              		.eabi_attribute 21, 1
   6              		.eabi_attribute 23, 3
   7              		.eabi_attribute 24, 1
   8              		.eabi_attribute 25, 1
   9              		.eabi_attribute 26, 1
  10              		.eabi_attribute 30, 1
  11              		.eabi_attribute 34, 0
  12              		.eabi_attribute 18, 4
  13              		.thumb
  14              		.syntax unified
  15              		.file	"vl53l0x_platform.c"
  16              		.text
  17              	.Ltext0:
  18              		.cfi_sections	.debug_frame
  19              		.section	.text.VL53L0X_LockSequenceAccess,"ax",%progbits
  20              		.align	2
  21              		.global	VL53L0X_LockSequenceAccess
  22              		.code	16
  23              		.thumb_func
  24              		.type	VL53L0X_LockSequenceAccess, %function
  25              	VL53L0X_LockSequenceAccess:
  26              	.LFB35:
  27              		.file 1 "Api\\platform\\src\\vl53l0x_platform.c"
   1:Api\platform\src/vl53l0x_platform.c **** /*******************************************************************************
   2:Api\platform\src/vl53l0x_platform.c **** Copyright © 2015, STMicroelectronics International N.V.
   3:Api\platform\src/vl53l0x_platform.c **** All rights reserved.
   4:Api\platform\src/vl53l0x_platform.c **** 
   5:Api\platform\src/vl53l0x_platform.c **** Redistribution and use in source and binary forms, with or without
   6:Api\platform\src/vl53l0x_platform.c **** modification, are permitted provided that the following conditions are met:
   7:Api\platform\src/vl53l0x_platform.c ****     * Redistributions of source code must retain the above copyright
   8:Api\platform\src/vl53l0x_platform.c ****       notice, this list of conditions and the following disclaimer.
   9:Api\platform\src/vl53l0x_platform.c ****     * Redistributions in binary form must reproduce the above copyright
  10:Api\platform\src/vl53l0x_platform.c ****       notice, this list of conditions and the following disclaimer in the
  11:Api\platform\src/vl53l0x_platform.c ****       documentation and/or other materials provided with the distribution.
  12:Api\platform\src/vl53l0x_platform.c ****     * Neither the name of STMicroelectronics nor the
  13:Api\platform\src/vl53l0x_platform.c ****       names of its contributors may be used to endorse or promote products
  14:Api\platform\src/vl53l0x_platform.c ****       derived from this software without specific prior written permission.
  15:Api\platform\src/vl53l0x_platform.c **** 
  16:Api\platform\src/vl53l0x_platform.c **** THIS SOFTWARE IS PROVIDED BY THE COPYRIGHT HOLDERS AND CONTRIBUTORS "AS IS" AND
  17:Api\platform\src/vl53l0x_platform.c **** ANY EXPRESS OR IMPLIED WARRANTIES, INCLUDING, BUT NOT LIMITED TO, THE IMPLIED
  18:Api\platform\src/vl53l0x_platform.c **** WARRANTIES OF MERCHANTABILITY, FITNESS FOR A PARTICULAR PURPOSE, AND
  19:Api\platform\src/vl53l0x_platform.c **** NON-INFRINGEMENT OF INTELLECTUAL PROPERTY RIGHTS ARE DISCLAIMED.
  20:Api\platform\src/vl53l0x_platform.c **** IN NO EVENT SHALL STMICROELECTRONICS INTERNATIONAL N.V. BE LIABLE FOR ANY
  21:Api\platform\src/vl53l0x_platform.c **** DIRECT, INDIRECT, INCIDENTAL, SPECIAL, EXEMPLARY, OR CONSEQUENTIAL DAMAGES
  22:Api\platform\src/vl53l0x_platform.c **** (INCLUDING, BUT NOT LIMITED TO, PROCUREMENT OF SUBSTITUTE GOODS OR SERVICES;
  23:Api\platform\src/vl53l0x_platform.c **** LOSS OF USE, DATA, OR PROFITS; OR BUSINESS INTERRUPTION) HOWEVER CAUSED AND
  24:Api\platform\src/vl53l0x_platform.c **** ON ANY THEORY OF LIABILITY, WHETHER IN CONTRACT, STRICT LIABILITY, OR TORT
  25:Api\platform\src/vl53l0x_platform.c **** (INCLUDING NEGLIGENCE OR OTHERWISE) ARISING IN ANY WAY OUT OF THE USE OF THIS
  26:Api\platform\src/vl53l0x_platform.c **** SOFTWARE, EVEN IF ADVISED OF THE POSSIBILITY OF SUCH DAMAGE.
  27:Api\platform\src/vl53l0x_platform.c **** ********************************************************************************/
  28:Api\platform\src/vl53l0x_platform.c **** 
  29:Api\platform\src/vl53l0x_platform.c **** /**
  30:Api\platform\src/vl53l0x_platform.c ****  * @file VL53L0X_i2c.c
ARM GAS  C:\Users\Rajesh\AppData\Local\Temp\ccHrml9R.s 			page 2


  31:Api\platform\src/vl53l0x_platform.c ****  *
  32:Api\platform\src/vl53l0x_platform.c ****  * Copyright (C) 2014 ST MicroElectronics
  33:Api\platform\src/vl53l0x_platform.c ****  *
  34:Api\platform\src/vl53l0x_platform.c ****  * provide variable word size byte/Word/dword VL6180x register access via i2c
  35:Api\platform\src/vl53l0x_platform.c ****  *
  36:Api\platform\src/vl53l0x_platform.c ****  */
  37:Api\platform\src/vl53l0x_platform.c **** #include "vl53l0x_platform.h"
  38:Api\platform\src/vl53l0x_platform.c **** #include "vl53l0x_i2c_platform.h"
  39:Api\platform\src/vl53l0x_platform.c **** #include "vl53l0x_api.h"
  40:Api\platform\src/vl53l0x_platform.c **** #include <project.h>
  41:Api\platform\src/vl53l0x_platform.c **** //#include <Windows.h>
  42:Api\platform\src/vl53l0x_platform.c **** 
  43:Api\platform\src/vl53l0x_platform.c **** #define LOG_FUNCTION_START(fmt, ... )           _LOG_FUNCTION_START(TRACE_MODULE_PLATFORM, fmt, ##_
  44:Api\platform\src/vl53l0x_platform.c **** #define LOG_FUNCTION_END(status, ... )          _LOG_FUNCTION_END(TRACE_MODULE_PLATFORM, status, ##
  45:Api\platform\src/vl53l0x_platform.c **** #define LOG_FUNCTION_END_FMT(status, fmt, ... ) _LOG_FUNCTION_END_FMT(TRACE_MODULE_PLATFORM, status
  46:Api\platform\src/vl53l0x_platform.c **** 
  47:Api\platform\src/vl53l0x_platform.c **** /**
  48:Api\platform\src/vl53l0x_platform.c ****  * @def I2C_BUFFER_CONFIG
  49:Api\platform\src/vl53l0x_platform.c ****  *
  50:Api\platform\src/vl53l0x_platform.c ****  * @brief Configure Device register I2C access
  51:Api\platform\src/vl53l0x_platform.c ****  *
  52:Api\platform\src/vl53l0x_platform.c ****  * @li 0 : one GLOBAL buffer \n
  53:Api\platform\src/vl53l0x_platform.c ****  *   Use one global buffer of MAX_I2C_XFER_SIZE byte in data space \n
  54:Api\platform\src/vl53l0x_platform.c ****  *   This solution is not multi-Device compliant nor multi-thread cpu safe \n
  55:Api\platform\src/vl53l0x_platform.c ****  *   It can be the best option for small 8/16 bit MCU without stack and limited ram  (STM8s, 80C51 
  56:Api\platform\src/vl53l0x_platform.c ****  *
  57:Api\platform\src/vl53l0x_platform.c ****  * @li 1 : ON_STACK/local \n
  58:Api\platform\src/vl53l0x_platform.c ****  *   Use local variable (on stack) buffer \n
  59:Api\platform\src/vl53l0x_platform.c ****  *   This solution is multi-thread with use of i2c resource lock or mutex see VL6180x_GetI2CAccess(
  60:Api\platform\src/vl53l0x_platform.c ****  *
  61:Api\platform\src/vl53l0x_platform.c ****  * @li 2 : User defined \n
  62:Api\platform\src/vl53l0x_platform.c ****  *    Per Device potentially dynamic allocated. Requires VL6180x_GetI2cBuffer() to be implemented.
  63:Api\platform\src/vl53l0x_platform.c ****  * @ingroup Configuration
  64:Api\platform\src/vl53l0x_platform.c ****  */
  65:Api\platform\src/vl53l0x_platform.c **** #define I2C_BUFFER_CONFIG 0
  66:Api\platform\src/vl53l0x_platform.c **** /** Maximum buffer size to be used in i2c */
  67:Api\platform\src/vl53l0x_platform.c **** #define VL53L0X_MAX_I2C_XFER_SIZE   64 /* Maximum buffer size to be used in i2c */
  68:Api\platform\src/vl53l0x_platform.c **** 
  69:Api\platform\src/vl53l0x_platform.c **** #if I2C_BUFFER_CONFIG == 0
  70:Api\platform\src/vl53l0x_platform.c ****     /* GLOBAL config buffer */
  71:Api\platform\src/vl53l0x_platform.c ****     uint8_t i2c_global_buffer[VL53L0X_MAX_I2C_XFER_SIZE];
  72:Api\platform\src/vl53l0x_platform.c **** 
  73:Api\platform\src/vl53l0x_platform.c ****     #define DECL_I2C_BUFFER
  74:Api\platform\src/vl53l0x_platform.c ****     #define VL53L0X_GetLocalBuffer(Dev, n_byte)  i2c_global_buffer
  75:Api\platform\src/vl53l0x_platform.c **** 
  76:Api\platform\src/vl53l0x_platform.c **** #elif I2C_BUFFER_CONFIG == 1
  77:Api\platform\src/vl53l0x_platform.c ****     /* ON STACK */
  78:Api\platform\src/vl53l0x_platform.c ****     #define DECL_I2C_BUFFER  uint8_t LocBuffer[VL53L0X_MAX_I2C_XFER_SIZE];
  79:Api\platform\src/vl53l0x_platform.c ****     #define VL53L0X_GetLocalBuffer(Dev, n_byte)  LocBuffer
  80:Api\platform\src/vl53l0x_platform.c **** #elif I2C_BUFFER_CONFIG == 2
  81:Api\platform\src/vl53l0x_platform.c ****     /* user define buffer type declare DECL_I2C_BUFFER  as access  via VL53L0X_GetLocalBuffer */
  82:Api\platform\src/vl53l0x_platform.c ****     #define DECL_I2C_BUFFER
  83:Api\platform\src/vl53l0x_platform.c **** #else
  84:Api\platform\src/vl53l0x_platform.c **** #error "invalid I2C_BUFFER_CONFIG "
  85:Api\platform\src/vl53l0x_platform.c **** #endif
  86:Api\platform\src/vl53l0x_platform.c **** 
  87:Api\platform\src/vl53l0x_platform.c **** 
ARM GAS  C:\Users\Rajesh\AppData\Local\Temp\ccHrml9R.s 			page 3


  88:Api\platform\src/vl53l0x_platform.c **** #define VL53L0X_I2C_USER_VAR         /* none but could be for a flag var to get/pass to mutex inter
  89:Api\platform\src/vl53l0x_platform.c **** #define VL53L0X_GetI2CAccess(Dev)    /* todo mutex acquire */
  90:Api\platform\src/vl53l0x_platform.c **** #define VL53L0X_DoneI2CAcces(Dev)    /* todo mutex release */
  91:Api\platform\src/vl53l0x_platform.c **** 
  92:Api\platform\src/vl53l0x_platform.c **** 
  93:Api\platform\src/vl53l0x_platform.c **** VL53L0X_Error VL53L0X_LockSequenceAccess(VL53L0X_DEV Dev){
  28              		.loc 1 93 0
  29              		.cfi_startproc
  30              		@ args = 0, pretend = 0, frame = 0
  31              		@ frame_needed = 0, uses_anonymous_args = 0
  32              		@ link register save eliminated.
  33              	.LVL0:
  94:Api\platform\src/vl53l0x_platform.c ****     VL53L0X_Error Status = VL53L0X_ERROR_NONE;
  95:Api\platform\src/vl53l0x_platform.c **** 
  96:Api\platform\src/vl53l0x_platform.c ****     return Status;
  97:Api\platform\src/vl53l0x_platform.c **** }
  34              		.loc 1 97 0
  35 0000 0020     		movs	r0, #0
  36              	.LVL1:
  37              		@ sp needed
  38 0002 7047     		bx	lr
  39              		.cfi_endproc
  40              	.LFE35:
  41              		.size	VL53L0X_LockSequenceAccess, .-VL53L0X_LockSequenceAccess
  42              		.section	.text.VL53L0X_UnlockSequenceAccess,"ax",%progbits
  43              		.align	2
  44              		.global	VL53L0X_UnlockSequenceAccess
  45              		.code	16
  46              		.thumb_func
  47              		.type	VL53L0X_UnlockSequenceAccess, %function
  48              	VL53L0X_UnlockSequenceAccess:
  49              	.LFB36:
  98:Api\platform\src/vl53l0x_platform.c **** 
  99:Api\platform\src/vl53l0x_platform.c **** VL53L0X_Error VL53L0X_UnlockSequenceAccess(VL53L0X_DEV Dev){
  50              		.loc 1 99 0
  51              		.cfi_startproc
  52              		@ args = 0, pretend = 0, frame = 0
  53              		@ frame_needed = 0, uses_anonymous_args = 0
  54              		@ link register save eliminated.
  55              	.LVL2:
 100:Api\platform\src/vl53l0x_platform.c ****     VL53L0X_Error Status = VL53L0X_ERROR_NONE;
 101:Api\platform\src/vl53l0x_platform.c **** 
 102:Api\platform\src/vl53l0x_platform.c ****     return Status;
 103:Api\platform\src/vl53l0x_platform.c **** }
  56              		.loc 1 103 0
  57 0000 0020     		movs	r0, #0
  58              	.LVL3:
  59              		@ sp needed
  60 0002 7047     		bx	lr
  61              		.cfi_endproc
  62              	.LFE36:
  63              		.size	VL53L0X_UnlockSequenceAccess, .-VL53L0X_UnlockSequenceAccess
  64              		.section	.text.VL53L0X_WriteMulti,"ax",%progbits
  65              		.align	2
  66              		.global	VL53L0X_WriteMulti
  67              		.code	16
  68              		.thumb_func
ARM GAS  C:\Users\Rajesh\AppData\Local\Temp\ccHrml9R.s 			page 4


  69              		.type	VL53L0X_WriteMulti, %function
  70              	VL53L0X_WriteMulti:
  71              	.LFB37:
 104:Api\platform\src/vl53l0x_platform.c **** 
 105:Api\platform\src/vl53l0x_platform.c **** // the ranging_sensor_comms.dll will take care of the page selection
 106:Api\platform\src/vl53l0x_platform.c **** VL53L0X_Error VL53L0X_WriteMulti(VL53L0X_DEV Dev, uint8_t index, uint8_t *pdata, uint32_t count){
  72              		.loc 1 106 0
  73              		.cfi_startproc
  74              		@ args = 0, pretend = 0, frame = 0
  75              		@ frame_needed = 0, uses_anonymous_args = 0
  76              	.LVL4:
  77 0000 70B5     		push	{r4, r5, r6, lr}
  78              		.cfi_def_cfa_offset 16
  79              		.cfi_offset 4, -16
  80              		.cfi_offset 5, -12
  81              		.cfi_offset 6, -8
  82              		.cfi_offset 14, -4
  83              	.LVL5:
 107:Api\platform\src/vl53l0x_platform.c **** 
 108:Api\platform\src/vl53l0x_platform.c ****     VL53L0X_Error Status = VL53L0X_ERROR_NONE;
 109:Api\platform\src/vl53l0x_platform.c ****     int32_t status_int = 0;
 110:Api\platform\src/vl53l0x_platform.c **** 	uint8_t deviceAddress;
 111:Api\platform\src/vl53l0x_platform.c **** 
 112:Api\platform\src/vl53l0x_platform.c ****     if (count>=VL53L0X_MAX_I2C_XFER_SIZE){
  84              		.loc 1 112 0
  85 0002 3F2B     		cmp	r3, #63
  86 0004 01D8     		bhi	.L6
 108:Api\platform\src/vl53l0x_platform.c ****     int32_t status_int = 0;
  87              		.loc 1 108 0
  88 0006 0024     		movs	r4, #0
  89 0008 01E0     		b	.L4
  90              	.L6:
 113:Api\platform\src/vl53l0x_platform.c ****         Status = VL53L0X_ERROR_INVALID_PARAMS;
  91              		.loc 1 113 0
  92 000a 0424     		movs	r4, #4
  93 000c 6442     		rsbs	r4, r4, #0
  94              	.L4:
  95              	.LVL6:
 114:Api\platform\src/vl53l0x_platform.c ****     }
 115:Api\platform\src/vl53l0x_platform.c **** 
 116:Api\platform\src/vl53l0x_platform.c **** 	deviceAddress = Dev->I2cDevAddr;
  96              		.loc 1 116 0
  97 000e AE25     		movs	r5, #174
  98 0010 6D00     		lsls	r5, r5, #1
  99 0012 405D     		ldrb	r0, [r0, r5]
 100              	.LVL7:
 117:Api\platform\src/vl53l0x_platform.c **** 
 118:Api\platform\src/vl53l0x_platform.c **** 	status_int = VL53L0X_write_multi(deviceAddress, index, pdata, count);
 101              		.loc 1 118 0
 102 0014 FFF7FEFF 		bl	VL53L0X_write_multi
 103              	.LVL8:
 119:Api\platform\src/vl53l0x_platform.c **** 
 120:Api\platform\src/vl53l0x_platform.c **** 	if (status_int != 0)
 104              		.loc 1 120 0
 105 0018 0028     		cmp	r0, #0
 106 001a 01D0     		beq	.L5
 121:Api\platform\src/vl53l0x_platform.c **** 		Status = VL53L0X_ERROR_CONTROL_INTERFACE;
ARM GAS  C:\Users\Rajesh\AppData\Local\Temp\ccHrml9R.s 			page 5


 107              		.loc 1 121 0
 108 001c 1424     		movs	r4, #20
 109              	.LVL9:
 110 001e 6442     		rsbs	r4, r4, #0
 111              	.L5:
 112              	.LVL10:
 122:Api\platform\src/vl53l0x_platform.c **** 
 123:Api\platform\src/vl53l0x_platform.c ****     return Status;
 124:Api\platform\src/vl53l0x_platform.c **** }
 113              		.loc 1 124 0
 114 0020 2000     		movs	r0, r4
 115              	.LVL11:
 116              		@ sp needed
 117              	.LVL12:
 118 0022 70BD     		pop	{r4, r5, r6, pc}
 119              		.cfi_endproc
 120              	.LFE37:
 121              		.size	VL53L0X_WriteMulti, .-VL53L0X_WriteMulti
 122              		.section	.text.VL53L0X_ReadMulti,"ax",%progbits
 123              		.align	2
 124              		.global	VL53L0X_ReadMulti
 125              		.code	16
 126              		.thumb_func
 127              		.type	VL53L0X_ReadMulti, %function
 128              	VL53L0X_ReadMulti:
 129              	.LFB38:
 125:Api\platform\src/vl53l0x_platform.c **** 
 126:Api\platform\src/vl53l0x_platform.c **** // the ranging_sensor_comms.dll will take care of the page selection
 127:Api\platform\src/vl53l0x_platform.c **** VL53L0X_Error VL53L0X_ReadMulti(VL53L0X_DEV Dev, uint8_t index, uint8_t *pdata, uint32_t count){
 130              		.loc 1 127 0
 131              		.cfi_startproc
 132              		@ args = 0, pretend = 0, frame = 0
 133              		@ frame_needed = 0, uses_anonymous_args = 0
 134              	.LVL13:
 135 0000 70B5     		push	{r4, r5, r6, lr}
 136              		.cfi_def_cfa_offset 16
 137              		.cfi_offset 4, -16
 138              		.cfi_offset 5, -12
 139              		.cfi_offset 6, -8
 140              		.cfi_offset 14, -4
 141              	.LVL14:
 128:Api\platform\src/vl53l0x_platform.c ****     VL53L0X_I2C_USER_VAR
 129:Api\platform\src/vl53l0x_platform.c ****     VL53L0X_Error Status = VL53L0X_ERROR_NONE;
 130:Api\platform\src/vl53l0x_platform.c ****     int32_t status_int;
 131:Api\platform\src/vl53l0x_platform.c **** 	uint8_t deviceAddress;
 132:Api\platform\src/vl53l0x_platform.c **** 
 133:Api\platform\src/vl53l0x_platform.c ****     if (count>=VL53L0X_MAX_I2C_XFER_SIZE){
 142              		.loc 1 133 0
 143 0002 3F2B     		cmp	r3, #63
 144 0004 01D8     		bhi	.L11
 129:Api\platform\src/vl53l0x_platform.c ****     int32_t status_int;
 145              		.loc 1 129 0
 146 0006 0024     		movs	r4, #0
 147 0008 01E0     		b	.L9
 148              	.L11:
 134:Api\platform\src/vl53l0x_platform.c ****         Status = VL53L0X_ERROR_INVALID_PARAMS;
 149              		.loc 1 134 0
ARM GAS  C:\Users\Rajesh\AppData\Local\Temp\ccHrml9R.s 			page 6


 150 000a 0424     		movs	r4, #4
 151 000c 6442     		rsbs	r4, r4, #0
 152              	.L9:
 153              	.LVL15:
 135:Api\platform\src/vl53l0x_platform.c ****     }
 136:Api\platform\src/vl53l0x_platform.c **** 
 137:Api\platform\src/vl53l0x_platform.c ****     deviceAddress = Dev->I2cDevAddr;
 154              		.loc 1 137 0
 155 000e AE25     		movs	r5, #174
 156 0010 6D00     		lsls	r5, r5, #1
 157 0012 405D     		ldrb	r0, [r0, r5]
 158              	.LVL16:
 138:Api\platform\src/vl53l0x_platform.c **** 
 139:Api\platform\src/vl53l0x_platform.c **** 	status_int = VL53L0X_read_multi(deviceAddress, index, pdata, count);
 159              		.loc 1 139 0
 160 0014 FFF7FEFF 		bl	VL53L0X_read_multi
 161              	.LVL17:
 140:Api\platform\src/vl53l0x_platform.c **** 
 141:Api\platform\src/vl53l0x_platform.c **** 	if (status_int != 0)
 162              		.loc 1 141 0
 163 0018 0028     		cmp	r0, #0
 164 001a 01D0     		beq	.L10
 142:Api\platform\src/vl53l0x_platform.c **** 		Status = VL53L0X_ERROR_CONTROL_INTERFACE;
 165              		.loc 1 142 0
 166 001c 1424     		movs	r4, #20
 167              	.LVL18:
 168 001e 6442     		rsbs	r4, r4, #0
 169              	.L10:
 170              	.LVL19:
 143:Api\platform\src/vl53l0x_platform.c **** 
 144:Api\platform\src/vl53l0x_platform.c ****     return Status;
 145:Api\platform\src/vl53l0x_platform.c **** }
 171              		.loc 1 145 0
 172 0020 2000     		movs	r0, r4
 173              	.LVL20:
 174              		@ sp needed
 175              	.LVL21:
 176 0022 70BD     		pop	{r4, r5, r6, pc}
 177              		.cfi_endproc
 178              	.LFE38:
 179              		.size	VL53L0X_ReadMulti, .-VL53L0X_ReadMulti
 180              		.section	.text.VL53L0X_WrByte,"ax",%progbits
 181              		.align	2
 182              		.global	VL53L0X_WrByte
 183              		.code	16
 184              		.thumb_func
 185              		.type	VL53L0X_WrByte, %function
 186              	VL53L0X_WrByte:
 187              	.LFB39:
 146:Api\platform\src/vl53l0x_platform.c **** 
 147:Api\platform\src/vl53l0x_platform.c **** 
 148:Api\platform\src/vl53l0x_platform.c **** VL53L0X_Error VL53L0X_WrByte(VL53L0X_DEV Dev, uint8_t index, uint8_t data){
 188              		.loc 1 148 0
 189              		.cfi_startproc
 190              		@ args = 0, pretend = 0, frame = 0
 191              		@ frame_needed = 0, uses_anonymous_args = 0
 192              	.LVL22:
ARM GAS  C:\Users\Rajesh\AppData\Local\Temp\ccHrml9R.s 			page 7


 193 0000 10B5     		push	{r4, lr}
 194              		.cfi_def_cfa_offset 8
 195              		.cfi_offset 4, -8
 196              		.cfi_offset 14, -4
 197              	.LVL23:
 149:Api\platform\src/vl53l0x_platform.c ****     VL53L0X_Error Status = VL53L0X_ERROR_NONE;
 150:Api\platform\src/vl53l0x_platform.c ****     int32_t status_int;
 151:Api\platform\src/vl53l0x_platform.c **** 	uint8_t deviceAddress;
 152:Api\platform\src/vl53l0x_platform.c **** 
 153:Api\platform\src/vl53l0x_platform.c ****     deviceAddress = Dev->I2cDevAddr;
 198              		.loc 1 153 0
 199 0002 AE23     		movs	r3, #174
 200 0004 5B00     		lsls	r3, r3, #1
 201 0006 C05C     		ldrb	r0, [r0, r3]
 202              	.LVL24:
 154:Api\platform\src/vl53l0x_platform.c **** 
 155:Api\platform\src/vl53l0x_platform.c **** 	status_int = VL53L0X_write_byte(deviceAddress, index, data);
 203              		.loc 1 155 0
 204 0008 FFF7FEFF 		bl	VL53L0X_write_byte
 205              	.LVL25:
 156:Api\platform\src/vl53l0x_platform.c **** 
 157:Api\platform\src/vl53l0x_platform.c **** 	if (status_int != 0)
 206              		.loc 1 157 0
 207 000c 0028     		cmp	r0, #0
 208 000e 01D0     		beq	.L14
 158:Api\platform\src/vl53l0x_platform.c **** 		Status = VL53L0X_ERROR_CONTROL_INTERFACE;
 209              		.loc 1 158 0
 210 0010 1420     		movs	r0, #20
 211              	.LVL26:
 212 0012 4042     		rsbs	r0, r0, #0
 213              	.L14:
 214              	.LVL27:
 159:Api\platform\src/vl53l0x_platform.c **** 
 160:Api\platform\src/vl53l0x_platform.c ****     return Status;
 161:Api\platform\src/vl53l0x_platform.c **** }
 215              		.loc 1 161 0
 216              		@ sp needed
 217 0014 10BD     		pop	{r4, pc}
 218              		.cfi_endproc
 219              	.LFE39:
 220              		.size	VL53L0X_WrByte, .-VL53L0X_WrByte
 221 0016 C046     		.section	.text.VL53L0X_WrWord,"ax",%progbits
 222              		.align	2
 223              		.global	VL53L0X_WrWord
 224              		.code	16
 225              		.thumb_func
 226              		.type	VL53L0X_WrWord, %function
 227              	VL53L0X_WrWord:
 228              	.LFB40:
 162:Api\platform\src/vl53l0x_platform.c **** 
 163:Api\platform\src/vl53l0x_platform.c **** VL53L0X_Error VL53L0X_WrWord(VL53L0X_DEV Dev, uint8_t index, uint16_t data){
 229              		.loc 1 163 0
 230              		.cfi_startproc
 231              		@ args = 0, pretend = 0, frame = 0
 232              		@ frame_needed = 0, uses_anonymous_args = 0
 233              	.LVL28:
 234 0000 10B5     		push	{r4, lr}
ARM GAS  C:\Users\Rajesh\AppData\Local\Temp\ccHrml9R.s 			page 8


 235              		.cfi_def_cfa_offset 8
 236              		.cfi_offset 4, -8
 237              		.cfi_offset 14, -4
 238              	.LVL29:
 164:Api\platform\src/vl53l0x_platform.c ****     VL53L0X_Error Status = VL53L0X_ERROR_NONE;
 165:Api\platform\src/vl53l0x_platform.c ****     int32_t status_int;
 166:Api\platform\src/vl53l0x_platform.c **** 	uint8_t deviceAddress;
 167:Api\platform\src/vl53l0x_platform.c **** 
 168:Api\platform\src/vl53l0x_platform.c ****     deviceAddress = Dev->I2cDevAddr;
 239              		.loc 1 168 0
 240 0002 AE23     		movs	r3, #174
 241 0004 5B00     		lsls	r3, r3, #1
 242 0006 C05C     		ldrb	r0, [r0, r3]
 243              	.LVL30:
 169:Api\platform\src/vl53l0x_platform.c **** 
 170:Api\platform\src/vl53l0x_platform.c **** 	status_int = VL53L0X_write_word(deviceAddress, index, data);
 244              		.loc 1 170 0
 245 0008 FFF7FEFF 		bl	VL53L0X_write_word
 246              	.LVL31:
 171:Api\platform\src/vl53l0x_platform.c **** 
 172:Api\platform\src/vl53l0x_platform.c **** 	if (status_int != 0)
 247              		.loc 1 172 0
 248 000c 0028     		cmp	r0, #0
 249 000e 01D0     		beq	.L17
 173:Api\platform\src/vl53l0x_platform.c **** 		Status = VL53L0X_ERROR_CONTROL_INTERFACE;
 250              		.loc 1 173 0
 251 0010 1420     		movs	r0, #20
 252              	.LVL32:
 253 0012 4042     		rsbs	r0, r0, #0
 254              	.L17:
 255              	.LVL33:
 174:Api\platform\src/vl53l0x_platform.c **** 
 175:Api\platform\src/vl53l0x_platform.c ****     return Status;
 176:Api\platform\src/vl53l0x_platform.c **** }
 256              		.loc 1 176 0
 257              		@ sp needed
 258 0014 10BD     		pop	{r4, pc}
 259              		.cfi_endproc
 260              	.LFE40:
 261              		.size	VL53L0X_WrWord, .-VL53L0X_WrWord
 262 0016 C046     		.section	.text.VL53L0X_WrDWord,"ax",%progbits
 263              		.align	2
 264              		.global	VL53L0X_WrDWord
 265              		.code	16
 266              		.thumb_func
 267              		.type	VL53L0X_WrDWord, %function
 268              	VL53L0X_WrDWord:
 269              	.LFB41:
 177:Api\platform\src/vl53l0x_platform.c **** 
 178:Api\platform\src/vl53l0x_platform.c **** VL53L0X_Error VL53L0X_WrDWord(VL53L0X_DEV Dev, uint8_t index, uint32_t data){
 270              		.loc 1 178 0
 271              		.cfi_startproc
 272              		@ args = 0, pretend = 0, frame = 0
 273              		@ frame_needed = 0, uses_anonymous_args = 0
 274              	.LVL34:
 275 0000 10B5     		push	{r4, lr}
 276              		.cfi_def_cfa_offset 8
ARM GAS  C:\Users\Rajesh\AppData\Local\Temp\ccHrml9R.s 			page 9


 277              		.cfi_offset 4, -8
 278              		.cfi_offset 14, -4
 279              	.LVL35:
 179:Api\platform\src/vl53l0x_platform.c ****     VL53L0X_Error Status = VL53L0X_ERROR_NONE;
 180:Api\platform\src/vl53l0x_platform.c ****     int32_t status_int;
 181:Api\platform\src/vl53l0x_platform.c **** 	uint8_t deviceAddress;
 182:Api\platform\src/vl53l0x_platform.c **** 
 183:Api\platform\src/vl53l0x_platform.c ****     deviceAddress = Dev->I2cDevAddr;
 280              		.loc 1 183 0
 281 0002 AE23     		movs	r3, #174
 282 0004 5B00     		lsls	r3, r3, #1
 283 0006 C05C     		ldrb	r0, [r0, r3]
 284              	.LVL36:
 184:Api\platform\src/vl53l0x_platform.c **** 
 185:Api\platform\src/vl53l0x_platform.c **** 	status_int = VL53L0X_write_dword(deviceAddress, index, data);
 285              		.loc 1 185 0
 286 0008 FFF7FEFF 		bl	VL53L0X_write_dword
 287              	.LVL37:
 186:Api\platform\src/vl53l0x_platform.c **** 
 187:Api\platform\src/vl53l0x_platform.c **** 	if (status_int != 0)
 288              		.loc 1 187 0
 289 000c 0028     		cmp	r0, #0
 290 000e 01D0     		beq	.L20
 188:Api\platform\src/vl53l0x_platform.c **** 		Status = VL53L0X_ERROR_CONTROL_INTERFACE;
 291              		.loc 1 188 0
 292 0010 1420     		movs	r0, #20
 293              	.LVL38:
 294 0012 4042     		rsbs	r0, r0, #0
 295              	.L20:
 296              	.LVL39:
 189:Api\platform\src/vl53l0x_platform.c **** 
 190:Api\platform\src/vl53l0x_platform.c ****     return Status;
 191:Api\platform\src/vl53l0x_platform.c **** }
 297              		.loc 1 191 0
 298              		@ sp needed
 299 0014 10BD     		pop	{r4, pc}
 300              		.cfi_endproc
 301              	.LFE41:
 302              		.size	VL53L0X_WrDWord, .-VL53L0X_WrDWord
 303 0016 C046     		.section	.text.VL53L0X_UpdateByte,"ax",%progbits
 304              		.align	2
 305              		.global	VL53L0X_UpdateByte
 306              		.code	16
 307              		.thumb_func
 308              		.type	VL53L0X_UpdateByte, %function
 309              	VL53L0X_UpdateByte:
 310              	.LFB42:
 192:Api\platform\src/vl53l0x_platform.c **** 
 193:Api\platform\src/vl53l0x_platform.c **** VL53L0X_Error VL53L0X_UpdateByte(VL53L0X_DEV Dev, uint8_t index, uint8_t AndData, uint8_t OrData){
 311              		.loc 1 193 0
 312              		.cfi_startproc
 313              		@ args = 0, pretend = 0, frame = 16
 314              		@ frame_needed = 0, uses_anonymous_args = 0
 315              	.LVL40:
 316 0000 F0B5     		push	{r4, r5, r6, r7, lr}
 317              		.cfi_def_cfa_offset 20
 318              		.cfi_offset 4, -20
ARM GAS  C:\Users\Rajesh\AppData\Local\Temp\ccHrml9R.s 			page 10


 319              		.cfi_offset 5, -16
 320              		.cfi_offset 6, -12
 321              		.cfi_offset 7, -8
 322              		.cfi_offset 14, -4
 323 0002 85B0     		sub	sp, sp, #20
 324              		.cfi_def_cfa_offset 40
 325 0004 0191     		str	r1, [sp, #4]
 326 0006 1400     		movs	r4, r2
 327 0008 1F00     		movs	r7, r3
 328              	.LVL41:
 194:Api\platform\src/vl53l0x_platform.c ****     VL53L0X_Error Status = VL53L0X_ERROR_NONE;
 195:Api\platform\src/vl53l0x_platform.c ****     int32_t status_int;
 196:Api\platform\src/vl53l0x_platform.c ****     uint8_t deviceAddress;
 197:Api\platform\src/vl53l0x_platform.c ****     uint8_t data;
 198:Api\platform\src/vl53l0x_platform.c **** 
 199:Api\platform\src/vl53l0x_platform.c ****     deviceAddress = Dev->I2cDevAddr;
 329              		.loc 1 199 0
 330 000a AE23     		movs	r3, #174
 331              	.LVL42:
 332 000c 5B00     		lsls	r3, r3, #1
 333 000e C55C     		ldrb	r5, [r0, r3]
 334              	.LVL43:
 200:Api\platform\src/vl53l0x_platform.c **** 
 201:Api\platform\src/vl53l0x_platform.c ****     status_int = VL53L0X_read_byte(deviceAddress, index, &data);
 335              		.loc 1 201 0
 336 0010 02AB     		add	r3, sp, #8
 337 0012 DA1D     		adds	r2, r3, #7
 338              	.LVL44:
 339 0014 2800     		movs	r0, r5
 340              	.LVL45:
 341 0016 FFF7FEFF 		bl	VL53L0X_read_byte
 342              	.LVL46:
 202:Api\platform\src/vl53l0x_platform.c **** 
 203:Api\platform\src/vl53l0x_platform.c ****     if (status_int != 0)
 343              		.loc 1 203 0
 344 001a 0028     		cmp	r0, #0
 345 001c 01D1     		bne	.L25
 194:Api\platform\src/vl53l0x_platform.c ****     int32_t status_int;
 346              		.loc 1 194 0
 347 001e 0026     		movs	r6, #0
 348 0020 01E0     		b	.L23
 349              	.L25:
 204:Api\platform\src/vl53l0x_platform.c ****         Status = VL53L0X_ERROR_CONTROL_INTERFACE;
 350              		.loc 1 204 0
 351 0022 1426     		movs	r6, #20
 352 0024 7642     		rsbs	r6, r6, #0
 353              	.L23:
 354              	.LVL47:
 205:Api\platform\src/vl53l0x_platform.c **** 
 206:Api\platform\src/vl53l0x_platform.c ****     if (Status == VL53L0X_ERROR_NONE) {
 355              		.loc 1 206 0
 356 0026 002E     		cmp	r6, #0
 357 0028 0BD1     		bne	.L24
 207:Api\platform\src/vl53l0x_platform.c ****         data = (data & AndData) | OrData;
 358              		.loc 1 207 0
 359 002a 02AB     		add	r3, sp, #8
 360 002c DA79     		ldrb	r2, [r3, #7]
ARM GAS  C:\Users\Rajesh\AppData\Local\Temp\ccHrml9R.s 			page 11


 361 002e 2240     		ands	r2, r4
 362 0030 3A43     		orrs	r2, r7
 363 0032 DA71     		strb	r2, [r3, #7]
 208:Api\platform\src/vl53l0x_platform.c ****         status_int = VL53L0X_write_byte(deviceAddress, index, data);
 364              		.loc 1 208 0
 365 0034 0199     		ldr	r1, [sp, #4]
 366 0036 2800     		movs	r0, r5
 367              	.LVL48:
 368 0038 FFF7FEFF 		bl	VL53L0X_write_byte
 369              	.LVL49:
 209:Api\platform\src/vl53l0x_platform.c **** 
 210:Api\platform\src/vl53l0x_platform.c ****         if (status_int != 0)
 370              		.loc 1 210 0
 371 003c 0028     		cmp	r0, #0
 372 003e 00D0     		beq	.L24
 211:Api\platform\src/vl53l0x_platform.c ****             Status = VL53L0X_ERROR_CONTROL_INTERFACE;
 373              		.loc 1 211 0
 374 0040 143E     		subs	r6, r6, #20
 375              	.LVL50:
 376              	.L24:
 212:Api\platform\src/vl53l0x_platform.c ****     }
 213:Api\platform\src/vl53l0x_platform.c **** 
 214:Api\platform\src/vl53l0x_platform.c ****     return Status;
 215:Api\platform\src/vl53l0x_platform.c **** }
 377              		.loc 1 215 0
 378 0042 3000     		movs	r0, r6
 379              	.LVL51:
 380 0044 05B0     		add	sp, sp, #20
 381              		@ sp needed
 382              	.LVL52:
 383              	.LVL53:
 384 0046 F0BD     		pop	{r4, r5, r6, r7, pc}
 385              		.cfi_endproc
 386              	.LFE42:
 387              		.size	VL53L0X_UpdateByte, .-VL53L0X_UpdateByte
 388              		.section	.text.VL53L0X_RdByte,"ax",%progbits
 389              		.align	2
 390              		.global	VL53L0X_RdByte
 391              		.code	16
 392              		.thumb_func
 393              		.type	VL53L0X_RdByte, %function
 394              	VL53L0X_RdByte:
 395              	.LFB43:
 216:Api\platform\src/vl53l0x_platform.c **** 
 217:Api\platform\src/vl53l0x_platform.c **** VL53L0X_Error VL53L0X_RdByte(VL53L0X_DEV Dev, uint8_t index, uint8_t *data){
 396              		.loc 1 217 0
 397              		.cfi_startproc
 398              		@ args = 0, pretend = 0, frame = 0
 399              		@ frame_needed = 0, uses_anonymous_args = 0
 400              	.LVL54:
 401 0000 10B5     		push	{r4, lr}
 402              		.cfi_def_cfa_offset 8
 403              		.cfi_offset 4, -8
 404              		.cfi_offset 14, -4
 405              	.LVL55:
 218:Api\platform\src/vl53l0x_platform.c ****     VL53L0X_Error Status = VL53L0X_ERROR_NONE;
 219:Api\platform\src/vl53l0x_platform.c ****     int32_t status_int;
ARM GAS  C:\Users\Rajesh\AppData\Local\Temp\ccHrml9R.s 			page 12


 220:Api\platform\src/vl53l0x_platform.c ****     uint8_t deviceAddress;
 221:Api\platform\src/vl53l0x_platform.c **** 
 222:Api\platform\src/vl53l0x_platform.c ****     deviceAddress = Dev->I2cDevAddr;
 406              		.loc 1 222 0
 407 0002 AE23     		movs	r3, #174
 408 0004 5B00     		lsls	r3, r3, #1
 409 0006 C05C     		ldrb	r0, [r0, r3]
 410              	.LVL56:
 223:Api\platform\src/vl53l0x_platform.c **** 
 224:Api\platform\src/vl53l0x_platform.c ****     status_int = VL53L0X_read_byte(deviceAddress, index, data);
 411              		.loc 1 224 0
 412 0008 FFF7FEFF 		bl	VL53L0X_read_byte
 413              	.LVL57:
 225:Api\platform\src/vl53l0x_platform.c **** 
 226:Api\platform\src/vl53l0x_platform.c ****     if (status_int != 0)
 414              		.loc 1 226 0
 415 000c 0028     		cmp	r0, #0
 416 000e 01D0     		beq	.L28
 227:Api\platform\src/vl53l0x_platform.c ****         Status = VL53L0X_ERROR_CONTROL_INTERFACE;
 417              		.loc 1 227 0
 418 0010 1420     		movs	r0, #20
 419              	.LVL58:
 420 0012 4042     		rsbs	r0, r0, #0
 421              	.L28:
 422              	.LVL59:
 228:Api\platform\src/vl53l0x_platform.c **** 
 229:Api\platform\src/vl53l0x_platform.c ****     return Status;
 230:Api\platform\src/vl53l0x_platform.c **** }
 423              		.loc 1 230 0
 424              		@ sp needed
 425 0014 10BD     		pop	{r4, pc}
 426              		.cfi_endproc
 427              	.LFE43:
 428              		.size	VL53L0X_RdByte, .-VL53L0X_RdByte
 429 0016 C046     		.section	.text.VL53L0X_RdWord,"ax",%progbits
 430              		.align	2
 431              		.global	VL53L0X_RdWord
 432              		.code	16
 433              		.thumb_func
 434              		.type	VL53L0X_RdWord, %function
 435              	VL53L0X_RdWord:
 436              	.LFB44:
 231:Api\platform\src/vl53l0x_platform.c **** 
 232:Api\platform\src/vl53l0x_platform.c **** VL53L0X_Error VL53L0X_RdWord(VL53L0X_DEV Dev, uint8_t index, uint16_t *data){
 437              		.loc 1 232 0
 438              		.cfi_startproc
 439              		@ args = 0, pretend = 0, frame = 0
 440              		@ frame_needed = 0, uses_anonymous_args = 0
 441              	.LVL60:
 442 0000 10B5     		push	{r4, lr}
 443              		.cfi_def_cfa_offset 8
 444              		.cfi_offset 4, -8
 445              		.cfi_offset 14, -4
 446              	.LVL61:
 233:Api\platform\src/vl53l0x_platform.c ****     VL53L0X_Error Status = VL53L0X_ERROR_NONE;
 234:Api\platform\src/vl53l0x_platform.c ****     int32_t status_int;
 235:Api\platform\src/vl53l0x_platform.c ****     uint8_t deviceAddress;
ARM GAS  C:\Users\Rajesh\AppData\Local\Temp\ccHrml9R.s 			page 13


 236:Api\platform\src/vl53l0x_platform.c **** 
 237:Api\platform\src/vl53l0x_platform.c ****     deviceAddress = Dev->I2cDevAddr;
 447              		.loc 1 237 0
 448 0002 AE23     		movs	r3, #174
 449 0004 5B00     		lsls	r3, r3, #1
 450 0006 C05C     		ldrb	r0, [r0, r3]
 451              	.LVL62:
 238:Api\platform\src/vl53l0x_platform.c **** 
 239:Api\platform\src/vl53l0x_platform.c ****     status_int = VL53L0X_read_word(deviceAddress, index, data);
 452              		.loc 1 239 0
 453 0008 FFF7FEFF 		bl	VL53L0X_read_word
 454              	.LVL63:
 240:Api\platform\src/vl53l0x_platform.c **** 
 241:Api\platform\src/vl53l0x_platform.c ****     if (status_int != 0)
 455              		.loc 1 241 0
 456 000c 0028     		cmp	r0, #0
 457 000e 01D0     		beq	.L31
 242:Api\platform\src/vl53l0x_platform.c ****         Status = VL53L0X_ERROR_CONTROL_INTERFACE;
 458              		.loc 1 242 0
 459 0010 1420     		movs	r0, #20
 460              	.LVL64:
 461 0012 4042     		rsbs	r0, r0, #0
 462              	.L31:
 463              	.LVL65:
 243:Api\platform\src/vl53l0x_platform.c **** 
 244:Api\platform\src/vl53l0x_platform.c ****     return Status;
 245:Api\platform\src/vl53l0x_platform.c **** }
 464              		.loc 1 245 0
 465              		@ sp needed
 466 0014 10BD     		pop	{r4, pc}
 467              		.cfi_endproc
 468              	.LFE44:
 469              		.size	VL53L0X_RdWord, .-VL53L0X_RdWord
 470 0016 C046     		.section	.text.VL53L0X_RdDWord,"ax",%progbits
 471              		.align	2
 472              		.global	VL53L0X_RdDWord
 473              		.code	16
 474              		.thumb_func
 475              		.type	VL53L0X_RdDWord, %function
 476              	VL53L0X_RdDWord:
 477              	.LFB45:
 246:Api\platform\src/vl53l0x_platform.c **** 
 247:Api\platform\src/vl53l0x_platform.c **** VL53L0X_Error  VL53L0X_RdDWord(VL53L0X_DEV Dev, uint8_t index, uint32_t *data){
 478              		.loc 1 247 0
 479              		.cfi_startproc
 480              		@ args = 0, pretend = 0, frame = 0
 481              		@ frame_needed = 0, uses_anonymous_args = 0
 482              	.LVL66:
 483 0000 10B5     		push	{r4, lr}
 484              		.cfi_def_cfa_offset 8
 485              		.cfi_offset 4, -8
 486              		.cfi_offset 14, -4
 487              	.LVL67:
 248:Api\platform\src/vl53l0x_platform.c ****     VL53L0X_Error Status = VL53L0X_ERROR_NONE;
 249:Api\platform\src/vl53l0x_platform.c ****     int32_t status_int;
 250:Api\platform\src/vl53l0x_platform.c ****     uint8_t deviceAddress;
 251:Api\platform\src/vl53l0x_platform.c **** 
ARM GAS  C:\Users\Rajesh\AppData\Local\Temp\ccHrml9R.s 			page 14


 252:Api\platform\src/vl53l0x_platform.c ****     deviceAddress = Dev->I2cDevAddr;
 488              		.loc 1 252 0
 489 0002 AE23     		movs	r3, #174
 490 0004 5B00     		lsls	r3, r3, #1
 491 0006 C05C     		ldrb	r0, [r0, r3]
 492              	.LVL68:
 253:Api\platform\src/vl53l0x_platform.c **** 
 254:Api\platform\src/vl53l0x_platform.c ****     status_int = VL53L0X_read_dword(deviceAddress, index, data);
 493              		.loc 1 254 0
 494 0008 FFF7FEFF 		bl	VL53L0X_read_dword
 495              	.LVL69:
 255:Api\platform\src/vl53l0x_platform.c **** 
 256:Api\platform\src/vl53l0x_platform.c ****     if (status_int != 0)
 496              		.loc 1 256 0
 497 000c 0028     		cmp	r0, #0
 498 000e 01D0     		beq	.L34
 257:Api\platform\src/vl53l0x_platform.c ****         Status = VL53L0X_ERROR_CONTROL_INTERFACE;
 499              		.loc 1 257 0
 500 0010 1420     		movs	r0, #20
 501              	.LVL70:
 502 0012 4042     		rsbs	r0, r0, #0
 503              	.L34:
 504              	.LVL71:
 258:Api\platform\src/vl53l0x_platform.c **** 
 259:Api\platform\src/vl53l0x_platform.c ****     return Status;
 260:Api\platform\src/vl53l0x_platform.c **** }
 505              		.loc 1 260 0
 506              		@ sp needed
 507 0014 10BD     		pop	{r4, pc}
 508              		.cfi_endproc
 509              	.LFE45:
 510              		.size	VL53L0X_RdDWord, .-VL53L0X_RdDWord
 511 0016 C046     		.section	.text.VL53L0X_PollingDelay,"ax",%progbits
 512              		.align	2
 513              		.global	VL53L0X_PollingDelay
 514              		.code	16
 515              		.thumb_func
 516              		.type	VL53L0X_PollingDelay, %function
 517              	VL53L0X_PollingDelay:
 518              	.LFB46:
 261:Api\platform\src/vl53l0x_platform.c **** 
 262:Api\platform\src/vl53l0x_platform.c **** #define VL53L0X_POLLINGDELAY_LOOPNB  250
 263:Api\platform\src/vl53l0x_platform.c **** VL53L0X_Error VL53L0X_PollingDelay(VL53L0X_DEV Dev){
 519              		.loc 1 263 0
 520              		.cfi_startproc
 521              		@ args = 0, pretend = 0, frame = 0
 522              		@ frame_needed = 0, uses_anonymous_args = 0
 523              	.LVL72:
 524 0000 10B5     		push	{r4, lr}
 525              		.cfi_def_cfa_offset 8
 526              		.cfi_offset 4, -8
 527              		.cfi_offset 14, -4
 528              	.LVL73:
 264:Api\platform\src/vl53l0x_platform.c ****     VL53L0X_Error status = VL53L0X_ERROR_NONE;
 265:Api\platform\src/vl53l0x_platform.c ****    // LOG_FUNCTION_START("");
 266:Api\platform\src/vl53l0x_platform.c **** 
 267:Api\platform\src/vl53l0x_platform.c ****     CyDelayUs(1000);
ARM GAS  C:\Users\Rajesh\AppData\Local\Temp\ccHrml9R.s 			page 15


 529              		.loc 1 267 0
 530 0002 FA20     		movs	r0, #250
 531              	.LVL74:
 532 0004 8000     		lsls	r0, r0, #2
 533 0006 FFF7FEFF 		bl	CyDelayUs
 534              	.LVL75:
 268:Api\platform\src/vl53l0x_platform.c ****     return status;
 269:Api\platform\src/vl53l0x_platform.c **** }
 535              		.loc 1 269 0
 536 000a 0020     		movs	r0, #0
 537              		@ sp needed
 538 000c 10BD     		pop	{r4, pc}
 539              		.cfi_endproc
 540              	.LFE46:
 541              		.size	VL53L0X_PollingDelay, .-VL53L0X_PollingDelay
 542              		.comm	i2c_global_buffer,64,4
 543 000e C046     		.text
 544              	.Letext0:
 545              		.file 2 "c:\\program files (x86)\\cypress\\psoc creator\\4.2\\psoc creator\\import\\gnu\\arm\\5.4.
 546              		.file 3 "c:\\program files (x86)\\cypress\\psoc creator\\4.2\\psoc creator\\import\\gnu\\arm\\5.4.
 547              		.file 4 ".\\Api\\platform\\inc/vl53l0x_types.h"
 548              		.file 5 ".\\Api\\core\\inc/vl53l0x_device.h"
 549              		.file 6 ".\\Api\\core\\inc/vl53l0x_def.h"
 550              		.file 7 ".\\Api\\platform\\inc/vl53l0x_platform.h"
 551              		.file 8 ".\\Api\\platform\\inc/vl53l0x_i2c_platform.h"
 552              		.file 9 "Generated_Source\\PSoC4/CyLib.h"